   1              		.file	"testBinIO.cpp"
   2              		.text
   3              	.Ltext0:
   4              		.section	.text._ZStorSt13_Ios_OpenmodeS_,"axG",@progbits,_ZStorSt13_Ios_OpenmodeS_,comdat
   5              		.weak	_ZStorSt13_Ios_OpenmodeS_
   7              	_ZStorSt13_Ios_OpenmodeS_:
   8              	.LFB663:
   9              		.file 1 "/usr/include/c++/7/bits/ios_base.h"
   1:/usr/include/c++/7/bits/ios_base.h **** // Iostreams base classes -*- C++ -*-
   2:/usr/include/c++/7/bits/ios_base.h **** 
   3:/usr/include/c++/7/bits/ios_base.h **** // Copyright (C) 1997-2017 Free Software Foundation, Inc.
   4:/usr/include/c++/7/bits/ios_base.h **** //
   5:/usr/include/c++/7/bits/ios_base.h **** // This file is part of the GNU ISO C++ Library.  This library is free
   6:/usr/include/c++/7/bits/ios_base.h **** // software; you can redistribute it and/or modify it under the
   7:/usr/include/c++/7/bits/ios_base.h **** // terms of the GNU General Public License as published by the
   8:/usr/include/c++/7/bits/ios_base.h **** // Free Software Foundation; either version 3, or (at your option)
   9:/usr/include/c++/7/bits/ios_base.h **** // any later version.
  10:/usr/include/c++/7/bits/ios_base.h **** 
  11:/usr/include/c++/7/bits/ios_base.h **** // This library is distributed in the hope that it will be useful,
  12:/usr/include/c++/7/bits/ios_base.h **** // but WITHOUT ANY WARRANTY; without even the implied warranty of
  13:/usr/include/c++/7/bits/ios_base.h **** // MERCHANTABILITY or FITNESS FOR A PARTICULAR PURPOSE.  See the
  14:/usr/include/c++/7/bits/ios_base.h **** // GNU General Public License for more details.
  15:/usr/include/c++/7/bits/ios_base.h **** 
  16:/usr/include/c++/7/bits/ios_base.h **** // Under Section 7 of GPL version 3, you are granted additional
  17:/usr/include/c++/7/bits/ios_base.h **** // permissions described in the GCC Runtime Library Exception, version
  18:/usr/include/c++/7/bits/ios_base.h **** // 3.1, as published by the Free Software Foundation.
  19:/usr/include/c++/7/bits/ios_base.h **** 
  20:/usr/include/c++/7/bits/ios_base.h **** // You should have received a copy of the GNU General Public License and
  21:/usr/include/c++/7/bits/ios_base.h **** // a copy of the GCC Runtime Library Exception along with this program;
  22:/usr/include/c++/7/bits/ios_base.h **** // see the files COPYING3 and COPYING.RUNTIME respectively.  If not, see
  23:/usr/include/c++/7/bits/ios_base.h **** // <http://www.gnu.org/licenses/>.
  24:/usr/include/c++/7/bits/ios_base.h **** 
  25:/usr/include/c++/7/bits/ios_base.h **** /** @file bits/ios_base.h
  26:/usr/include/c++/7/bits/ios_base.h ****  *  This is an internal header file, included by other library headers.
  27:/usr/include/c++/7/bits/ios_base.h ****  *  Do not attempt to use it directly. @headername{ios}
  28:/usr/include/c++/7/bits/ios_base.h ****  */
  29:/usr/include/c++/7/bits/ios_base.h **** 
  30:/usr/include/c++/7/bits/ios_base.h **** //
  31:/usr/include/c++/7/bits/ios_base.h **** // ISO C++ 14882: 27.4  Iostreams base classes
  32:/usr/include/c++/7/bits/ios_base.h **** //
  33:/usr/include/c++/7/bits/ios_base.h **** 
  34:/usr/include/c++/7/bits/ios_base.h **** #ifndef _IOS_BASE_H
  35:/usr/include/c++/7/bits/ios_base.h **** #define _IOS_BASE_H 1
  36:/usr/include/c++/7/bits/ios_base.h **** 
  37:/usr/include/c++/7/bits/ios_base.h **** #pragma GCC system_header
  38:/usr/include/c++/7/bits/ios_base.h **** 
  39:/usr/include/c++/7/bits/ios_base.h **** #include <ext/atomicity.h>
  40:/usr/include/c++/7/bits/ios_base.h **** #include <bits/localefwd.h>
  41:/usr/include/c++/7/bits/ios_base.h **** #include <bits/locale_classes.h>
  42:/usr/include/c++/7/bits/ios_base.h **** 
  43:/usr/include/c++/7/bits/ios_base.h **** #if __cplusplus < 201103L
  44:/usr/include/c++/7/bits/ios_base.h **** # include <stdexcept>
  45:/usr/include/c++/7/bits/ios_base.h **** #else
  46:/usr/include/c++/7/bits/ios_base.h **** # include <system_error>
  47:/usr/include/c++/7/bits/ios_base.h **** #endif
  48:/usr/include/c++/7/bits/ios_base.h **** 
  49:/usr/include/c++/7/bits/ios_base.h **** namespace std _GLIBCXX_VISIBILITY(default)
  50:/usr/include/c++/7/bits/ios_base.h **** {
  51:/usr/include/c++/7/bits/ios_base.h **** _GLIBCXX_BEGIN_NAMESPACE_VERSION
  52:/usr/include/c++/7/bits/ios_base.h **** 
  53:/usr/include/c++/7/bits/ios_base.h ****   // The following definitions of bitmask types are enums, not ints,
  54:/usr/include/c++/7/bits/ios_base.h ****   // as permitted (but not required) in the standard, in order to provide
  55:/usr/include/c++/7/bits/ios_base.h ****   // better type safety in iostream calls.  A side effect is that in C++98
  56:/usr/include/c++/7/bits/ios_base.h ****   // expressions involving them are not compile-time constants.
  57:/usr/include/c++/7/bits/ios_base.h ****   enum _Ios_Fmtflags 
  58:/usr/include/c++/7/bits/ios_base.h ****     { 
  59:/usr/include/c++/7/bits/ios_base.h ****       _S_boolalpha 	= 1L << 0,
  60:/usr/include/c++/7/bits/ios_base.h ****       _S_dec 		= 1L << 1,
  61:/usr/include/c++/7/bits/ios_base.h ****       _S_fixed 		= 1L << 2,
  62:/usr/include/c++/7/bits/ios_base.h ****       _S_hex 		= 1L << 3,
  63:/usr/include/c++/7/bits/ios_base.h ****       _S_internal 	= 1L << 4,
  64:/usr/include/c++/7/bits/ios_base.h ****       _S_left 		= 1L << 5,
  65:/usr/include/c++/7/bits/ios_base.h ****       _S_oct 		= 1L << 6,
  66:/usr/include/c++/7/bits/ios_base.h ****       _S_right 		= 1L << 7,
  67:/usr/include/c++/7/bits/ios_base.h ****       _S_scientific 	= 1L << 8,
  68:/usr/include/c++/7/bits/ios_base.h ****       _S_showbase 	= 1L << 9,
  69:/usr/include/c++/7/bits/ios_base.h ****       _S_showpoint 	= 1L << 10,
  70:/usr/include/c++/7/bits/ios_base.h ****       _S_showpos 	= 1L << 11,
  71:/usr/include/c++/7/bits/ios_base.h ****       _S_skipws 	= 1L << 12,
  72:/usr/include/c++/7/bits/ios_base.h ****       _S_unitbuf 	= 1L << 13,
  73:/usr/include/c++/7/bits/ios_base.h ****       _S_uppercase 	= 1L << 14,
  74:/usr/include/c++/7/bits/ios_base.h ****       _S_adjustfield 	= _S_left | _S_right | _S_internal,
  75:/usr/include/c++/7/bits/ios_base.h ****       _S_basefield 	= _S_dec | _S_oct | _S_hex,
  76:/usr/include/c++/7/bits/ios_base.h ****       _S_floatfield 	= _S_scientific | _S_fixed,
  77:/usr/include/c++/7/bits/ios_base.h ****       _S_ios_fmtflags_end = 1L << 16,
  78:/usr/include/c++/7/bits/ios_base.h ****       _S_ios_fmtflags_max = __INT_MAX__,
  79:/usr/include/c++/7/bits/ios_base.h ****       _S_ios_fmtflags_min = ~__INT_MAX__
  80:/usr/include/c++/7/bits/ios_base.h ****     };
  81:/usr/include/c++/7/bits/ios_base.h **** 
  82:/usr/include/c++/7/bits/ios_base.h ****   inline _GLIBCXX_CONSTEXPR _Ios_Fmtflags
  83:/usr/include/c++/7/bits/ios_base.h ****   operator&(_Ios_Fmtflags __a, _Ios_Fmtflags __b)
  84:/usr/include/c++/7/bits/ios_base.h ****   { return _Ios_Fmtflags(static_cast<int>(__a) & static_cast<int>(__b)); }
  85:/usr/include/c++/7/bits/ios_base.h **** 
  86:/usr/include/c++/7/bits/ios_base.h ****   inline _GLIBCXX_CONSTEXPR _Ios_Fmtflags
  87:/usr/include/c++/7/bits/ios_base.h ****   operator|(_Ios_Fmtflags __a, _Ios_Fmtflags __b)
  88:/usr/include/c++/7/bits/ios_base.h ****   { return _Ios_Fmtflags(static_cast<int>(__a) | static_cast<int>(__b)); }
  89:/usr/include/c++/7/bits/ios_base.h **** 
  90:/usr/include/c++/7/bits/ios_base.h ****   inline _GLIBCXX_CONSTEXPR _Ios_Fmtflags
  91:/usr/include/c++/7/bits/ios_base.h ****   operator^(_Ios_Fmtflags __a, _Ios_Fmtflags __b)
  92:/usr/include/c++/7/bits/ios_base.h ****   { return _Ios_Fmtflags(static_cast<int>(__a) ^ static_cast<int>(__b)); }
  93:/usr/include/c++/7/bits/ios_base.h **** 
  94:/usr/include/c++/7/bits/ios_base.h ****   inline _GLIBCXX_CONSTEXPR _Ios_Fmtflags
  95:/usr/include/c++/7/bits/ios_base.h ****   operator~(_Ios_Fmtflags __a)
  96:/usr/include/c++/7/bits/ios_base.h ****   { return _Ios_Fmtflags(~static_cast<int>(__a)); }
  97:/usr/include/c++/7/bits/ios_base.h **** 
  98:/usr/include/c++/7/bits/ios_base.h ****   inline const _Ios_Fmtflags&
  99:/usr/include/c++/7/bits/ios_base.h ****   operator|=(_Ios_Fmtflags& __a, _Ios_Fmtflags __b)
 100:/usr/include/c++/7/bits/ios_base.h ****   { return __a = __a | __b; }
 101:/usr/include/c++/7/bits/ios_base.h **** 
 102:/usr/include/c++/7/bits/ios_base.h ****   inline const _Ios_Fmtflags&
 103:/usr/include/c++/7/bits/ios_base.h ****   operator&=(_Ios_Fmtflags& __a, _Ios_Fmtflags __b)
 104:/usr/include/c++/7/bits/ios_base.h ****   { return __a = __a & __b; }
 105:/usr/include/c++/7/bits/ios_base.h **** 
 106:/usr/include/c++/7/bits/ios_base.h ****   inline const _Ios_Fmtflags&
 107:/usr/include/c++/7/bits/ios_base.h ****   operator^=(_Ios_Fmtflags& __a, _Ios_Fmtflags __b)
 108:/usr/include/c++/7/bits/ios_base.h ****   { return __a = __a ^ __b; }
 109:/usr/include/c++/7/bits/ios_base.h **** 
 110:/usr/include/c++/7/bits/ios_base.h **** 
 111:/usr/include/c++/7/bits/ios_base.h ****   enum _Ios_Openmode 
 112:/usr/include/c++/7/bits/ios_base.h ****     { 
 113:/usr/include/c++/7/bits/ios_base.h ****       _S_app 		= 1L << 0,
 114:/usr/include/c++/7/bits/ios_base.h ****       _S_ate 		= 1L << 1,
 115:/usr/include/c++/7/bits/ios_base.h ****       _S_bin 		= 1L << 2,
 116:/usr/include/c++/7/bits/ios_base.h ****       _S_in 		= 1L << 3,
 117:/usr/include/c++/7/bits/ios_base.h ****       _S_out 		= 1L << 4,
 118:/usr/include/c++/7/bits/ios_base.h ****       _S_trunc 		= 1L << 5,
 119:/usr/include/c++/7/bits/ios_base.h ****       _S_ios_openmode_end = 1L << 16,
 120:/usr/include/c++/7/bits/ios_base.h ****       _S_ios_openmode_max = __INT_MAX__,
 121:/usr/include/c++/7/bits/ios_base.h ****       _S_ios_openmode_min = ~__INT_MAX__
 122:/usr/include/c++/7/bits/ios_base.h ****     };
 123:/usr/include/c++/7/bits/ios_base.h **** 
 124:/usr/include/c++/7/bits/ios_base.h ****   inline _GLIBCXX_CONSTEXPR _Ios_Openmode
 125:/usr/include/c++/7/bits/ios_base.h ****   operator&(_Ios_Openmode __a, _Ios_Openmode __b)
 126:/usr/include/c++/7/bits/ios_base.h ****   { return _Ios_Openmode(static_cast<int>(__a) & static_cast<int>(__b)); }
 127:/usr/include/c++/7/bits/ios_base.h **** 
 128:/usr/include/c++/7/bits/ios_base.h ****   inline _GLIBCXX_CONSTEXPR _Ios_Openmode
 129:/usr/include/c++/7/bits/ios_base.h ****   operator|(_Ios_Openmode __a, _Ios_Openmode __b)
 130:/usr/include/c++/7/bits/ios_base.h ****   { return _Ios_Openmode(static_cast<int>(__a) | static_cast<int>(__b)); }
  10              		.loc 1 130 0
  11              		.cfi_startproc
  12 0000 55       		pushq	%rbp
  13              		.cfi_def_cfa_offset 16
  14              		.cfi_offset 6, -16
  15 0001 4889E5   		movq	%rsp, %rbp
  16              		.cfi_def_cfa_register 6
  17 0004 897DFC   		movl	%edi, -4(%rbp)
  18 0007 8975F8   		movl	%esi, -8(%rbp)
  19              		.loc 1 130 0
  20 000a 8B45FC   		movl	-4(%rbp), %eax
  21 000d 0B45F8   		orl	-8(%rbp), %eax
  22 0010 5D       		popq	%rbp
  23              		.cfi_def_cfa 7, 8
  24 0011 C3       		ret
  25              		.cfi_endproc
  26              	.LFE663:
  28              		.section	.rodata
  29              	.LC0:
  30 0000 44656661 		.string	"DefaultSuite"
  30      756C7453 
  30      75697465 
  30      00
  31              		.section	.text._ZN13UnitTestSuite12GetSuiteNameEv,"axG",@progbits,_ZN13UnitTestSuite12GetSuiteName
  32              		.weak	_ZN13UnitTestSuite12GetSuiteNameEv
  34              	_ZN13UnitTestSuite12GetSuiteNameEv:
  35              	.LFB1104:
  36              		.file 2 "/home/gani/eval/20140524/makestuff/libs/libutpp/TestSuite.h"
   1:/home/gani/eval/20140524/makestuff/libs/libutpp/TestSuite.h **** #ifndef UNITTEST_TESTSUITE_H
   2:/home/gani/eval/20140524/makestuff/libs/libutpp/TestSuite.h **** #define UNITTEST_TESTSUITE_H
   3:/home/gani/eval/20140524/makestuff/libs/libutpp/TestSuite.h **** 
   4:/home/gani/eval/20140524/makestuff/libs/libutpp/TestSuite.h **** namespace UnitTestSuite {
   5:/home/gani/eval/20140524/makestuff/libs/libutpp/TestSuite.h **** 
   6:/home/gani/eval/20140524/makestuff/libs/libutpp/TestSuite.h ****     inline char const* GetSuiteName ()
   7:/home/gani/eval/20140524/makestuff/libs/libutpp/TestSuite.h ****     {
  37              		.loc 2 7 0
  38              		.cfi_startproc
  39 0000 55       		pushq	%rbp
  40              		.cfi_def_cfa_offset 16
  41              		.cfi_offset 6, -16
  42 0001 4889E5   		movq	%rsp, %rbp
  43              		.cfi_def_cfa_register 6
   8:/home/gani/eval/20140524/makestuff/libs/libutpp/TestSuite.h ****         return "DefaultSuite";
  44              		.loc 2 8 0
  45 0004 488D0500 		leaq	.LC0(%rip), %rax
  45      000000
   9:/home/gani/eval/20140524/makestuff/libs/libutpp/TestSuite.h ****     }
  46              		.loc 2 9 0
  47 000b 5D       		popq	%rbp
  48              		.cfi_def_cfa 7, 8
  49 000c C3       		ret
  50              		.cfi_endproc
  51              	.LFE1104:
  53              		.section	.text._ZN8UnitTest15MemoryOutStreamC1Ev,"axG",@progbits,_ZN8UnitTest15MemoryOutStreamC1Ev
  54              		.align 2
  55              		.weak	_ZN8UnitTest15MemoryOutStreamC1Ev
  57              	_ZN8UnitTest15MemoryOutStreamC1Ev:
  58              	.LFB1140:
  59              		.file 3 "/home/gani/eval/20140524/makestuff/libs/libutpp/MemoryOutStream.h"
   1:/home/gani/eval/20140524/makestuff/libs/libutpp/MemoryOutStream.h **** #ifndef UNITTEST_MEMORYOUTSTREAM_H
   2:/home/gani/eval/20140524/makestuff/libs/libutpp/MemoryOutStream.h **** #define UNITTEST_MEMORYOUTSTREAM_H
   3:/home/gani/eval/20140524/makestuff/libs/libutpp/MemoryOutStream.h **** 
   4:/home/gani/eval/20140524/makestuff/libs/libutpp/MemoryOutStream.h **** #include "Config.h"
   5:/home/gani/eval/20140524/makestuff/libs/libutpp/MemoryOutStream.h **** 
   6:/home/gani/eval/20140524/makestuff/libs/libutpp/MemoryOutStream.h **** #ifndef UNITTEST_USE_CUSTOM_STREAMS
   7:/home/gani/eval/20140524/makestuff/libs/libutpp/MemoryOutStream.h **** 
   8:/home/gani/eval/20140524/makestuff/libs/libutpp/MemoryOutStream.h **** #include <sstream>
   9:/home/gani/eval/20140524/makestuff/libs/libutpp/MemoryOutStream.h **** 
  10:/home/gani/eval/20140524/makestuff/libs/libutpp/MemoryOutStream.h **** namespace UnitTest
  11:/home/gani/eval/20140524/makestuff/libs/libutpp/MemoryOutStream.h **** {
  12:/home/gani/eval/20140524/makestuff/libs/libutpp/MemoryOutStream.h **** 
  13:/home/gani/eval/20140524/makestuff/libs/libutpp/MemoryOutStream.h **** class MemoryOutStream : public std::ostringstream
  14:/home/gani/eval/20140524/makestuff/libs/libutpp/MemoryOutStream.h **** {
  15:/home/gani/eval/20140524/makestuff/libs/libutpp/MemoryOutStream.h **** public:
  16:/home/gani/eval/20140524/makestuff/libs/libutpp/MemoryOutStream.h ****     MemoryOutStream() {}
  60              		.loc 3 16 0
  61              		.cfi_startproc
  62              		.cfi_personality 0x9b,DW.ref.__gxx_personality_v0
  63              		.cfi_lsda 0x1b,.LLSDA1140
  64 0000 55       		pushq	%rbp
  65              		.cfi_def_cfa_offset 16
  66              		.cfi_offset 6, -16
  67 0001 4889E5   		movq	%rsp, %rbp
  68              		.cfi_def_cfa_register 6
  69 0004 53       		pushq	%rbx
  70 0005 4883EC18 		subq	$24, %rsp
  71              		.cfi_offset 3, -24
  72 0009 48897DE8 		movq	%rdi, -24(%rbp)
  73              	.LBB2:
  74              		.loc 3 16 0
  75 000d 488B45E8 		movq	-24(%rbp), %rax
  76 0011 48059000 		addq	$144, %rax
  76      0000
  77 0017 4889C7   		movq	%rax, %rdi
  78              	.LEHB0:
  79 001a E8000000 		call	_ZNSt9basic_iosIcSt11char_traitsIcEEC2Ev@PLT
  79      00
  80              	.LEHE0:
  81 001f 488B45E8 		movq	-24(%rbp), %rax
  82 0023 488D0D00 		leaq	8+_ZTTN8UnitTest15MemoryOutStreamE(%rip), %rcx
  82      000000
  83 002a BA100000 		movl	$16, %edx
  83      00
  84 002f 4889CE   		movq	%rcx, %rsi
  85 0032 4889C7   		movq	%rax, %rdi
  86              	.LEHB1:
  87 0035 E8000000 		call	_ZNSt7__cxx1119basic_ostringstreamIcSt11char_traitsIcESaIcEEC2ESt13_Ios_Openmode@PLT
  87      00
  88              	.LEHE1:
  89              		.loc 3 16 0 is_stmt 0 discriminator 8
  90 003a 488D1500 		leaq	24+_ZTVN8UnitTest15MemoryOutStreamE(%rip), %rdx
  90      000000
  91 0041 488B45E8 		movq	-24(%rbp), %rax
  92 0045 488910   		movq	%rdx, (%rax)
  93 0048 488B45E8 		movq	-24(%rbp), %rax
  94 004c 488D9090 		leaq	144(%rax), %rdx
  94      000000
  95 0053 488D0500 		leaq	64+_ZTVN8UnitTest15MemoryOutStreamE(%rip), %rax
  95      000000
  96 005a 488902   		movq	%rax, (%rdx)
  97 005d 488B45E8 		movq	-24(%rbp), %rax
  98 0061 4883C070 		addq	$112, %rax
  99 0065 4889C7   		movq	%rax, %rdi
 100              	.LEHB2:
 101 0068 E8000000 		call	_ZNSt7__cxx1112basic_stringIcSt11char_traitsIcESaIcEEC1Ev@PLT
 101      00
 102              	.LEHE2:
 103              	.LBE2:
 104              		.loc 3 16 0
 105 006d EB3B     		jmp	.L11
 106              	.L9:
 107 006f 4889C3   		movq	%rax, %rbx
 108              	.LBB3:
 109 0072 488B45E8 		movq	-24(%rbp), %rax
 110 0076 488D1500 		leaq	8+_ZTTN8UnitTest15MemoryOutStreamE(%rip), %rdx
 110      000000
 111 007d 4889D6   		movq	%rdx, %rsi
 112 0080 4889C7   		movq	%rax, %rdi
 113 0083 E8000000 		call	_ZNSt7__cxx1119basic_ostringstreamIcSt11char_traitsIcESaIcEED2Ev@PLT
 113      00
 114 0088 EB03     		jmp	.L10
 115              	.L8:
 116 008a 4889C3   		movq	%rax, %rbx
 117              	.L10:
 118              		.loc 3 16 0 discriminator 11
 119 008d 488B45E8 		movq	-24(%rbp), %rax
 120 0091 48059000 		addq	$144, %rax
 120      0000
 121 0097 4889C7   		movq	%rax, %rdi
 122 009a E8000000 		call	_ZNSt9basic_iosIcSt11char_traitsIcEED2Ev@PLT
 122      00
 123 009f 4889D8   		movq	%rbx, %rax
 124 00a2 4889C7   		movq	%rax, %rdi
 125              	.LEHB3:
 126 00a5 E8000000 		call	_Unwind_Resume@PLT
 126      00
 127              	.LEHE3:
 128              	.L11:
 129              	.LBE3:
 130              		.loc 3 16 0
 131 00aa 4883C418 		addq	$24, %rsp
 132 00ae 5B       		popq	%rbx
 133 00af 5D       		popq	%rbp
 134              		.cfi_def_cfa 7, 8
 135 00b0 C3       		ret
 136              		.cfi_endproc
 137              	.LFE1140:
 138              		.globl	__gxx_personality_v0
 139              		.section	.gcc_except_table._ZN8UnitTest15MemoryOutStreamC1Ev,"aG",@progbits,_ZN8UnitTest15MemoryOu
 140              	.LLSDA1140:
 141 0000 FF       		.byte	0xff
 142 0001 FF       		.byte	0xff
 143 0002 01       		.byte	0x1
 144 0003 12       		.uleb128 .LLSDACSE1140-.LLSDACSB1140
 145              	.LLSDACSB1140:
 146 0004 1A       		.uleb128 .LEHB0-.LFB1140
 147 0005 05       		.uleb128 .LEHE0-.LEHB0
 148 0006 00       		.uleb128 0
 149 0007 00       		.uleb128 0
 150 0008 35       		.uleb128 .LEHB1-.LFB1140
 151 0009 05       		.uleb128 .LEHE1-.LEHB1
 152 000a 8A01     		.uleb128 .L8-.LFB1140
 153 000c 00       		.uleb128 0
 154 000d 68       		.uleb128 .LEHB2-.LFB1140
 155 000e 05       		.uleb128 .LEHE2-.LEHB2
 156 000f 6F       		.uleb128 .L9-.LFB1140
 157 0010 00       		.uleb128 0
 158 0011 A501     		.uleb128 .LEHB3-.LFB1140
 159 0013 05       		.uleb128 .LEHE3-.LEHB3
 160 0014 00       		.uleb128 0
 161 0015 00       		.uleb128 0
 162              	.LLSDACSE1140:
 163              		.section	.text._ZN8UnitTest15MemoryOutStreamC1Ev,"axG",@progbits,_ZN8UnitTest15MemoryOutStreamC1Ev
 165              		.section	.rodata
 166              	.LC1:
 167 000d 74657374 		.string	"testBinIO.cpp"
 167      42696E49 
 167      4F2E6370 
 167      7000
 168              	.LC2:
 169 001b 42696E49 		.string	"BinIO_testReadNonExistentFile"
 169      4F5F7465 
 169      73745265 
 169      61644E6F 
 169      6E457869 
 170              		.section	.text._ZN33TestBinIO_testReadNonExistentFileC2Ev,"axG",@progbits,_ZN33TestBinIO_testReadN
 171              		.align 2
 172              		.weak	_ZN33TestBinIO_testReadNonExistentFileC2Ev
 174              	_ZN33TestBinIO_testReadNonExistentFileC2Ev:
 175              	.LFB1157:
 176              		.file 4 "testBinIO.cpp"
   1:testBinIO.cpp **** /*
   2:testBinIO.cpp ****  * Copyright (C) 2009-2012 Chris McClelland
   3:testBinIO.cpp ****  *
   4:testBinIO.cpp ****  * This program is free software: you can redistribute it and/or modify
   5:testBinIO.cpp ****  * it under the terms of the GNU Lesser General Public License as published by
   6:testBinIO.cpp ****  * the Free Software Foundation, either version 3 of the License, or
   7:testBinIO.cpp ****  * (at your option) any later version.
   8:testBinIO.cpp ****  *
   9:testBinIO.cpp ****  * This program is distributed in the hope that it will be useful,
  10:testBinIO.cpp ****  * but WITHOUT ANY WARRANTY; without even the implied warranty of
  11:testBinIO.cpp ****  * MERCHANTABILITY or FITNESS FOR A PARTICULAR PURPOSE.  See the
  12:testBinIO.cpp ****  * GNU Lesser General Public License for more details.
  13:testBinIO.cpp ****  *
  14:testBinIO.cpp ****  * You should have received a copy of the GNU Lesser General Public License
  15:testBinIO.cpp ****  * along with this program.  If not, see <http://www.gnu.org/licenses/>.
  16:testBinIO.cpp ****  */
  17:testBinIO.cpp **** #include <string.h>
  18:testBinIO.cpp **** #include <fstream>
  19:testBinIO.cpp **** #include <UnitTest++.h>
  20:testBinIO.cpp **** #include "../libbuffer.h"
  21:testBinIO.cpp **** 
  22:testBinIO.cpp **** using namespace std;
  23:testBinIO.cpp **** 
  24:testBinIO.cpp **** TEST(BinIO_testReadNonExistentFile) {
 177              		.loc 4 24 0 is_stmt 1
 178              		.cfi_startproc
 179 0000 55       		pushq	%rbp
 180              		.cfi_def_cfa_offset 16
 181              		.cfi_offset 6, -16
 182 0001 4889E5   		movq	%rsp, %rbp
 183              		.cfi_def_cfa_register 6
 184 0004 53       		pushq	%rbx
 185 0005 4883EC18 		subq	$24, %rsp
 186              		.cfi_offset 3, -24
 187 0009 48897DE8 		movq	%rdi, -24(%rbp)
 188              	.LBB4:
 189              		.loc 4 24 0
 190 000d 488B5DE8 		movq	-24(%rbp), %rbx
 191 0011 E8000000 		call	_ZN13UnitTestSuite12GetSuiteNameEv
 191      00
 192 0016 41B81800 		movl	$24, %r8d
 192      0000
 193 001c 488D0D00 		leaq	.LC1(%rip), %rcx
 193      000000
 194 0023 4889C2   		movq	%rax, %rdx
 195 0026 488D3500 		leaq	.LC2(%rip), %rsi
 195      000000
 196 002d 4889DF   		movq	%rbx, %rdi
 197 0030 E8000000 		call	_ZN8UnitTest4TestC2EPKcS2_S2_i@PLT
 197      00
 198 0035 488D1500 		leaq	16+_ZTV33TestBinIO_testReadNonExistentFile(%rip), %rdx
 198      000000
 199 003c 488B45E8 		movq	-24(%rbp), %rax
 200 0040 488910   		movq	%rdx, (%rax)
 201              	.LBE4:
 202 0043 90       		nop
 203 0044 4883C418 		addq	$24, %rsp
 204 0048 5B       		popq	%rbx
 205 0049 5D       		popq	%rbp
 206              		.cfi_def_cfa 7, 8
 207 004a C3       		ret
 208              		.cfi_endproc
 209              	.LFE1157:
 211              		.weak	_ZN33TestBinIO_testReadNonExistentFileC1Ev
 212              		.set	_ZN33TestBinIO_testReadNonExistentFileC1Ev,_ZN33TestBinIO_testReadNonExistentFileC2Ev
 213              		.globl	testBinIO_testReadNonExistentFileInstance
 214              		.bss
 215              		.align 32
 218              	testBinIO_testReadNonExistentFileInstance:
 219 0000 00000000 		.zero	56
 219      00000000 
 219      00000000 
 219      00000000 
 219      00000000 
 220              		.globl	adderBinIO_testReadNonExistentFile
 223              	adderBinIO_testReadNonExistentFile:
 224 0038 00       		.zero	1
 225              		.section	.rodata
 226              	.LC3:
 227 0039 6E6F6E45 		.string	"nonExistentFile.bin"
 227      78697374 
 227      656E7446 
 227      696C652E 
 227      62696E00 
 228 004d 000000   		.align 8
 229              	.LC4:
 230 0050 556E6861 		.string	"Unhandled exception in CHECK_EQUAL(BUF_SUCCESS, status)"
 230      6E646C65 
 230      64206578 
 230      63657074 
 230      696F6E20 
 231              		.align 8
 232              	.LC5:
 233 0088 556E6861 		.string	"Unhandled exception in CHECK_EQUAL(BUF_FOPEN, status)"
 233      6E646C65 
 233      64206578 
 233      63657074 
 233      696F6E20 
 234              		.text
 235              		.align 2
 236              		.globl	_ZNK33TestBinIO_testReadNonExistentFile7RunImplEv
 238              	_ZNK33TestBinIO_testReadNonExistentFile7RunImplEv:
 239              	.LFB1159:
 240              		.loc 4 24 0
 241              		.cfi_startproc
 242              		.cfi_personality 0x9b,DW.ref.__gxx_personality_v0
 243              		.cfi_lsda 0x1b,.LLSDA1159
 244 0000 55       		pushq	%rbp
 245              		.cfi_def_cfa_offset 16
 246              		.cfi_offset 6, -16
 247 0001 4889E5   		movq	%rsp, %rbp
 248              		.cfi_def_cfa_register 6
 249 0004 53       		pushq	%rbx
 250 0005 4883EC78 		subq	$120, %rsp
 251              		.cfi_offset 3, -24
 252 0009 48897D88 		movq	%rdi, -120(%rbp)
 253              		.loc 4 24 0
 254 000d 64488B04 		movq	%fs:40, %rax
 254      25280000 
 254      00
 255 0016 488945E8 		movq	%rax, -24(%rbp)
 256 001a 31C0     		xorl	%eax, %eax
  25:testBinIO.cpp **** 	Buffer buf;
  26:testBinIO.cpp **** 	BufferStatus status = bufInitialise(&buf, 8, 0, NULL);
 257              		.loc 4 26 0
 258 001c 488D45A0 		leaq	-96(%rbp), %rax
 259 0020 B9000000 		movl	$0, %ecx
 259      00
 260 0025 BA000000 		movl	$0, %edx
 260      00
 261 002a BE080000 		movl	$8, %esi
 261      00
 262 002f 4889C7   		movq	%rax, %rdi
 263              	.LEHB4:
 264 0032 E8000000 		call	bufInitialise@PLT
 264      00
 265              	.LEHE4:
 266 0037 894598   		movl	%eax, -104(%rbp)
 267              	.LEHB5:
  27:testBinIO.cpp **** 	CHECK_EQUAL(BUF_SUCCESS, status);
 268              		.loc 4 27 0
 269 003a E8000000 		call	_ZN8UnitTest11CurrentTest7DetailsEv@PLT
 269      00
 270 003f 488B08   		movq	(%rax), %rcx
 271 0042 488D45C0 		leaq	-64(%rbp), %rax
 272 0046 BA1B0000 		movl	$27, %edx
 272      00
 273 004b 4889CE   		movq	%rcx, %rsi
 274 004e 4889C7   		movq	%rax, %rdi
 275 0051 E8000000 		call	_ZN8UnitTest11TestDetailsC1ERKS0_i@PLT
 275      00
 276              	.LEHE5:
 277              		.loc 4 27 0 is_stmt 0 discriminator 2
 278 0056 C7459C00 		movl	$0, -100(%rbp)
 278      000000
 279              	.LEHB6:
 280 005d E8000000 		call	_ZN8UnitTest11CurrentTest7ResultsEv@PLT
 280      00
 281 0062 488B00   		movq	(%rax), %rax
 282 0065 488D4DC0 		leaq	-64(%rbp), %rcx
 283 0069 488D5598 		leaq	-104(%rbp), %rdx
 284 006d 488D759C 		leaq	-100(%rbp), %rsi
 285 0071 4889C7   		movq	%rax, %rdi
 286 0074 E8000000 		call	_ZN8UnitTest10CheckEqualI12BufferStatusS1_EEvRNS_11TestResultsERKT_RKT0_RKNS_11TestDetailsE
 286      00
 287              	.LEHE6:
 288              	.L16:
  28:testBinIO.cpp **** 	status = bufAppendFromBinaryFile(&buf, "nonExistentFile.bin", NULL);
 289              		.loc 4 28 0 is_stmt 1
 290 0079 488D45A0 		leaq	-96(%rbp), %rax
 291 007d BA000000 		movl	$0, %edx
 291      00
 292 0082 488D3500 		leaq	.LC3(%rip), %rsi
 292      000000
 293 0089 4889C7   		movq	%rax, %rdi
 294              	.LEHB7:
 295 008c E8000000 		call	bufAppendFromBinaryFile@PLT
 295      00
 296              	.LEHE7:
 297 0091 894598   		movl	%eax, -104(%rbp)
 298              	.LEHB8:
  29:testBinIO.cpp **** 	CHECK_EQUAL(BUF_FOPEN, status);
 299              		.loc 4 29 0
 300 0094 E8000000 		call	_ZN8UnitTest11CurrentTest7DetailsEv@PLT
 300      00
 301 0099 488B08   		movq	(%rax), %rcx
 302 009c 488D45C0 		leaq	-64(%rbp), %rax
 303 00a0 BA1D0000 		movl	$29, %edx
 303      00
 304 00a5 4889CE   		movq	%rcx, %rsi
 305 00a8 4889C7   		movq	%rax, %rdi
 306 00ab E8000000 		call	_ZN8UnitTest11TestDetailsC1ERKS0_i@PLT
 306      00
 307              	.LEHE8:
 308              		.loc 4 29 0 is_stmt 0 discriminator 2
 309 00b0 C7459C02 		movl	$2, -100(%rbp)
 309      000000
 310              	.LEHB9:
 311 00b7 E8000000 		call	_ZN8UnitTest11CurrentTest7ResultsEv@PLT
 311      00
 312 00bc 488B00   		movq	(%rax), %rax
 313 00bf 488D4DC0 		leaq	-64(%rbp), %rcx
 314 00c3 488D5598 		leaq	-104(%rbp), %rdx
 315 00c7 488D759C 		leaq	-100(%rbp), %rsi
 316 00cb 4889C7   		movq	%rax, %rdi
 317 00ce E8000000 		call	_ZN8UnitTest10CheckEqualI12BufferStatusS1_EEvRNS_11TestResultsERKT_RKT0_RKNS_11TestDetailsE
 317      00
 318              	.LEHE9:
 319              	.L20:
  30:testBinIO.cpp **** 	bufDestroy(&buf);
 320              		.loc 4 30 0 is_stmt 1
 321 00d3 488D45A0 		leaq	-96(%rbp), %rax
 322 00d7 4889C7   		movq	%rax, %rdi
 323              	.LEHB10:
 324 00da E8000000 		call	bufDestroy@PLT
 324      00
 325              	.LEHE10:
  31:testBinIO.cpp **** }
 326              		.loc 4 31 0
 327 00df 90       		nop
 328 00e0 488B45E8 		movq	-24(%rbp), %rax
 329 00e4 64483304 		xorq	%fs:40, %rax
 329      25280000 
 329      00
 330 00ed 0F84CC00 		je	.L22
 330      0000
 331 00f3 E9C20000 		jmp	.L29
 331      00
 332              	.L24:
 333 00f8 EB00     		jmp	.L15
 334              	.L23:
 335              	.L15:
  27:testBinIO.cpp **** 	status = bufAppendFromBinaryFile(&buf, "nonExistentFile.bin", NULL);
 336              		.loc 4 27 0
 337 00fa 4889C7   		movq	%rax, %rdi
 338 00fd E8000000 		call	__cxa_begin_catch@PLT
 338      00
 339              	.LEHB11:
 340 0102 E8000000 		call	_ZN8UnitTest11CurrentTest7ResultsEv@PLT
 340      00
 341 0107 488B18   		movq	(%rax), %rbx
 342 010a E8000000 		call	_ZN8UnitTest11CurrentTest7DetailsEv@PLT
 342      00
  27:testBinIO.cpp **** 	status = bufAppendFromBinaryFile(&buf, "nonExistentFile.bin", NULL);
 343              		.loc 4 27 0 is_stmt 0 discriminator 8
 344 010f 488B08   		movq	(%rax), %rcx
 345 0112 488D45C0 		leaq	-64(%rbp), %rax
 346 0116 BA1B0000 		movl	$27, %edx
 346      00
 347 011b 4889CE   		movq	%rcx, %rsi
 348 011e 4889C7   		movq	%rax, %rdi
 349 0121 E8000000 		call	_ZN8UnitTest11TestDetailsC1ERKS0_i@PLT
 349      00
  27:testBinIO.cpp **** 	status = bufAppendFromBinaryFile(&buf, "nonExistentFile.bin", NULL);
 350              		.loc 4 27 0 discriminator 12
 351 0126 488D45C0 		leaq	-64(%rbp), %rax
 352 012a 488D1500 		leaq	.LC4(%rip), %rdx
 352      000000
 353 0131 4889C6   		movq	%rax, %rsi
 354 0134 4889DF   		movq	%rbx, %rdi
 355 0137 E8000000 		call	_ZN8UnitTest11TestResults13OnTestFailureERKNS_11TestDetailsEPKc@PLT
 355      00
 356              	.LEHE11:
 357              	.LEHB12:
  27:testBinIO.cpp **** 	status = bufAppendFromBinaryFile(&buf, "nonExistentFile.bin", NULL);
 358              		.loc 4 27 0 discriminator 14
 359 013c E8000000 		call	__cxa_end_catch@PLT
 359      00
 360              	.LEHE12:
 361 0141 E933FFFF 		jmp	.L16
 361      FF
 362              	.L25:
 363 0146 4889C3   		movq	%rax, %rbx
  27:testBinIO.cpp **** 	status = bufAppendFromBinaryFile(&buf, "nonExistentFile.bin", NULL);
 364              		.loc 4 27 0
 365 0149 E8000000 		call	__cxa_end_catch@PLT
 365      00
 366 014e 4889D8   		movq	%rbx, %rax
 367 0151 4889C7   		movq	%rax, %rdi
 368              	.LEHB13:
 369 0154 E8000000 		call	_Unwind_Resume@PLT
 369      00
 370              	.LEHE13:
 371              	.L27:
 372 0159 EB00     		jmp	.L19
 373              	.L26:
 374              	.L19:
  29:testBinIO.cpp **** 	bufDestroy(&buf);
 375              		.loc 4 29 0 is_stmt 1
 376 015b 4889C7   		movq	%rax, %rdi
 377 015e E8000000 		call	__cxa_begin_catch@PLT
 377      00
 378              	.LEHB14:
 379 0163 E8000000 		call	_ZN8UnitTest11CurrentTest7ResultsEv@PLT
 379      00
 380 0168 488B18   		movq	(%rax), %rbx
 381 016b E8000000 		call	_ZN8UnitTest11CurrentTest7DetailsEv@PLT
 381      00
  29:testBinIO.cpp **** 	bufDestroy(&buf);
 382              		.loc 4 29 0 is_stmt 0 discriminator 8
 383 0170 488B08   		movq	(%rax), %rcx
 384 0173 488D45C0 		leaq	-64(%rbp), %rax
 385 0177 BA1D0000 		movl	$29, %edx
 385      00
 386 017c 4889CE   		movq	%rcx, %rsi
 387 017f 4889C7   		movq	%rax, %rdi
 388 0182 E8000000 		call	_ZN8UnitTest11TestDetailsC1ERKS0_i@PLT
 388      00
  29:testBinIO.cpp **** 	bufDestroy(&buf);
 389              		.loc 4 29 0 discriminator 12
 390 0187 488D45C0 		leaq	-64(%rbp), %rax
 391 018b 488D1500 		leaq	.LC5(%rip), %rdx
 391      000000
 392 0192 4889C6   		movq	%rax, %rsi
 393 0195 4889DF   		movq	%rbx, %rdi
 394 0198 E8000000 		call	_ZN8UnitTest11TestResults13OnTestFailureERKNS_11TestDetailsEPKc@PLT
 394      00
 395              	.LEHE14:
 396              	.LEHB15:
  29:testBinIO.cpp **** 	bufDestroy(&buf);
 397              		.loc 4 29 0 discriminator 14
 398 019d E8000000 		call	__cxa_end_catch@PLT
 398      00
 399              	.LEHE15:
 400 01a2 E92CFFFF 		jmp	.L20
 400      FF
 401              	.L28:
 402 01a7 4889C3   		movq	%rax, %rbx
  29:testBinIO.cpp **** 	bufDestroy(&buf);
 403              		.loc 4 29 0
 404 01aa E8000000 		call	__cxa_end_catch@PLT
 404      00
 405 01af 4889D8   		movq	%rbx, %rax
 406 01b2 4889C7   		movq	%rax, %rdi
 407              	.LEHB16:
 408 01b5 E8000000 		call	_Unwind_Resume@PLT
 408      00
 409              	.LEHE16:
 410              	.L29:
 411              		.loc 4 31 0 is_stmt 1
 412 01ba E8000000 		call	__stack_chk_fail@PLT
 412      00
 413              	.L22:
 414 01bf 4883C478 		addq	$120, %rsp
 415 01c3 5B       		popq	%rbx
 416 01c4 5D       		popq	%rbp
 417              		.cfi_def_cfa 7, 8
 418 01c5 C3       		ret
 419              		.cfi_endproc
 420              	.LFE1159:
 421              		.section	.gcc_except_table,"a",@progbits
 422              		.align 4
 423              	.LLSDA1159:
 424 0000 FF       		.byte	0xff
 425 0001 9B       		.byte	0x9b
 426 0002 51       		.uleb128 .LLSDATT1159-.LLSDATTD1159
 427              	.LLSDATTD1159:
 428 0003 01       		.byte	0x1
 429 0004 44       		.uleb128 .LLSDACSE1159-.LLSDACSB1159
 430              	.LLSDACSB1159:
 431 0005 32       		.uleb128 .LEHB4-.LFB1159
 432 0006 05       		.uleb128 .LEHE4-.LEHB4
 433 0007 00       		.uleb128 0
 434 0008 00       		.uleb128 0
 435 0009 3A       		.uleb128 .LEHB5-.LFB1159
 436 000a 1C       		.uleb128 .LEHE5-.LEHB5
 437 000b FA01     		.uleb128 .L23-.LFB1159
 438 000d 01       		.uleb128 0x1
 439 000e 5D       		.uleb128 .LEHB6-.LFB1159
 440 000f 1C       		.uleb128 .LEHE6-.LEHB6
 441 0010 F801     		.uleb128 .L24-.LFB1159
 442 0012 03       		.uleb128 0x3
 443 0013 8C01     		.uleb128 .LEHB7-.LFB1159
 444 0015 05       		.uleb128 .LEHE7-.LEHB7
 445 0016 00       		.uleb128 0
 446 0017 00       		.uleb128 0
 447 0018 9401     		.uleb128 .LEHB8-.LFB1159
 448 001a 1C       		.uleb128 .LEHE8-.LEHB8
 449 001b DB02     		.uleb128 .L26-.LFB1159
 450 001d 01       		.uleb128 0x1
 451 001e B701     		.uleb128 .LEHB9-.LFB1159
 452 0020 1C       		.uleb128 .LEHE9-.LEHB9
 453 0021 D902     		.uleb128 .L27-.LFB1159
 454 0023 03       		.uleb128 0x3
 455 0024 DA01     		.uleb128 .LEHB10-.LFB1159
 456 0026 05       		.uleb128 .LEHE10-.LEHB10
 457 0027 00       		.uleb128 0
 458 0028 00       		.uleb128 0
 459 0029 8202     		.uleb128 .LEHB11-.LFB1159
 460 002b 3A       		.uleb128 .LEHE11-.LEHB11
 461 002c C602     		.uleb128 .L25-.LFB1159
 462 002e 00       		.uleb128 0
 463 002f BC02     		.uleb128 .LEHB12-.LFB1159
 464 0031 05       		.uleb128 .LEHE12-.LEHB12
 465 0032 00       		.uleb128 0
 466 0033 00       		.uleb128 0
 467 0034 D402     		.uleb128 .LEHB13-.LFB1159
 468 0036 05       		.uleb128 .LEHE13-.LEHB13
 469 0037 00       		.uleb128 0
 470 0038 00       		.uleb128 0
 471 0039 E302     		.uleb128 .LEHB14-.LFB1159
 472 003b 3A       		.uleb128 .LEHE14-.LEHB14
 473 003c A703     		.uleb128 .L28-.LFB1159
 474 003e 00       		.uleb128 0
 475 003f 9D03     		.uleb128 .LEHB15-.LFB1159
 476 0041 05       		.uleb128 .LEHE15-.LEHB15
 477 0042 00       		.uleb128 0
 478 0043 00       		.uleb128 0
 479 0044 B503     		.uleb128 .LEHB16-.LFB1159
 480 0046 05       		.uleb128 .LEHE16-.LEHB16
 481 0047 00       		.uleb128 0
 482 0048 00       		.uleb128 0
 483              	.LLSDACSE1159:
 484 0049 01       		.byte	0x1
 485 004a 00       		.byte	0
 486 004b 00       		.byte	0
 487 004c 7D       		.byte	0x7d
 488 004d 000000   		.align 4
 489 0050 00000000 		.long	0
 490              	
 491              	.LLSDATT1159:
 492              		.text
 494              		.section	.rodata
 495              	.LC6:
 496 00be 42696E49 		.string	"BinIO_testReadExistingFile"
 496      4F5F7465 
 496      73745265 
 496      61644578 
 496      69737469 
 497              		.section	.text._ZN30TestBinIO_testReadExistingFileC2Ev,"axG",@progbits,_ZN30TestBinIO_testReadExis
 498              		.align 2
 499              		.weak	_ZN30TestBinIO_testReadExistingFileC2Ev
 501              	_ZN30TestBinIO_testReadExistingFileC2Ev:
 502              	.LFB1161:
  32:testBinIO.cpp **** 
  33:testBinIO.cpp **** TEST(BinIO_testReadExistingFile) {
 503              		.loc 4 33 0
 504              		.cfi_startproc
 505 0000 55       		pushq	%rbp
 506              		.cfi_def_cfa_offset 16
 507              		.cfi_offset 6, -16
 508 0001 4889E5   		movq	%rsp, %rbp
 509              		.cfi_def_cfa_register 6
 510 0004 53       		pushq	%rbx
 511 0005 4883EC18 		subq	$24, %rsp
 512              		.cfi_offset 3, -24
 513 0009 48897DE8 		movq	%rdi, -24(%rbp)
 514              	.LBB5:
 515              		.loc 4 33 0
 516 000d 488B5DE8 		movq	-24(%rbp), %rbx
 517 0011 E8000000 		call	_ZN13UnitTestSuite12GetSuiteNameEv
 517      00
 518 0016 41B82100 		movl	$33, %r8d
 518      0000
 519 001c 488D0D00 		leaq	.LC1(%rip), %rcx
 519      000000
 520 0023 4889C2   		movq	%rax, %rdx
 521 0026 488D3500 		leaq	.LC6(%rip), %rsi
 521      000000
 522 002d 4889DF   		movq	%rbx, %rdi
 523 0030 E8000000 		call	_ZN8UnitTest4TestC2EPKcS2_S2_i@PLT
 523      00
 524 0035 488D1500 		leaq	16+_ZTV30TestBinIO_testReadExistingFile(%rip), %rdx
 524      000000
 525 003c 488B45E8 		movq	-24(%rbp), %rax
 526 0040 488910   		movq	%rdx, (%rax)
 527              	.LBE5:
 528 0043 90       		nop
 529 0044 4883C418 		addq	$24, %rsp
 530 0048 5B       		popq	%rbx
 531 0049 5D       		popq	%rbp
 532              		.cfi_def_cfa 7, 8
 533 004a C3       		ret
 534              		.cfi_endproc
 535              	.LFE1161:
 537              		.weak	_ZN30TestBinIO_testReadExistingFileC1Ev
 538              		.set	_ZN30TestBinIO_testReadExistingFileC1Ev,_ZN30TestBinIO_testReadExistingFileC2Ev
 539              		.globl	testBinIO_testReadExistingFileInstance
 540              		.bss
 541 0039 00000000 		.align 32
 541      000000
 544              	testBinIO_testReadExistingFileInstance:
 545 0040 00000000 		.zero	56
 545      00000000 
 545      00000000 
 545      00000000 
 545      00000000 
 546              		.globl	adderBinIO_testReadExistingFile
 549              	adderBinIO_testReadExistingFile:
 550 0078 00       		.zero	1
 551              		.section	.rodata
 552              	.LC7:
 553 00d9 746D7046 		.string	"tmpFile.bin"
 553      696C652E 
 553      62696E00 
 554              	.LC8:
 555 00e5 4A757374 		.string	"Just some test data"
 555      20736F6D 
 555      65207465 
 555      73742064 
 555      61746100 
 556 00f9 00000000 		.align 8
 556      000000
 557              	.LC9:
 558 0100 556E6861 		.string	"Unhandled exception in CHECK_EQUAL(strlen(DATA), buf.length)"
 558      6E646C65 
 558      64206578 
 558      63657074 
 558      696F6E20 
 559 013d 000000   		.align 8
 560              	.LC10:
 561 0140 556E6861 		.string	"Unhandled exception in CHECK_ARRAY_EQUAL(DATA, buf.data)"
 561      6E646C65 
 561      64206578 
 561      63657074 
 561      696F6E20 
 562 0179 00000000 		.align 8
 562      000000
 563              	.LC11:
 564 0180 556E6861 		.string	"Unhandled exception in CHECK_EQUAL(2 * strlen(DATA), buf.length)"
 564      6E646C65 
 564      64206578 
 564      63657074 
 564      696F6E20 
 565 01c1 00000000 		.align 8
 565      000000
 566              	.LC12:
 567 01c8 556E6861 		.string	"Unhandled exception in CHECK_ARRAY_EQUAL(DATA, buf.data + strlen(DATA))"
 567      6E646C65 
 567      64206578 
 567      63657074 
 567      696F6E20 
 568              		.text
 569              		.align 2
 570              		.globl	_ZNK30TestBinIO_testReadExistingFile7RunImplEv
 572              	_ZNK30TestBinIO_testReadExistingFile7RunImplEv:
 573              	.LFB1163:
 574              		.loc 4 33 0
 575              		.cfi_startproc
 576              		.cfi_personality 0x9b,DW.ref.__gxx_personality_v0
 577              		.cfi_lsda 0x1b,.LLSDA1163
 578 01c6 55       		pushq	%rbp
 579              		.cfi_def_cfa_offset 16
 580              		.cfi_offset 6, -16
 581 01c7 4889E5   		movq	%rsp, %rbp
 582              		.cfi_def_cfa_register 6
 583 01ca 53       		pushq	%rbx
 584 01cb 4881EC88 		subq	$648, %rsp
 584      020000
 585              		.cfi_offset 3, -24
 586 01d2 4889BD78 		movq	%rdi, -648(%rbp)
 586      FDFFFF
 587              		.loc 4 33 0
 588 01d9 64488B04 		movq	%fs:40, %rax
 588      25280000 
 588      00
 589 01e2 488945E8 		movq	%rax, -24(%rbp)
 590 01e6 31C0     		xorl	%eax, %eax
  34:testBinIO.cpp **** 	const char *const FILENAME = "tmpFile.bin";
 591              		.loc 4 34 0
 592 01e8 488D0500 		leaq	.LC7(%rip), %rax
 592      000000
 593 01ef 48898598 		movq	%rax, -616(%rbp)
 593      FDFFFF
  35:testBinIO.cpp **** 	const char *const DATA = "Just some test data";
 594              		.loc 4 35 0
 595 01f6 488D0500 		leaq	.LC8(%rip), %rax
 595      000000
 596 01fd 48898588 		movq	%rax, -632(%rbp)
 596      FDFFFF
  36:testBinIO.cpp **** 	ofstream file;
 597              		.loc 4 36 0
 598 0204 488D85E0 		leaq	-544(%rbp), %rax
 598      FDFFFF
 599 020b 4889C7   		movq	%rax, %rdi
 600              	.LEHB17:
 601 020e E8000000 		call	_ZNSt14basic_ofstreamIcSt11char_traitsIcEEC1Ev@PLT
 601      00
 602              	.LEHE17:
  37:testBinIO.cpp **** 	Buffer buf;
  38:testBinIO.cpp **** 	BufferStatus status = bufInitialise(&buf, 8, 0, NULL);
 603              		.loc 4 38 0
 604 0213 488D85A0 		leaq	-608(%rbp), %rax
 604      FDFFFF
 605 021a B9000000 		movl	$0, %ecx
 605      00
 606 021f BA000000 		movl	$0, %edx
 606      00
 607 0224 BE080000 		movl	$8, %esi
 607      00
 608 0229 4889C7   		movq	%rax, %rdi
 609              	.LEHB18:
 610 022c E8000000 		call	bufInitialise@PLT
 610      00
 611              	.LEHE18:
 612 0231 898584FD 		movl	%eax, -636(%rbp)
 612      FFFF
 613              	.LEHB19:
  39:testBinIO.cpp **** 	CHECK_EQUAL(BUF_SUCCESS, status);
 614              		.loc 4 39 0
 615 0237 E8000000 		call	_ZN8UnitTest11CurrentTest7DetailsEv@PLT
 615      00
 616              		.loc 4 39 0 is_stmt 0 discriminator 1
 617 023c 488B08   		movq	(%rax), %rcx
 618 023f 488D85C0 		leaq	-576(%rbp), %rax
 618      FDFFFF
 619 0246 BA270000 		movl	$39, %edx
 619      00
 620 024b 4889CE   		movq	%rcx, %rsi
 621 024e 4889C7   		movq	%rax, %rdi
 622 0251 E8000000 		call	_ZN8UnitTest11TestDetailsC1ERKS0_i@PLT
 622      00
 623              	.LEHE19:
 624              		.loc 4 39 0 discriminator 2
 625 0256 C78590FD 		movl	$0, -624(%rbp)
 625      FFFF0000 
 625      0000
 626              	.LEHB20:
 627 0260 E8000000 		call	_ZN8UnitTest11CurrentTest7ResultsEv@PLT
 627      00
 628 0265 488B00   		movq	(%rax), %rax
 629 0268 488D8DC0 		leaq	-576(%rbp), %rcx
 629      FDFFFF
 630 026f 488D9584 		leaq	-636(%rbp), %rdx
 630      FDFFFF
 631 0276 488DB590 		leaq	-624(%rbp), %rsi
 631      FDFFFF
 632 027d 4889C7   		movq	%rax, %rdi
 633 0280 E8000000 		call	_ZN8UnitTest10CheckEqualI12BufferStatusS1_EEvRNS_11TestResultsERKT_RKT0_RKNS_11TestDetailsE
 633      00
 634              	.LEHE20:
 635              	.L34:
  40:testBinIO.cpp **** 	file.open(FILENAME, ios::out|ios::binary);
 636              		.loc 4 40 0 is_stmt 1
 637 0285 BE040000 		movl	$4, %esi
 637      00
 638 028a BF100000 		movl	$16, %edi
 638      00
 639 028f E8000000 		call	_ZStorSt13_Ios_OpenmodeS_
 639      00
 640 0294 89C2     		movl	%eax, %edx
 641 0296 488D85E0 		leaq	-544(%rbp), %rax
 641      FDFFFF
 642 029d 488D3500 		leaq	.LC7(%rip), %rsi
 642      000000
 643 02a4 4889C7   		movq	%rax, %rdi
 644              	.LEHB21:
 645 02a7 E8000000 		call	_ZNSt14basic_ofstreamIcSt11char_traitsIcEE4openEPKcSt13_Ios_Openmode@PLT
 645      00
  41:testBinIO.cpp **** 	file << DATA;
 646              		.loc 4 41 0
 647 02ac 488D85E0 		leaq	-544(%rbp), %rax
 647      FDFFFF
 648 02b3 488D3500 		leaq	.LC8(%rip), %rsi
 648      000000
 649 02ba 4889C7   		movq	%rax, %rdi
 650 02bd E8000000 		call	_ZStlsISt11char_traitsIcEERSt13basic_ostreamIcT_ES5_PKc@PLT
 650      00
  42:testBinIO.cpp **** 	file.close();
 651              		.loc 4 42 0
 652 02c2 488D85E0 		leaq	-544(%rbp), %rax
 652      FDFFFF
 653 02c9 4889C7   		movq	%rax, %rdi
 654 02cc E8000000 		call	_ZNSt14basic_ofstreamIcSt11char_traitsIcEE5closeEv@PLT
 654      00
  43:testBinIO.cpp **** 	status = bufAppendFromBinaryFile(&buf, FILENAME, NULL);
 655              		.loc 4 43 0
 656 02d1 488D85A0 		leaq	-608(%rbp), %rax
 656      FDFFFF
 657 02d8 BA000000 		movl	$0, %edx
 657      00
 658 02dd 488D3500 		leaq	.LC7(%rip), %rsi
 658      000000
 659 02e4 4889C7   		movq	%rax, %rdi
 660 02e7 E8000000 		call	bufAppendFromBinaryFile@PLT
 660      00
 661              	.LEHE21:
 662 02ec 898584FD 		movl	%eax, -636(%rbp)
 662      FFFF
 663              	.LEHB22:
  44:testBinIO.cpp **** 	CHECK_EQUAL(BUF_SUCCESS, status);
 664              		.loc 4 44 0
 665 02f2 E8000000 		call	_ZN8UnitTest11CurrentTest7DetailsEv@PLT
 665      00
 666              		.loc 4 44 0 is_stmt 0 discriminator 1
 667 02f7 488B08   		movq	(%rax), %rcx
 668 02fa 488D85C0 		leaq	-576(%rbp), %rax
 668      FDFFFF
 669 0301 BA2C0000 		movl	$44, %edx
 669      00
 670 0306 4889CE   		movq	%rcx, %rsi
 671 0309 4889C7   		movq	%rax, %rdi
 672 030c E8000000 		call	_ZN8UnitTest11TestDetailsC1ERKS0_i@PLT
 672      00
 673              	.LEHE22:
 674              		.loc 4 44 0 discriminator 2
 675 0311 C78590FD 		movl	$0, -624(%rbp)
 675      FFFF0000 
 675      0000
 676              	.LEHB23:
 677 031b E8000000 		call	_ZN8UnitTest11CurrentTest7ResultsEv@PLT
 677      00
 678 0320 488B00   		movq	(%rax), %rax
 679 0323 488D8DC0 		leaq	-576(%rbp), %rcx
 679      FDFFFF
 680 032a 488D9584 		leaq	-636(%rbp), %rdx
 680      FDFFFF
 681 0331 488DB590 		leaq	-624(%rbp), %rsi
 681      FDFFFF
 682 0338 4889C7   		movq	%rax, %rdi
 683 033b E8000000 		call	_ZN8UnitTest10CheckEqualI12BufferStatusS1_EEvRNS_11TestResultsERKT_RKT0_RKNS_11TestDetailsE
 683      00
 684              	.LEHE23:
 685              	.L39:
 686              	.LEHB24:
  45:testBinIO.cpp **** 	CHECK_EQUAL(strlen(DATA), buf.length);
 687              		.loc 4 45 0 is_stmt 1
 688 0340 E8000000 		call	_ZN8UnitTest11CurrentTest7DetailsEv@PLT
 688      00
 689 0345 488B08   		movq	(%rax), %rcx
 690 0348 488D85C0 		leaq	-576(%rbp), %rax
 690      FDFFFF
 691 034f BA2D0000 		movl	$45, %edx
 691      00
 692 0354 4889CE   		movq	%rcx, %rsi
 693 0357 4889C7   		movq	%rax, %rdi
 694 035a E8000000 		call	_ZN8UnitTest11TestDetailsC1ERKS0_i@PLT
 694      00
 695              	.LEHE24:
 696              		.loc 4 45 0 is_stmt 0 discriminator 2
 697 035f 48C78590 		movq	$19, -624(%rbp)
 697      FDFFFF13 
 697      000000
 698              	.LEHB25:
 699 036a E8000000 		call	_ZN8UnitTest11CurrentTest7ResultsEv@PLT
 699      00
 700 036f 488B00   		movq	(%rax), %rax
 701 0372 488D95C0 		leaq	-576(%rbp), %rdx
 701      FDFFFF
 702 0379 488D8DA0 		leaq	-608(%rbp), %rcx
 702      FDFFFF
 703 0380 488D7908 		leaq	8(%rcx), %rdi
 704 0384 488DB590 		leaq	-624(%rbp), %rsi
 704      FDFFFF
 705 038b 4889D1   		movq	%rdx, %rcx
 706 038e 4889FA   		movq	%rdi, %rdx
 707 0391 4889C7   		movq	%rax, %rdi
 708 0394 E8000000 		call	_ZN8UnitTest10CheckEqualImmEEvRNS_11TestResultsERKT_RKT0_RKNS_11TestDetailsE
 708      00
 709              	.LEHE25:
 710              	.L43:
 711              	.LEHB26:
  46:testBinIO.cpp **** 	CHECK_ARRAY_EQUAL(DATA, buf.data, (int)buf.length);
 712              		.loc 4 46 0 is_stmt 1
 713 0399 E8000000 		call	_ZN8UnitTest11CurrentTest7DetailsEv@PLT
 713      00
 714 039e 488B08   		movq	(%rax), %rcx
 715 03a1 488D85C0 		leaq	-576(%rbp), %rax
 715      FDFFFF
 716 03a8 BA2E0000 		movl	$46, %edx
 716      00
 717 03ad 4889CE   		movq	%rcx, %rsi
 718 03b0 4889C7   		movq	%rax, %rdi
 719 03b3 E8000000 		call	_ZN8UnitTest11TestDetailsC1ERKS0_i@PLT
 719      00
 720              		.loc 4 46 0 is_stmt 0 discriminator 2
 721 03b8 488B85A8 		movq	-600(%rbp), %rax
 721      FDFFFF
 722 03bf 89C3     		movl	%eax, %ebx
 723 03c1 E8000000 		call	_ZN8UnitTest11CurrentTest7ResultsEv@PLT
 723      00
 724 03c6 488B00   		movq	(%rax), %rax
 725 03c9 488D8DC0 		leaq	-576(%rbp), %rcx
 725      FDFFFF
 726 03d0 488D95A0 		leaq	-608(%rbp), %rdx
 726      FDFFFF
 727 03d7 488DB588 		leaq	-632(%rbp), %rsi
 727      FDFFFF
 728 03de 4989C8   		movq	%rcx, %r8
 729 03e1 89D9     		movl	%ebx, %ecx
 730 03e3 4889C7   		movq	%rax, %rdi
 731 03e6 E8000000 		call	_ZN8UnitTest15CheckArrayEqualIPKcPhEEvRNS_11TestResultsERKT_RKT0_iRKNS_11TestDetailsE
 731      00
 732              	.LEHE26:
 733              	.L46:
  47:testBinIO.cpp **** 	status = bufAppendFromBinaryFile(&buf, FILENAME, NULL);
 734              		.loc 4 47 0 is_stmt 1
 735 03eb 488D85A0 		leaq	-608(%rbp), %rax
 735      FDFFFF
 736 03f2 BA000000 		movl	$0, %edx
 736      00
 737 03f7 488D3500 		leaq	.LC7(%rip), %rsi
 737      000000
 738 03fe 4889C7   		movq	%rax, %rdi
 739              	.LEHB27:
 740 0401 E8000000 		call	bufAppendFromBinaryFile@PLT
 740      00
 741              	.LEHE27:
 742 0406 898584FD 		movl	%eax, -636(%rbp)
 742      FFFF
 743              	.LEHB28:
  48:testBinIO.cpp **** 	CHECK_EQUAL(BUF_SUCCESS, status);
 744              		.loc 4 48 0
 745 040c E8000000 		call	_ZN8UnitTest11CurrentTest7DetailsEv@PLT
 745      00
 746              		.loc 4 48 0 is_stmt 0 discriminator 1
 747 0411 488B08   		movq	(%rax), %rcx
 748 0414 488D85C0 		leaq	-576(%rbp), %rax
 748      FDFFFF
 749 041b BA300000 		movl	$48, %edx
 749      00
 750 0420 4889CE   		movq	%rcx, %rsi
 751 0423 4889C7   		movq	%rax, %rdi
 752 0426 E8000000 		call	_ZN8UnitTest11TestDetailsC1ERKS0_i@PLT
 752      00
 753              	.LEHE28:
 754              		.loc 4 48 0 discriminator 2
 755 042b C78590FD 		movl	$0, -624(%rbp)
 755      FFFF0000 
 755      0000
 756              	.LEHB29:
 757 0435 E8000000 		call	_ZN8UnitTest11CurrentTest7ResultsEv@PLT
 757      00
 758 043a 488B00   		movq	(%rax), %rax
 759 043d 488D8DC0 		leaq	-576(%rbp), %rcx
 759      FDFFFF
 760 0444 488D9584 		leaq	-636(%rbp), %rdx
 760      FDFFFF
 761 044b 488DB590 		leaq	-624(%rbp), %rsi
 761      FDFFFF
 762 0452 4889C7   		movq	%rax, %rdi
 763 0455 E8000000 		call	_ZN8UnitTest10CheckEqualI12BufferStatusS1_EEvRNS_11TestResultsERKT_RKT0_RKNS_11TestDetailsE
 763      00
 764              	.LEHE29:
 765              	.L50:
 766              	.LEHB30:
  49:testBinIO.cpp **** 	CHECK_EQUAL(2 * strlen(DATA), buf.length);
 767              		.loc 4 49 0 is_stmt 1
 768 045a E8000000 		call	_ZN8UnitTest11CurrentTest7DetailsEv@PLT
 768      00
 769 045f 488B08   		movq	(%rax), %rcx
 770 0462 488D85C0 		leaq	-576(%rbp), %rax
 770      FDFFFF
 771 0469 BA310000 		movl	$49, %edx
 771      00
 772 046e 4889CE   		movq	%rcx, %rsi
 773 0471 4889C7   		movq	%rax, %rdi
 774 0474 E8000000 		call	_ZN8UnitTest11TestDetailsC1ERKS0_i@PLT
 774      00
 775              	.LEHE30:
 776              		.loc 4 49 0 is_stmt 0 discriminator 2
 777 0479 48C78590 		movq	$38, -624(%rbp)
 777      FDFFFF26 
 777      000000
 778              	.LEHB31:
 779 0484 E8000000 		call	_ZN8UnitTest11CurrentTest7ResultsEv@PLT
 779      00
 780 0489 488B00   		movq	(%rax), %rax
 781 048c 488D95C0 		leaq	-576(%rbp), %rdx
 781      FDFFFF
 782 0493 488D8DA0 		leaq	-608(%rbp), %rcx
 782      FDFFFF
 783 049a 488D7908 		leaq	8(%rcx), %rdi
 784 049e 488DB590 		leaq	-624(%rbp), %rsi
 784      FDFFFF
 785 04a5 4889D1   		movq	%rdx, %rcx
 786 04a8 4889FA   		movq	%rdi, %rdx
 787 04ab 4889C7   		movq	%rax, %rdi
 788 04ae E8000000 		call	_ZN8UnitTest10CheckEqualImmEEvRNS_11TestResultsERKT_RKT0_RKNS_11TestDetailsE
 788      00
 789              	.LEHE31:
 790              	.L54:
 791              	.LEHB32:
  50:testBinIO.cpp **** 	CHECK_ARRAY_EQUAL(DATA, buf.data + strlen(DATA), (int)strlen(DATA));
 792              		.loc 4 50 0 is_stmt 1
 793 04b3 E8000000 		call	_ZN8UnitTest11CurrentTest7DetailsEv@PLT
 793      00
 794 04b8 488B08   		movq	(%rax), %rcx
 795 04bb 488D85C0 		leaq	-576(%rbp), %rax
 795      FDFFFF
 796 04c2 BA320000 		movl	$50, %edx
 796      00
 797 04c7 4889CE   		movq	%rcx, %rsi
 798 04ca 4889C7   		movq	%rax, %rdi
 799 04cd E8000000 		call	_ZN8UnitTest11TestDetailsC1ERKS0_i@PLT
 799      00
 800              	.LEHE32:
 801              		.loc 4 50 0 is_stmt 0 discriminator 2
 802 04d2 488B85A0 		movq	-608(%rbp), %rax
 802      FDFFFF
 803 04d9 4883C013 		addq	$19, %rax
 804 04dd 48898590 		movq	%rax, -624(%rbp)
 804      FDFFFF
 805              	.LEHB33:
 806 04e4 E8000000 		call	_ZN8UnitTest11CurrentTest7ResultsEv@PLT
 806      00
 807 04e9 488B00   		movq	(%rax), %rax
 808 04ec 488D8DC0 		leaq	-576(%rbp), %rcx
 808      FDFFFF
 809 04f3 488D9590 		leaq	-624(%rbp), %rdx
 809      FDFFFF
 810 04fa 488DB588 		leaq	-632(%rbp), %rsi
 810      FDFFFF
 811 0501 4989C8   		movq	%rcx, %r8
 812 0504 B9130000 		movl	$19, %ecx
 812      00
 813 0509 4889C7   		movq	%rax, %rdi
 814 050c E8000000 		call	_ZN8UnitTest15CheckArrayEqualIPKcPhEEvRNS_11TestResultsERKT_RKT0_iRKNS_11TestDetailsE
 814      00
 815              	.LEHE33:
 816              	.L58:
  51:testBinIO.cpp **** 	bufDestroy(&buf);
 817              		.loc 4 51 0 is_stmt 1
 818 0511 488D85A0 		leaq	-608(%rbp), %rax
 818      FDFFFF
 819 0518 4889C7   		movq	%rax, %rdi
 820              	.LEHB34:
 821 051b E8000000 		call	bufDestroy@PLT
 821      00
 822              	.LEHE34:
  36:testBinIO.cpp **** 	Buffer buf;
 823              		.loc 4 36 0
 824 0520 488D85E0 		leaq	-544(%rbp), %rax
 824      FDFFFF
 825 0527 4889C7   		movq	%rax, %rdi
 826              	.LEHB35:
 827 052a E8000000 		call	_ZNSt14basic_ofstreamIcSt11char_traitsIcEED1Ev@PLT
 827      00
 828              	.LEHE35:
  52:testBinIO.cpp **** }
 829              		.loc 4 52 0
 830 052f 90       		nop
 831 0530 488B45E8 		movq	-24(%rbp), %rax
 832 0534 64483304 		xorq	%fs:40, %rax
 832      25280000 
 832      00
 833 053d 0F84C602 		je	.L60
 833      0000
 834 0543 E9BC0200 		jmp	.L82
 834      00
 835              	.L63:
 836 0548 EB00     		jmp	.L33
 837              	.L62:
 838              	.L33:
  39:testBinIO.cpp **** 	file.open(FILENAME, ios::out|ios::binary);
 839              		.loc 4 39 0
 840 054a 4889C7   		movq	%rax, %rdi
 841 054d E8000000 		call	__cxa_begin_catch@PLT
 841      00
 842              	.LEHB36:
 843 0552 E8000000 		call	_ZN8UnitTest11CurrentTest7ResultsEv@PLT
 843      00
 844 0557 488B18   		movq	(%rax), %rbx
 845 055a E8000000 		call	_ZN8UnitTest11CurrentTest7DetailsEv@PLT
 845      00
  39:testBinIO.cpp **** 	file.open(FILENAME, ios::out|ios::binary);
 846              		.loc 4 39 0 is_stmt 0 discriminator 8
 847 055f 488B08   		movq	(%rax), %rcx
 848 0562 488D85C0 		leaq	-576(%rbp), %rax
 848      FDFFFF
 849 0569 BA270000 		movl	$39, %edx
 849      00
 850 056e 4889CE   		movq	%rcx, %rsi
 851 0571 4889C7   		movq	%rax, %rdi
 852 0574 E8000000 		call	_ZN8UnitTest11TestDetailsC1ERKS0_i@PLT
 852      00
  39:testBinIO.cpp **** 	file.open(FILENAME, ios::out|ios::binary);
 853              		.loc 4 39 0 discriminator 12
 854 0579 488D85C0 		leaq	-576(%rbp), %rax
 854      FDFFFF
 855 0580 488D1500 		leaq	.LC4(%rip), %rdx
 855      000000
 856 0587 4889C6   		movq	%rax, %rsi
 857 058a 4889DF   		movq	%rbx, %rdi
 858 058d E8000000 		call	_ZN8UnitTest11TestResults13OnTestFailureERKNS_11TestDetailsEPKc@PLT
 858      00
 859              	.LEHE36:
 860              	.LEHB37:
  39:testBinIO.cpp **** 	file.open(FILENAME, ios::out|ios::binary);
 861              		.loc 4 39 0 discriminator 14
 862 0592 E8000000 		call	__cxa_end_catch@PLT
 862      00
 863              	.LEHE37:
  39:testBinIO.cpp **** 	file.open(FILENAME, ios::out|ios::binary);
 864              		.loc 4 39 0
 865 0597 E9E9FCFF 		jmp	.L34
 865      FF
 866              	.L64:
 867 059c 4889C3   		movq	%rax, %rbx
 868 059f E8000000 		call	__cxa_end_catch@PLT
 868      00
 869 05a4 E9410200 		jmp	.L36
 869      00
 870              	.L66:
 871 05a9 EB00     		jmp	.L38
 872              	.L65:
 873              	.L38:
  44:testBinIO.cpp **** 	CHECK_EQUAL(strlen(DATA), buf.length);
 874              		.loc 4 44 0 is_stmt 1
 875 05ab 4889C7   		movq	%rax, %rdi
 876 05ae E8000000 		call	__cxa_begin_catch@PLT
 876      00
 877              	.LEHB38:
 878 05b3 E8000000 		call	_ZN8UnitTest11CurrentTest7ResultsEv@PLT
 878      00
 879 05b8 488B18   		movq	(%rax), %rbx
 880 05bb E8000000 		call	_ZN8UnitTest11CurrentTest7DetailsEv@PLT
 880      00
  44:testBinIO.cpp **** 	CHECK_EQUAL(strlen(DATA), buf.length);
 881              		.loc 4 44 0 is_stmt 0 discriminator 8
 882 05c0 488B08   		movq	(%rax), %rcx
 883 05c3 488D85C0 		leaq	-576(%rbp), %rax
 883      FDFFFF
 884 05ca BA2C0000 		movl	$44, %edx
 884      00
 885 05cf 4889CE   		movq	%rcx, %rsi
 886 05d2 4889C7   		movq	%rax, %rdi
 887 05d5 E8000000 		call	_ZN8UnitTest11TestDetailsC1ERKS0_i@PLT
 887      00
  44:testBinIO.cpp **** 	CHECK_EQUAL(strlen(DATA), buf.length);
 888              		.loc 4 44 0 discriminator 12
 889 05da 488D85C0 		leaq	-576(%rbp), %rax
 889      FDFFFF
 890 05e1 488D1500 		leaq	.LC4(%rip), %rdx
 890      000000
 891 05e8 4889C6   		movq	%rax, %rsi
 892 05eb 4889DF   		movq	%rbx, %rdi
 893 05ee E8000000 		call	_ZN8UnitTest11TestResults13OnTestFailureERKNS_11TestDetailsEPKc@PLT
 893      00
 894              	.LEHE38:
 895              	.LEHB39:
  44:testBinIO.cpp **** 	CHECK_EQUAL(strlen(DATA), buf.length);
 896              		.loc 4 44 0 discriminator 14
 897 05f3 E8000000 		call	__cxa_end_catch@PLT
 897      00
 898              	.LEHE39:
  44:testBinIO.cpp **** 	CHECK_EQUAL(strlen(DATA), buf.length);
 899              		.loc 4 44 0
 900 05f8 E943FDFF 		jmp	.L39
 900      FF
 901              	.L67:
 902 05fd 4889C3   		movq	%rax, %rbx
 903 0600 E8000000 		call	__cxa_end_catch@PLT
 903      00
 904 0605 E9E00100 		jmp	.L36
 904      00
 905              	.L69:
 906 060a EB00     		jmp	.L42
 907              	.L68:
 908              	.L42:
  45:testBinIO.cpp **** 	CHECK_ARRAY_EQUAL(DATA, buf.data, (int)buf.length);
 909              		.loc 4 45 0 is_stmt 1
 910 060c 4889C7   		movq	%rax, %rdi
 911 060f E8000000 		call	__cxa_begin_catch@PLT
 911      00
 912              	.LEHB40:
 913 0614 E8000000 		call	_ZN8UnitTest11CurrentTest7ResultsEv@PLT
 913      00
 914 0619 488B18   		movq	(%rax), %rbx
 915 061c E8000000 		call	_ZN8UnitTest11CurrentTest7DetailsEv@PLT
 915      00
  45:testBinIO.cpp **** 	CHECK_ARRAY_EQUAL(DATA, buf.data, (int)buf.length);
 916              		.loc 4 45 0 is_stmt 0 discriminator 8
 917 0621 488B08   		movq	(%rax), %rcx
 918 0624 488D85C0 		leaq	-576(%rbp), %rax
 918      FDFFFF
 919 062b BA2D0000 		movl	$45, %edx
 919      00
 920 0630 4889CE   		movq	%rcx, %rsi
 921 0633 4889C7   		movq	%rax, %rdi
 922 0636 E8000000 		call	_ZN8UnitTest11TestDetailsC1ERKS0_i@PLT
 922      00
  45:testBinIO.cpp **** 	CHECK_ARRAY_EQUAL(DATA, buf.data, (int)buf.length);
 923              		.loc 4 45 0 discriminator 12
 924 063b 488D85C0 		leaq	-576(%rbp), %rax
 924      FDFFFF
 925 0642 488D1500 		leaq	.LC9(%rip), %rdx
 925      000000
 926 0649 4889C6   		movq	%rax, %rsi
 927 064c 4889DF   		movq	%rbx, %rdi
 928 064f E8000000 		call	_ZN8UnitTest11TestResults13OnTestFailureERKNS_11TestDetailsEPKc@PLT
 928      00
 929              	.LEHE40:
 930              	.LEHB41:
  45:testBinIO.cpp **** 	CHECK_ARRAY_EQUAL(DATA, buf.data, (int)buf.length);
 931              		.loc 4 45 0 discriminator 14
 932 0654 E8000000 		call	__cxa_end_catch@PLT
 932      00
 933              	.LEHE41:
  45:testBinIO.cpp **** 	CHECK_ARRAY_EQUAL(DATA, buf.data, (int)buf.length);
 934              		.loc 4 45 0
 935 0659 E93BFDFF 		jmp	.L43
 935      FF
 936              	.L70:
 937 065e 4889C3   		movq	%rax, %rbx
 938 0661 E8000000 		call	__cxa_end_catch@PLT
 938      00
 939 0666 E97F0100 		jmp	.L36
 939      00
 940              	.L71:
  46:testBinIO.cpp **** 	status = bufAppendFromBinaryFile(&buf, FILENAME, NULL);
 941              		.loc 4 46 0 is_stmt 1
 942 066b 4889C7   		movq	%rax, %rdi
 943 066e E8000000 		call	__cxa_begin_catch@PLT
 943      00
 944              	.LEHB42:
 945 0673 E8000000 		call	_ZN8UnitTest11CurrentTest7ResultsEv@PLT
 945      00
 946 0678 488B18   		movq	(%rax), %rbx
 947 067b E8000000 		call	_ZN8UnitTest11CurrentTest7DetailsEv@PLT
 947      00
  46:testBinIO.cpp **** 	status = bufAppendFromBinaryFile(&buf, FILENAME, NULL);
 948              		.loc 4 46 0 is_stmt 0 discriminator 8
 949 0680 488B08   		movq	(%rax), %rcx
 950 0683 488D85C0 		leaq	-576(%rbp), %rax
 950      FDFFFF
 951 068a BA2E0000 		movl	$46, %edx
 951      00
 952 068f 4889CE   		movq	%rcx, %rsi
 953 0692 4889C7   		movq	%rax, %rdi
 954 0695 E8000000 		call	_ZN8UnitTest11TestDetailsC1ERKS0_i@PLT
 954      00
  46:testBinIO.cpp **** 	status = bufAppendFromBinaryFile(&buf, FILENAME, NULL);
 955              		.loc 4 46 0 discriminator 12
 956 069a 488D85C0 		leaq	-576(%rbp), %rax
 956      FDFFFF
 957 06a1 488D1500 		leaq	.LC10(%rip), %rdx
 957      000000
 958 06a8 4889C6   		movq	%rax, %rsi
 959 06ab 4889DF   		movq	%rbx, %rdi
 960 06ae E8000000 		call	_ZN8UnitTest11TestResults13OnTestFailureERKNS_11TestDetailsEPKc@PLT
 960      00
 961              	.LEHE42:
 962              	.LEHB43:
  46:testBinIO.cpp **** 	status = bufAppendFromBinaryFile(&buf, FILENAME, NULL);
 963              		.loc 4 46 0 discriminator 14
 964 06b3 E8000000 		call	__cxa_end_catch@PLT
 964      00
 965              	.LEHE43:
  46:testBinIO.cpp **** 	status = bufAppendFromBinaryFile(&buf, FILENAME, NULL);
 966              		.loc 4 46 0
 967 06b8 E92EFDFF 		jmp	.L46
 967      FF
 968              	.L72:
 969 06bd 4889C3   		movq	%rax, %rbx
 970 06c0 E8000000 		call	__cxa_end_catch@PLT
 970      00
 971 06c5 E9200100 		jmp	.L36
 971      00
 972              	.L74:
 973 06ca EB00     		jmp	.L49
 974              	.L73:
 975              	.L49:
  48:testBinIO.cpp **** 	CHECK_EQUAL(2 * strlen(DATA), buf.length);
 976              		.loc 4 48 0 is_stmt 1
 977 06cc 4889C7   		movq	%rax, %rdi
 978 06cf E8000000 		call	__cxa_begin_catch@PLT
 978      00
 979              	.LEHB44:
 980 06d4 E8000000 		call	_ZN8UnitTest11CurrentTest7ResultsEv@PLT
 980      00
 981 06d9 488B18   		movq	(%rax), %rbx
 982 06dc E8000000 		call	_ZN8UnitTest11CurrentTest7DetailsEv@PLT
 982      00
  48:testBinIO.cpp **** 	CHECK_EQUAL(2 * strlen(DATA), buf.length);
 983              		.loc 4 48 0 is_stmt 0 discriminator 8
 984 06e1 488B08   		movq	(%rax), %rcx
 985 06e4 488D85C0 		leaq	-576(%rbp), %rax
 985      FDFFFF
 986 06eb BA300000 		movl	$48, %edx
 986      00
 987 06f0 4889CE   		movq	%rcx, %rsi
 988 06f3 4889C7   		movq	%rax, %rdi
 989 06f6 E8000000 		call	_ZN8UnitTest11TestDetailsC1ERKS0_i@PLT
 989      00
  48:testBinIO.cpp **** 	CHECK_EQUAL(2 * strlen(DATA), buf.length);
 990              		.loc 4 48 0 discriminator 12
 991 06fb 488D85C0 		leaq	-576(%rbp), %rax
 991      FDFFFF
 992 0702 488D1500 		leaq	.LC4(%rip), %rdx
 992      000000
 993 0709 4889C6   		movq	%rax, %rsi
 994 070c 4889DF   		movq	%rbx, %rdi
 995 070f E8000000 		call	_ZN8UnitTest11TestResults13OnTestFailureERKNS_11TestDetailsEPKc@PLT
 995      00
 996              	.LEHE44:
 997              	.LEHB45:
  48:testBinIO.cpp **** 	CHECK_EQUAL(2 * strlen(DATA), buf.length);
 998              		.loc 4 48 0 discriminator 14
 999 0714 E8000000 		call	__cxa_end_catch@PLT
 999      00
 1000              	.LEHE45:
  48:testBinIO.cpp **** 	CHECK_EQUAL(2 * strlen(DATA), buf.length);
 1001              		.loc 4 48 0
 1002 0719 E93CFDFF 		jmp	.L50
 1002      FF
 1003              	.L75:
 1004 071e 4889C3   		movq	%rax, %rbx
 1005 0721 E8000000 		call	__cxa_end_catch@PLT
 1005      00
 1006 0726 E9BF0000 		jmp	.L36
 1006      00
 1007              	.L77:
 1008 072b EB00     		jmp	.L53
 1009              	.L76:
 1010              	.L53:
  49:testBinIO.cpp **** 	CHECK_ARRAY_EQUAL(DATA, buf.data + strlen(DATA), (int)strlen(DATA));
 1011              		.loc 4 49 0 is_stmt 1
 1012 072d 4889C7   		movq	%rax, %rdi
 1013 0730 E8000000 		call	__cxa_begin_catch@PLT
 1013      00
 1014              	.LEHB46:
 1015 0735 E8000000 		call	_ZN8UnitTest11CurrentTest7ResultsEv@PLT
 1015      00
 1016 073a 488B18   		movq	(%rax), %rbx
 1017 073d E8000000 		call	_ZN8UnitTest11CurrentTest7DetailsEv@PLT
 1017      00
  49:testBinIO.cpp **** 	CHECK_ARRAY_EQUAL(DATA, buf.data + strlen(DATA), (int)strlen(DATA));
 1018              		.loc 4 49 0 is_stmt 0 discriminator 8
 1019 0742 488B08   		movq	(%rax), %rcx
 1020 0745 488D85C0 		leaq	-576(%rbp), %rax
 1020      FDFFFF
 1021 074c BA310000 		movl	$49, %edx
 1021      00
 1022 0751 4889CE   		movq	%rcx, %rsi
 1023 0754 4889C7   		movq	%rax, %rdi
 1024 0757 E8000000 		call	_ZN8UnitTest11TestDetailsC1ERKS0_i@PLT
 1024      00
  49:testBinIO.cpp **** 	CHECK_ARRAY_EQUAL(DATA, buf.data + strlen(DATA), (int)strlen(DATA));
 1025              		.loc 4 49 0 discriminator 12
 1026 075c 488D85C0 		leaq	-576(%rbp), %rax
 1026      FDFFFF
 1027 0763 488D1500 		leaq	.LC11(%rip), %rdx
 1027      000000
 1028 076a 4889C6   		movq	%rax, %rsi
 1029 076d 4889DF   		movq	%rbx, %rdi
 1030 0770 E8000000 		call	_ZN8UnitTest11TestResults13OnTestFailureERKNS_11TestDetailsEPKc@PLT
 1030      00
 1031              	.LEHE46:
 1032              	.LEHB47:
  49:testBinIO.cpp **** 	CHECK_ARRAY_EQUAL(DATA, buf.data + strlen(DATA), (int)strlen(DATA));
 1033              		.loc 4 49 0 discriminator 14
 1034 0775 E8000000 		call	__cxa_end_catch@PLT
 1034      00
 1035              	.LEHE47:
  49:testBinIO.cpp **** 	CHECK_ARRAY_EQUAL(DATA, buf.data + strlen(DATA), (int)strlen(DATA));
 1036              		.loc 4 49 0
 1037 077a E934FDFF 		jmp	.L54
 1037      FF
 1038              	.L78:
 1039 077f 4889C3   		movq	%rax, %rbx
 1040 0782 E8000000 		call	__cxa_end_catch@PLT
 1040      00
 1041 0787 EB61     		jmp	.L36
 1042              	.L80:
 1043 0789 EB00     		jmp	.L57
 1044              	.L79:
 1045              	.L57:
  50:testBinIO.cpp **** 	bufDestroy(&buf);
 1046              		.loc 4 50 0 is_stmt 1
 1047 078b 4889C7   		movq	%rax, %rdi
 1048 078e E8000000 		call	__cxa_begin_catch@PLT
 1048      00
 1049              	.LEHB48:
 1050 0793 E8000000 		call	_ZN8UnitTest11CurrentTest7ResultsEv@PLT
 1050      00
 1051 0798 488B18   		movq	(%rax), %rbx
 1052 079b E8000000 		call	_ZN8UnitTest11CurrentTest7DetailsEv@PLT
 1052      00
  50:testBinIO.cpp **** 	bufDestroy(&buf);
 1053              		.loc 4 50 0 is_stmt 0 discriminator 8
 1054 07a0 488B08   		movq	(%rax), %rcx
 1055 07a3 488D85C0 		leaq	-576(%rbp), %rax
 1055      FDFFFF
 1056 07aa BA320000 		movl	$50, %edx
 1056      00
 1057 07af 4889CE   		movq	%rcx, %rsi
 1058 07b2 4889C7   		movq	%rax, %rdi
 1059 07b5 E8000000 		call	_ZN8UnitTest11TestDetailsC1ERKS0_i@PLT
 1059      00
  50:testBinIO.cpp **** 	bufDestroy(&buf);
 1060              		.loc 4 50 0 discriminator 12
 1061 07ba 488D85C0 		leaq	-576(%rbp), %rax
 1061      FDFFFF
 1062 07c1 488D1500 		leaq	.LC12(%rip), %rdx
 1062      000000
 1063 07c8 4889C6   		movq	%rax, %rsi
 1064 07cb 4889DF   		movq	%rbx, %rdi
 1065 07ce E8000000 		call	_ZN8UnitTest11TestResults13OnTestFailureERKNS_11TestDetailsEPKc@PLT
 1065      00
 1066              	.LEHE48:
 1067              	.LEHB49:
  50:testBinIO.cpp **** 	bufDestroy(&buf);
 1068              		.loc 4 50 0 discriminator 14
 1069 07d3 E8000000 		call	__cxa_end_catch@PLT
 1069      00
 1070              	.LEHE49:
  50:testBinIO.cpp **** 	bufDestroy(&buf);
 1071              		.loc 4 50 0
 1072 07d8 E934FDFF 		jmp	.L58
 1072      FF
 1073              	.L81:
 1074 07dd 4889C3   		movq	%rax, %rbx
 1075 07e0 E8000000 		call	__cxa_end_catch@PLT
 1075      00
 1076 07e5 EB03     		jmp	.L36
 1077              	.L61:
 1078 07e7 4889C3   		movq	%rax, %rbx
 1079              	.L36:
  36:testBinIO.cpp **** 	Buffer buf;
 1080              		.loc 4 36 0 is_stmt 1
 1081 07ea 488D85E0 		leaq	-544(%rbp), %rax
 1081      FDFFFF
 1082 07f1 4889C7   		movq	%rax, %rdi
 1083 07f4 E8000000 		call	_ZNSt14basic_ofstreamIcSt11char_traitsIcEED1Ev@PLT
 1083      00
 1084 07f9 4889D8   		movq	%rbx, %rax
 1085 07fc 4889C7   		movq	%rax, %rdi
 1086              	.LEHB50:
 1087 07ff E8000000 		call	_Unwind_Resume@PLT
 1087      00
 1088              	.LEHE50:
 1089              	.L82:
 1090              		.loc 4 52 0
 1091 0804 E8000000 		call	__stack_chk_fail@PLT
 1091      00
 1092              	.L60:
 1093 0809 4881C488 		addq	$648, %rsp
 1093      020000
 1094 0810 5B       		popq	%rbx
 1095 0811 5D       		popq	%rbp
 1096              		.cfi_def_cfa 7, 8
 1097 0812 C3       		ret
 1098              		.cfi_endproc
 1099              	.LFE1163:
 1100              		.section	.gcc_except_table
 1101              		.align 4
 1102              	.LLSDA1163:
 1103 0054 FF       		.byte	0xff
 1104 0055 9B       		.byte	0x9b
 1105 0056 D001     		.uleb128 .LLSDATT1163-.LLSDATTD1163
 1106              	.LLSDATTD1163:
 1107 0058 01       		.byte	0x1
 1108 0059 C601     		.uleb128 .LLSDACSE1163-.LLSDACSB1163
 1109              	.LLSDACSB1163:
 1110 005b 48       		.uleb128 .LEHB17-.LFB1163
 1111 005c 05       		.uleb128 .LEHE17-.LEHB17
 1112 005d 00       		.uleb128 0
 1113 005e 00       		.uleb128 0
 1114 005f 66       		.uleb128 .LEHB18-.LFB1163
 1115 0060 05       		.uleb128 .LEHE18-.LEHB18
 1116 0061 A10C     		.uleb128 .L61-.LFB1163
 1117 0063 00       		.uleb128 0
 1118 0064 71       		.uleb128 .LEHB19-.LFB1163
 1119 0065 1F       		.uleb128 .LEHE19-.LEHB19
 1120 0066 8407     		.uleb128 .L62-.LFB1163
 1121 0068 01       		.uleb128 0x1
 1122 0069 9A01     		.uleb128 .LEHB20-.LFB1163
 1123 006b 25       		.uleb128 .LEHE20-.LEHB20
 1124 006c 8207     		.uleb128 .L63-.LFB1163
 1125 006e 01       		.uleb128 0x1
 1126 006f E101     		.uleb128 .LEHB21-.LFB1163
 1127 0071 45       		.uleb128 .LEHE21-.LEHB21
 1128 0072 A10C     		.uleb128 .L61-.LFB1163
 1129 0074 00       		.uleb128 0
 1130 0075 AC02     		.uleb128 .LEHB22-.LFB1163
 1131 0077 1F       		.uleb128 .LEHE22-.LEHB22
 1132 0078 E507     		.uleb128 .L65-.LFB1163
 1133 007a 01       		.uleb128 0x1
 1134 007b D502     		.uleb128 .LEHB23-.LFB1163
 1135 007d 25       		.uleb128 .LEHE23-.LEHB23
 1136 007e E307     		.uleb128 .L66-.LFB1163
 1137 0080 01       		.uleb128 0x1
 1138 0081 FA02     		.uleb128 .LEHB24-.LFB1163
 1139 0083 1F       		.uleb128 .LEHE24-.LEHB24
 1140 0084 C608     		.uleb128 .L68-.LFB1163
 1141 0086 01       		.uleb128 0x1
 1142 0087 A403     		.uleb128 .LEHB25-.LFB1163
 1143 0089 2F       		.uleb128 .LEHE25-.LEHB25
 1144 008a C408     		.uleb128 .L69-.LFB1163
 1145 008c 01       		.uleb128 0x1
 1146 008d D303     		.uleb128 .LEHB26-.LFB1163
 1147 008f 52       		.uleb128 .LEHE26-.LEHB26
 1148 0090 A509     		.uleb128 .L71-.LFB1163
 1149 0092 01       		.uleb128 0x1
 1150 0093 BB04     		.uleb128 .LEHB27-.LFB1163
 1151 0095 05       		.uleb128 .LEHE27-.LEHB27
 1152 0096 A10C     		.uleb128 .L61-.LFB1163
 1153 0098 00       		.uleb128 0
 1154 0099 C604     		.uleb128 .LEHB28-.LFB1163
 1155 009b 1F       		.uleb128 .LEHE28-.LEHB28
 1156 009c 860A     		.uleb128 .L73-.LFB1163
 1157 009e 01       		.uleb128 0x1
 1158 009f EF04     		.uleb128 .LEHB29-.LFB1163
 1159 00a1 25       		.uleb128 .LEHE29-.LEHB29
 1160 00a2 840A     		.uleb128 .L74-.LFB1163
 1161 00a4 01       		.uleb128 0x1
 1162 00a5 9405     		.uleb128 .LEHB30-.LFB1163
 1163 00a7 1F       		.uleb128 .LEHE30-.LEHB30
 1164 00a8 E70A     		.uleb128 .L76-.LFB1163
 1165 00aa 01       		.uleb128 0x1
 1166 00ab BE05     		.uleb128 .LEHB31-.LFB1163
 1167 00ad 2F       		.uleb128 .LEHE31-.LEHB31
 1168 00ae E50A     		.uleb128 .L77-.LFB1163
 1169 00b0 01       		.uleb128 0x1
 1170 00b1 ED05     		.uleb128 .LEHB32-.LFB1163
 1171 00b3 1F       		.uleb128 .LEHE32-.LEHB32
 1172 00b4 C50B     		.uleb128 .L79-.LFB1163
 1173 00b6 01       		.uleb128 0x1
 1174 00b7 9E06     		.uleb128 .LEHB33-.LFB1163
 1175 00b9 2D       		.uleb128 .LEHE33-.LEHB33
 1176 00ba C30B     		.uleb128 .L80-.LFB1163
 1177 00bc 01       		.uleb128 0x1
 1178 00bd D506     		.uleb128 .LEHB34-.LFB1163
 1179 00bf 05       		.uleb128 .LEHE34-.LEHB34
 1180 00c0 A10C     		.uleb128 .L61-.LFB1163
 1181 00c2 00       		.uleb128 0
 1182 00c3 E406     		.uleb128 .LEHB35-.LFB1163
 1183 00c5 05       		.uleb128 .LEHE35-.LEHB35
 1184 00c6 00       		.uleb128 0
 1185 00c7 00       		.uleb128 0
 1186 00c8 8C07     		.uleb128 .LEHB36-.LFB1163
 1187 00ca 40       		.uleb128 .LEHE36-.LEHB36
 1188 00cb D607     		.uleb128 .L64-.LFB1163
 1189 00cd 00       		.uleb128 0
 1190 00ce CC07     		.uleb128 .LEHB37-.LFB1163
 1191 00d0 05       		.uleb128 .LEHE37-.LEHB37
 1192 00d1 A10C     		.uleb128 .L61-.LFB1163
 1193 00d3 00       		.uleb128 0
 1194 00d4 ED07     		.uleb128 .LEHB38-.LFB1163
 1195 00d6 40       		.uleb128 .LEHE38-.LEHB38
 1196 00d7 B708     		.uleb128 .L67-.LFB1163
 1197 00d9 00       		.uleb128 0
 1198 00da AD08     		.uleb128 .LEHB39-.LFB1163
 1199 00dc 05       		.uleb128 .LEHE39-.LEHB39
 1200 00dd A10C     		.uleb128 .L61-.LFB1163
 1201 00df 00       		.uleb128 0
 1202 00e0 CE08     		.uleb128 .LEHB40-.LFB1163
 1203 00e2 40       		.uleb128 .LEHE40-.LEHB40
 1204 00e3 9809     		.uleb128 .L70-.LFB1163
 1205 00e5 00       		.uleb128 0
 1206 00e6 8E09     		.uleb128 .LEHB41-.LFB1163
 1207 00e8 05       		.uleb128 .LEHE41-.LEHB41
 1208 00e9 A10C     		.uleb128 .L61-.LFB1163
 1209 00eb 00       		.uleb128 0
 1210 00ec AD09     		.uleb128 .LEHB42-.LFB1163
 1211 00ee 40       		.uleb128 .LEHE42-.LEHB42
 1212 00ef F709     		.uleb128 .L72-.LFB1163
 1213 00f1 00       		.uleb128 0
 1214 00f2 ED09     		.uleb128 .LEHB43-.LFB1163
 1215 00f4 05       		.uleb128 .LEHE43-.LEHB43
 1216 00f5 A10C     		.uleb128 .L61-.LFB1163
 1217 00f7 00       		.uleb128 0
 1218 00f8 8E0A     		.uleb128 .LEHB44-.LFB1163
 1219 00fa 40       		.uleb128 .LEHE44-.LEHB44
 1220 00fb D80A     		.uleb128 .L75-.LFB1163
 1221 00fd 00       		.uleb128 0
 1222 00fe CE0A     		.uleb128 .LEHB45-.LFB1163
 1223 0100 05       		.uleb128 .LEHE45-.LEHB45
 1224 0101 A10C     		.uleb128 .L61-.LFB1163
 1225 0103 00       		.uleb128 0
 1226 0104 EF0A     		.uleb128 .LEHB46-.LFB1163
 1227 0106 40       		.uleb128 .LEHE46-.LEHB46
 1228 0107 B90B     		.uleb128 .L78-.LFB1163
 1229 0109 00       		.uleb128 0
 1230 010a AF0B     		.uleb128 .LEHB47-.LFB1163
 1231 010c 05       		.uleb128 .LEHE47-.LEHB47
 1232 010d A10C     		.uleb128 .L61-.LFB1163
 1233 010f 00       		.uleb128 0
 1234 0110 CD0B     		.uleb128 .LEHB48-.LFB1163
 1235 0112 40       		.uleb128 .LEHE48-.LEHB48
 1236 0113 970C     		.uleb128 .L81-.LFB1163
 1237 0115 00       		.uleb128 0
 1238 0116 8D0C     		.uleb128 .LEHB49-.LFB1163
 1239 0118 05       		.uleb128 .LEHE49-.LEHB49
 1240 0119 A10C     		.uleb128 .L61-.LFB1163
 1241 011b 00       		.uleb128 0
 1242 011c B90C     		.uleb128 .LEHB50-.LFB1163
 1243 011e 05       		.uleb128 .LEHE50-.LEHB50
 1244 011f 00       		.uleb128 0
 1245 0120 00       		.uleb128 0
 1246              	.LLSDACSE1163:
 1247 0121 01       		.byte	0x1
 1248 0122 00       		.byte	0
 1249 0123 00       		.align 4
 1250 0124 00000000 		.long	0
 1251              	
 1252              	.LLSDATT1163:
 1253              		.text
 1255              		.section	.rodata
 1256              	.LC13:
 1257 0210 42696E49 		.string	"BinIO_testWriteFile"
 1257      4F5F7465 
 1257      73745772 
 1257      69746546 
 1257      696C6500 
 1258              		.section	.text._ZN23TestBinIO_testWriteFileC2Ev,"axG",@progbits,_ZN23TestBinIO_testWriteFileC5Ev,c
 1259              		.align 2
 1260              		.weak	_ZN23TestBinIO_testWriteFileC2Ev
 1262              	_ZN23TestBinIO_testWriteFileC2Ev:
 1263              	.LFB1165:
  53:testBinIO.cpp **** 
  54:testBinIO.cpp **** TEST(BinIO_testWriteFile) {
 1264              		.loc 4 54 0
 1265              		.cfi_startproc
 1266 0000 55       		pushq	%rbp
 1267              		.cfi_def_cfa_offset 16
 1268              		.cfi_offset 6, -16
 1269 0001 4889E5   		movq	%rsp, %rbp
 1270              		.cfi_def_cfa_register 6
 1271 0004 53       		pushq	%rbx
 1272 0005 4883EC18 		subq	$24, %rsp
 1273              		.cfi_offset 3, -24
 1274 0009 48897DE8 		movq	%rdi, -24(%rbp)
 1275              	.LBB6:
 1276              		.loc 4 54 0
 1277 000d 488B5DE8 		movq	-24(%rbp), %rbx
 1278 0011 E8000000 		call	_ZN13UnitTestSuite12GetSuiteNameEv
 1278      00
 1279 0016 41B83600 		movl	$54, %r8d
 1279      0000
 1280 001c 488D0D00 		leaq	.LC1(%rip), %rcx
 1280      000000
 1281 0023 4889C2   		movq	%rax, %rdx
 1282 0026 488D3500 		leaq	.LC13(%rip), %rsi
 1282      000000
 1283 002d 4889DF   		movq	%rbx, %rdi
 1284 0030 E8000000 		call	_ZN8UnitTest4TestC2EPKcS2_S2_i@PLT
 1284      00
 1285 0035 488D1500 		leaq	16+_ZTV23TestBinIO_testWriteFile(%rip), %rdx
 1285      000000
 1286 003c 488B45E8 		movq	-24(%rbp), %rax
 1287 0040 488910   		movq	%rdx, (%rax)
 1288              	.LBE6:
 1289 0043 90       		nop
 1290 0044 4883C418 		addq	$24, %rsp
 1291 0048 5B       		popq	%rbx
 1292 0049 5D       		popq	%rbp
 1293              		.cfi_def_cfa 7, 8
 1294 004a C3       		ret
 1295              		.cfi_endproc
 1296              	.LFE1165:
 1298              		.weak	_ZN23TestBinIO_testWriteFileC1Ev
 1299              		.set	_ZN23TestBinIO_testWriteFileC1Ev,_ZN23TestBinIO_testWriteFileC2Ev
 1300              		.globl	testBinIO_testWriteFileInstance
 1301              		.bss
 1302 0079 00000000 		.align 32
 1302      000000
 1305              	testBinIO_testWriteFileInstance:
 1306 0080 00000000 		.zero	56
 1306      00000000 
 1306      00000000 
 1306      00000000 
 1306      00000000 
 1307              		.globl	adderBinIO_testWriteFile
 1310              	adderBinIO_testWriteFile:
 1311 00b8 00       		.zero	1
 1312              		.section	.rodata
 1313              	.LC14:
 1314 0224 66696C65 		.string	"file.is_open()"
 1314      2E69735F 
 1314      6F70656E 
 1314      282900
 1315 0233 00000000 		.align 8
 1315      00
 1316              	.LC15:
 1317 0238 556E6861 		.string	"Unhandled exception in CHECK(file.is_open())"
 1317      6E646C65 
 1317      64206578 
 1317      63657074 
 1317      696F6E20 
 1318 0265 000000   		.align 8
 1319              	.LC16:
 1320 0268 556E6861 		.string	"Unhandled exception in CHECK_EQUAL(strlen(DATA), (size_t)length)"
 1320      6E646C65 
 1320      64206578 
 1320      63657074 
 1320      696F6E20 
 1321 02a9 00000000 		.align 8
 1321      000000
 1322              	.LC17:
 1323 02b0 556E6861 		.string	"Unhandled exception in CHECK_ARRAY_EQUAL(DATA, fileData)"
 1323      6E646C65 
 1323      64206578 
 1323      63657074 
 1323      696F6E20 
 1324 02e9 00000000 		.align 8
 1324      000000
 1325              	.LC18:
 1326 02f0 556E6861 		.string	"Unhandled exception in CHECK_EQUAL(9, length)"
 1326      6E646C65 
 1326      64206578 
 1326      63657074 
 1326      696F6E20 
 1327 031e 0000     		.align 8
 1328              	.LC19:
 1329 0320 556E6861 		.string	"Unhandled exception in CHECK_ARRAY_EQUAL(DATA+5, fileData)"
 1329      6E646C65 
 1329      64206578 
 1329      63657074 
 1329      696F6E20 
 1330              		.text
 1331 0813 90       		.align 2
 1332              		.globl	_ZNK23TestBinIO_testWriteFile7RunImplEv
 1334              	_ZNK23TestBinIO_testWriteFile7RunImplEv:
 1335              	.LFB1167:
 1336              		.loc 4 54 0
 1337              		.cfi_startproc
 1338              		.cfi_personality 0x9b,DW.ref.__gxx_personality_v0
 1339              		.cfi_lsda 0x1b,.LLSDA1167
 1340 0814 55       		pushq	%rbp
 1341              		.cfi_def_cfa_offset 16
 1342              		.cfi_offset 6, -16
 1343 0815 4889E5   		movq	%rsp, %rbp
 1344              		.cfi_def_cfa_register 6
 1345 0818 53       		pushq	%rbx
 1346 0819 4881ECB8 		subq	$696, %rsp
 1346      020000
 1347              		.cfi_offset 3, -24
 1348 0820 4889BD48 		movq	%rdi, -696(%rbp)
 1348      FDFFFF
 1349              		.loc 4 54 0
 1350 0827 64488B04 		movq	%fs:40, %rax
 1350      25280000 
 1350      00
 1351 0830 488945E8 		movq	%rax, -24(%rbp)
 1352 0834 31C0     		xorl	%eax, %eax
  55:testBinIO.cpp **** 	const char *const FILENAME = "tmpFile.bin";
 1353              		.loc 4 55 0
 1354 0836 488D0500 		leaq	.LC7(%rip), %rax
 1354      000000
 1355 083d 48898578 		movq	%rax, -648(%rbp)
 1355      FDFFFF
  56:testBinIO.cpp **** 	const char *const DATA = "Just some test data";
 1356              		.loc 4 56 0
 1357 0844 488D0500 		leaq	.LC8(%rip), %rax
 1357      000000
 1358 084b 48898558 		movq	%rax, -680(%rbp)
 1358      FDFFFF
  57:testBinIO.cpp **** 	ifstream file;
 1359              		.loc 4 57 0
 1360 0852 488D85E0 		leaq	-544(%rbp), %rax
 1360      FDFFFF
 1361 0859 4889C7   		movq	%rax, %rdi
 1362              	.LEHB51:
 1363 085c E8000000 		call	_ZNSt14basic_ifstreamIcSt11char_traitsIcEEC1Ev@PLT
 1363      00
 1364              	.LEHE51:
  58:testBinIO.cpp **** 	streamoff length;
  59:testBinIO.cpp **** 	//ifstream::pos_type length;
  60:testBinIO.cpp **** 	char *fileData;
  61:testBinIO.cpp **** 	Buffer buf;
  62:testBinIO.cpp **** 	BufferStatus status = bufInitialise(&buf, 8, 0, NULL);
 1365              		.loc 4 62 0
 1366 0861 488D8580 		leaq	-640(%rbp), %rax
 1366      FDFFFF
 1367 0868 B9000000 		movl	$0, %ecx
 1367      00
 1368 086d BA000000 		movl	$0, %edx
 1368      00
 1369 0872 BE080000 		movl	$8, %esi
 1369      00
 1370 0877 4889C7   		movq	%rax, %rdi
 1371              	.LEHB52:
 1372 087a E8000000 		call	bufInitialise@PLT
 1372      00
 1373              	.LEHE52:
 1374 087f 898554FD 		movl	%eax, -684(%rbp)
 1374      FFFF
 1375              	.LEHB53:
  63:testBinIO.cpp **** 	CHECK_EQUAL(BUF_SUCCESS, status);
 1376              		.loc 4 63 0
 1377 0885 E8000000 		call	_ZN8UnitTest11CurrentTest7DetailsEv@PLT
 1377      00
 1378              		.loc 4 63 0 is_stmt 0 discriminator 1
 1379 088a 488B08   		movq	(%rax), %rcx
 1380 088d 488D85A0 		leaq	-608(%rbp), %rax
 1380      FDFFFF
 1381 0894 BA3F0000 		movl	$63, %edx
 1381      00
 1382 0899 4889CE   		movq	%rcx, %rsi
 1383 089c 4889C7   		movq	%rax, %rdi
 1384 089f E8000000 		call	_ZN8UnitTest11TestDetailsC1ERKS0_i@PLT
 1384      00
 1385              	.LEHE53:
 1386              		.loc 4 63 0 discriminator 2
 1387 08a4 C78570FD 		movl	$0, -656(%rbp)
 1387      FFFF0000 
 1387      0000
 1388              	.LEHB54:
 1389 08ae E8000000 		call	_ZN8UnitTest11CurrentTest7ResultsEv@PLT
 1389      00
 1390 08b3 488B00   		movq	(%rax), %rax
 1391 08b6 488D8DA0 		leaq	-608(%rbp), %rcx
 1391      FDFFFF
 1392 08bd 488D9554 		leaq	-684(%rbp), %rdx
 1392      FDFFFF
 1393 08c4 488DB570 		leaq	-656(%rbp), %rsi
 1393      FDFFFF
 1394 08cb 4889C7   		movq	%rax, %rdi
 1395 08ce E8000000 		call	_ZN8UnitTest10CheckEqualI12BufferStatusS1_EEvRNS_11TestResultsERKT_RKT0_RKNS_11TestDetailsE
 1395      00
 1396              	.LEHE54:
 1397              	.L90:
  64:testBinIO.cpp **** 	status = bufAppendBlock(&buf, (const uint8 *)DATA, strlen(DATA), NULL);
 1398              		.loc 4 64 0 is_stmt 1
 1399 08d3 488D8580 		leaq	-640(%rbp), %rax
 1399      FDFFFF
 1400 08da B9000000 		movl	$0, %ecx
 1400      00
 1401 08df BA130000 		movl	$19, %edx
 1401      00
 1402 08e4 488D3500 		leaq	.LC8(%rip), %rsi
 1402      000000
 1403 08eb 4889C7   		movq	%rax, %rdi
 1404              	.LEHB55:
 1405 08ee E8000000 		call	bufAppendBlock@PLT
 1405      00
 1406              	.LEHE55:
 1407 08f3 898554FD 		movl	%eax, -684(%rbp)
 1407      FFFF
 1408              	.LEHB56:
  65:testBinIO.cpp **** 	CHECK_EQUAL(BUF_SUCCESS, status);
 1409              		.loc 4 65 0
 1410 08f9 E8000000 		call	_ZN8UnitTest11CurrentTest7DetailsEv@PLT
 1410      00
 1411              		.loc 4 65 0 is_stmt 0 discriminator 1
 1412 08fe 488B08   		movq	(%rax), %rcx
 1413 0901 488D85A0 		leaq	-608(%rbp), %rax
 1413      FDFFFF
 1414 0908 BA410000 		movl	$65, %edx
 1414      00
 1415 090d 4889CE   		movq	%rcx, %rsi
 1416 0910 4889C7   		movq	%rax, %rdi
 1417 0913 E8000000 		call	_ZN8UnitTest11TestDetailsC1ERKS0_i@PLT
 1417      00
 1418              	.LEHE56:
 1419              		.loc 4 65 0 discriminator 2
 1420 0918 C78570FD 		movl	$0, -656(%rbp)
 1420      FFFF0000 
 1420      0000
 1421              	.LEHB57:
 1422 0922 E8000000 		call	_ZN8UnitTest11CurrentTest7ResultsEv@PLT
 1422      00
 1423 0927 488B00   		movq	(%rax), %rax
 1424 092a 488D8DA0 		leaq	-608(%rbp), %rcx
 1424      FDFFFF
 1425 0931 488D9554 		leaq	-684(%rbp), %rdx
 1425      FDFFFF
 1426 0938 488DB570 		leaq	-656(%rbp), %rsi
 1426      FDFFFF
 1427 093f 4889C7   		movq	%rax, %rdi
 1428 0942 E8000000 		call	_ZN8UnitTest10CheckEqualI12BufferStatusS1_EEvRNS_11TestResultsERKT_RKT0_RKNS_11TestDetailsE
 1428      00
 1429              	.LEHE57:
 1430              	.L95:
  66:testBinIO.cpp **** 
  67:testBinIO.cpp **** 	status = bufWriteBinaryFile(&buf, FILENAME, 0, buf.length, NULL);
 1431              		.loc 4 67 0 is_stmt 1
 1432 0947 488B9588 		movq	-632(%rbp), %rdx
 1432      FDFFFF
 1433 094e 488D8580 		leaq	-640(%rbp), %rax
 1433      FDFFFF
 1434 0955 41B80000 		movl	$0, %r8d
 1434      0000
 1435 095b 4889D1   		movq	%rdx, %rcx
 1436 095e BA000000 		movl	$0, %edx
 1436      00
 1437 0963 488D3500 		leaq	.LC7(%rip), %rsi
 1437      000000
 1438 096a 4889C7   		movq	%rax, %rdi
 1439              	.LEHB58:
 1440 096d E8000000 		call	bufWriteBinaryFile@PLT
 1440      00
 1441              	.LEHE58:
 1442 0972 898554FD 		movl	%eax, -684(%rbp)
 1442      FFFF
 1443              	.LEHB59:
  68:testBinIO.cpp **** 	CHECK_EQUAL(BUF_SUCCESS, status);
 1444              		.loc 4 68 0
 1445 0978 E8000000 		call	_ZN8UnitTest11CurrentTest7DetailsEv@PLT
 1445      00
 1446              		.loc 4 68 0 is_stmt 0 discriminator 1
 1447 097d 488B08   		movq	(%rax), %rcx
 1448 0980 488D85A0 		leaq	-608(%rbp), %rax
 1448      FDFFFF
 1449 0987 BA440000 		movl	$68, %edx
 1449      00
 1450 098c 4889CE   		movq	%rcx, %rsi
 1451 098f 4889C7   		movq	%rax, %rdi
 1452 0992 E8000000 		call	_ZN8UnitTest11TestDetailsC1ERKS0_i@PLT
 1452      00
 1453              	.LEHE59:
 1454              		.loc 4 68 0 discriminator 2
 1455 0997 C78570FD 		movl	$0, -656(%rbp)
 1455      FFFF0000 
 1455      0000
 1456              	.LEHB60:
 1457 09a1 E8000000 		call	_ZN8UnitTest11CurrentTest7ResultsEv@PLT
 1457      00
 1458 09a6 488B00   		movq	(%rax), %rax
 1459 09a9 488D8DA0 		leaq	-608(%rbp), %rcx
 1459      FDFFFF
 1460 09b0 488D9554 		leaq	-684(%rbp), %rdx
 1460      FDFFFF
 1461 09b7 488DB570 		leaq	-656(%rbp), %rsi
 1461      FDFFFF
 1462 09be 4889C7   		movq	%rax, %rdi
 1463 09c1 E8000000 		call	_ZN8UnitTest10CheckEqualI12BufferStatusS1_EEvRNS_11TestResultsERKT_RKT0_RKNS_11TestDetailsE
 1463      00
 1464              	.LEHE60:
 1465              	.L99:
  69:testBinIO.cpp **** 	file.open(FILENAME, ios::in|ios::binary|ios::ate);
 1466              		.loc 4 69 0 is_stmt 1
 1467 09c6 BE040000 		movl	$4, %esi
 1467      00
 1468 09cb BF080000 		movl	$8, %edi
 1468      00
 1469 09d0 E8000000 		call	_ZStorSt13_Ios_OpenmodeS_
 1469      00
 1470 09d5 BE020000 		movl	$2, %esi
 1470      00
 1471 09da 89C7     		movl	%eax, %edi
 1472 09dc E8000000 		call	_ZStorSt13_Ios_OpenmodeS_
 1472      00
 1473 09e1 89C2     		movl	%eax, %edx
 1474 09e3 488D85E0 		leaq	-544(%rbp), %rax
 1474      FDFFFF
 1475 09ea 488D3500 		leaq	.LC7(%rip), %rsi
 1475      000000
 1476 09f1 4889C7   		movq	%rax, %rdi
 1477              	.LEHB61:
 1478 09f4 E8000000 		call	_ZNSt14basic_ifstreamIcSt11char_traitsIcEE4openEPKcSt13_Ios_Openmode@PLT
 1478      00
 1479              	.LEHE61:
  70:testBinIO.cpp **** 	CHECK(file.is_open());
 1480              		.loc 4 70 0
 1481 09f9 488D85E0 		leaq	-544(%rbp), %rax
 1481      FDFFFF
 1482 0a00 4889C7   		movq	%rax, %rdi
 1483              	.LEHB62:
 1484 0a03 E8000000 		call	_ZNSt14basic_ifstreamIcSt11char_traitsIcEE7is_openEv@PLT
 1484      00
 1485 0a08 0FB6C0   		movzbl	%al, %eax
 1486 0a0b 89C7     		movl	%eax, %edi
 1487 0a0d E8000000 		call	_ZN8UnitTest5CheckIbEEbT_
 1487      00
 1488 0a12 83F001   		xorl	$1, %eax
 1489 0a15 84C0     		testb	%al, %al
 1490 0a17 7440     		je	.L85
 1491              		.loc 4 70 0 is_stmt 0 discriminator 2
 1492 0a19 E8000000 		call	_ZN8UnitTest11CurrentTest7ResultsEv@PLT
 1492      00
 1493 0a1e 488B18   		movq	(%rax), %rbx
 1494 0a21 E8000000 		call	_ZN8UnitTest11CurrentTest7DetailsEv@PLT
 1494      00
 1495              		.loc 4 70 0 discriminator 3
 1496 0a26 488B08   		movq	(%rax), %rcx
 1497 0a29 488D85A0 		leaq	-608(%rbp), %rax
 1497      FDFFFF
 1498 0a30 BA460000 		movl	$70, %edx
 1498      00
 1499 0a35 4889CE   		movq	%rcx, %rsi
 1500 0a38 4889C7   		movq	%rax, %rdi
 1501 0a3b E8000000 		call	_ZN8UnitTest11TestDetailsC1ERKS0_i@PLT
 1501      00
 1502              		.loc 4 70 0 discriminator 5
 1503 0a40 488D85A0 		leaq	-608(%rbp), %rax
 1503      FDFFFF
 1504 0a47 488D1500 		leaq	.LC14(%rip), %rdx
 1504      000000
 1505 0a4e 4889C6   		movq	%rax, %rsi
 1506 0a51 4889DF   		movq	%rbx, %rdi
 1507 0a54 E8000000 		call	_ZN8UnitTest11TestResults13OnTestFailureERKNS_11TestDetailsEPKc@PLT
 1507      00
 1508              	.LEHE62:
 1509              	.L85:
  71:testBinIO.cpp **** 	length = file.tellg();
 1510              		.loc 4 71 0 is_stmt 1
 1511 0a59 488D85E0 		leaq	-544(%rbp), %rax
 1511      FDFFFF
 1512 0a60 4889C7   		movq	%rax, %rdi
 1513              	.LEHB63:
 1514 0a63 E8000000 		call	_ZNSi5tellgEv@PLT
 1514      00
 1515              	.LEHE63:
 1516 0a68 488985C0 		movq	%rax, -576(%rbp)
 1516      FDFFFF
 1517 0a6f 488995C8 		movq	%rdx, -568(%rbp)
 1517      FDFFFF
 1518 0a76 488D85C0 		leaq	-576(%rbp), %rax
 1518      FDFFFF
 1519 0a7d 4889C7   		movq	%rax, %rdi
 1520 0a80 E8000000 		call	_ZNKSt4fposI11__mbstate_tEcvlEv
 1520      00
 1521 0a85 48898560 		movq	%rax, -672(%rbp)
 1521      FDFFFF
 1522              	.LEHB64:
  72:testBinIO.cpp **** 	CHECK_EQUAL(strlen(DATA), (size_t)length);
 1523              		.loc 4 72 0
 1524 0a8c E8000000 		call	_ZN8UnitTest11CurrentTest7DetailsEv@PLT
 1524      00
 1525              		.loc 4 72 0 is_stmt 0 discriminator 1
 1526 0a91 488B08   		movq	(%rax), %rcx
 1527 0a94 488D85A0 		leaq	-608(%rbp), %rax
 1527      FDFFFF
 1528 0a9b BA480000 		movl	$72, %edx
 1528      00
 1529 0aa0 4889CE   		movq	%rcx, %rsi
 1530 0aa3 4889C7   		movq	%rax, %rdi
 1531 0aa6 E8000000 		call	_ZN8UnitTest11TestDetailsC1ERKS0_i@PLT
 1531      00
 1532              	.LEHE64:
 1533              		.loc 4 72 0 discriminator 2
 1534 0aab 488B8560 		movq	-672(%rbp), %rax
 1534      FDFFFF
 1535 0ab2 48898570 		movq	%rax, -656(%rbp)
 1535      FDFFFF
 1536 0ab9 48C78568 		movq	$19, -664(%rbp)
 1536      FDFFFF13 
 1536      000000
 1537              	.LEHB65:
 1538 0ac4 E8000000 		call	_ZN8UnitTest11CurrentTest7ResultsEv@PLT
 1538      00
 1539 0ac9 488B00   		movq	(%rax), %rax
 1540 0acc 488D8DA0 		leaq	-608(%rbp), %rcx
 1540      FDFFFF
 1541 0ad3 488D9570 		leaq	-656(%rbp), %rdx
 1541      FDFFFF
 1542 0ada 488DB568 		leaq	-664(%rbp), %rsi
 1542      FDFFFF
 1543 0ae1 4889C7   		movq	%rax, %rdi
 1544 0ae4 E8000000 		call	_ZN8UnitTest10CheckEqualImmEEvRNS_11TestResultsERKT_RKT0_RKNS_11TestDetailsE
 1544      00
 1545              	.LEHE65:
 1546              	.L105:
  73:testBinIO.cpp **** 	fileData = new char[(unsigned int)length];
 1547              		.loc 4 73 0 is_stmt 1
 1548 0ae9 488B8560 		movq	-672(%rbp), %rax
 1548      FDFFFF
 1549 0af0 89C0     		movl	%eax, %eax
 1550 0af2 4889C7   		movq	%rax, %rdi
 1551              	.LEHB66:
 1552 0af5 E8000000 		call	_Znam@PLT
 1552      00
 1553 0afa 48898568 		movq	%rax, -664(%rbp)
 1553      FDFFFF
  74:testBinIO.cpp **** 	file.seekg(0, ios::beg);
 1554              		.loc 4 74 0
 1555 0b01 488D85E0 		leaq	-544(%rbp), %rax
 1555      FDFFFF
 1556 0b08 BA000000 		movl	$0, %edx
 1556      00
 1557 0b0d BE000000 		movl	$0, %esi
 1557      00
 1558 0b12 4889C7   		movq	%rax, %rdi
 1559 0b15 E8000000 		call	_ZNSi5seekgElSt12_Ios_Seekdir@PLT
 1559      00
  75:testBinIO.cpp **** 	file.read(fileData, (streamsize)length);
 1560              		.loc 4 75 0
 1561 0b1a 488B9560 		movq	-672(%rbp), %rdx
 1561      FDFFFF
 1562 0b21 488B8D68 		movq	-664(%rbp), %rcx
 1562      FDFFFF
 1563 0b28 488D85E0 		leaq	-544(%rbp), %rax
 1563      FDFFFF
 1564 0b2f 4889CE   		movq	%rcx, %rsi
 1565 0b32 4889C7   		movq	%rax, %rdi
 1566 0b35 E8000000 		call	_ZNSi4readEPcl@PLT
 1566      00
  76:testBinIO.cpp **** 	file.close();
 1567              		.loc 4 76 0
 1568 0b3a 488D85E0 		leaq	-544(%rbp), %rax
 1568      FDFFFF
 1569 0b41 4889C7   		movq	%rax, %rdi
 1570 0b44 E8000000 		call	_ZNSt14basic_ifstreamIcSt11char_traitsIcEE5closeEv@PLT
 1570      00
 1571              	.LEHE66:
 1572              	.LEHB67:
  77:testBinIO.cpp **** 	CHECK_ARRAY_EQUAL(DATA, fileData, (int)length);
 1573              		.loc 4 77 0
 1574 0b49 E8000000 		call	_ZN8UnitTest11CurrentTest7DetailsEv@PLT
 1574      00
 1575 0b4e 488B08   		movq	(%rax), %rcx
 1576 0b51 488D85A0 		leaq	-608(%rbp), %rax
 1576      FDFFFF
 1577 0b58 BA4D0000 		movl	$77, %edx
 1577      00
 1578 0b5d 4889CE   		movq	%rcx, %rsi
 1579 0b60 4889C7   		movq	%rax, %rdi
 1580 0b63 E8000000 		call	_ZN8UnitTest11TestDetailsC1ERKS0_i@PLT
 1580      00
 1581              		.loc 4 77 0 is_stmt 0 discriminator 2
 1582 0b68 488B8560 		movq	-672(%rbp), %rax
 1582      FDFFFF
 1583 0b6f 89C3     		movl	%eax, %ebx
 1584 0b71 E8000000 		call	_ZN8UnitTest11CurrentTest7ResultsEv@PLT
 1584      00
 1585 0b76 488B00   		movq	(%rax), %rax
 1586 0b79 488D8DA0 		leaq	-608(%rbp), %rcx
 1586      FDFFFF
 1587 0b80 488D9568 		leaq	-664(%rbp), %rdx
 1587      FDFFFF
 1588 0b87 488DB558 		leaq	-680(%rbp), %rsi
 1588      FDFFFF
 1589 0b8e 4989C8   		movq	%rcx, %r8
 1590 0b91 89D9     		movl	%ebx, %ecx
 1591 0b93 4889C7   		movq	%rax, %rdi
 1592 0b96 E8000000 		call	_ZN8UnitTest15CheckArrayEqualIPKcPcEEvRNS_11TestResultsERKT_RKT0_iRKNS_11TestDetailsE
 1592      00
 1593              	.LEHE67:
 1594              	.L108:
  78:testBinIO.cpp **** 
  79:testBinIO.cpp **** 	status = bufWriteBinaryFile(&buf, FILENAME, 5, 9, NULL);
 1595              		.loc 4 79 0 is_stmt 1
 1596 0b9b 488D8580 		leaq	-640(%rbp), %rax
 1596      FDFFFF
 1597 0ba2 41B80000 		movl	$0, %r8d
 1597      0000
 1598 0ba8 B9090000 		movl	$9, %ecx
 1598      00
 1599 0bad BA050000 		movl	$5, %edx
 1599      00
 1600 0bb2 488D3500 		leaq	.LC7(%rip), %rsi
 1600      000000
 1601 0bb9 4889C7   		movq	%rax, %rdi
 1602              	.LEHB68:
 1603 0bbc E8000000 		call	bufWriteBinaryFile@PLT
 1603      00
 1604              	.LEHE68:
 1605 0bc1 898554FD 		movl	%eax, -684(%rbp)
 1605      FFFF
 1606              	.LEHB69:
  80:testBinIO.cpp **** 	CHECK_EQUAL(BUF_SUCCESS, status);
 1607              		.loc 4 80 0
 1608 0bc7 E8000000 		call	_ZN8UnitTest11CurrentTest7DetailsEv@PLT
 1608      00
 1609              		.loc 4 80 0 is_stmt 0 discriminator 1
 1610 0bcc 488B08   		movq	(%rax), %rcx
 1611 0bcf 488D85A0 		leaq	-608(%rbp), %rax
 1611      FDFFFF
 1612 0bd6 BA500000 		movl	$80, %edx
 1612      00
 1613 0bdb 4889CE   		movq	%rcx, %rsi
 1614 0bde 4889C7   		movq	%rax, %rdi
 1615 0be1 E8000000 		call	_ZN8UnitTest11TestDetailsC1ERKS0_i@PLT
 1615      00
 1616              	.LEHE69:
 1617              		.loc 4 80 0 discriminator 2
 1618 0be6 C78570FD 		movl	$0, -656(%rbp)
 1618      FFFF0000 
 1618      0000
 1619              	.LEHB70:
 1620 0bf0 E8000000 		call	_ZN8UnitTest11CurrentTest7ResultsEv@PLT
 1620      00
 1621 0bf5 488B00   		movq	(%rax), %rax
 1622 0bf8 488D8DA0 		leaq	-608(%rbp), %rcx
 1622      FDFFFF
 1623 0bff 488D9554 		leaq	-684(%rbp), %rdx
 1623      FDFFFF
 1624 0c06 488DB570 		leaq	-656(%rbp), %rsi
 1624      FDFFFF
 1625 0c0d 4889C7   		movq	%rax, %rdi
 1626 0c10 E8000000 		call	_ZN8UnitTest10CheckEqualI12BufferStatusS1_EEvRNS_11TestResultsERKT_RKT0_RKNS_11TestDetailsE
 1626      00
 1627              	.LEHE70:
 1628              	.L112:
  81:testBinIO.cpp **** 	file.open(FILENAME, ios::in|ios::binary|ios::ate);
 1629              		.loc 4 81 0 is_stmt 1
 1630 0c15 BE040000 		movl	$4, %esi
 1630      00
 1631 0c1a BF080000 		movl	$8, %edi
 1631      00
 1632 0c1f E8000000 		call	_ZStorSt13_Ios_OpenmodeS_
 1632      00
 1633 0c24 BE020000 		movl	$2, %esi
 1633      00
 1634 0c29 89C7     		movl	%eax, %edi
 1635 0c2b E8000000 		call	_ZStorSt13_Ios_OpenmodeS_
 1635      00
 1636 0c30 89C2     		movl	%eax, %edx
 1637 0c32 488D85E0 		leaq	-544(%rbp), %rax
 1637      FDFFFF
 1638 0c39 488D3500 		leaq	.LC7(%rip), %rsi
 1638      000000
 1639 0c40 4889C7   		movq	%rax, %rdi
 1640              	.LEHB71:
 1641 0c43 E8000000 		call	_ZNSt14basic_ifstreamIcSt11char_traitsIcEE4openEPKcSt13_Ios_Openmode@PLT
 1641      00
 1642              	.LEHE71:
  82:testBinIO.cpp **** 	CHECK(file.is_open());
 1643              		.loc 4 82 0
 1644 0c48 488D85E0 		leaq	-544(%rbp), %rax
 1644      FDFFFF
 1645 0c4f 4889C7   		movq	%rax, %rdi
 1646              	.LEHB72:
 1647 0c52 E8000000 		call	_ZNSt14basic_ifstreamIcSt11char_traitsIcEE7is_openEv@PLT
 1647      00
 1648 0c57 0FB6C0   		movzbl	%al, %eax
 1649 0c5a 89C7     		movl	%eax, %edi
 1650 0c5c E8000000 		call	_ZN8UnitTest5CheckIbEEbT_
 1650      00
 1651 0c61 83F001   		xorl	$1, %eax
 1652 0c64 84C0     		testb	%al, %al
 1653 0c66 7440     		je	.L86
 1654              		.loc 4 82 0 is_stmt 0 discriminator 2
 1655 0c68 E8000000 		call	_ZN8UnitTest11CurrentTest7ResultsEv@PLT
 1655      00
 1656 0c6d 488B18   		movq	(%rax), %rbx
 1657 0c70 E8000000 		call	_ZN8UnitTest11CurrentTest7DetailsEv@PLT
 1657      00
 1658              		.loc 4 82 0 discriminator 3
 1659 0c75 488B08   		movq	(%rax), %rcx
 1660 0c78 488D85A0 		leaq	-608(%rbp), %rax
 1660      FDFFFF
 1661 0c7f BA520000 		movl	$82, %edx
 1661      00
 1662 0c84 4889CE   		movq	%rcx, %rsi
 1663 0c87 4889C7   		movq	%rax, %rdi
 1664 0c8a E8000000 		call	_ZN8UnitTest11TestDetailsC1ERKS0_i@PLT
 1664      00
 1665              		.loc 4 82 0 discriminator 5
 1666 0c8f 488D85A0 		leaq	-608(%rbp), %rax
 1666      FDFFFF
 1667 0c96 488D1500 		leaq	.LC14(%rip), %rdx
 1667      000000
 1668 0c9d 4889C6   		movq	%rax, %rsi
 1669 0ca0 4889DF   		movq	%rbx, %rdi
 1670 0ca3 E8000000 		call	_ZN8UnitTest11TestResults13OnTestFailureERKNS_11TestDetailsEPKc@PLT
 1670      00
 1671              	.LEHE72:
 1672              	.L86:
  83:testBinIO.cpp **** 	length = file.tellg();
 1673              		.loc 4 83 0 is_stmt 1
 1674 0ca8 488D85E0 		leaq	-544(%rbp), %rax
 1674      FDFFFF
 1675 0caf 4889C7   		movq	%rax, %rdi
 1676              	.LEHB73:
 1677 0cb2 E8000000 		call	_ZNSi5tellgEv@PLT
 1677      00
 1678              	.LEHE73:
 1679 0cb7 488985D0 		movq	%rax, -560(%rbp)
 1679      FDFFFF
 1680 0cbe 488995D8 		movq	%rdx, -552(%rbp)
 1680      FDFFFF
 1681 0cc5 488D85D0 		leaq	-560(%rbp), %rax
 1681      FDFFFF
 1682 0ccc 4889C7   		movq	%rax, %rdi
 1683 0ccf E8000000 		call	_ZNKSt4fposI11__mbstate_tEcvlEv
 1683      00
 1684 0cd4 48898560 		movq	%rax, -672(%rbp)
 1684      FDFFFF
 1685              	.LEHB74:
  84:testBinIO.cpp **** 	CHECK_EQUAL(9, length);
 1686              		.loc 4 84 0
 1687 0cdb E8000000 		call	_ZN8UnitTest11CurrentTest7DetailsEv@PLT
 1687      00
 1688              		.loc 4 84 0 is_stmt 0 discriminator 1
 1689 0ce0 488B08   		movq	(%rax), %rcx
 1690 0ce3 488D85A0 		leaq	-608(%rbp), %rax
 1690      FDFFFF
 1691 0cea BA540000 		movl	$84, %edx
 1691      00
 1692 0cef 4889CE   		movq	%rcx, %rsi
 1693 0cf2 4889C7   		movq	%rax, %rdi
 1694 0cf5 E8000000 		call	_ZN8UnitTest11TestDetailsC1ERKS0_i@PLT
 1694      00
 1695              	.LEHE74:
 1696              		.loc 4 84 0 discriminator 2
 1697 0cfa C78570FD 		movl	$9, -656(%rbp)
 1697      FFFF0900 
 1697      0000
 1698              	.LEHB75:
 1699 0d04 E8000000 		call	_ZN8UnitTest11CurrentTest7ResultsEv@PLT
 1699      00
 1700 0d09 488B00   		movq	(%rax), %rax
 1701 0d0c 488D8DA0 		leaq	-608(%rbp), %rcx
 1701      FDFFFF
 1702 0d13 488D9560 		leaq	-672(%rbp), %rdx
 1702      FDFFFF
 1703 0d1a 488DB570 		leaq	-656(%rbp), %rsi
 1703      FDFFFF
 1704 0d21 4889C7   		movq	%rax, %rdi
 1705 0d24 E8000000 		call	_ZN8UnitTest10CheckEqualIilEEvRNS_11TestResultsERKT_RKT0_RKNS_11TestDetailsE
 1705      00
 1706              	.LEHE75:
 1707              	.L118:
  85:testBinIO.cpp **** 	file.seekg(0, ios::beg);
 1708              		.loc 4 85 0 is_stmt 1
 1709 0d29 488D85E0 		leaq	-544(%rbp), %rax
 1709      FDFFFF
 1710 0d30 BA000000 		movl	$0, %edx
 1710      00
 1711 0d35 BE000000 		movl	$0, %esi
 1711      00
 1712 0d3a 4889C7   		movq	%rax, %rdi
 1713              	.LEHB76:
 1714 0d3d E8000000 		call	_ZNSi5seekgElSt12_Ios_Seekdir@PLT
 1714      00
  86:testBinIO.cpp **** 	file.read(fileData, (streamsize)length);
 1715              		.loc 4 86 0
 1716 0d42 488B9560 		movq	-672(%rbp), %rdx
 1716      FDFFFF
 1717 0d49 488B8D68 		movq	-664(%rbp), %rcx
 1717      FDFFFF
 1718 0d50 488D85E0 		leaq	-544(%rbp), %rax
 1718      FDFFFF
 1719 0d57 4889CE   		movq	%rcx, %rsi
 1720 0d5a 4889C7   		movq	%rax, %rdi
 1721 0d5d E8000000 		call	_ZNSi4readEPcl@PLT
 1721      00
  87:testBinIO.cpp **** 	file.close();
 1722              		.loc 4 87 0
 1723 0d62 488D85E0 		leaq	-544(%rbp), %rax
 1723      FDFFFF
 1724 0d69 4889C7   		movq	%rax, %rdi
 1725 0d6c E8000000 		call	_ZNSt14basic_ifstreamIcSt11char_traitsIcEE5closeEv@PLT
 1725      00
 1726              	.LEHE76:
 1727              	.LEHB77:
  88:testBinIO.cpp **** 	CHECK_ARRAY_EQUAL(DATA+5, fileData, (int)length);
 1728              		.loc 4 88 0
 1729 0d71 E8000000 		call	_ZN8UnitTest11CurrentTest7DetailsEv@PLT
 1729      00
 1730 0d76 488B08   		movq	(%rax), %rcx
 1731 0d79 488D85A0 		leaq	-608(%rbp), %rax
 1731      FDFFFF
 1732 0d80 BA580000 		movl	$88, %edx
 1732      00
 1733 0d85 4889CE   		movq	%rcx, %rsi
 1734 0d88 4889C7   		movq	%rax, %rdi
 1735 0d8b E8000000 		call	_ZN8UnitTest11TestDetailsC1ERKS0_i@PLT
 1735      00
 1736              	.LEHE77:
 1737              		.loc 4 88 0 is_stmt 0 discriminator 2
 1738 0d90 488B8560 		movq	-672(%rbp), %rax
 1738      FDFFFF
 1739 0d97 89C3     		movl	%eax, %ebx
 1740 0d99 488D0500 		leaq	5+.LC8(%rip), %rax
 1740      000000
 1741 0da0 48898570 		movq	%rax, -656(%rbp)
 1741      FDFFFF
 1742              	.LEHB78:
 1743 0da7 E8000000 		call	_ZN8UnitTest11CurrentTest7ResultsEv@PLT
 1743      00
 1744 0dac 488B00   		movq	(%rax), %rax
 1745 0daf 488D8DA0 		leaq	-608(%rbp), %rcx
 1745      FDFFFF
 1746 0db6 488D9568 		leaq	-664(%rbp), %rdx
 1746      FDFFFF
 1747 0dbd 488DB570 		leaq	-656(%rbp), %rsi
 1747      FDFFFF
 1748 0dc4 4989C8   		movq	%rcx, %r8
 1749 0dc7 89D9     		movl	%ebx, %ecx
 1750 0dc9 4889C7   		movq	%rax, %rdi
 1751 0dcc E8000000 		call	_ZN8UnitTest15CheckArrayEqualIPKcPcEEvRNS_11TestResultsERKT_RKT0_iRKNS_11TestDetailsE
 1751      00
 1752              	.LEHE78:
 1753              	.L122:
  89:testBinIO.cpp **** 
  90:testBinIO.cpp **** 	delete[] fileData;
 1754              		.loc 4 90 0 is_stmt 1
 1755 0dd1 488B8568 		movq	-664(%rbp), %rax
 1755      FDFFFF
 1756 0dd8 4885C0   		testq	%rax, %rax
 1757 0ddb 740F     		je	.L87
 1758              		.loc 4 90 0 is_stmt 0 discriminator 1
 1759 0ddd 488B8568 		movq	-664(%rbp), %rax
 1759      FDFFFF
 1760 0de4 4889C7   		movq	%rax, %rdi
 1761 0de7 E8000000 		call	_ZdaPv@PLT
 1761      00
 1762              	.L87:
  91:testBinIO.cpp **** 	bufDestroy(&buf);
 1763              		.loc 4 91 0 is_stmt 1
 1764 0dec 488D8580 		leaq	-640(%rbp), %rax
 1764      FDFFFF
 1765 0df3 4889C7   		movq	%rax, %rdi
 1766              	.LEHB79:
 1767 0df6 E8000000 		call	bufDestroy@PLT
 1767      00
 1768              	.LEHE79:
  57:testBinIO.cpp **** 	streamoff length;
 1769              		.loc 4 57 0
 1770 0dfb 488D85E0 		leaq	-544(%rbp), %rax
 1770      FDFFFF
 1771 0e02 4889C7   		movq	%rax, %rdi
 1772              	.LEHB80:
 1773 0e05 E8000000 		call	_ZNSt14basic_ifstreamIcSt11char_traitsIcEED1Ev@PLT
 1773      00
 1774              	.LEHE80:
  92:testBinIO.cpp **** }
 1775              		.loc 4 92 0
 1776 0e0a 90       		nop
 1777 0e0b 488B45E8 		movq	-24(%rbp), %rax
 1778 0e0f 64483304 		xorq	%fs:40, %rax
 1778      25280000 
 1778      00
 1779 0e18 0F84E503 		je	.L124
 1779      0000
 1780 0e1e E9DB0300 		jmp	.L153
 1780      00
 1781              	.L127:
 1782 0e23 EB00     		jmp	.L89
 1783              	.L126:
 1784              	.L89:
  63:testBinIO.cpp **** 	status = bufAppendBlock(&buf, (const uint8 *)DATA, strlen(DATA), NULL);
 1785              		.loc 4 63 0
 1786 0e25 4889C7   		movq	%rax, %rdi
 1787 0e28 E8000000 		call	__cxa_begin_catch@PLT
 1787      00
 1788              	.LEHB81:
 1789 0e2d E8000000 		call	_ZN8UnitTest11CurrentTest7ResultsEv@PLT
 1789      00
 1790 0e32 488B18   		movq	(%rax), %rbx
 1791 0e35 E8000000 		call	_ZN8UnitTest11CurrentTest7DetailsEv@PLT
 1791      00
  63:testBinIO.cpp **** 	status = bufAppendBlock(&buf, (const uint8 *)DATA, strlen(DATA), NULL);
 1792              		.loc 4 63 0 is_stmt 0 discriminator 8
 1793 0e3a 488B08   		movq	(%rax), %rcx
 1794 0e3d 488D85A0 		leaq	-608(%rbp), %rax
 1794      FDFFFF
 1795 0e44 BA3F0000 		movl	$63, %edx
 1795      00
 1796 0e49 4889CE   		movq	%rcx, %rsi
 1797 0e4c 4889C7   		movq	%rax, %rdi
 1798 0e4f E8000000 		call	_ZN8UnitTest11TestDetailsC1ERKS0_i@PLT
 1798      00
  63:testBinIO.cpp **** 	status = bufAppendBlock(&buf, (const uint8 *)DATA, strlen(DATA), NULL);
 1799              		.loc 4 63 0 discriminator 12
 1800 0e54 488D85A0 		leaq	-608(%rbp), %rax
 1800      FDFFFF
 1801 0e5b 488D1500 		leaq	.LC4(%rip), %rdx
 1801      000000
 1802 0e62 4889C6   		movq	%rax, %rsi
 1803 0e65 4889DF   		movq	%rbx, %rdi
 1804 0e68 E8000000 		call	_ZN8UnitTest11TestResults13OnTestFailureERKNS_11TestDetailsEPKc@PLT
 1804      00
 1805              	.LEHE81:
 1806              	.LEHB82:
  63:testBinIO.cpp **** 	status = bufAppendBlock(&buf, (const uint8 *)DATA, strlen(DATA), NULL);
 1807              		.loc 4 63 0 discriminator 14
 1808 0e6d E8000000 		call	__cxa_end_catch@PLT
 1808      00
 1809              	.LEHE82:
  63:testBinIO.cpp **** 	status = bufAppendBlock(&buf, (const uint8 *)DATA, strlen(DATA), NULL);
 1810              		.loc 4 63 0
 1811 0e72 E95CFAFF 		jmp	.L90
 1811      FF
 1812              	.L128:
 1813 0e77 4889C3   		movq	%rax, %rbx
 1814 0e7a E8000000 		call	__cxa_end_catch@PLT
 1814      00
 1815 0e7f E9600300 		jmp	.L92
 1815      00
 1816              	.L130:
 1817 0e84 EB00     		jmp	.L94
 1818              	.L129:
 1819              	.L94:
  65:testBinIO.cpp **** 
 1820              		.loc 4 65 0 is_stmt 1
 1821 0e86 4889C7   		movq	%rax, %rdi
 1822 0e89 E8000000 		call	__cxa_begin_catch@PLT
 1822      00
 1823              	.LEHB83:
 1824 0e8e E8000000 		call	_ZN8UnitTest11CurrentTest7ResultsEv@PLT
 1824      00
 1825 0e93 488B18   		movq	(%rax), %rbx
 1826 0e96 E8000000 		call	_ZN8UnitTest11CurrentTest7DetailsEv@PLT
 1826      00
  65:testBinIO.cpp **** 
 1827              		.loc 4 65 0 is_stmt 0 discriminator 8
 1828 0e9b 488B08   		movq	(%rax), %rcx
 1829 0e9e 488D85A0 		leaq	-608(%rbp), %rax
 1829      FDFFFF
 1830 0ea5 BA410000 		movl	$65, %edx
 1830      00
 1831 0eaa 4889CE   		movq	%rcx, %rsi
 1832 0ead 4889C7   		movq	%rax, %rdi
 1833 0eb0 E8000000 		call	_ZN8UnitTest11TestDetailsC1ERKS0_i@PLT
 1833      00
  65:testBinIO.cpp **** 
 1834              		.loc 4 65 0 discriminator 12
 1835 0eb5 488D85A0 		leaq	-608(%rbp), %rax
 1835      FDFFFF
 1836 0ebc 488D1500 		leaq	.LC4(%rip), %rdx
 1836      000000
 1837 0ec3 4889C6   		movq	%rax, %rsi
 1838 0ec6 4889DF   		movq	%rbx, %rdi
 1839 0ec9 E8000000 		call	_ZN8UnitTest11TestResults13OnTestFailureERKNS_11TestDetailsEPKc@PLT
 1839      00
 1840              	.LEHE83:
 1841              	.LEHB84:
  65:testBinIO.cpp **** 
 1842              		.loc 4 65 0 discriminator 14
 1843 0ece E8000000 		call	__cxa_end_catch@PLT
 1843      00
 1844              	.LEHE84:
  65:testBinIO.cpp **** 
 1845              		.loc 4 65 0
 1846 0ed3 E96FFAFF 		jmp	.L95
 1846      FF
 1847              	.L131:
 1848 0ed8 4889C3   		movq	%rax, %rbx
 1849 0edb E8000000 		call	__cxa_end_catch@PLT
 1849      00
 1850 0ee0 E9FF0200 		jmp	.L92
 1850      00
 1851              	.L133:
 1852 0ee5 EB00     		jmp	.L98
 1853              	.L132:
 1854              	.L98:
  68:testBinIO.cpp **** 	file.open(FILENAME, ios::in|ios::binary|ios::ate);
 1855              		.loc 4 68 0 is_stmt 1
 1856 0ee7 4889C7   		movq	%rax, %rdi
 1857 0eea E8000000 		call	__cxa_begin_catch@PLT
 1857      00
 1858              	.LEHB85:
 1859 0eef E8000000 		call	_ZN8UnitTest11CurrentTest7ResultsEv@PLT
 1859      00
 1860 0ef4 488B18   		movq	(%rax), %rbx
 1861 0ef7 E8000000 		call	_ZN8UnitTest11CurrentTest7DetailsEv@PLT
 1861      00
  68:testBinIO.cpp **** 	file.open(FILENAME, ios::in|ios::binary|ios::ate);
 1862              		.loc 4 68 0 is_stmt 0 discriminator 8
 1863 0efc 488B08   		movq	(%rax), %rcx
 1864 0eff 488D85A0 		leaq	-608(%rbp), %rax
 1864      FDFFFF
 1865 0f06 BA440000 		movl	$68, %edx
 1865      00
 1866 0f0b 4889CE   		movq	%rcx, %rsi
 1867 0f0e 4889C7   		movq	%rax, %rdi
 1868 0f11 E8000000 		call	_ZN8UnitTest11TestDetailsC1ERKS0_i@PLT
 1868      00
  68:testBinIO.cpp **** 	file.open(FILENAME, ios::in|ios::binary|ios::ate);
 1869              		.loc 4 68 0 discriminator 12
 1870 0f16 488D85A0 		leaq	-608(%rbp), %rax
 1870      FDFFFF
 1871 0f1d 488D1500 		leaq	.LC4(%rip), %rdx
 1871      000000
 1872 0f24 4889C6   		movq	%rax, %rsi
 1873 0f27 4889DF   		movq	%rbx, %rdi
 1874 0f2a E8000000 		call	_ZN8UnitTest11TestResults13OnTestFailureERKNS_11TestDetailsEPKc@PLT
 1874      00
 1875              	.LEHE85:
 1876              	.LEHB86:
  68:testBinIO.cpp **** 	file.open(FILENAME, ios::in|ios::binary|ios::ate);
 1877              		.loc 4 68 0 discriminator 14
 1878 0f2f E8000000 		call	__cxa_end_catch@PLT
 1878      00
 1879              	.LEHE86:
  68:testBinIO.cpp **** 	file.open(FILENAME, ios::in|ios::binary|ios::ate);
 1880              		.loc 4 68 0
 1881 0f34 E98DFAFF 		jmp	.L99
 1881      FF
 1882              	.L134:
 1883 0f39 4889C3   		movq	%rax, %rbx
 1884 0f3c E8000000 		call	__cxa_end_catch@PLT
 1884      00
 1885 0f41 E99E0200 		jmp	.L92
 1885      00
 1886              	.L135:
  70:testBinIO.cpp **** 	length = file.tellg();
 1887              		.loc 4 70 0 is_stmt 1
 1888 0f46 4889C7   		movq	%rax, %rdi
 1889 0f49 E8000000 		call	__cxa_begin_catch@PLT
 1889      00
 1890              	.LEHB87:
 1891 0f4e E8000000 		call	_ZN8UnitTest11CurrentTest7ResultsEv@PLT
 1891      00
 1892 0f53 488B18   		movq	(%rax), %rbx
 1893 0f56 E8000000 		call	_ZN8UnitTest11CurrentTest7DetailsEv@PLT
 1893      00
  70:testBinIO.cpp **** 	length = file.tellg();
 1894              		.loc 4 70 0 is_stmt 0 discriminator 9
 1895 0f5b 488B08   		movq	(%rax), %rcx
 1896 0f5e 488D85A0 		leaq	-608(%rbp), %rax
 1896      FDFFFF
 1897 0f65 BA460000 		movl	$70, %edx
 1897      00
 1898 0f6a 4889CE   		movq	%rcx, %rsi
 1899 0f6d 4889C7   		movq	%rax, %rdi
 1900 0f70 E8000000 		call	_ZN8UnitTest11TestDetailsC1ERKS0_i@PLT
 1900      00
  70:testBinIO.cpp **** 	length = file.tellg();
 1901              		.loc 4 70 0 discriminator 13
 1902 0f75 488D85A0 		leaq	-608(%rbp), %rax
 1902      FDFFFF
 1903 0f7c 488D1500 		leaq	.LC15(%rip), %rdx
 1903      000000
 1904 0f83 4889C6   		movq	%rax, %rsi
 1905 0f86 4889DF   		movq	%rbx, %rdi
 1906 0f89 E8000000 		call	_ZN8UnitTest11TestResults13OnTestFailureERKNS_11TestDetailsEPKc@PLT
 1906      00
 1907              	.LEHE87:
 1908              	.LEHB88:
  70:testBinIO.cpp **** 	length = file.tellg();
 1909              		.loc 4 70 0 discriminator 15
 1910 0f8e E8000000 		call	__cxa_end_catch@PLT
 1910      00
 1911              	.LEHE88:
  70:testBinIO.cpp **** 	length = file.tellg();
 1912              		.loc 4 70 0
 1913 0f93 E9C1FAFF 		jmp	.L85
 1913      FF
 1914              	.L136:
 1915 0f98 4889C3   		movq	%rax, %rbx
 1916 0f9b E8000000 		call	__cxa_end_catch@PLT
 1916      00
 1917 0fa0 E93F0200 		jmp	.L92
 1917      00
 1918              	.L138:
 1919 0fa5 EB00     		jmp	.L104
 1920              	.L137:
 1921              	.L104:
  72:testBinIO.cpp **** 	fileData = new char[(unsigned int)length];
 1922              		.loc 4 72 0 is_stmt 1
 1923 0fa7 4889C7   		movq	%rax, %rdi
 1924 0faa E8000000 		call	__cxa_begin_catch@PLT
 1924      00
 1925              	.LEHB89:
 1926 0faf E8000000 		call	_ZN8UnitTest11CurrentTest7ResultsEv@PLT
 1926      00
 1927 0fb4 488B18   		movq	(%rax), %rbx
 1928 0fb7 E8000000 		call	_ZN8UnitTest11CurrentTest7DetailsEv@PLT
 1928      00
  72:testBinIO.cpp **** 	fileData = new char[(unsigned int)length];
 1929              		.loc 4 72 0 is_stmt 0 discriminator 8
 1930 0fbc 488B08   		movq	(%rax), %rcx
 1931 0fbf 488D85A0 		leaq	-608(%rbp), %rax
 1931      FDFFFF
 1932 0fc6 BA480000 		movl	$72, %edx
 1932      00
 1933 0fcb 4889CE   		movq	%rcx, %rsi
 1934 0fce 4889C7   		movq	%rax, %rdi
 1935 0fd1 E8000000 		call	_ZN8UnitTest11TestDetailsC1ERKS0_i@PLT
 1935      00
  72:testBinIO.cpp **** 	fileData = new char[(unsigned int)length];
 1936              		.loc 4 72 0 discriminator 12
 1937 0fd6 488D85A0 		leaq	-608(%rbp), %rax
 1937      FDFFFF
 1938 0fdd 488D1500 		leaq	.LC16(%rip), %rdx
 1938      000000
 1939 0fe4 4889C6   		movq	%rax, %rsi
 1940 0fe7 4889DF   		movq	%rbx, %rdi
 1941 0fea E8000000 		call	_ZN8UnitTest11TestResults13OnTestFailureERKNS_11TestDetailsEPKc@PLT
 1941      00
 1942              	.LEHE89:
 1943              	.LEHB90:
  72:testBinIO.cpp **** 	fileData = new char[(unsigned int)length];
 1944              		.loc 4 72 0 discriminator 14
 1945 0fef E8000000 		call	__cxa_end_catch@PLT
 1945      00
 1946              	.LEHE90:
  72:testBinIO.cpp **** 	fileData = new char[(unsigned int)length];
 1947              		.loc 4 72 0
 1948 0ff4 E9F0FAFF 		jmp	.L105
 1948      FF
 1949              	.L139:
 1950 0ff9 4889C3   		movq	%rax, %rbx
 1951 0ffc E8000000 		call	__cxa_end_catch@PLT
 1951      00
 1952 1001 E9DE0100 		jmp	.L92
 1952      00
 1953              	.L140:
  77:testBinIO.cpp **** 
 1954              		.loc 4 77 0 is_stmt 1
 1955 1006 4889C7   		movq	%rax, %rdi
 1956 1009 E8000000 		call	__cxa_begin_catch@PLT
 1956      00
 1957              	.LEHB91:
 1958 100e E8000000 		call	_ZN8UnitTest11CurrentTest7ResultsEv@PLT
 1958      00
 1959 1013 488B18   		movq	(%rax), %rbx
 1960 1016 E8000000 		call	_ZN8UnitTest11CurrentTest7DetailsEv@PLT
 1960      00
  77:testBinIO.cpp **** 
 1961              		.loc 4 77 0 is_stmt 0 discriminator 8
 1962 101b 488B08   		movq	(%rax), %rcx
 1963 101e 488D85A0 		leaq	-608(%rbp), %rax
 1963      FDFFFF
 1964 1025 BA4D0000 		movl	$77, %edx
 1964      00
 1965 102a 4889CE   		movq	%rcx, %rsi
 1966 102d 4889C7   		movq	%rax, %rdi
 1967 1030 E8000000 		call	_ZN8UnitTest11TestDetailsC1ERKS0_i@PLT
 1967      00
  77:testBinIO.cpp **** 
 1968              		.loc 4 77 0 discriminator 12
 1969 1035 488D85A0 		leaq	-608(%rbp), %rax
 1969      FDFFFF
 1970 103c 488D1500 		leaq	.LC17(%rip), %rdx
 1970      000000
 1971 1043 4889C6   		movq	%rax, %rsi
 1972 1046 4889DF   		movq	%rbx, %rdi
 1973 1049 E8000000 		call	_ZN8UnitTest11TestResults13OnTestFailureERKNS_11TestDetailsEPKc@PLT
 1973      00
 1974              	.LEHE91:
 1975              	.LEHB92:
  77:testBinIO.cpp **** 
 1976              		.loc 4 77 0 discriminator 14
 1977 104e E8000000 		call	__cxa_end_catch@PLT
 1977      00
 1978              	.LEHE92:
  77:testBinIO.cpp **** 
 1979              		.loc 4 77 0
 1980 1053 E943FBFF 		jmp	.L108
 1980      FF
 1981              	.L141:
 1982 1058 4889C3   		movq	%rax, %rbx
 1983 105b E8000000 		call	__cxa_end_catch@PLT
 1983      00
 1984 1060 E97F0100 		jmp	.L92
 1984      00
 1985              	.L143:
 1986 1065 EB00     		jmp	.L111
 1987              	.L142:
 1988              	.L111:
  80:testBinIO.cpp **** 	file.open(FILENAME, ios::in|ios::binary|ios::ate);
 1989              		.loc 4 80 0 is_stmt 1
 1990 1067 4889C7   		movq	%rax, %rdi
 1991 106a E8000000 		call	__cxa_begin_catch@PLT
 1991      00
 1992              	.LEHB93:
 1993 106f E8000000 		call	_ZN8UnitTest11CurrentTest7ResultsEv@PLT
 1993      00
 1994 1074 488B18   		movq	(%rax), %rbx
 1995 1077 E8000000 		call	_ZN8UnitTest11CurrentTest7DetailsEv@PLT
 1995      00
  80:testBinIO.cpp **** 	file.open(FILENAME, ios::in|ios::binary|ios::ate);
 1996              		.loc 4 80 0 is_stmt 0 discriminator 8
 1997 107c 488B08   		movq	(%rax), %rcx
 1998 107f 488D85A0 		leaq	-608(%rbp), %rax
 1998      FDFFFF
 1999 1086 BA500000 		movl	$80, %edx
 1999      00
 2000 108b 4889CE   		movq	%rcx, %rsi
 2001 108e 4889C7   		movq	%rax, %rdi
 2002 1091 E8000000 		call	_ZN8UnitTest11TestDetailsC1ERKS0_i@PLT
 2002      00
  80:testBinIO.cpp **** 	file.open(FILENAME, ios::in|ios::binary|ios::ate);
 2003              		.loc 4 80 0 discriminator 12
 2004 1096 488D85A0 		leaq	-608(%rbp), %rax
 2004      FDFFFF
 2005 109d 488D1500 		leaq	.LC4(%rip), %rdx
 2005      000000
 2006 10a4 4889C6   		movq	%rax, %rsi
 2007 10a7 4889DF   		movq	%rbx, %rdi
 2008 10aa E8000000 		call	_ZN8UnitTest11TestResults13OnTestFailureERKNS_11TestDetailsEPKc@PLT
 2008      00
 2009              	.LEHE93:
 2010              	.LEHB94:
  80:testBinIO.cpp **** 	file.open(FILENAME, ios::in|ios::binary|ios::ate);
 2011              		.loc 4 80 0 discriminator 14
 2012 10af E8000000 		call	__cxa_end_catch@PLT
 2012      00
 2013              	.LEHE94:
  80:testBinIO.cpp **** 	file.open(FILENAME, ios::in|ios::binary|ios::ate);
 2014              		.loc 4 80 0
 2015 10b4 E95CFBFF 		jmp	.L112
 2015      FF
 2016              	.L144:
 2017 10b9 4889C3   		movq	%rax, %rbx
 2018 10bc E8000000 		call	__cxa_end_catch@PLT
 2018      00
 2019 10c1 E91E0100 		jmp	.L92
 2019      00
 2020              	.L145:
  82:testBinIO.cpp **** 	length = file.tellg();
 2021              		.loc 4 82 0 is_stmt 1
 2022 10c6 4889C7   		movq	%rax, %rdi
 2023 10c9 E8000000 		call	__cxa_begin_catch@PLT
 2023      00
 2024              	.LEHB95:
 2025 10ce E8000000 		call	_ZN8UnitTest11CurrentTest7ResultsEv@PLT
 2025      00
 2026 10d3 488B18   		movq	(%rax), %rbx
 2027 10d6 E8000000 		call	_ZN8UnitTest11CurrentTest7DetailsEv@PLT
 2027      00
  82:testBinIO.cpp **** 	length = file.tellg();
 2028              		.loc 4 82 0 is_stmt 0 discriminator 9
 2029 10db 488B08   		movq	(%rax), %rcx
 2030 10de 488D85A0 		leaq	-608(%rbp), %rax
 2030      FDFFFF
 2031 10e5 BA520000 		movl	$82, %edx
 2031      00
 2032 10ea 4889CE   		movq	%rcx, %rsi
 2033 10ed 4889C7   		movq	%rax, %rdi
 2034 10f0 E8000000 		call	_ZN8UnitTest11TestDetailsC1ERKS0_i@PLT
 2034      00
  82:testBinIO.cpp **** 	length = file.tellg();
 2035              		.loc 4 82 0 discriminator 13
 2036 10f5 488D85A0 		leaq	-608(%rbp), %rax
 2036      FDFFFF
 2037 10fc 488D1500 		leaq	.LC15(%rip), %rdx
 2037      000000
 2038 1103 4889C6   		movq	%rax, %rsi
 2039 1106 4889DF   		movq	%rbx, %rdi
 2040 1109 E8000000 		call	_ZN8UnitTest11TestResults13OnTestFailureERKNS_11TestDetailsEPKc@PLT
 2040      00
 2041              	.LEHE95:
 2042              	.LEHB96:
  82:testBinIO.cpp **** 	length = file.tellg();
 2043              		.loc 4 82 0 discriminator 15
 2044 110e E8000000 		call	__cxa_end_catch@PLT
 2044      00
 2045              	.LEHE96:
  82:testBinIO.cpp **** 	length = file.tellg();
 2046              		.loc 4 82 0
 2047 1113 E990FBFF 		jmp	.L86
 2047      FF
 2048              	.L146:
 2049 1118 4889C3   		movq	%rax, %rbx
 2050 111b E8000000 		call	__cxa_end_catch@PLT
 2050      00
 2051 1120 E9BF0000 		jmp	.L92
 2051      00
 2052              	.L148:
 2053 1125 EB00     		jmp	.L117
 2054              	.L147:
 2055              	.L117:
  84:testBinIO.cpp **** 	file.seekg(0, ios::beg);
 2056              		.loc 4 84 0 is_stmt 1
 2057 1127 4889C7   		movq	%rax, %rdi
 2058 112a E8000000 		call	__cxa_begin_catch@PLT
 2058      00
 2059              	.LEHB97:
 2060 112f E8000000 		call	_ZN8UnitTest11CurrentTest7ResultsEv@PLT
 2060      00
 2061 1134 488B18   		movq	(%rax), %rbx
 2062 1137 E8000000 		call	_ZN8UnitTest11CurrentTest7DetailsEv@PLT
 2062      00
  84:testBinIO.cpp **** 	file.seekg(0, ios::beg);
 2063              		.loc 4 84 0 is_stmt 0 discriminator 8
 2064 113c 488B08   		movq	(%rax), %rcx
 2065 113f 488D85A0 		leaq	-608(%rbp), %rax
 2065      FDFFFF
 2066 1146 BA540000 		movl	$84, %edx
 2066      00
 2067 114b 4889CE   		movq	%rcx, %rsi
 2068 114e 4889C7   		movq	%rax, %rdi
 2069 1151 E8000000 		call	_ZN8UnitTest11TestDetailsC1ERKS0_i@PLT
 2069      00
  84:testBinIO.cpp **** 	file.seekg(0, ios::beg);
 2070              		.loc 4 84 0 discriminator 12
 2071 1156 488D85A0 		leaq	-608(%rbp), %rax
 2071      FDFFFF
 2072 115d 488D1500 		leaq	.LC18(%rip), %rdx
 2072      000000
 2073 1164 4889C6   		movq	%rax, %rsi
 2074 1167 4889DF   		movq	%rbx, %rdi
 2075 116a E8000000 		call	_ZN8UnitTest11TestResults13OnTestFailureERKNS_11TestDetailsEPKc@PLT
 2075      00
 2076              	.LEHE97:
 2077              	.LEHB98:
  84:testBinIO.cpp **** 	file.seekg(0, ios::beg);
 2078              		.loc 4 84 0 discriminator 14
 2079 116f E8000000 		call	__cxa_end_catch@PLT
 2079      00
 2080              	.LEHE98:
  84:testBinIO.cpp **** 	file.seekg(0, ios::beg);
 2081              		.loc 4 84 0
 2082 1174 E9B0FBFF 		jmp	.L118
 2082      FF
 2083              	.L149:
 2084 1179 4889C3   		movq	%rax, %rbx
 2085 117c E8000000 		call	__cxa_end_catch@PLT
 2085      00
 2086 1181 EB61     		jmp	.L92
 2087              	.L151:
 2088 1183 EB00     		jmp	.L121
 2089              	.L150:
 2090              	.L121:
  88:testBinIO.cpp **** 
 2091              		.loc 4 88 0 is_stmt 1
 2092 1185 4889C7   		movq	%rax, %rdi
 2093 1188 E8000000 		call	__cxa_begin_catch@PLT
 2093      00
 2094              	.LEHB99:
 2095 118d E8000000 		call	_ZN8UnitTest11CurrentTest7ResultsEv@PLT
 2095      00
 2096 1192 488B18   		movq	(%rax), %rbx
 2097 1195 E8000000 		call	_ZN8UnitTest11CurrentTest7DetailsEv@PLT
 2097      00
  88:testBinIO.cpp **** 
 2098              		.loc 4 88 0 is_stmt 0 discriminator 8
 2099 119a 488B08   		movq	(%rax), %rcx
 2100 119d 488D85A0 		leaq	-608(%rbp), %rax
 2100      FDFFFF
 2101 11a4 BA580000 		movl	$88, %edx
 2101      00
 2102 11a9 4889CE   		movq	%rcx, %rsi
 2103 11ac 4889C7   		movq	%rax, %rdi
 2104 11af E8000000 		call	_ZN8UnitTest11TestDetailsC1ERKS0_i@PLT
 2104      00
  88:testBinIO.cpp **** 
 2105              		.loc 4 88 0 discriminator 12
 2106 11b4 488D85A0 		leaq	-608(%rbp), %rax
 2106      FDFFFF
 2107 11bb 488D1500 		leaq	.LC19(%rip), %rdx
 2107      000000
 2108 11c2 4889C6   		movq	%rax, %rsi
 2109 11c5 4889DF   		movq	%rbx, %rdi
 2110 11c8 E8000000 		call	_ZN8UnitTest11TestResults13OnTestFailureERKNS_11TestDetailsEPKc@PLT
 2110      00
 2111              	.LEHE99:
 2112              	.LEHB100:
  88:testBinIO.cpp **** 
 2113              		.loc 4 88 0 discriminator 14
 2114 11cd E8000000 		call	__cxa_end_catch@PLT
 2114      00
 2115              	.LEHE100:
  88:testBinIO.cpp **** 
 2116              		.loc 4 88 0
 2117 11d2 E9FAFBFF 		jmp	.L122
 2117      FF
 2118              	.L152:
 2119 11d7 4889C3   		movq	%rax, %rbx
 2120 11da E8000000 		call	__cxa_end_catch@PLT
 2120      00
 2121 11df EB03     		jmp	.L92
 2122              	.L125:
 2123 11e1 4889C3   		movq	%rax, %rbx
 2124              	.L92:
  57:testBinIO.cpp **** 	streamoff length;
 2125              		.loc 4 57 0 is_stmt 1
 2126 11e4 488D85E0 		leaq	-544(%rbp), %rax
 2126      FDFFFF
 2127 11eb 4889C7   		movq	%rax, %rdi
 2128 11ee E8000000 		call	_ZNSt14basic_ifstreamIcSt11char_traitsIcEED1Ev@PLT
 2128      00
 2129 11f3 4889D8   		movq	%rbx, %rax
 2130 11f6 4889C7   		movq	%rax, %rdi
 2131              	.LEHB101:
 2132 11f9 E8000000 		call	_Unwind_Resume@PLT
 2132      00
 2133              	.LEHE101:
 2134              	.L153:
 2135              		.loc 4 92 0
 2136 11fe E8000000 		call	__stack_chk_fail@PLT
 2136      00
 2137              	.L124:
 2138 1203 4881C4B8 		addq	$696, %rsp
 2138      020000
 2139 120a 5B       		popq	%rbx
 2140 120b 5D       		popq	%rbp
 2141              		.cfi_def_cfa 7, 8
 2142 120c C3       		ret
 2143              		.cfi_endproc
 2144              	.LFE1167:
 2145              		.section	.gcc_except_table
 2146              		.align 4
 2147              	.LLSDA1167:
 2148 0128 FF       		.byte	0xff
 2149 0129 9B       		.byte	0x9b
 2150 012a B802     		.uleb128 .LLSDATT1167-.LLSDATTD1167
 2151              	.LLSDATTD1167:
 2152 012c 01       		.byte	0x1
 2153 012d AC02     		.uleb128 .LLSDACSE1167-.LLSDACSB1167
 2154              	.LLSDACSB1167:
 2155 012f 48       		.uleb128 .LEHB51-.LFB1167
 2156 0130 05       		.uleb128 .LEHE51-.LEHB51
 2157 0131 00       		.uleb128 0
 2158 0132 00       		.uleb128 0
 2159 0133 66       		.uleb128 .LEHB52-.LFB1167
 2160 0134 05       		.uleb128 .LEHE52-.LEHB52
 2161 0135 CD13     		.uleb128 .L125-.LFB1167
 2162 0137 00       		.uleb128 0
 2163 0138 71       		.uleb128 .LEHB53-.LFB1167
 2164 0139 1F       		.uleb128 .LEHE53-.LEHB53
 2165 013a 910C     		.uleb128 .L126-.LFB1167
 2166 013c 01       		.uleb128 0x1
 2167 013d 9A01     		.uleb128 .LEHB54-.LFB1167
 2168 013f 25       		.uleb128 .LEHE54-.LEHB54
 2169 0140 8F0C     		.uleb128 .L127-.LFB1167
 2170 0142 01       		.uleb128 0x1
 2171 0143 DA01     		.uleb128 .LEHB55-.LFB1167
 2172 0145 05       		.uleb128 .LEHE55-.LEHB55
 2173 0146 CD13     		.uleb128 .L125-.LFB1167
 2174 0148 00       		.uleb128 0
 2175 0149 E501     		.uleb128 .LEHB56-.LFB1167
 2176 014b 1F       		.uleb128 .LEHE56-.LEHB56
 2177 014c F20C     		.uleb128 .L129-.LFB1167
 2178 014e 01       		.uleb128 0x1
 2179 014f 8E02     		.uleb128 .LEHB57-.LFB1167
 2180 0151 25       		.uleb128 .LEHE57-.LEHB57
 2181 0152 F00C     		.uleb128 .L130-.LFB1167
 2182 0154 01       		.uleb128 0x1
 2183 0155 D902     		.uleb128 .LEHB58-.LFB1167
 2184 0157 05       		.uleb128 .LEHE58-.LEHB58
 2185 0158 CD13     		.uleb128 .L125-.LFB1167
 2186 015a 00       		.uleb128 0
 2187 015b E402     		.uleb128 .LEHB59-.LFB1167
 2188 015d 1F       		.uleb128 .LEHE59-.LEHB59
 2189 015e D30D     		.uleb128 .L132-.LFB1167
 2190 0160 01       		.uleb128 0x1
 2191 0161 8D03     		.uleb128 .LEHB60-.LFB1167
 2192 0163 25       		.uleb128 .LEHE60-.LEHB60
 2193 0164 D10D     		.uleb128 .L133-.LFB1167
 2194 0166 01       		.uleb128 0x1
 2195 0167 E003     		.uleb128 .LEHB61-.LFB1167
 2196 0169 05       		.uleb128 .LEHE61-.LEHB61
 2197 016a CD13     		.uleb128 .L125-.LFB1167
 2198 016c 00       		.uleb128 0
 2199 016d EF03     		.uleb128 .LEHB62-.LFB1167
 2200 016f 56       		.uleb128 .LEHE62-.LEHB62
 2201 0170 B20E     		.uleb128 .L135-.LFB1167
 2202 0172 01       		.uleb128 0x1
 2203 0173 CF04     		.uleb128 .LEHB63-.LFB1167
 2204 0175 05       		.uleb128 .LEHE63-.LEHB63
 2205 0176 CD13     		.uleb128 .L125-.LFB1167
 2206 0178 00       		.uleb128 0
 2207 0179 F804     		.uleb128 .LEHB64-.LFB1167
 2208 017b 1F       		.uleb128 .LEHE64-.LEHB64
 2209 017c 930F     		.uleb128 .L137-.LFB1167
 2210 017e 01       		.uleb128 0x1
 2211 017f B005     		.uleb128 .LEHB65-.LFB1167
 2212 0181 25       		.uleb128 .LEHE65-.LEHB65
 2213 0182 910F     		.uleb128 .L138-.LFB1167
 2214 0184 01       		.uleb128 0x1
 2215 0185 E105     		.uleb128 .LEHB66-.LFB1167
 2216 0187 54       		.uleb128 .LEHE66-.LEHB66
 2217 0188 CD13     		.uleb128 .L125-.LFB1167
 2218 018a 00       		.uleb128 0
 2219 018b B506     		.uleb128 .LEHB67-.LFB1167
 2220 018d 52       		.uleb128 .LEHE67-.LEHB67
 2221 018e F20F     		.uleb128 .L140-.LFB1167
 2222 0190 01       		.uleb128 0x1
 2223 0191 A807     		.uleb128 .LEHB68-.LFB1167
 2224 0193 05       		.uleb128 .LEHE68-.LEHB68
 2225 0194 CD13     		.uleb128 .L125-.LFB1167
 2226 0196 00       		.uleb128 0
 2227 0197 B307     		.uleb128 .LEHB69-.LFB1167
 2228 0199 1F       		.uleb128 .LEHE69-.LEHB69
 2229 019a D310     		.uleb128 .L142-.LFB1167
 2230 019c 01       		.uleb128 0x1
 2231 019d DC07     		.uleb128 .LEHB70-.LFB1167
 2232 019f 25       		.uleb128 .LEHE70-.LEHB70
 2233 01a0 D110     		.uleb128 .L143-.LFB1167
 2234 01a2 01       		.uleb128 0x1
 2235 01a3 AF08     		.uleb128 .LEHB71-.LFB1167
 2236 01a5 05       		.uleb128 .LEHE71-.LEHB71
 2237 01a6 CD13     		.uleb128 .L125-.LFB1167
 2238 01a8 00       		.uleb128 0
 2239 01a9 BE08     		.uleb128 .LEHB72-.LFB1167
 2240 01ab 56       		.uleb128 .LEHE72-.LEHB72
 2241 01ac B211     		.uleb128 .L145-.LFB1167
 2242 01ae 01       		.uleb128 0x1
 2243 01af 9E09     		.uleb128 .LEHB73-.LFB1167
 2244 01b1 05       		.uleb128 .LEHE73-.LEHB73
 2245 01b2 CD13     		.uleb128 .L125-.LFB1167
 2246 01b4 00       		.uleb128 0
 2247 01b5 C709     		.uleb128 .LEHB74-.LFB1167
 2248 01b7 1F       		.uleb128 .LEHE74-.LEHB74
 2249 01b8 9312     		.uleb128 .L147-.LFB1167
 2250 01ba 01       		.uleb128 0x1
 2251 01bb F009     		.uleb128 .LEHB75-.LFB1167
 2252 01bd 25       		.uleb128 .LEHE75-.LEHB75
 2253 01be 9112     		.uleb128 .L148-.LFB1167
 2254 01c0 01       		.uleb128 0x1
 2255 01c1 A90A     		.uleb128 .LEHB76-.LFB1167
 2256 01c3 34       		.uleb128 .LEHE76-.LEHB76
 2257 01c4 CD13     		.uleb128 .L125-.LFB1167
 2258 01c6 00       		.uleb128 0
 2259 01c7 DD0A     		.uleb128 .LEHB77-.LFB1167
 2260 01c9 1F       		.uleb128 .LEHE77-.LEHB77
 2261 01ca F112     		.uleb128 .L150-.LFB1167
 2262 01cc 01       		.uleb128 0x1
 2263 01cd 930B     		.uleb128 .LEHB78-.LFB1167
 2264 01cf 2A       		.uleb128 .LEHE78-.LEHB78
 2265 01d0 EF12     		.uleb128 .L151-.LFB1167
 2266 01d2 01       		.uleb128 0x1
 2267 01d3 E20B     		.uleb128 .LEHB79-.LFB1167
 2268 01d5 05       		.uleb128 .LEHE79-.LEHB79
 2269 01d6 CD13     		.uleb128 .L125-.LFB1167
 2270 01d8 00       		.uleb128 0
 2271 01d9 F10B     		.uleb128 .LEHB80-.LFB1167
 2272 01db 05       		.uleb128 .LEHE80-.LEHB80
 2273 01dc 00       		.uleb128 0
 2274 01dd 00       		.uleb128 0
 2275 01de 990C     		.uleb128 .LEHB81-.LFB1167
 2276 01e0 40       		.uleb128 .LEHE81-.LEHB81
 2277 01e1 E30C     		.uleb128 .L128-.LFB1167
 2278 01e3 00       		.uleb128 0
 2279 01e4 D90C     		.uleb128 .LEHB82-.LFB1167
 2280 01e6 05       		.uleb128 .LEHE82-.LEHB82
 2281 01e7 CD13     		.uleb128 .L125-.LFB1167
 2282 01e9 00       		.uleb128 0
 2283 01ea FA0C     		.uleb128 .LEHB83-.LFB1167
 2284 01ec 40       		.uleb128 .LEHE83-.LEHB83
 2285 01ed C40D     		.uleb128 .L131-.LFB1167
 2286 01ef 00       		.uleb128 0
 2287 01f0 BA0D     		.uleb128 .LEHB84-.LFB1167
 2288 01f2 05       		.uleb128 .LEHE84-.LEHB84
 2289 01f3 CD13     		.uleb128 .L125-.LFB1167
 2290 01f5 00       		.uleb128 0
 2291 01f6 DB0D     		.uleb128 .LEHB85-.LFB1167
 2292 01f8 40       		.uleb128 .LEHE85-.LEHB85
 2293 01f9 A50E     		.uleb128 .L134-.LFB1167
 2294 01fb 00       		.uleb128 0
 2295 01fc 9B0E     		.uleb128 .LEHB86-.LFB1167
 2296 01fe 05       		.uleb128 .LEHE86-.LEHB86
 2297 01ff CD13     		.uleb128 .L125-.LFB1167
 2298 0201 00       		.uleb128 0
 2299 0202 BA0E     		.uleb128 .LEHB87-.LFB1167
 2300 0204 40       		.uleb128 .LEHE87-.LEHB87
 2301 0205 840F     		.uleb128 .L136-.LFB1167
 2302 0207 00       		.uleb128 0
 2303 0208 FA0E     		.uleb128 .LEHB88-.LFB1167
 2304 020a 05       		.uleb128 .LEHE88-.LEHB88
 2305 020b CD13     		.uleb128 .L125-.LFB1167
 2306 020d 00       		.uleb128 0
 2307 020e 9B0F     		.uleb128 .LEHB89-.LFB1167
 2308 0210 40       		.uleb128 .LEHE89-.LEHB89
 2309 0211 E50F     		.uleb128 .L139-.LFB1167
 2310 0213 00       		.uleb128 0
 2311 0214 DB0F     		.uleb128 .LEHB90-.LFB1167
 2312 0216 05       		.uleb128 .LEHE90-.LEHB90
 2313 0217 CD13     		.uleb128 .L125-.LFB1167
 2314 0219 00       		.uleb128 0
 2315 021a FA0F     		.uleb128 .LEHB91-.LFB1167
 2316 021c 40       		.uleb128 .LEHE91-.LEHB91
 2317 021d C410     		.uleb128 .L141-.LFB1167
 2318 021f 00       		.uleb128 0
 2319 0220 BA10     		.uleb128 .LEHB92-.LFB1167
 2320 0222 05       		.uleb128 .LEHE92-.LEHB92
 2321 0223 CD13     		.uleb128 .L125-.LFB1167
 2322 0225 00       		.uleb128 0
 2323 0226 DB10     		.uleb128 .LEHB93-.LFB1167
 2324 0228 40       		.uleb128 .LEHE93-.LEHB93
 2325 0229 A511     		.uleb128 .L144-.LFB1167
 2326 022b 00       		.uleb128 0
 2327 022c 9B11     		.uleb128 .LEHB94-.LFB1167
 2328 022e 05       		.uleb128 .LEHE94-.LEHB94
 2329 022f CD13     		.uleb128 .L125-.LFB1167
 2330 0231 00       		.uleb128 0
 2331 0232 BA11     		.uleb128 .LEHB95-.LFB1167
 2332 0234 40       		.uleb128 .LEHE95-.LEHB95
 2333 0235 8412     		.uleb128 .L146-.LFB1167
 2334 0237 00       		.uleb128 0
 2335 0238 FA11     		.uleb128 .LEHB96-.LFB1167
 2336 023a 05       		.uleb128 .LEHE96-.LEHB96
 2337 023b CD13     		.uleb128 .L125-.LFB1167
 2338 023d 00       		.uleb128 0
 2339 023e 9B12     		.uleb128 .LEHB97-.LFB1167
 2340 0240 40       		.uleb128 .LEHE97-.LEHB97
 2341 0241 E512     		.uleb128 .L149-.LFB1167
 2342 0243 00       		.uleb128 0
 2343 0244 DB12     		.uleb128 .LEHB98-.LFB1167
 2344 0246 05       		.uleb128 .LEHE98-.LEHB98
 2345 0247 CD13     		.uleb128 .L125-.LFB1167
 2346 0249 00       		.uleb128 0
 2347 024a F912     		.uleb128 .LEHB99-.LFB1167
 2348 024c 40       		.uleb128 .LEHE99-.LEHB99
 2349 024d C313     		.uleb128 .L152-.LFB1167
 2350 024f 00       		.uleb128 0
 2351 0250 B913     		.uleb128 .LEHB100-.LFB1167
 2352 0252 05       		.uleb128 .LEHE100-.LEHB100
 2353 0253 CD13     		.uleb128 .L125-.LFB1167
 2354 0255 00       		.uleb128 0
 2355 0256 E513     		.uleb128 .LEHB101-.LFB1167
 2356 0258 05       		.uleb128 .LEHE101-.LEHB101
 2357 0259 00       		.uleb128 0
 2358 025a 00       		.uleb128 0
 2359              	.LLSDACSE1167:
 2360 025b 01       		.byte	0x1
 2361 025c 00       		.byte	0
 2362 025d 000000   		.align 4
 2363 0260 00000000 		.long	0
 2364              	
 2365              	.LLSDATT1167:
 2366              		.text
 2368              		.section	.text._ZN8UnitTest15MemoryOutStreamD1Ev,"axG",@progbits,_ZN8UnitTest15MemoryOutStreamD1Ev
 2369              		.align 2
 2370              		.weak	_ZN8UnitTest15MemoryOutStreamD1Ev
 2372              	_ZN8UnitTest15MemoryOutStreamD1Ev:
 2373              	.LFB1198:
  13:/home/gani/eval/20140524/makestuff/libs/libutpp/MemoryOutStream.h **** {
 2374              		.loc 3 13 0
 2375              		.cfi_startproc
 2376              		.cfi_personality 0x9b,DW.ref.__gxx_personality_v0
 2377              		.cfi_lsda 0x1b,.LLSDA1198
 2378 0000 55       		pushq	%rbp
 2379              		.cfi_def_cfa_offset 16
 2380              		.cfi_offset 6, -16
 2381 0001 4889E5   		movq	%rsp, %rbp
 2382              		.cfi_def_cfa_register 6
 2383 0004 53       		pushq	%rbx
 2384 0005 4883EC18 		subq	$24, %rsp
 2385              		.cfi_offset 3, -24
 2386 0009 48897DE8 		movq	%rdi, -24(%rbp)
 2387              	.LBB7:
  13:/home/gani/eval/20140524/makestuff/libs/libutpp/MemoryOutStream.h **** {
 2388              		.loc 3 13 0
 2389 000d 488D1500 		leaq	24+_ZTVN8UnitTest15MemoryOutStreamE(%rip), %rdx
 2389      000000
 2390 0014 488B45E8 		movq	-24(%rbp), %rax
 2391 0018 488910   		movq	%rdx, (%rax)
 2392 001b 488B45E8 		movq	-24(%rbp), %rax
 2393 001f 488D9090 		leaq	144(%rax), %rdx
 2393      000000
 2394 0026 488D0500 		leaq	64+_ZTVN8UnitTest15MemoryOutStreamE(%rip), %rax
 2394      000000
 2395 002d 488902   		movq	%rax, (%rdx)
 2396 0030 488B45E8 		movq	-24(%rbp), %rax
 2397 0034 4883C070 		addq	$112, %rax
 2398 0038 4889C7   		movq	%rax, %rdi
 2399              	.LEHB102:
 2400 003b E8000000 		call	_ZNSt7__cxx1112basic_stringIcSt11char_traitsIcESaIcEED1Ev@PLT
 2400      00
 2401              	.LEHE102:
  13:/home/gani/eval/20140524/makestuff/libs/libutpp/MemoryOutStream.h **** {
 2402              		.loc 3 13 0 is_stmt 0 discriminator 2
 2403 0040 488B45E8 		movq	-24(%rbp), %rax
 2404 0044 488D1500 		leaq	8+_ZTTN8UnitTest15MemoryOutStreamE(%rip), %rdx
 2404      000000
 2405 004b 4889D6   		movq	%rdx, %rsi
 2406 004e 4889C7   		movq	%rax, %rdi
 2407              	.LEHB103:
 2408 0051 E8000000 		call	_ZNSt7__cxx1119basic_ostringstreamIcSt11char_traitsIcESaIcEED2Ev@PLT
 2408      00
 2409              	.LEHE103:
  13:/home/gani/eval/20140524/makestuff/libs/libutpp/MemoryOutStream.h **** {
 2410              		.loc 3 13 0 discriminator 4
 2411 0056 488B45E8 		movq	-24(%rbp), %rax
 2412 005a 48059000 		addq	$144, %rax
 2412      0000
 2413 0060 4889C7   		movq	%rax, %rdi
 2414              	.LEHB104:
 2415 0063 E8000000 		call	_ZNSt9basic_iosIcSt11char_traitsIcEED2Ev@PLT
 2415      00
 2416              	.LEHE104:
 2417              	.LBE7:
 2418 0068 EB3B     		jmp	.L159
 2419              	.L157:
 2420 006a 4889C3   		movq	%rax, %rbx
 2421              	.LBB8:
  13:/home/gani/eval/20140524/makestuff/libs/libutpp/MemoryOutStream.h **** {
 2422              		.loc 3 13 0
 2423 006d 488B45E8 		movq	-24(%rbp), %rax
 2424 0071 488D1500 		leaq	8+_ZTTN8UnitTest15MemoryOutStreamE(%rip), %rdx
 2424      000000
 2425 0078 4889D6   		movq	%rdx, %rsi
 2426 007b 4889C7   		movq	%rax, %rdi
 2427 007e E8000000 		call	_ZNSt7__cxx1119basic_ostringstreamIcSt11char_traitsIcESaIcEED2Ev@PLT
 2427      00
 2428 0083 EB03     		jmp	.L156
 2429              	.L158:
 2430 0085 4889C3   		movq	%rax, %rbx
 2431              	.L156:
  13:/home/gani/eval/20140524/makestuff/libs/libutpp/MemoryOutStream.h **** {
 2432              		.loc 3 13 0 discriminator 3
 2433 0088 488B45E8 		movq	-24(%rbp), %rax
 2434 008c 48059000 		addq	$144, %rax
 2434      0000
 2435 0092 4889C7   		movq	%rax, %rdi
 2436 0095 E8000000 		call	_ZNSt9basic_iosIcSt11char_traitsIcEED2Ev@PLT
 2436      00
 2437 009a 4889D8   		movq	%rbx, %rax
 2438 009d 4889C7   		movq	%rax, %rdi
 2439              	.LEHB105:
 2440 00a0 E8000000 		call	_Unwind_Resume@PLT
 2440      00
 2441              	.LEHE105:
 2442              	.L159:
 2443              	.LBE8:
  13:/home/gani/eval/20140524/makestuff/libs/libutpp/MemoryOutStream.h **** {
 2444              		.loc 3 13 0
 2445 00a5 4883C418 		addq	$24, %rsp
 2446 00a9 5B       		popq	%rbx
 2447 00aa 5D       		popq	%rbp
 2448              		.cfi_def_cfa 7, 8
 2449 00ab C3       		ret
 2450              		.cfi_endproc
 2451              	.LFE1198:
 2452              		.section	.gcc_except_table
 2453              	.LLSDA1198:
 2454 0264 FF       		.byte	0xff
 2455 0265 FF       		.byte	0xff
 2456 0266 01       		.byte	0x1
 2457 0267 12       		.uleb128 .LLSDACSE1198-.LLSDACSB1198
 2458              	.LLSDACSB1198:
 2459 0268 3B       		.uleb128 .LEHB102-.LFB1198
 2460 0269 05       		.uleb128 .LEHE102-.LEHB102
 2461 026a 6A       		.uleb128 .L157-.LFB1198
 2462 026b 00       		.uleb128 0
 2463 026c 51       		.uleb128 .LEHB103-.LFB1198
 2464 026d 05       		.uleb128 .LEHE103-.LEHB103
 2465 026e 8501     		.uleb128 .L158-.LFB1198
 2466 0270 00       		.uleb128 0
 2467 0271 63       		.uleb128 .LEHB104-.LFB1198
 2468 0272 05       		.uleb128 .LEHE104-.LEHB104
 2469 0273 00       		.uleb128 0
 2470 0274 00       		.uleb128 0
 2471 0275 A001     		.uleb128 .LEHB105-.LFB1198
 2472 0277 05       		.uleb128 .LEHE105-.LEHB105
 2473 0278 00       		.uleb128 0
 2474 0279 00       		.uleb128 0
 2475              	.LLSDACSE1198:
 2476              		.section	.text._ZN8UnitTest15MemoryOutStreamD1Ev,"axG",@progbits,_ZN8UnitTest15MemoryOutStreamD1Ev
 2478              		.set	.LTHUNK0,_ZN8UnitTest15MemoryOutStreamD1Ev
 2479              		.weak	_ZTv0_n24_N8UnitTest15MemoryOutStreamD1Ev
 2481              	_ZTv0_n24_N8UnitTest15MemoryOutStreamD1Ev:
 2482              	.LFB1307:
  13:/home/gani/eval/20140524/makestuff/libs/libutpp/MemoryOutStream.h **** {
 2483              		.loc 3 13 0 is_stmt 1
 2484              		.cfi_startproc
 2485 00ac 4C8B17   		movq	(%rdi), %r10
 2486 00af 49037AE8 		addq	-24(%r10), %rdi
 2487 00b3 E948FFFF 		jmp	.LTHUNK0
 2487      FF
 2488              		.cfi_endproc
 2489              	.LFE1307:
 2491              		.section	.text._ZN8UnitTest15MemoryOutStreamD0Ev,"axG",@progbits,_ZN8UnitTest15MemoryOutStreamD0Ev
 2492              		.align 2
 2493              		.weak	_ZN8UnitTest15MemoryOutStreamD0Ev
 2495              	_ZN8UnitTest15MemoryOutStreamD0Ev:
 2496              	.LFB1199:
  13:/home/gani/eval/20140524/makestuff/libs/libutpp/MemoryOutStream.h **** {
 2497              		.loc 3 13 0
 2498              		.cfi_startproc
 2499              		.cfi_personality 0x9b,DW.ref.__gxx_personality_v0
 2500              		.cfi_lsda 0x1b,.LLSDA1199
 2501 0000 55       		pushq	%rbp
 2502              		.cfi_def_cfa_offset 16
 2503              		.cfi_offset 6, -16
 2504 0001 4889E5   		movq	%rsp, %rbp
 2505              		.cfi_def_cfa_register 6
 2506 0004 53       		pushq	%rbx
 2507 0005 4883EC18 		subq	$24, %rsp
 2508              		.cfi_offset 3, -24
 2509 0009 48897DE8 		movq	%rdi, -24(%rbp)
  13:/home/gani/eval/20140524/makestuff/libs/libutpp/MemoryOutStream.h **** {
 2510              		.loc 3 13 0
 2511 000d 488B45E8 		movq	-24(%rbp), %rax
 2512 0011 4889C7   		movq	%rax, %rdi
 2513              	.LEHB106:
 2514 0014 E8000000 		call	_ZN8UnitTest15MemoryOutStreamD1Ev
 2514      00
 2515              	.LEHE106:
  13:/home/gani/eval/20140524/makestuff/libs/libutpp/MemoryOutStream.h **** {
 2516              		.loc 3 13 0 is_stmt 0 discriminator 2
 2517 0019 488B45E8 		movq	-24(%rbp), %rax
 2518 001d 4889C7   		movq	%rax, %rdi
 2519 0020 E8000000 		call	_ZdlPv@PLT
 2519      00
 2520 0025 EB1A     		jmp	.L163
 2521              	.L162:
 2522 0027 4889C3   		movq	%rax, %rbx
  13:/home/gani/eval/20140524/makestuff/libs/libutpp/MemoryOutStream.h **** {
 2523              		.loc 3 13 0
 2524 002a 488B45E8 		movq	-24(%rbp), %rax
 2525 002e 4889C7   		movq	%rax, %rdi
 2526 0031 E8000000 		call	_ZdlPv@PLT
 2526      00
 2527 0036 4889D8   		movq	%rbx, %rax
 2528 0039 4889C7   		movq	%rax, %rdi
 2529              	.LEHB107:
 2530 003c E8000000 		call	_Unwind_Resume@PLT
 2530      00
 2531              	.LEHE107:
 2532              	.L163:
 2533 0041 4883C418 		addq	$24, %rsp
 2534 0045 5B       		popq	%rbx
 2535 0046 5D       		popq	%rbp
 2536              		.cfi_def_cfa 7, 8
 2537 0047 C3       		ret
 2538              		.cfi_endproc
 2539              	.LFE1199:
 2540              		.section	.gcc_except_table
 2541              	.LLSDA1199:
 2542 027a FF       		.byte	0xff
 2543 027b FF       		.byte	0xff
 2544 027c 01       		.byte	0x1
 2545 027d 08       		.uleb128 .LLSDACSE1199-.LLSDACSB1199
 2546              	.LLSDACSB1199:
 2547 027e 14       		.uleb128 .LEHB106-.LFB1199
 2548 027f 05       		.uleb128 .LEHE106-.LEHB106
 2549 0280 27       		.uleb128 .L162-.LFB1199
 2550 0281 00       		.uleb128 0
 2551 0282 3C       		.uleb128 .LEHB107-.LFB1199
 2552 0283 05       		.uleb128 .LEHE107-.LEHB107
 2553 0284 00       		.uleb128 0
 2554 0285 00       		.uleb128 0
 2555              	.LLSDACSE1199:
 2556              		.section	.text._ZN8UnitTest15MemoryOutStreamD0Ev,"axG",@progbits,_ZN8UnitTest15MemoryOutStreamD0Ev
 2558              		.set	.LTHUNK1,_ZN8UnitTest15MemoryOutStreamD0Ev
 2559              		.weak	_ZTv0_n24_N8UnitTest15MemoryOutStreamD0Ev
 2561              	_ZTv0_n24_N8UnitTest15MemoryOutStreamD0Ev:
 2562              	.LFB1308:
  13:/home/gani/eval/20140524/makestuff/libs/libutpp/MemoryOutStream.h **** {
 2563              		.loc 3 13 0 is_stmt 1
 2564              		.cfi_startproc
 2565 0048 4C8B17   		movq	(%rdi), %r10
 2566 004b 49037AE8 		addq	-24(%r10), %rdi
 2567 004f EBAF     		jmp	.LTHUNK1
 2568              		.cfi_endproc
 2569              	.LFE1308:
 2571              		.section	.rodata
 2572              	.LC20:
 2573 035b 45787065 		.string	"Expected "
 2573      63746564 
 2573      2000
 2574              	.LC21:
 2575 0365 20627574 		.string	" but was "
 2575      20776173 
 2575      2000
 2576              		.section	.text._ZN8UnitTest10CheckEqualI12BufferStatusS1_EEvRNS_11TestResultsERKT_RKT0_RKNS_11Test
 2577              		.weak	_ZN8UnitTest10CheckEqualI12BufferStatusS1_EEvRNS_11TestResultsERKT_RKT0_RKNS_11TestDetailsE
 2579              	_ZN8UnitTest10CheckEqualI12BufferStatusS1_EEvRNS_11TestResultsERKT_RKT0_RKNS_11TestDetailsE:
 2580              	.LFB1195:
 2581              		.file 5 "/home/gani/eval/20140524/makestuff/libs/libutpp/Checks.h"
   1:/home/gani/eval/20140524/makestuff/libs/libutpp/Checks.h **** #ifndef UNITTEST_CHECKS_H
   2:/home/gani/eval/20140524/makestuff/libs/libutpp/Checks.h **** #define UNITTEST_CHECKS_H
   3:/home/gani/eval/20140524/makestuff/libs/libutpp/Checks.h **** 
   4:/home/gani/eval/20140524/makestuff/libs/libutpp/Checks.h **** #include "Config.h"
   5:/home/gani/eval/20140524/makestuff/libs/libutpp/Checks.h **** #include "TestResults.h"
   6:/home/gani/eval/20140524/makestuff/libs/libutpp/Checks.h **** #include "MemoryOutStream.h"
   7:/home/gani/eval/20140524/makestuff/libs/libutpp/Checks.h **** 
   8:/home/gani/eval/20140524/makestuff/libs/libutpp/Checks.h **** namespace UnitTest {
   9:/home/gani/eval/20140524/makestuff/libs/libutpp/Checks.h **** 
  10:/home/gani/eval/20140524/makestuff/libs/libutpp/Checks.h **** 
  11:/home/gani/eval/20140524/makestuff/libs/libutpp/Checks.h **** template< typename Value >
  12:/home/gani/eval/20140524/makestuff/libs/libutpp/Checks.h **** bool Check(Value const value)
  13:/home/gani/eval/20140524/makestuff/libs/libutpp/Checks.h **** {
  14:/home/gani/eval/20140524/makestuff/libs/libutpp/Checks.h ****     return !!value; // doing double negative to avoid silly VS warnings
  15:/home/gani/eval/20140524/makestuff/libs/libutpp/Checks.h **** }
  16:/home/gani/eval/20140524/makestuff/libs/libutpp/Checks.h **** 
  17:/home/gani/eval/20140524/makestuff/libs/libutpp/Checks.h **** 
  18:/home/gani/eval/20140524/makestuff/libs/libutpp/Checks.h **** template< typename Expected, typename Actual >
  19:/home/gani/eval/20140524/makestuff/libs/libutpp/Checks.h **** void CheckEqual(TestResults& results, Expected const& expected, Actual const& actual, TestDetails c
 2582              		.loc 5 19 0
 2583              		.cfi_startproc
 2584              		.cfi_personality 0x9b,DW.ref.__gxx_personality_v0
 2585              		.cfi_lsda 0x1b,.LLSDA1195
 2586 0000 55       		pushq	%rbp
 2587              		.cfi_def_cfa_offset 16
 2588              		.cfi_offset 6, -16
 2589 0001 4889E5   		movq	%rsp, %rbp
 2590              		.cfi_def_cfa_register 6
 2591 0004 53       		pushq	%rbx
 2592 0005 4881ECC8 		subq	$456, %rsp
 2592      010000
 2593              		.cfi_offset 3, -24
 2594 000c 4889BD48 		movq	%rdi, -440(%rbp)
 2594      FEFFFF
 2595 0013 4889B540 		movq	%rsi, -448(%rbp)
 2595      FEFFFF
 2596 001a 48899538 		movq	%rdx, -456(%rbp)
 2596      FEFFFF
 2597 0021 48898D30 		movq	%rcx, -464(%rbp)
 2597      FEFFFF
 2598              		.loc 5 19 0
 2599 0028 64488B04 		movq	%fs:40, %rax
 2599      25280000 
 2599      00
 2600 0031 488945E8 		movq	%rax, -24(%rbp)
 2601 0035 31C0     		xorl	%eax, %eax
 2602              	.LBB9:
  20:/home/gani/eval/20140524/makestuff/libs/libutpp/Checks.h **** {
  21:/home/gani/eval/20140524/makestuff/libs/libutpp/Checks.h ****     if (!(expected == actual))
 2603              		.loc 5 21 0
 2604 0037 488B8540 		movq	-448(%rbp), %rax
 2604      FEFFFF
 2605 003e 8B10     		movl	(%rax), %edx
 2606 0040 488B8538 		movq	-456(%rbp), %rax
 2606      FEFFFF
 2607 0047 8B00     		movl	(%rax), %eax
 2608 0049 39C2     		cmpl	%eax, %edx
 2609 004b 0F84B900 		je	.L169
 2609      0000
 2610              	.LBB10:
  22:/home/gani/eval/20140524/makestuff/libs/libutpp/Checks.h ****     {
  23:/home/gani/eval/20140524/makestuff/libs/libutpp/Checks.h ****         UnitTest::MemoryOutStream stream;
 2611              		.loc 5 23 0
 2612 0051 488D8550 		leaq	-432(%rbp), %rax
 2612      FEFFFF
 2613 0058 4889C7   		movq	%rax, %rdi
 2614              	.LEHB108:
 2615 005b E8000000 		call	_ZN8UnitTest15MemoryOutStreamC1Ev
 2615      00
 2616              	.LEHE108:
  24:/home/gani/eval/20140524/makestuff/libs/libutpp/Checks.h ****         stream << "Expected " << expected << " but was " << actual;
 2617              		.loc 5 24 0
 2618 0060 488D8550 		leaq	-432(%rbp), %rax
 2618      FEFFFF
 2619 0067 488D3500 		leaq	.LC20(%rip), %rsi
 2619      000000
 2620 006e 4889C7   		movq	%rax, %rdi
 2621              	.LEHB109:
 2622 0071 E8000000 		call	_ZStlsISt11char_traitsIcEERSt13basic_ostreamIcT_ES5_PKc@PLT
 2622      00
 2623 0076 4889C2   		movq	%rax, %rdx
 2624 0079 488B8540 		movq	-448(%rbp), %rax
 2624      FEFFFF
 2625 0080 8B00     		movl	(%rax), %eax
 2626 0082 89C6     		movl	%eax, %esi
 2627 0084 4889D7   		movq	%rdx, %rdi
 2628 0087 E8000000 		call	_ZNSolsEi@PLT
 2628      00
 2629              		.loc 5 24 0 is_stmt 0 discriminator 1
 2630 008c 488D3500 		leaq	.LC21(%rip), %rsi
 2630      000000
 2631 0093 4889C7   		movq	%rax, %rdi
 2632 0096 E8000000 		call	_ZStlsISt11char_traitsIcEERSt13basic_ostreamIcT_ES5_PKc@PLT
 2632      00
 2633              		.loc 5 24 0 discriminator 2
 2634 009b 4889C2   		movq	%rax, %rdx
 2635 009e 488B8538 		movq	-456(%rbp), %rax
 2635      FEFFFF
 2636 00a5 8B00     		movl	(%rax), %eax
 2637 00a7 89C6     		movl	%eax, %esi
 2638 00a9 4889D7   		movq	%rdx, %rdi
 2639 00ac E8000000 		call	_ZNSolsEi@PLT
 2639      00
  25:/home/gani/eval/20140524/makestuff/libs/libutpp/Checks.h **** 
  26:/home/gani/eval/20140524/makestuff/libs/libutpp/Checks.h ****         results.OnTestFailure(details, stream.GetText());
 2640              		.loc 5 26 0 is_stmt 1
 2641 00b1 488D8550 		leaq	-432(%rbp), %rax
 2641      FEFFFF
 2642 00b8 4889C7   		movq	%rax, %rdi
 2643 00bb E8000000 		call	_ZNK8UnitTest15MemoryOutStream7GetTextEv@PLT
 2643      00
 2644 00c0 4889C2   		movq	%rax, %rdx
 2645 00c3 488B8D30 		movq	-464(%rbp), %rcx
 2645      FEFFFF
 2646 00ca 488B8548 		movq	-440(%rbp), %rax
 2646      FEFFFF
 2647 00d1 4889CE   		movq	%rcx, %rsi
 2648 00d4 4889C7   		movq	%rax, %rdi
 2649 00d7 E8000000 		call	_ZN8UnitTest11TestResults13OnTestFailureERKNS_11TestDetailsEPKc@PLT
 2649      00
 2650              	.LEHE109:
  23:/home/gani/eval/20140524/makestuff/libs/libutpp/Checks.h ****         stream << "Expected " << expected << " but was " << actual;
 2651              		.loc 5 23 0
 2652 00dc 488D8550 		leaq	-432(%rbp), %rax
 2652      FEFFFF
 2653 00e3 4889C7   		movq	%rax, %rdi
 2654              	.LEHB110:
 2655 00e6 E8000000 		call	_ZN8UnitTest15MemoryOutStreamD1Ev
 2655      00
 2656              	.LEHE110:
 2657              	.LBE10:
 2658              	.LBE9:
  27:/home/gani/eval/20140524/makestuff/libs/libutpp/Checks.h ****     }
  28:/home/gani/eval/20140524/makestuff/libs/libutpp/Checks.h **** }
 2659              		.loc 5 28 0
 2660 00eb EB1D     		jmp	.L169
 2661              	.L168:
 2662 00ed 4889C3   		movq	%rax, %rbx
 2663              	.LBB12:
 2664              	.LBB11:
  23:/home/gani/eval/20140524/makestuff/libs/libutpp/Checks.h ****         stream << "Expected " << expected << " but was " << actual;
 2665              		.loc 5 23 0
 2666 00f0 488D8550 		leaq	-432(%rbp), %rax
 2666      FEFFFF
 2667 00f7 4889C7   		movq	%rax, %rdi
 2668 00fa E8000000 		call	_ZN8UnitTest15MemoryOutStreamD1Ev
 2668      00
 2669 00ff 4889D8   		movq	%rbx, %rax
 2670 0102 4889C7   		movq	%rax, %rdi
 2671              	.LEHB111:
 2672 0105 E8000000 		call	_Unwind_Resume@PLT
 2672      00
 2673              	.LEHE111:
 2674              	.L169:
 2675              	.LBE11:
 2676              	.LBE12:
 2677              		.loc 5 28 0
 2678 010a 90       		nop
 2679 010b 488B45E8 		movq	-24(%rbp), %rax
 2680 010f 64483304 		xorq	%fs:40, %rax
 2680      25280000 
 2680      00
 2681 0118 7405     		je	.L167
 2682 011a E8000000 		call	__stack_chk_fail@PLT
 2682      00
 2683              	.L167:
 2684 011f 4881C4C8 		addq	$456, %rsp
 2684      010000
 2685 0126 5B       		popq	%rbx
 2686 0127 5D       		popq	%rbp
 2687              		.cfi_def_cfa 7, 8
 2688 0128 C3       		ret
 2689              		.cfi_endproc
 2690              	.LFE1195:
 2691              		.section	.gcc_except_table
 2692              	.LLSDA1195:
 2693 0286 FF       		.byte	0xff
 2694 0287 FF       		.byte	0xff
 2695 0288 01       		.byte	0x1
 2696 0289 13       		.uleb128 .LLSDACSE1195-.LLSDACSB1195
 2697              	.LLSDACSB1195:
 2698 028a 5B       		.uleb128 .LEHB108-.LFB1195
 2699 028b 05       		.uleb128 .LEHE108-.LEHB108
 2700 028c 00       		.uleb128 0
 2701 028d 00       		.uleb128 0
 2702 028e 71       		.uleb128 .LEHB109-.LFB1195
 2703 028f 6B       		.uleb128 .LEHE109-.LEHB109
 2704 0290 ED01     		.uleb128 .L168-.LFB1195
 2705 0292 00       		.uleb128 0
 2706 0293 E601     		.uleb128 .LEHB110-.LFB1195
 2707 0295 05       		.uleb128 .LEHE110-.LEHB110
 2708 0296 00       		.uleb128 0
 2709 0297 00       		.uleb128 0
 2710 0298 8502     		.uleb128 .LEHB111-.LFB1195
 2711 029a 05       		.uleb128 .LEHE111-.LEHB111
 2712 029b 00       		.uleb128 0
 2713 029c 00       		.uleb128 0
 2714              	.LLSDACSE1195:
 2715              		.section	.text._ZN8UnitTest10CheckEqualI12BufferStatusS1_EEvRNS_11TestResultsERKT_RKT0_RKNS_11Test
 2717              		.section	.text._ZN8UnitTest10CheckEqualImmEEvRNS_11TestResultsERKT_RKT0_RKNS_11TestDetailsE,"axG",
 2718              		.weak	_ZN8UnitTest10CheckEqualImmEEvRNS_11TestResultsERKT_RKT0_RKNS_11TestDetailsE
 2720              	_ZN8UnitTest10CheckEqualImmEEvRNS_11TestResultsERKT_RKT0_RKNS_11TestDetailsE:
 2721              	.LFB1210:
  19:/home/gani/eval/20140524/makestuff/libs/libutpp/Checks.h **** {
 2722              		.loc 5 19 0
 2723              		.cfi_startproc
 2724              		.cfi_personality 0x9b,DW.ref.__gxx_personality_v0
 2725              		.cfi_lsda 0x1b,.LLSDA1210
 2726 0000 55       		pushq	%rbp
 2727              		.cfi_def_cfa_offset 16
 2728              		.cfi_offset 6, -16
 2729 0001 4889E5   		movq	%rsp, %rbp
 2730              		.cfi_def_cfa_register 6
 2731 0004 53       		pushq	%rbx
 2732 0005 4881ECC8 		subq	$456, %rsp
 2732      010000
 2733              		.cfi_offset 3, -24
 2734 000c 4889BD48 		movq	%rdi, -440(%rbp)
 2734      FEFFFF
 2735 0013 4889B540 		movq	%rsi, -448(%rbp)
 2735      FEFFFF
 2736 001a 48899538 		movq	%rdx, -456(%rbp)
 2736      FEFFFF
 2737 0021 48898D30 		movq	%rcx, -464(%rbp)
 2737      FEFFFF
  19:/home/gani/eval/20140524/makestuff/libs/libutpp/Checks.h **** {
 2738              		.loc 5 19 0
 2739 0028 64488B04 		movq	%fs:40, %rax
 2739      25280000 
 2739      00
 2740 0031 488945E8 		movq	%rax, -24(%rbp)
 2741 0035 31C0     		xorl	%eax, %eax
 2742              	.LBB13:
  21:/home/gani/eval/20140524/makestuff/libs/libutpp/Checks.h ****     {
 2743              		.loc 5 21 0
 2744 0037 488B8540 		movq	-448(%rbp), %rax
 2744      FEFFFF
 2745 003e 488B10   		movq	(%rax), %rdx
 2746 0041 488B8538 		movq	-456(%rbp), %rax
 2746      FEFFFF
 2747 0048 488B00   		movq	(%rax), %rax
 2748 004b 4839C2   		cmpq	%rax, %rdx
 2749 004e 0F84BD00 		je	.L175
 2749      0000
 2750              	.LBB14:
  23:/home/gani/eval/20140524/makestuff/libs/libutpp/Checks.h ****         stream << "Expected " << expected << " but was " << actual;
 2751              		.loc 5 23 0
 2752 0054 488D8550 		leaq	-432(%rbp), %rax
 2752      FEFFFF
 2753 005b 4889C7   		movq	%rax, %rdi
 2754              	.LEHB112:
 2755 005e E8000000 		call	_ZN8UnitTest15MemoryOutStreamC1Ev
 2755      00
 2756              	.LEHE112:
  24:/home/gani/eval/20140524/makestuff/libs/libutpp/Checks.h **** 
 2757              		.loc 5 24 0
 2758 0063 488D8550 		leaq	-432(%rbp), %rax
 2758      FEFFFF
 2759 006a 488D3500 		leaq	.LC20(%rip), %rsi
 2759      000000
 2760 0071 4889C7   		movq	%rax, %rdi
 2761              	.LEHB113:
 2762 0074 E8000000 		call	_ZStlsISt11char_traitsIcEERSt13basic_ostreamIcT_ES5_PKc@PLT
 2762      00
 2763 0079 4889C2   		movq	%rax, %rdx
 2764 007c 488B8540 		movq	-448(%rbp), %rax
 2764      FEFFFF
 2765 0083 488B00   		movq	(%rax), %rax
 2766 0086 4889C6   		movq	%rax, %rsi
 2767 0089 4889D7   		movq	%rdx, %rdi
 2768 008c E8000000 		call	_ZNSolsEm@PLT
 2768      00
  24:/home/gani/eval/20140524/makestuff/libs/libutpp/Checks.h **** 
 2769              		.loc 5 24 0 is_stmt 0 discriminator 1
 2770 0091 488D3500 		leaq	.LC21(%rip), %rsi
 2770      000000
 2771 0098 4889C7   		movq	%rax, %rdi
 2772 009b E8000000 		call	_ZStlsISt11char_traitsIcEERSt13basic_ostreamIcT_ES5_PKc@PLT
 2772      00
  24:/home/gani/eval/20140524/makestuff/libs/libutpp/Checks.h **** 
 2773              		.loc 5 24 0 discriminator 2
 2774 00a0 4889C2   		movq	%rax, %rdx
 2775 00a3 488B8538 		movq	-456(%rbp), %rax
 2775      FEFFFF
 2776 00aa 488B00   		movq	(%rax), %rax
 2777 00ad 4889C6   		movq	%rax, %rsi
 2778 00b0 4889D7   		movq	%rdx, %rdi
 2779 00b3 E8000000 		call	_ZNSolsEm@PLT
 2779      00
  26:/home/gani/eval/20140524/makestuff/libs/libutpp/Checks.h ****     }
 2780              		.loc 5 26 0 is_stmt 1
 2781 00b8 488D8550 		leaq	-432(%rbp), %rax
 2781      FEFFFF
 2782 00bf 4889C7   		movq	%rax, %rdi
 2783 00c2 E8000000 		call	_ZNK8UnitTest15MemoryOutStream7GetTextEv@PLT
 2783      00
 2784 00c7 4889C2   		movq	%rax, %rdx
 2785 00ca 488B8D30 		movq	-464(%rbp), %rcx
 2785      FEFFFF
 2786 00d1 488B8548 		movq	-440(%rbp), %rax
 2786      FEFFFF
 2787 00d8 4889CE   		movq	%rcx, %rsi
 2788 00db 4889C7   		movq	%rax, %rdi
 2789 00de E8000000 		call	_ZN8UnitTest11TestResults13OnTestFailureERKNS_11TestDetailsEPKc@PLT
 2789      00
 2790              	.LEHE113:
  23:/home/gani/eval/20140524/makestuff/libs/libutpp/Checks.h ****         stream << "Expected " << expected << " but was " << actual;
 2791              		.loc 5 23 0
 2792 00e3 488D8550 		leaq	-432(%rbp), %rax
 2792      FEFFFF
 2793 00ea 4889C7   		movq	%rax, %rdi
 2794              	.LEHB114:
 2795 00ed E8000000 		call	_ZN8UnitTest15MemoryOutStreamD1Ev
 2795      00
 2796              	.LEHE114:
 2797              	.LBE14:
 2798              	.LBE13:
 2799              		.loc 5 28 0
 2800 00f2 EB1D     		jmp	.L175
 2801              	.L174:
 2802 00f4 4889C3   		movq	%rax, %rbx
 2803              	.LBB16:
 2804              	.LBB15:
  23:/home/gani/eval/20140524/makestuff/libs/libutpp/Checks.h ****         stream << "Expected " << expected << " but was " << actual;
 2805              		.loc 5 23 0
 2806 00f7 488D8550 		leaq	-432(%rbp), %rax
 2806      FEFFFF
 2807 00fe 4889C7   		movq	%rax, %rdi
 2808 0101 E8000000 		call	_ZN8UnitTest15MemoryOutStreamD1Ev
 2808      00
 2809 0106 4889D8   		movq	%rbx, %rax
 2810 0109 4889C7   		movq	%rax, %rdi
 2811              	.LEHB115:
 2812 010c E8000000 		call	_Unwind_Resume@PLT
 2812      00
 2813              	.LEHE115:
 2814              	.L175:
 2815              	.LBE15:
 2816              	.LBE16:
 2817              		.loc 5 28 0
 2818 0111 90       		nop
 2819 0112 488B45E8 		movq	-24(%rbp), %rax
 2820 0116 64483304 		xorq	%fs:40, %rax
 2820      25280000 
 2820      00
 2821 011f 7405     		je	.L173
 2822 0121 E8000000 		call	__stack_chk_fail@PLT
 2822      00
 2823              	.L173:
 2824 0126 4881C4C8 		addq	$456, %rsp
 2824      010000
 2825 012d 5B       		popq	%rbx
 2826 012e 5D       		popq	%rbp
 2827              		.cfi_def_cfa 7, 8
 2828 012f C3       		ret
 2829              		.cfi_endproc
 2830              	.LFE1210:
 2831              		.section	.gcc_except_table
 2832              	.LLSDA1210:
 2833 029d FF       		.byte	0xff
 2834 029e FF       		.byte	0xff
 2835 029f 01       		.byte	0x1
 2836 02a0 13       		.uleb128 .LLSDACSE1210-.LLSDACSB1210
 2837              	.LLSDACSB1210:
 2838 02a1 5E       		.uleb128 .LEHB112-.LFB1210
 2839 02a2 05       		.uleb128 .LEHE112-.LEHB112
 2840 02a3 00       		.uleb128 0
 2841 02a4 00       		.uleb128 0
 2842 02a5 74       		.uleb128 .LEHB113-.LFB1210
 2843 02a6 6F       		.uleb128 .LEHE113-.LEHB113
 2844 02a7 F401     		.uleb128 .L174-.LFB1210
 2845 02a9 00       		.uleb128 0
 2846 02aa ED01     		.uleb128 .LEHB114-.LFB1210
 2847 02ac 05       		.uleb128 .LEHE114-.LEHB114
 2848 02ad 00       		.uleb128 0
 2849 02ae 00       		.uleb128 0
 2850 02af 8C02     		.uleb128 .LEHB115-.LFB1210
 2851 02b1 05       		.uleb128 .LEHE115-.LEHB115
 2852 02b2 00       		.uleb128 0
 2853 02b3 00       		.uleb128 0
 2854              	.LLSDACSE1210:
 2855              		.section	.text._ZN8UnitTest10CheckEqualImmEEvRNS_11TestResultsERKT_RKT0_RKNS_11TestDetailsE,"axG",
 2857              		.section	.rodata
 2858              	.LC22:
 2859 036f 45787065 		.string	"Expected [ "
 2859      63746564 
 2859      205B2000 
 2860              	.LC23:
 2861 037b 2000     		.string	" "
 2862              	.LC24:
 2863 037d 5D206275 		.string	"] but was [ "
 2863      74207761 
 2863      73205B20 
 2863      00
 2864              	.LC25:
 2865 038a 5D00     		.string	"]"
 2866              		.section	.text._ZN8UnitTest15CheckArrayEqualIPKcPhEEvRNS_11TestResultsERKT_RKT0_iRKNS_11TestDetail
 2867              		.weak	_ZN8UnitTest15CheckArrayEqualIPKcPhEEvRNS_11TestResultsERKT_RKT0_iRKNS_11TestDetailsE
 2869              	_ZN8UnitTest15CheckArrayEqualIPKcPhEEvRNS_11TestResultsERKT_RKT0_iRKNS_11TestDetailsE:
 2870              	.LFB1211:
  29:/home/gani/eval/20140524/makestuff/libs/libutpp/Checks.h **** 
  30:/home/gani/eval/20140524/makestuff/libs/libutpp/Checks.h **** void CheckEqual(TestResults& results, char const* expected, char const* actual, TestDetails const& 
  31:/home/gani/eval/20140524/makestuff/libs/libutpp/Checks.h **** 
  32:/home/gani/eval/20140524/makestuff/libs/libutpp/Checks.h **** void CheckEqual(TestResults& results, char* expected, char* actual, TestDetails const& details);
  33:/home/gani/eval/20140524/makestuff/libs/libutpp/Checks.h **** 
  34:/home/gani/eval/20140524/makestuff/libs/libutpp/Checks.h **** void CheckEqual(TestResults& results, char* expected, char const* actual, TestDetails const& detail
  35:/home/gani/eval/20140524/makestuff/libs/libutpp/Checks.h **** 
  36:/home/gani/eval/20140524/makestuff/libs/libutpp/Checks.h **** void CheckEqual(TestResults& results, char const* expected, char* actual, TestDetails const& detail
  37:/home/gani/eval/20140524/makestuff/libs/libutpp/Checks.h **** 
  38:/home/gani/eval/20140524/makestuff/libs/libutpp/Checks.h **** template< typename Expected, typename Actual, typename Tolerance >
  39:/home/gani/eval/20140524/makestuff/libs/libutpp/Checks.h **** bool AreClose(Expected const& expected, Actual const& actual, Tolerance const& tolerance)
  40:/home/gani/eval/20140524/makestuff/libs/libutpp/Checks.h **** {
  41:/home/gani/eval/20140524/makestuff/libs/libutpp/Checks.h ****     return (actual >= (expected - tolerance)) && (actual <= (expected + tolerance));
  42:/home/gani/eval/20140524/makestuff/libs/libutpp/Checks.h **** }
  43:/home/gani/eval/20140524/makestuff/libs/libutpp/Checks.h **** 
  44:/home/gani/eval/20140524/makestuff/libs/libutpp/Checks.h **** template< typename Expected, typename Actual, typename Tolerance >
  45:/home/gani/eval/20140524/makestuff/libs/libutpp/Checks.h **** void CheckClose(TestResults& results, Expected const& expected, Actual const& actual, Tolerance con
  46:/home/gani/eval/20140524/makestuff/libs/libutpp/Checks.h ****                 TestDetails const& details)
  47:/home/gani/eval/20140524/makestuff/libs/libutpp/Checks.h **** {
  48:/home/gani/eval/20140524/makestuff/libs/libutpp/Checks.h ****     if (!AreClose(expected, actual, tolerance))
  49:/home/gani/eval/20140524/makestuff/libs/libutpp/Checks.h ****     { 
  50:/home/gani/eval/20140524/makestuff/libs/libutpp/Checks.h ****         UnitTest::MemoryOutStream stream;
  51:/home/gani/eval/20140524/makestuff/libs/libutpp/Checks.h ****         stream << "Expected " << expected << " +/- " << tolerance << " but was " << actual;
  52:/home/gani/eval/20140524/makestuff/libs/libutpp/Checks.h **** 
  53:/home/gani/eval/20140524/makestuff/libs/libutpp/Checks.h ****         results.OnTestFailure(details, stream.GetText());
  54:/home/gani/eval/20140524/makestuff/libs/libutpp/Checks.h ****     }
  55:/home/gani/eval/20140524/makestuff/libs/libutpp/Checks.h **** }
  56:/home/gani/eval/20140524/makestuff/libs/libutpp/Checks.h **** 
  57:/home/gani/eval/20140524/makestuff/libs/libutpp/Checks.h **** 
  58:/home/gani/eval/20140524/makestuff/libs/libutpp/Checks.h **** template< typename Expected, typename Actual >
  59:/home/gani/eval/20140524/makestuff/libs/libutpp/Checks.h **** void CheckArrayEqual(TestResults& results, Expected const& expected, Actual const& actual,
 2871              		.loc 5 59 0
 2872              		.cfi_startproc
 2873              		.cfi_personality 0x9b,DW.ref.__gxx_personality_v0
 2874              		.cfi_lsda 0x1b,.LLSDA1211
 2875 0000 55       		pushq	%rbp
 2876              		.cfi_def_cfa_offset 16
 2877              		.cfi_offset 6, -16
 2878 0001 4889E5   		movq	%rsp, %rbp
 2879              		.cfi_def_cfa_register 6
 2880 0004 53       		pushq	%rbx
 2881 0005 4881ECE8 		subq	$488, %rsp
 2881      010000
 2882              		.cfi_offset 3, -24
 2883 000c 4889BD38 		movq	%rdi, -456(%rbp)
 2883      FEFFFF
 2884 0013 4889B530 		movq	%rsi, -464(%rbp)
 2884      FEFFFF
 2885 001a 48899528 		movq	%rdx, -472(%rbp)
 2885      FEFFFF
 2886 0021 898D24FE 		movl	%ecx, -476(%rbp)
 2886      FFFF
 2887 0027 4C898518 		movq	%r8, -488(%rbp)
 2887      FEFFFF
 2888              		.loc 5 59 0
 2889 002e 64488B04 		movq	%fs:40, %rax
 2889      25280000 
 2889      00
 2890 0037 488945E8 		movq	%rax, -24(%rbp)
 2891 003b 31C0     		xorl	%eax, %eax
  60:/home/gani/eval/20140524/makestuff/libs/libutpp/Checks.h ****                 int const count, TestDetails const& details)
  61:/home/gani/eval/20140524/makestuff/libs/libutpp/Checks.h **** {
  62:/home/gani/eval/20140524/makestuff/libs/libutpp/Checks.h ****     bool equal = true;
 2892              		.loc 5 62 0
 2893 003d C68543FE 		movb	$1, -445(%rbp)
 2893      FFFF01
 2894              	.LBB17:
  63:/home/gani/eval/20140524/makestuff/libs/libutpp/Checks.h ****     for (int i = 0; i < count; ++i)
 2895              		.loc 5 63 0
 2896 0044 C78544FE 		movl	$0, -444(%rbp)
 2896      FFFF0000 
 2896      0000
 2897              	.L178:
 2898              		.loc 5 63 0 is_stmt 0 discriminator 3
 2899 004e 8B8544FE 		movl	-444(%rbp), %eax
 2899      FFFF
 2900 0054 3B8524FE 		cmpl	-476(%rbp), %eax
 2900      FFFF
 2901 005a 7D5B     		jge	.L177
  64:/home/gani/eval/20140524/makestuff/libs/libutpp/Checks.h ****         equal &= (expected[i] == actual[i]);
 2902              		.loc 5 64 0 is_stmt 1 discriminator 2
 2903 005c 0FB69543 		movzbl	-445(%rbp), %edx
 2903      FEFFFF
 2904 0063 488B8530 		movq	-464(%rbp), %rax
 2904      FEFFFF
 2905 006a 488B08   		movq	(%rax), %rcx
 2906 006d 8B8544FE 		movl	-444(%rbp), %eax
 2906      FFFF
 2907 0073 4898     		cltq
 2908 0075 4801C8   		addq	%rcx, %rax
 2909 0078 0FB600   		movzbl	(%rax), %eax
 2910 007b 0FBEC8   		movsbl	%al, %ecx
 2911 007e 488B8528 		movq	-472(%rbp), %rax
 2911      FEFFFF
 2912 0085 488B30   		movq	(%rax), %rsi
 2913 0088 8B8544FE 		movl	-444(%rbp), %eax
 2913      FFFF
 2914 008e 4898     		cltq
 2915 0090 4801F0   		addq	%rsi, %rax
 2916 0093 0FB600   		movzbl	(%rax), %eax
 2917 0096 0FB6C0   		movzbl	%al, %eax
 2918 0099 39C1     		cmpl	%eax, %ecx
 2919 009b 0F94C0   		sete	%al
 2920 009e 0FB6C0   		movzbl	%al, %eax
 2921 00a1 21D0     		andl	%edx, %eax
 2922 00a3 85C0     		testl	%eax, %eax
 2923 00a5 0F95C0   		setne	%al
 2924 00a8 888543FE 		movb	%al, -445(%rbp)
 2924      FFFF
  63:/home/gani/eval/20140524/makestuff/libs/libutpp/Checks.h ****     for (int i = 0; i < count; ++i)
 2925              		.loc 5 63 0 discriminator 2
 2926 00ae 838544FE 		addl	$1, -444(%rbp)
 2926      FFFF01
 2927 00b5 EB97     		jmp	.L178
 2928              	.L177:
 2929              	.LBE17:
 2930              	.LBB18:
  65:/home/gani/eval/20140524/makestuff/libs/libutpp/Checks.h **** 
  66:/home/gani/eval/20140524/makestuff/libs/libutpp/Checks.h ****     if (!equal)
 2931              		.loc 5 66 0
 2932 00b7 0FB68543 		movzbl	-445(%rbp), %eax
 2932      FEFFFF
 2933 00be 83F001   		xorl	$1, %eax
 2934 00c1 84C0     		testb	%al, %al
 2935 00c3 0F846201 		je	.L187
 2935      0000
 2936              	.LBB19:
  67:/home/gani/eval/20140524/makestuff/libs/libutpp/Checks.h ****     {
  68:/home/gani/eval/20140524/makestuff/libs/libutpp/Checks.h ****         UnitTest::MemoryOutStream stream;
 2937              		.loc 5 68 0
 2938 00c9 488D8550 		leaq	-432(%rbp), %rax
 2938      FEFFFF
 2939 00d0 4889C7   		movq	%rax, %rdi
 2940              	.LEHB116:
 2941 00d3 E8000000 		call	_ZN8UnitTest15MemoryOutStreamC1Ev
 2941      00
 2942              	.LEHE116:
  69:/home/gani/eval/20140524/makestuff/libs/libutpp/Checks.h **** 
  70:/home/gani/eval/20140524/makestuff/libs/libutpp/Checks.h **** 		stream << "Expected [ ";
 2943              		.loc 5 70 0
 2944 00d8 488D8550 		leaq	-432(%rbp), %rax
 2944      FEFFFF
 2945 00df 488D3500 		leaq	.LC22(%rip), %rsi
 2945      000000
 2946 00e6 4889C7   		movq	%rax, %rdi
 2947              	.LEHB117:
 2948 00e9 E8000000 		call	_ZStlsISt11char_traitsIcEERSt13basic_ostreamIcT_ES5_PKc@PLT
 2948      00
 2949              	.LBB20:
  71:/home/gani/eval/20140524/makestuff/libs/libutpp/Checks.h **** 
  72:/home/gani/eval/20140524/makestuff/libs/libutpp/Checks.h **** 		for (int expectedIndex = 0; expectedIndex < count; ++expectedIndex)
 2950              		.loc 5 72 0
 2951 00ee C78548FE 		movl	$0, -440(%rbp)
 2951      FFFF0000 
 2951      0000
 2952              	.L181:
 2953              		.loc 5 72 0 is_stmt 0 discriminator 1
 2954 00f8 8B8548FE 		movl	-440(%rbp), %eax
 2954      FFFF
 2955 00fe 3B8524FE 		cmpl	-476(%rbp), %eax
 2955      FFFF
 2956 0104 7D44     		jge	.L180
  73:/home/gani/eval/20140524/makestuff/libs/libutpp/Checks.h ****             stream << expected[expectedIndex] << " ";
 2957              		.loc 5 73 0 is_stmt 1
 2958 0106 488B8530 		movq	-464(%rbp), %rax
 2958      FEFFFF
 2959 010d 488B10   		movq	(%rax), %rdx
 2960 0110 8B8548FE 		movl	-440(%rbp), %eax
 2960      FFFF
 2961 0116 4898     		cltq
 2962 0118 4801D0   		addq	%rdx, %rax
 2963 011b 0FB600   		movzbl	(%rax), %eax
 2964 011e 0FBED0   		movsbl	%al, %edx
 2965 0121 488D8550 		leaq	-432(%rbp), %rax
 2965      FEFFFF
 2966 0128 89D6     		movl	%edx, %esi
 2967 012a 4889C7   		movq	%rax, %rdi
 2968 012d E8000000 		call	_ZStlsISt11char_traitsIcEERSt13basic_ostreamIcT_ES5_c@PLT
 2968      00
 2969 0132 488D3500 		leaq	.LC23(%rip), %rsi
 2969      000000
 2970 0139 4889C7   		movq	%rax, %rdi
 2971 013c E8000000 		call	_ZStlsISt11char_traitsIcEERSt13basic_ostreamIcT_ES5_PKc@PLT
 2971      00
  72:/home/gani/eval/20140524/makestuff/libs/libutpp/Checks.h ****             stream << expected[expectedIndex] << " ";
 2972              		.loc 5 72 0 discriminator 2
 2973 0141 838548FE 		addl	$1, -440(%rbp)
 2973      FFFF01
 2974 0148 EBAE     		jmp	.L181
 2975              	.L180:
 2976              	.LBE20:
  74:/home/gani/eval/20140524/makestuff/libs/libutpp/Checks.h **** 
  75:/home/gani/eval/20140524/makestuff/libs/libutpp/Checks.h **** 		stream << "] but was [ ";
 2977              		.loc 5 75 0
 2978 014a 488D8550 		leaq	-432(%rbp), %rax
 2978      FEFFFF
 2979 0151 488D3500 		leaq	.LC24(%rip), %rsi
 2979      000000
 2980 0158 4889C7   		movq	%rax, %rdi
 2981 015b E8000000 		call	_ZStlsISt11char_traitsIcEERSt13basic_ostreamIcT_ES5_PKc@PLT
 2981      00
 2982              	.LBB21:
  76:/home/gani/eval/20140524/makestuff/libs/libutpp/Checks.h **** 
  77:/home/gani/eval/20140524/makestuff/libs/libutpp/Checks.h **** 		for (int actualIndex = 0; actualIndex < count; ++actualIndex)
 2983              		.loc 5 77 0
 2984 0160 C7854CFE 		movl	$0, -436(%rbp)
 2984      FFFF0000 
 2984      0000
 2985              	.L183:
 2986              		.loc 5 77 0 is_stmt 0 discriminator 1
 2987 016a 8B854CFE 		movl	-436(%rbp), %eax
 2987      FFFF
 2988 0170 3B8524FE 		cmpl	-476(%rbp), %eax
 2988      FFFF
 2989 0176 7D44     		jge	.L182
  78:/home/gani/eval/20140524/makestuff/libs/libutpp/Checks.h ****             stream << actual[actualIndex] << " ";
 2990              		.loc 5 78 0 is_stmt 1
 2991 0178 488B8528 		movq	-472(%rbp), %rax
 2991      FEFFFF
 2992 017f 488B10   		movq	(%rax), %rdx
 2993 0182 8B854CFE 		movl	-436(%rbp), %eax
 2993      FFFF
 2994 0188 4898     		cltq
 2995 018a 4801D0   		addq	%rdx, %rax
 2996 018d 0FB600   		movzbl	(%rax), %eax
 2997 0190 0FB6D0   		movzbl	%al, %edx
 2998 0193 488D8550 		leaq	-432(%rbp), %rax
 2998      FEFFFF
 2999 019a 89D6     		movl	%edx, %esi
 3000 019c 4889C7   		movq	%rax, %rdi
 3001 019f E8000000 		call	_ZStlsISt11char_traitsIcEERSt13basic_ostreamIcT_ES5_h@PLT
 3001      00
 3002 01a4 488D3500 		leaq	.LC23(%rip), %rsi
 3002      000000
 3003 01ab 4889C7   		movq	%rax, %rdi
 3004 01ae E8000000 		call	_ZStlsISt11char_traitsIcEERSt13basic_ostreamIcT_ES5_PKc@PLT
 3004      00
  77:/home/gani/eval/20140524/makestuff/libs/libutpp/Checks.h ****             stream << actual[actualIndex] << " ";
 3005              		.loc 5 77 0 discriminator 2
 3006 01b3 83854CFE 		addl	$1, -436(%rbp)
 3006      FFFF01
 3007 01ba EBAE     		jmp	.L183
 3008              	.L182:
 3009              	.LBE21:
  79:/home/gani/eval/20140524/makestuff/libs/libutpp/Checks.h **** 
  80:/home/gani/eval/20140524/makestuff/libs/libutpp/Checks.h **** 		stream << "]";
 3010              		.loc 5 80 0
 3011 01bc 488D8550 		leaq	-432(%rbp), %rax
 3011      FEFFFF
 3012 01c3 488D3500 		leaq	.LC25(%rip), %rsi
 3012      000000
 3013 01ca 4889C7   		movq	%rax, %rdi
 3014 01cd E8000000 		call	_ZStlsISt11char_traitsIcEERSt13basic_ostreamIcT_ES5_PKc@PLT
 3014      00
  81:/home/gani/eval/20140524/makestuff/libs/libutpp/Checks.h **** 
  82:/home/gani/eval/20140524/makestuff/libs/libutpp/Checks.h ****         results.OnTestFailure(details, stream.GetText());
 3015              		.loc 5 82 0
 3016 01d2 488D8550 		leaq	-432(%rbp), %rax
 3016      FEFFFF
 3017 01d9 4889C7   		movq	%rax, %rdi
 3018 01dc E8000000 		call	_ZNK8UnitTest15MemoryOutStream7GetTextEv@PLT
 3018      00
 3019 01e1 4889C2   		movq	%rax, %rdx
 3020 01e4 488B8D18 		movq	-488(%rbp), %rcx
 3020      FEFFFF
 3021 01eb 488B8538 		movq	-456(%rbp), %rax
 3021      FEFFFF
 3022 01f2 4889CE   		movq	%rcx, %rsi
 3023 01f5 4889C7   		movq	%rax, %rdi
 3024 01f8 E8000000 		call	_ZN8UnitTest11TestResults13OnTestFailureERKNS_11TestDetailsEPKc@PLT
 3024      00
 3025              	.LEHE117:
  68:/home/gani/eval/20140524/makestuff/libs/libutpp/Checks.h **** 
 3026              		.loc 5 68 0
 3027 01fd 488D8550 		leaq	-432(%rbp), %rax
 3027      FEFFFF
 3028 0204 4889C7   		movq	%rax, %rdi
 3029              	.LEHB118:
 3030 0207 E8000000 		call	_ZN8UnitTest15MemoryOutStreamD1Ev
 3030      00
 3031              	.LEHE118:
 3032              	.LBE19:
 3033              	.LBE18:
  83:/home/gani/eval/20140524/makestuff/libs/libutpp/Checks.h ****     }
  84:/home/gani/eval/20140524/makestuff/libs/libutpp/Checks.h **** }
 3034              		.loc 5 84 0
 3035 020c EB1D     		jmp	.L187
 3036              	.L186:
 3037 020e 4889C3   		movq	%rax, %rbx
 3038              	.LBB23:
 3039              	.LBB22:
  68:/home/gani/eval/20140524/makestuff/libs/libutpp/Checks.h **** 
 3040              		.loc 5 68 0
 3041 0211 488D8550 		leaq	-432(%rbp), %rax
 3041      FEFFFF
 3042 0218 4889C7   		movq	%rax, %rdi
 3043 021b E8000000 		call	_ZN8UnitTest15MemoryOutStreamD1Ev
 3043      00
 3044 0220 4889D8   		movq	%rbx, %rax
 3045 0223 4889C7   		movq	%rax, %rdi
 3046              	.LEHB119:
 3047 0226 E8000000 		call	_Unwind_Resume@PLT
 3047      00
 3048              	.LEHE119:
 3049              	.L187:
 3050              	.LBE22:
 3051              	.LBE23:
 3052              		.loc 5 84 0
 3053 022b 90       		nop
 3054 022c 488B45E8 		movq	-24(%rbp), %rax
 3055 0230 64483304 		xorq	%fs:40, %rax
 3055      25280000 
 3055      00
 3056 0239 7405     		je	.L185
 3057 023b E8000000 		call	__stack_chk_fail@PLT
 3057      00
 3058              	.L185:
 3059 0240 4881C4E8 		addq	$488, %rsp
 3059      010000
 3060 0247 5B       		popq	%rbx
 3061 0248 5D       		popq	%rbp
 3062              		.cfi_def_cfa 7, 8
 3063 0249 C3       		ret
 3064              		.cfi_endproc
 3065              	.LFE1211:
 3066              		.section	.gcc_except_table
 3067              	.LLSDA1211:
 3068 02b4 FF       		.byte	0xff
 3069 02b5 FF       		.byte	0xff
 3070 02b6 01       		.byte	0x1
 3071 02b7 16       		.uleb128 .LLSDACSE1211-.LLSDACSB1211
 3072              	.LLSDACSB1211:
 3073 02b8 D301     		.uleb128 .LEHB116-.LFB1211
 3074 02ba 05       		.uleb128 .LEHE116-.LEHB116
 3075 02bb 00       		.uleb128 0
 3076 02bc 00       		.uleb128 0
 3077 02bd E901     		.uleb128 .LEHB117-.LFB1211
 3078 02bf 9402     		.uleb128 .LEHE117-.LEHB117
 3079 02c1 8E04     		.uleb128 .L186-.LFB1211
 3080 02c3 00       		.uleb128 0
 3081 02c4 8704     		.uleb128 .LEHB118-.LFB1211
 3082 02c6 05       		.uleb128 .LEHE118-.LEHB118
 3083 02c7 00       		.uleb128 0
 3084 02c8 00       		.uleb128 0
 3085 02c9 A604     		.uleb128 .LEHB119-.LFB1211
 3086 02cb 05       		.uleb128 .LEHE119-.LEHB119
 3087 02cc 00       		.uleb128 0
 3088 02cd 00       		.uleb128 0
 3089              	.LLSDACSE1211:
 3090              		.section	.text._ZN8UnitTest15CheckArrayEqualIPKcPhEEvRNS_11TestResultsERKT_RKT0_iRKNS_11TestDetail
 3092              		.section	.text._ZN8UnitTest5CheckIbEEbT_,"axG",@progbits,_ZN8UnitTest5CheckIbEEbT_,comdat
 3093              		.weak	_ZN8UnitTest5CheckIbEEbT_
 3095              	_ZN8UnitTest5CheckIbEEbT_:
 3096              	.LFB1221:
  12:/home/gani/eval/20140524/makestuff/libs/libutpp/Checks.h **** {
 3097              		.loc 5 12 0
 3098              		.cfi_startproc
 3099 0000 55       		pushq	%rbp
 3100              		.cfi_def_cfa_offset 16
 3101              		.cfi_offset 6, -16
 3102 0001 4889E5   		movq	%rsp, %rbp
 3103              		.cfi_def_cfa_register 6
 3104 0004 89F8     		movl	%edi, %eax
 3105 0006 8845FC   		movb	%al, -4(%rbp)
  14:/home/gani/eval/20140524/makestuff/libs/libutpp/Checks.h **** }
 3106              		.loc 5 14 0
 3107 0009 0FB645FC 		movzbl	-4(%rbp), %eax
  15:/home/gani/eval/20140524/makestuff/libs/libutpp/Checks.h **** 
 3108              		.loc 5 15 0
 3109 000d 5D       		popq	%rbp
 3110              		.cfi_def_cfa 7, 8
 3111 000e C3       		ret
 3112              		.cfi_endproc
 3113              	.LFE1221:
 3115              		.section	.text._ZNKSt4fposI11__mbstate_tEcvlEv,"axG",@progbits,_ZNKSt4fposI11__mbstate_tEcvlEv,com
 3116              		.align 2
 3117              		.weak	_ZNKSt4fposI11__mbstate_tEcvlEv
 3119              	_ZNKSt4fposI11__mbstate_tEcvlEv:
 3120              	.LFB1222:
 3121              		.file 6 "/usr/include/c++/7/bits/postypes.h"
   1:/usr/include/c++/7/bits/postypes.h **** // Position types -*- C++ -*-
   2:/usr/include/c++/7/bits/postypes.h **** 
   3:/usr/include/c++/7/bits/postypes.h **** // Copyright (C) 1997-2017 Free Software Foundation, Inc.
   4:/usr/include/c++/7/bits/postypes.h **** //
   5:/usr/include/c++/7/bits/postypes.h **** // This file is part of the GNU ISO C++ Library.  This library is free
   6:/usr/include/c++/7/bits/postypes.h **** // software; you can redistribute it and/or modify it under the
   7:/usr/include/c++/7/bits/postypes.h **** // terms of the GNU General Public License as published by the
   8:/usr/include/c++/7/bits/postypes.h **** // Free Software Foundation; either version 3, or (at your option)
   9:/usr/include/c++/7/bits/postypes.h **** // any later version.
  10:/usr/include/c++/7/bits/postypes.h **** 
  11:/usr/include/c++/7/bits/postypes.h **** // This library is distributed in the hope that it will be useful,
  12:/usr/include/c++/7/bits/postypes.h **** // but WITHOUT ANY WARRANTY; without even the implied warranty of
  13:/usr/include/c++/7/bits/postypes.h **** // MERCHANTABILITY or FITNESS FOR A PARTICULAR PURPOSE.  See the
  14:/usr/include/c++/7/bits/postypes.h **** // GNU General Public License for more details.
  15:/usr/include/c++/7/bits/postypes.h **** 
  16:/usr/include/c++/7/bits/postypes.h **** // Under Section 7 of GPL version 3, you are granted additional
  17:/usr/include/c++/7/bits/postypes.h **** // permissions described in the GCC Runtime Library Exception, version
  18:/usr/include/c++/7/bits/postypes.h **** // 3.1, as published by the Free Software Foundation.
  19:/usr/include/c++/7/bits/postypes.h **** 
  20:/usr/include/c++/7/bits/postypes.h **** // You should have received a copy of the GNU General Public License and
  21:/usr/include/c++/7/bits/postypes.h **** // a copy of the GCC Runtime Library Exception along with this program;
  22:/usr/include/c++/7/bits/postypes.h **** // see the files COPYING3 and COPYING.RUNTIME respectively.  If not, see
  23:/usr/include/c++/7/bits/postypes.h **** // <http://www.gnu.org/licenses/>.
  24:/usr/include/c++/7/bits/postypes.h **** 
  25:/usr/include/c++/7/bits/postypes.h **** /** @file bits/postypes.h
  26:/usr/include/c++/7/bits/postypes.h ****  *  This is an internal header file, included by other library headers.
  27:/usr/include/c++/7/bits/postypes.h ****  *  Do not attempt to use it directly. @headername{iosfwd}
  28:/usr/include/c++/7/bits/postypes.h ****  */
  29:/usr/include/c++/7/bits/postypes.h **** 
  30:/usr/include/c++/7/bits/postypes.h **** //
  31:/usr/include/c++/7/bits/postypes.h **** // ISO C++ 14882: 27.4.1 - Types
  32:/usr/include/c++/7/bits/postypes.h **** // ISO C++ 14882: 27.4.3 - Template class fpos
  33:/usr/include/c++/7/bits/postypes.h **** //
  34:/usr/include/c++/7/bits/postypes.h **** 
  35:/usr/include/c++/7/bits/postypes.h **** #ifndef _GLIBCXX_POSTYPES_H
  36:/usr/include/c++/7/bits/postypes.h **** #define _GLIBCXX_POSTYPES_H 1
  37:/usr/include/c++/7/bits/postypes.h **** 
  38:/usr/include/c++/7/bits/postypes.h **** #pragma GCC system_header
  39:/usr/include/c++/7/bits/postypes.h **** 
  40:/usr/include/c++/7/bits/postypes.h **** #include <cwchar> // For mbstate_t
  41:/usr/include/c++/7/bits/postypes.h **** 
  42:/usr/include/c++/7/bits/postypes.h **** // XXX If <stdint.h> is really needed, make sure to define the macros
  43:/usr/include/c++/7/bits/postypes.h **** // before including it, in order not to break <tr1/cstdint> (and <cstdint>
  44:/usr/include/c++/7/bits/postypes.h **** // in C++11).  Reconsider all this as soon as possible...
  45:/usr/include/c++/7/bits/postypes.h **** #if (defined(_GLIBCXX_HAVE_INT64_T) && !defined(_GLIBCXX_HAVE_INT64_T_LONG) \
  46:/usr/include/c++/7/bits/postypes.h ****      && !defined(_GLIBCXX_HAVE_INT64_T_LONG_LONG))
  47:/usr/include/c++/7/bits/postypes.h **** 
  48:/usr/include/c++/7/bits/postypes.h **** #ifndef __STDC_LIMIT_MACROS
  49:/usr/include/c++/7/bits/postypes.h **** # define _UNDEF__STDC_LIMIT_MACROS
  50:/usr/include/c++/7/bits/postypes.h **** # define __STDC_LIMIT_MACROS
  51:/usr/include/c++/7/bits/postypes.h **** #endif
  52:/usr/include/c++/7/bits/postypes.h **** #ifndef __STDC_CONSTANT_MACROS
  53:/usr/include/c++/7/bits/postypes.h **** # define _UNDEF__STDC_CONSTANT_MACROS
  54:/usr/include/c++/7/bits/postypes.h **** # define __STDC_CONSTANT_MACROS
  55:/usr/include/c++/7/bits/postypes.h **** #endif
  56:/usr/include/c++/7/bits/postypes.h **** #include <stdint.h> // For int64_t
  57:/usr/include/c++/7/bits/postypes.h **** #ifdef _UNDEF__STDC_LIMIT_MACROS
  58:/usr/include/c++/7/bits/postypes.h **** # undef __STDC_LIMIT_MACROS
  59:/usr/include/c++/7/bits/postypes.h **** # undef _UNDEF__STDC_LIMIT_MACROS
  60:/usr/include/c++/7/bits/postypes.h **** #endif
  61:/usr/include/c++/7/bits/postypes.h **** #ifdef _UNDEF__STDC_CONSTANT_MACROS
  62:/usr/include/c++/7/bits/postypes.h **** # undef __STDC_CONSTANT_MACROS
  63:/usr/include/c++/7/bits/postypes.h **** # undef _UNDEF__STDC_CONSTANT_MACROS
  64:/usr/include/c++/7/bits/postypes.h **** #endif
  65:/usr/include/c++/7/bits/postypes.h **** 
  66:/usr/include/c++/7/bits/postypes.h **** #endif
  67:/usr/include/c++/7/bits/postypes.h **** 
  68:/usr/include/c++/7/bits/postypes.h **** namespace std _GLIBCXX_VISIBILITY(default)
  69:/usr/include/c++/7/bits/postypes.h **** {
  70:/usr/include/c++/7/bits/postypes.h **** _GLIBCXX_BEGIN_NAMESPACE_VERSION
  71:/usr/include/c++/7/bits/postypes.h **** 
  72:/usr/include/c++/7/bits/postypes.h ****   // The types streamoff, streampos and wstreampos and the class
  73:/usr/include/c++/7/bits/postypes.h ****   // template fpos<> are described in clauses 21.1.2, 21.1.3, 27.1.2,
  74:/usr/include/c++/7/bits/postypes.h ****   // 27.2, 27.4.1, 27.4.3 and D.6. Despite all this verbiage, the
  75:/usr/include/c++/7/bits/postypes.h ****   // behaviour of these types is mostly implementation defined or
  76:/usr/include/c++/7/bits/postypes.h ****   // unspecified. The behaviour in this implementation is as noted
  77:/usr/include/c++/7/bits/postypes.h ****   // below.
  78:/usr/include/c++/7/bits/postypes.h **** 
  79:/usr/include/c++/7/bits/postypes.h ****   /**
  80:/usr/include/c++/7/bits/postypes.h ****    *  @brief  Type used by fpos, char_traits<char>, and char_traits<wchar_t>.
  81:/usr/include/c++/7/bits/postypes.h ****    *
  82:/usr/include/c++/7/bits/postypes.h ****    *  In clauses 21.1.3.1 and 27.4.1 streamoff is described as an
  83:/usr/include/c++/7/bits/postypes.h ****    *  implementation defined type.
  84:/usr/include/c++/7/bits/postypes.h ****    *  Note: In versions of GCC up to and including GCC 3.3, streamoff
  85:/usr/include/c++/7/bits/postypes.h ****    *  was typedef long.
  86:/usr/include/c++/7/bits/postypes.h ****   */  
  87:/usr/include/c++/7/bits/postypes.h **** #ifdef _GLIBCXX_HAVE_INT64_T_LONG
  88:/usr/include/c++/7/bits/postypes.h ****   typedef long          streamoff;
  89:/usr/include/c++/7/bits/postypes.h **** #elif defined(_GLIBCXX_HAVE_INT64_T_LONG_LONG)
  90:/usr/include/c++/7/bits/postypes.h ****   typedef long long     streamoff;
  91:/usr/include/c++/7/bits/postypes.h **** #elif defined(_GLIBCXX_HAVE_INT64_T) 
  92:/usr/include/c++/7/bits/postypes.h ****   typedef int64_t       streamoff;
  93:/usr/include/c++/7/bits/postypes.h **** #else
  94:/usr/include/c++/7/bits/postypes.h ****   typedef long long     streamoff;
  95:/usr/include/c++/7/bits/postypes.h **** #endif
  96:/usr/include/c++/7/bits/postypes.h **** 
  97:/usr/include/c++/7/bits/postypes.h ****   /// Integral type for I/O operation counts and buffer sizes.
  98:/usr/include/c++/7/bits/postypes.h ****   typedef ptrdiff_t	streamsize; // Signed integral type
  99:/usr/include/c++/7/bits/postypes.h **** 
 100:/usr/include/c++/7/bits/postypes.h ****   /**
 101:/usr/include/c++/7/bits/postypes.h ****    *  @brief  Class representing stream positions.
 102:/usr/include/c++/7/bits/postypes.h ****    *
 103:/usr/include/c++/7/bits/postypes.h ****    *  The standard places no requirements upon the template parameter StateT.
 104:/usr/include/c++/7/bits/postypes.h ****    *  In this implementation StateT must be DefaultConstructible,
 105:/usr/include/c++/7/bits/postypes.h ****    *  CopyConstructible and Assignable.  The standard only requires that fpos
 106:/usr/include/c++/7/bits/postypes.h ****    *  should contain a member of type StateT. In this implementation it also
 107:/usr/include/c++/7/bits/postypes.h ****    *  contains an offset stored as a signed integer.
 108:/usr/include/c++/7/bits/postypes.h ****    *
 109:/usr/include/c++/7/bits/postypes.h ****    *  @param  StateT  Type passed to and returned from state().
 110:/usr/include/c++/7/bits/postypes.h ****    */
 111:/usr/include/c++/7/bits/postypes.h ****   template<typename _StateT>
 112:/usr/include/c++/7/bits/postypes.h ****     class fpos
 113:/usr/include/c++/7/bits/postypes.h ****     {
 114:/usr/include/c++/7/bits/postypes.h ****     private:
 115:/usr/include/c++/7/bits/postypes.h ****       streamoff	                _M_off;
 116:/usr/include/c++/7/bits/postypes.h ****       _StateT			_M_state;
 117:/usr/include/c++/7/bits/postypes.h **** 
 118:/usr/include/c++/7/bits/postypes.h ****     public:
 119:/usr/include/c++/7/bits/postypes.h ****       // The standard doesn't require that fpos objects can be default
 120:/usr/include/c++/7/bits/postypes.h ****       // constructed. This implementation provides a default
 121:/usr/include/c++/7/bits/postypes.h ****       // constructor that initializes the offset to 0 and default
 122:/usr/include/c++/7/bits/postypes.h ****       // constructs the state.
 123:/usr/include/c++/7/bits/postypes.h ****       fpos()
 124:/usr/include/c++/7/bits/postypes.h ****       : _M_off(0), _M_state() { }
 125:/usr/include/c++/7/bits/postypes.h **** 
 126:/usr/include/c++/7/bits/postypes.h ****       // The standard requires that fpos objects can be constructed
 127:/usr/include/c++/7/bits/postypes.h ****       // from streamoff objects using the constructor syntax, and
 128:/usr/include/c++/7/bits/postypes.h ****       // fails to give any meaningful semantics. In this
 129:/usr/include/c++/7/bits/postypes.h ****       // implementation implicit conversion is also allowed, and this
 130:/usr/include/c++/7/bits/postypes.h ****       // constructor stores the streamoff as the offset and default
 131:/usr/include/c++/7/bits/postypes.h ****       // constructs the state.
 132:/usr/include/c++/7/bits/postypes.h ****       /// Construct position from offset.
 133:/usr/include/c++/7/bits/postypes.h ****       fpos(streamoff __off)
 134:/usr/include/c++/7/bits/postypes.h ****       : _M_off(__off), _M_state() { }
 135:/usr/include/c++/7/bits/postypes.h **** 
 136:/usr/include/c++/7/bits/postypes.h ****       /// Convert to streamoff.
 137:/usr/include/c++/7/bits/postypes.h ****       operator streamoff() const { return _M_off; }
 3122              		.loc 6 137 0
 3123              		.cfi_startproc
 3124 0000 55       		pushq	%rbp
 3125              		.cfi_def_cfa_offset 16
 3126              		.cfi_offset 6, -16
 3127 0001 4889E5   		movq	%rsp, %rbp
 3128              		.cfi_def_cfa_register 6
 3129 0004 48897DF8 		movq	%rdi, -8(%rbp)
 3130              		.loc 6 137 0
 3131 0008 488B45F8 		movq	-8(%rbp), %rax
 3132 000c 488B00   		movq	(%rax), %rax
 3133 000f 5D       		popq	%rbp
 3134              		.cfi_def_cfa 7, 8
 3135 0010 C3       		ret
 3136              		.cfi_endproc
 3137              	.LFE1222:
 3139              		.section	.text._ZN8UnitTest15CheckArrayEqualIPKcPcEEvRNS_11TestResultsERKT_RKT0_iRKNS_11TestDetail
 3140              		.weak	_ZN8UnitTest15CheckArrayEqualIPKcPcEEvRNS_11TestResultsERKT_RKT0_iRKNS_11TestDetailsE
 3142              	_ZN8UnitTest15CheckArrayEqualIPKcPcEEvRNS_11TestResultsERKT_RKT0_iRKNS_11TestDetailsE:
 3143              	.LFB1224:
  59:/home/gani/eval/20140524/makestuff/libs/libutpp/Checks.h ****                 int const count, TestDetails const& details)
 3144              		.loc 5 59 0
 3145              		.cfi_startproc
 3146              		.cfi_personality 0x9b,DW.ref.__gxx_personality_v0
 3147              		.cfi_lsda 0x1b,.LLSDA1224
 3148 0000 55       		pushq	%rbp
 3149              		.cfi_def_cfa_offset 16
 3150              		.cfi_offset 6, -16
 3151 0001 4889E5   		movq	%rsp, %rbp
 3152              		.cfi_def_cfa_register 6
 3153 0004 53       		pushq	%rbx
 3154 0005 4881ECE8 		subq	$488, %rsp
 3154      010000
 3155              		.cfi_offset 3, -24
 3156 000c 4889BD38 		movq	%rdi, -456(%rbp)
 3156      FEFFFF
 3157 0013 4889B530 		movq	%rsi, -464(%rbp)
 3157      FEFFFF
 3158 001a 48899528 		movq	%rdx, -472(%rbp)
 3158      FEFFFF
 3159 0021 898D24FE 		movl	%ecx, -476(%rbp)
 3159      FFFF
 3160 0027 4C898518 		movq	%r8, -488(%rbp)
 3160      FEFFFF
  59:/home/gani/eval/20140524/makestuff/libs/libutpp/Checks.h ****                 int const count, TestDetails const& details)
 3161              		.loc 5 59 0
 3162 002e 64488B04 		movq	%fs:40, %rax
 3162      25280000 
 3162      00
 3163 0037 488945E8 		movq	%rax, -24(%rbp)
 3164 003b 31C0     		xorl	%eax, %eax
  62:/home/gani/eval/20140524/makestuff/libs/libutpp/Checks.h ****     for (int i = 0; i < count; ++i)
 3165              		.loc 5 62 0
 3166 003d C68543FE 		movb	$1, -445(%rbp)
 3166      FFFF01
 3167              	.LBB24:
  63:/home/gani/eval/20140524/makestuff/libs/libutpp/Checks.h ****         equal &= (expected[i] == actual[i]);
 3168              		.loc 5 63 0
 3169 0044 C78544FE 		movl	$0, -444(%rbp)
 3169      FFFF0000 
 3169      0000
 3170              	.L194:
  63:/home/gani/eval/20140524/makestuff/libs/libutpp/Checks.h ****         equal &= (expected[i] == actual[i]);
 3171              		.loc 5 63 0 is_stmt 0 discriminator 3
 3172 004e 8B8544FE 		movl	-444(%rbp), %eax
 3172      FFFF
 3173 0054 3B8524FE 		cmpl	-476(%rbp), %eax
 3173      FFFF
 3174 005a 7D55     		jge	.L193
  64:/home/gani/eval/20140524/makestuff/libs/libutpp/Checks.h **** 
 3175              		.loc 5 64 0 is_stmt 1 discriminator 2
 3176 005c 0FB69543 		movzbl	-445(%rbp), %edx
 3176      FEFFFF
 3177 0063 488B8530 		movq	-464(%rbp), %rax
 3177      FEFFFF
 3178 006a 488B08   		movq	(%rax), %rcx
 3179 006d 8B8544FE 		movl	-444(%rbp), %eax
 3179      FFFF
 3180 0073 4898     		cltq
 3181 0075 4801C8   		addq	%rcx, %rax
 3182 0078 0FB608   		movzbl	(%rax), %ecx
 3183 007b 488B8528 		movq	-472(%rbp), %rax
 3183      FEFFFF
 3184 0082 488B30   		movq	(%rax), %rsi
 3185 0085 8B8544FE 		movl	-444(%rbp), %eax
 3185      FFFF
 3186 008b 4898     		cltq
 3187 008d 4801F0   		addq	%rsi, %rax
 3188 0090 0FB600   		movzbl	(%rax), %eax
 3189 0093 38C1     		cmpb	%al, %cl
 3190 0095 0F94C0   		sete	%al
 3191 0098 0FB6C0   		movzbl	%al, %eax
 3192 009b 21D0     		andl	%edx, %eax
 3193 009d 85C0     		testl	%eax, %eax
 3194 009f 0F95C0   		setne	%al
 3195 00a2 888543FE 		movb	%al, -445(%rbp)
 3195      FFFF
  63:/home/gani/eval/20140524/makestuff/libs/libutpp/Checks.h ****         equal &= (expected[i] == actual[i]);
 3196              		.loc 5 63 0 discriminator 2
 3197 00a8 838544FE 		addl	$1, -444(%rbp)
 3197      FFFF01
 3198 00af EB9D     		jmp	.L194
 3199              	.L193:
 3200              	.LBE24:
 3201              	.LBB25:
  66:/home/gani/eval/20140524/makestuff/libs/libutpp/Checks.h ****     {
 3202              		.loc 5 66 0
 3203 00b1 0FB68543 		movzbl	-445(%rbp), %eax
 3203      FEFFFF
 3204 00b8 83F001   		xorl	$1, %eax
 3205 00bb 84C0     		testb	%al, %al
 3206 00bd 0F846201 		je	.L203
 3206      0000
 3207              	.LBB26:
  68:/home/gani/eval/20140524/makestuff/libs/libutpp/Checks.h **** 
 3208              		.loc 5 68 0
 3209 00c3 488D8550 		leaq	-432(%rbp), %rax
 3209      FEFFFF
 3210 00ca 4889C7   		movq	%rax, %rdi
 3211              	.LEHB120:
 3212 00cd E8000000 		call	_ZN8UnitTest15MemoryOutStreamC1Ev
 3212      00
 3213              	.LEHE120:
  70:/home/gani/eval/20140524/makestuff/libs/libutpp/Checks.h **** 
 3214              		.loc 5 70 0
 3215 00d2 488D8550 		leaq	-432(%rbp), %rax
 3215      FEFFFF
 3216 00d9 488D3500 		leaq	.LC22(%rip), %rsi
 3216      000000
 3217 00e0 4889C7   		movq	%rax, %rdi
 3218              	.LEHB121:
 3219 00e3 E8000000 		call	_ZStlsISt11char_traitsIcEERSt13basic_ostreamIcT_ES5_PKc@PLT
 3219      00
 3220              	.LBB27:
  72:/home/gani/eval/20140524/makestuff/libs/libutpp/Checks.h ****             stream << expected[expectedIndex] << " ";
 3221              		.loc 5 72 0
 3222 00e8 C78548FE 		movl	$0, -440(%rbp)
 3222      FFFF0000 
 3222      0000
 3223              	.L197:
  72:/home/gani/eval/20140524/makestuff/libs/libutpp/Checks.h ****             stream << expected[expectedIndex] << " ";
 3224              		.loc 5 72 0 is_stmt 0 discriminator 1
 3225 00f2 8B8548FE 		movl	-440(%rbp), %eax
 3225      FFFF
 3226 00f8 3B8524FE 		cmpl	-476(%rbp), %eax
 3226      FFFF
 3227 00fe 7D44     		jge	.L196
  73:/home/gani/eval/20140524/makestuff/libs/libutpp/Checks.h **** 
 3228              		.loc 5 73 0 is_stmt 1
 3229 0100 488B8530 		movq	-464(%rbp), %rax
 3229      FEFFFF
 3230 0107 488B10   		movq	(%rax), %rdx
 3231 010a 8B8548FE 		movl	-440(%rbp), %eax
 3231      FFFF
 3232 0110 4898     		cltq
 3233 0112 4801D0   		addq	%rdx, %rax
 3234 0115 0FB600   		movzbl	(%rax), %eax
 3235 0118 0FBED0   		movsbl	%al, %edx
 3236 011b 488D8550 		leaq	-432(%rbp), %rax
 3236      FEFFFF
 3237 0122 89D6     		movl	%edx, %esi
 3238 0124 4889C7   		movq	%rax, %rdi
 3239 0127 E8000000 		call	_ZStlsISt11char_traitsIcEERSt13basic_ostreamIcT_ES5_c@PLT
 3239      00
 3240 012c 488D3500 		leaq	.LC23(%rip), %rsi
 3240      000000
 3241 0133 4889C7   		movq	%rax, %rdi
 3242 0136 E8000000 		call	_ZStlsISt11char_traitsIcEERSt13basic_ostreamIcT_ES5_PKc@PLT
 3242      00
  72:/home/gani/eval/20140524/makestuff/libs/libutpp/Checks.h ****             stream << expected[expectedIndex] << " ";
 3243              		.loc 5 72 0 discriminator 2
 3244 013b 838548FE 		addl	$1, -440(%rbp)
 3244      FFFF01
 3245 0142 EBAE     		jmp	.L197
 3246              	.L196:
 3247              	.LBE27:
  75:/home/gani/eval/20140524/makestuff/libs/libutpp/Checks.h **** 
 3248              		.loc 5 75 0
 3249 0144 488D8550 		leaq	-432(%rbp), %rax
 3249      FEFFFF
 3250 014b 488D3500 		leaq	.LC24(%rip), %rsi
 3250      000000
 3251 0152 4889C7   		movq	%rax, %rdi
 3252 0155 E8000000 		call	_ZStlsISt11char_traitsIcEERSt13basic_ostreamIcT_ES5_PKc@PLT
 3252      00
 3253              	.LBB28:
  77:/home/gani/eval/20140524/makestuff/libs/libutpp/Checks.h ****             stream << actual[actualIndex] << " ";
 3254              		.loc 5 77 0
 3255 015a C7854CFE 		movl	$0, -436(%rbp)
 3255      FFFF0000 
 3255      0000
 3256              	.L199:
  77:/home/gani/eval/20140524/makestuff/libs/libutpp/Checks.h ****             stream << actual[actualIndex] << " ";
 3257              		.loc 5 77 0 is_stmt 0 discriminator 1
 3258 0164 8B854CFE 		movl	-436(%rbp), %eax
 3258      FFFF
 3259 016a 3B8524FE 		cmpl	-476(%rbp), %eax
 3259      FFFF
 3260 0170 7D44     		jge	.L198
  78:/home/gani/eval/20140524/makestuff/libs/libutpp/Checks.h **** 
 3261              		.loc 5 78 0 is_stmt 1
 3262 0172 488B8528 		movq	-472(%rbp), %rax
 3262      FEFFFF
 3263 0179 488B10   		movq	(%rax), %rdx
 3264 017c 8B854CFE 		movl	-436(%rbp), %eax
 3264      FFFF
 3265 0182 4898     		cltq
 3266 0184 4801D0   		addq	%rdx, %rax
 3267 0187 0FB600   		movzbl	(%rax), %eax
 3268 018a 0FBED0   		movsbl	%al, %edx
 3269 018d 488D8550 		leaq	-432(%rbp), %rax
 3269      FEFFFF
 3270 0194 89D6     		movl	%edx, %esi
 3271 0196 4889C7   		movq	%rax, %rdi
 3272 0199 E8000000 		call	_ZStlsISt11char_traitsIcEERSt13basic_ostreamIcT_ES5_c@PLT
 3272      00
 3273 019e 488D3500 		leaq	.LC23(%rip), %rsi
 3273      000000
 3274 01a5 4889C7   		movq	%rax, %rdi
 3275 01a8 E8000000 		call	_ZStlsISt11char_traitsIcEERSt13basic_ostreamIcT_ES5_PKc@PLT
 3275      00
  77:/home/gani/eval/20140524/makestuff/libs/libutpp/Checks.h ****             stream << actual[actualIndex] << " ";
 3276              		.loc 5 77 0 discriminator 2
 3277 01ad 83854CFE 		addl	$1, -436(%rbp)
 3277      FFFF01
 3278 01b4 EBAE     		jmp	.L199
 3279              	.L198:
 3280              	.LBE28:
  80:/home/gani/eval/20140524/makestuff/libs/libutpp/Checks.h **** 
 3281              		.loc 5 80 0
 3282 01b6 488D8550 		leaq	-432(%rbp), %rax
 3282      FEFFFF
 3283 01bd 488D3500 		leaq	.LC25(%rip), %rsi
 3283      000000
 3284 01c4 4889C7   		movq	%rax, %rdi
 3285 01c7 E8000000 		call	_ZStlsISt11char_traitsIcEERSt13basic_ostreamIcT_ES5_PKc@PLT
 3285      00
  82:/home/gani/eval/20140524/makestuff/libs/libutpp/Checks.h ****     }
 3286              		.loc 5 82 0
 3287 01cc 488D8550 		leaq	-432(%rbp), %rax
 3287      FEFFFF
 3288 01d3 4889C7   		movq	%rax, %rdi
 3289 01d6 E8000000 		call	_ZNK8UnitTest15MemoryOutStream7GetTextEv@PLT
 3289      00
 3290 01db 4889C2   		movq	%rax, %rdx
 3291 01de 488B8D18 		movq	-488(%rbp), %rcx
 3291      FEFFFF
 3292 01e5 488B8538 		movq	-456(%rbp), %rax
 3292      FEFFFF
 3293 01ec 4889CE   		movq	%rcx, %rsi
 3294 01ef 4889C7   		movq	%rax, %rdi
 3295 01f2 E8000000 		call	_ZN8UnitTest11TestResults13OnTestFailureERKNS_11TestDetailsEPKc@PLT
 3295      00
 3296              	.LEHE121:
  68:/home/gani/eval/20140524/makestuff/libs/libutpp/Checks.h **** 
 3297              		.loc 5 68 0
 3298 01f7 488D8550 		leaq	-432(%rbp), %rax
 3298      FEFFFF
 3299 01fe 4889C7   		movq	%rax, %rdi
 3300              	.LEHB122:
 3301 0201 E8000000 		call	_ZN8UnitTest15MemoryOutStreamD1Ev
 3301      00
 3302              	.LEHE122:
 3303              	.LBE26:
 3304              	.LBE25:
 3305              		.loc 5 84 0
 3306 0206 EB1D     		jmp	.L203
 3307              	.L202:
 3308 0208 4889C3   		movq	%rax, %rbx
 3309              	.LBB30:
 3310              	.LBB29:
  68:/home/gani/eval/20140524/makestuff/libs/libutpp/Checks.h **** 
 3311              		.loc 5 68 0
 3312 020b 488D8550 		leaq	-432(%rbp), %rax
 3312      FEFFFF
 3313 0212 4889C7   		movq	%rax, %rdi
 3314 0215 E8000000 		call	_ZN8UnitTest15MemoryOutStreamD1Ev
 3314      00
 3315 021a 4889D8   		movq	%rbx, %rax
 3316 021d 4889C7   		movq	%rax, %rdi
 3317              	.LEHB123:
 3318 0220 E8000000 		call	_Unwind_Resume@PLT
 3318      00
 3319              	.LEHE123:
 3320              	.L203:
 3321              	.LBE29:
 3322              	.LBE30:
 3323              		.loc 5 84 0
 3324 0225 90       		nop
 3325 0226 488B45E8 		movq	-24(%rbp), %rax
 3326 022a 64483304 		xorq	%fs:40, %rax
 3326      25280000 
 3326      00
 3327 0233 7405     		je	.L201
 3328 0235 E8000000 		call	__stack_chk_fail@PLT
 3328      00
 3329              	.L201:
 3330 023a 4881C4E8 		addq	$488, %rsp
 3330      010000
 3331 0241 5B       		popq	%rbx
 3332 0242 5D       		popq	%rbp
 3333              		.cfi_def_cfa 7, 8
 3334 0243 C3       		ret
 3335              		.cfi_endproc
 3336              	.LFE1224:
 3337              		.section	.gcc_except_table
 3338              	.LLSDA1224:
 3339 02ce FF       		.byte	0xff
 3340 02cf FF       		.byte	0xff
 3341 02d0 01       		.byte	0x1
 3342 02d1 16       		.uleb128 .LLSDACSE1224-.LLSDACSB1224
 3343              	.LLSDACSB1224:
 3344 02d2 CD01     		.uleb128 .LEHB120-.LFB1224
 3345 02d4 05       		.uleb128 .LEHE120-.LEHB120
 3346 02d5 00       		.uleb128 0
 3347 02d6 00       		.uleb128 0
 3348 02d7 E301     		.uleb128 .LEHB121-.LFB1224
 3349 02d9 9402     		.uleb128 .LEHE121-.LEHB121
 3350 02db 8804     		.uleb128 .L202-.LFB1224
 3351 02dd 00       		.uleb128 0
 3352 02de 8104     		.uleb128 .LEHB122-.LFB1224
 3353 02e0 05       		.uleb128 .LEHE122-.LEHB122
 3354 02e1 00       		.uleb128 0
 3355 02e2 00       		.uleb128 0
 3356 02e3 A004     		.uleb128 .LEHB123-.LFB1224
 3357 02e5 05       		.uleb128 .LEHE123-.LEHB123
 3358 02e6 00       		.uleb128 0
 3359 02e7 00       		.uleb128 0
 3360              	.LLSDACSE1224:
 3361              		.section	.text._ZN8UnitTest15CheckArrayEqualIPKcPcEEvRNS_11TestResultsERKT_RKT0_iRKNS_11TestDetail
 3363              		.section	.text._ZN8UnitTest10CheckEqualIilEEvRNS_11TestResultsERKT_RKT0_RKNS_11TestDetailsE,"axG",
 3364              		.weak	_ZN8UnitTest10CheckEqualIilEEvRNS_11TestResultsERKT_RKT0_RKNS_11TestDetailsE
 3366              	_ZN8UnitTest10CheckEqualIilEEvRNS_11TestResultsERKT_RKT0_RKNS_11TestDetailsE:
 3367              	.LFB1225:
  19:/home/gani/eval/20140524/makestuff/libs/libutpp/Checks.h **** {
 3368              		.loc 5 19 0
 3369              		.cfi_startproc
 3370              		.cfi_personality 0x9b,DW.ref.__gxx_personality_v0
 3371              		.cfi_lsda 0x1b,.LLSDA1225
 3372 0000 55       		pushq	%rbp
 3373              		.cfi_def_cfa_offset 16
 3374              		.cfi_offset 6, -16
 3375 0001 4889E5   		movq	%rsp, %rbp
 3376              		.cfi_def_cfa_register 6
 3377 0004 53       		pushq	%rbx
 3378 0005 4881ECC8 		subq	$456, %rsp
 3378      010000
 3379              		.cfi_offset 3, -24
 3380 000c 4889BD48 		movq	%rdi, -440(%rbp)
 3380      FEFFFF
 3381 0013 4889B540 		movq	%rsi, -448(%rbp)
 3381      FEFFFF
 3382 001a 48899538 		movq	%rdx, -456(%rbp)
 3382      FEFFFF
 3383 0021 48898D30 		movq	%rcx, -464(%rbp)
 3383      FEFFFF
  19:/home/gani/eval/20140524/makestuff/libs/libutpp/Checks.h **** {
 3384              		.loc 5 19 0
 3385 0028 64488B04 		movq	%fs:40, %rax
 3385      25280000 
 3385      00
 3386 0031 488945E8 		movq	%rax, -24(%rbp)
 3387 0035 31C0     		xorl	%eax, %eax
 3388              	.LBB31:
  21:/home/gani/eval/20140524/makestuff/libs/libutpp/Checks.h ****     {
 3389              		.loc 5 21 0
 3390 0037 488B8540 		movq	-448(%rbp), %rax
 3390      FEFFFF
 3391 003e 8B00     		movl	(%rax), %eax
 3392 0040 4863D0   		movslq	%eax, %rdx
 3393 0043 488B8538 		movq	-456(%rbp), %rax
 3393      FEFFFF
 3394 004a 488B00   		movq	(%rax), %rax
 3395 004d 4839C2   		cmpq	%rax, %rdx
 3396 0050 0F84BB00 		je	.L209
 3396      0000
 3397              	.LBB32:
  23:/home/gani/eval/20140524/makestuff/libs/libutpp/Checks.h ****         stream << "Expected " << expected << " but was " << actual;
 3398              		.loc 5 23 0
 3399 0056 488D8550 		leaq	-432(%rbp), %rax
 3399      FEFFFF
 3400 005d 4889C7   		movq	%rax, %rdi
 3401              	.LEHB124:
 3402 0060 E8000000 		call	_ZN8UnitTest15MemoryOutStreamC1Ev
 3402      00
 3403              	.LEHE124:
  24:/home/gani/eval/20140524/makestuff/libs/libutpp/Checks.h **** 
 3404              		.loc 5 24 0
 3405 0065 488D8550 		leaq	-432(%rbp), %rax
 3405      FEFFFF
 3406 006c 488D3500 		leaq	.LC20(%rip), %rsi
 3406      000000
 3407 0073 4889C7   		movq	%rax, %rdi
 3408              	.LEHB125:
 3409 0076 E8000000 		call	_ZStlsISt11char_traitsIcEERSt13basic_ostreamIcT_ES5_PKc@PLT
 3409      00
 3410 007b 4889C2   		movq	%rax, %rdx
 3411 007e 488B8540 		movq	-448(%rbp), %rax
 3411      FEFFFF
 3412 0085 8B00     		movl	(%rax), %eax
 3413 0087 89C6     		movl	%eax, %esi
 3414 0089 4889D7   		movq	%rdx, %rdi
 3415 008c E8000000 		call	_ZNSolsEi@PLT
 3415      00
  24:/home/gani/eval/20140524/makestuff/libs/libutpp/Checks.h **** 
 3416              		.loc 5 24 0 is_stmt 0 discriminator 1
 3417 0091 488D3500 		leaq	.LC21(%rip), %rsi
 3417      000000
 3418 0098 4889C7   		movq	%rax, %rdi
 3419 009b E8000000 		call	_ZStlsISt11char_traitsIcEERSt13basic_ostreamIcT_ES5_PKc@PLT
 3419      00
  24:/home/gani/eval/20140524/makestuff/libs/libutpp/Checks.h **** 
 3420              		.loc 5 24 0 discriminator 2
 3421 00a0 4889C2   		movq	%rax, %rdx
 3422 00a3 488B8538 		movq	-456(%rbp), %rax
 3422      FEFFFF
 3423 00aa 488B00   		movq	(%rax), %rax
 3424 00ad 4889C6   		movq	%rax, %rsi
 3425 00b0 4889D7   		movq	%rdx, %rdi
 3426 00b3 E8000000 		call	_ZNSolsEl@PLT
 3426      00
  26:/home/gani/eval/20140524/makestuff/libs/libutpp/Checks.h ****     }
 3427              		.loc 5 26 0 is_stmt 1
 3428 00b8 488D8550 		leaq	-432(%rbp), %rax
 3428      FEFFFF
 3429 00bf 4889C7   		movq	%rax, %rdi
 3430 00c2 E8000000 		call	_ZNK8UnitTest15MemoryOutStream7GetTextEv@PLT
 3430      00
 3431 00c7 4889C2   		movq	%rax, %rdx
 3432 00ca 488B8D30 		movq	-464(%rbp), %rcx
 3432      FEFFFF
 3433 00d1 488B8548 		movq	-440(%rbp), %rax
 3433      FEFFFF
 3434 00d8 4889CE   		movq	%rcx, %rsi
 3435 00db 4889C7   		movq	%rax, %rdi
 3436 00de E8000000 		call	_ZN8UnitTest11TestResults13OnTestFailureERKNS_11TestDetailsEPKc@PLT
 3436      00
 3437              	.LEHE125:
  23:/home/gani/eval/20140524/makestuff/libs/libutpp/Checks.h ****         stream << "Expected " << expected << " but was " << actual;
 3438              		.loc 5 23 0
 3439 00e3 488D8550 		leaq	-432(%rbp), %rax
 3439      FEFFFF
 3440 00ea 4889C7   		movq	%rax, %rdi
 3441              	.LEHB126:
 3442 00ed E8000000 		call	_ZN8UnitTest15MemoryOutStreamD1Ev
 3442      00
 3443              	.LEHE126:
 3444              	.LBE32:
 3445              	.LBE31:
  28:/home/gani/eval/20140524/makestuff/libs/libutpp/Checks.h **** 
 3446              		.loc 5 28 0
 3447 00f2 EB1D     		jmp	.L209
 3448              	.L208:
 3449 00f4 4889C3   		movq	%rax, %rbx
 3450              	.LBB34:
 3451              	.LBB33:
  23:/home/gani/eval/20140524/makestuff/libs/libutpp/Checks.h ****         stream << "Expected " << expected << " but was " << actual;
 3452              		.loc 5 23 0
 3453 00f7 488D8550 		leaq	-432(%rbp), %rax
 3453      FEFFFF
 3454 00fe 4889C7   		movq	%rax, %rdi
 3455 0101 E8000000 		call	_ZN8UnitTest15MemoryOutStreamD1Ev
 3455      00
 3456 0106 4889D8   		movq	%rbx, %rax
 3457 0109 4889C7   		movq	%rax, %rdi
 3458              	.LEHB127:
 3459 010c E8000000 		call	_Unwind_Resume@PLT
 3459      00
 3460              	.LEHE127:
 3461              	.L209:
 3462              	.LBE33:
 3463              	.LBE34:
  28:/home/gani/eval/20140524/makestuff/libs/libutpp/Checks.h **** 
 3464              		.loc 5 28 0
 3465 0111 90       		nop
 3466 0112 488B45E8 		movq	-24(%rbp), %rax
 3467 0116 64483304 		xorq	%fs:40, %rax
 3467      25280000 
 3467      00
 3468 011f 7405     		je	.L207
 3469 0121 E8000000 		call	__stack_chk_fail@PLT
 3469      00
 3470              	.L207:
 3471 0126 4881C4C8 		addq	$456, %rsp
 3471      010000
 3472 012d 5B       		popq	%rbx
 3473 012e 5D       		popq	%rbp
 3474              		.cfi_def_cfa 7, 8
 3475 012f C3       		ret
 3476              		.cfi_endproc
 3477              	.LFE1225:
 3478              		.section	.gcc_except_table
 3479              	.LLSDA1225:
 3480 02e8 FF       		.byte	0xff
 3481 02e9 FF       		.byte	0xff
 3482 02ea 01       		.byte	0x1
 3483 02eb 13       		.uleb128 .LLSDACSE1225-.LLSDACSB1225
 3484              	.LLSDACSB1225:
 3485 02ec 60       		.uleb128 .LEHB124-.LFB1225
 3486 02ed 05       		.uleb128 .LEHE124-.LEHB124
 3487 02ee 00       		.uleb128 0
 3488 02ef 00       		.uleb128 0
 3489 02f0 76       		.uleb128 .LEHB125-.LFB1225
 3490 02f1 6D       		.uleb128 .LEHE125-.LEHB125
 3491 02f2 F401     		.uleb128 .L208-.LFB1225
 3492 02f4 00       		.uleb128 0
 3493 02f5 ED01     		.uleb128 .LEHB126-.LFB1225
 3494 02f7 05       		.uleb128 .LEHE126-.LEHB126
 3495 02f8 00       		.uleb128 0
 3496 02f9 00       		.uleb128 0
 3497 02fa 8C02     		.uleb128 .LEHB127-.LFB1225
 3498 02fc 05       		.uleb128 .LEHE127-.LEHB127
 3499 02fd 00       		.uleb128 0
 3500 02fe 00       		.uleb128 0
 3501              	.LLSDACSE1225:
 3502              		.section	.text._ZN8UnitTest10CheckEqualIilEEvRNS_11TestResultsERKT_RKT0_RKNS_11TestDetailsE,"axG",
 3504              		.weak	_ZTV23TestBinIO_testWriteFile
 3505              		.section	.data.rel.ro.local._ZTV23TestBinIO_testWriteFile,"awG",@progbits,_ZTV23TestBinIO_testWrit
 3506              		.align 8
 3509              	_ZTV23TestBinIO_testWriteFile:
 3510 0000 00000000 		.quad	0
 3510      00000000 
 3511 0008 00000000 		.quad	_ZTI23TestBinIO_testWriteFile
 3511      00000000 
 3512 0010 00000000 		.quad	_ZN23TestBinIO_testWriteFileD1Ev
 3512      00000000 
 3513 0018 00000000 		.quad	_ZN23TestBinIO_testWriteFileD0Ev
 3513      00000000 
 3514 0020 00000000 		.quad	_ZNK23TestBinIO_testWriteFile7RunImplEv
 3514      00000000 
 3515              		.section	.text._ZN23TestBinIO_testWriteFileD2Ev,"axG",@progbits,_ZN23TestBinIO_testWriteFileD5Ev,c
 3516              		.align 2
 3517              		.weak	_ZN23TestBinIO_testWriteFileD2Ev
 3519              	_ZN23TestBinIO_testWriteFileD2Ev:
 3520              	.LFB1294:
  54:testBinIO.cpp **** 	const char *const FILENAME = "tmpFile.bin";
 3521              		.loc 4 54 0
 3522              		.cfi_startproc
 3523 0000 55       		pushq	%rbp
 3524              		.cfi_def_cfa_offset 16
 3525              		.cfi_offset 6, -16
 3526 0001 4889E5   		movq	%rsp, %rbp
 3527              		.cfi_def_cfa_register 6
 3528 0004 4883EC10 		subq	$16, %rsp
 3529 0008 48897DF8 		movq	%rdi, -8(%rbp)
 3530              	.LBB35:
  54:testBinIO.cpp **** 	const char *const FILENAME = "tmpFile.bin";
 3531              		.loc 4 54 0
 3532 000c 488D1500 		leaq	16+_ZTV23TestBinIO_testWriteFile(%rip), %rdx
 3532      000000
 3533 0013 488B45F8 		movq	-8(%rbp), %rax
 3534 0017 488910   		movq	%rdx, (%rax)
 3535 001a 488B45F8 		movq	-8(%rbp), %rax
 3536 001e 4889C7   		movq	%rax, %rdi
 3537 0021 E8000000 		call	_ZN8UnitTest4TestD2Ev@PLT
 3537      00
 3538              	.LBE35:
 3539 0026 90       		nop
 3540 0027 C9       		leave
 3541              		.cfi_def_cfa 7, 8
 3542 0028 C3       		ret
 3543              		.cfi_endproc
 3544              	.LFE1294:
 3546              		.weak	_ZN23TestBinIO_testWriteFileD1Ev
 3547              		.set	_ZN23TestBinIO_testWriteFileD1Ev,_ZN23TestBinIO_testWriteFileD2Ev
 3548              		.section	.text._ZN23TestBinIO_testWriteFileD0Ev,"axG",@progbits,_ZN23TestBinIO_testWriteFileD5Ev,c
 3549              		.align 2
 3550              		.weak	_ZN23TestBinIO_testWriteFileD0Ev
 3552              	_ZN23TestBinIO_testWriteFileD0Ev:
 3553              	.LFB1296:
  54:testBinIO.cpp **** 	const char *const FILENAME = "tmpFile.bin";
 3554              		.loc 4 54 0
 3555              		.cfi_startproc
 3556              		.cfi_personality 0x9b,DW.ref.__gxx_personality_v0
 3557              		.cfi_lsda 0x1b,.LLSDA1296
 3558 0000 55       		pushq	%rbp
 3559              		.cfi_def_cfa_offset 16
 3560              		.cfi_offset 6, -16
 3561 0001 4889E5   		movq	%rsp, %rbp
 3562              		.cfi_def_cfa_register 6
 3563 0004 53       		pushq	%rbx
 3564 0005 4883EC18 		subq	$24, %rsp
 3565              		.cfi_offset 3, -24
 3566 0009 48897DE8 		movq	%rdi, -24(%rbp)
  54:testBinIO.cpp **** 	const char *const FILENAME = "tmpFile.bin";
 3567              		.loc 4 54 0
 3568 000d 488B45E8 		movq	-24(%rbp), %rax
 3569 0011 4889C7   		movq	%rax, %rdi
 3570              	.LEHB128:
 3571 0014 E8000000 		call	_ZN23TestBinIO_testWriteFileD1Ev
 3571      00
 3572              	.LEHE128:
  54:testBinIO.cpp **** 	const char *const FILENAME = "tmpFile.bin";
 3573              		.loc 4 54 0 is_stmt 0 discriminator 2
 3574 0019 488B45E8 		movq	-24(%rbp), %rax
 3575 001d 4889C7   		movq	%rax, %rdi
 3576 0020 E8000000 		call	_ZdlPv@PLT
 3576      00
 3577 0025 EB1A     		jmp	.L214
 3578              	.L213:
 3579 0027 4889C3   		movq	%rax, %rbx
  54:testBinIO.cpp **** 	const char *const FILENAME = "tmpFile.bin";
 3580              		.loc 4 54 0
 3581 002a 488B45E8 		movq	-24(%rbp), %rax
 3582 002e 4889C7   		movq	%rax, %rdi
 3583 0031 E8000000 		call	_ZdlPv@PLT
 3583      00
 3584 0036 4889D8   		movq	%rbx, %rax
 3585 0039 4889C7   		movq	%rax, %rdi
 3586              	.LEHB129:
 3587 003c E8000000 		call	_Unwind_Resume@PLT
 3587      00
 3588              	.LEHE129:
 3589              	.L214:
 3590 0041 4883C418 		addq	$24, %rsp
 3591 0045 5B       		popq	%rbx
 3592 0046 5D       		popq	%rbp
 3593              		.cfi_def_cfa 7, 8
 3594 0047 C3       		ret
 3595              		.cfi_endproc
 3596              	.LFE1296:
 3597              		.section	.gcc_except_table
 3598              	.LLSDA1296:
 3599 02ff FF       		.byte	0xff
 3600 0300 FF       		.byte	0xff
 3601 0301 01       		.byte	0x1
 3602 0302 08       		.uleb128 .LLSDACSE1296-.LLSDACSB1296
 3603              	.LLSDACSB1296:
 3604 0303 14       		.uleb128 .LEHB128-.LFB1296
 3605 0304 05       		.uleb128 .LEHE128-.LEHB128
 3606 0305 27       		.uleb128 .L213-.LFB1296
 3607 0306 00       		.uleb128 0
 3608 0307 3C       		.uleb128 .LEHB129-.LFB1296
 3609 0308 05       		.uleb128 .LEHE129-.LEHB129
 3610 0309 00       		.uleb128 0
 3611 030a 00       		.uleb128 0
 3612              	.LLSDACSE1296:
 3613              		.section	.text._ZN23TestBinIO_testWriteFileD0Ev,"axG",@progbits,_ZN23TestBinIO_testWriteFileD5Ev,c
 3615              		.weak	_ZTV30TestBinIO_testReadExistingFile
 3616              		.section	.data.rel.ro.local._ZTV30TestBinIO_testReadExistingFile,"awG",@progbits,_ZTV30TestBinIO_t
 3617              		.align 8
 3620              	_ZTV30TestBinIO_testReadExistingFile:
 3621 0000 00000000 		.quad	0
 3621      00000000 
 3622 0008 00000000 		.quad	_ZTI30TestBinIO_testReadExistingFile
 3622      00000000 
 3623 0010 00000000 		.quad	_ZN30TestBinIO_testReadExistingFileD1Ev
 3623      00000000 
 3624 0018 00000000 		.quad	_ZN30TestBinIO_testReadExistingFileD0Ev
 3624      00000000 
 3625 0020 00000000 		.quad	_ZNK30TestBinIO_testReadExistingFile7RunImplEv
 3625      00000000 
 3626              		.section	.text._ZN30TestBinIO_testReadExistingFileD2Ev,"axG",@progbits,_ZN30TestBinIO_testReadExis
 3627              		.align 2
 3628              		.weak	_ZN30TestBinIO_testReadExistingFileD2Ev
 3630              	_ZN30TestBinIO_testReadExistingFileD2Ev:
 3631              	.LFB1298:
  33:testBinIO.cpp **** 	const char *const FILENAME = "tmpFile.bin";
 3632              		.loc 4 33 0 is_stmt 1
 3633              		.cfi_startproc
 3634 0000 55       		pushq	%rbp
 3635              		.cfi_def_cfa_offset 16
 3636              		.cfi_offset 6, -16
 3637 0001 4889E5   		movq	%rsp, %rbp
 3638              		.cfi_def_cfa_register 6
 3639 0004 4883EC10 		subq	$16, %rsp
 3640 0008 48897DF8 		movq	%rdi, -8(%rbp)
 3641              	.LBB36:
  33:testBinIO.cpp **** 	const char *const FILENAME = "tmpFile.bin";
 3642              		.loc 4 33 0
 3643 000c 488D1500 		leaq	16+_ZTV30TestBinIO_testReadExistingFile(%rip), %rdx
 3643      000000
 3644 0013 488B45F8 		movq	-8(%rbp), %rax
 3645 0017 488910   		movq	%rdx, (%rax)
 3646 001a 488B45F8 		movq	-8(%rbp), %rax
 3647 001e 4889C7   		movq	%rax, %rdi
 3648 0021 E8000000 		call	_ZN8UnitTest4TestD2Ev@PLT
 3648      00
 3649              	.LBE36:
 3650 0026 90       		nop
 3651 0027 C9       		leave
 3652              		.cfi_def_cfa 7, 8
 3653 0028 C3       		ret
 3654              		.cfi_endproc
 3655              	.LFE1298:
 3657              		.weak	_ZN30TestBinIO_testReadExistingFileD1Ev
 3658              		.set	_ZN30TestBinIO_testReadExistingFileD1Ev,_ZN30TestBinIO_testReadExistingFileD2Ev
 3659              		.section	.text._ZN30TestBinIO_testReadExistingFileD0Ev,"axG",@progbits,_ZN30TestBinIO_testReadExis
 3660              		.align 2
 3661              		.weak	_ZN30TestBinIO_testReadExistingFileD0Ev
 3663              	_ZN30TestBinIO_testReadExistingFileD0Ev:
 3664              	.LFB1300:
  33:testBinIO.cpp **** 	const char *const FILENAME = "tmpFile.bin";
 3665              		.loc 4 33 0
 3666              		.cfi_startproc
 3667              		.cfi_personality 0x9b,DW.ref.__gxx_personality_v0
 3668              		.cfi_lsda 0x1b,.LLSDA1300
 3669 0000 55       		pushq	%rbp
 3670              		.cfi_def_cfa_offset 16
 3671              		.cfi_offset 6, -16
 3672 0001 4889E5   		movq	%rsp, %rbp
 3673              		.cfi_def_cfa_register 6
 3674 0004 53       		pushq	%rbx
 3675 0005 4883EC18 		subq	$24, %rsp
 3676              		.cfi_offset 3, -24
 3677 0009 48897DE8 		movq	%rdi, -24(%rbp)
  33:testBinIO.cpp **** 	const char *const FILENAME = "tmpFile.bin";
 3678              		.loc 4 33 0
 3679 000d 488B45E8 		movq	-24(%rbp), %rax
 3680 0011 4889C7   		movq	%rax, %rdi
 3681              	.LEHB130:
 3682 0014 E8000000 		call	_ZN30TestBinIO_testReadExistingFileD1Ev
 3682      00
 3683              	.LEHE130:
  33:testBinIO.cpp **** 	const char *const FILENAME = "tmpFile.bin";
 3684              		.loc 4 33 0 is_stmt 0 discriminator 2
 3685 0019 488B45E8 		movq	-24(%rbp), %rax
 3686 001d 4889C7   		movq	%rax, %rdi
 3687 0020 E8000000 		call	_ZdlPv@PLT
 3687      00
 3688 0025 EB1A     		jmp	.L219
 3689              	.L218:
 3690 0027 4889C3   		movq	%rax, %rbx
  33:testBinIO.cpp **** 	const char *const FILENAME = "tmpFile.bin";
 3691              		.loc 4 33 0
 3692 002a 488B45E8 		movq	-24(%rbp), %rax
 3693 002e 4889C7   		movq	%rax, %rdi
 3694 0031 E8000000 		call	_ZdlPv@PLT
 3694      00
 3695 0036 4889D8   		movq	%rbx, %rax
 3696 0039 4889C7   		movq	%rax, %rdi
 3697              	.LEHB131:
 3698 003c E8000000 		call	_Unwind_Resume@PLT
 3698      00
 3699              	.LEHE131:
 3700              	.L219:
 3701 0041 4883C418 		addq	$24, %rsp
 3702 0045 5B       		popq	%rbx
 3703 0046 5D       		popq	%rbp
 3704              		.cfi_def_cfa 7, 8
 3705 0047 C3       		ret
 3706              		.cfi_endproc
 3707              	.LFE1300:
 3708              		.section	.gcc_except_table
 3709              	.LLSDA1300:
 3710 030b FF       		.byte	0xff
 3711 030c FF       		.byte	0xff
 3712 030d 01       		.byte	0x1
 3713 030e 08       		.uleb128 .LLSDACSE1300-.LLSDACSB1300
 3714              	.LLSDACSB1300:
 3715 030f 14       		.uleb128 .LEHB130-.LFB1300
 3716 0310 05       		.uleb128 .LEHE130-.LEHB130
 3717 0311 27       		.uleb128 .L218-.LFB1300
 3718 0312 00       		.uleb128 0
 3719 0313 3C       		.uleb128 .LEHB131-.LFB1300
 3720 0314 05       		.uleb128 .LEHE131-.LEHB131
 3721 0315 00       		.uleb128 0
 3722 0316 00       		.uleb128 0
 3723              	.LLSDACSE1300:
 3724              		.section	.text._ZN30TestBinIO_testReadExistingFileD0Ev,"axG",@progbits,_ZN30TestBinIO_testReadExis
 3726              		.weak	_ZTV33TestBinIO_testReadNonExistentFile
 3727              		.section	.data.rel.ro.local._ZTV33TestBinIO_testReadNonExistentFile,"awG",@progbits,_ZTV33TestBinI
 3728              		.align 8
 3731              	_ZTV33TestBinIO_testReadNonExistentFile:
 3732 0000 00000000 		.quad	0
 3732      00000000 
 3733 0008 00000000 		.quad	_ZTI33TestBinIO_testReadNonExistentFile
 3733      00000000 
 3734 0010 00000000 		.quad	_ZN33TestBinIO_testReadNonExistentFileD1Ev
 3734      00000000 
 3735 0018 00000000 		.quad	_ZN33TestBinIO_testReadNonExistentFileD0Ev
 3735      00000000 
 3736 0020 00000000 		.quad	_ZNK33TestBinIO_testReadNonExistentFile7RunImplEv
 3736      00000000 
 3737              		.section	.text._ZN33TestBinIO_testReadNonExistentFileD2Ev,"axG",@progbits,_ZN33TestBinIO_testReadN
 3738              		.align 2
 3739              		.weak	_ZN33TestBinIO_testReadNonExistentFileD2Ev
 3741              	_ZN33TestBinIO_testReadNonExistentFileD2Ev:
 3742              	.LFB1302:
  24:testBinIO.cpp **** 	Buffer buf;
 3743              		.loc 4 24 0 is_stmt 1
 3744              		.cfi_startproc
 3745 0000 55       		pushq	%rbp
 3746              		.cfi_def_cfa_offset 16
 3747              		.cfi_offset 6, -16
 3748 0001 4889E5   		movq	%rsp, %rbp
 3749              		.cfi_def_cfa_register 6
 3750 0004 4883EC10 		subq	$16, %rsp
 3751 0008 48897DF8 		movq	%rdi, -8(%rbp)
 3752              	.LBB37:
  24:testBinIO.cpp **** 	Buffer buf;
 3753              		.loc 4 24 0
 3754 000c 488D1500 		leaq	16+_ZTV33TestBinIO_testReadNonExistentFile(%rip), %rdx
 3754      000000
 3755 0013 488B45F8 		movq	-8(%rbp), %rax
 3756 0017 488910   		movq	%rdx, (%rax)
 3757 001a 488B45F8 		movq	-8(%rbp), %rax
 3758 001e 4889C7   		movq	%rax, %rdi
 3759 0021 E8000000 		call	_ZN8UnitTest4TestD2Ev@PLT
 3759      00
 3760              	.LBE37:
 3761 0026 90       		nop
 3762 0027 C9       		leave
 3763              		.cfi_def_cfa 7, 8
 3764 0028 C3       		ret
 3765              		.cfi_endproc
 3766              	.LFE1302:
 3768              		.weak	_ZN33TestBinIO_testReadNonExistentFileD1Ev
 3769              		.set	_ZN33TestBinIO_testReadNonExistentFileD1Ev,_ZN33TestBinIO_testReadNonExistentFileD2Ev
 3770              		.section	.text._ZN33TestBinIO_testReadNonExistentFileD0Ev,"axG",@progbits,_ZN33TestBinIO_testReadN
 3771              		.align 2
 3772              		.weak	_ZN33TestBinIO_testReadNonExistentFileD0Ev
 3774              	_ZN33TestBinIO_testReadNonExistentFileD0Ev:
 3775              	.LFB1304:
  24:testBinIO.cpp **** 	Buffer buf;
 3776              		.loc 4 24 0
 3777              		.cfi_startproc
 3778              		.cfi_personality 0x9b,DW.ref.__gxx_personality_v0
 3779              		.cfi_lsda 0x1b,.LLSDA1304
 3780 0000 55       		pushq	%rbp
 3781              		.cfi_def_cfa_offset 16
 3782              		.cfi_offset 6, -16
 3783 0001 4889E5   		movq	%rsp, %rbp
 3784              		.cfi_def_cfa_register 6
 3785 0004 53       		pushq	%rbx
 3786 0005 4883EC18 		subq	$24, %rsp
 3787              		.cfi_offset 3, -24
 3788 0009 48897DE8 		movq	%rdi, -24(%rbp)
  24:testBinIO.cpp **** 	Buffer buf;
 3789              		.loc 4 24 0
 3790 000d 488B45E8 		movq	-24(%rbp), %rax
 3791 0011 4889C7   		movq	%rax, %rdi
 3792              	.LEHB132:
 3793 0014 E8000000 		call	_ZN33TestBinIO_testReadNonExistentFileD1Ev
 3793      00
 3794              	.LEHE132:
  24:testBinIO.cpp **** 	Buffer buf;
 3795              		.loc 4 24 0 is_stmt 0 discriminator 2
 3796 0019 488B45E8 		movq	-24(%rbp), %rax
 3797 001d 4889C7   		movq	%rax, %rdi
 3798 0020 E8000000 		call	_ZdlPv@PLT
 3798      00
 3799 0025 EB1A     		jmp	.L224
 3800              	.L223:
 3801 0027 4889C3   		movq	%rax, %rbx
  24:testBinIO.cpp **** 	Buffer buf;
 3802              		.loc 4 24 0
 3803 002a 488B45E8 		movq	-24(%rbp), %rax
 3804 002e 4889C7   		movq	%rax, %rdi
 3805 0031 E8000000 		call	_ZdlPv@PLT
 3805      00
 3806 0036 4889D8   		movq	%rbx, %rax
 3807 0039 4889C7   		movq	%rax, %rdi
 3808              	.LEHB133:
 3809 003c E8000000 		call	_Unwind_Resume@PLT
 3809      00
 3810              	.LEHE133:
 3811              	.L224:
 3812 0041 4883C418 		addq	$24, %rsp
 3813 0045 5B       		popq	%rbx
 3814 0046 5D       		popq	%rbp
 3815              		.cfi_def_cfa 7, 8
 3816 0047 C3       		ret
 3817              		.cfi_endproc
 3818              	.LFE1304:
 3819              		.section	.gcc_except_table
 3820              	.LLSDA1304:
 3821 0317 FF       		.byte	0xff
 3822 0318 FF       		.byte	0xff
 3823 0319 01       		.byte	0x1
 3824 031a 08       		.uleb128 .LLSDACSE1304-.LLSDACSB1304
 3825              	.LLSDACSB1304:
 3826 031b 14       		.uleb128 .LEHB132-.LFB1304
 3827 031c 05       		.uleb128 .LEHE132-.LEHB132
 3828 031d 27       		.uleb128 .L223-.LFB1304
 3829 031e 00       		.uleb128 0
 3830 031f 3C       		.uleb128 .LEHB133-.LFB1304
 3831 0320 05       		.uleb128 .LEHE133-.LEHB133
 3832 0321 00       		.uleb128 0
 3833 0322 00       		.uleb128 0
 3834              	.LLSDACSE1304:
 3835              		.section	.text._ZN33TestBinIO_testReadNonExistentFileD0Ev,"axG",@progbits,_ZN33TestBinIO_testReadN
 3837              		.weak	_ZTVN8UnitTest15MemoryOutStreamE
 3838              		.section	.data.rel.ro.local._ZTVN8UnitTest15MemoryOutStreamE,"awG",@progbits,_ZTVN8UnitTest15Memor
 3839              		.align 8
 3842              	_ZTVN8UnitTest15MemoryOutStreamE:
 3843 0000 90000000 		.quad	144
 3843      00000000 
 3844 0008 00000000 		.quad	0
 3844      00000000 
 3845 0010 00000000 		.quad	_ZTIN8UnitTest15MemoryOutStreamE
 3845      00000000 
 3846 0018 00000000 		.quad	_ZN8UnitTest15MemoryOutStreamD1Ev
 3846      00000000 
 3847 0020 00000000 		.quad	_ZN8UnitTest15MemoryOutStreamD0Ev
 3847      00000000 
 3848 0028 70FFFFFF 		.quad	-144
 3848      FFFFFFFF 
 3849 0030 70FFFFFF 		.quad	-144
 3849      FFFFFFFF 
 3850 0038 00000000 		.quad	_ZTIN8UnitTest15MemoryOutStreamE
 3850      00000000 
 3851 0040 00000000 		.quad	_ZTv0_n24_N8UnitTest15MemoryOutStreamD1Ev
 3851      00000000 
 3852 0048 00000000 		.quad	_ZTv0_n24_N8UnitTest15MemoryOutStreamD0Ev
 3852      00000000 
 3853              		.weak	_ZTTN8UnitTest15MemoryOutStreamE
 3854              		.section	.data.rel.ro.local._ZTTN8UnitTest15MemoryOutStreamE,"awG",@progbits,_ZTVN8UnitTest15Memor
 3855              		.align 8
 3858              	_ZTTN8UnitTest15MemoryOutStreamE:
 3859 0000 00000000 		.quad	_ZTVN8UnitTest15MemoryOutStreamE+24
 3859      00000000 
 3860 0008 00000000 		.quad	_ZTCN8UnitTest15MemoryOutStreamE0_NSt7__cxx1119basic_ostringstreamIcSt11char_traitsIcESaIcEE
 3860      00000000 
 3861 0010 00000000 		.quad	_ZTCN8UnitTest15MemoryOutStreamE0_So+24
 3861      00000000 
 3862 0018 00000000 		.quad	_ZTCN8UnitTest15MemoryOutStreamE0_So+64
 3862      00000000 
 3863 0020 00000000 		.quad	_ZTCN8UnitTest15MemoryOutStreamE0_NSt7__cxx1119basic_ostringstreamIcSt11char_traitsIcESaIcEE
 3863      00000000 
 3864 0028 00000000 		.quad	_ZTVN8UnitTest15MemoryOutStreamE+64
 3864      00000000 
 3865              		.hidden	_ZTCN8UnitTest15MemoryOutStreamE0_NSt7__cxx1119basic_ostringstreamIcSt11char_traitsIcESaIc
 3866              		.weak	_ZTCN8UnitTest15MemoryOutStreamE0_NSt7__cxx1119basic_ostringstreamIcSt11char_traitsIcESaIcEE
 3867              		.section	.data.rel.ro._ZTCN8UnitTest15MemoryOutStreamE0_NSt7__cxx1119basic_ostringstreamIcSt11char
 3868              		.align 8
 3871              	_ZTCN8UnitTest15MemoryOutStreamE0_NSt7__cxx1119basic_ostringstreamIcSt11char_traitsIcESaIcEEE:
 3872 0000 90000000 		.quad	144
 3872      00000000 
 3873 0008 00000000 		.quad	0
 3873      00000000 
 3874 0010 00000000 		.quad	_ZTINSt7__cxx1119basic_ostringstreamIcSt11char_traitsIcESaIcEEE
 3874      00000000 
 3875 0018 00000000 		.quad	0
 3875      00000000 
 3876 0020 00000000 		.quad	0
 3876      00000000 
 3877 0028 70FFFFFF 		.quad	-144
 3877      FFFFFFFF 
 3878 0030 70FFFFFF 		.quad	-144
 3878      FFFFFFFF 
 3879 0038 00000000 		.quad	_ZTINSt7__cxx1119basic_ostringstreamIcSt11char_traitsIcESaIcEEE
 3879      00000000 
 3880 0040 00000000 		.quad	0
 3880      00000000 
 3881 0048 00000000 		.quad	0
 3881      00000000 
 3882              		.hidden	_ZTCN8UnitTest15MemoryOutStreamE0_So
 3883              		.weak	_ZTCN8UnitTest15MemoryOutStreamE0_So
 3884              		.section	.data.rel.ro._ZTCN8UnitTest15MemoryOutStreamE0_So,"awG",@progbits,_ZTVN8UnitTest15MemoryO
 3885              		.align 8
 3888              	_ZTCN8UnitTest15MemoryOutStreamE0_So:
 3889 0000 90000000 		.quad	144
 3889      00000000 
 3890 0008 00000000 		.quad	0
 3890      00000000 
 3891 0010 00000000 		.quad	_ZTISo
 3891      00000000 
 3892 0018 00000000 		.quad	0
 3892      00000000 
 3893 0020 00000000 		.quad	0
 3893      00000000 
 3894 0028 70FFFFFF 		.quad	-144
 3894      FFFFFFFF 
 3895 0030 70FFFFFF 		.quad	-144
 3895      FFFFFFFF 
 3896 0038 00000000 		.quad	_ZTISo
 3896      00000000 
 3897 0040 00000000 		.quad	0
 3897      00000000 
 3898 0048 00000000 		.quad	0
 3898      00000000 
 3899              		.weak	_ZTI23TestBinIO_testWriteFile
 3900              		.section	.data.rel.ro._ZTI23TestBinIO_testWriteFile,"awG",@progbits,_ZTI23TestBinIO_testWriteFile,
 3901              		.align 8
 3904              	_ZTI23TestBinIO_testWriteFile:
 3905 0000 00000000 		.quad	_ZTVN10__cxxabiv120__si_class_type_infoE+16
 3905      00000000 
 3906 0008 00000000 		.quad	_ZTS23TestBinIO_testWriteFile
 3906      00000000 
 3907 0010 00000000 		.quad	_ZTIN8UnitTest4TestE
 3907      00000000 
 3908              		.weak	_ZTS23TestBinIO_testWriteFile
 3909              		.section	.rodata._ZTS23TestBinIO_testWriteFile,"aG",@progbits,_ZTS23TestBinIO_testWriteFile,comdat
 3910              		.align 16
 3913              	_ZTS23TestBinIO_testWriteFile:
 3914 0000 32335465 		.string	"23TestBinIO_testWriteFile"
 3914      73744269 
 3914      6E494F5F 
 3914      74657374 
 3914      57726974 
 3915              		.weak	_ZTI30TestBinIO_testReadExistingFile
 3916              		.section	.data.rel.ro._ZTI30TestBinIO_testReadExistingFile,"awG",@progbits,_ZTI30TestBinIO_testRea
 3917              		.align 8
 3920              	_ZTI30TestBinIO_testReadExistingFile:
 3921 0000 00000000 		.quad	_ZTVN10__cxxabiv120__si_class_type_infoE+16
 3921      00000000 
 3922 0008 00000000 		.quad	_ZTS30TestBinIO_testReadExistingFile
 3922      00000000 
 3923 0010 00000000 		.quad	_ZTIN8UnitTest4TestE
 3923      00000000 
 3924              		.weak	_ZTS30TestBinIO_testReadExistingFile
 3925              		.section	.rodata._ZTS30TestBinIO_testReadExistingFile,"aG",@progbits,_ZTS30TestBinIO_testReadExist
 3926              		.align 32
 3929              	_ZTS30TestBinIO_testReadExistingFile:
 3930 0000 33305465 		.string	"30TestBinIO_testReadExistingFile"
 3930      73744269 
 3930      6E494F5F 
 3930      74657374 
 3930      52656164 
 3931              		.weak	_ZTI33TestBinIO_testReadNonExistentFile
 3932              		.section	.data.rel.ro._ZTI33TestBinIO_testReadNonExistentFile,"awG",@progbits,_ZTI33TestBinIO_test
 3933              		.align 8
 3936              	_ZTI33TestBinIO_testReadNonExistentFile:
 3937 0000 00000000 		.quad	_ZTVN10__cxxabiv120__si_class_type_infoE+16
 3937      00000000 
 3938 0008 00000000 		.quad	_ZTS33TestBinIO_testReadNonExistentFile
 3938      00000000 
 3939 0010 00000000 		.quad	_ZTIN8UnitTest4TestE
 3939      00000000 
 3940              		.weak	_ZTS33TestBinIO_testReadNonExistentFile
 3941              		.section	.rodata._ZTS33TestBinIO_testReadNonExistentFile,"aG",@progbits,_ZTS33TestBinIO_testReadNo
 3942              		.align 32
 3945              	_ZTS33TestBinIO_testReadNonExistentFile:
 3946 0000 33335465 		.string	"33TestBinIO_testReadNonExistentFile"
 3946      73744269 
 3946      6E494F5F 
 3946      74657374 
 3946      52656164 
 3947              		.weak	_ZTIN8UnitTest15MemoryOutStreamE
 3948              		.section	.data.rel.ro._ZTIN8UnitTest15MemoryOutStreamE,"awG",@progbits,_ZTIN8UnitTest15MemoryOutSt
 3949              		.align 8
 3952              	_ZTIN8UnitTest15MemoryOutStreamE:
 3953 0000 00000000 		.quad	_ZTVN10__cxxabiv120__si_class_type_infoE+16
 3953      00000000 
 3954 0008 00000000 		.quad	_ZTSN8UnitTest15MemoryOutStreamE
 3954      00000000 
 3955 0010 00000000 		.quad	_ZTINSt7__cxx1119basic_ostringstreamIcSt11char_traitsIcESaIcEEE
 3955      00000000 
 3956              		.weak	_ZTSN8UnitTest15MemoryOutStreamE
 3957              		.section	.rodata._ZTSN8UnitTest15MemoryOutStreamE,"aG",@progbits,_ZTSN8UnitTest15MemoryOutStreamE,
 3958              		.align 16
 3961              	_ZTSN8UnitTest15MemoryOutStreamE:
 3962 0000 4E38556E 		.string	"N8UnitTest15MemoryOutStreamE"
 3962      69745465 
 3962      73743135 
 3962      4D656D6F 
 3962      72794F75 
 3963              		.text
 3965              	_Z41__static_initialization_and_destruction_0ii:
 3966              	.LFB1305:
 3967              		.loc 4 92 0 is_stmt 1
 3968              		.cfi_startproc
 3969 120d 55       		pushq	%rbp
 3970              		.cfi_def_cfa_offset 16
 3971              		.cfi_offset 6, -16
 3972 120e 4889E5   		movq	%rsp, %rbp
 3973              		.cfi_def_cfa_register 6
 3974 1211 4883EC10 		subq	$16, %rsp
 3975 1215 897DFC   		movl	%edi, -4(%rbp)
 3976 1218 8975F8   		movl	%esi, -8(%rbp)
 3977              		.loc 4 92 0
 3978 121b 837DFC01 		cmpl	$1, -4(%rbp)
 3979 121f 0F85D000 		jne	.L227
 3979      0000
 3980              		.loc 4 92 0 is_stmt 0 discriminator 1
 3981 1225 817DF8FF 		cmpl	$65535, -8(%rbp)
 3981      FF0000
 3982 122c 0F85C300 		jne	.L227
 3982      0000
  24:testBinIO.cpp **** 	Buffer buf;
 3983              		.loc 4 24 0 is_stmt 1
 3984 1232 488D3D00 		leaq	testBinIO_testReadNonExistentFileInstance(%rip), %rdi
 3984      000000
 3985 1239 E8000000 		call	_ZN33TestBinIO_testReadNonExistentFileC1Ev
 3985      00
 3986 123e 488D1500 		leaq	__dso_handle(%rip), %rdx
 3986      000000
 3987 1245 488D3500 		leaq	testBinIO_testReadNonExistentFileInstance(%rip), %rsi
 3987      000000
 3988 124c 488D3D00 		leaq	_ZN33TestBinIO_testReadNonExistentFileD1Ev(%rip), %rdi
 3988      000000
 3989 1253 E8000000 		call	__cxa_atexit@PLT
 3989      00
 3990 1258 E8000000 		call	_ZN8UnitTest4Test11GetTestListEv@PLT
 3990      00
 3991 125d 488D1500 		leaq	testBinIO_testReadNonExistentFileInstance(%rip), %rdx
 3991      000000
 3992 1264 4889C6   		movq	%rax, %rsi
 3993 1267 488D3D00 		leaq	adderBinIO_testReadNonExistentFile(%rip), %rdi
 3993      000000
 3994 126e E8000000 		call	_ZN8UnitTest9ListAdderC1ERNS_8TestListEPNS_4TestE@PLT
 3994      00
  33:testBinIO.cpp **** 	const char *const FILENAME = "tmpFile.bin";
 3995              		.loc 4 33 0
 3996 1273 488D3D00 		leaq	testBinIO_testReadExistingFileInstance(%rip), %rdi
 3996      000000
 3997 127a E8000000 		call	_ZN30TestBinIO_testReadExistingFileC1Ev
 3997      00
 3998 127f 488D1500 		leaq	__dso_handle(%rip), %rdx
 3998      000000
 3999 1286 488D3500 		leaq	testBinIO_testReadExistingFileInstance(%rip), %rsi
 3999      000000
 4000 128d 488D3D00 		leaq	_ZN30TestBinIO_testReadExistingFileD1Ev(%rip), %rdi
 4000      000000
 4001 1294 E8000000 		call	__cxa_atexit@PLT
 4001      00
 4002 1299 E8000000 		call	_ZN8UnitTest4Test11GetTestListEv@PLT
 4002      00
 4003 129e 488D1500 		leaq	testBinIO_testReadExistingFileInstance(%rip), %rdx
 4003      000000
 4004 12a5 4889C6   		movq	%rax, %rsi
 4005 12a8 488D3D00 		leaq	adderBinIO_testReadExistingFile(%rip), %rdi
 4005      000000
 4006 12af E8000000 		call	_ZN8UnitTest9ListAdderC1ERNS_8TestListEPNS_4TestE@PLT
 4006      00
  54:testBinIO.cpp **** 	const char *const FILENAME = "tmpFile.bin";
 4007              		.loc 4 54 0
 4008 12b4 488D3D00 		leaq	testBinIO_testWriteFileInstance(%rip), %rdi
 4008      000000
 4009 12bb E8000000 		call	_ZN23TestBinIO_testWriteFileC1Ev
 4009      00
 4010 12c0 488D1500 		leaq	__dso_handle(%rip), %rdx
 4010      000000
 4011 12c7 488D3500 		leaq	testBinIO_testWriteFileInstance(%rip), %rsi
 4011      000000
 4012 12ce 488D3D00 		leaq	_ZN23TestBinIO_testWriteFileD1Ev(%rip), %rdi
 4012      000000
 4013 12d5 E8000000 		call	__cxa_atexit@PLT
 4013      00
 4014 12da E8000000 		call	_ZN8UnitTest4Test11GetTestListEv@PLT
 4014      00
 4015 12df 488D1500 		leaq	testBinIO_testWriteFileInstance(%rip), %rdx
 4015      000000
 4016 12e6 4889C6   		movq	%rax, %rsi
 4017 12e9 488D3D00 		leaq	adderBinIO_testWriteFile(%rip), %rdi
 4017      000000
 4018 12f0 E8000000 		call	_ZN8UnitTest9ListAdderC1ERNS_8TestListEPNS_4TestE@PLT
 4018      00
 4019              	.L227:
 4020              		.loc 4 92 0
 4021 12f5 90       		nop
 4022 12f6 C9       		leave
 4023              		.cfi_def_cfa 7, 8
 4024 12f7 C3       		ret
 4025              		.cfi_endproc
 4026              	.LFE1305:
 4029              	_GLOBAL__sub_I_testBinIO_testReadNonExistentFileInstance:
 4030              	.LFB1306:
 4031              		.loc 4 92 0
 4032              		.cfi_startproc
 4033 12f8 55       		pushq	%rbp
 4034              		.cfi_def_cfa_offset 16
 4035              		.cfi_offset 6, -16
 4036 12f9 4889E5   		movq	%rsp, %rbp
 4037              		.cfi_def_cfa_register 6
 4038              		.loc 4 92 0
 4039 12fc BEFFFF00 		movl	$65535, %esi
 4039      00
 4040 1301 BF010000 		movl	$1, %edi
 4040      00
 4041 1306 E802FFFF 		call	_Z41__static_initialization_and_destruction_0ii
 4041      FF
 4042 130b 5D       		popq	%rbp
 4043              		.cfi_def_cfa 7, 8
 4044 130c C3       		ret
 4045              		.cfi_endproc
 4046              	.LFE1306:
 4048              		.section	.init_array,"aw"
 4049              		.align 8
 4050 0000 00000000 		.quad	_GLOBAL__sub_I_testBinIO_testReadNonExistentFileInstance
 4050      00000000 
 4051              		.text
 4052              	.Letext0:
 4053              		.file 7 "/usr/include/c++/7/bits/basic_string.h"
 4054              		.file 8 "/usr/lib/gcc/x86_64-linux-gnu/7/include/stddef.h"
 4055              		.file 9 "/usr/include/c++/7/bits/basic_string.tcc"
 4056              		.file 10 "/usr/include/c++/7/bits/stringfwd.h"
 4057              		.file 11 "/usr/include/c++/7/cwchar"
 4058              		.file 12 "/usr/include/c++/7/bits/char_traits.h"
 4059              		.file 13 "/usr/include/x86_64-linux-gnu/c++/7/bits/c++config.h"
 4060              		.file 14 "/usr/include/c++/7/clocale"
 4061              		.file 15 "/usr/include/c++/7/bits/allocator.h"
 4062              		.file 16 "/usr/include/c++/7/cwctype"
 4063              		.file 17 "/usr/include/c++/7/cstdio"
 4064              		.file 18 "/usr/include/c++/7/iosfwd"
 4065              		.file 19 "/usr/include/c++/7/debug/debug.h"
 4066              		.file 20 "/usr/include/c++/7/bits/predefined_ops.h"
 4067              		.file 21 "/usr/include/c++/7/ext/new_allocator.h"
 4068              		.file 22 "/usr/include/c++/7/ext/numeric_traits.h"
 4069              		.file 23 "/usr/include/c++/7/ext/alloc_traits.h"
 4070              		.file 24 "<built-in>"
 4071              		.file 25 "/usr/include/x86_64-linux-gnu/bits/types/wint_t.h"
 4072              		.file 26 "/usr/include/x86_64-linux-gnu/bits/types/__mbstate_t.h"
 4073              		.file 27 "/usr/include/x86_64-linux-gnu/bits/types/mbstate_t.h"
 4074              		.file 28 "/usr/include/x86_64-linux-gnu/bits/types/__FILE.h"
 4075              		.file 29 "/usr/include/libio.h"
 4076              		.file 30 "/usr/include/x86_64-linux-gnu/bits/types/FILE.h"
 4077              		.file 31 "/usr/include/wchar.h"
 4078              		.file 32 "/usr/include/x86_64-linux-gnu/bits/types/struct_tm.h"
 4079              		.file 33 "/usr/include/locale.h"
 4080              		.file 34 "/usr/include/x86_64-linux-gnu/bits/types.h"
 4081              		.file 35 "/usr/include/time.h"
 4082              		.file 36 "/usr/include/x86_64-linux-gnu/bits/wctype-wchar.h"
 4083              		.file 37 "/usr/include/wctype.h"
 4084              		.file 38 "/usr/include/_G_config.h"
 4085              		.file 39 "/usr/include/stdio.h"
 4086              		.file 40 "/usr/include/x86_64-linux-gnu/bits/sys_errlist.h"
 4087              		.file 41 "/home/gani/eval/20140524/makestuff/libs/libutpp/TestDetails.h"
 4088              		.file 42 "/home/gani/eval/20140524/makestuff/libs/libutpp/TestList.h"
 4089              		.file 43 "/home/gani/eval/20140524/makestuff/libs/libutpp/TestResults.h"
 4090              		.file 44 "/usr/include/signal.h"
 4091              		.file 45 "/usr/include/x86_64-linux-gnu/sys/time.h"
 4092              		.file 46 "/home/gani/eval/20140524/makestuff/common/makestuff.h"
 4093              		.file 47 "../libbuffer.h"
 4094              		.file 48 "/usr/include/c++/7/new"
 15944              		.align 8
 15947              	DW.ref.__gxx_personality_v0:
 15948 0000 00000000 		.quad	__gxx_personality_v0
 15948      00000000 
 15949              		.hidden	__dso_handle
 15950              		.ident	"GCC: (Ubuntu 7.2.0-8ubuntu3.2) 7.2.0"
 15951              		.section	.note.GNU-stack,"",@progbits