   1              		.file	"testHexIO.cpp"
   2              		.text
   3              	.Ltext0:
   4              		.section	.text._ZStorSt13_Ios_OpenmodeS_,"axG",@progbits,_ZStorSt13_Ios_OpenmodeS_,comdat
   5              		.weak	_ZStorSt13_Ios_OpenmodeS_
   7              	_ZStorSt13_Ios_OpenmodeS_:
   8              	.LFB663:
   9              		.file 1 "/usr/include/c++/7/bits/ios_base.h"
   1:/usr/include/c++/7/bits/ios_base.h **** // Iostreams base classes -*- C++ -*-
   2:/usr/include/c++/7/bits/ios_base.h **** 
   3:/usr/include/c++/7/bits/ios_base.h **** // Copyright (C) 1997-2017 Free Software Foundation, Inc.
   4:/usr/include/c++/7/bits/ios_base.h **** //
   5:/usr/include/c++/7/bits/ios_base.h **** // This file is part of the GNU ISO C++ Library.  This library is free
   6:/usr/include/c++/7/bits/ios_base.h **** // software; you can redistribute it and/or modify it under the
   7:/usr/include/c++/7/bits/ios_base.h **** // terms of the GNU General Public License as published by the
   8:/usr/include/c++/7/bits/ios_base.h **** // Free Software Foundation; either version 3, or (at your option)
   9:/usr/include/c++/7/bits/ios_base.h **** // any later version.
  10:/usr/include/c++/7/bits/ios_base.h **** 
  11:/usr/include/c++/7/bits/ios_base.h **** // This library is distributed in the hope that it will be useful,
  12:/usr/include/c++/7/bits/ios_base.h **** // but WITHOUT ANY WARRANTY; without even the implied warranty of
  13:/usr/include/c++/7/bits/ios_base.h **** // MERCHANTABILITY or FITNESS FOR A PARTICULAR PURPOSE.  See the
  14:/usr/include/c++/7/bits/ios_base.h **** // GNU General Public License for more details.
  15:/usr/include/c++/7/bits/ios_base.h **** 
  16:/usr/include/c++/7/bits/ios_base.h **** // Under Section 7 of GPL version 3, you are granted additional
  17:/usr/include/c++/7/bits/ios_base.h **** // permissions described in the GCC Runtime Library Exception, version
  18:/usr/include/c++/7/bits/ios_base.h **** // 3.1, as published by the Free Software Foundation.
  19:/usr/include/c++/7/bits/ios_base.h **** 
  20:/usr/include/c++/7/bits/ios_base.h **** // You should have received a copy of the GNU General Public License and
  21:/usr/include/c++/7/bits/ios_base.h **** // a copy of the GCC Runtime Library Exception along with this program;
  22:/usr/include/c++/7/bits/ios_base.h **** // see the files COPYING3 and COPYING.RUNTIME respectively.  If not, see
  23:/usr/include/c++/7/bits/ios_base.h **** // <http://www.gnu.org/licenses/>.
  24:/usr/include/c++/7/bits/ios_base.h **** 
  25:/usr/include/c++/7/bits/ios_base.h **** /** @file bits/ios_base.h
  26:/usr/include/c++/7/bits/ios_base.h ****  *  This is an internal header file, included by other library headers.
  27:/usr/include/c++/7/bits/ios_base.h ****  *  Do not attempt to use it directly. @headername{ios}
  28:/usr/include/c++/7/bits/ios_base.h ****  */
  29:/usr/include/c++/7/bits/ios_base.h **** 
  30:/usr/include/c++/7/bits/ios_base.h **** //
  31:/usr/include/c++/7/bits/ios_base.h **** // ISO C++ 14882: 27.4  Iostreams base classes
  32:/usr/include/c++/7/bits/ios_base.h **** //
  33:/usr/include/c++/7/bits/ios_base.h **** 
  34:/usr/include/c++/7/bits/ios_base.h **** #ifndef _IOS_BASE_H
  35:/usr/include/c++/7/bits/ios_base.h **** #define _IOS_BASE_H 1
  36:/usr/include/c++/7/bits/ios_base.h **** 
  37:/usr/include/c++/7/bits/ios_base.h **** #pragma GCC system_header
  38:/usr/include/c++/7/bits/ios_base.h **** 
  39:/usr/include/c++/7/bits/ios_base.h **** #include <ext/atomicity.h>
  40:/usr/include/c++/7/bits/ios_base.h **** #include <bits/localefwd.h>
  41:/usr/include/c++/7/bits/ios_base.h **** #include <bits/locale_classes.h>
  42:/usr/include/c++/7/bits/ios_base.h **** 
  43:/usr/include/c++/7/bits/ios_base.h **** #if __cplusplus < 201103L
  44:/usr/include/c++/7/bits/ios_base.h **** # include <stdexcept>
  45:/usr/include/c++/7/bits/ios_base.h **** #else
  46:/usr/include/c++/7/bits/ios_base.h **** # include <system_error>
  47:/usr/include/c++/7/bits/ios_base.h **** #endif
  48:/usr/include/c++/7/bits/ios_base.h **** 
  49:/usr/include/c++/7/bits/ios_base.h **** namespace std _GLIBCXX_VISIBILITY(default)
  50:/usr/include/c++/7/bits/ios_base.h **** {
  51:/usr/include/c++/7/bits/ios_base.h **** _GLIBCXX_BEGIN_NAMESPACE_VERSION
  52:/usr/include/c++/7/bits/ios_base.h **** 
  53:/usr/include/c++/7/bits/ios_base.h ****   // The following definitions of bitmask types are enums, not ints,
  54:/usr/include/c++/7/bits/ios_base.h ****   // as permitted (but not required) in the standard, in order to provide
  55:/usr/include/c++/7/bits/ios_base.h ****   // better type safety in iostream calls.  A side effect is that in C++98
  56:/usr/include/c++/7/bits/ios_base.h ****   // expressions involving them are not compile-time constants.
  57:/usr/include/c++/7/bits/ios_base.h ****   enum _Ios_Fmtflags 
  58:/usr/include/c++/7/bits/ios_base.h ****     { 
  59:/usr/include/c++/7/bits/ios_base.h ****       _S_boolalpha 	= 1L << 0,
  60:/usr/include/c++/7/bits/ios_base.h ****       _S_dec 		= 1L << 1,
  61:/usr/include/c++/7/bits/ios_base.h ****       _S_fixed 		= 1L << 2,
  62:/usr/include/c++/7/bits/ios_base.h ****       _S_hex 		= 1L << 3,
  63:/usr/include/c++/7/bits/ios_base.h ****       _S_internal 	= 1L << 4,
  64:/usr/include/c++/7/bits/ios_base.h ****       _S_left 		= 1L << 5,
  65:/usr/include/c++/7/bits/ios_base.h ****       _S_oct 		= 1L << 6,
  66:/usr/include/c++/7/bits/ios_base.h ****       _S_right 		= 1L << 7,
  67:/usr/include/c++/7/bits/ios_base.h ****       _S_scientific 	= 1L << 8,
  68:/usr/include/c++/7/bits/ios_base.h ****       _S_showbase 	= 1L << 9,
  69:/usr/include/c++/7/bits/ios_base.h ****       _S_showpoint 	= 1L << 10,
  70:/usr/include/c++/7/bits/ios_base.h ****       _S_showpos 	= 1L << 11,
  71:/usr/include/c++/7/bits/ios_base.h ****       _S_skipws 	= 1L << 12,
  72:/usr/include/c++/7/bits/ios_base.h ****       _S_unitbuf 	= 1L << 13,
  73:/usr/include/c++/7/bits/ios_base.h ****       _S_uppercase 	= 1L << 14,
  74:/usr/include/c++/7/bits/ios_base.h ****       _S_adjustfield 	= _S_left | _S_right | _S_internal,
  75:/usr/include/c++/7/bits/ios_base.h ****       _S_basefield 	= _S_dec | _S_oct | _S_hex,
  76:/usr/include/c++/7/bits/ios_base.h ****       _S_floatfield 	= _S_scientific | _S_fixed,
  77:/usr/include/c++/7/bits/ios_base.h ****       _S_ios_fmtflags_end = 1L << 16,
  78:/usr/include/c++/7/bits/ios_base.h ****       _S_ios_fmtflags_max = __INT_MAX__,
  79:/usr/include/c++/7/bits/ios_base.h ****       _S_ios_fmtflags_min = ~__INT_MAX__
  80:/usr/include/c++/7/bits/ios_base.h ****     };
  81:/usr/include/c++/7/bits/ios_base.h **** 
  82:/usr/include/c++/7/bits/ios_base.h ****   inline _GLIBCXX_CONSTEXPR _Ios_Fmtflags
  83:/usr/include/c++/7/bits/ios_base.h ****   operator&(_Ios_Fmtflags __a, _Ios_Fmtflags __b)
  84:/usr/include/c++/7/bits/ios_base.h ****   { return _Ios_Fmtflags(static_cast<int>(__a) & static_cast<int>(__b)); }
  85:/usr/include/c++/7/bits/ios_base.h **** 
  86:/usr/include/c++/7/bits/ios_base.h ****   inline _GLIBCXX_CONSTEXPR _Ios_Fmtflags
  87:/usr/include/c++/7/bits/ios_base.h ****   operator|(_Ios_Fmtflags __a, _Ios_Fmtflags __b)
  88:/usr/include/c++/7/bits/ios_base.h ****   { return _Ios_Fmtflags(static_cast<int>(__a) | static_cast<int>(__b)); }
  89:/usr/include/c++/7/bits/ios_base.h **** 
  90:/usr/include/c++/7/bits/ios_base.h ****   inline _GLIBCXX_CONSTEXPR _Ios_Fmtflags
  91:/usr/include/c++/7/bits/ios_base.h ****   operator^(_Ios_Fmtflags __a, _Ios_Fmtflags __b)
  92:/usr/include/c++/7/bits/ios_base.h ****   { return _Ios_Fmtflags(static_cast<int>(__a) ^ static_cast<int>(__b)); }
  93:/usr/include/c++/7/bits/ios_base.h **** 
  94:/usr/include/c++/7/bits/ios_base.h ****   inline _GLIBCXX_CONSTEXPR _Ios_Fmtflags
  95:/usr/include/c++/7/bits/ios_base.h ****   operator~(_Ios_Fmtflags __a)
  96:/usr/include/c++/7/bits/ios_base.h ****   { return _Ios_Fmtflags(~static_cast<int>(__a)); }
  97:/usr/include/c++/7/bits/ios_base.h **** 
  98:/usr/include/c++/7/bits/ios_base.h ****   inline const _Ios_Fmtflags&
  99:/usr/include/c++/7/bits/ios_base.h ****   operator|=(_Ios_Fmtflags& __a, _Ios_Fmtflags __b)
 100:/usr/include/c++/7/bits/ios_base.h ****   { return __a = __a | __b; }
 101:/usr/include/c++/7/bits/ios_base.h **** 
 102:/usr/include/c++/7/bits/ios_base.h ****   inline const _Ios_Fmtflags&
 103:/usr/include/c++/7/bits/ios_base.h ****   operator&=(_Ios_Fmtflags& __a, _Ios_Fmtflags __b)
 104:/usr/include/c++/7/bits/ios_base.h ****   { return __a = __a & __b; }
 105:/usr/include/c++/7/bits/ios_base.h **** 
 106:/usr/include/c++/7/bits/ios_base.h ****   inline const _Ios_Fmtflags&
 107:/usr/include/c++/7/bits/ios_base.h ****   operator^=(_Ios_Fmtflags& __a, _Ios_Fmtflags __b)
 108:/usr/include/c++/7/bits/ios_base.h ****   { return __a = __a ^ __b; }
 109:/usr/include/c++/7/bits/ios_base.h **** 
 110:/usr/include/c++/7/bits/ios_base.h **** 
 111:/usr/include/c++/7/bits/ios_base.h ****   enum _Ios_Openmode 
 112:/usr/include/c++/7/bits/ios_base.h ****     { 
 113:/usr/include/c++/7/bits/ios_base.h ****       _S_app 		= 1L << 0,
 114:/usr/include/c++/7/bits/ios_base.h ****       _S_ate 		= 1L << 1,
 115:/usr/include/c++/7/bits/ios_base.h ****       _S_bin 		= 1L << 2,
 116:/usr/include/c++/7/bits/ios_base.h ****       _S_in 		= 1L << 3,
 117:/usr/include/c++/7/bits/ios_base.h ****       _S_out 		= 1L << 4,
 118:/usr/include/c++/7/bits/ios_base.h ****       _S_trunc 		= 1L << 5,
 119:/usr/include/c++/7/bits/ios_base.h ****       _S_ios_openmode_end = 1L << 16,
 120:/usr/include/c++/7/bits/ios_base.h ****       _S_ios_openmode_max = __INT_MAX__,
 121:/usr/include/c++/7/bits/ios_base.h ****       _S_ios_openmode_min = ~__INT_MAX__
 122:/usr/include/c++/7/bits/ios_base.h ****     };
 123:/usr/include/c++/7/bits/ios_base.h **** 
 124:/usr/include/c++/7/bits/ios_base.h ****   inline _GLIBCXX_CONSTEXPR _Ios_Openmode
 125:/usr/include/c++/7/bits/ios_base.h ****   operator&(_Ios_Openmode __a, _Ios_Openmode __b)
 126:/usr/include/c++/7/bits/ios_base.h ****   { return _Ios_Openmode(static_cast<int>(__a) & static_cast<int>(__b)); }
 127:/usr/include/c++/7/bits/ios_base.h **** 
 128:/usr/include/c++/7/bits/ios_base.h ****   inline _GLIBCXX_CONSTEXPR _Ios_Openmode
 129:/usr/include/c++/7/bits/ios_base.h ****   operator|(_Ios_Openmode __a, _Ios_Openmode __b)
 130:/usr/include/c++/7/bits/ios_base.h ****   { return _Ios_Openmode(static_cast<int>(__a) | static_cast<int>(__b)); }
  10              		.loc 1 130 0
  11              		.cfi_startproc
  12 0000 55       		pushq	%rbp
  13              		.cfi_def_cfa_offset 16
  14              		.cfi_offset 6, -16
  15 0001 4889E5   		movq	%rsp, %rbp
  16              		.cfi_def_cfa_register 6
  17 0004 897DFC   		movl	%edi, -4(%rbp)
  18 0007 8975F8   		movl	%esi, -8(%rbp)
  19              		.loc 1 130 0
  20 000a 8B45FC   		movl	-4(%rbp), %eax
  21 000d 0B45F8   		orl	-8(%rbp), %eax
  22 0010 5D       		popq	%rbp
  23              		.cfi_def_cfa 7, 8
  24 0011 C3       		ret
  25              		.cfi_endproc
  26              	.LFE663:
  28              		.section	.rodata
  29              	.LC0:
  30 0000 44656661 		.string	"DefaultSuite"
  30      756C7453 
  30      75697465 
  30      00
  31              		.section	.text._ZN13UnitTestSuite12GetSuiteNameEv,"axG",@progbits,_ZN13UnitTestSuite12GetSuiteName
  32              		.weak	_ZN13UnitTestSuite12GetSuiteNameEv
  34              	_ZN13UnitTestSuite12GetSuiteNameEv:
  35              	.LFB1104:
  36              		.file 2 "/home/gani/eval/20140524/makestuff/libs/libutpp/TestSuite.h"
   1:/home/gani/eval/20140524/makestuff/libs/libutpp/TestSuite.h **** #ifndef UNITTEST_TESTSUITE_H
   2:/home/gani/eval/20140524/makestuff/libs/libutpp/TestSuite.h **** #define UNITTEST_TESTSUITE_H
   3:/home/gani/eval/20140524/makestuff/libs/libutpp/TestSuite.h **** 
   4:/home/gani/eval/20140524/makestuff/libs/libutpp/TestSuite.h **** namespace UnitTestSuite {
   5:/home/gani/eval/20140524/makestuff/libs/libutpp/TestSuite.h **** 
   6:/home/gani/eval/20140524/makestuff/libs/libutpp/TestSuite.h ****     inline char const* GetSuiteName ()
   7:/home/gani/eval/20140524/makestuff/libs/libutpp/TestSuite.h ****     {
  37              		.loc 2 7 0
  38              		.cfi_startproc
  39 0000 55       		pushq	%rbp
  40              		.cfi_def_cfa_offset 16
  41              		.cfi_offset 6, -16
  42 0001 4889E5   		movq	%rsp, %rbp
  43              		.cfi_def_cfa_register 6
   8:/home/gani/eval/20140524/makestuff/libs/libutpp/TestSuite.h ****         return "DefaultSuite";
  44              		.loc 2 8 0
  45 0004 488D0500 		leaq	.LC0(%rip), %rax
  45      000000
   9:/home/gani/eval/20140524/makestuff/libs/libutpp/TestSuite.h ****     }
  46              		.loc 2 9 0
  47 000b 5D       		popq	%rbp
  48              		.cfi_def_cfa 7, 8
  49 000c C3       		ret
  50              		.cfi_endproc
  51              	.LFE1104:
  53              		.section	.text._ZN8UnitTest15MemoryOutStreamC1Ev,"axG",@progbits,_ZN8UnitTest15MemoryOutStreamC1Ev
  54              		.align 2
  55              		.weak	_ZN8UnitTest15MemoryOutStreamC1Ev
  57              	_ZN8UnitTest15MemoryOutStreamC1Ev:
  58              	.LFB1140:
  59              		.file 3 "/home/gani/eval/20140524/makestuff/libs/libutpp/MemoryOutStream.h"
   1:/home/gani/eval/20140524/makestuff/libs/libutpp/MemoryOutStream.h **** #ifndef UNITTEST_MEMORYOUTSTREAM_H
   2:/home/gani/eval/20140524/makestuff/libs/libutpp/MemoryOutStream.h **** #define UNITTEST_MEMORYOUTSTREAM_H
   3:/home/gani/eval/20140524/makestuff/libs/libutpp/MemoryOutStream.h **** 
   4:/home/gani/eval/20140524/makestuff/libs/libutpp/MemoryOutStream.h **** #include "Config.h"
   5:/home/gani/eval/20140524/makestuff/libs/libutpp/MemoryOutStream.h **** 
   6:/home/gani/eval/20140524/makestuff/libs/libutpp/MemoryOutStream.h **** #ifndef UNITTEST_USE_CUSTOM_STREAMS
   7:/home/gani/eval/20140524/makestuff/libs/libutpp/MemoryOutStream.h **** 
   8:/home/gani/eval/20140524/makestuff/libs/libutpp/MemoryOutStream.h **** #include <sstream>
   9:/home/gani/eval/20140524/makestuff/libs/libutpp/MemoryOutStream.h **** 
  10:/home/gani/eval/20140524/makestuff/libs/libutpp/MemoryOutStream.h **** namespace UnitTest
  11:/home/gani/eval/20140524/makestuff/libs/libutpp/MemoryOutStream.h **** {
  12:/home/gani/eval/20140524/makestuff/libs/libutpp/MemoryOutStream.h **** 
  13:/home/gani/eval/20140524/makestuff/libs/libutpp/MemoryOutStream.h **** class MemoryOutStream : public std::ostringstream
  14:/home/gani/eval/20140524/makestuff/libs/libutpp/MemoryOutStream.h **** {
  15:/home/gani/eval/20140524/makestuff/libs/libutpp/MemoryOutStream.h **** public:
  16:/home/gani/eval/20140524/makestuff/libs/libutpp/MemoryOutStream.h ****     MemoryOutStream() {}
  60              		.loc 3 16 0
  61              		.cfi_startproc
  62              		.cfi_personality 0x9b,DW.ref.__gxx_personality_v0
  63              		.cfi_lsda 0x1b,.LLSDA1140
  64 0000 55       		pushq	%rbp
  65              		.cfi_def_cfa_offset 16
  66              		.cfi_offset 6, -16
  67 0001 4889E5   		movq	%rsp, %rbp
  68              		.cfi_def_cfa_register 6
  69 0004 53       		pushq	%rbx
  70 0005 4883EC18 		subq	$24, %rsp
  71              		.cfi_offset 3, -24
  72 0009 48897DE8 		movq	%rdi, -24(%rbp)
  73              	.LBB2:
  74              		.loc 3 16 0
  75 000d 488B45E8 		movq	-24(%rbp), %rax
  76 0011 48059000 		addq	$144, %rax
  76      0000
  77 0017 4889C7   		movq	%rax, %rdi
  78              	.LEHB0:
  79 001a E8000000 		call	_ZNSt9basic_iosIcSt11char_traitsIcEEC2Ev@PLT
  79      00
  80              	.LEHE0:
  81 001f 488B45E8 		movq	-24(%rbp), %rax
  82 0023 488D0D00 		leaq	8+_ZTTN8UnitTest15MemoryOutStreamE(%rip), %rcx
  82      000000
  83 002a BA100000 		movl	$16, %edx
  83      00
  84 002f 4889CE   		movq	%rcx, %rsi
  85 0032 4889C7   		movq	%rax, %rdi
  86              	.LEHB1:
  87 0035 E8000000 		call	_ZNSt7__cxx1119basic_ostringstreamIcSt11char_traitsIcESaIcEEC2ESt13_Ios_Openmode@PLT
  87      00
  88              	.LEHE1:
  89              		.loc 3 16 0 is_stmt 0 discriminator 8
  90 003a 488D1500 		leaq	24+_ZTVN8UnitTest15MemoryOutStreamE(%rip), %rdx
  90      000000
  91 0041 488B45E8 		movq	-24(%rbp), %rax
  92 0045 488910   		movq	%rdx, (%rax)
  93 0048 488B45E8 		movq	-24(%rbp), %rax
  94 004c 488D9090 		leaq	144(%rax), %rdx
  94      000000
  95 0053 488D0500 		leaq	64+_ZTVN8UnitTest15MemoryOutStreamE(%rip), %rax
  95      000000
  96 005a 488902   		movq	%rax, (%rdx)
  97 005d 488B45E8 		movq	-24(%rbp), %rax
  98 0061 4883C070 		addq	$112, %rax
  99 0065 4889C7   		movq	%rax, %rdi
 100              	.LEHB2:
 101 0068 E8000000 		call	_ZNSt7__cxx1112basic_stringIcSt11char_traitsIcESaIcEEC1Ev@PLT
 101      00
 102              	.LEHE2:
 103              	.LBE2:
 104              		.loc 3 16 0
 105 006d EB3B     		jmp	.L11
 106              	.L9:
 107 006f 4889C3   		movq	%rax, %rbx
 108              	.LBB3:
 109 0072 488B45E8 		movq	-24(%rbp), %rax
 110 0076 488D1500 		leaq	8+_ZTTN8UnitTest15MemoryOutStreamE(%rip), %rdx
 110      000000
 111 007d 4889D6   		movq	%rdx, %rsi
 112 0080 4889C7   		movq	%rax, %rdi
 113 0083 E8000000 		call	_ZNSt7__cxx1119basic_ostringstreamIcSt11char_traitsIcESaIcEED2Ev@PLT
 113      00
 114 0088 EB03     		jmp	.L10
 115              	.L8:
 116 008a 4889C3   		movq	%rax, %rbx
 117              	.L10:
 118              		.loc 3 16 0 discriminator 11
 119 008d 488B45E8 		movq	-24(%rbp), %rax
 120 0091 48059000 		addq	$144, %rax
 120      0000
 121 0097 4889C7   		movq	%rax, %rdi
 122 009a E8000000 		call	_ZNSt9basic_iosIcSt11char_traitsIcEED2Ev@PLT
 122      00
 123 009f 4889D8   		movq	%rbx, %rax
 124 00a2 4889C7   		movq	%rax, %rdi
 125              	.LEHB3:
 126 00a5 E8000000 		call	_Unwind_Resume@PLT
 126      00
 127              	.LEHE3:
 128              	.L11:
 129              	.LBE3:
 130              		.loc 3 16 0
 131 00aa 4883C418 		addq	$24, %rsp
 132 00ae 5B       		popq	%rbx
 133 00af 5D       		popq	%rbp
 134              		.cfi_def_cfa 7, 8
 135 00b0 C3       		ret
 136              		.cfi_endproc
 137              	.LFE1140:
 138              		.globl	__gxx_personality_v0
 139              		.section	.gcc_except_table._ZN8UnitTest15MemoryOutStreamC1Ev,"aG",@progbits,_ZN8UnitTest15MemoryOu
 140              	.LLSDA1140:
 141 0000 FF       		.byte	0xff
 142 0001 FF       		.byte	0xff
 143 0002 01       		.byte	0x1
 144 0003 12       		.uleb128 .LLSDACSE1140-.LLSDACSB1140
 145              	.LLSDACSB1140:
 146 0004 1A       		.uleb128 .LEHB0-.LFB1140
 147 0005 05       		.uleb128 .LEHE0-.LEHB0
 148 0006 00       		.uleb128 0
 149 0007 00       		.uleb128 0
 150 0008 35       		.uleb128 .LEHB1-.LFB1140
 151 0009 05       		.uleb128 .LEHE1-.LEHB1
 152 000a 8A01     		.uleb128 .L8-.LFB1140
 153 000c 00       		.uleb128 0
 154 000d 68       		.uleb128 .LEHB2-.LFB1140
 155 000e 05       		.uleb128 .LEHE2-.LEHB2
 156 000f 6F       		.uleb128 .L9-.LFB1140
 157 0010 00       		.uleb128 0
 158 0011 A501     		.uleb128 .LEHB3-.LFB1140
 159 0013 05       		.uleb128 .LEHE3-.LEHB3
 160 0014 00       		.uleb128 0
 161 0015 00       		.uleb128 0
 162              	.LLSDACSE1140:
 163              		.section	.text._ZN8UnitTest15MemoryOutStreamC1Ev,"axG",@progbits,_ZN8UnitTest15MemoryOutStreamC1Ev
 165              		.section	.rodata
 166              	.LC1:
 167 000d 74657374 		.string	"testHexIO.cpp"
 167      48657849 
 167      4F2E6370 
 167      7000
 168              	.LC2:
 169 001b 48657849 		.string	"HexIO_testValidDataLine"
 169      4F5F7465 
 169      73745661 
 169      6C696444 
 169      6174614C 
 170              		.section	.text._ZN27TestHexIO_testValidDataLineC2Ev,"axG",@progbits,_ZN27TestHexIO_testValidDataLi
 171              		.align 2
 172              		.weak	_ZN27TestHexIO_testValidDataLineC2Ev
 174              	_ZN27TestHexIO_testValidDataLineC2Ev:
 175              	.LFB1157:
 176              		.file 4 "testHexIO.cpp"
   1:testHexIO.cpp **** /*
   2:testHexIO.cpp ****  * Copyright (C) 2009-2012 Chris McClelland
   3:testHexIO.cpp ****  *
   4:testHexIO.cpp ****  * This program is free software: you can redistribute it and/or modify
   5:testHexIO.cpp ****  * it under the terms of the GNU Lesser General Public License as published by
   6:testHexIO.cpp ****  * the Free Software Foundation, either version 3 of the License, or
   7:testHexIO.cpp ****  * (at your option) any later version.
   8:testHexIO.cpp ****  *
   9:testHexIO.cpp ****  * This program is distributed in the hope that it will be useful,
  10:testHexIO.cpp ****  * but WITHOUT ANY WARRANTY; without even the implied warranty of
  11:testHexIO.cpp ****  * MERCHANTABILITY or FITNESS FOR A PARTICULAR PURPOSE.  See the
  12:testHexIO.cpp ****  * GNU Lesser General Public License for more details.
  13:testHexIO.cpp ****  *
  14:testHexIO.cpp ****  * You should have received a copy of the GNU Lesser General Public License
  15:testHexIO.cpp ****  * along with this program.  If not, see <http://www.gnu.org/licenses/>.
  16:testHexIO.cpp ****  */
  17:testHexIO.cpp **** #include <cstdarg>
  18:testHexIO.cpp **** #include <string>
  19:testHexIO.cpp **** #include <fstream>
  20:testHexIO.cpp **** #include <cstring>
  21:testHexIO.cpp **** #include <UnitTest++.h>
  22:testHexIO.cpp **** #include "../private.h"
  23:testHexIO.cpp **** #include "../libbuffer.h"
  24:testHexIO.cpp **** 
  25:testHexIO.cpp **** using namespace std;
  26:testHexIO.cpp **** 
  27:testHexIO.cpp **** TEST(HexIO_testValidDataLine) {
 177              		.loc 4 27 0 is_stmt 1
 178              		.cfi_startproc
 179 0000 55       		pushq	%rbp
 180              		.cfi_def_cfa_offset 16
 181              		.cfi_offset 6, -16
 182 0001 4889E5   		movq	%rsp, %rbp
 183              		.cfi_def_cfa_register 6
 184 0004 53       		pushq	%rbx
 185 0005 4883EC18 		subq	$24, %rsp
 186              		.cfi_offset 3, -24
 187 0009 48897DE8 		movq	%rdi, -24(%rbp)
 188              	.LBB4:
 189              		.loc 4 27 0
 190 000d 488B5DE8 		movq	-24(%rbp), %rbx
 191 0011 E8000000 		call	_ZN13UnitTestSuite12GetSuiteNameEv
 191      00
 192 0016 41B81B00 		movl	$27, %r8d
 192      0000
 193 001c 488D0D00 		leaq	.LC1(%rip), %rcx
 193      000000
 194 0023 4889C2   		movq	%rax, %rdx
 195 0026 488D3500 		leaq	.LC2(%rip), %rsi
 195      000000
 196 002d 4889DF   		movq	%rbx, %rdi
 197 0030 E8000000 		call	_ZN8UnitTest4TestC2EPKcS2_S2_i@PLT
 197      00
 198 0035 488D1500 		leaq	16+_ZTV27TestHexIO_testValidDataLine(%rip), %rdx
 198      000000
 199 003c 488B45E8 		movq	-24(%rbp), %rax
 200 0040 488910   		movq	%rdx, (%rax)
 201              	.LBE4:
 202 0043 90       		nop
 203 0044 4883C418 		addq	$24, %rsp
 204 0048 5B       		popq	%rbx
 205 0049 5D       		popq	%rbp
 206              		.cfi_def_cfa 7, 8
 207 004a C3       		ret
 208              		.cfi_endproc
 209              	.LFE1157:
 211              		.weak	_ZN27TestHexIO_testValidDataLineC1Ev
 212              		.set	_ZN27TestHexIO_testValidDataLineC1Ev,_ZN27TestHexIO_testValidDataLineC2Ev
 213              		.globl	testHexIO_testValidDataLineInstance
 214              		.bss
 215              		.align 32
 218              	testHexIO_testValidDataLineInstance:
 219 0000 00000000 		.zero	56
 219      00000000 
 219      00000000 
 219      00000000 
 219      00000000 
 220              		.globl	adderHexIO_testValidDataLine
 223              	adderHexIO_testValidDataLine:
 224 0038 00       		.zero	1
 225              		.section	.rodata
 226              	.LC3:
 227 0033 3A303430 		.string	":040BE10075820022F7\n"
 227      42453130 
 227      30373538 
 227      32303032 
 227      3246370A 
 228              		.align 8
 229              	.LC4:
 230 0048 556E6861 		.string	"Unhandled exception in CHECK_EQUAL(BUF_SUCCESS, status)"
 230      6E646C65 
 230      64206578 
 230      63657074 
 230      696F6E20 
 231              		.align 8
 232              	.LC5:
 233 0080 556E6861 		.string	"Unhandled exception in CHECK_EQUAL(0x00, recordType)"
 233      6E646C65 
 233      64206578 
 233      63657074 
 233      696F6E20 
 234 00b5 000000   		.align 8
 235              	.LC6:
 236 00b8 556E6861 		.string	"Unhandled exception in CHECK_EQUAL(0x0BE1+4UL, data.length)"
 236      6E646C65 
 236      64206578 
 236      63657074 
 236      696F6E20 
 237 00f4 00000000 		.align 8
 238              	.LC7:
 239 00f8 556E6861 		.string	"Unhandled exception in CHECK_EQUAL(0x0BE1+4UL, mask.length)"
 239      6E646C65 
 239      64206578 
 239      63657074 
 239      696F6E20 
 240 0134 00000000 		.align 8
 241              	.LC8:
 242 0138 556E6861 		.string	"Unhandled exception in CHECK_EQUAL(4096UL, data.capacity)"
 242      6E646C65 
 242      64206578 
 242      63657074 
 242      696F6E20 
 243 0172 00000000 		.align 8
 243      0000
 244              	.LC9:
 245 0178 556E6861 		.string	"Unhandled exception in CHECK_EQUAL(4096UL, mask.capacity)"
 245      6E646C65 
 245      64206578 
 245      63657074 
 245      696F6E20 
 246 01b2 00000000 		.align 8
 246      0000
 247              	.LC10:
 248 01b8 556E6861 		.string	"Unhandled exception in CHECK_ARRAY_EQUAL(expected, data.data + 0x0BE1)"
 248      6E646C65 
 248      64206578 
 248      63657074 
 248      696F6E20 
 249              		.text
 250              		.align 2
 251              		.globl	_ZNK27TestHexIO_testValidDataLine7RunImplEv
 253              	_ZNK27TestHexIO_testValidDataLine7RunImplEv:
 254              	.LFB1159:
 255              		.loc 4 27 0
 256              		.cfi_startproc
 257              		.cfi_personality 0x9b,DW.ref.__gxx_personality_v0
 258              		.cfi_lsda 0x1b,.LLSDA1159
 259 0000 55       		pushq	%rbp
 260              		.cfi_def_cfa_offset 16
 261              		.cfi_offset 6, -16
 262 0001 4889E5   		movq	%rsp, %rbp
 263              		.cfi_def_cfa_register 6
 264 0004 53       		pushq	%rbx
 265 0005 4881ECA8 		subq	$168, %rsp
 265      000000
 266              		.cfi_offset 3, -24
 267 000c 4889BD58 		movq	%rdi, -168(%rbp)
 267      FFFFFF
 268              		.loc 4 27 0
 269 0013 64488B04 		movq	%fs:40, %rax
 269      25280000 
 269      00
 270 001c 488945E8 		movq	%rax, -24(%rbp)
 271 0020 31C0     		xorl	%eax, %eax
  28:testHexIO.cpp **** 	Buffer data, mask;
  29:testHexIO.cpp **** 	BufferStatus status;
  30:testHexIO.cpp **** 	const char *line = ":040BE10075820022F7\n";
 272              		.loc 4 30 0
 273 0022 488D0500 		leaq	.LC3(%rip), %rax
 273      000000
 274 0029 48898578 		movq	%rax, -136(%rbp)
 274      FFFFFF
  31:testHexIO.cpp **** 	uint8 recordType;
  32:testHexIO.cpp **** 	uint32 seg = 0x00000000;
 275              		.loc 4 32 0
 276 0030 C7856CFF 		movl	$0, -148(%rbp)
 276      FFFF0000 
 276      0000
  33:testHexIO.cpp **** 	const uint8 expected[] = {0x75, 0x82, 0x00, 0x22};
 277              		.loc 4 33 0
 278 003a C645E475 		movb	$117, -28(%rbp)
 279 003e C645E582 		movb	$-126, -27(%rbp)
 280 0042 C645E600 		movb	$0, -26(%rbp)
 281 0046 C645E722 		movb	$34, -25(%rbp)
  34:testHexIO.cpp **** 	status = bufInitialise(&data, 1024, 0x00, NULL);
 282              		.loc 4 34 0
 283 004a 488D4580 		leaq	-128(%rbp), %rax
 284 004e B9000000 		movl	$0, %ecx
 284      00
 285 0053 BA000000 		movl	$0, %edx
 285      00
 286 0058 BE000400 		movl	$1024, %esi
 286      00
 287 005d 4889C7   		movq	%rax, %rdi
 288              	.LEHB4:
 289 0060 E8000000 		call	bufInitialise@PLT
 289      00
 290              	.LEHE4:
 291 0065 898568FF 		movl	%eax, -152(%rbp)
 291      FFFF
 292              	.LEHB5:
  35:testHexIO.cpp **** 	CHECK_EQUAL(BUF_SUCCESS, status);
 293              		.loc 4 35 0
 294 006b E8000000 		call	_ZN8UnitTest11CurrentTest7DetailsEv@PLT
 294      00
 295 0070 488B08   		movq	(%rax), %rcx
 296 0073 488D45C0 		leaq	-64(%rbp), %rax
 297 0077 BA230000 		movl	$35, %edx
 297      00
 298 007c 4889CE   		movq	%rcx, %rsi
 299 007f 4889C7   		movq	%rax, %rdi
 300 0082 E8000000 		call	_ZN8UnitTest11TestDetailsC1ERKS0_i@PLT
 300      00
 301              	.LEHE5:
 302              		.loc 4 35 0 is_stmt 0 discriminator 2
 303 0087 C745A000 		movl	$0, -96(%rbp)
 303      000000
 304              	.LEHB6:
 305 008e E8000000 		call	_ZN8UnitTest11CurrentTest7ResultsEv@PLT
 305      00
 306 0093 488B00   		movq	(%rax), %rax
 307 0096 488D4DC0 		leaq	-64(%rbp), %rcx
 308 009a 488D9568 		leaq	-152(%rbp), %rdx
 308      FFFFFF
 309 00a1 488D75A0 		leaq	-96(%rbp), %rsi
 310 00a5 4889C7   		movq	%rax, %rdi
 311 00a8 E8000000 		call	_ZN8UnitTest10CheckEqualI12BufferStatusS1_EEvRNS_11TestResultsERKT_RKT0_RKNS_11TestDetailsE
 311      00
 312              	.LEHE6:
 313              	.L16:
  36:testHexIO.cpp **** 	status = bufInitialise(&mask, 1024, 0x00, NULL);
 314              		.loc 4 36 0 is_stmt 1
 315 00ad 488D45A0 		leaq	-96(%rbp), %rax
 316 00b1 B9000000 		movl	$0, %ecx
 316      00
 317 00b6 BA000000 		movl	$0, %edx
 317      00
 318 00bb BE000400 		movl	$1024, %esi
 318      00
 319 00c0 4889C7   		movq	%rax, %rdi
 320              	.LEHB7:
 321 00c3 E8000000 		call	bufInitialise@PLT
 321      00
 322              	.LEHE7:
 323 00c8 898568FF 		movl	%eax, -152(%rbp)
 323      FFFF
 324              	.LEHB8:
  37:testHexIO.cpp **** 	CHECK_EQUAL(BUF_SUCCESS, status);
 325              		.loc 4 37 0
 326 00ce E8000000 		call	_ZN8UnitTest11CurrentTest7DetailsEv@PLT
 326      00
 327 00d3 488B08   		movq	(%rax), %rcx
 328 00d6 488D45C0 		leaq	-64(%rbp), %rax
 329 00da BA250000 		movl	$37, %edx
 329      00
 330 00df 4889CE   		movq	%rcx, %rsi
 331 00e2 4889C7   		movq	%rax, %rdi
 332 00e5 E8000000 		call	_ZN8UnitTest11TestDetailsC1ERKS0_i@PLT
 332      00
 333              	.LEHE8:
 334              		.loc 4 37 0 is_stmt 0 discriminator 2
 335 00ea C78570FF 		movl	$0, -144(%rbp)
 335      FFFF0000 
 335      0000
 336              	.LEHB9:
 337 00f4 E8000000 		call	_ZN8UnitTest11CurrentTest7ResultsEv@PLT
 337      00
 338 00f9 488B00   		movq	(%rax), %rax
 339 00fc 488D4DC0 		leaq	-64(%rbp), %rcx
 340 0100 488D9568 		leaq	-152(%rbp), %rdx
 340      FFFFFF
 341 0107 488DB570 		leaq	-144(%rbp), %rsi
 341      FFFFFF
 342 010e 4889C7   		movq	%rax, %rdi
 343 0111 E8000000 		call	_ZN8UnitTest10CheckEqualI12BufferStatusS1_EEvRNS_11TestResultsERKT_RKT0_RKNS_11TestDetailsE
 343      00
 344              	.LEHE9:
 345              	.L20:
  38:testHexIO.cpp **** 	status = bufProcessLine(line, 0, &data, &mask, &seg, &recordType, NULL);
 346              		.loc 4 38 0 is_stmt 1
 347 0116 488DBD67 		leaq	-153(%rbp), %rdi
 347      FFFFFF
 348 011d 488DB56C 		leaq	-148(%rbp), %rsi
 348      FFFFFF
 349 0124 488D4DA0 		leaq	-96(%rbp), %rcx
 350 0128 488D5580 		leaq	-128(%rbp), %rdx
 351 012c 488B8578 		movq	-136(%rbp), %rax
 351      FFFFFF
 352 0133 4883EC08 		subq	$8, %rsp
 353 0137 6A00     		pushq	$0
 354 0139 4989F9   		movq	%rdi, %r9
 355 013c 4989F0   		movq	%rsi, %r8
 356 013f BE000000 		movl	$0, %esi
 356      00
 357 0144 4889C7   		movq	%rax, %rdi
 358              	.LEHB10:
 359 0147 E8000000 		call	bufProcessLine@PLT
 359      00
 360              	.LEHE10:
 361 014c 4883C410 		addq	$16, %rsp
 362 0150 898568FF 		movl	%eax, -152(%rbp)
 362      FFFF
 363              	.LEHB11:
  39:testHexIO.cpp **** 	CHECK_EQUAL(BUF_SUCCESS, status);
 364              		.loc 4 39 0
 365 0156 E8000000 		call	_ZN8UnitTest11CurrentTest7DetailsEv@PLT
 365      00
 366 015b 488B08   		movq	(%rax), %rcx
 367 015e 488D45C0 		leaq	-64(%rbp), %rax
 368 0162 BA270000 		movl	$39, %edx
 368      00
 369 0167 4889CE   		movq	%rcx, %rsi
 370 016a 4889C7   		movq	%rax, %rdi
 371 016d E8000000 		call	_ZN8UnitTest11TestDetailsC1ERKS0_i@PLT
 371      00
 372              	.LEHE11:
 373              		.loc 4 39 0 is_stmt 0 discriminator 2
 374 0172 C78570FF 		movl	$0, -144(%rbp)
 374      FFFF0000 
 374      0000
 375              	.LEHB12:
 376 017c E8000000 		call	_ZN8UnitTest11CurrentTest7ResultsEv@PLT
 376      00
 377 0181 488B00   		movq	(%rax), %rax
 378 0184 488D4DC0 		leaq	-64(%rbp), %rcx
 379 0188 488D9568 		leaq	-152(%rbp), %rdx
 379      FFFFFF
 380 018f 488DB570 		leaq	-144(%rbp), %rsi
 380      FFFFFF
 381 0196 4889C7   		movq	%rax, %rdi
 382 0199 E8000000 		call	_ZN8UnitTest10CheckEqualI12BufferStatusS1_EEvRNS_11TestResultsERKT_RKT0_RKNS_11TestDetailsE
 382      00
 383              	.LEHE12:
 384              	.L24:
 385              	.LEHB13:
  40:testHexIO.cpp **** 	CHECK_EQUAL(0x00, recordType);
 386              		.loc 4 40 0 is_stmt 1
 387 019e E8000000 		call	_ZN8UnitTest11CurrentTest7DetailsEv@PLT
 387      00
 388 01a3 488B08   		movq	(%rax), %rcx
 389 01a6 488D45C0 		leaq	-64(%rbp), %rax
 390 01aa BA280000 		movl	$40, %edx
 390      00
 391 01af 4889CE   		movq	%rcx, %rsi
 392 01b2 4889C7   		movq	%rax, %rdi
 393 01b5 E8000000 		call	_ZN8UnitTest11TestDetailsC1ERKS0_i@PLT
 393      00
 394              	.LEHE13:
 395              		.loc 4 40 0 is_stmt 0 discriminator 2
 396 01ba C78570FF 		movl	$0, -144(%rbp)
 396      FFFF0000 
 396      0000
 397              	.LEHB14:
 398 01c4 E8000000 		call	_ZN8UnitTest11CurrentTest7ResultsEv@PLT
 398      00
 399 01c9 488B00   		movq	(%rax), %rax
 400 01cc 488D4DC0 		leaq	-64(%rbp), %rcx
 401 01d0 488D9567 		leaq	-153(%rbp), %rdx
 401      FFFFFF
 402 01d7 488DB570 		leaq	-144(%rbp), %rsi
 402      FFFFFF
 403 01de 4889C7   		movq	%rax, %rdi
 404 01e1 E8000000 		call	_ZN8UnitTest10CheckEqualIihEEvRNS_11TestResultsERKT_RKT0_RKNS_11TestDetailsE
 404      00
 405              	.LEHE14:
 406              	.L28:
 407              	.LEHB15:
  41:testHexIO.cpp **** 	CHECK_EQUAL(0x0BE1+4UL, data.length);
 408              		.loc 4 41 0 is_stmt 1
 409 01e6 E8000000 		call	_ZN8UnitTest11CurrentTest7DetailsEv@PLT
 409      00
 410 01eb 488B08   		movq	(%rax), %rcx
 411 01ee 488D45C0 		leaq	-64(%rbp), %rax
 412 01f2 BA290000 		movl	$41, %edx
 412      00
 413 01f7 4889CE   		movq	%rcx, %rsi
 414 01fa 4889C7   		movq	%rax, %rdi
 415 01fd E8000000 		call	_ZN8UnitTest11TestDetailsC1ERKS0_i@PLT
 415      00
 416              	.LEHE15:
 417              		.loc 4 41 0 is_stmt 0 discriminator 2
 418 0202 48C78570 		movq	$3045, -144(%rbp)
 418      FFFFFFE5 
 418      0B0000
 419              	.LEHB16:
 420 020d E8000000 		call	_ZN8UnitTest11CurrentTest7ResultsEv@PLT
 420      00
 421 0212 488B00   		movq	(%rax), %rax
 422 0215 488D55C0 		leaq	-64(%rbp), %rdx
 423 0219 488D4D80 		leaq	-128(%rbp), %rcx
 424 021d 488D7908 		leaq	8(%rcx), %rdi
 425 0221 488DB570 		leaq	-144(%rbp), %rsi
 425      FFFFFF
 426 0228 4889D1   		movq	%rdx, %rcx
 427 022b 4889FA   		movq	%rdi, %rdx
 428 022e 4889C7   		movq	%rax, %rdi
 429 0231 E8000000 		call	_ZN8UnitTest10CheckEqualImmEEvRNS_11TestResultsERKT_RKT0_RKNS_11TestDetailsE
 429      00
 430              	.LEHE16:
 431              	.L32:
 432              	.LEHB17:
  42:testHexIO.cpp **** 	CHECK_EQUAL(0x0BE1+4UL, mask.length);
 433              		.loc 4 42 0 is_stmt 1
 434 0236 E8000000 		call	_ZN8UnitTest11CurrentTest7DetailsEv@PLT
 434      00
 435 023b 488B08   		movq	(%rax), %rcx
 436 023e 488D45C0 		leaq	-64(%rbp), %rax
 437 0242 BA2A0000 		movl	$42, %edx
 437      00
 438 0247 4889CE   		movq	%rcx, %rsi
 439 024a 4889C7   		movq	%rax, %rdi
 440 024d E8000000 		call	_ZN8UnitTest11TestDetailsC1ERKS0_i@PLT
 440      00
 441              	.LEHE17:
 442              		.loc 4 42 0 is_stmt 0 discriminator 2
 443 0252 48C78570 		movq	$3045, -144(%rbp)
 443      FFFFFFE5 
 443      0B0000
 444              	.LEHB18:
 445 025d E8000000 		call	_ZN8UnitTest11CurrentTest7ResultsEv@PLT
 445      00
 446 0262 488B00   		movq	(%rax), %rax
 447 0265 488D55C0 		leaq	-64(%rbp), %rdx
 448 0269 488D4DA0 		leaq	-96(%rbp), %rcx
 449 026d 488D7908 		leaq	8(%rcx), %rdi
 450 0271 488DB570 		leaq	-144(%rbp), %rsi
 450      FFFFFF
 451 0278 4889D1   		movq	%rdx, %rcx
 452 027b 4889FA   		movq	%rdi, %rdx
 453 027e 4889C7   		movq	%rax, %rdi
 454 0281 E8000000 		call	_ZN8UnitTest10CheckEqualImmEEvRNS_11TestResultsERKT_RKT0_RKNS_11TestDetailsE
 454      00
 455              	.LEHE18:
 456              	.L36:
 457              	.LEHB19:
  43:testHexIO.cpp **** 	CHECK_EQUAL(4096UL, data.capacity);
 458              		.loc 4 43 0 is_stmt 1
 459 0286 E8000000 		call	_ZN8UnitTest11CurrentTest7DetailsEv@PLT
 459      00
 460 028b 488B08   		movq	(%rax), %rcx
 461 028e 488D45C0 		leaq	-64(%rbp), %rax
 462 0292 BA2B0000 		movl	$43, %edx
 462      00
 463 0297 4889CE   		movq	%rcx, %rsi
 464 029a 4889C7   		movq	%rax, %rdi
 465 029d E8000000 		call	_ZN8UnitTest11TestDetailsC1ERKS0_i@PLT
 465      00
 466              	.LEHE19:
 467              		.loc 4 43 0 is_stmt 0 discriminator 2
 468 02a2 48C78570 		movq	$4096, -144(%rbp)
 468      FFFFFF00 
 468      100000
 469              	.LEHB20:
 470 02ad E8000000 		call	_ZN8UnitTest11CurrentTest7ResultsEv@PLT
 470      00
 471 02b2 488B00   		movq	(%rax), %rax
 472 02b5 488D55C0 		leaq	-64(%rbp), %rdx
 473 02b9 488D4D80 		leaq	-128(%rbp), %rcx
 474 02bd 488D7910 		leaq	16(%rcx), %rdi
 475 02c1 488DB570 		leaq	-144(%rbp), %rsi
 475      FFFFFF
 476 02c8 4889D1   		movq	%rdx, %rcx
 477 02cb 4889FA   		movq	%rdi, %rdx
 478 02ce 4889C7   		movq	%rax, %rdi
 479 02d1 E8000000 		call	_ZN8UnitTest10CheckEqualImmEEvRNS_11TestResultsERKT_RKT0_RKNS_11TestDetailsE
 479      00
 480              	.LEHE20:
 481              	.L40:
 482              	.LEHB21:
  44:testHexIO.cpp **** 	CHECK_EQUAL(4096UL, mask.capacity);
 483              		.loc 4 44 0 is_stmt 1
 484 02d6 E8000000 		call	_ZN8UnitTest11CurrentTest7DetailsEv@PLT
 484      00
 485 02db 488B08   		movq	(%rax), %rcx
 486 02de 488D45C0 		leaq	-64(%rbp), %rax
 487 02e2 BA2C0000 		movl	$44, %edx
 487      00
 488 02e7 4889CE   		movq	%rcx, %rsi
 489 02ea 4889C7   		movq	%rax, %rdi
 490 02ed E8000000 		call	_ZN8UnitTest11TestDetailsC1ERKS0_i@PLT
 490      00
 491              	.LEHE21:
 492              		.loc 4 44 0 is_stmt 0 discriminator 2
 493 02f2 48C78570 		movq	$4096, -144(%rbp)
 493      FFFFFF00 
 493      100000
 494              	.LEHB22:
 495 02fd E8000000 		call	_ZN8UnitTest11CurrentTest7ResultsEv@PLT
 495      00
 496 0302 488B00   		movq	(%rax), %rax
 497 0305 488D55C0 		leaq	-64(%rbp), %rdx
 498 0309 488D4DA0 		leaq	-96(%rbp), %rcx
 499 030d 488D7910 		leaq	16(%rcx), %rdi
 500 0311 488DB570 		leaq	-144(%rbp), %rsi
 500      FFFFFF
 501 0318 4889D1   		movq	%rdx, %rcx
 502 031b 4889FA   		movq	%rdi, %rdx
 503 031e 4889C7   		movq	%rax, %rdi
 504 0321 E8000000 		call	_ZN8UnitTest10CheckEqualImmEEvRNS_11TestResultsERKT_RKT0_RKNS_11TestDetailsE
 504      00
 505              	.LEHE22:
 506              	.L44:
 507              	.LEHB23:
  45:testHexIO.cpp **** 	CHECK_ARRAY_EQUAL(expected, data.data + 0x0BE1, 4);
 508              		.loc 4 45 0 is_stmt 1
 509 0326 E8000000 		call	_ZN8UnitTest11CurrentTest7DetailsEv@PLT
 509      00
 510 032b 488B08   		movq	(%rax), %rcx
 511 032e 488D45C0 		leaq	-64(%rbp), %rax
 512 0332 BA2D0000 		movl	$45, %edx
 512      00
 513 0337 4889CE   		movq	%rcx, %rsi
 514 033a 4889C7   		movq	%rax, %rdi
 515 033d E8000000 		call	_ZN8UnitTest11TestDetailsC1ERKS0_i@PLT
 515      00
 516              	.LEHE23:
 517              		.loc 4 45 0 is_stmt 0 discriminator 2
 518 0342 488B4580 		movq	-128(%rbp), %rax
 519 0346 4805E10B 		addq	$3041, %rax
 519      0000
 520 034c 48898570 		movq	%rax, -144(%rbp)
 520      FFFFFF
 521              	.LEHB24:
 522 0353 E8000000 		call	_ZN8UnitTest11CurrentTest7ResultsEv@PLT
 522      00
 523 0358 488B00   		movq	(%rax), %rax
 524 035b 488D4DC0 		leaq	-64(%rbp), %rcx
 525 035f 488D9570 		leaq	-144(%rbp), %rdx
 525      FFFFFF
 526 0366 488D75E4 		leaq	-28(%rbp), %rsi
 527 036a 4989C8   		movq	%rcx, %r8
 528 036d B9040000 		movl	$4, %ecx
 528      00
 529 0372 4889C7   		movq	%rax, %rdi
 530 0375 E8000000 		call	_ZN8UnitTest15CheckArrayEqualIA4_hPhEEvRNS_11TestResultsERKT_RKT0_iRKNS_11TestDetailsE
 530      00
 531              	.LEHE24:
 532              	.L48:
  46:testHexIO.cpp **** 	bufDestroy(&mask);
 533              		.loc 4 46 0 is_stmt 1
 534 037a 488D45A0 		leaq	-96(%rbp), %rax
 535 037e 4889C7   		movq	%rax, %rdi
 536              	.LEHB25:
 537 0381 E8000000 		call	bufDestroy@PLT
 537      00
  47:testHexIO.cpp **** 	bufDestroy(&data);
 538              		.loc 4 47 0
 539 0386 488D4580 		leaq	-128(%rbp), %rax
 540 038a 4889C7   		movq	%rax, %rdi
 541 038d E8000000 		call	bufDestroy@PLT
 541      00
 542              	.LEHE25:
  48:testHexIO.cpp **** }
 543              		.loc 4 48 0
 544 0392 90       		nop
 545 0393 488B45E8 		movq	-24(%rbp), %rax
 546 0397 64483304 		xorq	%fs:40, %rax
 546      25280000 
 546      00
 547 03a0 0F847303 		je	.L50
 547      0000
 548 03a6 E9690300 		jmp	.L78
 548      00
 549              	.L52:
 550 03ab EB00     		jmp	.L15
 551              	.L51:
 552              	.L15:
  35:testHexIO.cpp **** 	status = bufInitialise(&mask, 1024, 0x00, NULL);
 553              		.loc 4 35 0
 554 03ad 4889C7   		movq	%rax, %rdi
 555 03b0 E8000000 		call	__cxa_begin_catch@PLT
 555      00
 556              	.LEHB26:
 557 03b5 E8000000 		call	_ZN8UnitTest11CurrentTest7ResultsEv@PLT
 557      00
 558 03ba 488B18   		movq	(%rax), %rbx
 559 03bd E8000000 		call	_ZN8UnitTest11CurrentTest7DetailsEv@PLT
 559      00
  35:testHexIO.cpp **** 	status = bufInitialise(&mask, 1024, 0x00, NULL);
 560              		.loc 4 35 0 is_stmt 0 discriminator 8
 561 03c2 488B08   		movq	(%rax), %rcx
 562 03c5 488D45C0 		leaq	-64(%rbp), %rax
 563 03c9 BA230000 		movl	$35, %edx
 563      00
 564 03ce 4889CE   		movq	%rcx, %rsi
 565 03d1 4889C7   		movq	%rax, %rdi
 566 03d4 E8000000 		call	_ZN8UnitTest11TestDetailsC1ERKS0_i@PLT
 566      00
  35:testHexIO.cpp **** 	status = bufInitialise(&mask, 1024, 0x00, NULL);
 567              		.loc 4 35 0 discriminator 12
 568 03d9 488D45C0 		leaq	-64(%rbp), %rax
 569 03dd 488D1500 		leaq	.LC4(%rip), %rdx
 569      000000
 570 03e4 4889C6   		movq	%rax, %rsi
 571 03e7 4889DF   		movq	%rbx, %rdi
 572 03ea E8000000 		call	_ZN8UnitTest11TestResults13OnTestFailureERKNS_11TestDetailsEPKc@PLT
 572      00
 573              	.LEHE26:
 574              	.LEHB27:
  35:testHexIO.cpp **** 	status = bufInitialise(&mask, 1024, 0x00, NULL);
 575              		.loc 4 35 0 discriminator 14
 576 03ef E8000000 		call	__cxa_end_catch@PLT
 576      00
 577              	.LEHE27:
 578 03f4 E9B4FCFF 		jmp	.L16
 578      FF
 579              	.L53:
 580 03f9 4889C3   		movq	%rax, %rbx
  35:testHexIO.cpp **** 	status = bufInitialise(&mask, 1024, 0x00, NULL);
 581              		.loc 4 35 0
 582 03fc E8000000 		call	__cxa_end_catch@PLT
 582      00
 583 0401 4889D8   		movq	%rbx, %rax
 584 0404 4889C7   		movq	%rax, %rdi
 585              	.LEHB28:
 586 0407 E8000000 		call	_Unwind_Resume@PLT
 586      00
 587              	.LEHE28:
 588              	.L55:
 589 040c EB00     		jmp	.L19
 590              	.L54:
 591              	.L19:
  37:testHexIO.cpp **** 	status = bufProcessLine(line, 0, &data, &mask, &seg, &recordType, NULL);
 592              		.loc 4 37 0 is_stmt 1
 593 040e 4889C7   		movq	%rax, %rdi
 594 0411 E8000000 		call	__cxa_begin_catch@PLT
 594      00
 595              	.LEHB29:
 596 0416 E8000000 		call	_ZN8UnitTest11CurrentTest7ResultsEv@PLT
 596      00
 597 041b 488B18   		movq	(%rax), %rbx
 598 041e E8000000 		call	_ZN8UnitTest11CurrentTest7DetailsEv@PLT
 598      00
  37:testHexIO.cpp **** 	status = bufProcessLine(line, 0, &data, &mask, &seg, &recordType, NULL);
 599              		.loc 4 37 0 is_stmt 0 discriminator 8
 600 0423 488B08   		movq	(%rax), %rcx
 601 0426 488D45C0 		leaq	-64(%rbp), %rax
 602 042a BA250000 		movl	$37, %edx
 602      00
 603 042f 4889CE   		movq	%rcx, %rsi
 604 0432 4889C7   		movq	%rax, %rdi
 605 0435 E8000000 		call	_ZN8UnitTest11TestDetailsC1ERKS0_i@PLT
 605      00
  37:testHexIO.cpp **** 	status = bufProcessLine(line, 0, &data, &mask, &seg, &recordType, NULL);
 606              		.loc 4 37 0 discriminator 12
 607 043a 488D45C0 		leaq	-64(%rbp), %rax
 608 043e 488D1500 		leaq	.LC4(%rip), %rdx
 608      000000
 609 0445 4889C6   		movq	%rax, %rsi
 610 0448 4889DF   		movq	%rbx, %rdi
 611 044b E8000000 		call	_ZN8UnitTest11TestResults13OnTestFailureERKNS_11TestDetailsEPKc@PLT
 611      00
 612              	.LEHE29:
 613              	.LEHB30:
  37:testHexIO.cpp **** 	status = bufProcessLine(line, 0, &data, &mask, &seg, &recordType, NULL);
 614              		.loc 4 37 0 discriminator 14
 615 0450 E8000000 		call	__cxa_end_catch@PLT
 615      00
 616              	.LEHE30:
 617 0455 E9BCFCFF 		jmp	.L20
 617      FF
 618              	.L56:
 619 045a 4889C3   		movq	%rax, %rbx
  37:testHexIO.cpp **** 	status = bufProcessLine(line, 0, &data, &mask, &seg, &recordType, NULL);
 620              		.loc 4 37 0
 621 045d E8000000 		call	__cxa_end_catch@PLT
 621      00
 622 0462 4889D8   		movq	%rbx, %rax
 623 0465 4889C7   		movq	%rax, %rdi
 624              	.LEHB31:
 625 0468 E8000000 		call	_Unwind_Resume@PLT
 625      00
 626              	.LEHE31:
 627              	.L58:
 628 046d EB00     		jmp	.L23
 629              	.L57:
 630              	.L23:
  39:testHexIO.cpp **** 	CHECK_EQUAL(0x00, recordType);
 631              		.loc 4 39 0 is_stmt 1
 632 046f 4889C7   		movq	%rax, %rdi
 633 0472 E8000000 		call	__cxa_begin_catch@PLT
 633      00
 634              	.LEHB32:
 635 0477 E8000000 		call	_ZN8UnitTest11CurrentTest7ResultsEv@PLT
 635      00
 636 047c 488B18   		movq	(%rax), %rbx
 637 047f E8000000 		call	_ZN8UnitTest11CurrentTest7DetailsEv@PLT
 637      00
  39:testHexIO.cpp **** 	CHECK_EQUAL(0x00, recordType);
 638              		.loc 4 39 0 is_stmt 0 discriminator 8
 639 0484 488B08   		movq	(%rax), %rcx
 640 0487 488D45C0 		leaq	-64(%rbp), %rax
 641 048b BA270000 		movl	$39, %edx
 641      00
 642 0490 4889CE   		movq	%rcx, %rsi
 643 0493 4889C7   		movq	%rax, %rdi
 644 0496 E8000000 		call	_ZN8UnitTest11TestDetailsC1ERKS0_i@PLT
 644      00
  39:testHexIO.cpp **** 	CHECK_EQUAL(0x00, recordType);
 645              		.loc 4 39 0 discriminator 12
 646 049b 488D45C0 		leaq	-64(%rbp), %rax
 647 049f 488D1500 		leaq	.LC4(%rip), %rdx
 647      000000
 648 04a6 4889C6   		movq	%rax, %rsi
 649 04a9 4889DF   		movq	%rbx, %rdi
 650 04ac E8000000 		call	_ZN8UnitTest11TestResults13OnTestFailureERKNS_11TestDetailsEPKc@PLT
 650      00
 651              	.LEHE32:
 652              	.LEHB33:
  39:testHexIO.cpp **** 	CHECK_EQUAL(0x00, recordType);
 653              		.loc 4 39 0 discriminator 14
 654 04b1 E8000000 		call	__cxa_end_catch@PLT
 654      00
 655              	.LEHE33:
 656 04b6 E9E3FCFF 		jmp	.L24
 656      FF
 657              	.L59:
 658 04bb 4889C3   		movq	%rax, %rbx
  39:testHexIO.cpp **** 	CHECK_EQUAL(0x00, recordType);
 659              		.loc 4 39 0
 660 04be E8000000 		call	__cxa_end_catch@PLT
 660      00
 661 04c3 4889D8   		movq	%rbx, %rax
 662 04c6 4889C7   		movq	%rax, %rdi
 663              	.LEHB34:
 664 04c9 E8000000 		call	_Unwind_Resume@PLT
 664      00
 665              	.LEHE34:
 666              	.L61:
 667 04ce EB00     		jmp	.L27
 668              	.L60:
 669              	.L27:
  40:testHexIO.cpp **** 	CHECK_EQUAL(0x0BE1+4UL, data.length);
 670              		.loc 4 40 0 is_stmt 1
 671 04d0 4889C7   		movq	%rax, %rdi
 672 04d3 E8000000 		call	__cxa_begin_catch@PLT
 672      00
 673              	.LEHB35:
 674 04d8 E8000000 		call	_ZN8UnitTest11CurrentTest7ResultsEv@PLT
 674      00
 675 04dd 488B18   		movq	(%rax), %rbx
 676 04e0 E8000000 		call	_ZN8UnitTest11CurrentTest7DetailsEv@PLT
 676      00
  40:testHexIO.cpp **** 	CHECK_EQUAL(0x0BE1+4UL, data.length);
 677              		.loc 4 40 0 is_stmt 0 discriminator 8
 678 04e5 488B08   		movq	(%rax), %rcx
 679 04e8 488D45C0 		leaq	-64(%rbp), %rax
 680 04ec BA280000 		movl	$40, %edx
 680      00
 681 04f1 4889CE   		movq	%rcx, %rsi
 682 04f4 4889C7   		movq	%rax, %rdi
 683 04f7 E8000000 		call	_ZN8UnitTest11TestDetailsC1ERKS0_i@PLT
 683      00
  40:testHexIO.cpp **** 	CHECK_EQUAL(0x0BE1+4UL, data.length);
 684              		.loc 4 40 0 discriminator 12
 685 04fc 488D45C0 		leaq	-64(%rbp), %rax
 686 0500 488D1500 		leaq	.LC5(%rip), %rdx
 686      000000
 687 0507 4889C6   		movq	%rax, %rsi
 688 050a 4889DF   		movq	%rbx, %rdi
 689 050d E8000000 		call	_ZN8UnitTest11TestResults13OnTestFailureERKNS_11TestDetailsEPKc@PLT
 689      00
 690              	.LEHE35:
 691              	.LEHB36:
  40:testHexIO.cpp **** 	CHECK_EQUAL(0x0BE1+4UL, data.length);
 692              		.loc 4 40 0 discriminator 14
 693 0512 E8000000 		call	__cxa_end_catch@PLT
 693      00
 694              	.LEHE36:
 695 0517 E9CAFCFF 		jmp	.L28
 695      FF
 696              	.L62:
 697 051c 4889C3   		movq	%rax, %rbx
  40:testHexIO.cpp **** 	CHECK_EQUAL(0x0BE1+4UL, data.length);
 698              		.loc 4 40 0
 699 051f E8000000 		call	__cxa_end_catch@PLT
 699      00
 700 0524 4889D8   		movq	%rbx, %rax
 701 0527 4889C7   		movq	%rax, %rdi
 702              	.LEHB37:
 703 052a E8000000 		call	_Unwind_Resume@PLT
 703      00
 704              	.LEHE37:
 705              	.L64:
 706 052f EB00     		jmp	.L31
 707              	.L63:
 708              	.L31:
  41:testHexIO.cpp **** 	CHECK_EQUAL(0x0BE1+4UL, mask.length);
 709              		.loc 4 41 0 is_stmt 1
 710 0531 4889C7   		movq	%rax, %rdi
 711 0534 E8000000 		call	__cxa_begin_catch@PLT
 711      00
 712              	.LEHB38:
 713 0539 E8000000 		call	_ZN8UnitTest11CurrentTest7ResultsEv@PLT
 713      00
 714 053e 488B18   		movq	(%rax), %rbx
 715 0541 E8000000 		call	_ZN8UnitTest11CurrentTest7DetailsEv@PLT
 715      00
  41:testHexIO.cpp **** 	CHECK_EQUAL(0x0BE1+4UL, mask.length);
 716              		.loc 4 41 0 is_stmt 0 discriminator 8
 717 0546 488B08   		movq	(%rax), %rcx
 718 0549 488D45C0 		leaq	-64(%rbp), %rax
 719 054d BA290000 		movl	$41, %edx
 719      00
 720 0552 4889CE   		movq	%rcx, %rsi
 721 0555 4889C7   		movq	%rax, %rdi
 722 0558 E8000000 		call	_ZN8UnitTest11TestDetailsC1ERKS0_i@PLT
 722      00
  41:testHexIO.cpp **** 	CHECK_EQUAL(0x0BE1+4UL, mask.length);
 723              		.loc 4 41 0 discriminator 12
 724 055d 488D45C0 		leaq	-64(%rbp), %rax
 725 0561 488D1500 		leaq	.LC6(%rip), %rdx
 725      000000
 726 0568 4889C6   		movq	%rax, %rsi
 727 056b 4889DF   		movq	%rbx, %rdi
 728 056e E8000000 		call	_ZN8UnitTest11TestResults13OnTestFailureERKNS_11TestDetailsEPKc@PLT
 728      00
 729              	.LEHE38:
 730              	.LEHB39:
  41:testHexIO.cpp **** 	CHECK_EQUAL(0x0BE1+4UL, mask.length);
 731              		.loc 4 41 0 discriminator 14
 732 0573 E8000000 		call	__cxa_end_catch@PLT
 732      00
 733              	.LEHE39:
 734 0578 E9B9FCFF 		jmp	.L32
 734      FF
 735              	.L65:
 736 057d 4889C3   		movq	%rax, %rbx
  41:testHexIO.cpp **** 	CHECK_EQUAL(0x0BE1+4UL, mask.length);
 737              		.loc 4 41 0
 738 0580 E8000000 		call	__cxa_end_catch@PLT
 738      00
 739 0585 4889D8   		movq	%rbx, %rax
 740 0588 4889C7   		movq	%rax, %rdi
 741              	.LEHB40:
 742 058b E8000000 		call	_Unwind_Resume@PLT
 742      00
 743              	.LEHE40:
 744              	.L67:
 745 0590 EB00     		jmp	.L35
 746              	.L66:
 747              	.L35:
  42:testHexIO.cpp **** 	CHECK_EQUAL(4096UL, data.capacity);
 748              		.loc 4 42 0 is_stmt 1
 749 0592 4889C7   		movq	%rax, %rdi
 750 0595 E8000000 		call	__cxa_begin_catch@PLT
 750      00
 751              	.LEHB41:
 752 059a E8000000 		call	_ZN8UnitTest11CurrentTest7ResultsEv@PLT
 752      00
 753 059f 488B18   		movq	(%rax), %rbx
 754 05a2 E8000000 		call	_ZN8UnitTest11CurrentTest7DetailsEv@PLT
 754      00
  42:testHexIO.cpp **** 	CHECK_EQUAL(4096UL, data.capacity);
 755              		.loc 4 42 0 is_stmt 0 discriminator 8
 756 05a7 488B08   		movq	(%rax), %rcx
 757 05aa 488D45C0 		leaq	-64(%rbp), %rax
 758 05ae BA2A0000 		movl	$42, %edx
 758      00
 759 05b3 4889CE   		movq	%rcx, %rsi
 760 05b6 4889C7   		movq	%rax, %rdi
 761 05b9 E8000000 		call	_ZN8UnitTest11TestDetailsC1ERKS0_i@PLT
 761      00
  42:testHexIO.cpp **** 	CHECK_EQUAL(4096UL, data.capacity);
 762              		.loc 4 42 0 discriminator 12
 763 05be 488D45C0 		leaq	-64(%rbp), %rax
 764 05c2 488D1500 		leaq	.LC7(%rip), %rdx
 764      000000
 765 05c9 4889C6   		movq	%rax, %rsi
 766 05cc 4889DF   		movq	%rbx, %rdi
 767 05cf E8000000 		call	_ZN8UnitTest11TestResults13OnTestFailureERKNS_11TestDetailsEPKc@PLT
 767      00
 768              	.LEHE41:
 769              	.LEHB42:
  42:testHexIO.cpp **** 	CHECK_EQUAL(4096UL, data.capacity);
 770              		.loc 4 42 0 discriminator 14
 771 05d4 E8000000 		call	__cxa_end_catch@PLT
 771      00
 772              	.LEHE42:
 773 05d9 E9A8FCFF 		jmp	.L36
 773      FF
 774              	.L68:
 775 05de 4889C3   		movq	%rax, %rbx
  42:testHexIO.cpp **** 	CHECK_EQUAL(4096UL, data.capacity);
 776              		.loc 4 42 0
 777 05e1 E8000000 		call	__cxa_end_catch@PLT
 777      00
 778 05e6 4889D8   		movq	%rbx, %rax
 779 05e9 4889C7   		movq	%rax, %rdi
 780              	.LEHB43:
 781 05ec E8000000 		call	_Unwind_Resume@PLT
 781      00
 782              	.LEHE43:
 783              	.L70:
 784 05f1 EB00     		jmp	.L39
 785              	.L69:
 786              	.L39:
  43:testHexIO.cpp **** 	CHECK_EQUAL(4096UL, mask.capacity);
 787              		.loc 4 43 0 is_stmt 1
 788 05f3 4889C7   		movq	%rax, %rdi
 789 05f6 E8000000 		call	__cxa_begin_catch@PLT
 789      00
 790              	.LEHB44:
 791 05fb E8000000 		call	_ZN8UnitTest11CurrentTest7ResultsEv@PLT
 791      00
 792 0600 488B18   		movq	(%rax), %rbx
 793 0603 E8000000 		call	_ZN8UnitTest11CurrentTest7DetailsEv@PLT
 793      00
  43:testHexIO.cpp **** 	CHECK_EQUAL(4096UL, mask.capacity);
 794              		.loc 4 43 0 is_stmt 0 discriminator 8
 795 0608 488B08   		movq	(%rax), %rcx
 796 060b 488D45C0 		leaq	-64(%rbp), %rax
 797 060f BA2B0000 		movl	$43, %edx
 797      00
 798 0614 4889CE   		movq	%rcx, %rsi
 799 0617 4889C7   		movq	%rax, %rdi
 800 061a E8000000 		call	_ZN8UnitTest11TestDetailsC1ERKS0_i@PLT
 800      00
  43:testHexIO.cpp **** 	CHECK_EQUAL(4096UL, mask.capacity);
 801              		.loc 4 43 0 discriminator 12
 802 061f 488D45C0 		leaq	-64(%rbp), %rax
 803 0623 488D1500 		leaq	.LC8(%rip), %rdx
 803      000000
 804 062a 4889C6   		movq	%rax, %rsi
 805 062d 4889DF   		movq	%rbx, %rdi
 806 0630 E8000000 		call	_ZN8UnitTest11TestResults13OnTestFailureERKNS_11TestDetailsEPKc@PLT
 806      00
 807              	.LEHE44:
 808              	.LEHB45:
  43:testHexIO.cpp **** 	CHECK_EQUAL(4096UL, mask.capacity);
 809              		.loc 4 43 0 discriminator 14
 810 0635 E8000000 		call	__cxa_end_catch@PLT
 810      00
 811              	.LEHE45:
 812 063a E997FCFF 		jmp	.L40
 812      FF
 813              	.L71:
 814 063f 4889C3   		movq	%rax, %rbx
  43:testHexIO.cpp **** 	CHECK_EQUAL(4096UL, mask.capacity);
 815              		.loc 4 43 0
 816 0642 E8000000 		call	__cxa_end_catch@PLT
 816      00
 817 0647 4889D8   		movq	%rbx, %rax
 818 064a 4889C7   		movq	%rax, %rdi
 819              	.LEHB46:
 820 064d E8000000 		call	_Unwind_Resume@PLT
 820      00
 821              	.LEHE46:
 822              	.L73:
 823 0652 EB00     		jmp	.L43
 824              	.L72:
 825              	.L43:
  44:testHexIO.cpp **** 	CHECK_ARRAY_EQUAL(expected, data.data + 0x0BE1, 4);
 826              		.loc 4 44 0 is_stmt 1
 827 0654 4889C7   		movq	%rax, %rdi
 828 0657 E8000000 		call	__cxa_begin_catch@PLT
 828      00
 829              	.LEHB47:
 830 065c E8000000 		call	_ZN8UnitTest11CurrentTest7ResultsEv@PLT
 830      00
 831 0661 488B18   		movq	(%rax), %rbx
 832 0664 E8000000 		call	_ZN8UnitTest11CurrentTest7DetailsEv@PLT
 832      00
  44:testHexIO.cpp **** 	CHECK_ARRAY_EQUAL(expected, data.data + 0x0BE1, 4);
 833              		.loc 4 44 0 is_stmt 0 discriminator 8
 834 0669 488B08   		movq	(%rax), %rcx
 835 066c 488D45C0 		leaq	-64(%rbp), %rax
 836 0670 BA2C0000 		movl	$44, %edx
 836      00
 837 0675 4889CE   		movq	%rcx, %rsi
 838 0678 4889C7   		movq	%rax, %rdi
 839 067b E8000000 		call	_ZN8UnitTest11TestDetailsC1ERKS0_i@PLT
 839      00
  44:testHexIO.cpp **** 	CHECK_ARRAY_EQUAL(expected, data.data + 0x0BE1, 4);
 840              		.loc 4 44 0 discriminator 12
 841 0680 488D45C0 		leaq	-64(%rbp), %rax
 842 0684 488D1500 		leaq	.LC9(%rip), %rdx
 842      000000
 843 068b 4889C6   		movq	%rax, %rsi
 844 068e 4889DF   		movq	%rbx, %rdi
 845 0691 E8000000 		call	_ZN8UnitTest11TestResults13OnTestFailureERKNS_11TestDetailsEPKc@PLT
 845      00
 846              	.LEHE47:
 847              	.LEHB48:
  44:testHexIO.cpp **** 	CHECK_ARRAY_EQUAL(expected, data.data + 0x0BE1, 4);
 848              		.loc 4 44 0 discriminator 14
 849 0696 E8000000 		call	__cxa_end_catch@PLT
 849      00
 850              	.LEHE48:
 851 069b E986FCFF 		jmp	.L44
 851      FF
 852              	.L74:
 853 06a0 4889C3   		movq	%rax, %rbx
  44:testHexIO.cpp **** 	CHECK_ARRAY_EQUAL(expected, data.data + 0x0BE1, 4);
 854              		.loc 4 44 0
 855 06a3 E8000000 		call	__cxa_end_catch@PLT
 855      00
 856 06a8 4889D8   		movq	%rbx, %rax
 857 06ab 4889C7   		movq	%rax, %rdi
 858              	.LEHB49:
 859 06ae E8000000 		call	_Unwind_Resume@PLT
 859      00
 860              	.LEHE49:
 861              	.L76:
 862 06b3 EB00     		jmp	.L47
 863              	.L75:
 864              	.L47:
  45:testHexIO.cpp **** 	bufDestroy(&mask);
 865              		.loc 4 45 0 is_stmt 1
 866 06b5 4889C7   		movq	%rax, %rdi
 867 06b8 E8000000 		call	__cxa_begin_catch@PLT
 867      00
 868              	.LEHB50:
 869 06bd E8000000 		call	_ZN8UnitTest11CurrentTest7ResultsEv@PLT
 869      00
 870 06c2 488B18   		movq	(%rax), %rbx
 871 06c5 E8000000 		call	_ZN8UnitTest11CurrentTest7DetailsEv@PLT
 871      00
  45:testHexIO.cpp **** 	bufDestroy(&mask);
 872              		.loc 4 45 0 is_stmt 0 discriminator 8
 873 06ca 488B08   		movq	(%rax), %rcx
 874 06cd 488D45C0 		leaq	-64(%rbp), %rax
 875 06d1 BA2D0000 		movl	$45, %edx
 875      00
 876 06d6 4889CE   		movq	%rcx, %rsi
 877 06d9 4889C7   		movq	%rax, %rdi
 878 06dc E8000000 		call	_ZN8UnitTest11TestDetailsC1ERKS0_i@PLT
 878      00
  45:testHexIO.cpp **** 	bufDestroy(&mask);
 879              		.loc 4 45 0 discriminator 12
 880 06e1 488D45C0 		leaq	-64(%rbp), %rax
 881 06e5 488D1500 		leaq	.LC10(%rip), %rdx
 881      000000
 882 06ec 4889C6   		movq	%rax, %rsi
 883 06ef 4889DF   		movq	%rbx, %rdi
 884 06f2 E8000000 		call	_ZN8UnitTest11TestResults13OnTestFailureERKNS_11TestDetailsEPKc@PLT
 884      00
 885              	.LEHE50:
 886              	.LEHB51:
  45:testHexIO.cpp **** 	bufDestroy(&mask);
 887              		.loc 4 45 0 discriminator 14
 888 06f7 E8000000 		call	__cxa_end_catch@PLT
 888      00
 889              	.LEHE51:
 890 06fc E979FCFF 		jmp	.L48
 890      FF
 891              	.L77:
 892 0701 4889C3   		movq	%rax, %rbx
  45:testHexIO.cpp **** 	bufDestroy(&mask);
 893              		.loc 4 45 0
 894 0704 E8000000 		call	__cxa_end_catch@PLT
 894      00
 895 0709 4889D8   		movq	%rbx, %rax
 896 070c 4889C7   		movq	%rax, %rdi
 897              	.LEHB52:
 898 070f E8000000 		call	_Unwind_Resume@PLT
 898      00
 899              	.LEHE52:
 900              	.L78:
 901              		.loc 4 48 0 is_stmt 1
 902 0714 E8000000 		call	__stack_chk_fail@PLT
 902      00
 903              	.L50:
 904 0719 488B5DF8 		movq	-8(%rbp), %rbx
 905 071d C9       		leave
 906              		.cfi_def_cfa 7, 8
 907 071e C3       		ret
 908              		.cfi_endproc
 909              	.LFE1159:
 910              		.section	.gcc_except_table,"a",@progbits
 911              		.align 4
 912              	.LLSDA1159:
 913 0000 FF       		.byte	0xff
 914 0001 9B       		.byte	0x9b
 915 0002 9C02     		.uleb128 .LLSDATT1159-.LLSDATTD1159
 916              	.LLSDATTD1159:
 917 0004 01       		.byte	0x1
 918 0005 8E02     		.uleb128 .LLSDACSE1159-.LLSDACSB1159
 919              	.LLSDACSB1159:
 920 0007 60       		.uleb128 .LEHB4-.LFB1159
 921 0008 05       		.uleb128 .LEHE4-.LEHB4
 922 0009 00       		.uleb128 0
 923 000a 00       		.uleb128 0
 924 000b 6B       		.uleb128 .LEHB5-.LFB1159
 925 000c 1C       		.uleb128 .LEHE5-.LEHB5
 926 000d AD07     		.uleb128 .L51-.LFB1159
 927 000f 01       		.uleb128 0x1
 928 0010 8E01     		.uleb128 .LEHB6-.LFB1159
 929 0012 1F       		.uleb128 .LEHE6-.LEHB6
 930 0013 AB07     		.uleb128 .L52-.LFB1159
 931 0015 03       		.uleb128 0x3
 932 0016 C301     		.uleb128 .LEHB7-.LFB1159
 933 0018 05       		.uleb128 .LEHE7-.LEHB7
 934 0019 00       		.uleb128 0
 935 001a 00       		.uleb128 0
 936 001b CE01     		.uleb128 .LEHB8-.LFB1159
 937 001d 1C       		.uleb128 .LEHE8-.LEHB8
 938 001e 8E08     		.uleb128 .L54-.LFB1159
 939 0020 01       		.uleb128 0x1
 940 0021 F401     		.uleb128 .LEHB9-.LFB1159
 941 0023 22       		.uleb128 .LEHE9-.LEHB9
 942 0024 8C08     		.uleb128 .L55-.LFB1159
 943 0026 03       		.uleb128 0x3
 944 0027 C702     		.uleb128 .LEHB10-.LFB1159
 945 0029 05       		.uleb128 .LEHE10-.LEHB10
 946 002a 00       		.uleb128 0
 947 002b 00       		.uleb128 0
 948 002c D602     		.uleb128 .LEHB11-.LFB1159
 949 002e 1C       		.uleb128 .LEHE11-.LEHB11
 950 002f EF08     		.uleb128 .L57-.LFB1159
 951 0031 01       		.uleb128 0x1
 952 0032 FC02     		.uleb128 .LEHB12-.LFB1159
 953 0034 22       		.uleb128 .LEHE12-.LEHB12
 954 0035 ED08     		.uleb128 .L58-.LFB1159
 955 0037 03       		.uleb128 0x3
 956 0038 9E03     		.uleb128 .LEHB13-.LFB1159
 957 003a 1C       		.uleb128 .LEHE13-.LEHB13
 958 003b D009     		.uleb128 .L60-.LFB1159
 959 003d 01       		.uleb128 0x1
 960 003e C403     		.uleb128 .LEHB14-.LFB1159
 961 0040 22       		.uleb128 .LEHE14-.LEHB14
 962 0041 CE09     		.uleb128 .L61-.LFB1159
 963 0043 03       		.uleb128 0x3
 964 0044 E603     		.uleb128 .LEHB15-.LFB1159
 965 0046 1C       		.uleb128 .LEHE15-.LEHB15
 966 0047 B10A     		.uleb128 .L63-.LFB1159
 967 0049 01       		.uleb128 0x1
 968 004a 8D04     		.uleb128 .LEHB16-.LFB1159
 969 004c 29       		.uleb128 .LEHE16-.LEHB16
 970 004d AF0A     		.uleb128 .L64-.LFB1159
 971 004f 03       		.uleb128 0x3
 972 0050 B604     		.uleb128 .LEHB17-.LFB1159
 973 0052 1C       		.uleb128 .LEHE17-.LEHB17
 974 0053 920B     		.uleb128 .L66-.LFB1159
 975 0055 01       		.uleb128 0x1
 976 0056 DD04     		.uleb128 .LEHB18-.LFB1159
 977 0058 29       		.uleb128 .LEHE18-.LEHB18
 978 0059 900B     		.uleb128 .L67-.LFB1159
 979 005b 03       		.uleb128 0x3
 980 005c 8605     		.uleb128 .LEHB19-.LFB1159
 981 005e 1C       		.uleb128 .LEHE19-.LEHB19
 982 005f F30B     		.uleb128 .L69-.LFB1159
 983 0061 01       		.uleb128 0x1
 984 0062 AD05     		.uleb128 .LEHB20-.LFB1159
 985 0064 29       		.uleb128 .LEHE20-.LEHB20
 986 0065 F10B     		.uleb128 .L70-.LFB1159
 987 0067 03       		.uleb128 0x3
 988 0068 D605     		.uleb128 .LEHB21-.LFB1159
 989 006a 1C       		.uleb128 .LEHE21-.LEHB21
 990 006b D40C     		.uleb128 .L72-.LFB1159
 991 006d 01       		.uleb128 0x1
 992 006e FD05     		.uleb128 .LEHB22-.LFB1159
 993 0070 29       		.uleb128 .LEHE22-.LEHB22
 994 0071 D20C     		.uleb128 .L73-.LFB1159
 995 0073 03       		.uleb128 0x3
 996 0074 A606     		.uleb128 .LEHB23-.LFB1159
 997 0076 1C       		.uleb128 .LEHE23-.LEHB23
 998 0077 B50D     		.uleb128 .L75-.LFB1159
 999 0079 01       		.uleb128 0x1
 1000 007a D306     		.uleb128 .LEHB24-.LFB1159
 1001 007c 27       		.uleb128 .LEHE24-.LEHB24
 1002 007d B30D     		.uleb128 .L76-.LFB1159
 1003 007f 03       		.uleb128 0x3
 1004 0080 8107     		.uleb128 .LEHB25-.LFB1159
 1005 0082 11       		.uleb128 .LEHE25-.LEHB25
 1006 0083 00       		.uleb128 0
 1007 0084 00       		.uleb128 0
 1008 0085 B507     		.uleb128 .LEHB26-.LFB1159
 1009 0087 3A       		.uleb128 .LEHE26-.LEHB26
 1010 0088 F907     		.uleb128 .L53-.LFB1159
 1011 008a 00       		.uleb128 0
 1012 008b EF07     		.uleb128 .LEHB27-.LFB1159
 1013 008d 05       		.uleb128 .LEHE27-.LEHB27
 1014 008e 00       		.uleb128 0
 1015 008f 00       		.uleb128 0
 1016 0090 8708     		.uleb128 .LEHB28-.LFB1159
 1017 0092 05       		.uleb128 .LEHE28-.LEHB28
 1018 0093 00       		.uleb128 0
 1019 0094 00       		.uleb128 0
 1020 0095 9608     		.uleb128 .LEHB29-.LFB1159
 1021 0097 3A       		.uleb128 .LEHE29-.LEHB29
 1022 0098 DA08     		.uleb128 .L56-.LFB1159
 1023 009a 00       		.uleb128 0
 1024 009b D008     		.uleb128 .LEHB30-.LFB1159
 1025 009d 05       		.uleb128 .LEHE30-.LEHB30
 1026 009e 00       		.uleb128 0
 1027 009f 00       		.uleb128 0
 1028 00a0 E808     		.uleb128 .LEHB31-.LFB1159
 1029 00a2 05       		.uleb128 .LEHE31-.LEHB31
 1030 00a3 00       		.uleb128 0
 1031 00a4 00       		.uleb128 0
 1032 00a5 F708     		.uleb128 .LEHB32-.LFB1159
 1033 00a7 3A       		.uleb128 .LEHE32-.LEHB32
 1034 00a8 BB09     		.uleb128 .L59-.LFB1159
 1035 00aa 00       		.uleb128 0
 1036 00ab B109     		.uleb128 .LEHB33-.LFB1159
 1037 00ad 05       		.uleb128 .LEHE33-.LEHB33
 1038 00ae 00       		.uleb128 0
 1039 00af 00       		.uleb128 0
 1040 00b0 C909     		.uleb128 .LEHB34-.LFB1159
 1041 00b2 05       		.uleb128 .LEHE34-.LEHB34
 1042 00b3 00       		.uleb128 0
 1043 00b4 00       		.uleb128 0
 1044 00b5 D809     		.uleb128 .LEHB35-.LFB1159
 1045 00b7 3A       		.uleb128 .LEHE35-.LEHB35
 1046 00b8 9C0A     		.uleb128 .L62-.LFB1159
 1047 00ba 00       		.uleb128 0
 1048 00bb 920A     		.uleb128 .LEHB36-.LFB1159
 1049 00bd 05       		.uleb128 .LEHE36-.LEHB36
 1050 00be 00       		.uleb128 0
 1051 00bf 00       		.uleb128 0
 1052 00c0 AA0A     		.uleb128 .LEHB37-.LFB1159
 1053 00c2 05       		.uleb128 .LEHE37-.LEHB37
 1054 00c3 00       		.uleb128 0
 1055 00c4 00       		.uleb128 0
 1056 00c5 B90A     		.uleb128 .LEHB38-.LFB1159
 1057 00c7 3A       		.uleb128 .LEHE38-.LEHB38
 1058 00c8 FD0A     		.uleb128 .L65-.LFB1159
 1059 00ca 00       		.uleb128 0
 1060 00cb F30A     		.uleb128 .LEHB39-.LFB1159
 1061 00cd 05       		.uleb128 .LEHE39-.LEHB39
 1062 00ce 00       		.uleb128 0
 1063 00cf 00       		.uleb128 0
 1064 00d0 8B0B     		.uleb128 .LEHB40-.LFB1159
 1065 00d2 05       		.uleb128 .LEHE40-.LEHB40
 1066 00d3 00       		.uleb128 0
 1067 00d4 00       		.uleb128 0
 1068 00d5 9A0B     		.uleb128 .LEHB41-.LFB1159
 1069 00d7 3A       		.uleb128 .LEHE41-.LEHB41
 1070 00d8 DE0B     		.uleb128 .L68-.LFB1159
 1071 00da 00       		.uleb128 0
 1072 00db D40B     		.uleb128 .LEHB42-.LFB1159
 1073 00dd 05       		.uleb128 .LEHE42-.LEHB42
 1074 00de 00       		.uleb128 0
 1075 00df 00       		.uleb128 0
 1076 00e0 EC0B     		.uleb128 .LEHB43-.LFB1159
 1077 00e2 05       		.uleb128 .LEHE43-.LEHB43
 1078 00e3 00       		.uleb128 0
 1079 00e4 00       		.uleb128 0
 1080 00e5 FB0B     		.uleb128 .LEHB44-.LFB1159
 1081 00e7 3A       		.uleb128 .LEHE44-.LEHB44
 1082 00e8 BF0C     		.uleb128 .L71-.LFB1159
 1083 00ea 00       		.uleb128 0
 1084 00eb B50C     		.uleb128 .LEHB45-.LFB1159
 1085 00ed 05       		.uleb128 .LEHE45-.LEHB45
 1086 00ee 00       		.uleb128 0
 1087 00ef 00       		.uleb128 0
 1088 00f0 CD0C     		.uleb128 .LEHB46-.LFB1159
 1089 00f2 05       		.uleb128 .LEHE46-.LEHB46
 1090 00f3 00       		.uleb128 0
 1091 00f4 00       		.uleb128 0
 1092 00f5 DC0C     		.uleb128 .LEHB47-.LFB1159
 1093 00f7 3A       		.uleb128 .LEHE47-.LEHB47
 1094 00f8 A00D     		.uleb128 .L74-.LFB1159
 1095 00fa 00       		.uleb128 0
 1096 00fb 960D     		.uleb128 .LEHB48-.LFB1159
 1097 00fd 05       		.uleb128 .LEHE48-.LEHB48
 1098 00fe 00       		.uleb128 0
 1099 00ff 00       		.uleb128 0
 1100 0100 AE0D     		.uleb128 .LEHB49-.LFB1159
 1101 0102 05       		.uleb128 .LEHE49-.LEHB49
 1102 0103 00       		.uleb128 0
 1103 0104 00       		.uleb128 0
 1104 0105 BD0D     		.uleb128 .LEHB50-.LFB1159
 1105 0107 3A       		.uleb128 .LEHE50-.LEHB50
 1106 0108 810E     		.uleb128 .L77-.LFB1159
 1107 010a 00       		.uleb128 0
 1108 010b F70D     		.uleb128 .LEHB51-.LFB1159
 1109 010d 05       		.uleb128 .LEHE51-.LEHB51
 1110 010e 00       		.uleb128 0
 1111 010f 00       		.uleb128 0
 1112 0110 8F0E     		.uleb128 .LEHB52-.LFB1159
 1113 0112 05       		.uleb128 .LEHE52-.LEHB52
 1114 0113 00       		.uleb128 0
 1115 0114 00       		.uleb128 0
 1116              	.LLSDACSE1159:
 1117 0115 01       		.byte	0x1
 1118 0116 00       		.byte	0
 1119 0117 00       		.byte	0
 1120 0118 7D       		.byte	0x7d
 1121 0119 000000   		.align 4
 1122 011c 00000000 		.long	0
 1123              	
 1124              	.LLSDATT1159:
 1125              		.text
 1127              		.section	.rodata
 1128              	.LC11:
 1129 01ff 48657849 		.string	"HexIO_testValidEOF"
 1129      4F5F7465 
 1129      73745661 
 1129      6C696445 
 1129      4F4600
 1130              		.section	.text._ZN22TestHexIO_testValidEOFC2Ev,"axG",@progbits,_ZN22TestHexIO_testValidEOFC5Ev,com
 1131              		.align 2
 1132              		.weak	_ZN22TestHexIO_testValidEOFC2Ev
 1134              	_ZN22TestHexIO_testValidEOFC2Ev:
 1135              	.LFB1161:
  49:testHexIO.cpp **** 
  50:testHexIO.cpp **** TEST(HexIO_testValidEOF) {
 1136              		.loc 4 50 0
 1137              		.cfi_startproc
 1138 0000 55       		pushq	%rbp
 1139              		.cfi_def_cfa_offset 16
 1140              		.cfi_offset 6, -16
 1141 0001 4889E5   		movq	%rsp, %rbp
 1142              		.cfi_def_cfa_register 6
 1143 0004 53       		pushq	%rbx
 1144 0005 4883EC18 		subq	$24, %rsp
 1145              		.cfi_offset 3, -24
 1146 0009 48897DE8 		movq	%rdi, -24(%rbp)
 1147              	.LBB5:
 1148              		.loc 4 50 0
 1149 000d 488B5DE8 		movq	-24(%rbp), %rbx
 1150 0011 E8000000 		call	_ZN13UnitTestSuite12GetSuiteNameEv
 1150      00
 1151 0016 41B83200 		movl	$50, %r8d
 1151      0000
 1152 001c 488D0D00 		leaq	.LC1(%rip), %rcx
 1152      000000
 1153 0023 4889C2   		movq	%rax, %rdx
 1154 0026 488D3500 		leaq	.LC11(%rip), %rsi
 1154      000000
 1155 002d 4889DF   		movq	%rbx, %rdi
 1156 0030 E8000000 		call	_ZN8UnitTest4TestC2EPKcS2_S2_i@PLT
 1156      00
 1157 0035 488D1500 		leaq	16+_ZTV22TestHexIO_testValidEOF(%rip), %rdx
 1157      000000
 1158 003c 488B45E8 		movq	-24(%rbp), %rax
 1159 0040 488910   		movq	%rdx, (%rax)
 1160              	.LBE5:
 1161 0043 90       		nop
 1162 0044 4883C418 		addq	$24, %rsp
 1163 0048 5B       		popq	%rbx
 1164 0049 5D       		popq	%rbp
 1165              		.cfi_def_cfa 7, 8
 1166 004a C3       		ret
 1167              		.cfi_endproc
 1168              	.LFE1161:
 1170              		.weak	_ZN22TestHexIO_testValidEOFC1Ev
 1171              		.set	_ZN22TestHexIO_testValidEOFC1Ev,_ZN22TestHexIO_testValidEOFC2Ev
 1172              		.globl	testHexIO_testValidEOFInstance
 1173              		.bss
 1174 0039 00000000 		.align 32
 1174      000000
 1177              	testHexIO_testValidEOFInstance:
 1178 0040 00000000 		.zero	56
 1178      00000000 
 1178      00000000 
 1178      00000000 
 1178      00000000 
 1179              		.globl	adderHexIO_testValidEOF
 1182              	adderHexIO_testValidEOF:
 1183 0078 00       		.zero	1
 1184              		.section	.rodata
 1185              	.LC12:
 1186 0212 3A303030 		.string	":00000001FF\n"
 1186      30303030 
 1186      3146460A 
 1186      00
 1187 021f 00       		.align 8
 1188              	.LC13:
 1189 0220 556E6861 		.string	"Unhandled exception in CHECK_EQUAL(0x01, recordType)"
 1189      6E646C65 
 1189      64206578 
 1189      63657074 
 1189      696F6E20 
 1190 0255 000000   		.align 8
 1191              	.LC14:
 1192 0258 556E6861 		.string	"Unhandled exception in CHECK_EQUAL(0UL, data.length)"
 1192      6E646C65 
 1192      64206578 
 1192      63657074 
 1192      696F6E20 
 1193 028d 000000   		.align 8
 1194              	.LC15:
 1195 0290 556E6861 		.string	"Unhandled exception in CHECK_EQUAL(0UL, mask.length)"
 1195      6E646C65 
 1195      64206578 
 1195      63657074 
 1195      696F6E20 
 1196              		.text
 1197 071f 90       		.align 2
 1198              		.globl	_ZNK22TestHexIO_testValidEOF7RunImplEv
 1200              	_ZNK22TestHexIO_testValidEOF7RunImplEv:
 1201              	.LFB1163:
 1202              		.loc 4 50 0
 1203              		.cfi_startproc
 1204              		.cfi_personality 0x9b,DW.ref.__gxx_personality_v0
 1205              		.cfi_lsda 0x1b,.LLSDA1163
 1206 0720 55       		pushq	%rbp
 1207              		.cfi_def_cfa_offset 16
 1208              		.cfi_offset 6, -16
 1209 0721 4889E5   		movq	%rsp, %rbp
 1210              		.cfi_def_cfa_register 6
 1211 0724 53       		pushq	%rbx
 1212 0725 4881ECA8 		subq	$168, %rsp
 1212      000000
 1213              		.cfi_offset 3, -24
 1214 072c 4889BD58 		movq	%rdi, -168(%rbp)
 1214      FFFFFF
 1215              		.loc 4 50 0
 1216 0733 64488B04 		movq	%fs:40, %rax
 1216      25280000 
 1216      00
 1217 073c 488945E8 		movq	%rax, -24(%rbp)
 1218 0740 31C0     		xorl	%eax, %eax
  51:testHexIO.cpp **** 	Buffer data, mask;
  52:testHexIO.cpp **** 	BufferStatus status;
  53:testHexIO.cpp **** 	const char *line = ":00000001FF\n";
 1219              		.loc 4 53 0
 1220 0742 488D0500 		leaq	.LC12(%rip), %rax
 1220      000000
 1221 0749 48898578 		movq	%rax, -136(%rbp)
 1221      FFFFFF
  54:testHexIO.cpp **** 	uint8 recordType;
  55:testHexIO.cpp **** 	uint32 seg = 0x00000000;
 1222              		.loc 4 55 0
 1223 0750 C7856CFF 		movl	$0, -148(%rbp)
 1223      FFFF0000 
 1223      0000
  56:testHexIO.cpp **** 	status = bufInitialise(&data, 1024, 0x00, NULL);
 1224              		.loc 4 56 0
 1225 075a 488D4580 		leaq	-128(%rbp), %rax
 1226 075e B9000000 		movl	$0, %ecx
 1226      00
 1227 0763 BA000000 		movl	$0, %edx
 1227      00
 1228 0768 BE000400 		movl	$1024, %esi
 1228      00
 1229 076d 4889C7   		movq	%rax, %rdi
 1230              	.LEHB53:
 1231 0770 E8000000 		call	bufInitialise@PLT
 1231      00
 1232              	.LEHE53:
 1233 0775 898568FF 		movl	%eax, -152(%rbp)
 1233      FFFF
 1234              	.LEHB54:
  57:testHexIO.cpp **** 	CHECK_EQUAL(BUF_SUCCESS, status);
 1235              		.loc 4 57 0
 1236 077b E8000000 		call	_ZN8UnitTest11CurrentTest7DetailsEv@PLT
 1236      00
 1237 0780 488B08   		movq	(%rax), %rcx
 1238 0783 488D45C0 		leaq	-64(%rbp), %rax
 1239 0787 BA390000 		movl	$57, %edx
 1239      00
 1240 078c 4889CE   		movq	%rcx, %rsi
 1241 078f 4889C7   		movq	%rax, %rdi
 1242 0792 E8000000 		call	_ZN8UnitTest11TestDetailsC1ERKS0_i@PLT
 1242      00
 1243              	.LEHE54:
 1244              		.loc 4 57 0 is_stmt 0 discriminator 2
 1245 0797 C745A000 		movl	$0, -96(%rbp)
 1245      000000
 1246              	.LEHB55:
 1247 079e E8000000 		call	_ZN8UnitTest11CurrentTest7ResultsEv@PLT
 1247      00
 1248 07a3 488B00   		movq	(%rax), %rax
 1249 07a6 488D4DC0 		leaq	-64(%rbp), %rcx
 1250 07aa 488D9568 		leaq	-152(%rbp), %rdx
 1250      FFFFFF
 1251 07b1 488D75A0 		leaq	-96(%rbp), %rsi
 1252 07b5 4889C7   		movq	%rax, %rdi
 1253 07b8 E8000000 		call	_ZN8UnitTest10CheckEqualI12BufferStatusS1_EEvRNS_11TestResultsERKT_RKT0_RKNS_11TestDetailsE
 1253      00
 1254              	.LEHE55:
 1255              	.L83:
  58:testHexIO.cpp **** 	status = bufInitialise(&mask, 1024, 0x00, NULL);
 1256              		.loc 4 58 0 is_stmt 1
 1257 07bd 488D45A0 		leaq	-96(%rbp), %rax
 1258 07c1 B9000000 		movl	$0, %ecx
 1258      00
 1259 07c6 BA000000 		movl	$0, %edx
 1259      00
 1260 07cb BE000400 		movl	$1024, %esi
 1260      00
 1261 07d0 4889C7   		movq	%rax, %rdi
 1262              	.LEHB56:
 1263 07d3 E8000000 		call	bufInitialise@PLT
 1263      00
 1264              	.LEHE56:
 1265 07d8 898568FF 		movl	%eax, -152(%rbp)
 1265      FFFF
 1266              	.LEHB57:
  59:testHexIO.cpp **** 	CHECK_EQUAL(BUF_SUCCESS, status);
 1267              		.loc 4 59 0
 1268 07de E8000000 		call	_ZN8UnitTest11CurrentTest7DetailsEv@PLT
 1268      00
 1269 07e3 488B08   		movq	(%rax), %rcx
 1270 07e6 488D45C0 		leaq	-64(%rbp), %rax
 1271 07ea BA3B0000 		movl	$59, %edx
 1271      00
 1272 07ef 4889CE   		movq	%rcx, %rsi
 1273 07f2 4889C7   		movq	%rax, %rdi
 1274 07f5 E8000000 		call	_ZN8UnitTest11TestDetailsC1ERKS0_i@PLT
 1274      00
 1275              	.LEHE57:
 1276              		.loc 4 59 0 is_stmt 0 discriminator 2
 1277 07fa C78570FF 		movl	$0, -144(%rbp)
 1277      FFFF0000 
 1277      0000
 1278              	.LEHB58:
 1279 0804 E8000000 		call	_ZN8UnitTest11CurrentTest7ResultsEv@PLT
 1279      00
 1280 0809 488B00   		movq	(%rax), %rax
 1281 080c 488D4DC0 		leaq	-64(%rbp), %rcx
 1282 0810 488D9568 		leaq	-152(%rbp), %rdx
 1282      FFFFFF
 1283 0817 488DB570 		leaq	-144(%rbp), %rsi
 1283      FFFFFF
 1284 081e 4889C7   		movq	%rax, %rdi
 1285 0821 E8000000 		call	_ZN8UnitTest10CheckEqualI12BufferStatusS1_EEvRNS_11TestResultsERKT_RKT0_RKNS_11TestDetailsE
 1285      00
 1286              	.LEHE58:
 1287              	.L87:
  60:testHexIO.cpp **** 	status = bufProcessLine(line, 0, &data, &mask, &seg, &recordType, NULL);
 1288              		.loc 4 60 0 is_stmt 1
 1289 0826 488DBD67 		leaq	-153(%rbp), %rdi
 1289      FFFFFF
 1290 082d 488DB56C 		leaq	-148(%rbp), %rsi
 1290      FFFFFF
 1291 0834 488D4DA0 		leaq	-96(%rbp), %rcx
 1292 0838 488D5580 		leaq	-128(%rbp), %rdx
 1293 083c 488B8578 		movq	-136(%rbp), %rax
 1293      FFFFFF
 1294 0843 4883EC08 		subq	$8, %rsp
 1295 0847 6A00     		pushq	$0
 1296 0849 4989F9   		movq	%rdi, %r9
 1297 084c 4989F0   		movq	%rsi, %r8
 1298 084f BE000000 		movl	$0, %esi
 1298      00
 1299 0854 4889C7   		movq	%rax, %rdi
 1300              	.LEHB59:
 1301 0857 E8000000 		call	bufProcessLine@PLT
 1301      00
 1302              	.LEHE59:
 1303 085c 4883C410 		addq	$16, %rsp
 1304 0860 898568FF 		movl	%eax, -152(%rbp)
 1304      FFFF
 1305              	.LEHB60:
  61:testHexIO.cpp **** 	CHECK_EQUAL(BUF_SUCCESS, status);
 1306              		.loc 4 61 0
 1307 0866 E8000000 		call	_ZN8UnitTest11CurrentTest7DetailsEv@PLT
 1307      00
 1308 086b 488B08   		movq	(%rax), %rcx
 1309 086e 488D45C0 		leaq	-64(%rbp), %rax
 1310 0872 BA3D0000 		movl	$61, %edx
 1310      00
 1311 0877 4889CE   		movq	%rcx, %rsi
 1312 087a 4889C7   		movq	%rax, %rdi
 1313 087d E8000000 		call	_ZN8UnitTest11TestDetailsC1ERKS0_i@PLT
 1313      00
 1314              	.LEHE60:
 1315              		.loc 4 61 0 is_stmt 0 discriminator 2
 1316 0882 C78570FF 		movl	$0, -144(%rbp)
 1316      FFFF0000 
 1316      0000
 1317              	.LEHB61:
 1318 088c E8000000 		call	_ZN8UnitTest11CurrentTest7ResultsEv@PLT
 1318      00
 1319 0891 488B00   		movq	(%rax), %rax
 1320 0894 488D4DC0 		leaq	-64(%rbp), %rcx
 1321 0898 488D9568 		leaq	-152(%rbp), %rdx
 1321      FFFFFF
 1322 089f 488DB570 		leaq	-144(%rbp), %rsi
 1322      FFFFFF
 1323 08a6 4889C7   		movq	%rax, %rdi
 1324 08a9 E8000000 		call	_ZN8UnitTest10CheckEqualI12BufferStatusS1_EEvRNS_11TestResultsERKT_RKT0_RKNS_11TestDetailsE
 1324      00
 1325              	.LEHE61:
 1326              	.L91:
 1327              	.LEHB62:
  62:testHexIO.cpp **** 	CHECK_EQUAL(0x01, recordType);
 1328              		.loc 4 62 0 is_stmt 1
 1329 08ae E8000000 		call	_ZN8UnitTest11CurrentTest7DetailsEv@PLT
 1329      00
 1330 08b3 488B08   		movq	(%rax), %rcx
 1331 08b6 488D45C0 		leaq	-64(%rbp), %rax
 1332 08ba BA3E0000 		movl	$62, %edx
 1332      00
 1333 08bf 4889CE   		movq	%rcx, %rsi
 1334 08c2 4889C7   		movq	%rax, %rdi
 1335 08c5 E8000000 		call	_ZN8UnitTest11TestDetailsC1ERKS0_i@PLT
 1335      00
 1336              	.LEHE62:
 1337              		.loc 4 62 0 is_stmt 0 discriminator 2
 1338 08ca C78570FF 		movl	$1, -144(%rbp)
 1338      FFFF0100 
 1338      0000
 1339              	.LEHB63:
 1340 08d4 E8000000 		call	_ZN8UnitTest11CurrentTest7ResultsEv@PLT
 1340      00
 1341 08d9 488B00   		movq	(%rax), %rax
 1342 08dc 488D4DC0 		leaq	-64(%rbp), %rcx
 1343 08e0 488D9567 		leaq	-153(%rbp), %rdx
 1343      FFFFFF
 1344 08e7 488DB570 		leaq	-144(%rbp), %rsi
 1344      FFFFFF
 1345 08ee 4889C7   		movq	%rax, %rdi
 1346 08f1 E8000000 		call	_ZN8UnitTest10CheckEqualIihEEvRNS_11TestResultsERKT_RKT0_RKNS_11TestDetailsE
 1346      00
 1347              	.LEHE63:
 1348              	.L95:
 1349              	.LEHB64:
  63:testHexIO.cpp **** 	CHECK_EQUAL(0UL, data.length);
 1350              		.loc 4 63 0 is_stmt 1
 1351 08f6 E8000000 		call	_ZN8UnitTest11CurrentTest7DetailsEv@PLT
 1351      00
 1352 08fb 488B08   		movq	(%rax), %rcx
 1353 08fe 488D45C0 		leaq	-64(%rbp), %rax
 1354 0902 BA3F0000 		movl	$63, %edx
 1354      00
 1355 0907 4889CE   		movq	%rcx, %rsi
 1356 090a 4889C7   		movq	%rax, %rdi
 1357 090d E8000000 		call	_ZN8UnitTest11TestDetailsC1ERKS0_i@PLT
 1357      00
 1358              	.LEHE64:
 1359              		.loc 4 63 0 is_stmt 0 discriminator 2
 1360 0912 48C78570 		movq	$0, -144(%rbp)
 1360      FFFFFF00 
 1360      000000
 1361              	.LEHB65:
 1362 091d E8000000 		call	_ZN8UnitTest11CurrentTest7ResultsEv@PLT
 1362      00
 1363 0922 488B00   		movq	(%rax), %rax
 1364 0925 488D55C0 		leaq	-64(%rbp), %rdx
 1365 0929 488D4D80 		leaq	-128(%rbp), %rcx
 1366 092d 488D7908 		leaq	8(%rcx), %rdi
 1367 0931 488DB570 		leaq	-144(%rbp), %rsi
 1367      FFFFFF
 1368 0938 4889D1   		movq	%rdx, %rcx
 1369 093b 4889FA   		movq	%rdi, %rdx
 1370 093e 4889C7   		movq	%rax, %rdi
 1371 0941 E8000000 		call	_ZN8UnitTest10CheckEqualImmEEvRNS_11TestResultsERKT_RKT0_RKNS_11TestDetailsE
 1371      00
 1372              	.LEHE65:
 1373              	.L99:
 1374              	.LEHB66:
  64:testHexIO.cpp **** 	CHECK_EQUAL(0UL, mask.length);
 1375              		.loc 4 64 0 is_stmt 1
 1376 0946 E8000000 		call	_ZN8UnitTest11CurrentTest7DetailsEv@PLT
 1376      00
 1377 094b 488B08   		movq	(%rax), %rcx
 1378 094e 488D45C0 		leaq	-64(%rbp), %rax
 1379 0952 BA400000 		movl	$64, %edx
 1379      00
 1380 0957 4889CE   		movq	%rcx, %rsi
 1381 095a 4889C7   		movq	%rax, %rdi
 1382 095d E8000000 		call	_ZN8UnitTest11TestDetailsC1ERKS0_i@PLT
 1382      00
 1383              	.LEHE66:
 1384              		.loc 4 64 0 is_stmt 0 discriminator 2
 1385 0962 48C78570 		movq	$0, -144(%rbp)
 1385      FFFFFF00 
 1385      000000
 1386              	.LEHB67:
 1387 096d E8000000 		call	_ZN8UnitTest11CurrentTest7ResultsEv@PLT
 1387      00
 1388 0972 488B00   		movq	(%rax), %rax
 1389 0975 488D55C0 		leaq	-64(%rbp), %rdx
 1390 0979 488D4DA0 		leaq	-96(%rbp), %rcx
 1391 097d 488D7908 		leaq	8(%rcx), %rdi
 1392 0981 488DB570 		leaq	-144(%rbp), %rsi
 1392      FFFFFF
 1393 0988 4889D1   		movq	%rdx, %rcx
 1394 098b 4889FA   		movq	%rdi, %rdx
 1395 098e 4889C7   		movq	%rax, %rdi
 1396 0991 E8000000 		call	_ZN8UnitTest10CheckEqualImmEEvRNS_11TestResultsERKT_RKT0_RKNS_11TestDetailsE
 1396      00
 1397              	.LEHE67:
 1398              	.L103:
  65:testHexIO.cpp **** 	bufDestroy(&mask);
 1399              		.loc 4 65 0 is_stmt 1
 1400 0996 488D45A0 		leaq	-96(%rbp), %rax
 1401 099a 4889C7   		movq	%rax, %rdi
 1402              	.LEHB68:
 1403 099d E8000000 		call	bufDestroy@PLT
 1403      00
  66:testHexIO.cpp **** 	bufDestroy(&data);
 1404              		.loc 4 66 0
 1405 09a2 488D4580 		leaq	-128(%rbp), %rax
 1406 09a6 4889C7   		movq	%rax, %rdi
 1407 09a9 E8000000 		call	bufDestroy@PLT
 1407      00
 1408              	.LEHE68:
  67:testHexIO.cpp **** }
 1409              		.loc 4 67 0
 1410 09ae 90       		nop
 1411 09af 488B45E8 		movq	-24(%rbp), %rax
 1412 09b3 64483304 		xorq	%fs:40, %rax
 1412      25280000 
 1412      00
 1413 09bc 0F845002 		je	.L105
 1413      0000
 1414 09c2 E9460200 		jmp	.L124
 1414      00
 1415              	.L107:
 1416 09c7 EB00     		jmp	.L82
 1417              	.L106:
 1418              	.L82:
  57:testHexIO.cpp **** 	status = bufInitialise(&mask, 1024, 0x00, NULL);
 1419              		.loc 4 57 0
 1420 09c9 4889C7   		movq	%rax, %rdi
 1421 09cc E8000000 		call	__cxa_begin_catch@PLT
 1421      00
 1422              	.LEHB69:
 1423 09d1 E8000000 		call	_ZN8UnitTest11CurrentTest7ResultsEv@PLT
 1423      00
 1424 09d6 488B18   		movq	(%rax), %rbx
 1425 09d9 E8000000 		call	_ZN8UnitTest11CurrentTest7DetailsEv@PLT
 1425      00
  57:testHexIO.cpp **** 	status = bufInitialise(&mask, 1024, 0x00, NULL);
 1426              		.loc 4 57 0 is_stmt 0 discriminator 8
 1427 09de 488B08   		movq	(%rax), %rcx
 1428 09e1 488D45C0 		leaq	-64(%rbp), %rax
 1429 09e5 BA390000 		movl	$57, %edx
 1429      00
 1430 09ea 4889CE   		movq	%rcx, %rsi
 1431 09ed 4889C7   		movq	%rax, %rdi
 1432 09f0 E8000000 		call	_ZN8UnitTest11TestDetailsC1ERKS0_i@PLT
 1432      00
  57:testHexIO.cpp **** 	status = bufInitialise(&mask, 1024, 0x00, NULL);
 1433              		.loc 4 57 0 discriminator 12
 1434 09f5 488D45C0 		leaq	-64(%rbp), %rax
 1435 09f9 488D1500 		leaq	.LC4(%rip), %rdx
 1435      000000
 1436 0a00 4889C6   		movq	%rax, %rsi
 1437 0a03 4889DF   		movq	%rbx, %rdi
 1438 0a06 E8000000 		call	_ZN8UnitTest11TestResults13OnTestFailureERKNS_11TestDetailsEPKc@PLT
 1438      00
 1439              	.LEHE69:
 1440              	.LEHB70:
  57:testHexIO.cpp **** 	status = bufInitialise(&mask, 1024, 0x00, NULL);
 1441              		.loc 4 57 0 discriminator 14
 1442 0a0b E8000000 		call	__cxa_end_catch@PLT
 1442      00
 1443              	.LEHE70:
 1444 0a10 E9A8FDFF 		jmp	.L83
 1444      FF
 1445              	.L108:
 1446 0a15 4889C3   		movq	%rax, %rbx
  57:testHexIO.cpp **** 	status = bufInitialise(&mask, 1024, 0x00, NULL);
 1447              		.loc 4 57 0
 1448 0a18 E8000000 		call	__cxa_end_catch@PLT
 1448      00
 1449 0a1d 4889D8   		movq	%rbx, %rax
 1450 0a20 4889C7   		movq	%rax, %rdi
 1451              	.LEHB71:
 1452 0a23 E8000000 		call	_Unwind_Resume@PLT
 1452      00
 1453              	.LEHE71:
 1454              	.L110:
 1455 0a28 EB00     		jmp	.L86
 1456              	.L109:
 1457              	.L86:
  59:testHexIO.cpp **** 	status = bufProcessLine(line, 0, &data, &mask, &seg, &recordType, NULL);
 1458              		.loc 4 59 0 is_stmt 1
 1459 0a2a 4889C7   		movq	%rax, %rdi
 1460 0a2d E8000000 		call	__cxa_begin_catch@PLT
 1460      00
 1461              	.LEHB72:
 1462 0a32 E8000000 		call	_ZN8UnitTest11CurrentTest7ResultsEv@PLT
 1462      00
 1463 0a37 488B18   		movq	(%rax), %rbx
 1464 0a3a E8000000 		call	_ZN8UnitTest11CurrentTest7DetailsEv@PLT
 1464      00
  59:testHexIO.cpp **** 	status = bufProcessLine(line, 0, &data, &mask, &seg, &recordType, NULL);
 1465              		.loc 4 59 0 is_stmt 0 discriminator 8
 1466 0a3f 488B08   		movq	(%rax), %rcx
 1467 0a42 488D45C0 		leaq	-64(%rbp), %rax
 1468 0a46 BA3B0000 		movl	$59, %edx
 1468      00
 1469 0a4b 4889CE   		movq	%rcx, %rsi
 1470 0a4e 4889C7   		movq	%rax, %rdi
 1471 0a51 E8000000 		call	_ZN8UnitTest11TestDetailsC1ERKS0_i@PLT
 1471      00
  59:testHexIO.cpp **** 	status = bufProcessLine(line, 0, &data, &mask, &seg, &recordType, NULL);
 1472              		.loc 4 59 0 discriminator 12
 1473 0a56 488D45C0 		leaq	-64(%rbp), %rax
 1474 0a5a 488D1500 		leaq	.LC4(%rip), %rdx
 1474      000000
 1475 0a61 4889C6   		movq	%rax, %rsi
 1476 0a64 4889DF   		movq	%rbx, %rdi
 1477 0a67 E8000000 		call	_ZN8UnitTest11TestResults13OnTestFailureERKNS_11TestDetailsEPKc@PLT
 1477      00
 1478              	.LEHE72:
 1479              	.LEHB73:
  59:testHexIO.cpp **** 	status = bufProcessLine(line, 0, &data, &mask, &seg, &recordType, NULL);
 1480              		.loc 4 59 0 discriminator 14
 1481 0a6c E8000000 		call	__cxa_end_catch@PLT
 1481      00
 1482              	.LEHE73:
 1483 0a71 E9B0FDFF 		jmp	.L87
 1483      FF
 1484              	.L111:
 1485 0a76 4889C3   		movq	%rax, %rbx
  59:testHexIO.cpp **** 	status = bufProcessLine(line, 0, &data, &mask, &seg, &recordType, NULL);
 1486              		.loc 4 59 0
 1487 0a79 E8000000 		call	__cxa_end_catch@PLT
 1487      00
 1488 0a7e 4889D8   		movq	%rbx, %rax
 1489 0a81 4889C7   		movq	%rax, %rdi
 1490              	.LEHB74:
 1491 0a84 E8000000 		call	_Unwind_Resume@PLT
 1491      00
 1492              	.LEHE74:
 1493              	.L113:
 1494 0a89 EB00     		jmp	.L90
 1495              	.L112:
 1496              	.L90:
  61:testHexIO.cpp **** 	CHECK_EQUAL(0x01, recordType);
 1497              		.loc 4 61 0 is_stmt 1
 1498 0a8b 4889C7   		movq	%rax, %rdi
 1499 0a8e E8000000 		call	__cxa_begin_catch@PLT
 1499      00
 1500              	.LEHB75:
 1501 0a93 E8000000 		call	_ZN8UnitTest11CurrentTest7ResultsEv@PLT
 1501      00
 1502 0a98 488B18   		movq	(%rax), %rbx
 1503 0a9b E8000000 		call	_ZN8UnitTest11CurrentTest7DetailsEv@PLT
 1503      00
  61:testHexIO.cpp **** 	CHECK_EQUAL(0x01, recordType);
 1504              		.loc 4 61 0 is_stmt 0 discriminator 8
 1505 0aa0 488B08   		movq	(%rax), %rcx
 1506 0aa3 488D45C0 		leaq	-64(%rbp), %rax
 1507 0aa7 BA3D0000 		movl	$61, %edx
 1507      00
 1508 0aac 4889CE   		movq	%rcx, %rsi
 1509 0aaf 4889C7   		movq	%rax, %rdi
 1510 0ab2 E8000000 		call	_ZN8UnitTest11TestDetailsC1ERKS0_i@PLT
 1510      00
  61:testHexIO.cpp **** 	CHECK_EQUAL(0x01, recordType);
 1511              		.loc 4 61 0 discriminator 12
 1512 0ab7 488D45C0 		leaq	-64(%rbp), %rax
 1513 0abb 488D1500 		leaq	.LC4(%rip), %rdx
 1513      000000
 1514 0ac2 4889C6   		movq	%rax, %rsi
 1515 0ac5 4889DF   		movq	%rbx, %rdi
 1516 0ac8 E8000000 		call	_ZN8UnitTest11TestResults13OnTestFailureERKNS_11TestDetailsEPKc@PLT
 1516      00
 1517              	.LEHE75:
 1518              	.LEHB76:
  61:testHexIO.cpp **** 	CHECK_EQUAL(0x01, recordType);
 1519              		.loc 4 61 0 discriminator 14
 1520 0acd E8000000 		call	__cxa_end_catch@PLT
 1520      00
 1521              	.LEHE76:
 1522 0ad2 E9D7FDFF 		jmp	.L91
 1522      FF
 1523              	.L114:
 1524 0ad7 4889C3   		movq	%rax, %rbx
  61:testHexIO.cpp **** 	CHECK_EQUAL(0x01, recordType);
 1525              		.loc 4 61 0
 1526 0ada E8000000 		call	__cxa_end_catch@PLT
 1526      00
 1527 0adf 4889D8   		movq	%rbx, %rax
 1528 0ae2 4889C7   		movq	%rax, %rdi
 1529              	.LEHB77:
 1530 0ae5 E8000000 		call	_Unwind_Resume@PLT
 1530      00
 1531              	.LEHE77:
 1532              	.L116:
 1533 0aea EB00     		jmp	.L94
 1534              	.L115:
 1535              	.L94:
  62:testHexIO.cpp **** 	CHECK_EQUAL(0UL, data.length);
 1536              		.loc 4 62 0 is_stmt 1
 1537 0aec 4889C7   		movq	%rax, %rdi
 1538 0aef E8000000 		call	__cxa_begin_catch@PLT
 1538      00
 1539              	.LEHB78:
 1540 0af4 E8000000 		call	_ZN8UnitTest11CurrentTest7ResultsEv@PLT
 1540      00
 1541 0af9 488B18   		movq	(%rax), %rbx
 1542 0afc E8000000 		call	_ZN8UnitTest11CurrentTest7DetailsEv@PLT
 1542      00
  62:testHexIO.cpp **** 	CHECK_EQUAL(0UL, data.length);
 1543              		.loc 4 62 0 is_stmt 0 discriminator 8
 1544 0b01 488B08   		movq	(%rax), %rcx
 1545 0b04 488D45C0 		leaq	-64(%rbp), %rax
 1546 0b08 BA3E0000 		movl	$62, %edx
 1546      00
 1547 0b0d 4889CE   		movq	%rcx, %rsi
 1548 0b10 4889C7   		movq	%rax, %rdi
 1549 0b13 E8000000 		call	_ZN8UnitTest11TestDetailsC1ERKS0_i@PLT
 1549      00
  62:testHexIO.cpp **** 	CHECK_EQUAL(0UL, data.length);
 1550              		.loc 4 62 0 discriminator 12
 1551 0b18 488D45C0 		leaq	-64(%rbp), %rax
 1552 0b1c 488D1500 		leaq	.LC13(%rip), %rdx
 1552      000000
 1553 0b23 4889C6   		movq	%rax, %rsi
 1554 0b26 4889DF   		movq	%rbx, %rdi
 1555 0b29 E8000000 		call	_ZN8UnitTest11TestResults13OnTestFailureERKNS_11TestDetailsEPKc@PLT
 1555      00
 1556              	.LEHE78:
 1557              	.LEHB79:
  62:testHexIO.cpp **** 	CHECK_EQUAL(0UL, data.length);
 1558              		.loc 4 62 0 discriminator 14
 1559 0b2e E8000000 		call	__cxa_end_catch@PLT
 1559      00
 1560              	.LEHE79:
 1561 0b33 E9BEFDFF 		jmp	.L95
 1561      FF
 1562              	.L117:
 1563 0b38 4889C3   		movq	%rax, %rbx
  62:testHexIO.cpp **** 	CHECK_EQUAL(0UL, data.length);
 1564              		.loc 4 62 0
 1565 0b3b E8000000 		call	__cxa_end_catch@PLT
 1565      00
 1566 0b40 4889D8   		movq	%rbx, %rax
 1567 0b43 4889C7   		movq	%rax, %rdi
 1568              	.LEHB80:
 1569 0b46 E8000000 		call	_Unwind_Resume@PLT
 1569      00
 1570              	.LEHE80:
 1571              	.L119:
 1572 0b4b EB00     		jmp	.L98
 1573              	.L118:
 1574              	.L98:
  63:testHexIO.cpp **** 	CHECK_EQUAL(0UL, mask.length);
 1575              		.loc 4 63 0 is_stmt 1
 1576 0b4d 4889C7   		movq	%rax, %rdi
 1577 0b50 E8000000 		call	__cxa_begin_catch@PLT
 1577      00
 1578              	.LEHB81:
 1579 0b55 E8000000 		call	_ZN8UnitTest11CurrentTest7ResultsEv@PLT
 1579      00
 1580 0b5a 488B18   		movq	(%rax), %rbx
 1581 0b5d E8000000 		call	_ZN8UnitTest11CurrentTest7DetailsEv@PLT
 1581      00
  63:testHexIO.cpp **** 	CHECK_EQUAL(0UL, mask.length);
 1582              		.loc 4 63 0 is_stmt 0 discriminator 8
 1583 0b62 488B08   		movq	(%rax), %rcx
 1584 0b65 488D45C0 		leaq	-64(%rbp), %rax
 1585 0b69 BA3F0000 		movl	$63, %edx
 1585      00
 1586 0b6e 4889CE   		movq	%rcx, %rsi
 1587 0b71 4889C7   		movq	%rax, %rdi
 1588 0b74 E8000000 		call	_ZN8UnitTest11TestDetailsC1ERKS0_i@PLT
 1588      00
  63:testHexIO.cpp **** 	CHECK_EQUAL(0UL, mask.length);
 1589              		.loc 4 63 0 discriminator 12
 1590 0b79 488D45C0 		leaq	-64(%rbp), %rax
 1591 0b7d 488D1500 		leaq	.LC14(%rip), %rdx
 1591      000000
 1592 0b84 4889C6   		movq	%rax, %rsi
 1593 0b87 4889DF   		movq	%rbx, %rdi
 1594 0b8a E8000000 		call	_ZN8UnitTest11TestResults13OnTestFailureERKNS_11TestDetailsEPKc@PLT
 1594      00
 1595              	.LEHE81:
 1596              	.LEHB82:
  63:testHexIO.cpp **** 	CHECK_EQUAL(0UL, mask.length);
 1597              		.loc 4 63 0 discriminator 14
 1598 0b8f E8000000 		call	__cxa_end_catch@PLT
 1598      00
 1599              	.LEHE82:
 1600 0b94 E9ADFDFF 		jmp	.L99
 1600      FF
 1601              	.L120:
 1602 0b99 4889C3   		movq	%rax, %rbx
  63:testHexIO.cpp **** 	CHECK_EQUAL(0UL, mask.length);
 1603              		.loc 4 63 0
 1604 0b9c E8000000 		call	__cxa_end_catch@PLT
 1604      00
 1605 0ba1 4889D8   		movq	%rbx, %rax
 1606 0ba4 4889C7   		movq	%rax, %rdi
 1607              	.LEHB83:
 1608 0ba7 E8000000 		call	_Unwind_Resume@PLT
 1608      00
 1609              	.LEHE83:
 1610              	.L122:
 1611 0bac EB00     		jmp	.L102
 1612              	.L121:
 1613              	.L102:
  64:testHexIO.cpp **** 	bufDestroy(&mask);
 1614              		.loc 4 64 0 is_stmt 1
 1615 0bae 4889C7   		movq	%rax, %rdi
 1616 0bb1 E8000000 		call	__cxa_begin_catch@PLT
 1616      00
 1617              	.LEHB84:
 1618 0bb6 E8000000 		call	_ZN8UnitTest11CurrentTest7ResultsEv@PLT
 1618      00
 1619 0bbb 488B18   		movq	(%rax), %rbx
 1620 0bbe E8000000 		call	_ZN8UnitTest11CurrentTest7DetailsEv@PLT
 1620      00
  64:testHexIO.cpp **** 	bufDestroy(&mask);
 1621              		.loc 4 64 0 is_stmt 0 discriminator 8
 1622 0bc3 488B08   		movq	(%rax), %rcx
 1623 0bc6 488D45C0 		leaq	-64(%rbp), %rax
 1624 0bca BA400000 		movl	$64, %edx
 1624      00
 1625 0bcf 4889CE   		movq	%rcx, %rsi
 1626 0bd2 4889C7   		movq	%rax, %rdi
 1627 0bd5 E8000000 		call	_ZN8UnitTest11TestDetailsC1ERKS0_i@PLT
 1627      00
  64:testHexIO.cpp **** 	bufDestroy(&mask);
 1628              		.loc 4 64 0 discriminator 12
 1629 0bda 488D45C0 		leaq	-64(%rbp), %rax
 1630 0bde 488D1500 		leaq	.LC15(%rip), %rdx
 1630      000000
 1631 0be5 4889C6   		movq	%rax, %rsi
 1632 0be8 4889DF   		movq	%rbx, %rdi
 1633 0beb E8000000 		call	_ZN8UnitTest11TestResults13OnTestFailureERKNS_11TestDetailsEPKc@PLT
 1633      00
 1634              	.LEHE84:
 1635              	.LEHB85:
  64:testHexIO.cpp **** 	bufDestroy(&mask);
 1636              		.loc 4 64 0 discriminator 14
 1637 0bf0 E8000000 		call	__cxa_end_catch@PLT
 1637      00
 1638              	.LEHE85:
 1639 0bf5 E99CFDFF 		jmp	.L103
 1639      FF
 1640              	.L123:
 1641 0bfa 4889C3   		movq	%rax, %rbx
  64:testHexIO.cpp **** 	bufDestroy(&mask);
 1642              		.loc 4 64 0
 1643 0bfd E8000000 		call	__cxa_end_catch@PLT
 1643      00
 1644 0c02 4889D8   		movq	%rbx, %rax
 1645 0c05 4889C7   		movq	%rax, %rdi
 1646              	.LEHB86:
 1647 0c08 E8000000 		call	_Unwind_Resume@PLT
 1647      00
 1648              	.LEHE86:
 1649              	.L124:
 1650              		.loc 4 67 0 is_stmt 1
 1651 0c0d E8000000 		call	__stack_chk_fail@PLT
 1651      00
 1652              	.L105:
 1653 0c12 488B5DF8 		movq	-8(%rbp), %rbx
 1654 0c16 C9       		leave
 1655              		.cfi_def_cfa 7, 8
 1656 0c17 C3       		ret
 1657              		.cfi_endproc
 1658              	.LFE1163:
 1659              		.section	.gcc_except_table
 1660              		.align 4
 1661              	.LLSDA1163:
 1662 0120 FF       		.byte	0xff
 1663 0121 9B       		.byte	0x9b
 1664 0122 C401     		.uleb128 .LLSDATT1163-.LLSDATTD1163
 1665              	.LLSDATTD1163:
 1666 0124 01       		.byte	0x1
 1667 0125 B901     		.uleb128 .LLSDACSE1163-.LLSDACSB1163
 1668              	.LLSDACSB1163:
 1669 0127 50       		.uleb128 .LEHB53-.LFB1163
 1670 0128 05       		.uleb128 .LEHE53-.LEHB53
 1671 0129 00       		.uleb128 0
 1672 012a 00       		.uleb128 0
 1673 012b 5B       		.uleb128 .LEHB54-.LFB1163
 1674 012c 1C       		.uleb128 .LEHE54-.LEHB54
 1675 012d A905     		.uleb128 .L106-.LFB1163
 1676 012f 01       		.uleb128 0x1
 1677 0130 7E       		.uleb128 .LEHB55-.LFB1163
 1678 0131 1F       		.uleb128 .LEHE55-.LEHB55
 1679 0132 A705     		.uleb128 .L107-.LFB1163
 1680 0134 03       		.uleb128 0x3
 1681 0135 B301     		.uleb128 .LEHB56-.LFB1163
 1682 0137 05       		.uleb128 .LEHE56-.LEHB56
 1683 0138 00       		.uleb128 0
 1684 0139 00       		.uleb128 0
 1685 013a BE01     		.uleb128 .LEHB57-.LFB1163
 1686 013c 1C       		.uleb128 .LEHE57-.LEHB57
 1687 013d 8A06     		.uleb128 .L109-.LFB1163
 1688 013f 01       		.uleb128 0x1
 1689 0140 E401     		.uleb128 .LEHB58-.LFB1163
 1690 0142 22       		.uleb128 .LEHE58-.LEHB58
 1691 0143 8806     		.uleb128 .L110-.LFB1163
 1692 0145 03       		.uleb128 0x3
 1693 0146 B702     		.uleb128 .LEHB59-.LFB1163
 1694 0148 05       		.uleb128 .LEHE59-.LEHB59
 1695 0149 00       		.uleb128 0
 1696 014a 00       		.uleb128 0
 1697 014b C602     		.uleb128 .LEHB60-.LFB1163
 1698 014d 1C       		.uleb128 .LEHE60-.LEHB60
 1699 014e EB06     		.uleb128 .L112-.LFB1163
 1700 0150 01       		.uleb128 0x1
 1701 0151 EC02     		.uleb128 .LEHB61-.LFB1163
 1702 0153 22       		.uleb128 .LEHE61-.LEHB61
 1703 0154 E906     		.uleb128 .L113-.LFB1163
 1704 0156 03       		.uleb128 0x3
 1705 0157 8E03     		.uleb128 .LEHB62-.LFB1163
 1706 0159 1C       		.uleb128 .LEHE62-.LEHB62
 1707 015a CC07     		.uleb128 .L115-.LFB1163
 1708 015c 01       		.uleb128 0x1
 1709 015d B403     		.uleb128 .LEHB63-.LFB1163
 1710 015f 22       		.uleb128 .LEHE63-.LEHB63
 1711 0160 CA07     		.uleb128 .L116-.LFB1163
 1712 0162 03       		.uleb128 0x3
 1713 0163 D603     		.uleb128 .LEHB64-.LFB1163
 1714 0165 1C       		.uleb128 .LEHE64-.LEHB64
 1715 0166 AD08     		.uleb128 .L118-.LFB1163
 1716 0168 01       		.uleb128 0x1
 1717 0169 FD03     		.uleb128 .LEHB65-.LFB1163
 1718 016b 29       		.uleb128 .LEHE65-.LEHB65
 1719 016c AB08     		.uleb128 .L119-.LFB1163
 1720 016e 03       		.uleb128 0x3
 1721 016f A604     		.uleb128 .LEHB66-.LFB1163
 1722 0171 1C       		.uleb128 .LEHE66-.LEHB66
 1723 0172 8E09     		.uleb128 .L121-.LFB1163
 1724 0174 01       		.uleb128 0x1
 1725 0175 CD04     		.uleb128 .LEHB67-.LFB1163
 1726 0177 29       		.uleb128 .LEHE67-.LEHB67
 1727 0178 8C09     		.uleb128 .L122-.LFB1163
 1728 017a 03       		.uleb128 0x3
 1729 017b FD04     		.uleb128 .LEHB68-.LFB1163
 1730 017d 11       		.uleb128 .LEHE68-.LEHB68
 1731 017e 00       		.uleb128 0
 1732 017f 00       		.uleb128 0
 1733 0180 B105     		.uleb128 .LEHB69-.LFB1163
 1734 0182 3A       		.uleb128 .LEHE69-.LEHB69
 1735 0183 F505     		.uleb128 .L108-.LFB1163
 1736 0185 00       		.uleb128 0
 1737 0186 EB05     		.uleb128 .LEHB70-.LFB1163
 1738 0188 05       		.uleb128 .LEHE70-.LEHB70
 1739 0189 00       		.uleb128 0
 1740 018a 00       		.uleb128 0
 1741 018b 8306     		.uleb128 .LEHB71-.LFB1163
 1742 018d 05       		.uleb128 .LEHE71-.LEHB71
 1743 018e 00       		.uleb128 0
 1744 018f 00       		.uleb128 0
 1745 0190 9206     		.uleb128 .LEHB72-.LFB1163
 1746 0192 3A       		.uleb128 .LEHE72-.LEHB72
 1747 0193 D606     		.uleb128 .L111-.LFB1163
 1748 0195 00       		.uleb128 0
 1749 0196 CC06     		.uleb128 .LEHB73-.LFB1163
 1750 0198 05       		.uleb128 .LEHE73-.LEHB73
 1751 0199 00       		.uleb128 0
 1752 019a 00       		.uleb128 0
 1753 019b E406     		.uleb128 .LEHB74-.LFB1163
 1754 019d 05       		.uleb128 .LEHE74-.LEHB74
 1755 019e 00       		.uleb128 0
 1756 019f 00       		.uleb128 0
 1757 01a0 F306     		.uleb128 .LEHB75-.LFB1163
 1758 01a2 3A       		.uleb128 .LEHE75-.LEHB75
 1759 01a3 B707     		.uleb128 .L114-.LFB1163
 1760 01a5 00       		.uleb128 0
 1761 01a6 AD07     		.uleb128 .LEHB76-.LFB1163
 1762 01a8 05       		.uleb128 .LEHE76-.LEHB76
 1763 01a9 00       		.uleb128 0
 1764 01aa 00       		.uleb128 0
 1765 01ab C507     		.uleb128 .LEHB77-.LFB1163
 1766 01ad 05       		.uleb128 .LEHE77-.LEHB77
 1767 01ae 00       		.uleb128 0
 1768 01af 00       		.uleb128 0
 1769 01b0 D407     		.uleb128 .LEHB78-.LFB1163
 1770 01b2 3A       		.uleb128 .LEHE78-.LEHB78
 1771 01b3 9808     		.uleb128 .L117-.LFB1163
 1772 01b5 00       		.uleb128 0
 1773 01b6 8E08     		.uleb128 .LEHB79-.LFB1163
 1774 01b8 05       		.uleb128 .LEHE79-.LEHB79
 1775 01b9 00       		.uleb128 0
 1776 01ba 00       		.uleb128 0
 1777 01bb A608     		.uleb128 .LEHB80-.LFB1163
 1778 01bd 05       		.uleb128 .LEHE80-.LEHB80
 1779 01be 00       		.uleb128 0
 1780 01bf 00       		.uleb128 0
 1781 01c0 B508     		.uleb128 .LEHB81-.LFB1163
 1782 01c2 3A       		.uleb128 .LEHE81-.LEHB81
 1783 01c3 F908     		.uleb128 .L120-.LFB1163
 1784 01c5 00       		.uleb128 0
 1785 01c6 EF08     		.uleb128 .LEHB82-.LFB1163
 1786 01c8 05       		.uleb128 .LEHE82-.LEHB82
 1787 01c9 00       		.uleb128 0
 1788 01ca 00       		.uleb128 0
 1789 01cb 8709     		.uleb128 .LEHB83-.LFB1163
 1790 01cd 05       		.uleb128 .LEHE83-.LEHB83
 1791 01ce 00       		.uleb128 0
 1792 01cf 00       		.uleb128 0
 1793 01d0 9609     		.uleb128 .LEHB84-.LFB1163
 1794 01d2 3A       		.uleb128 .LEHE84-.LEHB84
 1795 01d3 DA09     		.uleb128 .L123-.LFB1163
 1796 01d5 00       		.uleb128 0
 1797 01d6 D009     		.uleb128 .LEHB85-.LFB1163
 1798 01d8 05       		.uleb128 .LEHE85-.LEHB85
 1799 01d9 00       		.uleb128 0
 1800 01da 00       		.uleb128 0
 1801 01db E809     		.uleb128 .LEHB86-.LFB1163
 1802 01dd 05       		.uleb128 .LEHE86-.LEHB86
 1803 01de 00       		.uleb128 0
 1804 01df 00       		.uleb128 0
 1805              	.LLSDACSE1163:
 1806 01e0 01       		.byte	0x1
 1807 01e1 00       		.byte	0
 1808 01e2 00       		.byte	0
 1809 01e3 7D       		.byte	0x7d
 1810              		.align 4
 1811 01e4 00000000 		.long	0
 1812              	
 1813              	.LLSDATT1163:
 1814              		.text
 1816              		.section	.rodata
 1817              	.LC16:
 1818 02c5 48657849 		.string	"HexIO_testJunkStartCode"
 1818      4F5F7465 
 1818      73744A75 
 1818      6E6B5374 
 1818      61727443 
 1819              		.section	.text._ZN27TestHexIO_testJunkStartCodeC2Ev,"axG",@progbits,_ZN27TestHexIO_testJunkStartCo
 1820              		.align 2
 1821              		.weak	_ZN27TestHexIO_testJunkStartCodeC2Ev
 1823              	_ZN27TestHexIO_testJunkStartCodeC2Ev:
 1824              	.LFB1165:
  68:testHexIO.cpp **** 
  69:testHexIO.cpp **** TEST(HexIO_testJunkStartCode) {
 1825              		.loc 4 69 0
 1826              		.cfi_startproc
 1827 0000 55       		pushq	%rbp
 1828              		.cfi_def_cfa_offset 16
 1829              		.cfi_offset 6, -16
 1830 0001 4889E5   		movq	%rsp, %rbp
 1831              		.cfi_def_cfa_register 6
 1832 0004 53       		pushq	%rbx
 1833 0005 4883EC18 		subq	$24, %rsp
 1834              		.cfi_offset 3, -24
 1835 0009 48897DE8 		movq	%rdi, -24(%rbp)
 1836              	.LBB6:
 1837              		.loc 4 69 0
 1838 000d 488B5DE8 		movq	-24(%rbp), %rbx
 1839 0011 E8000000 		call	_ZN13UnitTestSuite12GetSuiteNameEv
 1839      00
 1840 0016 41B84500 		movl	$69, %r8d
 1840      0000
 1841 001c 488D0D00 		leaq	.LC1(%rip), %rcx
 1841      000000
 1842 0023 4889C2   		movq	%rax, %rdx
 1843 0026 488D3500 		leaq	.LC16(%rip), %rsi
 1843      000000
 1844 002d 4889DF   		movq	%rbx, %rdi
 1845 0030 E8000000 		call	_ZN8UnitTest4TestC2EPKcS2_S2_i@PLT
 1845      00
 1846 0035 488D1500 		leaq	16+_ZTV27TestHexIO_testJunkStartCode(%rip), %rdx
 1846      000000
 1847 003c 488B45E8 		movq	-24(%rbp), %rax
 1848 0040 488910   		movq	%rdx, (%rax)
 1849              	.LBE6:
 1850 0043 90       		nop
 1851 0044 4883C418 		addq	$24, %rsp
 1852 0048 5B       		popq	%rbx
 1853 0049 5D       		popq	%rbp
 1854              		.cfi_def_cfa 7, 8
 1855 004a C3       		ret
 1856              		.cfi_endproc
 1857              	.LFE1165:
 1859              		.weak	_ZN27TestHexIO_testJunkStartCodeC1Ev
 1860              		.set	_ZN27TestHexIO_testJunkStartCodeC1Ev,_ZN27TestHexIO_testJunkStartCodeC2Ev
 1861              		.globl	testHexIO_testJunkStartCodeInstance
 1862              		.bss
 1863 0079 00000000 		.align 32
 1863      000000
 1866              	testHexIO_testJunkStartCodeInstance:
 1867 0080 00000000 		.zero	56
 1867      00000000 
 1867      00000000 
 1867      00000000 
 1867      00000000 
 1868              		.globl	adderHexIO_testJunkStartCode
 1871              	adderHexIO_testJunkStartCode:
 1872 00b8 00       		.zero	1
 1873              		.section	.rodata
 1874              	.LC17:
 1875 02dd 2E303430 		.string	".040BE10075820022F7\n"
 1875      42453130 
 1875      30373538 
 1875      32303032 
 1875      3246370A 
 1876 02f2 00000000 		.align 8
 1876      0000
 1877              	.LC18:
 1878 02f8 556E6861 		.string	"Unhandled exception in CHECK_EQUAL(HEX_JUNK_START_CODE, status)"
 1878      6E646C65 
 1878      64206578 
 1878      63657074 
 1878      696F6E20 
 1879              		.text
 1880              		.align 2
 1881              		.globl	_ZNK27TestHexIO_testJunkStartCode7RunImplEv
 1883              	_ZNK27TestHexIO_testJunkStartCode7RunImplEv:
 1884              	.LFB1167:
 1885              		.loc 4 69 0
 1886              		.cfi_startproc
 1887              		.cfi_personality 0x9b,DW.ref.__gxx_personality_v0
 1888              		.cfi_lsda 0x1b,.LLSDA1167
 1889 0c18 55       		pushq	%rbp
 1890              		.cfi_def_cfa_offset 16
 1891              		.cfi_offset 6, -16
 1892 0c19 4889E5   		movq	%rsp, %rbp
 1893              		.cfi_def_cfa_register 6
 1894 0c1c 53       		pushq	%rbx
 1895 0c1d 4881EC88 		subq	$136, %rsp
 1895      000000
 1896              		.cfi_offset 3, -24
 1897 0c24 4889BD78 		movq	%rdi, -136(%rbp)
 1897      FFFFFF
 1898              		.loc 4 69 0
 1899 0c2b 64488B04 		movq	%fs:40, %rax
 1899      25280000 
 1899      00
 1900 0c34 488945E8 		movq	%rax, -24(%rbp)
 1901 0c38 31C0     		xorl	%eax, %eax
  70:testHexIO.cpp **** 	Buffer data;
  71:testHexIO.cpp **** 	BufferStatus status;
  72:testHexIO.cpp **** 	const char *line = ".040BE10075820022F7\n";
 1902              		.loc 4 72 0
 1903 0c3a 488D0500 		leaq	.LC17(%rip), %rax
 1903      000000
 1904 0c41 48894598 		movq	%rax, -104(%rbp)
  73:testHexIO.cpp **** 	uint8 recordType;
  74:testHexIO.cpp **** 	uint32 seg = 0x00000000;
 1905              		.loc 4 74 0
 1906 0c45 C7459000 		movl	$0, -112(%rbp)
 1906      000000
  75:testHexIO.cpp **** 	status = bufInitialise(&data, 1024, 0x00, NULL);
 1907              		.loc 4 75 0
 1908 0c4c 488D45A0 		leaq	-96(%rbp), %rax
 1909 0c50 B9000000 		movl	$0, %ecx
 1909      00
 1910 0c55 BA000000 		movl	$0, %edx
 1910      00
 1911 0c5a BE000400 		movl	$1024, %esi
 1911      00
 1912 0c5f 4889C7   		movq	%rax, %rdi
 1913              	.LEHB87:
 1914 0c62 E8000000 		call	bufInitialise@PLT
 1914      00
 1915              	.LEHE87:
 1916 0c67 89458C   		movl	%eax, -116(%rbp)
 1917              	.LEHB88:
  76:testHexIO.cpp **** 	CHECK_EQUAL(BUF_SUCCESS, status);
 1918              		.loc 4 76 0
 1919 0c6a E8000000 		call	_ZN8UnitTest11CurrentTest7DetailsEv@PLT
 1919      00
 1920 0c6f 488B08   		movq	(%rax), %rcx
 1921 0c72 488D45C0 		leaq	-64(%rbp), %rax
 1922 0c76 BA4C0000 		movl	$76, %edx
 1922      00
 1923 0c7b 4889CE   		movq	%rcx, %rsi
 1924 0c7e 4889C7   		movq	%rax, %rdi
 1925 0c81 E8000000 		call	_ZN8UnitTest11TestDetailsC1ERKS0_i@PLT
 1925      00
 1926              	.LEHE88:
 1927              		.loc 4 76 0 is_stmt 0 discriminator 2
 1928 0c86 C7459400 		movl	$0, -108(%rbp)
 1928      000000
 1929              	.LEHB89:
 1930 0c8d E8000000 		call	_ZN8UnitTest11CurrentTest7ResultsEv@PLT
 1930      00
 1931 0c92 488B00   		movq	(%rax), %rax
 1932 0c95 488D4DC0 		leaq	-64(%rbp), %rcx
 1933 0c99 488D558C 		leaq	-116(%rbp), %rdx
 1934 0c9d 488D7594 		leaq	-108(%rbp), %rsi
 1935 0ca1 4889C7   		movq	%rax, %rdi
 1936 0ca4 E8000000 		call	_ZN8UnitTest10CheckEqualI12BufferStatusS1_EEvRNS_11TestResultsERKT_RKT0_RKNS_11TestDetailsE
 1936      00
 1937              	.LEHE89:
 1938              	.L129:
  77:testHexIO.cpp **** 	status = bufProcessLine(line, 0, &data, NULL, &seg, &recordType, NULL);
 1939              		.loc 4 77 0 is_stmt 1
 1940 0ca9 488D758B 		leaq	-117(%rbp), %rsi
 1941 0cad 488D4D90 		leaq	-112(%rbp), %rcx
 1942 0cb1 488D55A0 		leaq	-96(%rbp), %rdx
 1943 0cb5 488B4598 		movq	-104(%rbp), %rax
 1944 0cb9 4883EC08 		subq	$8, %rsp
 1945 0cbd 6A00     		pushq	$0
 1946 0cbf 4989F1   		movq	%rsi, %r9
 1947 0cc2 4989C8   		movq	%rcx, %r8
 1948 0cc5 B9000000 		movl	$0, %ecx
 1948      00
 1949 0cca BE000000 		movl	$0, %esi
 1949      00
 1950 0ccf 4889C7   		movq	%rax, %rdi
 1951              	.LEHB90:
 1952 0cd2 E8000000 		call	bufProcessLine@PLT
 1952      00
 1953              	.LEHE90:
 1954 0cd7 4883C410 		addq	$16, %rsp
 1955 0cdb 89458C   		movl	%eax, -116(%rbp)
 1956              	.LEHB91:
  78:testHexIO.cpp **** 	CHECK_EQUAL(HEX_JUNK_START_CODE, status);
 1957              		.loc 4 78 0
 1958 0cde E8000000 		call	_ZN8UnitTest11CurrentTest7DetailsEv@PLT
 1958      00
 1959 0ce3 488B08   		movq	(%rax), %rcx
 1960 0ce6 488D45C0 		leaq	-64(%rbp), %rax
 1961 0cea BA4E0000 		movl	$78, %edx
 1961      00
 1962 0cef 4889CE   		movq	%rcx, %rsi
 1963 0cf2 4889C7   		movq	%rax, %rdi
 1964 0cf5 E8000000 		call	_ZN8UnitTest11TestDetailsC1ERKS0_i@PLT
 1964      00
 1965              	.LEHE91:
 1966              		.loc 4 78 0 is_stmt 0 discriminator 2
 1967 0cfa C7459408 		movl	$8, -108(%rbp)
 1967      000000
 1968              	.LEHB92:
 1969 0d01 E8000000 		call	_ZN8UnitTest11CurrentTest7ResultsEv@PLT
 1969      00
 1970 0d06 488B00   		movq	(%rax), %rax
 1971 0d09 488D4DC0 		leaq	-64(%rbp), %rcx
 1972 0d0d 488D558C 		leaq	-116(%rbp), %rdx
 1973 0d11 488D7594 		leaq	-108(%rbp), %rsi
 1974 0d15 4889C7   		movq	%rax, %rdi
 1975 0d18 E8000000 		call	_ZN8UnitTest10CheckEqualI12BufferStatusS1_EEvRNS_11TestResultsERKT_RKT0_RKNS_11TestDetailsE
 1975      00
 1976              	.LEHE92:
 1977              	.L133:
  79:testHexIO.cpp **** 	bufDestroy(&data);
 1978              		.loc 4 79 0 is_stmt 1
 1979 0d1d 488D45A0 		leaq	-96(%rbp), %rax
 1980 0d21 4889C7   		movq	%rax, %rdi
 1981              	.LEHB93:
 1982 0d24 E8000000 		call	bufDestroy@PLT
 1982      00
 1983              	.LEHE93:
  80:testHexIO.cpp **** }
 1984              		.loc 4 80 0
 1985 0d29 90       		nop
 1986 0d2a 488B45E8 		movq	-24(%rbp), %rax
 1987 0d2e 64483304 		xorq	%fs:40, %rax
 1987      25280000 
 1987      00
 1988 0d37 0F84CC00 		je	.L135
 1988      0000
 1989 0d3d E9C20000 		jmp	.L142
 1989      00
 1990              	.L137:
 1991 0d42 EB00     		jmp	.L128
 1992              	.L136:
 1993              	.L128:
  76:testHexIO.cpp **** 	status = bufProcessLine(line, 0, &data, NULL, &seg, &recordType, NULL);
 1994              		.loc 4 76 0
 1995 0d44 4889C7   		movq	%rax, %rdi
 1996 0d47 E8000000 		call	__cxa_begin_catch@PLT
 1996      00
 1997              	.LEHB94:
 1998 0d4c E8000000 		call	_ZN8UnitTest11CurrentTest7ResultsEv@PLT
 1998      00
 1999 0d51 488B18   		movq	(%rax), %rbx
 2000 0d54 E8000000 		call	_ZN8UnitTest11CurrentTest7DetailsEv@PLT
 2000      00
  76:testHexIO.cpp **** 	status = bufProcessLine(line, 0, &data, NULL, &seg, &recordType, NULL);
 2001              		.loc 4 76 0 is_stmt 0 discriminator 8
 2002 0d59 488B08   		movq	(%rax), %rcx
 2003 0d5c 488D45C0 		leaq	-64(%rbp), %rax
 2004 0d60 BA4C0000 		movl	$76, %edx
 2004      00
 2005 0d65 4889CE   		movq	%rcx, %rsi
 2006 0d68 4889C7   		movq	%rax, %rdi
 2007 0d6b E8000000 		call	_ZN8UnitTest11TestDetailsC1ERKS0_i@PLT
 2007      00
  76:testHexIO.cpp **** 	status = bufProcessLine(line, 0, &data, NULL, &seg, &recordType, NULL);
 2008              		.loc 4 76 0 discriminator 12
 2009 0d70 488D45C0 		leaq	-64(%rbp), %rax
 2010 0d74 488D1500 		leaq	.LC4(%rip), %rdx
 2010      000000
 2011 0d7b 4889C6   		movq	%rax, %rsi
 2012 0d7e 4889DF   		movq	%rbx, %rdi
 2013 0d81 E8000000 		call	_ZN8UnitTest11TestResults13OnTestFailureERKNS_11TestDetailsEPKc@PLT
 2013      00
 2014              	.LEHE94:
 2015              	.LEHB95:
  76:testHexIO.cpp **** 	status = bufProcessLine(line, 0, &data, NULL, &seg, &recordType, NULL);
 2016              		.loc 4 76 0 discriminator 14
 2017 0d86 E8000000 		call	__cxa_end_catch@PLT
 2017      00
 2018              	.LEHE95:
 2019 0d8b E919FFFF 		jmp	.L129
 2019      FF
 2020              	.L138:
 2021 0d90 4889C3   		movq	%rax, %rbx
  76:testHexIO.cpp **** 	status = bufProcessLine(line, 0, &data, NULL, &seg, &recordType, NULL);
 2022              		.loc 4 76 0
 2023 0d93 E8000000 		call	__cxa_end_catch@PLT
 2023      00
 2024 0d98 4889D8   		movq	%rbx, %rax
 2025 0d9b 4889C7   		movq	%rax, %rdi
 2026              	.LEHB96:
 2027 0d9e E8000000 		call	_Unwind_Resume@PLT
 2027      00
 2028              	.LEHE96:
 2029              	.L140:
 2030 0da3 EB00     		jmp	.L132
 2031              	.L139:
 2032              	.L132:
  78:testHexIO.cpp **** 	bufDestroy(&data);
 2033              		.loc 4 78 0 is_stmt 1
 2034 0da5 4889C7   		movq	%rax, %rdi
 2035 0da8 E8000000 		call	__cxa_begin_catch@PLT
 2035      00
 2036              	.LEHB97:
 2037 0dad E8000000 		call	_ZN8UnitTest11CurrentTest7ResultsEv@PLT
 2037      00
 2038 0db2 488B18   		movq	(%rax), %rbx
 2039 0db5 E8000000 		call	_ZN8UnitTest11CurrentTest7DetailsEv@PLT
 2039      00
  78:testHexIO.cpp **** 	bufDestroy(&data);
 2040              		.loc 4 78 0 is_stmt 0 discriminator 8
 2041 0dba 488B08   		movq	(%rax), %rcx
 2042 0dbd 488D45C0 		leaq	-64(%rbp), %rax
 2043 0dc1 BA4E0000 		movl	$78, %edx
 2043      00
 2044 0dc6 4889CE   		movq	%rcx, %rsi
 2045 0dc9 4889C7   		movq	%rax, %rdi
 2046 0dcc E8000000 		call	_ZN8UnitTest11TestDetailsC1ERKS0_i@PLT
 2046      00
  78:testHexIO.cpp **** 	bufDestroy(&data);
 2047              		.loc 4 78 0 discriminator 12
 2048 0dd1 488D45C0 		leaq	-64(%rbp), %rax
 2049 0dd5 488D1500 		leaq	.LC18(%rip), %rdx
 2049      000000
 2050 0ddc 4889C6   		movq	%rax, %rsi
 2051 0ddf 4889DF   		movq	%rbx, %rdi
 2052 0de2 E8000000 		call	_ZN8UnitTest11TestResults13OnTestFailureERKNS_11TestDetailsEPKc@PLT
 2052      00
 2053              	.LEHE97:
 2054              	.LEHB98:
  78:testHexIO.cpp **** 	bufDestroy(&data);
 2055              		.loc 4 78 0 discriminator 14
 2056 0de7 E8000000 		call	__cxa_end_catch@PLT
 2056      00
 2057              	.LEHE98:
 2058 0dec E92CFFFF 		jmp	.L133
 2058      FF
 2059              	.L141:
 2060 0df1 4889C3   		movq	%rax, %rbx
  78:testHexIO.cpp **** 	bufDestroy(&data);
 2061              		.loc 4 78 0
 2062 0df4 E8000000 		call	__cxa_end_catch@PLT
 2062      00
 2063 0df9 4889D8   		movq	%rbx, %rax
 2064 0dfc 4889C7   		movq	%rax, %rdi
 2065              	.LEHB99:
 2066 0dff E8000000 		call	_Unwind_Resume@PLT
 2066      00
 2067              	.LEHE99:
 2068              	.L142:
 2069              		.loc 4 80 0 is_stmt 1
 2070 0e04 E8000000 		call	__stack_chk_fail@PLT
 2070      00
 2071              	.L135:
 2072 0e09 488B5DF8 		movq	-8(%rbp), %rbx
 2073 0e0d C9       		leave
 2074              		.cfi_def_cfa 7, 8
 2075 0e0e C3       		ret
 2076              		.cfi_endproc
 2077              	.LFE1167:
 2078              		.section	.gcc_except_table
 2079              		.align 4
 2080              	.LLSDA1167:
 2081 01e8 FF       		.byte	0xff
 2082 01e9 9B       		.byte	0x9b
 2083 01ea 51       		.uleb128 .LLSDATT1167-.LLSDATTD1167
 2084              	.LLSDATTD1167:
 2085 01eb 01       		.byte	0x1
 2086 01ec 44       		.uleb128 .LLSDACSE1167-.LLSDACSB1167
 2087              	.LLSDACSB1167:
 2088 01ed 4A       		.uleb128 .LEHB87-.LFB1167
 2089 01ee 05       		.uleb128 .LEHE87-.LEHB87
 2090 01ef 00       		.uleb128 0
 2091 01f0 00       		.uleb128 0
 2092 01f1 52       		.uleb128 .LEHB88-.LFB1167
 2093 01f2 1C       		.uleb128 .LEHE88-.LEHB88
 2094 01f3 AC02     		.uleb128 .L136-.LFB1167
 2095 01f5 01       		.uleb128 0x1
 2096 01f6 75       		.uleb128 .LEHB89-.LFB1167
 2097 01f7 1C       		.uleb128 .LEHE89-.LEHB89
 2098 01f8 AA02     		.uleb128 .L137-.LFB1167
 2099 01fa 03       		.uleb128 0x3
 2100 01fb BA01     		.uleb128 .LEHB90-.LFB1167
 2101 01fd 05       		.uleb128 .LEHE90-.LEHB90
 2102 01fe 00       		.uleb128 0
 2103 01ff 00       		.uleb128 0
 2104 0200 C601     		.uleb128 .LEHB91-.LFB1167
 2105 0202 1C       		.uleb128 .LEHE91-.LEHB91
 2106 0203 8D03     		.uleb128 .L139-.LFB1167
 2107 0205 01       		.uleb128 0x1
 2108 0206 E901     		.uleb128 .LEHB92-.LFB1167
 2109 0208 1C       		.uleb128 .LEHE92-.LEHB92
 2110 0209 8B03     		.uleb128 .L140-.LFB1167
 2111 020b 03       		.uleb128 0x3
 2112 020c 8C02     		.uleb128 .LEHB93-.LFB1167
 2113 020e 05       		.uleb128 .LEHE93-.LEHB93
 2114 020f 00       		.uleb128 0
 2115 0210 00       		.uleb128 0
 2116 0211 B402     		.uleb128 .LEHB94-.LFB1167
 2117 0213 3A       		.uleb128 .LEHE94-.LEHB94
 2118 0214 F802     		.uleb128 .L138-.LFB1167
 2119 0216 00       		.uleb128 0
 2120 0217 EE02     		.uleb128 .LEHB95-.LFB1167
 2121 0219 05       		.uleb128 .LEHE95-.LEHB95
 2122 021a 00       		.uleb128 0
 2123 021b 00       		.uleb128 0
 2124 021c 8603     		.uleb128 .LEHB96-.LFB1167
 2125 021e 05       		.uleb128 .LEHE96-.LEHB96
 2126 021f 00       		.uleb128 0
 2127 0220 00       		.uleb128 0
 2128 0221 9503     		.uleb128 .LEHB97-.LFB1167
 2129 0223 3A       		.uleb128 .LEHE97-.LEHB97
 2130 0224 D903     		.uleb128 .L141-.LFB1167
 2131 0226 00       		.uleb128 0
 2132 0227 CF03     		.uleb128 .LEHB98-.LFB1167
 2133 0229 05       		.uleb128 .LEHE98-.LEHB98
 2134 022a 00       		.uleb128 0
 2135 022b 00       		.uleb128 0
 2136 022c E703     		.uleb128 .LEHB99-.LFB1167
 2137 022e 05       		.uleb128 .LEHE99-.LEHB99
 2138 022f 00       		.uleb128 0
 2139 0230 00       		.uleb128 0
 2140              	.LLSDACSE1167:
 2141 0231 01       		.byte	0x1
 2142 0232 00       		.byte	0
 2143 0233 00       		.byte	0
 2144 0234 7D       		.byte	0x7d
 2145 0235 000000   		.align 4
 2146 0238 00000000 		.long	0
 2147              	
 2148              	.LLSDATT1167:
 2149              		.text
 2151              		.section	.rodata
 2152              	.LC19:
 2153 0338 48657849 		.string	"HexIO_testJunkByteCount"
 2153      4F5F7465 
 2153      73744A75 
 2153      6E6B4279 
 2153      7465436F 
 2154              		.section	.text._ZN27TestHexIO_testJunkByteCountC2Ev,"axG",@progbits,_ZN27TestHexIO_testJunkByteCou
 2155              		.align 2
 2156              		.weak	_ZN27TestHexIO_testJunkByteCountC2Ev
 2158              	_ZN27TestHexIO_testJunkByteCountC2Ev:
 2159              	.LFB1169:
  81:testHexIO.cpp **** 
  82:testHexIO.cpp **** TEST(HexIO_testJunkByteCount) {
 2160              		.loc 4 82 0
 2161              		.cfi_startproc
 2162 0000 55       		pushq	%rbp
 2163              		.cfi_def_cfa_offset 16
 2164              		.cfi_offset 6, -16
 2165 0001 4889E5   		movq	%rsp, %rbp
 2166              		.cfi_def_cfa_register 6
 2167 0004 53       		pushq	%rbx
 2168 0005 4883EC18 		subq	$24, %rsp
 2169              		.cfi_offset 3, -24
 2170 0009 48897DE8 		movq	%rdi, -24(%rbp)
 2171              	.LBB7:
 2172              		.loc 4 82 0
 2173 000d 488B5DE8 		movq	-24(%rbp), %rbx
 2174 0011 E8000000 		call	_ZN13UnitTestSuite12GetSuiteNameEv
 2174      00
 2175 0016 41B85200 		movl	$82, %r8d
 2175      0000
 2176 001c 488D0D00 		leaq	.LC1(%rip), %rcx
 2176      000000
 2177 0023 4889C2   		movq	%rax, %rdx
 2178 0026 488D3500 		leaq	.LC19(%rip), %rsi
 2178      000000
 2179 002d 4889DF   		movq	%rbx, %rdi
 2180 0030 E8000000 		call	_ZN8UnitTest4TestC2EPKcS2_S2_i@PLT
 2180      00
 2181 0035 488D1500 		leaq	16+_ZTV27TestHexIO_testJunkByteCount(%rip), %rdx
 2181      000000
 2182 003c 488B45E8 		movq	-24(%rbp), %rax
 2183 0040 488910   		movq	%rdx, (%rax)
 2184              	.LBE7:
 2185 0043 90       		nop
 2186 0044 4883C418 		addq	$24, %rsp
 2187 0048 5B       		popq	%rbx
 2188 0049 5D       		popq	%rbp
 2189              		.cfi_def_cfa 7, 8
 2190 004a C3       		ret
 2191              		.cfi_endproc
 2192              	.LFE1169:
 2194              		.weak	_ZN27TestHexIO_testJunkByteCountC1Ev
 2195              		.set	_ZN27TestHexIO_testJunkByteCountC1Ev,_ZN27TestHexIO_testJunkByteCountC2Ev
 2196              		.globl	testHexIO_testJunkByteCountInstance
 2197              		.bss
 2198 00b9 00000000 		.align 32
 2198      000000
 2201              	testHexIO_testJunkByteCountInstance:
 2202 00c0 00000000 		.zero	56
 2202      00000000 
 2202      00000000 
 2202      00000000 
 2202      00000000 
 2203              		.globl	adderHexIO_testJunkByteCount
 2206              	adderHexIO_testJunkByteCount:
 2207 00f8 00       		.zero	1
 2208              		.section	.rodata
 2209              	.LC20:
 2210 0350 3A2E2E30 		.string	":..0BE10075820022F7\n"
 2210      42453130 
 2210      30373538 
 2210      32303032 
 2210      3246370A 
 2211 0365 000000   		.align 8
 2212              	.LC21:
 2213 0368 556E6861 		.string	"Unhandled exception in CHECK_EQUAL(HEX_JUNK_BYTE_COUNT, status)"
 2213      6E646C65 
 2213      64206578 
 2213      63657074 
 2213      696F6E20 
 2214              		.text
 2215 0e0f 90       		.align 2
 2216              		.globl	_ZNK27TestHexIO_testJunkByteCount7RunImplEv
 2218              	_ZNK27TestHexIO_testJunkByteCount7RunImplEv:
 2219              	.LFB1171:
 2220              		.loc 4 82 0
 2221              		.cfi_startproc
 2222              		.cfi_personality 0x9b,DW.ref.__gxx_personality_v0
 2223              		.cfi_lsda 0x1b,.LLSDA1171
 2224 0e10 55       		pushq	%rbp
 2225              		.cfi_def_cfa_offset 16
 2226              		.cfi_offset 6, -16
 2227 0e11 4889E5   		movq	%rsp, %rbp
 2228              		.cfi_def_cfa_register 6
 2229 0e14 53       		pushq	%rbx
 2230 0e15 4881EC88 		subq	$136, %rsp
 2230      000000
 2231              		.cfi_offset 3, -24
 2232 0e1c 4889BD78 		movq	%rdi, -136(%rbp)
 2232      FFFFFF
 2233              		.loc 4 82 0
 2234 0e23 64488B04 		movq	%fs:40, %rax
 2234      25280000 
 2234      00
 2235 0e2c 488945E8 		movq	%rax, -24(%rbp)
 2236 0e30 31C0     		xorl	%eax, %eax
  83:testHexIO.cpp **** 	Buffer data;
  84:testHexIO.cpp **** 	BufferStatus status;
  85:testHexIO.cpp **** 	const char *line = ":..0BE10075820022F7\n";
 2237              		.loc 4 85 0
 2238 0e32 488D0500 		leaq	.LC20(%rip), %rax
 2238      000000
 2239 0e39 48894598 		movq	%rax, -104(%rbp)
  86:testHexIO.cpp **** 	uint8 recordType;
  87:testHexIO.cpp **** 	uint32 seg = 0x00000000;
 2240              		.loc 4 87 0
 2241 0e3d C7459000 		movl	$0, -112(%rbp)
 2241      000000
  88:testHexIO.cpp **** 	status = bufInitialise(&data, 1024, 0x00, NULL);
 2242              		.loc 4 88 0
 2243 0e44 488D45A0 		leaq	-96(%rbp), %rax
 2244 0e48 B9000000 		movl	$0, %ecx
 2244      00
 2245 0e4d BA000000 		movl	$0, %edx
 2245      00
 2246 0e52 BE000400 		movl	$1024, %esi
 2246      00
 2247 0e57 4889C7   		movq	%rax, %rdi
 2248              	.LEHB100:
 2249 0e5a E8000000 		call	bufInitialise@PLT
 2249      00
 2250              	.LEHE100:
 2251 0e5f 89458C   		movl	%eax, -116(%rbp)
 2252              	.LEHB101:
  89:testHexIO.cpp **** 	CHECK_EQUAL(BUF_SUCCESS, status);
 2253              		.loc 4 89 0
 2254 0e62 E8000000 		call	_ZN8UnitTest11CurrentTest7DetailsEv@PLT
 2254      00
 2255 0e67 488B08   		movq	(%rax), %rcx
 2256 0e6a 488D45C0 		leaq	-64(%rbp), %rax
 2257 0e6e BA590000 		movl	$89, %edx
 2257      00
 2258 0e73 4889CE   		movq	%rcx, %rsi
 2259 0e76 4889C7   		movq	%rax, %rdi
 2260 0e79 E8000000 		call	_ZN8UnitTest11TestDetailsC1ERKS0_i@PLT
 2260      00
 2261              	.LEHE101:
 2262              		.loc 4 89 0 is_stmt 0 discriminator 2
 2263 0e7e C7459400 		movl	$0, -108(%rbp)
 2263      000000
 2264              	.LEHB102:
 2265 0e85 E8000000 		call	_ZN8UnitTest11CurrentTest7ResultsEv@PLT
 2265      00
 2266 0e8a 488B00   		movq	(%rax), %rax
 2267 0e8d 488D4DC0 		leaq	-64(%rbp), %rcx
 2268 0e91 488D558C 		leaq	-116(%rbp), %rdx
 2269 0e95 488D7594 		leaq	-108(%rbp), %rsi
 2270 0e99 4889C7   		movq	%rax, %rdi
 2271 0e9c E8000000 		call	_ZN8UnitTest10CheckEqualI12BufferStatusS1_EEvRNS_11TestResultsERKT_RKT0_RKNS_11TestDetailsE
 2271      00
 2272              	.LEHE102:
 2273              	.L147:
  90:testHexIO.cpp **** 	status = bufProcessLine(line, 0, &data, NULL, &seg, &recordType, NULL);
 2274              		.loc 4 90 0 is_stmt 1
 2275 0ea1 488D758B 		leaq	-117(%rbp), %rsi
 2276 0ea5 488D4D90 		leaq	-112(%rbp), %rcx
 2277 0ea9 488D55A0 		leaq	-96(%rbp), %rdx
 2278 0ead 488B4598 		movq	-104(%rbp), %rax
 2279 0eb1 4883EC08 		subq	$8, %rsp
 2280 0eb5 6A00     		pushq	$0
 2281 0eb7 4989F1   		movq	%rsi, %r9
 2282 0eba 4989C8   		movq	%rcx, %r8
 2283 0ebd B9000000 		movl	$0, %ecx
 2283      00
 2284 0ec2 BE000000 		movl	$0, %esi
 2284      00
 2285 0ec7 4889C7   		movq	%rax, %rdi
 2286              	.LEHB103:
 2287 0eca E8000000 		call	bufProcessLine@PLT
 2287      00
 2288              	.LEHE103:
 2289 0ecf 4883C410 		addq	$16, %rsp
 2290 0ed3 89458C   		movl	%eax, -116(%rbp)
 2291              	.LEHB104:
  91:testHexIO.cpp **** 	CHECK_EQUAL(HEX_JUNK_BYTE_COUNT, status);
 2292              		.loc 4 91 0
 2293 0ed6 E8000000 		call	_ZN8UnitTest11CurrentTest7DetailsEv@PLT
 2293      00
 2294 0edb 488B08   		movq	(%rax), %rcx
 2295 0ede 488D45C0 		leaq	-64(%rbp), %rax
 2296 0ee2 BA5B0000 		movl	$91, %edx
 2296      00
 2297 0ee7 4889CE   		movq	%rcx, %rsi
 2298 0eea 4889C7   		movq	%rax, %rdi
 2299 0eed E8000000 		call	_ZN8UnitTest11TestDetailsC1ERKS0_i@PLT
 2299      00
 2300              	.LEHE104:
 2301              		.loc 4 91 0 is_stmt 0 discriminator 2
 2302 0ef2 C7459409 		movl	$9, -108(%rbp)
 2302      000000
 2303              	.LEHB105:
 2304 0ef9 E8000000 		call	_ZN8UnitTest11CurrentTest7ResultsEv@PLT
 2304      00
 2305 0efe 488B00   		movq	(%rax), %rax
 2306 0f01 488D4DC0 		leaq	-64(%rbp), %rcx
 2307 0f05 488D558C 		leaq	-116(%rbp), %rdx
 2308 0f09 488D7594 		leaq	-108(%rbp), %rsi
 2309 0f0d 4889C7   		movq	%rax, %rdi
 2310 0f10 E8000000 		call	_ZN8UnitTest10CheckEqualI12BufferStatusS1_EEvRNS_11TestResultsERKT_RKT0_RKNS_11TestDetailsE
 2310      00
 2311              	.LEHE105:
 2312              	.L151:
  92:testHexIO.cpp **** 	bufDestroy(&data);
 2313              		.loc 4 92 0 is_stmt 1
 2314 0f15 488D45A0 		leaq	-96(%rbp), %rax
 2315 0f19 4889C7   		movq	%rax, %rdi
 2316              	.LEHB106:
 2317 0f1c E8000000 		call	bufDestroy@PLT
 2317      00
 2318              	.LEHE106:
  93:testHexIO.cpp **** }
 2319              		.loc 4 93 0
 2320 0f21 90       		nop
 2321 0f22 488B45E8 		movq	-24(%rbp), %rax
 2322 0f26 64483304 		xorq	%fs:40, %rax
 2322      25280000 
 2322      00
 2323 0f2f 0F84CC00 		je	.L153
 2323      0000
 2324 0f35 E9C20000 		jmp	.L160
 2324      00
 2325              	.L155:
 2326 0f3a EB00     		jmp	.L146
 2327              	.L154:
 2328              	.L146:
  89:testHexIO.cpp **** 	status = bufProcessLine(line, 0, &data, NULL, &seg, &recordType, NULL);
 2329              		.loc 4 89 0
 2330 0f3c 4889C7   		movq	%rax, %rdi
 2331 0f3f E8000000 		call	__cxa_begin_catch@PLT
 2331      00
 2332              	.LEHB107:
 2333 0f44 E8000000 		call	_ZN8UnitTest11CurrentTest7ResultsEv@PLT
 2333      00
 2334 0f49 488B18   		movq	(%rax), %rbx
 2335 0f4c E8000000 		call	_ZN8UnitTest11CurrentTest7DetailsEv@PLT
 2335      00
  89:testHexIO.cpp **** 	status = bufProcessLine(line, 0, &data, NULL, &seg, &recordType, NULL);
 2336              		.loc 4 89 0 is_stmt 0 discriminator 8
 2337 0f51 488B08   		movq	(%rax), %rcx
 2338 0f54 488D45C0 		leaq	-64(%rbp), %rax
 2339 0f58 BA590000 		movl	$89, %edx
 2339      00
 2340 0f5d 4889CE   		movq	%rcx, %rsi
 2341 0f60 4889C7   		movq	%rax, %rdi
 2342 0f63 E8000000 		call	_ZN8UnitTest11TestDetailsC1ERKS0_i@PLT
 2342      00
  89:testHexIO.cpp **** 	status = bufProcessLine(line, 0, &data, NULL, &seg, &recordType, NULL);
 2343              		.loc 4 89 0 discriminator 12
 2344 0f68 488D45C0 		leaq	-64(%rbp), %rax
 2345 0f6c 488D1500 		leaq	.LC4(%rip), %rdx
 2345      000000
 2346 0f73 4889C6   		movq	%rax, %rsi
 2347 0f76 4889DF   		movq	%rbx, %rdi
 2348 0f79 E8000000 		call	_ZN8UnitTest11TestResults13OnTestFailureERKNS_11TestDetailsEPKc@PLT
 2348      00
 2349              	.LEHE107:
 2350              	.LEHB108:
  89:testHexIO.cpp **** 	status = bufProcessLine(line, 0, &data, NULL, &seg, &recordType, NULL);
 2351              		.loc 4 89 0 discriminator 14
 2352 0f7e E8000000 		call	__cxa_end_catch@PLT
 2352      00
 2353              	.LEHE108:
 2354 0f83 E919FFFF 		jmp	.L147
 2354      FF
 2355              	.L156:
 2356 0f88 4889C3   		movq	%rax, %rbx
  89:testHexIO.cpp **** 	status = bufProcessLine(line, 0, &data, NULL, &seg, &recordType, NULL);
 2357              		.loc 4 89 0
 2358 0f8b E8000000 		call	__cxa_end_catch@PLT
 2358      00
 2359 0f90 4889D8   		movq	%rbx, %rax
 2360 0f93 4889C7   		movq	%rax, %rdi
 2361              	.LEHB109:
 2362 0f96 E8000000 		call	_Unwind_Resume@PLT
 2362      00
 2363              	.LEHE109:
 2364              	.L158:
 2365 0f9b EB00     		jmp	.L150
 2366              	.L157:
 2367              	.L150:
  91:testHexIO.cpp **** 	bufDestroy(&data);
 2368              		.loc 4 91 0 is_stmt 1
 2369 0f9d 4889C7   		movq	%rax, %rdi
 2370 0fa0 E8000000 		call	__cxa_begin_catch@PLT
 2370      00
 2371              	.LEHB110:
 2372 0fa5 E8000000 		call	_ZN8UnitTest11CurrentTest7ResultsEv@PLT
 2372      00
 2373 0faa 488B18   		movq	(%rax), %rbx
 2374 0fad E8000000 		call	_ZN8UnitTest11CurrentTest7DetailsEv@PLT
 2374      00
  91:testHexIO.cpp **** 	bufDestroy(&data);
 2375              		.loc 4 91 0 is_stmt 0 discriminator 8
 2376 0fb2 488B08   		movq	(%rax), %rcx
 2377 0fb5 488D45C0 		leaq	-64(%rbp), %rax
 2378 0fb9 BA5B0000 		movl	$91, %edx
 2378      00
 2379 0fbe 4889CE   		movq	%rcx, %rsi
 2380 0fc1 4889C7   		movq	%rax, %rdi
 2381 0fc4 E8000000 		call	_ZN8UnitTest11TestDetailsC1ERKS0_i@PLT
 2381      00
  91:testHexIO.cpp **** 	bufDestroy(&data);
 2382              		.loc 4 91 0 discriminator 12
 2383 0fc9 488D45C0 		leaq	-64(%rbp), %rax
 2384 0fcd 488D1500 		leaq	.LC21(%rip), %rdx
 2384      000000
 2385 0fd4 4889C6   		movq	%rax, %rsi
 2386 0fd7 4889DF   		movq	%rbx, %rdi
 2387 0fda E8000000 		call	_ZN8UnitTest11TestResults13OnTestFailureERKNS_11TestDetailsEPKc@PLT
 2387      00
 2388              	.LEHE110:
 2389              	.LEHB111:
  91:testHexIO.cpp **** 	bufDestroy(&data);
 2390              		.loc 4 91 0 discriminator 14
 2391 0fdf E8000000 		call	__cxa_end_catch@PLT
 2391      00
 2392              	.LEHE111:
 2393 0fe4 E92CFFFF 		jmp	.L151
 2393      FF
 2394              	.L159:
 2395 0fe9 4889C3   		movq	%rax, %rbx
  91:testHexIO.cpp **** 	bufDestroy(&data);
 2396              		.loc 4 91 0
 2397 0fec E8000000 		call	__cxa_end_catch@PLT
 2397      00
 2398 0ff1 4889D8   		movq	%rbx, %rax
 2399 0ff4 4889C7   		movq	%rax, %rdi
 2400              	.LEHB112:
 2401 0ff7 E8000000 		call	_Unwind_Resume@PLT
 2401      00
 2402              	.LEHE112:
 2403              	.L160:
 2404              		.loc 4 93 0 is_stmt 1
 2405 0ffc E8000000 		call	__stack_chk_fail@PLT
 2405      00
 2406              	.L153:
 2407 1001 488B5DF8 		movq	-8(%rbp), %rbx
 2408 1005 C9       		leave
 2409              		.cfi_def_cfa 7, 8
 2410 1006 C3       		ret
 2411              		.cfi_endproc
 2412              	.LFE1171:
 2413              		.section	.gcc_except_table
 2414              		.align 4
 2415              	.LLSDA1171:
 2416 023c FF       		.byte	0xff
 2417 023d 9B       		.byte	0x9b
 2418 023e 51       		.uleb128 .LLSDATT1171-.LLSDATTD1171
 2419              	.LLSDATTD1171:
 2420 023f 01       		.byte	0x1
 2421 0240 44       		.uleb128 .LLSDACSE1171-.LLSDACSB1171
 2422              	.LLSDACSB1171:
 2423 0241 4A       		.uleb128 .LEHB100-.LFB1171
 2424 0242 05       		.uleb128 .LEHE100-.LEHB100
 2425 0243 00       		.uleb128 0
 2426 0244 00       		.uleb128 0
 2427 0245 52       		.uleb128 .LEHB101-.LFB1171
 2428 0246 1C       		.uleb128 .LEHE101-.LEHB101
 2429 0247 AC02     		.uleb128 .L154-.LFB1171
 2430 0249 01       		.uleb128 0x1
 2431 024a 75       		.uleb128 .LEHB102-.LFB1171
 2432 024b 1C       		.uleb128 .LEHE102-.LEHB102
 2433 024c AA02     		.uleb128 .L155-.LFB1171
 2434 024e 03       		.uleb128 0x3
 2435 024f BA01     		.uleb128 .LEHB103-.LFB1171
 2436 0251 05       		.uleb128 .LEHE103-.LEHB103
 2437 0252 00       		.uleb128 0
 2438 0253 00       		.uleb128 0
 2439 0254 C601     		.uleb128 .LEHB104-.LFB1171
 2440 0256 1C       		.uleb128 .LEHE104-.LEHB104
 2441 0257 8D03     		.uleb128 .L157-.LFB1171
 2442 0259 01       		.uleb128 0x1
 2443 025a E901     		.uleb128 .LEHB105-.LFB1171
 2444 025c 1C       		.uleb128 .LEHE105-.LEHB105
 2445 025d 8B03     		.uleb128 .L158-.LFB1171
 2446 025f 03       		.uleb128 0x3
 2447 0260 8C02     		.uleb128 .LEHB106-.LFB1171
 2448 0262 05       		.uleb128 .LEHE106-.LEHB106
 2449 0263 00       		.uleb128 0
 2450 0264 00       		.uleb128 0
 2451 0265 B402     		.uleb128 .LEHB107-.LFB1171
 2452 0267 3A       		.uleb128 .LEHE107-.LEHB107
 2453 0268 F802     		.uleb128 .L156-.LFB1171
 2454 026a 00       		.uleb128 0
 2455 026b EE02     		.uleb128 .LEHB108-.LFB1171
 2456 026d 05       		.uleb128 .LEHE108-.LEHB108
 2457 026e 00       		.uleb128 0
 2458 026f 00       		.uleb128 0
 2459 0270 8603     		.uleb128 .LEHB109-.LFB1171
 2460 0272 05       		.uleb128 .LEHE109-.LEHB109
 2461 0273 00       		.uleb128 0
 2462 0274 00       		.uleb128 0
 2463 0275 9503     		.uleb128 .LEHB110-.LFB1171
 2464 0277 3A       		.uleb128 .LEHE110-.LEHB110
 2465 0278 D903     		.uleb128 .L159-.LFB1171
 2466 027a 00       		.uleb128 0
 2467 027b CF03     		.uleb128 .LEHB111-.LFB1171
 2468 027d 05       		.uleb128 .LEHE111-.LEHB111
 2469 027e 00       		.uleb128 0
 2470 027f 00       		.uleb128 0
 2471 0280 E703     		.uleb128 .LEHB112-.LFB1171
 2472 0282 05       		.uleb128 .LEHE112-.LEHB112
 2473 0283 00       		.uleb128 0
 2474 0284 00       		.uleb128 0
 2475              	.LLSDACSE1171:
 2476 0285 01       		.byte	0x1
 2477 0286 00       		.byte	0
 2478 0287 00       		.byte	0
 2479 0288 7D       		.byte	0x7d
 2480 0289 000000   		.align 4
 2481 028c 00000000 		.long	0
 2482              	
 2483              	.LLSDATT1171:
 2484              		.text
 2486              		.section	.rodata
 2487              	.LC22:
 2488 03a8 48657849 		.string	"HexIO_testJunkAddrMsb"
 2488      4F5F7465 
 2488      73744A75 
 2488      6E6B4164 
 2488      64724D73 
 2489              		.section	.text._ZN25TestHexIO_testJunkAddrMsbC2Ev,"axG",@progbits,_ZN25TestHexIO_testJunkAddrMsbC5
 2490              		.align 2
 2491              		.weak	_ZN25TestHexIO_testJunkAddrMsbC2Ev
 2493              	_ZN25TestHexIO_testJunkAddrMsbC2Ev:
 2494              	.LFB1173:
  94:testHexIO.cpp **** 
  95:testHexIO.cpp **** TEST(HexIO_testJunkAddrMsb) {
 2495              		.loc 4 95 0
 2496              		.cfi_startproc
 2497 0000 55       		pushq	%rbp
 2498              		.cfi_def_cfa_offset 16
 2499              		.cfi_offset 6, -16
 2500 0001 4889E5   		movq	%rsp, %rbp
 2501              		.cfi_def_cfa_register 6
 2502 0004 53       		pushq	%rbx
 2503 0005 4883EC18 		subq	$24, %rsp
 2504              		.cfi_offset 3, -24
 2505 0009 48897DE8 		movq	%rdi, -24(%rbp)
 2506              	.LBB8:
 2507              		.loc 4 95 0
 2508 000d 488B5DE8 		movq	-24(%rbp), %rbx
 2509 0011 E8000000 		call	_ZN13UnitTestSuite12GetSuiteNameEv
 2509      00
 2510 0016 41B85F00 		movl	$95, %r8d
 2510      0000
 2511 001c 488D0D00 		leaq	.LC1(%rip), %rcx
 2511      000000
 2512 0023 4889C2   		movq	%rax, %rdx
 2513 0026 488D3500 		leaq	.LC22(%rip), %rsi
 2513      000000
 2514 002d 4889DF   		movq	%rbx, %rdi
 2515 0030 E8000000 		call	_ZN8UnitTest4TestC2EPKcS2_S2_i@PLT
 2515      00
 2516 0035 488D1500 		leaq	16+_ZTV25TestHexIO_testJunkAddrMsb(%rip), %rdx
 2516      000000
 2517 003c 488B45E8 		movq	-24(%rbp), %rax
 2518 0040 488910   		movq	%rdx, (%rax)
 2519              	.LBE8:
 2520 0043 90       		nop
 2521 0044 4883C418 		addq	$24, %rsp
 2522 0048 5B       		popq	%rbx
 2523 0049 5D       		popq	%rbp
 2524              		.cfi_def_cfa 7, 8
 2525 004a C3       		ret
 2526              		.cfi_endproc
 2527              	.LFE1173:
 2529              		.weak	_ZN25TestHexIO_testJunkAddrMsbC1Ev
 2530              		.set	_ZN25TestHexIO_testJunkAddrMsbC1Ev,_ZN25TestHexIO_testJunkAddrMsbC2Ev
 2531              		.globl	testHexIO_testJunkAddrMsbInstance
 2532              		.bss
 2533 00f9 00000000 		.align 32
 2533      000000
 2536              	testHexIO_testJunkAddrMsbInstance:
 2537 0100 00000000 		.zero	56
 2537      00000000 
 2537      00000000 
 2537      00000000 
 2537      00000000 
 2538              		.globl	adderHexIO_testJunkAddrMsb
 2541              	adderHexIO_testJunkAddrMsb:
 2542 0138 00       		.zero	1
 2543              		.section	.rodata
 2544              	.LC23:
 2545 03be 3A30342E 		.string	":04..E10075820022F7\n"
 2545      2E453130 
 2545      30373538 
 2545      32303032 
 2545      3246370A 
 2546 03d3 00000000 		.align 8
 2546      00
 2547              	.LC24:
 2548 03d8 556E6861 		.string	"Unhandled exception in CHECK_EQUAL(HEX_JUNK_ADDR_MSB, status)"
 2548      6E646C65 
 2548      64206578 
 2548      63657074 
 2548      696F6E20 
 2549              		.text
 2550 1007 90       		.align 2
 2551              		.globl	_ZNK25TestHexIO_testJunkAddrMsb7RunImplEv
 2553              	_ZNK25TestHexIO_testJunkAddrMsb7RunImplEv:
 2554              	.LFB1175:
 2555              		.loc 4 95 0
 2556              		.cfi_startproc
 2557              		.cfi_personality 0x9b,DW.ref.__gxx_personality_v0
 2558              		.cfi_lsda 0x1b,.LLSDA1175
 2559 1008 55       		pushq	%rbp
 2560              		.cfi_def_cfa_offset 16
 2561              		.cfi_offset 6, -16
 2562 1009 4889E5   		movq	%rsp, %rbp
 2563              		.cfi_def_cfa_register 6
 2564 100c 53       		pushq	%rbx
 2565 100d 4881EC88 		subq	$136, %rsp
 2565      000000
 2566              		.cfi_offset 3, -24
 2567 1014 4889BD78 		movq	%rdi, -136(%rbp)
 2567      FFFFFF
 2568              		.loc 4 95 0
 2569 101b 64488B04 		movq	%fs:40, %rax
 2569      25280000 
 2569      00
 2570 1024 488945E8 		movq	%rax, -24(%rbp)
 2571 1028 31C0     		xorl	%eax, %eax
  96:testHexIO.cpp **** 	Buffer data;
  97:testHexIO.cpp **** 	BufferStatus status;
  98:testHexIO.cpp **** 	const char *line = ":04..E10075820022F7\n";
 2572              		.loc 4 98 0
 2573 102a 488D0500 		leaq	.LC23(%rip), %rax
 2573      000000
 2574 1031 48894598 		movq	%rax, -104(%rbp)
  99:testHexIO.cpp **** 	uint8 recordType;
 100:testHexIO.cpp **** 	uint32 seg = 0x00000000;
 2575              		.loc 4 100 0
 2576 1035 C7459000 		movl	$0, -112(%rbp)
 2576      000000
 101:testHexIO.cpp **** 	status = bufInitialise(&data, 1024, 0x00, NULL);
 2577              		.loc 4 101 0
 2578 103c 488D45A0 		leaq	-96(%rbp), %rax
 2579 1040 B9000000 		movl	$0, %ecx
 2579      00
 2580 1045 BA000000 		movl	$0, %edx
 2580      00
 2581 104a BE000400 		movl	$1024, %esi
 2581      00
 2582 104f 4889C7   		movq	%rax, %rdi
 2583              	.LEHB113:
 2584 1052 E8000000 		call	bufInitialise@PLT
 2584      00
 2585              	.LEHE113:
 2586 1057 89458C   		movl	%eax, -116(%rbp)
 2587              	.LEHB114:
 102:testHexIO.cpp **** 	CHECK_EQUAL(BUF_SUCCESS, status);
 2588              		.loc 4 102 0
 2589 105a E8000000 		call	_ZN8UnitTest11CurrentTest7DetailsEv@PLT
 2589      00
 2590 105f 488B08   		movq	(%rax), %rcx
 2591 1062 488D45C0 		leaq	-64(%rbp), %rax
 2592 1066 BA660000 		movl	$102, %edx
 2592      00
 2593 106b 4889CE   		movq	%rcx, %rsi
 2594 106e 4889C7   		movq	%rax, %rdi
 2595 1071 E8000000 		call	_ZN8UnitTest11TestDetailsC1ERKS0_i@PLT
 2595      00
 2596              	.LEHE114:
 2597              		.loc 4 102 0 is_stmt 0 discriminator 2
 2598 1076 C7459400 		movl	$0, -108(%rbp)
 2598      000000
 2599              	.LEHB115:
 2600 107d E8000000 		call	_ZN8UnitTest11CurrentTest7ResultsEv@PLT
 2600      00
 2601 1082 488B00   		movq	(%rax), %rax
 2602 1085 488D4DC0 		leaq	-64(%rbp), %rcx
 2603 1089 488D558C 		leaq	-116(%rbp), %rdx
 2604 108d 488D7594 		leaq	-108(%rbp), %rsi
 2605 1091 4889C7   		movq	%rax, %rdi
 2606 1094 E8000000 		call	_ZN8UnitTest10CheckEqualI12BufferStatusS1_EEvRNS_11TestResultsERKT_RKT0_RKNS_11TestDetailsE
 2606      00
 2607              	.LEHE115:
 2608              	.L165:
 103:testHexIO.cpp **** 	status = bufProcessLine(line, 0, &data, NULL, &seg, &recordType, NULL);
 2609              		.loc 4 103 0 is_stmt 1
 2610 1099 488D758B 		leaq	-117(%rbp), %rsi
 2611 109d 488D4D90 		leaq	-112(%rbp), %rcx
 2612 10a1 488D55A0 		leaq	-96(%rbp), %rdx
 2613 10a5 488B4598 		movq	-104(%rbp), %rax
 2614 10a9 4883EC08 		subq	$8, %rsp
 2615 10ad 6A00     		pushq	$0
 2616 10af 4989F1   		movq	%rsi, %r9
 2617 10b2 4989C8   		movq	%rcx, %r8
 2618 10b5 B9000000 		movl	$0, %ecx
 2618      00
 2619 10ba BE000000 		movl	$0, %esi
 2619      00
 2620 10bf 4889C7   		movq	%rax, %rdi
 2621              	.LEHB116:
 2622 10c2 E8000000 		call	bufProcessLine@PLT
 2622      00
 2623              	.LEHE116:
 2624 10c7 4883C410 		addq	$16, %rsp
 2625 10cb 89458C   		movl	%eax, -116(%rbp)
 2626              	.LEHB117:
 104:testHexIO.cpp **** 	CHECK_EQUAL(HEX_JUNK_ADDR_MSB, status);
 2627              		.loc 4 104 0
 2628 10ce E8000000 		call	_ZN8UnitTest11CurrentTest7DetailsEv@PLT
 2628      00
 2629 10d3 488B08   		movq	(%rax), %rcx
 2630 10d6 488D45C0 		leaq	-64(%rbp), %rax
 2631 10da BA680000 		movl	$104, %edx
 2631      00
 2632 10df 4889CE   		movq	%rcx, %rsi
 2633 10e2 4889C7   		movq	%rax, %rdi
 2634 10e5 E8000000 		call	_ZN8UnitTest11TestDetailsC1ERKS0_i@PLT
 2634      00
 2635              	.LEHE117:
 2636              		.loc 4 104 0 is_stmt 0 discriminator 2
 2637 10ea C745940A 		movl	$10, -108(%rbp)
 2637      000000
 2638              	.LEHB118:
 2639 10f1 E8000000 		call	_ZN8UnitTest11CurrentTest7ResultsEv@PLT
 2639      00
 2640 10f6 488B00   		movq	(%rax), %rax
 2641 10f9 488D4DC0 		leaq	-64(%rbp), %rcx
 2642 10fd 488D558C 		leaq	-116(%rbp), %rdx
 2643 1101 488D7594 		leaq	-108(%rbp), %rsi
 2644 1105 4889C7   		movq	%rax, %rdi
 2645 1108 E8000000 		call	_ZN8UnitTest10CheckEqualI12BufferStatusS1_EEvRNS_11TestResultsERKT_RKT0_RKNS_11TestDetailsE
 2645      00
 2646              	.LEHE118:
 2647              	.L169:
 105:testHexIO.cpp **** 	bufDestroy(&data);
 2648              		.loc 4 105 0 is_stmt 1
 2649 110d 488D45A0 		leaq	-96(%rbp), %rax
 2650 1111 4889C7   		movq	%rax, %rdi
 2651              	.LEHB119:
 2652 1114 E8000000 		call	bufDestroy@PLT
 2652      00
 2653              	.LEHE119:
 106:testHexIO.cpp **** }
 2654              		.loc 4 106 0
 2655 1119 90       		nop
 2656 111a 488B45E8 		movq	-24(%rbp), %rax
 2657 111e 64483304 		xorq	%fs:40, %rax
 2657      25280000 
 2657      00
 2658 1127 0F84CC00 		je	.L171
 2658      0000
 2659 112d E9C20000 		jmp	.L178
 2659      00
 2660              	.L173:
 2661 1132 EB00     		jmp	.L164
 2662              	.L172:
 2663              	.L164:
 102:testHexIO.cpp **** 	status = bufProcessLine(line, 0, &data, NULL, &seg, &recordType, NULL);
 2664              		.loc 4 102 0
 2665 1134 4889C7   		movq	%rax, %rdi
 2666 1137 E8000000 		call	__cxa_begin_catch@PLT
 2666      00
 2667              	.LEHB120:
 2668 113c E8000000 		call	_ZN8UnitTest11CurrentTest7ResultsEv@PLT
 2668      00
 2669 1141 488B18   		movq	(%rax), %rbx
 2670 1144 E8000000 		call	_ZN8UnitTest11CurrentTest7DetailsEv@PLT
 2670      00
 102:testHexIO.cpp **** 	status = bufProcessLine(line, 0, &data, NULL, &seg, &recordType, NULL);
 2671              		.loc 4 102 0 is_stmt 0 discriminator 8
 2672 1149 488B08   		movq	(%rax), %rcx
 2673 114c 488D45C0 		leaq	-64(%rbp), %rax
 2674 1150 BA660000 		movl	$102, %edx
 2674      00
 2675 1155 4889CE   		movq	%rcx, %rsi
 2676 1158 4889C7   		movq	%rax, %rdi
 2677 115b E8000000 		call	_ZN8UnitTest11TestDetailsC1ERKS0_i@PLT
 2677      00
 102:testHexIO.cpp **** 	status = bufProcessLine(line, 0, &data, NULL, &seg, &recordType, NULL);
 2678              		.loc 4 102 0 discriminator 12
 2679 1160 488D45C0 		leaq	-64(%rbp), %rax
 2680 1164 488D1500 		leaq	.LC4(%rip), %rdx
 2680      000000
 2681 116b 4889C6   		movq	%rax, %rsi
 2682 116e 4889DF   		movq	%rbx, %rdi
 2683 1171 E8000000 		call	_ZN8UnitTest11TestResults13OnTestFailureERKNS_11TestDetailsEPKc@PLT
 2683      00
 2684              	.LEHE120:
 2685              	.LEHB121:
 102:testHexIO.cpp **** 	status = bufProcessLine(line, 0, &data, NULL, &seg, &recordType, NULL);
 2686              		.loc 4 102 0 discriminator 14
 2687 1176 E8000000 		call	__cxa_end_catch@PLT
 2687      00
 2688              	.LEHE121:
 2689 117b E919FFFF 		jmp	.L165
 2689      FF
 2690              	.L174:
 2691 1180 4889C3   		movq	%rax, %rbx
 102:testHexIO.cpp **** 	status = bufProcessLine(line, 0, &data, NULL, &seg, &recordType, NULL);
 2692              		.loc 4 102 0
 2693 1183 E8000000 		call	__cxa_end_catch@PLT
 2693      00
 2694 1188 4889D8   		movq	%rbx, %rax
 2695 118b 4889C7   		movq	%rax, %rdi
 2696              	.LEHB122:
 2697 118e E8000000 		call	_Unwind_Resume@PLT
 2697      00
 2698              	.LEHE122:
 2699              	.L176:
 2700 1193 EB00     		jmp	.L168
 2701              	.L175:
 2702              	.L168:
 104:testHexIO.cpp **** 	bufDestroy(&data);
 2703              		.loc 4 104 0 is_stmt 1
 2704 1195 4889C7   		movq	%rax, %rdi
 2705 1198 E8000000 		call	__cxa_begin_catch@PLT
 2705      00
 2706              	.LEHB123:
 2707 119d E8000000 		call	_ZN8UnitTest11CurrentTest7ResultsEv@PLT
 2707      00
 2708 11a2 488B18   		movq	(%rax), %rbx
 2709 11a5 E8000000 		call	_ZN8UnitTest11CurrentTest7DetailsEv@PLT
 2709      00
 104:testHexIO.cpp **** 	bufDestroy(&data);
 2710              		.loc 4 104 0 is_stmt 0 discriminator 8
 2711 11aa 488B08   		movq	(%rax), %rcx
 2712 11ad 488D45C0 		leaq	-64(%rbp), %rax
 2713 11b1 BA680000 		movl	$104, %edx
 2713      00
 2714 11b6 4889CE   		movq	%rcx, %rsi
 2715 11b9 4889C7   		movq	%rax, %rdi
 2716 11bc E8000000 		call	_ZN8UnitTest11TestDetailsC1ERKS0_i@PLT
 2716      00
 104:testHexIO.cpp **** 	bufDestroy(&data);
 2717              		.loc 4 104 0 discriminator 12
 2718 11c1 488D45C0 		leaq	-64(%rbp), %rax
 2719 11c5 488D1500 		leaq	.LC24(%rip), %rdx
 2719      000000
 2720 11cc 4889C6   		movq	%rax, %rsi
 2721 11cf 4889DF   		movq	%rbx, %rdi
 2722 11d2 E8000000 		call	_ZN8UnitTest11TestResults13OnTestFailureERKNS_11TestDetailsEPKc@PLT
 2722      00
 2723              	.LEHE123:
 2724              	.LEHB124:
 104:testHexIO.cpp **** 	bufDestroy(&data);
 2725              		.loc 4 104 0 discriminator 14
 2726 11d7 E8000000 		call	__cxa_end_catch@PLT
 2726      00
 2727              	.LEHE124:
 2728 11dc E92CFFFF 		jmp	.L169
 2728      FF
 2729              	.L177:
 2730 11e1 4889C3   		movq	%rax, %rbx
 104:testHexIO.cpp **** 	bufDestroy(&data);
 2731              		.loc 4 104 0
 2732 11e4 E8000000 		call	__cxa_end_catch@PLT
 2732      00
 2733 11e9 4889D8   		movq	%rbx, %rax
 2734 11ec 4889C7   		movq	%rax, %rdi
 2735              	.LEHB125:
 2736 11ef E8000000 		call	_Unwind_Resume@PLT
 2736      00
 2737              	.LEHE125:
 2738              	.L178:
 2739              		.loc 4 106 0 is_stmt 1
 2740 11f4 E8000000 		call	__stack_chk_fail@PLT
 2740      00
 2741              	.L171:
 2742 11f9 488B5DF8 		movq	-8(%rbp), %rbx
 2743 11fd C9       		leave
 2744              		.cfi_def_cfa 7, 8
 2745 11fe C3       		ret
 2746              		.cfi_endproc
 2747              	.LFE1175:
 2748              		.section	.gcc_except_table
 2749              		.align 4
 2750              	.LLSDA1175:
 2751 0290 FF       		.byte	0xff
 2752 0291 9B       		.byte	0x9b
 2753 0292 51       		.uleb128 .LLSDATT1175-.LLSDATTD1175
 2754              	.LLSDATTD1175:
 2755 0293 01       		.byte	0x1
 2756 0294 44       		.uleb128 .LLSDACSE1175-.LLSDACSB1175
 2757              	.LLSDACSB1175:
 2758 0295 4A       		.uleb128 .LEHB113-.LFB1175
 2759 0296 05       		.uleb128 .LEHE113-.LEHB113
 2760 0297 00       		.uleb128 0
 2761 0298 00       		.uleb128 0
 2762 0299 52       		.uleb128 .LEHB114-.LFB1175
 2763 029a 1C       		.uleb128 .LEHE114-.LEHB114
 2764 029b AC02     		.uleb128 .L172-.LFB1175
 2765 029d 01       		.uleb128 0x1
 2766 029e 75       		.uleb128 .LEHB115-.LFB1175
 2767 029f 1C       		.uleb128 .LEHE115-.LEHB115
 2768 02a0 AA02     		.uleb128 .L173-.LFB1175
 2769 02a2 03       		.uleb128 0x3
 2770 02a3 BA01     		.uleb128 .LEHB116-.LFB1175
 2771 02a5 05       		.uleb128 .LEHE116-.LEHB116
 2772 02a6 00       		.uleb128 0
 2773 02a7 00       		.uleb128 0
 2774 02a8 C601     		.uleb128 .LEHB117-.LFB1175
 2775 02aa 1C       		.uleb128 .LEHE117-.LEHB117
 2776 02ab 8D03     		.uleb128 .L175-.LFB1175
 2777 02ad 01       		.uleb128 0x1
 2778 02ae E901     		.uleb128 .LEHB118-.LFB1175
 2779 02b0 1C       		.uleb128 .LEHE118-.LEHB118
 2780 02b1 8B03     		.uleb128 .L176-.LFB1175
 2781 02b3 03       		.uleb128 0x3
 2782 02b4 8C02     		.uleb128 .LEHB119-.LFB1175
 2783 02b6 05       		.uleb128 .LEHE119-.LEHB119
 2784 02b7 00       		.uleb128 0
 2785 02b8 00       		.uleb128 0
 2786 02b9 B402     		.uleb128 .LEHB120-.LFB1175
 2787 02bb 3A       		.uleb128 .LEHE120-.LEHB120
 2788 02bc F802     		.uleb128 .L174-.LFB1175
 2789 02be 00       		.uleb128 0
 2790 02bf EE02     		.uleb128 .LEHB121-.LFB1175
 2791 02c1 05       		.uleb128 .LEHE121-.LEHB121
 2792 02c2 00       		.uleb128 0
 2793 02c3 00       		.uleb128 0
 2794 02c4 8603     		.uleb128 .LEHB122-.LFB1175
 2795 02c6 05       		.uleb128 .LEHE122-.LEHB122
 2796 02c7 00       		.uleb128 0
 2797 02c8 00       		.uleb128 0
 2798 02c9 9503     		.uleb128 .LEHB123-.LFB1175
 2799 02cb 3A       		.uleb128 .LEHE123-.LEHB123
 2800 02cc D903     		.uleb128 .L177-.LFB1175
 2801 02ce 00       		.uleb128 0
 2802 02cf CF03     		.uleb128 .LEHB124-.LFB1175
 2803 02d1 05       		.uleb128 .LEHE124-.LEHB124
 2804 02d2 00       		.uleb128 0
 2805 02d3 00       		.uleb128 0
 2806 02d4 E703     		.uleb128 .LEHB125-.LFB1175
 2807 02d6 05       		.uleb128 .LEHE125-.LEHB125
 2808 02d7 00       		.uleb128 0
 2809 02d8 00       		.uleb128 0
 2810              	.LLSDACSE1175:
 2811 02d9 01       		.byte	0x1
 2812 02da 00       		.byte	0
 2813 02db 00       		.byte	0
 2814 02dc 7D       		.byte	0x7d
 2815 02dd 000000   		.align 4
 2816 02e0 00000000 		.long	0
 2817              	
 2818              	.LLSDATT1175:
 2819              		.text
 2821              		.section	.rodata
 2822              	.LC25:
 2823 0416 48657849 		.string	"HexIO_testJunkAddrLsb"
 2823      4F5F7465 
 2823      73744A75 
 2823      6E6B4164 
 2823      64724C73 
 2824              		.section	.text._ZN25TestHexIO_testJunkAddrLsbC2Ev,"axG",@progbits,_ZN25TestHexIO_testJunkAddrLsbC5
 2825              		.align 2
 2826              		.weak	_ZN25TestHexIO_testJunkAddrLsbC2Ev
 2828              	_ZN25TestHexIO_testJunkAddrLsbC2Ev:
 2829              	.LFB1177:
 107:testHexIO.cpp **** 
 108:testHexIO.cpp **** TEST(HexIO_testJunkAddrLsb) {
 2830              		.loc 4 108 0
 2831              		.cfi_startproc
 2832 0000 55       		pushq	%rbp
 2833              		.cfi_def_cfa_offset 16
 2834              		.cfi_offset 6, -16
 2835 0001 4889E5   		movq	%rsp, %rbp
 2836              		.cfi_def_cfa_register 6
 2837 0004 53       		pushq	%rbx
 2838 0005 4883EC18 		subq	$24, %rsp
 2839              		.cfi_offset 3, -24
 2840 0009 48897DE8 		movq	%rdi, -24(%rbp)
 2841              	.LBB9:
 2842              		.loc 4 108 0
 2843 000d 488B5DE8 		movq	-24(%rbp), %rbx
 2844 0011 E8000000 		call	_ZN13UnitTestSuite12GetSuiteNameEv
 2844      00
 2845 0016 41B86C00 		movl	$108, %r8d
 2845      0000
 2846 001c 488D0D00 		leaq	.LC1(%rip), %rcx
 2846      000000
 2847 0023 4889C2   		movq	%rax, %rdx
 2848 0026 488D3500 		leaq	.LC25(%rip), %rsi
 2848      000000
 2849 002d 4889DF   		movq	%rbx, %rdi
 2850 0030 E8000000 		call	_ZN8UnitTest4TestC2EPKcS2_S2_i@PLT
 2850      00
 2851 0035 488D1500 		leaq	16+_ZTV25TestHexIO_testJunkAddrLsb(%rip), %rdx
 2851      000000
 2852 003c 488B45E8 		movq	-24(%rbp), %rax
 2853 0040 488910   		movq	%rdx, (%rax)
 2854              	.LBE9:
 2855 0043 90       		nop
 2856 0044 4883C418 		addq	$24, %rsp
 2857 0048 5B       		popq	%rbx
 2858 0049 5D       		popq	%rbp
 2859              		.cfi_def_cfa 7, 8
 2860 004a C3       		ret
 2861              		.cfi_endproc
 2862              	.LFE1177:
 2864              		.weak	_ZN25TestHexIO_testJunkAddrLsbC1Ev
 2865              		.set	_ZN25TestHexIO_testJunkAddrLsbC1Ev,_ZN25TestHexIO_testJunkAddrLsbC2Ev
 2866              		.globl	testHexIO_testJunkAddrLsbInstance
 2867              		.bss
 2868 0139 00000000 		.align 32
 2868      000000
 2871              	testHexIO_testJunkAddrLsbInstance:
 2872 0140 00000000 		.zero	56
 2872      00000000 
 2872      00000000 
 2872      00000000 
 2872      00000000 
 2873              		.globl	adderHexIO_testJunkAddrLsb
 2876              	adderHexIO_testJunkAddrLsb:
 2877 0178 00       		.zero	1
 2878              		.section	.rodata
 2879              	.LC26:
 2880 042c 3A303430 		.string	":040B..0075820022F7\n"
 2880      422E2E30 
 2880      30373538 
 2880      32303032 
 2880      3246370A 
 2881 0441 00000000 		.align 8
 2881      000000
 2882              	.LC27:
 2883 0448 556E6861 		.string	"Unhandled exception in CHECK_EQUAL(HEX_JUNK_ADDR_LSB, status)"
 2883      6E646C65 
 2883      64206578 
 2883      63657074 
 2883      696F6E20 
 2884              		.text
 2885 11ff 90       		.align 2
 2886              		.globl	_ZNK25TestHexIO_testJunkAddrLsb7RunImplEv
 2888              	_ZNK25TestHexIO_testJunkAddrLsb7RunImplEv:
 2889              	.LFB1179:
 2890              		.loc 4 108 0
 2891              		.cfi_startproc
 2892              		.cfi_personality 0x9b,DW.ref.__gxx_personality_v0
 2893              		.cfi_lsda 0x1b,.LLSDA1179
 2894 1200 55       		pushq	%rbp
 2895              		.cfi_def_cfa_offset 16
 2896              		.cfi_offset 6, -16
 2897 1201 4889E5   		movq	%rsp, %rbp
 2898              		.cfi_def_cfa_register 6
 2899 1204 53       		pushq	%rbx
 2900 1205 4881EC88 		subq	$136, %rsp
 2900      000000
 2901              		.cfi_offset 3, -24
 2902 120c 4889BD78 		movq	%rdi, -136(%rbp)
 2902      FFFFFF
 2903              		.loc 4 108 0
 2904 1213 64488B04 		movq	%fs:40, %rax
 2904      25280000 
 2904      00
 2905 121c 488945E8 		movq	%rax, -24(%rbp)
 2906 1220 31C0     		xorl	%eax, %eax
 109:testHexIO.cpp **** 	Buffer data;
 110:testHexIO.cpp **** 	BufferStatus status;
 111:testHexIO.cpp **** 	const char *line = ":040B..0075820022F7\n";
 2907              		.loc 4 111 0
 2908 1222 488D0500 		leaq	.LC26(%rip), %rax
 2908      000000
 2909 1229 48894598 		movq	%rax, -104(%rbp)
 112:testHexIO.cpp **** 	uint8 recordType;
 113:testHexIO.cpp **** 	uint32 seg = 0x00000000;
 2910              		.loc 4 113 0
 2911 122d C7459000 		movl	$0, -112(%rbp)
 2911      000000
 114:testHexIO.cpp **** 	status = bufInitialise(&data, 1024, 0x00, NULL);
 2912              		.loc 4 114 0
 2913 1234 488D45A0 		leaq	-96(%rbp), %rax
 2914 1238 B9000000 		movl	$0, %ecx
 2914      00
 2915 123d BA000000 		movl	$0, %edx
 2915      00
 2916 1242 BE000400 		movl	$1024, %esi
 2916      00
 2917 1247 4889C7   		movq	%rax, %rdi
 2918              	.LEHB126:
 2919 124a E8000000 		call	bufInitialise@PLT
 2919      00
 2920              	.LEHE126:
 2921 124f 89458C   		movl	%eax, -116(%rbp)
 2922              	.LEHB127:
 115:testHexIO.cpp **** 	CHECK_EQUAL(BUF_SUCCESS, status);
 2923              		.loc 4 115 0
 2924 1252 E8000000 		call	_ZN8UnitTest11CurrentTest7DetailsEv@PLT
 2924      00
 2925 1257 488B08   		movq	(%rax), %rcx
 2926 125a 488D45C0 		leaq	-64(%rbp), %rax
 2927 125e BA730000 		movl	$115, %edx
 2927      00
 2928 1263 4889CE   		movq	%rcx, %rsi
 2929 1266 4889C7   		movq	%rax, %rdi
 2930 1269 E8000000 		call	_ZN8UnitTest11TestDetailsC1ERKS0_i@PLT
 2930      00
 2931              	.LEHE127:
 2932              		.loc 4 115 0 is_stmt 0 discriminator 2
 2933 126e C7459400 		movl	$0, -108(%rbp)
 2933      000000
 2934              	.LEHB128:
 2935 1275 E8000000 		call	_ZN8UnitTest11CurrentTest7ResultsEv@PLT
 2935      00
 2936 127a 488B00   		movq	(%rax), %rax
 2937 127d 488D4DC0 		leaq	-64(%rbp), %rcx
 2938 1281 488D558C 		leaq	-116(%rbp), %rdx
 2939 1285 488D7594 		leaq	-108(%rbp), %rsi
 2940 1289 4889C7   		movq	%rax, %rdi
 2941 128c E8000000 		call	_ZN8UnitTest10CheckEqualI12BufferStatusS1_EEvRNS_11TestResultsERKT_RKT0_RKNS_11TestDetailsE
 2941      00
 2942              	.LEHE128:
 2943              	.L183:
 116:testHexIO.cpp **** 	status = bufProcessLine(line, 0, &data, NULL, &seg, &recordType, NULL);
 2944              		.loc 4 116 0 is_stmt 1
 2945 1291 488D758B 		leaq	-117(%rbp), %rsi
 2946 1295 488D4D90 		leaq	-112(%rbp), %rcx
 2947 1299 488D55A0 		leaq	-96(%rbp), %rdx
 2948 129d 488B4598 		movq	-104(%rbp), %rax
 2949 12a1 4883EC08 		subq	$8, %rsp
 2950 12a5 6A00     		pushq	$0
 2951 12a7 4989F1   		movq	%rsi, %r9
 2952 12aa 4989C8   		movq	%rcx, %r8
 2953 12ad B9000000 		movl	$0, %ecx
 2953      00
 2954 12b2 BE000000 		movl	$0, %esi
 2954      00
 2955 12b7 4889C7   		movq	%rax, %rdi
 2956              	.LEHB129:
 2957 12ba E8000000 		call	bufProcessLine@PLT
 2957      00
 2958              	.LEHE129:
 2959 12bf 4883C410 		addq	$16, %rsp
 2960 12c3 89458C   		movl	%eax, -116(%rbp)
 2961              	.LEHB130:
 117:testHexIO.cpp **** 	CHECK_EQUAL(HEX_JUNK_ADDR_LSB, status);
 2962              		.loc 4 117 0
 2963 12c6 E8000000 		call	_ZN8UnitTest11CurrentTest7DetailsEv@PLT
 2963      00
 2964 12cb 488B08   		movq	(%rax), %rcx
 2965 12ce 488D45C0 		leaq	-64(%rbp), %rax
 2966 12d2 BA750000 		movl	$117, %edx
 2966      00
 2967 12d7 4889CE   		movq	%rcx, %rsi
 2968 12da 4889C7   		movq	%rax, %rdi
 2969 12dd E8000000 		call	_ZN8UnitTest11TestDetailsC1ERKS0_i@PLT
 2969      00
 2970              	.LEHE130:
 2971              		.loc 4 117 0 is_stmt 0 discriminator 2
 2972 12e2 C745940B 		movl	$11, -108(%rbp)
 2972      000000
 2973              	.LEHB131:
 2974 12e9 E8000000 		call	_ZN8UnitTest11CurrentTest7ResultsEv@PLT
 2974      00
 2975 12ee 488B00   		movq	(%rax), %rax
 2976 12f1 488D4DC0 		leaq	-64(%rbp), %rcx
 2977 12f5 488D558C 		leaq	-116(%rbp), %rdx
 2978 12f9 488D7594 		leaq	-108(%rbp), %rsi
 2979 12fd 4889C7   		movq	%rax, %rdi
 2980 1300 E8000000 		call	_ZN8UnitTest10CheckEqualI12BufferStatusS1_EEvRNS_11TestResultsERKT_RKT0_RKNS_11TestDetailsE
 2980      00
 2981              	.LEHE131:
 2982              	.L187:
 118:testHexIO.cpp **** 	bufDestroy(&data);
 2983              		.loc 4 118 0 is_stmt 1
 2984 1305 488D45A0 		leaq	-96(%rbp), %rax
 2985 1309 4889C7   		movq	%rax, %rdi
 2986              	.LEHB132:
 2987 130c E8000000 		call	bufDestroy@PLT
 2987      00
 2988              	.LEHE132:
 119:testHexIO.cpp **** }
 2989              		.loc 4 119 0
 2990 1311 90       		nop
 2991 1312 488B45E8 		movq	-24(%rbp), %rax
 2992 1316 64483304 		xorq	%fs:40, %rax
 2992      25280000 
 2992      00
 2993 131f 0F84CC00 		je	.L189
 2993      0000
 2994 1325 E9C20000 		jmp	.L196
 2994      00
 2995              	.L191:
 2996 132a EB00     		jmp	.L182
 2997              	.L190:
 2998              	.L182:
 115:testHexIO.cpp **** 	status = bufProcessLine(line, 0, &data, NULL, &seg, &recordType, NULL);
 2999              		.loc 4 115 0
 3000 132c 4889C7   		movq	%rax, %rdi
 3001 132f E8000000 		call	__cxa_begin_catch@PLT
 3001      00
 3002              	.LEHB133:
 3003 1334 E8000000 		call	_ZN8UnitTest11CurrentTest7ResultsEv@PLT
 3003      00
 3004 1339 488B18   		movq	(%rax), %rbx
 3005 133c E8000000 		call	_ZN8UnitTest11CurrentTest7DetailsEv@PLT
 3005      00
 115:testHexIO.cpp **** 	status = bufProcessLine(line, 0, &data, NULL, &seg, &recordType, NULL);
 3006              		.loc 4 115 0 is_stmt 0 discriminator 8
 3007 1341 488B08   		movq	(%rax), %rcx
 3008 1344 488D45C0 		leaq	-64(%rbp), %rax
 3009 1348 BA730000 		movl	$115, %edx
 3009      00
 3010 134d 4889CE   		movq	%rcx, %rsi
 3011 1350 4889C7   		movq	%rax, %rdi
 3012 1353 E8000000 		call	_ZN8UnitTest11TestDetailsC1ERKS0_i@PLT
 3012      00
 115:testHexIO.cpp **** 	status = bufProcessLine(line, 0, &data, NULL, &seg, &recordType, NULL);
 3013              		.loc 4 115 0 discriminator 12
 3014 1358 488D45C0 		leaq	-64(%rbp), %rax
 3015 135c 488D1500 		leaq	.LC4(%rip), %rdx
 3015      000000
 3016 1363 4889C6   		movq	%rax, %rsi
 3017 1366 4889DF   		movq	%rbx, %rdi
 3018 1369 E8000000 		call	_ZN8UnitTest11TestResults13OnTestFailureERKNS_11TestDetailsEPKc@PLT
 3018      00
 3019              	.LEHE133:
 3020              	.LEHB134:
 115:testHexIO.cpp **** 	status = bufProcessLine(line, 0, &data, NULL, &seg, &recordType, NULL);
 3021              		.loc 4 115 0 discriminator 14
 3022 136e E8000000 		call	__cxa_end_catch@PLT
 3022      00
 3023              	.LEHE134:
 3024 1373 E919FFFF 		jmp	.L183
 3024      FF
 3025              	.L192:
 3026 1378 4889C3   		movq	%rax, %rbx
 115:testHexIO.cpp **** 	status = bufProcessLine(line, 0, &data, NULL, &seg, &recordType, NULL);
 3027              		.loc 4 115 0
 3028 137b E8000000 		call	__cxa_end_catch@PLT
 3028      00
 3029 1380 4889D8   		movq	%rbx, %rax
 3030 1383 4889C7   		movq	%rax, %rdi
 3031              	.LEHB135:
 3032 1386 E8000000 		call	_Unwind_Resume@PLT
 3032      00
 3033              	.LEHE135:
 3034              	.L194:
 3035 138b EB00     		jmp	.L186
 3036              	.L193:
 3037              	.L186:
 117:testHexIO.cpp **** 	bufDestroy(&data);
 3038              		.loc 4 117 0 is_stmt 1
 3039 138d 4889C7   		movq	%rax, %rdi
 3040 1390 E8000000 		call	__cxa_begin_catch@PLT
 3040      00
 3041              	.LEHB136:
 3042 1395 E8000000 		call	_ZN8UnitTest11CurrentTest7ResultsEv@PLT
 3042      00
 3043 139a 488B18   		movq	(%rax), %rbx
 3044 139d E8000000 		call	_ZN8UnitTest11CurrentTest7DetailsEv@PLT
 3044      00
 117:testHexIO.cpp **** 	bufDestroy(&data);
 3045              		.loc 4 117 0 is_stmt 0 discriminator 8
 3046 13a2 488B08   		movq	(%rax), %rcx
 3047 13a5 488D45C0 		leaq	-64(%rbp), %rax
 3048 13a9 BA750000 		movl	$117, %edx
 3048      00
 3049 13ae 4889CE   		movq	%rcx, %rsi
 3050 13b1 4889C7   		movq	%rax, %rdi
 3051 13b4 E8000000 		call	_ZN8UnitTest11TestDetailsC1ERKS0_i@PLT
 3051      00
 117:testHexIO.cpp **** 	bufDestroy(&data);
 3052              		.loc 4 117 0 discriminator 12
 3053 13b9 488D45C0 		leaq	-64(%rbp), %rax
 3054 13bd 488D1500 		leaq	.LC27(%rip), %rdx
 3054      000000
 3055 13c4 4889C6   		movq	%rax, %rsi
 3056 13c7 4889DF   		movq	%rbx, %rdi
 3057 13ca E8000000 		call	_ZN8UnitTest11TestResults13OnTestFailureERKNS_11TestDetailsEPKc@PLT
 3057      00
 3058              	.LEHE136:
 3059              	.LEHB137:
 117:testHexIO.cpp **** 	bufDestroy(&data);
 3060              		.loc 4 117 0 discriminator 14
 3061 13cf E8000000 		call	__cxa_end_catch@PLT
 3061      00
 3062              	.LEHE137:
 3063 13d4 E92CFFFF 		jmp	.L187
 3063      FF
 3064              	.L195:
 3065 13d9 4889C3   		movq	%rax, %rbx
 117:testHexIO.cpp **** 	bufDestroy(&data);
 3066              		.loc 4 117 0
 3067 13dc E8000000 		call	__cxa_end_catch@PLT
 3067      00
 3068 13e1 4889D8   		movq	%rbx, %rax
 3069 13e4 4889C7   		movq	%rax, %rdi
 3070              	.LEHB138:
 3071 13e7 E8000000 		call	_Unwind_Resume@PLT
 3071      00
 3072              	.LEHE138:
 3073              	.L196:
 3074              		.loc 4 119 0 is_stmt 1
 3075 13ec E8000000 		call	__stack_chk_fail@PLT
 3075      00
 3076              	.L189:
 3077 13f1 488B5DF8 		movq	-8(%rbp), %rbx
 3078 13f5 C9       		leave
 3079              		.cfi_def_cfa 7, 8
 3080 13f6 C3       		ret
 3081              		.cfi_endproc
 3082              	.LFE1179:
 3083              		.section	.gcc_except_table
 3084              		.align 4
 3085              	.LLSDA1179:
 3086 02e4 FF       		.byte	0xff
 3087 02e5 9B       		.byte	0x9b
 3088 02e6 51       		.uleb128 .LLSDATT1179-.LLSDATTD1179
 3089              	.LLSDATTD1179:
 3090 02e7 01       		.byte	0x1
 3091 02e8 44       		.uleb128 .LLSDACSE1179-.LLSDACSB1179
 3092              	.LLSDACSB1179:
 3093 02e9 4A       		.uleb128 .LEHB126-.LFB1179
 3094 02ea 05       		.uleb128 .LEHE126-.LEHB126
 3095 02eb 00       		.uleb128 0
 3096 02ec 00       		.uleb128 0
 3097 02ed 52       		.uleb128 .LEHB127-.LFB1179
 3098 02ee 1C       		.uleb128 .LEHE127-.LEHB127
 3099 02ef AC02     		.uleb128 .L190-.LFB1179
 3100 02f1 01       		.uleb128 0x1
 3101 02f2 75       		.uleb128 .LEHB128-.LFB1179
 3102 02f3 1C       		.uleb128 .LEHE128-.LEHB128
 3103 02f4 AA02     		.uleb128 .L191-.LFB1179
 3104 02f6 03       		.uleb128 0x3
 3105 02f7 BA01     		.uleb128 .LEHB129-.LFB1179
 3106 02f9 05       		.uleb128 .LEHE129-.LEHB129
 3107 02fa 00       		.uleb128 0
 3108 02fb 00       		.uleb128 0
 3109 02fc C601     		.uleb128 .LEHB130-.LFB1179
 3110 02fe 1C       		.uleb128 .LEHE130-.LEHB130
 3111 02ff 8D03     		.uleb128 .L193-.LFB1179
 3112 0301 01       		.uleb128 0x1
 3113 0302 E901     		.uleb128 .LEHB131-.LFB1179
 3114 0304 1C       		.uleb128 .LEHE131-.LEHB131
 3115 0305 8B03     		.uleb128 .L194-.LFB1179
 3116 0307 03       		.uleb128 0x3
 3117 0308 8C02     		.uleb128 .LEHB132-.LFB1179
 3118 030a 05       		.uleb128 .LEHE132-.LEHB132
 3119 030b 00       		.uleb128 0
 3120 030c 00       		.uleb128 0
 3121 030d B402     		.uleb128 .LEHB133-.LFB1179
 3122 030f 3A       		.uleb128 .LEHE133-.LEHB133
 3123 0310 F802     		.uleb128 .L192-.LFB1179
 3124 0312 00       		.uleb128 0
 3125 0313 EE02     		.uleb128 .LEHB134-.LFB1179
 3126 0315 05       		.uleb128 .LEHE134-.LEHB134
 3127 0316 00       		.uleb128 0
 3128 0317 00       		.uleb128 0
 3129 0318 8603     		.uleb128 .LEHB135-.LFB1179
 3130 031a 05       		.uleb128 .LEHE135-.LEHB135
 3131 031b 00       		.uleb128 0
 3132 031c 00       		.uleb128 0
 3133 031d 9503     		.uleb128 .LEHB136-.LFB1179
 3134 031f 3A       		.uleb128 .LEHE136-.LEHB136
 3135 0320 D903     		.uleb128 .L195-.LFB1179
 3136 0322 00       		.uleb128 0
 3137 0323 CF03     		.uleb128 .LEHB137-.LFB1179
 3138 0325 05       		.uleb128 .LEHE137-.LEHB137
 3139 0326 00       		.uleb128 0
 3140 0327 00       		.uleb128 0
 3141 0328 E703     		.uleb128 .LEHB138-.LFB1179
 3142 032a 05       		.uleb128 .LEHE138-.LEHB138
 3143 032b 00       		.uleb128 0
 3144 032c 00       		.uleb128 0
 3145              	.LLSDACSE1179:
 3146 032d 01       		.byte	0x1
 3147 032e 00       		.byte	0
 3148 032f 00       		.byte	0
 3149 0330 7D       		.byte	0x7d
 3150 0331 000000   		.align 4
 3151 0334 00000000 		.long	0
 3152              	
 3153              	.LLSDATT1179:
 3154              		.text
 3156              		.section	.rodata
 3157              	.LC28:
 3158 0486 48657849 		.string	"HexIO_testJunkRecType"
 3158      4F5F7465 
 3158      73744A75 
 3158      6E6B5265 
 3158      63547970 
 3159              		.section	.text._ZN25TestHexIO_testJunkRecTypeC2Ev,"axG",@progbits,_ZN25TestHexIO_testJunkRecTypeC5
 3160              		.align 2
 3161              		.weak	_ZN25TestHexIO_testJunkRecTypeC2Ev
 3163              	_ZN25TestHexIO_testJunkRecTypeC2Ev:
 3164              	.LFB1181:
 120:testHexIO.cpp **** 
 121:testHexIO.cpp **** TEST(HexIO_testJunkRecType) {
 3165              		.loc 4 121 0
 3166              		.cfi_startproc
 3167 0000 55       		pushq	%rbp
 3168              		.cfi_def_cfa_offset 16
 3169              		.cfi_offset 6, -16
 3170 0001 4889E5   		movq	%rsp, %rbp
 3171              		.cfi_def_cfa_register 6
 3172 0004 53       		pushq	%rbx
 3173 0005 4883EC18 		subq	$24, %rsp
 3174              		.cfi_offset 3, -24
 3175 0009 48897DE8 		movq	%rdi, -24(%rbp)
 3176              	.LBB10:
 3177              		.loc 4 121 0
 3178 000d 488B5DE8 		movq	-24(%rbp), %rbx
 3179 0011 E8000000 		call	_ZN13UnitTestSuite12GetSuiteNameEv
 3179      00
 3180 0016 41B87900 		movl	$121, %r8d
 3180      0000
 3181 001c 488D0D00 		leaq	.LC1(%rip), %rcx
 3181      000000
 3182 0023 4889C2   		movq	%rax, %rdx
 3183 0026 488D3500 		leaq	.LC28(%rip), %rsi
 3183      000000
 3184 002d 4889DF   		movq	%rbx, %rdi
 3185 0030 E8000000 		call	_ZN8UnitTest4TestC2EPKcS2_S2_i@PLT
 3185      00
 3186 0035 488D1500 		leaq	16+_ZTV25TestHexIO_testJunkRecType(%rip), %rdx
 3186      000000
 3187 003c 488B45E8 		movq	-24(%rbp), %rax
 3188 0040 488910   		movq	%rdx, (%rax)
 3189              	.LBE10:
 3190 0043 90       		nop
 3191 0044 4883C418 		addq	$24, %rsp
 3192 0048 5B       		popq	%rbx
 3193 0049 5D       		popq	%rbp
 3194              		.cfi_def_cfa 7, 8
 3195 004a C3       		ret
 3196              		.cfi_endproc
 3197              	.LFE1181:
 3199              		.weak	_ZN25TestHexIO_testJunkRecTypeC1Ev
 3200              		.set	_ZN25TestHexIO_testJunkRecTypeC1Ev,_ZN25TestHexIO_testJunkRecTypeC2Ev
 3201              		.globl	testHexIO_testJunkRecTypeInstance
 3202              		.bss
 3203 0179 00000000 		.align 32
 3203      000000
 3206              	testHexIO_testJunkRecTypeInstance:
 3207 0180 00000000 		.zero	56
 3207      00000000 
 3207      00000000 
 3207      00000000 
 3207      00000000 
 3208              		.globl	adderHexIO_testJunkRecType
 3211              	adderHexIO_testJunkRecType:
 3212 01b8 00       		.zero	1
 3213              		.section	.rodata
 3214              	.LC29:
 3215 049c 3A303430 		.string	":040BE1..75820022F7\n"
 3215      4245312E 
 3215      2E373538 
 3215      32303032 
 3215      3246370A 
 3216 04b1 00000000 		.align 8
 3216      000000
 3217              	.LC30:
 3218 04b8 556E6861 		.string	"Unhandled exception in CHECK_EQUAL(HEX_JUNK_REC_TYPE, status)"
 3218      6E646C65 
 3218      64206578 
 3218      63657074 
 3218      696F6E20 
 3219              		.text
 3220 13f7 90       		.align 2
 3221              		.globl	_ZNK25TestHexIO_testJunkRecType7RunImplEv
 3223              	_ZNK25TestHexIO_testJunkRecType7RunImplEv:
 3224              	.LFB1183:
 3225              		.loc 4 121 0
 3226              		.cfi_startproc
 3227              		.cfi_personality 0x9b,DW.ref.__gxx_personality_v0
 3228              		.cfi_lsda 0x1b,.LLSDA1183
 3229 13f8 55       		pushq	%rbp
 3230              		.cfi_def_cfa_offset 16
 3231              		.cfi_offset 6, -16
 3232 13f9 4889E5   		movq	%rsp, %rbp
 3233              		.cfi_def_cfa_register 6
 3234 13fc 53       		pushq	%rbx
 3235 13fd 4881EC88 		subq	$136, %rsp
 3235      000000
 3236              		.cfi_offset 3, -24
 3237 1404 4889BD78 		movq	%rdi, -136(%rbp)
 3237      FFFFFF
 3238              		.loc 4 121 0
 3239 140b 64488B04 		movq	%fs:40, %rax
 3239      25280000 
 3239      00
 3240 1414 488945E8 		movq	%rax, -24(%rbp)
 3241 1418 31C0     		xorl	%eax, %eax
 122:testHexIO.cpp **** 	Buffer data;
 123:testHexIO.cpp **** 	BufferStatus status;
 124:testHexIO.cpp **** 	const char *line = ":040BE1..75820022F7\n";
 3242              		.loc 4 124 0
 3243 141a 488D0500 		leaq	.LC29(%rip), %rax
 3243      000000
 3244 1421 48894598 		movq	%rax, -104(%rbp)
 125:testHexIO.cpp **** 	uint8 recordType;
 126:testHexIO.cpp **** 	uint32 seg = 0x00000000;
 3245              		.loc 4 126 0
 3246 1425 C7459000 		movl	$0, -112(%rbp)
 3246      000000
 127:testHexIO.cpp **** 	status = bufInitialise(&data, 1024, 0x00, NULL);
 3247              		.loc 4 127 0
 3248 142c 488D45A0 		leaq	-96(%rbp), %rax
 3249 1430 B9000000 		movl	$0, %ecx
 3249      00
 3250 1435 BA000000 		movl	$0, %edx
 3250      00
 3251 143a BE000400 		movl	$1024, %esi
 3251      00
 3252 143f 4889C7   		movq	%rax, %rdi
 3253              	.LEHB139:
 3254 1442 E8000000 		call	bufInitialise@PLT
 3254      00
 3255              	.LEHE139:
 3256 1447 89458C   		movl	%eax, -116(%rbp)
 3257              	.LEHB140:
 128:testHexIO.cpp **** 	CHECK_EQUAL(BUF_SUCCESS, status);
 3258              		.loc 4 128 0
 3259 144a E8000000 		call	_ZN8UnitTest11CurrentTest7DetailsEv@PLT
 3259      00
 3260 144f 488B08   		movq	(%rax), %rcx
 3261 1452 488D45C0 		leaq	-64(%rbp), %rax
 3262 1456 BA800000 		movl	$128, %edx
 3262      00
 3263 145b 4889CE   		movq	%rcx, %rsi
 3264 145e 4889C7   		movq	%rax, %rdi
 3265 1461 E8000000 		call	_ZN8UnitTest11TestDetailsC1ERKS0_i@PLT
 3265      00
 3266              	.LEHE140:
 3267              		.loc 4 128 0 is_stmt 0 discriminator 2
 3268 1466 C7459400 		movl	$0, -108(%rbp)
 3268      000000
 3269              	.LEHB141:
 3270 146d E8000000 		call	_ZN8UnitTest11CurrentTest7ResultsEv@PLT
 3270      00
 3271 1472 488B00   		movq	(%rax), %rax
 3272 1475 488D4DC0 		leaq	-64(%rbp), %rcx
 3273 1479 488D558C 		leaq	-116(%rbp), %rdx
 3274 147d 488D7594 		leaq	-108(%rbp), %rsi
 3275 1481 4889C7   		movq	%rax, %rdi
 3276 1484 E8000000 		call	_ZN8UnitTest10CheckEqualI12BufferStatusS1_EEvRNS_11TestResultsERKT_RKT0_RKNS_11TestDetailsE
 3276      00
 3277              	.LEHE141:
 3278              	.L201:
 129:testHexIO.cpp **** 	status = bufProcessLine(line, 0, &data, NULL, &seg, &recordType, NULL);
 3279              		.loc 4 129 0 is_stmt 1
 3280 1489 488D758B 		leaq	-117(%rbp), %rsi
 3281 148d 488D4D90 		leaq	-112(%rbp), %rcx
 3282 1491 488D55A0 		leaq	-96(%rbp), %rdx
 3283 1495 488B4598 		movq	-104(%rbp), %rax
 3284 1499 4883EC08 		subq	$8, %rsp
 3285 149d 6A00     		pushq	$0
 3286 149f 4989F1   		movq	%rsi, %r9
 3287 14a2 4989C8   		movq	%rcx, %r8
 3288 14a5 B9000000 		movl	$0, %ecx
 3288      00
 3289 14aa BE000000 		movl	$0, %esi
 3289      00
 3290 14af 4889C7   		movq	%rax, %rdi
 3291              	.LEHB142:
 3292 14b2 E8000000 		call	bufProcessLine@PLT
 3292      00
 3293              	.LEHE142:
 3294 14b7 4883C410 		addq	$16, %rsp
 3295 14bb 89458C   		movl	%eax, -116(%rbp)
 3296              	.LEHB143:
 130:testHexIO.cpp **** 	CHECK_EQUAL(HEX_JUNK_REC_TYPE, status);
 3297              		.loc 4 130 0
 3298 14be E8000000 		call	_ZN8UnitTest11CurrentTest7DetailsEv@PLT
 3298      00
 3299 14c3 488B08   		movq	(%rax), %rcx
 3300 14c6 488D45C0 		leaq	-64(%rbp), %rax
 3301 14ca BA820000 		movl	$130, %edx
 3301      00
 3302 14cf 4889CE   		movq	%rcx, %rsi
 3303 14d2 4889C7   		movq	%rax, %rdi
 3304 14d5 E8000000 		call	_ZN8UnitTest11TestDetailsC1ERKS0_i@PLT
 3304      00
 3305              	.LEHE143:
 3306              		.loc 4 130 0 is_stmt 0 discriminator 2
 3307 14da C745940C 		movl	$12, -108(%rbp)
 3307      000000
 3308              	.LEHB144:
 3309 14e1 E8000000 		call	_ZN8UnitTest11CurrentTest7ResultsEv@PLT
 3309      00
 3310 14e6 488B00   		movq	(%rax), %rax
 3311 14e9 488D4DC0 		leaq	-64(%rbp), %rcx
 3312 14ed 488D558C 		leaq	-116(%rbp), %rdx
 3313 14f1 488D7594 		leaq	-108(%rbp), %rsi
 3314 14f5 4889C7   		movq	%rax, %rdi
 3315 14f8 E8000000 		call	_ZN8UnitTest10CheckEqualI12BufferStatusS1_EEvRNS_11TestResultsERKT_RKT0_RKNS_11TestDetailsE
 3315      00
 3316              	.LEHE144:
 3317              	.L205:
 131:testHexIO.cpp **** 	bufDestroy(&data);
 3318              		.loc 4 131 0 is_stmt 1
 3319 14fd 488D45A0 		leaq	-96(%rbp), %rax
 3320 1501 4889C7   		movq	%rax, %rdi
 3321              	.LEHB145:
 3322 1504 E8000000 		call	bufDestroy@PLT
 3322      00
 3323              	.LEHE145:
 132:testHexIO.cpp **** }
 3324              		.loc 4 132 0
 3325 1509 90       		nop
 3326 150a 488B45E8 		movq	-24(%rbp), %rax
 3327 150e 64483304 		xorq	%fs:40, %rax
 3327      25280000 
 3327      00
 3328 1517 0F84CC00 		je	.L207
 3328      0000
 3329 151d E9C20000 		jmp	.L214
 3329      00
 3330              	.L209:
 3331 1522 EB00     		jmp	.L200
 3332              	.L208:
 3333              	.L200:
 128:testHexIO.cpp **** 	status = bufProcessLine(line, 0, &data, NULL, &seg, &recordType, NULL);
 3334              		.loc 4 128 0
 3335 1524 4889C7   		movq	%rax, %rdi
 3336 1527 E8000000 		call	__cxa_begin_catch@PLT
 3336      00
 3337              	.LEHB146:
 3338 152c E8000000 		call	_ZN8UnitTest11CurrentTest7ResultsEv@PLT
 3338      00
 3339 1531 488B18   		movq	(%rax), %rbx
 3340 1534 E8000000 		call	_ZN8UnitTest11CurrentTest7DetailsEv@PLT
 3340      00
 128:testHexIO.cpp **** 	status = bufProcessLine(line, 0, &data, NULL, &seg, &recordType, NULL);
 3341              		.loc 4 128 0 is_stmt 0 discriminator 8
 3342 1539 488B08   		movq	(%rax), %rcx
 3343 153c 488D45C0 		leaq	-64(%rbp), %rax
 3344 1540 BA800000 		movl	$128, %edx
 3344      00
 3345 1545 4889CE   		movq	%rcx, %rsi
 3346 1548 4889C7   		movq	%rax, %rdi
 3347 154b E8000000 		call	_ZN8UnitTest11TestDetailsC1ERKS0_i@PLT
 3347      00
 128:testHexIO.cpp **** 	status = bufProcessLine(line, 0, &data, NULL, &seg, &recordType, NULL);
 3348              		.loc 4 128 0 discriminator 12
 3349 1550 488D45C0 		leaq	-64(%rbp), %rax
 3350 1554 488D1500 		leaq	.LC4(%rip), %rdx
 3350      000000
 3351 155b 4889C6   		movq	%rax, %rsi
 3352 155e 4889DF   		movq	%rbx, %rdi
 3353 1561 E8000000 		call	_ZN8UnitTest11TestResults13OnTestFailureERKNS_11TestDetailsEPKc@PLT
 3353      00
 3354              	.LEHE146:
 3355              	.LEHB147:
 128:testHexIO.cpp **** 	status = bufProcessLine(line, 0, &data, NULL, &seg, &recordType, NULL);
 3356              		.loc 4 128 0 discriminator 14
 3357 1566 E8000000 		call	__cxa_end_catch@PLT
 3357      00
 3358              	.LEHE147:
 3359 156b E919FFFF 		jmp	.L201
 3359      FF
 3360              	.L210:
 3361 1570 4889C3   		movq	%rax, %rbx
 128:testHexIO.cpp **** 	status = bufProcessLine(line, 0, &data, NULL, &seg, &recordType, NULL);
 3362              		.loc 4 128 0
 3363 1573 E8000000 		call	__cxa_end_catch@PLT
 3363      00
 3364 1578 4889D8   		movq	%rbx, %rax
 3365 157b 4889C7   		movq	%rax, %rdi
 3366              	.LEHB148:
 3367 157e E8000000 		call	_Unwind_Resume@PLT
 3367      00
 3368              	.LEHE148:
 3369              	.L212:
 3370 1583 EB00     		jmp	.L204
 3371              	.L211:
 3372              	.L204:
 130:testHexIO.cpp **** 	bufDestroy(&data);
 3373              		.loc 4 130 0 is_stmt 1
 3374 1585 4889C7   		movq	%rax, %rdi
 3375 1588 E8000000 		call	__cxa_begin_catch@PLT
 3375      00
 3376              	.LEHB149:
 3377 158d E8000000 		call	_ZN8UnitTest11CurrentTest7ResultsEv@PLT
 3377      00
 3378 1592 488B18   		movq	(%rax), %rbx
 3379 1595 E8000000 		call	_ZN8UnitTest11CurrentTest7DetailsEv@PLT
 3379      00
 130:testHexIO.cpp **** 	bufDestroy(&data);
 3380              		.loc 4 130 0 is_stmt 0 discriminator 8
 3381 159a 488B08   		movq	(%rax), %rcx
 3382 159d 488D45C0 		leaq	-64(%rbp), %rax
 3383 15a1 BA820000 		movl	$130, %edx
 3383      00
 3384 15a6 4889CE   		movq	%rcx, %rsi
 3385 15a9 4889C7   		movq	%rax, %rdi
 3386 15ac E8000000 		call	_ZN8UnitTest11TestDetailsC1ERKS0_i@PLT
 3386      00
 130:testHexIO.cpp **** 	bufDestroy(&data);
 3387              		.loc 4 130 0 discriminator 12
 3388 15b1 488D45C0 		leaq	-64(%rbp), %rax
 3389 15b5 488D1500 		leaq	.LC30(%rip), %rdx
 3389      000000
 3390 15bc 4889C6   		movq	%rax, %rsi
 3391 15bf 4889DF   		movq	%rbx, %rdi
 3392 15c2 E8000000 		call	_ZN8UnitTest11TestResults13OnTestFailureERKNS_11TestDetailsEPKc@PLT
 3392      00
 3393              	.LEHE149:
 3394              	.LEHB150:
 130:testHexIO.cpp **** 	bufDestroy(&data);
 3395              		.loc 4 130 0 discriminator 14
 3396 15c7 E8000000 		call	__cxa_end_catch@PLT
 3396      00
 3397              	.LEHE150:
 3398 15cc E92CFFFF 		jmp	.L205
 3398      FF
 3399              	.L213:
 3400 15d1 4889C3   		movq	%rax, %rbx
 130:testHexIO.cpp **** 	bufDestroy(&data);
 3401              		.loc 4 130 0
 3402 15d4 E8000000 		call	__cxa_end_catch@PLT
 3402      00
 3403 15d9 4889D8   		movq	%rbx, %rax
 3404 15dc 4889C7   		movq	%rax, %rdi
 3405              	.LEHB151:
 3406 15df E8000000 		call	_Unwind_Resume@PLT
 3406      00
 3407              	.LEHE151:
 3408              	.L214:
 3409              		.loc 4 132 0 is_stmt 1
 3410 15e4 E8000000 		call	__stack_chk_fail@PLT
 3410      00
 3411              	.L207:
 3412 15e9 488B5DF8 		movq	-8(%rbp), %rbx
 3413 15ed C9       		leave
 3414              		.cfi_def_cfa 7, 8
 3415 15ee C3       		ret
 3416              		.cfi_endproc
 3417              	.LFE1183:
 3418              		.section	.gcc_except_table
 3419              		.align 4
 3420              	.LLSDA1183:
 3421 0338 FF       		.byte	0xff
 3422 0339 9B       		.byte	0x9b
 3423 033a 51       		.uleb128 .LLSDATT1183-.LLSDATTD1183
 3424              	.LLSDATTD1183:
 3425 033b 01       		.byte	0x1
 3426 033c 44       		.uleb128 .LLSDACSE1183-.LLSDACSB1183
 3427              	.LLSDACSB1183:
 3428 033d 4A       		.uleb128 .LEHB139-.LFB1183
 3429 033e 05       		.uleb128 .LEHE139-.LEHB139
 3430 033f 00       		.uleb128 0
 3431 0340 00       		.uleb128 0
 3432 0341 52       		.uleb128 .LEHB140-.LFB1183
 3433 0342 1C       		.uleb128 .LEHE140-.LEHB140
 3434 0343 AC02     		.uleb128 .L208-.LFB1183
 3435 0345 01       		.uleb128 0x1
 3436 0346 75       		.uleb128 .LEHB141-.LFB1183
 3437 0347 1C       		.uleb128 .LEHE141-.LEHB141
 3438 0348 AA02     		.uleb128 .L209-.LFB1183
 3439 034a 03       		.uleb128 0x3
 3440 034b BA01     		.uleb128 .LEHB142-.LFB1183
 3441 034d 05       		.uleb128 .LEHE142-.LEHB142
 3442 034e 00       		.uleb128 0
 3443 034f 00       		.uleb128 0
 3444 0350 C601     		.uleb128 .LEHB143-.LFB1183
 3445 0352 1C       		.uleb128 .LEHE143-.LEHB143
 3446 0353 8D03     		.uleb128 .L211-.LFB1183
 3447 0355 01       		.uleb128 0x1
 3448 0356 E901     		.uleb128 .LEHB144-.LFB1183
 3449 0358 1C       		.uleb128 .LEHE144-.LEHB144
 3450 0359 8B03     		.uleb128 .L212-.LFB1183
 3451 035b 03       		.uleb128 0x3
 3452 035c 8C02     		.uleb128 .LEHB145-.LFB1183
 3453 035e 05       		.uleb128 .LEHE145-.LEHB145
 3454 035f 00       		.uleb128 0
 3455 0360 00       		.uleb128 0
 3456 0361 B402     		.uleb128 .LEHB146-.LFB1183
 3457 0363 3A       		.uleb128 .LEHE146-.LEHB146
 3458 0364 F802     		.uleb128 .L210-.LFB1183
 3459 0366 00       		.uleb128 0
 3460 0367 EE02     		.uleb128 .LEHB147-.LFB1183
 3461 0369 05       		.uleb128 .LEHE147-.LEHB147
 3462 036a 00       		.uleb128 0
 3463 036b 00       		.uleb128 0
 3464 036c 8603     		.uleb128 .LEHB148-.LFB1183
 3465 036e 05       		.uleb128 .LEHE148-.LEHB148
 3466 036f 00       		.uleb128 0
 3467 0370 00       		.uleb128 0
 3468 0371 9503     		.uleb128 .LEHB149-.LFB1183
 3469 0373 3A       		.uleb128 .LEHE149-.LEHB149
 3470 0374 D903     		.uleb128 .L213-.LFB1183
 3471 0376 00       		.uleb128 0
 3472 0377 CF03     		.uleb128 .LEHB150-.LFB1183
 3473 0379 05       		.uleb128 .LEHE150-.LEHB150
 3474 037a 00       		.uleb128 0
 3475 037b 00       		.uleb128 0
 3476 037c E703     		.uleb128 .LEHB151-.LFB1183
 3477 037e 05       		.uleb128 .LEHE151-.LEHB151
 3478 037f 00       		.uleb128 0
 3479 0380 00       		.uleb128 0
 3480              	.LLSDACSE1183:
 3481 0381 01       		.byte	0x1
 3482 0382 00       		.byte	0
 3483 0383 00       		.byte	0
 3484 0384 7D       		.byte	0x7d
 3485 0385 000000   		.align 4
 3486 0388 00000000 		.long	0
 3487              	
 3488              	.LLSDATT1183:
 3489              		.text
 3491              		.section	.rodata
 3492              	.LC31:
 3493 04f6 48657849 		.string	"HexIO_testJunkDataByte"
 3493      4F5F7465 
 3493      73744A75 
 3493      6E6B4461 
 3493      74614279 
 3494              		.section	.text._ZN26TestHexIO_testJunkDataByteC2Ev,"axG",@progbits,_ZN26TestHexIO_testJunkDataByte
 3495              		.align 2
 3496              		.weak	_ZN26TestHexIO_testJunkDataByteC2Ev
 3498              	_ZN26TestHexIO_testJunkDataByteC2Ev:
 3499              	.LFB1185:
 133:testHexIO.cpp **** 
 134:testHexIO.cpp **** TEST(HexIO_testJunkDataByte) {
 3500              		.loc 4 134 0
 3501              		.cfi_startproc
 3502 0000 55       		pushq	%rbp
 3503              		.cfi_def_cfa_offset 16
 3504              		.cfi_offset 6, -16
 3505 0001 4889E5   		movq	%rsp, %rbp
 3506              		.cfi_def_cfa_register 6
 3507 0004 53       		pushq	%rbx
 3508 0005 4883EC18 		subq	$24, %rsp
 3509              		.cfi_offset 3, -24
 3510 0009 48897DE8 		movq	%rdi, -24(%rbp)
 3511              	.LBB11:
 3512              		.loc 4 134 0
 3513 000d 488B5DE8 		movq	-24(%rbp), %rbx
 3514 0011 E8000000 		call	_ZN13UnitTestSuite12GetSuiteNameEv
 3514      00
 3515 0016 41B88600 		movl	$134, %r8d
 3515      0000
 3516 001c 488D0D00 		leaq	.LC1(%rip), %rcx
 3516      000000
 3517 0023 4889C2   		movq	%rax, %rdx
 3518 0026 488D3500 		leaq	.LC31(%rip), %rsi
 3518      000000
 3519 002d 4889DF   		movq	%rbx, %rdi
 3520 0030 E8000000 		call	_ZN8UnitTest4TestC2EPKcS2_S2_i@PLT
 3520      00
 3521 0035 488D1500 		leaq	16+_ZTV26TestHexIO_testJunkDataByte(%rip), %rdx
 3521      000000
 3522 003c 488B45E8 		movq	-24(%rbp), %rax
 3523 0040 488910   		movq	%rdx, (%rax)
 3524              	.LBE11:
 3525 0043 90       		nop
 3526 0044 4883C418 		addq	$24, %rsp
 3527 0048 5B       		popq	%rbx
 3528 0049 5D       		popq	%rbp
 3529              		.cfi_def_cfa 7, 8
 3530 004a C3       		ret
 3531              		.cfi_endproc
 3532              	.LFE1185:
 3534              		.weak	_ZN26TestHexIO_testJunkDataByteC1Ev
 3535              		.set	_ZN26TestHexIO_testJunkDataByteC1Ev,_ZN26TestHexIO_testJunkDataByteC2Ev
 3536              		.globl	testHexIO_testJunkDataByteInstance
 3537              		.bss
 3538 01b9 00000000 		.align 32
 3538      000000
 3541              	testHexIO_testJunkDataByteInstance:
 3542 01c0 00000000 		.zero	56
 3542      00000000 
 3542      00000000 
 3542      00000000 
 3542      00000000 
 3543              		.globl	adderHexIO_testJunkDataByte
 3546              	adderHexIO_testJunkDataByte:
 3547 01f8 00       		.zero	1
 3548              		.section	.rodata
 3549              	.LC32:
 3550 050d 3A303430 		.string	":040BE100..820022F7\n"
 3550      42453130 
 3550      302E2E38 
 3550      32303032 
 3550      3246370A 
 3551 0522 00000000 		.align 8
 3551      0000
 3552              	.LC33:
 3553 0528 556E6861 		.string	"Unhandled exception in CHECK_EQUAL(HEX_JUNK_DATA_BYTE, status)"
 3553      6E646C65 
 3553      64206578 
 3553      63657074 
 3553      696F6E20 
 3554              		.text
 3555 15ef 90       		.align 2
 3556              		.globl	_ZNK26TestHexIO_testJunkDataByte7RunImplEv
 3558              	_ZNK26TestHexIO_testJunkDataByte7RunImplEv:
 3559              	.LFB1187:
 3560              		.loc 4 134 0
 3561              		.cfi_startproc
 3562              		.cfi_personality 0x9b,DW.ref.__gxx_personality_v0
 3563              		.cfi_lsda 0x1b,.LLSDA1187
 3564 15f0 55       		pushq	%rbp
 3565              		.cfi_def_cfa_offset 16
 3566              		.cfi_offset 6, -16
 3567 15f1 4889E5   		movq	%rsp, %rbp
 3568              		.cfi_def_cfa_register 6
 3569 15f4 53       		pushq	%rbx
 3570 15f5 4881EC88 		subq	$136, %rsp
 3570      000000
 3571              		.cfi_offset 3, -24
 3572 15fc 4889BD78 		movq	%rdi, -136(%rbp)
 3572      FFFFFF
 3573              		.loc 4 134 0
 3574 1603 64488B04 		movq	%fs:40, %rax
 3574      25280000 
 3574      00
 3575 160c 488945E8 		movq	%rax, -24(%rbp)
 3576 1610 31C0     		xorl	%eax, %eax
 135:testHexIO.cpp **** 	Buffer data;
 136:testHexIO.cpp **** 	BufferStatus status;
 137:testHexIO.cpp **** 	const char *line = ":040BE100..820022F7\n";
 3577              		.loc 4 137 0
 3578 1612 488D0500 		leaq	.LC32(%rip), %rax
 3578      000000
 3579 1619 48894598 		movq	%rax, -104(%rbp)
 138:testHexIO.cpp **** 	uint8 recordType;
 139:testHexIO.cpp **** 	uint32 seg = 0x00000000;
 3580              		.loc 4 139 0
 3581 161d C7459000 		movl	$0, -112(%rbp)
 3581      000000
 140:testHexIO.cpp **** 	status = bufInitialise(&data, 1024, 0x00, NULL);
 3582              		.loc 4 140 0
 3583 1624 488D45A0 		leaq	-96(%rbp), %rax
 3584 1628 B9000000 		movl	$0, %ecx
 3584      00
 3585 162d BA000000 		movl	$0, %edx
 3585      00
 3586 1632 BE000400 		movl	$1024, %esi
 3586      00
 3587 1637 4889C7   		movq	%rax, %rdi
 3588              	.LEHB152:
 3589 163a E8000000 		call	bufInitialise@PLT
 3589      00
 3590              	.LEHE152:
 3591 163f 89458C   		movl	%eax, -116(%rbp)
 3592              	.LEHB153:
 141:testHexIO.cpp **** 	CHECK_EQUAL(BUF_SUCCESS, status);
 3593              		.loc 4 141 0
 3594 1642 E8000000 		call	_ZN8UnitTest11CurrentTest7DetailsEv@PLT
 3594      00
 3595 1647 488B08   		movq	(%rax), %rcx
 3596 164a 488D45C0 		leaq	-64(%rbp), %rax
 3597 164e BA8D0000 		movl	$141, %edx
 3597      00
 3598 1653 4889CE   		movq	%rcx, %rsi
 3599 1656 4889C7   		movq	%rax, %rdi
 3600 1659 E8000000 		call	_ZN8UnitTest11TestDetailsC1ERKS0_i@PLT
 3600      00
 3601              	.LEHE153:
 3602              		.loc 4 141 0 is_stmt 0 discriminator 2
 3603 165e C7459400 		movl	$0, -108(%rbp)
 3603      000000
 3604              	.LEHB154:
 3605 1665 E8000000 		call	_ZN8UnitTest11CurrentTest7ResultsEv@PLT
 3605      00
 3606 166a 488B00   		movq	(%rax), %rax
 3607 166d 488D4DC0 		leaq	-64(%rbp), %rcx
 3608 1671 488D558C 		leaq	-116(%rbp), %rdx
 3609 1675 488D7594 		leaq	-108(%rbp), %rsi
 3610 1679 4889C7   		movq	%rax, %rdi
 3611 167c E8000000 		call	_ZN8UnitTest10CheckEqualI12BufferStatusS1_EEvRNS_11TestResultsERKT_RKT0_RKNS_11TestDetailsE
 3611      00
 3612              	.LEHE154:
 3613              	.L219:
 142:testHexIO.cpp **** 	status = bufProcessLine(line, 0, &data, NULL, &seg, &recordType, NULL);
 3614              		.loc 4 142 0 is_stmt 1
 3615 1681 488D758B 		leaq	-117(%rbp), %rsi
 3616 1685 488D4D90 		leaq	-112(%rbp), %rcx
 3617 1689 488D55A0 		leaq	-96(%rbp), %rdx
 3618 168d 488B4598 		movq	-104(%rbp), %rax
 3619 1691 4883EC08 		subq	$8, %rsp
 3620 1695 6A00     		pushq	$0
 3621 1697 4989F1   		movq	%rsi, %r9
 3622 169a 4989C8   		movq	%rcx, %r8
 3623 169d B9000000 		movl	$0, %ecx
 3623      00
 3624 16a2 BE000000 		movl	$0, %esi
 3624      00
 3625 16a7 4889C7   		movq	%rax, %rdi
 3626              	.LEHB155:
 3627 16aa E8000000 		call	bufProcessLine@PLT
 3627      00
 3628              	.LEHE155:
 3629 16af 4883C410 		addq	$16, %rsp
 3630 16b3 89458C   		movl	%eax, -116(%rbp)
 3631              	.LEHB156:
 143:testHexIO.cpp **** 	CHECK_EQUAL(HEX_JUNK_DATA_BYTE, status);
 3632              		.loc 4 143 0
 3633 16b6 E8000000 		call	_ZN8UnitTest11CurrentTest7DetailsEv@PLT
 3633      00
 3634 16bb 488B08   		movq	(%rax), %rcx
 3635 16be 488D45C0 		leaq	-64(%rbp), %rax
 3636 16c2 BA8F0000 		movl	$143, %edx
 3636      00
 3637 16c7 4889CE   		movq	%rcx, %rsi
 3638 16ca 4889C7   		movq	%rax, %rdi
 3639 16cd E8000000 		call	_ZN8UnitTest11TestDetailsC1ERKS0_i@PLT
 3639      00
 3640              	.LEHE156:
 3641              		.loc 4 143 0 is_stmt 0 discriminator 2
 3642 16d2 C745940E 		movl	$14, -108(%rbp)
 3642      000000
 3643              	.LEHB157:
 3644 16d9 E8000000 		call	_ZN8UnitTest11CurrentTest7ResultsEv@PLT
 3644      00
 3645 16de 488B00   		movq	(%rax), %rax
 3646 16e1 488D4DC0 		leaq	-64(%rbp), %rcx
 3647 16e5 488D558C 		leaq	-116(%rbp), %rdx
 3648 16e9 488D7594 		leaq	-108(%rbp), %rsi
 3649 16ed 4889C7   		movq	%rax, %rdi
 3650 16f0 E8000000 		call	_ZN8UnitTest10CheckEqualI12BufferStatusS1_EEvRNS_11TestResultsERKT_RKT0_RKNS_11TestDetailsE
 3650      00
 3651              	.LEHE157:
 3652              	.L223:
 144:testHexIO.cpp **** 	bufDestroy(&data);
 3653              		.loc 4 144 0 is_stmt 1
 3654 16f5 488D45A0 		leaq	-96(%rbp), %rax
 3655 16f9 4889C7   		movq	%rax, %rdi
 3656              	.LEHB158:
 3657 16fc E8000000 		call	bufDestroy@PLT
 3657      00
 3658              	.LEHE158:
 145:testHexIO.cpp **** }
 3659              		.loc 4 145 0
 3660 1701 90       		nop
 3661 1702 488B45E8 		movq	-24(%rbp), %rax
 3662 1706 64483304 		xorq	%fs:40, %rax
 3662      25280000 
 3662      00
 3663 170f 0F84CC00 		je	.L225
 3663      0000
 3664 1715 E9C20000 		jmp	.L232
 3664      00
 3665              	.L227:
 3666 171a EB00     		jmp	.L218
 3667              	.L226:
 3668              	.L218:
 141:testHexIO.cpp **** 	status = bufProcessLine(line, 0, &data, NULL, &seg, &recordType, NULL);
 3669              		.loc 4 141 0
 3670 171c 4889C7   		movq	%rax, %rdi
 3671 171f E8000000 		call	__cxa_begin_catch@PLT
 3671      00
 3672              	.LEHB159:
 3673 1724 E8000000 		call	_ZN8UnitTest11CurrentTest7ResultsEv@PLT
 3673      00
 3674 1729 488B18   		movq	(%rax), %rbx
 3675 172c E8000000 		call	_ZN8UnitTest11CurrentTest7DetailsEv@PLT
 3675      00
 141:testHexIO.cpp **** 	status = bufProcessLine(line, 0, &data, NULL, &seg, &recordType, NULL);
 3676              		.loc 4 141 0 is_stmt 0 discriminator 8
 3677 1731 488B08   		movq	(%rax), %rcx
 3678 1734 488D45C0 		leaq	-64(%rbp), %rax
 3679 1738 BA8D0000 		movl	$141, %edx
 3679      00
 3680 173d 4889CE   		movq	%rcx, %rsi
 3681 1740 4889C7   		movq	%rax, %rdi
 3682 1743 E8000000 		call	_ZN8UnitTest11TestDetailsC1ERKS0_i@PLT
 3682      00
 141:testHexIO.cpp **** 	status = bufProcessLine(line, 0, &data, NULL, &seg, &recordType, NULL);
 3683              		.loc 4 141 0 discriminator 12
 3684 1748 488D45C0 		leaq	-64(%rbp), %rax
 3685 174c 488D1500 		leaq	.LC4(%rip), %rdx
 3685      000000
 3686 1753 4889C6   		movq	%rax, %rsi
 3687 1756 4889DF   		movq	%rbx, %rdi
 3688 1759 E8000000 		call	_ZN8UnitTest11TestResults13OnTestFailureERKNS_11TestDetailsEPKc@PLT
 3688      00
 3689              	.LEHE159:
 3690              	.LEHB160:
 141:testHexIO.cpp **** 	status = bufProcessLine(line, 0, &data, NULL, &seg, &recordType, NULL);
 3691              		.loc 4 141 0 discriminator 14
 3692 175e E8000000 		call	__cxa_end_catch@PLT
 3692      00
 3693              	.LEHE160:
 3694 1763 E919FFFF 		jmp	.L219
 3694      FF
 3695              	.L228:
 3696 1768 4889C3   		movq	%rax, %rbx
 141:testHexIO.cpp **** 	status = bufProcessLine(line, 0, &data, NULL, &seg, &recordType, NULL);
 3697              		.loc 4 141 0
 3698 176b E8000000 		call	__cxa_end_catch@PLT
 3698      00
 3699 1770 4889D8   		movq	%rbx, %rax
 3700 1773 4889C7   		movq	%rax, %rdi
 3701              	.LEHB161:
 3702 1776 E8000000 		call	_Unwind_Resume@PLT
 3702      00
 3703              	.LEHE161:
 3704              	.L230:
 3705 177b EB00     		jmp	.L222
 3706              	.L229:
 3707              	.L222:
 143:testHexIO.cpp **** 	bufDestroy(&data);
 3708              		.loc 4 143 0 is_stmt 1
 3709 177d 4889C7   		movq	%rax, %rdi
 3710 1780 E8000000 		call	__cxa_begin_catch@PLT
 3710      00
 3711              	.LEHB162:
 3712 1785 E8000000 		call	_ZN8UnitTest11CurrentTest7ResultsEv@PLT
 3712      00
 3713 178a 488B18   		movq	(%rax), %rbx
 3714 178d E8000000 		call	_ZN8UnitTest11CurrentTest7DetailsEv@PLT
 3714      00
 143:testHexIO.cpp **** 	bufDestroy(&data);
 3715              		.loc 4 143 0 is_stmt 0 discriminator 8
 3716 1792 488B08   		movq	(%rax), %rcx
 3717 1795 488D45C0 		leaq	-64(%rbp), %rax
 3718 1799 BA8F0000 		movl	$143, %edx
 3718      00
 3719 179e 4889CE   		movq	%rcx, %rsi
 3720 17a1 4889C7   		movq	%rax, %rdi
 3721 17a4 E8000000 		call	_ZN8UnitTest11TestDetailsC1ERKS0_i@PLT
 3721      00
 143:testHexIO.cpp **** 	bufDestroy(&data);
 3722              		.loc 4 143 0 discriminator 12
 3723 17a9 488D45C0 		leaq	-64(%rbp), %rax
 3724 17ad 488D1500 		leaq	.LC33(%rip), %rdx
 3724      000000
 3725 17b4 4889C6   		movq	%rax, %rsi
 3726 17b7 4889DF   		movq	%rbx, %rdi
 3727 17ba E8000000 		call	_ZN8UnitTest11TestResults13OnTestFailureERKNS_11TestDetailsEPKc@PLT
 3727      00
 3728              	.LEHE162:
 3729              	.LEHB163:
 143:testHexIO.cpp **** 	bufDestroy(&data);
 3730              		.loc 4 143 0 discriminator 14
 3731 17bf E8000000 		call	__cxa_end_catch@PLT
 3731      00
 3732              	.LEHE163:
 3733 17c4 E92CFFFF 		jmp	.L223
 3733      FF
 3734              	.L231:
 3735 17c9 4889C3   		movq	%rax, %rbx
 143:testHexIO.cpp **** 	bufDestroy(&data);
 3736              		.loc 4 143 0
 3737 17cc E8000000 		call	__cxa_end_catch@PLT
 3737      00
 3738 17d1 4889D8   		movq	%rbx, %rax
 3739 17d4 4889C7   		movq	%rax, %rdi
 3740              	.LEHB164:
 3741 17d7 E8000000 		call	_Unwind_Resume@PLT
 3741      00
 3742              	.LEHE164:
 3743              	.L232:
 3744              		.loc 4 145 0 is_stmt 1
 3745 17dc E8000000 		call	__stack_chk_fail@PLT
 3745      00
 3746              	.L225:
 3747 17e1 488B5DF8 		movq	-8(%rbp), %rbx
 3748 17e5 C9       		leave
 3749              		.cfi_def_cfa 7, 8
 3750 17e6 C3       		ret
 3751              		.cfi_endproc
 3752              	.LFE1187:
 3753              		.section	.gcc_except_table
 3754              		.align 4
 3755              	.LLSDA1187:
 3756 038c FF       		.byte	0xff
 3757 038d 9B       		.byte	0x9b
 3758 038e 51       		.uleb128 .LLSDATT1187-.LLSDATTD1187
 3759              	.LLSDATTD1187:
 3760 038f 01       		.byte	0x1
 3761 0390 44       		.uleb128 .LLSDACSE1187-.LLSDACSB1187
 3762              	.LLSDACSB1187:
 3763 0391 4A       		.uleb128 .LEHB152-.LFB1187
 3764 0392 05       		.uleb128 .LEHE152-.LEHB152
 3765 0393 00       		.uleb128 0
 3766 0394 00       		.uleb128 0
 3767 0395 52       		.uleb128 .LEHB153-.LFB1187
 3768 0396 1C       		.uleb128 .LEHE153-.LEHB153
 3769 0397 AC02     		.uleb128 .L226-.LFB1187
 3770 0399 01       		.uleb128 0x1
 3771 039a 75       		.uleb128 .LEHB154-.LFB1187
 3772 039b 1C       		.uleb128 .LEHE154-.LEHB154
 3773 039c AA02     		.uleb128 .L227-.LFB1187
 3774 039e 03       		.uleb128 0x3
 3775 039f BA01     		.uleb128 .LEHB155-.LFB1187
 3776 03a1 05       		.uleb128 .LEHE155-.LEHB155
 3777 03a2 00       		.uleb128 0
 3778 03a3 00       		.uleb128 0
 3779 03a4 C601     		.uleb128 .LEHB156-.LFB1187
 3780 03a6 1C       		.uleb128 .LEHE156-.LEHB156
 3781 03a7 8D03     		.uleb128 .L229-.LFB1187
 3782 03a9 01       		.uleb128 0x1
 3783 03aa E901     		.uleb128 .LEHB157-.LFB1187
 3784 03ac 1C       		.uleb128 .LEHE157-.LEHB157
 3785 03ad 8B03     		.uleb128 .L230-.LFB1187
 3786 03af 03       		.uleb128 0x3
 3787 03b0 8C02     		.uleb128 .LEHB158-.LFB1187
 3788 03b2 05       		.uleb128 .LEHE158-.LEHB158
 3789 03b3 00       		.uleb128 0
 3790 03b4 00       		.uleb128 0
 3791 03b5 B402     		.uleb128 .LEHB159-.LFB1187
 3792 03b7 3A       		.uleb128 .LEHE159-.LEHB159
 3793 03b8 F802     		.uleb128 .L228-.LFB1187
 3794 03ba 00       		.uleb128 0
 3795 03bb EE02     		.uleb128 .LEHB160-.LFB1187
 3796 03bd 05       		.uleb128 .LEHE160-.LEHB160
 3797 03be 00       		.uleb128 0
 3798 03bf 00       		.uleb128 0
 3799 03c0 8603     		.uleb128 .LEHB161-.LFB1187
 3800 03c2 05       		.uleb128 .LEHE161-.LEHB161
 3801 03c3 00       		.uleb128 0
 3802 03c4 00       		.uleb128 0
 3803 03c5 9503     		.uleb128 .LEHB162-.LFB1187
 3804 03c7 3A       		.uleb128 .LEHE162-.LEHB162
 3805 03c8 D903     		.uleb128 .L231-.LFB1187
 3806 03ca 00       		.uleb128 0
 3807 03cb CF03     		.uleb128 .LEHB163-.LFB1187
 3808 03cd 05       		.uleb128 .LEHE163-.LEHB163
 3809 03ce 00       		.uleb128 0
 3810 03cf 00       		.uleb128 0
 3811 03d0 E703     		.uleb128 .LEHB164-.LFB1187
 3812 03d2 05       		.uleb128 .LEHE164-.LEHB164
 3813 03d3 00       		.uleb128 0
 3814 03d4 00       		.uleb128 0
 3815              	.LLSDACSE1187:
 3816 03d5 01       		.byte	0x1
 3817 03d6 00       		.byte	0
 3818 03d7 00       		.byte	0
 3819 03d8 7D       		.byte	0x7d
 3820 03d9 000000   		.align 4
 3821 03dc 00000000 		.long	0
 3822              	
 3823              	.LLSDATT1187:
 3824              		.text
 3826              		.section	.rodata
 3827              	.LC34:
 3828 0567 48657849 		.string	"HexIO_testJunkChecksum"
 3828      4F5F7465 
 3828      73744A75 
 3828      6E6B4368 
 3828      65636B73 
 3829              		.section	.text._ZN26TestHexIO_testJunkChecksumC2Ev,"axG",@progbits,_ZN26TestHexIO_testJunkChecksum
 3830              		.align 2
 3831              		.weak	_ZN26TestHexIO_testJunkChecksumC2Ev
 3833              	_ZN26TestHexIO_testJunkChecksumC2Ev:
 3834              	.LFB1189:
 146:testHexIO.cpp **** 
 147:testHexIO.cpp **** TEST(HexIO_testJunkChecksum) {
 3835              		.loc 4 147 0
 3836              		.cfi_startproc
 3837 0000 55       		pushq	%rbp
 3838              		.cfi_def_cfa_offset 16
 3839              		.cfi_offset 6, -16
 3840 0001 4889E5   		movq	%rsp, %rbp
 3841              		.cfi_def_cfa_register 6
 3842 0004 53       		pushq	%rbx
 3843 0005 4883EC18 		subq	$24, %rsp
 3844              		.cfi_offset 3, -24
 3845 0009 48897DE8 		movq	%rdi, -24(%rbp)
 3846              	.LBB12:
 3847              		.loc 4 147 0
 3848 000d 488B5DE8 		movq	-24(%rbp), %rbx
 3849 0011 E8000000 		call	_ZN13UnitTestSuite12GetSuiteNameEv
 3849      00
 3850 0016 41B89300 		movl	$147, %r8d
 3850      0000
 3851 001c 488D0D00 		leaq	.LC1(%rip), %rcx
 3851      000000
 3852 0023 4889C2   		movq	%rax, %rdx
 3853 0026 488D3500 		leaq	.LC34(%rip), %rsi
 3853      000000
 3854 002d 4889DF   		movq	%rbx, %rdi
 3855 0030 E8000000 		call	_ZN8UnitTest4TestC2EPKcS2_S2_i@PLT
 3855      00
 3856 0035 488D1500 		leaq	16+_ZTV26TestHexIO_testJunkChecksum(%rip), %rdx
 3856      000000
 3857 003c 488B45E8 		movq	-24(%rbp), %rax
 3858 0040 488910   		movq	%rdx, (%rax)
 3859              	.LBE12:
 3860 0043 90       		nop
 3861 0044 4883C418 		addq	$24, %rsp
 3862 0048 5B       		popq	%rbx
 3863 0049 5D       		popq	%rbp
 3864              		.cfi_def_cfa 7, 8
 3865 004a C3       		ret
 3866              		.cfi_endproc
 3867              	.LFE1189:
 3869              		.weak	_ZN26TestHexIO_testJunkChecksumC1Ev
 3870              		.set	_ZN26TestHexIO_testJunkChecksumC1Ev,_ZN26TestHexIO_testJunkChecksumC2Ev
 3871              		.globl	testHexIO_testJunkChecksumInstance
 3872              		.bss
 3873 01f9 00000000 		.align 32
 3873      000000
 3876              	testHexIO_testJunkChecksumInstance:
 3877 0200 00000000 		.zero	56
 3877      00000000 
 3877      00000000 
 3877      00000000 
 3877      00000000 
 3878              		.globl	adderHexIO_testJunkChecksum
 3881              	adderHexIO_testJunkChecksum:
 3882 0238 00       		.zero	1
 3883              		.section	.rodata
 3884              	.LC35:
 3885 057e 3A303430 		.string	":040BE10075820022..\n"
 3885      42453130 
 3885      30373538 
 3885      32303032 
 3885      322E2E0A 
 3886 0593 00000000 		.align 8
 3886      00
 3887              	.LC36:
 3888 0598 556E6861 		.string	"Unhandled exception in CHECK_EQUAL(HEX_JUNK_CHECKSUM, status)"
 3888      6E646C65 
 3888      64206578 
 3888      63657074 
 3888      696F6E20 
 3889              		.text
 3890 17e7 90       		.align 2
 3891              		.globl	_ZNK26TestHexIO_testJunkChecksum7RunImplEv
 3893              	_ZNK26TestHexIO_testJunkChecksum7RunImplEv:
 3894              	.LFB1191:
 3895              		.loc 4 147 0
 3896              		.cfi_startproc
 3897              		.cfi_personality 0x9b,DW.ref.__gxx_personality_v0
 3898              		.cfi_lsda 0x1b,.LLSDA1191
 3899 17e8 55       		pushq	%rbp
 3900              		.cfi_def_cfa_offset 16
 3901              		.cfi_offset 6, -16
 3902 17e9 4889E5   		movq	%rsp, %rbp
 3903              		.cfi_def_cfa_register 6
 3904 17ec 53       		pushq	%rbx
 3905 17ed 4881EC88 		subq	$136, %rsp
 3905      000000
 3906              		.cfi_offset 3, -24
 3907 17f4 4889BD78 		movq	%rdi, -136(%rbp)
 3907      FFFFFF
 3908              		.loc 4 147 0
 3909 17fb 64488B04 		movq	%fs:40, %rax
 3909      25280000 
 3909      00
 3910 1804 488945E8 		movq	%rax, -24(%rbp)
 3911 1808 31C0     		xorl	%eax, %eax
 148:testHexIO.cpp **** 	Buffer data;
 149:testHexIO.cpp **** 	BufferStatus status;
 150:testHexIO.cpp **** 	const char *line = ":040BE10075820022..\n";
 3912              		.loc 4 150 0
 3913 180a 488D0500 		leaq	.LC35(%rip), %rax
 3913      000000
 3914 1811 48894598 		movq	%rax, -104(%rbp)
 151:testHexIO.cpp **** 	uint8 recordType;
 152:testHexIO.cpp **** 	uint32 seg = 0x00000000;
 3915              		.loc 4 152 0
 3916 1815 C7459000 		movl	$0, -112(%rbp)
 3916      000000
 153:testHexIO.cpp **** 	status = bufInitialise(&data, 1024, 0x00, NULL);
 3917              		.loc 4 153 0
 3918 181c 488D45A0 		leaq	-96(%rbp), %rax
 3919 1820 B9000000 		movl	$0, %ecx
 3919      00
 3920 1825 BA000000 		movl	$0, %edx
 3920      00
 3921 182a BE000400 		movl	$1024, %esi
 3921      00
 3922 182f 4889C7   		movq	%rax, %rdi
 3923              	.LEHB165:
 3924 1832 E8000000 		call	bufInitialise@PLT
 3924      00
 3925              	.LEHE165:
 3926 1837 89458C   		movl	%eax, -116(%rbp)
 3927              	.LEHB166:
 154:testHexIO.cpp **** 	CHECK_EQUAL(BUF_SUCCESS, status);
 3928              		.loc 4 154 0
 3929 183a E8000000 		call	_ZN8UnitTest11CurrentTest7DetailsEv@PLT
 3929      00
 3930 183f 488B08   		movq	(%rax), %rcx
 3931 1842 488D45C0 		leaq	-64(%rbp), %rax
 3932 1846 BA9A0000 		movl	$154, %edx
 3932      00
 3933 184b 4889CE   		movq	%rcx, %rsi
 3934 184e 4889C7   		movq	%rax, %rdi
 3935 1851 E8000000 		call	_ZN8UnitTest11TestDetailsC1ERKS0_i@PLT
 3935      00
 3936              	.LEHE166:
 3937              		.loc 4 154 0 is_stmt 0 discriminator 2
 3938 1856 C7459400 		movl	$0, -108(%rbp)
 3938      000000
 3939              	.LEHB167:
 3940 185d E8000000 		call	_ZN8UnitTest11CurrentTest7ResultsEv@PLT
 3940      00
 3941 1862 488B00   		movq	(%rax), %rax
 3942 1865 488D4DC0 		leaq	-64(%rbp), %rcx
 3943 1869 488D558C 		leaq	-116(%rbp), %rdx
 3944 186d 488D7594 		leaq	-108(%rbp), %rsi
 3945 1871 4889C7   		movq	%rax, %rdi
 3946 1874 E8000000 		call	_ZN8UnitTest10CheckEqualI12BufferStatusS1_EEvRNS_11TestResultsERKT_RKT0_RKNS_11TestDetailsE
 3946      00
 3947              	.LEHE167:
 3948              	.L237:
 155:testHexIO.cpp **** 	status = bufProcessLine(line, 0, &data, NULL, &seg, &recordType, NULL);
 3949              		.loc 4 155 0 is_stmt 1
 3950 1879 488D758B 		leaq	-117(%rbp), %rsi
 3951 187d 488D4D90 		leaq	-112(%rbp), %rcx
 3952 1881 488D55A0 		leaq	-96(%rbp), %rdx
 3953 1885 488B4598 		movq	-104(%rbp), %rax
 3954 1889 4883EC08 		subq	$8, %rsp
 3955 188d 6A00     		pushq	$0
 3956 188f 4989F1   		movq	%rsi, %r9
 3957 1892 4989C8   		movq	%rcx, %r8
 3958 1895 B9000000 		movl	$0, %ecx
 3958      00
 3959 189a BE000000 		movl	$0, %esi
 3959      00
 3960 189f 4889C7   		movq	%rax, %rdi
 3961              	.LEHB168:
 3962 18a2 E8000000 		call	bufProcessLine@PLT
 3962      00
 3963              	.LEHE168:
 3964 18a7 4883C410 		addq	$16, %rsp
 3965 18ab 89458C   		movl	%eax, -116(%rbp)
 3966              	.LEHB169:
 156:testHexIO.cpp **** 	CHECK_EQUAL(HEX_JUNK_CHECKSUM, status);
 3967              		.loc 4 156 0
 3968 18ae E8000000 		call	_ZN8UnitTest11CurrentTest7DetailsEv@PLT
 3968      00
 3969 18b3 488B08   		movq	(%rax), %rcx
 3970 18b6 488D45C0 		leaq	-64(%rbp), %rax
 3971 18ba BA9C0000 		movl	$156, %edx
 3971      00
 3972 18bf 4889CE   		movq	%rcx, %rsi
 3973 18c2 4889C7   		movq	%rax, %rdi
 3974 18c5 E8000000 		call	_ZN8UnitTest11TestDetailsC1ERKS0_i@PLT
 3974      00
 3975              	.LEHE169:
 3976              		.loc 4 156 0 is_stmt 0 discriminator 2
 3977 18ca C745940F 		movl	$15, -108(%rbp)
 3977      000000
 3978              	.LEHB170:
 3979 18d1 E8000000 		call	_ZN8UnitTest11CurrentTest7ResultsEv@PLT
 3979      00
 3980 18d6 488B00   		movq	(%rax), %rax
 3981 18d9 488D4DC0 		leaq	-64(%rbp), %rcx
 3982 18dd 488D558C 		leaq	-116(%rbp), %rdx
 3983 18e1 488D7594 		leaq	-108(%rbp), %rsi
 3984 18e5 4889C7   		movq	%rax, %rdi
 3985 18e8 E8000000 		call	_ZN8UnitTest10CheckEqualI12BufferStatusS1_EEvRNS_11TestResultsERKT_RKT0_RKNS_11TestDetailsE
 3985      00
 3986              	.LEHE170:
 3987              	.L241:
 157:testHexIO.cpp **** 	bufDestroy(&data);
 3988              		.loc 4 157 0 is_stmt 1
 3989 18ed 488D45A0 		leaq	-96(%rbp), %rax
 3990 18f1 4889C7   		movq	%rax, %rdi
 3991              	.LEHB171:
 3992 18f4 E8000000 		call	bufDestroy@PLT
 3992      00
 3993              	.LEHE171:
 158:testHexIO.cpp **** }
 3994              		.loc 4 158 0
 3995 18f9 90       		nop
 3996 18fa 488B45E8 		movq	-24(%rbp), %rax
 3997 18fe 64483304 		xorq	%fs:40, %rax
 3997      25280000 
 3997      00
 3998 1907 0F84CC00 		je	.L243
 3998      0000
 3999 190d E9C20000 		jmp	.L250
 3999      00
 4000              	.L245:
 4001 1912 EB00     		jmp	.L236
 4002              	.L244:
 4003              	.L236:
 154:testHexIO.cpp **** 	status = bufProcessLine(line, 0, &data, NULL, &seg, &recordType, NULL);
 4004              		.loc 4 154 0
 4005 1914 4889C7   		movq	%rax, %rdi
 4006 1917 E8000000 		call	__cxa_begin_catch@PLT
 4006      00
 4007              	.LEHB172:
 4008 191c E8000000 		call	_ZN8UnitTest11CurrentTest7ResultsEv@PLT
 4008      00
 4009 1921 488B18   		movq	(%rax), %rbx
 4010 1924 E8000000 		call	_ZN8UnitTest11CurrentTest7DetailsEv@PLT
 4010      00
 154:testHexIO.cpp **** 	status = bufProcessLine(line, 0, &data, NULL, &seg, &recordType, NULL);
 4011              		.loc 4 154 0 is_stmt 0 discriminator 8
 4012 1929 488B08   		movq	(%rax), %rcx
 4013 192c 488D45C0 		leaq	-64(%rbp), %rax
 4014 1930 BA9A0000 		movl	$154, %edx
 4014      00
 4015 1935 4889CE   		movq	%rcx, %rsi
 4016 1938 4889C7   		movq	%rax, %rdi
 4017 193b E8000000 		call	_ZN8UnitTest11TestDetailsC1ERKS0_i@PLT
 4017      00
 154:testHexIO.cpp **** 	status = bufProcessLine(line, 0, &data, NULL, &seg, &recordType, NULL);
 4018              		.loc 4 154 0 discriminator 12
 4019 1940 488D45C0 		leaq	-64(%rbp), %rax
 4020 1944 488D1500 		leaq	.LC4(%rip), %rdx
 4020      000000
 4021 194b 4889C6   		movq	%rax, %rsi
 4022 194e 4889DF   		movq	%rbx, %rdi
 4023 1951 E8000000 		call	_ZN8UnitTest11TestResults13OnTestFailureERKNS_11TestDetailsEPKc@PLT
 4023      00
 4024              	.LEHE172:
 4025              	.LEHB173:
 154:testHexIO.cpp **** 	status = bufProcessLine(line, 0, &data, NULL, &seg, &recordType, NULL);
 4026              		.loc 4 154 0 discriminator 14
 4027 1956 E8000000 		call	__cxa_end_catch@PLT
 4027      00
 4028              	.LEHE173:
 4029 195b E919FFFF 		jmp	.L237
 4029      FF
 4030              	.L246:
 4031 1960 4889C3   		movq	%rax, %rbx
 154:testHexIO.cpp **** 	status = bufProcessLine(line, 0, &data, NULL, &seg, &recordType, NULL);
 4032              		.loc 4 154 0
 4033 1963 E8000000 		call	__cxa_end_catch@PLT
 4033      00
 4034 1968 4889D8   		movq	%rbx, %rax
 4035 196b 4889C7   		movq	%rax, %rdi
 4036              	.LEHB174:
 4037 196e E8000000 		call	_Unwind_Resume@PLT
 4037      00
 4038              	.LEHE174:
 4039              	.L248:
 4040 1973 EB00     		jmp	.L240
 4041              	.L247:
 4042              	.L240:
 156:testHexIO.cpp **** 	bufDestroy(&data);
 4043              		.loc 4 156 0 is_stmt 1
 4044 1975 4889C7   		movq	%rax, %rdi
 4045 1978 E8000000 		call	__cxa_begin_catch@PLT
 4045      00
 4046              	.LEHB175:
 4047 197d E8000000 		call	_ZN8UnitTest11CurrentTest7ResultsEv@PLT
 4047      00
 4048 1982 488B18   		movq	(%rax), %rbx
 4049 1985 E8000000 		call	_ZN8UnitTest11CurrentTest7DetailsEv@PLT
 4049      00
 156:testHexIO.cpp **** 	bufDestroy(&data);
 4050              		.loc 4 156 0 is_stmt 0 discriminator 8
 4051 198a 488B08   		movq	(%rax), %rcx
 4052 198d 488D45C0 		leaq	-64(%rbp), %rax
 4053 1991 BA9C0000 		movl	$156, %edx
 4053      00
 4054 1996 4889CE   		movq	%rcx, %rsi
 4055 1999 4889C7   		movq	%rax, %rdi
 4056 199c E8000000 		call	_ZN8UnitTest11TestDetailsC1ERKS0_i@PLT
 4056      00
 156:testHexIO.cpp **** 	bufDestroy(&data);
 4057              		.loc 4 156 0 discriminator 12
 4058 19a1 488D45C0 		leaq	-64(%rbp), %rax
 4059 19a5 488D1500 		leaq	.LC36(%rip), %rdx
 4059      000000
 4060 19ac 4889C6   		movq	%rax, %rsi
 4061 19af 4889DF   		movq	%rbx, %rdi
 4062 19b2 E8000000 		call	_ZN8UnitTest11TestResults13OnTestFailureERKNS_11TestDetailsEPKc@PLT
 4062      00
 4063              	.LEHE175:
 4064              	.LEHB176:
 156:testHexIO.cpp **** 	bufDestroy(&data);
 4065              		.loc 4 156 0 discriminator 14
 4066 19b7 E8000000 		call	__cxa_end_catch@PLT
 4066      00
 4067              	.LEHE176:
 4068 19bc E92CFFFF 		jmp	.L241
 4068      FF
 4069              	.L249:
 4070 19c1 4889C3   		movq	%rax, %rbx
 156:testHexIO.cpp **** 	bufDestroy(&data);
 4071              		.loc 4 156 0
 4072 19c4 E8000000 		call	__cxa_end_catch@PLT
 4072      00
 4073 19c9 4889D8   		movq	%rbx, %rax
 4074 19cc 4889C7   		movq	%rax, %rdi
 4075              	.LEHB177:
 4076 19cf E8000000 		call	_Unwind_Resume@PLT
 4076      00
 4077              	.LEHE177:
 4078              	.L250:
 4079              		.loc 4 158 0 is_stmt 1
 4080 19d4 E8000000 		call	__stack_chk_fail@PLT
 4080      00
 4081              	.L243:
 4082 19d9 488B5DF8 		movq	-8(%rbp), %rbx
 4083 19dd C9       		leave
 4084              		.cfi_def_cfa 7, 8
 4085 19de C3       		ret
 4086              		.cfi_endproc
 4087              	.LFE1191:
 4088              		.section	.gcc_except_table
 4089              		.align 4
 4090              	.LLSDA1191:
 4091 03e0 FF       		.byte	0xff
 4092 03e1 9B       		.byte	0x9b
 4093 03e2 51       		.uleb128 .LLSDATT1191-.LLSDATTD1191
 4094              	.LLSDATTD1191:
 4095 03e3 01       		.byte	0x1
 4096 03e4 44       		.uleb128 .LLSDACSE1191-.LLSDACSB1191
 4097              	.LLSDACSB1191:
 4098 03e5 4A       		.uleb128 .LEHB165-.LFB1191
 4099 03e6 05       		.uleb128 .LEHE165-.LEHB165
 4100 03e7 00       		.uleb128 0
 4101 03e8 00       		.uleb128 0
 4102 03e9 52       		.uleb128 .LEHB166-.LFB1191
 4103 03ea 1C       		.uleb128 .LEHE166-.LEHB166
 4104 03eb AC02     		.uleb128 .L244-.LFB1191
 4105 03ed 01       		.uleb128 0x1
 4106 03ee 75       		.uleb128 .LEHB167-.LFB1191
 4107 03ef 1C       		.uleb128 .LEHE167-.LEHB167
 4108 03f0 AA02     		.uleb128 .L245-.LFB1191
 4109 03f2 03       		.uleb128 0x3
 4110 03f3 BA01     		.uleb128 .LEHB168-.LFB1191
 4111 03f5 05       		.uleb128 .LEHE168-.LEHB168
 4112 03f6 00       		.uleb128 0
 4113 03f7 00       		.uleb128 0
 4114 03f8 C601     		.uleb128 .LEHB169-.LFB1191
 4115 03fa 1C       		.uleb128 .LEHE169-.LEHB169
 4116 03fb 8D03     		.uleb128 .L247-.LFB1191
 4117 03fd 01       		.uleb128 0x1
 4118 03fe E901     		.uleb128 .LEHB170-.LFB1191
 4119 0400 1C       		.uleb128 .LEHE170-.LEHB170
 4120 0401 8B03     		.uleb128 .L248-.LFB1191
 4121 0403 03       		.uleb128 0x3
 4122 0404 8C02     		.uleb128 .LEHB171-.LFB1191
 4123 0406 05       		.uleb128 .LEHE171-.LEHB171
 4124 0407 00       		.uleb128 0
 4125 0408 00       		.uleb128 0
 4126 0409 B402     		.uleb128 .LEHB172-.LFB1191
 4127 040b 3A       		.uleb128 .LEHE172-.LEHB172
 4128 040c F802     		.uleb128 .L246-.LFB1191
 4129 040e 00       		.uleb128 0
 4130 040f EE02     		.uleb128 .LEHB173-.LFB1191
 4131 0411 05       		.uleb128 .LEHE173-.LEHB173
 4132 0412 00       		.uleb128 0
 4133 0413 00       		.uleb128 0
 4134 0414 8603     		.uleb128 .LEHB174-.LFB1191
 4135 0416 05       		.uleb128 .LEHE174-.LEHB174
 4136 0417 00       		.uleb128 0
 4137 0418 00       		.uleb128 0
 4138 0419 9503     		.uleb128 .LEHB175-.LFB1191
 4139 041b 3A       		.uleb128 .LEHE175-.LEHB175
 4140 041c D903     		.uleb128 .L249-.LFB1191
 4141 041e 00       		.uleb128 0
 4142 041f CF03     		.uleb128 .LEHB176-.LFB1191
 4143 0421 05       		.uleb128 .LEHE176-.LEHB176
 4144 0422 00       		.uleb128 0
 4145 0423 00       		.uleb128 0
 4146 0424 E703     		.uleb128 .LEHB177-.LFB1191
 4147 0426 05       		.uleb128 .LEHE177-.LEHB177
 4148 0427 00       		.uleb128 0
 4149 0428 00       		.uleb128 0
 4150              	.LLSDACSE1191:
 4151 0429 01       		.byte	0x1
 4152 042a 00       		.byte	0
 4153 042b 00       		.byte	0
 4154 042c 7D       		.byte	0x7d
 4155 042d 000000   		.align 4
 4156 0430 00000000 		.long	0
 4157              	
 4158              	.LLSDATT1191:
 4159              		.text
 4161              		.section	.rodata
 4162              	.LC37:
 4163 05d6 48657849 		.string	"HexIO_testBadChecksum"
 4163      4F5F7465 
 4163      73744261 
 4163      64436865 
 4163      636B7375 
 4164              		.section	.text._ZN25TestHexIO_testBadChecksumC2Ev,"axG",@progbits,_ZN25TestHexIO_testBadChecksumC5
 4165              		.align 2
 4166              		.weak	_ZN25TestHexIO_testBadChecksumC2Ev
 4168              	_ZN25TestHexIO_testBadChecksumC2Ev:
 4169              	.LFB1193:
 159:testHexIO.cpp **** 
 160:testHexIO.cpp **** TEST(HexIO_testBadChecksum) {
 4170              		.loc 4 160 0
 4171              		.cfi_startproc
 4172 0000 55       		pushq	%rbp
 4173              		.cfi_def_cfa_offset 16
 4174              		.cfi_offset 6, -16
 4175 0001 4889E5   		movq	%rsp, %rbp
 4176              		.cfi_def_cfa_register 6
 4177 0004 53       		pushq	%rbx
 4178 0005 4883EC18 		subq	$24, %rsp
 4179              		.cfi_offset 3, -24
 4180 0009 48897DE8 		movq	%rdi, -24(%rbp)
 4181              	.LBB13:
 4182              		.loc 4 160 0
 4183 000d 488B5DE8 		movq	-24(%rbp), %rbx
 4184 0011 E8000000 		call	_ZN13UnitTestSuite12GetSuiteNameEv
 4184      00
 4185 0016 41B8A000 		movl	$160, %r8d
 4185      0000
 4186 001c 488D0D00 		leaq	.LC1(%rip), %rcx
 4186      000000
 4187 0023 4889C2   		movq	%rax, %rdx
 4188 0026 488D3500 		leaq	.LC37(%rip), %rsi
 4188      000000
 4189 002d 4889DF   		movq	%rbx, %rdi
 4190 0030 E8000000 		call	_ZN8UnitTest4TestC2EPKcS2_S2_i@PLT
 4190      00
 4191 0035 488D1500 		leaq	16+_ZTV25TestHexIO_testBadChecksum(%rip), %rdx
 4191      000000
 4192 003c 488B45E8 		movq	-24(%rbp), %rax
 4193 0040 488910   		movq	%rdx, (%rax)
 4194              	.LBE13:
 4195 0043 90       		nop
 4196 0044 4883C418 		addq	$24, %rsp
 4197 0048 5B       		popq	%rbx
 4198 0049 5D       		popq	%rbp
 4199              		.cfi_def_cfa 7, 8
 4200 004a C3       		ret
 4201              		.cfi_endproc
 4202              	.LFE1193:
 4204              		.weak	_ZN25TestHexIO_testBadChecksumC1Ev
 4205              		.set	_ZN25TestHexIO_testBadChecksumC1Ev,_ZN25TestHexIO_testBadChecksumC2Ev
 4206              		.globl	testHexIO_testBadChecksumInstance
 4207              		.bss
 4208 0239 00000000 		.align 32
 4208      000000
 4211              	testHexIO_testBadChecksumInstance:
 4212 0240 00000000 		.zero	56
 4212      00000000 
 4212      00000000 
 4212      00000000 
 4212      00000000 
 4213              		.globl	adderHexIO_testBadChecksum
 4216              	adderHexIO_testBadChecksum:
 4217 0278 00       		.zero	1
 4218              		.section	.rodata
 4219              	.LC38:
 4220 05ec 3A303430 		.string	":040BE10075820022F8\n"
 4220      42453130 
 4220      30373538 
 4220      32303032 
 4220      3246380A 
 4221 0601 00000000 		.align 8
 4221      000000
 4222              	.LC39:
 4223 0608 556E6861 		.string	"Unhandled exception in CHECK_EQUAL(HEX_BAD_CHECKSUM, status)"
 4223      6E646C65 
 4223      64206578 
 4223      63657074 
 4223      696F6E20 
 4224              		.text
 4225 19df 90       		.align 2
 4226              		.globl	_ZNK25TestHexIO_testBadChecksum7RunImplEv
 4228              	_ZNK25TestHexIO_testBadChecksum7RunImplEv:
 4229              	.LFB1195:
 4230              		.loc 4 160 0
 4231              		.cfi_startproc
 4232              		.cfi_personality 0x9b,DW.ref.__gxx_personality_v0
 4233              		.cfi_lsda 0x1b,.LLSDA1195
 4234 19e0 55       		pushq	%rbp
 4235              		.cfi_def_cfa_offset 16
 4236              		.cfi_offset 6, -16
 4237 19e1 4889E5   		movq	%rsp, %rbp
 4238              		.cfi_def_cfa_register 6
 4239 19e4 53       		pushq	%rbx
 4240 19e5 4881EC88 		subq	$136, %rsp
 4240      000000
 4241              		.cfi_offset 3, -24
 4242 19ec 4889BD78 		movq	%rdi, -136(%rbp)
 4242      FFFFFF
 4243              		.loc 4 160 0
 4244 19f3 64488B04 		movq	%fs:40, %rax
 4244      25280000 
 4244      00
 4245 19fc 488945E8 		movq	%rax, -24(%rbp)
 4246 1a00 31C0     		xorl	%eax, %eax
 161:testHexIO.cpp **** 	Buffer data;
 162:testHexIO.cpp **** 	BufferStatus status;
 163:testHexIO.cpp **** 	const char *line = ":040BE10075820022F8\n";
 4247              		.loc 4 163 0
 4248 1a02 488D0500 		leaq	.LC38(%rip), %rax
 4248      000000
 4249 1a09 48894598 		movq	%rax, -104(%rbp)
 164:testHexIO.cpp **** 	uint8 recordType;
 165:testHexIO.cpp **** 	uint32 seg = 0x00000000;
 4250              		.loc 4 165 0
 4251 1a0d C7459000 		movl	$0, -112(%rbp)
 4251      000000
 166:testHexIO.cpp **** 	status = bufInitialise(&data, 1024, 0x00, NULL);
 4252              		.loc 4 166 0
 4253 1a14 488D45A0 		leaq	-96(%rbp), %rax
 4254 1a18 B9000000 		movl	$0, %ecx
 4254      00
 4255 1a1d BA000000 		movl	$0, %edx
 4255      00
 4256 1a22 BE000400 		movl	$1024, %esi
 4256      00
 4257 1a27 4889C7   		movq	%rax, %rdi
 4258              	.LEHB178:
 4259 1a2a E8000000 		call	bufInitialise@PLT
 4259      00
 4260              	.LEHE178:
 4261 1a2f 89458C   		movl	%eax, -116(%rbp)
 4262              	.LEHB179:
 167:testHexIO.cpp **** 	CHECK_EQUAL(BUF_SUCCESS, status);
 4263              		.loc 4 167 0
 4264 1a32 E8000000 		call	_ZN8UnitTest11CurrentTest7DetailsEv@PLT
 4264      00
 4265 1a37 488B08   		movq	(%rax), %rcx
 4266 1a3a 488D45C0 		leaq	-64(%rbp), %rax
 4267 1a3e BAA70000 		movl	$167, %edx
 4267      00
 4268 1a43 4889CE   		movq	%rcx, %rsi
 4269 1a46 4889C7   		movq	%rax, %rdi
 4270 1a49 E8000000 		call	_ZN8UnitTest11TestDetailsC1ERKS0_i@PLT
 4270      00
 4271              	.LEHE179:
 4272              		.loc 4 167 0 is_stmt 0 discriminator 2
 4273 1a4e C7459400 		movl	$0, -108(%rbp)
 4273      000000
 4274              	.LEHB180:
 4275 1a55 E8000000 		call	_ZN8UnitTest11CurrentTest7ResultsEv@PLT
 4275      00
 4276 1a5a 488B00   		movq	(%rax), %rax
 4277 1a5d 488D4DC0 		leaq	-64(%rbp), %rcx
 4278 1a61 488D558C 		leaq	-116(%rbp), %rdx
 4279 1a65 488D7594 		leaq	-108(%rbp), %rsi
 4280 1a69 4889C7   		movq	%rax, %rdi
 4281 1a6c E8000000 		call	_ZN8UnitTest10CheckEqualI12BufferStatusS1_EEvRNS_11TestResultsERKT_RKT0_RKNS_11TestDetailsE
 4281      00
 4282              	.LEHE180:
 4283              	.L255:
 168:testHexIO.cpp **** 	status = bufProcessLine(line, 0, &data, NULL, &seg, &recordType, NULL);
 4284              		.loc 4 168 0 is_stmt 1
 4285 1a71 488D758B 		leaq	-117(%rbp), %rsi
 4286 1a75 488D4D90 		leaq	-112(%rbp), %rcx
 4287 1a79 488D55A0 		leaq	-96(%rbp), %rdx
 4288 1a7d 488B4598 		movq	-104(%rbp), %rax
 4289 1a81 4883EC08 		subq	$8, %rsp
 4290 1a85 6A00     		pushq	$0
 4291 1a87 4989F1   		movq	%rsi, %r9
 4292 1a8a 4989C8   		movq	%rcx, %r8
 4293 1a8d B9000000 		movl	$0, %ecx
 4293      00
 4294 1a92 BE000000 		movl	$0, %esi
 4294      00
 4295 1a97 4889C7   		movq	%rax, %rdi
 4296              	.LEHB181:
 4297 1a9a E8000000 		call	bufProcessLine@PLT
 4297      00
 4298              	.LEHE181:
 4299 1a9f 4883C410 		addq	$16, %rsp
 4300 1aa3 89458C   		movl	%eax, -116(%rbp)
 4301              	.LEHB182:
 169:testHexIO.cpp **** 	CHECK_EQUAL(HEX_BAD_CHECKSUM, status);
 4302              		.loc 4 169 0
 4303 1aa6 E8000000 		call	_ZN8UnitTest11CurrentTest7DetailsEv@PLT
 4303      00
 4304 1aab 488B08   		movq	(%rax), %rcx
 4305 1aae 488D45C0 		leaq	-64(%rbp), %rax
 4306 1ab2 BAA90000 		movl	$169, %edx
 4306      00
 4307 1ab7 4889CE   		movq	%rcx, %rsi
 4308 1aba 4889C7   		movq	%rax, %rdi
 4309 1abd E8000000 		call	_ZN8UnitTest11TestDetailsC1ERKS0_i@PLT
 4309      00
 4310              	.LEHE182:
 4311              		.loc 4 169 0 is_stmt 0 discriminator 2
 4312 1ac2 C7459410 		movl	$16, -108(%rbp)
 4312      000000
 4313              	.LEHB183:
 4314 1ac9 E8000000 		call	_ZN8UnitTest11CurrentTest7ResultsEv@PLT
 4314      00
 4315 1ace 488B00   		movq	(%rax), %rax
 4316 1ad1 488D4DC0 		leaq	-64(%rbp), %rcx
 4317 1ad5 488D558C 		leaq	-116(%rbp), %rdx
 4318 1ad9 488D7594 		leaq	-108(%rbp), %rsi
 4319 1add 4889C7   		movq	%rax, %rdi
 4320 1ae0 E8000000 		call	_ZN8UnitTest10CheckEqualI12BufferStatusS1_EEvRNS_11TestResultsERKT_RKT0_RKNS_11TestDetailsE
 4320      00
 4321              	.LEHE183:
 4322              	.L259:
 170:testHexIO.cpp **** 	bufDestroy(&data);
 4323              		.loc 4 170 0 is_stmt 1
 4324 1ae5 488D45A0 		leaq	-96(%rbp), %rax
 4325 1ae9 4889C7   		movq	%rax, %rdi
 4326              	.LEHB184:
 4327 1aec E8000000 		call	bufDestroy@PLT
 4327      00
 4328              	.LEHE184:
 171:testHexIO.cpp **** }
 4329              		.loc 4 171 0
 4330 1af1 90       		nop
 4331 1af2 488B45E8 		movq	-24(%rbp), %rax
 4332 1af6 64483304 		xorq	%fs:40, %rax
 4332      25280000 
 4332      00
 4333 1aff 0F84CC00 		je	.L261
 4333      0000
 4334 1b05 E9C20000 		jmp	.L268
 4334      00
 4335              	.L263:
 4336 1b0a EB00     		jmp	.L254
 4337              	.L262:
 4338              	.L254:
 167:testHexIO.cpp **** 	status = bufProcessLine(line, 0, &data, NULL, &seg, &recordType, NULL);
 4339              		.loc 4 167 0
 4340 1b0c 4889C7   		movq	%rax, %rdi
 4341 1b0f E8000000 		call	__cxa_begin_catch@PLT
 4341      00
 4342              	.LEHB185:
 4343 1b14 E8000000 		call	_ZN8UnitTest11CurrentTest7ResultsEv@PLT
 4343      00
 4344 1b19 488B18   		movq	(%rax), %rbx
 4345 1b1c E8000000 		call	_ZN8UnitTest11CurrentTest7DetailsEv@PLT
 4345      00
 167:testHexIO.cpp **** 	status = bufProcessLine(line, 0, &data, NULL, &seg, &recordType, NULL);
 4346              		.loc 4 167 0 is_stmt 0 discriminator 8
 4347 1b21 488B08   		movq	(%rax), %rcx
 4348 1b24 488D45C0 		leaq	-64(%rbp), %rax
 4349 1b28 BAA70000 		movl	$167, %edx
 4349      00
 4350 1b2d 4889CE   		movq	%rcx, %rsi
 4351 1b30 4889C7   		movq	%rax, %rdi
 4352 1b33 E8000000 		call	_ZN8UnitTest11TestDetailsC1ERKS0_i@PLT
 4352      00
 167:testHexIO.cpp **** 	status = bufProcessLine(line, 0, &data, NULL, &seg, &recordType, NULL);
 4353              		.loc 4 167 0 discriminator 12
 4354 1b38 488D45C0 		leaq	-64(%rbp), %rax
 4355 1b3c 488D1500 		leaq	.LC4(%rip), %rdx
 4355      000000
 4356 1b43 4889C6   		movq	%rax, %rsi
 4357 1b46 4889DF   		movq	%rbx, %rdi
 4358 1b49 E8000000 		call	_ZN8UnitTest11TestResults13OnTestFailureERKNS_11TestDetailsEPKc@PLT
 4358      00
 4359              	.LEHE185:
 4360              	.LEHB186:
 167:testHexIO.cpp **** 	status = bufProcessLine(line, 0, &data, NULL, &seg, &recordType, NULL);
 4361              		.loc 4 167 0 discriminator 14
 4362 1b4e E8000000 		call	__cxa_end_catch@PLT
 4362      00
 4363              	.LEHE186:
 4364 1b53 E919FFFF 		jmp	.L255
 4364      FF
 4365              	.L264:
 4366 1b58 4889C3   		movq	%rax, %rbx
 167:testHexIO.cpp **** 	status = bufProcessLine(line, 0, &data, NULL, &seg, &recordType, NULL);
 4367              		.loc 4 167 0
 4368 1b5b E8000000 		call	__cxa_end_catch@PLT
 4368      00
 4369 1b60 4889D8   		movq	%rbx, %rax
 4370 1b63 4889C7   		movq	%rax, %rdi
 4371              	.LEHB187:
 4372 1b66 E8000000 		call	_Unwind_Resume@PLT
 4372      00
 4373              	.LEHE187:
 4374              	.L266:
 4375 1b6b EB00     		jmp	.L258
 4376              	.L265:
 4377              	.L258:
 169:testHexIO.cpp **** 	bufDestroy(&data);
 4378              		.loc 4 169 0 is_stmt 1
 4379 1b6d 4889C7   		movq	%rax, %rdi
 4380 1b70 E8000000 		call	__cxa_begin_catch@PLT
 4380      00
 4381              	.LEHB188:
 4382 1b75 E8000000 		call	_ZN8UnitTest11CurrentTest7ResultsEv@PLT
 4382      00
 4383 1b7a 488B18   		movq	(%rax), %rbx
 4384 1b7d E8000000 		call	_ZN8UnitTest11CurrentTest7DetailsEv@PLT
 4384      00
 169:testHexIO.cpp **** 	bufDestroy(&data);
 4385              		.loc 4 169 0 is_stmt 0 discriminator 8
 4386 1b82 488B08   		movq	(%rax), %rcx
 4387 1b85 488D45C0 		leaq	-64(%rbp), %rax
 4388 1b89 BAA90000 		movl	$169, %edx
 4388      00
 4389 1b8e 4889CE   		movq	%rcx, %rsi
 4390 1b91 4889C7   		movq	%rax, %rdi
 4391 1b94 E8000000 		call	_ZN8UnitTest11TestDetailsC1ERKS0_i@PLT
 4391      00
 169:testHexIO.cpp **** 	bufDestroy(&data);
 4392              		.loc 4 169 0 discriminator 12
 4393 1b99 488D45C0 		leaq	-64(%rbp), %rax
 4394 1b9d 488D1500 		leaq	.LC39(%rip), %rdx
 4394      000000
 4395 1ba4 4889C6   		movq	%rax, %rsi
 4396 1ba7 4889DF   		movq	%rbx, %rdi
 4397 1baa E8000000 		call	_ZN8UnitTest11TestResults13OnTestFailureERKNS_11TestDetailsEPKc@PLT
 4397      00
 4398              	.LEHE188:
 4399              	.LEHB189:
 169:testHexIO.cpp **** 	bufDestroy(&data);
 4400              		.loc 4 169 0 discriminator 14
 4401 1baf E8000000 		call	__cxa_end_catch@PLT
 4401      00
 4402              	.LEHE189:
 4403 1bb4 E92CFFFF 		jmp	.L259
 4403      FF
 4404              	.L267:
 4405 1bb9 4889C3   		movq	%rax, %rbx
 169:testHexIO.cpp **** 	bufDestroy(&data);
 4406              		.loc 4 169 0
 4407 1bbc E8000000 		call	__cxa_end_catch@PLT
 4407      00
 4408 1bc1 4889D8   		movq	%rbx, %rax
 4409 1bc4 4889C7   		movq	%rax, %rdi
 4410              	.LEHB190:
 4411 1bc7 E8000000 		call	_Unwind_Resume@PLT
 4411      00
 4412              	.LEHE190:
 4413              	.L268:
 4414              		.loc 4 171 0 is_stmt 1
 4415 1bcc E8000000 		call	__stack_chk_fail@PLT
 4415      00
 4416              	.L261:
 4417 1bd1 488B5DF8 		movq	-8(%rbp), %rbx
 4418 1bd5 C9       		leave
 4419              		.cfi_def_cfa 7, 8
 4420 1bd6 C3       		ret
 4421              		.cfi_endproc
 4422              	.LFE1195:
 4423              		.section	.gcc_except_table
 4424              		.align 4
 4425              	.LLSDA1195:
 4426 0434 FF       		.byte	0xff
 4427 0435 9B       		.byte	0x9b
 4428 0436 51       		.uleb128 .LLSDATT1195-.LLSDATTD1195
 4429              	.LLSDATTD1195:
 4430 0437 01       		.byte	0x1
 4431 0438 44       		.uleb128 .LLSDACSE1195-.LLSDACSB1195
 4432              	.LLSDACSB1195:
 4433 0439 4A       		.uleb128 .LEHB178-.LFB1195
 4434 043a 05       		.uleb128 .LEHE178-.LEHB178
 4435 043b 00       		.uleb128 0
 4436 043c 00       		.uleb128 0
 4437 043d 52       		.uleb128 .LEHB179-.LFB1195
 4438 043e 1C       		.uleb128 .LEHE179-.LEHB179
 4439 043f AC02     		.uleb128 .L262-.LFB1195
 4440 0441 01       		.uleb128 0x1
 4441 0442 75       		.uleb128 .LEHB180-.LFB1195
 4442 0443 1C       		.uleb128 .LEHE180-.LEHB180
 4443 0444 AA02     		.uleb128 .L263-.LFB1195
 4444 0446 03       		.uleb128 0x3
 4445 0447 BA01     		.uleb128 .LEHB181-.LFB1195
 4446 0449 05       		.uleb128 .LEHE181-.LEHB181
 4447 044a 00       		.uleb128 0
 4448 044b 00       		.uleb128 0
 4449 044c C601     		.uleb128 .LEHB182-.LFB1195
 4450 044e 1C       		.uleb128 .LEHE182-.LEHB182
 4451 044f 8D03     		.uleb128 .L265-.LFB1195
 4452 0451 01       		.uleb128 0x1
 4453 0452 E901     		.uleb128 .LEHB183-.LFB1195
 4454 0454 1C       		.uleb128 .LEHE183-.LEHB183
 4455 0455 8B03     		.uleb128 .L266-.LFB1195
 4456 0457 03       		.uleb128 0x3
 4457 0458 8C02     		.uleb128 .LEHB184-.LFB1195
 4458 045a 05       		.uleb128 .LEHE184-.LEHB184
 4459 045b 00       		.uleb128 0
 4460 045c 00       		.uleb128 0
 4461 045d B402     		.uleb128 .LEHB185-.LFB1195
 4462 045f 3A       		.uleb128 .LEHE185-.LEHB185
 4463 0460 F802     		.uleb128 .L264-.LFB1195
 4464 0462 00       		.uleb128 0
 4465 0463 EE02     		.uleb128 .LEHB186-.LFB1195
 4466 0465 05       		.uleb128 .LEHE186-.LEHB186
 4467 0466 00       		.uleb128 0
 4468 0467 00       		.uleb128 0
 4469 0468 8603     		.uleb128 .LEHB187-.LFB1195
 4470 046a 05       		.uleb128 .LEHE187-.LEHB187
 4471 046b 00       		.uleb128 0
 4472 046c 00       		.uleb128 0
 4473 046d 9503     		.uleb128 .LEHB188-.LFB1195
 4474 046f 3A       		.uleb128 .LEHE188-.LEHB188
 4475 0470 D903     		.uleb128 .L267-.LFB1195
 4476 0472 00       		.uleb128 0
 4477 0473 CF03     		.uleb128 .LEHB189-.LFB1195
 4478 0475 05       		.uleb128 .LEHE189-.LEHB189
 4479 0476 00       		.uleb128 0
 4480 0477 00       		.uleb128 0
 4481 0478 E703     		.uleb128 .LEHB190-.LFB1195
 4482 047a 05       		.uleb128 .LEHE190-.LEHB190
 4483 047b 00       		.uleb128 0
 4484 047c 00       		.uleb128 0
 4485              	.LLSDACSE1195:
 4486 047d 01       		.byte	0x1
 4487 047e 00       		.byte	0
 4488 047f 00       		.byte	0
 4489 0480 7D       		.byte	0x7d
 4490 0481 000000   		.align 4
 4491 0484 00000000 		.long	0
 4492              	
 4493              	.LLSDATT1195:
 4494              		.text
 4496              		.section	.rodata
 4497              	.LC40:
 4498 0645 48657849 		.string	"HexIO_testCorruptLine"
 4498      4F5F7465 
 4498      7374436F 
 4498      72727570 
 4498      744C696E 
 4499              		.section	.text._ZN25TestHexIO_testCorruptLineC2Ev,"axG",@progbits,_ZN25TestHexIO_testCorruptLineC5
 4500              		.align 2
 4501              		.weak	_ZN25TestHexIO_testCorruptLineC2Ev
 4503              	_ZN25TestHexIO_testCorruptLineC2Ev:
 4504              	.LFB1197:
 172:testHexIO.cpp **** 
 173:testHexIO.cpp **** TEST(HexIO_testCorruptLine) {
 4505              		.loc 4 173 0
 4506              		.cfi_startproc
 4507 0000 55       		pushq	%rbp
 4508              		.cfi_def_cfa_offset 16
 4509              		.cfi_offset 6, -16
 4510 0001 4889E5   		movq	%rsp, %rbp
 4511              		.cfi_def_cfa_register 6
 4512 0004 53       		pushq	%rbx
 4513 0005 4883EC18 		subq	$24, %rsp
 4514              		.cfi_offset 3, -24
 4515 0009 48897DE8 		movq	%rdi, -24(%rbp)
 4516              	.LBB14:
 4517              		.loc 4 173 0
 4518 000d 488B5DE8 		movq	-24(%rbp), %rbx
 4519 0011 E8000000 		call	_ZN13UnitTestSuite12GetSuiteNameEv
 4519      00
 4520 0016 41B8AD00 		movl	$173, %r8d
 4520      0000
 4521 001c 488D0D00 		leaq	.LC1(%rip), %rcx
 4521      000000
 4522 0023 4889C2   		movq	%rax, %rdx
 4523 0026 488D3500 		leaq	.LC40(%rip), %rsi
 4523      000000
 4524 002d 4889DF   		movq	%rbx, %rdi
 4525 0030 E8000000 		call	_ZN8UnitTest4TestC2EPKcS2_S2_i@PLT
 4525      00
 4526 0035 488D1500 		leaq	16+_ZTV25TestHexIO_testCorruptLine(%rip), %rdx
 4526      000000
 4527 003c 488B45E8 		movq	-24(%rbp), %rax
 4528 0040 488910   		movq	%rdx, (%rax)
 4529              	.LBE14:
 4530 0043 90       		nop
 4531 0044 4883C418 		addq	$24, %rsp
 4532 0048 5B       		popq	%rbx
 4533 0049 5D       		popq	%rbp
 4534              		.cfi_def_cfa 7, 8
 4535 004a C3       		ret
 4536              		.cfi_endproc
 4537              	.LFE1197:
 4539              		.weak	_ZN25TestHexIO_testCorruptLineC1Ev
 4540              		.set	_ZN25TestHexIO_testCorruptLineC1Ev,_ZN25TestHexIO_testCorruptLineC2Ev
 4541              		.globl	testHexIO_testCorruptLineInstance
 4542              		.bss
 4543 0279 00000000 		.align 32
 4543      000000
 4546              	testHexIO_testCorruptLineInstance:
 4547 0280 00000000 		.zero	56
 4547      00000000 
 4547      00000000 
 4547      00000000 
 4547      00000000 
 4548              		.globl	adderHexIO_testCorruptLine
 4551              	adderHexIO_testCorruptLine:
 4552 02b8 00       		.zero	1
 4553              		.section	.rodata
 4554              	.LC41:
 4555 065b 3A303430 		.string	":040BE10075820022F7 \n"
 4555      42453130 
 4555      30373538 
 4555      32303032 
 4555      32463720 
 4556 0671 00000000 		.align 8
 4556      000000
 4557              	.LC42:
 4558 0678 556E6861 		.string	"Unhandled exception in CHECK_EQUAL(HEX_CORRUPT_LINE, status)"
 4558      6E646C65 
 4558      64206578 
 4558      63657074 
 4558      696F6E20 
 4559              		.text
 4560 1bd7 90       		.align 2
 4561              		.globl	_ZNK25TestHexIO_testCorruptLine7RunImplEv
 4563              	_ZNK25TestHexIO_testCorruptLine7RunImplEv:
 4564              	.LFB1199:
 4565              		.loc 4 173 0
 4566              		.cfi_startproc
 4567              		.cfi_personality 0x9b,DW.ref.__gxx_personality_v0
 4568              		.cfi_lsda 0x1b,.LLSDA1199
 4569 1bd8 55       		pushq	%rbp
 4570              		.cfi_def_cfa_offset 16
 4571              		.cfi_offset 6, -16
 4572 1bd9 4889E5   		movq	%rsp, %rbp
 4573              		.cfi_def_cfa_register 6
 4574 1bdc 53       		pushq	%rbx
 4575 1bdd 4881EC88 		subq	$136, %rsp
 4575      000000
 4576              		.cfi_offset 3, -24
 4577 1be4 4889BD78 		movq	%rdi, -136(%rbp)
 4577      FFFFFF
 4578              		.loc 4 173 0
 4579 1beb 64488B04 		movq	%fs:40, %rax
 4579      25280000 
 4579      00
 4580 1bf4 488945E8 		movq	%rax, -24(%rbp)
 4581 1bf8 31C0     		xorl	%eax, %eax
 174:testHexIO.cpp **** 	Buffer data;
 175:testHexIO.cpp **** 	BufferStatus status;
 176:testHexIO.cpp **** 	const char *line = ":040BE10075820022F7 \n";
 4582              		.loc 4 176 0
 4583 1bfa 488D0500 		leaq	.LC41(%rip), %rax
 4583      000000
 4584 1c01 48894598 		movq	%rax, -104(%rbp)
 177:testHexIO.cpp **** 	uint8 recordType;
 178:testHexIO.cpp **** 	uint32 seg = 0x00000000;
 4585              		.loc 4 178 0
 4586 1c05 C7459000 		movl	$0, -112(%rbp)
 4586      000000
 179:testHexIO.cpp **** 	status = bufInitialise(&data, 1024, 0x00, NULL);
 4587              		.loc 4 179 0
 4588 1c0c 488D45A0 		leaq	-96(%rbp), %rax
 4589 1c10 B9000000 		movl	$0, %ecx
 4589      00
 4590 1c15 BA000000 		movl	$0, %edx
 4590      00
 4591 1c1a BE000400 		movl	$1024, %esi
 4591      00
 4592 1c1f 4889C7   		movq	%rax, %rdi
 4593              	.LEHB191:
 4594 1c22 E8000000 		call	bufInitialise@PLT
 4594      00
 4595              	.LEHE191:
 4596 1c27 89458C   		movl	%eax, -116(%rbp)
 4597              	.LEHB192:
 180:testHexIO.cpp **** 	CHECK_EQUAL(BUF_SUCCESS, status);
 4598              		.loc 4 180 0
 4599 1c2a E8000000 		call	_ZN8UnitTest11CurrentTest7DetailsEv@PLT
 4599      00
 4600 1c2f 488B08   		movq	(%rax), %rcx
 4601 1c32 488D45C0 		leaq	-64(%rbp), %rax
 4602 1c36 BAB40000 		movl	$180, %edx
 4602      00
 4603 1c3b 4889CE   		movq	%rcx, %rsi
 4604 1c3e 4889C7   		movq	%rax, %rdi
 4605 1c41 E8000000 		call	_ZN8UnitTest11TestDetailsC1ERKS0_i@PLT
 4605      00
 4606              	.LEHE192:
 4607              		.loc 4 180 0 is_stmt 0 discriminator 2
 4608 1c46 C7459400 		movl	$0, -108(%rbp)
 4608      000000
 4609              	.LEHB193:
 4610 1c4d E8000000 		call	_ZN8UnitTest11CurrentTest7ResultsEv@PLT
 4610      00
 4611 1c52 488B00   		movq	(%rax), %rax
 4612 1c55 488D4DC0 		leaq	-64(%rbp), %rcx
 4613 1c59 488D558C 		leaq	-116(%rbp), %rdx
 4614 1c5d 488D7594 		leaq	-108(%rbp), %rsi
 4615 1c61 4889C7   		movq	%rax, %rdi
 4616 1c64 E8000000 		call	_ZN8UnitTest10CheckEqualI12BufferStatusS1_EEvRNS_11TestResultsERKT_RKT0_RKNS_11TestDetailsE
 4616      00
 4617              	.LEHE193:
 4618              	.L273:
 181:testHexIO.cpp **** 	status = bufProcessLine(line, 0, &data, NULL, &seg, &recordType, NULL);
 4619              		.loc 4 181 0 is_stmt 1
 4620 1c69 488D758B 		leaq	-117(%rbp), %rsi
 4621 1c6d 488D4D90 		leaq	-112(%rbp), %rcx
 4622 1c71 488D55A0 		leaq	-96(%rbp), %rdx
 4623 1c75 488B4598 		movq	-104(%rbp), %rax
 4624 1c79 4883EC08 		subq	$8, %rsp
 4625 1c7d 6A00     		pushq	$0
 4626 1c7f 4989F1   		movq	%rsi, %r9
 4627 1c82 4989C8   		movq	%rcx, %r8
 4628 1c85 B9000000 		movl	$0, %ecx
 4628      00
 4629 1c8a BE000000 		movl	$0, %esi
 4629      00
 4630 1c8f 4889C7   		movq	%rax, %rdi
 4631              	.LEHB194:
 4632 1c92 E8000000 		call	bufProcessLine@PLT
 4632      00
 4633              	.LEHE194:
 4634 1c97 4883C410 		addq	$16, %rsp
 4635 1c9b 89458C   		movl	%eax, -116(%rbp)
 4636              	.LEHB195:
 182:testHexIO.cpp **** 	CHECK_EQUAL(HEX_CORRUPT_LINE, status);
 4637              		.loc 4 182 0
 4638 1c9e E8000000 		call	_ZN8UnitTest11CurrentTest7DetailsEv@PLT
 4638      00
 4639 1ca3 488B08   		movq	(%rax), %rcx
 4640 1ca6 488D45C0 		leaq	-64(%rbp), %rax
 4641 1caa BAB60000 		movl	$182, %edx
 4641      00
 4642 1caf 4889CE   		movq	%rcx, %rsi
 4643 1cb2 4889C7   		movq	%rax, %rdi
 4644 1cb5 E8000000 		call	_ZN8UnitTest11TestDetailsC1ERKS0_i@PLT
 4644      00
 4645              	.LEHE195:
 4646              		.loc 4 182 0 is_stmt 0 discriminator 2
 4647 1cba C7459411 		movl	$17, -108(%rbp)
 4647      000000
 4648              	.LEHB196:
 4649 1cc1 E8000000 		call	_ZN8UnitTest11CurrentTest7ResultsEv@PLT
 4649      00
 4650 1cc6 488B00   		movq	(%rax), %rax
 4651 1cc9 488D4DC0 		leaq	-64(%rbp), %rcx
 4652 1ccd 488D558C 		leaq	-116(%rbp), %rdx
 4653 1cd1 488D7594 		leaq	-108(%rbp), %rsi
 4654 1cd5 4889C7   		movq	%rax, %rdi
 4655 1cd8 E8000000 		call	_ZN8UnitTest10CheckEqualI12BufferStatusS1_EEvRNS_11TestResultsERKT_RKT0_RKNS_11TestDetailsE
 4655      00
 4656              	.LEHE196:
 4657              	.L277:
 183:testHexIO.cpp **** 	bufDestroy(&data);
 4658              		.loc 4 183 0 is_stmt 1
 4659 1cdd 488D45A0 		leaq	-96(%rbp), %rax
 4660 1ce1 4889C7   		movq	%rax, %rdi
 4661              	.LEHB197:
 4662 1ce4 E8000000 		call	bufDestroy@PLT
 4662      00
 4663              	.LEHE197:
 184:testHexIO.cpp **** }
 4664              		.loc 4 184 0
 4665 1ce9 90       		nop
 4666 1cea 488B45E8 		movq	-24(%rbp), %rax
 4667 1cee 64483304 		xorq	%fs:40, %rax
 4667      25280000 
 4667      00
 4668 1cf7 0F84CC00 		je	.L279
 4668      0000
 4669 1cfd E9C20000 		jmp	.L286
 4669      00
 4670              	.L281:
 4671 1d02 EB00     		jmp	.L272
 4672              	.L280:
 4673              	.L272:
 180:testHexIO.cpp **** 	status = bufProcessLine(line, 0, &data, NULL, &seg, &recordType, NULL);
 4674              		.loc 4 180 0
 4675 1d04 4889C7   		movq	%rax, %rdi
 4676 1d07 E8000000 		call	__cxa_begin_catch@PLT
 4676      00
 4677              	.LEHB198:
 4678 1d0c E8000000 		call	_ZN8UnitTest11CurrentTest7ResultsEv@PLT
 4678      00
 4679 1d11 488B18   		movq	(%rax), %rbx
 4680 1d14 E8000000 		call	_ZN8UnitTest11CurrentTest7DetailsEv@PLT
 4680      00
 180:testHexIO.cpp **** 	status = bufProcessLine(line, 0, &data, NULL, &seg, &recordType, NULL);
 4681              		.loc 4 180 0 is_stmt 0 discriminator 8
 4682 1d19 488B08   		movq	(%rax), %rcx
 4683 1d1c 488D45C0 		leaq	-64(%rbp), %rax
 4684 1d20 BAB40000 		movl	$180, %edx
 4684      00
 4685 1d25 4889CE   		movq	%rcx, %rsi
 4686 1d28 4889C7   		movq	%rax, %rdi
 4687 1d2b E8000000 		call	_ZN8UnitTest11TestDetailsC1ERKS0_i@PLT
 4687      00
 180:testHexIO.cpp **** 	status = bufProcessLine(line, 0, &data, NULL, &seg, &recordType, NULL);
 4688              		.loc 4 180 0 discriminator 12
 4689 1d30 488D45C0 		leaq	-64(%rbp), %rax
 4690 1d34 488D1500 		leaq	.LC4(%rip), %rdx
 4690      000000
 4691 1d3b 4889C6   		movq	%rax, %rsi
 4692 1d3e 4889DF   		movq	%rbx, %rdi
 4693 1d41 E8000000 		call	_ZN8UnitTest11TestResults13OnTestFailureERKNS_11TestDetailsEPKc@PLT
 4693      00
 4694              	.LEHE198:
 4695              	.LEHB199:
 180:testHexIO.cpp **** 	status = bufProcessLine(line, 0, &data, NULL, &seg, &recordType, NULL);
 4696              		.loc 4 180 0 discriminator 14
 4697 1d46 E8000000 		call	__cxa_end_catch@PLT
 4697      00
 4698              	.LEHE199:
 4699 1d4b E919FFFF 		jmp	.L273
 4699      FF
 4700              	.L282:
 4701 1d50 4889C3   		movq	%rax, %rbx
 180:testHexIO.cpp **** 	status = bufProcessLine(line, 0, &data, NULL, &seg, &recordType, NULL);
 4702              		.loc 4 180 0
 4703 1d53 E8000000 		call	__cxa_end_catch@PLT
 4703      00
 4704 1d58 4889D8   		movq	%rbx, %rax
 4705 1d5b 4889C7   		movq	%rax, %rdi
 4706              	.LEHB200:
 4707 1d5e E8000000 		call	_Unwind_Resume@PLT
 4707      00
 4708              	.LEHE200:
 4709              	.L284:
 4710 1d63 EB00     		jmp	.L276
 4711              	.L283:
 4712              	.L276:
 182:testHexIO.cpp **** 	bufDestroy(&data);
 4713              		.loc 4 182 0 is_stmt 1
 4714 1d65 4889C7   		movq	%rax, %rdi
 4715 1d68 E8000000 		call	__cxa_begin_catch@PLT
 4715      00
 4716              	.LEHB201:
 4717 1d6d E8000000 		call	_ZN8UnitTest11CurrentTest7ResultsEv@PLT
 4717      00
 4718 1d72 488B18   		movq	(%rax), %rbx
 4719 1d75 E8000000 		call	_ZN8UnitTest11CurrentTest7DetailsEv@PLT
 4719      00
 182:testHexIO.cpp **** 	bufDestroy(&data);
 4720              		.loc 4 182 0 is_stmt 0 discriminator 8
 4721 1d7a 488B08   		movq	(%rax), %rcx
 4722 1d7d 488D45C0 		leaq	-64(%rbp), %rax
 4723 1d81 BAB60000 		movl	$182, %edx
 4723      00
 4724 1d86 4889CE   		movq	%rcx, %rsi
 4725 1d89 4889C7   		movq	%rax, %rdi
 4726 1d8c E8000000 		call	_ZN8UnitTest11TestDetailsC1ERKS0_i@PLT
 4726      00
 182:testHexIO.cpp **** 	bufDestroy(&data);
 4727              		.loc 4 182 0 discriminator 12
 4728 1d91 488D45C0 		leaq	-64(%rbp), %rax
 4729 1d95 488D1500 		leaq	.LC42(%rip), %rdx
 4729      000000
 4730 1d9c 4889C6   		movq	%rax, %rsi
 4731 1d9f 4889DF   		movq	%rbx, %rdi
 4732 1da2 E8000000 		call	_ZN8UnitTest11TestResults13OnTestFailureERKNS_11TestDetailsEPKc@PLT
 4732      00
 4733              	.LEHE201:
 4734              	.LEHB202:
 182:testHexIO.cpp **** 	bufDestroy(&data);
 4735              		.loc 4 182 0 discriminator 14
 4736 1da7 E8000000 		call	__cxa_end_catch@PLT
 4736      00
 4737              	.LEHE202:
 4738 1dac E92CFFFF 		jmp	.L277
 4738      FF
 4739              	.L285:
 4740 1db1 4889C3   		movq	%rax, %rbx
 182:testHexIO.cpp **** 	bufDestroy(&data);
 4741              		.loc 4 182 0
 4742 1db4 E8000000 		call	__cxa_end_catch@PLT
 4742      00
 4743 1db9 4889D8   		movq	%rbx, %rax
 4744 1dbc 4889C7   		movq	%rax, %rdi
 4745              	.LEHB203:
 4746 1dbf E8000000 		call	_Unwind_Resume@PLT
 4746      00
 4747              	.LEHE203:
 4748              	.L286:
 4749              		.loc 4 184 0 is_stmt 1
 4750 1dc4 E8000000 		call	__stack_chk_fail@PLT
 4750      00
 4751              	.L279:
 4752 1dc9 488B5DF8 		movq	-8(%rbp), %rbx
 4753 1dcd C9       		leave
 4754              		.cfi_def_cfa 7, 8
 4755 1dce C3       		ret
 4756              		.cfi_endproc
 4757              	.LFE1199:
 4758              		.section	.gcc_except_table
 4759              		.align 4
 4760              	.LLSDA1199:
 4761 0488 FF       		.byte	0xff
 4762 0489 9B       		.byte	0x9b
 4763 048a 51       		.uleb128 .LLSDATT1199-.LLSDATTD1199
 4764              	.LLSDATTD1199:
 4765 048b 01       		.byte	0x1
 4766 048c 44       		.uleb128 .LLSDACSE1199-.LLSDACSB1199
 4767              	.LLSDACSB1199:
 4768 048d 4A       		.uleb128 .LEHB191-.LFB1199
 4769 048e 05       		.uleb128 .LEHE191-.LEHB191
 4770 048f 00       		.uleb128 0
 4771 0490 00       		.uleb128 0
 4772 0491 52       		.uleb128 .LEHB192-.LFB1199
 4773 0492 1C       		.uleb128 .LEHE192-.LEHB192
 4774 0493 AC02     		.uleb128 .L280-.LFB1199
 4775 0495 01       		.uleb128 0x1
 4776 0496 75       		.uleb128 .LEHB193-.LFB1199
 4777 0497 1C       		.uleb128 .LEHE193-.LEHB193
 4778 0498 AA02     		.uleb128 .L281-.LFB1199
 4779 049a 03       		.uleb128 0x3
 4780 049b BA01     		.uleb128 .LEHB194-.LFB1199
 4781 049d 05       		.uleb128 .LEHE194-.LEHB194
 4782 049e 00       		.uleb128 0
 4783 049f 00       		.uleb128 0
 4784 04a0 C601     		.uleb128 .LEHB195-.LFB1199
 4785 04a2 1C       		.uleb128 .LEHE195-.LEHB195
 4786 04a3 8D03     		.uleb128 .L283-.LFB1199
 4787 04a5 01       		.uleb128 0x1
 4788 04a6 E901     		.uleb128 .LEHB196-.LFB1199
 4789 04a8 1C       		.uleb128 .LEHE196-.LEHB196
 4790 04a9 8B03     		.uleb128 .L284-.LFB1199
 4791 04ab 03       		.uleb128 0x3
 4792 04ac 8C02     		.uleb128 .LEHB197-.LFB1199
 4793 04ae 05       		.uleb128 .LEHE197-.LEHB197
 4794 04af 00       		.uleb128 0
 4795 04b0 00       		.uleb128 0
 4796 04b1 B402     		.uleb128 .LEHB198-.LFB1199
 4797 04b3 3A       		.uleb128 .LEHE198-.LEHB198
 4798 04b4 F802     		.uleb128 .L282-.LFB1199
 4799 04b6 00       		.uleb128 0
 4800 04b7 EE02     		.uleb128 .LEHB199-.LFB1199
 4801 04b9 05       		.uleb128 .LEHE199-.LEHB199
 4802 04ba 00       		.uleb128 0
 4803 04bb 00       		.uleb128 0
 4804 04bc 8603     		.uleb128 .LEHB200-.LFB1199
 4805 04be 05       		.uleb128 .LEHE200-.LEHB200
 4806 04bf 00       		.uleb128 0
 4807 04c0 00       		.uleb128 0
 4808 04c1 9503     		.uleb128 .LEHB201-.LFB1199
 4809 04c3 3A       		.uleb128 .LEHE201-.LEHB201
 4810 04c4 D903     		.uleb128 .L285-.LFB1199
 4811 04c6 00       		.uleb128 0
 4812 04c7 CF03     		.uleb128 .LEHB202-.LFB1199
 4813 04c9 05       		.uleb128 .LEHE202-.LEHB202
 4814 04ca 00       		.uleb128 0
 4815 04cb 00       		.uleb128 0
 4816 04cc E703     		.uleb128 .LEHB203-.LFB1199
 4817 04ce 05       		.uleb128 .LEHE203-.LEHB203
 4818 04cf 00       		.uleb128 0
 4819 04d0 00       		.uleb128 0
 4820              	.LLSDACSE1199:
 4821 04d1 01       		.byte	0x1
 4822 04d2 00       		.byte	0
 4823 04d3 00       		.byte	0
 4824 04d4 7D       		.byte	0x7d
 4825 04d5 000000   		.align 4
 4826 04d8 00000000 		.long	0
 4827              	
 4828              	.LLSDATT1199:
 4829              		.text
 4831              		.section	.rodata
 4832              	.LC43:
 4833 06b5 746D7046 		.string	"tmpFile.hex"
 4833      696C652E 
 4833      68657800 
 4834              	.LC44:
 4835 06c1 66696C65 		.string	"file.is_open()"
 4835      2E69735F 
 4835      6F70656E 
 4835      282900
 4836              		.align 8
 4837              	.LC45:
 4838 06d0 556E6861 		.string	"Unhandled exception in CHECK(file.is_open())"
 4838      6E646C65 
 4838      64206578 
 4838      63657074 
 4838      696F6E20 
 4839 06fd 000000   		.align 8
 4840              	.LC46:
 4841 0700 556E6861 		.string	"Unhandled exception in CHECK_EQUAL(expected.size(), (unsigned int)length)"
 4841      6E646C65 
 4841      64206578 
 4841      63657074 
 4841      696F6E20 
 4842 074a 00000000 		.align 8
 4842      0000
 4843              	.LC47:
 4844 0750 556E6861 		.string	"Unhandled exception in CHECK_ARRAY_EQUAL(expected.c_str(), (const char *)fileData)"
 4844      6E646C65 
 4844      64206578 
 4844      63657074 
 4844      696F6E20 
 4845 07a3 00000000 		.align 8
 4845      00
 4846              	.LC48:
 4847 07a8 556E6861 		.string	"Unhandled exception in CHECK_EQUAL(data.length, readbackData.length)"
 4847      6E646C65 
 4847      64206578 
 4847      63657074 
 4847      696F6E20 
 4848 07ed 000000   		.align 8
 4849              	.LC49:
 4850 07f0 556E6861 		.string	"Unhandled exception in CHECK_ARRAY_EQUAL(data.data, readbackData.data)"
 4850      6E646C65 
 4850      64206578 
 4850      63657074 
 4850      696F6E20 
 4851 0837 00       		.align 8
 4852              	.LC50:
 4853 0838 556E6861 		.string	"Unhandled exception in CHECK_EQUAL(mask.length, readbackMask.length)"
 4853      6E646C65 
 4853      64206578 
 4853      63657074 
 4853      696F6E20 
 4854 087d 000000   		.align 8
 4855              	.LC51:
 4856 0880 556E6861 		.string	"Unhandled exception in CHECK_ARRAY_EQUAL(mask.data, readbackMask.data)"
 4856      6E646C65 
 4856      64206578 
 4856      63657074 
 4856      696F6E20 
 4857              		.text
 4858              		.globl	_Z13testRoundTripPKcz
 4860              	_Z13testRoundTripPKcz:
 4861              	.LFB1200:
 185:testHexIO.cpp **** 
 186:testHexIO.cpp **** void testRoundTrip(const char *firstLine, ...) {
 4862              		.loc 4 186 0
 4863              		.cfi_startproc
 4864              		.cfi_personality 0x9b,DW.ref.__gxx_personality_v0
 4865              		.cfi_lsda 0x1b,.LLSDA1200
 4866 1dcf 55       		pushq	%rbp
 4867              		.cfi_def_cfa_offset 16
 4868              		.cfi_offset 6, -16
 4869 1dd0 4889E5   		movq	%rsp, %rbp
 4870              		.cfi_def_cfa_register 6
 4871 1dd3 53       		pushq	%rbx
 4872 1dd4 4881ECF8 		subq	$1016, %rsp
 4872      030000
 4873              		.cfi_offset 3, -24
 4874 1ddb 4889BD08 		movq	%rdi, -1016(%rbp)
 4874      FCFFFF
 4875 1de2 4889B548 		movq	%rsi, -184(%rbp)
 4875      FFFFFF
 4876 1de9 48899550 		movq	%rdx, -176(%rbp)
 4876      FFFFFF
 4877 1df0 48898D58 		movq	%rcx, -168(%rbp)
 4877      FFFFFF
 4878 1df7 4C898560 		movq	%r8, -160(%rbp)
 4878      FFFFFF
 4879 1dfe 4C898D68 		movq	%r9, -152(%rbp)
 4879      FFFFFF
 4880 1e05 84C0     		testb	%al, %al
 4881 1e07 7423     		je	.L288
 4882 1e09 0F298570 		movaps	%xmm0, -144(%rbp)
 4882      FFFFFF
 4883 1e10 0F294D80 		movaps	%xmm1, -128(%rbp)
 4884 1e14 0F295590 		movaps	%xmm2, -112(%rbp)
 4885 1e18 0F295DA0 		movaps	%xmm3, -96(%rbp)
 4886 1e1c 0F2965B0 		movaps	%xmm4, -80(%rbp)
 4887 1e20 0F296DC0 		movaps	%xmm5, -64(%rbp)
 4888 1e24 0F2975D0 		movaps	%xmm6, -48(%rbp)
 4889 1e28 0F297DE0 		movaps	%xmm7, -32(%rbp)
 4890              	.L288:
 4891              		.loc 4 186 0
 4892 1e2c 64488B04 		movq	%fs:40, %rax
 4892      25280000 
 4892      00
 4893 1e35 48898538 		movq	%rax, -200(%rbp)
 4893      FFFFFF
 4894 1e3c 31C0     		xorl	%eax, %eax
 187:testHexIO.cpp **** 	const char *const FILENAME = "tmpFile.hex";
 4895              		.loc 4 187 0
 4896 1e3e 488D0500 		leaq	.LC43(%rip), %rax
 4896      000000
 4897 1e45 48898528 		movq	%rax, -984(%rbp)
 4897      FCFFFF
 188:testHexIO.cpp **** 	Buffer data, mask, readbackData, readbackMask;
 189:testHexIO.cpp **** 	BufferStatus status;
 190:testHexIO.cpp **** 	va_list vl;
 191:testHexIO.cpp **** 	const char *line;
 192:testHexIO.cpp **** 	string expected;
 4898              		.loc 4 192 0
 4899 1e4c 488D8510 		leaq	-752(%rbp), %rax
 4899      FDFFFF
 4900 1e53 4889C7   		movq	%rax, %rdi
 4901              	.LEHB204:
 4902 1e56 E8000000 		call	_ZNSt7__cxx1112basic_stringIcSt11char_traitsIcESaIcEEC1Ev@PLT
 4902      00
 4903              	.LEHE204:
 193:testHexIO.cpp **** 	uint8 recordType;
 194:testHexIO.cpp **** 	uint32 seg = 0x00000000;
 4904              		.loc 4 194 0
 4905 1e5b C78518FC 		movl	$0, -1000(%rbp)
 4905      FFFF0000 
 4905      0000
 195:testHexIO.cpp **** 	status = bufInitialise(&data, 1024, 0x00, NULL);
 4906              		.loc 4 195 0
 4907 1e65 488D8540 		leaq	-960(%rbp), %rax
 4907      FCFFFF
 4908 1e6c B9000000 		movl	$0, %ecx
 4908      00
 4909 1e71 BA000000 		movl	$0, %edx
 4909      00
 4910 1e76 BE000400 		movl	$1024, %esi
 4910      00
 4911 1e7b 4889C7   		movq	%rax, %rdi
 4912              	.LEHB205:
 4913 1e7e E8000000 		call	bufInitialise@PLT
 4913      00
 4914              	.LEHE205:
 4915 1e83 898514FC 		movl	%eax, -1004(%rbp)
 4915      FFFF
 4916              	.LEHB206:
 196:testHexIO.cpp **** 	CHECK_EQUAL(BUF_SUCCESS, status);
 4917              		.loc 4 196 0
 4918 1e89 E8000000 		call	_ZN8UnitTest11CurrentTest7DetailsEv@PLT
 4918      00
 4919              		.loc 4 196 0 is_stmt 0 discriminator 1
 4920 1e8e 488B08   		movq	(%rax), %rcx
 4921 1e91 488D85C0 		leaq	-832(%rbp), %rax
 4921      FCFFFF
 4922 1e98 BAC40000 		movl	$196, %edx
 4922      00
 4923 1e9d 4889CE   		movq	%rcx, %rsi
 4924 1ea0 4889C7   		movq	%rax, %rdi
 4925 1ea3 E8000000 		call	_ZN8UnitTest11TestDetailsC1ERKS0_i@PLT
 4925      00
 4926              	.LEHE206:
 4927              		.loc 4 196 0 discriminator 2
 4928 1ea8 C785A0FC 		movl	$0, -864(%rbp)
 4928      FFFF0000 
 4928      0000
 4929              	.LEHB207:
 4930 1eb2 E8000000 		call	_ZN8UnitTest11CurrentTest7ResultsEv@PLT
 4930      00
 4931 1eb7 488B00   		movq	(%rax), %rax
 4932 1eba 488D8DC0 		leaq	-832(%rbp), %rcx
 4932      FCFFFF
 4933 1ec1 488D9514 		leaq	-1004(%rbp), %rdx
 4933      FCFFFF
 4934 1ec8 488DB5A0 		leaq	-864(%rbp), %rsi
 4934      FCFFFF
 4935 1ecf 4889C7   		movq	%rax, %rdi
 4936 1ed2 E8000000 		call	_ZN8UnitTest10CheckEqualI12BufferStatusS1_EEvRNS_11TestResultsERKT_RKT0_RKNS_11TestDetailsE
 4936      00
 4937              	.LEHE207:
 4938              	.L296:
 197:testHexIO.cpp **** 	status = bufInitialise(&mask, 1024, 0x00, NULL);
 4939              		.loc 4 197 0 is_stmt 1
 4940 1ed7 488D8560 		leaq	-928(%rbp), %rax
 4940      FCFFFF
 4941 1ede B9000000 		movl	$0, %ecx
 4941      00
 4942 1ee3 BA000000 		movl	$0, %edx
 4942      00
 4943 1ee8 BE000400 		movl	$1024, %esi
 4943      00
 4944 1eed 4889C7   		movq	%rax, %rdi
 4945              	.LEHB208:
 4946 1ef0 E8000000 		call	bufInitialise@PLT
 4946      00
 4947              	.LEHE208:
 4948 1ef5 898514FC 		movl	%eax, -1004(%rbp)
 4948      FFFF
 4949              	.LEHB209:
 198:testHexIO.cpp **** 	CHECK_EQUAL(BUF_SUCCESS, status);
 4950              		.loc 4 198 0
 4951 1efb E8000000 		call	_ZN8UnitTest11CurrentTest7DetailsEv@PLT
 4951      00
 4952              		.loc 4 198 0 is_stmt 0 discriminator 1
 4953 1f00 488B08   		movq	(%rax), %rcx
 4954 1f03 488D85C0 		leaq	-832(%rbp), %rax
 4954      FCFFFF
 4955 1f0a BAC60000 		movl	$198, %edx
 4955      00
 4956 1f0f 4889CE   		movq	%rcx, %rsi
 4957 1f12 4889C7   		movq	%rax, %rdi
 4958 1f15 E8000000 		call	_ZN8UnitTest11TestDetailsC1ERKS0_i@PLT
 4958      00
 4959              	.LEHE209:
 4960              		.loc 4 198 0 discriminator 2
 4961 1f1a C785A0FC 		movl	$0, -864(%rbp)
 4961      FFFF0000 
 4961      0000
 4962              	.LEHB210:
 4963 1f24 E8000000 		call	_ZN8UnitTest11CurrentTest7ResultsEv@PLT
 4963      00
 4964 1f29 488B00   		movq	(%rax), %rax
 4965 1f2c 488D8DC0 		leaq	-832(%rbp), %rcx
 4965      FCFFFF
 4966 1f33 488D9514 		leaq	-1004(%rbp), %rdx
 4966      FCFFFF
 4967 1f3a 488DB5A0 		leaq	-864(%rbp), %rsi
 4967      FCFFFF
 4968 1f41 4889C7   		movq	%rax, %rdi
 4969 1f44 E8000000 		call	_ZN8UnitTest10CheckEqualI12BufferStatusS1_EEvRNS_11TestResultsERKT_RKT0_RKNS_11TestDetailsE
 4969      00
 4970              	.LEHE210:
 4971              	.L301:
 199:testHexIO.cpp **** 	va_start(vl, firstLine);
 4972              		.loc 4 199 0 is_stmt 1
 4973 1f49 C785F8FC 		movl	$8, -776(%rbp)
 4973      FFFF0800 
 4973      0000
 4974 1f53 C785FCFC 		movl	$48, -772(%rbp)
 4974      FFFF3000 
 4974      0000
 4975 1f5d 488D4510 		leaq	16(%rbp), %rax
 4976 1f61 48898500 		movq	%rax, -768(%rbp)
 4976      FDFFFF
 4977 1f68 488D8540 		leaq	-192(%rbp), %rax
 4977      FFFFFF
 4978 1f6f 48898508 		movq	%rax, -760(%rbp)
 4978      FDFFFF
 200:testHexIO.cpp **** 	line = firstLine;
 4979              		.loc 4 200 0
 4980 1f76 488B8508 		movq	-1016(%rbp), %rax
 4980      FCFFFF
 4981 1f7d 48898520 		movq	%rax, -992(%rbp)
 4981      FCFFFF
 4982              	.L292:
 201:testHexIO.cpp **** 	do {
 202:testHexIO.cpp **** 		status = bufProcessLine(line, 0, &data, &mask, &seg, &recordType, NULL);
 4983              		.loc 4 202 0
 4984 1f84 488DBD13 		leaq	-1005(%rbp), %rdi
 4984      FCFFFF
 4985 1f8b 488DB518 		leaq	-1000(%rbp), %rsi
 4985      FCFFFF
 4986 1f92 488D8D60 		leaq	-928(%rbp), %rcx
 4986      FCFFFF
 4987 1f99 488D9540 		leaq	-960(%rbp), %rdx
 4987      FCFFFF
 4988 1fa0 488B8520 		movq	-992(%rbp), %rax
 4988      FCFFFF
 4989 1fa7 4883EC08 		subq	$8, %rsp
 4990 1fab 6A00     		pushq	$0
 4991 1fad 4989F9   		movq	%rdi, %r9
 4992 1fb0 4989F0   		movq	%rsi, %r8
 4993 1fb3 BE000000 		movl	$0, %esi
 4993      00
 4994 1fb8 4889C7   		movq	%rax, %rdi
 4995              	.LEHB211:
 4996              		.cfi_escape 0x2e,0x10
 4997 1fbb E8000000 		call	bufProcessLine@PLT
 4997      00
 4998              	.LEHE211:
 4999 1fc0 4883C410 		addq	$16, %rsp
 5000 1fc4 898514FC 		movl	%eax, -1004(%rbp)
 5000      FFFF
 5001              	.LEHB212:
 5002              		.cfi_escape 0x2e,0
 203:testHexIO.cpp **** 		CHECK_EQUAL(BUF_SUCCESS, status);
 5003              		.loc 4 203 0
 5004 1fca E8000000 		call	_ZN8UnitTest11CurrentTest7DetailsEv@PLT
 5004      00
 5005              		.loc 4 203 0 is_stmt 0 discriminator 1
 5006 1fcf 488B08   		movq	(%rax), %rcx
 5007 1fd2 488D85C0 		leaq	-832(%rbp), %rax
 5007      FCFFFF
 5008 1fd9 BACB0000 		movl	$203, %edx
 5008      00
 5009 1fde 4889CE   		movq	%rcx, %rsi
 5010 1fe1 4889C7   		movq	%rax, %rdi
 5011 1fe4 E8000000 		call	_ZN8UnitTest11TestDetailsC1ERKS0_i@PLT
 5011      00
 5012              	.LEHE212:
 5013              		.loc 4 203 0 discriminator 2
 5014 1fe9 C785A0FC 		movl	$0, -864(%rbp)
 5014      FFFF0000 
 5014      0000
 5015              	.LEHB213:
 5016 1ff3 E8000000 		call	_ZN8UnitTest11CurrentTest7ResultsEv@PLT
 5016      00
 5017 1ff8 488B00   		movq	(%rax), %rax
 5018 1ffb 488D8DC0 		leaq	-832(%rbp), %rcx
 5018      FCFFFF
 5019 2002 488D9514 		leaq	-1004(%rbp), %rdx
 5019      FCFFFF
 5020 2009 488DB5A0 		leaq	-864(%rbp), %rsi
 5020      FCFFFF
 5021 2010 4889C7   		movq	%rax, %rdi
 5022 2013 E8000000 		call	_ZN8UnitTest10CheckEqualI12BufferStatusS1_EEvRNS_11TestResultsERKT_RKT0_RKNS_11TestDetailsE
 5022      00
 5023              	.LEHE213:
 5024              	.L305:
 204:testHexIO.cpp **** 		expected += line;
 5025              		.loc 4 204 0 is_stmt 1
 5026 2018 488B9520 		movq	-992(%rbp), %rdx
 5026      FCFFFF
 5027 201f 488D8510 		leaq	-752(%rbp), %rax
 5027      FDFFFF
 5028 2026 4889D6   		movq	%rdx, %rsi
 5029 2029 4889C7   		movq	%rax, %rdi
 5030              	.LEHB214:
 5031 202c E8000000 		call	_ZNSt7__cxx1112basic_stringIcSt11char_traitsIcESaIcEEpLEPKc@PLT
 5031      00
 205:testHexIO.cpp **** 		expected += '\n';
 5032              		.loc 4 205 0
 5033 2031 488D8510 		leaq	-752(%rbp), %rax
 5033      FDFFFF
 5034 2038 BE0A0000 		movl	$10, %esi
 5034      00
 5035 203d 4889C7   		movq	%rax, %rdi
 5036 2040 E8000000 		call	_ZNSt7__cxx1112basic_stringIcSt11char_traitsIcESaIcEEpLEc@PLT
 5036      00
 206:testHexIO.cpp **** 		line = va_arg(vl, const char *);
 5037              		.loc 4 206 0
 5038 2045 8B85F8FC 		movl	-776(%rbp), %eax
 5038      FFFF
 5039 204b 83F82F   		cmpl	$47, %eax
 5040 204e 7723     		ja	.L289
 5041 2050 488B8508 		movq	-760(%rbp), %rax
 5041      FDFFFF
 5042 2057 8B95F8FC 		movl	-776(%rbp), %edx
 5042      FFFF
 5043 205d 89D2     		movl	%edx, %edx
 5044 205f 4801D0   		addq	%rdx, %rax
 5045 2062 8B95F8FC 		movl	-776(%rbp), %edx
 5045      FFFF
 5046 2068 83C208   		addl	$8, %edx
 5047 206b 8995F8FC 		movl	%edx, -776(%rbp)
 5047      FFFF
 5048 2071 EB12     		jmp	.L290
 5049              	.L289:
 5050 2073 488B8500 		movq	-768(%rbp), %rax
 5050      FDFFFF
 5051 207a 488D5008 		leaq	8(%rax), %rdx
 5052 207e 48899500 		movq	%rdx, -768(%rbp)
 5052      FDFFFF
 5053              	.L290:
 5054 2085 488B00   		movq	(%rax), %rax
 5055 2088 48898520 		movq	%rax, -992(%rbp)
 5055      FCFFFF
 207:testHexIO.cpp **** 	} while ( line );
 5056              		.loc 4 207 0
 5057 208f 4883BD20 		cmpq	$0, -992(%rbp)
 5057      FCFFFF00 
 5058 2097 7405     		je	.L291
 201:testHexIO.cpp **** 		status = bufProcessLine(line, 0, &data, &mask, &seg, &recordType, NULL);
 5059              		.loc 4 201 0
 5060 2099 E9E6FEFF 		jmp	.L292
 5060      FF
 5061              	.L291:
 208:testHexIO.cpp **** 	expected += ":00000001FF\n";
 5062              		.loc 4 208 0
 5063 209e 488D8510 		leaq	-752(%rbp), %rax
 5063      FDFFFF
 5064 20a5 488D3500 		leaq	.LC12(%rip), %rsi
 5064      000000
 5065 20ac 4889C7   		movq	%rax, %rdi
 5066 20af E8000000 		call	_ZNSt7__cxx1112basic_stringIcSt11char_traitsIcESaIcEEpLEPKc@PLT
 5066      00
 209:testHexIO.cpp **** 	va_end(vl);
 210:testHexIO.cpp **** 	status = bufWriteToIntelHexFile(&data, &mask, FILENAME, 16, false, NULL);
 5067              		.loc 4 210 0
 5068 20b4 488DB560 		leaq	-928(%rbp), %rsi
 5068      FCFFFF
 5069 20bb 488D8540 		leaq	-960(%rbp), %rax
 5069      FCFFFF
 5070 20c2 41B90000 		movl	$0, %r9d
 5070      0000
 5071 20c8 41B80000 		movl	$0, %r8d
 5071      0000
 5072 20ce B9100000 		movl	$16, %ecx
 5072      00
 5073 20d3 488D1500 		leaq	.LC43(%rip), %rdx
 5073      000000
 5074 20da 4889C7   		movq	%rax, %rdi
 5075 20dd E8000000 		call	bufWriteToIntelHexFile@PLT
 5075      00
 5076              	.LEHE214:
 5077 20e2 898514FC 		movl	%eax, -1004(%rbp)
 5077      FFFF
 5078              	.LEHB215:
 211:testHexIO.cpp **** 	CHECK_EQUAL(BUF_SUCCESS, status);
 5079              		.loc 4 211 0
 5080 20e8 E8000000 		call	_ZN8UnitTest11CurrentTest7DetailsEv@PLT
 5080      00
 5081              		.loc 4 211 0 is_stmt 0 discriminator 1
 5082 20ed 488B08   		movq	(%rax), %rcx
 5083 20f0 488D85C0 		leaq	-832(%rbp), %rax
 5083      FCFFFF
 5084 20f7 BAD30000 		movl	$211, %edx
 5084      00
 5085 20fc 4889CE   		movq	%rcx, %rsi
 5086 20ff 4889C7   		movq	%rax, %rdi
 5087 2102 E8000000 		call	_ZN8UnitTest11TestDetailsC1ERKS0_i@PLT
 5087      00
 5088              	.LEHE215:
 5089              		.loc 4 211 0 discriminator 2
 5090 2107 C785A0FC 		movl	$0, -864(%rbp)
 5090      FFFF0000 
 5090      0000
 5091              	.LEHB216:
 5092 2111 E8000000 		call	_ZN8UnitTest11CurrentTest7ResultsEv@PLT
 5092      00
 5093 2116 488B00   		movq	(%rax), %rax
 5094 2119 488D8DC0 		leaq	-832(%rbp), %rcx
 5094      FCFFFF
 5095 2120 488D9514 		leaq	-1004(%rbp), %rdx
 5095      FCFFFF
 5096 2127 488DB5A0 		leaq	-864(%rbp), %rsi
 5096      FCFFFF
 5097 212e 4889C7   		movq	%rax, %rdi
 5098 2131 E8000000 		call	_ZN8UnitTest10CheckEqualI12BufferStatusS1_EEvRNS_11TestResultsERKT_RKT0_RKNS_11TestDetailsE
 5098      00
 5099              	.LEHE216:
 5100              	.L309:
 212:testHexIO.cpp **** 
 213:testHexIO.cpp **** 	ifstream file;
 5101              		.loc 4 213 0 is_stmt 1
 5102 2136 488D8530 		leaq	-720(%rbp), %rax
 5102      FDFFFF
 5103 213d 4889C7   		movq	%rax, %rdi
 5104              	.LEHB217:
 5105 2140 E8000000 		call	_ZNSt14basic_ifstreamIcSt11char_traitsIcEEC1Ev@PLT
 5105      00
 5106              	.LEHE217:
 214:testHexIO.cpp **** 	streamoff length;
 215:testHexIO.cpp **** 	file.open(FILENAME, ios::in|ios::ate);
 5107              		.loc 4 215 0
 5108 2145 BE020000 		movl	$2, %esi
 5108      00
 5109 214a BF080000 		movl	$8, %edi
 5109      00
 5110 214f E8000000 		call	_ZStorSt13_Ios_OpenmodeS_
 5110      00
 5111 2154 89C2     		movl	%eax, %edx
 5112 2156 488D8530 		leaq	-720(%rbp), %rax
 5112      FDFFFF
 5113 215d 488D3500 		leaq	.LC43(%rip), %rsi
 5113      000000
 5114 2164 4889C7   		movq	%rax, %rdi
 5115              	.LEHB218:
 5116 2167 E8000000 		call	_ZNSt14basic_ifstreamIcSt11char_traitsIcEE4openEPKcSt13_Ios_Openmode@PLT
 5116      00
 5117              	.LEHE218:
 216:testHexIO.cpp **** 	CHECK(file.is_open());
 5118              		.loc 4 216 0
 5119 216c 488D8530 		leaq	-720(%rbp), %rax
 5119      FDFFFF
 5120 2173 4889C7   		movq	%rax, %rdi
 5121              	.LEHB219:
 5122 2176 E8000000 		call	_ZNSt14basic_ifstreamIcSt11char_traitsIcEE7is_openEv@PLT
 5122      00
 5123 217b 0FB6C0   		movzbl	%al, %eax
 5124 217e 89C7     		movl	%eax, %edi
 5125 2180 E8000000 		call	_ZN8UnitTest5CheckIbEEbT_
 5125      00
 5126 2185 83F001   		xorl	$1, %eax
 5127 2188 84C0     		testb	%al, %al
 5128 218a 7440     		je	.L293
 5129              		.loc 4 216 0 is_stmt 0 discriminator 2
 5130 218c E8000000 		call	_ZN8UnitTest11CurrentTest7ResultsEv@PLT
 5130      00
 5131 2191 488B18   		movq	(%rax), %rbx
 5132 2194 E8000000 		call	_ZN8UnitTest11CurrentTest7DetailsEv@PLT
 5132      00
 5133              		.loc 4 216 0 discriminator 3
 5134 2199 488B08   		movq	(%rax), %rcx
 5135 219c 488D85C0 		leaq	-832(%rbp), %rax
 5135      FCFFFF
 5136 21a3 BAD80000 		movl	$216, %edx
 5136      00
 5137 21a8 4889CE   		movq	%rcx, %rsi
 5138 21ab 4889C7   		movq	%rax, %rdi
 5139 21ae E8000000 		call	_ZN8UnitTest11TestDetailsC1ERKS0_i@PLT
 5139      00
 5140              		.loc 4 216 0 discriminator 5
 5141 21b3 488D85C0 		leaq	-832(%rbp), %rax
 5141      FCFFFF
 5142 21ba 488D1500 		leaq	.LC44(%rip), %rdx
 5142      000000
 5143 21c1 4889C6   		movq	%rax, %rsi
 5144 21c4 4889DF   		movq	%rbx, %rdi
 5145 21c7 E8000000 		call	_ZN8UnitTest11TestResults13OnTestFailureERKNS_11TestDetailsEPKc@PLT
 5145      00
 5146              	.LEHE219:
 5147              	.L293:
 217:testHexIO.cpp **** 	length = file.tellg();
 5148              		.loc 4 217 0 is_stmt 1
 5149 21cc 488D8530 		leaq	-720(%rbp), %rax
 5149      FDFFFF
 5150 21d3 4889C7   		movq	%rax, %rdi
 5151              	.LEHB220:
 5152 21d6 E8000000 		call	_ZNSi5tellgEv@PLT
 5152      00
 5153              	.LEHE220:
 5154 21db 488985E0 		movq	%rax, -800(%rbp)
 5154      FCFFFF
 5155 21e2 488995E8 		movq	%rdx, -792(%rbp)
 5155      FCFFFF
 5156 21e9 488D85E0 		leaq	-800(%rbp), %rax
 5156      FCFFFF
 5157 21f0 4889C7   		movq	%rax, %rdi
 5158 21f3 E8000000 		call	_ZNKSt4fposI11__mbstate_tEcvlEv
 5158      00
 5159 21f8 48898530 		movq	%rax, -976(%rbp)
 5159      FCFFFF
 5160              	.LEHB221:
 218:testHexIO.cpp **** 	CHECK_EQUAL(expected.size(), (unsigned int)length);
 5161              		.loc 4 218 0
 5162 21ff E8000000 		call	_ZN8UnitTest11CurrentTest7DetailsEv@PLT
 5162      00
 5163              		.loc 4 218 0 is_stmt 0 discriminator 1
 5164 2204 488B08   		movq	(%rax), %rcx
 5165 2207 488D85C0 		leaq	-832(%rbp), %rax
 5165      FCFFFF
 5166 220e BADA0000 		movl	$218, %edx
 5166      00
 5167 2213 4889CE   		movq	%rcx, %rsi
 5168 2216 4889C7   		movq	%rax, %rdi
 5169 2219 E8000000 		call	_ZN8UnitTest11TestDetailsC1ERKS0_i@PLT
 5169      00
 5170              	.LEHE221:
 5171              		.loc 4 218 0 discriminator 2
 5172 221e 488B8530 		movq	-976(%rbp), %rax
 5172      FCFFFF
 5173 2225 898580FC 		movl	%eax, -896(%rbp)
 5173      FFFF
 5174 222b 488D8510 		leaq	-752(%rbp), %rax
 5174      FDFFFF
 5175 2232 4889C7   		movq	%rax, %rdi
 5176              	.LEHB222:
 5177 2235 E8000000 		call	_ZNKSt7__cxx1112basic_stringIcSt11char_traitsIcESaIcEE4sizeEv@PLT
 5177      00
 5178 223a 488985A0 		movq	%rax, -864(%rbp)
 5178      FCFFFF
 5179 2241 E8000000 		call	_ZN8UnitTest11CurrentTest7ResultsEv@PLT
 5179      00
 5180              		.loc 4 218 0 discriminator 4
 5181 2246 488B00   		movq	(%rax), %rax
 5182 2249 488D8DC0 		leaq	-832(%rbp), %rcx
 5182      FCFFFF
 5183 2250 488D9580 		leaq	-896(%rbp), %rdx
 5183      FCFFFF
 5184 2257 488DB5A0 		leaq	-864(%rbp), %rsi
 5184      FCFFFF
 5185 225e 4889C7   		movq	%rax, %rdi
 5186 2261 E8000000 		call	_ZN8UnitTest10CheckEqualImjEEvRNS_11TestResultsERKT_RKT0_RKNS_11TestDetailsE
 5186      00
 5187              	.LEHE222:
 5188              	.L316:
 219:testHexIO.cpp **** 	char *fileData = new char[(unsigned int)length];
 5189              		.loc 4 219 0 is_stmt 1
 5190 2266 488B8530 		movq	-976(%rbp), %rax
 5190      FCFFFF
 5191 226d 89C0     		movl	%eax, %eax
 5192 226f 4889C7   		movq	%rax, %rdi
 5193              	.LEHB223:
 5194 2272 E8000000 		call	_Znam@PLT
 5194      00
 5195 2277 48898538 		movq	%rax, -968(%rbp)
 5195      FCFFFF
 220:testHexIO.cpp **** 	file.seekg(0, ios::beg);
 5196              		.loc 4 220 0
 5197 227e 488D8530 		leaq	-720(%rbp), %rax
 5197      FDFFFF
 5198 2285 BA000000 		movl	$0, %edx
 5198      00
 5199 228a BE000000 		movl	$0, %esi
 5199      00
 5200 228f 4889C7   		movq	%rax, %rdi
 5201 2292 E8000000 		call	_ZNSi5seekgElSt12_Ios_Seekdir@PLT
 5201      00
 221:testHexIO.cpp **** 	file.read(fileData, (streamsize)length);
 5202              		.loc 4 221 0
 5203 2297 488B9530 		movq	-976(%rbp), %rdx
 5203      FCFFFF
 5204 229e 488B8D38 		movq	-968(%rbp), %rcx
 5204      FCFFFF
 5205 22a5 488D8530 		leaq	-720(%rbp), %rax
 5205      FDFFFF
 5206 22ac 4889CE   		movq	%rcx, %rsi
 5207 22af 4889C7   		movq	%rax, %rdi
 5208 22b2 E8000000 		call	_ZNSi4readEPcl@PLT
 5208      00
 222:testHexIO.cpp **** 	file.close();
 5209              		.loc 4 222 0
 5210 22b7 488D8530 		leaq	-720(%rbp), %rax
 5210      FDFFFF
 5211 22be 4889C7   		movq	%rax, %rdi
 5212 22c1 E8000000 		call	_ZNSt14basic_ifstreamIcSt11char_traitsIcEE5closeEv@PLT
 5212      00
 5213              	.LEHE223:
 5214              	.LEHB224:
 223:testHexIO.cpp **** 	CHECK_ARRAY_EQUAL(expected.c_str(), (const char *)fileData, (int)length);
 5215              		.loc 4 223 0
 5216 22c6 E8000000 		call	_ZN8UnitTest11CurrentTest7DetailsEv@PLT
 5216      00
 5217 22cb 488B08   		movq	(%rax), %rcx
 5218 22ce 488D85C0 		leaq	-832(%rbp), %rax
 5218      FCFFFF
 5219 22d5 BADF0000 		movl	$223, %edx
 5219      00
 5220 22da 4889CE   		movq	%rcx, %rsi
 5221 22dd 4889C7   		movq	%rax, %rdi
 5222 22e0 E8000000 		call	_ZN8UnitTest11TestDetailsC1ERKS0_i@PLT
 5222      00
 5223              	.LEHE224:
 5224              		.loc 4 223 0 is_stmt 0 discriminator 2
 5225 22e5 488B8530 		movq	-976(%rbp), %rax
 5225      FCFFFF
 5226 22ec 89C3     		movl	%eax, %ebx
 5227 22ee 488B8538 		movq	-968(%rbp), %rax
 5227      FCFFFF
 5228 22f5 488985A0 		movq	%rax, -864(%rbp)
 5228      FCFFFF
 5229 22fc 488D8510 		leaq	-752(%rbp), %rax
 5229      FDFFFF
 5230 2303 4889C7   		movq	%rax, %rdi
 5231              	.LEHB225:
 5232 2306 E8000000 		call	_ZNKSt7__cxx1112basic_stringIcSt11char_traitsIcESaIcEE5c_strEv@PLT
 5232      00
 5233 230b 48898580 		movq	%rax, -896(%rbp)
 5233      FCFFFF
 5234 2312 E8000000 		call	_ZN8UnitTest11CurrentTest7ResultsEv@PLT
 5234      00
 5235              		.loc 4 223 0 discriminator 4
 5236 2317 488B00   		movq	(%rax), %rax
 5237 231a 488D8DC0 		leaq	-832(%rbp), %rcx
 5237      FCFFFF
 5238 2321 488D95A0 		leaq	-864(%rbp), %rdx
 5238      FCFFFF
 5239 2328 488DB580 		leaq	-896(%rbp), %rsi
 5239      FCFFFF
 5240 232f 4989C8   		movq	%rcx, %r8
 5241 2332 89D9     		movl	%ebx, %ecx
 5242 2334 4889C7   		movq	%rax, %rdi
 5243 2337 E8000000 		call	_ZN8UnitTest15CheckArrayEqualIPKcS2_EEvRNS_11TestResultsERKT_RKT0_iRKNS_11TestDetailsE
 5243      00
 5244              	.LEHE225:
 5245              	.L320:
 224:testHexIO.cpp **** 
 225:testHexIO.cpp **** 	status = bufInitialise(&readbackData, 1024, 0x00, NULL);
 5246              		.loc 4 225 0 is_stmt 1
 5247 233c 488D8580 		leaq	-896(%rbp), %rax
 5247      FCFFFF
 5248 2343 B9000000 		movl	$0, %ecx
 5248      00
 5249 2348 BA000000 		movl	$0, %edx
 5249      00
 5250 234d BE000400 		movl	$1024, %esi
 5250      00
 5251 2352 4889C7   		movq	%rax, %rdi
 5252              	.LEHB226:
 5253 2355 E8000000 		call	bufInitialise@PLT
 5253      00
 5254              	.LEHE226:
 5255 235a 898514FC 		movl	%eax, -1004(%rbp)
 5255      FFFF
 5256              	.LEHB227:
 226:testHexIO.cpp **** 	CHECK_EQUAL(BUF_SUCCESS, status);
 5257              		.loc 4 226 0
 5258 2360 E8000000 		call	_ZN8UnitTest11CurrentTest7DetailsEv@PLT
 5258      00
 5259              		.loc 4 226 0 is_stmt 0 discriminator 1
 5260 2365 488B08   		movq	(%rax), %rcx
 5261 2368 488D85C0 		leaq	-832(%rbp), %rax
 5261      FCFFFF
 5262 236f BAE20000 		movl	$226, %edx
 5262      00
 5263 2374 4889CE   		movq	%rcx, %rsi
 5264 2377 4889C7   		movq	%rax, %rdi
 5265 237a E8000000 		call	_ZN8UnitTest11TestDetailsC1ERKS0_i@PLT
 5265      00
 5266              	.LEHE227:
 5267              		.loc 4 226 0 discriminator 2
 5268 237f C785A0FC 		movl	$0, -864(%rbp)
 5268      FFFF0000 
 5268      0000
 5269              	.LEHB228:
 5270 2389 E8000000 		call	_ZN8UnitTest11CurrentTest7ResultsEv@PLT
 5270      00
 5271 238e 488B00   		movq	(%rax), %rax
 5272 2391 488D8DC0 		leaq	-832(%rbp), %rcx
 5272      FCFFFF
 5273 2398 488D9514 		leaq	-1004(%rbp), %rdx
 5273      FCFFFF
 5274 239f 488DB5A0 		leaq	-864(%rbp), %rsi
 5274      FCFFFF
 5275 23a6 4889C7   		movq	%rax, %rdi
 5276 23a9 E8000000 		call	_ZN8UnitTest10CheckEqualI12BufferStatusS1_EEvRNS_11TestResultsERKT_RKT0_RKNS_11TestDetailsE
 5276      00
 5277              	.LEHE228:
 5278              	.L324:
 227:testHexIO.cpp **** 	status = bufInitialise(&readbackMask, 1024, 0x00, NULL);
 5279              		.loc 4 227 0 is_stmt 1
 5280 23ae 488D85A0 		leaq	-864(%rbp), %rax
 5280      FCFFFF
 5281 23b5 B9000000 		movl	$0, %ecx
 5281      00
 5282 23ba BA000000 		movl	$0, %edx
 5282      00
 5283 23bf BE000400 		movl	$1024, %esi
 5283      00
 5284 23c4 4889C7   		movq	%rax, %rdi
 5285              	.LEHB229:
 5286 23c7 E8000000 		call	bufInitialise@PLT
 5286      00
 5287              	.LEHE229:
 5288 23cc 898514FC 		movl	%eax, -1004(%rbp)
 5288      FFFF
 5289              	.LEHB230:
 228:testHexIO.cpp **** 	CHECK_EQUAL(BUF_SUCCESS, status);
 5290              		.loc 4 228 0
 5291 23d2 E8000000 		call	_ZN8UnitTest11CurrentTest7DetailsEv@PLT
 5291      00
 5292              		.loc 4 228 0 is_stmt 0 discriminator 1
 5293 23d7 488B08   		movq	(%rax), %rcx
 5294 23da 488D85C0 		leaq	-832(%rbp), %rax
 5294      FCFFFF
 5295 23e1 BAE40000 		movl	$228, %edx
 5295      00
 5296 23e6 4889CE   		movq	%rcx, %rsi
 5297 23e9 4889C7   		movq	%rax, %rdi
 5298 23ec E8000000 		call	_ZN8UnitTest11TestDetailsC1ERKS0_i@PLT
 5298      00
 5299              	.LEHE230:
 5300              		.loc 4 228 0 discriminator 2
 5301 23f1 C7851CFC 		movl	$0, -996(%rbp)
 5301      FFFF0000 
 5301      0000
 5302              	.LEHB231:
 5303 23fb E8000000 		call	_ZN8UnitTest11CurrentTest7ResultsEv@PLT
 5303      00
 5304 2400 488B00   		movq	(%rax), %rax
 5305 2403 488D8DC0 		leaq	-832(%rbp), %rcx
 5305      FCFFFF
 5306 240a 488D9514 		leaq	-1004(%rbp), %rdx
 5306      FCFFFF
 5307 2411 488DB51C 		leaq	-996(%rbp), %rsi
 5307      FCFFFF
 5308 2418 4889C7   		movq	%rax, %rdi
 5309 241b E8000000 		call	_ZN8UnitTest10CheckEqualI12BufferStatusS1_EEvRNS_11TestResultsERKT_RKT0_RKNS_11TestDetailsE
 5309      00
 5310              	.LEHE231:
 5311              	.L328:
 229:testHexIO.cpp **** 	status = bufReadFromIntelHexFile(&readbackData, &readbackMask, FILENAME, NULL);
 5312              		.loc 4 229 0 is_stmt 1
 5313 2420 488DB5A0 		leaq	-864(%rbp), %rsi
 5313      FCFFFF
 5314 2427 488D8580 		leaq	-896(%rbp), %rax
 5314      FCFFFF
 5315 242e B9000000 		movl	$0, %ecx
 5315      00
 5316 2433 488D1500 		leaq	.LC43(%rip), %rdx
 5316      000000
 5317 243a 4889C7   		movq	%rax, %rdi
 5318              	.LEHB232:
 5319 243d E8000000 		call	bufReadFromIntelHexFile@PLT
 5319      00
 5320              	.LEHE232:
 5321 2442 898514FC 		movl	%eax, -1004(%rbp)
 5321      FFFF
 5322              	.LEHB233:
 230:testHexIO.cpp **** 	CHECK_EQUAL(BUF_SUCCESS, status);
 5323              		.loc 4 230 0
 5324 2448 E8000000 		call	_ZN8UnitTest11CurrentTest7DetailsEv@PLT
 5324      00
 5325              		.loc 4 230 0 is_stmt 0 discriminator 1
 5326 244d 488B08   		movq	(%rax), %rcx
 5327 2450 488D85C0 		leaq	-832(%rbp), %rax
 5327      FCFFFF
 5328 2457 BAE60000 		movl	$230, %edx
 5328      00
 5329 245c 4889CE   		movq	%rcx, %rsi
 5330 245f 4889C7   		movq	%rax, %rdi
 5331 2462 E8000000 		call	_ZN8UnitTest11TestDetailsC1ERKS0_i@PLT
 5331      00
 5332              	.LEHE233:
 5333              		.loc 4 230 0 discriminator 2
 5334 2467 C7851CFC 		movl	$0, -996(%rbp)
 5334      FFFF0000 
 5334      0000
 5335              	.LEHB234:
 5336 2471 E8000000 		call	_ZN8UnitTest11CurrentTest7ResultsEv@PLT
 5336      00
 5337 2476 488B00   		movq	(%rax), %rax
 5338 2479 488D8DC0 		leaq	-832(%rbp), %rcx
 5338      FCFFFF
 5339 2480 488D9514 		leaq	-1004(%rbp), %rdx
 5339      FCFFFF
 5340 2487 488DB51C 		leaq	-996(%rbp), %rsi
 5340      FCFFFF
 5341 248e 4889C7   		movq	%rax, %rdi
 5342 2491 E8000000 		call	_ZN8UnitTest10CheckEqualI12BufferStatusS1_EEvRNS_11TestResultsERKT_RKT0_RKNS_11TestDetailsE
 5342      00
 5343              	.LEHE234:
 5344              	.L332:
 5345              	.LEHB235:
 231:testHexIO.cpp **** 	CHECK_EQUAL(data.length, readbackData.length);
 5346              		.loc 4 231 0 is_stmt 1
 5347 2496 E8000000 		call	_ZN8UnitTest11CurrentTest7DetailsEv@PLT
 5347      00
 5348 249b 488B08   		movq	(%rax), %rcx
 5349 249e 488D85C0 		leaq	-832(%rbp), %rax
 5349      FCFFFF
 5350 24a5 BAE70000 		movl	$231, %edx
 5350      00
 5351 24aa 4889CE   		movq	%rcx, %rsi
 5352 24ad 4889C7   		movq	%rax, %rdi
 5353 24b0 E8000000 		call	_ZN8UnitTest11TestDetailsC1ERKS0_i@PLT
 5353      00
 5354              		.loc 4 231 0 is_stmt 0 discriminator 2
 5355 24b5 E8000000 		call	_ZN8UnitTest11CurrentTest7ResultsEv@PLT
 5355      00
 5356 24ba 488B00   		movq	(%rax), %rax
 5357 24bd 488D95C0 		leaq	-832(%rbp), %rdx
 5357      FCFFFF
 5358 24c4 488D8D80 		leaq	-896(%rbp), %rcx
 5358      FCFFFF
 5359 24cb 488D7908 		leaq	8(%rcx), %rdi
 5360 24cf 488D8D40 		leaq	-960(%rbp), %rcx
 5360      FCFFFF
 5361 24d6 488D7108 		leaq	8(%rcx), %rsi
 5362 24da 4889D1   		movq	%rdx, %rcx
 5363 24dd 4889FA   		movq	%rdi, %rdx
 5364 24e0 4889C7   		movq	%rax, %rdi
 5365 24e3 E8000000 		call	_ZN8UnitTest10CheckEqualImmEEvRNS_11TestResultsERKT_RKT0_RKNS_11TestDetailsE
 5365      00
 5366              	.LEHE235:
 5367              	.L335:
 5368              	.LEHB236:
 232:testHexIO.cpp **** 	CHECK_ARRAY_EQUAL(data.data, readbackData.data, (int)data.length);
 5369              		.loc 4 232 0 is_stmt 1
 5370 24e8 E8000000 		call	_ZN8UnitTest11CurrentTest7DetailsEv@PLT
 5370      00
 5371 24ed 488B08   		movq	(%rax), %rcx
 5372 24f0 488D85C0 		leaq	-832(%rbp), %rax
 5372      FCFFFF
 5373 24f7 BAE80000 		movl	$232, %edx
 5373      00
 5374 24fc 4889CE   		movq	%rcx, %rsi
 5375 24ff 4889C7   		movq	%rax, %rdi
 5376 2502 E8000000 		call	_ZN8UnitTest11TestDetailsC1ERKS0_i@PLT
 5376      00
 5377              		.loc 4 232 0 is_stmt 0 discriminator 2
 5378 2507 488B8548 		movq	-952(%rbp), %rax
 5378      FCFFFF
 5379 250e 89C3     		movl	%eax, %ebx
 5380 2510 E8000000 		call	_ZN8UnitTest11CurrentTest7ResultsEv@PLT
 5380      00
 5381 2515 488B00   		movq	(%rax), %rax
 5382 2518 488D8DC0 		leaq	-832(%rbp), %rcx
 5382      FCFFFF
 5383 251f 488D9580 		leaq	-896(%rbp), %rdx
 5383      FCFFFF
 5384 2526 488DB540 		leaq	-960(%rbp), %rsi
 5384      FCFFFF
 5385 252d 4989C8   		movq	%rcx, %r8
 5386 2530 89D9     		movl	%ebx, %ecx
 5387 2532 4889C7   		movq	%rax, %rdi
 5388 2535 E8000000 		call	_ZN8UnitTest15CheckArrayEqualIPhS1_EEvRNS_11TestResultsERKT_RKT0_iRKNS_11TestDetailsE
 5388      00
 5389              	.LEHE236:
 5390              	.L338:
 5391              	.LEHB237:
 233:testHexIO.cpp **** 	CHECK_EQUAL(mask.length, readbackMask.length);
 5392              		.loc 4 233 0 is_stmt 1
 5393 253a E8000000 		call	_ZN8UnitTest11CurrentTest7DetailsEv@PLT
 5393      00
 5394 253f 488B08   		movq	(%rax), %rcx
 5395 2542 488D85C0 		leaq	-832(%rbp), %rax
 5395      FCFFFF
 5396 2549 BAE90000 		movl	$233, %edx
 5396      00
 5397 254e 4889CE   		movq	%rcx, %rsi
 5398 2551 4889C7   		movq	%rax, %rdi
 5399 2554 E8000000 		call	_ZN8UnitTest11TestDetailsC1ERKS0_i@PLT
 5399      00
 5400              		.loc 4 233 0 is_stmt 0 discriminator 2
 5401 2559 E8000000 		call	_ZN8UnitTest11CurrentTest7ResultsEv@PLT
 5401      00
 5402 255e 488B00   		movq	(%rax), %rax
 5403 2561 488D95C0 		leaq	-832(%rbp), %rdx
 5403      FCFFFF
 5404 2568 488D8DA0 		leaq	-864(%rbp), %rcx
 5404      FCFFFF
 5405 256f 488D7908 		leaq	8(%rcx), %rdi
 5406 2573 488D8D60 		leaq	-928(%rbp), %rcx
 5406      FCFFFF
 5407 257a 488D7108 		leaq	8(%rcx), %rsi
 5408 257e 4889D1   		movq	%rdx, %rcx
 5409 2581 4889FA   		movq	%rdi, %rdx
 5410 2584 4889C7   		movq	%rax, %rdi
 5411 2587 E8000000 		call	_ZN8UnitTest10CheckEqualImmEEvRNS_11TestResultsERKT_RKT0_RKNS_11TestDetailsE
 5411      00
 5412              	.LEHE237:
 5413              	.L341:
 5414              	.LEHB238:
 234:testHexIO.cpp **** 	CHECK_ARRAY_EQUAL(mask.data, readbackMask.data, (int)mask.length);
 5415              		.loc 4 234 0 is_stmt 1
 5416 258c E8000000 		call	_ZN8UnitTest11CurrentTest7DetailsEv@PLT
 5416      00
 5417 2591 488B08   		movq	(%rax), %rcx
 5418 2594 488D85C0 		leaq	-832(%rbp), %rax
 5418      FCFFFF
 5419 259b BAEA0000 		movl	$234, %edx
 5419      00
 5420 25a0 4889CE   		movq	%rcx, %rsi
 5421 25a3 4889C7   		movq	%rax, %rdi
 5422 25a6 E8000000 		call	_ZN8UnitTest11TestDetailsC1ERKS0_i@PLT
 5422      00
 5423              		.loc 4 234 0 is_stmt 0 discriminator 2
 5424 25ab 488B8568 		movq	-920(%rbp), %rax
 5424      FCFFFF
 5425 25b2 89C3     		movl	%eax, %ebx
 5426 25b4 E8000000 		call	_ZN8UnitTest11CurrentTest7ResultsEv@PLT
 5426      00
 5427 25b9 488B00   		movq	(%rax), %rax
 5428 25bc 488D8DC0 		leaq	-832(%rbp), %rcx
 5428      FCFFFF
 5429 25c3 488D95A0 		leaq	-864(%rbp), %rdx
 5429      FCFFFF
 5430 25ca 488DB560 		leaq	-928(%rbp), %rsi
 5430      FCFFFF
 5431 25d1 4989C8   		movq	%rcx, %r8
 5432 25d4 89D9     		movl	%ebx, %ecx
 5433 25d6 4889C7   		movq	%rax, %rdi
 5434 25d9 E8000000 		call	_ZN8UnitTest15CheckArrayEqualIPhS1_EEvRNS_11TestResultsERKT_RKT0_iRKNS_11TestDetailsE
 5434      00
 5435              	.LEHE238:
 5436              	.L344:
 235:testHexIO.cpp **** 	
 236:testHexIO.cpp **** 	bufDestroy(&readbackMask);
 5437              		.loc 4 236 0 is_stmt 1
 5438 25de 488D85A0 		leaq	-864(%rbp), %rax
 5438      FCFFFF
 5439 25e5 4889C7   		movq	%rax, %rdi
 5440              	.LEHB239:
 5441 25e8 E8000000 		call	bufDestroy@PLT
 5441      00
 237:testHexIO.cpp **** 	bufDestroy(&readbackData);
 5442              		.loc 4 237 0
 5443 25ed 488D8580 		leaq	-896(%rbp), %rax
 5443      FCFFFF
 5444 25f4 4889C7   		movq	%rax, %rdi
 5445 25f7 E8000000 		call	bufDestroy@PLT
 5445      00
 238:testHexIO.cpp **** 	bufDestroy(&mask);
 5446              		.loc 4 238 0
 5447 25fc 488D8560 		leaq	-928(%rbp), %rax
 5447      FCFFFF
 5448 2603 4889C7   		movq	%rax, %rdi
 5449 2606 E8000000 		call	bufDestroy@PLT
 5449      00
 239:testHexIO.cpp **** 	bufDestroy(&data);
 5450              		.loc 4 239 0
 5451 260b 488D8540 		leaq	-960(%rbp), %rax
 5451      FCFFFF
 5452 2612 4889C7   		movq	%rax, %rdi
 5453 2615 E8000000 		call	bufDestroy@PLT
 5453      00
 5454              	.LEHE239:
 213:testHexIO.cpp **** 	streamoff length;
 5455              		.loc 4 213 0
 5456 261a 488D8530 		leaq	-720(%rbp), %rax
 5456      FDFFFF
 5457 2621 4889C7   		movq	%rax, %rdi
 5458              	.LEHB240:
 5459 2624 E8000000 		call	_ZNSt14basic_ifstreamIcSt11char_traitsIcEED1Ev@PLT
 5459      00
 5460              	.LEHE240:
 192:testHexIO.cpp **** 	uint8 recordType;
 5461              		.loc 4 192 0
 5462 2629 488D8510 		leaq	-752(%rbp), %rax
 5462      FDFFFF
 5463 2630 4889C7   		movq	%rax, %rdi
 5464              	.LEHB241:
 5465 2633 E8000000 		call	_ZNSt7__cxx1112basic_stringIcSt11char_traitsIcESaIcEED1Ev@PLT
 5465      00
 5466              	.LEHE241:
 240:testHexIO.cpp **** }
 5467              		.loc 4 240 0
 5468 2638 90       		nop
 5469 2639 488B8538 		movq	-200(%rbp), %rax
 5469      FFFFFF
 5470 2640 64483304 		xorq	%fs:40, %rax
 5470      25280000 
 5470      00
 5471 2649 0F847905 		je	.L346
 5471      0000
 5472 264f E96F0500 		jmp	.L386
 5472      00
 5473              	.L349:
 5474 2654 EB00     		jmp	.L295
 5475              	.L348:
 5476              	.L295:
 196:testHexIO.cpp **** 	status = bufInitialise(&mask, 1024, 0x00, NULL);
 5477              		.loc 4 196 0
 5478 2656 4889C7   		movq	%rax, %rdi
 5479 2659 E8000000 		call	__cxa_begin_catch@PLT
 5479      00
 5480              	.LEHB242:
 5481 265e E8000000 		call	_ZN8UnitTest11CurrentTest7ResultsEv@PLT
 5481      00
 5482 2663 488B18   		movq	(%rax), %rbx
 5483 2666 E8000000 		call	_ZN8UnitTest11CurrentTest7DetailsEv@PLT
 5483      00
 196:testHexIO.cpp **** 	status = bufInitialise(&mask, 1024, 0x00, NULL);
 5484              		.loc 4 196 0 is_stmt 0 discriminator 8
 5485 266b 488B08   		movq	(%rax), %rcx
 5486 266e 488D85C0 		leaq	-832(%rbp), %rax
 5486      FCFFFF
 5487 2675 BAC40000 		movl	$196, %edx
 5487      00
 5488 267a 4889CE   		movq	%rcx, %rsi
 5489 267d 4889C7   		movq	%rax, %rdi
 5490 2680 E8000000 		call	_ZN8UnitTest11TestDetailsC1ERKS0_i@PLT
 5490      00
 196:testHexIO.cpp **** 	status = bufInitialise(&mask, 1024, 0x00, NULL);
 5491              		.loc 4 196 0 discriminator 12
 5492 2685 488D85C0 		leaq	-832(%rbp), %rax
 5492      FCFFFF
 5493 268c 488D1500 		leaq	.LC4(%rip), %rdx
 5493      000000
 5494 2693 4889C6   		movq	%rax, %rsi
 5495 2696 4889DF   		movq	%rbx, %rdi
 5496 2699 E8000000 		call	_ZN8UnitTest11TestResults13OnTestFailureERKNS_11TestDetailsEPKc@PLT
 5496      00
 5497              	.LEHE242:
 5498              	.LEHB243:
 196:testHexIO.cpp **** 	status = bufInitialise(&mask, 1024, 0x00, NULL);
 5499              		.loc 4 196 0 discriminator 14
 5500 269e E8000000 		call	__cxa_end_catch@PLT
 5500      00
 5501              	.LEHE243:
 196:testHexIO.cpp **** 	status = bufInitialise(&mask, 1024, 0x00, NULL);
 5502              		.loc 4 196 0
 5503 26a3 E92FF8FF 		jmp	.L296
 5503      FF
 5504              	.L350:
 5505 26a8 4889C3   		movq	%rax, %rbx
 5506 26ab E8000000 		call	__cxa_end_catch@PLT
 5506      00
 5507 26b0 E9F40400 		jmp	.L298
 5507      00
 5508              	.L352:
 5509 26b5 EB00     		jmp	.L300
 5510              	.L351:
 5511              	.L300:
 198:testHexIO.cpp **** 	va_start(vl, firstLine);
 5512              		.loc 4 198 0 is_stmt 1
 5513 26b7 4889C7   		movq	%rax, %rdi
 5514 26ba E8000000 		call	__cxa_begin_catch@PLT
 5514      00
 5515              	.LEHB244:
 5516 26bf E8000000 		call	_ZN8UnitTest11CurrentTest7ResultsEv@PLT
 5516      00
 5517 26c4 488B18   		movq	(%rax), %rbx
 5518 26c7 E8000000 		call	_ZN8UnitTest11CurrentTest7DetailsEv@PLT
 5518      00
 198:testHexIO.cpp **** 	va_start(vl, firstLine);
 5519              		.loc 4 198 0 is_stmt 0 discriminator 8
 5520 26cc 488B08   		movq	(%rax), %rcx
 5521 26cf 488D85C0 		leaq	-832(%rbp), %rax
 5521      FCFFFF
 5522 26d6 BAC60000 		movl	$198, %edx
 5522      00
 5523 26db 4889CE   		movq	%rcx, %rsi
 5524 26de 4889C7   		movq	%rax, %rdi
 5525 26e1 E8000000 		call	_ZN8UnitTest11TestDetailsC1ERKS0_i@PLT
 5525      00
 198:testHexIO.cpp **** 	va_start(vl, firstLine);
 5526              		.loc 4 198 0 discriminator 12
 5527 26e6 488D85C0 		leaq	-832(%rbp), %rax
 5527      FCFFFF
 5528 26ed 488D1500 		leaq	.LC4(%rip), %rdx
 5528      000000
 5529 26f4 4889C6   		movq	%rax, %rsi
 5530 26f7 4889DF   		movq	%rbx, %rdi
 5531 26fa E8000000 		call	_ZN8UnitTest11TestResults13OnTestFailureERKNS_11TestDetailsEPKc@PLT
 5531      00
 5532              	.LEHE244:
 5533              	.LEHB245:
 198:testHexIO.cpp **** 	va_start(vl, firstLine);
 5534              		.loc 4 198 0 discriminator 14
 5535 26ff E8000000 		call	__cxa_end_catch@PLT
 5535      00
 5536              	.LEHE245:
 198:testHexIO.cpp **** 	va_start(vl, firstLine);
 5537              		.loc 4 198 0
 5538 2704 E940F8FF 		jmp	.L301
 5538      FF
 5539              	.L353:
 5540 2709 4889C3   		movq	%rax, %rbx
 5541 270c E8000000 		call	__cxa_end_catch@PLT
 5541      00
 5542 2711 E9930400 		jmp	.L298
 5542      00
 5543              	.L355:
 5544 2716 EB00     		jmp	.L304
 5545              	.L354:
 5546              	.L304:
 203:testHexIO.cpp **** 		expected += line;
 5547              		.loc 4 203 0 is_stmt 1
 5548 2718 4889C7   		movq	%rax, %rdi
 5549 271b E8000000 		call	__cxa_begin_catch@PLT
 5549      00
 5550              	.LEHB246:
 5551 2720 E8000000 		call	_ZN8UnitTest11CurrentTest7ResultsEv@PLT
 5551      00
 5552 2725 488B18   		movq	(%rax), %rbx
 5553 2728 E8000000 		call	_ZN8UnitTest11CurrentTest7DetailsEv@PLT
 5553      00
 203:testHexIO.cpp **** 		expected += line;
 5554              		.loc 4 203 0 is_stmt 0 discriminator 8
 5555 272d 488B08   		movq	(%rax), %rcx
 5556 2730 488D85C0 		leaq	-832(%rbp), %rax
 5556      FCFFFF
 5557 2737 BACB0000 		movl	$203, %edx
 5557      00
 5558 273c 4889CE   		movq	%rcx, %rsi
 5559 273f 4889C7   		movq	%rax, %rdi
 5560 2742 E8000000 		call	_ZN8UnitTest11TestDetailsC1ERKS0_i@PLT
 5560      00
 203:testHexIO.cpp **** 		expected += line;
 5561              		.loc 4 203 0 discriminator 12
 5562 2747 488D85C0 		leaq	-832(%rbp), %rax
 5562      FCFFFF
 5563 274e 488D1500 		leaq	.LC4(%rip), %rdx
 5563      000000
 5564 2755 4889C6   		movq	%rax, %rsi
 5565 2758 4889DF   		movq	%rbx, %rdi
 5566 275b E8000000 		call	_ZN8UnitTest11TestResults13OnTestFailureERKNS_11TestDetailsEPKc@PLT
 5566      00
 5567              	.LEHE246:
 5568              	.LEHB247:
 203:testHexIO.cpp **** 		expected += line;
 5569              		.loc 4 203 0 discriminator 14
 5570 2760 E8000000 		call	__cxa_end_catch@PLT
 5570      00
 5571              	.LEHE247:
 203:testHexIO.cpp **** 		expected += line;
 5572              		.loc 4 203 0
 5573 2765 E9AEF8FF 		jmp	.L305
 5573      FF
 5574              	.L356:
 5575 276a 4889C3   		movq	%rax, %rbx
 5576 276d E8000000 		call	__cxa_end_catch@PLT
 5576      00
 5577 2772 E9320400 		jmp	.L298
 5577      00
 5578              	.L358:
 5579 2777 EB00     		jmp	.L308
 5580              	.L357:
 5581              	.L308:
 211:testHexIO.cpp **** 
 5582              		.loc 4 211 0 is_stmt 1
 5583 2779 4889C7   		movq	%rax, %rdi
 5584 277c E8000000 		call	__cxa_begin_catch@PLT
 5584      00
 5585              	.LEHB248:
 5586 2781 E8000000 		call	_ZN8UnitTest11CurrentTest7ResultsEv@PLT
 5586      00
 5587 2786 488B18   		movq	(%rax), %rbx
 5588 2789 E8000000 		call	_ZN8UnitTest11CurrentTest7DetailsEv@PLT
 5588      00
 211:testHexIO.cpp **** 
 5589              		.loc 4 211 0 is_stmt 0 discriminator 8
 5590 278e 488B08   		movq	(%rax), %rcx
 5591 2791 488D85C0 		leaq	-832(%rbp), %rax
 5591      FCFFFF
 5592 2798 BAD30000 		movl	$211, %edx
 5592      00
 5593 279d 4889CE   		movq	%rcx, %rsi
 5594 27a0 4889C7   		movq	%rax, %rdi
 5595 27a3 E8000000 		call	_ZN8UnitTest11TestDetailsC1ERKS0_i@PLT
 5595      00
 211:testHexIO.cpp **** 
 5596              		.loc 4 211 0 discriminator 12
 5597 27a8 488D85C0 		leaq	-832(%rbp), %rax
 5597      FCFFFF
 5598 27af 488D1500 		leaq	.LC4(%rip), %rdx
 5598      000000
 5599 27b6 4889C6   		movq	%rax, %rsi
 5600 27b9 4889DF   		movq	%rbx, %rdi
 5601 27bc E8000000 		call	_ZN8UnitTest11TestResults13OnTestFailureERKNS_11TestDetailsEPKc@PLT
 5601      00
 5602              	.LEHE248:
 5603              	.LEHB249:
 211:testHexIO.cpp **** 
 5604              		.loc 4 211 0 discriminator 14
 5605 27c1 E8000000 		call	__cxa_end_catch@PLT
 5605      00
 5606              	.LEHE249:
 211:testHexIO.cpp **** 
 5607              		.loc 4 211 0
 5608 27c6 E96BF9FF 		jmp	.L309
 5608      FF
 5609              	.L359:
 5610 27cb 4889C3   		movq	%rax, %rbx
 5611 27ce E8000000 		call	__cxa_end_catch@PLT
 5611      00
 5612 27d3 E9D10300 		jmp	.L298
 5612      00
 5613              	.L361:
 216:testHexIO.cpp **** 	length = file.tellg();
 5614              		.loc 4 216 0 is_stmt 1
 5615 27d8 4889C7   		movq	%rax, %rdi
 5616 27db E8000000 		call	__cxa_begin_catch@PLT
 5616      00
 5617              	.LEHB250:
 5618 27e0 E8000000 		call	_ZN8UnitTest11CurrentTest7ResultsEv@PLT
 5618      00
 5619 27e5 488B18   		movq	(%rax), %rbx
 5620 27e8 E8000000 		call	_ZN8UnitTest11CurrentTest7DetailsEv@PLT
 5620      00
 216:testHexIO.cpp **** 	length = file.tellg();
 5621              		.loc 4 216 0 is_stmt 0 discriminator 9
 5622 27ed 488B08   		movq	(%rax), %rcx
 5623 27f0 488D85C0 		leaq	-832(%rbp), %rax
 5623      FCFFFF
 5624 27f7 BAD80000 		movl	$216, %edx
 5624      00
 5625 27fc 4889CE   		movq	%rcx, %rsi
 5626 27ff 4889C7   		movq	%rax, %rdi
 5627 2802 E8000000 		call	_ZN8UnitTest11TestDetailsC1ERKS0_i@PLT
 5627      00
 216:testHexIO.cpp **** 	length = file.tellg();
 5628              		.loc 4 216 0 discriminator 13
 5629 2807 488D85C0 		leaq	-832(%rbp), %rax
 5629      FCFFFF
 5630 280e 488D1500 		leaq	.LC45(%rip), %rdx
 5630      000000
 5631 2815 4889C6   		movq	%rax, %rsi
 5632 2818 4889DF   		movq	%rbx, %rdi
 5633 281b E8000000 		call	_ZN8UnitTest11TestResults13OnTestFailureERKNS_11TestDetailsEPKc@PLT
 5633      00
 5634              	.LEHE250:
 5635              	.LEHB251:
 216:testHexIO.cpp **** 	length = file.tellg();
 5636              		.loc 4 216 0 discriminator 15
 5637 2820 E8000000 		call	__cxa_end_catch@PLT
 5637      00
 5638              	.LEHE251:
 216:testHexIO.cpp **** 	length = file.tellg();
 5639              		.loc 4 216 0
 5640 2825 E9A2F9FF 		jmp	.L293
 5640      FF
 5641              	.L362:
 5642 282a 4889C3   		movq	%rax, %rbx
 5643 282d E8000000 		call	__cxa_end_catch@PLT
 5643      00
 5644 2832 E95E0300 		jmp	.L313
 5644      00
 5645              	.L364:
 5646 2837 EB00     		jmp	.L315
 5647              	.L363:
 5648              	.L315:
 218:testHexIO.cpp **** 	char *fileData = new char[(unsigned int)length];
 5649              		.loc 4 218 0 is_stmt 1
 5650 2839 4889C7   		movq	%rax, %rdi
 5651 283c E8000000 		call	__cxa_begin_catch@PLT
 5651      00
 5652              	.LEHB252:
 5653 2841 E8000000 		call	_ZN8UnitTest11CurrentTest7ResultsEv@PLT
 5653      00
 5654 2846 488B18   		movq	(%rax), %rbx
 5655 2849 E8000000 		call	_ZN8UnitTest11CurrentTest7DetailsEv@PLT
 5655      00
 218:testHexIO.cpp **** 	char *fileData = new char[(unsigned int)length];
 5656              		.loc 4 218 0 is_stmt 0 discriminator 10
 5657 284e 488B08   		movq	(%rax), %rcx
 5658 2851 488D85C0 		leaq	-832(%rbp), %rax
 5658      FCFFFF
 5659 2858 BADA0000 		movl	$218, %edx
 5659      00
 5660 285d 4889CE   		movq	%rcx, %rsi
 5661 2860 4889C7   		movq	%rax, %rdi
 5662 2863 E8000000 		call	_ZN8UnitTest11TestDetailsC1ERKS0_i@PLT
 5662      00
 218:testHexIO.cpp **** 	char *fileData = new char[(unsigned int)length];
 5663              		.loc 4 218 0 discriminator 14
 5664 2868 488D85C0 		leaq	-832(%rbp), %rax
 5664      FCFFFF
 5665 286f 488D1500 		leaq	.LC46(%rip), %rdx
 5665      000000
 5666 2876 4889C6   		movq	%rax, %rsi
 5667 2879 4889DF   		movq	%rbx, %rdi
 5668 287c E8000000 		call	_ZN8UnitTest11TestResults13OnTestFailureERKNS_11TestDetailsEPKc@PLT
 5668      00
 5669              	.LEHE252:
 5670              	.LEHB253:
 218:testHexIO.cpp **** 	char *fileData = new char[(unsigned int)length];
 5671              		.loc 4 218 0 discriminator 16
 5672 2881 E8000000 		call	__cxa_end_catch@PLT
 5672      00
 5673              	.LEHE253:
 218:testHexIO.cpp **** 	char *fileData = new char[(unsigned int)length];
 5674              		.loc 4 218 0
 5675 2886 E9DBF9FF 		jmp	.L316
 5675      FF
 5676              	.L365:
 5677 288b 4889C3   		movq	%rax, %rbx
 5678 288e E8000000 		call	__cxa_end_catch@PLT
 5678      00
 5679 2893 E9FD0200 		jmp	.L313
 5679      00
 5680              	.L367:
 5681 2898 EB00     		jmp	.L319
 5682              	.L366:
 5683              	.L319:
 223:testHexIO.cpp **** 
 5684              		.loc 4 223 0 is_stmt 1
 5685 289a 4889C7   		movq	%rax, %rdi
 5686 289d E8000000 		call	__cxa_begin_catch@PLT
 5686      00
 5687              	.LEHB254:
 5688 28a2 E8000000 		call	_ZN8UnitTest11CurrentTest7ResultsEv@PLT
 5688      00
 5689 28a7 488B18   		movq	(%rax), %rbx
 5690 28aa E8000000 		call	_ZN8UnitTest11CurrentTest7DetailsEv@PLT
 5690      00
 223:testHexIO.cpp **** 
 5691              		.loc 4 223 0 is_stmt 0 discriminator 10
 5692 28af 488B08   		movq	(%rax), %rcx
 5693 28b2 488D85C0 		leaq	-832(%rbp), %rax
 5693      FCFFFF
 5694 28b9 BADF0000 		movl	$223, %edx
 5694      00
 5695 28be 4889CE   		movq	%rcx, %rsi
 5696 28c1 4889C7   		movq	%rax, %rdi
 5697 28c4 E8000000 		call	_ZN8UnitTest11TestDetailsC1ERKS0_i@PLT
 5697      00
 223:testHexIO.cpp **** 
 5698              		.loc 4 223 0 discriminator 14
 5699 28c9 488D85C0 		leaq	-832(%rbp), %rax
 5699      FCFFFF
 5700 28d0 488D1500 		leaq	.LC47(%rip), %rdx
 5700      000000
 5701 28d7 4889C6   		movq	%rax, %rsi
 5702 28da 4889DF   		movq	%rbx, %rdi
 5703 28dd E8000000 		call	_ZN8UnitTest11TestResults13OnTestFailureERKNS_11TestDetailsEPKc@PLT
 5703      00
 5704              	.LEHE254:
 5705              	.LEHB255:
 223:testHexIO.cpp **** 
 5706              		.loc 4 223 0 discriminator 16
 5707 28e2 E8000000 		call	__cxa_end_catch@PLT
 5707      00
 5708              	.LEHE255:
 223:testHexIO.cpp **** 
 5709              		.loc 4 223 0
 5710 28e7 E950FAFF 		jmp	.L320
 5710      FF
 5711              	.L368:
 5712 28ec 4889C3   		movq	%rax, %rbx
 5713 28ef E8000000 		call	__cxa_end_catch@PLT
 5713      00
 5714 28f4 E99C0200 		jmp	.L313
 5714      00
 5715              	.L370:
 5716 28f9 EB00     		jmp	.L323
 5717              	.L369:
 5718              	.L323:
 226:testHexIO.cpp **** 	status = bufInitialise(&readbackMask, 1024, 0x00, NULL);
 5719              		.loc 4 226 0 is_stmt 1
 5720 28fb 4889C7   		movq	%rax, %rdi
 5721 28fe E8000000 		call	__cxa_begin_catch@PLT
 5721      00
 5722              	.LEHB256:
 5723 2903 E8000000 		call	_ZN8UnitTest11CurrentTest7ResultsEv@PLT
 5723      00
 5724 2908 488B18   		movq	(%rax), %rbx
 5725 290b E8000000 		call	_ZN8UnitTest11CurrentTest7DetailsEv@PLT
 5725      00
 226:testHexIO.cpp **** 	status = bufInitialise(&readbackMask, 1024, 0x00, NULL);
 5726              		.loc 4 226 0 is_stmt 0 discriminator 8
 5727 2910 488B08   		movq	(%rax), %rcx
 5728 2913 488D85C0 		leaq	-832(%rbp), %rax
 5728      FCFFFF
 5729 291a BAE20000 		movl	$226, %edx
 5729      00
 5730 291f 4889CE   		movq	%rcx, %rsi
 5731 2922 4889C7   		movq	%rax, %rdi
 5732 2925 E8000000 		call	_ZN8UnitTest11TestDetailsC1ERKS0_i@PLT
 5732      00
 226:testHexIO.cpp **** 	status = bufInitialise(&readbackMask, 1024, 0x00, NULL);
 5733              		.loc 4 226 0 discriminator 12
 5734 292a 488D85C0 		leaq	-832(%rbp), %rax
 5734      FCFFFF
 5735 2931 488D1500 		leaq	.LC4(%rip), %rdx
 5735      000000
 5736 2938 4889C6   		movq	%rax, %rsi
 5737 293b 4889DF   		movq	%rbx, %rdi
 5738 293e E8000000 		call	_ZN8UnitTest11TestResults13OnTestFailureERKNS_11TestDetailsEPKc@PLT
 5738      00
 5739              	.LEHE256:
 5740              	.LEHB257:
 226:testHexIO.cpp **** 	status = bufInitialise(&readbackMask, 1024, 0x00, NULL);
 5741              		.loc 4 226 0 discriminator 14
 5742 2943 E8000000 		call	__cxa_end_catch@PLT
 5742      00
 5743              	.LEHE257:
 226:testHexIO.cpp **** 	status = bufInitialise(&readbackMask, 1024, 0x00, NULL);
 5744              		.loc 4 226 0
 5745 2948 E961FAFF 		jmp	.L324
 5745      FF
 5746              	.L371:
 5747 294d 4889C3   		movq	%rax, %rbx
 5748 2950 E8000000 		call	__cxa_end_catch@PLT
 5748      00
 5749 2955 E93B0200 		jmp	.L313
 5749      00
 5750              	.L373:
 5751 295a EB00     		jmp	.L327
 5752              	.L372:
 5753              	.L327:
 228:testHexIO.cpp **** 	status = bufReadFromIntelHexFile(&readbackData, &readbackMask, FILENAME, NULL);
 5754              		.loc 4 228 0 is_stmt 1
 5755 295c 4889C7   		movq	%rax, %rdi
 5756 295f E8000000 		call	__cxa_begin_catch@PLT
 5756      00
 5757              	.LEHB258:
 5758 2964 E8000000 		call	_ZN8UnitTest11CurrentTest7ResultsEv@PLT
 5758      00
 5759 2969 488B18   		movq	(%rax), %rbx
 5760 296c E8000000 		call	_ZN8UnitTest11CurrentTest7DetailsEv@PLT
 5760      00
 228:testHexIO.cpp **** 	status = bufReadFromIntelHexFile(&readbackData, &readbackMask, FILENAME, NULL);
 5761              		.loc 4 228 0 is_stmt 0 discriminator 8
 5762 2971 488B08   		movq	(%rax), %rcx
 5763 2974 488D85C0 		leaq	-832(%rbp), %rax
 5763      FCFFFF
 5764 297b BAE40000 		movl	$228, %edx
 5764      00
 5765 2980 4889CE   		movq	%rcx, %rsi
 5766 2983 4889C7   		movq	%rax, %rdi
 5767 2986 E8000000 		call	_ZN8UnitTest11TestDetailsC1ERKS0_i@PLT
 5767      00
 228:testHexIO.cpp **** 	status = bufReadFromIntelHexFile(&readbackData, &readbackMask, FILENAME, NULL);
 5768              		.loc 4 228 0 discriminator 12
 5769 298b 488D85C0 		leaq	-832(%rbp), %rax
 5769      FCFFFF
 5770 2992 488D1500 		leaq	.LC4(%rip), %rdx
 5770      000000
 5771 2999 4889C6   		movq	%rax, %rsi
 5772 299c 4889DF   		movq	%rbx, %rdi
 5773 299f E8000000 		call	_ZN8UnitTest11TestResults13OnTestFailureERKNS_11TestDetailsEPKc@PLT
 5773      00
 5774              	.LEHE258:
 5775              	.LEHB259:
 228:testHexIO.cpp **** 	status = bufReadFromIntelHexFile(&readbackData, &readbackMask, FILENAME, NULL);
 5776              		.loc 4 228 0 discriminator 14
 5777 29a4 E8000000 		call	__cxa_end_catch@PLT
 5777      00
 5778              	.LEHE259:
 228:testHexIO.cpp **** 	status = bufReadFromIntelHexFile(&readbackData, &readbackMask, FILENAME, NULL);
 5779              		.loc 4 228 0
 5780 29a9 E972FAFF 		jmp	.L328
 5780      FF
 5781              	.L374:
 5782 29ae 4889C3   		movq	%rax, %rbx
 5783 29b1 E8000000 		call	__cxa_end_catch@PLT
 5783      00
 5784 29b6 E9DA0100 		jmp	.L313
 5784      00
 5785              	.L376:
 5786 29bb EB00     		jmp	.L331
 5787              	.L375:
 5788              	.L331:
 230:testHexIO.cpp **** 	CHECK_EQUAL(data.length, readbackData.length);
 5789              		.loc 4 230 0 is_stmt 1
 5790 29bd 4889C7   		movq	%rax, %rdi
 5791 29c0 E8000000 		call	__cxa_begin_catch@PLT
 5791      00
 5792              	.LEHB260:
 5793 29c5 E8000000 		call	_ZN8UnitTest11CurrentTest7ResultsEv@PLT
 5793      00
 5794 29ca 488B18   		movq	(%rax), %rbx
 5795 29cd E8000000 		call	_ZN8UnitTest11CurrentTest7DetailsEv@PLT
 5795      00
 230:testHexIO.cpp **** 	CHECK_EQUAL(data.length, readbackData.length);
 5796              		.loc 4 230 0 is_stmt 0 discriminator 8
 5797 29d2 488B08   		movq	(%rax), %rcx
 5798 29d5 488D85C0 		leaq	-832(%rbp), %rax
 5798      FCFFFF
 5799 29dc BAE60000 		movl	$230, %edx
 5799      00
 5800 29e1 4889CE   		movq	%rcx, %rsi
 5801 29e4 4889C7   		movq	%rax, %rdi
 5802 29e7 E8000000 		call	_ZN8UnitTest11TestDetailsC1ERKS0_i@PLT
 5802      00
 230:testHexIO.cpp **** 	CHECK_EQUAL(data.length, readbackData.length);
 5803              		.loc 4 230 0 discriminator 12
 5804 29ec 488D85C0 		leaq	-832(%rbp), %rax
 5804      FCFFFF
 5805 29f3 488D1500 		leaq	.LC4(%rip), %rdx
 5805      000000
 5806 29fa 4889C6   		movq	%rax, %rsi
 5807 29fd 4889DF   		movq	%rbx, %rdi
 5808 2a00 E8000000 		call	_ZN8UnitTest11TestResults13OnTestFailureERKNS_11TestDetailsEPKc@PLT
 5808      00
 5809              	.LEHE260:
 5810              	.LEHB261:
 230:testHexIO.cpp **** 	CHECK_EQUAL(data.length, readbackData.length);
 5811              		.loc 4 230 0 discriminator 14
 5812 2a05 E8000000 		call	__cxa_end_catch@PLT
 5812      00
 5813              	.LEHE261:
 230:testHexIO.cpp **** 	CHECK_EQUAL(data.length, readbackData.length);
 5814              		.loc 4 230 0
 5815 2a0a E987FAFF 		jmp	.L332
 5815      FF
 5816              	.L377:
 5817 2a0f 4889C3   		movq	%rax, %rbx
 5818 2a12 E8000000 		call	__cxa_end_catch@PLT
 5818      00
 5819 2a17 E9790100 		jmp	.L313
 5819      00
 5820              	.L378:
 231:testHexIO.cpp **** 	CHECK_ARRAY_EQUAL(data.data, readbackData.data, (int)data.length);
 5821              		.loc 4 231 0 is_stmt 1
 5822 2a1c 4889C7   		movq	%rax, %rdi
 5823 2a1f E8000000 		call	__cxa_begin_catch@PLT
 5823      00
 5824              	.LEHB262:
 5825 2a24 E8000000 		call	_ZN8UnitTest11CurrentTest7ResultsEv@PLT
 5825      00
 5826 2a29 488B18   		movq	(%rax), %rbx
 5827 2a2c E8000000 		call	_ZN8UnitTest11CurrentTest7DetailsEv@PLT
 5827      00
 231:testHexIO.cpp **** 	CHECK_ARRAY_EQUAL(data.data, readbackData.data, (int)data.length);
 5828              		.loc 4 231 0 is_stmt 0 discriminator 8
 5829 2a31 488B08   		movq	(%rax), %rcx
 5830 2a34 488D85C0 		leaq	-832(%rbp), %rax
 5830      FCFFFF
 5831 2a3b BAE70000 		movl	$231, %edx
 5831      00
 5832 2a40 4889CE   		movq	%rcx, %rsi
 5833 2a43 4889C7   		movq	%rax, %rdi
 5834 2a46 E8000000 		call	_ZN8UnitTest11TestDetailsC1ERKS0_i@PLT
 5834      00
 231:testHexIO.cpp **** 	CHECK_ARRAY_EQUAL(data.data, readbackData.data, (int)data.length);
 5835              		.loc 4 231 0 discriminator 12
 5836 2a4b 488D85C0 		leaq	-832(%rbp), %rax
 5836      FCFFFF
 5837 2a52 488D1500 		leaq	.LC48(%rip), %rdx
 5837      000000
 5838 2a59 4889C6   		movq	%rax, %rsi
 5839 2a5c 4889DF   		movq	%rbx, %rdi
 5840 2a5f E8000000 		call	_ZN8UnitTest11TestResults13OnTestFailureERKNS_11TestDetailsEPKc@PLT
 5840      00
 5841              	.LEHE262:
 5842              	.LEHB263:
 231:testHexIO.cpp **** 	CHECK_ARRAY_EQUAL(data.data, readbackData.data, (int)data.length);
 5843              		.loc 4 231 0 discriminator 14
 5844 2a64 E8000000 		call	__cxa_end_catch@PLT
 5844      00
 5845              	.LEHE263:
 231:testHexIO.cpp **** 	CHECK_ARRAY_EQUAL(data.data, readbackData.data, (int)data.length);
 5846              		.loc 4 231 0
 5847 2a69 E97AFAFF 		jmp	.L335
 5847      FF
 5848              	.L379:
 5849 2a6e 4889C3   		movq	%rax, %rbx
 5850 2a71 E8000000 		call	__cxa_end_catch@PLT
 5850      00
 5851 2a76 E91A0100 		jmp	.L313
 5851      00
 5852              	.L380:
 232:testHexIO.cpp **** 	CHECK_EQUAL(mask.length, readbackMask.length);
 5853              		.loc 4 232 0 is_stmt 1
 5854 2a7b 4889C7   		movq	%rax, %rdi
 5855 2a7e E8000000 		call	__cxa_begin_catch@PLT
 5855      00
 5856              	.LEHB264:
 5857 2a83 E8000000 		call	_ZN8UnitTest11CurrentTest7ResultsEv@PLT
 5857      00
 5858 2a88 488B18   		movq	(%rax), %rbx
 5859 2a8b E8000000 		call	_ZN8UnitTest11CurrentTest7DetailsEv@PLT
 5859      00
 232:testHexIO.cpp **** 	CHECK_EQUAL(mask.length, readbackMask.length);
 5860              		.loc 4 232 0 is_stmt 0 discriminator 8
 5861 2a90 488B08   		movq	(%rax), %rcx
 5862 2a93 488D85C0 		leaq	-832(%rbp), %rax
 5862      FCFFFF
 5863 2a9a BAE80000 		movl	$232, %edx
 5863      00
 5864 2a9f 4889CE   		movq	%rcx, %rsi
 5865 2aa2 4889C7   		movq	%rax, %rdi
 5866 2aa5 E8000000 		call	_ZN8UnitTest11TestDetailsC1ERKS0_i@PLT
 5866      00
 232:testHexIO.cpp **** 	CHECK_EQUAL(mask.length, readbackMask.length);
 5867              		.loc 4 232 0 discriminator 12
 5868 2aaa 488D85C0 		leaq	-832(%rbp), %rax
 5868      FCFFFF
 5869 2ab1 488D1500 		leaq	.LC49(%rip), %rdx
 5869      000000
 5870 2ab8 4889C6   		movq	%rax, %rsi
 5871 2abb 4889DF   		movq	%rbx, %rdi
 5872 2abe E8000000 		call	_ZN8UnitTest11TestResults13OnTestFailureERKNS_11TestDetailsEPKc@PLT
 5872      00
 5873              	.LEHE264:
 5874              	.LEHB265:
 232:testHexIO.cpp **** 	CHECK_EQUAL(mask.length, readbackMask.length);
 5875              		.loc 4 232 0 discriminator 14
 5876 2ac3 E8000000 		call	__cxa_end_catch@PLT
 5876      00
 5877              	.LEHE265:
 232:testHexIO.cpp **** 	CHECK_EQUAL(mask.length, readbackMask.length);
 5878              		.loc 4 232 0
 5879 2ac8 E96DFAFF 		jmp	.L338
 5879      FF
 5880              	.L381:
 5881 2acd 4889C3   		movq	%rax, %rbx
 5882 2ad0 E8000000 		call	__cxa_end_catch@PLT
 5882      00
 5883 2ad5 E9BB0000 		jmp	.L313
 5883      00
 5884              	.L382:
 233:testHexIO.cpp **** 	CHECK_ARRAY_EQUAL(mask.data, readbackMask.data, (int)mask.length);
 5885              		.loc 4 233 0 is_stmt 1
 5886 2ada 4889C7   		movq	%rax, %rdi
 5887 2add E8000000 		call	__cxa_begin_catch@PLT
 5887      00
 5888              	.LEHB266:
 5889 2ae2 E8000000 		call	_ZN8UnitTest11CurrentTest7ResultsEv@PLT
 5889      00
 5890 2ae7 488B18   		movq	(%rax), %rbx
 5891 2aea E8000000 		call	_ZN8UnitTest11CurrentTest7DetailsEv@PLT
 5891      00
 233:testHexIO.cpp **** 	CHECK_ARRAY_EQUAL(mask.data, readbackMask.data, (int)mask.length);
 5892              		.loc 4 233 0 is_stmt 0 discriminator 8
 5893 2aef 488B08   		movq	(%rax), %rcx
 5894 2af2 488D85C0 		leaq	-832(%rbp), %rax
 5894      FCFFFF
 5895 2af9 BAE90000 		movl	$233, %edx
 5895      00
 5896 2afe 4889CE   		movq	%rcx, %rsi
 5897 2b01 4889C7   		movq	%rax, %rdi
 5898 2b04 E8000000 		call	_ZN8UnitTest11TestDetailsC1ERKS0_i@PLT
 5898      00
 233:testHexIO.cpp **** 	CHECK_ARRAY_EQUAL(mask.data, readbackMask.data, (int)mask.length);
 5899              		.loc 4 233 0 discriminator 12
 5900 2b09 488D85C0 		leaq	-832(%rbp), %rax
 5900      FCFFFF
 5901 2b10 488D1500 		leaq	.LC50(%rip), %rdx
 5901      000000
 5902 2b17 4889C6   		movq	%rax, %rsi
 5903 2b1a 4889DF   		movq	%rbx, %rdi
 5904 2b1d E8000000 		call	_ZN8UnitTest11TestResults13OnTestFailureERKNS_11TestDetailsEPKc@PLT
 5904      00
 5905              	.LEHE266:
 5906              	.LEHB267:
 233:testHexIO.cpp **** 	CHECK_ARRAY_EQUAL(mask.data, readbackMask.data, (int)mask.length);
 5907              		.loc 4 233 0 discriminator 14
 5908 2b22 E8000000 		call	__cxa_end_catch@PLT
 5908      00
 5909              	.LEHE267:
 233:testHexIO.cpp **** 	CHECK_ARRAY_EQUAL(mask.data, readbackMask.data, (int)mask.length);
 5910              		.loc 4 233 0
 5911 2b27 E960FAFF 		jmp	.L341
 5911      FF
 5912              	.L383:
 5913 2b2c 4889C3   		movq	%rax, %rbx
 5914 2b2f E8000000 		call	__cxa_end_catch@PLT
 5914      00
 5915 2b34 EB5F     		jmp	.L313
 5916              	.L384:
 234:testHexIO.cpp **** 	
 5917              		.loc 4 234 0 is_stmt 1
 5918 2b36 4889C7   		movq	%rax, %rdi
 5919 2b39 E8000000 		call	__cxa_begin_catch@PLT
 5919      00
 5920              	.LEHB268:
 5921 2b3e E8000000 		call	_ZN8UnitTest11CurrentTest7ResultsEv@PLT
 5921      00
 5922 2b43 488B18   		movq	(%rax), %rbx
 5923 2b46 E8000000 		call	_ZN8UnitTest11CurrentTest7DetailsEv@PLT
 5923      00
 234:testHexIO.cpp **** 	
 5924              		.loc 4 234 0 is_stmt 0 discriminator 8
 5925 2b4b 488B08   		movq	(%rax), %rcx
 5926 2b4e 488D85C0 		leaq	-832(%rbp), %rax
 5926      FCFFFF
 5927 2b55 BAEA0000 		movl	$234, %edx
 5927      00
 5928 2b5a 4889CE   		movq	%rcx, %rsi
 5929 2b5d 4889C7   		movq	%rax, %rdi
 5930 2b60 E8000000 		call	_ZN8UnitTest11TestDetailsC1ERKS0_i@PLT
 5930      00
 234:testHexIO.cpp **** 	
 5931              		.loc 4 234 0 discriminator 12
 5932 2b65 488D85C0 		leaq	-832(%rbp), %rax
 5932      FCFFFF
 5933 2b6c 488D1500 		leaq	.LC51(%rip), %rdx
 5933      000000
 5934 2b73 4889C6   		movq	%rax, %rsi
 5935 2b76 4889DF   		movq	%rbx, %rdi
 5936 2b79 E8000000 		call	_ZN8UnitTest11TestResults13OnTestFailureERKNS_11TestDetailsEPKc@PLT
 5936      00
 5937              	.LEHE268:
 5938              	.LEHB269:
 234:testHexIO.cpp **** 	
 5939              		.loc 4 234 0 discriminator 14
 5940 2b7e E8000000 		call	__cxa_end_catch@PLT
 5940      00
 5941              	.LEHE269:
 234:testHexIO.cpp **** 	
 5942              		.loc 4 234 0
 5943 2b83 E956FAFF 		jmp	.L344
 5943      FF
 5944              	.L385:
 5945 2b88 4889C3   		movq	%rax, %rbx
 5946 2b8b E8000000 		call	__cxa_end_catch@PLT
 5946      00
 5947 2b90 EB03     		jmp	.L313
 5948              	.L360:
 5949 2b92 4889C3   		movq	%rax, %rbx
 5950              	.L313:
 213:testHexIO.cpp **** 	streamoff length;
 5951              		.loc 4 213 0 is_stmt 1
 5952 2b95 488D8530 		leaq	-720(%rbp), %rax
 5952      FDFFFF
 5953 2b9c 4889C7   		movq	%rax, %rdi
 5954 2b9f E8000000 		call	_ZNSt14basic_ifstreamIcSt11char_traitsIcEED1Ev@PLT
 5954      00
 5955 2ba4 EB03     		jmp	.L298
 5956              	.L347:
 5957 2ba6 4889C3   		movq	%rax, %rbx
 5958              	.L298:
 192:testHexIO.cpp **** 	uint8 recordType;
 5959              		.loc 4 192 0
 5960 2ba9 488D8510 		leaq	-752(%rbp), %rax
 5960      FDFFFF
 5961 2bb0 4889C7   		movq	%rax, %rdi
 5962 2bb3 E8000000 		call	_ZNSt7__cxx1112basic_stringIcSt11char_traitsIcESaIcEED1Ev@PLT
 5962      00
 5963 2bb8 4889D8   		movq	%rbx, %rax
 5964 2bbb 4889C7   		movq	%rax, %rdi
 5965              	.LEHB270:
 5966 2bbe E8000000 		call	_Unwind_Resume@PLT
 5966      00
 5967              	.LEHE270:
 5968              	.L386:
 5969              		.loc 4 240 0
 5970 2bc3 E8000000 		call	__stack_chk_fail@PLT
 5970      00
 5971              	.L346:
 5972 2bc8 488B5DF8 		movq	-8(%rbp), %rbx
 5973 2bcc C9       		leave
 5974              		.cfi_def_cfa 7, 8
 5975 2bcd C3       		ret
 5976              		.cfi_endproc
 5977              	.LFE1200:
 5978              		.section	.gcc_except_table
 5979              		.align 4
 5980              	.LLSDA1200:
 5981 04dc FF       		.byte	0xff
 5982 04dd 9B       		.byte	0x9b
 5983 04de 9C03     		.uleb128 .LLSDATT1200-.LLSDATTD1200
 5984              	.LLSDATTD1200:
 5985 04e0 01       		.byte	0x1
 5986 04e1 9003     		.uleb128 .LLSDACSE1200-.LLSDACSB1200
 5987              	.LLSDACSB1200:
 5988 04e3 8701     		.uleb128 .LEHB204-.LFB1200
 5989 04e5 05       		.uleb128 .LEHE204-.LEHB204
 5990 04e6 00       		.uleb128 0
 5991 04e7 00       		.uleb128 0
 5992 04e8 AF01     		.uleb128 .LEHB205-.LFB1200
 5993 04ea 05       		.uleb128 .LEHE205-.LEHB205
 5994 04eb D71B     		.uleb128 .L347-.LFB1200
 5995 04ed 00       		.uleb128 0
 5996 04ee BA01     		.uleb128 .LEHB206-.LFB1200
 5997 04f0 1F       		.uleb128 .LEHE206-.LEHB206
 5998 04f1 8711     		.uleb128 .L348-.LFB1200
 5999 04f3 01       		.uleb128 0x1
 6000 04f4 E301     		.uleb128 .LEHB207-.LFB1200
 6001 04f6 25       		.uleb128 .LEHE207-.LEHB207
 6002 04f7 8511     		.uleb128 .L349-.LFB1200
 6003 04f9 01       		.uleb128 0x1
 6004 04fa A102     		.uleb128 .LEHB208-.LFB1200
 6005 04fc 05       		.uleb128 .LEHE208-.LEHB208
 6006 04fd D71B     		.uleb128 .L347-.LFB1200
 6007 04ff 00       		.uleb128 0
 6008 0500 AC02     		.uleb128 .LEHB209-.LFB1200
 6009 0502 1F       		.uleb128 .LEHE209-.LEHB209
 6010 0503 E811     		.uleb128 .L351-.LFB1200
 6011 0505 01       		.uleb128 0x1
 6012 0506 D502     		.uleb128 .LEHB210-.LFB1200
 6013 0508 25       		.uleb128 .LEHE210-.LEHB210
 6014 0509 E611     		.uleb128 .L352-.LFB1200
 6015 050b 01       		.uleb128 0x1
 6016 050c EC03     		.uleb128 .LEHB211-.LFB1200
 6017 050e 05       		.uleb128 .LEHE211-.LEHB211
 6018 050f D71B     		.uleb128 .L347-.LFB1200
 6019 0511 00       		.uleb128 0
 6020 0512 FB03     		.uleb128 .LEHB212-.LFB1200
 6021 0514 1F       		.uleb128 .LEHE212-.LEHB212
 6022 0515 C912     		.uleb128 .L354-.LFB1200
 6023 0517 01       		.uleb128 0x1
 6024 0518 A404     		.uleb128 .LEHB213-.LFB1200
 6025 051a 25       		.uleb128 .LEHE213-.LEHB213
 6026 051b C712     		.uleb128 .L355-.LFB1200
 6027 051d 01       		.uleb128 0x1
 6028 051e DD04     		.uleb128 .LEHB214-.LFB1200
 6029 0520 B601     		.uleb128 .LEHE214-.LEHB214
 6030 0522 D71B     		.uleb128 .L347-.LFB1200
 6031 0524 00       		.uleb128 0
 6032 0525 9906     		.uleb128 .LEHB215-.LFB1200
 6033 0527 1F       		.uleb128 .LEHE215-.LEHB215
 6034 0528 AA13     		.uleb128 .L357-.LFB1200
 6035 052a 01       		.uleb128 0x1
 6036 052b C206     		.uleb128 .LEHB216-.LFB1200
 6037 052d 25       		.uleb128 .LEHE216-.LEHB216
 6038 052e A813     		.uleb128 .L358-.LFB1200
 6039 0530 01       		.uleb128 0x1
 6040 0531 F106     		.uleb128 .LEHB217-.LFB1200
 6041 0533 05       		.uleb128 .LEHE217-.LEHB217
 6042 0534 D71B     		.uleb128 .L347-.LFB1200
 6043 0536 00       		.uleb128 0
 6044 0537 9807     		.uleb128 .LEHB218-.LFB1200
 6045 0539 05       		.uleb128 .LEHE218-.LEHB218
 6046 053a C31B     		.uleb128 .L360-.LFB1200
 6047 053c 00       		.uleb128 0
 6048 053d A707     		.uleb128 .LEHB219-.LFB1200
 6049 053f 56       		.uleb128 .LEHE219-.LEHB219
 6050 0540 8914     		.uleb128 .L361-.LFB1200
 6051 0542 01       		.uleb128 0x1
 6052 0543 8708     		.uleb128 .LEHB220-.LFB1200
 6053 0545 05       		.uleb128 .LEHE220-.LEHB220
 6054 0546 C31B     		.uleb128 .L360-.LFB1200
 6055 0548 00       		.uleb128 0
 6056 0549 B008     		.uleb128 .LEHB221-.LFB1200
 6057 054b 1F       		.uleb128 .LEHE221-.LEHB221
 6058 054c EA14     		.uleb128 .L363-.LFB1200
 6059 054e 01       		.uleb128 0x1
 6060 054f E608     		.uleb128 .LEHB222-.LFB1200
 6061 0551 31       		.uleb128 .LEHE222-.LEHB222
 6062 0552 E814     		.uleb128 .L364-.LFB1200
 6063 0554 01       		.uleb128 0x1
 6064 0555 A309     		.uleb128 .LEHB223-.LFB1200
 6065 0557 54       		.uleb128 .LEHE223-.LEHB223
 6066 0558 C31B     		.uleb128 .L360-.LFB1200
 6067 055a 00       		.uleb128 0
 6068 055b F709     		.uleb128 .LEHB224-.LFB1200
 6069 055d 1F       		.uleb128 .LEHE224-.LEHB224
 6070 055e CB15     		.uleb128 .L366-.LFB1200
 6071 0560 01       		.uleb128 0x1
 6072 0561 B70A     		.uleb128 .LEHB225-.LFB1200
 6073 0563 36       		.uleb128 .LEHE225-.LEHB225
 6074 0564 C915     		.uleb128 .L367-.LFB1200
 6075 0566 01       		.uleb128 0x1
 6076 0567 860B     		.uleb128 .LEHB226-.LFB1200
 6077 0569 05       		.uleb128 .LEHE226-.LEHB226
 6078 056a C31B     		.uleb128 .L360-.LFB1200
 6079 056c 00       		.uleb128 0
 6080 056d 910B     		.uleb128 .LEHB227-.LFB1200
 6081 056f 1F       		.uleb128 .LEHE227-.LEHB227
 6082 0570 AC16     		.uleb128 .L369-.LFB1200
 6083 0572 01       		.uleb128 0x1
 6084 0573 BA0B     		.uleb128 .LEHB228-.LFB1200
 6085 0575 25       		.uleb128 .LEHE228-.LEHB228
 6086 0576 AA16     		.uleb128 .L370-.LFB1200
 6087 0578 01       		.uleb128 0x1
 6088 0579 F80B     		.uleb128 .LEHB229-.LFB1200
 6089 057b 05       		.uleb128 .LEHE229-.LEHB229
 6090 057c C31B     		.uleb128 .L360-.LFB1200
 6091 057e 00       		.uleb128 0
 6092 057f 830C     		.uleb128 .LEHB230-.LFB1200
 6093 0581 1F       		.uleb128 .LEHE230-.LEHB230
 6094 0582 8D17     		.uleb128 .L372-.LFB1200
 6095 0584 01       		.uleb128 0x1
 6096 0585 AC0C     		.uleb128 .LEHB231-.LFB1200
 6097 0587 25       		.uleb128 .LEHE231-.LEHB231
 6098 0588 8B17     		.uleb128 .L373-.LFB1200
 6099 058a 01       		.uleb128 0x1
 6100 058b EE0C     		.uleb128 .LEHB232-.LFB1200
 6101 058d 05       		.uleb128 .LEHE232-.LEHB232
 6102 058e C31B     		.uleb128 .L360-.LFB1200
 6103 0590 00       		.uleb128 0
 6104 0591 F90C     		.uleb128 .LEHB233-.LFB1200
 6105 0593 1F       		.uleb128 .LEHE233-.LEHB233
 6106 0594 EE17     		.uleb128 .L375-.LFB1200
 6107 0596 01       		.uleb128 0x1
 6108 0597 A20D     		.uleb128 .LEHB234-.LFB1200
 6109 0599 25       		.uleb128 .LEHE234-.LEHB234
 6110 059a EC17     		.uleb128 .L376-.LFB1200
 6111 059c 01       		.uleb128 0x1
 6112 059d C70D     		.uleb128 .LEHB235-.LFB1200
 6113 059f 52       		.uleb128 .LEHE235-.LEHB235
 6114 05a0 CD18     		.uleb128 .L378-.LFB1200
 6115 05a2 01       		.uleb128 0x1
 6116 05a3 990E     		.uleb128 .LEHB236-.LFB1200
 6117 05a5 52       		.uleb128 .LEHE236-.LEHB236
 6118 05a6 AC19     		.uleb128 .L380-.LFB1200
 6119 05a8 01       		.uleb128 0x1
 6120 05a9 EB0E     		.uleb128 .LEHB237-.LFB1200
 6121 05ab 52       		.uleb128 .LEHE237-.LEHB237
 6122 05ac 8B1A     		.uleb128 .L382-.LFB1200
 6123 05ae 01       		.uleb128 0x1
 6124 05af BD0F     		.uleb128 .LEHB238-.LFB1200
 6125 05b1 52       		.uleb128 .LEHE238-.LEHB238
 6126 05b2 E71A     		.uleb128 .L384-.LFB1200
 6127 05b4 01       		.uleb128 0x1
 6128 05b5 9910     		.uleb128 .LEHB239-.LFB1200
 6129 05b7 32       		.uleb128 .LEHE239-.LEHB239
 6130 05b8 C31B     		.uleb128 .L360-.LFB1200
 6131 05ba 00       		.uleb128 0
 6132 05bb D510     		.uleb128 .LEHB240-.LFB1200
 6133 05bd 05       		.uleb128 .LEHE240-.LEHB240
 6134 05be D71B     		.uleb128 .L347-.LFB1200
 6135 05c0 00       		.uleb128 0
 6136 05c1 E410     		.uleb128 .LEHB241-.LFB1200
 6137 05c3 05       		.uleb128 .LEHE241-.LEHB241
 6138 05c4 00       		.uleb128 0
 6139 05c5 00       		.uleb128 0
 6140 05c6 8F11     		.uleb128 .LEHB242-.LFB1200
 6141 05c8 40       		.uleb128 .LEHE242-.LEHB242
 6142 05c9 D911     		.uleb128 .L350-.LFB1200
 6143 05cb 00       		.uleb128 0
 6144 05cc CF11     		.uleb128 .LEHB243-.LFB1200
 6145 05ce 05       		.uleb128 .LEHE243-.LEHB243
 6146 05cf D71B     		.uleb128 .L347-.LFB1200
 6147 05d1 00       		.uleb128 0
 6148 05d2 F011     		.uleb128 .LEHB244-.LFB1200
 6149 05d4 40       		.uleb128 .LEHE244-.LEHB244
 6150 05d5 BA12     		.uleb128 .L353-.LFB1200
 6151 05d7 00       		.uleb128 0
 6152 05d8 B012     		.uleb128 .LEHB245-.LFB1200
 6153 05da 05       		.uleb128 .LEHE245-.LEHB245
 6154 05db D71B     		.uleb128 .L347-.LFB1200
 6155 05dd 00       		.uleb128 0
 6156 05de D112     		.uleb128 .LEHB246-.LFB1200
 6157 05e0 40       		.uleb128 .LEHE246-.LEHB246
 6158 05e1 9B13     		.uleb128 .L356-.LFB1200
 6159 05e3 00       		.uleb128 0
 6160 05e4 9113     		.uleb128 .LEHB247-.LFB1200
 6161 05e6 05       		.uleb128 .LEHE247-.LEHB247
 6162 05e7 D71B     		.uleb128 .L347-.LFB1200
 6163 05e9 00       		.uleb128 0
 6164 05ea B213     		.uleb128 .LEHB248-.LFB1200
 6165 05ec 40       		.uleb128 .LEHE248-.LEHB248
 6166 05ed FC13     		.uleb128 .L359-.LFB1200
 6167 05ef 00       		.uleb128 0
 6168 05f0 F213     		.uleb128 .LEHB249-.LFB1200
 6169 05f2 05       		.uleb128 .LEHE249-.LEHB249
 6170 05f3 D71B     		.uleb128 .L347-.LFB1200
 6171 05f5 00       		.uleb128 0
 6172 05f6 9114     		.uleb128 .LEHB250-.LFB1200
 6173 05f8 40       		.uleb128 .LEHE250-.LEHB250
 6174 05f9 DB14     		.uleb128 .L362-.LFB1200
 6175 05fb 00       		.uleb128 0
 6176 05fc D114     		.uleb128 .LEHB251-.LFB1200
 6177 05fe 05       		.uleb128 .LEHE251-.LEHB251
 6178 05ff C31B     		.uleb128 .L360-.LFB1200
 6179 0601 00       		.uleb128 0
 6180 0602 F214     		.uleb128 .LEHB252-.LFB1200
 6181 0604 40       		.uleb128 .LEHE252-.LEHB252
 6182 0605 BC15     		.uleb128 .L365-.LFB1200
 6183 0607 00       		.uleb128 0
 6184 0608 B215     		.uleb128 .LEHB253-.LFB1200
 6185 060a 05       		.uleb128 .LEHE253-.LEHB253
 6186 060b C31B     		.uleb128 .L360-.LFB1200
 6187 060d 00       		.uleb128 0
 6188 060e D315     		.uleb128 .LEHB254-.LFB1200
 6189 0610 40       		.uleb128 .LEHE254-.LEHB254
 6190 0611 9D16     		.uleb128 .L368-.LFB1200
 6191 0613 00       		.uleb128 0
 6192 0614 9316     		.uleb128 .LEHB255-.LFB1200
 6193 0616 05       		.uleb128 .LEHE255-.LEHB255
 6194 0617 C31B     		.uleb128 .L360-.LFB1200
 6195 0619 00       		.uleb128 0
 6196 061a B416     		.uleb128 .LEHB256-.LFB1200
 6197 061c 40       		.uleb128 .LEHE256-.LEHB256
 6198 061d FE16     		.uleb128 .L371-.LFB1200
 6199 061f 00       		.uleb128 0
 6200 0620 F416     		.uleb128 .LEHB257-.LFB1200
 6201 0622 05       		.uleb128 .LEHE257-.LEHB257
 6202 0623 C31B     		.uleb128 .L360-.LFB1200
 6203 0625 00       		.uleb128 0
 6204 0626 9517     		.uleb128 .LEHB258-.LFB1200
 6205 0628 40       		.uleb128 .LEHE258-.LEHB258
 6206 0629 DF17     		.uleb128 .L374-.LFB1200
 6207 062b 00       		.uleb128 0
 6208 062c D517     		.uleb128 .LEHB259-.LFB1200
 6209 062e 05       		.uleb128 .LEHE259-.LEHB259
 6210 062f C31B     		.uleb128 .L360-.LFB1200
 6211 0631 00       		.uleb128 0
 6212 0632 F617     		.uleb128 .LEHB260-.LFB1200
 6213 0634 40       		.uleb128 .LEHE260-.LEHB260
 6214 0635 C018     		.uleb128 .L377-.LFB1200
 6215 0637 00       		.uleb128 0
 6216 0638 B618     		.uleb128 .LEHB261-.LFB1200
 6217 063a 05       		.uleb128 .LEHE261-.LEHB261
 6218 063b C31B     		.uleb128 .L360-.LFB1200
 6219 063d 00       		.uleb128 0
 6220 063e D518     		.uleb128 .LEHB262-.LFB1200
 6221 0640 40       		.uleb128 .LEHE262-.LEHB262
 6222 0641 9F19     		.uleb128 .L379-.LFB1200
 6223 0643 00       		.uleb128 0
 6224 0644 9519     		.uleb128 .LEHB263-.LFB1200
 6225 0646 05       		.uleb128 .LEHE263-.LEHB263
 6226 0647 C31B     		.uleb128 .L360-.LFB1200
 6227 0649 00       		.uleb128 0
 6228 064a B419     		.uleb128 .LEHB264-.LFB1200
 6229 064c 40       		.uleb128 .LEHE264-.LEHB264
 6230 064d FE19     		.uleb128 .L381-.LFB1200
 6231 064f 00       		.uleb128 0
 6232 0650 F419     		.uleb128 .LEHB265-.LFB1200
 6233 0652 05       		.uleb128 .LEHE265-.LEHB265
 6234 0653 C31B     		.uleb128 .L360-.LFB1200
 6235 0655 00       		.uleb128 0
 6236 0656 931A     		.uleb128 .LEHB266-.LFB1200
 6237 0658 40       		.uleb128 .LEHE266-.LEHB266
 6238 0659 DD1A     		.uleb128 .L383-.LFB1200
 6239 065b 00       		.uleb128 0
 6240 065c D31A     		.uleb128 .LEHB267-.LFB1200
 6241 065e 05       		.uleb128 .LEHE267-.LEHB267
 6242 065f C31B     		.uleb128 .L360-.LFB1200
 6243 0661 00       		.uleb128 0
 6244 0662 EF1A     		.uleb128 .LEHB268-.LFB1200
 6245 0664 40       		.uleb128 .LEHE268-.LEHB268
 6246 0665 B91B     		.uleb128 .L385-.LFB1200
 6247 0667 00       		.uleb128 0
 6248 0668 AF1B     		.uleb128 .LEHB269-.LFB1200
 6249 066a 05       		.uleb128 .LEHE269-.LEHB269
 6250 066b C31B     		.uleb128 .L360-.LFB1200
 6251 066d 00       		.uleb128 0
 6252 066e EF1B     		.uleb128 .LEHB270-.LFB1200
 6253 0670 05       		.uleb128 .LEHE270-.LEHB270
 6254 0671 00       		.uleb128 0
 6255 0672 00       		.uleb128 0
 6256              	.LLSDACSE1200:
 6257 0673 01       		.byte	0x1
 6258 0674 00       		.byte	0
 6259 0675 000000   		.align 4
 6260 0678 00000000 		.long	0
 6261              	
 6262              	.LLSDATT1200:
 6263              		.text
 6265              		.section	.rodata
 6266              	.LC52:
 6267 08c7 48657849 		.string	"HexIO_testRoundTrip"
 6267      4F5F7465 
 6267      7374526F 
 6267      756E6454 
 6267      72697000 
 6268              		.section	.text._ZN23TestHexIO_testRoundTripC2Ev,"axG",@progbits,_ZN23TestHexIO_testRoundTripC5Ev,c
 6269              		.align 2
 6270              		.weak	_ZN23TestHexIO_testRoundTripC2Ev
 6272              	_ZN23TestHexIO_testRoundTripC2Ev:
 6273              	.LFB1202:
 241:testHexIO.cpp **** 
 242:testHexIO.cpp **** TEST(HexIO_testRoundTrip) {
 6274              		.loc 4 242 0
 6275              		.cfi_startproc
 6276 0000 55       		pushq	%rbp
 6277              		.cfi_def_cfa_offset 16
 6278              		.cfi_offset 6, -16
 6279 0001 4889E5   		movq	%rsp, %rbp
 6280              		.cfi_def_cfa_register 6
 6281 0004 53       		pushq	%rbx
 6282 0005 4883EC18 		subq	$24, %rsp
 6283              		.cfi_offset 3, -24
 6284 0009 48897DE8 		movq	%rdi, -24(%rbp)
 6285              	.LBB15:
 6286              		.loc 4 242 0
 6287 000d 488B5DE8 		movq	-24(%rbp), %rbx
 6288 0011 E8000000 		call	_ZN13UnitTestSuite12GetSuiteNameEv
 6288      00
 6289 0016 41B8F200 		movl	$242, %r8d
 6289      0000
 6290 001c 488D0D00 		leaq	.LC1(%rip), %rcx
 6290      000000
 6291 0023 4889C2   		movq	%rax, %rdx
 6292 0026 488D3500 		leaq	.LC52(%rip), %rsi
 6292      000000
 6293 002d 4889DF   		movq	%rbx, %rdi
 6294 0030 E8000000 		call	_ZN8UnitTest4TestC2EPKcS2_S2_i@PLT
 6294      00
 6295 0035 488D1500 		leaq	16+_ZTV23TestHexIO_testRoundTrip(%rip), %rdx
 6295      000000
 6296 003c 488B45E8 		movq	-24(%rbp), %rax
 6297 0040 488910   		movq	%rdx, (%rax)
 6298              	.LBE15:
 6299 0043 90       		nop
 6300 0044 4883C418 		addq	$24, %rsp
 6301 0048 5B       		popq	%rbx
 6302 0049 5D       		popq	%rbp
 6303              		.cfi_def_cfa 7, 8
 6304 004a C3       		ret
 6305              		.cfi_endproc
 6306              	.LFE1202:
 6308              		.weak	_ZN23TestHexIO_testRoundTripC1Ev
 6309              		.set	_ZN23TestHexIO_testRoundTripC1Ev,_ZN23TestHexIO_testRoundTripC2Ev
 6310              		.globl	testHexIO_testRoundTripInstance
 6311              		.bss
 6312 02b9 00000000 		.align 32
 6312      000000
 6315              	testHexIO_testRoundTripInstance:
 6316 02c0 00000000 		.zero	56
 6316      00000000 
 6316      00000000 
 6316      00000000 
 6316      00000000 
 6317              		.globl	adderHexIO_testRoundTrip
 6320              	adderHexIO_testRoundTrip:
 6321 02f8 00       		.zero	1
 6322              		.section	.rodata
 6323              	.LC53:
 6324 08db 3A303631 		.string	":061270000895F894FFCF81"
 6324      32373030 
 6324      30303839 
 6324      35463839 
 6324      34464643 
 6325 08f3 00000000 		.align 8
 6325      00
 6326              	.LC54:
 6327 08f8 3A313031 		.string	":10126000E80083FF01C03DDC17701093E9001F9177"
 6327      32363030 
 6327      30453830 
 6327      30383346 
 6327      46303143 
 6328 0924 00000000 		.align 8
 6329              	.LC55:
 6330 0928 3A313031 		.string	":101250000801882361F01091E9001092E900809163"
 6330      32353030 
 6330      30303830 
 6330      31383832 
 6330      33363146 
 6331 0954 00000000 		.align 8
 6332              	.LC56:
 6333 0958 3A313031 		.string	":10121000E10082FF0AC08091E20082FF06C0809157"
 6333      32313030 
 6333      30453130 
 6333      30383246 
 6333      46304143 
 6334 0984 00000000 		.align 8
 6335              	.LC57:
 6336 0988 3A313031 		.string	":10120000E200A5DD80E060E042E18EDD71DF8091EB"
 6336      32303030 
 6336      30453230 
 6336      30413544 
 6336      44383045 
 6337 09b4 00000000 		.align 8
 6338              	.LC58:
 6339 09b8 3A313031 		.string	":1011F000E2008E7F8093E2008091E2008061809324"
 6339      31463030 
 6339      30453230 
 6339      30384537 
 6339      46383039 
 6340              	.LC59:
 6341 09e4 3A303631 		.string	":061220000895F894FFCFD1"
 6341      32323030 
 6341      30303839 
 6341      35463839 
 6341      34464643 
 6342              	.LC60:
 6343 09fc 3A303130 		.string	":0100CF00CF61"
 6343      30434630 
 6343      30434636 
 6343      3100
 6344 0a0a 00000000 		.align 8
 6344      0000
 6345              	.LC61:
 6346 0a10 3A304530 		.string	":0E00C00085BF889585B78F7D85BFF8CFF894F2"
 6346      30433030 
 6346      30383542 
 6346      46383839 
 6346      35383542 
 6347              		.align 8
 6348              	.LC62:
 6349 0a38 3A313030 		.string	":1000B0009BBD8ABD89B7806489BF789485B780620B"
 6349      30423030 
 6349      30394242 
 6349      44384142 
 6349      44383942 
 6350 0a64 00000000 		.align 8
 6351              	.LC63:
 6352 0a68 3A313030 		.string	":1000A00018958FEF8ABB1FBC8DE08EBD89E09DE364"
 6352      30413030 
 6352      30313839 
 6352      35384645 
 6352      46384142 
 6353 0a94 00000000 		.align 8
 6354              	.LC64:
 6355 0a98 3A313030 		.string	":1000B0009BBD8ABD89B7FFFFFFFFFF9485B78062B4"
 6355      30423030 
 6355      30394242 
 6355      44384142 
 6355      44383942 
 6356 0ac4 00000000 		.align 8
 6357              	.LC65:
 6358 0ac8 3A313030 		.string	":10001000BEBAFECA6E3B8209D926430DADDEADDE07"
 6358      30313030 
 6358      30424542 
 6358      41464543 
 6358      41364533 
 6359 0af4 00000000 		.align 8
 6360              	.LC66:
 6361 0af8 3A313030 		.string	":10000000BEBAFECA6E3B8209D926430DADDEADDE17"
 6361      30303030 
 6361      30424542 
 6361      41464543 
 6361      41364533 
 6362              	.LC67:
 6363 0b24 3A303230 		.string	":020000021000EC"
 6363      30303030 
 6363      32313030 
 6363      30454300 
 6364 0b34 00000000 		.align 8
 6365              	.LC68:
 6366 0b38 3A313046 		.string	":10FFF000BEBAFECA6E3B8209D926430DADDEADDE28"
 6366      46463030 
 6366      30424542 
 6366      41464543 
 6366      41364533 
 6367 0b64 00000000 		.align 8
 6368              	.LC69:
 6369 0b68 3A313046 		.string	":10FFE000BEBAFECA6E3B8209D926430DADDEADDE38"
 6369      46453030 
 6369      30424542 
 6369      41464543 
 6369      41364533 
 6370              		.text
 6371              		.align 2
 6372              		.globl	_ZNK23TestHexIO_testRoundTrip7RunImplEv
 6374              	_ZNK23TestHexIO_testRoundTrip7RunImplEv:
 6375              	.LFB1204:
 6376              		.loc 4 242 0
 6377              		.cfi_startproc
 6378 2bce 55       		pushq	%rbp
 6379              		.cfi_def_cfa_offset 16
 6380              		.cfi_offset 6, -16
 6381 2bcf 4889E5   		movq	%rsp, %rbp
 6382              		.cfi_def_cfa_register 6
 6383 2bd2 4883EC10 		subq	$16, %rsp
 6384 2bd6 48897DF8 		movq	%rdi, -8(%rbp)
 243:testHexIO.cpp **** 	testRoundTrip(
 6385              		.loc 4 243 0
 6386 2bda 4883EC08 		subq	$8, %rsp
 6387 2bde 6A00     		pushq	$0
 6388 2be0 4C8D0D00 		leaq	.LC53(%rip), %r9
 6388      000000
 6389 2be7 4C8D0500 		leaq	.LC54(%rip), %r8
 6389      000000
 6390 2bee 488D0D00 		leaq	.LC55(%rip), %rcx
 6390      000000
 6391 2bf5 488D1500 		leaq	.LC56(%rip), %rdx
 6391      000000
 6392 2bfc 488D3500 		leaq	.LC57(%rip), %rsi
 6392      000000
 6393 2c03 488D3D00 		leaq	.LC58(%rip), %rdi
 6393      000000
 6394 2c0a B8000000 		movl	$0, %eax
 6394      00
 6395 2c0f E8000000 		call	_Z13testRoundTripPKcz
 6395      00
 6396 2c14 4883C410 		addq	$16, %rsp
 244:testHexIO.cpp **** 		":1011F000E2008E7F8093E2008091E2008061809324",
 245:testHexIO.cpp **** 		":10120000E200A5DD80E060E042E18EDD71DF8091EB",
 246:testHexIO.cpp **** 		":10121000E10082FF0AC08091E20082FF06C0809157",
 247:testHexIO.cpp **** 		":101250000801882361F01091E9001092E900809163",
 248:testHexIO.cpp **** 		":10126000E80083FF01C03DDC17701093E9001F9177",
 249:testHexIO.cpp **** 		":061270000895F894FFCF81",
 250:testHexIO.cpp **** 		NULL);
 251:testHexIO.cpp **** 	testRoundTrip(
 6397              		.loc 4 251 0
 6398 2c18 6A00     		pushq	$0
 6399 2c1a 488D0500 		leaq	.LC53(%rip), %rax
 6399      000000
 6400 2c21 50       		pushq	%rax
 6401 2c22 4C8D0D00 		leaq	.LC54(%rip), %r9
 6401      000000
 6402 2c29 4C8D0500 		leaq	.LC55(%rip), %r8
 6402      000000
 6403 2c30 488D0D00 		leaq	.LC59(%rip), %rcx
 6403      000000
 6404 2c37 488D1500 		leaq	.LC56(%rip), %rdx
 6404      000000
 6405 2c3e 488D3500 		leaq	.LC57(%rip), %rsi
 6405      000000
 6406 2c45 488D3D00 		leaq	.LC58(%rip), %rdi
 6406      000000
 6407 2c4c B8000000 		movl	$0, %eax
 6407      00
 6408 2c51 E8000000 		call	_Z13testRoundTripPKcz
 6408      00
 6409 2c56 4883C410 		addq	$16, %rsp
 252:testHexIO.cpp **** 		":1011F000E2008E7F8093E2008091E2008061809324",
 253:testHexIO.cpp **** 		":10120000E200A5DD80E060E042E18EDD71DF8091EB",
 254:testHexIO.cpp **** 		":10121000E10082FF0AC08091E20082FF06C0809157",
 255:testHexIO.cpp **** 		":061220000895F894FFCFD1",
 256:testHexIO.cpp **** 		":101250000801882361F01091E9001092E900809163",
 257:testHexIO.cpp **** 		":10126000E80083FF01C03DDC17701093E9001F9177",
 258:testHexIO.cpp **** 		":061270000895F894FFCF81",
 259:testHexIO.cpp **** 		NULL);
 260:testHexIO.cpp **** 	testRoundTrip(
 6410              		.loc 4 260 0
 6411 2c5a 41B80000 		movl	$0, %r8d
 6411      0000
 6412 2c60 488D0D00 		leaq	.LC60(%rip), %rcx
 6412      000000
 6413 2c67 488D1500 		leaq	.LC61(%rip), %rdx
 6413      000000
 6414 2c6e 488D3500 		leaq	.LC62(%rip), %rsi
 6414      000000
 6415 2c75 488D3D00 		leaq	.LC63(%rip), %rdi
 6415      000000
 6416 2c7c B8000000 		movl	$0, %eax
 6416      00
 6417 2c81 E8000000 		call	_Z13testRoundTripPKcz
 6417      00
 261:testHexIO.cpp **** 		":1000A00018958FEF8ABB1FBC8DE08EBD89E09DE364",
 262:testHexIO.cpp **** 		":1000B0009BBD8ABD89B7806489BF789485B780620B",
 263:testHexIO.cpp **** 		":0E00C00085BF889585B78F7D85BFF8CFF894F2",
 264:testHexIO.cpp **** 		":0100CF00CF61",
 265:testHexIO.cpp **** 		NULL);
 266:testHexIO.cpp **** 	testRoundTrip(
 6418              		.loc 4 266 0
 6419 2c86 BE000000 		movl	$0, %esi
 6419      00
 6420 2c8b 488D3D00 		leaq	.LC64(%rip), %rdi
 6420      000000
 6421 2c92 B8000000 		movl	$0, %eax
 6421      00
 6422 2c97 E8000000 		call	_Z13testRoundTripPKcz
 6422      00
 267:testHexIO.cpp **** 		":1000B0009BBD8ABD89B7FFFFFFFFFF9485B78062B4",
 268:testHexIO.cpp **** 		NULL);
 269:testHexIO.cpp **** 	testRoundTrip(
 6423              		.loc 4 269 0
 6424 2c9c 41B90000 		movl	$0, %r9d
 6424      0000
 6425 2ca2 4C8D0500 		leaq	.LC65(%rip), %r8
 6425      000000
 6426 2ca9 488D0D00 		leaq	.LC66(%rip), %rcx
 6426      000000
 6427 2cb0 488D1500 		leaq	.LC67(%rip), %rdx
 6427      000000
 6428 2cb7 488D3500 		leaq	.LC68(%rip), %rsi
 6428      000000
 6429 2cbe 488D3D00 		leaq	.LC69(%rip), %rdi
 6429      000000
 6430 2cc5 B8000000 		movl	$0, %eax
 6430      00
 6431 2cca E8000000 		call	_Z13testRoundTripPKcz
 6431      00
 270:testHexIO.cpp **** 		":10FFE000BEBAFECA6E3B8209D926430DADDEADDE38",
 271:testHexIO.cpp **** 		":10FFF000BEBAFECA6E3B8209D926430DADDEADDE28",
 272:testHexIO.cpp **** 		":020000021000EC",
 273:testHexIO.cpp **** 		":10000000BEBAFECA6E3B8209D926430DADDEADDE17",
 274:testHexIO.cpp **** 		":10001000BEBAFECA6E3B8209D926430DADDEADDE07",
 275:testHexIO.cpp **** 		NULL);
 276:testHexIO.cpp **** 	}
 6432              		.loc 4 276 0
 6433 2ccf 90       		nop
 6434 2cd0 C9       		leave
 6435              		.cfi_def_cfa 7, 8
 6436 2cd1 C3       		ret
 6437              		.cfi_endproc
 6438              	.LFE1204:
 6440              		.section	.rodata
 6441 0b94 00000000 		.align 8
 6442              	.LC70:
 6443 0b98 556E6861 		.string	"Unhandled exception in CHECK_EQUAL(data.length, mask.length)"
 6443      6E646C65 
 6443      64206578 
 6443      63657074 
 6443      696F6E20 
 6444 0bd5 000000   		.align 8
 6445              	.LC71:
 6446 0bd8 556E6861 		.string	"Unhandled exception in CHECK_ARRAY_EQUAL(expectedWriteMap, mask.data)"
 6446      6E646C65 
 6446      64206578 
 6446      63657074 
 6446      696F6E20 
 6447              		.text
 6448              		.globl	_Z18testDeriveWriteMapPKcS0_
 6450              	_Z18testDeriveWriteMapPKcS0_:
 6451              	.LFB1205:
 277:testHexIO.cpp **** 
 278:testHexIO.cpp **** 
 279:testHexIO.cpp **** void testDeriveWriteMap(const char *inputData, const char *expectedWriteMap) {
 6452              		.loc 4 279 0
 6453              		.cfi_startproc
 6454              		.cfi_personality 0x9b,DW.ref.__gxx_personality_v0
 6455              		.cfi_lsda 0x1b,.LLSDA1205
 6456 2cd2 55       		pushq	%rbp
 6457              		.cfi_def_cfa_offset 16
 6458              		.cfi_offset 6, -16
 6459 2cd3 4889E5   		movq	%rsp, %rbp
 6460              		.cfi_def_cfa_register 6
 6461 2cd6 53       		pushq	%rbx
 6462 2cd7 4881EC98 		subq	$152, %rsp
 6462      000000
 6463              		.cfi_offset 3, -24
 6464 2cde 4889BD68 		movq	%rdi, -152(%rbp)
 6464      FFFFFF
 6465 2ce5 4889B560 		movq	%rsi, -160(%rbp)
 6465      FFFFFF
 6466              		.loc 4 279 0
 6467 2cec 64488B04 		movq	%fs:40, %rax
 6467      25280000 
 6467      00
 6468 2cf5 488945E8 		movq	%rax, -24(%rbp)
 6469 2cf9 31C0     		xorl	%eax, %eax
 280:testHexIO.cpp **** 	Buffer data, mask;
 281:testHexIO.cpp **** 	BufferStatus status;
 282:testHexIO.cpp **** 	status = bufInitialise(&data, 1024, '.', NULL);
 6470              		.loc 4 282 0
 6471 2cfb 488D4580 		leaq	-128(%rbp), %rax
 6472 2cff B9000000 		movl	$0, %ecx
 6472      00
 6473 2d04 BA2E0000 		movl	$46, %edx
 6473      00
 6474 2d09 BE000400 		movl	$1024, %esi
 6474      00
 6475 2d0e 4889C7   		movq	%rax, %rdi
 6476              	.LEHB271:
 6477 2d11 E8000000 		call	bufInitialise@PLT
 6477      00
 6478              	.LEHE271:
 6479 2d16 898570FF 		movl	%eax, -144(%rbp)
 6479      FFFF
 6480              	.LEHB272:
 283:testHexIO.cpp **** 	CHECK_EQUAL(BUF_SUCCESS, status);
 6481              		.loc 4 283 0
 6482 2d1c E8000000 		call	_ZN8UnitTest11CurrentTest7DetailsEv@PLT
 6482      00
 6483 2d21 488B08   		movq	(%rax), %rcx
 6484 2d24 488D45C0 		leaq	-64(%rbp), %rax
 6485 2d28 BA1B0100 		movl	$283, %edx
 6485      00
 6486 2d2d 4889CE   		movq	%rcx, %rsi
 6487 2d30 4889C7   		movq	%rax, %rdi
 6488 2d33 E8000000 		call	_ZN8UnitTest11TestDetailsC1ERKS0_i@PLT
 6488      00
 6489              	.LEHE272:
 6490              		.loc 4 283 0 is_stmt 0 discriminator 2
 6491 2d38 C745A000 		movl	$0, -96(%rbp)
 6491      000000
 6492              	.LEHB273:
 6493 2d3f E8000000 		call	_ZN8UnitTest11CurrentTest7ResultsEv@PLT
 6493      00
 6494 2d44 488B00   		movq	(%rax), %rax
 6495 2d47 488D4DC0 		leaq	-64(%rbp), %rcx
 6496 2d4b 488D9570 		leaq	-144(%rbp), %rdx
 6496      FFFFFF
 6497 2d52 488D75A0 		leaq	-96(%rbp), %rsi
 6498 2d56 4889C7   		movq	%rax, %rdi
 6499 2d59 E8000000 		call	_ZN8UnitTest10CheckEqualI12BufferStatusS1_EEvRNS_11TestResultsERKT_RKT0_RKNS_11TestDetailsE
 6499      00
 6500              	.LEHE273:
 6501              	.L396:
 284:testHexIO.cpp **** 	status = bufInitialise(&mask, 1024, 0x00, NULL);
 6502              		.loc 4 284 0 is_stmt 1
 6503 2d5e 488D45A0 		leaq	-96(%rbp), %rax
 6504 2d62 B9000000 		movl	$0, %ecx
 6504      00
 6505 2d67 BA000000 		movl	$0, %edx
 6505      00
 6506 2d6c BE000400 		movl	$1024, %esi
 6506      00
 6507 2d71 4889C7   		movq	%rax, %rdi
 6508              	.LEHB274:
 6509 2d74 E8000000 		call	bufInitialise@PLT
 6509      00
 6510              	.LEHE274:
 6511 2d79 898570FF 		movl	%eax, -144(%rbp)
 6511      FFFF
 6512              	.LEHB275:
 285:testHexIO.cpp **** 	CHECK_EQUAL(BUF_SUCCESS, status);
 6513              		.loc 4 285 0
 6514 2d7f E8000000 		call	_ZN8UnitTest11CurrentTest7DetailsEv@PLT
 6514      00
 6515 2d84 488B08   		movq	(%rax), %rcx
 6516 2d87 488D45C0 		leaq	-64(%rbp), %rax
 6517 2d8b BA1D0100 		movl	$285, %edx
 6517      00
 6518 2d90 4889CE   		movq	%rcx, %rsi
 6519 2d93 4889C7   		movq	%rax, %rdi
 6520 2d96 E8000000 		call	_ZN8UnitTest11TestDetailsC1ERKS0_i@PLT
 6520      00
 6521              	.LEHE275:
 6522              		.loc 4 285 0 is_stmt 0 discriminator 2
 6523 2d9b C78574FF 		movl	$0, -140(%rbp)
 6523      FFFF0000 
 6523      0000
 6524              	.LEHB276:
 6525 2da5 E8000000 		call	_ZN8UnitTest11CurrentTest7ResultsEv@PLT
 6525      00
 6526 2daa 488B00   		movq	(%rax), %rax
 6527 2dad 488D4DC0 		leaq	-64(%rbp), %rcx
 6528 2db1 488D9570 		leaq	-144(%rbp), %rdx
 6528      FFFFFF
 6529 2db8 488DB574 		leaq	-140(%rbp), %rsi
 6529      FFFFFF
 6530 2dbf 4889C7   		movq	%rax, %rdi
 6531 2dc2 E8000000 		call	_ZN8UnitTest10CheckEqualI12BufferStatusS1_EEvRNS_11TestResultsERKT_RKT0_RKNS_11TestDetailsE
 6531      00
 6532              	.LEHE276:
 6533              	.L400:
 286:testHexIO.cpp **** 	status = bufWriteBlock(&data, 0x00000000, (const uint8 *)inputData, strlen(inputData), NULL);
 6534              		.loc 4 286 0 is_stmt 1
 6535 2dc7 488B8568 		movq	-152(%rbp), %rax
 6535      FFFFFF
 6536 2dce 4889C7   		movq	%rax, %rdi
 6537 2dd1 E8000000 		call	strlen@PLT
 6537      00
 6538 2dd6 4889C1   		movq	%rax, %rcx
 6539 2dd9 488B9568 		movq	-152(%rbp), %rdx
 6539      FFFFFF
 6540 2de0 488D4580 		leaq	-128(%rbp), %rax
 6541 2de4 41B80000 		movl	$0, %r8d
 6541      0000
 6542 2dea BE000000 		movl	$0, %esi
 6542      00
 6543 2def 4889C7   		movq	%rax, %rdi
 6544              	.LEHB277:
 6545 2df2 E8000000 		call	bufWriteBlock@PLT
 6545      00
 6546              	.LEHE277:
 6547 2df7 898570FF 		movl	%eax, -144(%rbp)
 6547      FFFF
 6548              	.LEHB278:
 287:testHexIO.cpp **** 	CHECK_EQUAL(BUF_SUCCESS, status);
 6549              		.loc 4 287 0
 6550 2dfd E8000000 		call	_ZN8UnitTest11CurrentTest7DetailsEv@PLT
 6550      00
 6551 2e02 488B08   		movq	(%rax), %rcx
 6552 2e05 488D45C0 		leaq	-64(%rbp), %rax
 6553 2e09 BA1F0100 		movl	$287, %edx
 6553      00
 6554 2e0e 4889CE   		movq	%rcx, %rsi
 6555 2e11 4889C7   		movq	%rax, %rdi
 6556 2e14 E8000000 		call	_ZN8UnitTest11TestDetailsC1ERKS0_i@PLT
 6556      00
 6557              	.LEHE278:
 6558              		.loc 4 287 0 is_stmt 0 discriminator 2
 6559 2e19 C78574FF 		movl	$0, -140(%rbp)
 6559      FFFF0000 
 6559      0000
 6560              	.LEHB279:
 6561 2e23 E8000000 		call	_ZN8UnitTest11CurrentTest7ResultsEv@PLT
 6561      00
 6562 2e28 488B00   		movq	(%rax), %rax
 6563 2e2b 488D4DC0 		leaq	-64(%rbp), %rcx
 6564 2e2f 488D9570 		leaq	-144(%rbp), %rdx
 6564      FFFFFF
 6565 2e36 488DB574 		leaq	-140(%rbp), %rsi
 6565      FFFFFF
 6566 2e3d 4889C7   		movq	%rax, %rdi
 6567 2e40 E8000000 		call	_ZN8UnitTest10CheckEqualI12BufferStatusS1_EEvRNS_11TestResultsERKT_RKT0_RKNS_11TestDetailsE
 6567      00
 6568              	.LEHE279:
 6569              	.L404:
 288:testHexIO.cpp **** 	status = bufDeriveMask(&data, &mask, NULL);
 6570              		.loc 4 288 0 is_stmt 1
 6571 2e45 488D4DA0 		leaq	-96(%rbp), %rcx
 6572 2e49 488D4580 		leaq	-128(%rbp), %rax
 6573 2e4d BA000000 		movl	$0, %edx
 6573      00
 6574 2e52 4889CE   		movq	%rcx, %rsi
 6575 2e55 4889C7   		movq	%rax, %rdi
 6576              	.LEHB280:
 6577 2e58 E8000000 		call	bufDeriveMask@PLT
 6577      00
 6578              	.LEHE280:
 6579 2e5d 898570FF 		movl	%eax, -144(%rbp)
 6579      FFFF
 6580              	.LEHB281:
 289:testHexIO.cpp **** 	CHECK_EQUAL(BUF_SUCCESS, status);
 6581              		.loc 4 289 0
 6582 2e63 E8000000 		call	_ZN8UnitTest11CurrentTest7DetailsEv@PLT
 6582      00
 6583 2e68 488B08   		movq	(%rax), %rcx
 6584 2e6b 488D45C0 		leaq	-64(%rbp), %rax
 6585 2e6f BA210100 		movl	$289, %edx
 6585      00
 6586 2e74 4889CE   		movq	%rcx, %rsi
 6587 2e77 4889C7   		movq	%rax, %rdi
 6588 2e7a E8000000 		call	_ZN8UnitTest11TestDetailsC1ERKS0_i@PLT
 6588      00
 6589              	.LEHE281:
 6590              		.loc 4 289 0 is_stmt 0 discriminator 2
 6591 2e7f C78574FF 		movl	$0, -140(%rbp)
 6591      FFFF0000 
 6591      0000
 6592              	.LEHB282:
 6593 2e89 E8000000 		call	_ZN8UnitTest11CurrentTest7ResultsEv@PLT
 6593      00
 6594 2e8e 488B00   		movq	(%rax), %rax
 6595 2e91 488D4DC0 		leaq	-64(%rbp), %rcx
 6596 2e95 488D9570 		leaq	-144(%rbp), %rdx
 6596      FFFFFF
 6597 2e9c 488DB574 		leaq	-140(%rbp), %rsi
 6597      FFFFFF
 6598 2ea3 4889C7   		movq	%rax, %rdi
 6599 2ea6 E8000000 		call	_ZN8UnitTest10CheckEqualI12BufferStatusS1_EEvRNS_11TestResultsERKT_RKT0_RKNS_11TestDetailsE
 6599      00
 6600              	.LEHE282:
 6601              	.L408:
 6602              	.LEHB283:
 290:testHexIO.cpp **** 	CHECK_EQUAL(data.length, mask.length);
 6603              		.loc 4 290 0 is_stmt 1
 6604 2eab E8000000 		call	_ZN8UnitTest11CurrentTest7DetailsEv@PLT
 6604      00
 6605 2eb0 488B08   		movq	(%rax), %rcx
 6606 2eb3 488D45C0 		leaq	-64(%rbp), %rax
 6607 2eb7 BA220100 		movl	$290, %edx
 6607      00
 6608 2ebc 4889CE   		movq	%rcx, %rsi
 6609 2ebf 4889C7   		movq	%rax, %rdi
 6610 2ec2 E8000000 		call	_ZN8UnitTest11TestDetailsC1ERKS0_i@PLT
 6610      00
 6611              		.loc 4 290 0 is_stmt 0 discriminator 2
 6612 2ec7 E8000000 		call	_ZN8UnitTest11CurrentTest7ResultsEv@PLT
 6612      00
 6613 2ecc 488B00   		movq	(%rax), %rax
 6614 2ecf 488D55C0 		leaq	-64(%rbp), %rdx
 6615 2ed3 488D4DA0 		leaq	-96(%rbp), %rcx
 6616 2ed7 488D7908 		leaq	8(%rcx), %rdi
 6617 2edb 488D4D80 		leaq	-128(%rbp), %rcx
 6618 2edf 488D7108 		leaq	8(%rcx), %rsi
 6619 2ee3 4889D1   		movq	%rdx, %rcx
 6620 2ee6 4889FA   		movq	%rdi, %rdx
 6621 2ee9 4889C7   		movq	%rax, %rdi
 6622 2eec E8000000 		call	_ZN8UnitTest10CheckEqualImmEEvRNS_11TestResultsERKT_RKT0_RKNS_11TestDetailsE
 6622      00
 6623              	.LEHE283:
 6624              	.L411:
 6625              	.LBB16:
 291:testHexIO.cpp **** 	for ( size_t i = 0; i < mask.length; i++ ) {
 6626              		.loc 4 291 0 is_stmt 1
 6627 2ef1 48C78578 		movq	$0, -136(%rbp)
 6627      FFFFFF00 
 6627      000000
 6628              	.L393:
 6629              		.loc 4 291 0 is_stmt 0 discriminator 1
 6630 2efc 488B45A8 		movq	-88(%rbp), %rax
 6631 2f00 48398578 		cmpq	%rax, -136(%rbp)
 6631      FFFFFF
 6632 2f07 7343     		jnb	.L390
 292:testHexIO.cpp **** 		if ( mask.data[i] ) {
 6633              		.loc 4 292 0 is_stmt 1
 6634 2f09 488B55A0 		movq	-96(%rbp), %rdx
 6635 2f0d 488B8578 		movq	-136(%rbp), %rax
 6635      FFFFFF
 6636 2f14 4801D0   		addq	%rdx, %rax
 6637 2f17 0FB600   		movzbl	(%rax), %eax
 6638 2f1a 84C0     		testb	%al, %al
 6639 2f1c 7413     		je	.L391
 293:testHexIO.cpp **** 			mask.data[i] = '*';
 6640              		.loc 4 293 0
 6641 2f1e 488B55A0 		movq	-96(%rbp), %rdx
 6642 2f22 488B8578 		movq	-136(%rbp), %rax
 6642      FFFFFF
 6643 2f29 4801D0   		addq	%rdx, %rax
 6644 2f2c C6002A   		movb	$42, (%rax)
 6645 2f2f EB11     		jmp	.L392
 6646              	.L391:
 294:testHexIO.cpp **** 		} else {
 295:testHexIO.cpp **** 			mask.data[i] = '.';
 6647              		.loc 4 295 0
 6648 2f31 488B55A0 		movq	-96(%rbp), %rdx
 6649 2f35 488B8578 		movq	-136(%rbp), %rax
 6649      FFFFFF
 6650 2f3c 4801D0   		addq	%rdx, %rax
 6651 2f3f C6002E   		movb	$46, (%rax)
 6652              	.L392:
 291:testHexIO.cpp **** 		if ( mask.data[i] ) {
 6653              		.loc 4 291 0 discriminator 2
 6654 2f42 48838578 		addq	$1, -136(%rbp)
 6654      FFFFFF01 
 6655 2f4a EBB0     		jmp	.L393
 6656              	.L390:
 6657              	.LEHB284:
 6658              	.LBE16:
 296:testHexIO.cpp **** 		}
 297:testHexIO.cpp **** 	}
 298:testHexIO.cpp **** 	CHECK_ARRAY_EQUAL(expectedWriteMap, mask.data, (int)mask.length);
 6659              		.loc 4 298 0
 6660 2f4c E8000000 		call	_ZN8UnitTest11CurrentTest7DetailsEv@PLT
 6660      00
 6661 2f51 488B08   		movq	(%rax), %rcx
 6662 2f54 488D45C0 		leaq	-64(%rbp), %rax
 6663 2f58 BA2A0100 		movl	$298, %edx
 6663      00
 6664 2f5d 4889CE   		movq	%rcx, %rsi
 6665 2f60 4889C7   		movq	%rax, %rdi
 6666 2f63 E8000000 		call	_ZN8UnitTest11TestDetailsC1ERKS0_i@PLT
 6666      00
 6667              		.loc 4 298 0 is_stmt 0 discriminator 2
 6668 2f68 488B45A8 		movq	-88(%rbp), %rax
 6669 2f6c 89C3     		movl	%eax, %ebx
 6670 2f6e E8000000 		call	_ZN8UnitTest11CurrentTest7ResultsEv@PLT
 6670      00
 6671 2f73 488B00   		movq	(%rax), %rax
 6672 2f76 488D4DC0 		leaq	-64(%rbp), %rcx
 6673 2f7a 488D55A0 		leaq	-96(%rbp), %rdx
 6674 2f7e 488DB560 		leaq	-160(%rbp), %rsi
 6674      FFFFFF
 6675 2f85 4989C8   		movq	%rcx, %r8
 6676 2f88 89D9     		movl	%ebx, %ecx
 6677 2f8a 4889C7   		movq	%rax, %rdi
 6678 2f8d E8000000 		call	_ZN8UnitTest15CheckArrayEqualIPKcPhEEvRNS_11TestResultsERKT_RKT0_iRKNS_11TestDetailsE
 6678      00
 6679              	.LEHE284:
 6680              	.L414:
 299:testHexIO.cpp **** 	bufDestroy(&data);
 6681              		.loc 4 299 0 is_stmt 1
 6682 2f92 488D4580 		leaq	-128(%rbp), %rax
 6683 2f96 4889C7   		movq	%rax, %rdi
 6684              	.LEHB285:
 6685 2f99 E8000000 		call	bufDestroy@PLT
 6685      00
 300:testHexIO.cpp **** 	bufDestroy(&mask);
 6686              		.loc 4 300 0
 6687 2f9e 488D45A0 		leaq	-96(%rbp), %rax
 6688 2fa2 4889C7   		movq	%rax, %rdi
 6689 2fa5 E8000000 		call	bufDestroy@PLT
 6689      00
 6690              	.LEHE285:
 301:testHexIO.cpp **** }
 6691              		.loc 4 301 0
 6692 2faa 90       		nop
 6693 2fab 488B45E8 		movq	-24(%rbp), %rax
 6694 2faf 64483304 		xorq	%fs:40, %rax
 6694      25280000 
 6694      00
 6695 2fb8 0F844C02 		je	.L416
 6695      0000
 6696 2fbe E9420200 		jmp	.L433
 6696      00
 6697              	.L418:
 6698 2fc3 EB00     		jmp	.L395
 6699              	.L417:
 6700              	.L395:
 283:testHexIO.cpp **** 	status = bufInitialise(&mask, 1024, 0x00, NULL);
 6701              		.loc 4 283 0
 6702 2fc5 4889C7   		movq	%rax, %rdi
 6703 2fc8 E8000000 		call	__cxa_begin_catch@PLT
 6703      00
 6704              	.LEHB286:
 6705 2fcd E8000000 		call	_ZN8UnitTest11CurrentTest7ResultsEv@PLT
 6705      00
 6706 2fd2 488B18   		movq	(%rax), %rbx
 6707 2fd5 E8000000 		call	_ZN8UnitTest11CurrentTest7DetailsEv@PLT
 6707      00
 283:testHexIO.cpp **** 	status = bufInitialise(&mask, 1024, 0x00, NULL);
 6708              		.loc 4 283 0 is_stmt 0 discriminator 8
 6709 2fda 488B08   		movq	(%rax), %rcx
 6710 2fdd 488D45C0 		leaq	-64(%rbp), %rax
 6711 2fe1 BA1B0100 		movl	$283, %edx
 6711      00
 6712 2fe6 4889CE   		movq	%rcx, %rsi
 6713 2fe9 4889C7   		movq	%rax, %rdi
 6714 2fec E8000000 		call	_ZN8UnitTest11TestDetailsC1ERKS0_i@PLT
 6714      00
 283:testHexIO.cpp **** 	status = bufInitialise(&mask, 1024, 0x00, NULL);
 6715              		.loc 4 283 0 discriminator 12
 6716 2ff1 488D45C0 		leaq	-64(%rbp), %rax
 6717 2ff5 488D1500 		leaq	.LC4(%rip), %rdx
 6717      000000
 6718 2ffc 4889C6   		movq	%rax, %rsi
 6719 2fff 4889DF   		movq	%rbx, %rdi
 6720 3002 E8000000 		call	_ZN8UnitTest11TestResults13OnTestFailureERKNS_11TestDetailsEPKc@PLT
 6720      00
 6721              	.LEHE286:
 6722              	.LEHB287:
 283:testHexIO.cpp **** 	status = bufInitialise(&mask, 1024, 0x00, NULL);
 6723              		.loc 4 283 0 discriminator 14
 6724 3007 E8000000 		call	__cxa_end_catch@PLT
 6724      00
 6725              	.LEHE287:
 6726 300c E94DFDFF 		jmp	.L396
 6726      FF
 6727              	.L419:
 6728 3011 4889C3   		movq	%rax, %rbx
 283:testHexIO.cpp **** 	status = bufInitialise(&mask, 1024, 0x00, NULL);
 6729              		.loc 4 283 0
 6730 3014 E8000000 		call	__cxa_end_catch@PLT
 6730      00
 6731 3019 4889D8   		movq	%rbx, %rax
 6732 301c 4889C7   		movq	%rax, %rdi
 6733              	.LEHB288:
 6734 301f E8000000 		call	_Unwind_Resume@PLT
 6734      00
 6735              	.LEHE288:
 6736              	.L421:
 6737 3024 EB00     		jmp	.L399
 6738              	.L420:
 6739              	.L399:
 285:testHexIO.cpp **** 	status = bufWriteBlock(&data, 0x00000000, (const uint8 *)inputData, strlen(inputData), NULL);
 6740              		.loc 4 285 0 is_stmt 1
 6741 3026 4889C7   		movq	%rax, %rdi
 6742 3029 E8000000 		call	__cxa_begin_catch@PLT
 6742      00
 6743              	.LEHB289:
 6744 302e E8000000 		call	_ZN8UnitTest11CurrentTest7ResultsEv@PLT
 6744      00
 6745 3033 488B18   		movq	(%rax), %rbx
 6746 3036 E8000000 		call	_ZN8UnitTest11CurrentTest7DetailsEv@PLT
 6746      00
 285:testHexIO.cpp **** 	status = bufWriteBlock(&data, 0x00000000, (const uint8 *)inputData, strlen(inputData), NULL);
 6747              		.loc 4 285 0 is_stmt 0 discriminator 8
 6748 303b 488B08   		movq	(%rax), %rcx
 6749 303e 488D45C0 		leaq	-64(%rbp), %rax
 6750 3042 BA1D0100 		movl	$285, %edx
 6750      00
 6751 3047 4889CE   		movq	%rcx, %rsi
 6752 304a 4889C7   		movq	%rax, %rdi
 6753 304d E8000000 		call	_ZN8UnitTest11TestDetailsC1ERKS0_i@PLT
 6753      00
 285:testHexIO.cpp **** 	status = bufWriteBlock(&data, 0x00000000, (const uint8 *)inputData, strlen(inputData), NULL);
 6754              		.loc 4 285 0 discriminator 12
 6755 3052 488D45C0 		leaq	-64(%rbp), %rax
 6756 3056 488D1500 		leaq	.LC4(%rip), %rdx
 6756      000000
 6757 305d 4889C6   		movq	%rax, %rsi
 6758 3060 4889DF   		movq	%rbx, %rdi
 6759 3063 E8000000 		call	_ZN8UnitTest11TestResults13OnTestFailureERKNS_11TestDetailsEPKc@PLT
 6759      00
 6760              	.LEHE289:
 6761              	.LEHB290:
 285:testHexIO.cpp **** 	status = bufWriteBlock(&data, 0x00000000, (const uint8 *)inputData, strlen(inputData), NULL);
 6762              		.loc 4 285 0 discriminator 14
 6763 3068 E8000000 		call	__cxa_end_catch@PLT
 6763      00
 6764              	.LEHE290:
 6765 306d E955FDFF 		jmp	.L400
 6765      FF
 6766              	.L422:
 6767 3072 4889C3   		movq	%rax, %rbx
 285:testHexIO.cpp **** 	status = bufWriteBlock(&data, 0x00000000, (const uint8 *)inputData, strlen(inputData), NULL);
 6768              		.loc 4 285 0
 6769 3075 E8000000 		call	__cxa_end_catch@PLT
 6769      00
 6770 307a 4889D8   		movq	%rbx, %rax
 6771 307d 4889C7   		movq	%rax, %rdi
 6772              	.LEHB291:
 6773 3080 E8000000 		call	_Unwind_Resume@PLT
 6773      00
 6774              	.LEHE291:
 6775              	.L424:
 6776 3085 EB00     		jmp	.L403
 6777              	.L423:
 6778              	.L403:
 287:testHexIO.cpp **** 	status = bufDeriveMask(&data, &mask, NULL);
 6779              		.loc 4 287 0 is_stmt 1
 6780 3087 4889C7   		movq	%rax, %rdi
 6781 308a E8000000 		call	__cxa_begin_catch@PLT
 6781      00
 6782              	.LEHB292:
 6783 308f E8000000 		call	_ZN8UnitTest11CurrentTest7ResultsEv@PLT
 6783      00
 6784 3094 488B18   		movq	(%rax), %rbx
 6785 3097 E8000000 		call	_ZN8UnitTest11CurrentTest7DetailsEv@PLT
 6785      00
 287:testHexIO.cpp **** 	status = bufDeriveMask(&data, &mask, NULL);
 6786              		.loc 4 287 0 is_stmt 0 discriminator 8
 6787 309c 488B08   		movq	(%rax), %rcx
 6788 309f 488D45C0 		leaq	-64(%rbp), %rax
 6789 30a3 BA1F0100 		movl	$287, %edx
 6789      00
 6790 30a8 4889CE   		movq	%rcx, %rsi
 6791 30ab 4889C7   		movq	%rax, %rdi
 6792 30ae E8000000 		call	_ZN8UnitTest11TestDetailsC1ERKS0_i@PLT
 6792      00
 287:testHexIO.cpp **** 	status = bufDeriveMask(&data, &mask, NULL);
 6793              		.loc 4 287 0 discriminator 12
 6794 30b3 488D45C0 		leaq	-64(%rbp), %rax
 6795 30b7 488D1500 		leaq	.LC4(%rip), %rdx
 6795      000000
 6796 30be 4889C6   		movq	%rax, %rsi
 6797 30c1 4889DF   		movq	%rbx, %rdi
 6798 30c4 E8000000 		call	_ZN8UnitTest11TestResults13OnTestFailureERKNS_11TestDetailsEPKc@PLT
 6798      00
 6799              	.LEHE292:
 6800              	.LEHB293:
 287:testHexIO.cpp **** 	status = bufDeriveMask(&data, &mask, NULL);
 6801              		.loc 4 287 0 discriminator 14
 6802 30c9 E8000000 		call	__cxa_end_catch@PLT
 6802      00
 6803              	.LEHE293:
 6804 30ce E972FDFF 		jmp	.L404
 6804      FF
 6805              	.L425:
 6806 30d3 4889C3   		movq	%rax, %rbx
 287:testHexIO.cpp **** 	status = bufDeriveMask(&data, &mask, NULL);
 6807              		.loc 4 287 0
 6808 30d6 E8000000 		call	__cxa_end_catch@PLT
 6808      00
 6809 30db 4889D8   		movq	%rbx, %rax
 6810 30de 4889C7   		movq	%rax, %rdi
 6811              	.LEHB294:
 6812 30e1 E8000000 		call	_Unwind_Resume@PLT
 6812      00
 6813              	.LEHE294:
 6814              	.L427:
 6815 30e6 EB00     		jmp	.L407
 6816              	.L426:
 6817              	.L407:
 289:testHexIO.cpp **** 	CHECK_EQUAL(data.length, mask.length);
 6818              		.loc 4 289 0 is_stmt 1
 6819 30e8 4889C7   		movq	%rax, %rdi
 6820 30eb E8000000 		call	__cxa_begin_catch@PLT
 6820      00
 6821              	.LEHB295:
 6822 30f0 E8000000 		call	_ZN8UnitTest11CurrentTest7ResultsEv@PLT
 6822      00
 6823 30f5 488B18   		movq	(%rax), %rbx
 6824 30f8 E8000000 		call	_ZN8UnitTest11CurrentTest7DetailsEv@PLT
 6824      00
 289:testHexIO.cpp **** 	CHECK_EQUAL(data.length, mask.length);
 6825              		.loc 4 289 0 is_stmt 0 discriminator 8
 6826 30fd 488B08   		movq	(%rax), %rcx
 6827 3100 488D45C0 		leaq	-64(%rbp), %rax
 6828 3104 BA210100 		movl	$289, %edx
 6828      00
 6829 3109 4889CE   		movq	%rcx, %rsi
 6830 310c 4889C7   		movq	%rax, %rdi
 6831 310f E8000000 		call	_ZN8UnitTest11TestDetailsC1ERKS0_i@PLT
 6831      00
 289:testHexIO.cpp **** 	CHECK_EQUAL(data.length, mask.length);
 6832              		.loc 4 289 0 discriminator 12
 6833 3114 488D45C0 		leaq	-64(%rbp), %rax
 6834 3118 488D1500 		leaq	.LC4(%rip), %rdx
 6834      000000
 6835 311f 4889C6   		movq	%rax, %rsi
 6836 3122 4889DF   		movq	%rbx, %rdi
 6837 3125 E8000000 		call	_ZN8UnitTest11TestResults13OnTestFailureERKNS_11TestDetailsEPKc@PLT
 6837      00
 6838              	.LEHE295:
 6839              	.LEHB296:
 289:testHexIO.cpp **** 	CHECK_EQUAL(data.length, mask.length);
 6840              		.loc 4 289 0 discriminator 14
 6841 312a E8000000 		call	__cxa_end_catch@PLT
 6841      00
 6842              	.LEHE296:
 6843 312f E977FDFF 		jmp	.L408
 6843      FF
 6844              	.L428:
 6845 3134 4889C3   		movq	%rax, %rbx
 289:testHexIO.cpp **** 	CHECK_EQUAL(data.length, mask.length);
 6846              		.loc 4 289 0
 6847 3137 E8000000 		call	__cxa_end_catch@PLT
 6847      00
 6848 313c 4889D8   		movq	%rbx, %rax
 6849 313f 4889C7   		movq	%rax, %rdi
 6850              	.LEHB297:
 6851 3142 E8000000 		call	_Unwind_Resume@PLT
 6851      00
 6852              	.LEHE297:
 6853              	.L429:
 290:testHexIO.cpp **** 	for ( size_t i = 0; i < mask.length; i++ ) {
 6854              		.loc 4 290 0 is_stmt 1
 6855 3147 4889C7   		movq	%rax, %rdi
 6856 314a E8000000 		call	__cxa_begin_catch@PLT
 6856      00
 6857              	.LEHB298:
 6858 314f E8000000 		call	_ZN8UnitTest11CurrentTest7ResultsEv@PLT
 6858      00
 6859 3154 488B18   		movq	(%rax), %rbx
 6860 3157 E8000000 		call	_ZN8UnitTest11CurrentTest7DetailsEv@PLT
 6860      00
 290:testHexIO.cpp **** 	for ( size_t i = 0; i < mask.length; i++ ) {
 6861              		.loc 4 290 0 is_stmt 0 discriminator 8
 6862 315c 488B08   		movq	(%rax), %rcx
 6863 315f 488D45C0 		leaq	-64(%rbp), %rax
 6864 3163 BA220100 		movl	$290, %edx
 6864      00
 6865 3168 4889CE   		movq	%rcx, %rsi
 6866 316b 4889C7   		movq	%rax, %rdi
 6867 316e E8000000 		call	_ZN8UnitTest11TestDetailsC1ERKS0_i@PLT
 6867      00
 290:testHexIO.cpp **** 	for ( size_t i = 0; i < mask.length; i++ ) {
 6868              		.loc 4 290 0 discriminator 12
 6869 3173 488D45C0 		leaq	-64(%rbp), %rax
 6870 3177 488D1500 		leaq	.LC70(%rip), %rdx
 6870      000000
 6871 317e 4889C6   		movq	%rax, %rsi
 6872 3181 4889DF   		movq	%rbx, %rdi
 6873 3184 E8000000 		call	_ZN8UnitTest11TestResults13OnTestFailureERKNS_11TestDetailsEPKc@PLT
 6873      00
 6874              	.LEHE298:
 6875              	.LEHB299:
 290:testHexIO.cpp **** 	for ( size_t i = 0; i < mask.length; i++ ) {
 6876              		.loc 4 290 0 discriminator 14
 6877 3189 E8000000 		call	__cxa_end_catch@PLT
 6877      00
 6878              	.LEHE299:
 6879 318e E95EFDFF 		jmp	.L411
 6879      FF
 6880              	.L430:
 6881 3193 4889C3   		movq	%rax, %rbx
 290:testHexIO.cpp **** 	for ( size_t i = 0; i < mask.length; i++ ) {
 6882              		.loc 4 290 0
 6883 3196 E8000000 		call	__cxa_end_catch@PLT
 6883      00
 6884 319b 4889D8   		movq	%rbx, %rax
 6885 319e 4889C7   		movq	%rax, %rdi
 6886              	.LEHB300:
 6887 31a1 E8000000 		call	_Unwind_Resume@PLT
 6887      00
 6888              	.LEHE300:
 6889              	.L431:
 298:testHexIO.cpp **** 	bufDestroy(&data);
 6890              		.loc 4 298 0 is_stmt 1
 6891 31a6 4889C7   		movq	%rax, %rdi
 6892 31a9 E8000000 		call	__cxa_begin_catch@PLT
 6892      00
 6893              	.LEHB301:
 6894 31ae E8000000 		call	_ZN8UnitTest11CurrentTest7ResultsEv@PLT
 6894      00
 6895 31b3 488B18   		movq	(%rax), %rbx
 6896 31b6 E8000000 		call	_ZN8UnitTest11CurrentTest7DetailsEv@PLT
 6896      00
 298:testHexIO.cpp **** 	bufDestroy(&data);
 6897              		.loc 4 298 0 is_stmt 0 discriminator 8
 6898 31bb 488B08   		movq	(%rax), %rcx
 6899 31be 488D45C0 		leaq	-64(%rbp), %rax
 6900 31c2 BA2A0100 		movl	$298, %edx
 6900      00
 6901 31c7 4889CE   		movq	%rcx, %rsi
 6902 31ca 4889C7   		movq	%rax, %rdi
 6903 31cd E8000000 		call	_ZN8UnitTest11TestDetailsC1ERKS0_i@PLT
 6903      00
 298:testHexIO.cpp **** 	bufDestroy(&data);
 6904              		.loc 4 298 0 discriminator 12
 6905 31d2 488D45C0 		leaq	-64(%rbp), %rax
 6906 31d6 488D1500 		leaq	.LC71(%rip), %rdx
 6906      000000
 6907 31dd 4889C6   		movq	%rax, %rsi
 6908 31e0 4889DF   		movq	%rbx, %rdi
 6909 31e3 E8000000 		call	_ZN8UnitTest11TestResults13OnTestFailureERKNS_11TestDetailsEPKc@PLT
 6909      00
 6910              	.LEHE301:
 6911              	.LEHB302:
 298:testHexIO.cpp **** 	bufDestroy(&data);
 6912              		.loc 4 298 0 discriminator 14
 6913 31e8 E8000000 		call	__cxa_end_catch@PLT
 6913      00
 6914              	.LEHE302:
 6915 31ed E9A0FDFF 		jmp	.L414
 6915      FF
 6916              	.L432:
 6917 31f2 4889C3   		movq	%rax, %rbx
 298:testHexIO.cpp **** 	bufDestroy(&data);
 6918              		.loc 4 298 0
 6919 31f5 E8000000 		call	__cxa_end_catch@PLT
 6919      00
 6920 31fa 4889D8   		movq	%rbx, %rax
 6921 31fd 4889C7   		movq	%rax, %rdi
 6922              	.LEHB303:
 6923 3200 E8000000 		call	_Unwind_Resume@PLT
 6923      00
 6924              	.LEHE303:
 6925              	.L433:
 6926              		.loc 4 301 0 is_stmt 1
 6927 3205 E8000000 		call	__stack_chk_fail@PLT
 6927      00
 6928              	.L416:
 6929 320a 4881C498 		addq	$152, %rsp
 6929      000000
 6930 3211 5B       		popq	%rbx
 6931 3212 5D       		popq	%rbp
 6932              		.cfi_def_cfa 7, 8
 6933 3213 C3       		ret
 6934              		.cfi_endproc
 6935              	.LFE1205:
 6936              		.section	.gcc_except_table
 6937              		.align 4
 6938              	.LLSDA1205:
 6939 067c FF       		.byte	0xff
 6940 067d 9B       		.byte	0x9b
 6941 067e C001     		.uleb128 .LLSDATT1205-.LLSDATTD1205
 6942              	.LLSDATTD1205:
 6943 0680 01       		.byte	0x1
 6944 0681 B201     		.uleb128 .LLSDACSE1205-.LLSDACSB1205
 6945              	.LLSDACSB1205:
 6946 0683 3F       		.uleb128 .LEHB271-.LFB1205
 6947 0684 05       		.uleb128 .LEHE271-.LEHB271
 6948 0685 00       		.uleb128 0
 6949 0686 00       		.uleb128 0
 6950 0687 4A       		.uleb128 .LEHB272-.LFB1205
 6951 0688 1C       		.uleb128 .LEHE272-.LEHB272
 6952 0689 F305     		.uleb128 .L417-.LFB1205
 6953 068b 01       		.uleb128 0x1
 6954 068c 6D       		.uleb128 .LEHB273-.LFB1205
 6955 068d 1F       		.uleb128 .LEHE273-.LEHB273
 6956 068e F105     		.uleb128 .L418-.LFB1205
 6957 0690 03       		.uleb128 0x3
 6958 0691 A201     		.uleb128 .LEHB274-.LFB1205
 6959 0693 05       		.uleb128 .LEHE274-.LEHB274
 6960 0694 00       		.uleb128 0
 6961 0695 00       		.uleb128 0
 6962 0696 AD01     		.uleb128 .LEHB275-.LFB1205
 6963 0698 1C       		.uleb128 .LEHE275-.LEHB275
 6964 0699 D406     		.uleb128 .L420-.LFB1205
 6965 069b 01       		.uleb128 0x1
 6966 069c D301     		.uleb128 .LEHB276-.LFB1205
 6967 069e 22       		.uleb128 .LEHE276-.LEHB276
 6968 069f D206     		.uleb128 .L421-.LFB1205
 6969 06a1 03       		.uleb128 0x3
 6970 06a2 A002     		.uleb128 .LEHB277-.LFB1205
 6971 06a4 05       		.uleb128 .LEHE277-.LEHB277
 6972 06a5 00       		.uleb128 0
 6973 06a6 00       		.uleb128 0
 6974 06a7 AB02     		.uleb128 .LEHB278-.LFB1205
 6975 06a9 1C       		.uleb128 .LEHE278-.LEHB278
 6976 06aa B507     		.uleb128 .L423-.LFB1205
 6977 06ac 01       		.uleb128 0x1
 6978 06ad D102     		.uleb128 .LEHB279-.LFB1205
 6979 06af 22       		.uleb128 .LEHE279-.LEHB279
 6980 06b0 B307     		.uleb128 .L424-.LFB1205
 6981 06b2 03       		.uleb128 0x3
 6982 06b3 8603     		.uleb128 .LEHB280-.LFB1205
 6983 06b5 05       		.uleb128 .LEHE280-.LEHB280
 6984 06b6 00       		.uleb128 0
 6985 06b7 00       		.uleb128 0
 6986 06b8 9103     		.uleb128 .LEHB281-.LFB1205
 6987 06ba 1C       		.uleb128 .LEHE281-.LEHB281
 6988 06bb 9608     		.uleb128 .L426-.LFB1205
 6989 06bd 01       		.uleb128 0x1
 6990 06be B703     		.uleb128 .LEHB282-.LFB1205
 6991 06c0 22       		.uleb128 .LEHE282-.LEHB282
 6992 06c1 9408     		.uleb128 .L427-.LFB1205
 6993 06c3 03       		.uleb128 0x3
 6994 06c4 D903     		.uleb128 .LEHB283-.LFB1205
 6995 06c6 46       		.uleb128 .LEHE283-.LEHB283
 6996 06c7 F508     		.uleb128 .L429-.LFB1205
 6997 06c9 01       		.uleb128 0x1
 6998 06ca FA04     		.uleb128 .LEHB284-.LFB1205
 6999 06cc 46       		.uleb128 .LEHE284-.LEHB284
 7000 06cd D409     		.uleb128 .L431-.LFB1205
 7001 06cf 01       		.uleb128 0x1
 7002 06d0 C705     		.uleb128 .LEHB285-.LFB1205
 7003 06d2 11       		.uleb128 .LEHE285-.LEHB285
 7004 06d3 00       		.uleb128 0
 7005 06d4 00       		.uleb128 0
 7006 06d5 FB05     		.uleb128 .LEHB286-.LFB1205
 7007 06d7 3A       		.uleb128 .LEHE286-.LEHB286
 7008 06d8 BF06     		.uleb128 .L419-.LFB1205
 7009 06da 00       		.uleb128 0
 7010 06db B506     		.uleb128 .LEHB287-.LFB1205
 7011 06dd 05       		.uleb128 .LEHE287-.LEHB287
 7012 06de 00       		.uleb128 0
 7013 06df 00       		.uleb128 0
 7014 06e0 CD06     		.uleb128 .LEHB288-.LFB1205
 7015 06e2 05       		.uleb128 .LEHE288-.LEHB288
 7016 06e3 00       		.uleb128 0
 7017 06e4 00       		.uleb128 0
 7018 06e5 DC06     		.uleb128 .LEHB289-.LFB1205
 7019 06e7 3A       		.uleb128 .LEHE289-.LEHB289
 7020 06e8 A007     		.uleb128 .L422-.LFB1205
 7021 06ea 00       		.uleb128 0
 7022 06eb 9607     		.uleb128 .LEHB290-.LFB1205
 7023 06ed 05       		.uleb128 .LEHE290-.LEHB290
 7024 06ee 00       		.uleb128 0
 7025 06ef 00       		.uleb128 0
 7026 06f0 AE07     		.uleb128 .LEHB291-.LFB1205
 7027 06f2 05       		.uleb128 .LEHE291-.LEHB291
 7028 06f3 00       		.uleb128 0
 7029 06f4 00       		.uleb128 0
 7030 06f5 BD07     		.uleb128 .LEHB292-.LFB1205
 7031 06f7 3A       		.uleb128 .LEHE292-.LEHB292
 7032 06f8 8108     		.uleb128 .L425-.LFB1205
 7033 06fa 00       		.uleb128 0
 7034 06fb F707     		.uleb128 .LEHB293-.LFB1205
 7035 06fd 05       		.uleb128 .LEHE293-.LEHB293
 7036 06fe 00       		.uleb128 0
 7037 06ff 00       		.uleb128 0
 7038 0700 8F08     		.uleb128 .LEHB294-.LFB1205
 7039 0702 05       		.uleb128 .LEHE294-.LEHB294
 7040 0703 00       		.uleb128 0
 7041 0704 00       		.uleb128 0
 7042 0705 9E08     		.uleb128 .LEHB295-.LFB1205
 7043 0707 3A       		.uleb128 .LEHE295-.LEHB295
 7044 0708 E208     		.uleb128 .L428-.LFB1205
 7045 070a 00       		.uleb128 0
 7046 070b D808     		.uleb128 .LEHB296-.LFB1205
 7047 070d 05       		.uleb128 .LEHE296-.LEHB296
 7048 070e 00       		.uleb128 0
 7049 070f 00       		.uleb128 0
 7050 0710 F008     		.uleb128 .LEHB297-.LFB1205
 7051 0712 05       		.uleb128 .LEHE297-.LEHB297
 7052 0713 00       		.uleb128 0
 7053 0714 00       		.uleb128 0
 7054 0715 FD08     		.uleb128 .LEHB298-.LFB1205
 7055 0717 3A       		.uleb128 .LEHE298-.LEHB298
 7056 0718 C109     		.uleb128 .L430-.LFB1205
 7057 071a 00       		.uleb128 0
 7058 071b B709     		.uleb128 .LEHB299-.LFB1205
 7059 071d 05       		.uleb128 .LEHE299-.LEHB299
 7060 071e 00       		.uleb128 0
 7061 071f 00       		.uleb128 0
 7062 0720 CF09     		.uleb128 .LEHB300-.LFB1205
 7063 0722 05       		.uleb128 .LEHE300-.LEHB300
 7064 0723 00       		.uleb128 0
 7065 0724 00       		.uleb128 0
 7066 0725 DC09     		.uleb128 .LEHB301-.LFB1205
 7067 0727 3A       		.uleb128 .LEHE301-.LEHB301
 7068 0728 A00A     		.uleb128 .L432-.LFB1205
 7069 072a 00       		.uleb128 0
 7070 072b 960A     		.uleb128 .LEHB302-.LFB1205
 7071 072d 05       		.uleb128 .LEHE302-.LEHB302
 7072 072e 00       		.uleb128 0
 7073 072f 00       		.uleb128 0
 7074 0730 AE0A     		.uleb128 .LEHB303-.LFB1205
 7075 0732 05       		.uleb128 .LEHE303-.LEHB303
 7076 0733 00       		.uleb128 0
 7077 0734 00       		.uleb128 0
 7078              	.LLSDACSE1205:
 7079 0735 01       		.byte	0x1
 7080 0736 00       		.byte	0
 7081 0737 00       		.byte	0
 7082 0738 7D       		.byte	0x7d
 7083 0739 000000   		.align 4
 7084 073c 00000000 		.long	0
 7085              	
 7086              	.LLSDATT1205:
 7087              		.text
 7089              		.section	.rodata
 7090              	.LC72:
 7091 0c1e 48657849 		.string	"HexIO_testDeriveWriteMap"
 7091      4F5F7465 
 7091      73744465 
 7091      72697665 
 7091      57726974 
 7092              		.section	.text._ZN28TestHexIO_testDeriveWriteMapC2Ev,"axG",@progbits,_ZN28TestHexIO_testDeriveWrit
 7093              		.align 2
 7094              		.weak	_ZN28TestHexIO_testDeriveWriteMapC2Ev
 7096              	_ZN28TestHexIO_testDeriveWriteMapC2Ev:
 7097              	.LFB1207:
 302:testHexIO.cpp **** 
 303:testHexIO.cpp **** TEST(HexIO_testDeriveWriteMap) {
 7098              		.loc 4 303 0
 7099              		.cfi_startproc
 7100 0000 55       		pushq	%rbp
 7101              		.cfi_def_cfa_offset 16
 7102              		.cfi_offset 6, -16
 7103 0001 4889E5   		movq	%rsp, %rbp
 7104              		.cfi_def_cfa_register 6
 7105 0004 53       		pushq	%rbx
 7106 0005 4883EC18 		subq	$24, %rsp
 7107              		.cfi_offset 3, -24
 7108 0009 48897DE8 		movq	%rdi, -24(%rbp)
 7109              	.LBB17:
 7110              		.loc 4 303 0
 7111 000d 488B5DE8 		movq	-24(%rbp), %rbx
 7112 0011 E8000000 		call	_ZN13UnitTestSuite12GetSuiteNameEv
 7112      00
 7113 0016 41B82F01 		movl	$303, %r8d
 7113      0000
 7114 001c 488D0D00 		leaq	.LC1(%rip), %rcx
 7114      000000
 7115 0023 4889C2   		movq	%rax, %rdx
 7116 0026 488D3500 		leaq	.LC72(%rip), %rsi
 7116      000000
 7117 002d 4889DF   		movq	%rbx, %rdi
 7118 0030 E8000000 		call	_ZN8UnitTest4TestC2EPKcS2_S2_i@PLT
 7118      00
 7119 0035 488D1500 		leaq	16+_ZTV28TestHexIO_testDeriveWriteMap(%rip), %rdx
 7119      000000
 7120 003c 488B45E8 		movq	-24(%rbp), %rax
 7121 0040 488910   		movq	%rdx, (%rax)
 7122              	.LBE17:
 7123 0043 90       		nop
 7124 0044 4883C418 		addq	$24, %rsp
 7125 0048 5B       		popq	%rbx
 7126 0049 5D       		popq	%rbp
 7127              		.cfi_def_cfa 7, 8
 7128 004a C3       		ret
 7129              		.cfi_endproc
 7130              	.LFE1207:
 7132              		.weak	_ZN28TestHexIO_testDeriveWriteMapC1Ev
 7133              		.set	_ZN28TestHexIO_testDeriveWriteMapC1Ev,_ZN28TestHexIO_testDeriveWriteMapC2Ev
 7134              		.globl	testHexIO_testDeriveWriteMapInstance
 7135              		.bss
 7136 02f9 00000000 		.align 32
 7136      000000
 7139              	testHexIO_testDeriveWriteMapInstance:
 7140 0300 00000000 		.zero	56
 7140      00000000 
 7140      00000000 
 7140      00000000 
 7140      00000000 
 7141              		.globl	adderHexIO_testDeriveWriteMap
 7144              	adderHexIO_testDeriveWriteMap:
 7145 0338 00       		.zero	1
 7146              		.section	.rodata
 7147              	.LC73:
 7148 0c37 2A2A2A2A 		.string	"*****........*****"
 7148      2A2E2E2E 
 7148      2E2E2E2E 
 7148      2E2A2A2A 
 7148      2A2A00
 7149              	.LC74:
 7150 0c4a 48656C6C 		.string	"Hello........World"
 7150      6F2E2E2E 
 7150      2E2E2E2E 
 7150      2E576F72 
 7150      6C6400
 7151              	.LC75:
 7152 0c5d 2A2A2A2A 		.string	"*****************"
 7152      2A2A2A2A 
 7152      2A2A2A2A 
 7152      2A2A2A2A 
 7152      2A00
 7153              	.LC76:
 7154 0c6f 48656C6C 		.string	"Hello.......World"
 7154      6F2E2E2E 
 7154      2E2E2E2E 
 7154      576F726C 
 7154      6400
 7155              		.text
 7156              		.align 2
 7157              		.globl	_ZNK28TestHexIO_testDeriveWriteMap7RunImplEv
 7159              	_ZNK28TestHexIO_testDeriveWriteMap7RunImplEv:
 7160              	.LFB1209:
 7161              		.loc 4 303 0
 7162              		.cfi_startproc
 7163 3214 55       		pushq	%rbp
 7164              		.cfi_def_cfa_offset 16
 7165              		.cfi_offset 6, -16
 7166 3215 4889E5   		movq	%rsp, %rbp
 7167              		.cfi_def_cfa_register 6
 7168 3218 4883EC10 		subq	$16, %rsp
 7169 321c 48897DF8 		movq	%rdi, -8(%rbp)
 304:testHexIO.cpp **** 	testDeriveWriteMap("Hello........World", "*****........*****");
 7170              		.loc 4 304 0
 7171 3220 488D3500 		leaq	.LC73(%rip), %rsi
 7171      000000
 7172 3227 488D3D00 		leaq	.LC74(%rip), %rdi
 7172      000000
 7173 322e E8000000 		call	_Z18testDeriveWriteMapPKcS0_
 7173      00
 305:testHexIO.cpp **** 	testDeriveWriteMap("Hello.......World", "*****************");
 7174              		.loc 4 305 0
 7175 3233 488D3500 		leaq	.LC75(%rip), %rsi
 7175      000000
 7176 323a 488D3D00 		leaq	.LC76(%rip), %rdi
 7176      000000
 7177 3241 E8000000 		call	_Z18testDeriveWriteMapPKcS0_
 7177      00
 306:testHexIO.cpp **** }
 7178              		.loc 4 306 0
 7179 3246 90       		nop
 7180 3247 C9       		leave
 7181              		.cfi_def_cfa 7, 8
 7182 3248 C3       		ret
 7183              		.cfi_endproc
 7184              	.LFE1209:
 7186              		.section	.text._ZN8UnitTest15MemoryOutStreamD1Ev,"axG",@progbits,_ZN8UnitTest15MemoryOutStreamD1Ev
 7187              		.align 2
 7188              		.weak	_ZN8UnitTest15MemoryOutStreamD1Ev
 7190              	_ZN8UnitTest15MemoryOutStreamD1Ev:
 7191              	.LFB1240:
  13:/home/gani/eval/20140524/makestuff/libs/libutpp/MemoryOutStream.h **** {
 7192              		.loc 3 13 0
 7193              		.cfi_startproc
 7194              		.cfi_personality 0x9b,DW.ref.__gxx_personality_v0
 7195              		.cfi_lsda 0x1b,.LLSDA1240
 7196 0000 55       		pushq	%rbp
 7197              		.cfi_def_cfa_offset 16
 7198              		.cfi_offset 6, -16
 7199 0001 4889E5   		movq	%rsp, %rbp
 7200              		.cfi_def_cfa_register 6
 7201 0004 53       		pushq	%rbx
 7202 0005 4883EC18 		subq	$24, %rsp
 7203              		.cfi_offset 3, -24
 7204 0009 48897DE8 		movq	%rdi, -24(%rbp)
 7205              	.LBB18:
  13:/home/gani/eval/20140524/makestuff/libs/libutpp/MemoryOutStream.h **** {
 7206              		.loc 3 13 0
 7207 000d 488D1500 		leaq	24+_ZTVN8UnitTest15MemoryOutStreamE(%rip), %rdx
 7207      000000
 7208 0014 488B45E8 		movq	-24(%rbp), %rax
 7209 0018 488910   		movq	%rdx, (%rax)
 7210 001b 488B45E8 		movq	-24(%rbp), %rax
 7211 001f 488D9090 		leaq	144(%rax), %rdx
 7211      000000
 7212 0026 488D0500 		leaq	64+_ZTVN8UnitTest15MemoryOutStreamE(%rip), %rax
 7212      000000
 7213 002d 488902   		movq	%rax, (%rdx)
 7214 0030 488B45E8 		movq	-24(%rbp), %rax
 7215 0034 4883C070 		addq	$112, %rax
 7216 0038 4889C7   		movq	%rax, %rdi
 7217              	.LEHB304:
 7218 003b E8000000 		call	_ZNSt7__cxx1112basic_stringIcSt11char_traitsIcESaIcEED1Ev@PLT
 7218      00
 7219              	.LEHE304:
  13:/home/gani/eval/20140524/makestuff/libs/libutpp/MemoryOutStream.h **** {
 7220              		.loc 3 13 0 is_stmt 0 discriminator 2
 7221 0040 488B45E8 		movq	-24(%rbp), %rax
 7222 0044 488D1500 		leaq	8+_ZTTN8UnitTest15MemoryOutStreamE(%rip), %rdx
 7222      000000
 7223 004b 4889D6   		movq	%rdx, %rsi
 7224 004e 4889C7   		movq	%rax, %rdi
 7225              	.LEHB305:
 7226 0051 E8000000 		call	_ZNSt7__cxx1119basic_ostringstreamIcSt11char_traitsIcESaIcEED2Ev@PLT
 7226      00
 7227              	.LEHE305:
  13:/home/gani/eval/20140524/makestuff/libs/libutpp/MemoryOutStream.h **** {
 7228              		.loc 3 13 0 discriminator 4
 7229 0056 488B45E8 		movq	-24(%rbp), %rax
 7230 005a 48059000 		addq	$144, %rax
 7230      0000
 7231 0060 4889C7   		movq	%rax, %rdi
 7232              	.LEHB306:
 7233 0063 E8000000 		call	_ZNSt9basic_iosIcSt11char_traitsIcEED2Ev@PLT
 7233      00
 7234              	.LEHE306:
 7235              	.LBE18:
 7236 0068 EB3B     		jmp	.L441
 7237              	.L439:
 7238 006a 4889C3   		movq	%rax, %rbx
 7239              	.LBB19:
  13:/home/gani/eval/20140524/makestuff/libs/libutpp/MemoryOutStream.h **** {
 7240              		.loc 3 13 0
 7241 006d 488B45E8 		movq	-24(%rbp), %rax
 7242 0071 488D1500 		leaq	8+_ZTTN8UnitTest15MemoryOutStreamE(%rip), %rdx
 7242      000000
 7243 0078 4889D6   		movq	%rdx, %rsi
 7244 007b 4889C7   		movq	%rax, %rdi
 7245 007e E8000000 		call	_ZNSt7__cxx1119basic_ostringstreamIcSt11char_traitsIcESaIcEED2Ev@PLT
 7245      00
 7246 0083 EB03     		jmp	.L438
 7247              	.L440:
 7248 0085 4889C3   		movq	%rax, %rbx
 7249              	.L438:
  13:/home/gani/eval/20140524/makestuff/libs/libutpp/MemoryOutStream.h **** {
 7250              		.loc 3 13 0 discriminator 3
 7251 0088 488B45E8 		movq	-24(%rbp), %rax
 7252 008c 48059000 		addq	$144, %rax
 7252      0000
 7253 0092 4889C7   		movq	%rax, %rdi
 7254 0095 E8000000 		call	_ZNSt9basic_iosIcSt11char_traitsIcEED2Ev@PLT
 7254      00
 7255 009a 4889D8   		movq	%rbx, %rax
 7256 009d 4889C7   		movq	%rax, %rdi
 7257              	.LEHB307:
 7258 00a0 E8000000 		call	_Unwind_Resume@PLT
 7258      00
 7259              	.LEHE307:
 7260              	.L441:
 7261              	.LBE19:
  13:/home/gani/eval/20140524/makestuff/libs/libutpp/MemoryOutStream.h **** {
 7262              		.loc 3 13 0
 7263 00a5 4883C418 		addq	$24, %rsp
 7264 00a9 5B       		popq	%rbx
 7265 00aa 5D       		popq	%rbp
 7266              		.cfi_def_cfa 7, 8
 7267 00ab C3       		ret
 7268              		.cfi_endproc
 7269              	.LFE1240:
 7270              		.section	.gcc_except_table
 7271              	.LLSDA1240:
 7272 0740 FF       		.byte	0xff
 7273 0741 FF       		.byte	0xff
 7274 0742 01       		.byte	0x1
 7275 0743 12       		.uleb128 .LLSDACSE1240-.LLSDACSB1240
 7276              	.LLSDACSB1240:
 7277 0744 3B       		.uleb128 .LEHB304-.LFB1240
 7278 0745 05       		.uleb128 .LEHE304-.LEHB304
 7279 0746 6A       		.uleb128 .L439-.LFB1240
 7280 0747 00       		.uleb128 0
 7281 0748 51       		.uleb128 .LEHB305-.LFB1240
 7282 0749 05       		.uleb128 .LEHE305-.LEHB305
 7283 074a 8501     		.uleb128 .L440-.LFB1240
 7284 074c 00       		.uleb128 0
 7285 074d 63       		.uleb128 .LEHB306-.LFB1240
 7286 074e 05       		.uleb128 .LEHE306-.LEHB306
 7287 074f 00       		.uleb128 0
 7288 0750 00       		.uleb128 0
 7289 0751 A001     		.uleb128 .LEHB307-.LFB1240
 7290 0753 05       		.uleb128 .LEHE307-.LEHB307
 7291 0754 00       		.uleb128 0
 7292 0755 00       		.uleb128 0
 7293              	.LLSDACSE1240:
 7294              		.section	.text._ZN8UnitTest15MemoryOutStreamD1Ev,"axG",@progbits,_ZN8UnitTest15MemoryOutStreamD1Ev
 7296              		.set	.LTHUNK0,_ZN8UnitTest15MemoryOutStreamD1Ev
 7297              		.weak	_ZTv0_n24_N8UnitTest15MemoryOutStreamD1Ev
 7299              	_ZTv0_n24_N8UnitTest15MemoryOutStreamD1Ev:
 7300              	.LFB1395:
  13:/home/gani/eval/20140524/makestuff/libs/libutpp/MemoryOutStream.h **** {
 7301              		.loc 3 13 0 is_stmt 1
 7302              		.cfi_startproc
 7303 00ac 4C8B17   		movq	(%rdi), %r10
 7304 00af 49037AE8 		addq	-24(%r10), %rdi
 7305 00b3 E948FFFF 		jmp	.LTHUNK0
 7305      FF
 7306              		.cfi_endproc
 7307              	.LFE1395:
 7309              		.section	.text._ZN8UnitTest15MemoryOutStreamD0Ev,"axG",@progbits,_ZN8UnitTest15MemoryOutStreamD0Ev
 7310              		.align 2
 7311              		.weak	_ZN8UnitTest15MemoryOutStreamD0Ev
 7313              	_ZN8UnitTest15MemoryOutStreamD0Ev:
 7314              	.LFB1241:
  13:/home/gani/eval/20140524/makestuff/libs/libutpp/MemoryOutStream.h **** {
 7315              		.loc 3 13 0
 7316              		.cfi_startproc
 7317              		.cfi_personality 0x9b,DW.ref.__gxx_personality_v0
 7318              		.cfi_lsda 0x1b,.LLSDA1241
 7319 0000 55       		pushq	%rbp
 7320              		.cfi_def_cfa_offset 16
 7321              		.cfi_offset 6, -16
 7322 0001 4889E5   		movq	%rsp, %rbp
 7323              		.cfi_def_cfa_register 6
 7324 0004 53       		pushq	%rbx
 7325 0005 4883EC18 		subq	$24, %rsp
 7326              		.cfi_offset 3, -24
 7327 0009 48897DE8 		movq	%rdi, -24(%rbp)
  13:/home/gani/eval/20140524/makestuff/libs/libutpp/MemoryOutStream.h **** {
 7328              		.loc 3 13 0
 7329 000d 488B45E8 		movq	-24(%rbp), %rax
 7330 0011 4889C7   		movq	%rax, %rdi
 7331              	.LEHB308:
 7332 0014 E8000000 		call	_ZN8UnitTest15MemoryOutStreamD1Ev
 7332      00
 7333              	.LEHE308:
  13:/home/gani/eval/20140524/makestuff/libs/libutpp/MemoryOutStream.h **** {
 7334              		.loc 3 13 0 is_stmt 0 discriminator 2
 7335 0019 488B45E8 		movq	-24(%rbp), %rax
 7336 001d 4889C7   		movq	%rax, %rdi
 7337 0020 E8000000 		call	_ZdlPv@PLT
 7337      00
 7338 0025 EB1A     		jmp	.L445
 7339              	.L444:
 7340 0027 4889C3   		movq	%rax, %rbx
  13:/home/gani/eval/20140524/makestuff/libs/libutpp/MemoryOutStream.h **** {
 7341              		.loc 3 13 0
 7342 002a 488B45E8 		movq	-24(%rbp), %rax
 7343 002e 4889C7   		movq	%rax, %rdi
 7344 0031 E8000000 		call	_ZdlPv@PLT
 7344      00
 7345 0036 4889D8   		movq	%rbx, %rax
 7346 0039 4889C7   		movq	%rax, %rdi
 7347              	.LEHB309:
 7348 003c E8000000 		call	_Unwind_Resume@PLT
 7348      00
 7349              	.LEHE309:
 7350              	.L445:
 7351 0041 4883C418 		addq	$24, %rsp
 7352 0045 5B       		popq	%rbx
 7353 0046 5D       		popq	%rbp
 7354              		.cfi_def_cfa 7, 8
 7355 0047 C3       		ret
 7356              		.cfi_endproc
 7357              	.LFE1241:
 7358              		.section	.gcc_except_table
 7359              	.LLSDA1241:
 7360 0756 FF       		.byte	0xff
 7361 0757 FF       		.byte	0xff
 7362 0758 01       		.byte	0x1
 7363 0759 08       		.uleb128 .LLSDACSE1241-.LLSDACSB1241
 7364              	.LLSDACSB1241:
 7365 075a 14       		.uleb128 .LEHB308-.LFB1241
 7366 075b 05       		.uleb128 .LEHE308-.LEHB308
 7367 075c 27       		.uleb128 .L444-.LFB1241
 7368 075d 00       		.uleb128 0
 7369 075e 3C       		.uleb128 .LEHB309-.LFB1241
 7370 075f 05       		.uleb128 .LEHE309-.LEHB309
 7371 0760 00       		.uleb128 0
 7372 0761 00       		.uleb128 0
 7373              	.LLSDACSE1241:
 7374              		.section	.text._ZN8UnitTest15MemoryOutStreamD0Ev,"axG",@progbits,_ZN8UnitTest15MemoryOutStreamD0Ev
 7376              		.set	.LTHUNK1,_ZN8UnitTest15MemoryOutStreamD0Ev
 7377              		.weak	_ZTv0_n24_N8UnitTest15MemoryOutStreamD0Ev
 7379              	_ZTv0_n24_N8UnitTest15MemoryOutStreamD0Ev:
 7380              	.LFB1396:
  13:/home/gani/eval/20140524/makestuff/libs/libutpp/MemoryOutStream.h **** {
 7381              		.loc 3 13 0 is_stmt 1
 7382              		.cfi_startproc
 7383 0048 4C8B17   		movq	(%rdi), %r10
 7384 004b 49037AE8 		addq	-24(%r10), %rdi
 7385 004f EBAF     		jmp	.LTHUNK1
 7386              		.cfi_endproc
 7387              	.LFE1396:
 7389              		.section	.rodata
 7390              	.LC77:
 7391 0c81 45787065 		.string	"Expected "
 7391      63746564 
 7391      2000
 7392              	.LC78:
 7393 0c8b 20627574 		.string	" but was "
 7393      20776173 
 7393      2000
 7394              		.section	.text._ZN8UnitTest10CheckEqualI12BufferStatusS1_EEvRNS_11TestResultsERKT_RKT0_RKNS_11Test
 7395              		.weak	_ZN8UnitTest10CheckEqualI12BufferStatusS1_EEvRNS_11TestResultsERKT_RKT0_RKNS_11TestDetailsE
 7397              	_ZN8UnitTest10CheckEqualI12BufferStatusS1_EEvRNS_11TestResultsERKT_RKT0_RKNS_11TestDetailsE:
 7398              	.LFB1237:
 7399              		.file 5 "/home/gani/eval/20140524/makestuff/libs/libutpp/Checks.h"
   1:/home/gani/eval/20140524/makestuff/libs/libutpp/Checks.h **** #ifndef UNITTEST_CHECKS_H
   2:/home/gani/eval/20140524/makestuff/libs/libutpp/Checks.h **** #define UNITTEST_CHECKS_H
   3:/home/gani/eval/20140524/makestuff/libs/libutpp/Checks.h **** 
   4:/home/gani/eval/20140524/makestuff/libs/libutpp/Checks.h **** #include "Config.h"
   5:/home/gani/eval/20140524/makestuff/libs/libutpp/Checks.h **** #include "TestResults.h"
   6:/home/gani/eval/20140524/makestuff/libs/libutpp/Checks.h **** #include "MemoryOutStream.h"
   7:/home/gani/eval/20140524/makestuff/libs/libutpp/Checks.h **** 
   8:/home/gani/eval/20140524/makestuff/libs/libutpp/Checks.h **** namespace UnitTest {
   9:/home/gani/eval/20140524/makestuff/libs/libutpp/Checks.h **** 
  10:/home/gani/eval/20140524/makestuff/libs/libutpp/Checks.h **** 
  11:/home/gani/eval/20140524/makestuff/libs/libutpp/Checks.h **** template< typename Value >
  12:/home/gani/eval/20140524/makestuff/libs/libutpp/Checks.h **** bool Check(Value const value)
  13:/home/gani/eval/20140524/makestuff/libs/libutpp/Checks.h **** {
  14:/home/gani/eval/20140524/makestuff/libs/libutpp/Checks.h ****     return !!value; // doing double negative to avoid silly VS warnings
  15:/home/gani/eval/20140524/makestuff/libs/libutpp/Checks.h **** }
  16:/home/gani/eval/20140524/makestuff/libs/libutpp/Checks.h **** 
  17:/home/gani/eval/20140524/makestuff/libs/libutpp/Checks.h **** 
  18:/home/gani/eval/20140524/makestuff/libs/libutpp/Checks.h **** template< typename Expected, typename Actual >
  19:/home/gani/eval/20140524/makestuff/libs/libutpp/Checks.h **** void CheckEqual(TestResults& results, Expected const& expected, Actual const& actual, TestDetails c
 7400              		.loc 5 19 0
 7401              		.cfi_startproc
 7402              		.cfi_personality 0x9b,DW.ref.__gxx_personality_v0
 7403              		.cfi_lsda 0x1b,.LLSDA1237
 7404 0000 55       		pushq	%rbp
 7405              		.cfi_def_cfa_offset 16
 7406              		.cfi_offset 6, -16
 7407 0001 4889E5   		movq	%rsp, %rbp
 7408              		.cfi_def_cfa_register 6
 7409 0004 53       		pushq	%rbx
 7410 0005 4881ECC8 		subq	$456, %rsp
 7410      010000
 7411              		.cfi_offset 3, -24
 7412 000c 4889BD48 		movq	%rdi, -440(%rbp)
 7412      FEFFFF
 7413 0013 4889B540 		movq	%rsi, -448(%rbp)
 7413      FEFFFF
 7414 001a 48899538 		movq	%rdx, -456(%rbp)
 7414      FEFFFF
 7415 0021 48898D30 		movq	%rcx, -464(%rbp)
 7415      FEFFFF
 7416              		.loc 5 19 0
 7417 0028 64488B04 		movq	%fs:40, %rax
 7417      25280000 
 7417      00
 7418 0031 488945E8 		movq	%rax, -24(%rbp)
 7419 0035 31C0     		xorl	%eax, %eax
 7420              	.LBB20:
  20:/home/gani/eval/20140524/makestuff/libs/libutpp/Checks.h **** {
  21:/home/gani/eval/20140524/makestuff/libs/libutpp/Checks.h ****     if (!(expected == actual))
 7421              		.loc 5 21 0
 7422 0037 488B8540 		movq	-448(%rbp), %rax
 7422      FEFFFF
 7423 003e 8B10     		movl	(%rax), %edx
 7424 0040 488B8538 		movq	-456(%rbp), %rax
 7424      FEFFFF
 7425 0047 8B00     		movl	(%rax), %eax
 7426 0049 39C2     		cmpl	%eax, %edx
 7427 004b 0F84B900 		je	.L451
 7427      0000
 7428              	.LBB21:
  22:/home/gani/eval/20140524/makestuff/libs/libutpp/Checks.h ****     {
  23:/home/gani/eval/20140524/makestuff/libs/libutpp/Checks.h ****         UnitTest::MemoryOutStream stream;
 7429              		.loc 5 23 0
 7430 0051 488D8550 		leaq	-432(%rbp), %rax
 7430      FEFFFF
 7431 0058 4889C7   		movq	%rax, %rdi
 7432              	.LEHB310:
 7433 005b E8000000 		call	_ZN8UnitTest15MemoryOutStreamC1Ev
 7433      00
 7434              	.LEHE310:
  24:/home/gani/eval/20140524/makestuff/libs/libutpp/Checks.h ****         stream << "Expected " << expected << " but was " << actual;
 7435              		.loc 5 24 0
 7436 0060 488D8550 		leaq	-432(%rbp), %rax
 7436      FEFFFF
 7437 0067 488D3500 		leaq	.LC77(%rip), %rsi
 7437      000000
 7438 006e 4889C7   		movq	%rax, %rdi
 7439              	.LEHB311:
 7440 0071 E8000000 		call	_ZStlsISt11char_traitsIcEERSt13basic_ostreamIcT_ES5_PKc@PLT
 7440      00
 7441 0076 4889C2   		movq	%rax, %rdx
 7442 0079 488B8540 		movq	-448(%rbp), %rax
 7442      FEFFFF
 7443 0080 8B00     		movl	(%rax), %eax
 7444 0082 89C6     		movl	%eax, %esi
 7445 0084 4889D7   		movq	%rdx, %rdi
 7446 0087 E8000000 		call	_ZNSolsEi@PLT
 7446      00
 7447              		.loc 5 24 0 is_stmt 0 discriminator 1
 7448 008c 488D3500 		leaq	.LC78(%rip), %rsi
 7448      000000
 7449 0093 4889C7   		movq	%rax, %rdi
 7450 0096 E8000000 		call	_ZStlsISt11char_traitsIcEERSt13basic_ostreamIcT_ES5_PKc@PLT
 7450      00
 7451              		.loc 5 24 0 discriminator 2
 7452 009b 4889C2   		movq	%rax, %rdx
 7453 009e 488B8538 		movq	-456(%rbp), %rax
 7453      FEFFFF
 7454 00a5 8B00     		movl	(%rax), %eax
 7455 00a7 89C6     		movl	%eax, %esi
 7456 00a9 4889D7   		movq	%rdx, %rdi
 7457 00ac E8000000 		call	_ZNSolsEi@PLT
 7457      00
  25:/home/gani/eval/20140524/makestuff/libs/libutpp/Checks.h **** 
  26:/home/gani/eval/20140524/makestuff/libs/libutpp/Checks.h ****         results.OnTestFailure(details, stream.GetText());
 7458              		.loc 5 26 0 is_stmt 1
 7459 00b1 488D8550 		leaq	-432(%rbp), %rax
 7459      FEFFFF
 7460 00b8 4889C7   		movq	%rax, %rdi
 7461 00bb E8000000 		call	_ZNK8UnitTest15MemoryOutStream7GetTextEv@PLT
 7461      00
 7462 00c0 4889C2   		movq	%rax, %rdx
 7463 00c3 488B8D30 		movq	-464(%rbp), %rcx
 7463      FEFFFF
 7464 00ca 488B8548 		movq	-440(%rbp), %rax
 7464      FEFFFF
 7465 00d1 4889CE   		movq	%rcx, %rsi
 7466 00d4 4889C7   		movq	%rax, %rdi
 7467 00d7 E8000000 		call	_ZN8UnitTest11TestResults13OnTestFailureERKNS_11TestDetailsEPKc@PLT
 7467      00
 7468              	.LEHE311:
  23:/home/gani/eval/20140524/makestuff/libs/libutpp/Checks.h ****         stream << "Expected " << expected << " but was " << actual;
 7469              		.loc 5 23 0
 7470 00dc 488D8550 		leaq	-432(%rbp), %rax
 7470      FEFFFF
 7471 00e3 4889C7   		movq	%rax, %rdi
 7472              	.LEHB312:
 7473 00e6 E8000000 		call	_ZN8UnitTest15MemoryOutStreamD1Ev
 7473      00
 7474              	.LEHE312:
 7475              	.LBE21:
 7476              	.LBE20:
  27:/home/gani/eval/20140524/makestuff/libs/libutpp/Checks.h ****     }
  28:/home/gani/eval/20140524/makestuff/libs/libutpp/Checks.h **** }
 7477              		.loc 5 28 0
 7478 00eb EB1D     		jmp	.L451
 7479              	.L450:
 7480 00ed 4889C3   		movq	%rax, %rbx
 7481              	.LBB23:
 7482              	.LBB22:
  23:/home/gani/eval/20140524/makestuff/libs/libutpp/Checks.h ****         stream << "Expected " << expected << " but was " << actual;
 7483              		.loc 5 23 0
 7484 00f0 488D8550 		leaq	-432(%rbp), %rax
 7484      FEFFFF
 7485 00f7 4889C7   		movq	%rax, %rdi
 7486 00fa E8000000 		call	_ZN8UnitTest15MemoryOutStreamD1Ev
 7486      00
 7487 00ff 4889D8   		movq	%rbx, %rax
 7488 0102 4889C7   		movq	%rax, %rdi
 7489              	.LEHB313:
 7490 0105 E8000000 		call	_Unwind_Resume@PLT
 7490      00
 7491              	.LEHE313:
 7492              	.L451:
 7493              	.LBE22:
 7494              	.LBE23:
 7495              		.loc 5 28 0
 7496 010a 90       		nop
 7497 010b 488B45E8 		movq	-24(%rbp), %rax
 7498 010f 64483304 		xorq	%fs:40, %rax
 7498      25280000 
 7498      00
 7499 0118 7405     		je	.L449
 7500 011a E8000000 		call	__stack_chk_fail@PLT
 7500      00
 7501              	.L449:
 7502 011f 4881C4C8 		addq	$456, %rsp
 7502      010000
 7503 0126 5B       		popq	%rbx
 7504 0127 5D       		popq	%rbp
 7505              		.cfi_def_cfa 7, 8
 7506 0128 C3       		ret
 7507              		.cfi_endproc
 7508              	.LFE1237:
 7509              		.section	.gcc_except_table
 7510              	.LLSDA1237:
 7511 0762 FF       		.byte	0xff
 7512 0763 FF       		.byte	0xff
 7513 0764 01       		.byte	0x1
 7514 0765 13       		.uleb128 .LLSDACSE1237-.LLSDACSB1237
 7515              	.LLSDACSB1237:
 7516 0766 5B       		.uleb128 .LEHB310-.LFB1237
 7517 0767 05       		.uleb128 .LEHE310-.LEHB310
 7518 0768 00       		.uleb128 0
 7519 0769 00       		.uleb128 0
 7520 076a 71       		.uleb128 .LEHB311-.LFB1237
 7521 076b 6B       		.uleb128 .LEHE311-.LEHB311
 7522 076c ED01     		.uleb128 .L450-.LFB1237
 7523 076e 00       		.uleb128 0
 7524 076f E601     		.uleb128 .LEHB312-.LFB1237
 7525 0771 05       		.uleb128 .LEHE312-.LEHB312
 7526 0772 00       		.uleb128 0
 7527 0773 00       		.uleb128 0
 7528 0774 8502     		.uleb128 .LEHB313-.LFB1237
 7529 0776 05       		.uleb128 .LEHE313-.LEHB313
 7530 0777 00       		.uleb128 0
 7531 0778 00       		.uleb128 0
 7532              	.LLSDACSE1237:
 7533              		.section	.text._ZN8UnitTest10CheckEqualI12BufferStatusS1_EEvRNS_11TestResultsERKT_RKT0_RKNS_11Test
 7535              		.section	.text._ZN8UnitTest10CheckEqualIihEEvRNS_11TestResultsERKT_RKT0_RKNS_11TestDetailsE,"axG",
 7536              		.weak	_ZN8UnitTest10CheckEqualIihEEvRNS_11TestResultsERKT_RKT0_RKNS_11TestDetailsE
 7538              	_ZN8UnitTest10CheckEqualIihEEvRNS_11TestResultsERKT_RKT0_RKNS_11TestDetailsE:
 7539              	.LFB1242:
  19:/home/gani/eval/20140524/makestuff/libs/libutpp/Checks.h **** {
 7540              		.loc 5 19 0
 7541              		.cfi_startproc
 7542              		.cfi_personality 0x9b,DW.ref.__gxx_personality_v0
 7543              		.cfi_lsda 0x1b,.LLSDA1242
 7544 0000 55       		pushq	%rbp
 7545              		.cfi_def_cfa_offset 16
 7546              		.cfi_offset 6, -16
 7547 0001 4889E5   		movq	%rsp, %rbp
 7548              		.cfi_def_cfa_register 6
 7549 0004 53       		pushq	%rbx
 7550 0005 4881ECC8 		subq	$456, %rsp
 7550      010000
 7551              		.cfi_offset 3, -24
 7552 000c 4889BD48 		movq	%rdi, -440(%rbp)
 7552      FEFFFF
 7553 0013 4889B540 		movq	%rsi, -448(%rbp)
 7553      FEFFFF
 7554 001a 48899538 		movq	%rdx, -456(%rbp)
 7554      FEFFFF
 7555 0021 48898D30 		movq	%rcx, -464(%rbp)
 7555      FEFFFF
  19:/home/gani/eval/20140524/makestuff/libs/libutpp/Checks.h **** {
 7556              		.loc 5 19 0
 7557 0028 64488B04 		movq	%fs:40, %rax
 7557      25280000 
 7557      00
 7558 0031 488945E8 		movq	%rax, -24(%rbp)
 7559 0035 31C0     		xorl	%eax, %eax
 7560              	.LBB24:
  21:/home/gani/eval/20140524/makestuff/libs/libutpp/Checks.h ****     {
 7561              		.loc 5 21 0
 7562 0037 488B8540 		movq	-448(%rbp), %rax
 7562      FEFFFF
 7563 003e 8B10     		movl	(%rax), %edx
 7564 0040 488B8538 		movq	-456(%rbp), %rax
 7564      FEFFFF
 7565 0047 0FB600   		movzbl	(%rax), %eax
 7566 004a 0FB6C0   		movzbl	%al, %eax
 7567 004d 39C2     		cmpl	%eax, %edx
 7568 004f 0F84BD00 		je	.L457
 7568      0000
 7569              	.LBB25:
  23:/home/gani/eval/20140524/makestuff/libs/libutpp/Checks.h ****         stream << "Expected " << expected << " but was " << actual;
 7570              		.loc 5 23 0
 7571 0055 488D8550 		leaq	-432(%rbp), %rax
 7571      FEFFFF
 7572 005c 4889C7   		movq	%rax, %rdi
 7573              	.LEHB314:
 7574 005f E8000000 		call	_ZN8UnitTest15MemoryOutStreamC1Ev
 7574      00
 7575              	.LEHE314:
  24:/home/gani/eval/20140524/makestuff/libs/libutpp/Checks.h **** 
 7576              		.loc 5 24 0
 7577 0064 488D8550 		leaq	-432(%rbp), %rax
 7577      FEFFFF
 7578 006b 488D3500 		leaq	.LC77(%rip), %rsi
 7578      000000
 7579 0072 4889C7   		movq	%rax, %rdi
 7580              	.LEHB315:
 7581 0075 E8000000 		call	_ZStlsISt11char_traitsIcEERSt13basic_ostreamIcT_ES5_PKc@PLT
 7581      00
 7582 007a 4889C2   		movq	%rax, %rdx
 7583 007d 488B8540 		movq	-448(%rbp), %rax
 7583      FEFFFF
 7584 0084 8B00     		movl	(%rax), %eax
 7585 0086 89C6     		movl	%eax, %esi
 7586 0088 4889D7   		movq	%rdx, %rdi
 7587 008b E8000000 		call	_ZNSolsEi@PLT
 7587      00
  24:/home/gani/eval/20140524/makestuff/libs/libutpp/Checks.h **** 
 7588              		.loc 5 24 0 is_stmt 0 discriminator 1
 7589 0090 488D3500 		leaq	.LC78(%rip), %rsi
 7589      000000
 7590 0097 4889C7   		movq	%rax, %rdi
 7591 009a E8000000 		call	_ZStlsISt11char_traitsIcEERSt13basic_ostreamIcT_ES5_PKc@PLT
 7591      00
  24:/home/gani/eval/20140524/makestuff/libs/libutpp/Checks.h **** 
 7592              		.loc 5 24 0 discriminator 2
 7593 009f 4889C2   		movq	%rax, %rdx
 7594 00a2 488B8538 		movq	-456(%rbp), %rax
 7594      FEFFFF
 7595 00a9 0FB600   		movzbl	(%rax), %eax
 7596 00ac 0FB6C0   		movzbl	%al, %eax
 7597 00af 89C6     		movl	%eax, %esi
 7598 00b1 4889D7   		movq	%rdx, %rdi
 7599 00b4 E8000000 		call	_ZStlsISt11char_traitsIcEERSt13basic_ostreamIcT_ES5_h@PLT
 7599      00
  26:/home/gani/eval/20140524/makestuff/libs/libutpp/Checks.h ****     }
 7600              		.loc 5 26 0 is_stmt 1
 7601 00b9 488D8550 		leaq	-432(%rbp), %rax
 7601      FEFFFF
 7602 00c0 4889C7   		movq	%rax, %rdi
 7603 00c3 E8000000 		call	_ZNK8UnitTest15MemoryOutStream7GetTextEv@PLT
 7603      00
 7604 00c8 4889C2   		movq	%rax, %rdx
 7605 00cb 488B8D30 		movq	-464(%rbp), %rcx
 7605      FEFFFF
 7606 00d2 488B8548 		movq	-440(%rbp), %rax
 7606      FEFFFF
 7607 00d9 4889CE   		movq	%rcx, %rsi
 7608 00dc 4889C7   		movq	%rax, %rdi
 7609 00df E8000000 		call	_ZN8UnitTest11TestResults13OnTestFailureERKNS_11TestDetailsEPKc@PLT
 7609      00
 7610              	.LEHE315:
  23:/home/gani/eval/20140524/makestuff/libs/libutpp/Checks.h ****         stream << "Expected " << expected << " but was " << actual;
 7611              		.loc 5 23 0
 7612 00e4 488D8550 		leaq	-432(%rbp), %rax
 7612      FEFFFF
 7613 00eb 4889C7   		movq	%rax, %rdi
 7614              	.LEHB316:
 7615 00ee E8000000 		call	_ZN8UnitTest15MemoryOutStreamD1Ev
 7615      00
 7616              	.LEHE316:
 7617              	.LBE25:
 7618              	.LBE24:
 7619              		.loc 5 28 0
 7620 00f3 EB1D     		jmp	.L457
 7621              	.L456:
 7622 00f5 4889C3   		movq	%rax, %rbx
 7623              	.LBB27:
 7624              	.LBB26:
  23:/home/gani/eval/20140524/makestuff/libs/libutpp/Checks.h ****         stream << "Expected " << expected << " but was " << actual;
 7625              		.loc 5 23 0
 7626 00f8 488D8550 		leaq	-432(%rbp), %rax
 7626      FEFFFF
 7627 00ff 4889C7   		movq	%rax, %rdi
 7628 0102 E8000000 		call	_ZN8UnitTest15MemoryOutStreamD1Ev
 7628      00
 7629 0107 4889D8   		movq	%rbx, %rax
 7630 010a 4889C7   		movq	%rax, %rdi
 7631              	.LEHB317:
 7632 010d E8000000 		call	_Unwind_Resume@PLT
 7632      00
 7633              	.LEHE317:
 7634              	.L457:
 7635              	.LBE26:
 7636              	.LBE27:
 7637              		.loc 5 28 0
 7638 0112 90       		nop
 7639 0113 488B45E8 		movq	-24(%rbp), %rax
 7640 0117 64483304 		xorq	%fs:40, %rax
 7640      25280000 
 7640      00
 7641 0120 7405     		je	.L455
 7642 0122 E8000000 		call	__stack_chk_fail@PLT
 7642      00
 7643              	.L455:
 7644 0127 4881C4C8 		addq	$456, %rsp
 7644      010000
 7645 012e 5B       		popq	%rbx
 7646 012f 5D       		popq	%rbp
 7647              		.cfi_def_cfa 7, 8
 7648 0130 C3       		ret
 7649              		.cfi_endproc
 7650              	.LFE1242:
 7651              		.section	.gcc_except_table
 7652              	.LLSDA1242:
 7653 0779 FF       		.byte	0xff
 7654 077a FF       		.byte	0xff
 7655 077b 01       		.byte	0x1
 7656 077c 13       		.uleb128 .LLSDACSE1242-.LLSDACSB1242
 7657              	.LLSDACSB1242:
 7658 077d 5F       		.uleb128 .LEHB314-.LFB1242
 7659 077e 05       		.uleb128 .LEHE314-.LEHB314
 7660 077f 00       		.uleb128 0
 7661 0780 00       		.uleb128 0
 7662 0781 75       		.uleb128 .LEHB315-.LFB1242
 7663 0782 6F       		.uleb128 .LEHE315-.LEHB315
 7664 0783 F501     		.uleb128 .L456-.LFB1242
 7665 0785 00       		.uleb128 0
 7666 0786 EE01     		.uleb128 .LEHB316-.LFB1242
 7667 0788 05       		.uleb128 .LEHE316-.LEHB316
 7668 0789 00       		.uleb128 0
 7669 078a 00       		.uleb128 0
 7670 078b 8D02     		.uleb128 .LEHB317-.LFB1242
 7671 078d 05       		.uleb128 .LEHE317-.LEHB317
 7672 078e 00       		.uleb128 0
 7673 078f 00       		.uleb128 0
 7674              	.LLSDACSE1242:
 7675              		.section	.text._ZN8UnitTest10CheckEqualIihEEvRNS_11TestResultsERKT_RKT0_RKNS_11TestDetailsE,"axG",
 7677              		.section	.text._ZN8UnitTest10CheckEqualImmEEvRNS_11TestResultsERKT_RKT0_RKNS_11TestDetailsE,"axG",
 7678              		.weak	_ZN8UnitTest10CheckEqualImmEEvRNS_11TestResultsERKT_RKT0_RKNS_11TestDetailsE
 7680              	_ZN8UnitTest10CheckEqualImmEEvRNS_11TestResultsERKT_RKT0_RKNS_11TestDetailsE:
 7681              	.LFB1243:
  19:/home/gani/eval/20140524/makestuff/libs/libutpp/Checks.h **** {
 7682              		.loc 5 19 0
 7683              		.cfi_startproc
 7684              		.cfi_personality 0x9b,DW.ref.__gxx_personality_v0
 7685              		.cfi_lsda 0x1b,.LLSDA1243
 7686 0000 55       		pushq	%rbp
 7687              		.cfi_def_cfa_offset 16
 7688              		.cfi_offset 6, -16
 7689 0001 4889E5   		movq	%rsp, %rbp
 7690              		.cfi_def_cfa_register 6
 7691 0004 53       		pushq	%rbx
 7692 0005 4881ECC8 		subq	$456, %rsp
 7692      010000
 7693              		.cfi_offset 3, -24
 7694 000c 4889BD48 		movq	%rdi, -440(%rbp)
 7694      FEFFFF
 7695 0013 4889B540 		movq	%rsi, -448(%rbp)
 7695      FEFFFF
 7696 001a 48899538 		movq	%rdx, -456(%rbp)
 7696      FEFFFF
 7697 0021 48898D30 		movq	%rcx, -464(%rbp)
 7697      FEFFFF
  19:/home/gani/eval/20140524/makestuff/libs/libutpp/Checks.h **** {
 7698              		.loc 5 19 0
 7699 0028 64488B04 		movq	%fs:40, %rax
 7699      25280000 
 7699      00
 7700 0031 488945E8 		movq	%rax, -24(%rbp)
 7701 0035 31C0     		xorl	%eax, %eax
 7702              	.LBB28:
  21:/home/gani/eval/20140524/makestuff/libs/libutpp/Checks.h ****     {
 7703              		.loc 5 21 0
 7704 0037 488B8540 		movq	-448(%rbp), %rax
 7704      FEFFFF
 7705 003e 488B10   		movq	(%rax), %rdx
 7706 0041 488B8538 		movq	-456(%rbp), %rax
 7706      FEFFFF
 7707 0048 488B00   		movq	(%rax), %rax
 7708 004b 4839C2   		cmpq	%rax, %rdx
 7709 004e 0F84BD00 		je	.L463
 7709      0000
 7710              	.LBB29:
  23:/home/gani/eval/20140524/makestuff/libs/libutpp/Checks.h ****         stream << "Expected " << expected << " but was " << actual;
 7711              		.loc 5 23 0
 7712 0054 488D8550 		leaq	-432(%rbp), %rax
 7712      FEFFFF
 7713 005b 4889C7   		movq	%rax, %rdi
 7714              	.LEHB318:
 7715 005e E8000000 		call	_ZN8UnitTest15MemoryOutStreamC1Ev
 7715      00
 7716              	.LEHE318:
  24:/home/gani/eval/20140524/makestuff/libs/libutpp/Checks.h **** 
 7717              		.loc 5 24 0
 7718 0063 488D8550 		leaq	-432(%rbp), %rax
 7718      FEFFFF
 7719 006a 488D3500 		leaq	.LC77(%rip), %rsi
 7719      000000
 7720 0071 4889C7   		movq	%rax, %rdi
 7721              	.LEHB319:
 7722 0074 E8000000 		call	_ZStlsISt11char_traitsIcEERSt13basic_ostreamIcT_ES5_PKc@PLT
 7722      00
 7723 0079 4889C2   		movq	%rax, %rdx
 7724 007c 488B8540 		movq	-448(%rbp), %rax
 7724      FEFFFF
 7725 0083 488B00   		movq	(%rax), %rax
 7726 0086 4889C6   		movq	%rax, %rsi
 7727 0089 4889D7   		movq	%rdx, %rdi
 7728 008c E8000000 		call	_ZNSolsEm@PLT
 7728      00
  24:/home/gani/eval/20140524/makestuff/libs/libutpp/Checks.h **** 
 7729              		.loc 5 24 0 is_stmt 0 discriminator 1
 7730 0091 488D3500 		leaq	.LC78(%rip), %rsi
 7730      000000
 7731 0098 4889C7   		movq	%rax, %rdi
 7732 009b E8000000 		call	_ZStlsISt11char_traitsIcEERSt13basic_ostreamIcT_ES5_PKc@PLT
 7732      00
  24:/home/gani/eval/20140524/makestuff/libs/libutpp/Checks.h **** 
 7733              		.loc 5 24 0 discriminator 2
 7734 00a0 4889C2   		movq	%rax, %rdx
 7735 00a3 488B8538 		movq	-456(%rbp), %rax
 7735      FEFFFF
 7736 00aa 488B00   		movq	(%rax), %rax
 7737 00ad 4889C6   		movq	%rax, %rsi
 7738 00b0 4889D7   		movq	%rdx, %rdi
 7739 00b3 E8000000 		call	_ZNSolsEm@PLT
 7739      00
  26:/home/gani/eval/20140524/makestuff/libs/libutpp/Checks.h ****     }
 7740              		.loc 5 26 0 is_stmt 1
 7741 00b8 488D8550 		leaq	-432(%rbp), %rax
 7741      FEFFFF
 7742 00bf 4889C7   		movq	%rax, %rdi
 7743 00c2 E8000000 		call	_ZNK8UnitTest15MemoryOutStream7GetTextEv@PLT
 7743      00
 7744 00c7 4889C2   		movq	%rax, %rdx
 7745 00ca 488B8D30 		movq	-464(%rbp), %rcx
 7745      FEFFFF
 7746 00d1 488B8548 		movq	-440(%rbp), %rax
 7746      FEFFFF
 7747 00d8 4889CE   		movq	%rcx, %rsi
 7748 00db 4889C7   		movq	%rax, %rdi
 7749 00de E8000000 		call	_ZN8UnitTest11TestResults13OnTestFailureERKNS_11TestDetailsEPKc@PLT
 7749      00
 7750              	.LEHE319:
  23:/home/gani/eval/20140524/makestuff/libs/libutpp/Checks.h ****         stream << "Expected " << expected << " but was " << actual;
 7751              		.loc 5 23 0
 7752 00e3 488D8550 		leaq	-432(%rbp), %rax
 7752      FEFFFF
 7753 00ea 4889C7   		movq	%rax, %rdi
 7754              	.LEHB320:
 7755 00ed E8000000 		call	_ZN8UnitTest15MemoryOutStreamD1Ev
 7755      00
 7756              	.LEHE320:
 7757              	.LBE29:
 7758              	.LBE28:
 7759              		.loc 5 28 0
 7760 00f2 EB1D     		jmp	.L463
 7761              	.L462:
 7762 00f4 4889C3   		movq	%rax, %rbx
 7763              	.LBB31:
 7764              	.LBB30:
  23:/home/gani/eval/20140524/makestuff/libs/libutpp/Checks.h ****         stream << "Expected " << expected << " but was " << actual;
 7765              		.loc 5 23 0
 7766 00f7 488D8550 		leaq	-432(%rbp), %rax
 7766      FEFFFF
 7767 00fe 4889C7   		movq	%rax, %rdi
 7768 0101 E8000000 		call	_ZN8UnitTest15MemoryOutStreamD1Ev
 7768      00
 7769 0106 4889D8   		movq	%rbx, %rax
 7770 0109 4889C7   		movq	%rax, %rdi
 7771              	.LEHB321:
 7772 010c E8000000 		call	_Unwind_Resume@PLT
 7772      00
 7773              	.LEHE321:
 7774              	.L463:
 7775              	.LBE30:
 7776              	.LBE31:
 7777              		.loc 5 28 0
 7778 0111 90       		nop
 7779 0112 488B45E8 		movq	-24(%rbp), %rax
 7780 0116 64483304 		xorq	%fs:40, %rax
 7780      25280000 
 7780      00
 7781 011f 7405     		je	.L461
 7782 0121 E8000000 		call	__stack_chk_fail@PLT
 7782      00
 7783              	.L461:
 7784 0126 4881C4C8 		addq	$456, %rsp
 7784      010000
 7785 012d 5B       		popq	%rbx
 7786 012e 5D       		popq	%rbp
 7787              		.cfi_def_cfa 7, 8
 7788 012f C3       		ret
 7789              		.cfi_endproc
 7790              	.LFE1243:
 7791              		.section	.gcc_except_table
 7792              	.LLSDA1243:
 7793 0790 FF       		.byte	0xff
 7794 0791 FF       		.byte	0xff
 7795 0792 01       		.byte	0x1
 7796 0793 13       		.uleb128 .LLSDACSE1243-.LLSDACSB1243
 7797              	.LLSDACSB1243:
 7798 0794 5E       		.uleb128 .LEHB318-.LFB1243
 7799 0795 05       		.uleb128 .LEHE318-.LEHB318
 7800 0796 00       		.uleb128 0
 7801 0797 00       		.uleb128 0
 7802 0798 74       		.uleb128 .LEHB319-.LFB1243
 7803 0799 6F       		.uleb128 .LEHE319-.LEHB319
 7804 079a F401     		.uleb128 .L462-.LFB1243
 7805 079c 00       		.uleb128 0
 7806 079d ED01     		.uleb128 .LEHB320-.LFB1243
 7807 079f 05       		.uleb128 .LEHE320-.LEHB320
 7808 07a0 00       		.uleb128 0
 7809 07a1 00       		.uleb128 0
 7810 07a2 8C02     		.uleb128 .LEHB321-.LFB1243
 7811 07a4 05       		.uleb128 .LEHE321-.LEHB321
 7812 07a5 00       		.uleb128 0
 7813 07a6 00       		.uleb128 0
 7814              	.LLSDACSE1243:
 7815              		.section	.text._ZN8UnitTest10CheckEqualImmEEvRNS_11TestResultsERKT_RKT0_RKNS_11TestDetailsE,"axG",
 7817              		.section	.rodata
 7818              	.LC79:
 7819 0c95 45787065 		.string	"Expected [ "
 7819      63746564 
 7819      205B2000 
 7820              	.LC80:
 7821 0ca1 2000     		.string	" "
 7822              	.LC81:
 7823 0ca3 5D206275 		.string	"] but was [ "
 7823      74207761 
 7823      73205B20 
 7823      00
 7824              	.LC82:
 7825 0cb0 5D00     		.string	"]"
 7826              		.section	.text._ZN8UnitTest15CheckArrayEqualIA4_hPhEEvRNS_11TestResultsERKT_RKT0_iRKNS_11TestDetai
 7827              		.weak	_ZN8UnitTest15CheckArrayEqualIA4_hPhEEvRNS_11TestResultsERKT_RKT0_iRKNS_11TestDetailsE
 7829              	_ZN8UnitTest15CheckArrayEqualIA4_hPhEEvRNS_11TestResultsERKT_RKT0_iRKNS_11TestDetailsE:
 7830              	.LFB1244:
  29:/home/gani/eval/20140524/makestuff/libs/libutpp/Checks.h **** 
  30:/home/gani/eval/20140524/makestuff/libs/libutpp/Checks.h **** void CheckEqual(TestResults& results, char const* expected, char const* actual, TestDetails const& 
  31:/home/gani/eval/20140524/makestuff/libs/libutpp/Checks.h **** 
  32:/home/gani/eval/20140524/makestuff/libs/libutpp/Checks.h **** void CheckEqual(TestResults& results, char* expected, char* actual, TestDetails const& details);
  33:/home/gani/eval/20140524/makestuff/libs/libutpp/Checks.h **** 
  34:/home/gani/eval/20140524/makestuff/libs/libutpp/Checks.h **** void CheckEqual(TestResults& results, char* expected, char const* actual, TestDetails const& detail
  35:/home/gani/eval/20140524/makestuff/libs/libutpp/Checks.h **** 
  36:/home/gani/eval/20140524/makestuff/libs/libutpp/Checks.h **** void CheckEqual(TestResults& results, char const* expected, char* actual, TestDetails const& detail
  37:/home/gani/eval/20140524/makestuff/libs/libutpp/Checks.h **** 
  38:/home/gani/eval/20140524/makestuff/libs/libutpp/Checks.h **** template< typename Expected, typename Actual, typename Tolerance >
  39:/home/gani/eval/20140524/makestuff/libs/libutpp/Checks.h **** bool AreClose(Expected const& expected, Actual const& actual, Tolerance const& tolerance)
  40:/home/gani/eval/20140524/makestuff/libs/libutpp/Checks.h **** {
  41:/home/gani/eval/20140524/makestuff/libs/libutpp/Checks.h ****     return (actual >= (expected - tolerance)) && (actual <= (expected + tolerance));
  42:/home/gani/eval/20140524/makestuff/libs/libutpp/Checks.h **** }
  43:/home/gani/eval/20140524/makestuff/libs/libutpp/Checks.h **** 
  44:/home/gani/eval/20140524/makestuff/libs/libutpp/Checks.h **** template< typename Expected, typename Actual, typename Tolerance >
  45:/home/gani/eval/20140524/makestuff/libs/libutpp/Checks.h **** void CheckClose(TestResults& results, Expected const& expected, Actual const& actual, Tolerance con
  46:/home/gani/eval/20140524/makestuff/libs/libutpp/Checks.h ****                 TestDetails const& details)
  47:/home/gani/eval/20140524/makestuff/libs/libutpp/Checks.h **** {
  48:/home/gani/eval/20140524/makestuff/libs/libutpp/Checks.h ****     if (!AreClose(expected, actual, tolerance))
  49:/home/gani/eval/20140524/makestuff/libs/libutpp/Checks.h ****     { 
  50:/home/gani/eval/20140524/makestuff/libs/libutpp/Checks.h ****         UnitTest::MemoryOutStream stream;
  51:/home/gani/eval/20140524/makestuff/libs/libutpp/Checks.h ****         stream << "Expected " << expected << " +/- " << tolerance << " but was " << actual;
  52:/home/gani/eval/20140524/makestuff/libs/libutpp/Checks.h **** 
  53:/home/gani/eval/20140524/makestuff/libs/libutpp/Checks.h ****         results.OnTestFailure(details, stream.GetText());
  54:/home/gani/eval/20140524/makestuff/libs/libutpp/Checks.h ****     }
  55:/home/gani/eval/20140524/makestuff/libs/libutpp/Checks.h **** }
  56:/home/gani/eval/20140524/makestuff/libs/libutpp/Checks.h **** 
  57:/home/gani/eval/20140524/makestuff/libs/libutpp/Checks.h **** 
  58:/home/gani/eval/20140524/makestuff/libs/libutpp/Checks.h **** template< typename Expected, typename Actual >
  59:/home/gani/eval/20140524/makestuff/libs/libutpp/Checks.h **** void CheckArrayEqual(TestResults& results, Expected const& expected, Actual const& actual,
 7831              		.loc 5 59 0
 7832              		.cfi_startproc
 7833              		.cfi_personality 0x9b,DW.ref.__gxx_personality_v0
 7834              		.cfi_lsda 0x1b,.LLSDA1244
 7835 0000 55       		pushq	%rbp
 7836              		.cfi_def_cfa_offset 16
 7837              		.cfi_offset 6, -16
 7838 0001 4889E5   		movq	%rsp, %rbp
 7839              		.cfi_def_cfa_register 6
 7840 0004 53       		pushq	%rbx
 7841 0005 4881ECE8 		subq	$488, %rsp
 7841      010000
 7842              		.cfi_offset 3, -24
 7843 000c 4889BD38 		movq	%rdi, -456(%rbp)
 7843      FEFFFF
 7844 0013 4889B530 		movq	%rsi, -464(%rbp)
 7844      FEFFFF
 7845 001a 48899528 		movq	%rdx, -472(%rbp)
 7845      FEFFFF
 7846 0021 898D24FE 		movl	%ecx, -476(%rbp)
 7846      FFFF
 7847 0027 4C898518 		movq	%r8, -488(%rbp)
 7847      FEFFFF
 7848              		.loc 5 59 0
 7849 002e 64488B04 		movq	%fs:40, %rax
 7849      25280000 
 7849      00
 7850 0037 488945E8 		movq	%rax, -24(%rbp)
 7851 003b 31C0     		xorl	%eax, %eax
  60:/home/gani/eval/20140524/makestuff/libs/libutpp/Checks.h ****                 int const count, TestDetails const& details)
  61:/home/gani/eval/20140524/makestuff/libs/libutpp/Checks.h **** {
  62:/home/gani/eval/20140524/makestuff/libs/libutpp/Checks.h ****     bool equal = true;
 7852              		.loc 5 62 0
 7853 003d C68543FE 		movb	$1, -445(%rbp)
 7853      FFFF01
 7854              	.LBB32:
  63:/home/gani/eval/20140524/makestuff/libs/libutpp/Checks.h ****     for (int i = 0; i < count; ++i)
 7855              		.loc 5 63 0
 7856 0044 C78544FE 		movl	$0, -444(%rbp)
 7856      FFFF0000 
 7856      0000
 7857              	.L466:
 7858              		.loc 5 63 0 is_stmt 0 discriminator 3
 7859 004e 8B8544FE 		movl	-444(%rbp), %eax
 7859      FFFF
 7860 0054 3B8524FE 		cmpl	-476(%rbp), %eax
 7860      FFFF
 7861 005a 7D50     		jge	.L465
  64:/home/gani/eval/20140524/makestuff/libs/libutpp/Checks.h ****         equal &= (expected[i] == actual[i]);
 7862              		.loc 5 64 0 is_stmt 1 discriminator 2
 7863 005c 0FB68D43 		movzbl	-445(%rbp), %ecx
 7863      FEFFFF
 7864 0063 488B9530 		movq	-464(%rbp), %rdx
 7864      FEFFFF
 7865 006a 8B8544FE 		movl	-444(%rbp), %eax
 7865      FFFF
 7866 0070 4898     		cltq
 7867 0072 0FB61402 		movzbl	(%rdx,%rax), %edx
 7868 0076 488B8528 		movq	-472(%rbp), %rax
 7868      FEFFFF
 7869 007d 488B30   		movq	(%rax), %rsi
 7870 0080 8B8544FE 		movl	-444(%rbp), %eax
 7870      FFFF
 7871 0086 4898     		cltq
 7872 0088 4801F0   		addq	%rsi, %rax
 7873 008b 0FB600   		movzbl	(%rax), %eax
 7874 008e 38C2     		cmpb	%al, %dl
 7875 0090 0F94C0   		sete	%al
 7876 0093 0FB6C0   		movzbl	%al, %eax
 7877 0096 21C8     		andl	%ecx, %eax
 7878 0098 85C0     		testl	%eax, %eax
 7879 009a 0F95C0   		setne	%al
 7880 009d 888543FE 		movb	%al, -445(%rbp)
 7880      FFFF
  63:/home/gani/eval/20140524/makestuff/libs/libutpp/Checks.h ****     for (int i = 0; i < count; ++i)
 7881              		.loc 5 63 0 discriminator 2
 7882 00a3 838544FE 		addl	$1, -444(%rbp)
 7882      FFFF01
 7883 00aa EBA2     		jmp	.L466
 7884              	.L465:
 7885              	.LBE32:
 7886              	.LBB33:
  65:/home/gani/eval/20140524/makestuff/libs/libutpp/Checks.h **** 
  66:/home/gani/eval/20140524/makestuff/libs/libutpp/Checks.h ****     if (!equal)
 7887              		.loc 5 66 0
 7888 00ac 0FB68543 		movzbl	-445(%rbp), %eax
 7888      FEFFFF
 7889 00b3 83F001   		xorl	$1, %eax
 7890 00b6 84C0     		testb	%al, %al
 7891 00b8 0F845D01 		je	.L475
 7891      0000
 7892              	.LBB34:
  67:/home/gani/eval/20140524/makestuff/libs/libutpp/Checks.h ****     {
  68:/home/gani/eval/20140524/makestuff/libs/libutpp/Checks.h ****         UnitTest::MemoryOutStream stream;
 7893              		.loc 5 68 0
 7894 00be 488D8550 		leaq	-432(%rbp), %rax
 7894      FEFFFF
 7895 00c5 4889C7   		movq	%rax, %rdi
 7896              	.LEHB322:
 7897 00c8 E8000000 		call	_ZN8UnitTest15MemoryOutStreamC1Ev
 7897      00
 7898              	.LEHE322:
  69:/home/gani/eval/20140524/makestuff/libs/libutpp/Checks.h **** 
  70:/home/gani/eval/20140524/makestuff/libs/libutpp/Checks.h **** 		stream << "Expected [ ";
 7899              		.loc 5 70 0
 7900 00cd 488D8550 		leaq	-432(%rbp), %rax
 7900      FEFFFF
 7901 00d4 488D3500 		leaq	.LC79(%rip), %rsi
 7901      000000
 7902 00db 4889C7   		movq	%rax, %rdi
 7903              	.LEHB323:
 7904 00de E8000000 		call	_ZStlsISt11char_traitsIcEERSt13basic_ostreamIcT_ES5_PKc@PLT
 7904      00
 7905              	.LBB35:
  71:/home/gani/eval/20140524/makestuff/libs/libutpp/Checks.h **** 
  72:/home/gani/eval/20140524/makestuff/libs/libutpp/Checks.h **** 		for (int expectedIndex = 0; expectedIndex < count; ++expectedIndex)
 7906              		.loc 5 72 0
 7907 00e3 C78548FE 		movl	$0, -440(%rbp)
 7907      FFFF0000 
 7907      0000
 7908              	.L469:
 7909              		.loc 5 72 0 is_stmt 0 discriminator 1
 7910 00ed 8B8548FE 		movl	-440(%rbp), %eax
 7910      FFFF
 7911 00f3 3B8524FE 		cmpl	-476(%rbp), %eax
 7911      FFFF
 7912 00f9 7D3F     		jge	.L468
  73:/home/gani/eval/20140524/makestuff/libs/libutpp/Checks.h ****             stream << expected[expectedIndex] << " ";
 7913              		.loc 5 73 0 is_stmt 1
 7914 00fb 488B9530 		movq	-464(%rbp), %rdx
 7914      FEFFFF
 7915 0102 8B8548FE 		movl	-440(%rbp), %eax
 7915      FFFF
 7916 0108 4898     		cltq
 7917 010a 0FB60402 		movzbl	(%rdx,%rax), %eax
 7918 010e 0FB6D0   		movzbl	%al, %edx
 7919 0111 488D8550 		leaq	-432(%rbp), %rax
 7919      FEFFFF
 7920 0118 89D6     		movl	%edx, %esi
 7921 011a 4889C7   		movq	%rax, %rdi
 7922 011d E8000000 		call	_ZStlsISt11char_traitsIcEERSt13basic_ostreamIcT_ES5_h@PLT
 7922      00
 7923 0122 488D3500 		leaq	.LC80(%rip), %rsi
 7923      000000
 7924 0129 4889C7   		movq	%rax, %rdi
 7925 012c E8000000 		call	_ZStlsISt11char_traitsIcEERSt13basic_ostreamIcT_ES5_PKc@PLT
 7925      00
  72:/home/gani/eval/20140524/makestuff/libs/libutpp/Checks.h ****             stream << expected[expectedIndex] << " ";
 7926              		.loc 5 72 0 discriminator 2
 7927 0131 838548FE 		addl	$1, -440(%rbp)
 7927      FFFF01
 7928 0138 EBB3     		jmp	.L469
 7929              	.L468:
 7930              	.LBE35:
  74:/home/gani/eval/20140524/makestuff/libs/libutpp/Checks.h **** 
  75:/home/gani/eval/20140524/makestuff/libs/libutpp/Checks.h **** 		stream << "] but was [ ";
 7931              		.loc 5 75 0
 7932 013a 488D8550 		leaq	-432(%rbp), %rax
 7932      FEFFFF
 7933 0141 488D3500 		leaq	.LC81(%rip), %rsi
 7933      000000
 7934 0148 4889C7   		movq	%rax, %rdi
 7935 014b E8000000 		call	_ZStlsISt11char_traitsIcEERSt13basic_ostreamIcT_ES5_PKc@PLT
 7935      00
 7936              	.LBB36:
  76:/home/gani/eval/20140524/makestuff/libs/libutpp/Checks.h **** 
  77:/home/gani/eval/20140524/makestuff/libs/libutpp/Checks.h **** 		for (int actualIndex = 0; actualIndex < count; ++actualIndex)
 7937              		.loc 5 77 0
 7938 0150 C7854CFE 		movl	$0, -436(%rbp)
 7938      FFFF0000 
 7938      0000
 7939              	.L471:
 7940              		.loc 5 77 0 is_stmt 0 discriminator 1
 7941 015a 8B854CFE 		movl	-436(%rbp), %eax
 7941      FFFF
 7942 0160 3B8524FE 		cmpl	-476(%rbp), %eax
 7942      FFFF
 7943 0166 7D44     		jge	.L470
  78:/home/gani/eval/20140524/makestuff/libs/libutpp/Checks.h ****             stream << actual[actualIndex] << " ";
 7944              		.loc 5 78 0 is_stmt 1
 7945 0168 488B8528 		movq	-472(%rbp), %rax
 7945      FEFFFF
 7946 016f 488B10   		movq	(%rax), %rdx
 7947 0172 8B854CFE 		movl	-436(%rbp), %eax
 7947      FFFF
 7948 0178 4898     		cltq
 7949 017a 4801D0   		addq	%rdx, %rax
 7950 017d 0FB600   		movzbl	(%rax), %eax
 7951 0180 0FB6D0   		movzbl	%al, %edx
 7952 0183 488D8550 		leaq	-432(%rbp), %rax
 7952      FEFFFF
 7953 018a 89D6     		movl	%edx, %esi
 7954 018c 4889C7   		movq	%rax, %rdi
 7955 018f E8000000 		call	_ZStlsISt11char_traitsIcEERSt13basic_ostreamIcT_ES5_h@PLT
 7955      00
 7956 0194 488D3500 		leaq	.LC80(%rip), %rsi
 7956      000000
 7957 019b 4889C7   		movq	%rax, %rdi
 7958 019e E8000000 		call	_ZStlsISt11char_traitsIcEERSt13basic_ostreamIcT_ES5_PKc@PLT
 7958      00
  77:/home/gani/eval/20140524/makestuff/libs/libutpp/Checks.h ****             stream << actual[actualIndex] << " ";
 7959              		.loc 5 77 0 discriminator 2
 7960 01a3 83854CFE 		addl	$1, -436(%rbp)
 7960      FFFF01
 7961 01aa EBAE     		jmp	.L471
 7962              	.L470:
 7963              	.LBE36:
  79:/home/gani/eval/20140524/makestuff/libs/libutpp/Checks.h **** 
  80:/home/gani/eval/20140524/makestuff/libs/libutpp/Checks.h **** 		stream << "]";
 7964              		.loc 5 80 0
 7965 01ac 488D8550 		leaq	-432(%rbp), %rax
 7965      FEFFFF
 7966 01b3 488D3500 		leaq	.LC82(%rip), %rsi
 7966      000000
 7967 01ba 4889C7   		movq	%rax, %rdi
 7968 01bd E8000000 		call	_ZStlsISt11char_traitsIcEERSt13basic_ostreamIcT_ES5_PKc@PLT
 7968      00
  81:/home/gani/eval/20140524/makestuff/libs/libutpp/Checks.h **** 
  82:/home/gani/eval/20140524/makestuff/libs/libutpp/Checks.h ****         results.OnTestFailure(details, stream.GetText());
 7969              		.loc 5 82 0
 7970 01c2 488D8550 		leaq	-432(%rbp), %rax
 7970      FEFFFF
 7971 01c9 4889C7   		movq	%rax, %rdi
 7972 01cc E8000000 		call	_ZNK8UnitTest15MemoryOutStream7GetTextEv@PLT
 7972      00
 7973 01d1 4889C2   		movq	%rax, %rdx
 7974 01d4 488B8D18 		movq	-488(%rbp), %rcx
 7974      FEFFFF
 7975 01db 488B8538 		movq	-456(%rbp), %rax
 7975      FEFFFF
 7976 01e2 4889CE   		movq	%rcx, %rsi
 7977 01e5 4889C7   		movq	%rax, %rdi
 7978 01e8 E8000000 		call	_ZN8UnitTest11TestResults13OnTestFailureERKNS_11TestDetailsEPKc@PLT
 7978      00
 7979              	.LEHE323:
  68:/home/gani/eval/20140524/makestuff/libs/libutpp/Checks.h **** 
 7980              		.loc 5 68 0
 7981 01ed 488D8550 		leaq	-432(%rbp), %rax
 7981      FEFFFF
 7982 01f4 4889C7   		movq	%rax, %rdi
 7983              	.LEHB324:
 7984 01f7 E8000000 		call	_ZN8UnitTest15MemoryOutStreamD1Ev
 7984      00
 7985              	.LEHE324:
 7986              	.LBE34:
 7987              	.LBE33:
  83:/home/gani/eval/20140524/makestuff/libs/libutpp/Checks.h ****     }
  84:/home/gani/eval/20140524/makestuff/libs/libutpp/Checks.h **** }
 7988              		.loc 5 84 0
 7989 01fc EB1D     		jmp	.L475
 7990              	.L474:
 7991 01fe 4889C3   		movq	%rax, %rbx
 7992              	.LBB38:
 7993              	.LBB37:
  68:/home/gani/eval/20140524/makestuff/libs/libutpp/Checks.h **** 
 7994              		.loc 5 68 0
 7995 0201 488D8550 		leaq	-432(%rbp), %rax
 7995      FEFFFF
 7996 0208 4889C7   		movq	%rax, %rdi
 7997 020b E8000000 		call	_ZN8UnitTest15MemoryOutStreamD1Ev
 7997      00
 7998 0210 4889D8   		movq	%rbx, %rax
 7999 0213 4889C7   		movq	%rax, %rdi
 8000              	.LEHB325:
 8001 0216 E8000000 		call	_Unwind_Resume@PLT
 8001      00
 8002              	.LEHE325:
 8003              	.L475:
 8004              	.LBE37:
 8005              	.LBE38:
 8006              		.loc 5 84 0
 8007 021b 90       		nop
 8008 021c 488B45E8 		movq	-24(%rbp), %rax
 8009 0220 64483304 		xorq	%fs:40, %rax
 8009      25280000 
 8009      00
 8010 0229 7405     		je	.L473
 8011 022b E8000000 		call	__stack_chk_fail@PLT
 8011      00
 8012              	.L473:
 8013 0230 4881C4E8 		addq	$488, %rsp
 8013      010000
 8014 0237 5B       		popq	%rbx
 8015 0238 5D       		popq	%rbp
 8016              		.cfi_def_cfa 7, 8
 8017 0239 C3       		ret
 8018              		.cfi_endproc
 8019              	.LFE1244:
 8020              		.section	.gcc_except_table
 8021              	.LLSDA1244:
 8022 07a7 FF       		.byte	0xff
 8023 07a8 FF       		.byte	0xff
 8024 07a9 01       		.byte	0x1
 8025 07aa 16       		.uleb128 .LLSDACSE1244-.LLSDACSB1244
 8026              	.LLSDACSB1244:
 8027 07ab C801     		.uleb128 .LEHB322-.LFB1244
 8028 07ad 05       		.uleb128 .LEHE322-.LEHB322
 8029 07ae 00       		.uleb128 0
 8030 07af 00       		.uleb128 0
 8031 07b0 DE01     		.uleb128 .LEHB323-.LFB1244
 8032 07b2 8F02     		.uleb128 .LEHE323-.LEHB323
 8033 07b4 FE03     		.uleb128 .L474-.LFB1244
 8034 07b6 00       		.uleb128 0
 8035 07b7 F703     		.uleb128 .LEHB324-.LFB1244
 8036 07b9 05       		.uleb128 .LEHE324-.LEHB324
 8037 07ba 00       		.uleb128 0
 8038 07bb 00       		.uleb128 0
 8039 07bc 9604     		.uleb128 .LEHB325-.LFB1244
 8040 07be 05       		.uleb128 .LEHE325-.LEHB325
 8041 07bf 00       		.uleb128 0
 8042 07c0 00       		.uleb128 0
 8043              	.LLSDACSE1244:
 8044              		.section	.text._ZN8UnitTest15CheckArrayEqualIA4_hPhEEvRNS_11TestResultsERKT_RKT0_iRKNS_11TestDetai
 8046              		.section	.text._ZN8UnitTest5CheckIbEEbT_,"axG",@progbits,_ZN8UnitTest5CheckIbEEbT_,comdat
 8047              		.weak	_ZN8UnitTest5CheckIbEEbT_
 8049              	_ZN8UnitTest5CheckIbEEbT_:
 8050              	.LFB1256:
  12:/home/gani/eval/20140524/makestuff/libs/libutpp/Checks.h **** {
 8051              		.loc 5 12 0
 8052              		.cfi_startproc
 8053 0000 55       		pushq	%rbp
 8054              		.cfi_def_cfa_offset 16
 8055              		.cfi_offset 6, -16
 8056 0001 4889E5   		movq	%rsp, %rbp
 8057              		.cfi_def_cfa_register 6
 8058 0004 89F8     		movl	%edi, %eax
 8059 0006 8845FC   		movb	%al, -4(%rbp)
  14:/home/gani/eval/20140524/makestuff/libs/libutpp/Checks.h **** }
 8060              		.loc 5 14 0
 8061 0009 0FB645FC 		movzbl	-4(%rbp), %eax
  15:/home/gani/eval/20140524/makestuff/libs/libutpp/Checks.h **** 
 8062              		.loc 5 15 0
 8063 000d 5D       		popq	%rbp
 8064              		.cfi_def_cfa 7, 8
 8065 000e C3       		ret
 8066              		.cfi_endproc
 8067              	.LFE1256:
 8069              		.section	.text._ZNKSt4fposI11__mbstate_tEcvlEv,"axG",@progbits,_ZNKSt4fposI11__mbstate_tEcvlEv,com
 8070              		.align 2
 8071              		.weak	_ZNKSt4fposI11__mbstate_tEcvlEv
 8073              	_ZNKSt4fposI11__mbstate_tEcvlEv:
 8074              	.LFB1257:
 8075              		.file 6 "/usr/include/c++/7/bits/postypes.h"
   1:/usr/include/c++/7/bits/postypes.h **** // Position types -*- C++ -*-
   2:/usr/include/c++/7/bits/postypes.h **** 
   3:/usr/include/c++/7/bits/postypes.h **** // Copyright (C) 1997-2017 Free Software Foundation, Inc.
   4:/usr/include/c++/7/bits/postypes.h **** //
   5:/usr/include/c++/7/bits/postypes.h **** // This file is part of the GNU ISO C++ Library.  This library is free
   6:/usr/include/c++/7/bits/postypes.h **** // software; you can redistribute it and/or modify it under the
   7:/usr/include/c++/7/bits/postypes.h **** // terms of the GNU General Public License as published by the
   8:/usr/include/c++/7/bits/postypes.h **** // Free Software Foundation; either version 3, or (at your option)
   9:/usr/include/c++/7/bits/postypes.h **** // any later version.
  10:/usr/include/c++/7/bits/postypes.h **** 
  11:/usr/include/c++/7/bits/postypes.h **** // This library is distributed in the hope that it will be useful,
  12:/usr/include/c++/7/bits/postypes.h **** // but WITHOUT ANY WARRANTY; without even the implied warranty of
  13:/usr/include/c++/7/bits/postypes.h **** // MERCHANTABILITY or FITNESS FOR A PARTICULAR PURPOSE.  See the
  14:/usr/include/c++/7/bits/postypes.h **** // GNU General Public License for more details.
  15:/usr/include/c++/7/bits/postypes.h **** 
  16:/usr/include/c++/7/bits/postypes.h **** // Under Section 7 of GPL version 3, you are granted additional
  17:/usr/include/c++/7/bits/postypes.h **** // permissions described in the GCC Runtime Library Exception, version
  18:/usr/include/c++/7/bits/postypes.h **** // 3.1, as published by the Free Software Foundation.
  19:/usr/include/c++/7/bits/postypes.h **** 
  20:/usr/include/c++/7/bits/postypes.h **** // You should have received a copy of the GNU General Public License and
  21:/usr/include/c++/7/bits/postypes.h **** // a copy of the GCC Runtime Library Exception along with this program;
  22:/usr/include/c++/7/bits/postypes.h **** // see the files COPYING3 and COPYING.RUNTIME respectively.  If not, see
  23:/usr/include/c++/7/bits/postypes.h **** // <http://www.gnu.org/licenses/>.
  24:/usr/include/c++/7/bits/postypes.h **** 
  25:/usr/include/c++/7/bits/postypes.h **** /** @file bits/postypes.h
  26:/usr/include/c++/7/bits/postypes.h ****  *  This is an internal header file, included by other library headers.
  27:/usr/include/c++/7/bits/postypes.h ****  *  Do not attempt to use it directly. @headername{iosfwd}
  28:/usr/include/c++/7/bits/postypes.h ****  */
  29:/usr/include/c++/7/bits/postypes.h **** 
  30:/usr/include/c++/7/bits/postypes.h **** //
  31:/usr/include/c++/7/bits/postypes.h **** // ISO C++ 14882: 27.4.1 - Types
  32:/usr/include/c++/7/bits/postypes.h **** // ISO C++ 14882: 27.4.3 - Template class fpos
  33:/usr/include/c++/7/bits/postypes.h **** //
  34:/usr/include/c++/7/bits/postypes.h **** 
  35:/usr/include/c++/7/bits/postypes.h **** #ifndef _GLIBCXX_POSTYPES_H
  36:/usr/include/c++/7/bits/postypes.h **** #define _GLIBCXX_POSTYPES_H 1
  37:/usr/include/c++/7/bits/postypes.h **** 
  38:/usr/include/c++/7/bits/postypes.h **** #pragma GCC system_header
  39:/usr/include/c++/7/bits/postypes.h **** 
  40:/usr/include/c++/7/bits/postypes.h **** #include <cwchar> // For mbstate_t
  41:/usr/include/c++/7/bits/postypes.h **** 
  42:/usr/include/c++/7/bits/postypes.h **** // XXX If <stdint.h> is really needed, make sure to define the macros
  43:/usr/include/c++/7/bits/postypes.h **** // before including it, in order not to break <tr1/cstdint> (and <cstdint>
  44:/usr/include/c++/7/bits/postypes.h **** // in C++11).  Reconsider all this as soon as possible...
  45:/usr/include/c++/7/bits/postypes.h **** #if (defined(_GLIBCXX_HAVE_INT64_T) && !defined(_GLIBCXX_HAVE_INT64_T_LONG) \
  46:/usr/include/c++/7/bits/postypes.h ****      && !defined(_GLIBCXX_HAVE_INT64_T_LONG_LONG))
  47:/usr/include/c++/7/bits/postypes.h **** 
  48:/usr/include/c++/7/bits/postypes.h **** #ifndef __STDC_LIMIT_MACROS
  49:/usr/include/c++/7/bits/postypes.h **** # define _UNDEF__STDC_LIMIT_MACROS
  50:/usr/include/c++/7/bits/postypes.h **** # define __STDC_LIMIT_MACROS
  51:/usr/include/c++/7/bits/postypes.h **** #endif
  52:/usr/include/c++/7/bits/postypes.h **** #ifndef __STDC_CONSTANT_MACROS
  53:/usr/include/c++/7/bits/postypes.h **** # define _UNDEF__STDC_CONSTANT_MACROS
  54:/usr/include/c++/7/bits/postypes.h **** # define __STDC_CONSTANT_MACROS
  55:/usr/include/c++/7/bits/postypes.h **** #endif
  56:/usr/include/c++/7/bits/postypes.h **** #include <stdint.h> // For int64_t
  57:/usr/include/c++/7/bits/postypes.h **** #ifdef _UNDEF__STDC_LIMIT_MACROS
  58:/usr/include/c++/7/bits/postypes.h **** # undef __STDC_LIMIT_MACROS
  59:/usr/include/c++/7/bits/postypes.h **** # undef _UNDEF__STDC_LIMIT_MACROS
  60:/usr/include/c++/7/bits/postypes.h **** #endif
  61:/usr/include/c++/7/bits/postypes.h **** #ifdef _UNDEF__STDC_CONSTANT_MACROS
  62:/usr/include/c++/7/bits/postypes.h **** # undef __STDC_CONSTANT_MACROS
  63:/usr/include/c++/7/bits/postypes.h **** # undef _UNDEF__STDC_CONSTANT_MACROS
  64:/usr/include/c++/7/bits/postypes.h **** #endif
  65:/usr/include/c++/7/bits/postypes.h **** 
  66:/usr/include/c++/7/bits/postypes.h **** #endif
  67:/usr/include/c++/7/bits/postypes.h **** 
  68:/usr/include/c++/7/bits/postypes.h **** namespace std _GLIBCXX_VISIBILITY(default)
  69:/usr/include/c++/7/bits/postypes.h **** {
  70:/usr/include/c++/7/bits/postypes.h **** _GLIBCXX_BEGIN_NAMESPACE_VERSION
  71:/usr/include/c++/7/bits/postypes.h **** 
  72:/usr/include/c++/7/bits/postypes.h ****   // The types streamoff, streampos and wstreampos and the class
  73:/usr/include/c++/7/bits/postypes.h ****   // template fpos<> are described in clauses 21.1.2, 21.1.3, 27.1.2,
  74:/usr/include/c++/7/bits/postypes.h ****   // 27.2, 27.4.1, 27.4.3 and D.6. Despite all this verbiage, the
  75:/usr/include/c++/7/bits/postypes.h ****   // behaviour of these types is mostly implementation defined or
  76:/usr/include/c++/7/bits/postypes.h ****   // unspecified. The behaviour in this implementation is as noted
  77:/usr/include/c++/7/bits/postypes.h ****   // below.
  78:/usr/include/c++/7/bits/postypes.h **** 
  79:/usr/include/c++/7/bits/postypes.h ****   /**
  80:/usr/include/c++/7/bits/postypes.h ****    *  @brief  Type used by fpos, char_traits<char>, and char_traits<wchar_t>.
  81:/usr/include/c++/7/bits/postypes.h ****    *
  82:/usr/include/c++/7/bits/postypes.h ****    *  In clauses 21.1.3.1 and 27.4.1 streamoff is described as an
  83:/usr/include/c++/7/bits/postypes.h ****    *  implementation defined type.
  84:/usr/include/c++/7/bits/postypes.h ****    *  Note: In versions of GCC up to and including GCC 3.3, streamoff
  85:/usr/include/c++/7/bits/postypes.h ****    *  was typedef long.
  86:/usr/include/c++/7/bits/postypes.h ****   */  
  87:/usr/include/c++/7/bits/postypes.h **** #ifdef _GLIBCXX_HAVE_INT64_T_LONG
  88:/usr/include/c++/7/bits/postypes.h ****   typedef long          streamoff;
  89:/usr/include/c++/7/bits/postypes.h **** #elif defined(_GLIBCXX_HAVE_INT64_T_LONG_LONG)
  90:/usr/include/c++/7/bits/postypes.h ****   typedef long long     streamoff;
  91:/usr/include/c++/7/bits/postypes.h **** #elif defined(_GLIBCXX_HAVE_INT64_T) 
  92:/usr/include/c++/7/bits/postypes.h ****   typedef int64_t       streamoff;
  93:/usr/include/c++/7/bits/postypes.h **** #else
  94:/usr/include/c++/7/bits/postypes.h ****   typedef long long     streamoff;
  95:/usr/include/c++/7/bits/postypes.h **** #endif
  96:/usr/include/c++/7/bits/postypes.h **** 
  97:/usr/include/c++/7/bits/postypes.h ****   /// Integral type for I/O operation counts and buffer sizes.
  98:/usr/include/c++/7/bits/postypes.h ****   typedef ptrdiff_t	streamsize; // Signed integral type
  99:/usr/include/c++/7/bits/postypes.h **** 
 100:/usr/include/c++/7/bits/postypes.h ****   /**
 101:/usr/include/c++/7/bits/postypes.h ****    *  @brief  Class representing stream positions.
 102:/usr/include/c++/7/bits/postypes.h ****    *
 103:/usr/include/c++/7/bits/postypes.h ****    *  The standard places no requirements upon the template parameter StateT.
 104:/usr/include/c++/7/bits/postypes.h ****    *  In this implementation StateT must be DefaultConstructible,
 105:/usr/include/c++/7/bits/postypes.h ****    *  CopyConstructible and Assignable.  The standard only requires that fpos
 106:/usr/include/c++/7/bits/postypes.h ****    *  should contain a member of type StateT. In this implementation it also
 107:/usr/include/c++/7/bits/postypes.h ****    *  contains an offset stored as a signed integer.
 108:/usr/include/c++/7/bits/postypes.h ****    *
 109:/usr/include/c++/7/bits/postypes.h ****    *  @param  StateT  Type passed to and returned from state().
 110:/usr/include/c++/7/bits/postypes.h ****    */
 111:/usr/include/c++/7/bits/postypes.h ****   template<typename _StateT>
 112:/usr/include/c++/7/bits/postypes.h ****     class fpos
 113:/usr/include/c++/7/bits/postypes.h ****     {
 114:/usr/include/c++/7/bits/postypes.h ****     private:
 115:/usr/include/c++/7/bits/postypes.h ****       streamoff	                _M_off;
 116:/usr/include/c++/7/bits/postypes.h ****       _StateT			_M_state;
 117:/usr/include/c++/7/bits/postypes.h **** 
 118:/usr/include/c++/7/bits/postypes.h ****     public:
 119:/usr/include/c++/7/bits/postypes.h ****       // The standard doesn't require that fpos objects can be default
 120:/usr/include/c++/7/bits/postypes.h ****       // constructed. This implementation provides a default
 121:/usr/include/c++/7/bits/postypes.h ****       // constructor that initializes the offset to 0 and default
 122:/usr/include/c++/7/bits/postypes.h ****       // constructs the state.
 123:/usr/include/c++/7/bits/postypes.h ****       fpos()
 124:/usr/include/c++/7/bits/postypes.h ****       : _M_off(0), _M_state() { }
 125:/usr/include/c++/7/bits/postypes.h **** 
 126:/usr/include/c++/7/bits/postypes.h ****       // The standard requires that fpos objects can be constructed
 127:/usr/include/c++/7/bits/postypes.h ****       // from streamoff objects using the constructor syntax, and
 128:/usr/include/c++/7/bits/postypes.h ****       // fails to give any meaningful semantics. In this
 129:/usr/include/c++/7/bits/postypes.h ****       // implementation implicit conversion is also allowed, and this
 130:/usr/include/c++/7/bits/postypes.h ****       // constructor stores the streamoff as the offset and default
 131:/usr/include/c++/7/bits/postypes.h ****       // constructs the state.
 132:/usr/include/c++/7/bits/postypes.h ****       /// Construct position from offset.
 133:/usr/include/c++/7/bits/postypes.h ****       fpos(streamoff __off)
 134:/usr/include/c++/7/bits/postypes.h ****       : _M_off(__off), _M_state() { }
 135:/usr/include/c++/7/bits/postypes.h **** 
 136:/usr/include/c++/7/bits/postypes.h ****       /// Convert to streamoff.
 137:/usr/include/c++/7/bits/postypes.h ****       operator streamoff() const { return _M_off; }
 8076              		.loc 6 137 0
 8077              		.cfi_startproc
 8078 0000 55       		pushq	%rbp
 8079              		.cfi_def_cfa_offset 16
 8080              		.cfi_offset 6, -16
 8081 0001 4889E5   		movq	%rsp, %rbp
 8082              		.cfi_def_cfa_register 6
 8083 0004 48897DF8 		movq	%rdi, -8(%rbp)
 8084              		.loc 6 137 0
 8085 0008 488B45F8 		movq	-8(%rbp), %rax
 8086 000c 488B00   		movq	(%rax), %rax
 8087 000f 5D       		popq	%rbp
 8088              		.cfi_def_cfa 7, 8
 8089 0010 C3       		ret
 8090              		.cfi_endproc
 8091              	.LFE1257:
 8093              		.section	.text._ZN8UnitTest10CheckEqualImjEEvRNS_11TestResultsERKT_RKT0_RKNS_11TestDetailsE,"axG",
 8094              		.weak	_ZN8UnitTest10CheckEqualImjEEvRNS_11TestResultsERKT_RKT0_RKNS_11TestDetailsE
 8096              	_ZN8UnitTest10CheckEqualImjEEvRNS_11TestResultsERKT_RKT0_RKNS_11TestDetailsE:
 8097              	.LFB1259:
  19:/home/gani/eval/20140524/makestuff/libs/libutpp/Checks.h **** {
 8098              		.loc 5 19 0
 8099              		.cfi_startproc
 8100              		.cfi_personality 0x9b,DW.ref.__gxx_personality_v0
 8101              		.cfi_lsda 0x1b,.LLSDA1259
 8102 0000 55       		pushq	%rbp
 8103              		.cfi_def_cfa_offset 16
 8104              		.cfi_offset 6, -16
 8105 0001 4889E5   		movq	%rsp, %rbp
 8106              		.cfi_def_cfa_register 6
 8107 0004 53       		pushq	%rbx
 8108 0005 4881ECC8 		subq	$456, %rsp
 8108      010000
 8109              		.cfi_offset 3, -24
 8110 000c 4889BD48 		movq	%rdi, -440(%rbp)
 8110      FEFFFF
 8111 0013 4889B540 		movq	%rsi, -448(%rbp)
 8111      FEFFFF
 8112 001a 48899538 		movq	%rdx, -456(%rbp)
 8112      FEFFFF
 8113 0021 48898D30 		movq	%rcx, -464(%rbp)
 8113      FEFFFF
  19:/home/gani/eval/20140524/makestuff/libs/libutpp/Checks.h **** {
 8114              		.loc 5 19 0
 8115 0028 64488B04 		movq	%fs:40, %rax
 8115      25280000 
 8115      00
 8116 0031 488945E8 		movq	%rax, -24(%rbp)
 8117 0035 31C0     		xorl	%eax, %eax
 8118              	.LBB39:
  21:/home/gani/eval/20140524/makestuff/libs/libutpp/Checks.h ****     {
 8119              		.loc 5 21 0
 8120 0037 488B8540 		movq	-448(%rbp), %rax
 8120      FEFFFF
 8121 003e 488B10   		movq	(%rax), %rdx
 8122 0041 488B8538 		movq	-456(%rbp), %rax
 8122      FEFFFF
 8123 0048 8B00     		movl	(%rax), %eax
 8124 004a 89C0     		movl	%eax, %eax
 8125 004c 4839C2   		cmpq	%rax, %rdx
 8126 004f 0F84BB00 		je	.L485
 8126      0000
 8127              	.LBB40:
  23:/home/gani/eval/20140524/makestuff/libs/libutpp/Checks.h ****         stream << "Expected " << expected << " but was " << actual;
 8128              		.loc 5 23 0
 8129 0055 488D8550 		leaq	-432(%rbp), %rax
 8129      FEFFFF
 8130 005c 4889C7   		movq	%rax, %rdi
 8131              	.LEHB326:
 8132 005f E8000000 		call	_ZN8UnitTest15MemoryOutStreamC1Ev
 8132      00
 8133              	.LEHE326:
  24:/home/gani/eval/20140524/makestuff/libs/libutpp/Checks.h **** 
 8134              		.loc 5 24 0
 8135 0064 488D8550 		leaq	-432(%rbp), %rax
 8135      FEFFFF
 8136 006b 488D3500 		leaq	.LC77(%rip), %rsi
 8136      000000
 8137 0072 4889C7   		movq	%rax, %rdi
 8138              	.LEHB327:
 8139 0075 E8000000 		call	_ZStlsISt11char_traitsIcEERSt13basic_ostreamIcT_ES5_PKc@PLT
 8139      00
 8140 007a 4889C2   		movq	%rax, %rdx
 8141 007d 488B8540 		movq	-448(%rbp), %rax
 8141      FEFFFF
 8142 0084 488B00   		movq	(%rax), %rax
 8143 0087 4889C6   		movq	%rax, %rsi
 8144 008a 4889D7   		movq	%rdx, %rdi
 8145 008d E8000000 		call	_ZNSolsEm@PLT
 8145      00
  24:/home/gani/eval/20140524/makestuff/libs/libutpp/Checks.h **** 
 8146              		.loc 5 24 0 is_stmt 0 discriminator 1
 8147 0092 488D3500 		leaq	.LC78(%rip), %rsi
 8147      000000
 8148 0099 4889C7   		movq	%rax, %rdi
 8149 009c E8000000 		call	_ZStlsISt11char_traitsIcEERSt13basic_ostreamIcT_ES5_PKc@PLT
 8149      00
  24:/home/gani/eval/20140524/makestuff/libs/libutpp/Checks.h **** 
 8150              		.loc 5 24 0 discriminator 2
 8151 00a1 4889C2   		movq	%rax, %rdx
 8152 00a4 488B8538 		movq	-456(%rbp), %rax
 8152      FEFFFF
 8153 00ab 8B00     		movl	(%rax), %eax
 8154 00ad 89C6     		movl	%eax, %esi
 8155 00af 4889D7   		movq	%rdx, %rdi
 8156 00b2 E8000000 		call	_ZNSolsEj@PLT
 8156      00
  26:/home/gani/eval/20140524/makestuff/libs/libutpp/Checks.h ****     }
 8157              		.loc 5 26 0 is_stmt 1
 8158 00b7 488D8550 		leaq	-432(%rbp), %rax
 8158      FEFFFF
 8159 00be 4889C7   		movq	%rax, %rdi
 8160 00c1 E8000000 		call	_ZNK8UnitTest15MemoryOutStream7GetTextEv@PLT
 8160      00
 8161 00c6 4889C2   		movq	%rax, %rdx
 8162 00c9 488B8D30 		movq	-464(%rbp), %rcx
 8162      FEFFFF
 8163 00d0 488B8548 		movq	-440(%rbp), %rax
 8163      FEFFFF
 8164 00d7 4889CE   		movq	%rcx, %rsi
 8165 00da 4889C7   		movq	%rax, %rdi
 8166 00dd E8000000 		call	_ZN8UnitTest11TestResults13OnTestFailureERKNS_11TestDetailsEPKc@PLT
 8166      00
 8167              	.LEHE327:
  23:/home/gani/eval/20140524/makestuff/libs/libutpp/Checks.h ****         stream << "Expected " << expected << " but was " << actual;
 8168              		.loc 5 23 0
 8169 00e2 488D8550 		leaq	-432(%rbp), %rax
 8169      FEFFFF
 8170 00e9 4889C7   		movq	%rax, %rdi
 8171              	.LEHB328:
 8172 00ec E8000000 		call	_ZN8UnitTest15MemoryOutStreamD1Ev
 8172      00
 8173              	.LEHE328:
 8174              	.LBE40:
 8175              	.LBE39:
  28:/home/gani/eval/20140524/makestuff/libs/libutpp/Checks.h **** 
 8176              		.loc 5 28 0
 8177 00f1 EB1D     		jmp	.L485
 8178              	.L484:
 8179 00f3 4889C3   		movq	%rax, %rbx
 8180              	.LBB42:
 8181              	.LBB41:
  23:/home/gani/eval/20140524/makestuff/libs/libutpp/Checks.h ****         stream << "Expected " << expected << " but was " << actual;
 8182              		.loc 5 23 0
 8183 00f6 488D8550 		leaq	-432(%rbp), %rax
 8183      FEFFFF
 8184 00fd 4889C7   		movq	%rax, %rdi
 8185 0100 E8000000 		call	_ZN8UnitTest15MemoryOutStreamD1Ev
 8185      00
 8186 0105 4889D8   		movq	%rbx, %rax
 8187 0108 4889C7   		movq	%rax, %rdi
 8188              	.LEHB329:
 8189 010b E8000000 		call	_Unwind_Resume@PLT
 8189      00
 8190              	.LEHE329:
 8191              	.L485:
 8192              	.LBE41:
 8193              	.LBE42:
  28:/home/gani/eval/20140524/makestuff/libs/libutpp/Checks.h **** 
 8194              		.loc 5 28 0
 8195 0110 90       		nop
 8196 0111 488B45E8 		movq	-24(%rbp), %rax
 8197 0115 64483304 		xorq	%fs:40, %rax
 8197      25280000 
 8197      00
 8198 011e 7405     		je	.L483
 8199 0120 E8000000 		call	__stack_chk_fail@PLT
 8199      00
 8200              	.L483:
 8201 0125 4881C4C8 		addq	$456, %rsp
 8201      010000
 8202 012c 5B       		popq	%rbx
 8203 012d 5D       		popq	%rbp
 8204              		.cfi_def_cfa 7, 8
 8205 012e C3       		ret
 8206              		.cfi_endproc
 8207              	.LFE1259:
 8208              		.section	.gcc_except_table
 8209              	.LLSDA1259:
 8210 07c1 FF       		.byte	0xff
 8211 07c2 FF       		.byte	0xff
 8212 07c3 01       		.byte	0x1
 8213 07c4 13       		.uleb128 .LLSDACSE1259-.LLSDACSB1259
 8214              	.LLSDACSB1259:
 8215 07c5 5F       		.uleb128 .LEHB326-.LFB1259
 8216 07c6 05       		.uleb128 .LEHE326-.LEHB326
 8217 07c7 00       		.uleb128 0
 8218 07c8 00       		.uleb128 0
 8219 07c9 75       		.uleb128 .LEHB327-.LFB1259
 8220 07ca 6D       		.uleb128 .LEHE327-.LEHB327
 8221 07cb F301     		.uleb128 .L484-.LFB1259
 8222 07cd 00       		.uleb128 0
 8223 07ce EC01     		.uleb128 .LEHB328-.LFB1259
 8224 07d0 05       		.uleb128 .LEHE328-.LEHB328
 8225 07d1 00       		.uleb128 0
 8226 07d2 00       		.uleb128 0
 8227 07d3 8B02     		.uleb128 .LEHB329-.LFB1259
 8228 07d5 05       		.uleb128 .LEHE329-.LEHB329
 8229 07d6 00       		.uleb128 0
 8230 07d7 00       		.uleb128 0
 8231              	.LLSDACSE1259:
 8232              		.section	.text._ZN8UnitTest10CheckEqualImjEEvRNS_11TestResultsERKT_RKT0_RKNS_11TestDetailsE,"axG",
 8234              		.section	.text._ZN8UnitTest15CheckArrayEqualIPKcS2_EEvRNS_11TestResultsERKT_RKT0_iRKNS_11TestDetai
 8235              		.weak	_ZN8UnitTest15CheckArrayEqualIPKcS2_EEvRNS_11TestResultsERKT_RKT0_iRKNS_11TestDetailsE
 8237              	_ZN8UnitTest15CheckArrayEqualIPKcS2_EEvRNS_11TestResultsERKT_RKT0_iRKNS_11TestDetailsE:
 8238              	.LFB1262:
  59:/home/gani/eval/20140524/makestuff/libs/libutpp/Checks.h ****                 int const count, TestDetails const& details)
 8239              		.loc 5 59 0
 8240              		.cfi_startproc
 8241              		.cfi_personality 0x9b,DW.ref.__gxx_personality_v0
 8242              		.cfi_lsda 0x1b,.LLSDA1262
 8243 0000 55       		pushq	%rbp
 8244              		.cfi_def_cfa_offset 16
 8245              		.cfi_offset 6, -16
 8246 0001 4889E5   		movq	%rsp, %rbp
 8247              		.cfi_def_cfa_register 6
 8248 0004 53       		pushq	%rbx
 8249 0005 4881ECE8 		subq	$488, %rsp
 8249      010000
 8250              		.cfi_offset 3, -24
 8251 000c 4889BD38 		movq	%rdi, -456(%rbp)
 8251      FEFFFF
 8252 0013 4889B530 		movq	%rsi, -464(%rbp)
 8252      FEFFFF
 8253 001a 48899528 		movq	%rdx, -472(%rbp)
 8253      FEFFFF
 8254 0021 898D24FE 		movl	%ecx, -476(%rbp)
 8254      FFFF
 8255 0027 4C898518 		movq	%r8, -488(%rbp)
 8255      FEFFFF
  59:/home/gani/eval/20140524/makestuff/libs/libutpp/Checks.h ****                 int const count, TestDetails const& details)
 8256              		.loc 5 59 0
 8257 002e 64488B04 		movq	%fs:40, %rax
 8257      25280000 
 8257      00
 8258 0037 488945E8 		movq	%rax, -24(%rbp)
 8259 003b 31C0     		xorl	%eax, %eax
  62:/home/gani/eval/20140524/makestuff/libs/libutpp/Checks.h ****     for (int i = 0; i < count; ++i)
 8260              		.loc 5 62 0
 8261 003d C68543FE 		movb	$1, -445(%rbp)
 8261      FFFF01
 8262              	.LBB43:
  63:/home/gani/eval/20140524/makestuff/libs/libutpp/Checks.h ****         equal &= (expected[i] == actual[i]);
 8263              		.loc 5 63 0
 8264 0044 C78544FE 		movl	$0, -444(%rbp)
 8264      FFFF0000 
 8264      0000
 8265              	.L488:
  63:/home/gani/eval/20140524/makestuff/libs/libutpp/Checks.h ****         equal &= (expected[i] == actual[i]);
 8266              		.loc 5 63 0 is_stmt 0 discriminator 3
 8267 004e 8B8544FE 		movl	-444(%rbp), %eax
 8267      FFFF
 8268 0054 3B8524FE 		cmpl	-476(%rbp), %eax
 8268      FFFF
 8269 005a 7D55     		jge	.L487
  64:/home/gani/eval/20140524/makestuff/libs/libutpp/Checks.h **** 
 8270              		.loc 5 64 0 is_stmt 1 discriminator 2
 8271 005c 0FB69543 		movzbl	-445(%rbp), %edx
 8271      FEFFFF
 8272 0063 488B8530 		movq	-464(%rbp), %rax
 8272      FEFFFF
 8273 006a 488B08   		movq	(%rax), %rcx
 8274 006d 8B8544FE 		movl	-444(%rbp), %eax
 8274      FFFF
 8275 0073 4898     		cltq
 8276 0075 4801C8   		addq	%rcx, %rax
 8277 0078 0FB608   		movzbl	(%rax), %ecx
 8278 007b 488B8528 		movq	-472(%rbp), %rax
 8278      FEFFFF
 8279 0082 488B30   		movq	(%rax), %rsi
 8280 0085 8B8544FE 		movl	-444(%rbp), %eax
 8280      FFFF
 8281 008b 4898     		cltq
 8282 008d 4801F0   		addq	%rsi, %rax
 8283 0090 0FB600   		movzbl	(%rax), %eax
 8284 0093 38C1     		cmpb	%al, %cl
 8285 0095 0F94C0   		sete	%al
 8286 0098 0FB6C0   		movzbl	%al, %eax
 8287 009b 21D0     		andl	%edx, %eax
 8288 009d 85C0     		testl	%eax, %eax
 8289 009f 0F95C0   		setne	%al
 8290 00a2 888543FE 		movb	%al, -445(%rbp)
 8290      FFFF
  63:/home/gani/eval/20140524/makestuff/libs/libutpp/Checks.h ****         equal &= (expected[i] == actual[i]);
 8291              		.loc 5 63 0 discriminator 2
 8292 00a8 838544FE 		addl	$1, -444(%rbp)
 8292      FFFF01
 8293 00af EB9D     		jmp	.L488
 8294              	.L487:
 8295              	.LBE43:
 8296              	.LBB44:
  66:/home/gani/eval/20140524/makestuff/libs/libutpp/Checks.h ****     {
 8297              		.loc 5 66 0
 8298 00b1 0FB68543 		movzbl	-445(%rbp), %eax
 8298      FEFFFF
 8299 00b8 83F001   		xorl	$1, %eax
 8300 00bb 84C0     		testb	%al, %al
 8301 00bd 0F846201 		je	.L497
 8301      0000
 8302              	.LBB45:
  68:/home/gani/eval/20140524/makestuff/libs/libutpp/Checks.h **** 
 8303              		.loc 5 68 0
 8304 00c3 488D8550 		leaq	-432(%rbp), %rax
 8304      FEFFFF
 8305 00ca 4889C7   		movq	%rax, %rdi
 8306              	.LEHB330:
 8307 00cd E8000000 		call	_ZN8UnitTest15MemoryOutStreamC1Ev
 8307      00
 8308              	.LEHE330:
  70:/home/gani/eval/20140524/makestuff/libs/libutpp/Checks.h **** 
 8309              		.loc 5 70 0
 8310 00d2 488D8550 		leaq	-432(%rbp), %rax
 8310      FEFFFF
 8311 00d9 488D3500 		leaq	.LC79(%rip), %rsi
 8311      000000
 8312 00e0 4889C7   		movq	%rax, %rdi
 8313              	.LEHB331:
 8314 00e3 E8000000 		call	_ZStlsISt11char_traitsIcEERSt13basic_ostreamIcT_ES5_PKc@PLT
 8314      00
 8315              	.LBB46:
  72:/home/gani/eval/20140524/makestuff/libs/libutpp/Checks.h ****             stream << expected[expectedIndex] << " ";
 8316              		.loc 5 72 0
 8317 00e8 C78548FE 		movl	$0, -440(%rbp)
 8317      FFFF0000 
 8317      0000
 8318              	.L491:
  72:/home/gani/eval/20140524/makestuff/libs/libutpp/Checks.h ****             stream << expected[expectedIndex] << " ";
 8319              		.loc 5 72 0 is_stmt 0 discriminator 1
 8320 00f2 8B8548FE 		movl	-440(%rbp), %eax
 8320      FFFF
 8321 00f8 3B8524FE 		cmpl	-476(%rbp), %eax
 8321      FFFF
 8322 00fe 7D44     		jge	.L490
  73:/home/gani/eval/20140524/makestuff/libs/libutpp/Checks.h **** 
 8323              		.loc 5 73 0 is_stmt 1
 8324 0100 488B8530 		movq	-464(%rbp), %rax
 8324      FEFFFF
 8325 0107 488B10   		movq	(%rax), %rdx
 8326 010a 8B8548FE 		movl	-440(%rbp), %eax
 8326      FFFF
 8327 0110 4898     		cltq
 8328 0112 4801D0   		addq	%rdx, %rax
 8329 0115 0FB600   		movzbl	(%rax), %eax
 8330 0118 0FBED0   		movsbl	%al, %edx
 8331 011b 488D8550 		leaq	-432(%rbp), %rax
 8331      FEFFFF
 8332 0122 89D6     		movl	%edx, %esi
 8333 0124 4889C7   		movq	%rax, %rdi
 8334 0127 E8000000 		call	_ZStlsISt11char_traitsIcEERSt13basic_ostreamIcT_ES5_c@PLT
 8334      00
 8335 012c 488D3500 		leaq	.LC80(%rip), %rsi
 8335      000000
 8336 0133 4889C7   		movq	%rax, %rdi
 8337 0136 E8000000 		call	_ZStlsISt11char_traitsIcEERSt13basic_ostreamIcT_ES5_PKc@PLT
 8337      00
  72:/home/gani/eval/20140524/makestuff/libs/libutpp/Checks.h ****             stream << expected[expectedIndex] << " ";
 8338              		.loc 5 72 0 discriminator 2
 8339 013b 838548FE 		addl	$1, -440(%rbp)
 8339      FFFF01
 8340 0142 EBAE     		jmp	.L491
 8341              	.L490:
 8342              	.LBE46:
  75:/home/gani/eval/20140524/makestuff/libs/libutpp/Checks.h **** 
 8343              		.loc 5 75 0
 8344 0144 488D8550 		leaq	-432(%rbp), %rax
 8344      FEFFFF
 8345 014b 488D3500 		leaq	.LC81(%rip), %rsi
 8345      000000
 8346 0152 4889C7   		movq	%rax, %rdi
 8347 0155 E8000000 		call	_ZStlsISt11char_traitsIcEERSt13basic_ostreamIcT_ES5_PKc@PLT
 8347      00
 8348              	.LBB47:
  77:/home/gani/eval/20140524/makestuff/libs/libutpp/Checks.h ****             stream << actual[actualIndex] << " ";
 8349              		.loc 5 77 0
 8350 015a C7854CFE 		movl	$0, -436(%rbp)
 8350      FFFF0000 
 8350      0000
 8351              	.L493:
  77:/home/gani/eval/20140524/makestuff/libs/libutpp/Checks.h ****             stream << actual[actualIndex] << " ";
 8352              		.loc 5 77 0 is_stmt 0 discriminator 1
 8353 0164 8B854CFE 		movl	-436(%rbp), %eax
 8353      FFFF
 8354 016a 3B8524FE 		cmpl	-476(%rbp), %eax
 8354      FFFF
 8355 0170 7D44     		jge	.L492
  78:/home/gani/eval/20140524/makestuff/libs/libutpp/Checks.h **** 
 8356              		.loc 5 78 0 is_stmt 1
 8357 0172 488B8528 		movq	-472(%rbp), %rax
 8357      FEFFFF
 8358 0179 488B10   		movq	(%rax), %rdx
 8359 017c 8B854CFE 		movl	-436(%rbp), %eax
 8359      FFFF
 8360 0182 4898     		cltq
 8361 0184 4801D0   		addq	%rdx, %rax
 8362 0187 0FB600   		movzbl	(%rax), %eax
 8363 018a 0FBED0   		movsbl	%al, %edx
 8364 018d 488D8550 		leaq	-432(%rbp), %rax
 8364      FEFFFF
 8365 0194 89D6     		movl	%edx, %esi
 8366 0196 4889C7   		movq	%rax, %rdi
 8367 0199 E8000000 		call	_ZStlsISt11char_traitsIcEERSt13basic_ostreamIcT_ES5_c@PLT
 8367      00
 8368 019e 488D3500 		leaq	.LC80(%rip), %rsi
 8368      000000
 8369 01a5 4889C7   		movq	%rax, %rdi
 8370 01a8 E8000000 		call	_ZStlsISt11char_traitsIcEERSt13basic_ostreamIcT_ES5_PKc@PLT
 8370      00
  77:/home/gani/eval/20140524/makestuff/libs/libutpp/Checks.h ****             stream << actual[actualIndex] << " ";
 8371              		.loc 5 77 0 discriminator 2
 8372 01ad 83854CFE 		addl	$1, -436(%rbp)
 8372      FFFF01
 8373 01b4 EBAE     		jmp	.L493
 8374              	.L492:
 8375              	.LBE47:
  80:/home/gani/eval/20140524/makestuff/libs/libutpp/Checks.h **** 
 8376              		.loc 5 80 0
 8377 01b6 488D8550 		leaq	-432(%rbp), %rax
 8377      FEFFFF
 8378 01bd 488D3500 		leaq	.LC82(%rip), %rsi
 8378      000000
 8379 01c4 4889C7   		movq	%rax, %rdi
 8380 01c7 E8000000 		call	_ZStlsISt11char_traitsIcEERSt13basic_ostreamIcT_ES5_PKc@PLT
 8380      00
  82:/home/gani/eval/20140524/makestuff/libs/libutpp/Checks.h ****     }
 8381              		.loc 5 82 0
 8382 01cc 488D8550 		leaq	-432(%rbp), %rax
 8382      FEFFFF
 8383 01d3 4889C7   		movq	%rax, %rdi
 8384 01d6 E8000000 		call	_ZNK8UnitTest15MemoryOutStream7GetTextEv@PLT
 8384      00
 8385 01db 4889C2   		movq	%rax, %rdx
 8386 01de 488B8D18 		movq	-488(%rbp), %rcx
 8386      FEFFFF
 8387 01e5 488B8538 		movq	-456(%rbp), %rax
 8387      FEFFFF
 8388 01ec 4889CE   		movq	%rcx, %rsi
 8389 01ef 4889C7   		movq	%rax, %rdi
 8390 01f2 E8000000 		call	_ZN8UnitTest11TestResults13OnTestFailureERKNS_11TestDetailsEPKc@PLT
 8390      00
 8391              	.LEHE331:
  68:/home/gani/eval/20140524/makestuff/libs/libutpp/Checks.h **** 
 8392              		.loc 5 68 0
 8393 01f7 488D8550 		leaq	-432(%rbp), %rax
 8393      FEFFFF
 8394 01fe 4889C7   		movq	%rax, %rdi
 8395              	.LEHB332:
 8396 0201 E8000000 		call	_ZN8UnitTest15MemoryOutStreamD1Ev
 8396      00
 8397              	.LEHE332:
 8398              	.LBE45:
 8399              	.LBE44:
 8400              		.loc 5 84 0
 8401 0206 EB1D     		jmp	.L497
 8402              	.L496:
 8403 0208 4889C3   		movq	%rax, %rbx
 8404              	.LBB49:
 8405              	.LBB48:
  68:/home/gani/eval/20140524/makestuff/libs/libutpp/Checks.h **** 
 8406              		.loc 5 68 0
 8407 020b 488D8550 		leaq	-432(%rbp), %rax
 8407      FEFFFF
 8408 0212 4889C7   		movq	%rax, %rdi
 8409 0215 E8000000 		call	_ZN8UnitTest15MemoryOutStreamD1Ev
 8409      00
 8410 021a 4889D8   		movq	%rbx, %rax
 8411 021d 4889C7   		movq	%rax, %rdi
 8412              	.LEHB333:
 8413 0220 E8000000 		call	_Unwind_Resume@PLT
 8413      00
 8414              	.LEHE333:
 8415              	.L497:
 8416              	.LBE48:
 8417              	.LBE49:
 8418              		.loc 5 84 0
 8419 0225 90       		nop
 8420 0226 488B45E8 		movq	-24(%rbp), %rax
 8421 022a 64483304 		xorq	%fs:40, %rax
 8421      25280000 
 8421      00
 8422 0233 7405     		je	.L495
 8423 0235 E8000000 		call	__stack_chk_fail@PLT
 8423      00
 8424              	.L495:
 8425 023a 4881C4E8 		addq	$488, %rsp
 8425      010000
 8426 0241 5B       		popq	%rbx
 8427 0242 5D       		popq	%rbp
 8428              		.cfi_def_cfa 7, 8
 8429 0243 C3       		ret
 8430              		.cfi_endproc
 8431              	.LFE1262:
 8432              		.section	.gcc_except_table
 8433              	.LLSDA1262:
 8434 07d8 FF       		.byte	0xff
 8435 07d9 FF       		.byte	0xff
 8436 07da 01       		.byte	0x1
 8437 07db 16       		.uleb128 .LLSDACSE1262-.LLSDACSB1262
 8438              	.LLSDACSB1262:
 8439 07dc CD01     		.uleb128 .LEHB330-.LFB1262
 8440 07de 05       		.uleb128 .LEHE330-.LEHB330
 8441 07df 00       		.uleb128 0
 8442 07e0 00       		.uleb128 0
 8443 07e1 E301     		.uleb128 .LEHB331-.LFB1262
 8444 07e3 9402     		.uleb128 .LEHE331-.LEHB331
 8445 07e5 8804     		.uleb128 .L496-.LFB1262
 8446 07e7 00       		.uleb128 0
 8447 07e8 8104     		.uleb128 .LEHB332-.LFB1262
 8448 07ea 05       		.uleb128 .LEHE332-.LEHB332
 8449 07eb 00       		.uleb128 0
 8450 07ec 00       		.uleb128 0
 8451 07ed A004     		.uleb128 .LEHB333-.LFB1262
 8452 07ef 05       		.uleb128 .LEHE333-.LEHB333
 8453 07f0 00       		.uleb128 0
 8454 07f1 00       		.uleb128 0
 8455              	.LLSDACSE1262:
 8456              		.section	.text._ZN8UnitTest15CheckArrayEqualIPKcS2_EEvRNS_11TestResultsERKT_RKT0_iRKNS_11TestDetai
 8458              		.section	.text._ZN8UnitTest15CheckArrayEqualIPhS1_EEvRNS_11TestResultsERKT_RKT0_iRKNS_11TestDetail
 8459              		.weak	_ZN8UnitTest15CheckArrayEqualIPhS1_EEvRNS_11TestResultsERKT_RKT0_iRKNS_11TestDetailsE
 8461              	_ZN8UnitTest15CheckArrayEqualIPhS1_EEvRNS_11TestResultsERKT_RKT0_iRKNS_11TestDetailsE:
 8462              	.LFB1263:
  59:/home/gani/eval/20140524/makestuff/libs/libutpp/Checks.h ****                 int const count, TestDetails const& details)
 8463              		.loc 5 59 0
 8464              		.cfi_startproc
 8465              		.cfi_personality 0x9b,DW.ref.__gxx_personality_v0
 8466              		.cfi_lsda 0x1b,.LLSDA1263
 8467 0000 55       		pushq	%rbp
 8468              		.cfi_def_cfa_offset 16
 8469              		.cfi_offset 6, -16
 8470 0001 4889E5   		movq	%rsp, %rbp
 8471              		.cfi_def_cfa_register 6
 8472 0004 53       		pushq	%rbx
 8473 0005 4881ECE8 		subq	$488, %rsp
 8473      010000
 8474              		.cfi_offset 3, -24
 8475 000c 4889BD38 		movq	%rdi, -456(%rbp)
 8475      FEFFFF
 8476 0013 4889B530 		movq	%rsi, -464(%rbp)
 8476      FEFFFF
 8477 001a 48899528 		movq	%rdx, -472(%rbp)
 8477      FEFFFF
 8478 0021 898D24FE 		movl	%ecx, -476(%rbp)
 8478      FFFF
 8479 0027 4C898518 		movq	%r8, -488(%rbp)
 8479      FEFFFF
  59:/home/gani/eval/20140524/makestuff/libs/libutpp/Checks.h ****                 int const count, TestDetails const& details)
 8480              		.loc 5 59 0
 8481 002e 64488B04 		movq	%fs:40, %rax
 8481      25280000 
 8481      00
 8482 0037 488945E8 		movq	%rax, -24(%rbp)
 8483 003b 31C0     		xorl	%eax, %eax
  62:/home/gani/eval/20140524/makestuff/libs/libutpp/Checks.h ****     for (int i = 0; i < count; ++i)
 8484              		.loc 5 62 0
 8485 003d C68543FE 		movb	$1, -445(%rbp)
 8485      FFFF01
 8486              	.LBB50:
  63:/home/gani/eval/20140524/makestuff/libs/libutpp/Checks.h ****         equal &= (expected[i] == actual[i]);
 8487              		.loc 5 63 0
 8488 0044 C78544FE 		movl	$0, -444(%rbp)
 8488      FFFF0000 
 8488      0000
 8489              	.L500:
  63:/home/gani/eval/20140524/makestuff/libs/libutpp/Checks.h ****         equal &= (expected[i] == actual[i]);
 8490              		.loc 5 63 0 is_stmt 0 discriminator 3
 8491 004e 8B8544FE 		movl	-444(%rbp), %eax
 8491      FFFF
 8492 0054 3B8524FE 		cmpl	-476(%rbp), %eax
 8492      FFFF
 8493 005a 7D55     		jge	.L499
  64:/home/gani/eval/20140524/makestuff/libs/libutpp/Checks.h **** 
 8494              		.loc 5 64 0 is_stmt 1 discriminator 2
 8495 005c 0FB69543 		movzbl	-445(%rbp), %edx
 8495      FEFFFF
 8496 0063 488B8530 		movq	-464(%rbp), %rax
 8496      FEFFFF
 8497 006a 488B08   		movq	(%rax), %rcx
 8498 006d 8B8544FE 		movl	-444(%rbp), %eax
 8498      FFFF
 8499 0073 4898     		cltq
 8500 0075 4801C8   		addq	%rcx, %rax
 8501 0078 0FB608   		movzbl	(%rax), %ecx
 8502 007b 488B8528 		movq	-472(%rbp), %rax
 8502      FEFFFF
 8503 0082 488B30   		movq	(%rax), %rsi
 8504 0085 8B8544FE 		movl	-444(%rbp), %eax
 8504      FFFF
 8505 008b 4898     		cltq
 8506 008d 4801F0   		addq	%rsi, %rax
 8507 0090 0FB600   		movzbl	(%rax), %eax
 8508 0093 38C1     		cmpb	%al, %cl
 8509 0095 0F94C0   		sete	%al
 8510 0098 0FB6C0   		movzbl	%al, %eax
 8511 009b 21D0     		andl	%edx, %eax
 8512 009d 85C0     		testl	%eax, %eax
 8513 009f 0F95C0   		setne	%al
 8514 00a2 888543FE 		movb	%al, -445(%rbp)
 8514      FFFF
  63:/home/gani/eval/20140524/makestuff/libs/libutpp/Checks.h ****         equal &= (expected[i] == actual[i]);
 8515              		.loc 5 63 0 discriminator 2
 8516 00a8 838544FE 		addl	$1, -444(%rbp)
 8516      FFFF01
 8517 00af EB9D     		jmp	.L500
 8518              	.L499:
 8519              	.LBE50:
 8520              	.LBB51:
  66:/home/gani/eval/20140524/makestuff/libs/libutpp/Checks.h ****     {
 8521              		.loc 5 66 0
 8522 00b1 0FB68543 		movzbl	-445(%rbp), %eax
 8522      FEFFFF
 8523 00b8 83F001   		xorl	$1, %eax
 8524 00bb 84C0     		testb	%al, %al
 8525 00bd 0F846201 		je	.L509
 8525      0000
 8526              	.LBB52:
  68:/home/gani/eval/20140524/makestuff/libs/libutpp/Checks.h **** 
 8527              		.loc 5 68 0
 8528 00c3 488D8550 		leaq	-432(%rbp), %rax
 8528      FEFFFF
 8529 00ca 4889C7   		movq	%rax, %rdi
 8530              	.LEHB334:
 8531 00cd E8000000 		call	_ZN8UnitTest15MemoryOutStreamC1Ev
 8531      00
 8532              	.LEHE334:
  70:/home/gani/eval/20140524/makestuff/libs/libutpp/Checks.h **** 
 8533              		.loc 5 70 0
 8534 00d2 488D8550 		leaq	-432(%rbp), %rax
 8534      FEFFFF
 8535 00d9 488D3500 		leaq	.LC79(%rip), %rsi
 8535      000000
 8536 00e0 4889C7   		movq	%rax, %rdi
 8537              	.LEHB335:
 8538 00e3 E8000000 		call	_ZStlsISt11char_traitsIcEERSt13basic_ostreamIcT_ES5_PKc@PLT
 8538      00
 8539              	.LBB53:
  72:/home/gani/eval/20140524/makestuff/libs/libutpp/Checks.h ****             stream << expected[expectedIndex] << " ";
 8540              		.loc 5 72 0
 8541 00e8 C78548FE 		movl	$0, -440(%rbp)
 8541      FFFF0000 
 8541      0000
 8542              	.L503:
  72:/home/gani/eval/20140524/makestuff/libs/libutpp/Checks.h ****             stream << expected[expectedIndex] << " ";
 8543              		.loc 5 72 0 is_stmt 0 discriminator 1
 8544 00f2 8B8548FE 		movl	-440(%rbp), %eax
 8544      FFFF
 8545 00f8 3B8524FE 		cmpl	-476(%rbp), %eax
 8545      FFFF
 8546 00fe 7D44     		jge	.L502
  73:/home/gani/eval/20140524/makestuff/libs/libutpp/Checks.h **** 
 8547              		.loc 5 73 0 is_stmt 1
 8548 0100 488B8530 		movq	-464(%rbp), %rax
 8548      FEFFFF
 8549 0107 488B10   		movq	(%rax), %rdx
 8550 010a 8B8548FE 		movl	-440(%rbp), %eax
 8550      FFFF
 8551 0110 4898     		cltq
 8552 0112 4801D0   		addq	%rdx, %rax
 8553 0115 0FB600   		movzbl	(%rax), %eax
 8554 0118 0FB6D0   		movzbl	%al, %edx
 8555 011b 488D8550 		leaq	-432(%rbp), %rax
 8555      FEFFFF
 8556 0122 89D6     		movl	%edx, %esi
 8557 0124 4889C7   		movq	%rax, %rdi
 8558 0127 E8000000 		call	_ZStlsISt11char_traitsIcEERSt13basic_ostreamIcT_ES5_h@PLT
 8558      00
 8559 012c 488D3500 		leaq	.LC80(%rip), %rsi
 8559      000000
 8560 0133 4889C7   		movq	%rax, %rdi
 8561 0136 E8000000 		call	_ZStlsISt11char_traitsIcEERSt13basic_ostreamIcT_ES5_PKc@PLT
 8561      00
  72:/home/gani/eval/20140524/makestuff/libs/libutpp/Checks.h ****             stream << expected[expectedIndex] << " ";
 8562              		.loc 5 72 0 discriminator 2
 8563 013b 838548FE 		addl	$1, -440(%rbp)
 8563      FFFF01
 8564 0142 EBAE     		jmp	.L503
 8565              	.L502:
 8566              	.LBE53:
  75:/home/gani/eval/20140524/makestuff/libs/libutpp/Checks.h **** 
 8567              		.loc 5 75 0
 8568 0144 488D8550 		leaq	-432(%rbp), %rax
 8568      FEFFFF
 8569 014b 488D3500 		leaq	.LC81(%rip), %rsi
 8569      000000
 8570 0152 4889C7   		movq	%rax, %rdi
 8571 0155 E8000000 		call	_ZStlsISt11char_traitsIcEERSt13basic_ostreamIcT_ES5_PKc@PLT
 8571      00
 8572              	.LBB54:
  77:/home/gani/eval/20140524/makestuff/libs/libutpp/Checks.h ****             stream << actual[actualIndex] << " ";
 8573              		.loc 5 77 0
 8574 015a C7854CFE 		movl	$0, -436(%rbp)
 8574      FFFF0000 
 8574      0000
 8575              	.L505:
  77:/home/gani/eval/20140524/makestuff/libs/libutpp/Checks.h ****             stream << actual[actualIndex] << " ";
 8576              		.loc 5 77 0 is_stmt 0 discriminator 1
 8577 0164 8B854CFE 		movl	-436(%rbp), %eax
 8577      FFFF
 8578 016a 3B8524FE 		cmpl	-476(%rbp), %eax
 8578      FFFF
 8579 0170 7D44     		jge	.L504
  78:/home/gani/eval/20140524/makestuff/libs/libutpp/Checks.h **** 
 8580              		.loc 5 78 0 is_stmt 1
 8581 0172 488B8528 		movq	-472(%rbp), %rax
 8581      FEFFFF
 8582 0179 488B10   		movq	(%rax), %rdx
 8583 017c 8B854CFE 		movl	-436(%rbp), %eax
 8583      FFFF
 8584 0182 4898     		cltq
 8585 0184 4801D0   		addq	%rdx, %rax
 8586 0187 0FB600   		movzbl	(%rax), %eax
 8587 018a 0FB6D0   		movzbl	%al, %edx
 8588 018d 488D8550 		leaq	-432(%rbp), %rax
 8588      FEFFFF
 8589 0194 89D6     		movl	%edx, %esi
 8590 0196 4889C7   		movq	%rax, %rdi
 8591 0199 E8000000 		call	_ZStlsISt11char_traitsIcEERSt13basic_ostreamIcT_ES5_h@PLT
 8591      00
 8592 019e 488D3500 		leaq	.LC80(%rip), %rsi
 8592      000000
 8593 01a5 4889C7   		movq	%rax, %rdi
 8594 01a8 E8000000 		call	_ZStlsISt11char_traitsIcEERSt13basic_ostreamIcT_ES5_PKc@PLT
 8594      00
  77:/home/gani/eval/20140524/makestuff/libs/libutpp/Checks.h ****             stream << actual[actualIndex] << " ";
 8595              		.loc 5 77 0 discriminator 2
 8596 01ad 83854CFE 		addl	$1, -436(%rbp)
 8596      FFFF01
 8597 01b4 EBAE     		jmp	.L505
 8598              	.L504:
 8599              	.LBE54:
  80:/home/gani/eval/20140524/makestuff/libs/libutpp/Checks.h **** 
 8600              		.loc 5 80 0
 8601 01b6 488D8550 		leaq	-432(%rbp), %rax
 8601      FEFFFF
 8602 01bd 488D3500 		leaq	.LC82(%rip), %rsi
 8602      000000
 8603 01c4 4889C7   		movq	%rax, %rdi
 8604 01c7 E8000000 		call	_ZStlsISt11char_traitsIcEERSt13basic_ostreamIcT_ES5_PKc@PLT
 8604      00
  82:/home/gani/eval/20140524/makestuff/libs/libutpp/Checks.h ****     }
 8605              		.loc 5 82 0
 8606 01cc 488D8550 		leaq	-432(%rbp), %rax
 8606      FEFFFF
 8607 01d3 4889C7   		movq	%rax, %rdi
 8608 01d6 E8000000 		call	_ZNK8UnitTest15MemoryOutStream7GetTextEv@PLT
 8608      00
 8609 01db 4889C2   		movq	%rax, %rdx
 8610 01de 488B8D18 		movq	-488(%rbp), %rcx
 8610      FEFFFF
 8611 01e5 488B8538 		movq	-456(%rbp), %rax
 8611      FEFFFF
 8612 01ec 4889CE   		movq	%rcx, %rsi
 8613 01ef 4889C7   		movq	%rax, %rdi
 8614 01f2 E8000000 		call	_ZN8UnitTest11TestResults13OnTestFailureERKNS_11TestDetailsEPKc@PLT
 8614      00
 8615              	.LEHE335:
  68:/home/gani/eval/20140524/makestuff/libs/libutpp/Checks.h **** 
 8616              		.loc 5 68 0
 8617 01f7 488D8550 		leaq	-432(%rbp), %rax
 8617      FEFFFF
 8618 01fe 4889C7   		movq	%rax, %rdi
 8619              	.LEHB336:
 8620 0201 E8000000 		call	_ZN8UnitTest15MemoryOutStreamD1Ev
 8620      00
 8621              	.LEHE336:
 8622              	.LBE52:
 8623              	.LBE51:
 8624              		.loc 5 84 0
 8625 0206 EB1D     		jmp	.L509
 8626              	.L508:
 8627 0208 4889C3   		movq	%rax, %rbx
 8628              	.LBB56:
 8629              	.LBB55:
  68:/home/gani/eval/20140524/makestuff/libs/libutpp/Checks.h **** 
 8630              		.loc 5 68 0
 8631 020b 488D8550 		leaq	-432(%rbp), %rax
 8631      FEFFFF
 8632 0212 4889C7   		movq	%rax, %rdi
 8633 0215 E8000000 		call	_ZN8UnitTest15MemoryOutStreamD1Ev
 8633      00
 8634 021a 4889D8   		movq	%rbx, %rax
 8635 021d 4889C7   		movq	%rax, %rdi
 8636              	.LEHB337:
 8637 0220 E8000000 		call	_Unwind_Resume@PLT
 8637      00
 8638              	.LEHE337:
 8639              	.L509:
 8640              	.LBE55:
 8641              	.LBE56:
 8642              		.loc 5 84 0
 8643 0225 90       		nop
 8644 0226 488B45E8 		movq	-24(%rbp), %rax
 8645 022a 64483304 		xorq	%fs:40, %rax
 8645      25280000 
 8645      00
 8646 0233 7405     		je	.L507
 8647 0235 E8000000 		call	__stack_chk_fail@PLT
 8647      00
 8648              	.L507:
 8649 023a 4881C4E8 		addq	$488, %rsp
 8649      010000
 8650 0241 5B       		popq	%rbx
 8651 0242 5D       		popq	%rbp
 8652              		.cfi_def_cfa 7, 8
 8653 0243 C3       		ret
 8654              		.cfi_endproc
 8655              	.LFE1263:
 8656              		.section	.gcc_except_table
 8657              	.LLSDA1263:
 8658 07f2 FF       		.byte	0xff
 8659 07f3 FF       		.byte	0xff
 8660 07f4 01       		.byte	0x1
 8661 07f5 16       		.uleb128 .LLSDACSE1263-.LLSDACSB1263
 8662              	.LLSDACSB1263:
 8663 07f6 CD01     		.uleb128 .LEHB334-.LFB1263
 8664 07f8 05       		.uleb128 .LEHE334-.LEHB334
 8665 07f9 00       		.uleb128 0
 8666 07fa 00       		.uleb128 0
 8667 07fb E301     		.uleb128 .LEHB335-.LFB1263
 8668 07fd 9402     		.uleb128 .LEHE335-.LEHB335
 8669 07ff 8804     		.uleb128 .L508-.LFB1263
 8670 0801 00       		.uleb128 0
 8671 0802 8104     		.uleb128 .LEHB336-.LFB1263
 8672 0804 05       		.uleb128 .LEHE336-.LEHB336
 8673 0805 00       		.uleb128 0
 8674 0806 00       		.uleb128 0
 8675 0807 A004     		.uleb128 .LEHB337-.LFB1263
 8676 0809 05       		.uleb128 .LEHE337-.LEHB337
 8677 080a 00       		.uleb128 0
 8678 080b 00       		.uleb128 0
 8679              	.LLSDACSE1263:
 8680              		.section	.text._ZN8UnitTest15CheckArrayEqualIPhS1_EEvRNS_11TestResultsERKT_RKT0_iRKNS_11TestDetail
 8682              		.section	.text._ZN8UnitTest15CheckArrayEqualIPKcPhEEvRNS_11TestResultsERKT_RKT0_iRKNS_11TestDetail
 8683              		.weak	_ZN8UnitTest15CheckArrayEqualIPKcPhEEvRNS_11TestResultsERKT_RKT0_iRKNS_11TestDetailsE
 8685              	_ZN8UnitTest15CheckArrayEqualIPKcPhEEvRNS_11TestResultsERKT_RKT0_iRKNS_11TestDetailsE:
 8686              	.LFB1264:
  59:/home/gani/eval/20140524/makestuff/libs/libutpp/Checks.h ****                 int const count, TestDetails const& details)
 8687              		.loc 5 59 0
 8688              		.cfi_startproc
 8689              		.cfi_personality 0x9b,DW.ref.__gxx_personality_v0
 8690              		.cfi_lsda 0x1b,.LLSDA1264
 8691 0000 55       		pushq	%rbp
 8692              		.cfi_def_cfa_offset 16
 8693              		.cfi_offset 6, -16
 8694 0001 4889E5   		movq	%rsp, %rbp
 8695              		.cfi_def_cfa_register 6
 8696 0004 53       		pushq	%rbx
 8697 0005 4881ECE8 		subq	$488, %rsp
 8697      010000
 8698              		.cfi_offset 3, -24
 8699 000c 4889BD38 		movq	%rdi, -456(%rbp)
 8699      FEFFFF
 8700 0013 4889B530 		movq	%rsi, -464(%rbp)
 8700      FEFFFF
 8701 001a 48899528 		movq	%rdx, -472(%rbp)
 8701      FEFFFF
 8702 0021 898D24FE 		movl	%ecx, -476(%rbp)
 8702      FFFF
 8703 0027 4C898518 		movq	%r8, -488(%rbp)
 8703      FEFFFF
  59:/home/gani/eval/20140524/makestuff/libs/libutpp/Checks.h ****                 int const count, TestDetails const& details)
 8704              		.loc 5 59 0
 8705 002e 64488B04 		movq	%fs:40, %rax
 8705      25280000 
 8705      00
 8706 0037 488945E8 		movq	%rax, -24(%rbp)
 8707 003b 31C0     		xorl	%eax, %eax
  62:/home/gani/eval/20140524/makestuff/libs/libutpp/Checks.h ****     for (int i = 0; i < count; ++i)
 8708              		.loc 5 62 0
 8709 003d C68543FE 		movb	$1, -445(%rbp)
 8709      FFFF01
 8710              	.LBB57:
  63:/home/gani/eval/20140524/makestuff/libs/libutpp/Checks.h ****         equal &= (expected[i] == actual[i]);
 8711              		.loc 5 63 0
 8712 0044 C78544FE 		movl	$0, -444(%rbp)
 8712      FFFF0000 
 8712      0000
 8713              	.L512:
  63:/home/gani/eval/20140524/makestuff/libs/libutpp/Checks.h ****         equal &= (expected[i] == actual[i]);
 8714              		.loc 5 63 0 is_stmt 0 discriminator 3
 8715 004e 8B8544FE 		movl	-444(%rbp), %eax
 8715      FFFF
 8716 0054 3B8524FE 		cmpl	-476(%rbp), %eax
 8716      FFFF
 8717 005a 7D5B     		jge	.L511
  64:/home/gani/eval/20140524/makestuff/libs/libutpp/Checks.h **** 
 8718              		.loc 5 64 0 is_stmt 1 discriminator 2
 8719 005c 0FB69543 		movzbl	-445(%rbp), %edx
 8719      FEFFFF
 8720 0063 488B8530 		movq	-464(%rbp), %rax
 8720      FEFFFF
 8721 006a 488B08   		movq	(%rax), %rcx
 8722 006d 8B8544FE 		movl	-444(%rbp), %eax
 8722      FFFF
 8723 0073 4898     		cltq
 8724 0075 4801C8   		addq	%rcx, %rax
 8725 0078 0FB600   		movzbl	(%rax), %eax
 8726 007b 0FBEC8   		movsbl	%al, %ecx
 8727 007e 488B8528 		movq	-472(%rbp), %rax
 8727      FEFFFF
 8728 0085 488B30   		movq	(%rax), %rsi
 8729 0088 8B8544FE 		movl	-444(%rbp), %eax
 8729      FFFF
 8730 008e 4898     		cltq
 8731 0090 4801F0   		addq	%rsi, %rax
 8732 0093 0FB600   		movzbl	(%rax), %eax
 8733 0096 0FB6C0   		movzbl	%al, %eax
 8734 0099 39C1     		cmpl	%eax, %ecx
 8735 009b 0F94C0   		sete	%al
 8736 009e 0FB6C0   		movzbl	%al, %eax
 8737 00a1 21D0     		andl	%edx, %eax
 8738 00a3 85C0     		testl	%eax, %eax
 8739 00a5 0F95C0   		setne	%al
 8740 00a8 888543FE 		movb	%al, -445(%rbp)
 8740      FFFF
  63:/home/gani/eval/20140524/makestuff/libs/libutpp/Checks.h ****         equal &= (expected[i] == actual[i]);
 8741              		.loc 5 63 0 discriminator 2
 8742 00ae 838544FE 		addl	$1, -444(%rbp)
 8742      FFFF01
 8743 00b5 EB97     		jmp	.L512
 8744              	.L511:
 8745              	.LBE57:
 8746              	.LBB58:
  66:/home/gani/eval/20140524/makestuff/libs/libutpp/Checks.h ****     {
 8747              		.loc 5 66 0
 8748 00b7 0FB68543 		movzbl	-445(%rbp), %eax
 8748      FEFFFF
 8749 00be 83F001   		xorl	$1, %eax
 8750 00c1 84C0     		testb	%al, %al
 8751 00c3 0F846201 		je	.L521
 8751      0000
 8752              	.LBB59:
  68:/home/gani/eval/20140524/makestuff/libs/libutpp/Checks.h **** 
 8753              		.loc 5 68 0
 8754 00c9 488D8550 		leaq	-432(%rbp), %rax
 8754      FEFFFF
 8755 00d0 4889C7   		movq	%rax, %rdi
 8756              	.LEHB338:
 8757 00d3 E8000000 		call	_ZN8UnitTest15MemoryOutStreamC1Ev
 8757      00
 8758              	.LEHE338:
  70:/home/gani/eval/20140524/makestuff/libs/libutpp/Checks.h **** 
 8759              		.loc 5 70 0
 8760 00d8 488D8550 		leaq	-432(%rbp), %rax
 8760      FEFFFF
 8761 00df 488D3500 		leaq	.LC79(%rip), %rsi
 8761      000000
 8762 00e6 4889C7   		movq	%rax, %rdi
 8763              	.LEHB339:
 8764 00e9 E8000000 		call	_ZStlsISt11char_traitsIcEERSt13basic_ostreamIcT_ES5_PKc@PLT
 8764      00
 8765              	.LBB60:
  72:/home/gani/eval/20140524/makestuff/libs/libutpp/Checks.h ****             stream << expected[expectedIndex] << " ";
 8766              		.loc 5 72 0
 8767 00ee C78548FE 		movl	$0, -440(%rbp)
 8767      FFFF0000 
 8767      0000
 8768              	.L515:
  72:/home/gani/eval/20140524/makestuff/libs/libutpp/Checks.h ****             stream << expected[expectedIndex] << " ";
 8769              		.loc 5 72 0 is_stmt 0 discriminator 1
 8770 00f8 8B8548FE 		movl	-440(%rbp), %eax
 8770      FFFF
 8771 00fe 3B8524FE 		cmpl	-476(%rbp), %eax
 8771      FFFF
 8772 0104 7D44     		jge	.L514
  73:/home/gani/eval/20140524/makestuff/libs/libutpp/Checks.h **** 
 8773              		.loc 5 73 0 is_stmt 1
 8774 0106 488B8530 		movq	-464(%rbp), %rax
 8774      FEFFFF
 8775 010d 488B10   		movq	(%rax), %rdx
 8776 0110 8B8548FE 		movl	-440(%rbp), %eax
 8776      FFFF
 8777 0116 4898     		cltq
 8778 0118 4801D0   		addq	%rdx, %rax
 8779 011b 0FB600   		movzbl	(%rax), %eax
 8780 011e 0FBED0   		movsbl	%al, %edx
 8781 0121 488D8550 		leaq	-432(%rbp), %rax
 8781      FEFFFF
 8782 0128 89D6     		movl	%edx, %esi
 8783 012a 4889C7   		movq	%rax, %rdi
 8784 012d E8000000 		call	_ZStlsISt11char_traitsIcEERSt13basic_ostreamIcT_ES5_c@PLT
 8784      00
 8785 0132 488D3500 		leaq	.LC80(%rip), %rsi
 8785      000000
 8786 0139 4889C7   		movq	%rax, %rdi
 8787 013c E8000000 		call	_ZStlsISt11char_traitsIcEERSt13basic_ostreamIcT_ES5_PKc@PLT
 8787      00
  72:/home/gani/eval/20140524/makestuff/libs/libutpp/Checks.h ****             stream << expected[expectedIndex] << " ";
 8788              		.loc 5 72 0 discriminator 2
 8789 0141 838548FE 		addl	$1, -440(%rbp)
 8789      FFFF01
 8790 0148 EBAE     		jmp	.L515
 8791              	.L514:
 8792              	.LBE60:
  75:/home/gani/eval/20140524/makestuff/libs/libutpp/Checks.h **** 
 8793              		.loc 5 75 0
 8794 014a 488D8550 		leaq	-432(%rbp), %rax
 8794      FEFFFF
 8795 0151 488D3500 		leaq	.LC81(%rip), %rsi
 8795      000000
 8796 0158 4889C7   		movq	%rax, %rdi
 8797 015b E8000000 		call	_ZStlsISt11char_traitsIcEERSt13basic_ostreamIcT_ES5_PKc@PLT
 8797      00
 8798              	.LBB61:
  77:/home/gani/eval/20140524/makestuff/libs/libutpp/Checks.h ****             stream << actual[actualIndex] << " ";
 8799              		.loc 5 77 0
 8800 0160 C7854CFE 		movl	$0, -436(%rbp)
 8800      FFFF0000 
 8800      0000
 8801              	.L517:
  77:/home/gani/eval/20140524/makestuff/libs/libutpp/Checks.h ****             stream << actual[actualIndex] << " ";
 8802              		.loc 5 77 0 is_stmt 0 discriminator 1
 8803 016a 8B854CFE 		movl	-436(%rbp), %eax
 8803      FFFF
 8804 0170 3B8524FE 		cmpl	-476(%rbp), %eax
 8804      FFFF
 8805 0176 7D44     		jge	.L516
  78:/home/gani/eval/20140524/makestuff/libs/libutpp/Checks.h **** 
 8806              		.loc 5 78 0 is_stmt 1
 8807 0178 488B8528 		movq	-472(%rbp), %rax
 8807      FEFFFF
 8808 017f 488B10   		movq	(%rax), %rdx
 8809 0182 8B854CFE 		movl	-436(%rbp), %eax
 8809      FFFF
 8810 0188 4898     		cltq
 8811 018a 4801D0   		addq	%rdx, %rax
 8812 018d 0FB600   		movzbl	(%rax), %eax
 8813 0190 0FB6D0   		movzbl	%al, %edx
 8814 0193 488D8550 		leaq	-432(%rbp), %rax
 8814      FEFFFF
 8815 019a 89D6     		movl	%edx, %esi
 8816 019c 4889C7   		movq	%rax, %rdi
 8817 019f E8000000 		call	_ZStlsISt11char_traitsIcEERSt13basic_ostreamIcT_ES5_h@PLT
 8817      00
 8818 01a4 488D3500 		leaq	.LC80(%rip), %rsi
 8818      000000
 8819 01ab 4889C7   		movq	%rax, %rdi
 8820 01ae E8000000 		call	_ZStlsISt11char_traitsIcEERSt13basic_ostreamIcT_ES5_PKc@PLT
 8820      00
  77:/home/gani/eval/20140524/makestuff/libs/libutpp/Checks.h ****             stream << actual[actualIndex] << " ";
 8821              		.loc 5 77 0 discriminator 2
 8822 01b3 83854CFE 		addl	$1, -436(%rbp)
 8822      FFFF01
 8823 01ba EBAE     		jmp	.L517
 8824              	.L516:
 8825              	.LBE61:
  80:/home/gani/eval/20140524/makestuff/libs/libutpp/Checks.h **** 
 8826              		.loc 5 80 0
 8827 01bc 488D8550 		leaq	-432(%rbp), %rax
 8827      FEFFFF
 8828 01c3 488D3500 		leaq	.LC82(%rip), %rsi
 8828      000000
 8829 01ca 4889C7   		movq	%rax, %rdi
 8830 01cd E8000000 		call	_ZStlsISt11char_traitsIcEERSt13basic_ostreamIcT_ES5_PKc@PLT
 8830      00
  82:/home/gani/eval/20140524/makestuff/libs/libutpp/Checks.h ****     }
 8831              		.loc 5 82 0
 8832 01d2 488D8550 		leaq	-432(%rbp), %rax
 8832      FEFFFF
 8833 01d9 4889C7   		movq	%rax, %rdi
 8834 01dc E8000000 		call	_ZNK8UnitTest15MemoryOutStream7GetTextEv@PLT
 8834      00
 8835 01e1 4889C2   		movq	%rax, %rdx
 8836 01e4 488B8D18 		movq	-488(%rbp), %rcx
 8836      FEFFFF
 8837 01eb 488B8538 		movq	-456(%rbp), %rax
 8837      FEFFFF
 8838 01f2 4889CE   		movq	%rcx, %rsi
 8839 01f5 4889C7   		movq	%rax, %rdi
 8840 01f8 E8000000 		call	_ZN8UnitTest11TestResults13OnTestFailureERKNS_11TestDetailsEPKc@PLT
 8840      00
 8841              	.LEHE339:
  68:/home/gani/eval/20140524/makestuff/libs/libutpp/Checks.h **** 
 8842              		.loc 5 68 0
 8843 01fd 488D8550 		leaq	-432(%rbp), %rax
 8843      FEFFFF
 8844 0204 4889C7   		movq	%rax, %rdi
 8845              	.LEHB340:
 8846 0207 E8000000 		call	_ZN8UnitTest15MemoryOutStreamD1Ev
 8846      00
 8847              	.LEHE340:
 8848              	.LBE59:
 8849              	.LBE58:
 8850              		.loc 5 84 0
 8851 020c EB1D     		jmp	.L521
 8852              	.L520:
 8853 020e 4889C3   		movq	%rax, %rbx
 8854              	.LBB63:
 8855              	.LBB62:
  68:/home/gani/eval/20140524/makestuff/libs/libutpp/Checks.h **** 
 8856              		.loc 5 68 0
 8857 0211 488D8550 		leaq	-432(%rbp), %rax
 8857      FEFFFF
 8858 0218 4889C7   		movq	%rax, %rdi
 8859 021b E8000000 		call	_ZN8UnitTest15MemoryOutStreamD1Ev
 8859      00
 8860 0220 4889D8   		movq	%rbx, %rax
 8861 0223 4889C7   		movq	%rax, %rdi
 8862              	.LEHB341:
 8863 0226 E8000000 		call	_Unwind_Resume@PLT
 8863      00
 8864              	.LEHE341:
 8865              	.L521:
 8866              	.LBE62:
 8867              	.LBE63:
 8868              		.loc 5 84 0
 8869 022b 90       		nop
 8870 022c 488B45E8 		movq	-24(%rbp), %rax
 8871 0230 64483304 		xorq	%fs:40, %rax
 8871      25280000 
 8871      00
 8872 0239 7405     		je	.L519
 8873 023b E8000000 		call	__stack_chk_fail@PLT
 8873      00
 8874              	.L519:
 8875 0240 4881C4E8 		addq	$488, %rsp
 8875      010000
 8876 0247 5B       		popq	%rbx
 8877 0248 5D       		popq	%rbp
 8878              		.cfi_def_cfa 7, 8
 8879 0249 C3       		ret
 8880              		.cfi_endproc
 8881              	.LFE1264:
 8882              		.section	.gcc_except_table
 8883              	.LLSDA1264:
 8884 080c FF       		.byte	0xff
 8885 080d FF       		.byte	0xff
 8886 080e 01       		.byte	0x1
 8887 080f 16       		.uleb128 .LLSDACSE1264-.LLSDACSB1264
 8888              	.LLSDACSB1264:
 8889 0810 D301     		.uleb128 .LEHB338-.LFB1264
 8890 0812 05       		.uleb128 .LEHE338-.LEHB338
 8891 0813 00       		.uleb128 0
 8892 0814 00       		.uleb128 0
 8893 0815 E901     		.uleb128 .LEHB339-.LFB1264
 8894 0817 9402     		.uleb128 .LEHE339-.LEHB339
 8895 0819 8E04     		.uleb128 .L520-.LFB1264
 8896 081b 00       		.uleb128 0
 8897 081c 8704     		.uleb128 .LEHB340-.LFB1264
 8898 081e 05       		.uleb128 .LEHE340-.LEHB340
 8899 081f 00       		.uleb128 0
 8900 0820 00       		.uleb128 0
 8901 0821 A604     		.uleb128 .LEHB341-.LFB1264
 8902 0823 05       		.uleb128 .LEHE341-.LEHB341
 8903 0824 00       		.uleb128 0
 8904 0825 00       		.uleb128 0
 8905              	.LLSDACSE1264:
 8906              		.section	.text._ZN8UnitTest15CheckArrayEqualIPKcPhEEvRNS_11TestResultsERKT_RKT0_iRKNS_11TestDetail
 8908              		.weak	_ZTV28TestHexIO_testDeriveWriteMap
 8909              		.section	.data.rel.ro.local._ZTV28TestHexIO_testDeriveWriteMap,"awG",@progbits,_ZTV28TestHexIO_tes
 8910              		.align 8
 8913              	_ZTV28TestHexIO_testDeriveWriteMap:
 8914 0000 00000000 		.quad	0
 8914      00000000 
 8915 0008 00000000 		.quad	_ZTI28TestHexIO_testDeriveWriteMap
 8915      00000000 
 8916 0010 00000000 		.quad	_ZN28TestHexIO_testDeriveWriteMapD1Ev
 8916      00000000 
 8917 0018 00000000 		.quad	_ZN28TestHexIO_testDeriveWriteMapD0Ev
 8917      00000000 
 8918 0020 00000000 		.quad	_ZNK28TestHexIO_testDeriveWriteMap7RunImplEv
 8918      00000000 
 8919              		.section	.text._ZN28TestHexIO_testDeriveWriteMapD2Ev,"axG",@progbits,_ZN28TestHexIO_testDeriveWrit
 8920              		.align 2
 8921              		.weak	_ZN28TestHexIO_testDeriveWriteMapD2Ev
 8923              	_ZN28TestHexIO_testDeriveWriteMapD2Ev:
 8924              	.LFB1342:
 303:testHexIO.cpp **** 	testDeriveWriteMap("Hello........World", "*****........*****");
 8925              		.loc 4 303 0
 8926              		.cfi_startproc
 8927 0000 55       		pushq	%rbp
 8928              		.cfi_def_cfa_offset 16
 8929              		.cfi_offset 6, -16
 8930 0001 4889E5   		movq	%rsp, %rbp
 8931              		.cfi_def_cfa_register 6
 8932 0004 4883EC10 		subq	$16, %rsp
 8933 0008 48897DF8 		movq	%rdi, -8(%rbp)
 8934              	.LBB64:
 303:testHexIO.cpp **** 	testDeriveWriteMap("Hello........World", "*****........*****");
 8935              		.loc 4 303 0
 8936 000c 488D1500 		leaq	16+_ZTV28TestHexIO_testDeriveWriteMap(%rip), %rdx
 8936      000000
 8937 0013 488B45F8 		movq	-8(%rbp), %rax
 8938 0017 488910   		movq	%rdx, (%rax)
 8939 001a 488B45F8 		movq	-8(%rbp), %rax
 8940 001e 4889C7   		movq	%rax, %rdi
 8941 0021 E8000000 		call	_ZN8UnitTest4TestD2Ev@PLT
 8941      00
 8942              	.LBE64:
 8943 0026 90       		nop
 8944 0027 C9       		leave
 8945              		.cfi_def_cfa 7, 8
 8946 0028 C3       		ret
 8947              		.cfi_endproc
 8948              	.LFE1342:
 8950              		.weak	_ZN28TestHexIO_testDeriveWriteMapD1Ev
 8951              		.set	_ZN28TestHexIO_testDeriveWriteMapD1Ev,_ZN28TestHexIO_testDeriveWriteMapD2Ev
 8952              		.section	.text._ZN28TestHexIO_testDeriveWriteMapD0Ev,"axG",@progbits,_ZN28TestHexIO_testDeriveWrit
 8953              		.align 2
 8954              		.weak	_ZN28TestHexIO_testDeriveWriteMapD0Ev
 8956              	_ZN28TestHexIO_testDeriveWriteMapD0Ev:
 8957              	.LFB1344:
 303:testHexIO.cpp **** 	testDeriveWriteMap("Hello........World", "*****........*****");
 8958              		.loc 4 303 0
 8959              		.cfi_startproc
 8960              		.cfi_personality 0x9b,DW.ref.__gxx_personality_v0
 8961              		.cfi_lsda 0x1b,.LLSDA1344
 8962 0000 55       		pushq	%rbp
 8963              		.cfi_def_cfa_offset 16
 8964              		.cfi_offset 6, -16
 8965 0001 4889E5   		movq	%rsp, %rbp
 8966              		.cfi_def_cfa_register 6
 8967 0004 53       		pushq	%rbx
 8968 0005 4883EC18 		subq	$24, %rsp
 8969              		.cfi_offset 3, -24
 8970 0009 48897DE8 		movq	%rdi, -24(%rbp)
 303:testHexIO.cpp **** 	testDeriveWriteMap("Hello........World", "*****........*****");
 8971              		.loc 4 303 0
 8972 000d 488B45E8 		movq	-24(%rbp), %rax
 8973 0011 4889C7   		movq	%rax, %rdi
 8974              	.LEHB342:
 8975 0014 E8000000 		call	_ZN28TestHexIO_testDeriveWriteMapD1Ev
 8975      00
 8976              	.LEHE342:
 303:testHexIO.cpp **** 	testDeriveWriteMap("Hello........World", "*****........*****");
 8977              		.loc 4 303 0 is_stmt 0 discriminator 2
 8978 0019 488B45E8 		movq	-24(%rbp), %rax
 8979 001d 4889C7   		movq	%rax, %rdi
 8980 0020 E8000000 		call	_ZdlPv@PLT
 8980      00
 8981 0025 EB1A     		jmp	.L526
 8982              	.L525:
 8983 0027 4889C3   		movq	%rax, %rbx
 303:testHexIO.cpp **** 	testDeriveWriteMap("Hello........World", "*****........*****");
 8984              		.loc 4 303 0
 8985 002a 488B45E8 		movq	-24(%rbp), %rax
 8986 002e 4889C7   		movq	%rax, %rdi
 8987 0031 E8000000 		call	_ZdlPv@PLT
 8987      00
 8988 0036 4889D8   		movq	%rbx, %rax
 8989 0039 4889C7   		movq	%rax, %rdi
 8990              	.LEHB343:
 8991 003c E8000000 		call	_Unwind_Resume@PLT
 8991      00
 8992              	.LEHE343:
 8993              	.L526:
 8994 0041 4883C418 		addq	$24, %rsp
 8995 0045 5B       		popq	%rbx
 8996 0046 5D       		popq	%rbp
 8997              		.cfi_def_cfa 7, 8
 8998 0047 C3       		ret
 8999              		.cfi_endproc
 9000              	.LFE1344:
 9001              		.section	.gcc_except_table
 9002              	.LLSDA1344:
 9003 0826 FF       		.byte	0xff
 9004 0827 FF       		.byte	0xff
 9005 0828 01       		.byte	0x1
 9006 0829 08       		.uleb128 .LLSDACSE1344-.LLSDACSB1344
 9007              	.LLSDACSB1344:
 9008 082a 14       		.uleb128 .LEHB342-.LFB1344
 9009 082b 05       		.uleb128 .LEHE342-.LEHB342
 9010 082c 27       		.uleb128 .L525-.LFB1344
 9011 082d 00       		.uleb128 0
 9012 082e 3C       		.uleb128 .LEHB343-.LFB1344
 9013 082f 05       		.uleb128 .LEHE343-.LEHB343
 9014 0830 00       		.uleb128 0
 9015 0831 00       		.uleb128 0
 9016              	.LLSDACSE1344:
 9017              		.section	.text._ZN28TestHexIO_testDeriveWriteMapD0Ev,"axG",@progbits,_ZN28TestHexIO_testDeriveWrit
 9019              		.weak	_ZTV23TestHexIO_testRoundTrip
 9020              		.section	.data.rel.ro.local._ZTV23TestHexIO_testRoundTrip,"awG",@progbits,_ZTV23TestHexIO_testRoun
 9021              		.align 8
 9024              	_ZTV23TestHexIO_testRoundTrip:
 9025 0000 00000000 		.quad	0
 9025      00000000 
 9026 0008 00000000 		.quad	_ZTI23TestHexIO_testRoundTrip
 9026      00000000 
 9027 0010 00000000 		.quad	_ZN23TestHexIO_testRoundTripD1Ev
 9027      00000000 
 9028 0018 00000000 		.quad	_ZN23TestHexIO_testRoundTripD0Ev
 9028      00000000 
 9029 0020 00000000 		.quad	_ZNK23TestHexIO_testRoundTrip7RunImplEv
 9029      00000000 
 9030              		.section	.text._ZN23TestHexIO_testRoundTripD2Ev,"axG",@progbits,_ZN23TestHexIO_testRoundTripD5Ev,c
 9031              		.align 2
 9032              		.weak	_ZN23TestHexIO_testRoundTripD2Ev
 9034              	_ZN23TestHexIO_testRoundTripD2Ev:
 9035              	.LFB1346:
 242:testHexIO.cpp **** 	testRoundTrip(
 9036              		.loc 4 242 0 is_stmt 1
 9037              		.cfi_startproc
 9038 0000 55       		pushq	%rbp
 9039              		.cfi_def_cfa_offset 16
 9040              		.cfi_offset 6, -16
 9041 0001 4889E5   		movq	%rsp, %rbp
 9042              		.cfi_def_cfa_register 6
 9043 0004 4883EC10 		subq	$16, %rsp
 9044 0008 48897DF8 		movq	%rdi, -8(%rbp)
 9045              	.LBB65:
 242:testHexIO.cpp **** 	testRoundTrip(
 9046              		.loc 4 242 0
 9047 000c 488D1500 		leaq	16+_ZTV23TestHexIO_testRoundTrip(%rip), %rdx
 9047      000000
 9048 0013 488B45F8 		movq	-8(%rbp), %rax
 9049 0017 488910   		movq	%rdx, (%rax)
 9050 001a 488B45F8 		movq	-8(%rbp), %rax
 9051 001e 4889C7   		movq	%rax, %rdi
 9052 0021 E8000000 		call	_ZN8UnitTest4TestD2Ev@PLT
 9052      00
 9053              	.LBE65:
 9054 0026 90       		nop
 9055 0027 C9       		leave
 9056              		.cfi_def_cfa 7, 8
 9057 0028 C3       		ret
 9058              		.cfi_endproc
 9059              	.LFE1346:
 9061              		.weak	_ZN23TestHexIO_testRoundTripD1Ev
 9062              		.set	_ZN23TestHexIO_testRoundTripD1Ev,_ZN23TestHexIO_testRoundTripD2Ev
 9063              		.section	.text._ZN23TestHexIO_testRoundTripD0Ev,"axG",@progbits,_ZN23TestHexIO_testRoundTripD5Ev,c
 9064              		.align 2
 9065              		.weak	_ZN23TestHexIO_testRoundTripD0Ev
 9067              	_ZN23TestHexIO_testRoundTripD0Ev:
 9068              	.LFB1348:
 242:testHexIO.cpp **** 	testRoundTrip(
 9069              		.loc 4 242 0
 9070              		.cfi_startproc
 9071              		.cfi_personality 0x9b,DW.ref.__gxx_personality_v0
 9072              		.cfi_lsda 0x1b,.LLSDA1348
 9073 0000 55       		pushq	%rbp
 9074              		.cfi_def_cfa_offset 16
 9075              		.cfi_offset 6, -16
 9076 0001 4889E5   		movq	%rsp, %rbp
 9077              		.cfi_def_cfa_register 6
 9078 0004 53       		pushq	%rbx
 9079 0005 4883EC18 		subq	$24, %rsp
 9080              		.cfi_offset 3, -24
 9081 0009 48897DE8 		movq	%rdi, -24(%rbp)
 242:testHexIO.cpp **** 	testRoundTrip(
 9082              		.loc 4 242 0
 9083 000d 488B45E8 		movq	-24(%rbp), %rax
 9084 0011 4889C7   		movq	%rax, %rdi
 9085              	.LEHB344:
 9086 0014 E8000000 		call	_ZN23TestHexIO_testRoundTripD1Ev
 9086      00
 9087              	.LEHE344:
 242:testHexIO.cpp **** 	testRoundTrip(
 9088              		.loc 4 242 0 is_stmt 0 discriminator 2
 9089 0019 488B45E8 		movq	-24(%rbp), %rax
 9090 001d 4889C7   		movq	%rax, %rdi
 9091 0020 E8000000 		call	_ZdlPv@PLT
 9091      00
 9092 0025 EB1A     		jmp	.L531
 9093              	.L530:
 9094 0027 4889C3   		movq	%rax, %rbx
 242:testHexIO.cpp **** 	testRoundTrip(
 9095              		.loc 4 242 0
 9096 002a 488B45E8 		movq	-24(%rbp), %rax
 9097 002e 4889C7   		movq	%rax, %rdi
 9098 0031 E8000000 		call	_ZdlPv@PLT
 9098      00
 9099 0036 4889D8   		movq	%rbx, %rax
 9100 0039 4889C7   		movq	%rax, %rdi
 9101              	.LEHB345:
 9102 003c E8000000 		call	_Unwind_Resume@PLT
 9102      00
 9103              	.LEHE345:
 9104              	.L531:
 9105 0041 4883C418 		addq	$24, %rsp
 9106 0045 5B       		popq	%rbx
 9107 0046 5D       		popq	%rbp
 9108              		.cfi_def_cfa 7, 8
 9109 0047 C3       		ret
 9110              		.cfi_endproc
 9111              	.LFE1348:
 9112              		.section	.gcc_except_table
 9113              	.LLSDA1348:
 9114 0832 FF       		.byte	0xff
 9115 0833 FF       		.byte	0xff
 9116 0834 01       		.byte	0x1
 9117 0835 08       		.uleb128 .LLSDACSE1348-.LLSDACSB1348
 9118              	.LLSDACSB1348:
 9119 0836 14       		.uleb128 .LEHB344-.LFB1348
 9120 0837 05       		.uleb128 .LEHE344-.LEHB344
 9121 0838 27       		.uleb128 .L530-.LFB1348
 9122 0839 00       		.uleb128 0
 9123 083a 3C       		.uleb128 .LEHB345-.LFB1348
 9124 083b 05       		.uleb128 .LEHE345-.LEHB345
 9125 083c 00       		.uleb128 0
 9126 083d 00       		.uleb128 0
 9127              	.LLSDACSE1348:
 9128              		.section	.text._ZN23TestHexIO_testRoundTripD0Ev,"axG",@progbits,_ZN23TestHexIO_testRoundTripD5Ev,c
 9130              		.weak	_ZTV25TestHexIO_testCorruptLine
 9131              		.section	.data.rel.ro.local._ZTV25TestHexIO_testCorruptLine,"awG",@progbits,_ZTV25TestHexIO_testCo
 9132              		.align 8
 9135              	_ZTV25TestHexIO_testCorruptLine:
 9136 0000 00000000 		.quad	0
 9136      00000000 
 9137 0008 00000000 		.quad	_ZTI25TestHexIO_testCorruptLine
 9137      00000000 
 9138 0010 00000000 		.quad	_ZN25TestHexIO_testCorruptLineD1Ev
 9138      00000000 
 9139 0018 00000000 		.quad	_ZN25TestHexIO_testCorruptLineD0Ev
 9139      00000000 
 9140 0020 00000000 		.quad	_ZNK25TestHexIO_testCorruptLine7RunImplEv
 9140      00000000 
 9141              		.section	.text._ZN25TestHexIO_testCorruptLineD2Ev,"axG",@progbits,_ZN25TestHexIO_testCorruptLineD5
 9142              		.align 2
 9143              		.weak	_ZN25TestHexIO_testCorruptLineD2Ev
 9145              	_ZN25TestHexIO_testCorruptLineD2Ev:
 9146              	.LFB1350:
 173:testHexIO.cpp **** 	Buffer data;
 9147              		.loc 4 173 0 is_stmt 1
 9148              		.cfi_startproc
 9149 0000 55       		pushq	%rbp
 9150              		.cfi_def_cfa_offset 16
 9151              		.cfi_offset 6, -16
 9152 0001 4889E5   		movq	%rsp, %rbp
 9153              		.cfi_def_cfa_register 6
 9154 0004 4883EC10 		subq	$16, %rsp
 9155 0008 48897DF8 		movq	%rdi, -8(%rbp)
 9156              	.LBB66:
 173:testHexIO.cpp **** 	Buffer data;
 9157              		.loc 4 173 0
 9158 000c 488D1500 		leaq	16+_ZTV25TestHexIO_testCorruptLine(%rip), %rdx
 9158      000000
 9159 0013 488B45F8 		movq	-8(%rbp), %rax
 9160 0017 488910   		movq	%rdx, (%rax)
 9161 001a 488B45F8 		movq	-8(%rbp), %rax
 9162 001e 4889C7   		movq	%rax, %rdi
 9163 0021 E8000000 		call	_ZN8UnitTest4TestD2Ev@PLT
 9163      00
 9164              	.LBE66:
 9165 0026 90       		nop
 9166 0027 C9       		leave
 9167              		.cfi_def_cfa 7, 8
 9168 0028 C3       		ret
 9169              		.cfi_endproc
 9170              	.LFE1350:
 9172              		.weak	_ZN25TestHexIO_testCorruptLineD1Ev
 9173              		.set	_ZN25TestHexIO_testCorruptLineD1Ev,_ZN25TestHexIO_testCorruptLineD2Ev
 9174              		.section	.text._ZN25TestHexIO_testCorruptLineD0Ev,"axG",@progbits,_ZN25TestHexIO_testCorruptLineD5
 9175              		.align 2
 9176              		.weak	_ZN25TestHexIO_testCorruptLineD0Ev
 9178              	_ZN25TestHexIO_testCorruptLineD0Ev:
 9179              	.LFB1352:
 173:testHexIO.cpp **** 	Buffer data;
 9180              		.loc 4 173 0
 9181              		.cfi_startproc
 9182              		.cfi_personality 0x9b,DW.ref.__gxx_personality_v0
 9183              		.cfi_lsda 0x1b,.LLSDA1352
 9184 0000 55       		pushq	%rbp
 9185              		.cfi_def_cfa_offset 16
 9186              		.cfi_offset 6, -16
 9187 0001 4889E5   		movq	%rsp, %rbp
 9188              		.cfi_def_cfa_register 6
 9189 0004 53       		pushq	%rbx
 9190 0005 4883EC18 		subq	$24, %rsp
 9191              		.cfi_offset 3, -24
 9192 0009 48897DE8 		movq	%rdi, -24(%rbp)
 173:testHexIO.cpp **** 	Buffer data;
 9193              		.loc 4 173 0
 9194 000d 488B45E8 		movq	-24(%rbp), %rax
 9195 0011 4889C7   		movq	%rax, %rdi
 9196              	.LEHB346:
 9197 0014 E8000000 		call	_ZN25TestHexIO_testCorruptLineD1Ev
 9197      00
 9198              	.LEHE346:
 173:testHexIO.cpp **** 	Buffer data;
 9199              		.loc 4 173 0 is_stmt 0 discriminator 2
 9200 0019 488B45E8 		movq	-24(%rbp), %rax
 9201 001d 4889C7   		movq	%rax, %rdi
 9202 0020 E8000000 		call	_ZdlPv@PLT
 9202      00
 9203 0025 EB1A     		jmp	.L536
 9204              	.L535:
 9205 0027 4889C3   		movq	%rax, %rbx
 173:testHexIO.cpp **** 	Buffer data;
 9206              		.loc 4 173 0
 9207 002a 488B45E8 		movq	-24(%rbp), %rax
 9208 002e 4889C7   		movq	%rax, %rdi
 9209 0031 E8000000 		call	_ZdlPv@PLT
 9209      00
 9210 0036 4889D8   		movq	%rbx, %rax
 9211 0039 4889C7   		movq	%rax, %rdi
 9212              	.LEHB347:
 9213 003c E8000000 		call	_Unwind_Resume@PLT
 9213      00
 9214              	.LEHE347:
 9215              	.L536:
 9216 0041 4883C418 		addq	$24, %rsp
 9217 0045 5B       		popq	%rbx
 9218 0046 5D       		popq	%rbp
 9219              		.cfi_def_cfa 7, 8
 9220 0047 C3       		ret
 9221              		.cfi_endproc
 9222              	.LFE1352:
 9223              		.section	.gcc_except_table
 9224              	.LLSDA1352:
 9225 083e FF       		.byte	0xff
 9226 083f FF       		.byte	0xff
 9227 0840 01       		.byte	0x1
 9228 0841 08       		.uleb128 .LLSDACSE1352-.LLSDACSB1352
 9229              	.LLSDACSB1352:
 9230 0842 14       		.uleb128 .LEHB346-.LFB1352
 9231 0843 05       		.uleb128 .LEHE346-.LEHB346
 9232 0844 27       		.uleb128 .L535-.LFB1352
 9233 0845 00       		.uleb128 0
 9234 0846 3C       		.uleb128 .LEHB347-.LFB1352
 9235 0847 05       		.uleb128 .LEHE347-.LEHB347
 9236 0848 00       		.uleb128 0
 9237 0849 00       		.uleb128 0
 9238              	.LLSDACSE1352:
 9239              		.section	.text._ZN25TestHexIO_testCorruptLineD0Ev,"axG",@progbits,_ZN25TestHexIO_testCorruptLineD5
 9241              		.weak	_ZTV25TestHexIO_testBadChecksum
 9242              		.section	.data.rel.ro.local._ZTV25TestHexIO_testBadChecksum,"awG",@progbits,_ZTV25TestHexIO_testBa
 9243              		.align 8
 9246              	_ZTV25TestHexIO_testBadChecksum:
 9247 0000 00000000 		.quad	0
 9247      00000000 
 9248 0008 00000000 		.quad	_ZTI25TestHexIO_testBadChecksum
 9248      00000000 
 9249 0010 00000000 		.quad	_ZN25TestHexIO_testBadChecksumD1Ev
 9249      00000000 
 9250 0018 00000000 		.quad	_ZN25TestHexIO_testBadChecksumD0Ev
 9250      00000000 
 9251 0020 00000000 		.quad	_ZNK25TestHexIO_testBadChecksum7RunImplEv
 9251      00000000 
 9252              		.section	.text._ZN25TestHexIO_testBadChecksumD2Ev,"axG",@progbits,_ZN25TestHexIO_testBadChecksumD5
 9253              		.align 2
 9254              		.weak	_ZN25TestHexIO_testBadChecksumD2Ev
 9256              	_ZN25TestHexIO_testBadChecksumD2Ev:
 9257              	.LFB1354:
 160:testHexIO.cpp **** 	Buffer data;
 9258              		.loc 4 160 0 is_stmt 1
 9259              		.cfi_startproc
 9260 0000 55       		pushq	%rbp
 9261              		.cfi_def_cfa_offset 16
 9262              		.cfi_offset 6, -16
 9263 0001 4889E5   		movq	%rsp, %rbp
 9264              		.cfi_def_cfa_register 6
 9265 0004 4883EC10 		subq	$16, %rsp
 9266 0008 48897DF8 		movq	%rdi, -8(%rbp)
 9267              	.LBB67:
 160:testHexIO.cpp **** 	Buffer data;
 9268              		.loc 4 160 0
 9269 000c 488D1500 		leaq	16+_ZTV25TestHexIO_testBadChecksum(%rip), %rdx
 9269      000000
 9270 0013 488B45F8 		movq	-8(%rbp), %rax
 9271 0017 488910   		movq	%rdx, (%rax)
 9272 001a 488B45F8 		movq	-8(%rbp), %rax
 9273 001e 4889C7   		movq	%rax, %rdi
 9274 0021 E8000000 		call	_ZN8UnitTest4TestD2Ev@PLT
 9274      00
 9275              	.LBE67:
 9276 0026 90       		nop
 9277 0027 C9       		leave
 9278              		.cfi_def_cfa 7, 8
 9279 0028 C3       		ret
 9280              		.cfi_endproc
 9281              	.LFE1354:
 9283              		.weak	_ZN25TestHexIO_testBadChecksumD1Ev
 9284              		.set	_ZN25TestHexIO_testBadChecksumD1Ev,_ZN25TestHexIO_testBadChecksumD2Ev
 9285              		.section	.text._ZN25TestHexIO_testBadChecksumD0Ev,"axG",@progbits,_ZN25TestHexIO_testBadChecksumD5
 9286              		.align 2
 9287              		.weak	_ZN25TestHexIO_testBadChecksumD0Ev
 9289              	_ZN25TestHexIO_testBadChecksumD0Ev:
 9290              	.LFB1356:
 160:testHexIO.cpp **** 	Buffer data;
 9291              		.loc 4 160 0
 9292              		.cfi_startproc
 9293              		.cfi_personality 0x9b,DW.ref.__gxx_personality_v0
 9294              		.cfi_lsda 0x1b,.LLSDA1356
 9295 0000 55       		pushq	%rbp
 9296              		.cfi_def_cfa_offset 16
 9297              		.cfi_offset 6, -16
 9298 0001 4889E5   		movq	%rsp, %rbp
 9299              		.cfi_def_cfa_register 6
 9300 0004 53       		pushq	%rbx
 9301 0005 4883EC18 		subq	$24, %rsp
 9302              		.cfi_offset 3, -24
 9303 0009 48897DE8 		movq	%rdi, -24(%rbp)
 160:testHexIO.cpp **** 	Buffer data;
 9304              		.loc 4 160 0
 9305 000d 488B45E8 		movq	-24(%rbp), %rax
 9306 0011 4889C7   		movq	%rax, %rdi
 9307              	.LEHB348:
 9308 0014 E8000000 		call	_ZN25TestHexIO_testBadChecksumD1Ev
 9308      00
 9309              	.LEHE348:
 160:testHexIO.cpp **** 	Buffer data;
 9310              		.loc 4 160 0 is_stmt 0 discriminator 2
 9311 0019 488B45E8 		movq	-24(%rbp), %rax
 9312 001d 4889C7   		movq	%rax, %rdi
 9313 0020 E8000000 		call	_ZdlPv@PLT
 9313      00
 9314 0025 EB1A     		jmp	.L541
 9315              	.L540:
 9316 0027 4889C3   		movq	%rax, %rbx
 160:testHexIO.cpp **** 	Buffer data;
 9317              		.loc 4 160 0
 9318 002a 488B45E8 		movq	-24(%rbp), %rax
 9319 002e 4889C7   		movq	%rax, %rdi
 9320 0031 E8000000 		call	_ZdlPv@PLT
 9320      00
 9321 0036 4889D8   		movq	%rbx, %rax
 9322 0039 4889C7   		movq	%rax, %rdi
 9323              	.LEHB349:
 9324 003c E8000000 		call	_Unwind_Resume@PLT
 9324      00
 9325              	.LEHE349:
 9326              	.L541:
 9327 0041 4883C418 		addq	$24, %rsp
 9328 0045 5B       		popq	%rbx
 9329 0046 5D       		popq	%rbp
 9330              		.cfi_def_cfa 7, 8
 9331 0047 C3       		ret
 9332              		.cfi_endproc
 9333              	.LFE1356:
 9334              		.section	.gcc_except_table
 9335              	.LLSDA1356:
 9336 084a FF       		.byte	0xff
 9337 084b FF       		.byte	0xff
 9338 084c 01       		.byte	0x1
 9339 084d 08       		.uleb128 .LLSDACSE1356-.LLSDACSB1356
 9340              	.LLSDACSB1356:
 9341 084e 14       		.uleb128 .LEHB348-.LFB1356
 9342 084f 05       		.uleb128 .LEHE348-.LEHB348
 9343 0850 27       		.uleb128 .L540-.LFB1356
 9344 0851 00       		.uleb128 0
 9345 0852 3C       		.uleb128 .LEHB349-.LFB1356
 9346 0853 05       		.uleb128 .LEHE349-.LEHB349
 9347 0854 00       		.uleb128 0
 9348 0855 00       		.uleb128 0
 9349              	.LLSDACSE1356:
 9350              		.section	.text._ZN25TestHexIO_testBadChecksumD0Ev,"axG",@progbits,_ZN25TestHexIO_testBadChecksumD5
 9352              		.weak	_ZTV26TestHexIO_testJunkChecksum
 9353              		.section	.data.rel.ro.local._ZTV26TestHexIO_testJunkChecksum,"awG",@progbits,_ZTV26TestHexIO_testJ
 9354              		.align 8
 9357              	_ZTV26TestHexIO_testJunkChecksum:
 9358 0000 00000000 		.quad	0
 9358      00000000 
 9359 0008 00000000 		.quad	_ZTI26TestHexIO_testJunkChecksum
 9359      00000000 
 9360 0010 00000000 		.quad	_ZN26TestHexIO_testJunkChecksumD1Ev
 9360      00000000 
 9361 0018 00000000 		.quad	_ZN26TestHexIO_testJunkChecksumD0Ev
 9361      00000000 
 9362 0020 00000000 		.quad	_ZNK26TestHexIO_testJunkChecksum7RunImplEv
 9362      00000000 
 9363              		.section	.text._ZN26TestHexIO_testJunkChecksumD2Ev,"axG",@progbits,_ZN26TestHexIO_testJunkChecksum
 9364              		.align 2
 9365              		.weak	_ZN26TestHexIO_testJunkChecksumD2Ev
 9367              	_ZN26TestHexIO_testJunkChecksumD2Ev:
 9368              	.LFB1358:
 147:testHexIO.cpp **** 	Buffer data;
 9369              		.loc 4 147 0 is_stmt 1
 9370              		.cfi_startproc
 9371 0000 55       		pushq	%rbp
 9372              		.cfi_def_cfa_offset 16
 9373              		.cfi_offset 6, -16
 9374 0001 4889E5   		movq	%rsp, %rbp
 9375              		.cfi_def_cfa_register 6
 9376 0004 4883EC10 		subq	$16, %rsp
 9377 0008 48897DF8 		movq	%rdi, -8(%rbp)
 9378              	.LBB68:
 147:testHexIO.cpp **** 	Buffer data;
 9379              		.loc 4 147 0
 9380 000c 488D1500 		leaq	16+_ZTV26TestHexIO_testJunkChecksum(%rip), %rdx
 9380      000000
 9381 0013 488B45F8 		movq	-8(%rbp), %rax
 9382 0017 488910   		movq	%rdx, (%rax)
 9383 001a 488B45F8 		movq	-8(%rbp), %rax
 9384 001e 4889C7   		movq	%rax, %rdi
 9385 0021 E8000000 		call	_ZN8UnitTest4TestD2Ev@PLT
 9385      00
 9386              	.LBE68:
 9387 0026 90       		nop
 9388 0027 C9       		leave
 9389              		.cfi_def_cfa 7, 8
 9390 0028 C3       		ret
 9391              		.cfi_endproc
 9392              	.LFE1358:
 9394              		.weak	_ZN26TestHexIO_testJunkChecksumD1Ev
 9395              		.set	_ZN26TestHexIO_testJunkChecksumD1Ev,_ZN26TestHexIO_testJunkChecksumD2Ev
 9396              		.section	.text._ZN26TestHexIO_testJunkChecksumD0Ev,"axG",@progbits,_ZN26TestHexIO_testJunkChecksum
 9397              		.align 2
 9398              		.weak	_ZN26TestHexIO_testJunkChecksumD0Ev
 9400              	_ZN26TestHexIO_testJunkChecksumD0Ev:
 9401              	.LFB1360:
 147:testHexIO.cpp **** 	Buffer data;
 9402              		.loc 4 147 0
 9403              		.cfi_startproc
 9404              		.cfi_personality 0x9b,DW.ref.__gxx_personality_v0
 9405              		.cfi_lsda 0x1b,.LLSDA1360
 9406 0000 55       		pushq	%rbp
 9407              		.cfi_def_cfa_offset 16
 9408              		.cfi_offset 6, -16
 9409 0001 4889E5   		movq	%rsp, %rbp
 9410              		.cfi_def_cfa_register 6
 9411 0004 53       		pushq	%rbx
 9412 0005 4883EC18 		subq	$24, %rsp
 9413              		.cfi_offset 3, -24
 9414 0009 48897DE8 		movq	%rdi, -24(%rbp)
 147:testHexIO.cpp **** 	Buffer data;
 9415              		.loc 4 147 0
 9416 000d 488B45E8 		movq	-24(%rbp), %rax
 9417 0011 4889C7   		movq	%rax, %rdi
 9418              	.LEHB350:
 9419 0014 E8000000 		call	_ZN26TestHexIO_testJunkChecksumD1Ev
 9419      00
 9420              	.LEHE350:
 147:testHexIO.cpp **** 	Buffer data;
 9421              		.loc 4 147 0 is_stmt 0 discriminator 2
 9422 0019 488B45E8 		movq	-24(%rbp), %rax
 9423 001d 4889C7   		movq	%rax, %rdi
 9424 0020 E8000000 		call	_ZdlPv@PLT
 9424      00
 9425 0025 EB1A     		jmp	.L546
 9426              	.L545:
 9427 0027 4889C3   		movq	%rax, %rbx
 147:testHexIO.cpp **** 	Buffer data;
 9428              		.loc 4 147 0
 9429 002a 488B45E8 		movq	-24(%rbp), %rax
 9430 002e 4889C7   		movq	%rax, %rdi
 9431 0031 E8000000 		call	_ZdlPv@PLT
 9431      00
 9432 0036 4889D8   		movq	%rbx, %rax
 9433 0039 4889C7   		movq	%rax, %rdi
 9434              	.LEHB351:
 9435 003c E8000000 		call	_Unwind_Resume@PLT
 9435      00
 9436              	.LEHE351:
 9437              	.L546:
 9438 0041 4883C418 		addq	$24, %rsp
 9439 0045 5B       		popq	%rbx
 9440 0046 5D       		popq	%rbp
 9441              		.cfi_def_cfa 7, 8
 9442 0047 C3       		ret
 9443              		.cfi_endproc
 9444              	.LFE1360:
 9445              		.section	.gcc_except_table
 9446              	.LLSDA1360:
 9447 0856 FF       		.byte	0xff
 9448 0857 FF       		.byte	0xff
 9449 0858 01       		.byte	0x1
 9450 0859 08       		.uleb128 .LLSDACSE1360-.LLSDACSB1360
 9451              	.LLSDACSB1360:
 9452 085a 14       		.uleb128 .LEHB350-.LFB1360
 9453 085b 05       		.uleb128 .LEHE350-.LEHB350
 9454 085c 27       		.uleb128 .L545-.LFB1360
 9455 085d 00       		.uleb128 0
 9456 085e 3C       		.uleb128 .LEHB351-.LFB1360
 9457 085f 05       		.uleb128 .LEHE351-.LEHB351
 9458 0860 00       		.uleb128 0
 9459 0861 00       		.uleb128 0
 9460              	.LLSDACSE1360:
 9461              		.section	.text._ZN26TestHexIO_testJunkChecksumD0Ev,"axG",@progbits,_ZN26TestHexIO_testJunkChecksum
 9463              		.weak	_ZTV26TestHexIO_testJunkDataByte
 9464              		.section	.data.rel.ro.local._ZTV26TestHexIO_testJunkDataByte,"awG",@progbits,_ZTV26TestHexIO_testJ
 9465              		.align 8
 9468              	_ZTV26TestHexIO_testJunkDataByte:
 9469 0000 00000000 		.quad	0
 9469      00000000 
 9470 0008 00000000 		.quad	_ZTI26TestHexIO_testJunkDataByte
 9470      00000000 
 9471 0010 00000000 		.quad	_ZN26TestHexIO_testJunkDataByteD1Ev
 9471      00000000 
 9472 0018 00000000 		.quad	_ZN26TestHexIO_testJunkDataByteD0Ev
 9472      00000000 
 9473 0020 00000000 		.quad	_ZNK26TestHexIO_testJunkDataByte7RunImplEv
 9473      00000000 
 9474              		.section	.text._ZN26TestHexIO_testJunkDataByteD2Ev,"axG",@progbits,_ZN26TestHexIO_testJunkDataByte
 9475              		.align 2
 9476              		.weak	_ZN26TestHexIO_testJunkDataByteD2Ev
 9478              	_ZN26TestHexIO_testJunkDataByteD2Ev:
 9479              	.LFB1362:
 134:testHexIO.cpp **** 	Buffer data;
 9480              		.loc 4 134 0 is_stmt 1
 9481              		.cfi_startproc
 9482 0000 55       		pushq	%rbp
 9483              		.cfi_def_cfa_offset 16
 9484              		.cfi_offset 6, -16
 9485 0001 4889E5   		movq	%rsp, %rbp
 9486              		.cfi_def_cfa_register 6
 9487 0004 4883EC10 		subq	$16, %rsp
 9488 0008 48897DF8 		movq	%rdi, -8(%rbp)
 9489              	.LBB69:
 134:testHexIO.cpp **** 	Buffer data;
 9490              		.loc 4 134 0
 9491 000c 488D1500 		leaq	16+_ZTV26TestHexIO_testJunkDataByte(%rip), %rdx
 9491      000000
 9492 0013 488B45F8 		movq	-8(%rbp), %rax
 9493 0017 488910   		movq	%rdx, (%rax)
 9494 001a 488B45F8 		movq	-8(%rbp), %rax
 9495 001e 4889C7   		movq	%rax, %rdi
 9496 0021 E8000000 		call	_ZN8UnitTest4TestD2Ev@PLT
 9496      00
 9497              	.LBE69:
 9498 0026 90       		nop
 9499 0027 C9       		leave
 9500              		.cfi_def_cfa 7, 8
 9501 0028 C3       		ret
 9502              		.cfi_endproc
 9503              	.LFE1362:
 9505              		.weak	_ZN26TestHexIO_testJunkDataByteD1Ev
 9506              		.set	_ZN26TestHexIO_testJunkDataByteD1Ev,_ZN26TestHexIO_testJunkDataByteD2Ev
 9507              		.section	.text._ZN26TestHexIO_testJunkDataByteD0Ev,"axG",@progbits,_ZN26TestHexIO_testJunkDataByte
 9508              		.align 2
 9509              		.weak	_ZN26TestHexIO_testJunkDataByteD0Ev
 9511              	_ZN26TestHexIO_testJunkDataByteD0Ev:
 9512              	.LFB1364:
 134:testHexIO.cpp **** 	Buffer data;
 9513              		.loc 4 134 0
 9514              		.cfi_startproc
 9515              		.cfi_personality 0x9b,DW.ref.__gxx_personality_v0
 9516              		.cfi_lsda 0x1b,.LLSDA1364
 9517 0000 55       		pushq	%rbp
 9518              		.cfi_def_cfa_offset 16
 9519              		.cfi_offset 6, -16
 9520 0001 4889E5   		movq	%rsp, %rbp
 9521              		.cfi_def_cfa_register 6
 9522 0004 53       		pushq	%rbx
 9523 0005 4883EC18 		subq	$24, %rsp
 9524              		.cfi_offset 3, -24
 9525 0009 48897DE8 		movq	%rdi, -24(%rbp)
 134:testHexIO.cpp **** 	Buffer data;
 9526              		.loc 4 134 0
 9527 000d 488B45E8 		movq	-24(%rbp), %rax
 9528 0011 4889C7   		movq	%rax, %rdi
 9529              	.LEHB352:
 9530 0014 E8000000 		call	_ZN26TestHexIO_testJunkDataByteD1Ev
 9530      00
 9531              	.LEHE352:
 134:testHexIO.cpp **** 	Buffer data;
 9532              		.loc 4 134 0 is_stmt 0 discriminator 2
 9533 0019 488B45E8 		movq	-24(%rbp), %rax
 9534 001d 4889C7   		movq	%rax, %rdi
 9535 0020 E8000000 		call	_ZdlPv@PLT
 9535      00
 9536 0025 EB1A     		jmp	.L551
 9537              	.L550:
 9538 0027 4889C3   		movq	%rax, %rbx
 134:testHexIO.cpp **** 	Buffer data;
 9539              		.loc 4 134 0
 9540 002a 488B45E8 		movq	-24(%rbp), %rax
 9541 002e 4889C7   		movq	%rax, %rdi
 9542 0031 E8000000 		call	_ZdlPv@PLT
 9542      00
 9543 0036 4889D8   		movq	%rbx, %rax
 9544 0039 4889C7   		movq	%rax, %rdi
 9545              	.LEHB353:
 9546 003c E8000000 		call	_Unwind_Resume@PLT
 9546      00
 9547              	.LEHE353:
 9548              	.L551:
 9549 0041 4883C418 		addq	$24, %rsp
 9550 0045 5B       		popq	%rbx
 9551 0046 5D       		popq	%rbp
 9552              		.cfi_def_cfa 7, 8
 9553 0047 C3       		ret
 9554              		.cfi_endproc
 9555              	.LFE1364:
 9556              		.section	.gcc_except_table
 9557              	.LLSDA1364:
 9558 0862 FF       		.byte	0xff
 9559 0863 FF       		.byte	0xff
 9560 0864 01       		.byte	0x1
 9561 0865 08       		.uleb128 .LLSDACSE1364-.LLSDACSB1364
 9562              	.LLSDACSB1364:
 9563 0866 14       		.uleb128 .LEHB352-.LFB1364
 9564 0867 05       		.uleb128 .LEHE352-.LEHB352
 9565 0868 27       		.uleb128 .L550-.LFB1364
 9566 0869 00       		.uleb128 0
 9567 086a 3C       		.uleb128 .LEHB353-.LFB1364
 9568 086b 05       		.uleb128 .LEHE353-.LEHB353
 9569 086c 00       		.uleb128 0
 9570 086d 00       		.uleb128 0
 9571              	.LLSDACSE1364:
 9572              		.section	.text._ZN26TestHexIO_testJunkDataByteD0Ev,"axG",@progbits,_ZN26TestHexIO_testJunkDataByte
 9574              		.weak	_ZTV25TestHexIO_testJunkRecType
 9575              		.section	.data.rel.ro.local._ZTV25TestHexIO_testJunkRecType,"awG",@progbits,_ZTV25TestHexIO_testJu
 9576              		.align 8
 9579              	_ZTV25TestHexIO_testJunkRecType:
 9580 0000 00000000 		.quad	0
 9580      00000000 
 9581 0008 00000000 		.quad	_ZTI25TestHexIO_testJunkRecType
 9581      00000000 
 9582 0010 00000000 		.quad	_ZN25TestHexIO_testJunkRecTypeD1Ev
 9582      00000000 
 9583 0018 00000000 		.quad	_ZN25TestHexIO_testJunkRecTypeD0Ev
 9583      00000000 
 9584 0020 00000000 		.quad	_ZNK25TestHexIO_testJunkRecType7RunImplEv
 9584      00000000 
 9585              		.section	.text._ZN25TestHexIO_testJunkRecTypeD2Ev,"axG",@progbits,_ZN25TestHexIO_testJunkRecTypeD5
 9586              		.align 2
 9587              		.weak	_ZN25TestHexIO_testJunkRecTypeD2Ev
 9589              	_ZN25TestHexIO_testJunkRecTypeD2Ev:
 9590              	.LFB1366:
 121:testHexIO.cpp **** 	Buffer data;
 9591              		.loc 4 121 0 is_stmt 1
 9592              		.cfi_startproc
 9593 0000 55       		pushq	%rbp
 9594              		.cfi_def_cfa_offset 16
 9595              		.cfi_offset 6, -16
 9596 0001 4889E5   		movq	%rsp, %rbp
 9597              		.cfi_def_cfa_register 6
 9598 0004 4883EC10 		subq	$16, %rsp
 9599 0008 48897DF8 		movq	%rdi, -8(%rbp)
 9600              	.LBB70:
 121:testHexIO.cpp **** 	Buffer data;
 9601              		.loc 4 121 0
 9602 000c 488D1500 		leaq	16+_ZTV25TestHexIO_testJunkRecType(%rip), %rdx
 9602      000000
 9603 0013 488B45F8 		movq	-8(%rbp), %rax
 9604 0017 488910   		movq	%rdx, (%rax)
 9605 001a 488B45F8 		movq	-8(%rbp), %rax
 9606 001e 4889C7   		movq	%rax, %rdi
 9607 0021 E8000000 		call	_ZN8UnitTest4TestD2Ev@PLT
 9607      00
 9608              	.LBE70:
 9609 0026 90       		nop
 9610 0027 C9       		leave
 9611              		.cfi_def_cfa 7, 8
 9612 0028 C3       		ret
 9613              		.cfi_endproc
 9614              	.LFE1366:
 9616              		.weak	_ZN25TestHexIO_testJunkRecTypeD1Ev
 9617              		.set	_ZN25TestHexIO_testJunkRecTypeD1Ev,_ZN25TestHexIO_testJunkRecTypeD2Ev
 9618              		.section	.text._ZN25TestHexIO_testJunkRecTypeD0Ev,"axG",@progbits,_ZN25TestHexIO_testJunkRecTypeD5
 9619              		.align 2
 9620              		.weak	_ZN25TestHexIO_testJunkRecTypeD0Ev
 9622              	_ZN25TestHexIO_testJunkRecTypeD0Ev:
 9623              	.LFB1368:
 121:testHexIO.cpp **** 	Buffer data;
 9624              		.loc 4 121 0
 9625              		.cfi_startproc
 9626              		.cfi_personality 0x9b,DW.ref.__gxx_personality_v0
 9627              		.cfi_lsda 0x1b,.LLSDA1368
 9628 0000 55       		pushq	%rbp
 9629              		.cfi_def_cfa_offset 16
 9630              		.cfi_offset 6, -16
 9631 0001 4889E5   		movq	%rsp, %rbp
 9632              		.cfi_def_cfa_register 6
 9633 0004 53       		pushq	%rbx
 9634 0005 4883EC18 		subq	$24, %rsp
 9635              		.cfi_offset 3, -24
 9636 0009 48897DE8 		movq	%rdi, -24(%rbp)
 121:testHexIO.cpp **** 	Buffer data;
 9637              		.loc 4 121 0
 9638 000d 488B45E8 		movq	-24(%rbp), %rax
 9639 0011 4889C7   		movq	%rax, %rdi
 9640              	.LEHB354:
 9641 0014 E8000000 		call	_ZN25TestHexIO_testJunkRecTypeD1Ev
 9641      00
 9642              	.LEHE354:
 121:testHexIO.cpp **** 	Buffer data;
 9643              		.loc 4 121 0 is_stmt 0 discriminator 2
 9644 0019 488B45E8 		movq	-24(%rbp), %rax
 9645 001d 4889C7   		movq	%rax, %rdi
 9646 0020 E8000000 		call	_ZdlPv@PLT
 9646      00
 9647 0025 EB1A     		jmp	.L556
 9648              	.L555:
 9649 0027 4889C3   		movq	%rax, %rbx
 121:testHexIO.cpp **** 	Buffer data;
 9650              		.loc 4 121 0
 9651 002a 488B45E8 		movq	-24(%rbp), %rax
 9652 002e 4889C7   		movq	%rax, %rdi
 9653 0031 E8000000 		call	_ZdlPv@PLT
 9653      00
 9654 0036 4889D8   		movq	%rbx, %rax
 9655 0039 4889C7   		movq	%rax, %rdi
 9656              	.LEHB355:
 9657 003c E8000000 		call	_Unwind_Resume@PLT
 9657      00
 9658              	.LEHE355:
 9659              	.L556:
 9660 0041 4883C418 		addq	$24, %rsp
 9661 0045 5B       		popq	%rbx
 9662 0046 5D       		popq	%rbp
 9663              		.cfi_def_cfa 7, 8
 9664 0047 C3       		ret
 9665              		.cfi_endproc
 9666              	.LFE1368:
 9667              		.section	.gcc_except_table
 9668              	.LLSDA1368:
 9669 086e FF       		.byte	0xff
 9670 086f FF       		.byte	0xff
 9671 0870 01       		.byte	0x1
 9672 0871 08       		.uleb128 .LLSDACSE1368-.LLSDACSB1368
 9673              	.LLSDACSB1368:
 9674 0872 14       		.uleb128 .LEHB354-.LFB1368
 9675 0873 05       		.uleb128 .LEHE354-.LEHB354
 9676 0874 27       		.uleb128 .L555-.LFB1368
 9677 0875 00       		.uleb128 0
 9678 0876 3C       		.uleb128 .LEHB355-.LFB1368
 9679 0877 05       		.uleb128 .LEHE355-.LEHB355
 9680 0878 00       		.uleb128 0
 9681 0879 00       		.uleb128 0
 9682              	.LLSDACSE1368:
 9683              		.section	.text._ZN25TestHexIO_testJunkRecTypeD0Ev,"axG",@progbits,_ZN25TestHexIO_testJunkRecTypeD5
 9685              		.weak	_ZTV25TestHexIO_testJunkAddrLsb
 9686              		.section	.data.rel.ro.local._ZTV25TestHexIO_testJunkAddrLsb,"awG",@progbits,_ZTV25TestHexIO_testJu
 9687              		.align 8
 9690              	_ZTV25TestHexIO_testJunkAddrLsb:
 9691 0000 00000000 		.quad	0
 9691      00000000 
 9692 0008 00000000 		.quad	_ZTI25TestHexIO_testJunkAddrLsb
 9692      00000000 
 9693 0010 00000000 		.quad	_ZN25TestHexIO_testJunkAddrLsbD1Ev
 9693      00000000 
 9694 0018 00000000 		.quad	_ZN25TestHexIO_testJunkAddrLsbD0Ev
 9694      00000000 
 9695 0020 00000000 		.quad	_ZNK25TestHexIO_testJunkAddrLsb7RunImplEv
 9695      00000000 
 9696              		.section	.text._ZN25TestHexIO_testJunkAddrLsbD2Ev,"axG",@progbits,_ZN25TestHexIO_testJunkAddrLsbD5
 9697              		.align 2
 9698              		.weak	_ZN25TestHexIO_testJunkAddrLsbD2Ev
 9700              	_ZN25TestHexIO_testJunkAddrLsbD2Ev:
 9701              	.LFB1370:
 108:testHexIO.cpp **** 	Buffer data;
 9702              		.loc 4 108 0 is_stmt 1
 9703              		.cfi_startproc
 9704 0000 55       		pushq	%rbp
 9705              		.cfi_def_cfa_offset 16
 9706              		.cfi_offset 6, -16
 9707 0001 4889E5   		movq	%rsp, %rbp
 9708              		.cfi_def_cfa_register 6
 9709 0004 4883EC10 		subq	$16, %rsp
 9710 0008 48897DF8 		movq	%rdi, -8(%rbp)
 9711              	.LBB71:
 108:testHexIO.cpp **** 	Buffer data;
 9712              		.loc 4 108 0
 9713 000c 488D1500 		leaq	16+_ZTV25TestHexIO_testJunkAddrLsb(%rip), %rdx
 9713      000000
 9714 0013 488B45F8 		movq	-8(%rbp), %rax
 9715 0017 488910   		movq	%rdx, (%rax)
 9716 001a 488B45F8 		movq	-8(%rbp), %rax
 9717 001e 4889C7   		movq	%rax, %rdi
 9718 0021 E8000000 		call	_ZN8UnitTest4TestD2Ev@PLT
 9718      00
 9719              	.LBE71:
 9720 0026 90       		nop
 9721 0027 C9       		leave
 9722              		.cfi_def_cfa 7, 8
 9723 0028 C3       		ret
 9724              		.cfi_endproc
 9725              	.LFE1370:
 9727              		.weak	_ZN25TestHexIO_testJunkAddrLsbD1Ev
 9728              		.set	_ZN25TestHexIO_testJunkAddrLsbD1Ev,_ZN25TestHexIO_testJunkAddrLsbD2Ev
 9729              		.section	.text._ZN25TestHexIO_testJunkAddrLsbD0Ev,"axG",@progbits,_ZN25TestHexIO_testJunkAddrLsbD5
 9730              		.align 2
 9731              		.weak	_ZN25TestHexIO_testJunkAddrLsbD0Ev
 9733              	_ZN25TestHexIO_testJunkAddrLsbD0Ev:
 9734              	.LFB1372:
 108:testHexIO.cpp **** 	Buffer data;
 9735              		.loc 4 108 0
 9736              		.cfi_startproc
 9737              		.cfi_personality 0x9b,DW.ref.__gxx_personality_v0
 9738              		.cfi_lsda 0x1b,.LLSDA1372
 9739 0000 55       		pushq	%rbp
 9740              		.cfi_def_cfa_offset 16
 9741              		.cfi_offset 6, -16
 9742 0001 4889E5   		movq	%rsp, %rbp
 9743              		.cfi_def_cfa_register 6
 9744 0004 53       		pushq	%rbx
 9745 0005 4883EC18 		subq	$24, %rsp
 9746              		.cfi_offset 3, -24
 9747 0009 48897DE8 		movq	%rdi, -24(%rbp)
 108:testHexIO.cpp **** 	Buffer data;
 9748              		.loc 4 108 0
 9749 000d 488B45E8 		movq	-24(%rbp), %rax
 9750 0011 4889C7   		movq	%rax, %rdi
 9751              	.LEHB356:
 9752 0014 E8000000 		call	_ZN25TestHexIO_testJunkAddrLsbD1Ev
 9752      00
 9753              	.LEHE356:
 108:testHexIO.cpp **** 	Buffer data;
 9754              		.loc 4 108 0 is_stmt 0 discriminator 2
 9755 0019 488B45E8 		movq	-24(%rbp), %rax
 9756 001d 4889C7   		movq	%rax, %rdi
 9757 0020 E8000000 		call	_ZdlPv@PLT
 9757      00
 9758 0025 EB1A     		jmp	.L561
 9759              	.L560:
 9760 0027 4889C3   		movq	%rax, %rbx
 108:testHexIO.cpp **** 	Buffer data;
 9761              		.loc 4 108 0
 9762 002a 488B45E8 		movq	-24(%rbp), %rax
 9763 002e 4889C7   		movq	%rax, %rdi
 9764 0031 E8000000 		call	_ZdlPv@PLT
 9764      00
 9765 0036 4889D8   		movq	%rbx, %rax
 9766 0039 4889C7   		movq	%rax, %rdi
 9767              	.LEHB357:
 9768 003c E8000000 		call	_Unwind_Resume@PLT
 9768      00
 9769              	.LEHE357:
 9770              	.L561:
 9771 0041 4883C418 		addq	$24, %rsp
 9772 0045 5B       		popq	%rbx
 9773 0046 5D       		popq	%rbp
 9774              		.cfi_def_cfa 7, 8
 9775 0047 C3       		ret
 9776              		.cfi_endproc
 9777              	.LFE1372:
 9778              		.section	.gcc_except_table
 9779              	.LLSDA1372:
 9780 087a FF       		.byte	0xff
 9781 087b FF       		.byte	0xff
 9782 087c 01       		.byte	0x1
 9783 087d 08       		.uleb128 .LLSDACSE1372-.LLSDACSB1372
 9784              	.LLSDACSB1372:
 9785 087e 14       		.uleb128 .LEHB356-.LFB1372
 9786 087f 05       		.uleb128 .LEHE356-.LEHB356
 9787 0880 27       		.uleb128 .L560-.LFB1372
 9788 0881 00       		.uleb128 0
 9789 0882 3C       		.uleb128 .LEHB357-.LFB1372
 9790 0883 05       		.uleb128 .LEHE357-.LEHB357
 9791 0884 00       		.uleb128 0
 9792 0885 00       		.uleb128 0
 9793              	.LLSDACSE1372:
 9794              		.section	.text._ZN25TestHexIO_testJunkAddrLsbD0Ev,"axG",@progbits,_ZN25TestHexIO_testJunkAddrLsbD5
 9796              		.weak	_ZTV25TestHexIO_testJunkAddrMsb
 9797              		.section	.data.rel.ro.local._ZTV25TestHexIO_testJunkAddrMsb,"awG",@progbits,_ZTV25TestHexIO_testJu
 9798              		.align 8
 9801              	_ZTV25TestHexIO_testJunkAddrMsb:
 9802 0000 00000000 		.quad	0
 9802      00000000 
 9803 0008 00000000 		.quad	_ZTI25TestHexIO_testJunkAddrMsb
 9803      00000000 
 9804 0010 00000000 		.quad	_ZN25TestHexIO_testJunkAddrMsbD1Ev
 9804      00000000 
 9805 0018 00000000 		.quad	_ZN25TestHexIO_testJunkAddrMsbD0Ev
 9805      00000000 
 9806 0020 00000000 		.quad	_ZNK25TestHexIO_testJunkAddrMsb7RunImplEv
 9806      00000000 
 9807              		.section	.text._ZN25TestHexIO_testJunkAddrMsbD2Ev,"axG",@progbits,_ZN25TestHexIO_testJunkAddrMsbD5
 9808              		.align 2
 9809              		.weak	_ZN25TestHexIO_testJunkAddrMsbD2Ev
 9811              	_ZN25TestHexIO_testJunkAddrMsbD2Ev:
 9812              	.LFB1374:
  95:testHexIO.cpp **** 	Buffer data;
 9813              		.loc 4 95 0 is_stmt 1
 9814              		.cfi_startproc
 9815 0000 55       		pushq	%rbp
 9816              		.cfi_def_cfa_offset 16
 9817              		.cfi_offset 6, -16
 9818 0001 4889E5   		movq	%rsp, %rbp
 9819              		.cfi_def_cfa_register 6
 9820 0004 4883EC10 		subq	$16, %rsp
 9821 0008 48897DF8 		movq	%rdi, -8(%rbp)
 9822              	.LBB72:
  95:testHexIO.cpp **** 	Buffer data;
 9823              		.loc 4 95 0
 9824 000c 488D1500 		leaq	16+_ZTV25TestHexIO_testJunkAddrMsb(%rip), %rdx
 9824      000000
 9825 0013 488B45F8 		movq	-8(%rbp), %rax
 9826 0017 488910   		movq	%rdx, (%rax)
 9827 001a 488B45F8 		movq	-8(%rbp), %rax
 9828 001e 4889C7   		movq	%rax, %rdi
 9829 0021 E8000000 		call	_ZN8UnitTest4TestD2Ev@PLT
 9829      00
 9830              	.LBE72:
 9831 0026 90       		nop
 9832 0027 C9       		leave
 9833              		.cfi_def_cfa 7, 8
 9834 0028 C3       		ret
 9835              		.cfi_endproc
 9836              	.LFE1374:
 9838              		.weak	_ZN25TestHexIO_testJunkAddrMsbD1Ev
 9839              		.set	_ZN25TestHexIO_testJunkAddrMsbD1Ev,_ZN25TestHexIO_testJunkAddrMsbD2Ev
 9840              		.section	.text._ZN25TestHexIO_testJunkAddrMsbD0Ev,"axG",@progbits,_ZN25TestHexIO_testJunkAddrMsbD5
 9841              		.align 2
 9842              		.weak	_ZN25TestHexIO_testJunkAddrMsbD0Ev
 9844              	_ZN25TestHexIO_testJunkAddrMsbD0Ev:
 9845              	.LFB1376:
  95:testHexIO.cpp **** 	Buffer data;
 9846              		.loc 4 95 0
 9847              		.cfi_startproc
 9848              		.cfi_personality 0x9b,DW.ref.__gxx_personality_v0
 9849              		.cfi_lsda 0x1b,.LLSDA1376
 9850 0000 55       		pushq	%rbp
 9851              		.cfi_def_cfa_offset 16
 9852              		.cfi_offset 6, -16
 9853 0001 4889E5   		movq	%rsp, %rbp
 9854              		.cfi_def_cfa_register 6
 9855 0004 53       		pushq	%rbx
 9856 0005 4883EC18 		subq	$24, %rsp
 9857              		.cfi_offset 3, -24
 9858 0009 48897DE8 		movq	%rdi, -24(%rbp)
  95:testHexIO.cpp **** 	Buffer data;
 9859              		.loc 4 95 0
 9860 000d 488B45E8 		movq	-24(%rbp), %rax
 9861 0011 4889C7   		movq	%rax, %rdi
 9862              	.LEHB358:
 9863 0014 E8000000 		call	_ZN25TestHexIO_testJunkAddrMsbD1Ev
 9863      00
 9864              	.LEHE358:
  95:testHexIO.cpp **** 	Buffer data;
 9865              		.loc 4 95 0 is_stmt 0 discriminator 2
 9866 0019 488B45E8 		movq	-24(%rbp), %rax
 9867 001d 4889C7   		movq	%rax, %rdi
 9868 0020 E8000000 		call	_ZdlPv@PLT
 9868      00
 9869 0025 EB1A     		jmp	.L566
 9870              	.L565:
 9871 0027 4889C3   		movq	%rax, %rbx
  95:testHexIO.cpp **** 	Buffer data;
 9872              		.loc 4 95 0
 9873 002a 488B45E8 		movq	-24(%rbp), %rax
 9874 002e 4889C7   		movq	%rax, %rdi
 9875 0031 E8000000 		call	_ZdlPv@PLT
 9875      00
 9876 0036 4889D8   		movq	%rbx, %rax
 9877 0039 4889C7   		movq	%rax, %rdi
 9878              	.LEHB359:
 9879 003c E8000000 		call	_Unwind_Resume@PLT
 9879      00
 9880              	.LEHE359:
 9881              	.L566:
 9882 0041 4883C418 		addq	$24, %rsp
 9883 0045 5B       		popq	%rbx
 9884 0046 5D       		popq	%rbp
 9885              		.cfi_def_cfa 7, 8
 9886 0047 C3       		ret
 9887              		.cfi_endproc
 9888              	.LFE1376:
 9889              		.section	.gcc_except_table
 9890              	.LLSDA1376:
 9891 0886 FF       		.byte	0xff
 9892 0887 FF       		.byte	0xff
 9893 0888 01       		.byte	0x1
 9894 0889 08       		.uleb128 .LLSDACSE1376-.LLSDACSB1376
 9895              	.LLSDACSB1376:
 9896 088a 14       		.uleb128 .LEHB358-.LFB1376
 9897 088b 05       		.uleb128 .LEHE358-.LEHB358
 9898 088c 27       		.uleb128 .L565-.LFB1376
 9899 088d 00       		.uleb128 0
 9900 088e 3C       		.uleb128 .LEHB359-.LFB1376
 9901 088f 05       		.uleb128 .LEHE359-.LEHB359
 9902 0890 00       		.uleb128 0
 9903 0891 00       		.uleb128 0
 9904              	.LLSDACSE1376:
 9905              		.section	.text._ZN25TestHexIO_testJunkAddrMsbD0Ev,"axG",@progbits,_ZN25TestHexIO_testJunkAddrMsbD5
 9907              		.weak	_ZTV27TestHexIO_testJunkByteCount
 9908              		.section	.data.rel.ro.local._ZTV27TestHexIO_testJunkByteCount,"awG",@progbits,_ZTV27TestHexIO_test
 9909              		.align 8
 9912              	_ZTV27TestHexIO_testJunkByteCount:
 9913 0000 00000000 		.quad	0
 9913      00000000 
 9914 0008 00000000 		.quad	_ZTI27TestHexIO_testJunkByteCount
 9914      00000000 
 9915 0010 00000000 		.quad	_ZN27TestHexIO_testJunkByteCountD1Ev
 9915      00000000 
 9916 0018 00000000 		.quad	_ZN27TestHexIO_testJunkByteCountD0Ev
 9916      00000000 
 9917 0020 00000000 		.quad	_ZNK27TestHexIO_testJunkByteCount7RunImplEv
 9917      00000000 
 9918              		.section	.text._ZN27TestHexIO_testJunkByteCountD2Ev,"axG",@progbits,_ZN27TestHexIO_testJunkByteCou
 9919              		.align 2
 9920              		.weak	_ZN27TestHexIO_testJunkByteCountD2Ev
 9922              	_ZN27TestHexIO_testJunkByteCountD2Ev:
 9923              	.LFB1378:
  82:testHexIO.cpp **** 	Buffer data;
 9924              		.loc 4 82 0 is_stmt 1
 9925              		.cfi_startproc
 9926 0000 55       		pushq	%rbp
 9927              		.cfi_def_cfa_offset 16
 9928              		.cfi_offset 6, -16
 9929 0001 4889E5   		movq	%rsp, %rbp
 9930              		.cfi_def_cfa_register 6
 9931 0004 4883EC10 		subq	$16, %rsp
 9932 0008 48897DF8 		movq	%rdi, -8(%rbp)
 9933              	.LBB73:
  82:testHexIO.cpp **** 	Buffer data;
 9934              		.loc 4 82 0
 9935 000c 488D1500 		leaq	16+_ZTV27TestHexIO_testJunkByteCount(%rip), %rdx
 9935      000000
 9936 0013 488B45F8 		movq	-8(%rbp), %rax
 9937 0017 488910   		movq	%rdx, (%rax)
 9938 001a 488B45F8 		movq	-8(%rbp), %rax
 9939 001e 4889C7   		movq	%rax, %rdi
 9940 0021 E8000000 		call	_ZN8UnitTest4TestD2Ev@PLT
 9940      00
 9941              	.LBE73:
 9942 0026 90       		nop
 9943 0027 C9       		leave
 9944              		.cfi_def_cfa 7, 8
 9945 0028 C3       		ret
 9946              		.cfi_endproc
 9947              	.LFE1378:
 9949              		.weak	_ZN27TestHexIO_testJunkByteCountD1Ev
 9950              		.set	_ZN27TestHexIO_testJunkByteCountD1Ev,_ZN27TestHexIO_testJunkByteCountD2Ev
 9951              		.section	.text._ZN27TestHexIO_testJunkByteCountD0Ev,"axG",@progbits,_ZN27TestHexIO_testJunkByteCou
 9952              		.align 2
 9953              		.weak	_ZN27TestHexIO_testJunkByteCountD0Ev
 9955              	_ZN27TestHexIO_testJunkByteCountD0Ev:
 9956              	.LFB1380:
  82:testHexIO.cpp **** 	Buffer data;
 9957              		.loc 4 82 0
 9958              		.cfi_startproc
 9959              		.cfi_personality 0x9b,DW.ref.__gxx_personality_v0
 9960              		.cfi_lsda 0x1b,.LLSDA1380
 9961 0000 55       		pushq	%rbp
 9962              		.cfi_def_cfa_offset 16
 9963              		.cfi_offset 6, -16
 9964 0001 4889E5   		movq	%rsp, %rbp
 9965              		.cfi_def_cfa_register 6
 9966 0004 53       		pushq	%rbx
 9967 0005 4883EC18 		subq	$24, %rsp
 9968              		.cfi_offset 3, -24
 9969 0009 48897DE8 		movq	%rdi, -24(%rbp)
  82:testHexIO.cpp **** 	Buffer data;
 9970              		.loc 4 82 0
 9971 000d 488B45E8 		movq	-24(%rbp), %rax
 9972 0011 4889C7   		movq	%rax, %rdi
 9973              	.LEHB360:
 9974 0014 E8000000 		call	_ZN27TestHexIO_testJunkByteCountD1Ev
 9974      00
 9975              	.LEHE360:
  82:testHexIO.cpp **** 	Buffer data;
 9976              		.loc 4 82 0 is_stmt 0 discriminator 2
 9977 0019 488B45E8 		movq	-24(%rbp), %rax
 9978 001d 4889C7   		movq	%rax, %rdi
 9979 0020 E8000000 		call	_ZdlPv@PLT
 9979      00
 9980 0025 EB1A     		jmp	.L571
 9981              	.L570:
 9982 0027 4889C3   		movq	%rax, %rbx
  82:testHexIO.cpp **** 	Buffer data;
 9983              		.loc 4 82 0
 9984 002a 488B45E8 		movq	-24(%rbp), %rax
 9985 002e 4889C7   		movq	%rax, %rdi
 9986 0031 E8000000 		call	_ZdlPv@PLT
 9986      00
 9987 0036 4889D8   		movq	%rbx, %rax
 9988 0039 4889C7   		movq	%rax, %rdi
 9989              	.LEHB361:
 9990 003c E8000000 		call	_Unwind_Resume@PLT
 9990      00
 9991              	.LEHE361:
 9992              	.L571:
 9993 0041 4883C418 		addq	$24, %rsp
 9994 0045 5B       		popq	%rbx
 9995 0046 5D       		popq	%rbp
 9996              		.cfi_def_cfa 7, 8
 9997 0047 C3       		ret
 9998              		.cfi_endproc
 9999              	.LFE1380:
 10000              		.section	.gcc_except_table
 10001              	.LLSDA1380:
 10002 0892 FF       		.byte	0xff
 10003 0893 FF       		.byte	0xff
 10004 0894 01       		.byte	0x1
 10005 0895 08       		.uleb128 .LLSDACSE1380-.LLSDACSB1380
 10006              	.LLSDACSB1380:
 10007 0896 14       		.uleb128 .LEHB360-.LFB1380
 10008 0897 05       		.uleb128 .LEHE360-.LEHB360
 10009 0898 27       		.uleb128 .L570-.LFB1380
 10010 0899 00       		.uleb128 0
 10011 089a 3C       		.uleb128 .LEHB361-.LFB1380
 10012 089b 05       		.uleb128 .LEHE361-.LEHB361
 10013 089c 00       		.uleb128 0
 10014 089d 00       		.uleb128 0
 10015              	.LLSDACSE1380:
 10016              		.section	.text._ZN27TestHexIO_testJunkByteCountD0Ev,"axG",@progbits,_ZN27TestHexIO_testJunkByteCou
 10018              		.weak	_ZTV27TestHexIO_testJunkStartCode
 10019              		.section	.data.rel.ro.local._ZTV27TestHexIO_testJunkStartCode,"awG",@progbits,_ZTV27TestHexIO_test
 10020              		.align 8
 10023              	_ZTV27TestHexIO_testJunkStartCode:
 10024 0000 00000000 		.quad	0
 10024      00000000 
 10025 0008 00000000 		.quad	_ZTI27TestHexIO_testJunkStartCode
 10025      00000000 
 10026 0010 00000000 		.quad	_ZN27TestHexIO_testJunkStartCodeD1Ev
 10026      00000000 
 10027 0018 00000000 		.quad	_ZN27TestHexIO_testJunkStartCodeD0Ev
 10027      00000000 
 10028 0020 00000000 		.quad	_ZNK27TestHexIO_testJunkStartCode7RunImplEv
 10028      00000000 
 10029              		.section	.text._ZN27TestHexIO_testJunkStartCodeD2Ev,"axG",@progbits,_ZN27TestHexIO_testJunkStartCo
 10030              		.align 2
 10031              		.weak	_ZN27TestHexIO_testJunkStartCodeD2Ev
 10033              	_ZN27TestHexIO_testJunkStartCodeD2Ev:
 10034              	.LFB1382:
  69:testHexIO.cpp **** 	Buffer data;
 10035              		.loc 4 69 0 is_stmt 1
 10036              		.cfi_startproc
 10037 0000 55       		pushq	%rbp
 10038              		.cfi_def_cfa_offset 16
 10039              		.cfi_offset 6, -16
 10040 0001 4889E5   		movq	%rsp, %rbp
 10041              		.cfi_def_cfa_register 6
 10042 0004 4883EC10 		subq	$16, %rsp
 10043 0008 48897DF8 		movq	%rdi, -8(%rbp)
 10044              	.LBB74:
  69:testHexIO.cpp **** 	Buffer data;
 10045              		.loc 4 69 0
 10046 000c 488D1500 		leaq	16+_ZTV27TestHexIO_testJunkStartCode(%rip), %rdx
 10046      000000
 10047 0013 488B45F8 		movq	-8(%rbp), %rax
 10048 0017 488910   		movq	%rdx, (%rax)
 10049 001a 488B45F8 		movq	-8(%rbp), %rax
 10050 001e 4889C7   		movq	%rax, %rdi
 10051 0021 E8000000 		call	_ZN8UnitTest4TestD2Ev@PLT
 10051      00
 10052              	.LBE74:
 10053 0026 90       		nop
 10054 0027 C9       		leave
 10055              		.cfi_def_cfa 7, 8
 10056 0028 C3       		ret
 10057              		.cfi_endproc
 10058              	.LFE1382:
 10060              		.weak	_ZN27TestHexIO_testJunkStartCodeD1Ev
 10061              		.set	_ZN27TestHexIO_testJunkStartCodeD1Ev,_ZN27TestHexIO_testJunkStartCodeD2Ev
 10062              		.section	.text._ZN27TestHexIO_testJunkStartCodeD0Ev,"axG",@progbits,_ZN27TestHexIO_testJunkStartCo
 10063              		.align 2
 10064              		.weak	_ZN27TestHexIO_testJunkStartCodeD0Ev
 10066              	_ZN27TestHexIO_testJunkStartCodeD0Ev:
 10067              	.LFB1384:
  69:testHexIO.cpp **** 	Buffer data;
 10068              		.loc 4 69 0
 10069              		.cfi_startproc
 10070              		.cfi_personality 0x9b,DW.ref.__gxx_personality_v0
 10071              		.cfi_lsda 0x1b,.LLSDA1384
 10072 0000 55       		pushq	%rbp
 10073              		.cfi_def_cfa_offset 16
 10074              		.cfi_offset 6, -16
 10075 0001 4889E5   		movq	%rsp, %rbp
 10076              		.cfi_def_cfa_register 6
 10077 0004 53       		pushq	%rbx
 10078 0005 4883EC18 		subq	$24, %rsp
 10079              		.cfi_offset 3, -24
 10080 0009 48897DE8 		movq	%rdi, -24(%rbp)
  69:testHexIO.cpp **** 	Buffer data;
 10081              		.loc 4 69 0
 10082 000d 488B45E8 		movq	-24(%rbp), %rax
 10083 0011 4889C7   		movq	%rax, %rdi
 10084              	.LEHB362:
 10085 0014 E8000000 		call	_ZN27TestHexIO_testJunkStartCodeD1Ev
 10085      00
 10086              	.LEHE362:
  69:testHexIO.cpp **** 	Buffer data;
 10087              		.loc 4 69 0 is_stmt 0 discriminator 2
 10088 0019 488B45E8 		movq	-24(%rbp), %rax
 10089 001d 4889C7   		movq	%rax, %rdi
 10090 0020 E8000000 		call	_ZdlPv@PLT
 10090      00
 10091 0025 EB1A     		jmp	.L576
 10092              	.L575:
 10093 0027 4889C3   		movq	%rax, %rbx
  69:testHexIO.cpp **** 	Buffer data;
 10094              		.loc 4 69 0
 10095 002a 488B45E8 		movq	-24(%rbp), %rax
 10096 002e 4889C7   		movq	%rax, %rdi
 10097 0031 E8000000 		call	_ZdlPv@PLT
 10097      00
 10098 0036 4889D8   		movq	%rbx, %rax
 10099 0039 4889C7   		movq	%rax, %rdi
 10100              	.LEHB363:
 10101 003c E8000000 		call	_Unwind_Resume@PLT
 10101      00
 10102              	.LEHE363:
 10103              	.L576:
 10104 0041 4883C418 		addq	$24, %rsp
 10105 0045 5B       		popq	%rbx
 10106 0046 5D       		popq	%rbp
 10107              		.cfi_def_cfa 7, 8
 10108 0047 C3       		ret
 10109              		.cfi_endproc
 10110              	.LFE1384:
 10111              		.section	.gcc_except_table
 10112              	.LLSDA1384:
 10113 089e FF       		.byte	0xff
 10114 089f FF       		.byte	0xff
 10115 08a0 01       		.byte	0x1
 10116 08a1 08       		.uleb128 .LLSDACSE1384-.LLSDACSB1384
 10117              	.LLSDACSB1384:
 10118 08a2 14       		.uleb128 .LEHB362-.LFB1384
 10119 08a3 05       		.uleb128 .LEHE362-.LEHB362
 10120 08a4 27       		.uleb128 .L575-.LFB1384
 10121 08a5 00       		.uleb128 0
 10122 08a6 3C       		.uleb128 .LEHB363-.LFB1384
 10123 08a7 05       		.uleb128 .LEHE363-.LEHB363
 10124 08a8 00       		.uleb128 0
 10125 08a9 00       		.uleb128 0
 10126              	.LLSDACSE1384:
 10127              		.section	.text._ZN27TestHexIO_testJunkStartCodeD0Ev,"axG",@progbits,_ZN27TestHexIO_testJunkStartCo
 10129              		.weak	_ZTV22TestHexIO_testValidEOF
 10130              		.section	.data.rel.ro.local._ZTV22TestHexIO_testValidEOF,"awG",@progbits,_ZTV22TestHexIO_testValid
 10131              		.align 8
 10134              	_ZTV22TestHexIO_testValidEOF:
 10135 0000 00000000 		.quad	0
 10135      00000000 
 10136 0008 00000000 		.quad	_ZTI22TestHexIO_testValidEOF
 10136      00000000 
 10137 0010 00000000 		.quad	_ZN22TestHexIO_testValidEOFD1Ev
 10137      00000000 
 10138 0018 00000000 		.quad	_ZN22TestHexIO_testValidEOFD0Ev
 10138      00000000 
 10139 0020 00000000 		.quad	_ZNK22TestHexIO_testValidEOF7RunImplEv
 10139      00000000 
 10140              		.section	.text._ZN22TestHexIO_testValidEOFD2Ev,"axG",@progbits,_ZN22TestHexIO_testValidEOFD5Ev,com
 10141              		.align 2
 10142              		.weak	_ZN22TestHexIO_testValidEOFD2Ev
 10144              	_ZN22TestHexIO_testValidEOFD2Ev:
 10145              	.LFB1386:
  50:testHexIO.cpp **** 	Buffer data, mask;
 10146              		.loc 4 50 0 is_stmt 1
 10147              		.cfi_startproc
 10148 0000 55       		pushq	%rbp
 10149              		.cfi_def_cfa_offset 16
 10150              		.cfi_offset 6, -16
 10151 0001 4889E5   		movq	%rsp, %rbp
 10152              		.cfi_def_cfa_register 6
 10153 0004 4883EC10 		subq	$16, %rsp
 10154 0008 48897DF8 		movq	%rdi, -8(%rbp)
 10155              	.LBB75:
  50:testHexIO.cpp **** 	Buffer data, mask;
 10156              		.loc 4 50 0
 10157 000c 488D1500 		leaq	16+_ZTV22TestHexIO_testValidEOF(%rip), %rdx
 10157      000000
 10158 0013 488B45F8 		movq	-8(%rbp), %rax
 10159 0017 488910   		movq	%rdx, (%rax)
 10160 001a 488B45F8 		movq	-8(%rbp), %rax
 10161 001e 4889C7   		movq	%rax, %rdi
 10162 0021 E8000000 		call	_ZN8UnitTest4TestD2Ev@PLT
 10162      00
 10163              	.LBE75:
 10164 0026 90       		nop
 10165 0027 C9       		leave
 10166              		.cfi_def_cfa 7, 8
 10167 0028 C3       		ret
 10168              		.cfi_endproc
 10169              	.LFE1386:
 10171              		.weak	_ZN22TestHexIO_testValidEOFD1Ev
 10172              		.set	_ZN22TestHexIO_testValidEOFD1Ev,_ZN22TestHexIO_testValidEOFD2Ev
 10173              		.section	.text._ZN22TestHexIO_testValidEOFD0Ev,"axG",@progbits,_ZN22TestHexIO_testValidEOFD5Ev,com
 10174              		.align 2
 10175              		.weak	_ZN22TestHexIO_testValidEOFD0Ev
 10177              	_ZN22TestHexIO_testValidEOFD0Ev:
 10178              	.LFB1388:
  50:testHexIO.cpp **** 	Buffer data, mask;
 10179              		.loc 4 50 0
 10180              		.cfi_startproc
 10181              		.cfi_personality 0x9b,DW.ref.__gxx_personality_v0
 10182              		.cfi_lsda 0x1b,.LLSDA1388
 10183 0000 55       		pushq	%rbp
 10184              		.cfi_def_cfa_offset 16
 10185              		.cfi_offset 6, -16
 10186 0001 4889E5   		movq	%rsp, %rbp
 10187              		.cfi_def_cfa_register 6
 10188 0004 53       		pushq	%rbx
 10189 0005 4883EC18 		subq	$24, %rsp
 10190              		.cfi_offset 3, -24
 10191 0009 48897DE8 		movq	%rdi, -24(%rbp)
  50:testHexIO.cpp **** 	Buffer data, mask;
 10192              		.loc 4 50 0
 10193 000d 488B45E8 		movq	-24(%rbp), %rax
 10194 0011 4889C7   		movq	%rax, %rdi
 10195              	.LEHB364:
 10196 0014 E8000000 		call	_ZN22TestHexIO_testValidEOFD1Ev
 10196      00
 10197              	.LEHE364:
  50:testHexIO.cpp **** 	Buffer data, mask;
 10198              		.loc 4 50 0 is_stmt 0 discriminator 2
 10199 0019 488B45E8 		movq	-24(%rbp), %rax
 10200 001d 4889C7   		movq	%rax, %rdi
 10201 0020 E8000000 		call	_ZdlPv@PLT
 10201      00
 10202 0025 EB1A     		jmp	.L581
 10203              	.L580:
 10204 0027 4889C3   		movq	%rax, %rbx
  50:testHexIO.cpp **** 	Buffer data, mask;
 10205              		.loc 4 50 0
 10206 002a 488B45E8 		movq	-24(%rbp), %rax
 10207 002e 4889C7   		movq	%rax, %rdi
 10208 0031 E8000000 		call	_ZdlPv@PLT
 10208      00
 10209 0036 4889D8   		movq	%rbx, %rax
 10210 0039 4889C7   		movq	%rax, %rdi
 10211              	.LEHB365:
 10212 003c E8000000 		call	_Unwind_Resume@PLT
 10212      00
 10213              	.LEHE365:
 10214              	.L581:
 10215 0041 4883C418 		addq	$24, %rsp
 10216 0045 5B       		popq	%rbx
 10217 0046 5D       		popq	%rbp
 10218              		.cfi_def_cfa 7, 8
 10219 0047 C3       		ret
 10220              		.cfi_endproc
 10221              	.LFE1388:
 10222              		.section	.gcc_except_table
 10223              	.LLSDA1388:
 10224 08aa FF       		.byte	0xff
 10225 08ab FF       		.byte	0xff
 10226 08ac 01       		.byte	0x1
 10227 08ad 08       		.uleb128 .LLSDACSE1388-.LLSDACSB1388
 10228              	.LLSDACSB1388:
 10229 08ae 14       		.uleb128 .LEHB364-.LFB1388
 10230 08af 05       		.uleb128 .LEHE364-.LEHB364
 10231 08b0 27       		.uleb128 .L580-.LFB1388
 10232 08b1 00       		.uleb128 0
 10233 08b2 3C       		.uleb128 .LEHB365-.LFB1388
 10234 08b3 05       		.uleb128 .LEHE365-.LEHB365
 10235 08b4 00       		.uleb128 0
 10236 08b5 00       		.uleb128 0
 10237              	.LLSDACSE1388:
 10238              		.section	.text._ZN22TestHexIO_testValidEOFD0Ev,"axG",@progbits,_ZN22TestHexIO_testValidEOFD5Ev,com
 10240              		.weak	_ZTV27TestHexIO_testValidDataLine
 10241              		.section	.data.rel.ro.local._ZTV27TestHexIO_testValidDataLine,"awG",@progbits,_ZTV27TestHexIO_test
 10242              		.align 8
 10245              	_ZTV27TestHexIO_testValidDataLine:
 10246 0000 00000000 		.quad	0
 10246      00000000 
 10247 0008 00000000 		.quad	_ZTI27TestHexIO_testValidDataLine
 10247      00000000 
 10248 0010 00000000 		.quad	_ZN27TestHexIO_testValidDataLineD1Ev
 10248      00000000 
 10249 0018 00000000 		.quad	_ZN27TestHexIO_testValidDataLineD0Ev
 10249      00000000 
 10250 0020 00000000 		.quad	_ZNK27TestHexIO_testValidDataLine7RunImplEv
 10250      00000000 
 10251              		.section	.text._ZN27TestHexIO_testValidDataLineD2Ev,"axG",@progbits,_ZN27TestHexIO_testValidDataLi
 10252              		.align 2
 10253              		.weak	_ZN27TestHexIO_testValidDataLineD2Ev
 10255              	_ZN27TestHexIO_testValidDataLineD2Ev:
 10256              	.LFB1390:
  27:testHexIO.cpp **** 	Buffer data, mask;
 10257              		.loc 4 27 0 is_stmt 1
 10258              		.cfi_startproc
 10259 0000 55       		pushq	%rbp
 10260              		.cfi_def_cfa_offset 16
 10261              		.cfi_offset 6, -16
 10262 0001 4889E5   		movq	%rsp, %rbp
 10263              		.cfi_def_cfa_register 6
 10264 0004 4883EC10 		subq	$16, %rsp
 10265 0008 48897DF8 		movq	%rdi, -8(%rbp)
 10266              	.LBB76:
  27:testHexIO.cpp **** 	Buffer data, mask;
 10267              		.loc 4 27 0
 10268 000c 488D1500 		leaq	16+_ZTV27TestHexIO_testValidDataLine(%rip), %rdx
 10268      000000
 10269 0013 488B45F8 		movq	-8(%rbp), %rax
 10270 0017 488910   		movq	%rdx, (%rax)
 10271 001a 488B45F8 		movq	-8(%rbp), %rax
 10272 001e 4889C7   		movq	%rax, %rdi
 10273 0021 E8000000 		call	_ZN8UnitTest4TestD2Ev@PLT
 10273      00
 10274              	.LBE76:
 10275 0026 90       		nop
 10276 0027 C9       		leave
 10277              		.cfi_def_cfa 7, 8
 10278 0028 C3       		ret
 10279              		.cfi_endproc
 10280              	.LFE1390:
 10282              		.weak	_ZN27TestHexIO_testValidDataLineD1Ev
 10283              		.set	_ZN27TestHexIO_testValidDataLineD1Ev,_ZN27TestHexIO_testValidDataLineD2Ev
 10284              		.section	.text._ZN27TestHexIO_testValidDataLineD0Ev,"axG",@progbits,_ZN27TestHexIO_testValidDataLi
 10285              		.align 2
 10286              		.weak	_ZN27TestHexIO_testValidDataLineD0Ev
 10288              	_ZN27TestHexIO_testValidDataLineD0Ev:
 10289              	.LFB1392:
  27:testHexIO.cpp **** 	Buffer data, mask;
 10290              		.loc 4 27 0
 10291              		.cfi_startproc
 10292              		.cfi_personality 0x9b,DW.ref.__gxx_personality_v0
 10293              		.cfi_lsda 0x1b,.LLSDA1392
 10294 0000 55       		pushq	%rbp
 10295              		.cfi_def_cfa_offset 16
 10296              		.cfi_offset 6, -16
 10297 0001 4889E5   		movq	%rsp, %rbp
 10298              		.cfi_def_cfa_register 6
 10299 0004 53       		pushq	%rbx
 10300 0005 4883EC18 		subq	$24, %rsp
 10301              		.cfi_offset 3, -24
 10302 0009 48897DE8 		movq	%rdi, -24(%rbp)
  27:testHexIO.cpp **** 	Buffer data, mask;
 10303              		.loc 4 27 0
 10304 000d 488B45E8 		movq	-24(%rbp), %rax
 10305 0011 4889C7   		movq	%rax, %rdi
 10306              	.LEHB366:
 10307 0014 E8000000 		call	_ZN27TestHexIO_testValidDataLineD1Ev
 10307      00
 10308              	.LEHE366:
  27:testHexIO.cpp **** 	Buffer data, mask;
 10309              		.loc 4 27 0 is_stmt 0 discriminator 2
 10310 0019 488B45E8 		movq	-24(%rbp), %rax
 10311 001d 4889C7   		movq	%rax, %rdi
 10312 0020 E8000000 		call	_ZdlPv@PLT
 10312      00
 10313 0025 EB1A     		jmp	.L586
 10314              	.L585:
 10315 0027 4889C3   		movq	%rax, %rbx
  27:testHexIO.cpp **** 	Buffer data, mask;
 10316              		.loc 4 27 0
 10317 002a 488B45E8 		movq	-24(%rbp), %rax
 10318 002e 4889C7   		movq	%rax, %rdi
 10319 0031 E8000000 		call	_ZdlPv@PLT
 10319      00
 10320 0036 4889D8   		movq	%rbx, %rax
 10321 0039 4889C7   		movq	%rax, %rdi
 10322              	.LEHB367:
 10323 003c E8000000 		call	_Unwind_Resume@PLT
 10323      00
 10324              	.LEHE367:
 10325              	.L586:
 10326 0041 4883C418 		addq	$24, %rsp
 10327 0045 5B       		popq	%rbx
 10328 0046 5D       		popq	%rbp
 10329              		.cfi_def_cfa 7, 8
 10330 0047 C3       		ret
 10331              		.cfi_endproc
 10332              	.LFE1392:
 10333              		.section	.gcc_except_table
 10334              	.LLSDA1392:
 10335 08b6 FF       		.byte	0xff
 10336 08b7 FF       		.byte	0xff
 10337 08b8 01       		.byte	0x1
 10338 08b9 08       		.uleb128 .LLSDACSE1392-.LLSDACSB1392
 10339              	.LLSDACSB1392:
 10340 08ba 14       		.uleb128 .LEHB366-.LFB1392
 10341 08bb 05       		.uleb128 .LEHE366-.LEHB366
 10342 08bc 27       		.uleb128 .L585-.LFB1392
 10343 08bd 00       		.uleb128 0
 10344 08be 3C       		.uleb128 .LEHB367-.LFB1392
 10345 08bf 05       		.uleb128 .LEHE367-.LEHB367
 10346 08c0 00       		.uleb128 0
 10347 08c1 00       		.uleb128 0
 10348              	.LLSDACSE1392:
 10349              		.section	.text._ZN27TestHexIO_testValidDataLineD0Ev,"axG",@progbits,_ZN27TestHexIO_testValidDataLi
 10351              		.weak	_ZTVN8UnitTest15MemoryOutStreamE
 10352              		.section	.data.rel.ro.local._ZTVN8UnitTest15MemoryOutStreamE,"awG",@progbits,_ZTVN8UnitTest15Memor
 10353              		.align 8
 10356              	_ZTVN8UnitTest15MemoryOutStreamE:
 10357 0000 90000000 		.quad	144
 10357      00000000 
 10358 0008 00000000 		.quad	0
 10358      00000000 
 10359 0010 00000000 		.quad	_ZTIN8UnitTest15MemoryOutStreamE
 10359      00000000 
 10360 0018 00000000 		.quad	_ZN8UnitTest15MemoryOutStreamD1Ev
 10360      00000000 
 10361 0020 00000000 		.quad	_ZN8UnitTest15MemoryOutStreamD0Ev
 10361      00000000 
 10362 0028 70FFFFFF 		.quad	-144
 10362      FFFFFFFF 
 10363 0030 70FFFFFF 		.quad	-144
 10363      FFFFFFFF 
 10364 0038 00000000 		.quad	_ZTIN8UnitTest15MemoryOutStreamE
 10364      00000000 
 10365 0040 00000000 		.quad	_ZTv0_n24_N8UnitTest15MemoryOutStreamD1Ev
 10365      00000000 
 10366 0048 00000000 		.quad	_ZTv0_n24_N8UnitTest15MemoryOutStreamD0Ev
 10366      00000000 
 10367              		.weak	_ZTTN8UnitTest15MemoryOutStreamE
 10368              		.section	.data.rel.ro.local._ZTTN8UnitTest15MemoryOutStreamE,"awG",@progbits,_ZTVN8UnitTest15Memor
 10369              		.align 8
 10372              	_ZTTN8UnitTest15MemoryOutStreamE:
 10373 0000 00000000 		.quad	_ZTVN8UnitTest15MemoryOutStreamE+24
 10373      00000000 
 10374 0008 00000000 		.quad	_ZTCN8UnitTest15MemoryOutStreamE0_NSt7__cxx1119basic_ostringstreamIcSt11char_traitsIcESaIcEE
 10374      00000000 
 10375 0010 00000000 		.quad	_ZTCN8UnitTest15MemoryOutStreamE0_So+24
 10375      00000000 
 10376 0018 00000000 		.quad	_ZTCN8UnitTest15MemoryOutStreamE0_So+64
 10376      00000000 
 10377 0020 00000000 		.quad	_ZTCN8UnitTest15MemoryOutStreamE0_NSt7__cxx1119basic_ostringstreamIcSt11char_traitsIcESaIcEE
 10377      00000000 
 10378 0028 00000000 		.quad	_ZTVN8UnitTest15MemoryOutStreamE+64
 10378      00000000 
 10379              		.hidden	_ZTCN8UnitTest15MemoryOutStreamE0_NSt7__cxx1119basic_ostringstreamIcSt11char_traitsIcESaIc
 10380              		.weak	_ZTCN8UnitTest15MemoryOutStreamE0_NSt7__cxx1119basic_ostringstreamIcSt11char_traitsIcESaIcEE
 10381              		.section	.data.rel.ro._ZTCN8UnitTest15MemoryOutStreamE0_NSt7__cxx1119basic_ostringstreamIcSt11char
 10382              		.align 8
 10385              	_ZTCN8UnitTest15MemoryOutStreamE0_NSt7__cxx1119basic_ostringstreamIcSt11char_traitsIcESaIcEEE:
 10386 0000 90000000 		.quad	144
 10386      00000000 
 10387 0008 00000000 		.quad	0
 10387      00000000 
 10388 0010 00000000 		.quad	_ZTINSt7__cxx1119basic_ostringstreamIcSt11char_traitsIcESaIcEEE
 10388      00000000 
 10389 0018 00000000 		.quad	0
 10389      00000000 
 10390 0020 00000000 		.quad	0
 10390      00000000 
 10391 0028 70FFFFFF 		.quad	-144
 10391      FFFFFFFF 
 10392 0030 70FFFFFF 		.quad	-144
 10392      FFFFFFFF 
 10393 0038 00000000 		.quad	_ZTINSt7__cxx1119basic_ostringstreamIcSt11char_traitsIcESaIcEEE
 10393      00000000 
 10394 0040 00000000 		.quad	0
 10394      00000000 
 10395 0048 00000000 		.quad	0
 10395      00000000 
 10396              		.hidden	_ZTCN8UnitTest15MemoryOutStreamE0_So
 10397              		.weak	_ZTCN8UnitTest15MemoryOutStreamE0_So
 10398              		.section	.data.rel.ro._ZTCN8UnitTest15MemoryOutStreamE0_So,"awG",@progbits,_ZTVN8UnitTest15MemoryO
 10399              		.align 8
 10402              	_ZTCN8UnitTest15MemoryOutStreamE0_So:
 10403 0000 90000000 		.quad	144
 10403      00000000 
 10404 0008 00000000 		.quad	0
 10404      00000000 
 10405 0010 00000000 		.quad	_ZTISo
 10405      00000000 
 10406 0018 00000000 		.quad	0
 10406      00000000 
 10407 0020 00000000 		.quad	0
 10407      00000000 
 10408 0028 70FFFFFF 		.quad	-144
 10408      FFFFFFFF 
 10409 0030 70FFFFFF 		.quad	-144
 10409      FFFFFFFF 
 10410 0038 00000000 		.quad	_ZTISo
 10410      00000000 
 10411 0040 00000000 		.quad	0
 10411      00000000 
 10412 0048 00000000 		.quad	0
 10412      00000000 
 10413              		.weak	_ZTI28TestHexIO_testDeriveWriteMap
 10414              		.section	.data.rel.ro._ZTI28TestHexIO_testDeriveWriteMap,"awG",@progbits,_ZTI28TestHexIO_testDeriv
 10415              		.align 8
 10418              	_ZTI28TestHexIO_testDeriveWriteMap:
 10419 0000 00000000 		.quad	_ZTVN10__cxxabiv120__si_class_type_infoE+16
 10419      00000000 
 10420 0008 00000000 		.quad	_ZTS28TestHexIO_testDeriveWriteMap
 10420      00000000 
 10421 0010 00000000 		.quad	_ZTIN8UnitTest4TestE
 10421      00000000 
 10422              		.weak	_ZTS28TestHexIO_testDeriveWriteMap
 10423              		.section	.rodata._ZTS28TestHexIO_testDeriveWriteMap,"aG",@progbits,_ZTS28TestHexIO_testDeriveWrite
 10424              		.align 16
 10427              	_ZTS28TestHexIO_testDeriveWriteMap:
 10428 0000 32385465 		.string	"28TestHexIO_testDeriveWriteMap"
 10428      73744865 
 10428      78494F5F 
 10428      74657374 
 10428      44657269 
 10429              		.weak	_ZTI23TestHexIO_testRoundTrip
 10430              		.section	.data.rel.ro._ZTI23TestHexIO_testRoundTrip,"awG",@progbits,_ZTI23TestHexIO_testRoundTrip,
 10431              		.align 8
 10434              	_ZTI23TestHexIO_testRoundTrip:
 10435 0000 00000000 		.quad	_ZTVN10__cxxabiv120__si_class_type_infoE+16
 10435      00000000 
 10436 0008 00000000 		.quad	_ZTS23TestHexIO_testRoundTrip
 10436      00000000 
 10437 0010 00000000 		.quad	_ZTIN8UnitTest4TestE
 10437      00000000 
 10438              		.weak	_ZTS23TestHexIO_testRoundTrip
 10439              		.section	.rodata._ZTS23TestHexIO_testRoundTrip,"aG",@progbits,_ZTS23TestHexIO_testRoundTrip,comdat
 10440              		.align 16
 10443              	_ZTS23TestHexIO_testRoundTrip:
 10444 0000 32335465 		.string	"23TestHexIO_testRoundTrip"
 10444      73744865 
 10444      78494F5F 
 10444      74657374 
 10444      526F756E 
 10445              		.weak	_ZTI25TestHexIO_testCorruptLine
 10446              		.section	.data.rel.ro._ZTI25TestHexIO_testCorruptLine,"awG",@progbits,_ZTI25TestHexIO_testCorruptL
 10447              		.align 8
 10450              	_ZTI25TestHexIO_testCorruptLine:
 10451 0000 00000000 		.quad	_ZTVN10__cxxabiv120__si_class_type_infoE+16
 10451      00000000 
 10452 0008 00000000 		.quad	_ZTS25TestHexIO_testCorruptLine
 10452      00000000 
 10453 0010 00000000 		.quad	_ZTIN8UnitTest4TestE
 10453      00000000 
 10454              		.weak	_ZTS25TestHexIO_testCorruptLine
 10455              		.section	.rodata._ZTS25TestHexIO_testCorruptLine,"aG",@progbits,_ZTS25TestHexIO_testCorruptLine,co
 10456              		.align 16
 10459              	_ZTS25TestHexIO_testCorruptLine:
 10460 0000 32355465 		.string	"25TestHexIO_testCorruptLine"
 10460      73744865 
 10460      78494F5F 
 10460      74657374 
 10460      436F7272 
 10461              		.weak	_ZTI25TestHexIO_testBadChecksum
 10462              		.section	.data.rel.ro._ZTI25TestHexIO_testBadChecksum,"awG",@progbits,_ZTI25TestHexIO_testBadCheck
 10463              		.align 8
 10466              	_ZTI25TestHexIO_testBadChecksum:
 10467 0000 00000000 		.quad	_ZTVN10__cxxabiv120__si_class_type_infoE+16
 10467      00000000 
 10468 0008 00000000 		.quad	_ZTS25TestHexIO_testBadChecksum
 10468      00000000 
 10469 0010 00000000 		.quad	_ZTIN8UnitTest4TestE
 10469      00000000 
 10470              		.weak	_ZTS25TestHexIO_testBadChecksum
 10471              		.section	.rodata._ZTS25TestHexIO_testBadChecksum,"aG",@progbits,_ZTS25TestHexIO_testBadChecksum,co
 10472              		.align 16
 10475              	_ZTS25TestHexIO_testBadChecksum:
 10476 0000 32355465 		.string	"25TestHexIO_testBadChecksum"
 10476      73744865 
 10476      78494F5F 
 10476      74657374 
 10476      42616443 
 10477              		.weak	_ZTI26TestHexIO_testJunkChecksum
 10478              		.section	.data.rel.ro._ZTI26TestHexIO_testJunkChecksum,"awG",@progbits,_ZTI26TestHexIO_testJunkChe
 10479              		.align 8
 10482              	_ZTI26TestHexIO_testJunkChecksum:
 10483 0000 00000000 		.quad	_ZTVN10__cxxabiv120__si_class_type_infoE+16
 10483      00000000 
 10484 0008 00000000 		.quad	_ZTS26TestHexIO_testJunkChecksum
 10484      00000000 
 10485 0010 00000000 		.quad	_ZTIN8UnitTest4TestE
 10485      00000000 
 10486              		.weak	_ZTS26TestHexIO_testJunkChecksum
 10487              		.section	.rodata._ZTS26TestHexIO_testJunkChecksum,"aG",@progbits,_ZTS26TestHexIO_testJunkChecksum,
 10488              		.align 16
 10491              	_ZTS26TestHexIO_testJunkChecksum:
 10492 0000 32365465 		.string	"26TestHexIO_testJunkChecksum"
 10492      73744865 
 10492      78494F5F 
 10492      74657374 
 10492      4A756E6B 
 10493              		.weak	_ZTI26TestHexIO_testJunkDataByte
 10494              		.section	.data.rel.ro._ZTI26TestHexIO_testJunkDataByte,"awG",@progbits,_ZTI26TestHexIO_testJunkDat
 10495              		.align 8
 10498              	_ZTI26TestHexIO_testJunkDataByte:
 10499 0000 00000000 		.quad	_ZTVN10__cxxabiv120__si_class_type_infoE+16
 10499      00000000 
 10500 0008 00000000 		.quad	_ZTS26TestHexIO_testJunkDataByte
 10500      00000000 
 10501 0010 00000000 		.quad	_ZTIN8UnitTest4TestE
 10501      00000000 
 10502              		.weak	_ZTS26TestHexIO_testJunkDataByte
 10503              		.section	.rodata._ZTS26TestHexIO_testJunkDataByte,"aG",@progbits,_ZTS26TestHexIO_testJunkDataByte,
 10504              		.align 16
 10507              	_ZTS26TestHexIO_testJunkDataByte:
 10508 0000 32365465 		.string	"26TestHexIO_testJunkDataByte"
 10508      73744865 
 10508      78494F5F 
 10508      74657374 
 10508      4A756E6B 
 10509              		.weak	_ZTI25TestHexIO_testJunkRecType
 10510              		.section	.data.rel.ro._ZTI25TestHexIO_testJunkRecType,"awG",@progbits,_ZTI25TestHexIO_testJunkRecT
 10511              		.align 8
 10514              	_ZTI25TestHexIO_testJunkRecType:
 10515 0000 00000000 		.quad	_ZTVN10__cxxabiv120__si_class_type_infoE+16
 10515      00000000 
 10516 0008 00000000 		.quad	_ZTS25TestHexIO_testJunkRecType
 10516      00000000 
 10517 0010 00000000 		.quad	_ZTIN8UnitTest4TestE
 10517      00000000 
 10518              		.weak	_ZTS25TestHexIO_testJunkRecType
 10519              		.section	.rodata._ZTS25TestHexIO_testJunkRecType,"aG",@progbits,_ZTS25TestHexIO_testJunkRecType,co
 10520              		.align 16
 10523              	_ZTS25TestHexIO_testJunkRecType:
 10524 0000 32355465 		.string	"25TestHexIO_testJunkRecType"
 10524      73744865 
 10524      78494F5F 
 10524      74657374 
 10524      4A756E6B 
 10525              		.weak	_ZTI25TestHexIO_testJunkAddrLsb
 10526              		.section	.data.rel.ro._ZTI25TestHexIO_testJunkAddrLsb,"awG",@progbits,_ZTI25TestHexIO_testJunkAddr
 10527              		.align 8
 10530              	_ZTI25TestHexIO_testJunkAddrLsb:
 10531 0000 00000000 		.quad	_ZTVN10__cxxabiv120__si_class_type_infoE+16
 10531      00000000 
 10532 0008 00000000 		.quad	_ZTS25TestHexIO_testJunkAddrLsb
 10532      00000000 
 10533 0010 00000000 		.quad	_ZTIN8UnitTest4TestE
 10533      00000000 
 10534              		.weak	_ZTS25TestHexIO_testJunkAddrLsb
 10535              		.section	.rodata._ZTS25TestHexIO_testJunkAddrLsb,"aG",@progbits,_ZTS25TestHexIO_testJunkAddrLsb,co
 10536              		.align 16
 10539              	_ZTS25TestHexIO_testJunkAddrLsb:
 10540 0000 32355465 		.string	"25TestHexIO_testJunkAddrLsb"
 10540      73744865 
 10540      78494F5F 
 10540      74657374 
 10540      4A756E6B 
 10541              		.weak	_ZTI25TestHexIO_testJunkAddrMsb
 10542              		.section	.data.rel.ro._ZTI25TestHexIO_testJunkAddrMsb,"awG",@progbits,_ZTI25TestHexIO_testJunkAddr
 10543              		.align 8
 10546              	_ZTI25TestHexIO_testJunkAddrMsb:
 10547 0000 00000000 		.quad	_ZTVN10__cxxabiv120__si_class_type_infoE+16
 10547      00000000 
 10548 0008 00000000 		.quad	_ZTS25TestHexIO_testJunkAddrMsb
 10548      00000000 
 10549 0010 00000000 		.quad	_ZTIN8UnitTest4TestE
 10549      00000000 
 10550              		.weak	_ZTS25TestHexIO_testJunkAddrMsb
 10551              		.section	.rodata._ZTS25TestHexIO_testJunkAddrMsb,"aG",@progbits,_ZTS25TestHexIO_testJunkAddrMsb,co
 10552              		.align 16
 10555              	_ZTS25TestHexIO_testJunkAddrMsb:
 10556 0000 32355465 		.string	"25TestHexIO_testJunkAddrMsb"
 10556      73744865 
 10556      78494F5F 
 10556      74657374 
 10556      4A756E6B 
 10557              		.weak	_ZTI27TestHexIO_testJunkByteCount
 10558              		.section	.data.rel.ro._ZTI27TestHexIO_testJunkByteCount,"awG",@progbits,_ZTI27TestHexIO_testJunkBy
 10559              		.align 8
 10562              	_ZTI27TestHexIO_testJunkByteCount:
 10563 0000 00000000 		.quad	_ZTVN10__cxxabiv120__si_class_type_infoE+16
 10563      00000000 
 10564 0008 00000000 		.quad	_ZTS27TestHexIO_testJunkByteCount
 10564      00000000 
 10565 0010 00000000 		.quad	_ZTIN8UnitTest4TestE
 10565      00000000 
 10566              		.weak	_ZTS27TestHexIO_testJunkByteCount
 10567              		.section	.rodata._ZTS27TestHexIO_testJunkByteCount,"aG",@progbits,_ZTS27TestHexIO_testJunkByteCoun
 10568              		.align 16
 10571              	_ZTS27TestHexIO_testJunkByteCount:
 10572 0000 32375465 		.string	"27TestHexIO_testJunkByteCount"
 10572      73744865 
 10572      78494F5F 
 10572      74657374 
 10572      4A756E6B 
 10573              		.weak	_ZTI27TestHexIO_testJunkStartCode
 10574              		.section	.data.rel.ro._ZTI27TestHexIO_testJunkStartCode,"awG",@progbits,_ZTI27TestHexIO_testJunkSt
 10575              		.align 8
 10578              	_ZTI27TestHexIO_testJunkStartCode:
 10579 0000 00000000 		.quad	_ZTVN10__cxxabiv120__si_class_type_infoE+16
 10579      00000000 
 10580 0008 00000000 		.quad	_ZTS27TestHexIO_testJunkStartCode
 10580      00000000 
 10581 0010 00000000 		.quad	_ZTIN8UnitTest4TestE
 10581      00000000 
 10582              		.weak	_ZTS27TestHexIO_testJunkStartCode
 10583              		.section	.rodata._ZTS27TestHexIO_testJunkStartCode,"aG",@progbits,_ZTS27TestHexIO_testJunkStartCod
 10584              		.align 16
 10587              	_ZTS27TestHexIO_testJunkStartCode:
 10588 0000 32375465 		.string	"27TestHexIO_testJunkStartCode"
 10588      73744865 
 10588      78494F5F 
 10588      74657374 
 10588      4A756E6B 
 10589              		.weak	_ZTI22TestHexIO_testValidEOF
 10590              		.section	.data.rel.ro._ZTI22TestHexIO_testValidEOF,"awG",@progbits,_ZTI22TestHexIO_testValidEOF,co
 10591              		.align 8
 10594              	_ZTI22TestHexIO_testValidEOF:
 10595 0000 00000000 		.quad	_ZTVN10__cxxabiv120__si_class_type_infoE+16
 10595      00000000 
 10596 0008 00000000 		.quad	_ZTS22TestHexIO_testValidEOF
 10596      00000000 
 10597 0010 00000000 		.quad	_ZTIN8UnitTest4TestE
 10597      00000000 
 10598              		.weak	_ZTS22TestHexIO_testValidEOF
 10599              		.section	.rodata._ZTS22TestHexIO_testValidEOF,"aG",@progbits,_ZTS22TestHexIO_testValidEOF,comdat
 10600              		.align 16
 10603              	_ZTS22TestHexIO_testValidEOF:
 10604 0000 32325465 		.string	"22TestHexIO_testValidEOF"
 10604      73744865 
 10604      78494F5F 
 10604      74657374 
 10604      56616C69 
 10605              		.weak	_ZTI27TestHexIO_testValidDataLine
 10606              		.section	.data.rel.ro._ZTI27TestHexIO_testValidDataLine,"awG",@progbits,_ZTI27TestHexIO_testValidD
 10607              		.align 8
 10610              	_ZTI27TestHexIO_testValidDataLine:
 10611 0000 00000000 		.quad	_ZTVN10__cxxabiv120__si_class_type_infoE+16
 10611      00000000 
 10612 0008 00000000 		.quad	_ZTS27TestHexIO_testValidDataLine
 10612      00000000 
 10613 0010 00000000 		.quad	_ZTIN8UnitTest4TestE
 10613      00000000 
 10614              		.weak	_ZTS27TestHexIO_testValidDataLine
 10615              		.section	.rodata._ZTS27TestHexIO_testValidDataLine,"aG",@progbits,_ZTS27TestHexIO_testValidDataLin
 10616              		.align 16
 10619              	_ZTS27TestHexIO_testValidDataLine:
 10620 0000 32375465 		.string	"27TestHexIO_testValidDataLine"
 10620      73744865 
 10620      78494F5F 
 10620      74657374 
 10620      56616C69 
 10621              		.weak	_ZTIN8UnitTest15MemoryOutStreamE
 10622              		.section	.data.rel.ro._ZTIN8UnitTest15MemoryOutStreamE,"awG",@progbits,_ZTIN8UnitTest15MemoryOutSt
 10623              		.align 8
 10626              	_ZTIN8UnitTest15MemoryOutStreamE:
 10627 0000 00000000 		.quad	_ZTVN10__cxxabiv120__si_class_type_infoE+16
 10627      00000000 
 10628 0008 00000000 		.quad	_ZTSN8UnitTest15MemoryOutStreamE
 10628      00000000 
 10629 0010 00000000 		.quad	_ZTINSt7__cxx1119basic_ostringstreamIcSt11char_traitsIcESaIcEEE
 10629      00000000 
 10630              		.weak	_ZTSN8UnitTest15MemoryOutStreamE
 10631              		.section	.rodata._ZTSN8UnitTest15MemoryOutStreamE,"aG",@progbits,_ZTSN8UnitTest15MemoryOutStreamE,
 10632              		.align 16
 10635              	_ZTSN8UnitTest15MemoryOutStreamE:
 10636 0000 4E38556E 		.string	"N8UnitTest15MemoryOutStreamE"
 10636      69745465 
 10636      73743135 
 10636      4D656D6F 
 10636      72794F75 
 10637              		.text
 10639              	_Z41__static_initialization_and_destruction_0ii:
 10640              	.LFB1393:
 10641              		.loc 4 306 0 is_stmt 1
 10642              		.cfi_startproc
 10643 3249 55       		pushq	%rbp
 10644              		.cfi_def_cfa_offset 16
 10645              		.cfi_offset 6, -16
 10646 324a 4889E5   		movq	%rsp, %rbp
 10647              		.cfi_def_cfa_register 6
 10648 324d 4883EC10 		subq	$16, %rsp
 10649 3251 897DFC   		movl	%edi, -4(%rbp)
 10650 3254 8975F8   		movl	%esi, -8(%rbp)
 10651              		.loc 4 306 0
 10652 3257 837DFC01 		cmpl	$1, -4(%rbp)
 10653 325b 0F855A03 		jne	.L589
 10653      0000
 10654              		.loc 4 306 0 is_stmt 0 discriminator 1
 10655 3261 817DF8FF 		cmpl	$65535, -8(%rbp)
 10655      FF0000
 10656 3268 0F854D03 		jne	.L589
 10656      0000
  27:testHexIO.cpp **** 	Buffer data, mask;
 10657              		.loc 4 27 0 is_stmt 1
 10658 326e 488D3D00 		leaq	testHexIO_testValidDataLineInstance(%rip), %rdi
 10658      000000
 10659 3275 E8000000 		call	_ZN27TestHexIO_testValidDataLineC1Ev
 10659      00
 10660 327a 488D1500 		leaq	__dso_handle(%rip), %rdx
 10660      000000
 10661 3281 488D3500 		leaq	testHexIO_testValidDataLineInstance(%rip), %rsi
 10661      000000
 10662 3288 488D3D00 		leaq	_ZN27TestHexIO_testValidDataLineD1Ev(%rip), %rdi
 10662      000000
 10663 328f E8000000 		call	__cxa_atexit@PLT
 10663      00
 10664 3294 E8000000 		call	_ZN8UnitTest4Test11GetTestListEv@PLT
 10664      00
 10665 3299 488D1500 		leaq	testHexIO_testValidDataLineInstance(%rip), %rdx
 10665      000000
 10666 32a0 4889C6   		movq	%rax, %rsi
 10667 32a3 488D3D00 		leaq	adderHexIO_testValidDataLine(%rip), %rdi
 10667      000000
 10668 32aa E8000000 		call	_ZN8UnitTest9ListAdderC1ERNS_8TestListEPNS_4TestE@PLT
 10668      00
  50:testHexIO.cpp **** 	Buffer data, mask;
 10669              		.loc 4 50 0
 10670 32af 488D3D00 		leaq	testHexIO_testValidEOFInstance(%rip), %rdi
 10670      000000
 10671 32b6 E8000000 		call	_ZN22TestHexIO_testValidEOFC1Ev
 10671      00
 10672 32bb 488D1500 		leaq	__dso_handle(%rip), %rdx
 10672      000000
 10673 32c2 488D3500 		leaq	testHexIO_testValidEOFInstance(%rip), %rsi
 10673      000000
 10674 32c9 488D3D00 		leaq	_ZN22TestHexIO_testValidEOFD1Ev(%rip), %rdi
 10674      000000
 10675 32d0 E8000000 		call	__cxa_atexit@PLT
 10675      00
 10676 32d5 E8000000 		call	_ZN8UnitTest4Test11GetTestListEv@PLT
 10676      00
 10677 32da 488D1500 		leaq	testHexIO_testValidEOFInstance(%rip), %rdx
 10677      000000
 10678 32e1 4889C6   		movq	%rax, %rsi
 10679 32e4 488D3D00 		leaq	adderHexIO_testValidEOF(%rip), %rdi
 10679      000000
 10680 32eb E8000000 		call	_ZN8UnitTest9ListAdderC1ERNS_8TestListEPNS_4TestE@PLT
 10680      00
  69:testHexIO.cpp **** 	Buffer data;
 10681              		.loc 4 69 0
 10682 32f0 488D3D00 		leaq	testHexIO_testJunkStartCodeInstance(%rip), %rdi
 10682      000000
 10683 32f7 E8000000 		call	_ZN27TestHexIO_testJunkStartCodeC1Ev
 10683      00
 10684 32fc 488D1500 		leaq	__dso_handle(%rip), %rdx
 10684      000000
 10685 3303 488D3500 		leaq	testHexIO_testJunkStartCodeInstance(%rip), %rsi
 10685      000000
 10686 330a 488D3D00 		leaq	_ZN27TestHexIO_testJunkStartCodeD1Ev(%rip), %rdi
 10686      000000
 10687 3311 E8000000 		call	__cxa_atexit@PLT
 10687      00
 10688 3316 E8000000 		call	_ZN8UnitTest4Test11GetTestListEv@PLT
 10688      00
 10689 331b 488D1500 		leaq	testHexIO_testJunkStartCodeInstance(%rip), %rdx
 10689      000000
 10690 3322 4889C6   		movq	%rax, %rsi
 10691 3325 488D3D00 		leaq	adderHexIO_testJunkStartCode(%rip), %rdi
 10691      000000
 10692 332c E8000000 		call	_ZN8UnitTest9ListAdderC1ERNS_8TestListEPNS_4TestE@PLT
 10692      00
  82:testHexIO.cpp **** 	Buffer data;
 10693              		.loc 4 82 0
 10694 3331 488D3D00 		leaq	testHexIO_testJunkByteCountInstance(%rip), %rdi
 10694      000000
 10695 3338 E8000000 		call	_ZN27TestHexIO_testJunkByteCountC1Ev
 10695      00
 10696 333d 488D1500 		leaq	__dso_handle(%rip), %rdx
 10696      000000
 10697 3344 488D3500 		leaq	testHexIO_testJunkByteCountInstance(%rip), %rsi
 10697      000000
 10698 334b 488D3D00 		leaq	_ZN27TestHexIO_testJunkByteCountD1Ev(%rip), %rdi
 10698      000000
 10699 3352 E8000000 		call	__cxa_atexit@PLT
 10699      00
 10700 3357 E8000000 		call	_ZN8UnitTest4Test11GetTestListEv@PLT
 10700      00
 10701 335c 488D1500 		leaq	testHexIO_testJunkByteCountInstance(%rip), %rdx
 10701      000000
 10702 3363 4889C6   		movq	%rax, %rsi
 10703 3366 488D3D00 		leaq	adderHexIO_testJunkByteCount(%rip), %rdi
 10703      000000
 10704 336d E8000000 		call	_ZN8UnitTest9ListAdderC1ERNS_8TestListEPNS_4TestE@PLT
 10704      00
  95:testHexIO.cpp **** 	Buffer data;
 10705              		.loc 4 95 0
 10706 3372 488D3D00 		leaq	testHexIO_testJunkAddrMsbInstance(%rip), %rdi
 10706      000000
 10707 3379 E8000000 		call	_ZN25TestHexIO_testJunkAddrMsbC1Ev
 10707      00
 10708 337e 488D1500 		leaq	__dso_handle(%rip), %rdx
 10708      000000
 10709 3385 488D3500 		leaq	testHexIO_testJunkAddrMsbInstance(%rip), %rsi
 10709      000000
 10710 338c 488D3D00 		leaq	_ZN25TestHexIO_testJunkAddrMsbD1Ev(%rip), %rdi
 10710      000000
 10711 3393 E8000000 		call	__cxa_atexit@PLT
 10711      00
 10712 3398 E8000000 		call	_ZN8UnitTest4Test11GetTestListEv@PLT
 10712      00
 10713 339d 488D1500 		leaq	testHexIO_testJunkAddrMsbInstance(%rip), %rdx
 10713      000000
 10714 33a4 4889C6   		movq	%rax, %rsi
 10715 33a7 488D3D00 		leaq	adderHexIO_testJunkAddrMsb(%rip), %rdi
 10715      000000
 10716 33ae E8000000 		call	_ZN8UnitTest9ListAdderC1ERNS_8TestListEPNS_4TestE@PLT
 10716      00
 108:testHexIO.cpp **** 	Buffer data;
 10717              		.loc 4 108 0
 10718 33b3 488D3D00 		leaq	testHexIO_testJunkAddrLsbInstance(%rip), %rdi
 10718      000000
 10719 33ba E8000000 		call	_ZN25TestHexIO_testJunkAddrLsbC1Ev
 10719      00
 10720 33bf 488D1500 		leaq	__dso_handle(%rip), %rdx
 10720      000000
 10721 33c6 488D3500 		leaq	testHexIO_testJunkAddrLsbInstance(%rip), %rsi
 10721      000000
 10722 33cd 488D3D00 		leaq	_ZN25TestHexIO_testJunkAddrLsbD1Ev(%rip), %rdi
 10722      000000
 10723 33d4 E8000000 		call	__cxa_atexit@PLT
 10723      00
 10724 33d9 E8000000 		call	_ZN8UnitTest4Test11GetTestListEv@PLT
 10724      00
 10725 33de 488D1500 		leaq	testHexIO_testJunkAddrLsbInstance(%rip), %rdx
 10725      000000
 10726 33e5 4889C6   		movq	%rax, %rsi
 10727 33e8 488D3D00 		leaq	adderHexIO_testJunkAddrLsb(%rip), %rdi
 10727      000000
 10728 33ef E8000000 		call	_ZN8UnitTest9ListAdderC1ERNS_8TestListEPNS_4TestE@PLT
 10728      00
 121:testHexIO.cpp **** 	Buffer data;
 10729              		.loc 4 121 0
 10730 33f4 488D3D00 		leaq	testHexIO_testJunkRecTypeInstance(%rip), %rdi
 10730      000000
 10731 33fb E8000000 		call	_ZN25TestHexIO_testJunkRecTypeC1Ev
 10731      00
 10732 3400 488D1500 		leaq	__dso_handle(%rip), %rdx
 10732      000000
 10733 3407 488D3500 		leaq	testHexIO_testJunkRecTypeInstance(%rip), %rsi
 10733      000000
 10734 340e 488D3D00 		leaq	_ZN25TestHexIO_testJunkRecTypeD1Ev(%rip), %rdi
 10734      000000
 10735 3415 E8000000 		call	__cxa_atexit@PLT
 10735      00
 10736 341a E8000000 		call	_ZN8UnitTest4Test11GetTestListEv@PLT
 10736      00
 10737 341f 488D1500 		leaq	testHexIO_testJunkRecTypeInstance(%rip), %rdx
 10737      000000
 10738 3426 4889C6   		movq	%rax, %rsi
 10739 3429 488D3D00 		leaq	adderHexIO_testJunkRecType(%rip), %rdi
 10739      000000
 10740 3430 E8000000 		call	_ZN8UnitTest9ListAdderC1ERNS_8TestListEPNS_4TestE@PLT
 10740      00
 134:testHexIO.cpp **** 	Buffer data;
 10741              		.loc 4 134 0
 10742 3435 488D3D00 		leaq	testHexIO_testJunkDataByteInstance(%rip), %rdi
 10742      000000
 10743 343c E8000000 		call	_ZN26TestHexIO_testJunkDataByteC1Ev
 10743      00
 10744 3441 488D1500 		leaq	__dso_handle(%rip), %rdx
 10744      000000
 10745 3448 488D3500 		leaq	testHexIO_testJunkDataByteInstance(%rip), %rsi
 10745      000000
 10746 344f 488D3D00 		leaq	_ZN26TestHexIO_testJunkDataByteD1Ev(%rip), %rdi
 10746      000000
 10747 3456 E8000000 		call	__cxa_atexit@PLT
 10747      00
 10748 345b E8000000 		call	_ZN8UnitTest4Test11GetTestListEv@PLT
 10748      00
 10749 3460 488D1500 		leaq	testHexIO_testJunkDataByteInstance(%rip), %rdx
 10749      000000
 10750 3467 4889C6   		movq	%rax, %rsi
 10751 346a 488D3D00 		leaq	adderHexIO_testJunkDataByte(%rip), %rdi
 10751      000000
 10752 3471 E8000000 		call	_ZN8UnitTest9ListAdderC1ERNS_8TestListEPNS_4TestE@PLT
 10752      00
 147:testHexIO.cpp **** 	Buffer data;
 10753              		.loc 4 147 0
 10754 3476 488D3D00 		leaq	testHexIO_testJunkChecksumInstance(%rip), %rdi
 10754      000000
 10755 347d E8000000 		call	_ZN26TestHexIO_testJunkChecksumC1Ev
 10755      00
 10756 3482 488D1500 		leaq	__dso_handle(%rip), %rdx
 10756      000000
 10757 3489 488D3500 		leaq	testHexIO_testJunkChecksumInstance(%rip), %rsi
 10757      000000
 10758 3490 488D3D00 		leaq	_ZN26TestHexIO_testJunkChecksumD1Ev(%rip), %rdi
 10758      000000
 10759 3497 E8000000 		call	__cxa_atexit@PLT
 10759      00
 10760 349c E8000000 		call	_ZN8UnitTest4Test11GetTestListEv@PLT
 10760      00
 10761 34a1 488D1500 		leaq	testHexIO_testJunkChecksumInstance(%rip), %rdx
 10761      000000
 10762 34a8 4889C6   		movq	%rax, %rsi
 10763 34ab 488D3D00 		leaq	adderHexIO_testJunkChecksum(%rip), %rdi
 10763      000000
 10764 34b2 E8000000 		call	_ZN8UnitTest9ListAdderC1ERNS_8TestListEPNS_4TestE@PLT
 10764      00
 160:testHexIO.cpp **** 	Buffer data;
 10765              		.loc 4 160 0
 10766 34b7 488D3D00 		leaq	testHexIO_testBadChecksumInstance(%rip), %rdi
 10766      000000
 10767 34be E8000000 		call	_ZN25TestHexIO_testBadChecksumC1Ev
 10767      00
 10768 34c3 488D1500 		leaq	__dso_handle(%rip), %rdx
 10768      000000
 10769 34ca 488D3500 		leaq	testHexIO_testBadChecksumInstance(%rip), %rsi
 10769      000000
 10770 34d1 488D3D00 		leaq	_ZN25TestHexIO_testBadChecksumD1Ev(%rip), %rdi
 10770      000000
 10771 34d8 E8000000 		call	__cxa_atexit@PLT
 10771      00
 10772 34dd E8000000 		call	_ZN8UnitTest4Test11GetTestListEv@PLT
 10772      00
 10773 34e2 488D1500 		leaq	testHexIO_testBadChecksumInstance(%rip), %rdx
 10773      000000
 10774 34e9 4889C6   		movq	%rax, %rsi
 10775 34ec 488D3D00 		leaq	adderHexIO_testBadChecksum(%rip), %rdi
 10775      000000
 10776 34f3 E8000000 		call	_ZN8UnitTest9ListAdderC1ERNS_8TestListEPNS_4TestE@PLT
 10776      00
 173:testHexIO.cpp **** 	Buffer data;
 10777              		.loc 4 173 0
 10778 34f8 488D3D00 		leaq	testHexIO_testCorruptLineInstance(%rip), %rdi
 10778      000000
 10779 34ff E8000000 		call	_ZN25TestHexIO_testCorruptLineC1Ev
 10779      00
 10780 3504 488D1500 		leaq	__dso_handle(%rip), %rdx
 10780      000000
 10781 350b 488D3500 		leaq	testHexIO_testCorruptLineInstance(%rip), %rsi
 10781      000000
 10782 3512 488D3D00 		leaq	_ZN25TestHexIO_testCorruptLineD1Ev(%rip), %rdi
 10782      000000
 10783 3519 E8000000 		call	__cxa_atexit@PLT
 10783      00
 10784 351e E8000000 		call	_ZN8UnitTest4Test11GetTestListEv@PLT
 10784      00
 10785 3523 488D1500 		leaq	testHexIO_testCorruptLineInstance(%rip), %rdx
 10785      000000
 10786 352a 4889C6   		movq	%rax, %rsi
 10787 352d 488D3D00 		leaq	adderHexIO_testCorruptLine(%rip), %rdi
 10787      000000
 10788 3534 E8000000 		call	_ZN8UnitTest9ListAdderC1ERNS_8TestListEPNS_4TestE@PLT
 10788      00
 242:testHexIO.cpp **** 	testRoundTrip(
 10789              		.loc 4 242 0
 10790 3539 488D3D00 		leaq	testHexIO_testRoundTripInstance(%rip), %rdi
 10790      000000
 10791 3540 E8000000 		call	_ZN23TestHexIO_testRoundTripC1Ev
 10791      00
 10792 3545 488D1500 		leaq	__dso_handle(%rip), %rdx
 10792      000000
 10793 354c 488D3500 		leaq	testHexIO_testRoundTripInstance(%rip), %rsi
 10793      000000
 10794 3553 488D3D00 		leaq	_ZN23TestHexIO_testRoundTripD1Ev(%rip), %rdi
 10794      000000
 10795 355a E8000000 		call	__cxa_atexit@PLT
 10795      00
 10796 355f E8000000 		call	_ZN8UnitTest4Test11GetTestListEv@PLT
 10796      00
 10797 3564 488D1500 		leaq	testHexIO_testRoundTripInstance(%rip), %rdx
 10797      000000
 10798 356b 4889C6   		movq	%rax, %rsi
 10799 356e 488D3D00 		leaq	adderHexIO_testRoundTrip(%rip), %rdi
 10799      000000
 10800 3575 E8000000 		call	_ZN8UnitTest9ListAdderC1ERNS_8TestListEPNS_4TestE@PLT
 10800      00
 303:testHexIO.cpp **** 	testDeriveWriteMap("Hello........World", "*****........*****");
 10801              		.loc 4 303 0
 10802 357a 488D3D00 		leaq	testHexIO_testDeriveWriteMapInstance(%rip), %rdi
 10802      000000
 10803 3581 E8000000 		call	_ZN28TestHexIO_testDeriveWriteMapC1Ev
 10803      00
 10804 3586 488D1500 		leaq	__dso_handle(%rip), %rdx
 10804      000000
 10805 358d 488D3500 		leaq	testHexIO_testDeriveWriteMapInstance(%rip), %rsi
 10805      000000
 10806 3594 488D3D00 		leaq	_ZN28TestHexIO_testDeriveWriteMapD1Ev(%rip), %rdi
 10806      000000
 10807 359b E8000000 		call	__cxa_atexit@PLT
 10807      00
 10808 35a0 E8000000 		call	_ZN8UnitTest4Test11GetTestListEv@PLT
 10808      00
 10809 35a5 488D1500 		leaq	testHexIO_testDeriveWriteMapInstance(%rip), %rdx
 10809      000000
 10810 35ac 4889C6   		movq	%rax, %rsi
 10811 35af 488D3D00 		leaq	adderHexIO_testDeriveWriteMap(%rip), %rdi
 10811      000000
 10812 35b6 E8000000 		call	_ZN8UnitTest9ListAdderC1ERNS_8TestListEPNS_4TestE@PLT
 10812      00
 10813              	.L589:
 10814              		.loc 4 306 0
 10815 35bb 90       		nop
 10816 35bc C9       		leave
 10817              		.cfi_def_cfa 7, 8
 10818 35bd C3       		ret
 10819              		.cfi_endproc
 10820              	.LFE1393:
 10823              	_GLOBAL__sub_I_testHexIO_testValidDataLineInstance:
 10824              	.LFB1394:
 10825              		.loc 4 306 0
 10826              		.cfi_startproc
 10827 35be 55       		pushq	%rbp
 10828              		.cfi_def_cfa_offset 16
 10829              		.cfi_offset 6, -16
 10830 35bf 4889E5   		movq	%rsp, %rbp
 10831              		.cfi_def_cfa_register 6
 10832              		.loc 4 306 0
 10833 35c2 BEFFFF00 		movl	$65535, %esi
 10833      00
 10834 35c7 BF010000 		movl	$1, %edi
 10834      00
 10835 35cc E878FCFF 		call	_Z41__static_initialization_and_destruction_0ii
 10835      FF
 10836 35d1 5D       		popq	%rbp
 10837              		.cfi_def_cfa 7, 8
 10838 35d2 C3       		ret
 10839              		.cfi_endproc
 10840              	.LFE1394:
 10842              		.section	.init_array,"aw"
 10843              		.align 8
 10844 0000 00000000 		.quad	_GLOBAL__sub_I_testHexIO_testValidDataLineInstance
 10844      00000000 
 10845              		.text
 10846              	.Letext0:
 10847              		.file 7 "/usr/include/c++/7/bits/basic_string.h"
 10848              		.file 8 "/usr/include/c++/7/bits/basic_string.tcc"
 10849              		.file 9 "/usr/include/c++/7/bits/stringfwd.h"
 10850              		.file 10 "/usr/include/c++/7/cstdarg"
 10851              		.file 11 "/usr/include/c++/7/cwchar"
 10852              		.file 12 "/usr/include/c++/7/bits/char_traits.h"
 10853              		.file 13 "/usr/include/x86_64-linux-gnu/c++/7/bits/c++config.h"
 10854              		.file 14 "/usr/include/c++/7/bits/allocator.h"
 10855              		.file 15 "/usr/include/c++/7/clocale"
 10856              		.file 16 "/usr/include/c++/7/cwctype"
 10857              		.file 17 "/usr/include/c++/7/cstdio"
 10858              		.file 18 "/usr/include/c++/7/cstring"
 10859              		.file 19 "/usr/include/c++/7/iosfwd"
 10860              		.file 20 "/usr/include/c++/7/debug/debug.h"
 10861              		.file 21 "/usr/include/c++/7/bits/predefined_ops.h"
 10862              		.file 22 "/usr/include/c++/7/ext/new_allocator.h"
 10863              		.file 23 "/usr/include/c++/7/ext/numeric_traits.h"
 10864              		.file 24 "/usr/include/c++/7/ext/alloc_traits.h"
 10865              		.file 25 "/usr/lib/gcc/x86_64-linux-gnu/7/include/stdarg.h"
 10866              		.file 26 "<built-in>"
 10867              		.file 27 "/usr/lib/gcc/x86_64-linux-gnu/7/include/stddef.h"
 10868              		.file 28 "/usr/include/x86_64-linux-gnu/bits/types/wint_t.h"
 10869              		.file 29 "/usr/include/x86_64-linux-gnu/bits/types/__mbstate_t.h"
 10870              		.file 30 "/usr/include/x86_64-linux-gnu/bits/types/mbstate_t.h"
 10871              		.file 31 "/usr/include/x86_64-linux-gnu/bits/types/__FILE.h"
 10872              		.file 32 "/usr/include/libio.h"
 10873              		.file 33 "/usr/include/x86_64-linux-gnu/bits/types/FILE.h"
 10874              		.file 34 "/usr/include/wchar.h"
 10875              		.file 35 "/usr/include/x86_64-linux-gnu/bits/types/struct_tm.h"
 10876              		.file 36 "/usr/include/locale.h"
 10877              		.file 37 "/usr/include/x86_64-linux-gnu/bits/types.h"
 10878              		.file 38 "/usr/include/time.h"
 10879              		.file 39 "/usr/include/x86_64-linux-gnu/bits/wctype-wchar.h"
 10880              		.file 40 "/usr/include/wctype.h"
 10881              		.file 41 "/usr/include/_G_config.h"
 10882              		.file 42 "/usr/include/stdio.h"
 10883              		.file 43 "/usr/include/x86_64-linux-gnu/bits/sys_errlist.h"
 10884              		.file 44 "/usr/include/string.h"
 10885              		.file 45 "/home/gani/eval/20140524/makestuff/libs/libutpp/TestDetails.h"
 10886              		.file 46 "/home/gani/eval/20140524/makestuff/libs/libutpp/TestList.h"
 10887              		.file 47 "/home/gani/eval/20140524/makestuff/libs/libutpp/TestResults.h"
 10888              		.file 48 "/usr/include/signal.h"
 10889              		.file 49 "/usr/include/x86_64-linux-gnu/sys/time.h"
 10890              		.file 50 "/home/gani/eval/20140524/makestuff/common/makestuff.h"
 10891              		.file 51 "../libbuffer.h"
 10892              		.file 52 "/usr/include/c++/7/new"
 26219              		.align 8
 26222              	DW.ref.__gxx_personality_v0:
 26223 0000 00000000 		.quad	__gxx_personality_v0
 26223      00000000 
 26224              		.hidden	__dso_handle
 26225              		.ident	"GCC: (Ubuntu 7.2.0-8ubuntu3.2) 7.2.0"
 26226              		.section	.note.GNU-stack,"",@progbits
DEFINED SYMBOLS
                            *ABS*:0000000000000000 testHexIO.cpp
     /tmp/cc79HNJ1.s:7      .text._ZStorSt13_Ios_OpenmodeS_:0000000000000000 _ZStorSt13_Ios_OpenmodeS_
     /tmp/cc79HNJ1.s:34     .text._ZN13UnitTestSuite12GetSuiteNameEv:0000000000000000 _ZN13UnitTestSuite12GetSuiteNameEv
     /tmp/cc79HNJ1.s:57     .text._ZN8UnitTest15MemoryOutStreamC1Ev:0000000000000000 _ZN8UnitTest15MemoryOutStreamC1Ev
     /tmp/cc79HNJ1.s:26222  .data.DW.ref.__gxx_personality_v0:0000000000000000 DW.ref.__gxx_personality_v0
     /tmp/cc79HNJ1.s:10372  .data.rel.ro.local._ZTTN8UnitTest15MemoryOutStreamE:0000000000000000 _ZTTN8UnitTest15MemoryOutStreamE
     /tmp/cc79HNJ1.s:10356  .data.rel.ro.local._ZTVN8UnitTest15MemoryOutStreamE:0000000000000000 _ZTVN8UnitTest15MemoryOutStreamE
     /tmp/cc79HNJ1.s:174    .text._ZN27TestHexIO_testValidDataLineC2Ev:0000000000000000 _ZN27TestHexIO_testValidDataLineC2Ev
     /tmp/cc79HNJ1.s:10245  .data.rel.ro.local._ZTV27TestHexIO_testValidDataLine:0000000000000000 _ZTV27TestHexIO_testValidDataLine
     /tmp/cc79HNJ1.s:174    .text._ZN27TestHexIO_testValidDataLineC2Ev:0000000000000000 _ZN27TestHexIO_testValidDataLineC1Ev
     /tmp/cc79HNJ1.s:218    .bss:0000000000000000 testHexIO_testValidDataLineInstance
     /tmp/cc79HNJ1.s:223    .bss:0000000000000038 adderHexIO_testValidDataLine
     /tmp/cc79HNJ1.s:253    .text:0000000000000000 _ZNK27TestHexIO_testValidDataLine7RunImplEv
     /tmp/cc79HNJ1.s:7397   .text._ZN8UnitTest10CheckEqualI12BufferStatusS1_EEvRNS_11TestResultsERKT_RKT0_RKNS_11TestDetailsE:0000000000000000 _ZN8UnitTest10CheckEqualI12BufferStatusS1_EEvRNS_11TestResultsERKT_RKT0_RKNS_11TestDetailsE
     /tmp/cc79HNJ1.s:7538   .text._ZN8UnitTest10CheckEqualIihEEvRNS_11TestResultsERKT_RKT0_RKNS_11TestDetailsE:0000000000000000 _ZN8UnitTest10CheckEqualIihEEvRNS_11TestResultsERKT_RKT0_RKNS_11TestDetailsE
     /tmp/cc79HNJ1.s:7680   .text._ZN8UnitTest10CheckEqualImmEEvRNS_11TestResultsERKT_RKT0_RKNS_11TestDetailsE:0000000000000000 _ZN8UnitTest10CheckEqualImmEEvRNS_11TestResultsERKT_RKT0_RKNS_11TestDetailsE
     /tmp/cc79HNJ1.s:7829   .text._ZN8UnitTest15CheckArrayEqualIA4_hPhEEvRNS_11TestResultsERKT_RKT0_iRKNS_11TestDetailsE:0000000000000000 _ZN8UnitTest15CheckArrayEqualIA4_hPhEEvRNS_11TestResultsERKT_RKT0_iRKNS_11TestDetailsE
     /tmp/cc79HNJ1.s:1134   .text._ZN22TestHexIO_testValidEOFC2Ev:0000000000000000 _ZN22TestHexIO_testValidEOFC2Ev
     /tmp/cc79HNJ1.s:10134  .data.rel.ro.local._ZTV22TestHexIO_testValidEOF:0000000000000000 _ZTV22TestHexIO_testValidEOF
     /tmp/cc79HNJ1.s:1134   .text._ZN22TestHexIO_testValidEOFC2Ev:0000000000000000 _ZN22TestHexIO_testValidEOFC1Ev
     /tmp/cc79HNJ1.s:1177   .bss:0000000000000040 testHexIO_testValidEOFInstance
     /tmp/cc79HNJ1.s:1182   .bss:0000000000000078 adderHexIO_testValidEOF
     /tmp/cc79HNJ1.s:1200   .text:0000000000000720 _ZNK22TestHexIO_testValidEOF7RunImplEv
     /tmp/cc79HNJ1.s:1823   .text._ZN27TestHexIO_testJunkStartCodeC2Ev:0000000000000000 _ZN27TestHexIO_testJunkStartCodeC2Ev
     /tmp/cc79HNJ1.s:10023  .data.rel.ro.local._ZTV27TestHexIO_testJunkStartCode:0000000000000000 _ZTV27TestHexIO_testJunkStartCode
     /tmp/cc79HNJ1.s:1823   .text._ZN27TestHexIO_testJunkStartCodeC2Ev:0000000000000000 _ZN27TestHexIO_testJunkStartCodeC1Ev
     /tmp/cc79HNJ1.s:1866   .bss:0000000000000080 testHexIO_testJunkStartCodeInstance
     /tmp/cc79HNJ1.s:1871   .bss:00000000000000b8 adderHexIO_testJunkStartCode
     /tmp/cc79HNJ1.s:1883   .text:0000000000000c18 _ZNK27TestHexIO_testJunkStartCode7RunImplEv
     /tmp/cc79HNJ1.s:2158   .text._ZN27TestHexIO_testJunkByteCountC2Ev:0000000000000000 _ZN27TestHexIO_testJunkByteCountC2Ev
     /tmp/cc79HNJ1.s:9912   .data.rel.ro.local._ZTV27TestHexIO_testJunkByteCount:0000000000000000 _ZTV27TestHexIO_testJunkByteCount
     /tmp/cc79HNJ1.s:2158   .text._ZN27TestHexIO_testJunkByteCountC2Ev:0000000000000000 _ZN27TestHexIO_testJunkByteCountC1Ev
     /tmp/cc79HNJ1.s:2201   .bss:00000000000000c0 testHexIO_testJunkByteCountInstance
     /tmp/cc79HNJ1.s:2206   .bss:00000000000000f8 adderHexIO_testJunkByteCount
     /tmp/cc79HNJ1.s:2218   .text:0000000000000e10 _ZNK27TestHexIO_testJunkByteCount7RunImplEv
     /tmp/cc79HNJ1.s:2493   .text._ZN25TestHexIO_testJunkAddrMsbC2Ev:0000000000000000 _ZN25TestHexIO_testJunkAddrMsbC2Ev
     /tmp/cc79HNJ1.s:9801   .data.rel.ro.local._ZTV25TestHexIO_testJunkAddrMsb:0000000000000000 _ZTV25TestHexIO_testJunkAddrMsb
     /tmp/cc79HNJ1.s:2493   .text._ZN25TestHexIO_testJunkAddrMsbC2Ev:0000000000000000 _ZN25TestHexIO_testJunkAddrMsbC1Ev
     /tmp/cc79HNJ1.s:2536   .bss:0000000000000100 testHexIO_testJunkAddrMsbInstance
     /tmp/cc79HNJ1.s:2541   .bss:0000000000000138 adderHexIO_testJunkAddrMsb
     /tmp/cc79HNJ1.s:2553   .text:0000000000001008 _ZNK25TestHexIO_testJunkAddrMsb7RunImplEv
     /tmp/cc79HNJ1.s:2828   .text._ZN25TestHexIO_testJunkAddrLsbC2Ev:0000000000000000 _ZN25TestHexIO_testJunkAddrLsbC2Ev
     /tmp/cc79HNJ1.s:9690   .data.rel.ro.local._ZTV25TestHexIO_testJunkAddrLsb:0000000000000000 _ZTV25TestHexIO_testJunkAddrLsb
     /tmp/cc79HNJ1.s:2828   .text._ZN25TestHexIO_testJunkAddrLsbC2Ev:0000000000000000 _ZN25TestHexIO_testJunkAddrLsbC1Ev
     /tmp/cc79HNJ1.s:2871   .bss:0000000000000140 testHexIO_testJunkAddrLsbInstance
     /tmp/cc79HNJ1.s:2876   .bss:0000000000000178 adderHexIO_testJunkAddrLsb
     /tmp/cc79HNJ1.s:2888   .text:0000000000001200 _ZNK25TestHexIO_testJunkAddrLsb7RunImplEv
     /tmp/cc79HNJ1.s:3163   .text._ZN25TestHexIO_testJunkRecTypeC2Ev:0000000000000000 _ZN25TestHexIO_testJunkRecTypeC2Ev
     /tmp/cc79HNJ1.s:9579   .data.rel.ro.local._ZTV25TestHexIO_testJunkRecType:0000000000000000 _ZTV25TestHexIO_testJunkRecType
     /tmp/cc79HNJ1.s:3163   .text._ZN25TestHexIO_testJunkRecTypeC2Ev:0000000000000000 _ZN25TestHexIO_testJunkRecTypeC1Ev
     /tmp/cc79HNJ1.s:3206   .bss:0000000000000180 testHexIO_testJunkRecTypeInstance
     /tmp/cc79HNJ1.s:3211   .bss:00000000000001b8 adderHexIO_testJunkRecType
     /tmp/cc79HNJ1.s:3223   .text:00000000000013f8 _ZNK25TestHexIO_testJunkRecType7RunImplEv
     /tmp/cc79HNJ1.s:3498   .text._ZN26TestHexIO_testJunkDataByteC2Ev:0000000000000000 _ZN26TestHexIO_testJunkDataByteC2Ev
     /tmp/cc79HNJ1.s:9468   .data.rel.ro.local._ZTV26TestHexIO_testJunkDataByte:0000000000000000 _ZTV26TestHexIO_testJunkDataByte
     /tmp/cc79HNJ1.s:3498   .text._ZN26TestHexIO_testJunkDataByteC2Ev:0000000000000000 _ZN26TestHexIO_testJunkDataByteC1Ev
     /tmp/cc79HNJ1.s:3541   .bss:00000000000001c0 testHexIO_testJunkDataByteInstance
     /tmp/cc79HNJ1.s:3546   .bss:00000000000001f8 adderHexIO_testJunkDataByte
     /tmp/cc79HNJ1.s:3558   .text:00000000000015f0 _ZNK26TestHexIO_testJunkDataByte7RunImplEv
     /tmp/cc79HNJ1.s:3833   .text._ZN26TestHexIO_testJunkChecksumC2Ev:0000000000000000 _ZN26TestHexIO_testJunkChecksumC2Ev
     /tmp/cc79HNJ1.s:9357   .data.rel.ro.local._ZTV26TestHexIO_testJunkChecksum:0000000000000000 _ZTV26TestHexIO_testJunkChecksum
     /tmp/cc79HNJ1.s:3833   .text._ZN26TestHexIO_testJunkChecksumC2Ev:0000000000000000 _ZN26TestHexIO_testJunkChecksumC1Ev
     /tmp/cc79HNJ1.s:3876   .bss:0000000000000200 testHexIO_testJunkChecksumInstance
     /tmp/cc79HNJ1.s:3881   .bss:0000000000000238 adderHexIO_testJunkChecksum
     /tmp/cc79HNJ1.s:3893   .text:00000000000017e8 _ZNK26TestHexIO_testJunkChecksum7RunImplEv
     /tmp/cc79HNJ1.s:4168   .text._ZN25TestHexIO_testBadChecksumC2Ev:0000000000000000 _ZN25TestHexIO_testBadChecksumC2Ev
     /tmp/cc79HNJ1.s:9246   .data.rel.ro.local._ZTV25TestHexIO_testBadChecksum:0000000000000000 _ZTV25TestHexIO_testBadChecksum
     /tmp/cc79HNJ1.s:4168   .text._ZN25TestHexIO_testBadChecksumC2Ev:0000000000000000 _ZN25TestHexIO_testBadChecksumC1Ev
     /tmp/cc79HNJ1.s:4211   .bss:0000000000000240 testHexIO_testBadChecksumInstance
     /tmp/cc79HNJ1.s:4216   .bss:0000000000000278 adderHexIO_testBadChecksum
     /tmp/cc79HNJ1.s:4228   .text:00000000000019e0 _ZNK25TestHexIO_testBadChecksum7RunImplEv
     /tmp/cc79HNJ1.s:4503   .text._ZN25TestHexIO_testCorruptLineC2Ev:0000000000000000 _ZN25TestHexIO_testCorruptLineC2Ev
     /tmp/cc79HNJ1.s:9135   .data.rel.ro.local._ZTV25TestHexIO_testCorruptLine:0000000000000000 _ZTV25TestHexIO_testCorruptLine
     /tmp/cc79HNJ1.s:4503   .text._ZN25TestHexIO_testCorruptLineC2Ev:0000000000000000 _ZN25TestHexIO_testCorruptLineC1Ev
     /tmp/cc79HNJ1.s:4546   .bss:0000000000000280 testHexIO_testCorruptLineInstance
     /tmp/cc79HNJ1.s:4551   .bss:00000000000002b8 adderHexIO_testCorruptLine
     /tmp/cc79HNJ1.s:4563   .text:0000000000001bd8 _ZNK25TestHexIO_testCorruptLine7RunImplEv
     /tmp/cc79HNJ1.s:4860   .text:0000000000001dcf _Z13testRoundTripPKcz
     /tmp/cc79HNJ1.s:8049   .text._ZN8UnitTest5CheckIbEEbT_:0000000000000000 _ZN8UnitTest5CheckIbEEbT_
     /tmp/cc79HNJ1.s:8073   .text._ZNKSt4fposI11__mbstate_tEcvlEv:0000000000000000 _ZNKSt4fposI11__mbstate_tEcvlEv
     /tmp/cc79HNJ1.s:8096   .text._ZN8UnitTest10CheckEqualImjEEvRNS_11TestResultsERKT_RKT0_RKNS_11TestDetailsE:0000000000000000 _ZN8UnitTest10CheckEqualImjEEvRNS_11TestResultsERKT_RKT0_RKNS_11TestDetailsE
     /tmp/cc79HNJ1.s:8237   .text._ZN8UnitTest15CheckArrayEqualIPKcS2_EEvRNS_11TestResultsERKT_RKT0_iRKNS_11TestDetailsE:0000000000000000 _ZN8UnitTest15CheckArrayEqualIPKcS2_EEvRNS_11TestResultsERKT_RKT0_iRKNS_11TestDetailsE
     /tmp/cc79HNJ1.s:8461   .text._ZN8UnitTest15CheckArrayEqualIPhS1_EEvRNS_11TestResultsERKT_RKT0_iRKNS_11TestDetailsE:0000000000000000 _ZN8UnitTest15CheckArrayEqualIPhS1_EEvRNS_11TestResultsERKT_RKT0_iRKNS_11TestDetailsE
     /tmp/cc79HNJ1.s:6272   .text._ZN23TestHexIO_testRoundTripC2Ev:0000000000000000 _ZN23TestHexIO_testRoundTripC2Ev
     /tmp/cc79HNJ1.s:9024   .data.rel.ro.local._ZTV23TestHexIO_testRoundTrip:0000000000000000 _ZTV23TestHexIO_testRoundTrip
     /tmp/cc79HNJ1.s:6272   .text._ZN23TestHexIO_testRoundTripC2Ev:0000000000000000 _ZN23TestHexIO_testRoundTripC1Ev
     /tmp/cc79HNJ1.s:6315   .bss:00000000000002c0 testHexIO_testRoundTripInstance
     /tmp/cc79HNJ1.s:6320   .bss:00000000000002f8 adderHexIO_testRoundTrip
     /tmp/cc79HNJ1.s:6374   .text:0000000000002bce _ZNK23TestHexIO_testRoundTrip7RunImplEv
     /tmp/cc79HNJ1.s:6450   .text:0000000000002cd2 _Z18testDeriveWriteMapPKcS0_
     /tmp/cc79HNJ1.s:8685   .text._ZN8UnitTest15CheckArrayEqualIPKcPhEEvRNS_11TestResultsERKT_RKT0_iRKNS_11TestDetailsE:0000000000000000 _ZN8UnitTest15CheckArrayEqualIPKcPhEEvRNS_11TestResultsERKT_RKT0_iRKNS_11TestDetailsE
     /tmp/cc79HNJ1.s:7096   .text._ZN28TestHexIO_testDeriveWriteMapC2Ev:0000000000000000 _ZN28TestHexIO_testDeriveWriteMapC2Ev
     /tmp/cc79HNJ1.s:8913   .data.rel.ro.local._ZTV28TestHexIO_testDeriveWriteMap:0000000000000000 _ZTV28TestHexIO_testDeriveWriteMap
     /tmp/cc79HNJ1.s:7096   .text._ZN28TestHexIO_testDeriveWriteMapC2Ev:0000000000000000 _ZN28TestHexIO_testDeriveWriteMapC1Ev
     /tmp/cc79HNJ1.s:7139   .bss:0000000000000300 testHexIO_testDeriveWriteMapInstance
     /tmp/cc79HNJ1.s:7144   .bss:0000000000000338 adderHexIO_testDeriveWriteMap
     /tmp/cc79HNJ1.s:7159   .text:0000000000003214 _ZNK28TestHexIO_testDeriveWriteMap7RunImplEv
     /tmp/cc79HNJ1.s:7190   .text._ZN8UnitTest15MemoryOutStreamD1Ev:0000000000000000 _ZN8UnitTest15MemoryOutStreamD1Ev
     /tmp/cc79HNJ1.s:7299   .text._ZN8UnitTest15MemoryOutStreamD1Ev:00000000000000ac _ZTv0_n24_N8UnitTest15MemoryOutStreamD1Ev
     /tmp/cc79HNJ1.s:7313   .text._ZN8UnitTest15MemoryOutStreamD0Ev:0000000000000000 _ZN8UnitTest15MemoryOutStreamD0Ev
     /tmp/cc79HNJ1.s:7379   .text._ZN8UnitTest15MemoryOutStreamD0Ev:0000000000000048 _ZTv0_n24_N8UnitTest15MemoryOutStreamD0Ev
     /tmp/cc79HNJ1.s:10418  .data.rel.ro._ZTI28TestHexIO_testDeriveWriteMap:0000000000000000 _ZTI28TestHexIO_testDeriveWriteMap
     /tmp/cc79HNJ1.s:8923   .text._ZN28TestHexIO_testDeriveWriteMapD2Ev:0000000000000000 _ZN28TestHexIO_testDeriveWriteMapD1Ev
     /tmp/cc79HNJ1.s:8956   .text._ZN28TestHexIO_testDeriveWriteMapD0Ev:0000000000000000 _ZN28TestHexIO_testDeriveWriteMapD0Ev
     /tmp/cc79HNJ1.s:8923   .text._ZN28TestHexIO_testDeriveWriteMapD2Ev:0000000000000000 _ZN28TestHexIO_testDeriveWriteMapD2Ev
     /tmp/cc79HNJ1.s:10434  .data.rel.ro._ZTI23TestHexIO_testRoundTrip:0000000000000000 _ZTI23TestHexIO_testRoundTrip
     /tmp/cc79HNJ1.s:9034   .text._ZN23TestHexIO_testRoundTripD2Ev:0000000000000000 _ZN23TestHexIO_testRoundTripD1Ev
     /tmp/cc79HNJ1.s:9067   .text._ZN23TestHexIO_testRoundTripD0Ev:0000000000000000 _ZN23TestHexIO_testRoundTripD0Ev
     /tmp/cc79HNJ1.s:9034   .text._ZN23TestHexIO_testRoundTripD2Ev:0000000000000000 _ZN23TestHexIO_testRoundTripD2Ev
     /tmp/cc79HNJ1.s:10450  .data.rel.ro._ZTI25TestHexIO_testCorruptLine:0000000000000000 _ZTI25TestHexIO_testCorruptLine
     /tmp/cc79HNJ1.s:9145   .text._ZN25TestHexIO_testCorruptLineD2Ev:0000000000000000 _ZN25TestHexIO_testCorruptLineD1Ev
     /tmp/cc79HNJ1.s:9178   .text._ZN25TestHexIO_testCorruptLineD0Ev:0000000000000000 _ZN25TestHexIO_testCorruptLineD0Ev
     /tmp/cc79HNJ1.s:9145   .text._ZN25TestHexIO_testCorruptLineD2Ev:0000000000000000 _ZN25TestHexIO_testCorruptLineD2Ev
     /tmp/cc79HNJ1.s:10466  .data.rel.ro._ZTI25TestHexIO_testBadChecksum:0000000000000000 _ZTI25TestHexIO_testBadChecksum
     /tmp/cc79HNJ1.s:9256   .text._ZN25TestHexIO_testBadChecksumD2Ev:0000000000000000 _ZN25TestHexIO_testBadChecksumD1Ev
     /tmp/cc79HNJ1.s:9289   .text._ZN25TestHexIO_testBadChecksumD0Ev:0000000000000000 _ZN25TestHexIO_testBadChecksumD0Ev
     /tmp/cc79HNJ1.s:9256   .text._ZN25TestHexIO_testBadChecksumD2Ev:0000000000000000 _ZN25TestHexIO_testBadChecksumD2Ev
     /tmp/cc79HNJ1.s:10482  .data.rel.ro._ZTI26TestHexIO_testJunkChecksum:0000000000000000 _ZTI26TestHexIO_testJunkChecksum
     /tmp/cc79HNJ1.s:9367   .text._ZN26TestHexIO_testJunkChecksumD2Ev:0000000000000000 _ZN26TestHexIO_testJunkChecksumD1Ev
     /tmp/cc79HNJ1.s:9400   .text._ZN26TestHexIO_testJunkChecksumD0Ev:0000000000000000 _ZN26TestHexIO_testJunkChecksumD0Ev
     /tmp/cc79HNJ1.s:9367   .text._ZN26TestHexIO_testJunkChecksumD2Ev:0000000000000000 _ZN26TestHexIO_testJunkChecksumD2Ev
     /tmp/cc79HNJ1.s:10498  .data.rel.ro._ZTI26TestHexIO_testJunkDataByte:0000000000000000 _ZTI26TestHexIO_testJunkDataByte
     /tmp/cc79HNJ1.s:9478   .text._ZN26TestHexIO_testJunkDataByteD2Ev:0000000000000000 _ZN26TestHexIO_testJunkDataByteD1Ev
     /tmp/cc79HNJ1.s:9511   .text._ZN26TestHexIO_testJunkDataByteD0Ev:0000000000000000 _ZN26TestHexIO_testJunkDataByteD0Ev
     /tmp/cc79HNJ1.s:9478   .text._ZN26TestHexIO_testJunkDataByteD2Ev:0000000000000000 _ZN26TestHexIO_testJunkDataByteD2Ev
     /tmp/cc79HNJ1.s:10514  .data.rel.ro._ZTI25TestHexIO_testJunkRecType:0000000000000000 _ZTI25TestHexIO_testJunkRecType
     /tmp/cc79HNJ1.s:9589   .text._ZN25TestHexIO_testJunkRecTypeD2Ev:0000000000000000 _ZN25TestHexIO_testJunkRecTypeD1Ev
     /tmp/cc79HNJ1.s:9622   .text._ZN25TestHexIO_testJunkRecTypeD0Ev:0000000000000000 _ZN25TestHexIO_testJunkRecTypeD0Ev
     /tmp/cc79HNJ1.s:9589   .text._ZN25TestHexIO_testJunkRecTypeD2Ev:0000000000000000 _ZN25TestHexIO_testJunkRecTypeD2Ev
     /tmp/cc79HNJ1.s:10530  .data.rel.ro._ZTI25TestHexIO_testJunkAddrLsb:0000000000000000 _ZTI25TestHexIO_testJunkAddrLsb
     /tmp/cc79HNJ1.s:9700   .text._ZN25TestHexIO_testJunkAddrLsbD2Ev:0000000000000000 _ZN25TestHexIO_testJunkAddrLsbD1Ev
     /tmp/cc79HNJ1.s:9733   .text._ZN25TestHexIO_testJunkAddrLsbD0Ev:0000000000000000 _ZN25TestHexIO_testJunkAddrLsbD0Ev
     /tmp/cc79HNJ1.s:9700   .text._ZN25TestHexIO_testJunkAddrLsbD2Ev:0000000000000000 _ZN25TestHexIO_testJunkAddrLsbD2Ev
     /tmp/cc79HNJ1.s:10546  .data.rel.ro._ZTI25TestHexIO_testJunkAddrMsb:0000000000000000 _ZTI25TestHexIO_testJunkAddrMsb
     /tmp/cc79HNJ1.s:9811   .text._ZN25TestHexIO_testJunkAddrMsbD2Ev:0000000000000000 _ZN25TestHexIO_testJunkAddrMsbD1Ev
     /tmp/cc79HNJ1.s:9844   .text._ZN25TestHexIO_testJunkAddrMsbD0Ev:0000000000000000 _ZN25TestHexIO_testJunkAddrMsbD0Ev
     /tmp/cc79HNJ1.s:9811   .text._ZN25TestHexIO_testJunkAddrMsbD2Ev:0000000000000000 _ZN25TestHexIO_testJunkAddrMsbD2Ev
     /tmp/cc79HNJ1.s:10562  .data.rel.ro._ZTI27TestHexIO_testJunkByteCount:0000000000000000 _ZTI27TestHexIO_testJunkByteCount
     /tmp/cc79HNJ1.s:9922   .text._ZN27TestHexIO_testJunkByteCountD2Ev:0000000000000000 _ZN27TestHexIO_testJunkByteCountD1Ev
     /tmp/cc79HNJ1.s:9955   .text._ZN27TestHexIO_testJunkByteCountD0Ev:0000000000000000 _ZN27TestHexIO_testJunkByteCountD0Ev
     /tmp/cc79HNJ1.s:9922   .text._ZN27TestHexIO_testJunkByteCountD2Ev:0000000000000000 _ZN27TestHexIO_testJunkByteCountD2Ev
     /tmp/cc79HNJ1.s:10578  .data.rel.ro._ZTI27TestHexIO_testJunkStartCode:0000000000000000 _ZTI27TestHexIO_testJunkStartCode
     /tmp/cc79HNJ1.s:10033  .text._ZN27TestHexIO_testJunkStartCodeD2Ev:0000000000000000 _ZN27TestHexIO_testJunkStartCodeD1Ev
     /tmp/cc79HNJ1.s:10066  .text._ZN27TestHexIO_testJunkStartCodeD0Ev:0000000000000000 _ZN27TestHexIO_testJunkStartCodeD0Ev
     /tmp/cc79HNJ1.s:10033  .text._ZN27TestHexIO_testJunkStartCodeD2Ev:0000000000000000 _ZN27TestHexIO_testJunkStartCodeD2Ev
     /tmp/cc79HNJ1.s:10594  .data.rel.ro._ZTI22TestHexIO_testValidEOF:0000000000000000 _ZTI22TestHexIO_testValidEOF
     /tmp/cc79HNJ1.s:10144  .text._ZN22TestHexIO_testValidEOFD2Ev:0000000000000000 _ZN22TestHexIO_testValidEOFD1Ev
     /tmp/cc79HNJ1.s:10177  .text._ZN22TestHexIO_testValidEOFD0Ev:0000000000000000 _ZN22TestHexIO_testValidEOFD0Ev
     /tmp/cc79HNJ1.s:10144  .text._ZN22TestHexIO_testValidEOFD2Ev:0000000000000000 _ZN22TestHexIO_testValidEOFD2Ev
     /tmp/cc79HNJ1.s:10610  .data.rel.ro._ZTI27TestHexIO_testValidDataLine:0000000000000000 _ZTI27TestHexIO_testValidDataLine
     /tmp/cc79HNJ1.s:10255  .text._ZN27TestHexIO_testValidDataLineD2Ev:0000000000000000 _ZN27TestHexIO_testValidDataLineD1Ev
     /tmp/cc79HNJ1.s:10288  .text._ZN27TestHexIO_testValidDataLineD0Ev:0000000000000000 _ZN27TestHexIO_testValidDataLineD0Ev
     /tmp/cc79HNJ1.s:10255  .text._ZN27TestHexIO_testValidDataLineD2Ev:0000000000000000 _ZN27TestHexIO_testValidDataLineD2Ev
     /tmp/cc79HNJ1.s:10626  .data.rel.ro._ZTIN8UnitTest15MemoryOutStreamE:0000000000000000 _ZTIN8UnitTest15MemoryOutStreamE
     /tmp/cc79HNJ1.s:10385  .data.rel.ro._ZTCN8UnitTest15MemoryOutStreamE0_NSt7__cxx1119basic_ostringstreamIcSt11char_traitsIcESaIcEEE:0000000000000000 _ZTCN8UnitTest15MemoryOutStreamE0_NSt7__cxx1119basic_ostringstreamIcSt11char_traitsIcESaIcEEE
     /tmp/cc79HNJ1.s:10402  .data.rel.ro._ZTCN8UnitTest15MemoryOutStreamE0_So:0000000000000000 _ZTCN8UnitTest15MemoryOutStreamE0_So
     /tmp/cc79HNJ1.s:10427  .rodata._ZTS28TestHexIO_testDeriveWriteMap:0000000000000000 _ZTS28TestHexIO_testDeriveWriteMap
     /tmp/cc79HNJ1.s:10443  .rodata._ZTS23TestHexIO_testRoundTrip:0000000000000000 _ZTS23TestHexIO_testRoundTrip
     /tmp/cc79HNJ1.s:10459  .rodata._ZTS25TestHexIO_testCorruptLine:0000000000000000 _ZTS25TestHexIO_testCorruptLine
     /tmp/cc79HNJ1.s:10475  .rodata._ZTS25TestHexIO_testBadChecksum:0000000000000000 _ZTS25TestHexIO_testBadChecksum
     /tmp/cc79HNJ1.s:10491  .rodata._ZTS26TestHexIO_testJunkChecksum:0000000000000000 _ZTS26TestHexIO_testJunkChecksum
     /tmp/cc79HNJ1.s:10507  .rodata._ZTS26TestHexIO_testJunkDataByte:0000000000000000 _ZTS26TestHexIO_testJunkDataByte
     /tmp/cc79HNJ1.s:10523  .rodata._ZTS25TestHexIO_testJunkRecType:0000000000000000 _ZTS25TestHexIO_testJunkRecType
     /tmp/cc79HNJ1.s:10539  .rodata._ZTS25TestHexIO_testJunkAddrLsb:0000000000000000 _ZTS25TestHexIO_testJunkAddrLsb
     /tmp/cc79HNJ1.s:10555  .rodata._ZTS25TestHexIO_testJunkAddrMsb:0000000000000000 _ZTS25TestHexIO_testJunkAddrMsb
     /tmp/cc79HNJ1.s:10571  .rodata._ZTS27TestHexIO_testJunkByteCount:0000000000000000 _ZTS27TestHexIO_testJunkByteCount
     /tmp/cc79HNJ1.s:10587  .rodata._ZTS27TestHexIO_testJunkStartCode:0000000000000000 _ZTS27TestHexIO_testJunkStartCode
     /tmp/cc79HNJ1.s:10603  .rodata._ZTS22TestHexIO_testValidEOF:0000000000000000 _ZTS22TestHexIO_testValidEOF
     /tmp/cc79HNJ1.s:10619  .rodata._ZTS27TestHexIO_testValidDataLine:0000000000000000 _ZTS27TestHexIO_testValidDataLine
     /tmp/cc79HNJ1.s:10635  .rodata._ZTSN8UnitTest15MemoryOutStreamE:0000000000000000 _ZTSN8UnitTest15MemoryOutStreamE
     /tmp/cc79HNJ1.s:10639  .text:0000000000003249 _Z41__static_initialization_and_destruction_0ii
     /tmp/cc79HNJ1.s:10823  .text:00000000000035be _GLOBAL__sub_I_testHexIO_testValidDataLineInstance
                           .group:0000000000000000 _ZN27TestHexIO_testValidDataLineC5Ev
                           .group:0000000000000000 _ZN22TestHexIO_testValidEOFC5Ev
                           .group:0000000000000000 _ZN27TestHexIO_testJunkStartCodeC5Ev
                           .group:0000000000000000 _ZN27TestHexIO_testJunkByteCountC5Ev
                           .group:0000000000000000 _ZN25TestHexIO_testJunkAddrMsbC5Ev
                           .group:0000000000000000 _ZN25TestHexIO_testJunkAddrLsbC5Ev
                           .group:0000000000000000 _ZN25TestHexIO_testJunkRecTypeC5Ev
                           .group:0000000000000000 _ZN26TestHexIO_testJunkDataByteC5Ev
                           .group:0000000000000000 _ZN26TestHexIO_testJunkChecksumC5Ev
                           .group:0000000000000000 _ZN25TestHexIO_testBadChecksumC5Ev
                           .group:0000000000000000 _ZN25TestHexIO_testCorruptLineC5Ev
                           .group:0000000000000000 _ZN23TestHexIO_testRoundTripC5Ev
                           .group:0000000000000000 _ZN28TestHexIO_testDeriveWriteMapC5Ev
                           .group:0000000000000000 _ZN28TestHexIO_testDeriveWriteMapD5Ev
                           .group:0000000000000000 _ZN23TestHexIO_testRoundTripD5Ev
                           .group:0000000000000000 _ZN25TestHexIO_testCorruptLineD5Ev
                           .group:0000000000000000 _ZN25TestHexIO_testBadChecksumD5Ev
                           .group:0000000000000000 _ZN26TestHexIO_testJunkChecksumD5Ev
                           .group:0000000000000000 _ZN26TestHexIO_testJunkDataByteD5Ev
                           .group:0000000000000000 _ZN25TestHexIO_testJunkRecTypeD5Ev
                           .group:0000000000000000 _ZN25TestHexIO_testJunkAddrLsbD5Ev
                           .group:0000000000000000 _ZN25TestHexIO_testJunkAddrMsbD5Ev
                           .group:0000000000000000 _ZN27TestHexIO_testJunkByteCountD5Ev
                           .group:0000000000000000 _ZN27TestHexIO_testJunkStartCodeD5Ev
                           .group:0000000000000000 _ZN22TestHexIO_testValidEOFD5Ev
                           .group:0000000000000000 _ZN27TestHexIO_testValidDataLineD5Ev

UNDEFINED SYMBOLS
_GLOBAL_OFFSET_TABLE_
_ZNSt9basic_iosIcSt11char_traitsIcEEC2Ev
_ZNSt7__cxx1119basic_ostringstreamIcSt11char_traitsIcESaIcEEC2ESt13_Ios_Openmode
_ZNSt7__cxx1112basic_stringIcSt11char_traitsIcESaIcEEC1Ev
_ZNSt7__cxx1119basic_ostringstreamIcSt11char_traitsIcESaIcEED2Ev
_ZNSt9basic_iosIcSt11char_traitsIcEED2Ev
_Unwind_Resume
__gxx_personality_v0
_ZN8UnitTest4TestC2EPKcS2_S2_i
bufInitialise
_ZN8UnitTest11CurrentTest7DetailsEv
_ZN8UnitTest11TestDetailsC1ERKS0_i
_ZN8UnitTest11CurrentTest7ResultsEv
bufProcessLine
bufDestroy
__cxa_begin_catch
_ZN8UnitTest11TestResults13OnTestFailureERKNS_11TestDetailsEPKc
__cxa_end_catch
__stack_chk_fail
_ZNSt7__cxx1112basic_stringIcSt11char_traitsIcESaIcEEpLEPKc
_ZNSt7__cxx1112basic_stringIcSt11char_traitsIcESaIcEEpLEc
bufWriteToIntelHexFile
_ZNSt14basic_ifstreamIcSt11char_traitsIcEEC1Ev
_ZNSt14basic_ifstreamIcSt11char_traitsIcEE4openEPKcSt13_Ios_Openmode
_ZNSt14basic_ifstreamIcSt11char_traitsIcEE7is_openEv
_ZNSi5tellgEv
_ZNKSt7__cxx1112basic_stringIcSt11char_traitsIcESaIcEE4sizeEv
_Znam
_ZNSi5seekgElSt12_Ios_Seekdir
_ZNSi4readEPcl
_ZNSt14basic_ifstreamIcSt11char_traitsIcEE5closeEv
_ZNKSt7__cxx1112basic_stringIcSt11char_traitsIcESaIcEE5c_strEv
bufReadFromIntelHexFile
_ZNSt14basic_ifstreamIcSt11char_traitsIcEED1Ev
_ZNSt7__cxx1112basic_stringIcSt11char_traitsIcESaIcEED1Ev
strlen
bufWriteBlock
bufDeriveMask
_ZdlPv
_ZStlsISt11char_traitsIcEERSt13basic_ostreamIcT_ES5_PKc
_ZNSolsEi
_ZNK8UnitTest15MemoryOutStream7GetTextEv
_ZStlsISt11char_traitsIcEERSt13basic_ostreamIcT_ES5_h
_ZNSolsEm
_ZNSolsEj
_ZStlsISt11char_traitsIcEERSt13basic_ostreamIcT_ES5_c
_ZN8UnitTest4TestD2Ev
_ZTINSt7__cxx1119basic_ostringstreamIcSt11char_traitsIcESaIcEEE
_ZTISo
_ZTVN10__cxxabiv120__si_class_type_infoE
_ZTIN8UnitTest4TestE
__dso_handle
__cxa_atexit
_ZN8UnitTest4Test11GetTestListEv
_ZN8UnitTest9ListAdderC1ERNS_8TestListEPNS_4TestE
