   1              		.file	"testHexIO.cpp"
   2              		.text
   3              	.Ltext0:
   4              		.section	.text._ZStorSt13_Ios_OpenmodeS_,"axG",@progbits,_ZStorSt13_Ios_OpenmodeS_,comdat
   5              		.weak	_ZStorSt13_Ios_OpenmodeS_
   7              	_ZStorSt13_Ios_OpenmodeS_:
   8              	.LFB663:
   9              		.file 1 "/usr/include/c++/7/bits/ios_base.h"
   1:/usr/include/c++/7/bits/ios_base.h **** // Iostreams base classes -*- C++ -*-
   2:/usr/include/c++/7/bits/ios_base.h **** 
   3:/usr/include/c++/7/bits/ios_base.h **** // Copyright (C) 1997-2017 Free Software Foundation, Inc.
   4:/usr/include/c++/7/bits/ios_base.h **** //
   5:/usr/include/c++/7/bits/ios_base.h **** // This file is part of the GNU ISO C++ Library.  This library is free
   6:/usr/include/c++/7/bits/ios_base.h **** // software; you can redistribute it and/or modify it under the
   7:/usr/include/c++/7/bits/ios_base.h **** // terms of the GNU General Public License as published by the
   8:/usr/include/c++/7/bits/ios_base.h **** // Free Software Foundation; either version 3, or (at your option)
   9:/usr/include/c++/7/bits/ios_base.h **** // any later version.
  10:/usr/include/c++/7/bits/ios_base.h **** 
  11:/usr/include/c++/7/bits/ios_base.h **** // This library is distributed in the hope that it will be useful,
  12:/usr/include/c++/7/bits/ios_base.h **** // but WITHOUT ANY WARRANTY; without even the implied warranty of
  13:/usr/include/c++/7/bits/ios_base.h **** // MERCHANTABILITY or FITNESS FOR A PARTICULAR PURPOSE.  See the
  14:/usr/include/c++/7/bits/ios_base.h **** // GNU General Public License for more details.
  15:/usr/include/c++/7/bits/ios_base.h **** 
  16:/usr/include/c++/7/bits/ios_base.h **** // Under Section 7 of GPL version 3, you are granted additional
  17:/usr/include/c++/7/bits/ios_base.h **** // permissions described in the GCC Runtime Library Exception, version
  18:/usr/include/c++/7/bits/ios_base.h **** // 3.1, as published by the Free Software Foundation.
  19:/usr/include/c++/7/bits/ios_base.h **** 
  20:/usr/include/c++/7/bits/ios_base.h **** // You should have received a copy of the GNU General Public License and
  21:/usr/include/c++/7/bits/ios_base.h **** // a copy of the GCC Runtime Library Exception along with this program;
  22:/usr/include/c++/7/bits/ios_base.h **** // see the files COPYING3 and COPYING.RUNTIME respectively.  If not, see
  23:/usr/include/c++/7/bits/ios_base.h **** // <http://www.gnu.org/licenses/>.
  24:/usr/include/c++/7/bits/ios_base.h **** 
  25:/usr/include/c++/7/bits/ios_base.h **** /** @file bits/ios_base.h
  26:/usr/include/c++/7/bits/ios_base.h ****  *  This is an internal header file, included by other library headers.
  27:/usr/include/c++/7/bits/ios_base.h ****  *  Do not attempt to use it directly. @headername{ios}
  28:/usr/include/c++/7/bits/ios_base.h ****  */
  29:/usr/include/c++/7/bits/ios_base.h **** 
  30:/usr/include/c++/7/bits/ios_base.h **** //
  31:/usr/include/c++/7/bits/ios_base.h **** // ISO C++ 14882: 27.4  Iostreams base classes
  32:/usr/include/c++/7/bits/ios_base.h **** //
  33:/usr/include/c++/7/bits/ios_base.h **** 
  34:/usr/include/c++/7/bits/ios_base.h **** #ifndef _IOS_BASE_H
  35:/usr/include/c++/7/bits/ios_base.h **** #define _IOS_BASE_H 1
  36:/usr/include/c++/7/bits/ios_base.h **** 
  37:/usr/include/c++/7/bits/ios_base.h **** #pragma GCC system_header
  38:/usr/include/c++/7/bits/ios_base.h **** 
  39:/usr/include/c++/7/bits/ios_base.h **** #include <ext/atomicity.h>
  40:/usr/include/c++/7/bits/ios_base.h **** #include <bits/localefwd.h>
  41:/usr/include/c++/7/bits/ios_base.h **** #include <bits/locale_classes.h>
  42:/usr/include/c++/7/bits/ios_base.h **** 
  43:/usr/include/c++/7/bits/ios_base.h **** #if __cplusplus < 201103L
  44:/usr/include/c++/7/bits/ios_base.h **** # include <stdexcept>
  45:/usr/include/c++/7/bits/ios_base.h **** #else
  46:/usr/include/c++/7/bits/ios_base.h **** # include <system_error>
  47:/usr/include/c++/7/bits/ios_base.h **** #endif
  48:/usr/include/c++/7/bits/ios_base.h **** 
  49:/usr/include/c++/7/bits/ios_base.h **** namespace std _GLIBCXX_VISIBILITY(default)
  50:/usr/include/c++/7/bits/ios_base.h **** {
  51:/usr/include/c++/7/bits/ios_base.h **** _GLIBCXX_BEGIN_NAMESPACE_VERSION
  52:/usr/include/c++/7/bits/ios_base.h **** 
  53:/usr/include/c++/7/bits/ios_base.h ****   // The following definitions of bitmask types are enums, not ints,
  54:/usr/include/c++/7/bits/ios_base.h ****   // as permitted (but not required) in the standard, in order to provide
  55:/usr/include/c++/7/bits/ios_base.h ****   // better type safety in iostream calls.  A side effect is that in C++98
  56:/usr/include/c++/7/bits/ios_base.h ****   // expressions involving them are not compile-time constants.
  57:/usr/include/c++/7/bits/ios_base.h ****   enum _Ios_Fmtflags 
  58:/usr/include/c++/7/bits/ios_base.h ****     { 
  59:/usr/include/c++/7/bits/ios_base.h ****       _S_boolalpha 	= 1L << 0,
  60:/usr/include/c++/7/bits/ios_base.h ****       _S_dec 		= 1L << 1,
  61:/usr/include/c++/7/bits/ios_base.h ****       _S_fixed 		= 1L << 2,
  62:/usr/include/c++/7/bits/ios_base.h ****       _S_hex 		= 1L << 3,
  63:/usr/include/c++/7/bits/ios_base.h ****       _S_internal 	= 1L << 4,
  64:/usr/include/c++/7/bits/ios_base.h ****       _S_left 		= 1L << 5,
  65:/usr/include/c++/7/bits/ios_base.h ****       _S_oct 		= 1L << 6,
  66:/usr/include/c++/7/bits/ios_base.h ****       _S_right 		= 1L << 7,
  67:/usr/include/c++/7/bits/ios_base.h ****       _S_scientific 	= 1L << 8,
  68:/usr/include/c++/7/bits/ios_base.h ****       _S_showbase 	= 1L << 9,
  69:/usr/include/c++/7/bits/ios_base.h ****       _S_showpoint 	= 1L << 10,
  70:/usr/include/c++/7/bits/ios_base.h ****       _S_showpos 	= 1L << 11,
  71:/usr/include/c++/7/bits/ios_base.h ****       _S_skipws 	= 1L << 12,
  72:/usr/include/c++/7/bits/ios_base.h ****       _S_unitbuf 	= 1L << 13,
  73:/usr/include/c++/7/bits/ios_base.h ****       _S_uppercase 	= 1L << 14,
  74:/usr/include/c++/7/bits/ios_base.h ****       _S_adjustfield 	= _S_left | _S_right | _S_internal,
  75:/usr/include/c++/7/bits/ios_base.h ****       _S_basefield 	= _S_dec | _S_oct | _S_hex,
  76:/usr/include/c++/7/bits/ios_base.h ****       _S_floatfield 	= _S_scientific | _S_fixed,
  77:/usr/include/c++/7/bits/ios_base.h ****       _S_ios_fmtflags_end = 1L << 16,
  78:/usr/include/c++/7/bits/ios_base.h ****       _S_ios_fmtflags_max = __INT_MAX__,
  79:/usr/include/c++/7/bits/ios_base.h ****       _S_ios_fmtflags_min = ~__INT_MAX__
  80:/usr/include/c++/7/bits/ios_base.h ****     };
  81:/usr/include/c++/7/bits/ios_base.h **** 
  82:/usr/include/c++/7/bits/ios_base.h ****   inline _GLIBCXX_CONSTEXPR _Ios_Fmtflags
  83:/usr/include/c++/7/bits/ios_base.h ****   operator&(_Ios_Fmtflags __a, _Ios_Fmtflags __b)
  84:/usr/include/c++/7/bits/ios_base.h ****   { return _Ios_Fmtflags(static_cast<int>(__a) & static_cast<int>(__b)); }
  85:/usr/include/c++/7/bits/ios_base.h **** 
  86:/usr/include/c++/7/bits/ios_base.h ****   inline _GLIBCXX_CONSTEXPR _Ios_Fmtflags
  87:/usr/include/c++/7/bits/ios_base.h ****   operator|(_Ios_Fmtflags __a, _Ios_Fmtflags __b)
  88:/usr/include/c++/7/bits/ios_base.h ****   { return _Ios_Fmtflags(static_cast<int>(__a) | static_cast<int>(__b)); }
  89:/usr/include/c++/7/bits/ios_base.h **** 
  90:/usr/include/c++/7/bits/ios_base.h ****   inline _GLIBCXX_CONSTEXPR _Ios_Fmtflags
  91:/usr/include/c++/7/bits/ios_base.h ****   operator^(_Ios_Fmtflags __a, _Ios_Fmtflags __b)
  92:/usr/include/c++/7/bits/ios_base.h ****   { return _Ios_Fmtflags(static_cast<int>(__a) ^ static_cast<int>(__b)); }
  93:/usr/include/c++/7/bits/ios_base.h **** 
  94:/usr/include/c++/7/bits/ios_base.h ****   inline _GLIBCXX_CONSTEXPR _Ios_Fmtflags
  95:/usr/include/c++/7/bits/ios_base.h ****   operator~(_Ios_Fmtflags __a)
  96:/usr/include/c++/7/bits/ios_base.h ****   { return _Ios_Fmtflags(~static_cast<int>(__a)); }
  97:/usr/include/c++/7/bits/ios_base.h **** 
  98:/usr/include/c++/7/bits/ios_base.h ****   inline const _Ios_Fmtflags&
  99:/usr/include/c++/7/bits/ios_base.h ****   operator|=(_Ios_Fmtflags& __a, _Ios_Fmtflags __b)
 100:/usr/include/c++/7/bits/ios_base.h ****   { return __a = __a | __b; }
 101:/usr/include/c++/7/bits/ios_base.h **** 
 102:/usr/include/c++/7/bits/ios_base.h ****   inline const _Ios_Fmtflags&
 103:/usr/include/c++/7/bits/ios_base.h ****   operator&=(_Ios_Fmtflags& __a, _Ios_Fmtflags __b)
 104:/usr/include/c++/7/bits/ios_base.h ****   { return __a = __a & __b; }
 105:/usr/include/c++/7/bits/ios_base.h **** 
 106:/usr/include/c++/7/bits/ios_base.h ****   inline const _Ios_Fmtflags&
 107:/usr/include/c++/7/bits/ios_base.h ****   operator^=(_Ios_Fmtflags& __a, _Ios_Fmtflags __b)
 108:/usr/include/c++/7/bits/ios_base.h ****   { return __a = __a ^ __b; }
 109:/usr/include/c++/7/bits/ios_base.h **** 
 110:/usr/include/c++/7/bits/ios_base.h **** 
 111:/usr/include/c++/7/bits/ios_base.h ****   enum _Ios_Openmode 
 112:/usr/include/c++/7/bits/ios_base.h ****     { 
 113:/usr/include/c++/7/bits/ios_base.h ****       _S_app 		= 1L << 0,
 114:/usr/include/c++/7/bits/ios_base.h ****       _S_ate 		= 1L << 1,
 115:/usr/include/c++/7/bits/ios_base.h ****       _S_bin 		= 1L << 2,
 116:/usr/include/c++/7/bits/ios_base.h ****       _S_in 		= 1L << 3,
 117:/usr/include/c++/7/bits/ios_base.h ****       _S_out 		= 1L << 4,
 118:/usr/include/c++/7/bits/ios_base.h ****       _S_trunc 		= 1L << 5,
 119:/usr/include/c++/7/bits/ios_base.h ****       _S_ios_openmode_end = 1L << 16,
 120:/usr/include/c++/7/bits/ios_base.h ****       _S_ios_openmode_max = __INT_MAX__,
 121:/usr/include/c++/7/bits/ios_base.h ****       _S_ios_openmode_min = ~__INT_MAX__
 122:/usr/include/c++/7/bits/ios_base.h ****     };
 123:/usr/include/c++/7/bits/ios_base.h **** 
 124:/usr/include/c++/7/bits/ios_base.h ****   inline _GLIBCXX_CONSTEXPR _Ios_Openmode
 125:/usr/include/c++/7/bits/ios_base.h ****   operator&(_Ios_Openmode __a, _Ios_Openmode __b)
 126:/usr/include/c++/7/bits/ios_base.h ****   { return _Ios_Openmode(static_cast<int>(__a) & static_cast<int>(__b)); }
 127:/usr/include/c++/7/bits/ios_base.h **** 
 128:/usr/include/c++/7/bits/ios_base.h ****   inline _GLIBCXX_CONSTEXPR _Ios_Openmode
 129:/usr/include/c++/7/bits/ios_base.h ****   operator|(_Ios_Openmode __a, _Ios_Openmode __b)
 130:/usr/include/c++/7/bits/ios_base.h ****   { return _Ios_Openmode(static_cast<int>(__a) | static_cast<int>(__b)); }
  10              		.loc 1 130 0
  11              		.cfi_startproc
  12 0000 55       		pushq	%rbp
  13              		.cfi_def_cfa_offset 16
  14              		.cfi_offset 6, -16
  15 0001 4889E5   		movq	%rsp, %rbp
  16              		.cfi_def_cfa_register 6
  17 0004 897DFC   		movl	%edi, -4(%rbp)
  18 0007 8975F8   		movl	%esi, -8(%rbp)
  19              		.loc 1 130 0
  20 000a 8B45FC   		movl	-4(%rbp), %eax
  21 000d 0B45F8   		orl	-8(%rbp), %eax
  22 0010 5D       		popq	%rbp
  23              		.cfi_def_cfa 7, 8
  24 0011 C3       		ret
  25              		.cfi_endproc
  26              	.LFE663:
  28              		.section	.rodata
  29              	.LC0:
  30 0000 44656661 		.string	"DefaultSuite"
  30      756C7453 
  30      75697465 
  30      00
  31              		.section	.text._ZN13UnitTestSuite12GetSuiteNameEv,"axG",@progbits,_ZN13UnitTestSuite12GetSuiteName
  32              		.weak	_ZN13UnitTestSuite12GetSuiteNameEv
  34              	_ZN13UnitTestSuite12GetSuiteNameEv:
  35              	.LFB1104:
  36              		.file 2 "/home/gani/eval/20140524/makestuff/libs/libutpp/TestSuite.h"
   1:/home/gani/eval/20140524/makestuff/libs/libutpp/TestSuite.h **** #ifndef UNITTEST_TESTSUITE_H
   2:/home/gani/eval/20140524/makestuff/libs/libutpp/TestSuite.h **** #define UNITTEST_TESTSUITE_H
   3:/home/gani/eval/20140524/makestuff/libs/libutpp/TestSuite.h **** 
   4:/home/gani/eval/20140524/makestuff/libs/libutpp/TestSuite.h **** namespace UnitTestSuite {
   5:/home/gani/eval/20140524/makestuff/libs/libutpp/TestSuite.h **** 
   6:/home/gani/eval/20140524/makestuff/libs/libutpp/TestSuite.h ****     inline char const* GetSuiteName ()
   7:/home/gani/eval/20140524/makestuff/libs/libutpp/TestSuite.h ****     {
  37              		.loc 2 7 0
  38              		.cfi_startproc
  39 0000 55       		pushq	%rbp
  40              		.cfi_def_cfa_offset 16
  41              		.cfi_offset 6, -16
  42 0001 4889E5   		movq	%rsp, %rbp
  43              		.cfi_def_cfa_register 6
   8:/home/gani/eval/20140524/makestuff/libs/libutpp/TestSuite.h ****         return "DefaultSuite";
  44              		.loc 2 8 0
  45 0004 488D0500 		leaq	.LC0(%rip), %rax
  45      000000
   9:/home/gani/eval/20140524/makestuff/libs/libutpp/TestSuite.h ****     }
  46              		.loc 2 9 0
  47 000b 5D       		popq	%rbp
  48              		.cfi_def_cfa 7, 8
  49 000c C3       		ret
  50              		.cfi_endproc
  51              	.LFE1104:
  53              		.section	.text._ZN8UnitTest15MemoryOutStreamC1Ev,"axG",@progbits,_ZN8UnitTest15MemoryOutStreamC1Ev
  54              		.align 2
  55              		.weak	_ZN8UnitTest15MemoryOutStreamC1Ev
  57              	_ZN8UnitTest15MemoryOutStreamC1Ev:
  58              	.LFB1140:
  59              		.file 3 "/home/gani/eval/20140524/makestuff/libs/libutpp/MemoryOutStream.h"
   1:/home/gani/eval/20140524/makestuff/libs/libutpp/MemoryOutStream.h **** #ifndef UNITTEST_MEMORYOUTSTREAM_H
   2:/home/gani/eval/20140524/makestuff/libs/libutpp/MemoryOutStream.h **** #define UNITTEST_MEMORYOUTSTREAM_H
   3:/home/gani/eval/20140524/makestuff/libs/libutpp/MemoryOutStream.h **** 
   4:/home/gani/eval/20140524/makestuff/libs/libutpp/MemoryOutStream.h **** #include "Config.h"
   5:/home/gani/eval/20140524/makestuff/libs/libutpp/MemoryOutStream.h **** 
   6:/home/gani/eval/20140524/makestuff/libs/libutpp/MemoryOutStream.h **** #ifndef UNITTEST_USE_CUSTOM_STREAMS
   7:/home/gani/eval/20140524/makestuff/libs/libutpp/MemoryOutStream.h **** 
   8:/home/gani/eval/20140524/makestuff/libs/libutpp/MemoryOutStream.h **** #include <sstream>
   9:/home/gani/eval/20140524/makestuff/libs/libutpp/MemoryOutStream.h **** 
  10:/home/gani/eval/20140524/makestuff/libs/libutpp/MemoryOutStream.h **** namespace UnitTest
  11:/home/gani/eval/20140524/makestuff/libs/libutpp/MemoryOutStream.h **** {
  12:/home/gani/eval/20140524/makestuff/libs/libutpp/MemoryOutStream.h **** 
  13:/home/gani/eval/20140524/makestuff/libs/libutpp/MemoryOutStream.h **** class MemoryOutStream : public std::ostringstream
  14:/home/gani/eval/20140524/makestuff/libs/libutpp/MemoryOutStream.h **** {
  15:/home/gani/eval/20140524/makestuff/libs/libutpp/MemoryOutStream.h **** public:
  16:/home/gani/eval/20140524/makestuff/libs/libutpp/MemoryOutStream.h ****     MemoryOutStream() {}
  60              		.loc 3 16 0
  61              		.cfi_startproc
  62              		.cfi_personality 0x9b,DW.ref.__gxx_personality_v0
  63              		.cfi_lsda 0x1b,.LLSDA1140
  64 0000 55       		pushq	%rbp
  65              		.cfi_def_cfa_offset 16
  66              		.cfi_offset 6, -16
  67 0001 4889E5   		movq	%rsp, %rbp
  68              		.cfi_def_cfa_register 6
  69 0004 53       		pushq	%rbx
  70 0005 4883EC18 		subq	$24, %rsp
  71              		.cfi_offset 3, -24
  72 0009 48897DE8 		movq	%rdi, -24(%rbp)
  73              	.LBB2:
  74              		.loc 3 16 0
  75 000d 488B45E8 		movq	-24(%rbp), %rax
  76 0011 48059000 		addq	$144, %rax
  76      0000
  77 0017 4889C7   		movq	%rax, %rdi
  78              	.LEHB0:
  79 001a E8000000 		call	_ZNSt9basic_iosIcSt11char_traitsIcEEC2Ev@PLT
  79      00
  80              	.LEHE0:
  81 001f 488B45E8 		movq	-24(%rbp), %rax
  82 0023 488D0D00 		leaq	8+_ZTTN8UnitTest15MemoryOutStreamE(%rip), %rcx
  82      000000
  83 002a BA100000 		movl	$16, %edx
  83      00
  84 002f 4889CE   		movq	%rcx, %rsi
  85 0032 4889C7   		movq	%rax, %rdi
  86              	.LEHB1:
  87 0035 E8000000 		call	_ZNSt7__cxx1119basic_ostringstreamIcSt11char_traitsIcESaIcEEC2ESt13_Ios_Openmode@PLT
  87      00
  88              	.LEHE1:
  89              		.loc 3 16 0 is_stmt 0 discriminator 8
  90 003a 488D1500 		leaq	24+_ZTVN8UnitTest15MemoryOutStreamE(%rip), %rdx
  90      000000
  91 0041 488B45E8 		movq	-24(%rbp), %rax
  92 0045 488910   		movq	%rdx, (%rax)
  93 0048 488B45E8 		movq	-24(%rbp), %rax
  94 004c 488D9090 		leaq	144(%rax), %rdx
  94      000000
  95 0053 488D0500 		leaq	64+_ZTVN8UnitTest15MemoryOutStreamE(%rip), %rax
  95      000000
  96 005a 488902   		movq	%rax, (%rdx)
  97 005d 488B45E8 		movq	-24(%rbp), %rax
  98 0061 4883C070 		addq	$112, %rax
  99 0065 4889C7   		movq	%rax, %rdi
 100              	.LEHB2:
 101 0068 E8000000 		call	_ZNSt7__cxx1112basic_stringIcSt11char_traitsIcESaIcEEC1Ev@PLT
 101      00
 102              	.LEHE2:
 103              	.LBE2:
 104              		.loc 3 16 0
 105 006d EB3B     		jmp	.L11
 106              	.L9:
 107 006f 4889C3   		movq	%rax, %rbx
 108              	.LBB3:
 109 0072 488B45E8 		movq	-24(%rbp), %rax
 110 0076 488D1500 		leaq	8+_ZTTN8UnitTest15MemoryOutStreamE(%rip), %rdx
 110      000000
 111 007d 4889D6   		movq	%rdx, %rsi
 112 0080 4889C7   		movq	%rax, %rdi
 113 0083 E8000000 		call	_ZNSt7__cxx1119basic_ostringstreamIcSt11char_traitsIcESaIcEED2Ev@PLT
 113      00
 114 0088 EB03     		jmp	.L10
 115              	.L8:
 116 008a 4889C3   		movq	%rax, %rbx
 117              	.L10:
 118              		.loc 3 16 0 discriminator 11
 119 008d 488B45E8 		movq	-24(%rbp), %rax
 120 0091 48059000 		addq	$144, %rax
 120      0000
 121 0097 4889C7   		movq	%rax, %rdi
 122 009a E8000000 		call	_ZNSt9basic_iosIcSt11char_traitsIcEED2Ev@PLT
 122      00
 123 009f 4889D8   		movq	%rbx, %rax
 124 00a2 4889C7   		movq	%rax, %rdi
 125              	.LEHB3:
 126 00a5 E8000000 		call	_Unwind_Resume@PLT
 126      00
 127              	.LEHE3:
 128              	.L11:
 129              	.LBE3:
 130              		.loc 3 16 0
 131 00aa 4883C418 		addq	$24, %rsp
 132 00ae 5B       		popq	%rbx
 133 00af 5D       		popq	%rbp
 134              		.cfi_def_cfa 7, 8
 135 00b0 C3       		ret
 136              		.cfi_endproc
 137              	.LFE1140:
 138              		.globl	__gxx_personality_v0
 139              		.section	.gcc_except_table._ZN8UnitTest15MemoryOutStreamC1Ev,"aG",@progbits,_ZN8UnitTest15MemoryOu
 140              	.LLSDA1140:
 141 0000 FF       		.byte	0xff
 142 0001 FF       		.byte	0xff
 143 0002 01       		.byte	0x1
 144 0003 12       		.uleb128 .LLSDACSE1140-.LLSDACSB1140
 145              	.LLSDACSB1140:
 146 0004 1A       		.uleb128 .LEHB0-.LFB1140
 147 0005 05       		.uleb128 .LEHE0-.LEHB0
 148 0006 00       		.uleb128 0
 149 0007 00       		.uleb128 0
 150 0008 35       		.uleb128 .LEHB1-.LFB1140
 151 0009 05       		.uleb128 .LEHE1-.LEHB1
 152 000a 8A01     		.uleb128 .L8-.LFB1140
 153 000c 00       		.uleb128 0
 154 000d 68       		.uleb128 .LEHB2-.LFB1140
 155 000e 05       		.uleb128 .LEHE2-.LEHB2
 156 000f 6F       		.uleb128 .L9-.LFB1140
 157 0010 00       		.uleb128 0
 158 0011 A501     		.uleb128 .LEHB3-.LFB1140
 159 0013 05       		.uleb128 .LEHE3-.LEHB3
 160 0014 00       		.uleb128 0
 161 0015 00       		.uleb128 0
 162              	.LLSDACSE1140:
 163              		.section	.text._ZN8UnitTest15MemoryOutStreamC1Ev,"axG",@progbits,_ZN8UnitTest15MemoryOutStreamC1Ev
 165              		.section	.rodata
 166              	.LC1:
 167 000d 74657374 		.string	"testHexIO.cpp"
 167      48657849 
 167      4F2E6370 
 167      7000
 168              	.LC2:
 169 001b 48657849 		.string	"HexIO_testValidDataLine"
 169      4F5F7465 
 169      73745661 
 169      6C696444 
 169      6174614C 
 170              		.section	.text._ZN27TestHexIO_testValidDataLineC2Ev,"axG",@progbits,_ZN27TestHexIO_testValidDataLi
 171              		.align 2
 172              		.weak	_ZN27TestHexIO_testValidDataLineC2Ev
 174              	_ZN27TestHexIO_testValidDataLineC2Ev:
 175              	.LFB1157:
 176              		.file 4 "testHexIO.cpp"
   1:testHexIO.cpp **** /*
   2:testHexIO.cpp ****  * Copyright (C) 2009-2012 Chris McClelland
   3:testHexIO.cpp ****  *
   4:testHexIO.cpp ****  * This program is free software: you can redistribute it and/or modify
   5:testHexIO.cpp ****  * it under the terms of the GNU Lesser General Public License as published by
   6:testHexIO.cpp ****  * the Free Software Foundation, either version 3 of the License, or
   7:testHexIO.cpp ****  * (at your option) any later version.
   8:testHexIO.cpp ****  *
   9:testHexIO.cpp ****  * This program is distributed in the hope that it will be useful,
  10:testHexIO.cpp ****  * but WITHOUT ANY WARRANTY; without even the implied warranty of
  11:testHexIO.cpp ****  * MERCHANTABILITY or FITNESS FOR A PARTICULAR PURPOSE.  See the
  12:testHexIO.cpp ****  * GNU Lesser General Public License for more details.
  13:testHexIO.cpp ****  *
  14:testHexIO.cpp ****  * You should have received a copy of the GNU Lesser General Public License
  15:testHexIO.cpp ****  * along with this program.  If not, see <http://www.gnu.org/licenses/>.
  16:testHexIO.cpp ****  */
  17:testHexIO.cpp **** #include <cstdarg>
  18:testHexIO.cpp **** #include <string>
  19:testHexIO.cpp **** #include <fstream>
  20:testHexIO.cpp **** #include <cstring>
  21:testHexIO.cpp **** #include <UnitTest++.h>
  22:testHexIO.cpp **** #include "../private.h"
  23:testHexIO.cpp **** #include "../libbuffer.h"
  24:testHexIO.cpp **** 
  25:testHexIO.cpp **** using namespace std;
  26:testHexIO.cpp **** 
  27:testHexIO.cpp **** TEST(HexIO_testValidDataLine) {
 177              		.loc 4 27 0 is_stmt 1
 178              		.cfi_startproc
 179 0000 55       		pushq	%rbp
 180              		.cfi_def_cfa_offset 16
 181              		.cfi_offset 6, -16
 182 0001 4889E5   		movq	%rsp, %rbp
 183              		.cfi_def_cfa_register 6
 184 0004 53       		pushq	%rbx
 185 0005 4883EC18 		subq	$24, %rsp
 186              		.cfi_offset 3, -24
 187 0009 48897DE8 		movq	%rdi, -24(%rbp)
 188              	.LBB4:
 189              		.loc 4 27 0
 190 000d 488B5DE8 		movq	-24(%rbp), %rbx
 191 0011 E8000000 		call	_ZN13UnitTestSuite12GetSuiteNameEv
 191      00
 192 0016 41B81B00 		movl	$27, %r8d
 192      0000
 193 001c 488D0D00 		leaq	.LC1(%rip), %rcx
 193      000000
 194 0023 4889C2   		movq	%rax, %rdx
 195 0026 488D3500 		leaq	.LC2(%rip), %rsi
 195      000000
 196 002d 4889DF   		movq	%rbx, %rdi
 197 0030 E8000000 		call	_ZN8UnitTest4TestC2EPKcS2_S2_i@PLT
 197      00
 198 0035 488D1500 		leaq	16+_ZTV27TestHexIO_testValidDataLine(%rip), %rdx
 198      000000
 199 003c 488B45E8 		movq	-24(%rbp), %rax
 200 0040 488910   		movq	%rdx, (%rax)
 201              	.LBE4:
 202 0043 90       		nop
 203 0044 4883C418 		addq	$24, %rsp
 204 0048 5B       		popq	%rbx
 205 0049 5D       		popq	%rbp
 206              		.cfi_def_cfa 7, 8
 207 004a C3       		ret
 208              		.cfi_endproc
 209              	.LFE1157:
 211              		.weak	_ZN27TestHexIO_testValidDataLineC1Ev
 212              		.set	_ZN27TestHexIO_testValidDataLineC1Ev,_ZN27TestHexIO_testValidDataLineC2Ev
 213              		.globl	testHexIO_testValidDataLineInstance
 214              		.bss
 215              		.align 32
 218              	testHexIO_testValidDataLineInstance:
 219 0000 00000000 		.zero	56
 219      00000000 
 219      00000000 
 219      00000000 
 219      00000000 
 220              		.globl	adderHexIO_testValidDataLine
 223              	adderHexIO_testValidDataLine:
 224 0038 00       		.zero	1
 225              		.section	.rodata
 226              	.LC3:
 227 0033 3A303430 		.string	":040BE10075820022F7\n"
 227      42453130 
 227      30373538 
 227      32303032 
 227      3246370A 
 228              		.align 8
 229              	.LC4:
 230 0048 556E6861 		.string	"Unhandled exception in CHECK_EQUAL(BUF_SUCCESS, status)"
 230      6E646C65 
 230      64206578 
 230      63657074 
 230      696F6E20 
 231              		.align 8
 232              	.LC5:
 233 0080 556E6861 		.string	"Unhandled exception in CHECK_EQUAL(0x00, recordType)"
 233      6E646C65 
 233      64206578 
 233      63657074 
 233      696F6E20 
 234 00b5 000000   		.align 8
 235              	.LC6:
 236 00b8 556E6861 		.string	"Unhandled exception in CHECK_EQUAL(0x0BE1+4UL, data.length)"
 236      6E646C65 
 236      64206578 
 236      63657074 
 236      696F6E20 
 237 00f4 00000000 		.align 8
 238              	.LC7:
 239 00f8 556E6861 		.string	"Unhandled exception in CHECK_EQUAL(0x0BE1+4UL, mask.length)"
 239      6E646C65 
 239      64206578 
 239      63657074 
 239      696F6E20 
 240 0134 00000000 		.align 8
 241              	.LC8:
 242 0138 556E6861 		.string	"Unhandled exception in CHECK_EQUAL(4096UL, data.capacity)"
 242      6E646C65 
 242      64206578 
 242      63657074 
 242      696F6E20 
 243 0172 00000000 		.align 8
 243      0000
 244              	.LC9:
 245 0178 556E6861 		.string	"Unhandled exception in CHECK_EQUAL(4096UL, mask.capacity)"
 245      6E646C65 
 245      64206578 
 245      63657074 
 245      696F6E20 
 246 01b2 00000000 		.align 8
 246      0000
 247              	.LC10:
 248 01b8 556E6861 		.string	"Unhandled exception in CHECK_ARRAY_EQUAL(expected, data.data + 0x0BE1)"
 248      6E646C65 
 248      64206578 
 248      63657074 
 248      696F6E20 
 249              		.text
 250              		.align 2
 251              		.globl	_ZNK27TestHexIO_testValidDataLine7RunImplEv
 253              	_ZNK27TestHexIO_testValidDataLine7RunImplEv:
 254              	.LFB1159:
 255              		.loc 4 27 0
 256              		.cfi_startproc
 257              		.cfi_personality 0x9b,DW.ref.__gxx_personality_v0
 258              		.cfi_lsda 0x1b,.LLSDA1159
 259 0000 55       		pushq	%rbp
 260              		.cfi_def_cfa_offset 16
 261              		.cfi_offset 6, -16
 262 0001 4889E5   		movq	%rsp, %rbp
 263              		.cfi_def_cfa_register 6
 264 0004 53       		pushq	%rbx
 265 0005 4881ECA8 		subq	$168, %rsp
 265      000000
 266              		.cfi_offset 3, -24
 267 000c 4889BD58 		movq	%rdi, -168(%rbp)
 267      FFFFFF
 268              		.loc 4 27 0
 269 0013 64488B04 		movq	%fs:40, %rax
 269      25280000 
 269      00
 270 001c 488945E8 		movq	%rax, -24(%rbp)
 271 0020 31C0     		xorl	%eax, %eax
  28:testHexIO.cpp **** 	Buffer data, mask;
  29:testHexIO.cpp **** 	BufferStatus status;
  30:testHexIO.cpp **** 	const char *line = ":040BE10075820022F7\n";
 272              		.loc 4 30 0
 273 0022 488D0500 		leaq	.LC3(%rip), %rax
 273      000000
 274 0029 48898578 		movq	%rax, -136(%rbp)
 274      FFFFFF
  31:testHexIO.cpp **** 	uint8 recordType;
  32:testHexIO.cpp **** 	uint32 seg = 0x00000000;
 275              		.loc 4 32 0
 276 0030 C7856CFF 		movl	$0, -148(%rbp)
 276      FFFF0000 
 276      0000
  33:testHexIO.cpp **** 	const uint8 expected[] = {0x75, 0x82, 0x00, 0x22};
 277              		.loc 4 33 0
 278 003a C645E475 		movb	$117, -28(%rbp)
 279 003e C645E582 		movb	$-126, -27(%rbp)
 280 0042 C645E600 		movb	$0, -26(%rbp)
 281 0046 C645E722 		movb	$34, -25(%rbp)
  34:testHexIO.cpp **** 	status = bufInitialise(&data, 1024, 0x00, NULL);
 282              		.loc 4 34 0
 283 004a 488D4580 		leaq	-128(%rbp), %rax
 284 004e B9000000 		movl	$0, %ecx
 284      00
 285 0053 BA000000 		movl	$0, %edx
 285      00
 286 0058 BE000400 		movl	$1024, %esi
 286      00
 287 005d 4889C7   		movq	%rax, %rdi
 288              	.LEHB4:
 289 0060 E8000000 		call	bufInitialise@PLT
 289      00
 290              	.LEHE4:
 291 0065 898568FF 		movl	%eax, -152(%rbp)
 291      FFFF
 292              	.LEHB5:
  35:testHexIO.cpp **** 	CHECK_EQUAL(BUF_SUCCESS, status);
 293              		.loc 4 35 0
 294 006b E8000000 		call	_ZN8UnitTest11CurrentTest7DetailsEv@PLT
 294      00
 295 0070 488B08   		movq	(%rax), %rcx
 296 0073 488D45C0 		leaq	-64(%rbp), %rax
 297 0077 BA230000 		movl	$35, %edx
 297      00
 298 007c 4889CE   		movq	%rcx, %rsi
 299 007f 4889C7   		movq	%rax, %rdi
 300 0082 E8000000 		call	_ZN8UnitTest11TestDetailsC1ERKS0_i@PLT
 300      00
 301              	.LEHE5:
 302              		.loc 4 35 0 is_stmt 0 discriminator 2
 303 0087 C745A000 		movl	$0, -96(%rbp)
 303      000000
 304              	.LEHB6:
 305 008e E8000000 		call	_ZN8UnitTest11CurrentTest7ResultsEv@PLT
 305      00
 306 0093 488B00   		movq	(%rax), %rax
 307 0096 488D4DC0 		leaq	-64(%rbp), %rcx
 308 009a 488D9568 		leaq	-152(%rbp), %rdx
 308      FFFFFF
 309 00a1 488D75A0 		leaq	-96(%rbp), %rsi
 310 00a5 4889C7   		movq	%rax, %rdi
 311 00a8 E8000000 		call	_ZN8UnitTest10CheckEqualI12BufferStatusS1_EEvRNS_11TestResultsERKT_RKT0_RKNS_11TestDetailsE
 311      00
 312              	.LEHE6:
 313              	.L16:
  36:testHexIO.cpp **** 	status = bufInitialise(&mask, 1024, 0x00, NULL);
 314              		.loc 4 36 0 is_stmt 1
 315 00ad 488D45A0 		leaq	-96(%rbp), %rax
 316 00b1 B9000000 		movl	$0, %ecx
 316      00
 317 00b6 BA000000 		movl	$0, %edx
 317      00
 318 00bb BE000400 		movl	$1024, %esi
 318      00
 319 00c0 4889C7   		movq	%rax, %rdi
 320              	.LEHB7:
 321 00c3 E8000000 		call	bufInitialise@PLT
 321      00
 322              	.LEHE7:
 323 00c8 898568FF 		movl	%eax, -152(%rbp)
 323      FFFF
 324              	.LEHB8:
  37:testHexIO.cpp **** 	CHECK_EQUAL(BUF_SUCCESS, status);
 325              		.loc 4 37 0
 326 00ce E8000000 		call	_ZN8UnitTest11CurrentTest7DetailsEv@PLT
 326      00
 327 00d3 488B08   		movq	(%rax), %rcx
 328 00d6 488D45C0 		leaq	-64(%rbp), %rax
 329 00da BA250000 		movl	$37, %edx
 329      00
 330 00df 4889CE   		movq	%rcx, %rsi
 331 00e2 4889C7   		movq	%rax, %rdi
 332 00e5 E8000000 		call	_ZN8UnitTest11TestDetailsC1ERKS0_i@PLT
 332      00
 333              	.LEHE8:
 334              		.loc 4 37 0 is_stmt 0 discriminator 2
 335 00ea C78570FF 		movl	$0, -144(%rbp)
 335      FFFF0000 
 335      0000
 336              	.LEHB9:
 337 00f4 E8000000 		call	_ZN8UnitTest11CurrentTest7ResultsEv@PLT
 337      00
 338 00f9 488B00   		movq	(%rax), %rax
 339 00fc 488D4DC0 		leaq	-64(%rbp), %rcx
 340 0100 488D9568 		leaq	-152(%rbp), %rdx
 340      FFFFFF
 341 0107 488DB570 		leaq	-144(%rbp), %rsi
 341      FFFFFF
 342 010e 4889C7   		movq	%rax, %rdi
 343 0111 E8000000 		call	_ZN8UnitTest10CheckEqualI12BufferStatusS1_EEvRNS_11TestResultsERKT_RKT0_RKNS_11TestDetailsE
 343      00
 344              	.LEHE9:
 345              	.L20:
  38:testHexIO.cpp **** 	status = bufProcessLine(line, 0, &data, &mask, &seg, &recordType, NULL);
 346              		.loc 4 38 0 is_stmt 1
 347 0116 488DBD67 		leaq	-153(%rbp), %rdi
 347      FFFFFF
 348 011d 488DB56C 		leaq	-148(%rbp), %rsi
 348      FFFFFF
 349 0124 488D4DA0 		leaq	-96(%rbp), %rcx
 350 0128 488D5580 		leaq	-128(%rbp), %rdx
 351 012c 488B8578 		movq	-136(%rbp), %rax
 351      FFFFFF
 352 0133 4883EC08 		subq	$8, %rsp
 353 0137 6A00     		pushq	$0
 354 0139 4989F9   		movq	%rdi, %r9
 355 013c 4989F0   		movq	%rsi, %r8
 356 013f BE000000 		movl	$0, %esi
 356      00
 357 0144 4889C7   		movq	%rax, %rdi
 358              	.LEHB10:
 359 0147 E8000000 		call	bufProcessLine@PLT
 359      00
 360              	.LEHE10:
 361 014c 4883C410 		addq	$16, %rsp
 362 0150 898568FF 		movl	%eax, -152(%rbp)
 362      FFFF
 363              	.LEHB11:
  39:testHexIO.cpp **** 	CHECK_EQUAL(BUF_SUCCESS, status);
 364              		.loc 4 39 0
 365 0156 E8000000 		call	_ZN8UnitTest11CurrentTest7DetailsEv@PLT
 365      00
 366 015b 488B08   		movq	(%rax), %rcx
 367 015e 488D45C0 		leaq	-64(%rbp), %rax
 368 0162 BA270000 		movl	$39, %edx
 368      00
 369 0167 4889CE   		movq	%rcx, %rsi
 370 016a 4889C7   		movq	%rax, %rdi
 371 016d E8000000 		call	_ZN8UnitTest11TestDetailsC1ERKS0_i@PLT
 371      00
 372              	.LEHE11:
 373              		.loc 4 39 0 is_stmt 0 discriminator 2
 374 0172 C78570FF 		movl	$0, -144(%rbp)
 374      FFFF0000 
 374      0000
 375              	.LEHB12:
 376 017c E8000000 		call	_ZN8UnitTest11CurrentTest7ResultsEv@PLT
 376      00
 377 0181 488B00   		movq	(%rax), %rax
 378 0184 488D4DC0 		leaq	-64(%rbp), %rcx
 379 0188 488D9568 		leaq	-152(%rbp), %rdx
 379      FFFFFF
 380 018f 488DB570 		leaq	-144(%rbp), %rsi
 380      FFFFFF
 381 0196 4889C7   		movq	%rax, %rdi
 382 0199 E8000000 		call	_ZN8UnitTest10CheckEqualI12BufferStatusS1_EEvRNS_11TestResultsERKT_RKT0_RKNS_11TestDetailsE
 382      00
 383              	.LEHE12:
 384              	.L24:
 385              	.LEHB13:
  40:testHexIO.cpp **** 	CHECK_EQUAL(0x00, recordType);
 386              		.loc 4 40 0 is_stmt 1
 387 019e E8000000 		call	_ZN8UnitTest11CurrentTest7DetailsEv@PLT
 387      00
 388 01a3 488B08   		movq	(%rax), %rcx
 389 01a6 488D45C0 		leaq	-64(%rbp), %rax
 390 01aa BA280000 		movl	$40, %edx
 390      00
 391 01af 4889CE   		movq	%rcx, %rsi
 392 01b2 4889C7   		movq	%rax, %rdi
 393 01b5 E8000000 		call	_ZN8UnitTest11TestDetailsC1ERKS0_i@PLT
 393      00
 394              	.LEHE13:
 395              		.loc 4 40 0 is_stmt 0 discriminator 2
 396 01ba C78570FF 		movl	$0, -144(%rbp)
 396      FFFF0000 
 396      0000
 397              	.LEHB14:
 398 01c4 E8000000 		call	_ZN8UnitTest11CurrentTest7ResultsEv@PLT
 398      00
 399 01c9 488B00   		movq	(%rax), %rax
 400 01cc 488D4DC0 		leaq	-64(%rbp), %rcx
 401 01d0 488D9567 		leaq	-153(%rbp), %rdx
 401      FFFFFF
 402 01d7 488DB570 		leaq	-144(%rbp), %rsi
 402      FFFFFF
 403 01de 4889C7   		movq	%rax, %rdi
 404 01e1 E8000000 		call	_ZN8UnitTest10CheckEqualIihEEvRNS_11TestResultsERKT_RKT0_RKNS_11TestDetailsE
 404      00
 405              	.LEHE14:
 406              	.L28:
 407              	.LEHB15:
  41:testHexIO.cpp **** 	CHECK_EQUAL(0x0BE1+4UL, data.length);
 408              		.loc 4 41 0 is_stmt 1
 409 01e6 E8000000 		call	_ZN8UnitTest11CurrentTest7DetailsEv@PLT
 409      00
 410 01eb 488B08   		movq	(%rax), %rcx
 411 01ee 488D45C0 		leaq	-64(%rbp), %rax
 412 01f2 BA290000 		movl	$41, %edx
 412      00
 413 01f7 4889CE   		movq	%rcx, %rsi
 414 01fa 4889C7   		movq	%rax, %rdi
 415 01fd E8000000 		call	_ZN8UnitTest11TestDetailsC1ERKS0_i@PLT
 415      00
 416              	.LEHE15:
 417              		.loc 4 41 0 is_stmt 0 discriminator 2
 418 0202 48C78570 		movq	$3045, -144(%rbp)
 418      FFFFFFE5 
 418      0B0000
 419              	.LEHB16:
 420 020d E8000000 		call	_ZN8UnitTest11CurrentTest7ResultsEv@PLT
 420      00
 421 0212 488B00   		movq	(%rax), %rax
 422 0215 488D55C0 		leaq	-64(%rbp), %rdx
 423 0219 488D4D80 		leaq	-128(%rbp), %rcx
 424 021d 488D7908 		leaq	8(%rcx), %rdi
 425 0221 488DB570 		leaq	-144(%rbp), %rsi
 425      FFFFFF
 426 0228 4889D1   		movq	%rdx, %rcx
 427 022b 4889FA   		movq	%rdi, %rdx
 428 022e 4889C7   		movq	%rax, %rdi
 429 0231 E8000000 		call	_ZN8UnitTest10CheckEqualImmEEvRNS_11TestResultsERKT_RKT0_RKNS_11TestDetailsE
 429      00
 430              	.LEHE16:
 431              	.L32:
 432              	.LEHB17:
  42:testHexIO.cpp **** 	CHECK_EQUAL(0x0BE1+4UL, mask.length);
 433              		.loc 4 42 0 is_stmt 1
 434 0236 E8000000 		call	_ZN8UnitTest11CurrentTest7DetailsEv@PLT
 434      00
 435 023b 488B08   		movq	(%rax), %rcx
 436 023e 488D45C0 		leaq	-64(%rbp), %rax
 437 0242 BA2A0000 		movl	$42, %edx
 437      00
 438 0247 4889CE   		movq	%rcx, %rsi
 439 024a 4889C7   		movq	%rax, %rdi
 440 024d E8000000 		call	_ZN8UnitTest11TestDetailsC1ERKS0_i@PLT
 440      00
 441              	.LEHE17:
 442              		.loc 4 42 0 is_stmt 0 discriminator 2
 443 0252 48C78570 		movq	$3045, -144(%rbp)
 443      FFFFFFE5 
 443      0B0000
 444              	.LEHB18:
 445 025d E8000000 		call	_ZN8UnitTest11CurrentTest7ResultsEv@PLT
 445      00
 446 0262 488B00   		movq	(%rax), %rax
 447 0265 488D55C0 		leaq	-64(%rbp), %rdx
 448 0269 488D4DA0 		leaq	-96(%rbp), %rcx
 449 026d 488D7908 		leaq	8(%rcx), %rdi
 450 0271 488DB570 		leaq	-144(%rbp), %rsi
 450      FFFFFF
 451 0278 4889D1   		movq	%rdx, %rcx
 452 027b 4889FA   		movq	%rdi, %rdx
 453 027e 4889C7   		movq	%rax, %rdi
 454 0281 E8000000 		call	_ZN8UnitTest10CheckEqualImmEEvRNS_11TestResultsERKT_RKT0_RKNS_11TestDetailsE
 454      00
 455              	.LEHE18:
 456              	.L36:
 457              	.LEHB19:
  43:testHexIO.cpp **** 	CHECK_EQUAL(4096UL, data.capacity);
 458              		.loc 4 43 0 is_stmt 1
 459 0286 E8000000 		call	_ZN8UnitTest11CurrentTest7DetailsEv@PLT
 459      00
 460 028b 488B08   		movq	(%rax), %rcx
 461 028e 488D45C0 		leaq	-64(%rbp), %rax
 462 0292 BA2B0000 		movl	$43, %edx
 462      00
 463 0297 4889CE   		movq	%rcx, %rsi
 464 029a 4889C7   		movq	%rax, %rdi
 465 029d E8000000 		call	_ZN8UnitTest11TestDetailsC1ERKS0_i@PLT
 465      00
 466              	.LEHE19:
 467              		.loc 4 43 0 is_stmt 0 discriminator 2
 468 02a2 48C78570 		movq	$4096, -144(%rbp)
 468      FFFFFF00 
 468      100000
 469              	.LEHB20:
 470 02ad E8000000 		call	_ZN8UnitTest11CurrentTest7ResultsEv@PLT
 470      00
 471 02b2 488B00   		movq	(%rax), %rax
 472 02b5 488D55C0 		leaq	-64(%rbp), %rdx
 473 02b9 488D4D80 		leaq	-128(%rbp), %rcx
 474 02bd 488D7910 		leaq	16(%rcx), %rdi
 475 02c1 488DB570 		leaq	-144(%rbp), %rsi
 475      FFFFFF
 476 02c8 4889D1   		movq	%rdx, %rcx
 477 02cb 4889FA   		movq	%rdi, %rdx
 478 02ce 4889C7   		movq	%rax, %rdi
 479 02d1 E8000000 		call	_ZN8UnitTest10CheckEqualImmEEvRNS_11TestResultsERKT_RKT0_RKNS_11TestDetailsE
 479      00
 480              	.LEHE20:
 481              	.L40:
 482              	.LEHB21:
  44:testHexIO.cpp **** 	CHECK_EQUAL(4096UL, mask.capacity);
 483              		.loc 4 44 0 is_stmt 1
 484 02d6 E8000000 		call	_ZN8UnitTest11CurrentTest7DetailsEv@PLT
 484      00
 485 02db 488B08   		movq	(%rax), %rcx
 486 02de 488D45C0 		leaq	-64(%rbp), %rax
 487 02e2 BA2C0000 		movl	$44, %edx
 487      00
 488 02e7 4889CE   		movq	%rcx, %rsi
 489 02ea 4889C7   		movq	%rax, %rdi
 490 02ed E8000000 		call	_ZN8UnitTest11TestDetailsC1ERKS0_i@PLT
 490      00
 491              	.LEHE21:
 492              		.loc 4 44 0 is_stmt 0 discriminator 2
 493 02f2 48C78570 		movq	$4096, -144(%rbp)
 493      FFFFFF00 
 493      100000
 494              	.LEHB22:
 495 02fd E8000000 		call	_ZN8UnitTest11CurrentTest7ResultsEv@PLT
 495      00
 496 0302 488B00   		movq	(%rax), %rax
 497 0305 488D55C0 		leaq	-64(%rbp), %rdx
 498 0309 488D4DA0 		leaq	-96(%rbp), %rcx
 499 030d 488D7910 		leaq	16(%rcx), %rdi
 500 0311 488DB570 		leaq	-144(%rbp), %rsi
 500      FFFFFF
 501 0318 4889D1   		movq	%rdx, %rcx
 502 031b 4889FA   		movq	%rdi, %rdx
 503 031e 4889C7   		movq	%rax, %rdi
 504 0321 E8000000 		call	_ZN8UnitTest10CheckEqualImmEEvRNS_11TestResultsERKT_RKT0_RKNS_11TestDetailsE
 504      00
 505              	.LEHE22:
 506              	.L44:
 507              	.LEHB23:
  45:testHexIO.cpp **** 	CHECK_ARRAY_EQUAL(expected, data.data + 0x0BE1, 4);
 508              		.loc 4 45 0 is_stmt 1
 509 0326 E8000000 		call	_ZN8UnitTest11CurrentTest7DetailsEv@PLT
 509      00
 510 032b 488B08   		movq	(%rax), %rcx
 511 032e 488D45C0 		leaq	-64(%rbp), %rax
 512 0332 BA2D0000 		movl	$45, %edx
 512      00
 513 0337 4889CE   		movq	%rcx, %rsi
 514 033a 4889C7   		movq	%rax, %rdi
 515 033d E8000000 		call	_ZN8UnitTest11TestDetailsC1ERKS0_i@PLT
 515      00
 516              	.LEHE23:
 517              		.loc 4 45 0 is_stmt 0 discriminator 2
 518 0342 488B4580 		movq	-128(%rbp), %rax
 519 0346 4805E10B 		addq	$3041, %rax
 519      0000
 520 034c 48898570 		movq	%rax, -144(%rbp)
 520      FFFFFF
 521              	.LEHB24:
 522 0353 E8000000 		call	_ZN8UnitTest11CurrentTest7ResultsEv@PLT
 522      00
 523 0358 488B00   		movq	(%rax), %rax
 524 035b 488D4DC0 		leaq	-64(%rbp), %rcx
 525 035f 488D9570 		leaq	-144(%rbp), %rdx
 525      FFFFFF
 526 0366 488D75E4 		leaq	-28(%rbp), %rsi
 527 036a 4989C8   		movq	%rcx, %r8
 528 036d B9040000 		movl	$4, %ecx
 528      00
 529 0372 4889C7   		movq	%rax, %rdi
 530 0375 E8000000 		call	_ZN8UnitTest15CheckArrayEqualIA4_hPhEEvRNS_11TestResultsERKT_RKT0_iRKNS_11TestDetailsE
 530      00
 531              	.LEHE24:
 532              	.L48:
  46:testHexIO.cpp **** 	bufDestroy(&mask);
 533              		.loc 4 46 0 is_stmt 1
 534 037a 488D45A0 		leaq	-96(%rbp), %rax
 535 037e 4889C7   		movq	%rax, %rdi
 536              	.LEHB25:
 537 0381 E8000000 		call	bufDestroy@PLT
 537      00
  47:testHexIO.cpp **** 	bufDestroy(&data);
 538              		.loc 4 47 0
 539 0386 488D4580 		leaq	-128(%rbp), %rax
 540 038a 4889C7   		movq	%rax, %rdi
 541 038d E8000000 		call	bufDestroy@PLT
 541      00
 542              	.LEHE25:
  48:testHexIO.cpp **** }
 543              		.loc 4 48 0
 544 0392 90       		nop
 545 0393 488B45E8 		movq	-24(%rbp), %rax
 546 0397 64483304 		xorq	%fs:40, %rax
 546      25280000 
 546      00
 547 03a0 0F847303 		je	.L50
 547      0000
 548 03a6 E9690300 		jmp	.L78
 548      00
 549              	.L52:
 550 03ab EB00     		jmp	.L15
 551              	.L51:
 552              	.L15:
  35:testHexIO.cpp **** 	status = bufInitialise(&mask, 1024, 0x00, NULL);
 553              		.loc 4 35 0
 554 03ad 4889C7   		movq	%rax, %rdi
 555 03b0 E8000000 		call	__cxa_begin_catch@PLT
 555      00
 556              	.LEHB26:
 557 03b5 E8000000 		call	_ZN8UnitTest11CurrentTest7ResultsEv@PLT
 557      00
 558 03ba 488B18   		movq	(%rax), %rbx
 559 03bd E8000000 		call	_ZN8UnitTest11CurrentTest7DetailsEv@PLT
 559      00
  35:testHexIO.cpp **** 	status = bufInitialise(&mask, 1024, 0x00, NULL);
 560              		.loc 4 35 0 is_stmt 0 discriminator 8
 561 03c2 488B08   		movq	(%rax), %rcx
 562 03c5 488D45C0 		leaq	-64(%rbp), %rax
 563 03c9 BA230000 		movl	$35, %edx
 563      00
 564 03ce 4889CE   		movq	%rcx, %rsi
 565 03d1 4889C7   		movq	%rax, %rdi
 566 03d4 E8000000 		call	_ZN8UnitTest11TestDetailsC1ERKS0_i@PLT
 566      00
  35:testHexIO.cpp **** 	status = bufInitialise(&mask, 1024, 0x00, NULL);
 567              		.loc 4 35 0 discriminator 12
 568 03d9 488D45C0 		leaq	-64(%rbp), %rax
 569 03dd 488D1500 		leaq	.LC4(%rip), %rdx
 569      000000
 570 03e4 4889C6   		movq	%rax, %rsi
 571 03e7 4889DF   		movq	%rbx, %rdi
 572 03ea E8000000 		call	_ZN8UnitTest11TestResults13OnTestFailureERKNS_11TestDetailsEPKc@PLT
 572      00
 573              	.LEHE26:
 574              	.LEHB27:
  35:testHexIO.cpp **** 	status = bufInitialise(&mask, 1024, 0x00, NULL);
 575              		.loc 4 35 0 discriminator 14
 576 03ef E8000000 		call	__cxa_end_catch@PLT
 576      00
 577              	.LEHE27:
 578 03f4 E9B4FCFF 		jmp	.L16
 578      FF
 579              	.L53:
 580 03f9 4889C3   		movq	%rax, %rbx
  35:testHexIO.cpp **** 	status = bufInitialise(&mask, 1024, 0x00, NULL);
 581              		.loc 4 35 0
 582 03fc E8000000 		call	__cxa_end_catch@PLT
 582      00
 583 0401 4889D8   		movq	%rbx, %rax
 584 0404 4889C7   		movq	%rax, %rdi
 585              	.LEHB28:
 586 0407 E8000000 		call	_Unwind_Resume@PLT
 586      00
 587              	.LEHE28:
 588              	.L55:
 589 040c EB00     		jmp	.L19
 590              	.L54:
 591              	.L19:
  37:testHexIO.cpp **** 	status = bufProcessLine(line, 0, &data, &mask, &seg, &recordType, NULL);
 592              		.loc 4 37 0 is_stmt 1
 593 040e 4889C7   		movq	%rax, %rdi
 594 0411 E8000000 		call	__cxa_begin_catch@PLT
 594      00
 595              	.LEHB29:
 596 0416 E8000000 		call	_ZN8UnitTest11CurrentTest7ResultsEv@PLT
 596      00
 597 041b 488B18   		movq	(%rax), %rbx
 598 041e E8000000 		call	_ZN8UnitTest11CurrentTest7DetailsEv@PLT
 598      00
  37:testHexIO.cpp **** 	status = bufProcessLine(line, 0, &data, &mask, &seg, &recordType, NULL);
 599              		.loc 4 37 0 is_stmt 0 discriminator 8
 600 0423 488B08   		movq	(%rax), %rcx
 601 0426 488D45C0 		leaq	-64(%rbp), %rax
 602 042a BA250000 		movl	$37, %edx
 602      00
 603 042f 4889CE   		movq	%rcx, %rsi
 604 0432 4889C7   		movq	%rax, %rdi
 605 0435 E8000000 		call	_ZN8UnitTest11TestDetailsC1ERKS0_i@PLT
 605      00
  37:testHexIO.cpp **** 	status = bufProcessLine(line, 0, &data, &mask, &seg, &recordType, NULL);
 606              		.loc 4 37 0 discriminator 12
 607 043a 488D45C0 		leaq	-64(%rbp), %rax
 608 043e 488D1500 		leaq	.LC4(%rip), %rdx
 608      000000
 609 0445 4889C6   		movq	%rax, %rsi
 610 0448 4889DF   		movq	%rbx, %rdi
 611 044b E8000000 		call	_ZN8UnitTest11TestResults13OnTestFailureERKNS_11TestDetailsEPKc@PLT
 611      00
 612              	.LEHE29:
 613              	.LEHB30:
  37:testHexIO.cpp **** 	status = bufProcessLine(line, 0, &data, &mask, &seg, &recordType, NULL);
 614              		.loc 4 37 0 discriminator 14
 615 0450 E8000000 		call	__cxa_end_catch@PLT
 615      00
 616              	.LEHE30:
 617 0455 E9BCFCFF 		jmp	.L20
 617      FF
 618              	.L56:
 619 045a 4889C3   		movq	%rax, %rbx
  37:testHexIO.cpp **** 	status = bufProcessLine(line, 0, &data, &mask, &seg, &recordType, NULL);
 620              		.loc 4 37 0
 621 045d E8000000 		call	__cxa_end_catch@PLT
 621      00
 622 0462 4889D8   		movq	%rbx, %rax
 623 0465 4889C7   		movq	%rax, %rdi
 624              	.LEHB31:
 625 0468 E8000000 		call	_Unwind_Resume@PLT
 625      00
 626              	.LEHE31:
 627              	.L58:
 628 046d EB00     		jmp	.L23
 629              	.L57:
 630              	.L23:
  39:testHexIO.cpp **** 	CHECK_EQUAL(0x00, recordType);
 631              		.loc 4 39 0 is_stmt 1
 632 046f 4889C7   		movq	%rax, %rdi
 633 0472 E8000000 		call	__cxa_begin_catch@PLT
 633      00
 634              	.LEHB32:
 635 0477 E8000000 		call	_ZN8UnitTest11CurrentTest7ResultsEv@PLT
 635      00
 636 047c 488B18   		movq	(%rax), %rbx
 637 047f E8000000 		call	_ZN8UnitTest11CurrentTest7DetailsEv@PLT
 637      00
  39:testHexIO.cpp **** 	CHECK_EQUAL(0x00, recordType);
 638              		.loc 4 39 0 is_stmt 0 discriminator 8
 639 0484 488B08   		movq	(%rax), %rcx
 640 0487 488D45C0 		leaq	-64(%rbp), %rax
 641 048b BA270000 		movl	$39, %edx
 641      00
 642 0490 4889CE   		movq	%rcx, %rsi
 643 0493 4889C7   		movq	%rax, %rdi
 644 0496 E8000000 		call	_ZN8UnitTest11TestDetailsC1ERKS0_i@PLT
 644      00
  39:testHexIO.cpp **** 	CHECK_EQUAL(0x00, recordType);
 645              		.loc 4 39 0 discriminator 12
 646 049b 488D45C0 		leaq	-64(%rbp), %rax
 647 049f 488D1500 		leaq	.LC4(%rip), %rdx
 647      000000
 648 04a6 4889C6   		movq	%rax, %rsi
 649 04a9 4889DF   		movq	%rbx, %rdi
 650 04ac E8000000 		call	_ZN8UnitTest11TestResults13OnTestFailureERKNS_11TestDetailsEPKc@PLT
 650      00
 651              	.LEHE32:
 652              	.LEHB33:
  39:testHexIO.cpp **** 	CHECK_EQUAL(0x00, recordType);
 653              		.loc 4 39 0 discriminator 14
 654 04b1 E8000000 		call	__cxa_end_catch@PLT
 654      00
 655              	.LEHE33:
 656 04b6 E9E3FCFF 		jmp	.L24
 656      FF
 657              	.L59:
 658 04bb 4889C3   		movq	%rax, %rbx
  39:testHexIO.cpp **** 	CHECK_EQUAL(0x00, recordType);
 659              		.loc 4 39 0
 660 04be E8000000 		call	__cxa_end_catch@PLT
 660      00
 661 04c3 4889D8   		movq	%rbx, %rax
 662 04c6 4889C7   		movq	%rax, %rdi
 663              	.LEHB34:
 664 04c9 E8000000 		call	_Unwind_Resume@PLT
 664      00
 665              	.LEHE34:
 666              	.L61:
 667 04ce EB00     		jmp	.L27
 668              	.L60:
 669              	.L27:
  40:testHexIO.cpp **** 	CHECK_EQUAL(0x0BE1+4UL, data.length);
 670              		.loc 4 40 0 is_stmt 1
 671 04d0 4889C7   		movq	%rax, %rdi
 672 04d3 E8000000 		call	__cxa_begin_catch@PLT
 672      00
 673              	.LEHB35:
 674 04d8 E8000000 		call	_ZN8UnitTest11CurrentTest7ResultsEv@PLT
 674      00
 675 04dd 488B18   		movq	(%rax), %rbx
 676 04e0 E8000000 		call	_ZN8UnitTest11CurrentTest7DetailsEv@PLT
 676      00
  40:testHexIO.cpp **** 	CHECK_EQUAL(0x0BE1+4UL, data.length);
 677              		.loc 4 40 0 is_stmt 0 discriminator 8
 678 04e5 488B08   		movq	(%rax), %rcx
 679 04e8 488D45C0 		leaq	-64(%rbp), %rax
 680 04ec BA280000 		movl	$40, %edx
 680      00
 681 04f1 4889CE   		movq	%rcx, %rsi
 682 04f4 4889C7   		movq	%rax, %rdi
 683 04f7 E8000000 		call	_ZN8UnitTest11TestDetailsC1ERKS0_i@PLT
 683      00
  40:testHexIO.cpp **** 	CHECK_EQUAL(0x0BE1+4UL, data.length);
 684              		.loc 4 40 0 discriminator 12
 685 04fc 488D45C0 		leaq	-64(%rbp), %rax
 686 0500 488D1500 		leaq	.LC5(%rip), %rdx
 686      000000
 687 0507 4889C6   		movq	%rax, %rsi
 688 050a 4889DF   		movq	%rbx, %rdi
 689 050d E8000000 		call	_ZN8UnitTest11TestResults13OnTestFailureERKNS_11TestDetailsEPKc@PLT
 689      00
 690              	.LEHE35:
 691              	.LEHB36:
  40:testHexIO.cpp **** 	CHECK_EQUAL(0x0BE1+4UL, data.length);
 692              		.loc 4 40 0 discriminator 14
 693 0512 E8000000 		call	__cxa_end_catch@PLT
 693      00
 694              	.LEHE36:
 695 0517 E9CAFCFF 		jmp	.L28
 695      FF
 696              	.L62:
 697 051c 4889C3   		movq	%rax, %rbx
  40:testHexIO.cpp **** 	CHECK_EQUAL(0x0BE1+4UL, data.length);
 698              		.loc 4 40 0
 699 051f E8000000 		call	__cxa_end_catch@PLT
 699      00
 700 0524 4889D8   		movq	%rbx, %rax
 701 0527 4889C7   		movq	%rax, %rdi
 702              	.LEHB37:
 703 052a E8000000 		call	_Unwind_Resume@PLT
 703      00
 704              	.LEHE37:
 705              	.L64:
 706 052f EB00     		jmp	.L31
 707              	.L63:
 708              	.L31:
  41:testHexIO.cpp **** 	CHECK_EQUAL(0x0BE1+4UL, mask.length);
 709              		.loc 4 41 0 is_stmt 1
 710 0531 4889C7   		movq	%rax, %rdi
 711 0534 E8000000 		call	__cxa_begin_catch@PLT
 711      00
 712              	.LEHB38:
 713 0539 E8000000 		call	_ZN8UnitTest11CurrentTest7ResultsEv@PLT
 713      00
 714 053e 488B18   		movq	(%rax), %rbx
 715 0541 E8000000 		call	_ZN8UnitTest11CurrentTest7DetailsEv@PLT
 715      00
  41:testHexIO.cpp **** 	CHECK_EQUAL(0x0BE1+4UL, mask.length);
 716              		.loc 4 41 0 is_stmt 0 discriminator 8
 717 0546 488B08   		movq	(%rax), %rcx
 718 0549 488D45C0 		leaq	-64(%rbp), %rax
 719 054d BA290000 		movl	$41, %edx
 719      00
 720 0552 4889CE   		movq	%rcx, %rsi
 721 0555 4889C7   		movq	%rax, %rdi
 722 0558 E8000000 		call	_ZN8UnitTest11TestDetailsC1ERKS0_i@PLT
 722      00
  41:testHexIO.cpp **** 	CHECK_EQUAL(0x0BE1+4UL, mask.length);
 723              		.loc 4 41 0 discriminator 12
 724 055d 488D45C0 		leaq	-64(%rbp), %rax
 725 0561 488D1500 		leaq	.LC6(%rip), %rdx
 725      000000
 726 0568 4889C6   		movq	%rax, %rsi
 727 056b 4889DF   		movq	%rbx, %rdi
 728 056e E8000000 		call	_ZN8UnitTest11TestResults13OnTestFailureERKNS_11TestDetailsEPKc@PLT
 728      00
 729              	.LEHE38:
 730              	.LEHB39:
  41:testHexIO.cpp **** 	CHECK_EQUAL(0x0BE1+4UL, mask.length);
 731              		.loc 4 41 0 discriminator 14
 732 0573 E8000000 		call	__cxa_end_catch@PLT
 732      00
 733              	.LEHE39:
 734 0578 E9B9FCFF 		jmp	.L32
 734      FF
 735              	.L65:
 736 057d 4889C3   		movq	%rax, %rbx
  41:testHexIO.cpp **** 	CHECK_EQUAL(0x0BE1+4UL, mask.length);
 737              		.loc 4 41 0
 738 0580 E8000000 		call	__cxa_end_catch@PLT
 738      00
 739 0585 4889D8   		movq	%rbx, %rax
 740 0588 4889C7   		movq	%rax, %rdi
 741              	.LEHB40:
 742 058b E8000000 		call	_Unwind_Resume@PLT
 742      00
 743              	.LEHE40:
 744              	.L67:
 745 0590 EB00     		jmp	.L35
 746              	.L66:
 747              	.L35:
  42:testHexIO.cpp **** 	CHECK_EQUAL(4096UL, data.capacity);
 748              		.loc 4 42 0 is_stmt 1
 749 0592 4889C7   		movq	%rax, %rdi
 750 0595 E8000000 		call	__cxa_begin_catch@PLT
 750      00
 751              	.LEHB41:
 752 059a E8000000 		call	_ZN8UnitTest11CurrentTest7ResultsEv@PLT
 752      00
 753 059f 488B18   		movq	(%rax), %rbx
 754 05a2 E8000000 		call	_ZN8UnitTest11CurrentTest7DetailsEv@PLT
 754      00
  42:testHexIO.cpp **** 	CHECK_EQUAL(4096UL, data.capacity);
 755              		.loc 4 42 0 is_stmt 0 discriminator 8
 756 05a7 488B08   		movq	(%rax), %rcx
 757 05aa 488D45C0 		leaq	-64(%rbp), %rax
 758 05ae BA2A0000 		movl	$42, %edx
 758      00
 759 05b3 4889CE   		movq	%rcx, %rsi
 760 05b6 4889C7   		movq	%rax, %rdi
 761 05b9 E8000000 		call	_ZN8UnitTest11TestDetailsC1ERKS0_i@PLT
 761      00
  42:testHexIO.cpp **** 	CHECK_EQUAL(4096UL, data.capacity);
 762              		.loc 4 42 0 discriminator 12
 763 05be 488D45C0 		leaq	-64(%rbp), %rax
 764 05c2 488D1500 		leaq	.LC7(%rip), %rdx
 764      000000
 765 05c9 4889C6   		movq	%rax, %rsi
 766 05cc 4889DF   		movq	%rbx, %rdi
 767 05cf E8000000 		call	_ZN8UnitTest11TestResults13OnTestFailureERKNS_11TestDetailsEPKc@PLT
 767      00
 768              	.LEHE41:
 769              	.LEHB42:
  42:testHexIO.cpp **** 	CHECK_EQUAL(4096UL, data.capacity);
 770              		.loc 4 42 0 discriminator 14
 771 05d4 E8000000 		call	__cxa_end_catch@PLT
 771      00
 772              	.LEHE42:
 773 05d9 E9A8FCFF 		jmp	.L36
 773      FF
 774              	.L68:
 775 05de 4889C3   		movq	%rax, %rbx
  42:testHexIO.cpp **** 	CHECK_EQUAL(4096UL, data.capacity);
 776              		.loc 4 42 0
 777 05e1 E8000000 		call	__cxa_end_catch@PLT
 777      00
 778 05e6 4889D8   		movq	%rbx, %rax
 779 05e9 4889C7   		movq	%rax, %rdi
 780              	.LEHB43:
 781 05ec E8000000 		call	_Unwind_Resume@PLT
 781      00
 782              	.LEHE43:
 783              	.L70:
 784 05f1 EB00     		jmp	.L39
 785              	.L69:
 786              	.L39:
  43:testHexIO.cpp **** 	CHECK_EQUAL(4096UL, mask.capacity);
 787              		.loc 4 43 0 is_stmt 1
 788 05f3 4889C7   		movq	%rax, %rdi
 789 05f6 E8000000 		call	__cxa_begin_catch@PLT
 789      00
 790              	.LEHB44:
 791 05fb E8000000 		call	_ZN8UnitTest11CurrentTest7ResultsEv@PLT
 791      00
 792 0600 488B18   		movq	(%rax), %rbx
 793 0603 E8000000 		call	_ZN8UnitTest11CurrentTest7DetailsEv@PLT
 793      00
  43:testHexIO.cpp **** 	CHECK_EQUAL(4096UL, mask.capacity);
 794              		.loc 4 43 0 is_stmt 0 discriminator 8
 795 0608 488B08   		movq	(%rax), %rcx
 796 060b 488D45C0 		leaq	-64(%rbp), %rax
 797 060f BA2B0000 		movl	$43, %edx
 797      00
 798 0614 4889CE   		movq	%rcx, %rsi
 799 0617 4889C7   		movq	%rax, %rdi
 800 061a E8000000 		call	_ZN8UnitTest11TestDetailsC1ERKS0_i@PLT
 800      00
  43:testHexIO.cpp **** 	CHECK_EQUAL(4096UL, mask.capacity);
 801              		.loc 4 43 0 discriminator 12
 802 061f 488D45C0 		leaq	-64(%rbp), %rax
 803 0623 488D1500 		leaq	.LC8(%rip), %rdx
 803      000000
 804 062a 4889C6   		movq	%rax, %rsi
 805 062d 4889DF   		movq	%rbx, %rdi
 806 0630 E8000000 		call	_ZN8UnitTest11TestResults13OnTestFailureERKNS_11TestDetailsEPKc@PLT
 806      00
 807              	.LEHE44:
 808              	.LEHB45:
  43:testHexIO.cpp **** 	CHECK_EQUAL(4096UL, mask.capacity);
 809              		.loc 4 43 0 discriminator 14
 810 0635 E8000000 		call	__cxa_end_catch@PLT
 810      00
 811              	.LEHE45:
 812 063a E997FCFF 		jmp	.L40
 812      FF
 813              	.L71:
 814 063f 4889C3   		movq	%rax, %rbx
  43:testHexIO.cpp **** 	CHECK_EQUAL(4096UL, mask.capacity);
 815              		.loc 4 43 0
 816 0642 E8000000 		call	__cxa_end_catch@PLT
 816      00
 817 0647 4889D8   		movq	%rbx, %rax
 818 064a 4889C7   		movq	%rax, %rdi
 819              	.LEHB46:
 820 064d E8000000 		call	_Unwind_Resume@PLT
 820      00
 821              	.LEHE46:
 822              	.L73:
 823 0652 EB00     		jmp	.L43
 824              	.L72:
 825              	.L43:
  44:testHexIO.cpp **** 	CHECK_ARRAY_EQUAL(expected, data.data + 0x0BE1, 4);
 826              		.loc 4 44 0 is_stmt 1
 827 0654 4889C7   		movq	%rax, %rdi
 828 0657 E8000000 		call	__cxa_begin_catch@PLT
 828      00
 829              	.LEHB47:
 830 065c E8000000 		call	_ZN8UnitTest11CurrentTest7ResultsEv@PLT
 830      00
 831 0661 488B18   		movq	(%rax), %rbx
 832 0664 E8000000 		call	_ZN8UnitTest11CurrentTest7DetailsEv@PLT
 832      00
  44:testHexIO.cpp **** 	CHECK_ARRAY_EQUAL(expected, data.data + 0x0BE1, 4);
 833              		.loc 4 44 0 is_stmt 0 discriminator 8
 834 0669 488B08   		movq	(%rax), %rcx
 835 066c 488D45C0 		leaq	-64(%rbp), %rax
 836 0670 BA2C0000 		movl	$44, %edx
 836      00
 837 0675 4889CE   		movq	%rcx, %rsi
 838 0678 4889C7   		movq	%rax, %rdi
 839 067b E8000000 		call	_ZN8UnitTest11TestDetailsC1ERKS0_i@PLT
 839      00
  44:testHexIO.cpp **** 	CHECK_ARRAY_EQUAL(expected, data.data + 0x0BE1, 4);
 840              		.loc 4 44 0 discriminator 12
 841 0680 488D45C0 		leaq	-64(%rbp), %rax
 842 0684 488D1500 		leaq	.LC9(%rip), %rdx
 842      000000
 843 068b 4889C6   		movq	%rax, %rsi
 844 068e 4889DF   		movq	%rbx, %rdi
 845 0691 E8000000 		call	_ZN8UnitTest11TestResults13OnTestFailureERKNS_11TestDetailsEPKc@PLT
 845      00
 846              	.LEHE47:
 847              	.LEHB48:
  44:testHexIO.cpp **** 	CHECK_ARRAY_EQUAL(expected, data.data + 0x0BE1, 4);
 848              		.loc 4 44 0 discriminator 14
 849 0696 E8000000 		call	__cxa_end_catch@PLT
 849      00
 850              	.LEHE48:
 851 069b E986FCFF 		jmp	.L44
 851      FF
 852              	.L74:
 853 06a0 4889C3   		movq	%rax, %rbx
  44:testHexIO.cpp **** 	CHECK_ARRAY_EQUAL(expected, data.data + 0x0BE1, 4);
 854              		.loc 4 44 0
 855 06a3 E8000000 		call	__cxa_end_catch@PLT
 855      00
 856 06a8 4889D8   		movq	%rbx, %rax
 857 06ab 4889C7   		movq	%rax, %rdi
 858              	.LEHB49:
 859 06ae E8000000 		call	_Unwind_Resume@PLT
 859      00
 860              	.LEHE49:
 861              	.L76:
 862 06b3 EB00     		jmp	.L47
 863              	.L75:
 864              	.L47:
  45:testHexIO.cpp **** 	bufDestroy(&mask);
 865              		.loc 4 45 0 is_stmt 1
 866 06b5 4889C7   		movq	%rax, %rdi
 867 06b8 E8000000 		call	__cxa_begin_catch@PLT
 867      00
 868              	.LEHB50:
 869 06bd E8000000 		call	_ZN8UnitTest11CurrentTest7ResultsEv@PLT
 869      00
 870 06c2 488B18   		movq	(%rax), %rbx
 871 06c5 E8000000 		call	_ZN8UnitTest11CurrentTest7DetailsEv@PLT
 871      00
  45:testHexIO.cpp **** 	bufDestroy(&mask);
 872              		.loc 4 45 0 is_stmt 0 discriminator 8
 873 06ca 488B08   		movq	(%rax), %rcx
 874 06cd 488D45C0 		leaq	-64(%rbp), %rax
 875 06d1 BA2D0000 		movl	$45, %edx
 875      00
 876 06d6 4889CE   		movq	%rcx, %rsi
 877 06d9 4889C7   		movq	%rax, %rdi
 878 06dc E8000000 		call	_ZN8UnitTest11TestDetailsC1ERKS0_i@PLT
 878      00
  45:testHexIO.cpp **** 	bufDestroy(&mask);
 879              		.loc 4 45 0 discriminator 12
 880 06e1 488D45C0 		leaq	-64(%rbp), %rax
 881 06e5 488D1500 		leaq	.LC10(%rip), %rdx
 881      000000
 882 06ec 4889C6   		movq	%rax, %rsi
 883 06ef 4889DF   		movq	%rbx, %rdi
 884 06f2 E8000000 		call	_ZN8UnitTest11TestResults13OnTestFailureERKNS_11TestDetailsEPKc@PLT
 884      00
 885              	.LEHE50:
 886              	.LEHB51:
  45:testHexIO.cpp **** 	bufDestroy(&mask);
 887              		.loc 4 45 0 discriminator 14
 888 06f7 E8000000 		call	__cxa_end_catch@PLT
 888      00
 889              	.LEHE51:
 890 06fc E979FCFF 		jmp	.L48
 890      FF
 891              	.L77:
 892 0701 4889C3   		movq	%rax, %rbx
  45:testHexIO.cpp **** 	bufDestroy(&mask);
 893              		.loc 4 45 0
 894 0704 E8000000 		call	__cxa_end_catch@PLT
 894      00
 895 0709 4889D8   		movq	%rbx, %rax
 896 070c 4889C7   		movq	%rax, %rdi
 897              	.LEHB52:
 898 070f E8000000 		call	_Unwind_Resume@PLT
 898      00
 899              	.LEHE52:
 900              	.L78:
 901              		.loc 4 48 0 is_stmt 1
 902 0714 E8000000 		call	__stack_chk_fail@PLT
 902      00
 903              	.L50:
 904 0719 488B5DF8 		movq	-8(%rbp), %rbx
 905 071d C9       		leave
 906              		.cfi_def_cfa 7, 8
 907 071e C3       		ret
 908              		.cfi_endproc
 909              	.LFE1159:
 910              		.section	.gcc_except_table,"a",@progbits
 911              		.align 4
 912              	.LLSDA1159:
 913 0000 FF       		.byte	0xff
 914 0001 9B       		.byte	0x9b
 915 0002 9C02     		.uleb128 .LLSDATT1159-.LLSDATTD1159
 916              	.LLSDATTD1159:
 917 0004 01       		.byte	0x1
 918 0005 8E02     		.uleb128 .LLSDACSE1159-.LLSDACSB1159
 919              	.LLSDACSB1159:
 920 0007 60       		.uleb128 .LEHB4-.LFB1159
 921 0008 05       		.uleb128 .LEHE4-.LEHB4
 922 0009 00       		.uleb128 0
 923 000a 00       		.uleb128 0
 924 000b 6B       		.uleb128 .LEHB5-.LFB1159
 925 000c 1C       		.uleb128 .LEHE5-.LEHB5
 926 000d AD07     		.uleb128 .L51-.LFB1159
 927 000f 01       		.uleb128 0x1
 928 0010 8E01     		.uleb128 .LEHB6-.LFB1159
 929 0012 1F       		.uleb128 .LEHE6-.LEHB6
 930 0013 AB07     		.uleb128 .L52-.LFB1159
 931 0015 03       		.uleb128 0x3
 932 0016 C301     		.uleb128 .LEHB7-.LFB1159
 933 0018 05       		.uleb128 .LEHE7-.LEHB7
 934 0019 00       		.uleb128 0
 935 001a 00       		.uleb128 0
 936 001b CE01     		.uleb128 .LEHB8-.LFB1159
 937 001d 1C       		.uleb128 .LEHE8-.LEHB8
 938 001e 8E08     		.uleb128 .L54-.LFB1159
 939 0020 01       		.uleb128 0x1
 940 0021 F401     		.uleb128 .LEHB9-.LFB1159
 941 0023 22       		.uleb128 .LEHE9-.LEHB9
 942 0024 8C08     		.uleb128 .L55-.LFB1159
 943 0026 03       		.uleb128 0x3
 944 0027 C702     		.uleb128 .LEHB10-.LFB1159
 945 0029 05       		.uleb128 .LEHE10-.LEHB10
 946 002a 00       		.uleb128 0
 947 002b 00       		.uleb128 0
 948 002c D602     		.uleb128 .LEHB11-.LFB1159
 949 002e 1C       		.uleb128 .LEHE11-.LEHB11
 950 002f EF08     		.uleb128 .L57-.LFB1159
 951 0031 01       		.uleb128 0x1
 952 0032 FC02     		.uleb128 .LEHB12-.LFB1159
 953 0034 22       		.uleb128 .LEHE12-.LEHB12
 954 0035 ED08     		.uleb128 .L58-.LFB1159
 955 0037 03       		.uleb128 0x3
 956 0038 9E03     		.uleb128 .LEHB13-.LFB1159
 957 003a 1C       		.uleb128 .LEHE13-.LEHB13
 958 003b D009     		.uleb128 .L60-.LFB1159
 959 003d 01       		.uleb128 0x1
 960 003e C403     		.uleb128 .LEHB14-.LFB1159
 961 0040 22       		.uleb128 .LEHE14-.LEHB14
 962 0041 CE09     		.uleb128 .L61-.LFB1159
 963 0043 03       		.uleb128 0x3
 964 0044 E603     		.uleb128 .LEHB15-.LFB1159
 965 0046 1C       		.uleb128 .LEHE15-.LEHB15
 966 0047 B10A     		.uleb128 .L63-.LFB1159
 967 0049 01       		.uleb128 0x1
 968 004a 8D04     		.uleb128 .LEHB16-.LFB1159
 969 004c 29       		.uleb128 .LEHE16-.LEHB16
 970 004d AF0A     		.uleb128 .L64-.LFB1159
 971 004f 03       		.uleb128 0x3
 972 0050 B604     		.uleb128 .LEHB17-.LFB1159
 973 0052 1C       		.uleb128 .LEHE17-.LEHB17
 974 0053 920B     		.uleb128 .L66-.LFB1159
 975 0055 01       		.uleb128 0x1
 976 0056 DD04     		.uleb128 .LEHB18-.LFB1159
 977 0058 29       		.uleb128 .LEHE18-.LEHB18
 978 0059 900B     		.uleb128 .L67-.LFB1159
 979 005b 03       		.uleb128 0x3
 980 005c 8605     		.uleb128 .LEHB19-.LFB1159
 981 005e 1C       		.uleb128 .LEHE19-.LEHB19
 982 005f F30B     		.uleb128 .L69-.LFB1159
 983 0061 01       		.uleb128 0x1
 984 0062 AD05     		.uleb128 .LEHB20-.LFB1159
 985 0064 29       		.uleb128 .LEHE20-.LEHB20
 986 0065 F10B     		.uleb128 .L70-.LFB1159
 987 0067 03       		.uleb128 0x3
 988 0068 D605     		.uleb128 .LEHB21-.LFB1159
 989 006a 1C       		.uleb128 .LEHE21-.LEHB21
 990 006b D40C     		.uleb128 .L72-.LFB1159
 991 006d 01       		.uleb128 0x1
 992 006e FD05     		.uleb128 .LEHB22-.LFB1159
 993 0070 29       		.uleb128 .LEHE22-.LEHB22
 994 0071 D20C     		.uleb128 .L73-.LFB1159
 995 0073 03       		.uleb128 0x3
 996 0074 A606     		.uleb128 .LEHB23-.LFB1159
 997 0076 1C       		.uleb128 .LEHE23-.LEHB23
 998 0077 B50D     		.uleb128 .L75-.LFB1159
 999 0079 01       		.uleb128 0x1
 1000 007a D306     		.uleb128 .LEHB24-.LFB1159
 1001 007c 27       		.uleb128 .LEHE24-.LEHB24
 1002 007d B30D     		.uleb128 .L76-.LFB1159
 1003 007f 03       		.uleb128 0x3
 1004 0080 8107     		.uleb128 .LEHB25-.LFB1159
 1005 0082 11       		.uleb128 .LEHE25-.LEHB25
 1006 0083 00       		.uleb128 0
 1007 0084 00       		.uleb128 0
 1008 0085 B507     		.uleb128 .LEHB26-.LFB1159
 1009 0087 3A       		.uleb128 .LEHE26-.LEHB26
 1010 0088 F907     		.uleb128 .L53-.LFB1159
 1011 008a 00       		.uleb128 0
 1012 008b EF07     		.uleb128 .LEHB27-.LFB1159
 1013 008d 05       		.uleb128 .LEHE27-.LEHB27
 1014 008e 00       		.uleb128 0
 1015 008f 00       		.uleb128 0
 1016 0090 8708     		.uleb128 .LEHB28-.LFB1159
 1017 0092 05       		.uleb128 .LEHE28-.LEHB28
 1018 0093 00       		.uleb128 0
 1019 0094 00       		.uleb128 0
 1020 0095 9608     		.uleb128 .LEHB29-.LFB1159
 1021 0097 3A       		.uleb128 .LEHE29-.LEHB29
 1022 0098 DA08     		.uleb128 .L56-.LFB1159
 1023 009a 00       		.uleb128 0
 1024 009b D008     		.uleb128 .LEHB30-.LFB1159
 1025 009d 05       		.uleb128 .LEHE30-.LEHB30
 1026 009e 00       		.uleb128 0
 1027 009f 00       		.uleb128 0
 1028 00a0 E808     		.uleb128 .LEHB31-.LFB1159
 1029 00a2 05       		.uleb128 .LEHE31-.LEHB31
 1030 00a3 00       		.uleb128 0
 1031 00a4 00       		.uleb128 0
 1032 00a5 F708     		.uleb128 .LEHB32-.LFB1159
 1033 00a7 3A       		.uleb128 .LEHE32-.LEHB32
 1034 00a8 BB09     		.uleb128 .L59-.LFB1159
 1035 00aa 00       		.uleb128 0
 1036 00ab B109     		.uleb128 .LEHB33-.LFB1159
 1037 00ad 05       		.uleb128 .LEHE33-.LEHB33
 1038 00ae 00       		.uleb128 0
 1039 00af 00       		.uleb128 0
 1040 00b0 C909     		.uleb128 .LEHB34-.LFB1159
 1041 00b2 05       		.uleb128 .LEHE34-.LEHB34
 1042 00b3 00       		.uleb128 0
 1043 00b4 00       		.uleb128 0
 1044 00b5 D809     		.uleb128 .LEHB35-.LFB1159
 1045 00b7 3A       		.uleb128 .LEHE35-.LEHB35
 1046 00b8 9C0A     		.uleb128 .L62-.LFB1159
 1047 00ba 00       		.uleb128 0
 1048 00bb 920A     		.uleb128 .LEHB36-.LFB1159
 1049 00bd 05       		.uleb128 .LEHE36-.LEHB36
 1050 00be 00       		.uleb128 0
 1051 00bf 00       		.uleb128 0
 1052 00c0 AA0A     		.uleb128 .LEHB37-.LFB1159
 1053 00c2 05       		.uleb128 .LEHE37-.LEHB37
 1054 00c3 00       		.uleb128 0
 1055 00c4 00       		.uleb128 0
 1056 00c5 B90A     		.uleb128 .LEHB38-.LFB1159
 1057 00c7 3A       		.uleb128 .LEHE38-.LEHB38
 1058 00c8 FD0A     		.uleb128 .L65-.LFB1159
 1059 00ca 00       		.uleb128 0
 1060 00cb F30A     		.uleb128 .LEHB39-.LFB1159
 1061 00cd 05       		.uleb128 .LEHE39-.LEHB39
 1062 00ce 00       		.uleb128 0
 1063 00cf 00       		.uleb128 0
 1064 00d0 8B0B     		.uleb128 .LEHB40-.LFB1159
 1065 00d2 05       		.uleb128 .LEHE40-.LEHB40
 1066 00d3 00       		.uleb128 0
 1067 00d4 00       		.uleb128 0
 1068 00d5 9A0B     		.uleb128 .LEHB41-.LFB1159
 1069 00d7 3A       		.uleb128 .LEHE41-.LEHB41
 1070 00d8 DE0B     		.uleb128 .L68-.LFB1159
 1071 00da 00       		.uleb128 0
 1072 00db D40B     		.uleb128 .LEHB42-.LFB1159
 1073 00dd 05       		.uleb128 .LEHE42-.LEHB42
 1074 00de 00       		.uleb128 0
 1075 00df 00       		.uleb128 0
 1076 00e0 EC0B     		.uleb128 .LEHB43-.LFB1159
 1077 00e2 05       		.uleb128 .LEHE43-.LEHB43
 1078 00e3 00       		.uleb128 0
 1079 00e4 00       		.uleb128 0
 1080 00e5 FB0B     		.uleb128 .LEHB44-.LFB1159
 1081 00e7 3A       		.uleb128 .LEHE44-.LEHB44
 1082 00e8 BF0C     		.uleb128 .L71-.LFB1159
 1083 00ea 00       		.uleb128 0
 1084 00eb B50C     		.uleb128 .LEHB45-.LFB1159
 1085 00ed 05       		.uleb128 .LEHE45-.LEHB45
 1086 00ee 00       		.uleb128 0
 1087 00ef 00       		.uleb128 0
 1088 00f0 CD0C     		.uleb128 .LEHB46-.LFB1159
 1089 00f2 05       		.uleb128 .LEHE46-.LEHB46
 1090 00f3 00       		.uleb128 0
 1091 00f4 00       		.uleb128 0
 1092 00f5 DC0C     		.uleb128 .LEHB47-.LFB1159
 1093 00f7 3A       		.uleb128 .LEHE47-.LEHB47
 1094 00f8 A00D     		.uleb128 .L74-.LFB1159
 1095 00fa 00       		.uleb128 0
 1096 00fb 960D     		.uleb128 .LEHB48-.LFB1159
 1097 00fd 05       		.uleb128 .LEHE48-.LEHB48
 1098 00fe 00       		.uleb128 0
 1099 00ff 00       		.uleb128 0
 1100 0100 AE0D     		.uleb128 .LEHB49-.LFB1159
 1101 0102 05       		.uleb128 .LEHE49-.LEHB49
 1102 0103 00       		.uleb128 0
 1103 0104 00       		.uleb128 0
 1104 0105 BD0D     		.uleb128 .LEHB50-.LFB1159
 1105 0107 3A       		.uleb128 .LEHE50-.LEHB50
 1106 0108 810E     		.uleb128 .L77-.LFB1159
 1107 010a 00       		.uleb128 0
 1108 010b F70D     		.uleb128 .LEHB51-.LFB1159
 1109 010d 05       		.uleb128 .LEHE51-.LEHB51
 1110 010e 00       		.uleb128 0
 1111 010f 00       		.uleb128 0
 1112 0110 8F0E     		.uleb128 .LEHB52-.LFB1159
 1113 0112 05       		.uleb128 .LEHE52-.LEHB52
 1114 0113 00       		.uleb128 0
 1115 0114 00       		.uleb128 0
 1116              	.LLSDACSE1159:
 1117 0115 01       		.byte	0x1
 1118 0116 00       		.byte	0
 1119 0117 00       		.byte	0
 1120 0118 7D       		.byte	0x7d
 1121 0119 000000   		.align 4
 1122 011c 00000000 		.long	0
 1123              	
 1124              	.LLSDATT1159:
 1125              		.text
 1127              		.section	.rodata
 1128              	.LC11:
 1129 01ff 48657849 		.string	"HexIO_testValidEOF"
 1129      4F5F7465 
 1129      73745661 
 1129      6C696445 
 1129      4F4600
 1130              		.section	.text._ZN22TestHexIO_testValidEOFC2Ev,"axG",@progbits,_ZN22TestHexIO_testValidEOFC5Ev,com
 1131              		.align 2
 1132              		.weak	_ZN22TestHexIO_testValidEOFC2Ev
 1134              	_ZN22TestHexIO_testValidEOFC2Ev:
 1135              	.LFB1161:
  49:testHexIO.cpp **** 
  50:testHexIO.cpp **** TEST(HexIO_testValidEOF) {
 1136              		.loc 4 50 0
 1137              		.cfi_startproc
 1138 0000 55       		pushq	%rbp
 1139              		.cfi_def_cfa_offset 16
 1140              		.cfi_offset 6, -16
 1141 0001 4889E5   		movq	%rsp, %rbp
 1142              		.cfi_def_cfa_register 6
 1143 0004 53       		pushq	%rbx
 1144 0005 4883EC18 		subq	$24, %rsp
 1145              		.cfi_offset 3, -24
 1146 0009 48897DE8 		movq	%rdi, -24(%rbp)
 1147              	.LBB5:
 1148              		.loc 4 50 0
 1149 000d 488B5DE8 		movq	-24(%rbp), %rbx
 1150 0011 E8000000 		call	_ZN13UnitTestSuite12GetSuiteNameEv
 1150      00
 1151 0016 41B83200 		movl	$50, %r8d
 1151      0000
 1152 001c 488D0D00 		leaq	.LC1(%rip), %rcx
 1152      000000
 1153 0023 4889C2   		movq	%rax, %rdx
 1154 0026 488D3500 		leaq	.LC11(%rip), %rsi
 1154      000000
 1155 002d 4889DF   		movq	%rbx, %rdi
 1156 0030 E8000000 		call	_ZN8UnitTest4TestC2EPKcS2_S2_i@PLT
 1156      00
 1157 0035 488D1500 		leaq	16+_ZTV22TestHexIO_testValidEOF(%rip), %rdx
 1157      000000
 1158 003c 488B45E8 		movq	-24(%rbp), %rax
 1159 0040 488910   		movq	%rdx, (%rax)
 1160              	.LBE5:
 1161 0043 90       		nop
 1162 0044 4883C418 		addq	$24, %rsp
 1163 0048 5B       		popq	%rbx
 1164 0049 5D       		popq	%rbp
 1165              		.cfi_def_cfa 7, 8
 1166 004a C3       		ret
 1167              		.cfi_endproc
 1168              	.LFE1161:
 1170              		.weak	_ZN22TestHexIO_testValidEOFC1Ev
 1171              		.set	_ZN22TestHexIO_testValidEOFC1Ev,_ZN22TestHexIO_testValidEOFC2Ev
 1172              		.globl	testHexIO_testValidEOFInstance
 1173              		.bss
 1174 0039 00000000 		.align 32
 1174      000000
 1177              	testHexIO_testValidEOFInstance:
 1178 0040 00000000 		.zero	56
 1178      00000000 
 1178      00000000 
 1178      00000000 
 1178      00000000 
 1179              		.globl	adderHexIO_testValidEOF
 1182              	adderHexIO_testValidEOF:
 1183 0078 00       		.zero	1
 1184              		.section	.rodata
 1185              	.LC12:
 1186 0212 3A303030 		.string	":00000001FF\n"
 1186      30303030 
 1186      3146460A 
 1186      00
 1187 021f 00       		.align 8
 1188              	.LC13:
 1189 0220 556E6861 		.string	"Unhandled exception in CHECK_EQUAL(0x01, recordType)"
 1189      6E646C65 
 1189      64206578 
 1189      63657074 
 1189      696F6E20 
 1190 0255 000000   		.align 8
 1191              	.LC14:
 1192 0258 556E6861 		.string	"Unhandled exception in CHECK_EQUAL(0UL, data.length)"
 1192      6E646C65 
 1192      64206578 
 1192      63657074 
 1192      696F6E20 
 1193 028d 000000   		.align 8
 1194              	.LC15:
 1195 0290 556E6861 		.string	"Unhandled exception in CHECK_EQUAL(0UL, mask.length)"
 1195      6E646C65 
 1195      64206578 
 1195      63657074 
 1195      696F6E20 
 1196              		.text
 1197 071f 90       		.align 2
 1198              		.globl	_ZNK22TestHexIO_testValidEOF7RunImplEv
 1200              	_ZNK22TestHexIO_testValidEOF7RunImplEv:
 1201              	.LFB1163:
 1202              		.loc 4 50 0
 1203              		.cfi_startproc
 1204              		.cfi_personality 0x9b,DW.ref.__gxx_personality_v0
 1205              		.cfi_lsda 0x1b,.LLSDA1163
 1206 0720 55       		pushq	%rbp
 1207              		.cfi_def_cfa_offset 16
 1208              		.cfi_offset 6, -16
 1209 0721 4889E5   		movq	%rsp, %rbp
 1210              		.cfi_def_cfa_register 6
 1211 0724 53       		pushq	%rbx
 1212 0725 4881ECA8 		subq	$168, %rsp
 1212      000000
 1213              		.cfi_offset 3, -24
 1214 072c 4889BD58 		movq	%rdi, -168(%rbp)
 1214      FFFFFF
 1215              		.loc 4 50 0
 1216 0733 64488B04 		movq	%fs:40, %rax
 1216      25280000 
 1216      00
 1217 073c 488945E8 		movq	%rax, -24(%rbp)
 1218 0740 31C0     		xorl	%eax, %eax
  51:testHexIO.cpp **** 	Buffer data, mask;
  52:testHexIO.cpp **** 	BufferStatus status;
  53:testHexIO.cpp **** 	const char *line = ":00000001FF\n";
 1219              		.loc 4 53 0
 1220 0742 488D0500 		leaq	.LC12(%rip), %rax
 1220      000000
 1221 0749 48898578 		movq	%rax, -136(%rbp)
 1221      FFFFFF
  54:testHexIO.cpp **** 	uint8 recordType;
  55:testHexIO.cpp **** 	uint32 seg = 0x00000000;
 1222              		.loc 4 55 0
 1223 0750 C7856CFF 		movl	$0, -148(%rbp)
 1223      FFFF0000 
 1223      0000
  56:testHexIO.cpp **** 	status = bufInitialise(&data, 1024, 0x00, NULL);
 1224              		.loc 4 56 0
 1225 075a 488D4580 		leaq	-128(%rbp), %rax
 1226 075e B9000000 		movl	$0, %ecx
 1226      00
 1227 0763 BA000000 		movl	$0, %edx
 1227      00
 1228 0768 BE000400 		movl	$1024, %esi
 1228      00
 1229 076d 4889C7   		movq	%rax, %rdi
 1230              	.LEHB53:
 1231 0770 E8000000 		call	bufInitialise@PLT
 1231      00
 1232              	.LEHE53:
 1233 0775 898568FF 		movl	%eax, -152(%rbp)
 1233      FFFF
 1234              	.LEHB54:
  57:testHexIO.cpp **** 	CHECK_EQUAL(BUF_SUCCESS, status);
 1235              		.loc 4 57 0
 1236 077b E8000000 		call	_ZN8UnitTest11CurrentTest7DetailsEv@PLT
 1236      00
 1237 0780 488B08   		movq	(%rax), %rcx
 1238 0783 488D45C0 		leaq	-64(%rbp), %rax
 1239 0787 BA390000 		movl	$57, %edx
 1239      00
 1240 078c 4889CE   		movq	%rcx, %rsi
 1241 078f 4889C7   		movq	%rax, %rdi
 1242 0792 E8000000 		call	_ZN8UnitTest11TestDetailsC1ERKS0_i@PLT
 1242      00
 1243              	.LEHE54:
 1244              		.loc 4 57 0 is_stmt 0 discriminator 2
 1245 0797 C745A000 		movl	$0, -96(%rbp)
 1245      000000
 1246              	.LEHB55:
 1247 079e E8000000 		call	_ZN8UnitTest11CurrentTest7ResultsEv@PLT
 1247      00
 1248 07a3 488B00   		movq	(%rax), %rax
 1249 07a6 488D4DC0 		leaq	-64(%rbp), %rcx
 1250 07aa 488D9568 		leaq	-152(%rbp), %rdx
 1250      FFFFFF
 1251 07b1 488D75A0 		leaq	-96(%rbp), %rsi
 1252 07b5 4889C7   		movq	%rax, %rdi
 1253 07b8 E8000000 		call	_ZN8UnitTest10CheckEqualI12BufferStatusS1_EEvRNS_11TestResultsERKT_RKT0_RKNS_11TestDetailsE
 1253      00
 1254              	.LEHE55:
 1255              	.L83:
  58:testHexIO.cpp **** 	status = bufInitialise(&mask, 1024, 0x00, NULL);
 1256              		.loc 4 58 0 is_stmt 1
 1257 07bd 488D45A0 		leaq	-96(%rbp), %rax
 1258 07c1 B9000000 		movl	$0, %ecx
 1258      00
 1259 07c6 BA000000 		movl	$0, %edx
 1259      00
 1260 07cb BE000400 		movl	$1024, %esi
 1260      00
 1261 07d0 4889C7   		movq	%rax, %rdi
 1262              	.LEHB56:
 1263 07d3 E8000000 		call	bufInitialise@PLT
 1263      00
 1264              	.LEHE56:
 1265 07d8 898568FF 		movl	%eax, -152(%rbp)
 1265      FFFF
 1266              	.LEHB57:
  59:testHexIO.cpp **** 	CHECK_EQUAL(BUF_SUCCESS, status);
 1267              		.loc 4 59 0
 1268 07de E8000000 		call	_ZN8UnitTest11CurrentTest7DetailsEv@PLT
 1268      00
 1269 07e3 488B08   		movq	(%rax), %rcx
 1270 07e6 488D45C0 		leaq	-64(%rbp), %rax
 1271 07ea BA3B0000 		movl	$59, %edx
 1271      00
 1272 07ef 4889CE   		movq	%rcx, %rsi
 1273 07f2 4889C7   		movq	%rax, %rdi
 1274 07f5 E8000000 		call	_ZN8UnitTest11TestDetailsC1ERKS0_i@PLT
 1274      00
 1275              	.LEHE57:
 1276              		.loc 4 59 0 is_stmt 0 discriminator 2
 1277 07fa C78570FF 		movl	$0, -144(%rbp)
 1277      FFFF0000 
 1277      0000
 1278              	.LEHB58:
 1279 0804 E8000000 		call	_ZN8UnitTest11CurrentTest7ResultsEv@PLT
 1279      00
 1280 0809 488B00   		movq	(%rax), %rax
 1281 080c 488D4DC0 		leaq	-64(%rbp), %rcx
 1282 0810 488D9568 		leaq	-152(%rbp), %rdx
 1282      FFFFFF
 1283 0817 488DB570 		leaq	-144(%rbp), %rsi
 1283      FFFFFF
 1284 081e 4889C7   		movq	%rax, %rdi
 1285 0821 E8000000 		call	_ZN8UnitTest10CheckEqualI12BufferStatusS1_EEvRNS_11TestResultsERKT_RKT0_RKNS_11TestDetailsE
 1285      00
 1286              	.LEHE58:
 1287              	.L87:
  60:testHexIO.cpp **** 	status = bufProcessLine(line, 0, &data, &mask, &seg, &recordType, NULL);
 1288              		.loc 4 60 0 is_stmt 1
 1289 0826 488DBD67 		leaq	-153(%rbp), %rdi
 1289      FFFFFF
 1290 082d 488DB56C 		leaq	-148(%rbp), %rsi
 1290      FFFFFF
 1291 0834 488D4DA0 		leaq	-96(%rbp), %rcx
 1292 0838 488D5580 		leaq	-128(%rbp), %rdx
 1293 083c 488B8578 		movq	-136(%rbp), %rax
 1293      FFFFFF
 1294 0843 4883EC08 		subq	$8, %rsp
 1295 0847 6A00     		pushq	$0
 1296 0849 4989F9   		movq	%rdi, %r9
 1297 084c 4989F0   		movq	%rsi, %r8
 1298 084f BE000000 		movl	$0, %esi
 1298      00
 1299 0854 4889C7   		movq	%rax, %rdi
 1300              	.LEHB59:
 1301 0857 E8000000 		call	bufProcessLine@PLT
 1301      00
 1302              	.LEHE59:
 1303 085c 4883C410 		addq	$16, %rsp
 1304 0860 898568FF 		movl	%eax, -152(%rbp)
 1304      FFFF
 1305              	.LEHB60:
  61:testHexIO.cpp **** 	CHECK_EQUAL(BUF_SUCCESS, status);
 1306              		.loc 4 61 0
 1307 0866 E8000000 		call	_ZN8UnitTest11CurrentTest7DetailsEv@PLT
 1307      00
 1308 086b 488B08   		movq	(%rax), %rcx
 1309 086e 488D45C0 		leaq	-64(%rbp), %rax
 1310 0872 BA3D0000 		movl	$61, %edx
 1310      00
 1311 0877 4889CE   		movq	%rcx, %rsi
 1312 087a 4889C7   		movq	%rax, %rdi
 1313 087d E8000000 		call	_ZN8UnitTest11TestDetailsC1ERKS0_i@PLT
 1313      00
 1314              	.LEHE60:
 1315              		.loc 4 61 0 is_stmt 0 discriminator 2
 1316 0882 C78570FF 		movl	$0, -144(%rbp)
 1316      FFFF0000 
 1316      0000
 1317              	.LEHB61:
 1318 088c E8000000 		call	_ZN8UnitTest11CurrentTest7ResultsEv@PLT
 1318      00
 1319 0891 488B00   		movq	(%rax), %rax
 1320 0894 488D4DC0 		leaq	-64(%rbp), %rcx
 1321 0898 488D9568 		leaq	-152(%rbp), %rdx
 1321      FFFFFF
 1322 089f 488DB570 		leaq	-144(%rbp), %rsi
 1322      FFFFFF
 1323 08a6 4889C7   		movq	%rax, %rdi
 1324 08a9 E8000000 		call	_ZN8UnitTest10CheckEqualI12BufferStatusS1_EEvRNS_11TestResultsERKT_RKT0_RKNS_11TestDetailsE
 1324      00
 1325              	.LEHE61:
 1326              	.L91:
 1327              	.LEHB62:
  62:testHexIO.cpp **** 	CHECK_EQUAL(0x01, recordType);
 1328              		.loc 4 62 0 is_stmt 1
 1329 08ae E8000000 		call	_ZN8UnitTest11CurrentTest7DetailsEv@PLT
 1329      00
 1330 08b3 488B08   		movq	(%rax), %rcx
 1331 08b6 488D45C0 		leaq	-64(%rbp), %rax
 1332 08ba BA3E0000 		movl	$62, %edx
 1332      00
 1333 08bf 4889CE   		movq	%rcx, %rsi
 1334 08c2 4889C7   		movq	%rax, %rdi
 1335 08c5 E8000000 		call	_ZN8UnitTest11TestDetailsC1ERKS0_i@PLT
 1335      00
 1336              	.LEHE62:
 1337              		.loc 4 62 0 is_stmt 0 discriminator 2
 1338 08ca C78570FF 		movl	$1, -144(%rbp)
 1338      FFFF0100 
 1338      0000
 1339              	.LEHB63:
 1340 08d4 E8000000 		call	_ZN8UnitTest11CurrentTest7ResultsEv@PLT
 1340      00
 1341 08d9 488B00   		movq	(%rax), %rax
 1342 08dc 488D4DC0 		leaq	-64(%rbp), %rcx
 1343 08e0 488D9567 		leaq	-153(%rbp), %rdx
 1343      FFFFFF
 1344 08e7 488DB570 		leaq	-144(%rbp), %rsi
 1344      FFFFFF
 1345 08ee 4889C7   		movq	%rax, %rdi
 1346 08f1 E8000000 		call	_ZN8UnitTest10CheckEqualIihEEvRNS_11TestResultsERKT_RKT0_RKNS_11TestDetailsE
 1346      00
 1347              	.LEHE63:
 1348              	.L95:
 1349              	.LEHB64:
  63:testHexIO.cpp **** 	CHECK_EQUAL(0UL, data.length);
 1350              		.loc 4 63 0 is_stmt 1
 1351 08f6 E8000000 		call	_ZN8UnitTest11CurrentTest7DetailsEv@PLT
 1351      00
 1352 08fb 488B08   		movq	(%rax), %rcx
 1353 08fe 488D45C0 		leaq	-64(%rbp), %rax
 1354 0902 BA3F0000 		movl	$63, %edx
 1354      00
 1355 0907 4889CE   		movq	%rcx, %rsi
 1356 090a 4889C7   		movq	%rax, %rdi
 1357 090d E8000000 		call	_ZN8UnitTest11TestDetailsC1ERKS0_i@PLT
 1357      00
 1358              	.LEHE64:
 1359              		.loc 4 63 0 is_stmt 0 discriminator 2
 1360 0912 48C78570 		movq	$0, -144(%rbp)
 1360      FFFFFF00 
 1360      000000
 1361              	.LEHB65:
 1362 091d E8000000 		call	_ZN8UnitTest11CurrentTest7ResultsEv@PLT
 1362      00
 1363 0922 488B00   		movq	(%rax), %rax
 1364 0925 488D55C0 		leaq	-64(%rbp), %rdx
 1365 0929 488D4D80 		leaq	-128(%rbp), %rcx
 1366 092d 488D7908 		leaq	8(%rcx), %rdi
 1367 0931 488DB570 		leaq	-144(%rbp), %rsi
 1367      FFFFFF
 1368 0938 4889D1   		movq	%rdx, %rcx
 1369 093b 4889FA   		movq	%rdi, %rdx
 1370 093e 4889C7   		movq	%rax, %rdi
 1371 0941 E8000000 		call	_ZN8UnitTest10CheckEqualImmEEvRNS_11TestResultsERKT_RKT0_RKNS_11TestDetailsE
 1371      00
 1372              	.LEHE65:
 1373              	.L99:
 1374              	.LEHB66:
  64:testHexIO.cpp **** 	CHECK_EQUAL(0UL, mask.length);
 1375              		.loc 4 64 0 is_stmt 1
 1376 0946 E8000000 		call	_ZN8UnitTest11CurrentTest7DetailsEv@PLT
 1376      00
 1377 094b 488B08   		movq	(%rax), %rcx
 1378 094e 488D45C0 		leaq	-64(%rbp), %rax
 1379 0952 BA400000 		movl	$64, %edx
 1379      00
 1380 0957 4889CE   		movq	%rcx, %rsi
 1381 095a 4889C7   		movq	%rax, %rdi
 1382 095d E8000000 		call	_ZN8UnitTest11TestDetailsC1ERKS0_i@PLT
 1382      00
 1383              	.LEHE66:
 1384              		.loc 4 64 0 is_stmt 0 discriminator 2
 1385 0962 48C78570 		movq	$0, -144(%rbp)
 1385      FFFFFF00 
 1385      000000
 1386              	.LEHB67:
 1387 096d E8000000 		call	_ZN8UnitTest11CurrentTest7ResultsEv@PLT
 1387      00
 1388 0972 488B00   		movq	(%rax), %rax
 1389 0975 488D55C0 		leaq	-64(%rbp), %rdx
 1390 0979 488D4DA0 		leaq	-96(%rbp), %rcx
 1391 097d 488D7908 		leaq	8(%rcx), %rdi
 1392 0981 488DB570 		leaq	-144(%rbp), %rsi
 1392      FFFFFF
 1393 0988 4889D1   		movq	%rdx, %rcx
 1394 098b 4889FA   		movq	%rdi, %rdx
 1395 098e 4889C7   		movq	%rax, %rdi
 1396 0991 E8000000 		call	_ZN8UnitTest10CheckEqualImmEEvRNS_11TestResultsERKT_RKT0_RKNS_11TestDetailsE
 1396      00
 1397              	.LEHE67:
 1398              	.L103:
  65:testHexIO.cpp **** 	bufDestroy(&mask);
 1399              		.loc 4 65 0 is_stmt 1
 1400 0996 488D45A0 		leaq	-96(%rbp), %rax
 1401 099a 4889C7   		movq	%rax, %rdi
 1402              	.LEHB68:
 1403 099d E8000000 		call	bufDestroy@PLT
 1403      00
  66:testHexIO.cpp **** 	bufDestroy(&data);
 1404              		.loc 4 66 0
 1405 09a2 488D4580 		leaq	-128(%rbp), %rax
 1406 09a6 4889C7   		movq	%rax, %rdi
 1407 09a9 E8000000 		call	bufDestroy@PLT
 1407      00
 1408              	.LEHE68:
  67:testHexIO.cpp **** }
 1409              		.loc 4 67 0
 1410 09ae 90       		nop
 1411 09af 488B45E8 		movq	-24(%rbp), %rax
 1412 09b3 64483304 		xorq	%fs:40, %rax
 1412      25280000 
 1412      00
 1413 09bc 0F845002 		je	.L105
 1413      0000
 1414 09c2 E9460200 		jmp	.L124
 1414      00
 1415              	.L107:
 1416 09c7 EB00     		jmp	.L82
 1417              	.L106:
 1418              	.L82:
  57:testHexIO.cpp **** 	status = bufInitialise(&mask, 1024, 0x00, NULL);
 1419              		.loc 4 57 0
 1420 09c9 4889C7   		movq	%rax, %rdi
 1421 09cc E8000000 		call	__cxa_begin_catch@PLT
 1421      00
 1422              	.LEHB69:
 1423 09d1 E8000000 		call	_ZN8UnitTest11CurrentTest7ResultsEv@PLT
 1423      00
 1424 09d6 488B18   		movq	(%rax), %rbx
 1425 09d9 E8000000 		call	_ZN8UnitTest11CurrentTest7DetailsEv@PLT
 1425      00
  57:testHexIO.cpp **** 	status = bufInitialise(&mask, 1024, 0x00, NULL);
 1426              		.loc 4 57 0 is_stmt 0 discriminator 8
 1427 09de 488B08   		movq	(%rax), %rcx
 1428 09e1 488D45C0 		leaq	-64(%rbp), %rax
 1429 09e5 BA390000 		movl	$57, %edx
 1429      00
 1430 09ea 4889CE   		movq	%rcx, %rsi
 1431 09ed 4889C7   		movq	%rax, %rdi
 1432 09f0 E8000000 		call	_ZN8UnitTest11TestDetailsC1ERKS0_i@PLT
 1432      00
  57:testHexIO.cpp **** 	status = bufInitialise(&mask, 1024, 0x00, NULL);
 1433              		.loc 4 57 0 discriminator 12
 1434 09f5 488D45C0 		leaq	-64(%rbp), %rax
 1435 09f9 488D1500 		leaq	.LC4(%rip), %rdx
 1435      000000
 1436 0a00 4889C6   		movq	%rax, %rsi
 1437 0a03 4889DF   		movq	%rbx, %rdi
 1438 0a06 E8000000 		call	_ZN8UnitTest11TestResults13OnTestFailureERKNS_11TestDetailsEPKc@PLT
 1438      00
 1439              	.LEHE69:
 1440              	.LEHB70:
  57:testHexIO.cpp **** 	status = bufInitialise(&mask, 1024, 0x00, NULL);
 1441              		.loc 4 57 0 discriminator 14
 1442 0a0b E8000000 		call	__cxa_end_catch@PLT
 1442      00
 1443              	.LEHE70:
 1444 0a10 E9A8FDFF 		jmp	.L83
 1444      FF
 1445              	.L108:
 1446 0a15 4889C3   		movq	%rax, %rbx
  57:testHexIO.cpp **** 	status = bufInitialise(&mask, 1024, 0x00, NULL);
 1447              		.loc 4 57 0
 1448 0a18 E8000000 		call	__cxa_end_catch@PLT
 1448      00
 1449 0a1d 4889D8   		movq	%rbx, %rax
 1450 0a20 4889C7   		movq	%rax, %rdi
 1451              	.LEHB71:
 1452 0a23 E8000000 		call	_Unwind_Resume@PLT
 1452      00
 1453              	.LEHE71:
 1454              	.L110:
 1455 0a28 EB00     		jmp	.L86
 1456              	.L109:
 1457              	.L86:
  59:testHexIO.cpp **** 	status = bufProcessLine(line, 0, &data, &mask, &seg, &recordType, NULL);
 1458              		.loc 4 59 0 is_stmt 1
 1459 0a2a 4889C7   		movq	%rax, %rdi
 1460 0a2d E8000000 		call	__cxa_begin_catch@PLT
 1460      00
 1461              	.LEHB72:
 1462 0a32 E8000000 		call	_ZN8UnitTest11CurrentTest7ResultsEv@PLT
 1462      00
 1463 0a37 488B18   		movq	(%rax), %rbx
 1464 0a3a E8000000 		call	_ZN8UnitTest11CurrentTest7DetailsEv@PLT
 1464      00
  59:testHexIO.cpp **** 	status = bufProcessLine(line, 0, &data, &mask, &seg, &recordType, NULL);
 1465              		.loc 4 59 0 is_stmt 0 discriminator 8
 1466 0a3f 488B08   		movq	(%rax), %rcx
 1467 0a42 488D45C0 		leaq	-64(%rbp), %rax
 1468 0a46 BA3B0000 		movl	$59, %edx
 1468      00
 1469 0a4b 4889CE   		movq	%rcx, %rsi
 1470 0a4e 4889C7   		movq	%rax, %rdi
 1471 0a51 E8000000 		call	_ZN8UnitTest11TestDetailsC1ERKS0_i@PLT
 1471      00
  59:testHexIO.cpp **** 	status = bufProcessLine(line, 0, &data, &mask, &seg, &recordType, NULL);
 1472              		.loc 4 59 0 discriminator 12
 1473 0a56 488D45C0 		leaq	-64(%rbp), %rax
 1474 0a5a 488D1500 		leaq	.LC4(%rip), %rdx
 1474      000000
 1475 0a61 4889C6   		movq	%rax, %rsi
 1476 0a64 4889DF   		movq	%rbx, %rdi
 1477 0a67 E8000000 		call	_ZN8UnitTest11TestResults13OnTestFailureERKNS_11TestDetailsEPKc@PLT
 1477      00
 1478              	.LEHE72:
 1479              	.LEHB73:
  59:testHexIO.cpp **** 	status = bufProcessLine(line, 0, &data, &mask, &seg, &recordType, NULL);
 1480              		.loc 4 59 0 discriminator 14
 1481 0a6c E8000000 		call	__cxa_end_catch@PLT
 1481      00
 1482              	.LEHE73:
 1483 0a71 E9B0FDFF 		jmp	.L87
 1483      FF
 1484              	.L111:
 1485 0a76 4889C3   		movq	%rax, %rbx
  59:testHexIO.cpp **** 	status = bufProcessLine(line, 0, &data, &mask, &seg, &recordType, NULL);
 1486              		.loc 4 59 0
 1487 0a79 E8000000 		call	__cxa_end_catch@PLT
 1487      00
 1488 0a7e 4889D8   		movq	%rbx, %rax
 1489 0a81 4889C7   		movq	%rax, %rdi
 1490              	.LEHB74:
 1491 0a84 E8000000 		call	_Unwind_Resume@PLT
 1491      00
 1492              	.LEHE74:
 1493              	.L113:
 1494 0a89 EB00     		jmp	.L90
 1495              	.L112:
 1496              	.L90:
  61:testHexIO.cpp **** 	CHECK_EQUAL(0x01, recordType);
 1497              		.loc 4 61 0 is_stmt 1
 1498 0a8b 4889C7   		movq	%rax, %rdi
 1499 0a8e E8000000 		call	__cxa_begin_catch@PLT
 1499      00
 1500              	.LEHB75:
 1501 0a93 E8000000 		call	_ZN8UnitTest11CurrentTest7ResultsEv@PLT
 1501      00
 1502 0a98 488B18   		movq	(%rax), %rbx
 1503 0a9b E8000000 		call	_ZN8UnitTest11CurrentTest7DetailsEv@PLT
 1503      00
  61:testHexIO.cpp **** 	CHECK_EQUAL(0x01, recordType);
 1504              		.loc 4 61 0 is_stmt 0 discriminator 8
 1505 0aa0 488B08   		movq	(%rax), %rcx
 1506 0aa3 488D45C0 		leaq	-64(%rbp), %rax
 1507 0aa7 BA3D0000 		movl	$61, %edx
 1507      00
 1508 0aac 4889CE   		movq	%rcx, %rsi
 1509 0aaf 4889C7   		movq	%rax, %rdi
 1510 0ab2 E8000000 		call	_ZN8UnitTest11TestDetailsC1ERKS0_i@PLT
 1510      00
  61:testHexIO.cpp **** 	CHECK_EQUAL(0x01, recordType);
 1511              		.loc 4 61 0 discriminator 12
 1512 0ab7 488D45C0 		leaq	-64(%rbp), %rax
 1513 0abb 488D1500 		leaq	.LC4(%rip), %rdx
 1513      000000
 1514 0ac2 4889C6   		movq	%rax, %rsi
 1515 0ac5 4889DF   		movq	%rbx, %rdi
 1516 0ac8 E8000000 		call	_ZN8UnitTest11TestResults13OnTestFailureERKNS_11TestDetailsEPKc@PLT
 1516      00
 1517              	.LEHE75:
 1518              	.LEHB76:
  61:testHexIO.cpp **** 	CHECK_EQUAL(0x01, recordType);
 1519              		.loc 4 61 0 discriminator 14
 1520 0acd E8000000 		call	__cxa_end_catch@PLT
 1520      00
 1521              	.LEHE76:
 1522 0ad2 E9D7FDFF 		jmp	.L91
 1522      FF
 1523              	.L114:
 1524 0ad7 4889C3   		movq	%rax, %rbx
  61:testHexIO.cpp **** 	CHECK_EQUAL(0x01, recordType);
 1525              		.loc 4 61 0
 1526 0ada E8000000 		call	__cxa_end_catch@PLT
 1526      00
 1527 0adf 4889D8   		movq	%rbx, %rax
 1528 0ae2 4889C7   		movq	%rax, %rdi
 1529              	.LEHB77:
 1530 0ae5 E8000000 		call	_Unwind_Resume@PLT
 1530      00
 1531              	.LEHE77:
 1532              	.L116:
 1533 0aea EB00     		jmp	.L94
 1534              	.L115:
 1535              	.L94:
  62:testHexIO.cpp **** 	CHECK_EQUAL(0UL, data.length);
 1536              		.loc 4 62 0 is_stmt 1
 1537 0aec 4889C7   		movq	%rax, %rdi
 1538 0aef E8000000 		call	__cxa_begin_catch@PLT
 1538      00
 1539              	.LEHB78:
 1540 0af4 E8000000 		call	_ZN8UnitTest11CurrentTest7ResultsEv@PLT
 1540      00
 1541 0af9 488B18   		movq	(%rax), %rbx
 1542 0afc E8000000 		call	_ZN8UnitTest11CurrentTest7DetailsEv@PLT
 1542      00
  62:testHexIO.cpp **** 	CHECK_EQUAL(0UL, data.length);
 1543              		.loc 4 62 0 is_stmt 0 discriminator 8
 1544 0b01 488B08   		movq	(%rax), %rcx
 1545 0b04 488D45C0 		leaq	-64(%rbp), %rax
 1546 0b08 BA3E0000 		movl	$62, %edx
 1546      00
 1547 0b0d 4889CE   		movq	%rcx, %rsi
 1548 0b10 4889C7   		movq	%rax, %rdi
 1549 0b13 E8000000 		call	_ZN8UnitTest11TestDetailsC1ERKS0_i@PLT
 1549      00
  62:testHexIO.cpp **** 	CHECK_EQUAL(0UL, data.length);
 1550              		.loc 4 62 0 discriminator 12
 1551 0b18 488D45C0 		leaq	-64(%rbp), %rax
 1552 0b1c 488D1500 		leaq	.LC13(%rip), %rdx
 1552      000000
 1553 0b23 4889C6   		movq	%rax, %rsi
 1554 0b26 4889DF   		movq	%rbx, %rdi
 1555 0b29 E8000000 		call	_ZN8UnitTest11TestResults13OnTestFailureERKNS_11TestDetailsEPKc@PLT
 1555      00
 1556              	.LEHE78:
 1557              	.LEHB79:
  62:testHexIO.cpp **** 	CHECK_EQUAL(0UL, data.length);
 1558              		.loc 4 62 0 discriminator 14
 1559 0b2e E8000000 		call	__cxa_end_catch@PLT
 1559      00
 1560              	.LEHE79:
 1561 0b33 E9BEFDFF 		jmp	.L95
 1561      FF
 1562              	.L117:
 1563 0b38 4889C3   		movq	%rax, %rbx
  62:testHexIO.cpp **** 	CHECK_EQUAL(0UL, data.length);
 1564              		.loc 4 62 0
 1565 0b3b E8000000 		call	__cxa_end_catch@PLT
 1565      00
 1566 0b40 4889D8   		movq	%rbx, %rax
 1567 0b43 4889C7   		movq	%rax, %rdi
 1568              	.LEHB80:
 1569 0b46 E8000000 		call	_Unwind_Resume@PLT
 1569      00
 1570              	.LEHE80:
 1571              	.L119:
 1572 0b4b EB00     		jmp	.L98
 1573              	.L118:
 1574              	.L98:
  63:testHexIO.cpp **** 	CHECK_EQUAL(0UL, mask.length);
 1575              		.loc 4 63 0 is_stmt 1
 1576 0b4d 4889C7   		movq	%rax, %rdi
 1577 0b50 E8000000 		call	__cxa_begin_catch@PLT
 1577      00
 1578              	.LEHB81:
 1579 0b55 E8000000 		call	_ZN8UnitTest11CurrentTest7ResultsEv@PLT
 1579      00
 1580 0b5a 488B18   		movq	(%rax), %rbx
 1581 0b5d E8000000 		call	_ZN8UnitTest11CurrentTest7DetailsEv@PLT
 1581      00
  63:testHexIO.cpp **** 	CHECK_EQUAL(0UL, mask.length);
 1582              		.loc 4 63 0 is_stmt 0 discriminator 8
 1583 0b62 488B08   		movq	(%rax), %rcx
 1584 0b65 488D45C0 		leaq	-64(%rbp), %rax
 1585 0b69 BA3F0000 		movl	$63, %edx
 1585      00
 1586 0b6e 4889CE   		movq	%rcx, %rsi
 1587 0b71 4889C7   		movq	%rax, %rdi
 1588 0b74 E8000000 		call	_ZN8UnitTest11TestDetailsC1ERKS0_i@PLT
 1588      00
  63:testHexIO.cpp **** 	CHECK_EQUAL(0UL, mask.length);
 1589              		.loc 4 63 0 discriminator 12
 1590 0b79 488D45C0 		leaq	-64(%rbp), %rax
 1591 0b7d 488D1500 		leaq	.LC14(%rip), %rdx
 1591      000000
 1592 0b84 4889C6   		movq	%rax, %rsi
 1593 0b87 4889DF   		movq	%rbx, %rdi
 1594 0b8a E8000000 		call	_ZN8UnitTest11TestResults13OnTestFailureERKNS_11TestDetailsEPKc@PLT
 1594      00
 1595              	.LEHE81:
 1596              	.LEHB82:
  63:testHexIO.cpp **** 	CHECK_EQUAL(0UL, mask.length);
 1597              		.loc 4 63 0 discriminator 14
 1598 0b8f E8000000 		call	__cxa_end_catch@PLT
 1598      00
 1599              	.LEHE82:
 1600 0b94 E9ADFDFF 		jmp	.L99
 1600      FF
 1601              	.L120:
 1602 0b99 4889C3   		movq	%rax, %rbx
  63:testHexIO.cpp **** 	CHECK_EQUAL(0UL, mask.length);
 1603              		.loc 4 63 0
 1604 0b9c E8000000 		call	__cxa_end_catch@PLT
 1604      00
 1605 0ba1 4889D8   		movq	%rbx, %rax
 1606 0ba4 4889C7   		movq	%rax, %rdi
 1607              	.LEHB83:
 1608 0ba7 E8000000 		call	_Unwind_Resume@PLT
 1608      00
 1609              	.LEHE83:
 1610              	.L122:
 1611 0bac EB00     		jmp	.L102
 1612              	.L121:
 1613              	.L102:
  64:testHexIO.cpp **** 	bufDestroy(&mask);
 1614              		.loc 4 64 0 is_stmt 1
 1615 0bae 4889C7   		movq	%rax, %rdi
 1616 0bb1 E8000000 		call	__cxa_begin_catch@PLT
 1616      00
 1617              	.LEHB84:
 1618 0bb6 E8000000 		call	_ZN8UnitTest11CurrentTest7ResultsEv@PLT
 1618      00
 1619 0bbb 488B18   		movq	(%rax), %rbx
 1620 0bbe E8000000 		call	_ZN8UnitTest11CurrentTest7DetailsEv@PLT
 1620      00
  64:testHexIO.cpp **** 	bufDestroy(&mask);
 1621              		.loc 4 64 0 is_stmt 0 discriminator 8
 1622 0bc3 488B08   		movq	(%rax), %rcx
 1623 0bc6 488D45C0 		leaq	-64(%rbp), %rax
 1624 0bca BA400000 		movl	$64, %edx
 1624      00
 1625 0bcf 4889CE   		movq	%rcx, %rsi
 1626 0bd2 4889C7   		movq	%rax, %rdi
 1627 0bd5 E8000000 		call	_ZN8UnitTest11TestDetailsC1ERKS0_i@PLT
 1627      00
  64:testHexIO.cpp **** 	bufDestroy(&mask);
 1628              		.loc 4 64 0 discriminator 12
 1629 0bda 488D45C0 		leaq	-64(%rbp), %rax
 1630 0bde 488D1500 		leaq	.LC15(%rip), %rdx
 1630      000000
 1631 0be5 4889C6   		movq	%rax, %rsi
 1632 0be8 4889DF   		movq	%rbx, %rdi
 1633 0beb E8000000 		call	_ZN8UnitTest11TestResults13OnTestFailureERKNS_11TestDetailsEPKc@PLT
 1633      00
 1634              	.LEHE84:
 1635              	.LEHB85:
  64:testHexIO.cpp **** 	bufDestroy(&mask);
 1636              		.loc 4 64 0 discriminator 14
 1637 0bf0 E8000000 		call	__cxa_end_catch@PLT
 1637      00
 1638              	.LEHE85:
 1639 0bf5 E99CFDFF 		jmp	.L103
 1639      FF
 1640              	.L123:
 1641 0bfa 4889C3   		movq	%rax, %rbx
  64:testHexIO.cpp **** 	bufDestroy(&mask);
 1642              		.loc 4 64 0
 1643 0bfd E8000000 		call	__cxa_end_catch@PLT
 1643      00
 1644 0c02 4889D8   		movq	%rbx, %rax
 1645 0c05 4889C7   		movq	%rax, %rdi
 1646              	.LEHB86:
 1647 0c08 E8000000 		call	_Unwind_Resume@PLT
 1647      00
 1648              	.LEHE86:
 1649              	.L124:
 1650              		.loc 4 67 0 is_stmt 1
 1651 0c0d E8000000 		call	__stack_chk_fail@PLT
 1651      00
 1652              	.L105:
 1653 0c12 488B5DF8 		movq	-8(%rbp), %rbx
 1654 0c16 C9       		leave
 1655              		.cfi_def_cfa 7, 8
 1656 0c17 C3       		ret
 1657              		.cfi_endproc
 1658              	.LFE1163:
 1659              		.section	.gcc_except_table
 1660              		.align 4
 1661              	.LLSDA1163:
 1662 0120 FF       		.byte	0xff
 1663 0121 9B       		.byte	0x9b
 1664 0122 C401     		.uleb128 .LLSDATT1163-.LLSDATTD1163
 1665              	.LLSDATTD1163:
 1666 0124 01       		.byte	0x1
 1667 0125 B901     		.uleb128 .LLSDACSE1163-.LLSDACSB1163
 1668              	.LLSDACSB1163:
 1669 0127 50       		.uleb128 .LEHB53-.LFB1163
 1670 0128 05       		.uleb128 .LEHE53-.LEHB53
 1671 0129 00       		.uleb128 0
 1672 012a 00       		.uleb128 0
 1673 012b 5B       		.uleb128 .LEHB54-.LFB1163
 1674 012c 1C       		.uleb128 .LEHE54-.LEHB54
 1675 012d A905     		.uleb128 .L106-.LFB1163
 1676 012f 01       		.uleb128 0x1
 1677 0130 7E       		.uleb128 .LEHB55-.LFB1163
 1678 0131 1F       		.uleb128 .LEHE55-.LEHB55
 1679 0132 A705     		.uleb128 .L107-.LFB1163
 1680 0134 03       		.uleb128 0x3
 1681 0135 B301     		.uleb128 .LEHB56-.LFB1163
 1682 0137 05       		.uleb128 .LEHE56-.LEHB56
 1683 0138 00       		.uleb128 0
 1684 0139 00       		.uleb128 0
 1685 013a BE01     		.uleb128 .LEHB57-.LFB1163
 1686 013c 1C       		.uleb128 .LEHE57-.LEHB57
 1687 013d 8A06     		.uleb128 .L109-.LFB1163
 1688 013f 01       		.uleb128 0x1
 1689 0140 E401     		.uleb128 .LEHB58-.LFB1163
 1690 0142 22       		.uleb128 .LEHE58-.LEHB58
 1691 0143 8806     		.uleb128 .L110-.LFB1163
 1692 0145 03       		.uleb128 0x3
 1693 0146 B702     		.uleb128 .LEHB59-.LFB1163
 1694 0148 05       		.uleb128 .LEHE59-.LEHB59
 1695 0149 00       		.uleb128 0
 1696 014a 00       		.uleb128 0
 1697 014b C602     		.uleb128 .LEHB60-.LFB1163
 1698 014d 1C       		.uleb128 .LEHE60-.LEHB60
 1699 014e EB06     		.uleb128 .L112-.LFB1163
 1700 0150 01       		.uleb128 0x1
 1701 0151 EC02     		.uleb128 .LEHB61-.LFB1163
 1702 0153 22       		.uleb128 .LEHE61-.LEHB61
 1703 0154 E906     		.uleb128 .L113-.LFB1163
 1704 0156 03       		.uleb128 0x3
 1705 0157 8E03     		.uleb128 .LEHB62-.LFB1163
 1706 0159 1C       		.uleb128 .LEHE62-.LEHB62
 1707 015a CC07     		.uleb128 .L115-.LFB1163
 1708 015c 01       		.uleb128 0x1
 1709 015d B403     		.uleb128 .LEHB63-.LFB1163
 1710 015f 22       		.uleb128 .LEHE63-.LEHB63
 1711 0160 CA07     		.uleb128 .L116-.LFB1163
 1712 0162 03       		.uleb128 0x3
 1713 0163 D603     		.uleb128 .LEHB64-.LFB1163
 1714 0165 1C       		.uleb128 .LEHE64-.LEHB64
 1715 0166 AD08     		.uleb128 .L118-.LFB1163
 1716 0168 01       		.uleb128 0x1
 1717 0169 FD03     		.uleb128 .LEHB65-.LFB1163
 1718 016b 29       		.uleb128 .LEHE65-.LEHB65
 1719 016c AB08     		.uleb128 .L119-.LFB1163
 1720 016e 03       		.uleb128 0x3
 1721 016f A604     		.uleb128 .LEHB66-.LFB1163
 1722 0171 1C       		.uleb128 .LEHE66-.LEHB66
 1723 0172 8E09     		.uleb128 .L121-.LFB1163
 1724 0174 01       		.uleb128 0x1
 1725 0175 CD04     		.uleb128 .LEHB67-.LFB1163
 1726 0177 29       		.uleb128 .LEHE67-.LEHB67
 1727 0178 8C09     		.uleb128 .L122-.LFB1163
 1728 017a 03       		.uleb128 0x3
 1729 017b FD04     		.uleb128 .LEHB68-.LFB1163
 1730 017d 11       		.uleb128 .LEHE68-.LEHB68
 1731 017e 00       		.uleb128 0
 1732 017f 00       		.uleb128 0
 1733 0180 B105     		.uleb128 .LEHB69-.LFB1163
 1734 0182 3A       		.uleb128 .LEHE69-.LEHB69
 1735 0183 F505     		.uleb128 .L108-.LFB1163
 1736 0185 00       		.uleb128 0
 1737 0186 EB05     		.uleb128 .LEHB70-.LFB1163
 1738 0188 05       		.uleb128 .LEHE70-.LEHB70
 1739 0189 00       		.uleb128 0
 1740 018a 00       		.uleb128 0
 1741 018b 8306     		.uleb128 .LEHB71-.LFB1163
 1742 018d 05       		.uleb128 .LEHE71-.LEHB71
 1743 018e 00       		.uleb128 0
 1744 018f 00       		.uleb128 0
 1745 0190 9206     		.uleb128 .LEHB72-.LFB1163
 1746 0192 3A       		.uleb128 .LEHE72-.LEHB72
 1747 0193 D606     		.uleb128 .L111-.LFB1163
 1748 0195 00       		.uleb128 0
 1749 0196 CC06     		.uleb128 .LEHB73-.LFB1163
 1750 0198 05       		.uleb128 .LEHE73-.LEHB73
 1751 0199 00       		.uleb128 0
 1752 019a 00       		.uleb128 0
 1753 019b E406     		.uleb128 .LEHB74-.LFB1163
 1754 019d 05       		.uleb128 .LEHE74-.LEHB74
 1755 019e 00       		.uleb128 0
 1756 019f 00       		.uleb128 0
 1757 01a0 F306     		.uleb128 .LEHB75-.LFB1163
 1758 01a2 3A       		.uleb128 .LEHE75-.LEHB75
 1759 01a3 B707     		.uleb128 .L114-.LFB1163
 1760 01a5 00       		.uleb128 0
 1761 01a6 AD07     		.uleb128 .LEHB76-.LFB1163
 1762 01a8 05       		.uleb128 .LEHE76-.LEHB76
 1763 01a9 00       		.uleb128 0
 1764 01aa 00       		.uleb128 0
 1765 01ab C507     		.uleb128 .LEHB77-.LFB1163
 1766 01ad 05       		.uleb128 .LEHE77-.LEHB77
 1767 01ae 00       		.uleb128 0
 1768 01af 00       		.uleb128 0
 1769 01b0 D407     		.uleb128 .LEHB78-.LFB1163
 1770 01b2 3A       		.uleb128 .LEHE78-.LEHB78
 1771 01b3 9808     		.uleb128 .L117-.LFB1163
 1772 01b5 00       		.uleb128 0
 1773 01b6 8E08     		.uleb128 .LEHB79-.LFB1163
 1774 01b8 05       		.uleb128 .LEHE79-.LEHB79
 1775 01b9 00       		.uleb128 0
 1776 01ba 00       		.uleb128 0
 1777 01bb A608     		.uleb128 .LEHB80-.LFB1163
 1778 01bd 05       		.uleb128 .LEHE80-.LEHB80
 1779 01be 00       		.uleb128 0
 1780 01bf 00       		.uleb128 0
 1781 01c0 B508     		.uleb128 .LEHB81-.LFB1163
 1782 01c2 3A       		.uleb128 .LEHE81-.LEHB81
 1783 01c3 F908     		.uleb128 .L120-.LFB1163
 1784 01c5 00       		.uleb128 0
 1785 01c6 EF08     		.uleb128 .LEHB82-.LFB1163
 1786 01c8 05       		.uleb128 .LEHE82-.LEHB82
 1787 01c9 00       		.uleb128 0
 1788 01ca 00       		.uleb128 0
 1789 01cb 8709     		.uleb128 .LEHB83-.LFB1163
 1790 01cd 05       		.uleb128 .LEHE83-.LEHB83
 1791 01ce 00       		.uleb128 0
 1792 01cf 00       		.uleb128 0
 1793 01d0 9609     		.uleb128 .LEHB84-.LFB1163
 1794 01d2 3A       		.uleb128 .LEHE84-.LEHB84
 1795 01d3 DA09     		.uleb128 .L123-.LFB1163
 1796 01d5 00       		.uleb128 0
 1797 01d6 D009     		.uleb128 .LEHB85-.LFB1163
 1798 01d8 05       		.uleb128 .LEHE85-.LEHB85
 1799 01d9 00       		.uleb128 0
 1800 01da 00       		.uleb128 0
 1801 01db E809     		.uleb128 .LEHB86-.LFB1163
 1802 01dd 05       		.uleb128 .LEHE86-.LEHB86
 1803 01de 00       		.uleb128 0
 1804 01df 00       		.uleb128 0
 1805              	.LLSDACSE1163:
 1806 01e0 01       		.byte	0x1
 1807 01e1 00       		.byte	0
 1808 01e2 00       		.byte	0
 1809 01e3 7D       		.byte	0x7d
 1810              		.align 4
 1811 01e4 00000000 		.long	0
 1812              	
 1813              	.LLSDATT1163:
 1814              		.text
 1816              		.section	.rodata
 1817              	.LC16:
 1818 02c5 48657849 		.string	"HexIO_testJunkStartCode"
 1818      4F5F7465 
 1818      73744A75 
 1818      6E6B5374 
 1818      61727443 
 1819              		.section	.text._ZN27TestHexIO_testJunkStartCodeC2Ev,"axG",@progbits,_ZN27TestHexIO_testJunkStartCo
 1820              		.align 2
 1821              		.weak	_ZN27TestHexIO_testJunkStartCodeC2Ev
 1823              	_ZN27TestHexIO_testJunkStartCodeC2Ev:
 1824              	.LFB1165:
  68:testHexIO.cpp **** 
  69:testHexIO.cpp **** TEST(HexIO_testJunkStartCode) {
 1825              		.loc 4 69 0
 1826              		.cfi_startproc
 1827 0000 55       		pushq	%rbp
 1828              		.cfi_def_cfa_offset 16
 1829              		.cfi_offset 6, -16
 1830 0001 4889E5   		movq	%rsp, %rbp
 1831              		.cfi_def_cfa_register 6
 1832 0004 53       		pushq	%rbx
 1833 0005 4883EC18 		subq	$24, %rsp
 1834              		.cfi_offset 3, -24
 1835 0009 48897DE8 		movq	%rdi, -24(%rbp)
 1836              	.LBB6:
 1837              		.loc 4 69 0
 1838 000d 488B5DE8 		movq	-24(%rbp), %rbx
 1839 0011 E8000000 		call	_ZN13UnitTestSuite12GetSuiteNameEv
 1839      00
 1840 0016 41B84500 		movl	$69, %r8d
 1840      0000
 1841 001c 488D0D00 		leaq	.LC1(%rip), %rcx
 1841      000000
 1842 0023 4889C2   		movq	%rax, %rdx
 1843 0026 488D3500 		leaq	.LC16(%rip), %rsi
 1843      000000
 1844 002d 4889DF   		movq	%rbx, %rdi
 1845 0030 E8000000 		call	_ZN8UnitTest4TestC2EPKcS2_S2_i@PLT
 1845      00
 1846 0035 488D1500 		leaq	16+_ZTV27TestHexIO_testJunkStartCode(%rip), %rdx
 1846      000000
 1847 003c 488B45E8 		movq	-24(%rbp), %rax
 1848 0040 488910   		movq	%rdx, (%rax)
 1849              	.LBE6:
 1850 0043 90       		nop
 1851 0044 4883C418 		addq	$24, %rsp
 1852 0048 5B       		popq	%rbx
 1853 0049 5D       		popq	%rbp
 1854              		.cfi_def_cfa 7, 8
 1855 004a C3       		ret
 1856              		.cfi_endproc
 1857              	.LFE1165:
 1859              		.weak	_ZN27TestHexIO_testJunkStartCodeC1Ev
 1860              		.set	_ZN27TestHexIO_testJunkStartCodeC1Ev,_ZN27TestHexIO_testJunkStartCodeC2Ev
 1861              		.globl	testHexIO_testJunkStartCodeInstance
 1862              		.bss
 1863 0079 00000000 		.align 32
 1863      000000
 1866              	testHexIO_testJunkStartCodeInstance:
 1867 0080 00000000 		.zero	56
 1867      00000000 
 1867      00000000 
 1867      00000000 
 1867      00000000 
 1868              		.globl	adderHexIO_testJunkStartCode
 1871              	adderHexIO_testJunkStartCode:
 1872 00b8 00       		.zero	1
 1873              		.section	.rodata
 1874              	.LC17:
 1875 02dd 2E303430 		.string	".040BE10075820022F7\n"
 1875      42453130 
 1875      30373538 
 1875      32303032 
 1875      3246370A 
 1876 02f2 00000000 		.align 8
 1876      0000
 1877              	.LC18:
 1878 02f8 556E6861 		.string	"Unhandled exception in CHECK_EQUAL(HEX_JUNK_START_CODE, status)"
 1878      6E646C65 
 1878      64206578 
 1878      63657074 
 1878      696F6E20 
 1879              		.text
 1880              		.align 2
 1881              		.globl	_ZNK27TestHexIO_testJunkStartCode7RunImplEv
 1883              	_ZNK27TestHexIO_testJunkStartCode7RunImplEv:
 1884              	.LFB1167:
 1885              		.loc 4 69 0
 1886              		.cfi_startproc
 1887              		.cfi_personality 0x9b,DW.ref.__gxx_personality_v0
 1888              		.cfi_lsda 0x1b,.LLSDA1167
 1889 0c18 55       		pushq	%rbp
 1890              		.cfi_def_cfa_offset 16
 1891              		.cfi_offset 6, -16
 1892 0c19 4889E5   		movq	%rsp, %rbp
 1893              		.cfi_def_cfa_register 6
 1894 0c1c 53       		pushq	%rbx
 1895 0c1d 4881EC88 		subq	$136, %rsp
 1895      000000
 1896              		.cfi_offset 3, -24
 1897 0c24 4889BD78 		movq	%rdi, -136(%rbp)
 1897      FFFFFF
 1898              		.loc 4 69 0
 1899 0c2b 64488B04 		movq	%fs:40, %rax
 1899      25280000 
 1899      00
 1900 0c34 488945E8 		movq	%rax, -24(%rbp)
 1901 0c38 31C0     		xorl	%eax, %eax
  70:testHexIO.cpp **** 	Buffer data;
  71:testHexIO.cpp **** 	BufferStatus status;
  72:testHexIO.cpp **** 	const char *line = ".040BE10075820022F7\n";
 1902              		.loc 4 72 0
 1903 0c3a 488D0500 		leaq	.LC17(%rip), %rax
 1903      000000
 1904 0c41 48894598 		movq	%rax, -104(%rbp)
  73:testHexIO.cpp **** 	uint8 recordType;
  74:testHexIO.cpp **** 	uint32 seg = 0x00000000;
 1905              		.loc 4 74 0
 1906 0c45 C7459000 		movl	$0, -112(%rbp)
 1906      000000
  75:testHexIO.cpp **** 	status = bufInitialise(&data, 1024, 0x00, NULL);
 1907              		.loc 4 75 0
 1908 0c4c 488D45A0 		leaq	-96(%rbp), %rax
 1909 0c50 B9000000 		movl	$0, %ecx
 1909      00
 1910 0c55 BA000000 		movl	$0, %edx
 1910      00
 1911 0c5a BE000400 		movl	$1024, %esi
 1911      00
 1912 0c5f 4889C7   		movq	%rax, %rdi
 1913              	.LEHB87:
 1914 0c62 E8000000 		call	bufInitialise@PLT
 1914      00
 1915              	.LEHE87:
 1916 0c67 89458C   		movl	%eax, -116(%rbp)
 1917              	.LEHB88:
  76:testHexIO.cpp **** 	CHECK_EQUAL(BUF_SUCCESS, status);
 1918              		.loc 4 76 0
 1919 0c6a E8000000 		call	_ZN8UnitTest11CurrentTest7DetailsEv@PLT
 1919      00
 1920 0c6f 488B08   		movq	(%rax), %rcx
 1921 0c72 488D45C0 		leaq	-64(%rbp), %rax
 1922 0c76 BA4C0000 		movl	$76, %edx
 1922      00
 1923 0c7b 4889CE   		movq	%rcx, %rsi
 1924 0c7e 4889C7   		movq	%rax, %rdi
 1925 0c81 E8000000 		call	_ZN8UnitTest11TestDetailsC1ERKS0_i@PLT
 1925      00
 1926              	.LEHE88:
 1927              		.loc 4 76 0 is_stmt 0 discriminator 2
 1928 0c86 C7459400 		movl	$0, -108(%rbp)
 1928      000000
 1929              	.LEHB89:
 1930 0c8d E8000000 		call	_ZN8UnitTest11CurrentTest7ResultsEv@PLT
 1930      00
 1931 0c92 488B00   		movq	(%rax), %rax
 1932 0c95 488D4DC0 		leaq	-64(%rbp), %rcx
 1933 0c99 488D558C 		leaq	-116(%rbp), %rdx
 1934 0c9d 488D7594 		leaq	-108(%rbp), %rsi
 1935 0ca1 4889C7   		movq	%rax, %rdi
 1936 0ca4 E8000000 		call	_ZN8UnitTest10CheckEqualI12BufferStatusS1_EEvRNS_11TestResultsERKT_RKT0_RKNS_11TestDetailsE
 1936      00
 1937              	.LEHE89:
 1938              	.L129:
  77:testHexIO.cpp **** 	status = bufProcessLine(line, 0, &data, NULL, &seg, &recordType, NULL);
 1939              		.loc 4 77 0 is_stmt 1
 1940 0ca9 488D758B 		leaq	-117(%rbp), %rsi
 1941 0cad 488D4D90 		leaq	-112(%rbp), %rcx
 1942 0cb1 488D55A0 		leaq	-96(%rbp), %rdx
 1943 0cb5 488B4598 		movq	-104(%rbp), %rax
 1944 0cb9 4883EC08 		subq	$8, %rsp
 1945 0cbd 6A00     		pushq	$0
 1946 0cbf 4989F1   		movq	%rsi, %r9
 1947 0cc2 4989C8   		movq	%rcx, %r8
 1948 0cc5 B9000000 		movl	$0, %ecx
 1948      00
 1949 0cca BE000000 		movl	$0, %esi
 1949      00
 1950 0ccf 4889C7   		movq	%rax, %rdi
 1951              	.LEHB90:
 1952 0cd2 E8000000 		call	bufProcessLine@PLT
 1952      00
 1953              	.LEHE90:
 1954 0cd7 4883C410 		addq	$16, %rsp
 1955 0cdb 89458C   		movl	%eax, -116(%rbp)
 1956              	.LEHB91:
  78:testHexIO.cpp **** 	CHECK_EQUAL(HEX_JUNK_START_CODE, status);
 1957              		.loc 4 78 0
 1958 0cde E8000000 		call	_ZN8UnitTest11CurrentTest7DetailsEv@PLT
 1958      00
 1959 0ce3 488B08   		movq	(%rax), %rcx
 1960 0ce6 488D45C0 		leaq	-64(%rbp), %rax
 1961 0cea BA4E0000 		movl	$78, %edx
 1961      00
 1962 0cef 4889CE   		movq	%rcx, %rsi
 1963 0cf2 4889C7   		movq	%rax, %rdi
 1964 0cf5 E8000000 		call	_ZN8UnitTest11TestDetailsC1ERKS0_i@PLT
 1964      00
 1965              	.LEHE91:
 1966              		.loc 4 78 0 is_stmt 0 discriminator 2
 1967 0cfa C7459408 		movl	$8, -108(%rbp)
 1967      000000
 1968              	.LEHB92:
 1969 0d01 E8000000 		call	_ZN8UnitTest11CurrentTest7ResultsEv@PLT
 1969      00
 1970 0d06 488B00   		movq	(%rax), %rax
 1971 0d09 488D4DC0 		leaq	-64(%rbp), %rcx
 1972 0d0d 488D558C 		leaq	-116(%rbp), %rdx
 1973 0d11 488D7594 		leaq	-108(%rbp), %rsi
 1974 0d15 4889C7   		movq	%rax, %rdi
 1975 0d18 E8000000 		call	_ZN8UnitTest10CheckEqualI12BufferStatusS1_EEvRNS_11TestResultsERKT_RKT0_RKNS_11TestDetailsE
 1975      00
 1976              	.LEHE92:
 1977              	.L133:
  79:testHexIO.cpp **** 	bufDestroy(&data);
 1978              		.loc 4 79 0 is_stmt 1
 1979 0d1d 488D45A0 		leaq	-96(%rbp), %rax
 1980 0d21 4889C7   		movq	%rax, %rdi
 1981              	.LEHB93:
 1982 0d24 E8000000 		call	bufDestroy@PLT
 1982      00
 1983              	.LEHE93:
  80:testHexIO.cpp **** }
 1984              		.loc 4 80 0
 1985 0d29 90       		nop
 1986 0d2a 488B45E8 		movq	-24(%rbp), %rax
 1987 0d2e 64483304 		xorq	%fs:40, %rax
 1987      25280000 
 1987      00
 1988 0d37 0F84CC00 		je	.L135
 1988      0000
 1989 0d3d E9C20000 		jmp	.L142
 1989      00
 1990              	.L137:
 1991 0d42 EB00     		jmp	.L128
 1992              	.L136:
 1993              	.L128:
  76:testHexIO.cpp **** 	status = bufProcessLine(line, 0, &data, NULL, &seg, &recordType, NULL);
 1994              		.loc 4 76 0
 1995 0d44 4889C7   		movq	%rax, %rdi
 1996 0d47 E8000000 		call	__cxa_begin_catch@PLT
 1996      00
 1997              	.LEHB94:
 1998 0d4c E8000000 		call	_ZN8UnitTest11CurrentTest7ResultsEv@PLT
 1998      00
 1999 0d51 488B18   		movq	(%rax), %rbx
 2000 0d54 E8000000 		call	_ZN8UnitTest11CurrentTest7DetailsEv@PLT
 2000      00
  76:testHexIO.cpp **** 	status = bufProcessLine(line, 0, &data, NULL, &seg, &recordType, NULL);
 2001              		.loc 4 76 0 is_stmt 0 discriminator 8
 2002 0d59 488B08   		movq	(%rax), %rcx
 2003 0d5c 488D45C0 		leaq	-64(%rbp), %rax
 2004 0d60 BA4C0000 		movl	$76, %edx
 2004      00
 2005 0d65 4889CE   		movq	%rcx, %rsi
 2006 0d68 4889C7   		movq	%rax, %rdi
 2007 0d6b E8000000 		call	_ZN8UnitTest11TestDetailsC1ERKS0_i@PLT
 2007      00
  76:testHexIO.cpp **** 	status = bufProcessLine(line, 0, &data, NULL, &seg, &recordType, NULL);
 2008              		.loc 4 76 0 discriminator 12
 2009 0d70 488D45C0 		leaq	-64(%rbp), %rax
 2010 0d74 488D1500 		leaq	.LC4(%rip), %rdx
 2010      000000
 2011 0d7b 4889C6   		movq	%rax, %rsi
 2012 0d7e 4889DF   		movq	%rbx, %rdi
 2013 0d81 E8000000 		call	_ZN8UnitTest11TestResults13OnTestFailureERKNS_11TestDetailsEPKc@PLT
 2013      00
 2014              	.LEHE94:
 2015              	.LEHB95:
  76:testHexIO.cpp **** 	status = bufProcessLine(line, 0, &data, NULL, &seg, &recordType, NULL);
 2016              		.loc 4 76 0 discriminator 14
 2017 0d86 E8000000 		call	__cxa_end_catch@PLT
 2017      00
 2018              	.LEHE95:
 2019 0d8b E919FFFF 		jmp	.L129
 2019      FF
 2020              	.L138:
 2021 0d90 4889C3   		movq	%rax, %rbx
  76:testHexIO.cpp **** 	status = bufProcessLine(line, 0, &data, NULL, &seg, &recordType, NULL);
 2022              		.loc 4 76 0
 2023 0d93 E8000000 		call	__cxa_end_catch@PLT
 2023      00
 2024 0d98 4889D8   		movq	%rbx, %rax
 2025 0d9b 4889C7   		movq	%rax, %rdi
 2026              	.LEHB96:
 2027 0d9e E8000000 		call	_Unwind_Resume@PLT
 2027      00
 2028              	.LEHE96:
 2029              	.L140:
 2030 0da3 EB00     		jmp	.L132
 2031              	.L139:
 2032              	.L132:
  78:testHexIO.cpp **** 	bufDestroy(&data);
 2033              		.loc 4 78 0 is_stmt 1
 2034 0da5 4889C7   		movq	%rax, %rdi
 2035 0da8 E8000000 		call	__cxa_begin_catch@PLT
 2035      00
 2036              	.LEHB97:
 2037 0dad E8000000 		call	_ZN8UnitTest11CurrentTest7ResultsEv@PLT
 2037      00
 2038 0db2 488B18   		movq	(%rax), %rbx
 2039 0db5 E8000000 		call	_ZN8UnitTest11CurrentTest7DetailsEv@PLT
 2039      00
  78:testHexIO.cpp **** 	bufDestroy(&data);
 2040              		.loc 4 78 0 is_stmt 0 discriminator 8
 2041 0dba 488B08   		movq	(%rax), %rcx
 2042 0dbd 488D45C0 		leaq	-64(%rbp), %rax
 2043 0dc1 BA4E0000 		movl	$78, %edx
 2043      00
 2044 0dc6 4889CE   		movq	%rcx, %rsi
 2045 0dc9 4889C7   		movq	%rax, %rdi
 2046 0dcc E8000000 		call	_ZN8UnitTest11TestDetailsC1ERKS0_i@PLT
 2046      00
  78:testHexIO.cpp **** 	bufDestroy(&data);
 2047              		.loc 4 78 0 discriminator 12
 2048 0dd1 488D45C0 		leaq	-64(%rbp), %rax
 2049 0dd5 488D1500 		leaq	.LC18(%rip), %rdx
 2049      000000
 2050 0ddc 4889C6   		movq	%rax, %rsi
 2051 0ddf 4889DF   		movq	%rbx, %rdi
 2052 0de2 E8000000 		call	_ZN8UnitTest11TestResults13OnTestFailureERKNS_11TestDetailsEPKc@PLT
 2052      00
 2053              	.LEHE97:
 2054              	.LEHB98:
  78:testHexIO.cpp **** 	bufDestroy(&data);
 2055              		.loc 4 78 0 discriminator 14
 2056 0de7 E8000000 		call	__cxa_end_catch@PLT
 2056      00
 2057              	.LEHE98:
 2058 0dec E92CFFFF 		jmp	.L133
 2058      FF
 2059              	.L141:
 2060 0df1 4889C3   		movq	%rax, %rbx
  78:testHexIO.cpp **** 	bufDestroy(&data);
 2061              		.loc 4 78 0
 2062 0df4 E8000000 		call	__cxa_end_catch@PLT
 2062      00
 2063 0df9 4889D8   		movq	%rbx, %rax
 2064 0dfc 4889C7   		movq	%rax, %rdi
 2065              	.LEHB99:
 2066 0dff E8000000 		call	_Unwind_Resume@PLT
 2066      00
 2067              	.LEHE99:
 2068              	.L142:
 2069              		.loc 4 80 0 is_stmt 1
 2070 0e04 E8000000 		call	__stack_chk_fail@PLT
 2070      00
 2071              	.L135:
 2072 0e09 488B5DF8 		movq	-8(%rbp), %rbx
 2073 0e0d C9       		leave
 2074              		.cfi_def_cfa 7, 8
 2075 0e0e C3       		ret
 2076              		.cfi_endproc
 2077              	.LFE1167:
 2078              		.section	.gcc_except_table
 2079              		.align 4
 2080              	.LLSDA1167:
 2081 01e8 FF       		.byte	0xff
 2082 01e9 9B       		.byte	0x9b
 2083 01ea 51       		.uleb128 .LLSDATT1167-.LLSDATTD1167
 2084              	.LLSDATTD1167:
 2085 01eb 01       		.byte	0x1
 2086 01ec 44       		.uleb128 .LLSDACSE1167-.LLSDACSB1167
 2087              	.LLSDACSB1167:
 2088 01ed 4A       		.uleb128 .LEHB87-.LFB1167
 2089 01ee 05       		.uleb128 .LEHE87-.LEHB87
 2090 01ef 00       		.uleb128 0
 2091 01f0 00       		.uleb128 0
 2092 01f1 52       		.uleb128 .LEHB88-.LFB1167
 2093 01f2 1C       		.uleb128 .LEHE88-.LEHB88
 2094 01f3 AC02     		.uleb128 .L136-.LFB1167
 2095 01f5 01       		.uleb128 0x1
 2096 01f6 75       		.uleb128 .LEHB89-.LFB1167
 2097 01f7 1C       		.uleb128 .LEHE89-.LEHB89
 2098 01f8 AA02     		.uleb128 .L137-.LFB1167
 2099 01fa 03       		.uleb128 0x3
 2100 01fb BA01     		.uleb128 .LEHB90-.LFB1167
 2101 01fd 05       		.uleb128 .LEHE90-.LEHB90
 2102 01fe 00       		.uleb128 0
 2103 01ff 00       		.uleb128 0
 2104 0200 C601     		.uleb128 .LEHB91-.LFB1167
 2105 0202 1C       		.uleb128 .LEHE91-.LEHB91
 2106 0203 8D03     		.uleb128 .L139-.LFB1167
 2107 0205 01       		.uleb128 0x1
 2108 0206 E901     		.uleb128 .LEHB92-.LFB1167
 2109 0208 1C       		.uleb128 .LEHE92-.LEHB92
 2110 0209 8B03     		.uleb128 .L140-.LFB1167
 2111 020b 03       		.uleb128 0x3
 2112 020c 8C02     		.uleb128 .LEHB93-.LFB1167
 2113 020e 05       		.uleb128 .LEHE93-.LEHB93
 2114 020f 00       		.uleb128 0
 2115 0210 00       		.uleb128 0
 2116 0211 B402     		.uleb128 .LEHB94-.LFB1167
 2117 0213 3A       		.uleb128 .LEHE94-.LEHB94
 2118 0214 F802     		.uleb128 .L138-.LFB1167
 2119 0216 00       		.uleb128 0
 2120 0217 EE02     		.uleb128 .LEHB95-.LFB1167
 2121 0219 05       		.uleb128 .LEHE95-.LEHB95
 2122 021a 00       		.uleb128 0
 2123 021b 00       		.uleb128 0
 2124 021c 8603     		.uleb128 .LEHB96-.LFB1167
 2125 021e 05       		.uleb128 .LEHE96-.LEHB96
 2126 021f 00       		.uleb128 0
 2127 0220 00       		.uleb128 0
 2128 0221 9503     		.uleb128 .LEHB97-.LFB1167
 2129 0223 3A       		.uleb128 .LEHE97-.LEHB97
 2130 0224 D903     		.uleb128 .L141-.LFB1167
 2131 0226 00       		.uleb128 0
 2132 0227 CF03     		.uleb128 .LEHB98-.LFB1167
 2133 0229 05       		.uleb128 .LEHE98-.LEHB98
 2134 022a 00       		.uleb128 0
 2135 022b 00       		.uleb128 0
 2136 022c E703     		.uleb128 .LEHB99-.LFB1167
 2137 022e 05       		.uleb128 .LEHE99-.LEHB99
 2138 022f 00       		.uleb128 0
 2139 0230 00       		.uleb128 0
 2140              	.LLSDACSE1167:
 2141 0231 01       		.byte	0x1
 2142 0232 00       		.byte	0
 2143 0233 00       		.byte	0
 2144 0234 7D       		.byte	0x7d
 2145 0235 000000   		.align 4
 2146 0238 00000000 		.long	0
 2147              	
 2148              	.LLSDATT1167:
 2149              		.text
 2151              		.section	.rodata
 2152              	.LC19:
 2153 0338 48657849 		.string	"HexIO_testJunkByteCount"
 2153      4F5F7465 
 2153      73744A75 
 2153      6E6B4279 
 2153      7465436F 
 2154              		.section	.text._ZN27TestHexIO_testJunkByteCountC2Ev,"axG",@progbits,_ZN27TestHexIO_testJunkByteCou
 2155              		.align 2
 2156              		.weak	_ZN27TestHexIO_testJunkByteCountC2Ev
 2158              	_ZN27TestHexIO_testJunkByteCountC2Ev:
 2159              	.LFB1169:
  81:testHexIO.cpp **** 
  82:testHexIO.cpp **** TEST(HexIO_testJunkByteCount) {
 2160              		.loc 4 82 0
 2161              		.cfi_startproc
 2162 0000 55       		pushq	%rbp
 2163              		.cfi_def_cfa_offset 16
 2164              		.cfi_offset 6, -16
 2165 0001 4889E5   		movq	%rsp, %rbp
 2166              		.cfi_def_cfa_register 6
 2167 0004 53       		pushq	%rbx
 2168 0005 4883EC18 		subq	$24, %rsp
 2169              		.cfi_offset 3, -24
 2170 0009 48897DE8 		movq	%rdi, -24(%rbp)
 2171              	.LBB7:
 2172              		.loc 4 82 0
 2173 000d 488B5DE8 		movq	-24(%rbp), %rbx
 2174 0011 E8000000 		call	_ZN13UnitTestSuite12GetSuiteNameEv
 2174      00
 2175 0016 41B85200 		movl	$82, %r8d
 2175      0000
 2176 001c 488D0D00 		leaq	.LC1(%rip), %rcx
 2176      000000
 2177 0023 4889C2   		movq	%rax, %rdx
 2178 0026 488D3500 		leaq	.LC19(%rip), %rsi
 2178      000000
 2179 002d 4889DF   		movq	%rbx, %rdi
 2180 0030 E8000000 		call	_ZN8UnitTest4TestC2EPKcS2_S2_i@PLT
 2180      00
 2181 0035 488D1500 		leaq	16+_ZTV27TestHexIO_testJunkByteCount(%rip), %rdx
 2181      000000
 2182 003c 488B45E8 		movq	-24(%rbp), %rax
 2183 0040 488910   		movq	%rdx, (%rax)
 2184              	.LBE7:
 2185 0043 90       		nop
 2186 0044 4883C418 		addq	$24, %rsp
 2187 0048 5B       		popq	%rbx
 2188 0049 5D       		popq	%rbp
 2189              		.cfi_def_cfa 7, 8
 2190 004a C3       		ret
 2191              		.cfi_endproc
 2192              	.LFE1169:
 2194              		.weak	_ZN27TestHexIO_testJunkByteCountC1Ev
 2195              		.set	_ZN27TestHexIO_testJunkByteCountC1Ev,_ZN27TestHexIO_testJunkByteCountC2Ev
 2196              		.globl	testHexIO_testJunkByteCountInstance
 2197              		.bss
 2198 00b9 00000000 		.align 32
 2198      000000
 2201              	testHexIO_testJunkByteCountInstance:
 2202 00c0 00000000 		.zero	56
 2202      00000000 
 2202      00000000 
 2202      00000000 
 2202      00000000 
 2203              		.globl	adderHexIO_testJunkByteCount
 2206              	adderHexIO_testJunkByteCount:
 2207 00f8 00       		.zero	1
 2208              		.section	.rodata
 2209              	.LC20:
 2210 0350 3A2E2E30 		.string	":..0BE10075820022F7\n"
 2210      42453130 
 2210      30373538 
 2210      32303032 
 2210      3246370A 
 2211 0365 000000   		.align 8
 2212              	.LC21:
 2213 0368 556E6861 		.string	"Unhandled exception in CHECK_EQUAL(HEX_JUNK_BYTE_COUNT, status)"
 2213      6E646C65 
 2213      64206578 
 2213      63657074 
 2213      696F6E20 
 2214              		.text
 2215 0e0f 90       		.align 2
 2216              		.globl	_ZNK27TestHexIO_testJunkByteCount7RunImplEv
 2218              	_ZNK27TestHexIO_testJunkByteCount7RunImplEv:
 2219              	.LFB1171:
 2220              		.loc 4 82 0
 2221              		.cfi_startproc
 2222              		.cfi_personality 0x9b,DW.ref.__gxx_personality_v0
 2223              		.cfi_lsda 0x1b,.LLSDA1171
 2224 0e10 55       		pushq	%rbp
 2225              		.cfi_def_cfa_offset 16
 2226              		.cfi_offset 6, -16
 2227 0e11 4889E5   		movq	%rsp, %rbp
 2228              		.cfi_def_cfa_register 6
 2229 0e14 53       		pushq	%rbx
 2230 0e15 4881EC88 		subq	$136, %rsp
 2230      000000
 2231              		.cfi_offset 3, -24
 2232 0e1c 4889BD78 		movq	%rdi, -136(%rbp)
 2232      FFFFFF
 2233              		.loc 4 82 0
 2234 0e23 64488B04 		movq	%fs:40, %rax
 2234      25280000 
 2234      00
 2235 0e2c 488945E8 		movq	%rax, -24(%rbp)
 2236 0e30 31C0     		xorl	%eax, %eax
  83:testHexIO.cpp **** 	Buffer data;
  84:testHexIO.cpp **** 	BufferStatus status;
  85:testHexIO.cpp **** 	const char *line = ":..0BE10075820022F7\n";
 2237              		.loc 4 85 0
 2238 0e32 488D0500 		leaq	.LC20(%rip), %rax
 2238      000000
 2239 0e39 48894598 		movq	%rax, -104(%rbp)
  86:testHexIO.cpp **** 	uint8 recordType;
  87:testHexIO.cpp **** 	uint32 seg = 0x00000000;
 2240              		.loc 4 87 0
 2241 0e3d C7459000 		movl	$0, -112(%rbp)
 2241      000000
  88:testHexIO.cpp **** 	status = bufInitialise(&data, 1024, 0x00, NULL);
 2242              		.loc 4 88 0
 2243 0e44 488D45A0 		leaq	-96(%rbp), %rax
 2244 0e48 B9000000 		movl	$0, %ecx
 2244      00
 2245 0e4d BA000000 		movl	$0, %edx
 2245      00
 2246 0e52 BE000400 		movl	$1024, %esi
 2246      00
 2247 0e57 4889C7   		movq	%rax, %rdi
 2248              	.LEHB100:
 2249 0e5a E8000000 		call	bufInitialise@PLT
 2249      00
 2250              	.LEHE100:
 2251 0e5f 89458C   		movl	%eax, -116(%rbp)
 2252              	.LEHB101:
  89:testHexIO.cpp **** 	CHECK_EQUAL(BUF_SUCCESS, status);
 2253              		.loc 4 89 0
 2254 0e62 E8000000 		call	_ZN8UnitTest11CurrentTest7DetailsEv@PLT
 2254      00
 2255 0e67 488B08   		movq	(%rax), %rcx
 2256 0e6a 488D45C0 		leaq	-64(%rbp), %rax
 2257 0e6e BA590000 		movl	$89, %edx
 2257      00
 2258 0e73 4889CE   		movq	%rcx, %rsi
 2259 0e76 4889C7   		movq	%rax, %rdi
 2260 0e79 E8000000 		call	_ZN8UnitTest11TestDetailsC1ERKS0_i@PLT
 2260      00
 2261              	.LEHE101:
 2262              		.loc 4 89 0 is_stmt 0 discriminator 2
 2263 0e7e C7459400 		movl	$0, -108(%rbp)
 2263      000000
 2264              	.LEHB102:
 2265 0e85 E8000000 		call	_ZN8UnitTest11CurrentTest7ResultsEv@PLT
 2265      00
 2266 0e8a 488B00   		movq	(%rax), %rax
 2267 0e8d 488D4DC0 		leaq	-64(%rbp), %rcx
 2268 0e91 488D558C 		leaq	-116(%rbp), %rdx
 2269 0e95 488D7594 		leaq	-108(%rbp), %rsi
 2270 0e99 4889C7   		movq	%rax, %rdi
 2271 0e9c E8000000 		call	_ZN8UnitTest10CheckEqualI12BufferStatusS1_EEvRNS_11TestResultsERKT_RKT0_RKNS_11TestDetailsE
 2271      00
 2272              	.LEHE102:
 2273              	.L147:
  90:testHexIO.cpp **** 	status = bufProcessLine(line, 0, &data, NULL, &seg, &recordType, NULL);
 2274              		.loc 4 90 0 is_stmt 1
 2275 0ea1 488D758B 		leaq	-117(%rbp), %rsi
 2276 0ea5 488D4D90 		leaq	-112(%rbp), %rcx
 2277 0ea9 488D55A0 		leaq	-96(%rbp), %rdx
 2278 0ead 488B4598 		movq	-104(%rbp), %rax
 2279 0eb1 4883EC08 		subq	$8, %rsp
 2280 0eb5 6A00     		pushq	$0
 2281 0eb7 4989F1   		movq	%rsi, %r9
 2282 0eba 4989C8   		movq	%rcx, %r8
 2283 0ebd B9000000 		movl	$0, %ecx
 2283      00
 2284 0ec2 BE000000 		movl	$0, %esi
 2284      00
 2285 0ec7 4889C7   		movq	%rax, %rdi
 2286              	.LEHB103:
 2287 0eca E8000000 		call	bufProcessLine@PLT
 2287      00
 2288              	.LEHE103:
 2289 0ecf 4883C410 		addq	$16, %rsp
 2290 0ed3 89458C   		movl	%eax, -116(%rbp)
 2291              	.LEHB104:
  91:testHexIO.cpp **** 	CHECK_EQUAL(HEX_JUNK_BYTE_COUNT, status);
 2292              		.loc 4 91 0
 2293 0ed6 E8000000 		call	_ZN8UnitTest11CurrentTest7DetailsEv@PLT
 2293      00
 2294 0edb 488B08   		movq	(%rax), %rcx
 2295 0ede 488D45C0 		leaq	-64(%rbp), %rax
 2296 0ee2 BA5B0000 		movl	$91, %edx
 2296      00
 2297 0ee7 4889CE   		movq	%rcx, %rsi
 2298 0eea 4889C7   		movq	%rax, %rdi
 2299 0eed E8000000 		call	_ZN8UnitTest11TestDetailsC1ERKS0_i@PLT
 2299      00
 2300              	.LEHE104:
 2301              		.loc 4 91 0 is_stmt 0 discriminator 2
 2302 0ef2 C7459409 		movl	$9, -108(%rbp)
 2302      000000
 2303              	.LEHB105:
 2304 0ef9 E8000000 		call	_ZN8UnitTest11CurrentTest7ResultsEv@PLT
 2304      00
 2305 0efe 488B00   		movq	(%rax), %rax
 2306 0f01 488D4DC0 		leaq	-64(%rbp), %rcx
 2307 0f05 488D558C 		leaq	-116(%rbp), %rdx
 2308 0f09 488D7594 		leaq	-108(%rbp), %rsi
 2309 0f0d 4889C7   		movq	%rax, %rdi
 2310 0f10 E8000000 		call	_ZN8UnitTest10CheckEqualI12BufferStatusS1_EEvRNS_11TestResultsERKT_RKT0_RKNS_11TestDetailsE
 2310      00
 2311              	.LEHE105:
 2312              	.L151:
  92:testHexIO.cpp **** 	bufDestroy(&data);
 2313              		.loc 4 92 0 is_stmt 1
 2314 0f15 488D45A0 		leaq	-96(%rbp), %rax
 2315 0f19 4889C7   		movq	%rax, %rdi
 2316              	.LEHB106:
 2317 0f1c E8000000 		call	bufDestroy@PLT
 2317      00
 2318              	.LEHE106:
  93:testHexIO.cpp **** }
 2319              		.loc 4 93 0
 2320 0f21 90       		nop
 2321 0f22 488B45E8 		movq	-24(%rbp), %rax
 2322 0f26 64483304 		xorq	%fs:40, %rax
 2322      25280000 
 2322      00
 2323 0f2f 0F84CC00 		je	.L153
 2323      0000
 2324 0f35 E9C20000 		jmp	.L160
 2324      00
 2325              	.L155:
 2326 0f3a EB00     		jmp	.L146
 2327              	.L154:
 2328              	.L146:
  89:testHexIO.cpp **** 	status = bufProcessLine(line, 0, &data, NULL, &seg, &recordType, NULL);
 2329              		.loc 4 89 0
 2330 0f3c 4889C7   		movq	%rax, %rdi
 2331 0f3f E8000000 		call	__cxa_begin_catch@PLT
 2331      00
 2332              	.LEHB107:
 2333 0f44 E8000000 		call	_ZN8UnitTest11CurrentTest7ResultsEv@PLT
 2333      00
 2334 0f49 488B18   		movq	(%rax), %rbx
 2335 0f4c E8000000 		call	_ZN8UnitTest11CurrentTest7DetailsEv@PLT
 2335      00
  89:testHexIO.cpp **** 	status = bufProcessLine(line, 0, &data, NULL, &seg, &recordType, NULL);
 2336              		.loc 4 89 0 is_stmt 0 discriminator 8
 2337 0f51 488B08   		movq	(%rax), %rcx
 2338 0f54 488D45C0 		leaq	-64(%rbp), %rax
 2339 0f58 BA590000 		movl	$89, %edx
 2339      00
 2340 0f5d 4889CE   		movq	%rcx, %rsi
 2341 0f60 4889C7   		movq	%rax, %rdi
 2342 0f63 E8000000 		call	_ZN8UnitTest11TestDetailsC1ERKS0_i@PLT
 2342      00
  89:testHexIO.cpp **** 	status = bufProcessLine(line, 0, &data, NULL, &seg, &recordType, NULL);
 2343              		.loc 4 89 0 discriminator 12
 2344 0f68 488D45C0 		leaq	-64(%rbp), %rax
 2345 0f6c 488D1500 		leaq	.LC4(%rip), %rdx
 2345      000000
 2346 0f73 4889C6   		movq	%rax, %rsi
 2347 0f76 4889DF   		movq	%rbx, %rdi
 2348 0f79 E8000000 		call	_ZN8UnitTest11TestResults13OnTestFailureERKNS_11TestDetailsEPKc@PLT
 2348      00
 2349              	.LEHE107:
 2350              	.LEHB108:
  89:testHexIO.cpp **** 	status = bufProcessLine(line, 0, &data, NULL, &seg, &recordType, NULL);
 2351              		.loc 4 89 0 discriminator 14
 2352 0f7e E8000000 		call	__cxa_end_catch@PLT
 2352      00
 2353              	.LEHE108:
 2354 0f83 E919FFFF 		jmp	.L147
 2354      FF
 2355              	.L156:
 2356 0f88 4889C3   		movq	%rax, %rbx
  89:testHexIO.cpp **** 	status = bufProcessLine(line, 0, &data, NULL, &seg, &recordType, NULL);
 2357              		.loc 4 89 0
 2358 0f8b E8000000 		call	__cxa_end_catch@PLT
 2358      00
 2359 0f90 4889D8   		movq	%rbx, %rax
 2360 0f93 4889C7   		movq	%rax, %rdi
 2361              	.LEHB109:
 2362 0f96 E8000000 		call	_Unwind_Resume@PLT
 2362      00
 2363              	.LEHE109:
 2364              	.L158:
 2365 0f9b EB00     		jmp	.L150
 2366              	.L157:
 2367              	.L150:
  91:testHexIO.cpp **** 	bufDestroy(&data);
 2368              		.loc 4 91 0 is_stmt 1
 2369 0f9d 4889C7   		movq	%rax, %rdi
 2370 0fa0 E8000000 		call	__cxa_begin_catch@PLT
 2370      00
 2371              	.LEHB110:
 2372 0fa5 E8000000 		call	_ZN8UnitTest11CurrentTest7ResultsEv@PLT
 2372      00
 2373 0faa 488B18   		movq	(%rax), %rbx
 2374 0fad E8000000 		call	_ZN8UnitTest11CurrentTest7DetailsEv@PLT
 2374      00
  91:testHexIO.cpp **** 	bufDestroy(&data);
 2375              		.loc 4 91 0 is_stmt 0 discriminator 8
 2376 0fb2 488B08   		movq	(%rax), %rcx
 2377 0fb5 488D45C0 		leaq	-64(%rbp), %rax
 2378 0fb9 BA5B0000 		movl	$91, %edx
 2378      00
 2379 0fbe 4889CE   		movq	%rcx, %rsi
 2380 0fc1 4889C7   		movq	%rax, %rdi
 2381 0fc4 E8000000 		call	_ZN8UnitTest11TestDetailsC1ERKS0_i@PLT
 2381      00
  91:testHexIO.cpp **** 	bufDestroy(&data);
 2382              		.loc 4 91 0 discriminator 12
 2383 0fc9 488D45C0 		leaq	-64(%rbp), %rax
 2384 0fcd 488D1500 		leaq	.LC21(%rip), %rdx
 2384      000000
 2385 0fd4 4889C6   		movq	%rax, %rsi
 2386 0fd7 4889DF   		movq	%rbx, %rdi
 2387 0fda E8000000 		call	_ZN8UnitTest11TestResults13OnTestFailureERKNS_11TestDetailsEPKc@PLT
 2387      00
 2388              	.LEHE110:
 2389              	.LEHB111:
  91:testHexIO.cpp **** 	bufDestroy(&data);
 2390              		.loc 4 91 0 discriminator 14
 2391 0fdf E8000000 		call	__cxa_end_catch@PLT
 2391      00
 2392              	.LEHE111:
 2393 0fe4 E92CFFFF 		jmp	.L151
 2393      FF
 2394              	.L159:
 2395 0fe9 4889C3   		movq	%rax, %rbx
  91:testHexIO.cpp **** 	bufDestroy(&data);
 2396              		.loc 4 91 0
 2397 0fec E8000000 		call	__cxa_end_catch@PLT
 2397      00
 2398 0ff1 4889D8   		movq	%rbx, %rax
 2399 0ff4 4889C7   		movq	%rax, %rdi
 2400              	.LEHB112:
 2401 0ff7 E8000000 		call	_Unwind_Resume@PLT
 2401      00
 2402              	.LEHE112:
 2403              	.L160:
 2404              		.loc 4 93 0 is_stmt 1
 2405 0ffc E8000000 		call	__stack_chk_fail@PLT
 2405      00
 2406              	.L153:
 2407 1001 488B5DF8 		movq	-8(%rbp), %rbx
 2408 1005 C9       		leave
 2409              		.cfi_def_cfa 7, 8
 2410 1006 C3       		ret
 2411              		.cfi_endproc
 2412              	.LFE1171:
 2413              		.section	.gcc_except_table
 2414              		.align 4
 2415              	.LLSDA1171:
 2416 023c FF       		.byte	0xff
 2417 023d 9B       		.byte	0x9b
 2418 023e 51       		.uleb128 .LLSDATT1171-.LLSDATTD1171
 2419              	.LLSDATTD1171:
 2420 023f 01       		.byte	0x1
 2421 0240 44       		.uleb128 .LLSDACSE1171-.LLSDACSB1171
 2422              	.LLSDACSB1171:
 2423 0241 4A       		.uleb128 .LEHB100-.LFB1171
 2424 0242 05       		.uleb128 .LEHE100-.LEHB100
 2425 0243 00       		.uleb128 0
 2426 0244 00       		.uleb128 0
 2427 0245 52       		.uleb128 .LEHB101-.LFB1171
 2428 0246 1C       		.uleb128 .LEHE101-.LEHB101
 2429 0247 AC02     		.uleb128 .L154-.LFB1171
 2430 0249 01       		.uleb128 0x1
 2431 024a 75       		.uleb128 .LEHB102-.LFB1171
 2432 024b 1C       		.uleb128 .LEHE102-.LEHB102
 2433 024c AA02     		.uleb128 .L155-.LFB1171
 2434 024e 03       		.uleb128 0x3
 2435 024f BA01     		.uleb128 .LEHB103-.LFB1171
 2436 0251 05       		.uleb128 .LEHE103-.LEHB103
 2437 0252 00       		.uleb128 0
 2438 0253 00       		.uleb128 0
 2439 0254 C601     		.uleb128 .LEHB104-.LFB1171
 2440 0256 1C       		.uleb128 .LEHE104-.LEHB104
 2441 0257 8D03     		.uleb128 .L157-.LFB1171
 2442 0259 01       		.uleb128 0x1
 2443 025a E901     		.uleb128 .LEHB105-.LFB1171
 2444 025c 1C       		.uleb128 .LEHE105-.LEHB105
 2445 025d 8B03     		.uleb128 .L158-.LFB1171
 2446 025f 03       		.uleb128 0x3
 2447 0260 8C02     		.uleb128 .LEHB106-.LFB1171
 2448 0262 05       		.uleb128 .LEHE106-.LEHB106
 2449 0263 00       		.uleb128 0
 2450 0264 00       		.uleb128 0
 2451 0265 B402     		.uleb128 .LEHB107-.LFB1171
 2452 0267 3A       		.uleb128 .LEHE107-.LEHB107
 2453 0268 F802     		.uleb128 .L156-.LFB1171
 2454 026a 00       		.uleb128 0
 2455 026b EE02     		.uleb128 .LEHB108-.LFB1171
 2456 026d 05       		.uleb128 .LEHE108-.LEHB108
 2457 026e 00       		.uleb128 0
 2458 026f 00       		.uleb128 0
 2459 0270 8603     		.uleb128 .LEHB109-.LFB1171
 2460 0272 05       		.uleb128 .LEHE109-.LEHB109
 2461 0273 00       		.uleb128 0
 2462 0274 00       		.uleb128 0
 2463 0275 9503     		.uleb128 .LEHB110-.LFB1171
 2464 0277 3A       		.uleb128 .LEHE110-.LEHB110
 2465 0278 D903     		.uleb128 .L159-.LFB1171
 2466 027a 00       		.uleb128 0
 2467 027b CF03     		.uleb128 .LEHB111-.LFB1171
 2468 027d 05       		.uleb128 .LEHE111-.LEHB111
 2469 027e 00       		.uleb128 0
 2470 027f 00       		.uleb128 0
 2471 0280 E703     		.uleb128 .LEHB112-.LFB1171
 2472 0282 05       		.uleb128 .LEHE112-.LEHB112
 2473 0283 00       		.uleb128 0
 2474 0284 00       		.uleb128 0
 2475              	.LLSDACSE1171:
 2476 0285 01       		.byte	0x1
 2477 0286 00       		.byte	0
 2478 0287 00       		.byte	0
 2479 0288 7D       		.byte	0x7d
 2480 0289 000000   		.align 4
 2481 028c 00000000 		.long	0
 2482              	
 2483              	.LLSDATT1171:
 2484              		.text
 2486              		.section	.rodata
 2487              	.LC22:
 2488 03a8 48657849 		.string	"HexIO_testJunkAddrMsb"
 2488      4F5F7465 
 2488      73744A75 
 2488      6E6B4164 
 2488      64724D73 
 2489              		.section	.text._ZN25TestHexIO_testJunkAddrMsbC2Ev,"axG",@progbits,_ZN25TestHexIO_testJunkAddrMsbC5
 2490              		.align 2
 2491              		.weak	_ZN25TestHexIO_testJunkAddrMsbC2Ev
 2493              	_ZN25TestHexIO_testJunkAddrMsbC2Ev:
 2494              	.LFB1173:
  94:testHexIO.cpp **** 
  95:testHexIO.cpp **** TEST(HexIO_testJunkAddrMsb) {
 2495              		.loc 4 95 0
 2496              		.cfi_startproc
 2497 0000 55       		pushq	%rbp
 2498              		.cfi_def_cfa_offset 16
 2499              		.cfi_offset 6, -16
 2500 0001 4889E5   		movq	%rsp, %rbp
 2501              		.cfi_def_cfa_register 6
 2502 0004 53       		pushq	%rbx
 2503 0005 4883EC18 		subq	$24, %rsp
 2504              		.cfi_offset 3, -24
 2505 0009 48897DE8 		movq	%rdi, -24(%rbp)
 2506              	.LBB8:
 2507              		.loc 4 95 0
 2508 000d 488B5DE8 		movq	-24(%rbp), %rbx
 2509 0011 E8000000 		call	_ZN13UnitTestSuite12GetSuiteNameEv
 2509      00
 2510 0016 41B85F00 		movl	$95, %r8d
 2510      0000
 2511 001c 488D0D00 		leaq	.LC1(%rip), %rcx
 2511      000000
 2512 0023 4889C2   		movq	%rax, %rdx
 2513 0026 488D3500 		leaq	.LC22(%rip), %rsi
 2513      000000
 2514 002d 4889DF   		movq	%rbx, %rdi
 2515 0030 E8000000 		call	_ZN8UnitTest4TestC2EPKcS2_S2_i@PLT
 2515      00
 2516 0035 488D1500 		leaq	16+_ZTV25TestHexIO_testJunkAddrMsb(%rip), %rdx
 2516      000000
 2517 003c 488B45E8 		movq	-24(%rbp), %rax
 2518 0040 488910   		movq	%rdx, (%rax)
 2519              	.LBE8:
 2520 0043 90       		nop
 2521 0044 4883C418 		addq	$24, %rsp
 2522 0048 5B       		popq	%rbx
 2523 0049 5D       		popq	%rbp
 2524              		.cfi_def_cfa 7, 8
 2525 004a C3       		ret
 2526              		.cfi_endproc
 2527              	.LFE1173:
 2529              		.weak	_ZN25TestHexIO_testJunkAddrMsbC1Ev
 2530              		.set	_ZN25TestHexIO_testJunkAddrMsbC1Ev,_ZN25TestHexIO_testJunkAddrMsbC2Ev
 2531              		.globl	testHexIO_testJunkAddrMsbInstance
 2532              		.bss
 2533 00f9 00000000 		.align 32
 2533      000000
 2536              	testHexIO_testJunkAddrMsbInstance:
 2537 0100 00000000 		.zero	56
 2537      00000000 
 2537      00000000 
 2537      00000000 
 2537      00000000 
 2538              		.globl	adderHexIO_testJunkAddrMsb
 2541              	adderHexIO_testJunkAddrMsb:
 2542 0138 00       		.zero	1
 2543              		.section	.rodata
 2544              	.LC23:
 2545 03be 3A30342E 		.string	":04..E10075820022F7\n"
 2545      2E453130 
 2545      30373538 
 2545      32303032 
 2545      3246370A 
 2546 03d3 00000000 		.align 8
 2546      00
 2547              	.LC24:
 2548 03d8 556E6861 		.string	"Unhandled exception in CHECK_EQUAL(HEX_JUNK_ADDR_MSB, status)"
 2548      6E646C65 
 2548      64206578 
 2548      63657074 
 2548      696F6E20 
 2549              		.text
 2550 1007 90       		.align 2
 2551              		.globl	_ZNK25TestHexIO_testJunkAddrMsb7RunImplEv
 2553              	_ZNK25TestHexIO_testJunkAddrMsb7RunImplEv:
 2554              	.LFB1175:
 2555              		.loc 4 95 0
 2556              		.cfi_startproc
 2557              		.cfi_personality 0x9b,DW.ref.__gxx_personality_v0
 2558              		.cfi_lsda 0x1b,.LLSDA1175
 2559 1008 55       		pushq	%rbp
 2560              		.cfi_def_cfa_offset 16
 2561              		.cfi_offset 6, -16
 2562 1009 4889E5   		movq	%rsp, %rbp
 2563              		.cfi_def_cfa_register 6
 2564 100c 53       		pushq	%rbx
 2565 100d 4881EC88 		subq	$136, %rsp
 2565      000000
 2566              		.cfi_offset 3, -24
 2567 1014 4889BD78 		movq	%rdi, -136(%rbp)
 2567      FFFFFF
 2568              		.loc 4 95 0
 2569 101b 64488B04 		movq	%fs:40, %rax
 2569      25280000 
 2569      00
 2570 1024 488945E8 		movq	%rax, -24(%rbp)
 2571 1028 31C0     		xorl	%eax, %eax
  96:testHexIO.cpp **** 	Buffer data;
  97:testHexIO.cpp **** 	BufferStatus status;
  98:testHexIO.cpp **** 	const char *line = ":04..E10075820022F7\n";
 2572              		.loc 4 98 0
 2573 102a 488D0500 		leaq	.LC23(%rip), %rax
 2573      000000
 2574 1031 48894598 		movq	%rax, -104(%rbp)
  99:testHexIO.cpp **** 	uint8 recordType;
 100:testHexIO.cpp **** 	uint32 seg = 0x00000000;
 2575              		.loc 4 100 0
 2576 1035 C7459000 		movl	$0, -112(%rbp)
 2576      000000
 101:testHexIO.cpp **** 	status = bufInitialise(&data, 1024, 0x00, NULL);
 2577              		.loc 4 101 0
 2578 103c 488D45A0 		leaq	-96(%rbp), %rax
 2579 1040 B9000000 		movl	$0, %ecx
 2579      00
 2580 1045 BA000000 		movl	$0, %edx
 2580      00
 2581 104a BE000400 		movl	$1024, %esi
 2581      00
 2582 104f 4889C7   		movq	%rax, %rdi
 2583              	.LEHB113:
 2584 1052 E8000000 		call	bufInitialise@PLT
 2584      00
 2585              	.LEHE113:
 2586 1057 89458C   		movl	%eax, -116(%rbp)
 2587              	.LEHB114:
 102:testHexIO.cpp **** 	CHECK_EQUAL(BUF_SUCCESS, status);
 2588              		.loc 4 102 0
 2589 105a E8000000 		call	_ZN8UnitTest11CurrentTest7DetailsEv@PLT
 2589      00
 2590 105f 488B08   		movq	(%rax), %rcx
 2591 1062 488D45C0 		leaq	-64(%rbp), %rax
 2592 1066 BA660000 		movl	$102, %edx
 2592      00
 2593 106b 4889CE   		movq	%rcx, %rsi
 2594 106e 4889C7   		movq	%rax, %rdi
 2595 1071 E8000000 		call	_ZN8UnitTest11TestDetailsC1ERKS0_i@PLT
 2595      00
 2596              	.LEHE114:
 2597              		.loc 4 102 0 is_stmt 0 discriminator 2
 2598 1076 C7459400 		movl	$0, -108(%rbp)
 2598      000000
 2599              	.LEHB115:
 2600 107d E8000000 		call	_ZN8UnitTest11CurrentTest7ResultsEv@PLT
 2600      00
 2601 1082 488B00   		movq	(%rax), %rax
 2602 1085 488D4DC0 		leaq	-64(%rbp), %rcx
 2603 1089 488D558C 		leaq	-116(%rbp), %rdx
 2604 108d 488D7594 		leaq	-108(%rbp), %rsi
 2605 1091 4889C7   		movq	%rax, %rdi
 2606 1094 E8000000 		call	_ZN8UnitTest10CheckEqualI12BufferStatusS1_EEvRNS_11TestResultsERKT_RKT0_RKNS_11TestDetailsE
 2606      00
 2607              	.LEHE115:
 2608              	.L165:
 103:testHexIO.cpp **** 	status = bufProcessLine(line, 0, &data, NULL, &seg, &recordType, NULL);
 2609              		.loc 4 103 0 is_stmt 1
 2610 1099 488D758B 		leaq	-117(%rbp), %rsi
 2611 109d 488D4D90 		leaq	-112(%rbp), %rcx
 2612 10a1 488D55A0 		leaq	-96(%rbp), %rdx
 2613 10a5 488B4598 		movq	-104(%rbp), %rax
 2614 10a9 4883EC08 		subq	$8, %rsp
 2615 10ad 6A00     		pushq	$0
 2616 10af 4989F1   		movq	%rsi, %r9
 2617 10b2 4989C8   		movq	%rcx, %r8
 2618 10b5 B9000000 		movl	$0, %ecx
 2618      00
 2619 10ba BE000000 		movl	$0, %esi
 2619      00
 2620 10bf 4889C7   		movq	%rax, %rdi
 2621              	.LEHB116:
 2622 10c2 E8000000 		call	bufProcessLine@PLT
 2622      00
 2623              	.LEHE116:
 2624 10c7 4883C410 		addq	$16, %rsp
 2625 10cb 89458C   		movl	%eax, -116(%rbp)
 2626              	.LEHB117:
 104:testHexIO.cpp **** 	CHECK_EQUAL(HEX_JUNK_ADDR_MSB, status);
 2627              		.loc 4 104 0
 2628 10ce E8000000 		call	_ZN8UnitTest11CurrentTest7DetailsEv@PLT
 2628      00
 2629 10d3 488B08   		movq	(%rax), %rcx
 2630 10d6 488D45C0 		leaq	-64(%rbp), %rax
 2631 10da BA680000 		movl	$104, %edx
 2631      00
 2632 10df 4889CE   		movq	%rcx, %rsi
 2633 10e2 4889C7   		movq	%rax, %rdi
 2634 10e5 E8000000 		call	_ZN8UnitTest11TestDetailsC1ERKS0_i@PLT
 2634      00
 2635              	.LEHE117:
 2636              		.loc 4 104 0 is_stmt 0 discriminator 2
 2637 10ea C745940A 		movl	$10, -108(%rbp)
 2637      000000
 2638              	.LEHB118:
 2639 10f1 E8000000 		call	_ZN8UnitTest11CurrentTest7ResultsEv@PLT
 2639      00
 2640 10f6 488B00   		movq	(%rax), %rax
 2641 10f9 488D4DC0 		leaq	-64(%rbp), %rcx
 2642 10fd 488D558C 		leaq	-116(%rbp), %rdx
 2643 1101 488D7594 		leaq	-108(%rbp), %rsi
 2644 1105 4889C7   		movq	%rax, %rdi
 2645 1108 E8000000 		call	_ZN8UnitTest10CheckEqualI12BufferStatusS1_EEvRNS_11TestResultsERKT_RKT0_RKNS_11TestDetailsE
 2645      00
 2646              	.LEHE118:
 2647              	.L169:
 105:testHexIO.cpp **** 	bufDestroy(&data);
 2648              		.loc 4 105 0 is_stmt 1
 2649 110d 488D45A0 		leaq	-96(%rbp), %rax
 2650 1111 4889C7   		movq	%rax, %rdi
 2651              	.LEHB119:
 2652 1114 E8000000 		call	bufDestroy@PLT
 2652      00
 2653              	.LEHE119:
 106:testHexIO.cpp **** }
 2654              		.loc 4 106 0
 2655 1119 90       		nop
 2656 111a 488B45E8 		movq	-24(%rbp), %rax
 2657 111e 64483304 		xorq	%fs:40, %rax
 2657      25280000 
 2657      00
 2658 1127 0F84CC00 		je	.L171
 2658      0000
 2659 112d E9C20000 		jmp	.L178
 2659      00
 2660              	.L173:
 2661 1132 EB00     		jmp	.L164
 2662              	.L172:
 2663              	.L164:
 102:testHexIO.cpp **** 	status = bufProcessLine(line, 0, &data, NULL, &seg, &recordType, NULL);
 2664              		.loc 4 102 0
 2665 1134 4889C7   		movq	%rax, %rdi
 2666 1137 E8000000 		call	__cxa_begin_catch@PLT
 2666      00
 2667              	.LEHB120:
 2668 113c E8000000 		call	_ZN8UnitTest11CurrentTest7ResultsEv@PLT
 2668      00
 2669 1141 488B18   		movq	(%rax), %rbx
 2670 1144 E8000000 		call	_ZN8UnitTest11CurrentTest7DetailsEv@PLT
 2670      00
 102:testHexIO.cpp **** 	status = bufProcessLine(line, 0, &data, NULL, &seg, &recordType, NULL);
 2671              		.loc 4 102 0 is_stmt 0 discriminator 8
 2672 1149 488B08   		movq	(%rax), %rcx
 2673 114c 488D45C0 		leaq	-64(%rbp), %rax
 2674 1150 BA660000 		movl	$102, %edx
 2674      00
 2675 1155 4889CE   		movq	%rcx, %rsi
 2676 1158 4889C7   		movq	%rax, %rdi
 2677 115b E8000000 		call	_ZN8UnitTest11TestDetailsC1ERKS0_i@PLT
 2677      00
 102:testHexIO.cpp **** 	status = bufProcessLine(line, 0, &data, NULL, &seg, &recordType, NULL);
 2678              		.loc 4 102 0 discriminator 12
 2679 1160 488D45C0 		leaq	-64(%rbp), %rax
 2680 1164 488D1500 		leaq	.LC4(%rip), %rdx
 2680      000000
 2681 116b 4889C6   		movq	%rax, %rsi
 2682 116e 4889DF   		movq	%rbx, %rdi
 2683 1171 E8000000 		call	_ZN8UnitTest11TestResults13OnTestFailureERKNS_11TestDetailsEPKc@PLT
 2683      00
 2684              	.LEHE120:
 2685              	.LEHB121:
 102:testHexIO.cpp **** 	status = bufProcessLine(line, 0, &data, NULL, &seg, &recordType, NULL);
 2686              		.loc 4 102 0 discriminator 14
 2687 1176 E8000000 		call	__cxa_end_catch@PLT
 2687      00
 2688              	.LEHE121:
 2689 117b E919FFFF 		jmp	.L165
 2689      FF
 2690              	.L174:
 2691 1180 4889C3   		movq	%rax, %rbx
 102:testHexIO.cpp **** 	status = bufProcessLine(line, 0, &data, NULL, &seg, &recordType, NULL);
 2692              		.loc 4 102 0
 2693 1183 E8000000 		call	__cxa_end_catch@PLT
 2693      00
 2694 1188 4889D8   		movq	%rbx, %rax
 2695 118b 4889C7   		movq	%rax, %rdi
 2696              	.LEHB122:
 2697 118e E8000000 		call	_Unwind_Resume@PLT
 2697      00
 2698              	.LEHE122:
 2699              	.L176:
 2700 1193 EB00     		jmp	.L168
 2701              	.L175:
 2702              	.L168:
 104:testHexIO.cpp **** 	bufDestroy(&data);
 2703              		.loc 4 104 0 is_stmt 1
 2704 1195 4889C7   		movq	%rax, %rdi
 2705 1198 E8000000 		call	__cxa_begin_catch@PLT
 2705      00
 2706              	.LEHB123:
 2707 119d E8000000 		call	_ZN8UnitTest11CurrentTest7ResultsEv@PLT
 2707      00
 2708 11a2 488B18   		movq	(%rax), %rbx
 2709 11a5 E8000000 		call	_ZN8UnitTest11CurrentTest7DetailsEv@PLT
 2709      00
 104:testHexIO.cpp **** 	bufDestroy(&data);
 2710              		.loc 4 104 0 is_stmt 0 discriminator 8
 2711 11aa 488B08   		movq	(%rax), %rcx
 2712 11ad 488D45C0 		leaq	-64(%rbp), %rax
 2713 11b1 BA680000 		movl	$104, %edx
 2713      00
 2714 11b6 4889CE   		movq	%rcx, %rsi
 2715 11b9 4889C7   		movq	%rax, %rdi
 2716 11bc E8000000 		call	_ZN8UnitTest11TestDetailsC1ERKS0_i@PLT
 2716      00
 104:testHexIO.cpp **** 	bufDestroy(&data);
 2717              		.loc 4 104 0 discriminator 12
 2718 11c1 488D45C0 		leaq	-64(%rbp), %rax
 2719 11c5 488D1500 		leaq	.LC24(%rip), %rdx
 2719      000000
 2720 11cc 4889C6   		movq	%rax, %rsi
 2721 11cf 4889DF   		movq	%rbx, %rdi
 2722 11d2 E8000000 		call	_ZN8UnitTest11TestResults13OnTestFailureERKNS_11TestDetailsEPKc@PLT
 2722      00
 2723              	.LEHE123:
 2724              	.LEHB124:
 104:testHexIO.cpp **** 	bufDestroy(&data);
 2725              		.loc 4 104 0 discriminator 14
 2726 11d7 E8000000 		call	__cxa_end_catch@PLT
 2726      00
 2727              	.LEHE124:
 2728 11dc E92CFFFF 		jmp	.L169
 2728      FF
 2729              	.L177:
 2730 11e1 4889C3   		movq	%rax, %rbx
 104:testHexIO.cpp **** 	bufDestroy(&data);
 2731              		.loc 4 104 0
 2732 11e4 E8000000 		call	__cxa_end_catch@PLT
 2732      00
 2733 11e9 4889D8   		movq	%rbx, %rax
 2734 11ec 4889C7   		movq	%rax, %rdi
 2735              	.LEHB125:
 2736 11ef E8000000 		call	_Unwind_Resume@PLT
 2736      00
 2737              	.LEHE125:
 2738              	.L178:
 2739              		.loc 4 106 0 is_stmt 1
 2740 11f4 E8000000 		call	__stack_chk_fail@PLT
 2740      00
 2741              	.L171:
 2742 11f9 488B5DF8 		movq	-8(%rbp), %rbx
 2743 11fd C9       		leave
 2744              		.cfi_def_cfa 7, 8
 2745 11fe C3       		ret
 2746              		.cfi_endproc
 2747              	.LFE1175:
 2748              		.section	.gcc_except_table
 2749              		.align 4
 2750              	.LLSDA1175:
 2751 0290 FF       		.byte	0xff
 2752 0291 9B       		.byte	0x9b
 2753 0292 51       		.uleb128 .LLSDATT1175-.LLSDATTD1175
 2754              	.LLSDATTD1175:
 2755 0293 01       		.byte	0x1
 2756 0294 44       		.uleb128 .LLSDACSE1175-.LLSDACSB1175
 2757              	.LLSDACSB1175:
 2758 0295 4A       		.uleb128 .LEHB113-.LFB1175
 2759 0296 05       		.uleb128 .LEHE113-.LEHB113
 2760 0297 00       		.uleb128 0
 2761 0298 00       		.uleb128 0
 2762 0299 52       		.uleb128 .LEHB114-.LFB1175
 2763 029a 1C       		.uleb128 .LEHE114-.LEHB114
 2764 029b AC02     		.uleb128 .L172-.LFB1175
 2765 029d 01       		.uleb128 0x1
 2766 029e 75       		.uleb128 .LEHB115-.LFB1175
 2767 029f 1C       		.uleb128 .LEHE115-.LEHB115
 2768 02a0 AA02     		.uleb128 .L173-.LFB1175
 2769 02a2 03       		.uleb128 0x3
 2770 02a3 BA01     		.uleb128 .LEHB116-.LFB1175
 2771 02a5 05       		.uleb128 .LEHE116-.LEHB116
 2772 02a6 00       		.uleb128 0
 2773 02a7 00       		.uleb128 0
 2774 02a8 C601     		.uleb128 .LEHB117-.LFB1175
 2775 02aa 1C       		.uleb128 .LEHE117-.LEHB117
 2776 02ab 8D03     		.uleb128 .L175-.LFB1175
 2777 02ad 01       		.uleb128 0x1
 2778 02ae E901     		.uleb128 .LEHB118-.LFB1175
 2779 02b0 1C       		.uleb128 .LEHE118-.LEHB118
 2780 02b1 8B03     		.uleb128 .L176-.LFB1175
 2781 02b3 03       		.uleb128 0x3
 2782 02b4 8C02     		.uleb128 .LEHB119-.LFB1175
 2783 02b6 05       		.uleb128 .LEHE119-.LEHB119
 2784 02b7 00       		.uleb128 0
 2785 02b8 00       		.uleb128 0
 2786 02b9 B402     		.uleb128 .LEHB120-.LFB1175
 2787 02bb 3A       		.uleb128 .LEHE120-.LEHB120
 2788 02bc F802     		.uleb128 .L174-.LFB1175
 2789 02be 00       		.uleb128 0
 2790 02bf EE02     		.uleb128 .LEHB121-.LFB1175
 2791 02c1 05       		.uleb128 .LEHE121-.LEHB121
 2792 02c2 00       		.uleb128 0
 2793 02c3 00       		.uleb128 0
 2794 02c4 8603     		.uleb128 .LEHB122-.LFB1175
 2795 02c6 05       		.uleb128 .LEHE122-.LEHB122
 2796 02c7 00       		.uleb128 0
 2797 02c8 00       		.uleb128 0
 2798 02c9 9503     		.uleb128 .LEHB123-.LFB1175
 2799 02cb 3A       		.uleb128 .LEHE123-.LEHB123
 2800 02cc D903     		.uleb128 .L177-.LFB1175
 2801 02ce 00       		.uleb128 0
 2802 02cf CF03     		.uleb128 .LEHB124-.LFB1175
 2803 02d1 05       		.uleb128 .LEHE124-.LEHB124
 2804 02d2 00       		.uleb128 0
 2805 02d3 00       		.uleb128 0
 2806 02d4 E703     		.uleb128 .LEHB125-.LFB1175
 2807 02d6 05       		.uleb128 .LEHE125-.LEHB125
 2808 02d7 00       		.uleb128 0
 2809 02d8 00       		.uleb128 0
 2810              	.LLSDACSE1175:
 2811 02d9 01       		.byte	0x1
 2812 02da 00       		.byte	0
 2813 02db 00       		.byte	0
 2814 02dc 7D       		.byte	0x7d
 2815 02dd 000000   		.align 4
 2816 02e0 00000000 		.long	0
 2817              	
 2818              	.LLSDATT1175:
 2819              		.text
 2821              		.section	.rodata
 2822              	.LC25:
 2823 0416 48657849 		.string	"HexIO_testJunkAddrLsb"
 2823      4F5F7465 
 2823      73744A75 
 2823      6E6B4164 
 2823      64724C73 
 2824              		.section	.text._ZN25TestHexIO_testJunkAddrLsbC2Ev,"axG",@progbits,_ZN25TestHexIO_testJunkAddrLsbC5
 2825              		.align 2
 2826              		.weak	_ZN25TestHexIO_testJunkAddrLsbC2Ev
 2828              	_ZN25TestHexIO_testJunkAddrLsbC2Ev:
 2829              	.LFB1177:
 107:testHexIO.cpp **** 
 108:testHexIO.cpp **** TEST(HexIO_testJunkAddrLsb) {
 2830              		.loc 4 108 0
 2831              		.cfi_startproc
 2832 0000 55       		pushq	%rbp
 2833              		.cfi_def_cfa_offset 16
 2834              		.cfi_offset 6, -16
 2835 0001 4889E5   		movq	%rsp, %rbp
 2836              		.cfi_def_cfa_register 6
 2837 0004 53       		pushq	%rbx
 2838 0005 4883EC18 		subq	$24, %rsp
 2839              		.cfi_offset 3, -24
 2840 0009 48897DE8 		movq	%rdi, -24(%rbp)
 2841              	.LBB9:
 2842              		.loc 4 108 0
 2843 000d 488B5DE8 		movq	-24(%rbp), %rbx
 2844 0011 E8000000 		call	_ZN13UnitTestSuite12GetSuiteNameEv
 2844      00
 2845 0016 41B86C00 		movl	$108, %r8d
 2845      0000
 2846 001c 488D0D00 		leaq	.LC1(%rip), %rcx
 2846      000000
 2847 0023 4889C2   		movq	%rax, %rdx
 2848 0026 488D3500 		leaq	.LC25(%rip), %rsi
 2848      000000
 2849 002d 4889DF   		movq	%rbx, %rdi
 2850 0030 E8000000 		call	_ZN8UnitTest4TestC2EPKcS2_S2_i@PLT
 2850      00
 2851 0035 488D1500 		leaq	16+_ZTV25TestHexIO_testJunkAddrLsb(%rip), %rdx
 2851      000000
 2852 003c 488B45E8 		movq	-24(%rbp), %rax
 2853 0040 488910   		movq	%rdx, (%rax)
 2854              	.LBE9:
 2855 0043 90       		nop
 2856 0044 4883C418 		addq	$24, %rsp
 2857 0048 5B       		popq	%rbx
 2858 0049 5D       		popq	%rbp
 2859              		.cfi_def_cfa 7, 8
 2860 004a C3       		ret
 2861              		.cfi_endproc
 2862              	.LFE1177:
 2864              		.weak	_ZN25TestHexIO_testJunkAddrLsbC1Ev
 2865              		.set	_ZN25TestHexIO_testJunkAddrLsbC1Ev,_ZN25TestHexIO_testJunkAddrLsbC2Ev
 2866              		.globl	testHexIO_testJunkAddrLsbInstance
 2867              		.bss
 2868 0139 00000000 		.align 32
 2868      000000
 2871              	testHexIO_testJunkAddrLsbInstance:
 2872 0140 00000000 		.zero	56
 2872      00000000 
 2872      00000000 
 2872      00000000 
 2872      00000000 
 2873              		.globl	adderHexIO_testJunkAddrLsb
 2876              	adderHexIO_testJunkAddrLsb:
 2877 0178 00       		.zero	1
 2878              		.section	.rodata
 2879              	.LC26:
 2880 042c 3A303430 		.string	":040B..0075820022F7\n"
 2880      422E2E30 
 2880      30373538 
 2880      32303032 
 2880      3246370A 
 2881 0441 00000000 		.align 8
 2881      000000
 2882              	.LC27:
 2883 0448 556E6861 		.string	"Unhandled exception in CHECK_EQUAL(HEX_JUNK_ADDR_LSB, status)"
 2883      6E646C65 
 2883      64206578 
 2883      63657074 
 2883      696F6E20 
 2884              		.text
 2885 11ff 90       		.align 2
 2886              		.globl	_ZNK25TestHexIO_testJunkAddrLsb7RunImplEv
 2888              	_ZNK25TestHexIO_testJunkAddrLsb7RunImplEv:
 2889              	.LFB1179:
 2890              		.loc 4 108 0
 2891              		.cfi_startproc
 2892              		.cfi_personality 0x9b,DW.ref.__gxx_personality_v0
 2893              		.cfi_lsda 0x1b,.LLSDA1179
 2894 1200 55       		pushq	%rbp
 2895              		.cfi_def_cfa_offset 16
 2896              		.cfi_offset 6, -16
 2897 1201 4889E5   		movq	%rsp, %rbp
 2898              		.cfi_def_cfa_register 6
 2899 1204 53       		pushq	%rbx
 2900 1205 4881EC88 		subq	$136, %rsp
 2900      000000
 2901              		.cfi_offset 3, -24
 2902 120c 4889BD78 		movq	%rdi, -136(%rbp)
 2902      FFFFFF
 2903              		.loc 4 108 0
 2904 1213 64488B04 		movq	%fs:40, %rax
 2904      25280000 
 2904      00
 2905 121c 488945E8 		movq	%rax, -24(%rbp)
 2906 1220 31C0     		xorl	%eax, %eax
 109:testHexIO.cpp **** 	Buffer data;
 110:testHexIO.cpp **** 	BufferStatus status;
 111:testHexIO.cpp **** 	const char *line = ":040B..0075820022F7\n";
 2907              		.loc 4 111 0
 2908 1222 488D0500 		leaq	.LC26(%rip), %rax
 2908      000000
 2909 1229 48894598 		movq	%rax, -104(%rbp)
 112:testHexIO.cpp **** 	uint8 recordType;
 113:testHexIO.cpp **** 	uint32 seg = 0x00000000;
 2910              		.loc 4 113 0
 2911 122d C7459000 		movl	$0, -112(%rbp)
 2911      000000
 114:testHexIO.cpp **** 	status = bufInitialise(&data, 1024, 0x00, NULL);
 2912              		.loc 4 114 0
 2913 1234 488D45A0 		leaq	-96(%rbp), %rax
 2914 1238 B9000000 		movl	$0, %ecx
 2914      00
 2915 123d BA000000 		movl	$0, %edx
 2915      00
 2916 1242 BE000400 		movl	$1024, %esi
 2916      00
 2917 1247 4889C7   		movq	%rax, %rdi
 2918              	.LEHB126:
 2919 124a E8000000 		call	bufInitialise@PLT
 2919      00
 2920              	.LEHE126:
 2921 124f 89458C   		movl	%eax, -116(%rbp)
 2922              	.LEHB127:
 115:testHexIO.cpp **** 	CHECK_EQUAL(BUF_SUCCESS, status);
 2923              		.loc 4 115 0
 2924 1252 E8000000 		call	_ZN8UnitTest11CurrentTest7DetailsEv@PLT
 2924      00
 2925 1257 488B08   		movq	(%rax), %rcx
 2926 125a 488D45C0 		leaq	-64(%rbp), %rax
 2927 125e BA730000 		movl	$115, %edx
 2927      00
 2928 1263 4889CE   		movq	%rcx, %rsi
 2929 1266 4889C7   		movq	%rax, %rdi
 2930 1269 E8000000 		call	_ZN8UnitTest11TestDetailsC1ERKS0_i@PLT
 2930      00
 2931              	.LEHE127:
 2932              		.loc 4 115 0 is_stmt 0 discriminator 2
 2933 126e C7459400 		movl	$0, -108(%rbp)
 2933      000000
 2934              	.LEHB128:
 2935 1275 E8000000 		call	_ZN8UnitTest11CurrentTest7ResultsEv@PLT
 2935      00
 2936 127a 488B00   		movq	(%rax), %rax
 2937 127d 488D4DC0 		leaq	-64(%rbp), %rcx
 2938 1281 488D558C 		leaq	-116(%rbp), %rdx
 2939 1285 488D7594 		leaq	-108(%rbp), %rsi
 2940 1289 4889C7   		movq	%rax, %rdi
 2941 128c E8000000 		call	_ZN8UnitTest10CheckEqualI12BufferStatusS1_EEvRNS_11TestResultsERKT_RKT0_RKNS_11TestDetailsE
 2941      00
 2942              	.LEHE128:
 2943              	.L183:
 116:testHexIO.cpp **** 	status = bufProcessLine(line, 0, &data, NULL, &seg, &recordType, NULL);
 2944              		.loc 4 116 0 is_stmt 1
 2945 1291 488D758B 		leaq	-117(%rbp), %rsi
 2946 1295 488D4D90 		leaq	-112(%rbp), %rcx
 2947 1299 488D55A0 		leaq	-96(%rbp), %rdx
 2948 129d 488B4598 		movq	-104(%rbp), %rax
 2949 12a1 4883EC08 		subq	$8, %rsp
 2950 12a5 6A00     		pushq	$0
 2951 12a7 4989F1   		movq	%rsi, %r9
 2952 12aa 4989C8   		movq	%rcx, %r8
 2953 12ad B9000000 		movl	$0, %ecx
 2953      00
 2954 12b2 BE000000 		movl	$0, %esi
 2954      00
 2955 12b7 4889C7   		movq	%rax, %rdi
 2956              	.LEHB129:
 2957 12ba E8000000 		call	bufProcessLine@PLT
 2957      00
 2958              	.LEHE129:
 2959 12bf 4883C410 		addq	$16, %rsp
 2960 12c3 89458C   		movl	%eax, -116(%rbp)
 2961              	.LEHB130:
 117:testHexIO.cpp **** 	CHECK_EQUAL(HEX_JUNK_ADDR_LSB, status);
 2962              		.loc 4 117 0
 2963 12c6 E8000000 		call	_ZN8UnitTest11CurrentTest7DetailsEv@PLT
 2963      00
 2964 12cb 488B08   		movq	(%rax), %rcx
 2965 12ce 488D45C0 		leaq	-64(%rbp), %rax
 2966 12d2 BA750000 		movl	$117, %edx
 2966      00
 2967 12d7 4889CE   		movq	%rcx, %rsi
 2968 12da 4889C7   		movq	%rax, %rdi
 2969 12dd E8000000 		call	_ZN8UnitTest11TestDetailsC1ERKS0_i@PLT
 2969      00
 2970              	.LEHE130:
 2971              		.loc 4 117 0 is_stmt 0 discriminator 2
 2972 12e2 C745940B 		movl	$11, -108(%rbp)
 2972      000000
 2973              	.LEHB131:
 2974 12e9 E8000000 		call	_ZN8UnitTest11CurrentTest7ResultsEv@PLT
 2974      00
 2975 12ee 488B00   		movq	(%rax), %rax
 2976 12f1 488D4DC0 		leaq	-64(%rbp), %rcx
 2977 12f5 488D558C 		leaq	-116(%rbp), %rdx
 2978 12f9 488D7594 		leaq	-108(%rbp), %rsi
 2979 12fd 4889C7   		movq	%rax, %rdi
 2980 1300 E8000000 		call	_ZN8UnitTest10CheckEqualI12BufferStatusS1_EEvRNS_11TestResultsERKT_RKT0_RKNS_11TestDetailsE
 2980      00
 2981              	.LEHE131:
 2982              	.L187:
 118:testHexIO.cpp **** 	bufDestroy(&data);
 2983              		.loc 4 118 0 is_stmt 1
 2984 1305 488D45A0 		leaq	-96(%rbp), %rax
 2985 1309 4889C7   		movq	%rax, %rdi
 2986              	.LEHB132:
 2987 130c E8000000 		call	bufDestroy@PLT
 2987      00
 2988              	.LEHE132:
 119:testHexIO.cpp **** }
 2989              		.loc 4 119 0
 2990 1311 90       		nop
 2991 1312 488B45E8 		movq	-24(%rbp), %rax
 2992 1316 64483304 		xorq	%fs:40, %rax
 2992      25280000 
 2992      00
 2993 131f 0F84CC00 		je	.L189
 2993      0000
 2994 1325 E9C20000 		jmp	.L196
 2994      00
 2995              	.L191:
 2996 132a EB00     		jmp	.L182
 2997              	.L190:
 2998              	.L182:
 115:testHexIO.cpp **** 	status = bufProcessLine(line, 0, &data, NULL, &seg, &recordType, NULL);
 2999              		.loc 4 115 0
 3000 132c 4889C7   		movq	%rax, %rdi
 3001 132f E8000000 		call	__cxa_begin_catch@PLT
 3001      00
 3002              	.LEHB133:
 3003 1334 E8000000 		call	_ZN8UnitTest11CurrentTest7ResultsEv@PLT
 3003      00
 3004 1339 488B18   		movq	(%rax), %rbx
 3005 133c E8000000 		call	_ZN8UnitTest11CurrentTest7DetailsEv@PLT
 3005      00
 115:testHexIO.cpp **** 	status = bufProcessLine(line, 0, &data, NULL, &seg, &recordType, NULL);
 3006              		.loc 4 115 0 is_stmt 0 discriminator 8
 3007 1341 488B08   		movq	(%rax), %rcx
 3008 1344 488D45C0 		leaq	-64(%rbp), %rax
 3009 1348 BA730000 		movl	$115, %edx
 3009      00
 3010 134d 4889CE   		movq	%rcx, %rsi
 3011 1350 4889C7   		movq	%rax, %rdi
 3012 1353 E8000000 		call	_ZN8UnitTest11TestDetailsC1ERKS0_i@PLT
 3012      00
 115:testHexIO.cpp **** 	status = bufProcessLine(line, 0, &data, NULL, &seg, &recordType, NULL);
 3013              		.loc 4 115 0 discriminator 12
 3014 1358 488D45C0 		leaq	-64(%rbp), %rax
 3015 135c 488D1500 		leaq	.LC4(%rip), %rdx
 3015      000000
 3016 1363 4889C6   		movq	%rax, %rsi
 3017 1366 4889DF   		movq	%rbx, %rdi
 3018 1369 E8000000 		call	_ZN8UnitTest11TestResults13OnTestFailureERKNS_11TestDetailsEPKc@PLT
 3018      00
 3019              	.LEHE133:
 3020              	.LEHB134:
 115:testHexIO.cpp **** 	status = bufProcessLine(line, 0, &data, NULL, &seg, &recordType, NULL);
 3021              		.loc 4 115 0 discriminator 14
 3022 136e E8000000 		call	__cxa_end_catch@PLT
 3022      00
 3023              	.LEHE134:
 3024 1373 E919FFFF 		jmp	.L183
 3024      FF
 3025              	.L192:
 3026 1378 4889C3   		movq	%rax, %rbx
 115:testHexIO.cpp **** 	status = bufProcessLine(line, 0, &data, NULL, &seg, &recordType, NULL);
 3027              		.loc 4 115 0
 3028 137b E8000000 		call	__cxa_end_catch@PLT
 3028      00
 3029 1380 4889D8   		movq	%rbx, %rax
 3030 1383 4889C7   		movq	%rax, %rdi
 3031              	.LEHB135:
 3032 1386 E8000000 		call	_Unwind_Resume@PLT
 3032      00
 3033              	.LEHE135:
 3034              	.L194:
 3035 138b EB00     		jmp	.L186
 3036              	.L193:
 3037              	.L186:
 117:testHexIO.cpp **** 	bufDestroy(&data);
 3038              		.loc 4 117 0 is_stmt 1
 3039 138d 4889C7   		movq	%rax, %rdi
 3040 1390 E8000000 		call	__cxa_begin_catch@PLT
 3040      00
 3041              	.LEHB136:
 3042 1395 E8000000 		call	_ZN8UnitTest11CurrentTest7ResultsEv@PLT
 3042      00
 3043 139a 488B18   		movq	(%rax), %rbx
 3044 139d E8000000 		call	_ZN8UnitTest11CurrentTest7DetailsEv@PLT
 3044      00
 117:testHexIO.cpp **** 	bufDestroy(&data);
 3045              		.loc 4 117 0 is_stmt 0 discriminator 8
 3046 13a2 488B08   		movq	(%rax), %rcx
 3047 13a5 488D45C0 		leaq	-64(%rbp), %rax
 3048 13a9 BA750000 		movl	$117, %edx
 3048      00
 3049 13ae 4889CE   		movq	%rcx, %rsi
 3050 13b1 4889C7   		movq	%rax, %rdi
 3051 13b4 E8000000 		call	_ZN8UnitTest11TestDetailsC1ERKS0_i@PLT
 3051      00
 117:testHexIO.cpp **** 	bufDestroy(&data);
 3052              		.loc 4 117 0 discriminator 12
 3053 13b9 488D45C0 		leaq	-64(%rbp), %rax
 3054 13bd 488D1500 		leaq	.LC27(%rip), %rdx
 3054      000000
 3055 13c4 4889C6   		movq	%rax, %rsi
 3056 13c7 4889DF   		movq	%rbx, %rdi
 3057 13ca E8000000 		call	_ZN8UnitTest11TestResults13OnTestFailureERKNS_11TestDetailsEPKc@PLT
 3057      00
 3058              	.LEHE136:
 3059              	.LEHB137:
 117:testHexIO.cpp **** 	bufDestroy(&data);
 3060              		.loc 4 117 0 discriminator 14
 3061 13cf E8000000 		call	__cxa_end_catch@PLT
 3061      00
 3062              	.LEHE137:
 3063 13d4 E92CFFFF 		jmp	.L187
 3063      FF
 3064              	.L195:
 3065 13d9 4889C3   		movq	%rax, %rbx
 117:testHexIO.cpp **** 	bufDestroy(&data);
 3066              		.loc 4 117 0
 3067 13dc E8000000 		call	__cxa_end_catch@PLT
 3067      00
 3068 13e1 4889D8   		movq	%rbx, %rax
 3069 13e4 4889C7   		movq	%rax, %rdi
 3070              	.LEHB138:
 3071 13e7 E8000000 		call	_Unwind_Resume@PLT
 3071      00
 3072              	.LEHE138:
 3073              	.L196:
 3074              		.loc 4 119 0 is_stmt 1
 3075 13ec E8000000 		call	__stack_chk_fail@PLT
 3075      00
 3076              	.L189:
 3077 13f1 488B5DF8 		movq	-8(%rbp), %rbx
 3078 13f5 C9       		leave
 3079              		.cfi_def_cfa 7, 8
 3080 13f6 C3       		ret
 3081              		.cfi_endproc
 3082              	.LFE1179:
 3083              		.section	.gcc_except_table
 3084              		.align 4
 3085              	.LLSDA1179:
 3086 02e4 FF       		.byte	0xff
 3087 02e5 9B       		.byte	0x9b
 3088 02e6 51       		.uleb128 .LLSDATT1179-.LLSDATTD1179
 3089              	.LLSDATTD1179:
 3090 02e7 01       		.byte	0x1
 3091 02e8 44       		.uleb128 .LLSDACSE1179-.LLSDACSB1179
 3092              	.LLSDACSB1179:
 3093 02e9 4A       		.uleb128 .LEHB126-.LFB1179
 3094 02ea 05       		.uleb128 .LEHE126-.LEHB126
 3095 02eb 00       		.uleb128 0
 3096 02ec 00       		.uleb128 0
 3097 02ed 52       		.uleb128 .LEHB127-.LFB1179
 3098 02ee 1C       		.uleb128 .LEHE127-.LEHB127
 3099 02ef AC02     		.uleb128 .L190-.LFB1179
 3100 02f1 01       		.uleb128 0x1
 3101 02f2 75       		.uleb128 .LEHB128-.LFB1179
 3102 02f3 1C       		.uleb128 .LEHE128-.LEHB128
 3103 02f4 AA02     		.uleb128 .L191-.LFB1179
 3104 02f6 03       		.uleb128 0x3
 3105 02f7 BA01     		.uleb128 .LEHB129-.LFB1179
 3106 02f9 05       		.uleb128 .LEHE129-.LEHB129
 3107 02fa 00       		.uleb128 0
 3108 02fb 00       		.uleb128 0
 3109 02fc C601     		.uleb128 .LEHB130-.LFB1179
 3110 02fe 1C       		.uleb128 .LEHE130-.LEHB130
 3111 02ff 8D03     		.uleb128 .L193-.LFB1179
 3112 0301 01       		.uleb128 0x1
 3113 0302 E901     		.uleb128 .LEHB131-.LFB1179
 3114 0304 1C       		.uleb128 .LEHE131-.LEHB131
 3115 0305 8B03     		.uleb128 .L194-.LFB1179
 3116 0307 03       		.uleb128 0x3
 3117 0308 8C02     		.uleb128 .LEHB132-.LFB1179
 3118 030a 05       		.uleb128 .LEHE132-.LEHB132
 3119 030b 00       		.uleb128 0
 3120 030c 00       		.uleb128 0
 3121 030d B402     		.uleb128 .LEHB133-.LFB1179
 3122 030f 3A       		.uleb128 .LEHE133-.LEHB133
 3123 0310 F802     		.uleb128 .L192-.LFB1179
 3124 0312 00       		.uleb128 0
 3125 0313 EE02     		.uleb128 .LEHB134-.LFB1179
 3126 0315 05       		.uleb128 .LEHE134-.LEHB134
 3127 0316 00       		.uleb128 0
 3128 0317 00       		.uleb128 0
 3129 0318 8603     		.uleb128 .LEHB135-.LFB1179
 3130 031a 05       		.uleb128 .LEHE135-.LEHB135
 3131 031b 00       		.uleb128 0
 3132 031c 00       		.uleb128 0
 3133 031d 9503     		.uleb128 .LEHB136-.LFB1179
 3134 031f 3A       		.uleb128 .LEHE136-.LEHB136
 3135 0320 D903     		.uleb128 .L195-.LFB1179
 3136 0322 00       		.uleb128 0
 3137 0323 CF03     		.uleb128 .LEHB137-.LFB1179
 3138 0325 05       		.uleb128 .LEHE137-.LEHB137
 3139 0326 00       		.uleb128 0
 3140 0327 00       		.uleb128 0
 3141 0328 E703     		.uleb128 .LEHB138-.LFB1179
 3142 032a 05       		.uleb128 .LEHE138-.LEHB138
 3143 032b 00       		.uleb128 0
 3144 032c 00       		.uleb128 0
 3145              	.LLSDACSE1179:
 3146 032d 01       		.byte	0x1
 3147 032e 00       		.byte	0
 3148 032f 00       		.byte	0
 3149 0330 7D       		.byte	0x7d
 3150 0331 000000   		.align 4
 3151 0334 00000000 		.long	0
 3152              	
 3153              	.LLSDATT1179:
 3154              		.text
 3156              		.section	.rodata
 3157              	.LC28:
 3158 0486 48657849 		.string	"HexIO_testJunkRecType"
 3158      4F5F7465 
 3158      73744A75 
 3158      6E6B5265 
 3158      63547970 
 3159              		.section	.text._ZN25TestHexIO_testJunkRecTypeC2Ev,"axG",@progbits,_ZN25TestHexIO_testJunkRecTypeC5
 3160              		.align 2
 3161              		.weak	_ZN25TestHexIO_testJunkRecTypeC2Ev
 3163              	_ZN25TestHexIO_testJunkRecTypeC2Ev:
 3164              	.LFB1181:
 120:testHexIO.cpp **** 
 121:testHexIO.cpp **** TEST(HexIO_testJunkRecType) {
 3165              		.loc 4 121 0
 3166              		.cfi_startproc
 3167 0000 55       		pushq	%rbp
 3168              		.cfi_def_cfa_offset 16
 3169              		.cfi_offset 6, -16
 3170 0001 4889E5   		movq	%rsp, %rbp
 3171              		.cfi_def_cfa_register 6
 3172 0004 53       		pushq	%rbx
 3173 0005 4883EC18 		subq	$24, %rsp
 3174              		.cfi_offset 3, -24
 3175 0009 48897DE8 		movq	%rdi, -24(%rbp)
 3176              	.LBB10:
 3177              		.loc 4 121 0
 3178 000d 488B5DE8 		movq	-24(%rbp), %rbx
 3179 0011 E8000000 		call	_ZN13UnitTestSuite12GetSuiteNameEv
 3179      00
 3180 0016 41B87900 		movl	$121, %r8d
 3180      0000
 3181 001c 488D0D00 		leaq	.LC1(%rip), %rcx
 3181      000000
 3182 0023 4889C2   		movq	%rax, %rdx
 3183 0026 488D3500 		leaq	.LC28(%rip), %rsi
 3183      000000
 3184 002d 4889DF   		movq	%rbx, %rdi
 3185 0030 E8000000 		call	_ZN8UnitTest4TestC2EPKcS2_S2_i@PLT
 3185      00
 3186 0035 488D1500 		leaq	16+_ZTV25TestHexIO_testJunkRecType(%rip), %rdx
 3186      000000
 3187 003c 488B45E8 		movq	-24(%rbp), %rax
 3188 0040 488910   		movq	%rdx, (%rax)
 3189              	.LBE10:
 3190 0043 90       		nop
 3191 0044 4883C418 		addq	$24, %rsp
 3192 0048 5B       		popq	%rbx
 3193 0049 5D       		popq	%rbp
 3194              		.cfi_def_cfa 7, 8
 3195 004a C3       		ret
 3196              		.cfi_endproc
 3197              	.LFE1181:
 3199              		.weak	_ZN25TestHexIO_testJunkRecTypeC1Ev
 3200              		.set	_ZN25TestHexIO_testJunkRecTypeC1Ev,_ZN25TestHexIO_testJunkRecTypeC2Ev
 3201              		.globl	testHexIO_testJunkRecTypeInstance
 3202              		.bss
 3203 0179 00000000 		.align 32
 3203      000000
 3206              	testHexIO_testJunkRecTypeInstance:
 3207 0180 00000000 		.zero	56
 3207      00000000 
 3207      00000000 
 3207      00000000 
 3207      00000000 
 3208              		.globl	adderHexIO_testJunkRecType
 3211              	adderHexIO_testJunkRecType:
 3212 01b8 00       		.zero	1
 3213              		.section	.rodata
 3214              	.LC29:
 3215 049c 3A303430 		.string	":040BE1..75820022F7\n"
 3215      4245312E 
 3215      2E373538 
 3215      32303032 
 3215      3246370A 
 3216 04b1 00000000 		.align 8
 3216      000000
 3217              	.LC30:
 3218 04b8 556E6861 		.string	"Unhandled exception in CHECK_EQUAL(HEX_JUNK_REC_TYPE, status)"
 3218      6E646C65 
 3218      64206578 
 3218      63657074 
 3218      696F6E20 
 3219              		.text
 3220 13f7 90       		.align 2
 3221              		.globl	_ZNK25TestHexIO_testJunkRecType7RunImplEv
 3223              	_ZNK25TestHexIO_testJunkRecType7RunImplEv:
 3224              	.LFB1183:
 3225              		.loc 4 121 0
 3226              		.cfi_startproc
 3227              		.cfi_personality 0x9b,DW.ref.__gxx_personality_v0
 3228              		.cfi_lsda 0x1b,.LLSDA1183
 3229 13f8 55       		pushq	%rbp
 3230              		.cfi_def_cfa_offset 16
 3231              		.cfi_offset 6, -16
 3232 13f9 4889E5   		movq	%rsp, %rbp
 3233              		.cfi_def_cfa_register 6
 3234 13fc 53       		pushq	%rbx
 3235 13fd 4881EC88 		subq	$136, %rsp
 3235      000000
 3236              		.cfi_offset 3, -24
 3237 1404 4889BD78 		movq	%rdi, -136(%rbp)
 3237      FFFFFF
 3238              		.loc 4 121 0
 3239 140b 64488B04 		movq	%fs:40, %rax
 3239      25280000 
 3239      00
 3240 1414 488945E8 		movq	%rax, -24(%rbp)
 3241 1418 31C0     		xorl	%eax, %eax
 122:testHexIO.cpp **** 	Buffer data;
 123:testHexIO.cpp **** 	BufferStatus status;
 124:testHexIO.cpp **** 	const char *line = ":040BE1..75820022F7\n";
 3242              		.loc 4 124 0
 3243 141a 488D0500 		leaq	.LC29(%rip), %rax
 3243      000000
 3244 1421 48894598 		movq	%rax, -104(%rbp)
 125:testHexIO.cpp **** 	uint8 recordType;
 126:testHexIO.cpp **** 	uint32 seg = 0x00000000;
 3245              		.loc 4 126 0
 3246 1425 C7459000 		movl	$0, -112(%rbp)
 3246      000000
 127:testHexIO.cpp **** 	status = bufInitialise(&data, 1024, 0x00, NULL);
 3247              		.loc 4 127 0
 3248 142c 488D45A0 		leaq	-96(%rbp), %rax
 3249 1430 B9000000 		movl	$0, %ecx
 3249      00
 3250 1435 BA000000 		movl	$0, %edx
 3250      00
 3251 143a BE000400 		movl	$1024, %esi
 3251      00
 3252 143f 4889C7   		movq	%rax, %rdi
 3253              	.LEHB139:
 3254 1442 E8000000 		call	bufInitialise@PLT
 3254      00
 3255              	.LEHE139:
 3256 1447 89458C   		movl	%eax, -116(%rbp)
 3257              	.LEHB140:
 128:testHexIO.cpp **** 	CHECK_EQUAL(BUF_SUCCESS, status);
 3258              		.loc 4 128 0
 3259 144a E8000000 		call	_ZN8UnitTest11CurrentTest7DetailsEv@PLT
 3259      00
 3260 144f 488B08   		movq	(%rax), %rcx
 3261 1452 488D45C0 		leaq	-64(%rbp), %rax
 3262 1456 BA800000 		movl	$128, %edx
 3262      00
 3263 145b 4889CE   		movq	%rcx, %rsi
 3264 145e 4889C7   		movq	%rax, %rdi
 3265 1461 E8000000 		call	_ZN8UnitTest11TestDetailsC1ERKS0_i@PLT
 3265      00
 3266              	.LEHE140:
 3267              		.loc 4 128 0 is_stmt 0 discriminator 2
 3268 1466 C7459400 		movl	$0, -108(%rbp)
 3268      000000
 3269              	.LEHB141:
 3270 146d E8000000 		call	_ZN8UnitTest11CurrentTest7ResultsEv@PLT
 3270      00
 3271 1472 488B00   		movq	(%rax), %rax
 3272 1475 488D4DC0 		leaq	-64(%rbp), %rcx
 3273 1479 488D558C 		leaq	-116(%rbp), %rdx
 3274 147d 488D7594 		leaq	-108(%rbp), %rsi
 3275 1481 4889C7   		movq	%rax, %rdi
 3276 1484 E8000000 		call	_ZN8UnitTest10CheckEqualI12BufferStatusS1_EEvRNS_11TestResultsERKT_RKT0_RKNS_11TestDetailsE
 3276      00
 3277              	.LEHE141:
 3278              	.L201:
 129:testHexIO.cpp **** 	status = bufProcessLine(line, 0, &data, NULL, &seg, &recordType, NULL);
 3279              		.loc 4 129 0 is_stmt 1
 3280 1489 488D758B 		leaq	-117(%rbp), %rsi
 3281 148d 488D4D90 		leaq	-112(%rbp), %rcx
 3282 1491 488D55A0 		leaq	-96(%rbp), %rdx
 3283 1495 488B4598 		movq	-104(%rbp), %rax
 3284 1499 4883EC08 		subq	$8, %rsp
 3285 149d 6A00     		pushq	$0
 3286 149f 4989F1   		movq	%rsi, %r9
 3287 14a2 4989C8   		movq	%rcx, %r8
 3288 14a5 B9000000 		movl	$0, %ecx
 3288      00
 3289 14aa BE000000 		movl	$0, %esi
 3289      00
 3290 14af 4889C7   		movq	%rax, %rdi
 3291              	.LEHB142:
 3292 14b2 E8000000 		call	bufProcessLine@PLT
 3292      00
 3293              	.LEHE142:
 3294 14b7 4883C410 		addq	$16, %rsp
 3295 14bb 89458C   		movl	%eax, -116(%rbp)
 3296              	.LEHB143:
 130:testHexIO.cpp **** 	CHECK_EQUAL(HEX_JUNK_REC_TYPE, status);
 3297              		.loc 4 130 0
 3298 14be E8000000 		call	_ZN8UnitTest11CurrentTest7DetailsEv@PLT
 3298      00
 3299 14c3 488B08   		movq	(%rax), %rcx
 3300 14c6 488D45C0 		leaq	-64(%rbp), %rax
 3301 14ca BA820000 		movl	$130, %edx
 3301      00
 3302 14cf 4889CE   		movq	%rcx, %rsi
 3303 14d2 4889C7   		movq	%rax, %rdi
 3304 14d5 E8000000 		call	_ZN8UnitTest11TestDetailsC1ERKS0_i@PLT
 3304      00
 3305              	.LEHE143:
 3306              		.loc 4 130 0 is_stmt 0 discriminator 2
 3307 14da C745940C 		movl	$12, -108(%rbp)
 3307      000000
 3308              	.LEHB144:
 3309 14e1 E8000000 		call	_ZN8UnitTest11CurrentTest7ResultsEv@PLT
 3309      00
 3310 14e6 488B00   		movq	(%rax), %rax
 3311 14e9 488D4DC0 		leaq	-64(%rbp), %rcx
 3312 14ed 488D558C 		leaq	-116(%rbp), %rdx
 3313 14f1 488D7594 		leaq	-108(%rbp), %rsi
 3314 14f5 4889C7   		movq	%rax, %rdi
 3315 14f8 E8000000 		call	_ZN8UnitTest10CheckEqualI12BufferStatusS1_EEvRNS_11TestResultsERKT_RKT0_RKNS_11TestDetailsE
 3315      00
 3316              	.LEHE144:
 3317              	.L205:
 131:testHexIO.cpp **** 	bufDestroy(&data);
 3318              		.loc 4 131 0 is_stmt 1
 3319 14fd 488D45A0 		leaq	-96(%rbp), %rax
 3320 1501 4889C7   		movq	%rax, %rdi
 3321              	.LEHB145:
 3322 1504 E8000000 		call	bufDestroy@PLT
 3322      00
 3323              	.LEHE145:
 132:testHexIO.cpp **** }
 3324              		.loc 4 132 0
 3325 1509 90       		nop
 3326 150a 488B45E8 		movq	-24(%rbp), %rax
 3327 150e 64483304 		xorq	%fs:40, %rax
 3327      25280000 
 3327      00
 3328 1517 0F84CC00 		je	.L207
 3328      0000
 3329 151d E9C20000 		jmp	.L214
 3329      00
 3330              	.L209:
 3331 1522 EB00     		jmp	.L200
 3332              	.L208:
 3333              	.L200:
 128:testHexIO.cpp **** 	status = bufProcessLine(line, 0, &data, NULL, &seg, &recordType, NULL);
 3334              		.loc 4 128 0
 3335 1524 4889C7   		movq	%rax, %rdi
 3336 1527 E8000000 		call	__cxa_begin_catch@PLT
 3336      00
 3337              	.LEHB146:
 3338 152c E8000000 		call	_ZN8UnitTest11CurrentTest7ResultsEv@PLT
 3338      00
 3339 1531 488B18   		movq	(%rax), %rbx
 3340 1534 E8000000 		call	_ZN8UnitTest11CurrentTest7DetailsEv@PLT
 3340      00
 128:testHexIO.cpp **** 	status = bufProcessLine(line, 0, &data, NULL, &seg, &recordType, NULL);
 3341              		.loc 4 128 0 is_stmt 0 discriminator 8
 3342 1539 488B08   		movq	(%rax), %rcx
 3343 153c 488D45C0 		leaq	-64(%rbp), %rax
 3344 1540 BA800000 		movl	$128, %edx
 3344      00
 3345 1545 4889CE   		movq	%rcx, %rsi
 3346 1548 4889C7   		movq	%rax, %rdi
 3347 154b E8000000 		call	_ZN8UnitTest11TestDetailsC1ERKS0_i@PLT
 3347      00
 128:testHexIO.cpp **** 	status = bufProcessLine(line, 0, &data, NULL, &seg, &recordType, NULL);
 3348              		.loc 4 128 0 discriminator 12
 3349 1550 488D45C0 		leaq	-64(%rbp), %rax
 3350 1554 488D1500 		leaq	.LC4(%rip), %rdx
 3350      000000
 3351 155b 4889C6   		movq	%rax, %rsi
 3352 155e 4889DF   		movq	%rbx, %rdi
 3353 1561 E8000000 		call	_ZN8UnitTest11TestResults13OnTestFailureERKNS_11TestDetailsEPKc@PLT
 3353      00
 3354              	.LEHE146:
 3355              	.LEHB147:
 128:testHexIO.cpp **** 	status = bufProcessLine(line, 0, &data, NULL, &seg, &recordType, NULL);
 3356              		.loc 4 128 0 discriminator 14
 3357 1566 E8000000 		call	__cxa_end_catch@PLT
 3357      00
 3358              	.LEHE147:
 3359 156b E919FFFF 		jmp	.L201
 3359      FF
 3360              	.L210:
 3361 1570 4889C3   		movq	%rax, %rbx
 128:testHexIO.cpp **** 	status = bufProcessLine(line, 0, &data, NULL, &seg, &recordType, NULL);
 3362              		.loc 4 128 0
 3363 1573 E8000000 		call	__cxa_end_catch@PLT
 3363      00
 3364 1578 4889D8   		movq	%rbx, %rax
 3365 157b 4889C7   		movq	%rax, %rdi
 3366              	.LEHB148:
 3367 157e E8000000 		call	_Unwind_Resume@PLT
 3367      00
 3368              	.LEHE148:
 3369              	.L212:
 3370 1583 EB00     		jmp	.L204
 3371              	.L211:
 3372              	.L204:
 130:testHexIO.cpp **** 	bufDestroy(&data);
 3373              		.loc 4 130 0 is_stmt 1
 3374 1585 4889C7   		movq	%rax, %rdi
 3375 1588 E8000000 		call	__cxa_begin_catch@PLT
 3375      00
 3376              	.LEHB149:
 3377 158d E8000000 		call	_ZN8UnitTest11CurrentTest7ResultsEv@PLT
 3377      00
 3378 1592 488B18   		movq	(%rax), %rbx
 3379 1595 E8000000 		call	_ZN8UnitTest11CurrentTest7DetailsEv@PLT
 3379      00
 130:testHexIO.cpp **** 	bufDestroy(&data);
 3380              		.loc 4 130 0 is_stmt 0 discriminator 8
 3381 159a 488B08   		movq	(%rax), %rcx
 3382 159d 488D45C0 		leaq	-64(%rbp), %rax
 3383 15a1 BA820000 		movl	$130, %edx
 3383      00
 3384 15a6 4889CE   		movq	%rcx, %rsi
 3385 15a9 4889C7   		movq	%rax, %rdi
 3386 15ac E8000000 		call	_ZN8UnitTest11TestDetailsC1ERKS0_i@PLT
 3386      00
 130:testHexIO.cpp **** 	bufDestroy(&data);
 3387              		.loc 4 130 0 discriminator 12
 3388 15b1 488D45C0 		leaq	-64(%rbp), %rax
 3389 15b5 488D1500 		leaq	.LC30(%rip), %rdx
 3389      000000
 3390 15bc 4889C6   		movq	%rax, %rsi
 3391 15bf 4889DF   		movq	%rbx, %rdi
 3392 15c2 E8000000 		call	_ZN8UnitTest11TestResults13OnTestFailureERKNS_11TestDetailsEPKc@PLT
 3392      00
 3393              	.LEHE149:
 3394              	.LEHB150:
 130:testHexIO.cpp **** 	bufDestroy(&data);
 3395              		.loc 4 130 0 discriminator 14
 3396 15c7 E8000000 		call	__cxa_end_catch@PLT
 3396      00
 3397              	.LEHE150:
 3398 15cc E92CFFFF 		jmp	.L205
 3398      FF
 3399              	.L213:
 3400 15d1 4889C3   		movq	%rax, %rbx
 130:testHexIO.cpp **** 	bufDestroy(&data);
 3401              		.loc 4 130 0
 3402 15d4 E8000000 		call	__cxa_end_catch@PLT
 3402      00
 3403 15d9 4889D8   		movq	%rbx, %rax
 3404 15dc 4889C7   		movq	%rax, %rdi
 3405              	.LEHB151:
 3406 15df E8000000 		call	_Unwind_Resume@PLT
 3406      00
 3407              	.LEHE151:
 3408              	.L214:
 3409              		.loc 4 132 0 is_stmt 1
 3410 15e4 E8000000 		call	__stack_chk_fail@PLT
 3410      00
 3411              	.L207:
 3412 15e9 488B5DF8 		movq	-8(%rbp), %rbx
 3413 15ed C9       		leave
 3414              		.cfi_def_cfa 7, 8
 3415 15ee C3       		ret
 3416              		.cfi_endproc
 3417              	.LFE1183:
 3418              		.section	.gcc_except_table
 3419              		.align 4
 3420              	.LLSDA1183:
 3421 0338 FF       		.byte	0xff
 3422 0339 9B       		.byte	0x9b
 3423 033a 51       		.uleb128 .LLSDATT1183-.LLSDATTD1183
 3424              	.LLSDATTD1183:
 3425 033b 01       		.byte	0x1
 3426 033c 44       		.uleb128 .LLSDACSE1183-.LLSDACSB1183
 3427              	.LLSDACSB1183:
 3428 033d 4A       		.uleb128 .LEHB139-.LFB1183
 3429 033e 05       		.uleb128 .LEHE139-.LEHB139
 3430 033f 00       		.uleb128 0
 3431 0340 00       		.uleb128 0
 3432 0341 52       		.uleb128 .LEHB140-.LFB1183
 3433 0342 1C       		.uleb128 .LEHE140-.LEHB140
 3434 0343 AC02     		.uleb128 .L208-.LFB1183
 3435 0345 01       		.uleb128 0x1
 3436 0346 75       		.uleb128 .LEHB141-.LFB1183
 3437 0347 1C       		.uleb128 .LEHE141-.LEHB141
 3438 0348 AA02     		.uleb128 .L209-.LFB1183
 3439 034a 03       		.uleb128 0x3
 3440 034b BA01     		.uleb128 .LEHB142-.LFB1183
 3441 034d 05       		.uleb128 .LEHE142-.LEHB142
 3442 034e 00       		.uleb128 0
 3443 034f 00       		.uleb128 0
 3444 0350 C601     		.uleb128 .LEHB143-.LFB1183
 3445 0352 1C       		.uleb128 .LEHE143-.LEHB143
 3446 0353 8D03     		.uleb128 .L211-.LFB1183
 3447 0355 01       		.uleb128 0x1
 3448 0356 E901     		.uleb128 .LEHB144-.LFB1183
 3449 0358 1C       		.uleb128 .LEHE144-.LEHB144
 3450 0359 8B03     		.uleb128 .L212-.LFB1183
 3451 035b 03       		.uleb128 0x3
 3452 035c 8C02     		.uleb128 .LEHB145-.LFB1183
 3453 035e 05       		.uleb128 .LEHE145-.LEHB145
 3454 035f 00       		.uleb128 0
 3455 0360 00       		.uleb128 0
 3456 0361 B402     		.uleb128 .LEHB146-.LFB1183
 3457 0363 3A       		.uleb128 .LEHE146-.LEHB146
 3458 0364 F802     		.uleb128 .L210-.LFB1183
 3459 0366 00       		.uleb128 0
 3460 0367 EE02     		.uleb128 .LEHB147-.LFB1183
 3461 0369 05       		.uleb128 .LEHE147-.LEHB147
 3462 036a 00       		.uleb128 0
 3463 036b 00       		.uleb128 0
 3464 036c 8603     		.uleb128 .LEHB148-.LFB1183
 3465 036e 05       		.uleb128 .LEHE148-.LEHB148
 3466 036f 00       		.uleb128 0
 3467 0370 00       		.uleb128 0
 3468 0371 9503     		.uleb128 .LEHB149-.LFB1183
 3469 0373 3A       		.uleb128 .LEHE149-.LEHB149
 3470 0374 D903     		.uleb128 .L213-.LFB1183
 3471 0376 00       		.uleb128 0
 3472 0377 CF03     		.uleb128 .LEHB150-.LFB1183
 3473 0379 05       		.uleb128 .LEHE150-.LEHB150
 3474 037a 00       		.uleb128 0
 3475 037b 00       		.uleb128 0
 3476 037c E703     		.uleb128 .LEHB151-.LFB1183
 3477 037e 05       		.uleb128 .LEHE151-.LEHB151
 3478 037f 00       		.uleb128 0
 3479 0380 00       		.uleb128 0
 3480              	.LLSDACSE1183:
 3481 0381 01       		.byte	0x1
 3482 0382 00       		.byte	0
 3483 0383 00       		.byte	0
 3484 0384 7D       		.byte	0x7d
 3485 0385 000000   		.align 4
 3486 0388 00000000 		.long	0
 3487              	
 3488              	.LLSDATT1183:
 3489              		.text
 3491              		.section	.rodata
 3492              	.LC31:
 3493 04f6 48657849 		.string	"HexIO_testJunkDataByte"
 3493      4F5F7465 
 3493      73744A75 
 3493      6E6B4461 
 3493      74614279 
 3494              		.section	.text._ZN26TestHexIO_testJunkDataByteC2Ev,"axG",@progbits,_ZN26TestHexIO_testJunkDataByte
 3495              		.align 2
 3496              		.weak	_ZN26TestHexIO_testJunkDataByteC2Ev
 3498              	_ZN26TestHexIO_testJunkDataByteC2Ev:
 3499              	.LFB1185:
 133:testHexIO.cpp **** 
 134:testHexIO.cpp **** TEST(HexIO_testJunkDataByte) {
 3500              		.loc 4 134 0
 3501              		.cfi_startproc
 3502 0000 55       		pushq	%rbp
 3503              		.cfi_def_cfa_offset 16
 3504              		.cfi_offset 6, -16
 3505 0001 4889E5   		movq	%rsp, %rbp
 3506              		.cfi_def_cfa_register 6
 3507 0004 53       		pushq	%rbx
 3508 0005 4883EC18 		subq	$24, %rsp
 3509              		.cfi_offset 3, -24
 3510 0009 48897DE8 		movq	%rdi, -24(%rbp)
 3511              	.LBB11:
 3512              		.loc 4 134 0
 3513 000d 488B5DE8 		movq	-24(%rbp), %rbx
 3514 0011 E8000000 		call	_ZN13UnitTestSuite12GetSuiteNameEv
 3514      00
 3515 0016 41B88600 		movl	$134, %r8d
 3515      0000
 3516 001c 488D0D00 		leaq	.LC1(%rip), %rcx
 3516      000000
 3517 0023 4889C2   		movq	%rax, %rdx
 3518 0026 488D3500 		leaq	.LC31(%rip), %rsi
 3518      000000
 3519 002d 4889DF   		movq	%rbx, %rdi
 3520 0030 E8000000 		call	_ZN8UnitTest4TestC2EPKcS2_S2_i@PLT
 3520      00
 3521 0035 488D1500 		leaq	16+_ZTV26TestHexIO_testJunkDataByte(%rip), %rdx
 3521      000000
 3522 003c 488B45E8 		movq	-24(%rbp), %rax
 3523 0040 488910   		movq	%rdx, (%rax)
 3524              	.LBE11:
 3525 0043 90       		nop
 3526 0044 4883C418 		addq	$24, %rsp
 3527 0048 5B       		popq	%rbx
 3528 0049 5D       		popq	%rbp
 3529              		.cfi_def_cfa 7, 8
 3530 004a C3       		ret
 3531              		.cfi_endproc
 3532              	.LFE1185:
 3534              		.weak	_ZN26TestHexIO_testJunkDataByteC1Ev
 3535              		.set	_ZN26TestHexIO_testJunkDataByteC1Ev,_ZN26TestHexIO_testJunkDataByteC2Ev
 3536              		.globl	testHexIO_testJunkDataByteInstance
 3537              		.bss
 3538 01b9 00000000 		.align 32
 3538      000000
 3541              	testHexIO_testJunkDataByteInstance:
 3542 01c0 00000000 		.zero	56
 3542      00000000 
 3542      00000000 
 3542      00000000 
 3542      00000000 
 3543              		.globl	adderHexIO_testJunkDataByte
 3546              	adderHexIO_testJunkDataByte:
 3547 01f8 00       		.zero	1
 3548              		.section	.rodata
 3549              	.LC32:
 3550 050d 3A303430 		.string	":040BE100..820022F7\n"
 3550      42453130 
 3550      302E2E38 
 3550      32303032 
 3550      3246370A 
 3551 0522 00000000 		.align 8
 3551      0000
 3552              	.LC33:
 3553 0528 556E6861 		.string	"Unhandled exception in CHECK_EQUAL(HEX_JUNK_DATA_BYTE, status)"
 3553      6E646C65 
 3553      64206578 
 3553      63657074 
 3553      696F6E20 
 3554              		.text
 3555 15ef 90       		.align 2
 3556              		.globl	_ZNK26TestHexIO_testJunkDataByte7RunImplEv
 3558              	_ZNK26TestHexIO_testJunkDataByte7RunImplEv:
 3559              	.LFB1187:
 3560              		.loc 4 134 0
 3561              		.cfi_startproc
 3562              		.cfi_personality 0x9b,DW.ref.__gxx_personality_v0
 3563              		.cfi_lsda 0x1b,.LLSDA1187
 3564 15f0 55       		pushq	%rbp
 3565              		.cfi_def_cfa_offset 16
 3566              		.cfi_offset 6, -16
 3567 15f1 4889E5   		movq	%rsp, %rbp
 3568              		.cfi_def_cfa_register 6
 3569 15f4 53       		pushq	%rbx
 3570 15f5 4881EC88 		subq	$136, %rsp
 3570      000000
 3571              		.cfi_offset 3, -24
 3572 15fc 4889BD78 		movq	%rdi, -136(%rbp)
 3572      FFFFFF
 3573              		.loc 4 134 0
 3574 1603 64488B04 		movq	%fs:40, %rax
 3574      25280000 
 3574      00
 3575 160c 488945E8 		movq	%rax, -24(%rbp)
 3576 1610 31C0     		xorl	%eax, %eax
 135:testHexIO.cpp **** 	Buffer data;
 136:testHexIO.cpp **** 	BufferStatus status;
 137:testHexIO.cpp **** 	const char *line = ":040BE100..820022F7\n";
 3577              		.loc 4 137 0
 3578 1612 488D0500 		leaq	.LC32(%rip), %rax
 3578      000000
 3579 1619 48894598 		movq	%rax, -104(%rbp)
 138:testHexIO.cpp **** 	uint8 recordType;
 139:testHexIO.cpp **** 	uint32 seg = 0x00000000;
 3580              		.loc 4 139 0
 3581 161d C7459000 		movl	$0, -112(%rbp)
 3581      000000
 140:testHexIO.cpp **** 	status = bufInitialise(&data, 1024, 0x00, NULL);
 3582              		.loc 4 140 0
 3583 1624 488D45A0 		leaq	-96(%rbp), %rax
 3584 1628 B9000000 		movl	$0, %ecx
 3584      00
 3585 162d BA000000 		movl	$0, %edx
 3585      00
 3586 1632 BE000400 		movl	$1024, %esi
 3586      00
 3587 1637 4889C7   		movq	%rax, %rdi
 3588              	.LEHB152:
 3589 163a E8000000 		call	bufInitialise@PLT
 3589      00
 3590              	.LEHE152:
 3591 163f 89458C   		movl	%eax, -116(%rbp)
 3592              	.LEHB153:
 141:testHexIO.cpp **** 	CHECK_EQUAL(BUF_SUCCESS, status);
 3593              		.loc 4 141 0
 3594 1642 E8000000 		call	_ZN8UnitTest11CurrentTest7DetailsEv@PLT
 3594      00
 3595 1647 488B08   		movq	(%rax), %rcx
 3596 164a 488D45C0 		leaq	-64(%rbp), %rax
 3597 164e BA8D0000 		movl	$141, %edx
 3597      00
 3598 1653 4889CE   		movq	%rcx, %rsi
 3599 1656 4889C7   		movq	%rax, %rdi
 3600 1659 E8000000 		call	_ZN8UnitTest11TestDetailsC1ERKS0_i@PLT
 3600      00
 3601              	.LEHE153:
 3602              		.loc 4 141 0 is_stmt 0 discriminator 2
 3603 165e C7459400 		movl	$0, -108(%rbp)
 3603      000000
 3604              	.LEHB154:
 3605 1665 E8000000 		call	_ZN8UnitTest11CurrentTest7ResultsEv@PLT
 3605      00
 3606 166a 488B00   		movq	(%rax), %rax
 3607 166d 488D4DC0 		leaq	-64(%rbp), %rcx
 3608 1671 488D558C 		leaq	-116(%rbp), %rdx
 3609 1675 488D7594 		leaq	-108(%rbp), %rsi
 3610 1679 4889C7   		movq	%rax, %rdi
 3611 167c E8000000 		call	_ZN8UnitTest10CheckEqualI12BufferStatusS1_EEvRNS_11TestResultsERKT_RKT0_RKNS_11TestDetailsE
 3611      00
 3612              	.LEHE154:
 3613              	.L219:
 142:testHexIO.cpp **** 	status = bufProcessLine(line, 0, &data, NULL, &seg, &recordType, NULL);
 3614              		.loc 4 142 0 is_stmt 1
 3615 1681 488D758B 		leaq	-117(%rbp), %rsi
 3616 1685 488D4D90 		leaq	-112(%rbp), %rcx
 3617 1689 488D55A0 		leaq	-96(%rbp), %rdx
 3618 168d 488B4598 		movq	-104(%rbp), %rax
 3619 1691 4883EC08 		subq	$8, %rsp
 3620 1695 6A00     		pushq	$0
 3621 1697 4989F1   		movq	%rsi, %r9
 3622 169a 4989C8   		movq	%rcx, %r8
 3623 169d B9000000 		movl	$0, %ecx
 3623      00
 3624 16a2 BE000000 		movl	$0, %esi
 3624      00
 3625 16a7 4889C7   		movq	%rax, %rdi
 3626              	.LEHB155:
 3627 16aa E8000000 		call	bufProcessLine@PLT
 3627      00
 3628              	.LEHE155:
 3629 16af 4883C410 		addq	$16, %rsp
 3630 16b3 89458C   		movl	%eax, -116(%rbp)
 3631              	.LEHB156:
 143:testHexIO.cpp **** 	CHECK_EQUAL(HEX_JUNK_DATA_BYTE, status);
 3632              		.loc 4 143 0
 3633 16b6 E8000000 		call	_ZN8UnitTest11CurrentTest7DetailsEv@PLT
 3633      00
 3634 16bb 488B08   		movq	(%rax), %rcx
 3635 16be 488D45C0 		leaq	-64(%rbp), %rax
 3636 16c2 BA8F0000 		movl	$143, %edx
 3636      00
 3637 16c7 4889CE   		movq	%rcx, %rsi
 3638 16ca 4889C7   		movq	%rax, %rdi
 3639 16cd E8000000 		call	_ZN8UnitTest11TestDetailsC1ERKS0_i@PLT
 3639      00
 3640              	.LEHE156:
 3641              		.loc 4 143 0 is_stmt 0 discriminator 2
 3642 16d2 C745940E 		movl	$14, -108(%rbp)
 3642      000000
 3643              	.LEHB157:
 3644 16d9 E8000000 		call	_ZN8UnitTest11CurrentTest7ResultsEv@PLT
 3644      00
 3645 16de 488B00   		movq	(%rax), %rax
 3646 16e1 488D4DC0 		leaq	-64(%rbp), %rcx
 3647 16e5 488D558C 		leaq	-116(%rbp), %rdx
 3648 16e9 488D7594 		leaq	-108(%rbp), %rsi
 3649 16ed 4889C7   		movq	%rax, %rdi
 3650 16f0 E8000000 		call	_ZN8UnitTest10CheckEqualI12BufferStatusS1_EEvRNS_11TestResultsERKT_RKT0_RKNS_11TestDetailsE
 3650      00
 3651              	.LEHE157:
 3652              	.L223:
 144:testHexIO.cpp **** 	bufDestroy(&data);
 3653              		.loc 4 144 0 is_stmt 1
 3654 16f5 488D45A0 		leaq	-96(%rbp), %rax
 3655 16f9 4889C7   		movq	%rax, %rdi
 3656              	.LEHB158:
 3657 16fc E8000000 		call	bufDestroy@PLT
 3657      00
 3658              	.LEHE158:
 145:testHexIO.cpp **** }
 3659              		.loc 4 145 0
 3660 1701 90       		nop
 3661 1702 488B45E8 		movq	-24(%rbp), %rax
 3662 1706 64483304 		xorq	%fs:40, %rax
 3662      25280000 
 3662      00
 3663 170f 0F84CC00 		je	.L225
 3663      0000
 3664 1715 E9C20000 		jmp	.L232
 3664      00
 3665              	.L227:
 3666 171a EB00     		jmp	.L218
 3667              	.L226:
 3668              	.L218:
 141:testHexIO.cpp **** 	status = bufProcessLine(line, 0, &data, NULL, &seg, &recordType, NULL);
 3669              		.loc 4 141 0
 3670 171c 4889C7   		movq	%rax, %rdi
 3671 171f E8000000 		call	__cxa_begin_catch@PLT
 3671      00
 3672              	.LEHB159:
 3673 1724 E8000000 		call	_ZN8UnitTest11CurrentTest7ResultsEv@PLT
 3673      00
 3674 1729 488B18   		movq	(%rax), %rbx
 3675 172c E8000000 		call	_ZN8UnitTest11CurrentTest7DetailsEv@PLT
 3675      00
 141:testHexIO.cpp **** 	status = bufProcessLine(line, 0, &data, NULL, &seg, &recordType, NULL);
 3676              		.loc 4 141 0 is_stmt 0 discriminator 8
 3677 1731 488B08   		movq	(%rax), %rcx
 3678 1734 488D45C0 		leaq	-64(%rbp), %rax
 3679 1738 BA8D0000 		movl	$141, %edx
 3679      00
 3680 173d 4889CE   		movq	%rcx, %rsi
 3681 1740 4889C7   		movq	%rax, %rdi
 3682 1743 E8000000 		call	_ZN8UnitTest11TestDetailsC1ERKS0_i@PLT
 3682      00
 141:testHexIO.cpp **** 	status = bufProcessLine(line, 0, &data, NULL, &seg, &recordType, NULL);
 3683              		.loc 4 141 0 discriminator 12
 3684 1748 488D45C0 		leaq	-64(%rbp), %rax
 3685 174c 488D1500 		leaq	.LC4(%rip), %rdx
 3685      000000
 3686 1753 4889C6   		movq	%rax, %rsi
 3687 1756 4889DF   		movq	%rbx, %rdi
 3688 1759 E8000000 		call	_ZN8UnitTest11TestResults13OnTestFailureERKNS_11TestDetailsEPKc@PLT
 3688      00
 3689              	.LEHE159:
 3690              	.LEHB160:
 141:testHexIO.cpp **** 	status = bufProcessLine(line, 0, &data, NULL, &seg, &recordType, NULL);
 3691              		.loc 4 141 0 discriminator 14
 3692 175e E8000000 		call	__cxa_end_catch@PLT
 3692      00
 3693              	.LEHE160:
 3694 1763 E919FFFF 		jmp	.L219
 3694      FF
 3695              	.L228:
 3696 1768 4889C3   		movq	%rax, %rbx
 141:testHexIO.cpp **** 	status = bufProcessLine(line, 0, &data, NULL, &seg, &recordType, NULL);
 3697              		.loc 4 141 0
 3698 176b E8000000 		call	__cxa_end_catch@PLT
 3698      00
 3699 1770 4889D8   		movq	%rbx, %rax
 3700 1773 4889C7   		movq	%rax, %rdi
 3701              	.LEHB161:
 3702 1776 E8000000 		call	_Unwind_Resume@PLT
 3702      00
 3703              	.LEHE161:
 3704              	.L230:
 3705 177b EB00     		jmp	.L222
 3706              	.L229:
 3707              	.L222:
 143:testHexIO.cpp **** 	bufDestroy(&data);
 3708              		.loc 4 143 0 is_stmt 1
 3709 177d 4889C7   		movq	%rax, %rdi
 3710 1780 E8000000 		call	__cxa_begin_catch@PLT
 3710      00
 3711              	.LEHB162:
 3712 1785 E8000000 		call	_ZN8UnitTest11CurrentTest7ResultsEv@PLT
 3712      00
 3713 178a 488B18   		movq	(%rax), %rbx
 3714 178d E8000000 		call	_ZN8UnitTest11CurrentTest7DetailsEv@PLT
 3714      00
 143:testHexIO.cpp **** 	bufDestroy(&data);
 3715              		.loc 4 143 0 is_stmt 0 discriminator 8
 3716 1792 488B08   		movq	(%rax), %rcx
 3717 1795 488D45C0 		leaq	-64(%rbp), %rax
 3718 1799 BA8F0000 		movl	$143, %edx
 3718      00
 3719 179e 4889CE   		movq	%rcx, %rsi
 3720 17a1 4889C7   		movq	%rax, %rdi
 3721 17a4 E8000000 		call	_ZN8UnitTest11TestDetailsC1ERKS0_i@PLT
 3721      00
 143:testHexIO.cpp **** 	bufDestroy(&data);
 3722              		.loc 4 143 0 discriminator 12
 3723 17a9 488D45C0 		leaq	-64(%rbp), %rax
 3724 17ad 488D1500 		leaq	.LC33(%rip), %rdx
 3724      000000
 3725 17b4 4889C6   		movq	%rax, %rsi
 3726 17b7 4889DF   		movq	%rbx, %rdi
 3727 17ba E8000000 		call	_ZN8UnitTest11TestResults13OnTestFailureERKNS_11TestDetailsEPKc@PLT
 3727      00
 3728              	.LEHE162:
 3729              	.LEHB163:
 143:testHexIO.cpp **** 	bufDestroy(&data);
 3730              		.loc 4 143 0 discriminator 14
 3731 17bf E8000000 		call	__cxa_end_catch@PLT
 3731      00
 3732              	.LEHE163:
 3733 17c4 E92CFFFF 		jmp	.L223
 3733      FF
 3734              	.L231:
 3735 17c9 4889C3   		movq	%rax, %rbx
 143:testHexIO.cpp **** 	bufDestroy(&data);
 3736              		.loc 4 143 0
 3737 17cc E8000000 		call	__cxa_end_catch@PLT
 3737      00
 3738 17d1 4889D8   		movq	%rbx, %rax
 3739 17d4 4889C7   		movq	%rax, %rdi
 3740              	.LEHB164:
 3741 17d7 E8000000 		call	_Unwind_Resume@PLT
 3741      00
 3742              	.LEHE164:
 3743              	.L232:
 3744              		.loc 4 145 0 is_stmt 1
 3745 17dc E8000000 		call	__stack_chk_fail@PLT
 3745      00
 3746              	.L225:
 3747 17e1 488B5DF8 		movq	-8(%rbp), %rbx
 3748 17e5 C9       		leave
 3749              		.cfi_def_cfa 7, 8
 3750 17e6 C3       		ret
 3751              		.cfi_endproc
 3752              	.LFE1187:
 3753              		.section	.gcc_except_table
 3754              		.align 4
 3755              	.LLSDA1187:
 3756 038c FF       		.byte	0xff
 3757 038d 9B       		.byte	0x9b
 3758 038e 51       		.uleb128 .LLSDATT1187-.LLSDATTD1187
 3759              	.LLSDATTD1187:
 3760 038f 01       		.byte	0x1
 3761 0390 44       		.uleb128 .LLSDACSE1187-.LLSDACSB1187
 3762              	.LLSDACSB1187:
 3763 0391 4A       		.uleb128 .LEHB152-.LFB1187
 3764 0392 05       		.uleb128 .LEHE152-.LEHB152
 3765 0393 00       		.uleb128 0
 3766 0394 00       		.uleb128 0
 3767 0395 52       		.uleb128 .LEHB153-.LFB1187
 3768 0396 1C       		.uleb128 .LEHE153-.LEHB153
 3769 0397 AC02     		.uleb128 .L226-.LFB1187
 3770 0399 01       		.uleb128 0x1
 3771 039a 75       		.uleb128 .LEHB154-.LFB1187
 3772 039b 1C       		.uleb128 .LEHE154-.LEHB154
 3773 039c AA02     		.uleb128 .L227-.LFB1187
 3774 039e 03       		.uleb128 0x3
 3775 039f BA01     		.uleb128 .LEHB155-.LFB1187
 3776 03a1 05       		.uleb128 .LEHE155-.LEHB155
 3777 03a2 00       		.uleb128 0
 3778 03a3 00       		.uleb128 0
 3779 03a4 C601     		.uleb128 .LEHB156-.LFB1187
 3780 03a6 1C       		.uleb128 .LEHE156-.LEHB156
 3781 03a7 8D03     		.uleb128 .L229-.LFB1187
 3782 03a9 01       		.uleb128 0x1
 3783 03aa E901     		.uleb128 .LEHB157-.LFB1187
 3784 03ac 1C       		.uleb128 .LEHE157-.LEHB157
 3785 03ad 8B03     		.uleb128 .L230-.LFB1187
 3786 03af 03       		.uleb128 0x3
 3787 03b0 8C02     		.uleb128 .LEHB158-.LFB1187
 3788 03b2 05       		.uleb128 .LEHE158-.LEHB158
 3789 03b3 00       		.uleb128 0
 3790 03b4 00       		.uleb128 0
 3791 03b5 B402     		.uleb128 .LEHB159-.LFB1187
 3792 03b7 3A       		.uleb128 .LEHE159-.LEHB159
 3793 03b8 F802     		.uleb128 .L228-.LFB1187
 3794 03ba 00       		.uleb128 0
 3795 03bb EE02     		.uleb128 .LEHB160-.LFB1187
 3796 03bd 05       		.uleb128 .LEHE160-.LEHB160
 3797 03be 00       		.uleb128 0
 3798 03bf 00       		.uleb128 0
 3799 03c0 8603     		.uleb128 .LEHB161-.LFB1187
 3800 03c2 05       		.uleb128 .LEHE161-.LEHB161
 3801 03c3 00       		.uleb128 0
 3802 03c4 00       		.uleb128 0
 3803 03c5 9503     		.uleb128 .LEHB162-.LFB1187
 3804 03c7 3A       		.uleb128 .LEHE162-.LEHB162
 3805 03c8 D903     		.uleb128 .L231-.LFB1187
 3806 03ca 00       		.uleb128 0
 3807 03cb CF03     		.uleb128 .LEHB163-.LFB1187
 3808 03cd 05       		.uleb128 .LEHE163-.LEHB163
 3809 03ce 00       		.uleb128 0
 3810 03cf 00       		.uleb128 0
 3811 03d0 E703     		.uleb128 .LEHB164-.LFB1187
 3812 03d2 05       		.uleb128 .LEHE164-.LEHB164
 3813 03d3 00       		.uleb128 0
 3814 03d4 00       		.uleb128 0
 3815              	.LLSDACSE1187:
 3816 03d5 01       		.byte	0x1
 3817 03d6 00       		.byte	0
 3818 03d7 00       		.byte	0
 3819 03d8 7D       		.byte	0x7d
 3820 03d9 000000   		.align 4
 3821 03dc 00000000 		.long	0
 3822              	
 3823              	.LLSDATT1187:
 3824              		.text
 3826              		.section	.rodata
 3827              	.LC34:
 3828 0567 48657849 		.string	"HexIO_testJunkChecksum"
 3828      4F5F7465 
 3828      73744A75 
 3828      6E6B4368 
 3828      65636B73 
 3829              		.section	.text._ZN26TestHexIO_testJunkChecksumC2Ev,"axG",@progbits,_ZN26TestHexIO_testJunkChecksum
 3830              		.align 2
 3831              		.weak	_ZN26TestHexIO_testJunkChecksumC2Ev
 3833              	_ZN26TestHexIO_testJunkChecksumC2Ev:
 3834              	.LFB1189:
 146:testHexIO.cpp **** 
 147:testHexIO.cpp **** TEST(HexIO_testJunkChecksum) {
 3835              		.loc 4 147 0
 3836              		.cfi_startproc
 3837 0000 55       		pushq	%rbp
 3838              		.cfi_def_cfa_offset 16
 3839              		.cfi_offset 6, -16
 3840 0001 4889E5   		movq	%rsp, %rbp
 3841              		.cfi_def_cfa_register 6
 3842 0004 53       		pushq	%rbx
 3843 0005 4883EC18 		subq	$24, %rsp
 3844              		.cfi_offset 3, -24
 3845 0009 48897DE8 		movq	%rdi, -24(%rbp)
 3846              	.LBB12:
 3847              		.loc 4 147 0
 3848 000d 488B5DE8 		movq	-24(%rbp), %rbx
 3849 0011 E8000000 		call	_ZN13UnitTestSuite12GetSuiteNameEv
 3849      00
 3850 0016 41B89300 		movl	$147, %r8d
 3850      0000
 3851 001c 488D0D00 		leaq	.LC1(%rip), %rcx
 3851      000000
 3852 0023 4889C2   		movq	%rax, %rdx
 3853 0026 488D3500 		leaq	.LC34(%rip), %rsi
 3853      000000
 3854 002d 4889DF   		movq	%rbx, %rdi
 3855 0030 E8000000 		call	_ZN8UnitTest4TestC2EPKcS2_S2_i@PLT
 3855      00
 3856 0035 488D1500 		leaq	16+_ZTV26TestHexIO_testJunkChecksum(%rip), %rdx
 3856      000000
 3857 003c 488B45E8 		movq	-24(%rbp), %rax
 3858 0040 488910   		movq	%rdx, (%rax)
 3859              	.LBE12:
 3860 0043 90       		nop
 3861 0044 4883C418 		addq	$24, %rsp
 3862 0048 5B       		popq	%rbx
 3863 0049 5D       		popq	%rbp
 3864              		.cfi_def_cfa 7, 8
 3865 004a C3       		ret
 3866              		.cfi_endproc
 3867              	.LFE1189:
 3869              		.weak	_ZN26TestHexIO_testJunkChecksumC1Ev
 3870              		.set	_ZN26TestHexIO_testJunkChecksumC1Ev,_ZN26TestHexIO_testJunkChecksumC2Ev
 3871              		.globl	testHexIO_testJunkChecksumInstance
 3872              		.bss
 3873 01f9 00000000 		.align 32
 3873      000000
 3876              	testHexIO_testJunkChecksumInstance:
 3877 0200 00000000 		.zero	56
 3877      00000000 
 3877      00000000 
 3877      00000000 
 3877      00000000 
 3878              		.globl	adderHexIO_testJunkChecksum
 3881              	adderHexIO_testJunkChecksum:
 3882 0238 00       		.zero	1
 3883              		.section	.rodata
 3884              	.LC35:
 3885 057e 3A303430 		.string	":040BE10075820022..\n"
 3885      42453130 
 3885      30373538 
 3885      32303032 
 3885      322E2E0A 
 3886 0593 00000000 		.align 8
 3886      00
 3887              	.LC36:
 3888 0598 556E6861 		.string	"Unhandled exception in CHECK_EQUAL(HEX_JUNK_CHECKSUM, status)"
 3888      6E646C65 
 3888      64206578 
 3888      63657074 
 3888      696F6E20 
 3889              		.text
 3890 17e7 90       		.align 2
 3891              		.globl	_ZNK26TestHexIO_testJunkChecksum7RunImplEv
 3893              	_ZNK26TestHexIO_testJunkChecksum7RunImplEv:
 3894              	.LFB1191:
 3895              		.loc 4 147 0
 3896              		.cfi_startproc
 3897              		.cfi_personality 0x9b,DW.ref.__gxx_personality_v0
 3898              		.cfi_lsda 0x1b,.LLSDA1191
 3899 17e8 55       		pushq	%rbp
 3900              		.cfi_def_cfa_offset 16
 3901              		.cfi_offset 6, -16
 3902 17e9 4889E5   		movq	%rsp, %rbp
 3903              		.cfi_def_cfa_register 6
 3904 17ec 53       		pushq	%rbx
 3905 17ed 4881EC88 		subq	$136, %rsp
 3905      000000
 3906              		.cfi_offset 3, -24
 3907 17f4 4889BD78 		movq	%rdi, -136(%rbp)
 3907      FFFFFF
 3908              		.loc 4 147 0
 3909 17fb 64488B04 		movq	%fs:40, %rax
 3909      25280000 
 3909      00
 3910 1804 488945E8 		movq	%rax, -24(%rbp)
 3911 1808 31C0     		xorl	%eax, %eax
 148:testHexIO.cpp **** 	Buffer data;
 149:testHexIO.cpp **** 	BufferStatus status;
 150:testHexIO.cpp **** 	const char *line = ":040BE10075820022..\n";
 3912              		.loc 4 150 0
 3913 180a 488D0500 		leaq	.LC35(%rip), %rax
 3913      000000
 3914 1811 48894598 		movq	%rax, -104(%rbp)
 151:testHexIO.cpp **** 	uint8 recordType;
 152:testHexIO.cpp **** 	uint32 seg = 0x00000000;
 3915              		.loc 4 152 0
 3916 1815 C7459000 		movl	$0, -112(%rbp)
 3916      000000
 153:testHexIO.cpp **** 	status = bufInitialise(&data, 1024, 0x00, NULL);
 3917              		.loc 4 153 0
 3918 181c 488D45A0 		leaq	-96(%rbp), %rax
 3919 1820 B9000000 		movl	$0, %ecx
 3919      00
 3920 1825 BA000000 		movl	$0, %edx
 3920      00
 3921 182a BE000400 		movl	$1024, %esi
 3921      00
 3922 182f 4889C7   		movq	%rax, %rdi
 3923              	.LEHB165:
 3924 1832 E8000000 		call	bufInitialise@PLT
 3924      00
 3925              	.LEHE165:
 3926 1837 89458C   		movl	%eax, -116(%rbp)
 3927              	.LEHB166:
 154:testHexIO.cpp **** 	CHECK_EQUAL(BUF_SUCCESS, status);
 3928              		.loc 4 154 0
 3929 183a E8000000 		call	_ZN8UnitTest11CurrentTest7DetailsEv@PLT
 3929      00
 3930 183f 488B08   		movq	(%rax), %rcx
 3931 1842 488D45C0 		leaq	-64(%rbp), %rax
 3932 1846 BA9A0000 		movl	$154, %edx
 3932      00
 3933 184b 4889CE   		movq	%rcx, %rsi
 3934 184e 4889C7   		movq	%rax, %rdi
 3935 1851 E8000000 		call	_ZN8UnitTest11TestDetailsC1ERKS0_i@PLT
 3935      00
 3936              	.LEHE166:
 3937              		.loc 4 154 0 is_stmt 0 discriminator 2
 3938 1856 C7459400 		movl	$0, -108(%rbp)
 3938      000000
 3939              	.LEHB167:
 3940 185d E8000000 		call	_ZN8UnitTest11CurrentTest7ResultsEv@PLT
 3940      00
 3941 1862 488B00   		movq	(%rax), %rax
 3942 1865 488D4DC0 		leaq	-64(%rbp), %rcx
 3943 1869 488D558C 		leaq	-116(%rbp), %rdx
 3944 186d 488D7594 		leaq	-108(%rbp), %rsi
 3945 1871 4889C7   		movq	%rax, %rdi
 3946 1874 E8000000 		call	_ZN8UnitTest10CheckEqualI12BufferStatusS1_EEvRNS_11TestResultsERKT_RKT0_RKNS_11TestDetailsE
 3946      00
 3947              	.LEHE167:
 3948              	.L237:
 155:testHexIO.cpp **** 	status = bufProcessLine(line, 0, &data, NULL, &seg, &recordType, NULL);
 3949              		.loc 4 155 0 is_stmt 1
 3950 1879 488D758B 		leaq	-117(%rbp), %rsi
 3951 187d 488D4D90 		leaq	-112(%rbp), %rcx
 3952 1881 488D55A0 		leaq	-96(%rbp), %rdx
 3953 1885 488B4598 		movq	-104(%rbp), %rax
 3954 1889 4883EC08 		subq	$8, %rsp
 3955 188d 6A00     		pushq	$0
 3956 188f 4989F1   		movq	%rsi, %r9
 3957 1892 4989C8   		movq	%rcx, %r8
 3958 1895 B9000000 		movl	$0, %ecx
 3958      00
 3959 189a BE000000 		movl	$0, %esi
 3959      00
 3960 189f 4889C7   		movq	%rax, %rdi
 3961              	.LEHB168:
 3962 18a2 E8000000 		call	bufProcessLine@PLT
 3962      00
 3963              	.LEHE168:
 3964 18a7 4883C410 		addq	$16, %rsp
 3965 18ab 89458C   		movl	%eax, -116(%rbp)
 3966              	.LEHB169:
 156:testHexIO.cpp **** 	CHECK_EQUAL(HEX_JUNK_CHECKSUM, status);
 3967              		.loc 4 156 0
 3968 18ae E8000000 		call	_ZN8UnitTest11CurrentTest7DetailsEv@PLT
 3968      00
 3969 18b3 488B08   		movq	(%rax), %rcx
 3970 18b6 488D45C0 		leaq	-64(%rbp), %rax
 3971 18ba BA9C0000 		movl	$156, %edx
 3971      00
 3972 18bf 4889CE   		movq	%rcx, %rsi
 3973 18c2 4889C7   		movq	%rax, %rdi
 3974 18c5 E8000000 		call	_ZN8UnitTest11TestDetailsC1ERKS0_i@PLT
 3974      00
 3975              	.LEHE169:
 3976              		.loc 4 156 0 is_stmt 0 discriminator 2
 3977 18ca C745940F 		movl	$15, -108(%rbp)
 3977      000000
 3978              	.LEHB170:
 3979 18d1 E8000000 		call	_ZN8UnitTest11CurrentTest7ResultsEv@PLT
 3979      00
 3980 18d6 488B00   		movq	(%rax), %rax
 3981 18d9 488D4DC0 		leaq	-64(%rbp), %rcx
 3982 18dd 488D558C 		leaq	-116(%rbp), %rdx
 3983 18e1 488D7594 		leaq	-108(%rbp), %rsi
 3984 18e5 4889C7   		movq	%rax, %rdi
 3985 18e8 E8000000 		call	_ZN8UnitTest10CheckEqualI12BufferStatusS1_EEvRNS_11TestResultsERKT_RKT0_RKNS_11TestDetailsE
 3985      00
 3986              	.LEHE170:
 3987              	.L241:
 157:testHexIO.cpp **** 	bufDestroy(&data);
 3988              		.loc 4 157 0 is_stmt 1
 3989 18ed 488D45A0 		leaq	-96(%rbp), %rax
 3990 18f1 4889C7   		movq	%rax, %rdi
 3991              	.LEHB171:
 3992 18f4 E8000000 		call	bufDestroy@PLT
 3992      00
 3993              	.LEHE171:
 158:testHexIO.cpp **** }
 3994              		.loc 4 158 0
 3995 18f9 90       		nop
 3996 18fa 488B45E8 		movq	-24(%rbp), %rax
 3997 18fe 64483304 		xorq	%fs:40, %rax
 3997      25280000 
 3997      00
 3998 1907 0F84CC00 		je	.L243
 3998      0000
 3999 190d E9C20000 		jmp	.L250
 3999      00
 4000              	.L245:
 4001 1912 EB00     		jmp	.L236
 4002              	.L244:
 4003              	.L236:
 154:testHexIO.cpp **** 	status = bufProcessLine(line, 0, &data, NULL, &seg, &recordType, NULL);
 4004              		.loc 4 154 0
 4005 1914 4889C7   		movq	%rax, %rdi
 4006 1917 E8000000 		call	__cxa_begin_catch@PLT
 4006      00
 4007              	.LEHB172:
 4008 191c E8000000 		call	_ZN8UnitTest11CurrentTest7ResultsEv@PLT
 4008      00
 4009 1921 488B18   		movq	(%rax), %rbx
 4010 1924 E8000000 		call	_ZN8UnitTest11CurrentTest7DetailsEv@PLT
 4010      00
 154:testHexIO.cpp **** 	status = bufProcessLine(line, 0, &data, NULL, &seg, &recordType, NULL);
 4011              		.loc 4 154 0 is_stmt 0 discriminator 8
 4012 1929 488B08   		movq	(%rax), %rcx
 4013 192c 488D45C0 		leaq	-64(%rbp), %rax
 4014 1930 BA9A0000 		movl	$154, %edx
 4014      00
 4015 1935 4889CE   		movq	%rcx, %rsi
 4016 1938 4889C7   		movq	%rax, %rdi
 4017 193b E8000000 		call	_ZN8UnitTest11TestDetailsC1ERKS0_i@PLT
 4017      00
 154:testHexIO.cpp **** 	status = bufProcessLine(line, 0, &data, NULL, &seg, &recordType, NULL);
 4018              		.loc 4 154 0 discriminator 12
 4019 1940 488D45C0 		leaq	-64(%rbp), %rax
 4020 1944 488D1500 		leaq	.LC4(%rip), %rdx
 4020      000000
 4021 194b 4889C6   		movq	%rax, %rsi
 4022 194e 4889DF   		movq	%rbx, %rdi
 4023 1951 E8000000 		call	_ZN8UnitTest11TestResults13OnTestFailureERKNS_11TestDetailsEPKc@PLT
 4023      00
 4024              	.LEHE172:
 4025              	.LEHB173:
 154:testHexIO.cpp **** 	status = bufProcessLine(line, 0, &data, NULL, &seg, &recordType, NULL);
 4026              		.loc 4 154 0 discriminator 14
 4027 1956 E8000000 		call	__cxa_end_catch@PLT
 4027      00
 4028              	.LEHE173:
 4029 195b E919FFFF 		jmp	.L237
 4029      FF
 4030              	.L246:
 4031 1960 4889C3   		movq	%rax, %rbx
 154:testHexIO.cpp **** 	status = bufProcessLine(line, 0, &data, NULL, &seg, &recordType, NULL);
 4032              		.loc 4 154 0
 4033 1963 E8000000 		call	__cxa_end_catch@PLT
 4033      00
 4034 1968 4889D8   		movq	%rbx, %rax
 4035 196b 4889C7   		movq	%rax, %rdi
 4036              	.LEHB174:
 4037 196e E8000000 		call	_Unwind_Resume@PLT
 4037      00
 4038              	.LEHE174:
 4039              	.L248:
 4040 1973 EB00     		jmp	.L240
 4041              	.L247:
 4042              	.L240:
 156:testHexIO.cpp **** 	bufDestroy(&data);
 4043              		.loc 4 156 0 is_stmt 1
 4044 1975 4889C7   		movq	%rax, %rdi
 4045 1978 E8000000 		call	__cxa_begin_catch@PLT
 4045      00
 4046              	.LEHB175:
 4047 197d E8000000 		call	_ZN8UnitTest11CurrentTest7ResultsEv@PLT
 4047      00
 4048 1982 488B18   		movq	(%rax), %rbx
 4049 1985 E8000000 		call	_ZN8UnitTest11CurrentTest7DetailsEv@PLT
 4049      00
 156:testHexIO.cpp **** 	bufDestroy(&data);
 4050              		.loc 4 156 0 is_stmt 0 discriminator 8
 4051 198a 488B08   		movq	(%rax), %rcx
 4052 198d 488D45C0 		leaq	-64(%rbp), %rax
 4053 1991 BA9C0000 		movl	$156, %edx
 4053      00
 4054 1996 4889CE   		movq	%rcx, %rsi
 4055 1999 4889C7   		movq	%rax, %rdi
 4056 199c E8000000 		call	_ZN8UnitTest11TestDetailsC1ERKS0_i@PLT
 4056      00
 156:testHexIO.cpp **** 	bufDestroy(&data);
 4057              		.loc 4 156 0 discriminator 12
 4058 19a1 488D45C0 		leaq	-64(%rbp), %rax
 4059 19a5 488D1500 		leaq	.LC36(%rip), %rdx
 4059      000000
 4060 19ac 4889C6   		movq	%rax, %rsi
 4061 19af 4889DF   		movq	%rbx, %rdi
 4062 19b2 E8000000 		call	_ZN8UnitTest11TestResults13OnTestFailureERKNS_11TestDetailsEPKc@PLT
 4062      00
 4063              	.LEHE175:
 4064              	.LEHB176:
 156:testHexIO.cpp **** 	bufDestroy(&data);
 4065              		.loc 4 156 0 discriminator 14
 4066 19b7 E8000000 		call	__cxa_end_catch@PLT
 4066      00
 4067              	.LEHE176:
 4068 19bc E92CFFFF 		jmp	.L241
 4068      FF
 4069              	.L249:
 4070 19c1 4889C3   		movq	%rax, %rbx
 156:testHexIO.cpp **** 	bufDestroy(&data);
 4071              		.loc 4 156 0
 4072 19c4 E8000000 		call	__cxa_end_catch@PLT
 4072      00
 4073 19c9 4889D8   		movq	%rbx, %rax
 4074 19cc 4889C7   		movq	%rax, %rdi
 4075              	.LEHB177:
 4076 19cf E8000000 		call	_Unwind_Resume@PLT
 4076      00
 4077              	.LEHE177:
 4078              	.L250:
 4079              		.loc 4 158 0 is_stmt 1
 4080 19d4 E8000000 		call	__stack_chk_fail@PLT
 4080      00
 4081              	.L243:
 4082 19d9 488B5DF8 		movq	-8(%rbp), %rbx
 4083 19dd C9       		leave
 4084              		.cfi_def_cfa 7, 8
 4085 19de C3       		ret
 4086              		.cfi_endproc
 4087              	.LFE1191:
 4088              		.section	.gcc_except_table
 4089              		.align 4
 4090              	.LLSDA1191:
 4091 03e0 FF       		.byte	0xff
 4092 03e1 9B       		.byte	0x9b
 4093 03e2 51       		.uleb128 .LLSDATT1191-.LLSDATTD1191
 4094              	.LLSDATTD1191:
 4095 03e3 01       		.byte	0x1
 4096 03e4 44       		.uleb128 .LLSDACSE1191-.LLSDACSB1191
 4097              	.LLSDACSB1191:
 4098 03e5 4A       		.uleb128 .LEHB165-.LFB1191
 4099 03e6 05       		.uleb128 .LEHE165-.LEHB165
 4100 03e7 00       		.uleb128 0
 4101 03e8 00       		.uleb128 0
 4102 03e9 52       		.uleb128 .LEHB166-.LFB1191
 4103 03ea 1C       		.uleb128 .LEHE166-.LEHB166
 4104 03eb AC02     		.uleb128 .L244-.LFB1191
 4105 03ed 01       		.uleb128 0x1
 4106 03ee 75       		.uleb128 .LEHB167-.LFB1191
 4107 03ef 1C       		.uleb128 .LEHE167-.LEHB167
 4108 03f0 AA02     		.uleb128 .L245-.LFB1191
 4109 03f2 03       		.uleb128 0x3
 4110 03f3 BA01     		.uleb128 .LEHB168-.LFB1191
 4111 03f5 05       		.uleb128 .LEHE168-.LEHB168
 4112 03f6 00       		.uleb128 0
 4113 03f7 00       		.uleb128 0
 4114 03f8 C601     		.uleb128 .LEHB169-.LFB1191
 4115 03fa 1C       		.uleb128 .LEHE169-.LEHB169
 4116 03fb 8D03     		.uleb128 .L247-.LFB1191
 4117 03fd 01       		.uleb128 0x1
 4118 03fe E901     		.uleb128 .LEHB170-.LFB1191
 4119 0400 1C       		.uleb128 .LEHE170-.LEHB170
 4120 0401 8B03     		.uleb128 .L248-.LFB1191
 4121 0403 03       		.uleb128 0x3
 4122 0404 8C02     		.uleb128 .LEHB171-.LFB1191
 4123 0406 05       		.uleb128 .LEHE171-.LEHB171
 4124 0407 00       		.uleb128 0
 4125 0408 00       		.uleb128 0
 4126 0409 B402     		.uleb128 .LEHB172-.LFB1191
 4127 040b 3A       		.uleb128 .LEHE172-.LEHB172
 4128 040c F802     		.uleb128 .L246-.LFB1191
 4129 040e 00       		.uleb128 0
 4130 040f EE02     		.uleb128 .LEHB173-.LFB1191
 4131 0411 05       		.uleb128 .LEHE173-.LEHB173
 4132 0412 00       		.uleb128 0
 4133 0413 00       		.uleb128 0
 4134 0414 8603     		.uleb128 .LEHB174-.LFB1191
 4135 0416 05       		.uleb128 .LEHE174-.LEHB174
 4136 0417 00       		.uleb128 0
 4137 0418 00       		.uleb128 0
 4138 0419 9503     		.uleb128 .LEHB175-.LFB1191
 4139 041b 3A       		.uleb128 .LEHE175-.LEHB175
 4140 041c D903     		.uleb128 .L249-.LFB1191
 4141 041e 00       		.uleb128 0
 4142 041f CF03     		.uleb128 .LEHB176-.LFB1191
 4143 0421 05       		.uleb128 .LEHE176-.LEHB176
 4144 0422 00       		.uleb128 0
 4145 0423 00       		.uleb128 0
 4146 0424 E703     		.uleb128 .LEHB177-.LFB1191
 4147 0426 05       		.uleb128 .LEHE177-.LEHB177
 4148 0427 00       		.uleb128 0
 4149 0428 00       		.uleb128 0
 4150              	.LLSDACSE1191:
 4151 0429 01       		.byte	0x1
 4152 042a 00       		.byte	0
 4153 042b 00       		.byte	0
 4154 042c 7D       		.byte	0x7d
 4155 042d 000000   		.align 4
 4156 0430 00000000 		.long	0
 4157              	
 4158              	.LLSDATT1191:
 4159              		.text
 4161              		.section	.rodata
 4162              	.LC37:
 4163 05d6 48657849 		.string	"HexIO_testBadChecksum"
 4163      4F5F7465 
 4163      73744261 
 4163      64436865 
 4163      636B7375 
 4164              		.section	.text._ZN25TestHexIO_testBadChecksumC2Ev,"axG",@progbits,_ZN25TestHexIO_testBadChecksumC5
 4165              		.align 2
 4166              		.weak	_ZN25TestHexIO_testBadChecksumC2Ev
 4168              	_ZN25TestHexIO_testBadChecksumC2Ev:
 4169              	.LFB1193:
 159:testHexIO.cpp **** 
 160:testHexIO.cpp **** TEST(HexIO_testBadChecksum) {
 4170              		.loc 4 160 0
 4171              		.cfi_startproc
 4172 0000 55       		pushq	%rbp
 4173              		.cfi_def_cfa_offset 16
 4174              		.cfi_offset 6, -16
 4175 0001 4889E5   		movq	%rsp, %rbp
 4176              		.cfi_def_cfa_register 6
 4177 0004 53       		pushq	%rbx
 4178 0005 4883EC18 		subq	$24, %rsp
 4179              		.cfi_offset 3, -24
 4180 0009 48897DE8 		movq	%rdi, -24(%rbp)
 4181              	.LBB13:
 4182              		.loc 4 160 0
 4183 000d 488B5DE8 		movq	-24(%rbp), %rbx
 4184 0011 E8000000 		call	_ZN13UnitTestSuite12GetSuiteNameEv
 4184      00
 4185 0016 41B8A000 		movl	$160, %r8d
 4185      0000
 4186 001c 488D0D00 		leaq	.LC1(%rip), %rcx
 4186      000000
 4187 0023 4889C2   		movq	%rax, %rdx
 4188 0026 488D3500 		leaq	.LC37(%rip), %rsi
 4188      000000
 4189 002d 4889DF   		movq	%rbx, %rdi
 4190 0030 E8000000 		call	_ZN8UnitTest4TestC2EPKcS2_S2_i@PLT
 4190      00
 4191 0035 488D1500 		leaq	16+_ZTV25TestHexIO_testBadChecksum(%rip), %rdx
 4191      000000
 4192 003c 488B45E8 		movq	-24(%rbp), %rax
 4193 0040 488910   		movq	%rdx, (%rax)
 4194              	.LBE13:
 4195 0043 90       		nop
 4196 0044 4883C418 		addq	$24, %rsp
 4197 0048 5B       		popq	%rbx
 4198 0049 5D       		popq	%rbp
 4199              		.cfi_def_cfa 7, 8
 4200 004a C3       		ret
 4201              		.cfi_endproc
 4202              	.LFE1193:
 4204              		.weak	_ZN25TestHexIO_testBadChecksumC1Ev
 4205              		.set	_ZN25TestHexIO_testBadChecksumC1Ev,_ZN25TestHexIO_testBadChecksumC2Ev
 4206              		.globl	testHexIO_testBadChecksumInstance
 4207              		.bss
 4208 0239 00000000 		.align 32
 4208      000000
 4211              	testHexIO_testBadChecksumInstance:
 4212 0240 00000000 		.zero	56
 4212      00000000 
 4212      00000000 
 4212      00000000 
 4212      00000000 
 4213              		.globl	adderHexIO_testBadChecksum
 4216              	adderHexIO_testBadChecksum:
 4217 0278 00       		.zero	1
 4218              		.section	.rodata
 4219              	.LC38:
 4220 05ec 3A303430 		.string	":040BE10075820022F8\n"
 4220      42453130 
 4220      30373538 
 4220      32303032 
 4220      3246380A 
 4221 0601 00000000 		.align 8
 4221      000000
 4222              	.LC39:
 4223 0608 556E6861 		.string	"Unhandled exception in CHECK_EQUAL(HEX_BAD_CHECKSUM, status)"
 4223      6E646C65 
 4223      64206578 
 4223      63657074 
 4223      696F6E20 
 4224              		.text
 4225 19df 90       		.align 2
 4226              		.globl	_ZNK25TestHexIO_testBadChecksum7RunImplEv
 4228              	_ZNK25TestHexIO_testBadChecksum7RunImplEv:
 4229              	.LFB1195:
 4230              		.loc 4 160 0
 4231              		.cfi_startproc
 4232              		.cfi_personality 0x9b,DW.ref.__gxx_personality_v0
 4233              		.cfi_lsda 0x1b,.LLSDA1195
 4234 19e0 55       		pushq	%rbp
 4235              		.cfi_def_cfa_offset 16
 4236              		.cfi_offset 6, -16
 4237 19e1 4889E5   		movq	%rsp, %rbp
 4238              		.cfi_def_cfa_register 6
 4239 19e4 53       		pushq	%rbx
 4240 19e5 4881EC88 		subq	$136, %rsp
 4240      000000
 4241              		.cfi_offset 3, -24
 4242 19ec 4889BD78 		movq	%rdi, -136(%rbp)
 4242      FFFFFF
 4243              		.loc 4 160 0
 4244 19f3 64488B04 		movq	%fs:40, %rax
 4244      25280000 
 4244      00
 4245 19fc 488945E8 		movq	%rax, -24(%rbp)
 4246 1a00 31C0     		xorl	%eax, %eax
 161:testHexIO.cpp **** 	Buffer data;
 162:testHexIO.cpp **** 	BufferStatus status;
 163:testHexIO.cpp **** 	const char *line = ":040BE10075820022F8\n";
 4247              		.loc 4 163 0
 4248 1a02 488D0500 		leaq	.LC38(%rip), %rax
 4248      000000
 4249 1a09 48894598 		movq	%rax, -104(%rbp)
 164:testHexIO.cpp **** 	uint8 recordType;
 165:testHexIO.cpp **** 	uint32 seg = 0x00000000;
 4250              		.loc 4 165 0
 4251 1a0d C7459000 		movl	$0, -112(%rbp)
 4251      000000
 166:testHexIO.cpp **** 	status = bufInitialise(&data, 1024, 0x00, NULL);
 4252              		.loc 4 166 0
 4253 1a14 488D45A0 		leaq	-96(%rbp), %rax
 4254 1a18 B9000000 		movl	$0, %ecx
 4254      00
 4255 1a1d BA000000 		movl	$0, %edx
 4255      00
 4256 1a22 BE000400 		movl	$1024, %esi
 4256      00
 4257 1a27 4889C7   		movq	%rax, %rdi
 4258              	.LEHB178:
 4259 1a2a E8000000 		call	bufInitialise@PLT
 4259      00
 4260              	.LEHE178:
 4261 1a2f 89458C   		movl	%eax, -116(%rbp)
 4262              	.LEHB179:
 167:testHexIO.cpp **** 	CHECK_EQUAL(BUF_SUCCESS, status);
 4263              		.loc 4 167 0
 4264 1a32 E8000000 		call	_ZN8UnitTest11CurrentTest7DetailsEv@PLT
 4264      00
 4265 1a37 488B08   		movq	(%rax), %rcx
 4266 1a3a 488D45C0 		leaq	-64(%rbp), %rax
 4267 1a3e BAA70000 		movl	$167, %edx
 4267      00
 4268 1a43 4889CE   		movq	%rcx, %rsi
 4269 1a46 4889C7   		movq	%rax, %rdi
 4270 1a49 E8000000 		call	_ZN8UnitTest11TestDetailsC1ERKS0_i@PLT
 4270      00
 4271              	.LEHE179:
 4272              		.loc 4 167 0 is_stmt 0 discriminator 2
 4273 1a4e C7459400 		movl	$0, -108(%rbp)
 4273      000000
 4274              	.LEHB180:
 4275 1a55 E8000000 		call	_ZN8UnitTest11CurrentTest7ResultsEv@PLT
 4275      00
 4276 1a5a 488B00   		movq	(%rax), %rax
 4277 1a5d 488D4DC0 		leaq	-64(%rbp), %rcx
 4278 1a61 488D558C 		leaq	-116(%rbp), %rdx
 4279 1a65 488D7594 		leaq	-108(%rbp), %rsi
 4280 1a69 4889C7   		movq	%rax, %rdi
 4281 1a6c E8000000 		call	_ZN8UnitTest10CheckEqualI12BufferStatusS1_EEvRNS_11TestResultsERKT_RKT0_RKNS_11TestDetailsE
 4281      00
 4282              	.LEHE180:
 4283              	.L255:
 168:testHexIO.cpp **** 	status = bufProcessLine(line, 0, &data, NULL, &seg, &recordType, NULL);
 4284              		.loc 4 168 0 is_stmt 1
 4285 1a71 488D758B 		leaq	-117(%rbp), %rsi
 4286 1a75 488D4D90 		leaq	-112(%rbp), %rcx
 4287 1a79 488D55A0 		leaq	-96(%rbp), %rdx
 4288 1a7d 488B4598 		movq	-104(%rbp), %rax
 4289 1a81 4883EC08 		subq	$8, %rsp
 4290 1a85 6A00     		pushq	$0
 4291 1a87 4989F1   		movq	%rsi, %r9
 4292 1a8a 4989C8   		movq	%rcx, %r8
 4293 1a8d B9000000 		movl	$0, %ecx
 4293      00
 4294 1a92 BE000000 		movl	$0, %esi
 4294      00
 4295 1a97 4889C7   		movq	%rax, %rdi
 4296              	.LEHB181:
 4297 1a9a E8000000 		call	bufProcessLine@PLT
 4297      00
 4298              	.LEHE181:
 4299 1a9f 4883C410 		addq	$16, %rsp
 4300 1aa3 89458C   		movl	%eax, -116(%rbp)
 4301              	.LEHB182:
 169:testHexIO.cpp **** 	CHECK_EQUAL(HEX_BAD_CHECKSUM, status);
 4302              		.loc 4 169 0
 4303 1aa6 E8000000 		call	_ZN8UnitTest11CurrentTest7DetailsEv@PLT
 4303      00
 4304 1aab 488B08   		movq	(%rax), %rcx
 4305 1aae 488D45C0 		leaq	-64(%rbp), %rax
 4306 1ab2 BAA90000 		movl	$169, %edx
 4306      00
 4307 1ab7 4889CE   		movq	%rcx, %rsi
 4308 1aba 4889C7   		movq	%rax, %rdi
 4309 1abd E8000000 		call	_ZN8UnitTest11TestDetailsC1ERKS0_i@PLT
 4309      00
 4310              	.LEHE182:
 4311              		.loc 4 169 0 is_stmt 0 discriminator 2
 4312 1ac2 C7459410 		movl	$16, -108(%rbp)
 4312      000000
 4313              	.LEHB183:
 4314 1ac9 E8000000 		call	_ZN8UnitTest11CurrentTest7ResultsEv@PLT
 4314      00
 4315 1ace 488B00   		movq	(%rax), %rax
 4316 1ad1 488D4DC0 		leaq	-64(%rbp), %rcx
 4317 1ad5 488D558C 		leaq	-116(%rbp), %rdx
 4318 1ad9 488D7594 		leaq	-108(%rbp), %rsi
 4319 1add 4889C7   		movq	%rax, %rdi
 4320 1ae0 E8000000 		call	_ZN8UnitTest10CheckEqualI12BufferStatusS1_EEvRNS_11TestResultsERKT_RKT0_RKNS_11TestDetailsE
 4320      00
 4321              	.LEHE183:
 4322              	.L259:
 170:testHexIO.cpp **** 	bufDestroy(&data);
 4323              		.loc 4 170 0 is_stmt 1
 4324 1ae5 488D45A0 		leaq	-96(%rbp), %rax
 4325 1ae9 4889C7   		movq	%rax, %rdi
 4326              	.LEHB184:
 4327 1aec E8000000 		call	bufDestroy@PLT
 4327      00
 4328              	.LEHE184:
 171:testHexIO.cpp **** }
 4329              		.loc 4 171 0
 4330 1af1 90       		nop
 4331 1af2 488B45E8 		movq	-24(%rbp), %rax
 4332 1af6 64483304 		xorq	%fs:40, %rax
 4332      25280000 
 4332      00
 4333 1aff 0F84CC00 		je	.L261
 4333      0000
 4334 1b05 E9C20000 		jmp	.L268
 4334      00
 4335              	.L263:
 4336 1b0a EB00     		jmp	.L254
 4337              	.L262:
 4338              	.L254:
 167:testHexIO.cpp **** 	status = bufProcessLine(line, 0, &data, NULL, &seg, &recordType, NULL);
 4339              		.loc 4 167 0
 4340 1b0c 4889C7   		movq	%rax, %rdi
 4341 1b0f E8000000 		call	__cxa_begin_catch@PLT
 4341      00
 4342              	.LEHB185:
 4343 1b14 E8000000 		call	_ZN8UnitTest11CurrentTest7ResultsEv@PLT
 4343      00
 4344 1b19 488B18   		movq	(%rax), %rbx
 4345 1b1c E8000000 		call	_ZN8UnitTest11CurrentTest7DetailsEv@PLT
 4345      00
 167:testHexIO.cpp **** 	status = bufProcessLine(line, 0, &data, NULL, &seg, &recordType, NULL);
 4346              		.loc 4 167 0 is_stmt 0 discriminator 8
 4347 1b21 488B08   		movq	(%rax), %rcx
 4348 1b24 488D45C0 		leaq	-64(%rbp), %rax
 4349 1b28 BAA70000 		movl	$167, %edx
 4349      00
 4350 1b2d 4889CE   		movq	%rcx, %rsi
 4351 1b30 4889C7   		movq	%rax, %rdi
 4352 1b33 E8000000 		call	_ZN8UnitTest11TestDetailsC1ERKS0_i@PLT
 4352      00
 167:testHexIO.cpp **** 	status = bufProcessLine(line, 0, &data, NULL, &seg, &recordType, NULL);
 4353              		.loc 4 167 0 discriminator 12
 4354 1b38 488D45C0 		leaq	-64(%rbp), %rax
 4355 1b3c 488D1500 		leaq	.LC4(%rip), %rdx
 4355      000000
 4356 1b43 4889C6   		movq	%rax, %rsi
 4357 1b46 4889DF   		movq	%rbx, %rdi
 4358 1b49 E8000000 		call	_ZN8UnitTest11TestResults13OnTestFailureERKNS_11TestDetailsEPKc@PLT
 4358      00
 4359              	.LEHE185:
 4360              	.LEHB186:
 167:testHexIO.cpp **** 	status = bufProcessLine(line, 0, &data, NULL, &seg, &recordType, NULL);
 4361              		.loc 4 167 0 discriminator 14
 4362 1b4e E8000000 		call	__cxa_end_catch@PLT
 4362      00
 4363              	.LEHE186:
 4364 1b53 E919FFFF 		jmp	.L255
 4364      FF
 4365              	.L264:
 4366 1b58 4889C3   		movq	%rax, %rbx
 167:testHexIO.cpp **** 	status = bufProcessLine(line, 0, &data, NULL, &seg, &recordType, NULL);
 4367              		.loc 4 167 0
 4368 1b5b E8000000 		call	__cxa_end_catch@PLT
 4368      00
 4369 1b60 4889D8   		movq	%rbx, %rax
 4370 1b63 4889C7   		movq	%rax, %rdi
 4371              	.LEHB187:
 4372 1b66 E8000000 		call	_Unwind_Resume@PLT
 4372      00
 4373              	.LEHE187:
 4374              	.L266:
 4375 1b6b EB00     		jmp	.L258
 4376              	.L265:
 4377              	.L258:
 169:testHexIO.cpp **** 	bufDestroy(&data);
 4378              		.loc 4 169 0 is_stmt 1
 4379 1b6d 4889C7   		movq	%rax, %rdi
 4380 1b70 E8000000 		call	__cxa_begin_catch@PLT
 4380      00
 4381              	.LEHB188:
 4382 1b75 E8000000 		call	_ZN8UnitTest11CurrentTest7ResultsEv@PLT
 4382      00
 4383 1b7a 488B18   		movq	(%rax), %rbx
 4384 1b7d E8000000 		call	_ZN8UnitTest11CurrentTest7DetailsEv@PLT
 4384      00
 169:testHexIO.cpp **** 	bufDestroy(&data);
 4385              		.loc 4 169 0 is_stmt 0 discriminator 8
 4386 1b82 488B08   		movq	(%rax), %rcx
 4387 1b85 488D45C0 		leaq	-64(%rbp), %rax
 4388 1b89 BAA90000 		movl	$169, %edx
 4388      00
 4389 1b8e 4889CE   		movq	%rcx, %rsi
 4390 1b91 4889C7   		movq	%rax, %rdi
 4391 1b94 E8000000 		call	_ZN8UnitTest11TestDetailsC1ERKS0_i@PLT
 4391      00
 169:testHexIO.cpp **** 	bufDestroy(&data);
 4392              		.loc 4 169 0 discriminator 12
 4393 1b99 488D45C0 		leaq	-64(%rbp), %rax
 4394 1b9d 488D1500 		leaq	.LC39(%rip), %rdx
 4394      000000
 4395 1ba4 4889C6   		movq	%rax, %rsi
 4396 1ba7 4889DF   		movq	%rbx, %rdi
 4397 1baa E8000000 		call	_ZN8UnitTest11TestResults13OnTestFailureERKNS_11TestDetailsEPKc@PLT
 4397      00
 4398              	.LEHE188:
 4399              	.LEHB189:
 169:testHexIO.cpp **** 	bufDestroy(&data);
 4400              		.loc 4 169 0 discriminator 14
 4401 1baf E8000000 		call	__cxa_end_catch@PLT
 4401      00
 4402              	.LEHE189:
 4403 1bb4 E92CFFFF 		jmp	.L259
 4403      FF
 4404              	.L267:
 4405 1bb9 4889C3   		movq	%rax, %rbx
 169:testHexIO.cpp **** 	bufDestroy(&data);
 4406              		.loc 4 169 0
 4407 1bbc E8000000 		call	__cxa_end_catch@PLT
 4407      00
 4408 1bc1 4889D8   		movq	%rbx, %rax
 4409 1bc4 4889C7   		movq	%rax, %rdi
 4410              	.LEHB190:
 4411 1bc7 E8000000 		call	_Unwind_Resume@PLT
 4411      00
 4412              	.LEHE190:
 4413              	.L268:
 4414              		.loc 4 171 0 is_stmt 1
 4415 1bcc E8000000 		call	__stack_chk_fail@PLT
 4415      00
 4416              	.L261:
 4417 1bd1 488B5DF8 		movq	-8(%rbp), %rbx
 4418 1bd5 C9       		leave
 4419              		.cfi_def_cfa 7, 8
 4420 1bd6 C3       		ret
 4421              		.cfi_endproc
 4422              	.LFE1195:
 4423              		.section	.gcc_except_table
 4424              		.align 4
 4425              	.LLSDA1195:
 4426 0434 FF       		.byte	0xff
 4427 0435 9B       		.byte	0x9b
 4428 0436 51       		.uleb128 .LLSDATT1195-.LLSDATTD1195
 4429              	.LLSDATTD1195:
 4430 0437 01       		.byte	0x1
 4431 0438 44       		.uleb128 .LLSDACSE1195-.LLSDACSB1195
 4432              	.LLSDACSB1195:
 4433 0439 4A       		.uleb128 .LEHB178-.LFB1195
 4434 043a 05       		.uleb128 .LEHE178-.LEHB178
 4435 043b 00       		.uleb128 0
 4436 043c 00       		.uleb128 0
 4437 043d 52       		.uleb128 .LEHB179-.LFB1195
 4438 043e 1C       		.uleb128 .LEHE179-.LEHB179
 4439 043f AC02     		.uleb128 .L262-.LFB1195
 4440 0441 01       		.uleb128 0x1
 4441 0442 75       		.uleb128 .LEHB180-.LFB1195
 4442 0443 1C       		.uleb128 .LEHE180-.LEHB180
 4443 0444 AA02     		.uleb128 .L263-.LFB1195
 4444 0446 03       		.uleb128 0x3
 4445 0447 BA01     		.uleb128 .LEHB181-.LFB1195
 4446 0449 05       		.uleb128 .LEHE181-.LEHB181
 4447 044a 00       		.uleb128 0
 4448 044b 00       		.uleb128 0
 4449 044c C601     		.uleb128 .LEHB182-.LFB1195
 4450 044e 1C       		.uleb128 .LEHE182-.LEHB182
 4451 044f 8D03     		.uleb128 .L265-.LFB1195
 4452 0451 01       		.uleb128 0x1
 4453 0452 E901     		.uleb128 .LEHB183-.LFB1195
 4454 0454 1C       		.uleb128 .LEHE183-.LEHB183
 4455 0455 8B03     		.uleb128 .L266-.LFB1195
 4456 0457 03       		.uleb128 0x3
 4457 0458 8C02     		.uleb128 .LEHB184-.LFB1195
 4458 045a 05       		.uleb128 .LEHE184-.LEHB184
 4459 045b 00       		.uleb128 0
 4460 045c 00       		.uleb128 0
 4461 045d B402     		.uleb128 .LEHB185-.LFB1195
 4462 045f 3A       		.uleb128 .LEHE185-.LEHB185
 4463 0460 F802     		.uleb128 .L264-.LFB1195
 4464 0462 00       		.uleb128 0
 4465 0463 EE02     		.uleb128 .LEHB186-.LFB1195
 4466 0465 05       		.uleb128 .LEHE186-.LEHB186
 4467 0466 00       		.uleb128 0
 4468 0467 00       		.uleb128 0
 4469 0468 8603     		.uleb128 .LEHB187-.LFB1195
 4470 046a 05       		.uleb128 .LEHE187-.LEHB187
 4471 046b 00       		.uleb128 0
 4472 046c 00       		.uleb128 0
 4473 046d 9503     		.uleb128 .LEHB188-.LFB1195
 4474 046f 3A       		.uleb128 .LEHE188-.LEHB188
 4475 0470 D903     		.uleb128 .L267-.LFB1195
 4476 0472 00       		.uleb128 0
 4477 0473 CF03     		.uleb128 .LEHB189-.LFB1195
 4478 0475 05       		.uleb128 .LEHE189-.LEHB189
 4479 0476 00       		.uleb128 0
 4480 0477 00       		.uleb128 0
 4481 0478 E703     		.uleb128 .LEHB190-.LFB1195
 4482 047a 05       		.uleb128 .LEHE190-.LEHB190
 4483 047b 00       		.uleb128 0
 4484 047c 00       		.uleb128 0
 4485              	.LLSDACSE1195:
 4486 047d 01       		.byte	0x1
 4487 047e 00       		.byte	0
 4488 047f 00       		.byte	0
 4489 0480 7D       		.byte	0x7d
 4490 0481 000000   		.align 4
 4491 0484 00000000 		.long	0
 4492              	
 4493              	.LLSDATT1195:
 4494              		.text
 4496              		.section	.rodata
 4497              	.LC40:
 4498 0645 48657849 		.string	"HexIO_testCorruptLine"
 4498      4F5F7465 
 4498      7374436F 
 4498      72727570 
 4498      744C696E 
 4499              		.section	.text._ZN25TestHexIO_testCorruptLineC2Ev,"axG",@progbits,_ZN25TestHexIO_testCorruptLineC5
 4500              		.align 2
 4501              		.weak	_ZN25TestHexIO_testCorruptLineC2Ev
 4503              	_ZN25TestHexIO_testCorruptLineC2Ev:
 4504              	.LFB1197:
 172:testHexIO.cpp **** 
 173:testHexIO.cpp **** TEST(HexIO_testCorruptLine) {
 4505              		.loc 4 173 0
 4506              		.cfi_startproc
 4507 0000 55       		pushq	%rbp
 4508              		.cfi_def_cfa_offset 16
 4509              		.cfi_offset 6, -16
 4510 0001 4889E5   		movq	%rsp, %rbp
 4511              		.cfi_def_cfa_register 6
 4512 0004 53       		pushq	%rbx
 4513 0005 4883EC18 		subq	$24, %rsp
 4514              		.cfi_offset 3, -24
 4515 0009 48897DE8 		movq	%rdi, -24(%rbp)
 4516              	.LBB14:
 4517              		.loc 4 173 0
 4518 000d 488B5DE8 		movq	-24(%rbp), %rbx
 4519 0011 E8000000 		call	_ZN13UnitTestSuite12GetSuiteNameEv
 4519      00
 4520 0016 41B8AD00 		movl	$173, %r8d
 4520      0000
 4521 001c 488D0D00 		leaq	.LC1(%rip), %rcx
 4521      000000
 4522 0023 4889C2   		movq	%rax, %rdx
 4523 0026 488D3500 		leaq	.LC40(%rip), %rsi
 4523      000000
 4524 002d 4889DF   		movq	%rbx, %rdi
 4525 0030 E8000000 		call	_ZN8UnitTest4TestC2EPKcS2_S2_i@PLT
 4525      00
 4526 0035 488D1500 		leaq	16+_ZTV25TestHexIO_testCorruptLine(%rip), %rdx
 4526      000000
 4527 003c 488B45E8 		movq	-24(%rbp), %rax
 4528 0040 488910   		movq	%rdx, (%rax)
 4529              	.LBE14:
 4530 0043 90       		nop
 4531 0044 4883C418 		addq	$24, %rsp
 4532 0048 5B       		popq	%rbx
 4533 0049 5D       		popq	%rbp
 4534              		.cfi_def_cfa 7, 8
 4535 004a C3       		ret
 4536              		.cfi_endproc
 4537              	.LFE1197:
 4539              		.weak	_ZN25TestHexIO_testCorruptLineC1Ev
 4540              		.set	_ZN25TestHexIO_testCorruptLineC1Ev,_ZN25TestHexIO_testCorruptLineC2Ev
 4541              		.globl	testHexIO_testCorruptLineInstance
 4542              		.bss
 4543 0279 00000000 		.align 32
 4543      000000
 4546              	testHexIO_testCorruptLineInstance:
 4547 0280 00000000 		.zero	56
 4547      00000000 
 4547      00000000 
 4547      00000000 
 4547      00000000 
 4548              		.globl	adderHexIO_testCorruptLine
 4551              	adderHexIO_testCorruptLine:
 4552 02b8 00       		.zero	1
 4553              		.section	.rodata
 4554              	.LC41:
 4555 065b 3A303430 		.string	":040BE10075820022F7 \n"
 4555      42453130 
 4555      30373538 
 4555      32303032 
 4555      32463720 
 4556 0671 00000000 		.align 8
 4556      000000
 4557              	.LC42:
 4558 0678 556E6861 		.string	"Unhandled exception in CHECK_EQUAL(HEX_CORRUPT_LINE, status)"
 4558      6E646C65 
 4558      64206578 
 4558      63657074 
 4558      696F6E20 
 4559              		.text
 4560 1bd7 90       		.align 2
 4561              		.globl	_ZNK25TestHexIO_testCorruptLine7RunImplEv
 4563              	_ZNK25TestHexIO_testCorruptLine7RunImplEv:
 4564              	.LFB1199:
 4565              		.loc 4 173 0
 4566              		.cfi_startproc
 4567              		.cfi_personality 0x9b,DW.ref.__gxx_personality_v0
 4568              		.cfi_lsda 0x1b,.LLSDA1199
 4569 1bd8 55       		pushq	%rbp
 4570              		.cfi_def_cfa_offset 16
 4571              		.cfi_offset 6, -16
 4572 1bd9 4889E5   		movq	%rsp, %rbp
 4573              		.cfi_def_cfa_register 6
 4574 1bdc 53       		pushq	%rbx
 4575 1bdd 4881EC88 		subq	$136, %rsp
 4575      000000
 4576              		.cfi_offset 3, -24
 4577 1be4 4889BD78 		movq	%rdi, -136(%rbp)
 4577      FFFFFF
 4578              		.loc 4 173 0
 4579 1beb 64488B04 		movq	%fs:40, %rax
 4579      25280000 
 4579      00
 4580 1bf4 488945E8 		movq	%rax, -24(%rbp)
 4581 1bf8 31C0     		xorl	%eax, %eax
 174:testHexIO.cpp **** 	Buffer data;
 175:testHexIO.cpp **** 	BufferStatus status;
 176:testHexIO.cpp **** 	const char *line = ":040BE10075820022F7 \n";
 4582              		.loc 4 176 0
 4583 1bfa 488D0500 		leaq	.LC41(%rip), %rax
 4583      000000
 4584 1c01 48894598 		movq	%rax, -104(%rbp)
 177:testHexIO.cpp **** 	uint8 recordType;
 178:testHexIO.cpp **** 	uint32 seg = 0x00000000;
 4585              		.loc 4 178 0
 4586 1c05 C7459000 		movl	$0, -112(%rbp)
 4586      000000
 179:testHexIO.cpp **** 	status = bufInitialise(&data, 1024, 0x00, NULL);
 4587              		.loc 4 179 0
 4588 1c0c 488D45A0 		leaq	-96(%rbp), %rax
 4589 1c10 B9000000 		movl	$0, %ecx
 4589      00
 4590 1c15 BA000000 		movl	$0, %edx
 4590      00
 4591 1c1a BE000400 		movl	$1024, %esi
 4591      00
 4592 1c1f 4889C7   		movq	%rax, %rdi
 4593              	.LEHB191:
 4594 1c22 E8000000 		call	bufInitialise@PLT
 4594      00
 4595              	.LEHE191:
 4596 1c27 89458C   		movl	%eax, -116(%rbp)
 4597              	.LEHB192:
 180:testHexIO.cpp **** 	CHECK_EQUAL(BUF_SUCCESS, status);
 4598              		.loc 4 180 0
 4599 1c2a E8000000 		call	_ZN8UnitTest11CurrentTest7DetailsEv@PLT
 4599      00
 4600 1c2f 488B08   		movq	(%rax), %rcx
 4601 1c32 488D45C0 		leaq	-64(%rbp), %rax
 4602 1c36 BAB40000 		movl	$180, %edx
 4602      00
 4603 1c3b 4889CE   		movq	%rcx, %rsi
 4604 1c3e 4889C7   		movq	%rax, %rdi
 4605 1c41 E8000000 		call	_ZN8UnitTest11TestDetailsC1ERKS0_i@PLT
 4605      00
 4606              	.LEHE192:
 4607              		.loc 4 180 0 is_stmt 0 discriminator 2
 4608 1c46 C7459400 		movl	$0, -108(%rbp)
 4608      000000
 4609              	.LEHB193:
 4610 1c4d E8000000 		call	_ZN8UnitTest11CurrentTest7ResultsEv@PLT
 4610      00
 4611 1c52 488B00   		movq	(%rax), %rax
 4612 1c55 488D4DC0 		leaq	-64(%rbp), %rcx
 4613 1c59 488D558C 		leaq	-116(%rbp), %rdx
 4614 1c5d 488D7594 		leaq	-108(%rbp), %rsi
 4615 1c61 4889C7   		movq	%rax, %rdi
 4616 1c64 E8000000 		call	_ZN8UnitTest10CheckEqualI12BufferStatusS1_EEvRNS_11TestResultsERKT_RKT0_RKNS_11TestDetailsE
 4616      00
 4617              	.LEHE193:
 4618              	.L273:
 181:testHexIO.cpp **** 	status = bufProcessLine(line, 0, &data, NULL, &seg, &recordType, NULL);
 4619              		.loc 4 181 0 is_stmt 1
 4620 1c69 488D758B 		leaq	-117(%rbp), %rsi
 4621 1c6d 488D4D90 		leaq	-112(%rbp), %rcx
 4622 1c71 488D55A0 		leaq	-96(%rbp), %rdx
 4623 1c75 488B4598 		movq	-104(%rbp), %rax
 4624 1c79 4883EC08 		subq	$8, %rsp
 4625 1c7d 6A00     		pushq	$0
 4626 1c7f 4989F1   		movq	%rsi, %r9
 4627 1c82 4989C8   		movq	%rcx, %r8
 4628 1c85 B9000000 		movl	$0, %ecx
 4628      00
 4629 1c8a BE000000 		movl	$0, %esi
 4629      00
 4630 1c8f 4889C7   		movq	%rax, %rdi
 4631              	.LEHB194:
 4632 1c92 E8000000 		call	bufProcessLine@PLT
 4632      00
 4633              	.LEHE194:
 4634 1c97 4883C410 		addq	$16, %rsp
 4635 1c9b 89458C   		movl	%eax, -116(%rbp)
 4636              	.LEHB195:
 182:testHexIO.cpp **** 	CHECK_EQUAL(HEX_CORRUPT_LINE, status);
 4637              		.loc 4 182 0
 4638 1c9e E8000000 		call	_ZN8UnitTest11CurrentTest7DetailsEv@PLT
 4638      00
 4639 1ca3 488B08   		movq	(%rax), %rcx
 4640 1ca6 488D45C0 		leaq	-64(%rbp), %rax
 4641 1caa BAB60000 		movl	$182, %edx
 4641      00
 4642 1caf 4889CE   		movq	%rcx, %rsi
 4643 1cb2 4889C7   		movq	%rax, %rdi
 4644 1cb5 E8000000 		call	_ZN8UnitTest11TestDetailsC1ERKS0_i@PLT
 4644      00
 4645              	.LEHE195:
 4646              		.loc 4 182 0 is_stmt 0 discriminator 2
 4647 1cba C7459411 		movl	$17, -108(%rbp)
 4647      000000
 4648              	.LEHB196:
 4649 1cc1 E8000000 		call	_ZN8UnitTest11CurrentTest7ResultsEv@PLT
 4649      00
 4650 1cc6 488B00   		movq	(%rax), %rax
 4651 1cc9 488D4DC0 		leaq	-64(%rbp), %rcx
 4652 1ccd 488D558C 		leaq	-116(%rbp), %rdx
 4653 1cd1 488D7594 		leaq	-108(%rbp), %rsi
 4654 1cd5 4889C7   		movq	%rax, %rdi
 4655 1cd8 E8000000 		call	_ZN8UnitTest10CheckEqualI12BufferStatusS1_EEvRNS_11TestResultsERKT_RKT0_RKNS_11TestDetailsE
 4655      00
 4656              	.LEHE196:
 4657              	.L277:
 183:testHexIO.cpp **** 	bufDestroy(&data);
 4658              		.loc 4 183 0 is_stmt 1
 4659 1cdd 488D45A0 		leaq	-96(%rbp), %rax
 4660 1ce1 4889C7   		movq	%rax, %rdi
 4661              	.LEHB197:
 4662 1ce4 E8000000 		call	bufDestroy@PLT
 4662      00
 4663              	.LEHE197:
 184:testHexIO.cpp **** }
 4664              		.loc 4 184 0
 4665 1ce9 90       		nop
 4666 1cea 488B45E8 		movq	-24(%rbp), %rax
 4667 1cee 64483304 		xorq	%fs:40, %rax
 4667      25280000 
 4667      00
 4668 1cf7 0F84CC00 		je	.L279
 4668      0000
 4669 1cfd E9C20000 		jmp	.L286
 4669      00
 4670              	.L281:
 4671 1d02 EB00     		jmp	.L272
 4672              	.L280:
 4673              	.L272:
 180:testHexIO.cpp **** 	status = bufProcessLine(line, 0, &data, NULL, &seg, &recordType, NULL);
 4674              		.loc 4 180 0
 4675 1d04 4889C7   		movq	%rax, %rdi
 4676 1d07 E8000000 		call	__cxa_begin_catch@PLT
 4676      00
 4677              	.LEHB198:
 4678 1d0c E8000000 		call	_ZN8UnitTest11CurrentTest7ResultsEv@PLT
 4678      00
 4679 1d11 488B18   		movq	(%rax), %rbx
 4680 1d14 E8000000 		call	_ZN8UnitTest11CurrentTest7DetailsEv@PLT
 4680      00
 180:testHexIO.cpp **** 	status = bufProcessLine(line, 0, &data, NULL, &seg, &recordType, NULL);
 4681              		.loc 4 180 0 is_stmt 0 discriminator 8
 4682 1d19 488B08   		movq	(%rax), %rcx
 4683 1d1c 488D45C0 		leaq	-64(%rbp), %rax
 4684 1d20 BAB40000 		movl	$180, %edx
 4684      00
 4685 1d25 4889CE   		movq	%rcx, %rsi
 4686 1d28 4889C7   		movq	%rax, %rdi
 4687 1d2b E8000000 		call	_ZN8UnitTest11TestDetailsC1ERKS0_i@PLT
 4687      00
 180:testHexIO.cpp **** 	status = bufProcessLine(line, 0, &data, NULL, &seg, &recordType, NULL);
 4688              		.loc 4 180 0 discriminator 12
 4689 1d30 488D45C0 		leaq	-64(%rbp), %rax
 4690 1d34 488D1500 		leaq	.LC4(%rip), %rdx
 4690      000000
 4691 1d3b 4889C6   		movq	%rax, %rsi
 4692 1d3e 4889DF   		movq	%rbx, %rdi
 4693 1d41 E8000000 		call	_ZN8UnitTest11TestResults13OnTestFailureERKNS_11TestDetailsEPKc@PLT
 4693      00
 4694              	.LEHE198:
 4695              	.LEHB199:
 180:testHexIO.cpp **** 	status = bufProcessLine(line, 0, &data, NULL, &seg, &recordType, NULL);
 4696              		.loc 4 180 0 discriminator 14
 4697 1d46 E8000000 		call	__cxa_end_catch@PLT
 4697      00
 4698              	.LEHE199:
 4699 1d4b E919FFFF 		jmp	.L273
 4699      FF
 4700              	.L282:
 4701 1d50 4889C3   		movq	%rax, %rbx
 180:testHexIO.cpp **** 	status = bufProcessLine(line, 0, &data, NULL, &seg, &recordType, NULL);
 4702              		.loc 4 180 0
 4703 1d53 E8000000 		call	__cxa_end_catch@PLT
 4703      00
 4704 1d58 4889D8   		movq	%rbx, %rax
 4705 1d5b 4889C7   		movq	%rax, %rdi
 4706              	.LEHB200:
 4707 1d5e E8000000 		call	_Unwind_Resume@PLT
 4707      00
 4708              	.LEHE200:
 4709              	.L284:
 4710 1d63 EB00     		jmp	.L276
 4711              	.L283:
 4712              	.L276:
 182:testHexIO.cpp **** 	bufDestroy(&data);
 4713              		.loc 4 182 0 is_stmt 1
 4714 1d65 4889C7   		movq	%rax, %rdi
 4715 1d68 E8000000 		call	__cxa_begin_catch@PLT
 4715      00
 4716              	.LEHB201:
 4717 1d6d E8000000 		call	_ZN8UnitTest11CurrentTest7ResultsEv@PLT
 4717      00
 4718 1d72 488B18   		movq	(%rax), %rbx
 4719 1d75 E8000000 		call	_ZN8UnitTest11CurrentTest7DetailsEv@PLT
 4719      00
 182:testHexIO.cpp **** 	bufDestroy(&data);
 4720              		.loc 4 182 0 is_stmt 0 discriminator 8
 4721 1d7a 488B08   		movq	(%rax), %rcx
 4722 1d7d 488D45C0 		leaq	-64(%rbp), %rax
 4723 1d81 BAB60000 		movl	$182, %edx
 4723      00
 4724 1d86 4889CE   		movq	%rcx, %rsi
 4725 1d89 4889C7   		movq	%rax, %rdi
 4726 1d8c E8000000 		call	_ZN8UnitTest11TestDetailsC1ERKS0_i@PLT
 4726      00
 182:testHexIO.cpp **** 	bufDestroy(&data);
 4727              		.loc 4 182 0 discriminator 12
 4728 1d91 488D45C0 		leaq	-64(%rbp), %rax
 4729 1d95 488D1500 		leaq	.LC42(%rip), %rdx
 4729      000000
 4730 1d9c 4889C6   		movq	%rax, %rsi
 4731 1d9f 4889DF   		movq	%rbx, %rdi
 4732 1da2 E8000000 		call	_ZN8UnitTest11TestResults13OnTestFailureERKNS_11TestDetailsEPKc@PLT
 4732      00
 4733              	.LEHE201:
 4734              	.LEHB202:
 182:testHexIO.cpp **** 	bufDestroy(&data);
 4735              		.loc 4 182 0 discriminator 14
 4736 1da7 E8000000 		call	__cxa_end_catch@PLT
 4736      00
 4737              	.LEHE202:
 4738 1dac E92CFFFF 		jmp	.L277
 4738      FF
 4739              	.L285:
 4740 1db1 4889C3   		movq	%rax, %rbx
 182:testHexIO.cpp **** 	bufDestroy(&data);
 4741              		.loc 4 182 0
 4742 1db4 E8000000 		call	__cxa_end_catch@PLT
 4742      00
 4743 1db9 4889D8   		movq	%rbx, %rax
 4744 1dbc 4889C7   		movq	%rax, %rdi
 4745              	.LEHB203:
 4746 1dbf E8000000 		call	_Unwind_Resume@PLT
 4746      00
 4747              	.LEHE203:
 4748              	.L286:
 4749              		.loc 4 184 0 is_stmt 1
 4750 1dc4 E8000000 		call	__stack_chk_fail@PLT
 4750      00
 4751              	.L279:
 4752 1dc9 488B5DF8 		movq	-8(%rbp), %rbx
 4753 1dcd C9       		leave
 4754              		.cfi_def_cfa 7, 8
 4755 1dce C3       		ret
 4756              		.cfi_endproc
 4757              	.LFE1199:
 4758              		.section	.gcc_except_table
 4759              		.align 4
 4760              	.LLSDA1199:
 4761 0488 FF       		.byte	0xff
 4762 0489 9B       		.byte	0x9b
 4763 048a 51       		.uleb128 .LLSDATT1199-.LLSDATTD1199
 4764              	.LLSDATTD1199:
 4765 048b 01       		.byte	0x1
 4766 048c 44       		.uleb128 .LLSDACSE1199-.LLSDACSB1199
 4767              	.LLSDACSB1199:
 4768 048d 4A       		.uleb128 .LEHB191-.LFB1199
 4769 048e 05       		.uleb128 .LEHE191-.LEHB191
 4770 048f 00       		.uleb128 0
 4771 0490 00       		.uleb128 0
 4772 0491 52       		.uleb128 .LEHB192-.LFB1199
 4773 0492 1C       		.uleb128 .LEHE192-.LEHB192
 4774 0493 AC02     		.uleb128 .L280-.LFB1199
 4775 0495 01       		.uleb128 0x1
 4776 0496 75       		.uleb128 .LEHB193-.LFB1199
 4777 0497 1C       		.uleb128 .LEHE193-.LEHB193
 4778 0498 AA02     		.uleb128 .L281-.LFB1199
 4779 049a 03       		.uleb128 0x3
 4780 049b BA01     		.uleb128 .LEHB194-.LFB1199
 4781 049d 05       		.uleb128 .LEHE194-.LEHB194
 4782 049e 00       		.uleb128 0
 4783 049f 00       		.uleb128 0
 4784 04a0 C601     		.uleb128 .LEHB195-.LFB1199
 4785 04a2 1C       		.uleb128 .LEHE195-.LEHB195
 4786 04a3 8D03     		.uleb128 .L283-.LFB1199
 4787 04a5 01       		.uleb128 0x1
 4788 04a6 E901     		.uleb128 .LEHB196-.LFB1199
 4789 04a8 1C       		.uleb128 .LEHE196-.LEHB196
 4790 04a9 8B03     		.uleb128 .L284-.LFB1199
 4791 04ab 03       		.uleb128 0x3
 4792 04ac 8C02     		.uleb128 .LEHB197-.LFB1199
 4793 04ae 05       		.uleb128 .LEHE197-.LEHB197
 4794 04af 00       		.uleb128 0
 4795 04b0 00       		.uleb128 0
 4796 04b1 B402     		.uleb128 .LEHB198-.LFB1199
 4797 04b3 3A       		.uleb128 .LEHE198-.LEHB198
 4798 04b4 F802     		.uleb128 .L282-.LFB1199
 4799 04b6 00       		.uleb128 0
 4800 04b7 EE02     		.uleb128 .LEHB199-.LFB1199
 4801 04b9 05       		.uleb128 .LEHE199-.LEHB199
 4802 04ba 00       		.uleb128 0
 4803 04bb 00       		.uleb128 0
 4804 04bc 8603     		.uleb128 .LEHB200-.LFB1199
 4805 04be 05       		.uleb128 .LEHE200-.LEHB200
 4806 04bf 00       		.uleb128 0
 4807 04c0 00       		.uleb128 0
 4808 04c1 9503     		.uleb128 .LEHB201-.LFB1199
 4809 04c3 3A       		.uleb128 .LEHE201-.LEHB201
 4810 04c4 D903     		.uleb128 .L285-.LFB1199
 4811 04c6 00       		.uleb128 0
 4812 04c7 CF03     		.uleb128 .LEHB202-.LFB1199
 4813 04c9 05       		.uleb128 .LEHE202-.LEHB202
 4814 04ca 00       		.uleb128 0
 4815 04cb 00       		.uleb128 0
 4816 04cc E703     		.uleb128 .LEHB203-.LFB1199
 4817 04ce 05       		.uleb128 .LEHE203-.LEHB203
 4818 04cf 00       		.uleb128 0
 4819 04d0 00       		.uleb128 0
 4820              	.LLSDACSE1199:
 4821 04d1 01       		.byte	0x1
 4822 04d2 00       		.byte	0
 4823 04d3 00       		.byte	0
 4824 04d4 7D       		.byte	0x7d
 4825 04d5 000000   		.align 4
 4826 04d8 00000000 		.long	0
 4827              	
 4828              	.LLSDATT1199:
 4829              		.text
 4831              		.section	.rodata
 4832              	.LC43:
 4833 06b5 746D7046 		.string	"tmpFile.hex"
 4833      696C652E 
 4833      68657800 
 4834              	.LC44:
 4835 06c1 66696C65 		.string	"file.is_open()"
 4835      2E69735F 
 4835      6F70656E 
 4835      282900
 4836              		.align 8
 4837              	.LC45:
 4838 06d0 556E6861 		.string	"Unhandled exception in CHECK(file.is_open())"
 4838      6E646C65 
 4838      64206578 
 4838      63657074 
 4838      696F6E20 
 4839 06fd 000000   		.align 8
 4840              	.LC46:
 4841 0700 556E6861 		.string	"Unhandled exception in CHECK_EQUAL(expected.size(), (unsigned int)length)"
 4841      6E646C65 
 4841      64206578 
 4841      63657074 
 4841      696F6E20 
 4842 074a 00000000 		.align 8
 4842      0000
 4843              	.LC47:
 4844 0750 556E6861 		.string	"Unhandled exception in CHECK_ARRAY_EQUAL(expected.c_str(), (const char *)fileData)"
 4844      6E646C65 
 4844      64206578 
 4844      63657074 
 4844      696F6E20 
 4845 07a3 00000000 		.align 8
 4845      00
 4846              	.LC48:
 4847 07a8 556E6861 		.string	"Unhandled exception in CHECK_EQUAL(data.length, readbackData.length)"
