   1              		.file	"testConv.cpp"
   2              		.text
   3              	.Ltext0:
   4              		.section	.rodata
   5              	.LC0:
   6 0000 44656661 		.string	"DefaultSuite"
   6      756C7453 
   6      75697465 
   6      00
   7              		.section	.text._ZN13UnitTestSuite12GetSuiteNameEv,"axG",@progbits,_ZN13UnitTestSuite12GetSuiteName
   8              		.weak	_ZN13UnitTestSuite12GetSuiteNameEv
  10              	_ZN13UnitTestSuite12GetSuiteNameEv:
  11              	.LFB0:
  12              		.file 1 "/home/gani/eval/20140524/makestuff/libs/libutpp/TestSuite.h"
   1:/home/gani/eval/20140524/makestuff/libs/libutpp/TestSuite.h **** #ifndef UNITTEST_TESTSUITE_H
   2:/home/gani/eval/20140524/makestuff/libs/libutpp/TestSuite.h **** #define UNITTEST_TESTSUITE_H
   3:/home/gani/eval/20140524/makestuff/libs/libutpp/TestSuite.h **** 
   4:/home/gani/eval/20140524/makestuff/libs/libutpp/TestSuite.h **** namespace UnitTestSuite {
   5:/home/gani/eval/20140524/makestuff/libs/libutpp/TestSuite.h **** 
   6:/home/gani/eval/20140524/makestuff/libs/libutpp/TestSuite.h ****     inline char const* GetSuiteName ()
   7:/home/gani/eval/20140524/makestuff/libs/libutpp/TestSuite.h ****     {
  13              		.loc 1 7 0
  14              		.cfi_startproc
  15 0000 55       		pushq	%rbp
  16              		.cfi_def_cfa_offset 16
  17              		.cfi_offset 6, -16
  18 0001 4889E5   		movq	%rsp, %rbp
  19              		.cfi_def_cfa_register 6
   8:/home/gani/eval/20140524/makestuff/libs/libutpp/TestSuite.h ****         return "DefaultSuite";
  20              		.loc 1 8 0
  21 0004 488D0500 		leaq	.LC0(%rip), %rax
  21      000000
   9:/home/gani/eval/20140524/makestuff/libs/libutpp/TestSuite.h ****     }
  22              		.loc 1 9 0
  23 000b 5D       		popq	%rbp
  24              		.cfi_def_cfa 7, 8
  25 000c C3       		ret
  26              		.cfi_endproc
  27              	.LFE0:
  29              		.section	.text._ZN8UnitTest15MemoryOutStreamC1Ev,"axG",@progbits,_ZN8UnitTest15MemoryOutStreamC1Ev
  30              		.align 2
  31              		.weak	_ZN8UnitTest15MemoryOutStreamC1Ev
  33              	_ZN8UnitTest15MemoryOutStreamC1Ev:
  34              	.LFB1076:
  35              		.file 2 "/home/gani/eval/20140524/makestuff/libs/libutpp/MemoryOutStream.h"
   1:/home/gani/eval/20140524/makestuff/libs/libutpp/MemoryOutStream.h **** #ifndef UNITTEST_MEMORYOUTSTREAM_H
   2:/home/gani/eval/20140524/makestuff/libs/libutpp/MemoryOutStream.h **** #define UNITTEST_MEMORYOUTSTREAM_H
   3:/home/gani/eval/20140524/makestuff/libs/libutpp/MemoryOutStream.h **** 
   4:/home/gani/eval/20140524/makestuff/libs/libutpp/MemoryOutStream.h **** #include "Config.h"
   5:/home/gani/eval/20140524/makestuff/libs/libutpp/MemoryOutStream.h **** 
   6:/home/gani/eval/20140524/makestuff/libs/libutpp/MemoryOutStream.h **** #ifndef UNITTEST_USE_CUSTOM_STREAMS
   7:/home/gani/eval/20140524/makestuff/libs/libutpp/MemoryOutStream.h **** 
   8:/home/gani/eval/20140524/makestuff/libs/libutpp/MemoryOutStream.h **** #include <sstream>
   9:/home/gani/eval/20140524/makestuff/libs/libutpp/MemoryOutStream.h **** 
  10:/home/gani/eval/20140524/makestuff/libs/libutpp/MemoryOutStream.h **** namespace UnitTest
  11:/home/gani/eval/20140524/makestuff/libs/libutpp/MemoryOutStream.h **** {
  12:/home/gani/eval/20140524/makestuff/libs/libutpp/MemoryOutStream.h **** 
  13:/home/gani/eval/20140524/makestuff/libs/libutpp/MemoryOutStream.h **** class MemoryOutStream : public std::ostringstream
  14:/home/gani/eval/20140524/makestuff/libs/libutpp/MemoryOutStream.h **** {
  15:/home/gani/eval/20140524/makestuff/libs/libutpp/MemoryOutStream.h **** public:
  16:/home/gani/eval/20140524/makestuff/libs/libutpp/MemoryOutStream.h ****     MemoryOutStream() {}
  36              		.loc 2 16 0
  37              		.cfi_startproc
  38              		.cfi_personality 0x9b,DW.ref.__gxx_personality_v0
  39              		.cfi_lsda 0x1b,.LLSDA1076
  40 0000 55       		pushq	%rbp
  41              		.cfi_def_cfa_offset 16
  42              		.cfi_offset 6, -16
  43 0001 4889E5   		movq	%rsp, %rbp
  44              		.cfi_def_cfa_register 6
  45 0004 53       		pushq	%rbx
  46 0005 4883EC18 		subq	$24, %rsp
  47              		.cfi_offset 3, -24
  48 0009 48897DE8 		movq	%rdi, -24(%rbp)
  49              	.LBB2:
  50              		.loc 2 16 0
  51 000d 488B45E8 		movq	-24(%rbp), %rax
  52 0011 48059000 		addq	$144, %rax
  52      0000
  53 0017 4889C7   		movq	%rax, %rdi
  54              	.LEHB0:
  55 001a E8000000 		call	_ZNSt9basic_iosIcSt11char_traitsIcEEC2Ev@PLT
  55      00
  56              	.LEHE0:
  57 001f 488B45E8 		movq	-24(%rbp), %rax
  58 0023 488D0D00 		leaq	8+_ZTTN8UnitTest15MemoryOutStreamE(%rip), %rcx
  58      000000
  59 002a BA100000 		movl	$16, %edx
  59      00
  60 002f 4889CE   		movq	%rcx, %rsi
  61 0032 4889C7   		movq	%rax, %rdi
  62              	.LEHB1:
  63 0035 E8000000 		call	_ZNSt7__cxx1119basic_ostringstreamIcSt11char_traitsIcESaIcEEC2ESt13_Ios_Openmode@PLT
  63      00
  64              	.LEHE1:
  65              		.loc 2 16 0 is_stmt 0 discriminator 8
  66 003a 488D1500 		leaq	24+_ZTVN8UnitTest15MemoryOutStreamE(%rip), %rdx
  66      000000
  67 0041 488B45E8 		movq	-24(%rbp), %rax
  68 0045 488910   		movq	%rdx, (%rax)
  69 0048 488B45E8 		movq	-24(%rbp), %rax
  70 004c 488D9090 		leaq	144(%rax), %rdx
  70      000000
  71 0053 488D0500 		leaq	64+_ZTVN8UnitTest15MemoryOutStreamE(%rip), %rax
  71      000000
  72 005a 488902   		movq	%rax, (%rdx)
  73 005d 488B45E8 		movq	-24(%rbp), %rax
  74 0061 4883C070 		addq	$112, %rax
  75 0065 4889C7   		movq	%rax, %rdi
  76              	.LEHB2:
  77 0068 E8000000 		call	_ZNSt7__cxx1112basic_stringIcSt11char_traitsIcESaIcEEC1Ev@PLT
  77      00
  78              	.LEHE2:
  79              	.LBE2:
  80              		.loc 2 16 0
  81 006d EB3B     		jmp	.L9
  82              	.L7:
  83 006f 4889C3   		movq	%rax, %rbx
  84              	.LBB3:
  85 0072 488B45E8 		movq	-24(%rbp), %rax
  86 0076 488D1500 		leaq	8+_ZTTN8UnitTest15MemoryOutStreamE(%rip), %rdx
  86      000000
  87 007d 4889D6   		movq	%rdx, %rsi
  88 0080 4889C7   		movq	%rax, %rdi
  89 0083 E8000000 		call	_ZNSt7__cxx1119basic_ostringstreamIcSt11char_traitsIcESaIcEED2Ev@PLT
  89      00
  90 0088 EB03     		jmp	.L8
  91              	.L6:
  92 008a 4889C3   		movq	%rax, %rbx
  93              	.L8:
  94              		.loc 2 16 0 discriminator 11
  95 008d 488B45E8 		movq	-24(%rbp), %rax
  96 0091 48059000 		addq	$144, %rax
  96      0000
  97 0097 4889C7   		movq	%rax, %rdi
  98 009a E8000000 		call	_ZNSt9basic_iosIcSt11char_traitsIcEED2Ev@PLT
  98      00
  99 009f 4889D8   		movq	%rbx, %rax
 100 00a2 4889C7   		movq	%rax, %rdi
 101              	.LEHB3:
 102 00a5 E8000000 		call	_Unwind_Resume@PLT
 102      00
 103              	.LEHE3:
 104              	.L9:
 105              	.LBE3:
 106              		.loc 2 16 0
 107 00aa 4883C418 		addq	$24, %rsp
 108 00ae 5B       		popq	%rbx
 109 00af 5D       		popq	%rbp
 110              		.cfi_def_cfa 7, 8
 111 00b0 C3       		ret
 112              		.cfi_endproc
 113              	.LFE1076:
 114              		.globl	__gxx_personality_v0
 115              		.section	.gcc_except_table._ZN8UnitTest15MemoryOutStreamC1Ev,"aG",@progbits,_ZN8UnitTest15MemoryOu
 116              	.LLSDA1076:
 117 0000 FF       		.byte	0xff
 118 0001 FF       		.byte	0xff
 119 0002 01       		.byte	0x1
 120 0003 12       		.uleb128 .LLSDACSE1076-.LLSDACSB1076
 121              	.LLSDACSB1076:
 122 0004 1A       		.uleb128 .LEHB0-.LFB1076
 123 0005 05       		.uleb128 .LEHE0-.LEHB0
 124 0006 00       		.uleb128 0
 125 0007 00       		.uleb128 0
 126 0008 35       		.uleb128 .LEHB1-.LFB1076
 127 0009 05       		.uleb128 .LEHE1-.LEHB1
 128 000a 8A01     		.uleb128 .L6-.LFB1076
 129 000c 00       		.uleb128 0
 130 000d 68       		.uleb128 .LEHB2-.LFB1076
 131 000e 05       		.uleb128 .LEHE2-.LEHB2
 132 000f 6F       		.uleb128 .L7-.LFB1076
 133 0010 00       		.uleb128 0
 134 0011 A501     		.uleb128 .LEHB3-.LFB1076
 135 0013 05       		.uleb128 .LEHE3-.LEHB3
 136 0014 00       		.uleb128 0
 137 0015 00       		.uleb128 0
 138              	.LLSDACSE1076:
 139              		.section	.text._ZN8UnitTest15MemoryOutStreamC1Ev,"axG",@progbits,_ZN8UnitTest15MemoryOutStreamC1Ev
 141              		.section	.rodata
 142              	.LC1:
 143 000d 74657374 		.string	"testConv.cpp"
 143      436F6E76 
 143      2E637070 
 143      00
 144              	.LC2:
 145 001a 436F6E76 		.string	"Conv_testGetHexNibble"
 145      5F746573 
 145      74476574 
 145      4865784E 
 145      6962626C 
 146              		.section	.text._ZN25TestConv_testGetHexNibbleC2Ev,"axG",@progbits,_ZN25TestConv_testGetHexNibbleC5
 147              		.align 2
 148              		.weak	_ZN25TestConv_testGetHexNibbleC2Ev
 150              	_ZN25TestConv_testGetHexNibbleC2Ev:
 151              	.LFB1093:
 152              		.file 3 "testConv.cpp"
   1:testConv.cpp  **** /*
   2:testConv.cpp  ****  * Copyright (C) 2009-2012 Chris McClelland
   3:testConv.cpp  ****  *
   4:testConv.cpp  ****  * This program is free software: you can redistribute it and/or modify
   5:testConv.cpp  ****  * it under the terms of the GNU Lesser General Public License as published by
   6:testConv.cpp  ****  * the Free Software Foundation, either version 3 of the License, or
   7:testConv.cpp  ****  * (at your option) any later version.
   8:testConv.cpp  ****  *
   9:testConv.cpp  ****  * This program is distributed in the hope that it will be useful,
  10:testConv.cpp  ****  * but WITHOUT ANY WARRANTY; without even the implied warranty of
  11:testConv.cpp  ****  * MERCHANTABILITY or FITNESS FOR A PARTICULAR PURPOSE.  See the
  12:testConv.cpp  ****  * GNU Lesser General Public License for more details.
  13:testConv.cpp  ****  *
  14:testConv.cpp  ****  * You should have received a copy of the GNU Lesser General Public License
  15:testConv.cpp  ****  * along with this program.  If not, see <http://www.gnu.org/licenses/>.
  16:testConv.cpp  ****  */
  17:testConv.cpp  **** #include <UnitTest++.h>
  18:testConv.cpp  **** #include "../conv.h"
  19:testConv.cpp  **** 
  20:testConv.cpp  **** TEST(Conv_testGetHexNibble) {
 153              		.loc 3 20 0 is_stmt 1
 154              		.cfi_startproc
 155 0000 55       		pushq	%rbp
 156              		.cfi_def_cfa_offset 16
 157              		.cfi_offset 6, -16
 158 0001 4889E5   		movq	%rsp, %rbp
 159              		.cfi_def_cfa_register 6
 160 0004 53       		pushq	%rbx
 161 0005 4883EC18 		subq	$24, %rsp
 162              		.cfi_offset 3, -24
 163 0009 48897DE8 		movq	%rdi, -24(%rbp)
 164              	.LBB4:
 165              		.loc 3 20 0
 166 000d 488B5DE8 		movq	-24(%rbp), %rbx
 167 0011 E8000000 		call	_ZN13UnitTestSuite12GetSuiteNameEv
 167      00
 168 0016 41B81400 		movl	$20, %r8d
 168      0000
 169 001c 488D0D00 		leaq	.LC1(%rip), %rcx
 169      000000
 170 0023 4889C2   		movq	%rax, %rdx
 171 0026 488D3500 		leaq	.LC2(%rip), %rsi
 171      000000
 172 002d 4889DF   		movq	%rbx, %rdi
 173 0030 E8000000 		call	_ZN8UnitTest4TestC2EPKcS2_S2_i@PLT
 173      00
 174 0035 488D1500 		leaq	16+_ZTV25TestConv_testGetHexNibble(%rip), %rdx
 174      000000
 175 003c 488B45E8 		movq	-24(%rbp), %rax
 176 0040 488910   		movq	%rdx, (%rax)
 177              	.LBE4:
 178 0043 90       		nop
 179 0044 4883C418 		addq	$24, %rsp
 180 0048 5B       		popq	%rbx
 181 0049 5D       		popq	%rbp
 182              		.cfi_def_cfa 7, 8
 183 004a C3       		ret
 184              		.cfi_endproc
 185              	.LFE1093:
 187              		.weak	_ZN25TestConv_testGetHexNibbleC1Ev
 188              		.set	_ZN25TestConv_testGetHexNibbleC1Ev,_ZN25TestConv_testGetHexNibbleC2Ev
 189              		.globl	testConv_testGetHexNibbleInstance
 190              		.bss
 191              		.align 32
 194              	testConv_testGetHexNibbleInstance:
 195 0000 00000000 		.zero	56
 195      00000000 
 195      00000000 
 195      00000000 
 195      00000000 
 196              		.globl	adderConv_testGetHexNibble
 199              	adderConv_testGetHexNibble:
 200 0038 00       		.zero	1
 201              		.section	.rodata
 202              		.align 8
 203              	.LC3:
 204 0030 556E6861 		.string	"Unhandled exception in CHECK_EQUAL(false, status)"
 204      6E646C65 
 204      64206578 
 204      63657074 
 204      696F6E20 
 205 0062 00000000 		.align 8
 205      0000
 206              	.LC4:
 207 0068 556E6861 		.string	"Unhandled exception in CHECK_EQUAL(0, nibble)"
 207      6E646C65 
 207      64206578 
 207      63657074 
 207      696F6E20 
 208 0096 0000     		.align 8
 209              	.LC5:
 210 0098 556E6861 		.string	"Unhandled exception in CHECK_EQUAL(1, nibble)"
 210      6E646C65 
 210      64206578 
 210      63657074 
 210      696F6E20 
 211 00c6 0000     		.align 8
 212              	.LC6:
 213 00c8 556E6861 		.string	"Unhandled exception in CHECK_EQUAL(2, nibble)"
 213      6E646C65 
 213      64206578 
 213      63657074 
 213      696F6E20 
 214 00f6 0000     		.align 8
 215              	.LC7:
 216 00f8 556E6861 		.string	"Unhandled exception in CHECK_EQUAL(3, nibble)"
 216      6E646C65 
 216      64206578 
 216      63657074 
 216      696F6E20 
 217 0126 0000     		.align 8
 218              	.LC8:
 219 0128 556E6861 		.string	"Unhandled exception in CHECK_EQUAL(4, nibble)"
 219      6E646C65 
 219      64206578 
 219      63657074 
 219      696F6E20 
 220 0156 0000     		.align 8
 221              	.LC9:
 222 0158 556E6861 		.string	"Unhandled exception in CHECK_EQUAL(5, nibble)"
 222      6E646C65 
 222      64206578 
 222      63657074 
 222      696F6E20 
 223 0186 0000     		.align 8
 224              	.LC10:
 225 0188 556E6861 		.string	"Unhandled exception in CHECK_EQUAL(6, nibble)"
 225      6E646C65 
 225      64206578 
 225      63657074 
 225      696F6E20 
 226 01b6 0000     		.align 8
 227              	.LC11:
 228 01b8 556E6861 		.string	"Unhandled exception in CHECK_EQUAL(7, nibble)"
 228      6E646C65 
 228      64206578 
 228      63657074 
 228      696F6E20 
 229 01e6 0000     		.align 8
 230              	.LC12:
 231 01e8 556E6861 		.string	"Unhandled exception in CHECK_EQUAL(8, nibble)"
 231      6E646C65 
 231      64206578 
 231      63657074 
 231      696F6E20 
 232 0216 0000     		.align 8
 233              	.LC13:
 234 0218 556E6861 		.string	"Unhandled exception in CHECK_EQUAL(9, nibble)"
 234      6E646C65 
 234      64206578 
 234      63657074 
 234      696F6E20 
 235 0246 0000     		.align 8
 236              	.LC14:
 237 0248 556E6861 		.string	"Unhandled exception in CHECK_EQUAL(10, nibble)"
 237      6E646C65 
 237      64206578 
 237      63657074 
 237      696F6E20 
 238 0277 00       		.align 8
 239              	.LC15:
 240 0278 556E6861 		.string	"Unhandled exception in CHECK_EQUAL(11, nibble)"
 240      6E646C65 
 240      64206578 
 240      63657074 
 240      696F6E20 
 241 02a7 00       		.align 8
 242              	.LC16:
 243 02a8 556E6861 		.string	"Unhandled exception in CHECK_EQUAL(12, nibble)"
 243      6E646C65 
 243      64206578 
 243      63657074 
 243      696F6E20 
 244 02d7 00       		.align 8
 245              	.LC17:
 246 02d8 556E6861 		.string	"Unhandled exception in CHECK_EQUAL(13, nibble)"
 246      6E646C65 
 246      64206578 
 246      63657074 
 246      696F6E20 
 247 0307 00       		.align 8
 248              	.LC18:
 249 0308 556E6861 		.string	"Unhandled exception in CHECK_EQUAL(14, nibble)"
 249      6E646C65 
 249      64206578 
 249      63657074 
 249      696F6E20 
 250 0337 00       		.align 8
 251              	.LC19:
 252 0338 556E6861 		.string	"Unhandled exception in CHECK_EQUAL(15, nibble)"
 252      6E646C65 
 252      64206578 
 252      63657074 
 252      696F6E20 
 253 0367 00       		.align 8
 254              	.LC20:
 255 0368 556E6861 		.string	"Unhandled exception in CHECK_EQUAL(true, status)"
 255      6E646C65 
 255      64206578 
 255      63657074 
 255      696F6E20 
 256              		.text
 257              		.align 2
 258              		.globl	_ZNK25TestConv_testGetHexNibble7RunImplEv
 260              	_ZNK25TestConv_testGetHexNibble7RunImplEv:
 261              	.LFB1095:
 262              		.loc 3 20 0
 263              		.cfi_startproc
 264              		.cfi_personality 0x9b,DW.ref.__gxx_personality_v0
 265              		.cfi_lsda 0x1b,.LLSDA1095
 266 0000 55       		pushq	%rbp
 267              		.cfi_def_cfa_offset 16
 268              		.cfi_offset 6, -16
 269 0001 4889E5   		movq	%rsp, %rbp
 270              		.cfi_def_cfa_register 6
 271 0004 53       		pushq	%rbx
 272 0005 4883EC58 		subq	$88, %rsp
 273              		.cfi_offset 3, -24
 274 0009 48897DA8 		movq	%rdi, -88(%rbp)
 275              		.loc 3 20 0
 276 000d 64488B04 		movq	%fs:40, %rax
 276      25280000 
 276      00
 277 0016 488945E8 		movq	%rax, -24(%rbp)
 278 001a 31C0     		xorl	%eax, %eax
  21:testConv.cpp  **** 	uint8 nibble;
  22:testConv.cpp  **** 	bool status;
  23:testConv.cpp  **** 	status = getHexNibble('0', &nibble);
 279              		.loc 3 23 0
 280 001c 488D45BA 		leaq	-70(%rbp), %rax
 281 0020 4889C6   		movq	%rax, %rsi
 282 0023 BF300000 		movl	$48, %edi
 282      00
 283              	.LEHB4:
 284 0028 E8000000 		call	getHexNibble@PLT
 284      00
 285              	.LEHE4:
 286 002d 8845BB   		movb	%al, -69(%rbp)
 287              	.LEHB5:
  24:testConv.cpp  **** 	CHECK_EQUAL(false, status);
 288              		.loc 3 24 0
 289 0030 E8000000 		call	_ZN8UnitTest11CurrentTest7DetailsEv@PLT
 289      00
 290 0035 488B08   		movq	(%rax), %rcx
 291 0038 488D45C0 		leaq	-64(%rbp), %rax
 292 003c BA180000 		movl	$24, %edx
 292      00
 293 0041 4889CE   		movq	%rcx, %rsi
 294 0044 4889C7   		movq	%rax, %rdi
 295 0047 E8000000 		call	_ZN8UnitTest11TestDetailsC1ERKS0_i@PLT
 295      00
 296              	.LEHE5:
 297              		.loc 3 24 0 is_stmt 0 discriminator 2
 298 004c C645BC00 		movb	$0, -68(%rbp)
 299              	.LEHB6:
 300 0050 E8000000 		call	_ZN8UnitTest11CurrentTest7ResultsEv@PLT
 300      00
 301 0055 488B00   		movq	(%rax), %rax
 302 0058 488D4DC0 		leaq	-64(%rbp), %rcx
 303 005c 488D55BB 		leaq	-69(%rbp), %rdx
 304 0060 488D75BC 		leaq	-68(%rbp), %rsi
 305 0064 4889C7   		movq	%rax, %rdi
 306 0067 E8000000 		call	_ZN8UnitTest10CheckEqualIbbEEvRNS_11TestResultsERKT_RKT0_RKNS_11TestDetailsE
 306      00
 307              	.LEHE6:
 308              	.L14:
 309              	.LEHB7:
  25:testConv.cpp  **** 	CHECK_EQUAL(0, nibble);
 310              		.loc 3 25 0 is_stmt 1
 311 006c E8000000 		call	_ZN8UnitTest11CurrentTest7DetailsEv@PLT
 311      00
 312 0071 488B08   		movq	(%rax), %rcx
 313 0074 488D45C0 		leaq	-64(%rbp), %rax
 314 0078 BA190000 		movl	$25, %edx
 314      00
 315 007d 4889CE   		movq	%rcx, %rsi
 316 0080 4889C7   		movq	%rax, %rdi
 317 0083 E8000000 		call	_ZN8UnitTest11TestDetailsC1ERKS0_i@PLT
 317      00
 318              	.LEHE7:
 319              		.loc 3 25 0 is_stmt 0 discriminator 2
 320 0088 C745BC00 		movl	$0, -68(%rbp)
 320      000000
 321              	.LEHB8:
 322 008f E8000000 		call	_ZN8UnitTest11CurrentTest7ResultsEv@PLT
 322      00
 323 0094 488B00   		movq	(%rax), %rax
 324 0097 488D4DC0 		leaq	-64(%rbp), %rcx
 325 009b 488D55BA 		leaq	-70(%rbp), %rdx
 326 009f 488D75BC 		leaq	-68(%rbp), %rsi
 327 00a3 4889C7   		movq	%rax, %rdi
 328 00a6 E8000000 		call	_ZN8UnitTest10CheckEqualIihEEvRNS_11TestResultsERKT_RKT0_RKNS_11TestDetailsE
 328      00
 329              	.LEHE8:
 330              	.L18:
  26:testConv.cpp  **** 	status = getHexNibble('1', &nibble);
 331              		.loc 3 26 0 is_stmt 1
 332 00ab 488D45BA 		leaq	-70(%rbp), %rax
 333 00af 4889C6   		movq	%rax, %rsi
 334 00b2 BF310000 		movl	$49, %edi
 334      00
 335              	.LEHB9:
 336 00b7 E8000000 		call	getHexNibble@PLT
 336      00
 337              	.LEHE9:
 338 00bc 8845BB   		movb	%al, -69(%rbp)
 339              	.LEHB10:
  27:testConv.cpp  **** 	CHECK_EQUAL(false, status);
 340              		.loc 3 27 0
 341 00bf E8000000 		call	_ZN8UnitTest11CurrentTest7DetailsEv@PLT
 341      00
 342 00c4 488B08   		movq	(%rax), %rcx
 343 00c7 488D45C0 		leaq	-64(%rbp), %rax
 344 00cb BA1B0000 		movl	$27, %edx
 344      00
 345 00d0 4889CE   		movq	%rcx, %rsi
 346 00d3 4889C7   		movq	%rax, %rdi
 347 00d6 E8000000 		call	_ZN8UnitTest11TestDetailsC1ERKS0_i@PLT
 347      00
 348              	.LEHE10:
 349              		.loc 3 27 0 is_stmt 0 discriminator 2
 350 00db C645BC00 		movb	$0, -68(%rbp)
 351              	.LEHB11:
 352 00df E8000000 		call	_ZN8UnitTest11CurrentTest7ResultsEv@PLT
 352      00
 353 00e4 488B00   		movq	(%rax), %rax
 354 00e7 488D4DC0 		leaq	-64(%rbp), %rcx
 355 00eb 488D55BB 		leaq	-69(%rbp), %rdx
 356 00ef 488D75BC 		leaq	-68(%rbp), %rsi
 357 00f3 4889C7   		movq	%rax, %rdi
 358 00f6 E8000000 		call	_ZN8UnitTest10CheckEqualIbbEEvRNS_11TestResultsERKT_RKT0_RKNS_11TestDetailsE
 358      00
 359              	.LEHE11:
 360              	.L22:
 361              	.LEHB12:
  28:testConv.cpp  **** 	CHECK_EQUAL(1, nibble);
 362              		.loc 3 28 0 is_stmt 1
 363 00fb E8000000 		call	_ZN8UnitTest11CurrentTest7DetailsEv@PLT
 363      00
 364 0100 488B08   		movq	(%rax), %rcx
 365 0103 488D45C0 		leaq	-64(%rbp), %rax
 366 0107 BA1C0000 		movl	$28, %edx
 366      00
 367 010c 4889CE   		movq	%rcx, %rsi
 368 010f 4889C7   		movq	%rax, %rdi
 369 0112 E8000000 		call	_ZN8UnitTest11TestDetailsC1ERKS0_i@PLT
 369      00
 370              	.LEHE12:
 371              		.loc 3 28 0 is_stmt 0 discriminator 2
 372 0117 C745BC01 		movl	$1, -68(%rbp)
 372      000000
 373              	.LEHB13:
 374 011e E8000000 		call	_ZN8UnitTest11CurrentTest7ResultsEv@PLT
 374      00
 375 0123 488B00   		movq	(%rax), %rax
 376 0126 488D4DC0 		leaq	-64(%rbp), %rcx
 377 012a 488D55BA 		leaq	-70(%rbp), %rdx
 378 012e 488D75BC 		leaq	-68(%rbp), %rsi
 379 0132 4889C7   		movq	%rax, %rdi
 380 0135 E8000000 		call	_ZN8UnitTest10CheckEqualIihEEvRNS_11TestResultsERKT_RKT0_RKNS_11TestDetailsE
 380      00
 381              	.LEHE13:
 382              	.L26:
  29:testConv.cpp  **** 	status = getHexNibble('2', &nibble);
 383              		.loc 3 29 0 is_stmt 1
 384 013a 488D45BA 		leaq	-70(%rbp), %rax
 385 013e 4889C6   		movq	%rax, %rsi
 386 0141 BF320000 		movl	$50, %edi
 386      00
 387              	.LEHB14:
 388 0146 E8000000 		call	getHexNibble@PLT
 388      00
 389              	.LEHE14:
 390 014b 8845BB   		movb	%al, -69(%rbp)
 391              	.LEHB15:
  30:testConv.cpp  **** 	CHECK_EQUAL(false, status);
 392              		.loc 3 30 0
 393 014e E8000000 		call	_ZN8UnitTest11CurrentTest7DetailsEv@PLT
 393      00
 394 0153 488B08   		movq	(%rax), %rcx
 395 0156 488D45C0 		leaq	-64(%rbp), %rax
 396 015a BA1E0000 		movl	$30, %edx
 396      00
 397 015f 4889CE   		movq	%rcx, %rsi
 398 0162 4889C7   		movq	%rax, %rdi
 399 0165 E8000000 		call	_ZN8UnitTest11TestDetailsC1ERKS0_i@PLT
 399      00
 400              	.LEHE15:
 401              		.loc 3 30 0 is_stmt 0 discriminator 2
 402 016a C645BC00 		movb	$0, -68(%rbp)
 403              	.LEHB16:
 404 016e E8000000 		call	_ZN8UnitTest11CurrentTest7ResultsEv@PLT
 404      00
 405 0173 488B00   		movq	(%rax), %rax
 406 0176 488D4DC0 		leaq	-64(%rbp), %rcx
 407 017a 488D55BB 		leaq	-69(%rbp), %rdx
 408 017e 488D75BC 		leaq	-68(%rbp), %rsi
 409 0182 4889C7   		movq	%rax, %rdi
 410 0185 E8000000 		call	_ZN8UnitTest10CheckEqualIbbEEvRNS_11TestResultsERKT_RKT0_RKNS_11TestDetailsE
 410      00
 411              	.LEHE16:
 412              	.L30:
 413              	.LEHB17:
  31:testConv.cpp  **** 	CHECK_EQUAL(2, nibble);
 414              		.loc 3 31 0 is_stmt 1
 415 018a E8000000 		call	_ZN8UnitTest11CurrentTest7DetailsEv@PLT
 415      00
 416 018f 488B08   		movq	(%rax), %rcx
 417 0192 488D45C0 		leaq	-64(%rbp), %rax
 418 0196 BA1F0000 		movl	$31, %edx
 418      00
 419 019b 4889CE   		movq	%rcx, %rsi
 420 019e 4889C7   		movq	%rax, %rdi
 421 01a1 E8000000 		call	_ZN8UnitTest11TestDetailsC1ERKS0_i@PLT
 421      00
 422              	.LEHE17:
 423              		.loc 3 31 0 is_stmt 0 discriminator 2
 424 01a6 C745BC02 		movl	$2, -68(%rbp)
 424      000000
 425              	.LEHB18:
 426 01ad E8000000 		call	_ZN8UnitTest11CurrentTest7ResultsEv@PLT
 426      00
 427 01b2 488B00   		movq	(%rax), %rax
 428 01b5 488D4DC0 		leaq	-64(%rbp), %rcx
 429 01b9 488D55BA 		leaq	-70(%rbp), %rdx
 430 01bd 488D75BC 		leaq	-68(%rbp), %rsi
 431 01c1 4889C7   		movq	%rax, %rdi
 432 01c4 E8000000 		call	_ZN8UnitTest10CheckEqualIihEEvRNS_11TestResultsERKT_RKT0_RKNS_11TestDetailsE
 432      00
 433              	.LEHE18:
 434              	.L34:
  32:testConv.cpp  **** 	status = getHexNibble('3', &nibble);
 435              		.loc 3 32 0 is_stmt 1
 436 01c9 488D45BA 		leaq	-70(%rbp), %rax
 437 01cd 4889C6   		movq	%rax, %rsi
 438 01d0 BF330000 		movl	$51, %edi
 438      00
 439              	.LEHB19:
 440 01d5 E8000000 		call	getHexNibble@PLT
 440      00
 441              	.LEHE19:
 442 01da 8845BB   		movb	%al, -69(%rbp)
 443              	.LEHB20:
  33:testConv.cpp  **** 	CHECK_EQUAL(false, status);
 444              		.loc 3 33 0
 445 01dd E8000000 		call	_ZN8UnitTest11CurrentTest7DetailsEv@PLT
 445      00
 446 01e2 488B08   		movq	(%rax), %rcx
 447 01e5 488D45C0 		leaq	-64(%rbp), %rax
 448 01e9 BA210000 		movl	$33, %edx
 448      00
 449 01ee 4889CE   		movq	%rcx, %rsi
 450 01f1 4889C7   		movq	%rax, %rdi
 451 01f4 E8000000 		call	_ZN8UnitTest11TestDetailsC1ERKS0_i@PLT
 451      00
 452              	.LEHE20:
 453              		.loc 3 33 0 is_stmt 0 discriminator 2
 454 01f9 C645BC00 		movb	$0, -68(%rbp)
 455              	.LEHB21:
 456 01fd E8000000 		call	_ZN8UnitTest11CurrentTest7ResultsEv@PLT
 456      00
 457 0202 488B00   		movq	(%rax), %rax
 458 0205 488D4DC0 		leaq	-64(%rbp), %rcx
 459 0209 488D55BB 		leaq	-69(%rbp), %rdx
 460 020d 488D75BC 		leaq	-68(%rbp), %rsi
 461 0211 4889C7   		movq	%rax, %rdi
 462 0214 E8000000 		call	_ZN8UnitTest10CheckEqualIbbEEvRNS_11TestResultsERKT_RKT0_RKNS_11TestDetailsE
 462      00
 463              	.LEHE21:
 464              	.L38:
 465              	.LEHB22:
  34:testConv.cpp  **** 	CHECK_EQUAL(3, nibble);
 466              		.loc 3 34 0 is_stmt 1
 467 0219 E8000000 		call	_ZN8UnitTest11CurrentTest7DetailsEv@PLT
 467      00
 468 021e 488B08   		movq	(%rax), %rcx
 469 0221 488D45C0 		leaq	-64(%rbp), %rax
 470 0225 BA220000 		movl	$34, %edx
 470      00
 471 022a 4889CE   		movq	%rcx, %rsi
 472 022d 4889C7   		movq	%rax, %rdi
 473 0230 E8000000 		call	_ZN8UnitTest11TestDetailsC1ERKS0_i@PLT
 473      00
 474              	.LEHE22:
 475              		.loc 3 34 0 is_stmt 0 discriminator 2
 476 0235 C745BC03 		movl	$3, -68(%rbp)
 476      000000
 477              	.LEHB23:
 478 023c E8000000 		call	_ZN8UnitTest11CurrentTest7ResultsEv@PLT
 478      00
 479 0241 488B00   		movq	(%rax), %rax
 480 0244 488D4DC0 		leaq	-64(%rbp), %rcx
 481 0248 488D55BA 		leaq	-70(%rbp), %rdx
 482 024c 488D75BC 		leaq	-68(%rbp), %rsi
 483 0250 4889C7   		movq	%rax, %rdi
 484 0253 E8000000 		call	_ZN8UnitTest10CheckEqualIihEEvRNS_11TestResultsERKT_RKT0_RKNS_11TestDetailsE
 484      00
 485              	.LEHE23:
 486              	.L42:
  35:testConv.cpp  **** 	status = getHexNibble('4', &nibble);
 487              		.loc 3 35 0 is_stmt 1
 488 0258 488D45BA 		leaq	-70(%rbp), %rax
 489 025c 4889C6   		movq	%rax, %rsi
 490 025f BF340000 		movl	$52, %edi
 490      00
 491              	.LEHB24:
 492 0264 E8000000 		call	getHexNibble@PLT
 492      00
 493              	.LEHE24:
 494 0269 8845BB   		movb	%al, -69(%rbp)
 495              	.LEHB25:
  36:testConv.cpp  **** 	CHECK_EQUAL(false, status);
 496              		.loc 3 36 0
 497 026c E8000000 		call	_ZN8UnitTest11CurrentTest7DetailsEv@PLT
 497      00
 498 0271 488B08   		movq	(%rax), %rcx
 499 0274 488D45C0 		leaq	-64(%rbp), %rax
 500 0278 BA240000 		movl	$36, %edx
 500      00
 501 027d 4889CE   		movq	%rcx, %rsi
 502 0280 4889C7   		movq	%rax, %rdi
 503 0283 E8000000 		call	_ZN8UnitTest11TestDetailsC1ERKS0_i@PLT
 503      00
 504              	.LEHE25:
 505              		.loc 3 36 0 is_stmt 0 discriminator 2
 506 0288 C645BC00 		movb	$0, -68(%rbp)
 507              	.LEHB26:
 508 028c E8000000 		call	_ZN8UnitTest11CurrentTest7ResultsEv@PLT
 508      00
 509 0291 488B00   		movq	(%rax), %rax
 510 0294 488D4DC0 		leaq	-64(%rbp), %rcx
 511 0298 488D55BB 		leaq	-69(%rbp), %rdx
 512 029c 488D75BC 		leaq	-68(%rbp), %rsi
 513 02a0 4889C7   		movq	%rax, %rdi
 514 02a3 E8000000 		call	_ZN8UnitTest10CheckEqualIbbEEvRNS_11TestResultsERKT_RKT0_RKNS_11TestDetailsE
 514      00
 515              	.LEHE26:
 516              	.L46:
 517              	.LEHB27:
  37:testConv.cpp  **** 	CHECK_EQUAL(4, nibble);
 518              		.loc 3 37 0 is_stmt 1
 519 02a8 E8000000 		call	_ZN8UnitTest11CurrentTest7DetailsEv@PLT
 519      00
 520 02ad 488B08   		movq	(%rax), %rcx
 521 02b0 488D45C0 		leaq	-64(%rbp), %rax
 522 02b4 BA250000 		movl	$37, %edx
 522      00
 523 02b9 4889CE   		movq	%rcx, %rsi
 524 02bc 4889C7   		movq	%rax, %rdi
 525 02bf E8000000 		call	_ZN8UnitTest11TestDetailsC1ERKS0_i@PLT
 525      00
 526              	.LEHE27:
 527              		.loc 3 37 0 is_stmt 0 discriminator 2
 528 02c4 C745BC04 		movl	$4, -68(%rbp)
 528      000000
 529              	.LEHB28:
 530 02cb E8000000 		call	_ZN8UnitTest11CurrentTest7ResultsEv@PLT
 530      00
 531 02d0 488B00   		movq	(%rax), %rax
 532 02d3 488D4DC0 		leaq	-64(%rbp), %rcx
 533 02d7 488D55BA 		leaq	-70(%rbp), %rdx
 534 02db 488D75BC 		leaq	-68(%rbp), %rsi
 535 02df 4889C7   		movq	%rax, %rdi
 536 02e2 E8000000 		call	_ZN8UnitTest10CheckEqualIihEEvRNS_11TestResultsERKT_RKT0_RKNS_11TestDetailsE
 536      00
 537              	.LEHE28:
 538              	.L50:
  38:testConv.cpp  **** 	status = getHexNibble('5', &nibble);
 539              		.loc 3 38 0 is_stmt 1
 540 02e7 488D45BA 		leaq	-70(%rbp), %rax
 541 02eb 4889C6   		movq	%rax, %rsi
 542 02ee BF350000 		movl	$53, %edi
 542      00
 543              	.LEHB29:
 544 02f3 E8000000 		call	getHexNibble@PLT
 544      00
 545              	.LEHE29:
 546 02f8 8845BB   		movb	%al, -69(%rbp)
 547              	.LEHB30:
  39:testConv.cpp  **** 	CHECK_EQUAL(false, status);
 548              		.loc 3 39 0
 549 02fb E8000000 		call	_ZN8UnitTest11CurrentTest7DetailsEv@PLT
 549      00
 550 0300 488B08   		movq	(%rax), %rcx
 551 0303 488D45C0 		leaq	-64(%rbp), %rax
 552 0307 BA270000 		movl	$39, %edx
 552      00
 553 030c 4889CE   		movq	%rcx, %rsi
 554 030f 4889C7   		movq	%rax, %rdi
 555 0312 E8000000 		call	_ZN8UnitTest11TestDetailsC1ERKS0_i@PLT
 555      00
 556              	.LEHE30:
 557              		.loc 3 39 0 is_stmt 0 discriminator 2
 558 0317 C645BC00 		movb	$0, -68(%rbp)
 559              	.LEHB31:
 560 031b E8000000 		call	_ZN8UnitTest11CurrentTest7ResultsEv@PLT
 560      00
 561 0320 488B00   		movq	(%rax), %rax
 562 0323 488D4DC0 		leaq	-64(%rbp), %rcx
 563 0327 488D55BB 		leaq	-69(%rbp), %rdx
 564 032b 488D75BC 		leaq	-68(%rbp), %rsi
 565 032f 4889C7   		movq	%rax, %rdi
 566 0332 E8000000 		call	_ZN8UnitTest10CheckEqualIbbEEvRNS_11TestResultsERKT_RKT0_RKNS_11TestDetailsE
 566      00
 567              	.LEHE31:
 568              	.L54:
 569              	.LEHB32:
  40:testConv.cpp  **** 	CHECK_EQUAL(5, nibble);
 570              		.loc 3 40 0 is_stmt 1
 571 0337 E8000000 		call	_ZN8UnitTest11CurrentTest7DetailsEv@PLT
 571      00
 572 033c 488B08   		movq	(%rax), %rcx
 573 033f 488D45C0 		leaq	-64(%rbp), %rax
 574 0343 BA280000 		movl	$40, %edx
 574      00
 575 0348 4889CE   		movq	%rcx, %rsi
 576 034b 4889C7   		movq	%rax, %rdi
 577 034e E8000000 		call	_ZN8UnitTest11TestDetailsC1ERKS0_i@PLT
 577      00
 578              	.LEHE32:
 579              		.loc 3 40 0 is_stmt 0 discriminator 2
 580 0353 C745BC05 		movl	$5, -68(%rbp)
 580      000000
 581              	.LEHB33:
 582 035a E8000000 		call	_ZN8UnitTest11CurrentTest7ResultsEv@PLT
 582      00
 583 035f 488B00   		movq	(%rax), %rax
 584 0362 488D4DC0 		leaq	-64(%rbp), %rcx
 585 0366 488D55BA 		leaq	-70(%rbp), %rdx
 586 036a 488D75BC 		leaq	-68(%rbp), %rsi
 587 036e 4889C7   		movq	%rax, %rdi
 588 0371 E8000000 		call	_ZN8UnitTest10CheckEqualIihEEvRNS_11TestResultsERKT_RKT0_RKNS_11TestDetailsE
 588      00
 589              	.LEHE33:
 590              	.L58:
  41:testConv.cpp  **** 	status = getHexNibble('6', &nibble);
 591              		.loc 3 41 0 is_stmt 1
 592 0376 488D45BA 		leaq	-70(%rbp), %rax
 593 037a 4889C6   		movq	%rax, %rsi
 594 037d BF360000 		movl	$54, %edi
 594      00
 595              	.LEHB34:
 596 0382 E8000000 		call	getHexNibble@PLT
 596      00
 597              	.LEHE34:
 598 0387 8845BB   		movb	%al, -69(%rbp)
 599              	.LEHB35:
  42:testConv.cpp  **** 	CHECK_EQUAL(false, status);
 600              		.loc 3 42 0
 601 038a E8000000 		call	_ZN8UnitTest11CurrentTest7DetailsEv@PLT
 601      00
 602 038f 488B08   		movq	(%rax), %rcx
 603 0392 488D45C0 		leaq	-64(%rbp), %rax
 604 0396 BA2A0000 		movl	$42, %edx
 604      00
 605 039b 4889CE   		movq	%rcx, %rsi
 606 039e 4889C7   		movq	%rax, %rdi
 607 03a1 E8000000 		call	_ZN8UnitTest11TestDetailsC1ERKS0_i@PLT
 607      00
 608              	.LEHE35:
 609              		.loc 3 42 0 is_stmt 0 discriminator 2
 610 03a6 C645BC00 		movb	$0, -68(%rbp)
 611              	.LEHB36:
 612 03aa E8000000 		call	_ZN8UnitTest11CurrentTest7ResultsEv@PLT
 612      00
 613 03af 488B00   		movq	(%rax), %rax
 614 03b2 488D4DC0 		leaq	-64(%rbp), %rcx
 615 03b6 488D55BB 		leaq	-69(%rbp), %rdx
 616 03ba 488D75BC 		leaq	-68(%rbp), %rsi
 617 03be 4889C7   		movq	%rax, %rdi
 618 03c1 E8000000 		call	_ZN8UnitTest10CheckEqualIbbEEvRNS_11TestResultsERKT_RKT0_RKNS_11TestDetailsE
 618      00
 619              	.LEHE36:
 620              	.L62:
 621              	.LEHB37:
  43:testConv.cpp  **** 	CHECK_EQUAL(6, nibble);
 622              		.loc 3 43 0 is_stmt 1
 623 03c6 E8000000 		call	_ZN8UnitTest11CurrentTest7DetailsEv@PLT
 623      00
 624 03cb 488B08   		movq	(%rax), %rcx
 625 03ce 488D45C0 		leaq	-64(%rbp), %rax
 626 03d2 BA2B0000 		movl	$43, %edx
 626      00
 627 03d7 4889CE   		movq	%rcx, %rsi
 628 03da 4889C7   		movq	%rax, %rdi
 629 03dd E8000000 		call	_ZN8UnitTest11TestDetailsC1ERKS0_i@PLT
 629      00
 630              	.LEHE37:
 631              		.loc 3 43 0 is_stmt 0 discriminator 2
 632 03e2 C745BC06 		movl	$6, -68(%rbp)
 632      000000
 633              	.LEHB38:
 634 03e9 E8000000 		call	_ZN8UnitTest11CurrentTest7ResultsEv@PLT
 634      00
 635 03ee 488B00   		movq	(%rax), %rax
 636 03f1 488D4DC0 		leaq	-64(%rbp), %rcx
 637 03f5 488D55BA 		leaq	-70(%rbp), %rdx
 638 03f9 488D75BC 		leaq	-68(%rbp), %rsi
 639 03fd 4889C7   		movq	%rax, %rdi
 640 0400 E8000000 		call	_ZN8UnitTest10CheckEqualIihEEvRNS_11TestResultsERKT_RKT0_RKNS_11TestDetailsE
 640      00
 641              	.LEHE38:
 642              	.L66:
  44:testConv.cpp  **** 	status = getHexNibble('7', &nibble);
 643              		.loc 3 44 0 is_stmt 1
 644 0405 488D45BA 		leaq	-70(%rbp), %rax
 645 0409 4889C6   		movq	%rax, %rsi
 646 040c BF370000 		movl	$55, %edi
 646      00
 647              	.LEHB39:
 648 0411 E8000000 		call	getHexNibble@PLT
 648      00
 649              	.LEHE39:
 650 0416 8845BB   		movb	%al, -69(%rbp)
 651              	.LEHB40:
  45:testConv.cpp  **** 	CHECK_EQUAL(false, status);
 652              		.loc 3 45 0
 653 0419 E8000000 		call	_ZN8UnitTest11CurrentTest7DetailsEv@PLT
 653      00
 654 041e 488B08   		movq	(%rax), %rcx
 655 0421 488D45C0 		leaq	-64(%rbp), %rax
 656 0425 BA2D0000 		movl	$45, %edx
 656      00
 657 042a 4889CE   		movq	%rcx, %rsi
 658 042d 4889C7   		movq	%rax, %rdi
 659 0430 E8000000 		call	_ZN8UnitTest11TestDetailsC1ERKS0_i@PLT
 659      00
 660              	.LEHE40:
 661              		.loc 3 45 0 is_stmt 0 discriminator 2
 662 0435 C645BC00 		movb	$0, -68(%rbp)
 663              	.LEHB41:
 664 0439 E8000000 		call	_ZN8UnitTest11CurrentTest7ResultsEv@PLT
 664      00
 665 043e 488B00   		movq	(%rax), %rax
 666 0441 488D4DC0 		leaq	-64(%rbp), %rcx
 667 0445 488D55BB 		leaq	-69(%rbp), %rdx
 668 0449 488D75BC 		leaq	-68(%rbp), %rsi
 669 044d 4889C7   		movq	%rax, %rdi
 670 0450 E8000000 		call	_ZN8UnitTest10CheckEqualIbbEEvRNS_11TestResultsERKT_RKT0_RKNS_11TestDetailsE
 670      00
 671              	.LEHE41:
 672              	.L70:
 673              	.LEHB42:
  46:testConv.cpp  **** 	CHECK_EQUAL(7, nibble);
 674              		.loc 3 46 0 is_stmt 1
 675 0455 E8000000 		call	_ZN8UnitTest11CurrentTest7DetailsEv@PLT
 675      00
 676 045a 488B08   		movq	(%rax), %rcx
 677 045d 488D45C0 		leaq	-64(%rbp), %rax
 678 0461 BA2E0000 		movl	$46, %edx
 678      00
 679 0466 4889CE   		movq	%rcx, %rsi
 680 0469 4889C7   		movq	%rax, %rdi
 681 046c E8000000 		call	_ZN8UnitTest11TestDetailsC1ERKS0_i@PLT
 681      00
 682              	.LEHE42:
 683              		.loc 3 46 0 is_stmt 0 discriminator 2
 684 0471 C745BC07 		movl	$7, -68(%rbp)
 684      000000
 685              	.LEHB43:
 686 0478 E8000000 		call	_ZN8UnitTest11CurrentTest7ResultsEv@PLT
 686      00
 687 047d 488B00   		movq	(%rax), %rax
 688 0480 488D4DC0 		leaq	-64(%rbp), %rcx
 689 0484 488D55BA 		leaq	-70(%rbp), %rdx
 690 0488 488D75BC 		leaq	-68(%rbp), %rsi
 691 048c 4889C7   		movq	%rax, %rdi
 692 048f E8000000 		call	_ZN8UnitTest10CheckEqualIihEEvRNS_11TestResultsERKT_RKT0_RKNS_11TestDetailsE
 692      00
 693              	.LEHE43:
 694              	.L74:
  47:testConv.cpp  **** 	status = getHexNibble('8', &nibble);
 695              		.loc 3 47 0 is_stmt 1
 696 0494 488D45BA 		leaq	-70(%rbp), %rax
 697 0498 4889C6   		movq	%rax, %rsi
 698 049b BF380000 		movl	$56, %edi
 698      00
 699              	.LEHB44:
 700 04a0 E8000000 		call	getHexNibble@PLT
 700      00
 701              	.LEHE44:
 702 04a5 8845BB   		movb	%al, -69(%rbp)
 703              	.LEHB45:
  48:testConv.cpp  **** 	CHECK_EQUAL(false, status);
 704              		.loc 3 48 0
 705 04a8 E8000000 		call	_ZN8UnitTest11CurrentTest7DetailsEv@PLT
 705      00
 706 04ad 488B08   		movq	(%rax), %rcx
 707 04b0 488D45C0 		leaq	-64(%rbp), %rax
 708 04b4 BA300000 		movl	$48, %edx
 708      00
 709 04b9 4889CE   		movq	%rcx, %rsi
 710 04bc 4889C7   		movq	%rax, %rdi
 711 04bf E8000000 		call	_ZN8UnitTest11TestDetailsC1ERKS0_i@PLT
 711      00
 712              	.LEHE45:
 713              		.loc 3 48 0 is_stmt 0 discriminator 2
 714 04c4 C645BC00 		movb	$0, -68(%rbp)
 715              	.LEHB46:
 716 04c8 E8000000 		call	_ZN8UnitTest11CurrentTest7ResultsEv@PLT
 716      00
 717 04cd 488B00   		movq	(%rax), %rax
 718 04d0 488D4DC0 		leaq	-64(%rbp), %rcx
 719 04d4 488D55BB 		leaq	-69(%rbp), %rdx
 720 04d8 488D75BC 		leaq	-68(%rbp), %rsi
 721 04dc 4889C7   		movq	%rax, %rdi
 722 04df E8000000 		call	_ZN8UnitTest10CheckEqualIbbEEvRNS_11TestResultsERKT_RKT0_RKNS_11TestDetailsE
 722      00
 723              	.LEHE46:
 724              	.L78:
 725              	.LEHB47:
  49:testConv.cpp  **** 	CHECK_EQUAL(8, nibble);
 726              		.loc 3 49 0 is_stmt 1
 727 04e4 E8000000 		call	_ZN8UnitTest11CurrentTest7DetailsEv@PLT
 727      00
 728 04e9 488B08   		movq	(%rax), %rcx
 729 04ec 488D45C0 		leaq	-64(%rbp), %rax
 730 04f0 BA310000 		movl	$49, %edx
 730      00
 731 04f5 4889CE   		movq	%rcx, %rsi
 732 04f8 4889C7   		movq	%rax, %rdi
 733 04fb E8000000 		call	_ZN8UnitTest11TestDetailsC1ERKS0_i@PLT
 733      00
 734              	.LEHE47:
 735              		.loc 3 49 0 is_stmt 0 discriminator 2
 736 0500 C745BC08 		movl	$8, -68(%rbp)
 736      000000
 737              	.LEHB48:
 738 0507 E8000000 		call	_ZN8UnitTest11CurrentTest7ResultsEv@PLT
 738      00
 739 050c 488B00   		movq	(%rax), %rax
 740 050f 488D4DC0 		leaq	-64(%rbp), %rcx
 741 0513 488D55BA 		leaq	-70(%rbp), %rdx
 742 0517 488D75BC 		leaq	-68(%rbp), %rsi
 743 051b 4889C7   		movq	%rax, %rdi
 744 051e E8000000 		call	_ZN8UnitTest10CheckEqualIihEEvRNS_11TestResultsERKT_RKT0_RKNS_11TestDetailsE
 744      00
 745              	.LEHE48:
 746              	.L82:
  50:testConv.cpp  **** 	status = getHexNibble('9', &nibble);
 747              		.loc 3 50 0 is_stmt 1
 748 0523 488D45BA 		leaq	-70(%rbp), %rax
 749 0527 4889C6   		movq	%rax, %rsi
 750 052a BF390000 		movl	$57, %edi
 750      00
 751              	.LEHB49:
 752 052f E8000000 		call	getHexNibble@PLT
 752      00
 753              	.LEHE49:
 754 0534 8845BB   		movb	%al, -69(%rbp)
 755              	.LEHB50:
  51:testConv.cpp  **** 	CHECK_EQUAL(false, status);
 756              		.loc 3 51 0
 757 0537 E8000000 		call	_ZN8UnitTest11CurrentTest7DetailsEv@PLT
 757      00
 758 053c 488B08   		movq	(%rax), %rcx
 759 053f 488D45C0 		leaq	-64(%rbp), %rax
 760 0543 BA330000 		movl	$51, %edx
 760      00
 761 0548 4889CE   		movq	%rcx, %rsi
 762 054b 4889C7   		movq	%rax, %rdi
 763 054e E8000000 		call	_ZN8UnitTest11TestDetailsC1ERKS0_i@PLT
 763      00
 764              	.LEHE50:
 765              		.loc 3 51 0 is_stmt 0 discriminator 2
 766 0553 C645BC00 		movb	$0, -68(%rbp)
 767              	.LEHB51:
 768 0557 E8000000 		call	_ZN8UnitTest11CurrentTest7ResultsEv@PLT
 768      00
 769 055c 488B00   		movq	(%rax), %rax
 770 055f 488D4DC0 		leaq	-64(%rbp), %rcx
 771 0563 488D55BB 		leaq	-69(%rbp), %rdx
 772 0567 488D75BC 		leaq	-68(%rbp), %rsi
 773 056b 4889C7   		movq	%rax, %rdi
 774 056e E8000000 		call	_ZN8UnitTest10CheckEqualIbbEEvRNS_11TestResultsERKT_RKT0_RKNS_11TestDetailsE
 774      00
 775              	.LEHE51:
 776              	.L86:
 777              	.LEHB52:
  52:testConv.cpp  **** 	CHECK_EQUAL(9, nibble);
 778              		.loc 3 52 0 is_stmt 1
 779 0573 E8000000 		call	_ZN8UnitTest11CurrentTest7DetailsEv@PLT
 779      00
 780 0578 488B08   		movq	(%rax), %rcx
 781 057b 488D45C0 		leaq	-64(%rbp), %rax
 782 057f BA340000 		movl	$52, %edx
 782      00
 783 0584 4889CE   		movq	%rcx, %rsi
 784 0587 4889C7   		movq	%rax, %rdi
 785 058a E8000000 		call	_ZN8UnitTest11TestDetailsC1ERKS0_i@PLT
 785      00
 786              	.LEHE52:
 787              		.loc 3 52 0 is_stmt 0 discriminator 2
 788 058f C745BC09 		movl	$9, -68(%rbp)
 788      000000
 789              	.LEHB53:
 790 0596 E8000000 		call	_ZN8UnitTest11CurrentTest7ResultsEv@PLT
 790      00
 791 059b 488B00   		movq	(%rax), %rax
 792 059e 488D4DC0 		leaq	-64(%rbp), %rcx
 793 05a2 488D55BA 		leaq	-70(%rbp), %rdx
 794 05a6 488D75BC 		leaq	-68(%rbp), %rsi
 795 05aa 4889C7   		movq	%rax, %rdi
 796 05ad E8000000 		call	_ZN8UnitTest10CheckEqualIihEEvRNS_11TestResultsERKT_RKT0_RKNS_11TestDetailsE
 796      00
 797              	.LEHE53:
 798              	.L90:
  53:testConv.cpp  **** 	status = getHexNibble('A', &nibble);
 799              		.loc 3 53 0 is_stmt 1
 800 05b2 488D45BA 		leaq	-70(%rbp), %rax
 801 05b6 4889C6   		movq	%rax, %rsi
 802 05b9 BF410000 		movl	$65, %edi
 802      00
 803              	.LEHB54:
 804 05be E8000000 		call	getHexNibble@PLT
 804      00
 805              	.LEHE54:
 806 05c3 8845BB   		movb	%al, -69(%rbp)
 807              	.LEHB55:
  54:testConv.cpp  **** 	CHECK_EQUAL(false, status);
 808              		.loc 3 54 0
 809 05c6 E8000000 		call	_ZN8UnitTest11CurrentTest7DetailsEv@PLT
 809      00
 810 05cb 488B08   		movq	(%rax), %rcx
 811 05ce 488D45C0 		leaq	-64(%rbp), %rax
 812 05d2 BA360000 		movl	$54, %edx
 812      00
 813 05d7 4889CE   		movq	%rcx, %rsi
 814 05da 4889C7   		movq	%rax, %rdi
 815 05dd E8000000 		call	_ZN8UnitTest11TestDetailsC1ERKS0_i@PLT
 815      00
 816              	.LEHE55:
 817              		.loc 3 54 0 is_stmt 0 discriminator 2
 818 05e2 C645BC00 		movb	$0, -68(%rbp)
 819              	.LEHB56:
 820 05e6 E8000000 		call	_ZN8UnitTest11CurrentTest7ResultsEv@PLT
 820      00
 821 05eb 488B00   		movq	(%rax), %rax
 822 05ee 488D4DC0 		leaq	-64(%rbp), %rcx
 823 05f2 488D55BB 		leaq	-69(%rbp), %rdx
 824 05f6 488D75BC 		leaq	-68(%rbp), %rsi
 825 05fa 4889C7   		movq	%rax, %rdi
 826 05fd E8000000 		call	_ZN8UnitTest10CheckEqualIbbEEvRNS_11TestResultsERKT_RKT0_RKNS_11TestDetailsE
 826      00
 827              	.LEHE56:
 828              	.L94:
 829              	.LEHB57:
  55:testConv.cpp  **** 	CHECK_EQUAL(10, nibble);
 830              		.loc 3 55 0 is_stmt 1
 831 0602 E8000000 		call	_ZN8UnitTest11CurrentTest7DetailsEv@PLT
 831      00
 832 0607 488B08   		movq	(%rax), %rcx
 833 060a 488D45C0 		leaq	-64(%rbp), %rax
 834 060e BA370000 		movl	$55, %edx
 834      00
 835 0613 4889CE   		movq	%rcx, %rsi
 836 0616 4889C7   		movq	%rax, %rdi
 837 0619 E8000000 		call	_ZN8UnitTest11TestDetailsC1ERKS0_i@PLT
 837      00
 838              	.LEHE57:
 839              		.loc 3 55 0 is_stmt 0 discriminator 2
 840 061e C745BC0A 		movl	$10, -68(%rbp)
 840      000000
 841              	.LEHB58:
 842 0625 E8000000 		call	_ZN8UnitTest11CurrentTest7ResultsEv@PLT
 842      00
 843 062a 488B00   		movq	(%rax), %rax
 844 062d 488D4DC0 		leaq	-64(%rbp), %rcx
 845 0631 488D55BA 		leaq	-70(%rbp), %rdx
 846 0635 488D75BC 		leaq	-68(%rbp), %rsi
 847 0639 4889C7   		movq	%rax, %rdi
 848 063c E8000000 		call	_ZN8UnitTest10CheckEqualIihEEvRNS_11TestResultsERKT_RKT0_RKNS_11TestDetailsE
 848      00
 849              	.LEHE58:
 850              	.L98:
  56:testConv.cpp  **** 	status = getHexNibble('B', &nibble);
 851              		.loc 3 56 0 is_stmt 1
 852 0641 488D45BA 		leaq	-70(%rbp), %rax
 853 0645 4889C6   		movq	%rax, %rsi
 854 0648 BF420000 		movl	$66, %edi
 854      00
 855              	.LEHB59:
 856 064d E8000000 		call	getHexNibble@PLT
 856      00
 857              	.LEHE59:
 858 0652 8845BB   		movb	%al, -69(%rbp)
 859              	.LEHB60:
  57:testConv.cpp  **** 	CHECK_EQUAL(false, status);
 860              		.loc 3 57 0
 861 0655 E8000000 		call	_ZN8UnitTest11CurrentTest7DetailsEv@PLT
 861      00
 862 065a 488B08   		movq	(%rax), %rcx
 863 065d 488D45C0 		leaq	-64(%rbp), %rax
 864 0661 BA390000 		movl	$57, %edx
 864      00
 865 0666 4889CE   		movq	%rcx, %rsi
 866 0669 4889C7   		movq	%rax, %rdi
 867 066c E8000000 		call	_ZN8UnitTest11TestDetailsC1ERKS0_i@PLT
 867      00
 868              	.LEHE60:
 869              		.loc 3 57 0 is_stmt 0 discriminator 2
 870 0671 C645BC00 		movb	$0, -68(%rbp)
 871              	.LEHB61:
 872 0675 E8000000 		call	_ZN8UnitTest11CurrentTest7ResultsEv@PLT
 872      00
 873 067a 488B00   		movq	(%rax), %rax
 874 067d 488D4DC0 		leaq	-64(%rbp), %rcx
 875 0681 488D55BB 		leaq	-69(%rbp), %rdx
 876 0685 488D75BC 		leaq	-68(%rbp), %rsi
 877 0689 4889C7   		movq	%rax, %rdi
 878 068c E8000000 		call	_ZN8UnitTest10CheckEqualIbbEEvRNS_11TestResultsERKT_RKT0_RKNS_11TestDetailsE
 878      00
 879              	.LEHE61:
 880              	.L102:
 881              	.LEHB62:
  58:testConv.cpp  **** 	CHECK_EQUAL(11, nibble);
 882              		.loc 3 58 0 is_stmt 1
 883 0691 E8000000 		call	_ZN8UnitTest11CurrentTest7DetailsEv@PLT
 883      00
 884 0696 488B08   		movq	(%rax), %rcx
 885 0699 488D45C0 		leaq	-64(%rbp), %rax
 886 069d BA3A0000 		movl	$58, %edx
 886      00
 887 06a2 4889CE   		movq	%rcx, %rsi
 888 06a5 4889C7   		movq	%rax, %rdi
 889 06a8 E8000000 		call	_ZN8UnitTest11TestDetailsC1ERKS0_i@PLT
 889      00
 890              	.LEHE62:
 891              		.loc 3 58 0 is_stmt 0 discriminator 2
 892 06ad C745BC0B 		movl	$11, -68(%rbp)
 892      000000
 893              	.LEHB63:
 894 06b4 E8000000 		call	_ZN8UnitTest11CurrentTest7ResultsEv@PLT
 894      00
 895 06b9 488B00   		movq	(%rax), %rax
 896 06bc 488D4DC0 		leaq	-64(%rbp), %rcx
 897 06c0 488D55BA 		leaq	-70(%rbp), %rdx
 898 06c4 488D75BC 		leaq	-68(%rbp), %rsi
 899 06c8 4889C7   		movq	%rax, %rdi
 900 06cb E8000000 		call	_ZN8UnitTest10CheckEqualIihEEvRNS_11TestResultsERKT_RKT0_RKNS_11TestDetailsE
 900      00
 901              	.LEHE63:
 902              	.L106:
  59:testConv.cpp  **** 	status = getHexNibble('C', &nibble);
 903              		.loc 3 59 0 is_stmt 1
 904 06d0 488D45BA 		leaq	-70(%rbp), %rax
 905 06d4 4889C6   		movq	%rax, %rsi
 906 06d7 BF430000 		movl	$67, %edi
 906      00
 907              	.LEHB64:
 908 06dc E8000000 		call	getHexNibble@PLT
 908      00
 909              	.LEHE64:
 910 06e1 8845BB   		movb	%al, -69(%rbp)
 911              	.LEHB65:
  60:testConv.cpp  **** 	CHECK_EQUAL(false, status);
 912              		.loc 3 60 0
 913 06e4 E8000000 		call	_ZN8UnitTest11CurrentTest7DetailsEv@PLT
 913      00
 914 06e9 488B08   		movq	(%rax), %rcx
 915 06ec 488D45C0 		leaq	-64(%rbp), %rax
 916 06f0 BA3C0000 		movl	$60, %edx
 916      00
 917 06f5 4889CE   		movq	%rcx, %rsi
 918 06f8 4889C7   		movq	%rax, %rdi
 919 06fb E8000000 		call	_ZN8UnitTest11TestDetailsC1ERKS0_i@PLT
 919      00
 920              	.LEHE65:
 921              		.loc 3 60 0 is_stmt 0 discriminator 2
 922 0700 C645BC00 		movb	$0, -68(%rbp)
 923              	.LEHB66:
 924 0704 E8000000 		call	_ZN8UnitTest11CurrentTest7ResultsEv@PLT
 924      00
 925 0709 488B00   		movq	(%rax), %rax
 926 070c 488D4DC0 		leaq	-64(%rbp), %rcx
 927 0710 488D55BB 		leaq	-69(%rbp), %rdx
 928 0714 488D75BC 		leaq	-68(%rbp), %rsi
 929 0718 4889C7   		movq	%rax, %rdi
 930 071b E8000000 		call	_ZN8UnitTest10CheckEqualIbbEEvRNS_11TestResultsERKT_RKT0_RKNS_11TestDetailsE
 930      00
 931              	.LEHE66:
 932              	.L110:
 933              	.LEHB67:
  61:testConv.cpp  **** 	CHECK_EQUAL(12, nibble);
 934              		.loc 3 61 0 is_stmt 1
 935 0720 E8000000 		call	_ZN8UnitTest11CurrentTest7DetailsEv@PLT
 935      00
 936 0725 488B08   		movq	(%rax), %rcx
 937 0728 488D45C0 		leaq	-64(%rbp), %rax
 938 072c BA3D0000 		movl	$61, %edx
 938      00
 939 0731 4889CE   		movq	%rcx, %rsi
 940 0734 4889C7   		movq	%rax, %rdi
 941 0737 E8000000 		call	_ZN8UnitTest11TestDetailsC1ERKS0_i@PLT
 941      00
 942              	.LEHE67:
 943              		.loc 3 61 0 is_stmt 0 discriminator 2
 944 073c C745BC0C 		movl	$12, -68(%rbp)
 944      000000
 945              	.LEHB68:
 946 0743 E8000000 		call	_ZN8UnitTest11CurrentTest7ResultsEv@PLT
 946      00
 947 0748 488B00   		movq	(%rax), %rax
 948 074b 488D4DC0 		leaq	-64(%rbp), %rcx
 949 074f 488D55BA 		leaq	-70(%rbp), %rdx
 950 0753 488D75BC 		leaq	-68(%rbp), %rsi
 951 0757 4889C7   		movq	%rax, %rdi
 952 075a E8000000 		call	_ZN8UnitTest10CheckEqualIihEEvRNS_11TestResultsERKT_RKT0_RKNS_11TestDetailsE
 952      00
 953              	.LEHE68:
 954              	.L114:
  62:testConv.cpp  **** 	status = getHexNibble('D', &nibble);
 955              		.loc 3 62 0 is_stmt 1
 956 075f 488D45BA 		leaq	-70(%rbp), %rax
 957 0763 4889C6   		movq	%rax, %rsi
 958 0766 BF440000 		movl	$68, %edi
 958      00
 959              	.LEHB69:
 960 076b E8000000 		call	getHexNibble@PLT
 960      00
 961              	.LEHE69:
 962 0770 8845BB   		movb	%al, -69(%rbp)
 963              	.LEHB70:
  63:testConv.cpp  **** 	CHECK_EQUAL(false, status);
 964              		.loc 3 63 0
 965 0773 E8000000 		call	_ZN8UnitTest11CurrentTest7DetailsEv@PLT
 965      00
 966 0778 488B08   		movq	(%rax), %rcx
 967 077b 488D45C0 		leaq	-64(%rbp), %rax
 968 077f BA3F0000 		movl	$63, %edx
 968      00
 969 0784 4889CE   		movq	%rcx, %rsi
 970 0787 4889C7   		movq	%rax, %rdi
 971 078a E8000000 		call	_ZN8UnitTest11TestDetailsC1ERKS0_i@PLT
 971      00
 972              	.LEHE70:
 973              		.loc 3 63 0 is_stmt 0 discriminator 2
 974 078f C645BC00 		movb	$0, -68(%rbp)
 975              	.LEHB71:
 976 0793 E8000000 		call	_ZN8UnitTest11CurrentTest7ResultsEv@PLT
 976      00
 977 0798 488B00   		movq	(%rax), %rax
 978 079b 488D4DC0 		leaq	-64(%rbp), %rcx
 979 079f 488D55BB 		leaq	-69(%rbp), %rdx
 980 07a3 488D75BC 		leaq	-68(%rbp), %rsi
 981 07a7 4889C7   		movq	%rax, %rdi
 982 07aa E8000000 		call	_ZN8UnitTest10CheckEqualIbbEEvRNS_11TestResultsERKT_RKT0_RKNS_11TestDetailsE
 982      00
 983              	.LEHE71:
 984              	.L118:
 985              	.LEHB72:
  64:testConv.cpp  **** 	CHECK_EQUAL(13, nibble);
 986              		.loc 3 64 0 is_stmt 1
 987 07af E8000000 		call	_ZN8UnitTest11CurrentTest7DetailsEv@PLT
 987      00
 988 07b4 488B08   		movq	(%rax), %rcx
 989 07b7 488D45C0 		leaq	-64(%rbp), %rax
 990 07bb BA400000 		movl	$64, %edx
 990      00
 991 07c0 4889CE   		movq	%rcx, %rsi
 992 07c3 4889C7   		movq	%rax, %rdi
 993 07c6 E8000000 		call	_ZN8UnitTest11TestDetailsC1ERKS0_i@PLT
 993      00
 994              	.LEHE72:
 995              		.loc 3 64 0 is_stmt 0 discriminator 2
 996 07cb C745BC0D 		movl	$13, -68(%rbp)
 996      000000
 997              	.LEHB73:
 998 07d2 E8000000 		call	_ZN8UnitTest11CurrentTest7ResultsEv@PLT
 998      00
 999 07d7 488B00   		movq	(%rax), %rax
 1000 07da 488D4DC0 		leaq	-64(%rbp), %rcx
 1001 07de 488D55BA 		leaq	-70(%rbp), %rdx
 1002 07e2 488D75BC 		leaq	-68(%rbp), %rsi
 1003 07e6 4889C7   		movq	%rax, %rdi
 1004 07e9 E8000000 		call	_ZN8UnitTest10CheckEqualIihEEvRNS_11TestResultsERKT_RKT0_RKNS_11TestDetailsE
 1004      00
 1005              	.LEHE73:
 1006              	.L122:
  65:testConv.cpp  **** 	status = getHexNibble('E', &nibble);
 1007              		.loc 3 65 0 is_stmt 1
 1008 07ee 488D45BA 		leaq	-70(%rbp), %rax
 1009 07f2 4889C6   		movq	%rax, %rsi
 1010 07f5 BF450000 		movl	$69, %edi
 1010      00
 1011              	.LEHB74:
 1012 07fa E8000000 		call	getHexNibble@PLT
 1012      00
 1013              	.LEHE74:
 1014 07ff 8845BB   		movb	%al, -69(%rbp)
 1015              	.LEHB75:
  66:testConv.cpp  **** 	CHECK_EQUAL(false, status);
 1016              		.loc 3 66 0
 1017 0802 E8000000 		call	_ZN8UnitTest11CurrentTest7DetailsEv@PLT
 1017      00
 1018 0807 488B08   		movq	(%rax), %rcx
 1019 080a 488D45C0 		leaq	-64(%rbp), %rax
 1020 080e BA420000 		movl	$66, %edx
 1020      00
 1021 0813 4889CE   		movq	%rcx, %rsi
 1022 0816 4889C7   		movq	%rax, %rdi
 1023 0819 E8000000 		call	_ZN8UnitTest11TestDetailsC1ERKS0_i@PLT
 1023      00
 1024              	.LEHE75:
 1025              		.loc 3 66 0 is_stmt 0 discriminator 2
 1026 081e C645BC00 		movb	$0, -68(%rbp)
 1027              	.LEHB76:
 1028 0822 E8000000 		call	_ZN8UnitTest11CurrentTest7ResultsEv@PLT
 1028      00
 1029 0827 488B00   		movq	(%rax), %rax
 1030 082a 488D4DC0 		leaq	-64(%rbp), %rcx
 1031 082e 488D55BB 		leaq	-69(%rbp), %rdx
 1032 0832 488D75BC 		leaq	-68(%rbp), %rsi
 1033 0836 4889C7   		movq	%rax, %rdi
 1034 0839 E8000000 		call	_ZN8UnitTest10CheckEqualIbbEEvRNS_11TestResultsERKT_RKT0_RKNS_11TestDetailsE
 1034      00
 1035              	.LEHE76:
 1036              	.L126:
 1037              	.LEHB77:
  67:testConv.cpp  **** 	CHECK_EQUAL(14, nibble);
 1038              		.loc 3 67 0 is_stmt 1
 1039 083e E8000000 		call	_ZN8UnitTest11CurrentTest7DetailsEv@PLT
 1039      00
 1040 0843 488B08   		movq	(%rax), %rcx
 1041 0846 488D45C0 		leaq	-64(%rbp), %rax
 1042 084a BA430000 		movl	$67, %edx
 1042      00
 1043 084f 4889CE   		movq	%rcx, %rsi
 1044 0852 4889C7   		movq	%rax, %rdi
 1045 0855 E8000000 		call	_ZN8UnitTest11TestDetailsC1ERKS0_i@PLT
 1045      00
 1046              	.LEHE77:
 1047              		.loc 3 67 0 is_stmt 0 discriminator 2
 1048 085a C745BC0E 		movl	$14, -68(%rbp)
 1048      000000
 1049              	.LEHB78:
 1050 0861 E8000000 		call	_ZN8UnitTest11CurrentTest7ResultsEv@PLT
 1050      00
 1051 0866 488B00   		movq	(%rax), %rax
 1052 0869 488D4DC0 		leaq	-64(%rbp), %rcx
 1053 086d 488D55BA 		leaq	-70(%rbp), %rdx
 1054 0871 488D75BC 		leaq	-68(%rbp), %rsi
 1055 0875 4889C7   		movq	%rax, %rdi
 1056 0878 E8000000 		call	_ZN8UnitTest10CheckEqualIihEEvRNS_11TestResultsERKT_RKT0_RKNS_11TestDetailsE
 1056      00
 1057              	.LEHE78:
 1058              	.L130:
  68:testConv.cpp  **** 	status = getHexNibble('F', &nibble);
 1059              		.loc 3 68 0 is_stmt 1
 1060 087d 488D45BA 		leaq	-70(%rbp), %rax
 1061 0881 4889C6   		movq	%rax, %rsi
 1062 0884 BF460000 		movl	$70, %edi
 1062      00
 1063              	.LEHB79:
 1064 0889 E8000000 		call	getHexNibble@PLT
 1064      00
 1065              	.LEHE79:
 1066 088e 8845BB   		movb	%al, -69(%rbp)
 1067              	.LEHB80:
  69:testConv.cpp  **** 	CHECK_EQUAL(false, status);
 1068              		.loc 3 69 0
 1069 0891 E8000000 		call	_ZN8UnitTest11CurrentTest7DetailsEv@PLT
 1069      00
 1070 0896 488B08   		movq	(%rax), %rcx
 1071 0899 488D45C0 		leaq	-64(%rbp), %rax
 1072 089d BA450000 		movl	$69, %edx
 1072      00
 1073 08a2 4889CE   		movq	%rcx, %rsi
 1074 08a5 4889C7   		movq	%rax, %rdi
 1075 08a8 E8000000 		call	_ZN8UnitTest11TestDetailsC1ERKS0_i@PLT
 1075      00
 1076              	.LEHE80:
 1077              		.loc 3 69 0 is_stmt 0 discriminator 2
 1078 08ad C645BC00 		movb	$0, -68(%rbp)
 1079              	.LEHB81:
 1080 08b1 E8000000 		call	_ZN8UnitTest11CurrentTest7ResultsEv@PLT
 1080      00
 1081 08b6 488B00   		movq	(%rax), %rax
 1082 08b9 488D4DC0 		leaq	-64(%rbp), %rcx
 1083 08bd 488D55BB 		leaq	-69(%rbp), %rdx
 1084 08c1 488D75BC 		leaq	-68(%rbp), %rsi
 1085 08c5 4889C7   		movq	%rax, %rdi
 1086 08c8 E8000000 		call	_ZN8UnitTest10CheckEqualIbbEEvRNS_11TestResultsERKT_RKT0_RKNS_11TestDetailsE
 1086      00
 1087              	.LEHE81:
 1088              	.L134:
 1089              	.LEHB82:
  70:testConv.cpp  **** 	CHECK_EQUAL(15, nibble);
 1090              		.loc 3 70 0 is_stmt 1
 1091 08cd E8000000 		call	_ZN8UnitTest11CurrentTest7DetailsEv@PLT
 1091      00
 1092 08d2 488B08   		movq	(%rax), %rcx
 1093 08d5 488D45C0 		leaq	-64(%rbp), %rax
 1094 08d9 BA460000 		movl	$70, %edx
 1094      00
 1095 08de 4889CE   		movq	%rcx, %rsi
 1096 08e1 4889C7   		movq	%rax, %rdi
 1097 08e4 E8000000 		call	_ZN8UnitTest11TestDetailsC1ERKS0_i@PLT
 1097      00
 1098              	.LEHE82:
 1099              		.loc 3 70 0 is_stmt 0 discriminator 2
 1100 08e9 C745BC0F 		movl	$15, -68(%rbp)
 1100      000000
 1101              	.LEHB83:
 1102 08f0 E8000000 		call	_ZN8UnitTest11CurrentTest7ResultsEv@PLT
 1102      00
 1103 08f5 488B00   		movq	(%rax), %rax
 1104 08f8 488D4DC0 		leaq	-64(%rbp), %rcx
 1105 08fc 488D55BA 		leaq	-70(%rbp), %rdx
 1106 0900 488D75BC 		leaq	-68(%rbp), %rsi
 1107 0904 4889C7   		movq	%rax, %rdi
 1108 0907 E8000000 		call	_ZN8UnitTest10CheckEqualIihEEvRNS_11TestResultsERKT_RKT0_RKNS_11TestDetailsE
 1108      00
 1109              	.LEHE83:
 1110              	.L138:
  71:testConv.cpp  **** 	status = getHexNibble('a', &nibble);
 1111              		.loc 3 71 0 is_stmt 1
 1112 090c 488D45BA 		leaq	-70(%rbp), %rax
 1113 0910 4889C6   		movq	%rax, %rsi
 1114 0913 BF610000 		movl	$97, %edi
 1114      00
 1115              	.LEHB84:
 1116 0918 E8000000 		call	getHexNibble@PLT
 1116      00
 1117              	.LEHE84:
 1118 091d 8845BB   		movb	%al, -69(%rbp)
 1119              	.LEHB85:
  72:testConv.cpp  **** 	CHECK_EQUAL(false, status);
 1120              		.loc 3 72 0
 1121 0920 E8000000 		call	_ZN8UnitTest11CurrentTest7DetailsEv@PLT
 1121      00
 1122 0925 488B08   		movq	(%rax), %rcx
 1123 0928 488D45C0 		leaq	-64(%rbp), %rax
 1124 092c BA480000 		movl	$72, %edx
 1124      00
 1125 0931 4889CE   		movq	%rcx, %rsi
 1126 0934 4889C7   		movq	%rax, %rdi
 1127 0937 E8000000 		call	_ZN8UnitTest11TestDetailsC1ERKS0_i@PLT
 1127      00
 1128              	.LEHE85:
 1129              		.loc 3 72 0 is_stmt 0 discriminator 2
 1130 093c C645BC00 		movb	$0, -68(%rbp)
 1131              	.LEHB86:
 1132 0940 E8000000 		call	_ZN8UnitTest11CurrentTest7ResultsEv@PLT
 1132      00
 1133 0945 488B00   		movq	(%rax), %rax
 1134 0948 488D4DC0 		leaq	-64(%rbp), %rcx
 1135 094c 488D55BB 		leaq	-69(%rbp), %rdx
 1136 0950 488D75BC 		leaq	-68(%rbp), %rsi
 1137 0954 4889C7   		movq	%rax, %rdi
 1138 0957 E8000000 		call	_ZN8UnitTest10CheckEqualIbbEEvRNS_11TestResultsERKT_RKT0_RKNS_11TestDetailsE
 1138      00
 1139              	.LEHE86:
 1140              	.L142:
 1141              	.LEHB87:
  73:testConv.cpp  **** 	CHECK_EQUAL(10, nibble);
 1142              		.loc 3 73 0 is_stmt 1
 1143 095c E8000000 		call	_ZN8UnitTest11CurrentTest7DetailsEv@PLT
 1143      00
 1144 0961 488B08   		movq	(%rax), %rcx
 1145 0964 488D45C0 		leaq	-64(%rbp), %rax
 1146 0968 BA490000 		movl	$73, %edx
 1146      00
 1147 096d 4889CE   		movq	%rcx, %rsi
 1148 0970 4889C7   		movq	%rax, %rdi
 1149 0973 E8000000 		call	_ZN8UnitTest11TestDetailsC1ERKS0_i@PLT
 1149      00
 1150              	.LEHE87:
 1151              		.loc 3 73 0 is_stmt 0 discriminator 2
 1152 0978 C745BC0A 		movl	$10, -68(%rbp)
 1152      000000
 1153              	.LEHB88:
 1154 097f E8000000 		call	_ZN8UnitTest11CurrentTest7ResultsEv@PLT
 1154      00
 1155 0984 488B00   		movq	(%rax), %rax
 1156 0987 488D4DC0 		leaq	-64(%rbp), %rcx
 1157 098b 488D55BA 		leaq	-70(%rbp), %rdx
 1158 098f 488D75BC 		leaq	-68(%rbp), %rsi
 1159 0993 4889C7   		movq	%rax, %rdi
 1160 0996 E8000000 		call	_ZN8UnitTest10CheckEqualIihEEvRNS_11TestResultsERKT_RKT0_RKNS_11TestDetailsE
 1160      00
 1161              	.LEHE88:
 1162              	.L146:
  74:testConv.cpp  **** 	status = getHexNibble('b', &nibble);
 1163              		.loc 3 74 0 is_stmt 1
 1164 099b 488D45BA 		leaq	-70(%rbp), %rax
 1165 099f 4889C6   		movq	%rax, %rsi
 1166 09a2 BF620000 		movl	$98, %edi
 1166      00
 1167              	.LEHB89:
 1168 09a7 E8000000 		call	getHexNibble@PLT
 1168      00
 1169              	.LEHE89:
 1170 09ac 8845BB   		movb	%al, -69(%rbp)
 1171              	.LEHB90:
  75:testConv.cpp  **** 	CHECK_EQUAL(false, status);
 1172              		.loc 3 75 0
 1173 09af E8000000 		call	_ZN8UnitTest11CurrentTest7DetailsEv@PLT
 1173      00
 1174 09b4 488B08   		movq	(%rax), %rcx
 1175 09b7 488D45C0 		leaq	-64(%rbp), %rax
 1176 09bb BA4B0000 		movl	$75, %edx
 1176      00
 1177 09c0 4889CE   		movq	%rcx, %rsi
 1178 09c3 4889C7   		movq	%rax, %rdi
 1179 09c6 E8000000 		call	_ZN8UnitTest11TestDetailsC1ERKS0_i@PLT
 1179      00
 1180              	.LEHE90:
 1181              		.loc 3 75 0 is_stmt 0 discriminator 2
 1182 09cb C645BC00 		movb	$0, -68(%rbp)
 1183              	.LEHB91:
 1184 09cf E8000000 		call	_ZN8UnitTest11CurrentTest7ResultsEv@PLT
 1184      00
 1185 09d4 488B00   		movq	(%rax), %rax
 1186 09d7 488D4DC0 		leaq	-64(%rbp), %rcx
 1187 09db 488D55BB 		leaq	-69(%rbp), %rdx
 1188 09df 488D75BC 		leaq	-68(%rbp), %rsi
 1189 09e3 4889C7   		movq	%rax, %rdi
 1190 09e6 E8000000 		call	_ZN8UnitTest10CheckEqualIbbEEvRNS_11TestResultsERKT_RKT0_RKNS_11TestDetailsE
 1190      00
 1191              	.LEHE91:
 1192              	.L150:
 1193              	.LEHB92:
  76:testConv.cpp  **** 	CHECK_EQUAL(11, nibble);
 1194              		.loc 3 76 0 is_stmt 1
 1195 09eb E8000000 		call	_ZN8UnitTest11CurrentTest7DetailsEv@PLT
 1195      00
 1196 09f0 488B08   		movq	(%rax), %rcx
 1197 09f3 488D45C0 		leaq	-64(%rbp), %rax
 1198 09f7 BA4C0000 		movl	$76, %edx
 1198      00
 1199 09fc 4889CE   		movq	%rcx, %rsi
 1200 09ff 4889C7   		movq	%rax, %rdi
 1201 0a02 E8000000 		call	_ZN8UnitTest11TestDetailsC1ERKS0_i@PLT
 1201      00
 1202              	.LEHE92:
 1203              		.loc 3 76 0 is_stmt 0 discriminator 2
 1204 0a07 C745BC0B 		movl	$11, -68(%rbp)
 1204      000000
 1205              	.LEHB93:
 1206 0a0e E8000000 		call	_ZN8UnitTest11CurrentTest7ResultsEv@PLT
 1206      00
 1207 0a13 488B00   		movq	(%rax), %rax
 1208 0a16 488D4DC0 		leaq	-64(%rbp), %rcx
 1209 0a1a 488D55BA 		leaq	-70(%rbp), %rdx
 1210 0a1e 488D75BC 		leaq	-68(%rbp), %rsi
 1211 0a22 4889C7   		movq	%rax, %rdi
 1212 0a25 E8000000 		call	_ZN8UnitTest10CheckEqualIihEEvRNS_11TestResultsERKT_RKT0_RKNS_11TestDetailsE
 1212      00
 1213              	.LEHE93:
 1214              	.L154:
  77:testConv.cpp  **** 	status = getHexNibble('c', &nibble);
 1215              		.loc 3 77 0 is_stmt 1
 1216 0a2a 488D45BA 		leaq	-70(%rbp), %rax
 1217 0a2e 4889C6   		movq	%rax, %rsi
 1218 0a31 BF630000 		movl	$99, %edi
 1218      00
 1219              	.LEHB94:
 1220 0a36 E8000000 		call	getHexNibble@PLT
 1220      00
 1221              	.LEHE94:
 1222 0a3b 8845BB   		movb	%al, -69(%rbp)
 1223              	.LEHB95:
  78:testConv.cpp  **** 	CHECK_EQUAL(false, status);
 1224              		.loc 3 78 0
 1225 0a3e E8000000 		call	_ZN8UnitTest11CurrentTest7DetailsEv@PLT
 1225      00
 1226 0a43 488B08   		movq	(%rax), %rcx
 1227 0a46 488D45C0 		leaq	-64(%rbp), %rax
 1228 0a4a BA4E0000 		movl	$78, %edx
 1228      00
 1229 0a4f 4889CE   		movq	%rcx, %rsi
 1230 0a52 4889C7   		movq	%rax, %rdi
 1231 0a55 E8000000 		call	_ZN8UnitTest11TestDetailsC1ERKS0_i@PLT
 1231      00
 1232              	.LEHE95:
 1233              		.loc 3 78 0 is_stmt 0 discriminator 2
 1234 0a5a C645BC00 		movb	$0, -68(%rbp)
 1235              	.LEHB96:
 1236 0a5e E8000000 		call	_ZN8UnitTest11CurrentTest7ResultsEv@PLT
 1236      00
 1237 0a63 488B00   		movq	(%rax), %rax
 1238 0a66 488D4DC0 		leaq	-64(%rbp), %rcx
 1239 0a6a 488D55BB 		leaq	-69(%rbp), %rdx
 1240 0a6e 488D75BC 		leaq	-68(%rbp), %rsi
 1241 0a72 4889C7   		movq	%rax, %rdi
 1242 0a75 E8000000 		call	_ZN8UnitTest10CheckEqualIbbEEvRNS_11TestResultsERKT_RKT0_RKNS_11TestDetailsE
 1242      00
 1243              	.LEHE96:
 1244              	.L158:
 1245              	.LEHB97:
  79:testConv.cpp  **** 	CHECK_EQUAL(12, nibble);
 1246              		.loc 3 79 0 is_stmt 1
 1247 0a7a E8000000 		call	_ZN8UnitTest11CurrentTest7DetailsEv@PLT
 1247      00
 1248 0a7f 488B08   		movq	(%rax), %rcx
 1249 0a82 488D45C0 		leaq	-64(%rbp), %rax
 1250 0a86 BA4F0000 		movl	$79, %edx
 1250      00
 1251 0a8b 4889CE   		movq	%rcx, %rsi
 1252 0a8e 4889C7   		movq	%rax, %rdi
 1253 0a91 E8000000 		call	_ZN8UnitTest11TestDetailsC1ERKS0_i@PLT
 1253      00
 1254              	.LEHE97:
 1255              		.loc 3 79 0 is_stmt 0 discriminator 2
 1256 0a96 C745BC0C 		movl	$12, -68(%rbp)
 1256      000000
 1257              	.LEHB98:
 1258 0a9d E8000000 		call	_ZN8UnitTest11CurrentTest7ResultsEv@PLT
 1258      00
 1259 0aa2 488B00   		movq	(%rax), %rax
 1260 0aa5 488D4DC0 		leaq	-64(%rbp), %rcx
 1261 0aa9 488D55BA 		leaq	-70(%rbp), %rdx
 1262 0aad 488D75BC 		leaq	-68(%rbp), %rsi
 1263 0ab1 4889C7   		movq	%rax, %rdi
 1264 0ab4 E8000000 		call	_ZN8UnitTest10CheckEqualIihEEvRNS_11TestResultsERKT_RKT0_RKNS_11TestDetailsE
 1264      00
 1265              	.LEHE98:
 1266              	.L162:
  80:testConv.cpp  **** 	status = getHexNibble('d', &nibble);
 1267              		.loc 3 80 0 is_stmt 1
 1268 0ab9 488D45BA 		leaq	-70(%rbp), %rax
 1269 0abd 4889C6   		movq	%rax, %rsi
 1270 0ac0 BF640000 		movl	$100, %edi
 1270      00
 1271              	.LEHB99:
 1272 0ac5 E8000000 		call	getHexNibble@PLT
 1272      00
 1273              	.LEHE99:
 1274 0aca 8845BB   		movb	%al, -69(%rbp)
 1275              	.LEHB100:
  81:testConv.cpp  **** 	CHECK_EQUAL(false, status);
 1276              		.loc 3 81 0
 1277 0acd E8000000 		call	_ZN8UnitTest11CurrentTest7DetailsEv@PLT
 1277      00
 1278 0ad2 488B08   		movq	(%rax), %rcx
 1279 0ad5 488D45C0 		leaq	-64(%rbp), %rax
 1280 0ad9 BA510000 		movl	$81, %edx
 1280      00
 1281 0ade 4889CE   		movq	%rcx, %rsi
 1282 0ae1 4889C7   		movq	%rax, %rdi
 1283 0ae4 E8000000 		call	_ZN8UnitTest11TestDetailsC1ERKS0_i@PLT
 1283      00
 1284              	.LEHE100:
 1285              		.loc 3 81 0 is_stmt 0 discriminator 2
 1286 0ae9 C645BC00 		movb	$0, -68(%rbp)
 1287              	.LEHB101:
 1288 0aed E8000000 		call	_ZN8UnitTest11CurrentTest7ResultsEv@PLT
 1288      00
 1289 0af2 488B00   		movq	(%rax), %rax
 1290 0af5 488D4DC0 		leaq	-64(%rbp), %rcx
 1291 0af9 488D55BB 		leaq	-69(%rbp), %rdx
 1292 0afd 488D75BC 		leaq	-68(%rbp), %rsi
 1293 0b01 4889C7   		movq	%rax, %rdi
 1294 0b04 E8000000 		call	_ZN8UnitTest10CheckEqualIbbEEvRNS_11TestResultsERKT_RKT0_RKNS_11TestDetailsE
 1294      00
 1295              	.LEHE101:
 1296              	.L166:
 1297              	.LEHB102:
  82:testConv.cpp  **** 	CHECK_EQUAL(13, nibble);
 1298              		.loc 3 82 0 is_stmt 1
 1299 0b09 E8000000 		call	_ZN8UnitTest11CurrentTest7DetailsEv@PLT
 1299      00
 1300 0b0e 488B08   		movq	(%rax), %rcx
 1301 0b11 488D45C0 		leaq	-64(%rbp), %rax
 1302 0b15 BA520000 		movl	$82, %edx
 1302      00
 1303 0b1a 4889CE   		movq	%rcx, %rsi
 1304 0b1d 4889C7   		movq	%rax, %rdi
 1305 0b20 E8000000 		call	_ZN8UnitTest11TestDetailsC1ERKS0_i@PLT
 1305      00
 1306              	.LEHE102:
 1307              		.loc 3 82 0 is_stmt 0 discriminator 2
 1308 0b25 C745BC0D 		movl	$13, -68(%rbp)
 1308      000000
 1309              	.LEHB103:
 1310 0b2c E8000000 		call	_ZN8UnitTest11CurrentTest7ResultsEv@PLT
 1310      00
 1311 0b31 488B00   		movq	(%rax), %rax
 1312 0b34 488D4DC0 		leaq	-64(%rbp), %rcx
 1313 0b38 488D55BA 		leaq	-70(%rbp), %rdx
 1314 0b3c 488D75BC 		leaq	-68(%rbp), %rsi
 1315 0b40 4889C7   		movq	%rax, %rdi
 1316 0b43 E8000000 		call	_ZN8UnitTest10CheckEqualIihEEvRNS_11TestResultsERKT_RKT0_RKNS_11TestDetailsE
 1316      00
 1317              	.LEHE103:
 1318              	.L170:
  83:testConv.cpp  **** 	status = getHexNibble('e', &nibble);
 1319              		.loc 3 83 0 is_stmt 1
 1320 0b48 488D45BA 		leaq	-70(%rbp), %rax
 1321 0b4c 4889C6   		movq	%rax, %rsi
 1322 0b4f BF650000 		movl	$101, %edi
 1322      00
 1323              	.LEHB104:
 1324 0b54 E8000000 		call	getHexNibble@PLT
 1324      00
 1325              	.LEHE104:
 1326 0b59 8845BB   		movb	%al, -69(%rbp)
 1327              	.LEHB105:
  84:testConv.cpp  **** 	CHECK_EQUAL(false, status);
 1328              		.loc 3 84 0
 1329 0b5c E8000000 		call	_ZN8UnitTest11CurrentTest7DetailsEv@PLT
 1329      00
 1330 0b61 488B08   		movq	(%rax), %rcx
 1331 0b64 488D45C0 		leaq	-64(%rbp), %rax
 1332 0b68 BA540000 		movl	$84, %edx
 1332      00
 1333 0b6d 4889CE   		movq	%rcx, %rsi
 1334 0b70 4889C7   		movq	%rax, %rdi
 1335 0b73 E8000000 		call	_ZN8UnitTest11TestDetailsC1ERKS0_i@PLT
 1335      00
 1336              	.LEHE105:
 1337              		.loc 3 84 0 is_stmt 0 discriminator 2
 1338 0b78 C645BC00 		movb	$0, -68(%rbp)
 1339              	.LEHB106:
 1340 0b7c E8000000 		call	_ZN8UnitTest11CurrentTest7ResultsEv@PLT
 1340      00
 1341 0b81 488B00   		movq	(%rax), %rax
 1342 0b84 488D4DC0 		leaq	-64(%rbp), %rcx
 1343 0b88 488D55BB 		leaq	-69(%rbp), %rdx
 1344 0b8c 488D75BC 		leaq	-68(%rbp), %rsi
 1345 0b90 4889C7   		movq	%rax, %rdi
 1346 0b93 E8000000 		call	_ZN8UnitTest10CheckEqualIbbEEvRNS_11TestResultsERKT_RKT0_RKNS_11TestDetailsE
 1346      00
 1347              	.LEHE106:
 1348              	.L174:
 1349              	.LEHB107:
  85:testConv.cpp  **** 	CHECK_EQUAL(14, nibble);
 1350              		.loc 3 85 0 is_stmt 1
 1351 0b98 E8000000 		call	_ZN8UnitTest11CurrentTest7DetailsEv@PLT
 1351      00
 1352 0b9d 488B08   		movq	(%rax), %rcx
 1353 0ba0 488D45C0 		leaq	-64(%rbp), %rax
 1354 0ba4 BA550000 		movl	$85, %edx
 1354      00
 1355 0ba9 4889CE   		movq	%rcx, %rsi
 1356 0bac 4889C7   		movq	%rax, %rdi
 1357 0baf E8000000 		call	_ZN8UnitTest11TestDetailsC1ERKS0_i@PLT
 1357      00
 1358              	.LEHE107:
 1359              		.loc 3 85 0 is_stmt 0 discriminator 2
 1360 0bb4 C745BC0E 		movl	$14, -68(%rbp)
 1360      000000
 1361              	.LEHB108:
 1362 0bbb E8000000 		call	_ZN8UnitTest11CurrentTest7ResultsEv@PLT
 1362      00
 1363 0bc0 488B00   		movq	(%rax), %rax
 1364 0bc3 488D4DC0 		leaq	-64(%rbp), %rcx
 1365 0bc7 488D55BA 		leaq	-70(%rbp), %rdx
 1366 0bcb 488D75BC 		leaq	-68(%rbp), %rsi
 1367 0bcf 4889C7   		movq	%rax, %rdi
 1368 0bd2 E8000000 		call	_ZN8UnitTest10CheckEqualIihEEvRNS_11TestResultsERKT_RKT0_RKNS_11TestDetailsE
 1368      00
 1369              	.LEHE108:
 1370              	.L178:
  86:testConv.cpp  **** 	status = getHexNibble('f', &nibble);
 1371              		.loc 3 86 0 is_stmt 1
 1372 0bd7 488D45BA 		leaq	-70(%rbp), %rax
 1373 0bdb 4889C6   		movq	%rax, %rsi
 1374 0bde BF660000 		movl	$102, %edi
 1374      00
 1375              	.LEHB109:
 1376 0be3 E8000000 		call	getHexNibble@PLT
 1376      00
 1377              	.LEHE109:
 1378 0be8 8845BB   		movb	%al, -69(%rbp)
 1379              	.LEHB110:
  87:testConv.cpp  **** 	CHECK_EQUAL(false, status);
 1380              		.loc 3 87 0
 1381 0beb E8000000 		call	_ZN8UnitTest11CurrentTest7DetailsEv@PLT
 1381      00
 1382 0bf0 488B08   		movq	(%rax), %rcx
 1383 0bf3 488D45C0 		leaq	-64(%rbp), %rax
 1384 0bf7 BA570000 		movl	$87, %edx
 1384      00
 1385 0bfc 4889CE   		movq	%rcx, %rsi
 1386 0bff 4889C7   		movq	%rax, %rdi
 1387 0c02 E8000000 		call	_ZN8UnitTest11TestDetailsC1ERKS0_i@PLT
 1387      00
 1388              	.LEHE110:
 1389              		.loc 3 87 0 is_stmt 0 discriminator 2
 1390 0c07 C645BC00 		movb	$0, -68(%rbp)
 1391              	.LEHB111:
 1392 0c0b E8000000 		call	_ZN8UnitTest11CurrentTest7ResultsEv@PLT
 1392      00
 1393 0c10 488B00   		movq	(%rax), %rax
 1394 0c13 488D4DC0 		leaq	-64(%rbp), %rcx
 1395 0c17 488D55BB 		leaq	-69(%rbp), %rdx
 1396 0c1b 488D75BC 		leaq	-68(%rbp), %rsi
 1397 0c1f 4889C7   		movq	%rax, %rdi
 1398 0c22 E8000000 		call	_ZN8UnitTest10CheckEqualIbbEEvRNS_11TestResultsERKT_RKT0_RKNS_11TestDetailsE
 1398      00
 1399              	.LEHE111:
 1400              	.L182:
 1401              	.LEHB112:
  88:testConv.cpp  **** 	CHECK_EQUAL(15, nibble);
 1402              		.loc 3 88 0 is_stmt 1
 1403 0c27 E8000000 		call	_ZN8UnitTest11CurrentTest7DetailsEv@PLT
 1403      00
 1404 0c2c 488B08   		movq	(%rax), %rcx
 1405 0c2f 488D45C0 		leaq	-64(%rbp), %rax
 1406 0c33 BA580000 		movl	$88, %edx
 1406      00
 1407 0c38 4889CE   		movq	%rcx, %rsi
 1408 0c3b 4889C7   		movq	%rax, %rdi
 1409 0c3e E8000000 		call	_ZN8UnitTest11TestDetailsC1ERKS0_i@PLT
 1409      00
 1410              	.LEHE112:
 1411              		.loc 3 88 0 is_stmt 0 discriminator 2
 1412 0c43 C745BC0F 		movl	$15, -68(%rbp)
 1412      000000
 1413              	.LEHB113:
 1414 0c4a E8000000 		call	_ZN8UnitTest11CurrentTest7ResultsEv@PLT
 1414      00
 1415 0c4f 488B00   		movq	(%rax), %rax
 1416 0c52 488D4DC0 		leaq	-64(%rbp), %rcx
 1417 0c56 488D55BA 		leaq	-70(%rbp), %rdx
 1418 0c5a 488D75BC 		leaq	-68(%rbp), %rsi
 1419 0c5e 4889C7   		movq	%rax, %rdi
 1420 0c61 E8000000 		call	_ZN8UnitTest10CheckEqualIihEEvRNS_11TestResultsERKT_RKT0_RKNS_11TestDetailsE
 1420      00
 1421              	.LEHE113:
 1422              	.L186:
  89:testConv.cpp  **** 	status = getHexNibble('.', &nibble);
 1423              		.loc 3 89 0 is_stmt 1
 1424 0c66 488D45BA 		leaq	-70(%rbp), %rax
 1425 0c6a 4889C6   		movq	%rax, %rsi
 1426 0c6d BF2E0000 		movl	$46, %edi
 1426      00
 1427              	.LEHB114:
 1428 0c72 E8000000 		call	getHexNibble@PLT
 1428      00
 1429              	.LEHE114:
 1430 0c77 8845BB   		movb	%al, -69(%rbp)
 1431              	.LEHB115:
  90:testConv.cpp  **** 	CHECK_EQUAL(true, status);
 1432              		.loc 3 90 0
 1433 0c7a E8000000 		call	_ZN8UnitTest11CurrentTest7DetailsEv@PLT
 1433      00
 1434 0c7f 488B08   		movq	(%rax), %rcx
 1435 0c82 488D45C0 		leaq	-64(%rbp), %rax
 1436 0c86 BA5A0000 		movl	$90, %edx
 1436      00
 1437 0c8b 4889CE   		movq	%rcx, %rsi
 1438 0c8e 4889C7   		movq	%rax, %rdi
 1439 0c91 E8000000 		call	_ZN8UnitTest11TestDetailsC1ERKS0_i@PLT
 1439      00
 1440              	.LEHE115:
 1441              		.loc 3 90 0 is_stmt 0 discriminator 2
 1442 0c96 C645BC01 		movb	$1, -68(%rbp)
 1443              	.LEHB116:
 1444 0c9a E8000000 		call	_ZN8UnitTest11CurrentTest7ResultsEv@PLT
 1444      00
 1445 0c9f 488B00   		movq	(%rax), %rax
 1446 0ca2 488D4DC0 		leaq	-64(%rbp), %rcx
 1447 0ca6 488D55BB 		leaq	-69(%rbp), %rdx
 1448 0caa 488D75BC 		leaq	-68(%rbp), %rsi
 1449 0cae 4889C7   		movq	%rax, %rdi
 1450 0cb1 E8000000 		call	_ZN8UnitTest10CheckEqualIbbEEvRNS_11TestResultsERKT_RKT0_RKNS_11TestDetailsE
 1450      00
 1451              	.LEHE116:
  91:testConv.cpp  **** }
 1452              		.loc 3 91 0 is_stmt 1
 1453 0cb6 E90A1100 		jmp	.L11
 1453      00
 1454              	.L194:
 1455 0cbb EB00     		jmp	.L13
 1456              	.L193:
 1457              	.L13:
  24:testConv.cpp  **** 	CHECK_EQUAL(0, nibble);
 1458              		.loc 3 24 0
 1459 0cbd 4889C7   		movq	%rax, %rdi
 1460 0cc0 E8000000 		call	__cxa_begin_catch@PLT
 1460      00
 1461              	.LEHB117:
 1462 0cc5 E8000000 		call	_ZN8UnitTest11CurrentTest7ResultsEv@PLT
 1462      00
 1463 0cca 488B18   		movq	(%rax), %rbx
 1464 0ccd E8000000 		call	_ZN8UnitTest11CurrentTest7DetailsEv@PLT
 1464      00
  24:testConv.cpp  **** 	CHECK_EQUAL(0, nibble);
 1465              		.loc 3 24 0 is_stmt 0 discriminator 8
 1466 0cd2 488B08   		movq	(%rax), %rcx
 1467 0cd5 488D45C0 		leaq	-64(%rbp), %rax
 1468 0cd9 BA180000 		movl	$24, %edx
 1468      00
 1469 0cde 4889CE   		movq	%rcx, %rsi
 1470 0ce1 4889C7   		movq	%rax, %rdi
 1471 0ce4 E8000000 		call	_ZN8UnitTest11TestDetailsC1ERKS0_i@PLT
 1471      00
  24:testConv.cpp  **** 	CHECK_EQUAL(0, nibble);
 1472              		.loc 3 24 0 discriminator 12
 1473 0ce9 488D45C0 		leaq	-64(%rbp), %rax
 1474 0ced 488D1500 		leaq	.LC3(%rip), %rdx
 1474      000000
 1475 0cf4 4889C6   		movq	%rax, %rsi
 1476 0cf7 4889DF   		movq	%rbx, %rdi
 1477 0cfa E8000000 		call	_ZN8UnitTest11TestResults13OnTestFailureERKNS_11TestDetailsEPKc@PLT
 1477      00
 1478              	.LEHE117:
 1479              	.LEHB118:
  24:testConv.cpp  **** 	CHECK_EQUAL(0, nibble);
 1480              		.loc 3 24 0 discriminator 14
 1481 0cff E8000000 		call	__cxa_end_catch@PLT
 1481      00
 1482              	.LEHE118:
 1483 0d04 E963F3FF 		jmp	.L14
 1483      FF
 1484              	.L195:
 1485 0d09 4889C3   		movq	%rax, %rbx
  24:testConv.cpp  **** 	CHECK_EQUAL(0, nibble);
 1486              		.loc 3 24 0
 1487 0d0c E8000000 		call	__cxa_end_catch@PLT
 1487      00
 1488 0d11 4889D8   		movq	%rbx, %rax
 1489 0d14 4889C7   		movq	%rax, %rdi
 1490              	.LEHB119:
 1491 0d17 E8000000 		call	_Unwind_Resume@PLT
 1491      00
 1492              	.LEHE119:
 1493              	.L197:
 1494 0d1c EB00     		jmp	.L17
 1495              	.L196:
 1496              	.L17:
  25:testConv.cpp  **** 	status = getHexNibble('1', &nibble);
 1497              		.loc 3 25 0 is_stmt 1
 1498 0d1e 4889C7   		movq	%rax, %rdi
 1499 0d21 E8000000 		call	__cxa_begin_catch@PLT
 1499      00
 1500              	.LEHB120:
 1501 0d26 E8000000 		call	_ZN8UnitTest11CurrentTest7ResultsEv@PLT
 1501      00
 1502 0d2b 488B18   		movq	(%rax), %rbx
 1503 0d2e E8000000 		call	_ZN8UnitTest11CurrentTest7DetailsEv@PLT
 1503      00
  25:testConv.cpp  **** 	status = getHexNibble('1', &nibble);
 1504              		.loc 3 25 0 is_stmt 0 discriminator 8
 1505 0d33 488B08   		movq	(%rax), %rcx
 1506 0d36 488D45C0 		leaq	-64(%rbp), %rax
 1507 0d3a BA190000 		movl	$25, %edx
 1507      00
 1508 0d3f 4889CE   		movq	%rcx, %rsi
 1509 0d42 4889C7   		movq	%rax, %rdi
 1510 0d45 E8000000 		call	_ZN8UnitTest11TestDetailsC1ERKS0_i@PLT
 1510      00
  25:testConv.cpp  **** 	status = getHexNibble('1', &nibble);
 1511              		.loc 3 25 0 discriminator 12
 1512 0d4a 488D45C0 		leaq	-64(%rbp), %rax
 1513 0d4e 488D1500 		leaq	.LC4(%rip), %rdx
 1513      000000
 1514 0d55 4889C6   		movq	%rax, %rsi
 1515 0d58 4889DF   		movq	%rbx, %rdi
 1516 0d5b E8000000 		call	_ZN8UnitTest11TestResults13OnTestFailureERKNS_11TestDetailsEPKc@PLT
 1516      00
 1517              	.LEHE120:
 1518              	.LEHB121:
  25:testConv.cpp  **** 	status = getHexNibble('1', &nibble);
 1519              		.loc 3 25 0 discriminator 14
 1520 0d60 E8000000 		call	__cxa_end_catch@PLT
 1520      00
 1521              	.LEHE121:
 1522 0d65 E941F3FF 		jmp	.L18
 1522      FF
 1523              	.L198:
 1524 0d6a 4889C3   		movq	%rax, %rbx
  25:testConv.cpp  **** 	status = getHexNibble('1', &nibble);
 1525              		.loc 3 25 0
 1526 0d6d E8000000 		call	__cxa_end_catch@PLT
 1526      00
 1527 0d72 4889D8   		movq	%rbx, %rax
 1528 0d75 4889C7   		movq	%rax, %rdi
 1529              	.LEHB122:
 1530 0d78 E8000000 		call	_Unwind_Resume@PLT
 1530      00
 1531              	.LEHE122:
 1532              	.L200:
 1533 0d7d EB00     		jmp	.L21
 1534              	.L199:
 1535              	.L21:
  27:testConv.cpp  **** 	CHECK_EQUAL(1, nibble);
 1536              		.loc 3 27 0 is_stmt 1
 1537 0d7f 4889C7   		movq	%rax, %rdi
 1538 0d82 E8000000 		call	__cxa_begin_catch@PLT
 1538      00
 1539              	.LEHB123:
 1540 0d87 E8000000 		call	_ZN8UnitTest11CurrentTest7ResultsEv@PLT
 1540      00
 1541 0d8c 488B18   		movq	(%rax), %rbx
 1542 0d8f E8000000 		call	_ZN8UnitTest11CurrentTest7DetailsEv@PLT
 1542      00
  27:testConv.cpp  **** 	CHECK_EQUAL(1, nibble);
 1543              		.loc 3 27 0 is_stmt 0 discriminator 8
 1544 0d94 488B08   		movq	(%rax), %rcx
 1545 0d97 488D45C0 		leaq	-64(%rbp), %rax
 1546 0d9b BA1B0000 		movl	$27, %edx
 1546      00
 1547 0da0 4889CE   		movq	%rcx, %rsi
 1548 0da3 4889C7   		movq	%rax, %rdi
 1549 0da6 E8000000 		call	_ZN8UnitTest11TestDetailsC1ERKS0_i@PLT
 1549      00
  27:testConv.cpp  **** 	CHECK_EQUAL(1, nibble);
 1550              		.loc 3 27 0 discriminator 12
 1551 0dab 488D45C0 		leaq	-64(%rbp), %rax
 1552 0daf 488D1500 		leaq	.LC3(%rip), %rdx
 1552      000000
 1553 0db6 4889C6   		movq	%rax, %rsi
 1554 0db9 4889DF   		movq	%rbx, %rdi
 1555 0dbc E8000000 		call	_ZN8UnitTest11TestResults13OnTestFailureERKNS_11TestDetailsEPKc@PLT
 1555      00
 1556              	.LEHE123:
 1557              	.LEHB124:
  27:testConv.cpp  **** 	CHECK_EQUAL(1, nibble);
 1558              		.loc 3 27 0 discriminator 14
 1559 0dc1 E8000000 		call	__cxa_end_catch@PLT
 1559      00
 1560              	.LEHE124:
 1561 0dc6 E930F3FF 		jmp	.L22
 1561      FF
 1562              	.L201:
 1563 0dcb 4889C3   		movq	%rax, %rbx
  27:testConv.cpp  **** 	CHECK_EQUAL(1, nibble);
 1564              		.loc 3 27 0
 1565 0dce E8000000 		call	__cxa_end_catch@PLT
 1565      00
 1566 0dd3 4889D8   		movq	%rbx, %rax
 1567 0dd6 4889C7   		movq	%rax, %rdi
 1568              	.LEHB125:
 1569 0dd9 E8000000 		call	_Unwind_Resume@PLT
 1569      00
 1570              	.LEHE125:
 1571              	.L203:
 1572 0dde EB00     		jmp	.L25
 1573              	.L202:
 1574              	.L25:
  28:testConv.cpp  **** 	status = getHexNibble('2', &nibble);
 1575              		.loc 3 28 0 is_stmt 1
 1576 0de0 4889C7   		movq	%rax, %rdi
 1577 0de3 E8000000 		call	__cxa_begin_catch@PLT
 1577      00
 1578              	.LEHB126:
 1579 0de8 E8000000 		call	_ZN8UnitTest11CurrentTest7ResultsEv@PLT
 1579      00
 1580 0ded 488B18   		movq	(%rax), %rbx
 1581 0df0 E8000000 		call	_ZN8UnitTest11CurrentTest7DetailsEv@PLT
 1581      00
  28:testConv.cpp  **** 	status = getHexNibble('2', &nibble);
 1582              		.loc 3 28 0 is_stmt 0 discriminator 8
 1583 0df5 488B08   		movq	(%rax), %rcx
 1584 0df8 488D45C0 		leaq	-64(%rbp), %rax
 1585 0dfc BA1C0000 		movl	$28, %edx
 1585      00
 1586 0e01 4889CE   		movq	%rcx, %rsi
 1587 0e04 4889C7   		movq	%rax, %rdi
 1588 0e07 E8000000 		call	_ZN8UnitTest11TestDetailsC1ERKS0_i@PLT
 1588      00
  28:testConv.cpp  **** 	status = getHexNibble('2', &nibble);
 1589              		.loc 3 28 0 discriminator 12
 1590 0e0c 488D45C0 		leaq	-64(%rbp), %rax
 1591 0e10 488D1500 		leaq	.LC5(%rip), %rdx
 1591      000000
 1592 0e17 4889C6   		movq	%rax, %rsi
 1593 0e1a 4889DF   		movq	%rbx, %rdi
 1594 0e1d E8000000 		call	_ZN8UnitTest11TestResults13OnTestFailureERKNS_11TestDetailsEPKc@PLT
 1594      00
 1595              	.LEHE126:
 1596              	.LEHB127:
  28:testConv.cpp  **** 	status = getHexNibble('2', &nibble);
 1597              		.loc 3 28 0 discriminator 14
 1598 0e22 E8000000 		call	__cxa_end_catch@PLT
 1598      00
 1599              	.LEHE127:
 1600 0e27 E90EF3FF 		jmp	.L26
 1600      FF
 1601              	.L204:
 1602 0e2c 4889C3   		movq	%rax, %rbx
  28:testConv.cpp  **** 	status = getHexNibble('2', &nibble);
 1603              		.loc 3 28 0
 1604 0e2f E8000000 		call	__cxa_end_catch@PLT
 1604      00
 1605 0e34 4889D8   		movq	%rbx, %rax
 1606 0e37 4889C7   		movq	%rax, %rdi
 1607              	.LEHB128:
 1608 0e3a E8000000 		call	_Unwind_Resume@PLT
 1608      00
 1609              	.LEHE128:
 1610              	.L206:
 1611 0e3f EB00     		jmp	.L29
 1612              	.L205:
 1613              	.L29:
  30:testConv.cpp  **** 	CHECK_EQUAL(2, nibble);
 1614              		.loc 3 30 0 is_stmt 1
 1615 0e41 4889C7   		movq	%rax, %rdi
 1616 0e44 E8000000 		call	__cxa_begin_catch@PLT
 1616      00
 1617              	.LEHB129:
 1618 0e49 E8000000 		call	_ZN8UnitTest11CurrentTest7ResultsEv@PLT
 1618      00
 1619 0e4e 488B18   		movq	(%rax), %rbx
 1620 0e51 E8000000 		call	_ZN8UnitTest11CurrentTest7DetailsEv@PLT
 1620      00
  30:testConv.cpp  **** 	CHECK_EQUAL(2, nibble);
 1621              		.loc 3 30 0 is_stmt 0 discriminator 8
 1622 0e56 488B08   		movq	(%rax), %rcx
 1623 0e59 488D45C0 		leaq	-64(%rbp), %rax
 1624 0e5d BA1E0000 		movl	$30, %edx
 1624      00
 1625 0e62 4889CE   		movq	%rcx, %rsi
 1626 0e65 4889C7   		movq	%rax, %rdi
 1627 0e68 E8000000 		call	_ZN8UnitTest11TestDetailsC1ERKS0_i@PLT
 1627      00
  30:testConv.cpp  **** 	CHECK_EQUAL(2, nibble);
 1628              		.loc 3 30 0 discriminator 12
 1629 0e6d 488D45C0 		leaq	-64(%rbp), %rax
 1630 0e71 488D1500 		leaq	.LC3(%rip), %rdx
 1630      000000
 1631 0e78 4889C6   		movq	%rax, %rsi
 1632 0e7b 4889DF   		movq	%rbx, %rdi
 1633 0e7e E8000000 		call	_ZN8UnitTest11TestResults13OnTestFailureERKNS_11TestDetailsEPKc@PLT
 1633      00
 1634              	.LEHE129:
 1635              	.LEHB130:
  30:testConv.cpp  **** 	CHECK_EQUAL(2, nibble);
 1636              		.loc 3 30 0 discriminator 14
 1637 0e83 E8000000 		call	__cxa_end_catch@PLT
 1637      00
 1638              	.LEHE130:
 1639 0e88 E9FDF2FF 		jmp	.L30
 1639      FF
 1640              	.L207:
 1641 0e8d 4889C3   		movq	%rax, %rbx
  30:testConv.cpp  **** 	CHECK_EQUAL(2, nibble);
 1642              		.loc 3 30 0
 1643 0e90 E8000000 		call	__cxa_end_catch@PLT
 1643      00
 1644 0e95 4889D8   		movq	%rbx, %rax
 1645 0e98 4889C7   		movq	%rax, %rdi
 1646              	.LEHB131:
 1647 0e9b E8000000 		call	_Unwind_Resume@PLT
 1647      00
 1648              	.LEHE131:
 1649              	.L209:
 1650 0ea0 EB00     		jmp	.L33
 1651              	.L208:
 1652              	.L33:
  31:testConv.cpp  **** 	status = getHexNibble('3', &nibble);
 1653              		.loc 3 31 0 is_stmt 1
 1654 0ea2 4889C7   		movq	%rax, %rdi
 1655 0ea5 E8000000 		call	__cxa_begin_catch@PLT
 1655      00
 1656              	.LEHB132:
 1657 0eaa E8000000 		call	_ZN8UnitTest11CurrentTest7ResultsEv@PLT
 1657      00
 1658 0eaf 488B18   		movq	(%rax), %rbx
 1659 0eb2 E8000000 		call	_ZN8UnitTest11CurrentTest7DetailsEv@PLT
 1659      00
  31:testConv.cpp  **** 	status = getHexNibble('3', &nibble);
 1660              		.loc 3 31 0 is_stmt 0 discriminator 8
 1661 0eb7 488B08   		movq	(%rax), %rcx
 1662 0eba 488D45C0 		leaq	-64(%rbp), %rax
 1663 0ebe BA1F0000 		movl	$31, %edx
 1663      00
 1664 0ec3 4889CE   		movq	%rcx, %rsi
 1665 0ec6 4889C7   		movq	%rax, %rdi
 1666 0ec9 E8000000 		call	_ZN8UnitTest11TestDetailsC1ERKS0_i@PLT
 1666      00
  31:testConv.cpp  **** 	status = getHexNibble('3', &nibble);
 1667              		.loc 3 31 0 discriminator 12
 1668 0ece 488D45C0 		leaq	-64(%rbp), %rax
 1669 0ed2 488D1500 		leaq	.LC6(%rip), %rdx
 1669      000000
 1670 0ed9 4889C6   		movq	%rax, %rsi
 1671 0edc 4889DF   		movq	%rbx, %rdi
 1672 0edf E8000000 		call	_ZN8UnitTest11TestResults13OnTestFailureERKNS_11TestDetailsEPKc@PLT
 1672      00
 1673              	.LEHE132:
 1674              	.LEHB133:
  31:testConv.cpp  **** 	status = getHexNibble('3', &nibble);
 1675              		.loc 3 31 0 discriminator 14
 1676 0ee4 E8000000 		call	__cxa_end_catch@PLT
 1676      00
 1677              	.LEHE133:
 1678 0ee9 E9DBF2FF 		jmp	.L34
 1678      FF
 1679              	.L210:
 1680 0eee 4889C3   		movq	%rax, %rbx
  31:testConv.cpp  **** 	status = getHexNibble('3', &nibble);
 1681              		.loc 3 31 0
 1682 0ef1 E8000000 		call	__cxa_end_catch@PLT
 1682      00
 1683 0ef6 4889D8   		movq	%rbx, %rax
 1684 0ef9 4889C7   		movq	%rax, %rdi
 1685              	.LEHB134:
 1686 0efc E8000000 		call	_Unwind_Resume@PLT
 1686      00
 1687              	.LEHE134:
 1688              	.L212:
 1689 0f01 EB00     		jmp	.L37
 1690              	.L211:
 1691              	.L37:
  33:testConv.cpp  **** 	CHECK_EQUAL(3, nibble);
 1692              		.loc 3 33 0 is_stmt 1
 1693 0f03 4889C7   		movq	%rax, %rdi
 1694 0f06 E8000000 		call	__cxa_begin_catch@PLT
 1694      00
 1695              	.LEHB135:
 1696 0f0b E8000000 		call	_ZN8UnitTest11CurrentTest7ResultsEv@PLT
 1696      00
 1697 0f10 488B18   		movq	(%rax), %rbx
 1698 0f13 E8000000 		call	_ZN8UnitTest11CurrentTest7DetailsEv@PLT
 1698      00
  33:testConv.cpp  **** 	CHECK_EQUAL(3, nibble);
 1699              		.loc 3 33 0 is_stmt 0 discriminator 8
 1700 0f18 488B08   		movq	(%rax), %rcx
 1701 0f1b 488D45C0 		leaq	-64(%rbp), %rax
 1702 0f1f BA210000 		movl	$33, %edx
 1702      00
 1703 0f24 4889CE   		movq	%rcx, %rsi
 1704 0f27 4889C7   		movq	%rax, %rdi
 1705 0f2a E8000000 		call	_ZN8UnitTest11TestDetailsC1ERKS0_i@PLT
 1705      00
  33:testConv.cpp  **** 	CHECK_EQUAL(3, nibble);
 1706              		.loc 3 33 0 discriminator 12
 1707 0f2f 488D45C0 		leaq	-64(%rbp), %rax
 1708 0f33 488D1500 		leaq	.LC3(%rip), %rdx
 1708      000000
 1709 0f3a 4889C6   		movq	%rax, %rsi
 1710 0f3d 4889DF   		movq	%rbx, %rdi
 1711 0f40 E8000000 		call	_ZN8UnitTest11TestResults13OnTestFailureERKNS_11TestDetailsEPKc@PLT
 1711      00
 1712              	.LEHE135:
 1713              	.LEHB136:
  33:testConv.cpp  **** 	CHECK_EQUAL(3, nibble);
 1714              		.loc 3 33 0 discriminator 14
 1715 0f45 E8000000 		call	__cxa_end_catch@PLT
 1715      00
 1716              	.LEHE136:
 1717 0f4a E9CAF2FF 		jmp	.L38
 1717      FF
 1718              	.L213:
 1719 0f4f 4889C3   		movq	%rax, %rbx
  33:testConv.cpp  **** 	CHECK_EQUAL(3, nibble);
 1720              		.loc 3 33 0
 1721 0f52 E8000000 		call	__cxa_end_catch@PLT
 1721      00
 1722 0f57 4889D8   		movq	%rbx, %rax
 1723 0f5a 4889C7   		movq	%rax, %rdi
 1724              	.LEHB137:
 1725 0f5d E8000000 		call	_Unwind_Resume@PLT
 1725      00
 1726              	.LEHE137:
 1727              	.L215:
 1728 0f62 EB00     		jmp	.L41
 1729              	.L214:
 1730              	.L41:
  34:testConv.cpp  **** 	status = getHexNibble('4', &nibble);
 1731              		.loc 3 34 0 is_stmt 1
 1732 0f64 4889C7   		movq	%rax, %rdi
 1733 0f67 E8000000 		call	__cxa_begin_catch@PLT
 1733      00
 1734              	.LEHB138:
 1735 0f6c E8000000 		call	_ZN8UnitTest11CurrentTest7ResultsEv@PLT
 1735      00
 1736 0f71 488B18   		movq	(%rax), %rbx
 1737 0f74 E8000000 		call	_ZN8UnitTest11CurrentTest7DetailsEv@PLT
 1737      00
  34:testConv.cpp  **** 	status = getHexNibble('4', &nibble);
 1738              		.loc 3 34 0 is_stmt 0 discriminator 8
 1739 0f79 488B08   		movq	(%rax), %rcx
 1740 0f7c 488D45C0 		leaq	-64(%rbp), %rax
 1741 0f80 BA220000 		movl	$34, %edx
 1741      00
 1742 0f85 4889CE   		movq	%rcx, %rsi
 1743 0f88 4889C7   		movq	%rax, %rdi
 1744 0f8b E8000000 		call	_ZN8UnitTest11TestDetailsC1ERKS0_i@PLT
 1744      00
  34:testConv.cpp  **** 	status = getHexNibble('4', &nibble);
 1745              		.loc 3 34 0 discriminator 12
 1746 0f90 488D45C0 		leaq	-64(%rbp), %rax
 1747 0f94 488D1500 		leaq	.LC7(%rip), %rdx
 1747      000000
 1748 0f9b 4889C6   		movq	%rax, %rsi
 1749 0f9e 4889DF   		movq	%rbx, %rdi
 1750 0fa1 E8000000 		call	_ZN8UnitTest11TestResults13OnTestFailureERKNS_11TestDetailsEPKc@PLT
 1750      00
 1751              	.LEHE138:
 1752              	.LEHB139:
  34:testConv.cpp  **** 	status = getHexNibble('4', &nibble);
 1753              		.loc 3 34 0 discriminator 14
 1754 0fa6 E8000000 		call	__cxa_end_catch@PLT
 1754      00
 1755              	.LEHE139:
 1756 0fab E9A8F2FF 		jmp	.L42
 1756      FF
 1757              	.L216:
 1758 0fb0 4889C3   		movq	%rax, %rbx
  34:testConv.cpp  **** 	status = getHexNibble('4', &nibble);
 1759              		.loc 3 34 0
 1760 0fb3 E8000000 		call	__cxa_end_catch@PLT
 1760      00
 1761 0fb8 4889D8   		movq	%rbx, %rax
 1762 0fbb 4889C7   		movq	%rax, %rdi
 1763              	.LEHB140:
 1764 0fbe E8000000 		call	_Unwind_Resume@PLT
 1764      00
 1765              	.LEHE140:
 1766              	.L218:
 1767 0fc3 EB00     		jmp	.L45
 1768              	.L217:
 1769              	.L45:
  36:testConv.cpp  **** 	CHECK_EQUAL(4, nibble);
 1770              		.loc 3 36 0 is_stmt 1
 1771 0fc5 4889C7   		movq	%rax, %rdi
 1772 0fc8 E8000000 		call	__cxa_begin_catch@PLT
 1772      00
 1773              	.LEHB141:
 1774 0fcd E8000000 		call	_ZN8UnitTest11CurrentTest7ResultsEv@PLT
 1774      00
 1775 0fd2 488B18   		movq	(%rax), %rbx
 1776 0fd5 E8000000 		call	_ZN8UnitTest11CurrentTest7DetailsEv@PLT
 1776      00
  36:testConv.cpp  **** 	CHECK_EQUAL(4, nibble);
 1777              		.loc 3 36 0 is_stmt 0 discriminator 8
 1778 0fda 488B08   		movq	(%rax), %rcx
 1779 0fdd 488D45C0 		leaq	-64(%rbp), %rax
 1780 0fe1 BA240000 		movl	$36, %edx
 1780      00
 1781 0fe6 4889CE   		movq	%rcx, %rsi
 1782 0fe9 4889C7   		movq	%rax, %rdi
 1783 0fec E8000000 		call	_ZN8UnitTest11TestDetailsC1ERKS0_i@PLT
 1783      00
  36:testConv.cpp  **** 	CHECK_EQUAL(4, nibble);
 1784              		.loc 3 36 0 discriminator 12
 1785 0ff1 488D45C0 		leaq	-64(%rbp), %rax
 1786 0ff5 488D1500 		leaq	.LC3(%rip), %rdx
 1786      000000
 1787 0ffc 4889C6   		movq	%rax, %rsi
 1788 0fff 4889DF   		movq	%rbx, %rdi
 1789 1002 E8000000 		call	_ZN8UnitTest11TestResults13OnTestFailureERKNS_11TestDetailsEPKc@PLT
 1789      00
 1790              	.LEHE141:
 1791              	.LEHB142:
  36:testConv.cpp  **** 	CHECK_EQUAL(4, nibble);
 1792              		.loc 3 36 0 discriminator 14
 1793 1007 E8000000 		call	__cxa_end_catch@PLT
 1793      00
 1794              	.LEHE142:
 1795 100c E997F2FF 		jmp	.L46
 1795      FF
 1796              	.L219:
 1797 1011 4889C3   		movq	%rax, %rbx
  36:testConv.cpp  **** 	CHECK_EQUAL(4, nibble);
 1798              		.loc 3 36 0
 1799 1014 E8000000 		call	__cxa_end_catch@PLT
 1799      00
 1800 1019 4889D8   		movq	%rbx, %rax
 1801 101c 4889C7   		movq	%rax, %rdi
 1802              	.LEHB143:
 1803 101f E8000000 		call	_Unwind_Resume@PLT
 1803      00
 1804              	.LEHE143:
 1805              	.L221:
 1806 1024 EB00     		jmp	.L49
 1807              	.L220:
 1808              	.L49:
  37:testConv.cpp  **** 	status = getHexNibble('5', &nibble);
 1809              		.loc 3 37 0 is_stmt 1
 1810 1026 4889C7   		movq	%rax, %rdi
 1811 1029 E8000000 		call	__cxa_begin_catch@PLT
 1811      00
 1812              	.LEHB144:
 1813 102e E8000000 		call	_ZN8UnitTest11CurrentTest7ResultsEv@PLT
 1813      00
 1814 1033 488B18   		movq	(%rax), %rbx
 1815 1036 E8000000 		call	_ZN8UnitTest11CurrentTest7DetailsEv@PLT
 1815      00
  37:testConv.cpp  **** 	status = getHexNibble('5', &nibble);
 1816              		.loc 3 37 0 is_stmt 0 discriminator 8
 1817 103b 488B08   		movq	(%rax), %rcx
 1818 103e 488D45C0 		leaq	-64(%rbp), %rax
 1819 1042 BA250000 		movl	$37, %edx
 1819      00
 1820 1047 4889CE   		movq	%rcx, %rsi
 1821 104a 4889C7   		movq	%rax, %rdi
 1822 104d E8000000 		call	_ZN8UnitTest11TestDetailsC1ERKS0_i@PLT
 1822      00
  37:testConv.cpp  **** 	status = getHexNibble('5', &nibble);
 1823              		.loc 3 37 0 discriminator 12
 1824 1052 488D45C0 		leaq	-64(%rbp), %rax
 1825 1056 488D1500 		leaq	.LC8(%rip), %rdx
 1825      000000
 1826 105d 4889C6   		movq	%rax, %rsi
 1827 1060 4889DF   		movq	%rbx, %rdi
 1828 1063 E8000000 		call	_ZN8UnitTest11TestResults13OnTestFailureERKNS_11TestDetailsEPKc@PLT
 1828      00
 1829              	.LEHE144:
 1830              	.LEHB145:
  37:testConv.cpp  **** 	status = getHexNibble('5', &nibble);
 1831              		.loc 3 37 0 discriminator 14
 1832 1068 E8000000 		call	__cxa_end_catch@PLT
 1832      00
 1833              	.LEHE145:
 1834 106d E975F2FF 		jmp	.L50
 1834      FF
 1835              	.L222:
 1836 1072 4889C3   		movq	%rax, %rbx
  37:testConv.cpp  **** 	status = getHexNibble('5', &nibble);
 1837              		.loc 3 37 0
 1838 1075 E8000000 		call	__cxa_end_catch@PLT
 1838      00
 1839 107a 4889D8   		movq	%rbx, %rax
 1840 107d 4889C7   		movq	%rax, %rdi
 1841              	.LEHB146:
 1842 1080 E8000000 		call	_Unwind_Resume@PLT
 1842      00
 1843              	.LEHE146:
 1844              	.L224:
 1845 1085 EB00     		jmp	.L53
 1846              	.L223:
 1847              	.L53:
  39:testConv.cpp  **** 	CHECK_EQUAL(5, nibble);
 1848              		.loc 3 39 0 is_stmt 1
 1849 1087 4889C7   		movq	%rax, %rdi
 1850 108a E8000000 		call	__cxa_begin_catch@PLT
 1850      00
 1851              	.LEHB147:
 1852 108f E8000000 		call	_ZN8UnitTest11CurrentTest7ResultsEv@PLT
 1852      00
 1853 1094 488B18   		movq	(%rax), %rbx
 1854 1097 E8000000 		call	_ZN8UnitTest11CurrentTest7DetailsEv@PLT
 1854      00
  39:testConv.cpp  **** 	CHECK_EQUAL(5, nibble);
 1855              		.loc 3 39 0 is_stmt 0 discriminator 8
 1856 109c 488B08   		movq	(%rax), %rcx
 1857 109f 488D45C0 		leaq	-64(%rbp), %rax
 1858 10a3 BA270000 		movl	$39, %edx
 1858      00
 1859 10a8 4889CE   		movq	%rcx, %rsi
 1860 10ab 4889C7   		movq	%rax, %rdi
 1861 10ae E8000000 		call	_ZN8UnitTest11TestDetailsC1ERKS0_i@PLT
 1861      00
  39:testConv.cpp  **** 	CHECK_EQUAL(5, nibble);
 1862              		.loc 3 39 0 discriminator 12
 1863 10b3 488D45C0 		leaq	-64(%rbp), %rax
 1864 10b7 488D1500 		leaq	.LC3(%rip), %rdx
 1864      000000
 1865 10be 4889C6   		movq	%rax, %rsi
 1866 10c1 4889DF   		movq	%rbx, %rdi
 1867 10c4 E8000000 		call	_ZN8UnitTest11TestResults13OnTestFailureERKNS_11TestDetailsEPKc@PLT
 1867      00
 1868              	.LEHE147:
 1869              	.LEHB148:
  39:testConv.cpp  **** 	CHECK_EQUAL(5, nibble);
 1870              		.loc 3 39 0 discriminator 14
 1871 10c9 E8000000 		call	__cxa_end_catch@PLT
 1871      00
 1872              	.LEHE148:
 1873 10ce E964F2FF 		jmp	.L54
 1873      FF
 1874              	.L225:
 1875 10d3 4889C3   		movq	%rax, %rbx
  39:testConv.cpp  **** 	CHECK_EQUAL(5, nibble);
 1876              		.loc 3 39 0
 1877 10d6 E8000000 		call	__cxa_end_catch@PLT
 1877      00
 1878 10db 4889D8   		movq	%rbx, %rax
 1879 10de 4889C7   		movq	%rax, %rdi
 1880              	.LEHB149:
 1881 10e1 E8000000 		call	_Unwind_Resume@PLT
 1881      00
 1882              	.LEHE149:
 1883              	.L227:
 1884 10e6 EB00     		jmp	.L57
 1885              	.L226:
 1886              	.L57:
  40:testConv.cpp  **** 	status = getHexNibble('6', &nibble);
 1887              		.loc 3 40 0 is_stmt 1
 1888 10e8 4889C7   		movq	%rax, %rdi
 1889 10eb E8000000 		call	__cxa_begin_catch@PLT
 1889      00
 1890              	.LEHB150:
 1891 10f0 E8000000 		call	_ZN8UnitTest11CurrentTest7ResultsEv@PLT
 1891      00
 1892 10f5 488B18   		movq	(%rax), %rbx
 1893 10f8 E8000000 		call	_ZN8UnitTest11CurrentTest7DetailsEv@PLT
 1893      00
  40:testConv.cpp  **** 	status = getHexNibble('6', &nibble);
 1894              		.loc 3 40 0 is_stmt 0 discriminator 8
 1895 10fd 488B08   		movq	(%rax), %rcx
 1896 1100 488D45C0 		leaq	-64(%rbp), %rax
 1897 1104 BA280000 		movl	$40, %edx
 1897      00
 1898 1109 4889CE   		movq	%rcx, %rsi
 1899 110c 4889C7   		movq	%rax, %rdi
 1900 110f E8000000 		call	_ZN8UnitTest11TestDetailsC1ERKS0_i@PLT
 1900      00
  40:testConv.cpp  **** 	status = getHexNibble('6', &nibble);
 1901              		.loc 3 40 0 discriminator 12
 1902 1114 488D45C0 		leaq	-64(%rbp), %rax
 1903 1118 488D1500 		leaq	.LC9(%rip), %rdx
 1903      000000
 1904 111f 4889C6   		movq	%rax, %rsi
 1905 1122 4889DF   		movq	%rbx, %rdi
 1906 1125 E8000000 		call	_ZN8UnitTest11TestResults13OnTestFailureERKNS_11TestDetailsEPKc@PLT
 1906      00
 1907              	.LEHE150:
 1908              	.LEHB151:
  40:testConv.cpp  **** 	status = getHexNibble('6', &nibble);
 1909              		.loc 3 40 0 discriminator 14
 1910 112a E8000000 		call	__cxa_end_catch@PLT
 1910      00
 1911              	.LEHE151:
 1912 112f E942F2FF 		jmp	.L58
 1912      FF
 1913              	.L228:
 1914 1134 4889C3   		movq	%rax, %rbx
  40:testConv.cpp  **** 	status = getHexNibble('6', &nibble);
 1915              		.loc 3 40 0
 1916 1137 E8000000 		call	__cxa_end_catch@PLT
 1916      00
 1917 113c 4889D8   		movq	%rbx, %rax
 1918 113f 4889C7   		movq	%rax, %rdi
 1919              	.LEHB152:
 1920 1142 E8000000 		call	_Unwind_Resume@PLT
 1920      00
 1921              	.LEHE152:
 1922              	.L230:
 1923 1147 EB00     		jmp	.L61
 1924              	.L229:
 1925              	.L61:
  42:testConv.cpp  **** 	CHECK_EQUAL(6, nibble);
 1926              		.loc 3 42 0 is_stmt 1
 1927 1149 4889C7   		movq	%rax, %rdi
 1928 114c E8000000 		call	__cxa_begin_catch@PLT
 1928      00
 1929              	.LEHB153:
 1930 1151 E8000000 		call	_ZN8UnitTest11CurrentTest7ResultsEv@PLT
 1930      00
 1931 1156 488B18   		movq	(%rax), %rbx
 1932 1159 E8000000 		call	_ZN8UnitTest11CurrentTest7DetailsEv@PLT
 1932      00
  42:testConv.cpp  **** 	CHECK_EQUAL(6, nibble);
 1933              		.loc 3 42 0 is_stmt 0 discriminator 8
 1934 115e 488B08   		movq	(%rax), %rcx
 1935 1161 488D45C0 		leaq	-64(%rbp), %rax
 1936 1165 BA2A0000 		movl	$42, %edx
 1936      00
 1937 116a 4889CE   		movq	%rcx, %rsi
 1938 116d 4889C7   		movq	%rax, %rdi
 1939 1170 E8000000 		call	_ZN8UnitTest11TestDetailsC1ERKS0_i@PLT
 1939      00
  42:testConv.cpp  **** 	CHECK_EQUAL(6, nibble);
 1940              		.loc 3 42 0 discriminator 12
 1941 1175 488D45C0 		leaq	-64(%rbp), %rax
 1942 1179 488D1500 		leaq	.LC3(%rip), %rdx
 1942      000000
 1943 1180 4889C6   		movq	%rax, %rsi
 1944 1183 4889DF   		movq	%rbx, %rdi
 1945 1186 E8000000 		call	_ZN8UnitTest11TestResults13OnTestFailureERKNS_11TestDetailsEPKc@PLT
 1945      00
 1946              	.LEHE153:
 1947              	.LEHB154:
  42:testConv.cpp  **** 	CHECK_EQUAL(6, nibble);
 1948              		.loc 3 42 0 discriminator 14
 1949 118b E8000000 		call	__cxa_end_catch@PLT
 1949      00
 1950              	.LEHE154:
 1951 1190 E931F2FF 		jmp	.L62
 1951      FF
 1952              	.L231:
 1953 1195 4889C3   		movq	%rax, %rbx
  42:testConv.cpp  **** 	CHECK_EQUAL(6, nibble);
 1954              		.loc 3 42 0
 1955 1198 E8000000 		call	__cxa_end_catch@PLT
 1955      00
 1956 119d 4889D8   		movq	%rbx, %rax
 1957 11a0 4889C7   		movq	%rax, %rdi
 1958              	.LEHB155:
 1959 11a3 E8000000 		call	_Unwind_Resume@PLT
 1959      00
 1960              	.LEHE155:
 1961              	.L233:
 1962 11a8 EB00     		jmp	.L65
 1963              	.L232:
 1964              	.L65:
  43:testConv.cpp  **** 	status = getHexNibble('7', &nibble);
 1965              		.loc 3 43 0 is_stmt 1
 1966 11aa 4889C7   		movq	%rax, %rdi
 1967 11ad E8000000 		call	__cxa_begin_catch@PLT
 1967      00
 1968              	.LEHB156:
 1969 11b2 E8000000 		call	_ZN8UnitTest11CurrentTest7ResultsEv@PLT
 1969      00
 1970 11b7 488B18   		movq	(%rax), %rbx
 1971 11ba E8000000 		call	_ZN8UnitTest11CurrentTest7DetailsEv@PLT
 1971      00
  43:testConv.cpp  **** 	status = getHexNibble('7', &nibble);
 1972              		.loc 3 43 0 is_stmt 0 discriminator 8
 1973 11bf 488B08   		movq	(%rax), %rcx
 1974 11c2 488D45C0 		leaq	-64(%rbp), %rax
 1975 11c6 BA2B0000 		movl	$43, %edx
 1975      00
 1976 11cb 4889CE   		movq	%rcx, %rsi
 1977 11ce 4889C7   		movq	%rax, %rdi
 1978 11d1 E8000000 		call	_ZN8UnitTest11TestDetailsC1ERKS0_i@PLT
 1978      00
  43:testConv.cpp  **** 	status = getHexNibble('7', &nibble);
 1979              		.loc 3 43 0 discriminator 12
 1980 11d6 488D45C0 		leaq	-64(%rbp), %rax
 1981 11da 488D1500 		leaq	.LC10(%rip), %rdx
 1981      000000
 1982 11e1 4889C6   		movq	%rax, %rsi
 1983 11e4 4889DF   		movq	%rbx, %rdi
 1984 11e7 E8000000 		call	_ZN8UnitTest11TestResults13OnTestFailureERKNS_11TestDetailsEPKc@PLT
 1984      00
 1985              	.LEHE156:
 1986              	.LEHB157:
  43:testConv.cpp  **** 	status = getHexNibble('7', &nibble);
 1987              		.loc 3 43 0 discriminator 14
 1988 11ec E8000000 		call	__cxa_end_catch@PLT
 1988      00
 1989              	.LEHE157:
 1990 11f1 E90FF2FF 		jmp	.L66
 1990      FF
 1991              	.L234:
 1992 11f6 4889C3   		movq	%rax, %rbx
  43:testConv.cpp  **** 	status = getHexNibble('7', &nibble);
 1993              		.loc 3 43 0
 1994 11f9 E8000000 		call	__cxa_end_catch@PLT
 1994      00
 1995 11fe 4889D8   		movq	%rbx, %rax
 1996 1201 4889C7   		movq	%rax, %rdi
 1997              	.LEHB158:
 1998 1204 E8000000 		call	_Unwind_Resume@PLT
 1998      00
 1999              	.LEHE158:
 2000              	.L236:
 2001 1209 EB00     		jmp	.L69
 2002              	.L235:
 2003              	.L69:
  45:testConv.cpp  **** 	CHECK_EQUAL(7, nibble);
 2004              		.loc 3 45 0 is_stmt 1
 2005 120b 4889C7   		movq	%rax, %rdi
 2006 120e E8000000 		call	__cxa_begin_catch@PLT
 2006      00
 2007              	.LEHB159:
 2008 1213 E8000000 		call	_ZN8UnitTest11CurrentTest7ResultsEv@PLT
 2008      00
 2009 1218 488B18   		movq	(%rax), %rbx
 2010 121b E8000000 		call	_ZN8UnitTest11CurrentTest7DetailsEv@PLT
 2010      00
  45:testConv.cpp  **** 	CHECK_EQUAL(7, nibble);
 2011              		.loc 3 45 0 is_stmt 0 discriminator 8
 2012 1220 488B08   		movq	(%rax), %rcx
 2013 1223 488D45C0 		leaq	-64(%rbp), %rax
 2014 1227 BA2D0000 		movl	$45, %edx
 2014      00
 2015 122c 4889CE   		movq	%rcx, %rsi
 2016 122f 4889C7   		movq	%rax, %rdi
 2017 1232 E8000000 		call	_ZN8UnitTest11TestDetailsC1ERKS0_i@PLT
 2017      00
  45:testConv.cpp  **** 	CHECK_EQUAL(7, nibble);
 2018              		.loc 3 45 0 discriminator 12
 2019 1237 488D45C0 		leaq	-64(%rbp), %rax
 2020 123b 488D1500 		leaq	.LC3(%rip), %rdx
 2020      000000
 2021 1242 4889C6   		movq	%rax, %rsi
 2022 1245 4889DF   		movq	%rbx, %rdi
 2023 1248 E8000000 		call	_ZN8UnitTest11TestResults13OnTestFailureERKNS_11TestDetailsEPKc@PLT
 2023      00
 2024              	.LEHE159:
 2025              	.LEHB160:
  45:testConv.cpp  **** 	CHECK_EQUAL(7, nibble);
 2026              		.loc 3 45 0 discriminator 14
 2027 124d E8000000 		call	__cxa_end_catch@PLT
 2027      00
 2028              	.LEHE160:
 2029 1252 E9FEF1FF 		jmp	.L70
 2029      FF
 2030              	.L237:
 2031 1257 4889C3   		movq	%rax, %rbx
  45:testConv.cpp  **** 	CHECK_EQUAL(7, nibble);
 2032              		.loc 3 45 0
 2033 125a E8000000 		call	__cxa_end_catch@PLT
 2033      00
 2034 125f 4889D8   		movq	%rbx, %rax
 2035 1262 4889C7   		movq	%rax, %rdi
 2036              	.LEHB161:
 2037 1265 E8000000 		call	_Unwind_Resume@PLT
 2037      00
 2038              	.LEHE161:
 2039              	.L239:
 2040 126a EB00     		jmp	.L73
 2041              	.L238:
 2042              	.L73:
  46:testConv.cpp  **** 	status = getHexNibble('8', &nibble);
 2043              		.loc 3 46 0 is_stmt 1
 2044 126c 4889C7   		movq	%rax, %rdi
 2045 126f E8000000 		call	__cxa_begin_catch@PLT
 2045      00
 2046              	.LEHB162:
 2047 1274 E8000000 		call	_ZN8UnitTest11CurrentTest7ResultsEv@PLT
 2047      00
 2048 1279 488B18   		movq	(%rax), %rbx
 2049 127c E8000000 		call	_ZN8UnitTest11CurrentTest7DetailsEv@PLT
 2049      00
  46:testConv.cpp  **** 	status = getHexNibble('8', &nibble);
 2050              		.loc 3 46 0 is_stmt 0 discriminator 8
 2051 1281 488B08   		movq	(%rax), %rcx
 2052 1284 488D45C0 		leaq	-64(%rbp), %rax
 2053 1288 BA2E0000 		movl	$46, %edx
 2053      00
 2054 128d 4889CE   		movq	%rcx, %rsi
 2055 1290 4889C7   		movq	%rax, %rdi
 2056 1293 E8000000 		call	_ZN8UnitTest11TestDetailsC1ERKS0_i@PLT
 2056      00
  46:testConv.cpp  **** 	status = getHexNibble('8', &nibble);
 2057              		.loc 3 46 0 discriminator 12
 2058 1298 488D45C0 		leaq	-64(%rbp), %rax
 2059 129c 488D1500 		leaq	.LC11(%rip), %rdx
 2059      000000
 2060 12a3 4889C6   		movq	%rax, %rsi
 2061 12a6 4889DF   		movq	%rbx, %rdi
 2062 12a9 E8000000 		call	_ZN8UnitTest11TestResults13OnTestFailureERKNS_11TestDetailsEPKc@PLT
 2062      00
 2063              	.LEHE162:
 2064              	.LEHB163:
  46:testConv.cpp  **** 	status = getHexNibble('8', &nibble);
 2065              		.loc 3 46 0 discriminator 14
 2066 12ae E8000000 		call	__cxa_end_catch@PLT
 2066      00
 2067              	.LEHE163:
 2068 12b3 E9DCF1FF 		jmp	.L74
 2068      FF
 2069              	.L240:
 2070 12b8 4889C3   		movq	%rax, %rbx
  46:testConv.cpp  **** 	status = getHexNibble('8', &nibble);
 2071              		.loc 3 46 0
 2072 12bb E8000000 		call	__cxa_end_catch@PLT
 2072      00
 2073 12c0 4889D8   		movq	%rbx, %rax
 2074 12c3 4889C7   		movq	%rax, %rdi
 2075              	.LEHB164:
 2076 12c6 E8000000 		call	_Unwind_Resume@PLT
 2076      00
 2077              	.LEHE164:
 2078              	.L242:
 2079 12cb EB00     		jmp	.L77
 2080              	.L241:
 2081              	.L77:
  48:testConv.cpp  **** 	CHECK_EQUAL(8, nibble);
 2082              		.loc 3 48 0 is_stmt 1
 2083 12cd 4889C7   		movq	%rax, %rdi
 2084 12d0 E8000000 		call	__cxa_begin_catch@PLT
 2084      00
 2085              	.LEHB165:
 2086 12d5 E8000000 		call	_ZN8UnitTest11CurrentTest7ResultsEv@PLT
 2086      00
 2087 12da 488B18   		movq	(%rax), %rbx
 2088 12dd E8000000 		call	_ZN8UnitTest11CurrentTest7DetailsEv@PLT
 2088      00
  48:testConv.cpp  **** 	CHECK_EQUAL(8, nibble);
 2089              		.loc 3 48 0 is_stmt 0 discriminator 8
 2090 12e2 488B08   		movq	(%rax), %rcx
 2091 12e5 488D45C0 		leaq	-64(%rbp), %rax
 2092 12e9 BA300000 		movl	$48, %edx
 2092      00
 2093 12ee 4889CE   		movq	%rcx, %rsi
 2094 12f1 4889C7   		movq	%rax, %rdi
 2095 12f4 E8000000 		call	_ZN8UnitTest11TestDetailsC1ERKS0_i@PLT
 2095      00
  48:testConv.cpp  **** 	CHECK_EQUAL(8, nibble);
 2096              		.loc 3 48 0 discriminator 12
 2097 12f9 488D45C0 		leaq	-64(%rbp), %rax
 2098 12fd 488D1500 		leaq	.LC3(%rip), %rdx
 2098      000000
 2099 1304 4889C6   		movq	%rax, %rsi
 2100 1307 4889DF   		movq	%rbx, %rdi
 2101 130a E8000000 		call	_ZN8UnitTest11TestResults13OnTestFailureERKNS_11TestDetailsEPKc@PLT
 2101      00
 2102              	.LEHE165:
 2103              	.LEHB166:
  48:testConv.cpp  **** 	CHECK_EQUAL(8, nibble);
 2104              		.loc 3 48 0 discriminator 14
 2105 130f E8000000 		call	__cxa_end_catch@PLT
 2105      00
 2106              	.LEHE166:
 2107 1314 E9CBF1FF 		jmp	.L78
 2107      FF
 2108              	.L243:
 2109 1319 4889C3   		movq	%rax, %rbx
  48:testConv.cpp  **** 	CHECK_EQUAL(8, nibble);
 2110              		.loc 3 48 0
 2111 131c E8000000 		call	__cxa_end_catch@PLT
 2111      00
 2112 1321 4889D8   		movq	%rbx, %rax
 2113 1324 4889C7   		movq	%rax, %rdi
 2114              	.LEHB167:
 2115 1327 E8000000 		call	_Unwind_Resume@PLT
 2115      00
 2116              	.LEHE167:
 2117              	.L245:
 2118 132c EB00     		jmp	.L81
 2119              	.L244:
 2120              	.L81:
  49:testConv.cpp  **** 	status = getHexNibble('9', &nibble);
 2121              		.loc 3 49 0 is_stmt 1
 2122 132e 4889C7   		movq	%rax, %rdi
 2123 1331 E8000000 		call	__cxa_begin_catch@PLT
 2123      00
 2124              	.LEHB168:
 2125 1336 E8000000 		call	_ZN8UnitTest11CurrentTest7ResultsEv@PLT
 2125      00
 2126 133b 488B18   		movq	(%rax), %rbx
 2127 133e E8000000 		call	_ZN8UnitTest11CurrentTest7DetailsEv@PLT
 2127      00
  49:testConv.cpp  **** 	status = getHexNibble('9', &nibble);
 2128              		.loc 3 49 0 is_stmt 0 discriminator 8
 2129 1343 488B08   		movq	(%rax), %rcx
 2130 1346 488D45C0 		leaq	-64(%rbp), %rax
 2131 134a BA310000 		movl	$49, %edx
 2131      00
 2132 134f 4889CE   		movq	%rcx, %rsi
 2133 1352 4889C7   		movq	%rax, %rdi
 2134 1355 E8000000 		call	_ZN8UnitTest11TestDetailsC1ERKS0_i@PLT
 2134      00
  49:testConv.cpp  **** 	status = getHexNibble('9', &nibble);
 2135              		.loc 3 49 0 discriminator 12
 2136 135a 488D45C0 		leaq	-64(%rbp), %rax
 2137 135e 488D1500 		leaq	.LC12(%rip), %rdx
 2137      000000
 2138 1365 4889C6   		movq	%rax, %rsi
 2139 1368 4889DF   		movq	%rbx, %rdi
 2140 136b E8000000 		call	_ZN8UnitTest11TestResults13OnTestFailureERKNS_11TestDetailsEPKc@PLT
 2140      00
 2141              	.LEHE168:
 2142              	.LEHB169:
  49:testConv.cpp  **** 	status = getHexNibble('9', &nibble);
 2143              		.loc 3 49 0 discriminator 14
 2144 1370 E8000000 		call	__cxa_end_catch@PLT
 2144      00
 2145              	.LEHE169:
 2146 1375 E9A9F1FF 		jmp	.L82
 2146      FF
 2147              	.L246:
 2148 137a 4889C3   		movq	%rax, %rbx
  49:testConv.cpp  **** 	status = getHexNibble('9', &nibble);
 2149              		.loc 3 49 0
 2150 137d E8000000 		call	__cxa_end_catch@PLT
 2150      00
 2151 1382 4889D8   		movq	%rbx, %rax
 2152 1385 4889C7   		movq	%rax, %rdi
 2153              	.LEHB170:
 2154 1388 E8000000 		call	_Unwind_Resume@PLT
 2154      00
 2155              	.LEHE170:
 2156              	.L248:
 2157 138d EB00     		jmp	.L85
 2158              	.L247:
 2159              	.L85:
  51:testConv.cpp  **** 	CHECK_EQUAL(9, nibble);
 2160              		.loc 3 51 0 is_stmt 1
 2161 138f 4889C7   		movq	%rax, %rdi
 2162 1392 E8000000 		call	__cxa_begin_catch@PLT
 2162      00
 2163              	.LEHB171:
 2164 1397 E8000000 		call	_ZN8UnitTest11CurrentTest7ResultsEv@PLT
 2164      00
 2165 139c 488B18   		movq	(%rax), %rbx
 2166 139f E8000000 		call	_ZN8UnitTest11CurrentTest7DetailsEv@PLT
 2166      00
  51:testConv.cpp  **** 	CHECK_EQUAL(9, nibble);
 2167              		.loc 3 51 0 is_stmt 0 discriminator 8
 2168 13a4 488B08   		movq	(%rax), %rcx
 2169 13a7 488D45C0 		leaq	-64(%rbp), %rax
 2170 13ab BA330000 		movl	$51, %edx
 2170      00
 2171 13b0 4889CE   		movq	%rcx, %rsi
 2172 13b3 4889C7   		movq	%rax, %rdi
 2173 13b6 E8000000 		call	_ZN8UnitTest11TestDetailsC1ERKS0_i@PLT
 2173      00
  51:testConv.cpp  **** 	CHECK_EQUAL(9, nibble);
 2174              		.loc 3 51 0 discriminator 12
 2175 13bb 488D45C0 		leaq	-64(%rbp), %rax
 2176 13bf 488D1500 		leaq	.LC3(%rip), %rdx
 2176      000000
 2177 13c6 4889C6   		movq	%rax, %rsi
 2178 13c9 4889DF   		movq	%rbx, %rdi
 2179 13cc E8000000 		call	_ZN8UnitTest11TestResults13OnTestFailureERKNS_11TestDetailsEPKc@PLT
 2179      00
 2180              	.LEHE171:
 2181              	.LEHB172:
  51:testConv.cpp  **** 	CHECK_EQUAL(9, nibble);
 2182              		.loc 3 51 0 discriminator 14
 2183 13d1 E8000000 		call	__cxa_end_catch@PLT
 2183      00
 2184              	.LEHE172:
 2185 13d6 E998F1FF 		jmp	.L86
 2185      FF
 2186              	.L249:
 2187 13db 4889C3   		movq	%rax, %rbx
  51:testConv.cpp  **** 	CHECK_EQUAL(9, nibble);
 2188              		.loc 3 51 0
 2189 13de E8000000 		call	__cxa_end_catch@PLT
 2189      00
 2190 13e3 4889D8   		movq	%rbx, %rax
 2191 13e6 4889C7   		movq	%rax, %rdi
 2192              	.LEHB173:
 2193 13e9 E8000000 		call	_Unwind_Resume@PLT
 2193      00
 2194              	.LEHE173:
 2195              	.L251:
 2196 13ee EB00     		jmp	.L89
 2197              	.L250:
 2198              	.L89:
  52:testConv.cpp  **** 	status = getHexNibble('A', &nibble);
 2199              		.loc 3 52 0 is_stmt 1
 2200 13f0 4889C7   		movq	%rax, %rdi
 2201 13f3 E8000000 		call	__cxa_begin_catch@PLT
 2201      00
 2202              	.LEHB174:
 2203 13f8 E8000000 		call	_ZN8UnitTest11CurrentTest7ResultsEv@PLT
 2203      00
 2204 13fd 488B18   		movq	(%rax), %rbx
 2205 1400 E8000000 		call	_ZN8UnitTest11CurrentTest7DetailsEv@PLT
 2205      00
  52:testConv.cpp  **** 	status = getHexNibble('A', &nibble);
 2206              		.loc 3 52 0 is_stmt 0 discriminator 8
 2207 1405 488B08   		movq	(%rax), %rcx
 2208 1408 488D45C0 		leaq	-64(%rbp), %rax
 2209 140c BA340000 		movl	$52, %edx
 2209      00
 2210 1411 4889CE   		movq	%rcx, %rsi
 2211 1414 4889C7   		movq	%rax, %rdi
 2212 1417 E8000000 		call	_ZN8UnitTest11TestDetailsC1ERKS0_i@PLT
 2212      00
  52:testConv.cpp  **** 	status = getHexNibble('A', &nibble);
 2213              		.loc 3 52 0 discriminator 12
 2214 141c 488D45C0 		leaq	-64(%rbp), %rax
 2215 1420 488D1500 		leaq	.LC13(%rip), %rdx
 2215      000000
 2216 1427 4889C6   		movq	%rax, %rsi
 2217 142a 4889DF   		movq	%rbx, %rdi
 2218 142d E8000000 		call	_ZN8UnitTest11TestResults13OnTestFailureERKNS_11TestDetailsEPKc@PLT
 2218      00
 2219              	.LEHE174:
 2220              	.LEHB175:
  52:testConv.cpp  **** 	status = getHexNibble('A', &nibble);
 2221              		.loc 3 52 0 discriminator 14
 2222 1432 E8000000 		call	__cxa_end_catch@PLT
 2222      00
 2223              	.LEHE175:
 2224 1437 E976F1FF 		jmp	.L90
 2224      FF
 2225              	.L252:
 2226 143c 4889C3   		movq	%rax, %rbx
  52:testConv.cpp  **** 	status = getHexNibble('A', &nibble);
 2227              		.loc 3 52 0
 2228 143f E8000000 		call	__cxa_end_catch@PLT
 2228      00
 2229 1444 4889D8   		movq	%rbx, %rax
 2230 1447 4889C7   		movq	%rax, %rdi
 2231              	.LEHB176:
 2232 144a E8000000 		call	_Unwind_Resume@PLT
 2232      00
 2233              	.LEHE176:
 2234              	.L254:
 2235 144f EB00     		jmp	.L93
 2236              	.L253:
 2237              	.L93:
  54:testConv.cpp  **** 	CHECK_EQUAL(10, nibble);
 2238              		.loc 3 54 0 is_stmt 1
 2239 1451 4889C7   		movq	%rax, %rdi
 2240 1454 E8000000 		call	__cxa_begin_catch@PLT
 2240      00
 2241              	.LEHB177:
 2242 1459 E8000000 		call	_ZN8UnitTest11CurrentTest7ResultsEv@PLT
 2242      00
 2243 145e 488B18   		movq	(%rax), %rbx
 2244 1461 E8000000 		call	_ZN8UnitTest11CurrentTest7DetailsEv@PLT
 2244      00
  54:testConv.cpp  **** 	CHECK_EQUAL(10, nibble);
 2245              		.loc 3 54 0 is_stmt 0 discriminator 8
 2246 1466 488B08   		movq	(%rax), %rcx
 2247 1469 488D45C0 		leaq	-64(%rbp), %rax
 2248 146d BA360000 		movl	$54, %edx
 2248      00
 2249 1472 4889CE   		movq	%rcx, %rsi
 2250 1475 4889C7   		movq	%rax, %rdi
 2251 1478 E8000000 		call	_ZN8UnitTest11TestDetailsC1ERKS0_i@PLT
 2251      00
  54:testConv.cpp  **** 	CHECK_EQUAL(10, nibble);
 2252              		.loc 3 54 0 discriminator 12
 2253 147d 488D45C0 		leaq	-64(%rbp), %rax
 2254 1481 488D1500 		leaq	.LC3(%rip), %rdx
 2254      000000
 2255 1488 4889C6   		movq	%rax, %rsi
 2256 148b 4889DF   		movq	%rbx, %rdi
 2257 148e E8000000 		call	_ZN8UnitTest11TestResults13OnTestFailureERKNS_11TestDetailsEPKc@PLT
 2257      00
 2258              	.LEHE177:
 2259              	.LEHB178:
  54:testConv.cpp  **** 	CHECK_EQUAL(10, nibble);
 2260              		.loc 3 54 0 discriminator 14
 2261 1493 E8000000 		call	__cxa_end_catch@PLT
 2261      00
 2262              	.LEHE178:
 2263 1498 E965F1FF 		jmp	.L94
 2263      FF
 2264              	.L255:
 2265 149d 4889C3   		movq	%rax, %rbx
  54:testConv.cpp  **** 	CHECK_EQUAL(10, nibble);
 2266              		.loc 3 54 0
 2267 14a0 E8000000 		call	__cxa_end_catch@PLT
 2267      00
 2268 14a5 4889D8   		movq	%rbx, %rax
 2269 14a8 4889C7   		movq	%rax, %rdi
 2270              	.LEHB179:
 2271 14ab E8000000 		call	_Unwind_Resume@PLT
 2271      00
 2272              	.LEHE179:
 2273              	.L257:
 2274 14b0 EB00     		jmp	.L97
 2275              	.L256:
 2276              	.L97:
  55:testConv.cpp  **** 	status = getHexNibble('B', &nibble);
 2277              		.loc 3 55 0 is_stmt 1
 2278 14b2 4889C7   		movq	%rax, %rdi
 2279 14b5 E8000000 		call	__cxa_begin_catch@PLT
 2279      00
 2280              	.LEHB180:
 2281 14ba E8000000 		call	_ZN8UnitTest11CurrentTest7ResultsEv@PLT
 2281      00
 2282 14bf 488B18   		movq	(%rax), %rbx
 2283 14c2 E8000000 		call	_ZN8UnitTest11CurrentTest7DetailsEv@PLT
 2283      00
  55:testConv.cpp  **** 	status = getHexNibble('B', &nibble);
 2284              		.loc 3 55 0 is_stmt 0 discriminator 8
 2285 14c7 488B08   		movq	(%rax), %rcx
 2286 14ca 488D45C0 		leaq	-64(%rbp), %rax
 2287 14ce BA370000 		movl	$55, %edx
 2287      00
 2288 14d3 4889CE   		movq	%rcx, %rsi
 2289 14d6 4889C7   		movq	%rax, %rdi
 2290 14d9 E8000000 		call	_ZN8UnitTest11TestDetailsC1ERKS0_i@PLT
 2290      00
  55:testConv.cpp  **** 	status = getHexNibble('B', &nibble);
 2291              		.loc 3 55 0 discriminator 12
 2292 14de 488D45C0 		leaq	-64(%rbp), %rax
 2293 14e2 488D1500 		leaq	.LC14(%rip), %rdx
 2293      000000
 2294 14e9 4889C6   		movq	%rax, %rsi
 2295 14ec 4889DF   		movq	%rbx, %rdi
 2296 14ef E8000000 		call	_ZN8UnitTest11TestResults13OnTestFailureERKNS_11TestDetailsEPKc@PLT
 2296      00
 2297              	.LEHE180:
 2298              	.LEHB181:
  55:testConv.cpp  **** 	status = getHexNibble('B', &nibble);
 2299              		.loc 3 55 0 discriminator 14
 2300 14f4 E8000000 		call	__cxa_end_catch@PLT
 2300      00
 2301              	.LEHE181:
 2302 14f9 E943F1FF 		jmp	.L98
 2302      FF
 2303              	.L258:
 2304 14fe 4889C3   		movq	%rax, %rbx
  55:testConv.cpp  **** 	status = getHexNibble('B', &nibble);
 2305              		.loc 3 55 0
 2306 1501 E8000000 		call	__cxa_end_catch@PLT
 2306      00
 2307 1506 4889D8   		movq	%rbx, %rax
 2308 1509 4889C7   		movq	%rax, %rdi
 2309              	.LEHB182:
 2310 150c E8000000 		call	_Unwind_Resume@PLT
 2310      00
 2311              	.LEHE182:
 2312              	.L260:
 2313 1511 EB00     		jmp	.L101
 2314              	.L259:
 2315              	.L101:
  57:testConv.cpp  **** 	CHECK_EQUAL(11, nibble);
 2316              		.loc 3 57 0 is_stmt 1
 2317 1513 4889C7   		movq	%rax, %rdi
 2318 1516 E8000000 		call	__cxa_begin_catch@PLT
 2318      00
 2319              	.LEHB183:
 2320 151b E8000000 		call	_ZN8UnitTest11CurrentTest7ResultsEv@PLT
 2320      00
 2321 1520 488B18   		movq	(%rax), %rbx
 2322 1523 E8000000 		call	_ZN8UnitTest11CurrentTest7DetailsEv@PLT
 2322      00
  57:testConv.cpp  **** 	CHECK_EQUAL(11, nibble);
 2323              		.loc 3 57 0 is_stmt 0 discriminator 8
 2324 1528 488B08   		movq	(%rax), %rcx
 2325 152b 488D45C0 		leaq	-64(%rbp), %rax
 2326 152f BA390000 		movl	$57, %edx
 2326      00
 2327 1534 4889CE   		movq	%rcx, %rsi
 2328 1537 4889C7   		movq	%rax, %rdi
 2329 153a E8000000 		call	_ZN8UnitTest11TestDetailsC1ERKS0_i@PLT
 2329      00
  57:testConv.cpp  **** 	CHECK_EQUAL(11, nibble);
 2330              		.loc 3 57 0 discriminator 12
 2331 153f 488D45C0 		leaq	-64(%rbp), %rax
 2332 1543 488D1500 		leaq	.LC3(%rip), %rdx
 2332      000000
 2333 154a 4889C6   		movq	%rax, %rsi
 2334 154d 4889DF   		movq	%rbx, %rdi
 2335 1550 E8000000 		call	_ZN8UnitTest11TestResults13OnTestFailureERKNS_11TestDetailsEPKc@PLT
 2335      00
 2336              	.LEHE183:
 2337              	.LEHB184:
  57:testConv.cpp  **** 	CHECK_EQUAL(11, nibble);
 2338              		.loc 3 57 0 discriminator 14
 2339 1555 E8000000 		call	__cxa_end_catch@PLT
 2339      00
 2340              	.LEHE184:
 2341 155a E932F1FF 		jmp	.L102
 2341      FF
 2342              	.L261:
 2343 155f 4889C3   		movq	%rax, %rbx
  57:testConv.cpp  **** 	CHECK_EQUAL(11, nibble);
 2344              		.loc 3 57 0
 2345 1562 E8000000 		call	__cxa_end_catch@PLT
 2345      00
 2346 1567 4889D8   		movq	%rbx, %rax
 2347 156a 4889C7   		movq	%rax, %rdi
 2348              	.LEHB185:
 2349 156d E8000000 		call	_Unwind_Resume@PLT
 2349      00
 2350              	.LEHE185:
 2351              	.L263:
 2352 1572 EB00     		jmp	.L105
 2353              	.L262:
 2354              	.L105:
  58:testConv.cpp  **** 	status = getHexNibble('C', &nibble);
 2355              		.loc 3 58 0 is_stmt 1
 2356 1574 4889C7   		movq	%rax, %rdi
 2357 1577 E8000000 		call	__cxa_begin_catch@PLT
 2357      00
 2358              	.LEHB186:
 2359 157c E8000000 		call	_ZN8UnitTest11CurrentTest7ResultsEv@PLT
 2359      00
 2360 1581 488B18   		movq	(%rax), %rbx
 2361 1584 E8000000 		call	_ZN8UnitTest11CurrentTest7DetailsEv@PLT
 2361      00
  58:testConv.cpp  **** 	status = getHexNibble('C', &nibble);
 2362              		.loc 3 58 0 is_stmt 0 discriminator 8
 2363 1589 488B08   		movq	(%rax), %rcx
 2364 158c 488D45C0 		leaq	-64(%rbp), %rax
 2365 1590 BA3A0000 		movl	$58, %edx
 2365      00
 2366 1595 4889CE   		movq	%rcx, %rsi
 2367 1598 4889C7   		movq	%rax, %rdi
 2368 159b E8000000 		call	_ZN8UnitTest11TestDetailsC1ERKS0_i@PLT
 2368      00
  58:testConv.cpp  **** 	status = getHexNibble('C', &nibble);
 2369              		.loc 3 58 0 discriminator 12
 2370 15a0 488D45C0 		leaq	-64(%rbp), %rax
 2371 15a4 488D1500 		leaq	.LC15(%rip), %rdx
 2371      000000
 2372 15ab 4889C6   		movq	%rax, %rsi
 2373 15ae 4889DF   		movq	%rbx, %rdi
 2374 15b1 E8000000 		call	_ZN8UnitTest11TestResults13OnTestFailureERKNS_11TestDetailsEPKc@PLT
 2374      00
 2375              	.LEHE186:
 2376              	.LEHB187:
  58:testConv.cpp  **** 	status = getHexNibble('C', &nibble);
 2377              		.loc 3 58 0 discriminator 14
 2378 15b6 E8000000 		call	__cxa_end_catch@PLT
 2378      00
 2379              	.LEHE187:
 2380 15bb E910F1FF 		jmp	.L106
 2380      FF
 2381              	.L264:
 2382 15c0 4889C3   		movq	%rax, %rbx
  58:testConv.cpp  **** 	status = getHexNibble('C', &nibble);
 2383              		.loc 3 58 0
 2384 15c3 E8000000 		call	__cxa_end_catch@PLT
 2384      00
 2385 15c8 4889D8   		movq	%rbx, %rax
 2386 15cb 4889C7   		movq	%rax, %rdi
 2387              	.LEHB188:
 2388 15ce E8000000 		call	_Unwind_Resume@PLT
 2388      00
 2389              	.LEHE188:
 2390              	.L266:
 2391 15d3 EB00     		jmp	.L109
 2392              	.L265:
 2393              	.L109:
  60:testConv.cpp  **** 	CHECK_EQUAL(12, nibble);
 2394              		.loc 3 60 0 is_stmt 1
 2395 15d5 4889C7   		movq	%rax, %rdi
 2396 15d8 E8000000 		call	__cxa_begin_catch@PLT
 2396      00
 2397              	.LEHB189:
 2398 15dd E8000000 		call	_ZN8UnitTest11CurrentTest7ResultsEv@PLT
 2398      00
 2399 15e2 488B18   		movq	(%rax), %rbx
 2400 15e5 E8000000 		call	_ZN8UnitTest11CurrentTest7DetailsEv@PLT
 2400      00
  60:testConv.cpp  **** 	CHECK_EQUAL(12, nibble);
 2401              		.loc 3 60 0 is_stmt 0 discriminator 8
 2402 15ea 488B08   		movq	(%rax), %rcx
 2403 15ed 488D45C0 		leaq	-64(%rbp), %rax
 2404 15f1 BA3C0000 		movl	$60, %edx
 2404      00
 2405 15f6 4889CE   		movq	%rcx, %rsi
 2406 15f9 4889C7   		movq	%rax, %rdi
 2407 15fc E8000000 		call	_ZN8UnitTest11TestDetailsC1ERKS0_i@PLT
 2407      00
  60:testConv.cpp  **** 	CHECK_EQUAL(12, nibble);
 2408              		.loc 3 60 0 discriminator 12
 2409 1601 488D45C0 		leaq	-64(%rbp), %rax
 2410 1605 488D1500 		leaq	.LC3(%rip), %rdx
 2410      000000
 2411 160c 4889C6   		movq	%rax, %rsi
 2412 160f 4889DF   		movq	%rbx, %rdi
 2413 1612 E8000000 		call	_ZN8UnitTest11TestResults13OnTestFailureERKNS_11TestDetailsEPKc@PLT
 2413      00
 2414              	.LEHE189:
 2415              	.LEHB190:
  60:testConv.cpp  **** 	CHECK_EQUAL(12, nibble);
 2416              		.loc 3 60 0 discriminator 14
 2417 1617 E8000000 		call	__cxa_end_catch@PLT
 2417      00
 2418              	.LEHE190:
 2419 161c E9FFF0FF 		jmp	.L110
 2419      FF
 2420              	.L267:
 2421 1621 4889C3   		movq	%rax, %rbx
  60:testConv.cpp  **** 	CHECK_EQUAL(12, nibble);
 2422              		.loc 3 60 0
 2423 1624 E8000000 		call	__cxa_end_catch@PLT
 2423      00
 2424 1629 4889D8   		movq	%rbx, %rax
 2425 162c 4889C7   		movq	%rax, %rdi
 2426              	.LEHB191:
 2427 162f E8000000 		call	_Unwind_Resume@PLT
 2427      00
 2428              	.LEHE191:
 2429              	.L269:
 2430 1634 EB00     		jmp	.L113
 2431              	.L268:
 2432              	.L113:
  61:testConv.cpp  **** 	status = getHexNibble('D', &nibble);
 2433              		.loc 3 61 0 is_stmt 1
 2434 1636 4889C7   		movq	%rax, %rdi
 2435 1639 E8000000 		call	__cxa_begin_catch@PLT
 2435      00
 2436              	.LEHB192:
 2437 163e E8000000 		call	_ZN8UnitTest11CurrentTest7ResultsEv@PLT
 2437      00
 2438 1643 488B18   		movq	(%rax), %rbx
 2439 1646 E8000000 		call	_ZN8UnitTest11CurrentTest7DetailsEv@PLT
 2439      00
  61:testConv.cpp  **** 	status = getHexNibble('D', &nibble);
 2440              		.loc 3 61 0 is_stmt 0 discriminator 8
 2441 164b 488B08   		movq	(%rax), %rcx
 2442 164e 488D45C0 		leaq	-64(%rbp), %rax
 2443 1652 BA3D0000 		movl	$61, %edx
 2443      00
 2444 1657 4889CE   		movq	%rcx, %rsi
 2445 165a 4889C7   		movq	%rax, %rdi
 2446 165d E8000000 		call	_ZN8UnitTest11TestDetailsC1ERKS0_i@PLT
 2446      00
  61:testConv.cpp  **** 	status = getHexNibble('D', &nibble);
 2447              		.loc 3 61 0 discriminator 12
 2448 1662 488D45C0 		leaq	-64(%rbp), %rax
 2449 1666 488D1500 		leaq	.LC16(%rip), %rdx
 2449      000000
 2450 166d 4889C6   		movq	%rax, %rsi
 2451 1670 4889DF   		movq	%rbx, %rdi
 2452 1673 E8000000 		call	_ZN8UnitTest11TestResults13OnTestFailureERKNS_11TestDetailsEPKc@PLT
 2452      00
 2453              	.LEHE192:
 2454              	.LEHB193:
  61:testConv.cpp  **** 	status = getHexNibble('D', &nibble);
 2455              		.loc 3 61 0 discriminator 14
 2456 1678 E8000000 		call	__cxa_end_catch@PLT
 2456      00
 2457              	.LEHE193:
 2458 167d E9DDF0FF 		jmp	.L114
 2458      FF
 2459              	.L270:
 2460 1682 4889C3   		movq	%rax, %rbx
  61:testConv.cpp  **** 	status = getHexNibble('D', &nibble);
 2461              		.loc 3 61 0
 2462 1685 E8000000 		call	__cxa_end_catch@PLT
 2462      00
 2463 168a 4889D8   		movq	%rbx, %rax
 2464 168d 4889C7   		movq	%rax, %rdi
 2465              	.LEHB194:
 2466 1690 E8000000 		call	_Unwind_Resume@PLT
 2466      00
 2467              	.LEHE194:
 2468              	.L272:
 2469 1695 EB00     		jmp	.L117
 2470              	.L271:
 2471              	.L117:
  63:testConv.cpp  **** 	CHECK_EQUAL(13, nibble);
 2472              		.loc 3 63 0 is_stmt 1
 2473 1697 4889C7   		movq	%rax, %rdi
 2474 169a E8000000 		call	__cxa_begin_catch@PLT
 2474      00
 2475              	.LEHB195:
 2476 169f E8000000 		call	_ZN8UnitTest11CurrentTest7ResultsEv@PLT
 2476      00
 2477 16a4 488B18   		movq	(%rax), %rbx
 2478 16a7 E8000000 		call	_ZN8UnitTest11CurrentTest7DetailsEv@PLT
 2478      00
  63:testConv.cpp  **** 	CHECK_EQUAL(13, nibble);
 2479              		.loc 3 63 0 is_stmt 0 discriminator 8
 2480 16ac 488B08   		movq	(%rax), %rcx
 2481 16af 488D45C0 		leaq	-64(%rbp), %rax
 2482 16b3 BA3F0000 		movl	$63, %edx
 2482      00
 2483 16b8 4889CE   		movq	%rcx, %rsi
 2484 16bb 4889C7   		movq	%rax, %rdi
 2485 16be E8000000 		call	_ZN8UnitTest11TestDetailsC1ERKS0_i@PLT
 2485      00
  63:testConv.cpp  **** 	CHECK_EQUAL(13, nibble);
 2486              		.loc 3 63 0 discriminator 12
 2487 16c3 488D45C0 		leaq	-64(%rbp), %rax
 2488 16c7 488D1500 		leaq	.LC3(%rip), %rdx
 2488      000000
 2489 16ce 4889C6   		movq	%rax, %rsi
 2490 16d1 4889DF   		movq	%rbx, %rdi
 2491 16d4 E8000000 		call	_ZN8UnitTest11TestResults13OnTestFailureERKNS_11TestDetailsEPKc@PLT
 2491      00
 2492              	.LEHE195:
 2493              	.LEHB196:
  63:testConv.cpp  **** 	CHECK_EQUAL(13, nibble);
 2494              		.loc 3 63 0 discriminator 14
 2495 16d9 E8000000 		call	__cxa_end_catch@PLT
 2495      00
 2496              	.LEHE196:
 2497 16de E9CCF0FF 		jmp	.L118
 2497      FF
 2498              	.L273:
 2499 16e3 4889C3   		movq	%rax, %rbx
  63:testConv.cpp  **** 	CHECK_EQUAL(13, nibble);
 2500              		.loc 3 63 0
 2501 16e6 E8000000 		call	__cxa_end_catch@PLT
 2501      00
 2502 16eb 4889D8   		movq	%rbx, %rax
 2503 16ee 4889C7   		movq	%rax, %rdi
 2504              	.LEHB197:
 2505 16f1 E8000000 		call	_Unwind_Resume@PLT
 2505      00
 2506              	.LEHE197:
 2507              	.L275:
 2508 16f6 EB00     		jmp	.L121
 2509              	.L274:
 2510              	.L121:
  64:testConv.cpp  **** 	status = getHexNibble('E', &nibble);
 2511              		.loc 3 64 0 is_stmt 1
 2512 16f8 4889C7   		movq	%rax, %rdi
 2513 16fb E8000000 		call	__cxa_begin_catch@PLT
 2513      00
 2514              	.LEHB198:
 2515 1700 E8000000 		call	_ZN8UnitTest11CurrentTest7ResultsEv@PLT
 2515      00
 2516 1705 488B18   		movq	(%rax), %rbx
 2517 1708 E8000000 		call	_ZN8UnitTest11CurrentTest7DetailsEv@PLT
 2517      00
  64:testConv.cpp  **** 	status = getHexNibble('E', &nibble);
 2518              		.loc 3 64 0 is_stmt 0 discriminator 8
 2519 170d 488B08   		movq	(%rax), %rcx
 2520 1710 488D45C0 		leaq	-64(%rbp), %rax
 2521 1714 BA400000 		movl	$64, %edx
 2521      00
 2522 1719 4889CE   		movq	%rcx, %rsi
 2523 171c 4889C7   		movq	%rax, %rdi
 2524 171f E8000000 		call	_ZN8UnitTest11TestDetailsC1ERKS0_i@PLT
 2524      00
  64:testConv.cpp  **** 	status = getHexNibble('E', &nibble);
 2525              		.loc 3 64 0 discriminator 12
 2526 1724 488D45C0 		leaq	-64(%rbp), %rax
 2527 1728 488D1500 		leaq	.LC17(%rip), %rdx
 2527      000000
 2528 172f 4889C6   		movq	%rax, %rsi
 2529 1732 4889DF   		movq	%rbx, %rdi
 2530 1735 E8000000 		call	_ZN8UnitTest11TestResults13OnTestFailureERKNS_11TestDetailsEPKc@PLT
 2530      00
 2531              	.LEHE198:
 2532              	.LEHB199:
  64:testConv.cpp  **** 	status = getHexNibble('E', &nibble);
 2533              		.loc 3 64 0 discriminator 14
 2534 173a E8000000 		call	__cxa_end_catch@PLT
 2534      00
 2535              	.LEHE199:
 2536 173f E9AAF0FF 		jmp	.L122
 2536      FF
 2537              	.L276:
 2538 1744 4889C3   		movq	%rax, %rbx
  64:testConv.cpp  **** 	status = getHexNibble('E', &nibble);
 2539              		.loc 3 64 0
 2540 1747 E8000000 		call	__cxa_end_catch@PLT
 2540      00
 2541 174c 4889D8   		movq	%rbx, %rax
 2542 174f 4889C7   		movq	%rax, %rdi
 2543              	.LEHB200:
 2544 1752 E8000000 		call	_Unwind_Resume@PLT
 2544      00
 2545              	.LEHE200:
 2546              	.L278:
 2547 1757 EB00     		jmp	.L125
 2548              	.L277:
 2549              	.L125:
  66:testConv.cpp  **** 	CHECK_EQUAL(14, nibble);
 2550              		.loc 3 66 0 is_stmt 1
 2551 1759 4889C7   		movq	%rax, %rdi
 2552 175c E8000000 		call	__cxa_begin_catch@PLT
 2552      00
 2553              	.LEHB201:
 2554 1761 E8000000 		call	_ZN8UnitTest11CurrentTest7ResultsEv@PLT
 2554      00
 2555 1766 488B18   		movq	(%rax), %rbx
 2556 1769 E8000000 		call	_ZN8UnitTest11CurrentTest7DetailsEv@PLT
 2556      00
  66:testConv.cpp  **** 	CHECK_EQUAL(14, nibble);
 2557              		.loc 3 66 0 is_stmt 0 discriminator 8
 2558 176e 488B08   		movq	(%rax), %rcx
 2559 1771 488D45C0 		leaq	-64(%rbp), %rax
 2560 1775 BA420000 		movl	$66, %edx
 2560      00
 2561 177a 4889CE   		movq	%rcx, %rsi
 2562 177d 4889C7   		movq	%rax, %rdi
 2563 1780 E8000000 		call	_ZN8UnitTest11TestDetailsC1ERKS0_i@PLT
 2563      00
  66:testConv.cpp  **** 	CHECK_EQUAL(14, nibble);
 2564              		.loc 3 66 0 discriminator 12
 2565 1785 488D45C0 		leaq	-64(%rbp), %rax
 2566 1789 488D1500 		leaq	.LC3(%rip), %rdx
 2566      000000
 2567 1790 4889C6   		movq	%rax, %rsi
 2568 1793 4889DF   		movq	%rbx, %rdi
 2569 1796 E8000000 		call	_ZN8UnitTest11TestResults13OnTestFailureERKNS_11TestDetailsEPKc@PLT
 2569      00
 2570              	.LEHE201:
 2571              	.LEHB202:
  66:testConv.cpp  **** 	CHECK_EQUAL(14, nibble);
 2572              		.loc 3 66 0 discriminator 14
 2573 179b E8000000 		call	__cxa_end_catch@PLT
 2573      00
 2574              	.LEHE202:
 2575 17a0 E999F0FF 		jmp	.L126
 2575      FF
 2576              	.L279:
 2577 17a5 4889C3   		movq	%rax, %rbx
  66:testConv.cpp  **** 	CHECK_EQUAL(14, nibble);
 2578              		.loc 3 66 0
 2579 17a8 E8000000 		call	__cxa_end_catch@PLT
 2579      00
 2580 17ad 4889D8   		movq	%rbx, %rax
 2581 17b0 4889C7   		movq	%rax, %rdi
 2582              	.LEHB203:
 2583 17b3 E8000000 		call	_Unwind_Resume@PLT
 2583      00
 2584              	.LEHE203:
 2585              	.L281:
 2586 17b8 EB00     		jmp	.L129
 2587              	.L280:
 2588              	.L129:
  67:testConv.cpp  **** 	status = getHexNibble('F', &nibble);
 2589              		.loc 3 67 0 is_stmt 1
 2590 17ba 4889C7   		movq	%rax, %rdi
 2591 17bd E8000000 		call	__cxa_begin_catch@PLT
 2591      00
 2592              	.LEHB204:
 2593 17c2 E8000000 		call	_ZN8UnitTest11CurrentTest7ResultsEv@PLT
 2593      00
 2594 17c7 488B18   		movq	(%rax), %rbx
 2595 17ca E8000000 		call	_ZN8UnitTest11CurrentTest7DetailsEv@PLT
 2595      00
  67:testConv.cpp  **** 	status = getHexNibble('F', &nibble);
 2596              		.loc 3 67 0 is_stmt 0 discriminator 8
 2597 17cf 488B08   		movq	(%rax), %rcx
 2598 17d2 488D45C0 		leaq	-64(%rbp), %rax
 2599 17d6 BA430000 		movl	$67, %edx
 2599      00
 2600 17db 4889CE   		movq	%rcx, %rsi
 2601 17de 4889C7   		movq	%rax, %rdi
 2602 17e1 E8000000 		call	_ZN8UnitTest11TestDetailsC1ERKS0_i@PLT
 2602      00
  67:testConv.cpp  **** 	status = getHexNibble('F', &nibble);
 2603              		.loc 3 67 0 discriminator 12
 2604 17e6 488D45C0 		leaq	-64(%rbp), %rax
 2605 17ea 488D1500 		leaq	.LC18(%rip), %rdx
 2605      000000
 2606 17f1 4889C6   		movq	%rax, %rsi
 2607 17f4 4889DF   		movq	%rbx, %rdi
 2608 17f7 E8000000 		call	_ZN8UnitTest11TestResults13OnTestFailureERKNS_11TestDetailsEPKc@PLT
 2608      00
 2609              	.LEHE204:
 2610              	.LEHB205:
  67:testConv.cpp  **** 	status = getHexNibble('F', &nibble);
 2611              		.loc 3 67 0 discriminator 14
 2612 17fc E8000000 		call	__cxa_end_catch@PLT
 2612      00
 2613              	.LEHE205:
 2614 1801 E977F0FF 		jmp	.L130
 2614      FF
 2615              	.L282:
 2616 1806 4889C3   		movq	%rax, %rbx
  67:testConv.cpp  **** 	status = getHexNibble('F', &nibble);
 2617              		.loc 3 67 0
 2618 1809 E8000000 		call	__cxa_end_catch@PLT
 2618      00
 2619 180e 4889D8   		movq	%rbx, %rax
 2620 1811 4889C7   		movq	%rax, %rdi
 2621              	.LEHB206:
 2622 1814 E8000000 		call	_Unwind_Resume@PLT
 2622      00
 2623              	.LEHE206:
 2624              	.L284:
 2625 1819 EB00     		jmp	.L133
 2626              	.L283:
 2627              	.L133:
  69:testConv.cpp  **** 	CHECK_EQUAL(15, nibble);
 2628              		.loc 3 69 0 is_stmt 1
 2629 181b 4889C7   		movq	%rax, %rdi
 2630 181e E8000000 		call	__cxa_begin_catch@PLT
 2630      00
 2631              	.LEHB207:
 2632 1823 E8000000 		call	_ZN8UnitTest11CurrentTest7ResultsEv@PLT
 2632      00
 2633 1828 488B18   		movq	(%rax), %rbx
 2634 182b E8000000 		call	_ZN8UnitTest11CurrentTest7DetailsEv@PLT
 2634      00
  69:testConv.cpp  **** 	CHECK_EQUAL(15, nibble);
 2635              		.loc 3 69 0 is_stmt 0 discriminator 8
 2636 1830 488B08   		movq	(%rax), %rcx
 2637 1833 488D45C0 		leaq	-64(%rbp), %rax
 2638 1837 BA450000 		movl	$69, %edx
 2638      00
 2639 183c 4889CE   		movq	%rcx, %rsi
 2640 183f 4889C7   		movq	%rax, %rdi
 2641 1842 E8000000 		call	_ZN8UnitTest11TestDetailsC1ERKS0_i@PLT
 2641      00
  69:testConv.cpp  **** 	CHECK_EQUAL(15, nibble);
 2642              		.loc 3 69 0 discriminator 12
 2643 1847 488D45C0 		leaq	-64(%rbp), %rax
 2644 184b 488D1500 		leaq	.LC3(%rip), %rdx
 2644      000000
 2645 1852 4889C6   		movq	%rax, %rsi
 2646 1855 4889DF   		movq	%rbx, %rdi
 2647 1858 E8000000 		call	_ZN8UnitTest11TestResults13OnTestFailureERKNS_11TestDetailsEPKc@PLT
 2647      00
 2648              	.LEHE207:
 2649              	.LEHB208:
  69:testConv.cpp  **** 	CHECK_EQUAL(15, nibble);
 2650              		.loc 3 69 0 discriminator 14
 2651 185d E8000000 		call	__cxa_end_catch@PLT
 2651      00
 2652              	.LEHE208:
 2653 1862 E966F0FF 		jmp	.L134
 2653      FF
 2654              	.L285:
 2655 1867 4889C3   		movq	%rax, %rbx
  69:testConv.cpp  **** 	CHECK_EQUAL(15, nibble);
 2656              		.loc 3 69 0
 2657 186a E8000000 		call	__cxa_end_catch@PLT
 2657      00
 2658 186f 4889D8   		movq	%rbx, %rax
 2659 1872 4889C7   		movq	%rax, %rdi
 2660              	.LEHB209:
 2661 1875 E8000000 		call	_Unwind_Resume@PLT
 2661      00
 2662              	.LEHE209:
 2663              	.L287:
 2664 187a EB00     		jmp	.L137
 2665              	.L286:
 2666              	.L137:
  70:testConv.cpp  **** 	status = getHexNibble('a', &nibble);
 2667              		.loc 3 70 0 is_stmt 1
 2668 187c 4889C7   		movq	%rax, %rdi
 2669 187f E8000000 		call	__cxa_begin_catch@PLT
 2669      00
 2670              	.LEHB210:
 2671 1884 E8000000 		call	_ZN8UnitTest11CurrentTest7ResultsEv@PLT
 2671      00
 2672 1889 488B18   		movq	(%rax), %rbx
 2673 188c E8000000 		call	_ZN8UnitTest11CurrentTest7DetailsEv@PLT
 2673      00
  70:testConv.cpp  **** 	status = getHexNibble('a', &nibble);
 2674              		.loc 3 70 0 is_stmt 0 discriminator 8
 2675 1891 488B08   		movq	(%rax), %rcx
 2676 1894 488D45C0 		leaq	-64(%rbp), %rax
 2677 1898 BA460000 		movl	$70, %edx
 2677      00
 2678 189d 4889CE   		movq	%rcx, %rsi
 2679 18a0 4889C7   		movq	%rax, %rdi
 2680 18a3 E8000000 		call	_ZN8UnitTest11TestDetailsC1ERKS0_i@PLT
 2680      00
  70:testConv.cpp  **** 	status = getHexNibble('a', &nibble);
 2681              		.loc 3 70 0 discriminator 12
 2682 18a8 488D45C0 		leaq	-64(%rbp), %rax
 2683 18ac 488D1500 		leaq	.LC19(%rip), %rdx
 2683      000000
 2684 18b3 4889C6   		movq	%rax, %rsi
 2685 18b6 4889DF   		movq	%rbx, %rdi
 2686 18b9 E8000000 		call	_ZN8UnitTest11TestResults13OnTestFailureERKNS_11TestDetailsEPKc@PLT
 2686      00
 2687              	.LEHE210:
 2688              	.LEHB211:
  70:testConv.cpp  **** 	status = getHexNibble('a', &nibble);
 2689              		.loc 3 70 0 discriminator 14
 2690 18be E8000000 		call	__cxa_end_catch@PLT
 2690      00
 2691              	.LEHE211:
 2692 18c3 E944F0FF 		jmp	.L138
 2692      FF
 2693              	.L288:
 2694 18c8 4889C3   		movq	%rax, %rbx
  70:testConv.cpp  **** 	status = getHexNibble('a', &nibble);
 2695              		.loc 3 70 0
 2696 18cb E8000000 		call	__cxa_end_catch@PLT
 2696      00
 2697 18d0 4889D8   		movq	%rbx, %rax
 2698 18d3 4889C7   		movq	%rax, %rdi
 2699              	.LEHB212:
 2700 18d6 E8000000 		call	_Unwind_Resume@PLT
 2700      00
 2701              	.LEHE212:
 2702              	.L290:
 2703 18db EB00     		jmp	.L141
 2704              	.L289:
 2705              	.L141:
  72:testConv.cpp  **** 	CHECK_EQUAL(10, nibble);
 2706              		.loc 3 72 0 is_stmt 1
 2707 18dd 4889C7   		movq	%rax, %rdi
 2708 18e0 E8000000 		call	__cxa_begin_catch@PLT
 2708      00
 2709              	.LEHB213:
 2710 18e5 E8000000 		call	_ZN8UnitTest11CurrentTest7ResultsEv@PLT
 2710      00
 2711 18ea 488B18   		movq	(%rax), %rbx
 2712 18ed E8000000 		call	_ZN8UnitTest11CurrentTest7DetailsEv@PLT
 2712      00
  72:testConv.cpp  **** 	CHECK_EQUAL(10, nibble);
 2713              		.loc 3 72 0 is_stmt 0 discriminator 8
 2714 18f2 488B08   		movq	(%rax), %rcx
 2715 18f5 488D45C0 		leaq	-64(%rbp), %rax
 2716 18f9 BA480000 		movl	$72, %edx
 2716      00
 2717 18fe 4889CE   		movq	%rcx, %rsi
 2718 1901 4889C7   		movq	%rax, %rdi
 2719 1904 E8000000 		call	_ZN8UnitTest11TestDetailsC1ERKS0_i@PLT
 2719      00
  72:testConv.cpp  **** 	CHECK_EQUAL(10, nibble);
 2720              		.loc 3 72 0 discriminator 12
 2721 1909 488D45C0 		leaq	-64(%rbp), %rax
 2722 190d 488D1500 		leaq	.LC3(%rip), %rdx
 2722      000000
 2723 1914 4889C6   		movq	%rax, %rsi
 2724 1917 4889DF   		movq	%rbx, %rdi
 2725 191a E8000000 		call	_ZN8UnitTest11TestResults13OnTestFailureERKNS_11TestDetailsEPKc@PLT
 2725      00
 2726              	.LEHE213:
 2727              	.LEHB214:
  72:testConv.cpp  **** 	CHECK_EQUAL(10, nibble);
 2728              		.loc 3 72 0 discriminator 14
 2729 191f E8000000 		call	__cxa_end_catch@PLT
 2729      00
 2730              	.LEHE214:
 2731 1924 E933F0FF 		jmp	.L142
 2731      FF
 2732              	.L291:
 2733 1929 4889C3   		movq	%rax, %rbx
  72:testConv.cpp  **** 	CHECK_EQUAL(10, nibble);
 2734              		.loc 3 72 0
 2735 192c E8000000 		call	__cxa_end_catch@PLT
 2735      00
 2736 1931 4889D8   		movq	%rbx, %rax
 2737 1934 4889C7   		movq	%rax, %rdi
 2738              	.LEHB215:
 2739 1937 E8000000 		call	_Unwind_Resume@PLT
 2739      00
 2740              	.LEHE215:
 2741              	.L293:
 2742 193c EB00     		jmp	.L145
 2743              	.L292:
 2744              	.L145:
  73:testConv.cpp  **** 	status = getHexNibble('b', &nibble);
 2745              		.loc 3 73 0 is_stmt 1
 2746 193e 4889C7   		movq	%rax, %rdi
 2747 1941 E8000000 		call	__cxa_begin_catch@PLT
 2747      00
 2748              	.LEHB216:
 2749 1946 E8000000 		call	_ZN8UnitTest11CurrentTest7ResultsEv@PLT
 2749      00
 2750 194b 488B18   		movq	(%rax), %rbx
 2751 194e E8000000 		call	_ZN8UnitTest11CurrentTest7DetailsEv@PLT
 2751      00
  73:testConv.cpp  **** 	status = getHexNibble('b', &nibble);
 2752              		.loc 3 73 0 is_stmt 0 discriminator 8
 2753 1953 488B08   		movq	(%rax), %rcx
 2754 1956 488D45C0 		leaq	-64(%rbp), %rax
 2755 195a BA490000 		movl	$73, %edx
 2755      00
 2756 195f 4889CE   		movq	%rcx, %rsi
 2757 1962 4889C7   		movq	%rax, %rdi
 2758 1965 E8000000 		call	_ZN8UnitTest11TestDetailsC1ERKS0_i@PLT
 2758      00
  73:testConv.cpp  **** 	status = getHexNibble('b', &nibble);
 2759              		.loc 3 73 0 discriminator 12
 2760 196a 488D45C0 		leaq	-64(%rbp), %rax
 2761 196e 488D1500 		leaq	.LC14(%rip), %rdx
 2761      000000
 2762 1975 4889C6   		movq	%rax, %rsi
 2763 1978 4889DF   		movq	%rbx, %rdi
 2764 197b E8000000 		call	_ZN8UnitTest11TestResults13OnTestFailureERKNS_11TestDetailsEPKc@PLT
 2764      00
 2765              	.LEHE216:
 2766              	.LEHB217:
  73:testConv.cpp  **** 	status = getHexNibble('b', &nibble);
 2767              		.loc 3 73 0 discriminator 14
 2768 1980 E8000000 		call	__cxa_end_catch@PLT
 2768      00
 2769              	.LEHE217:
 2770 1985 E911F0FF 		jmp	.L146
 2770      FF
 2771              	.L294:
 2772 198a 4889C3   		movq	%rax, %rbx
  73:testConv.cpp  **** 	status = getHexNibble('b', &nibble);
 2773              		.loc 3 73 0
 2774 198d E8000000 		call	__cxa_end_catch@PLT
 2774      00
 2775 1992 4889D8   		movq	%rbx, %rax
 2776 1995 4889C7   		movq	%rax, %rdi
 2777              	.LEHB218:
 2778 1998 E8000000 		call	_Unwind_Resume@PLT
 2778      00
 2779              	.LEHE218:
 2780              	.L296:
 2781 199d EB00     		jmp	.L149
 2782              	.L295:
 2783              	.L149:
  75:testConv.cpp  **** 	CHECK_EQUAL(11, nibble);
 2784              		.loc 3 75 0 is_stmt 1
 2785 199f 4889C7   		movq	%rax, %rdi
 2786 19a2 E8000000 		call	__cxa_begin_catch@PLT
 2786      00
 2787              	.LEHB219:
 2788 19a7 E8000000 		call	_ZN8UnitTest11CurrentTest7ResultsEv@PLT
 2788      00
 2789 19ac 488B18   		movq	(%rax), %rbx
 2790 19af E8000000 		call	_ZN8UnitTest11CurrentTest7DetailsEv@PLT
 2790      00
  75:testConv.cpp  **** 	CHECK_EQUAL(11, nibble);
 2791              		.loc 3 75 0 is_stmt 0 discriminator 8
 2792 19b4 488B08   		movq	(%rax), %rcx
 2793 19b7 488D45C0 		leaq	-64(%rbp), %rax
 2794 19bb BA4B0000 		movl	$75, %edx
 2794      00
 2795 19c0 4889CE   		movq	%rcx, %rsi
 2796 19c3 4889C7   		movq	%rax, %rdi
 2797 19c6 E8000000 		call	_ZN8UnitTest11TestDetailsC1ERKS0_i@PLT
 2797      00
  75:testConv.cpp  **** 	CHECK_EQUAL(11, nibble);
 2798              		.loc 3 75 0 discriminator 12
 2799 19cb 488D45C0 		leaq	-64(%rbp), %rax
 2800 19cf 488D1500 		leaq	.LC3(%rip), %rdx
 2800      000000
 2801 19d6 4889C6   		movq	%rax, %rsi
 2802 19d9 4889DF   		movq	%rbx, %rdi
 2803 19dc E8000000 		call	_ZN8UnitTest11TestResults13OnTestFailureERKNS_11TestDetailsEPKc@PLT
 2803      00
 2804              	.LEHE219:
 2805              	.LEHB220:
  75:testConv.cpp  **** 	CHECK_EQUAL(11, nibble);
 2806              		.loc 3 75 0 discriminator 14
 2807 19e1 E8000000 		call	__cxa_end_catch@PLT
 2807      00
 2808              	.LEHE220:
 2809 19e6 E900F0FF 		jmp	.L150
 2809      FF
 2810              	.L297:
 2811 19eb 4889C3   		movq	%rax, %rbx
  75:testConv.cpp  **** 	CHECK_EQUAL(11, nibble);
 2812              		.loc 3 75 0
 2813 19ee E8000000 		call	__cxa_end_catch@PLT
 2813      00
 2814 19f3 4889D8   		movq	%rbx, %rax
 2815 19f6 4889C7   		movq	%rax, %rdi
 2816              	.LEHB221:
 2817 19f9 E8000000 		call	_Unwind_Resume@PLT
 2817      00
 2818              	.LEHE221:
 2819              	.L299:
 2820 19fe EB00     		jmp	.L153
 2821              	.L298:
 2822              	.L153:
  76:testConv.cpp  **** 	status = getHexNibble('c', &nibble);
 2823              		.loc 3 76 0 is_stmt 1
 2824 1a00 4889C7   		movq	%rax, %rdi
 2825 1a03 E8000000 		call	__cxa_begin_catch@PLT
 2825      00
 2826              	.LEHB222:
 2827 1a08 E8000000 		call	_ZN8UnitTest11CurrentTest7ResultsEv@PLT
 2827      00
 2828 1a0d 488B18   		movq	(%rax), %rbx
 2829 1a10 E8000000 		call	_ZN8UnitTest11CurrentTest7DetailsEv@PLT
 2829      00
  76:testConv.cpp  **** 	status = getHexNibble('c', &nibble);
 2830              		.loc 3 76 0 is_stmt 0 discriminator 8
 2831 1a15 488B08   		movq	(%rax), %rcx
 2832 1a18 488D45C0 		leaq	-64(%rbp), %rax
 2833 1a1c BA4C0000 		movl	$76, %edx
 2833      00
 2834 1a21 4889CE   		movq	%rcx, %rsi
 2835 1a24 4889C7   		movq	%rax, %rdi
 2836 1a27 E8000000 		call	_ZN8UnitTest11TestDetailsC1ERKS0_i@PLT
 2836      00
  76:testConv.cpp  **** 	status = getHexNibble('c', &nibble);
 2837              		.loc 3 76 0 discriminator 12
 2838 1a2c 488D45C0 		leaq	-64(%rbp), %rax
 2839 1a30 488D1500 		leaq	.LC15(%rip), %rdx
 2839      000000
 2840 1a37 4889C6   		movq	%rax, %rsi
 2841 1a3a 4889DF   		movq	%rbx, %rdi
 2842 1a3d E8000000 		call	_ZN8UnitTest11TestResults13OnTestFailureERKNS_11TestDetailsEPKc@PLT
 2842      00
 2843              	.LEHE222:
 2844              	.LEHB223:
  76:testConv.cpp  **** 	status = getHexNibble('c', &nibble);
 2845              		.loc 3 76 0 discriminator 14
 2846 1a42 E8000000 		call	__cxa_end_catch@PLT
 2846      00
 2847              	.LEHE223:
 2848 1a47 E9DEEFFF 		jmp	.L154
 2848      FF
 2849              	.L300:
 2850 1a4c 4889C3   		movq	%rax, %rbx
  76:testConv.cpp  **** 	status = getHexNibble('c', &nibble);
 2851              		.loc 3 76 0
 2852 1a4f E8000000 		call	__cxa_end_catch@PLT
 2852      00
 2853 1a54 4889D8   		movq	%rbx, %rax
 2854 1a57 4889C7   		movq	%rax, %rdi
 2855              	.LEHB224:
 2856 1a5a E8000000 		call	_Unwind_Resume@PLT
 2856      00
 2857              	.LEHE224:
 2858              	.L302:
 2859 1a5f EB00     		jmp	.L157
 2860              	.L301:
 2861              	.L157:
  78:testConv.cpp  **** 	CHECK_EQUAL(12, nibble);
 2862              		.loc 3 78 0 is_stmt 1
 2863 1a61 4889C7   		movq	%rax, %rdi
 2864 1a64 E8000000 		call	__cxa_begin_catch@PLT
 2864      00
 2865              	.LEHB225:
 2866 1a69 E8000000 		call	_ZN8UnitTest11CurrentTest7ResultsEv@PLT
 2866      00
 2867 1a6e 488B18   		movq	(%rax), %rbx
 2868 1a71 E8000000 		call	_ZN8UnitTest11CurrentTest7DetailsEv@PLT
 2868      00
  78:testConv.cpp  **** 	CHECK_EQUAL(12, nibble);
 2869              		.loc 3 78 0 is_stmt 0 discriminator 8
 2870 1a76 488B08   		movq	(%rax), %rcx
 2871 1a79 488D45C0 		leaq	-64(%rbp), %rax
 2872 1a7d BA4E0000 		movl	$78, %edx
 2872      00
 2873 1a82 4889CE   		movq	%rcx, %rsi
 2874 1a85 4889C7   		movq	%rax, %rdi
 2875 1a88 E8000000 		call	_ZN8UnitTest11TestDetailsC1ERKS0_i@PLT
 2875      00
  78:testConv.cpp  **** 	CHECK_EQUAL(12, nibble);
 2876              		.loc 3 78 0 discriminator 12
 2877 1a8d 488D45C0 		leaq	-64(%rbp), %rax
 2878 1a91 488D1500 		leaq	.LC3(%rip), %rdx
 2878      000000
 2879 1a98 4889C6   		movq	%rax, %rsi
 2880 1a9b 4889DF   		movq	%rbx, %rdi
 2881 1a9e E8000000 		call	_ZN8UnitTest11TestResults13OnTestFailureERKNS_11TestDetailsEPKc@PLT
 2881      00
 2882              	.LEHE225:
 2883              	.LEHB226:
  78:testConv.cpp  **** 	CHECK_EQUAL(12, nibble);
 2884              		.loc 3 78 0 discriminator 14
 2885 1aa3 E8000000 		call	__cxa_end_catch@PLT
 2885      00
 2886              	.LEHE226:
 2887 1aa8 E9CDEFFF 		jmp	.L158
 2887      FF
 2888              	.L303:
 2889 1aad 4889C3   		movq	%rax, %rbx
  78:testConv.cpp  **** 	CHECK_EQUAL(12, nibble);
 2890              		.loc 3 78 0
 2891 1ab0 E8000000 		call	__cxa_end_catch@PLT
 2891      00
 2892 1ab5 4889D8   		movq	%rbx, %rax
 2893 1ab8 4889C7   		movq	%rax, %rdi
 2894              	.LEHB227:
 2895 1abb E8000000 		call	_Unwind_Resume@PLT
 2895      00
 2896              	.LEHE227:
 2897              	.L305:
 2898 1ac0 EB00     		jmp	.L161
 2899              	.L304:
 2900              	.L161:
  79:testConv.cpp  **** 	status = getHexNibble('d', &nibble);
 2901              		.loc 3 79 0 is_stmt 1
 2902 1ac2 4889C7   		movq	%rax, %rdi
 2903 1ac5 E8000000 		call	__cxa_begin_catch@PLT
 2903      00
 2904              	.LEHB228:
 2905 1aca E8000000 		call	_ZN8UnitTest11CurrentTest7ResultsEv@PLT
 2905      00
 2906 1acf 488B18   		movq	(%rax), %rbx
 2907 1ad2 E8000000 		call	_ZN8UnitTest11CurrentTest7DetailsEv@PLT
 2907      00
  79:testConv.cpp  **** 	status = getHexNibble('d', &nibble);
 2908              		.loc 3 79 0 is_stmt 0 discriminator 8
 2909 1ad7 488B08   		movq	(%rax), %rcx
 2910 1ada 488D45C0 		leaq	-64(%rbp), %rax
 2911 1ade BA4F0000 		movl	$79, %edx
 2911      00
 2912 1ae3 4889CE   		movq	%rcx, %rsi
 2913 1ae6 4889C7   		movq	%rax, %rdi
 2914 1ae9 E8000000 		call	_ZN8UnitTest11TestDetailsC1ERKS0_i@PLT
 2914      00
  79:testConv.cpp  **** 	status = getHexNibble('d', &nibble);
 2915              		.loc 3 79 0 discriminator 12
 2916 1aee 488D45C0 		leaq	-64(%rbp), %rax
 2917 1af2 488D1500 		leaq	.LC16(%rip), %rdx
 2917      000000
 2918 1af9 4889C6   		movq	%rax, %rsi
 2919 1afc 4889DF   		movq	%rbx, %rdi
 2920 1aff E8000000 		call	_ZN8UnitTest11TestResults13OnTestFailureERKNS_11TestDetailsEPKc@PLT
 2920      00
 2921              	.LEHE228:
 2922              	.LEHB229:
  79:testConv.cpp  **** 	status = getHexNibble('d', &nibble);
 2923              		.loc 3 79 0 discriminator 14
 2924 1b04 E8000000 		call	__cxa_end_catch@PLT
 2924      00
 2925              	.LEHE229:
 2926 1b09 E9ABEFFF 		jmp	.L162
 2926      FF
 2927              	.L306:
 2928 1b0e 4889C3   		movq	%rax, %rbx
  79:testConv.cpp  **** 	status = getHexNibble('d', &nibble);
 2929              		.loc 3 79 0
 2930 1b11 E8000000 		call	__cxa_end_catch@PLT
 2930      00
 2931 1b16 4889D8   		movq	%rbx, %rax
 2932 1b19 4889C7   		movq	%rax, %rdi
 2933              	.LEHB230:
 2934 1b1c E8000000 		call	_Unwind_Resume@PLT
 2934      00
 2935              	.LEHE230:
 2936              	.L308:
 2937 1b21 EB00     		jmp	.L165
 2938              	.L307:
 2939              	.L165:
  81:testConv.cpp  **** 	CHECK_EQUAL(13, nibble);
 2940              		.loc 3 81 0 is_stmt 1
 2941 1b23 4889C7   		movq	%rax, %rdi
 2942 1b26 E8000000 		call	__cxa_begin_catch@PLT
 2942      00
 2943              	.LEHB231:
 2944 1b2b E8000000 		call	_ZN8UnitTest11CurrentTest7ResultsEv@PLT
 2944      00
 2945 1b30 488B18   		movq	(%rax), %rbx
 2946 1b33 E8000000 		call	_ZN8UnitTest11CurrentTest7DetailsEv@PLT
 2946      00
  81:testConv.cpp  **** 	CHECK_EQUAL(13, nibble);
 2947              		.loc 3 81 0 is_stmt 0 discriminator 8
 2948 1b38 488B08   		movq	(%rax), %rcx
 2949 1b3b 488D45C0 		leaq	-64(%rbp), %rax
 2950 1b3f BA510000 		movl	$81, %edx
 2950      00
 2951 1b44 4889CE   		movq	%rcx, %rsi
 2952 1b47 4889C7   		movq	%rax, %rdi
 2953 1b4a E8000000 		call	_ZN8UnitTest11TestDetailsC1ERKS0_i@PLT
 2953      00
  81:testConv.cpp  **** 	CHECK_EQUAL(13, nibble);
 2954              		.loc 3 81 0 discriminator 12
 2955 1b4f 488D45C0 		leaq	-64(%rbp), %rax
 2956 1b53 488D1500 		leaq	.LC3(%rip), %rdx
 2956      000000
 2957 1b5a 4889C6   		movq	%rax, %rsi
 2958 1b5d 4889DF   		movq	%rbx, %rdi
 2959 1b60 E8000000 		call	_ZN8UnitTest11TestResults13OnTestFailureERKNS_11TestDetailsEPKc@PLT
 2959      00
 2960              	.LEHE231:
 2961              	.LEHB232:
  81:testConv.cpp  **** 	CHECK_EQUAL(13, nibble);
 2962              		.loc 3 81 0 discriminator 14
 2963 1b65 E8000000 		call	__cxa_end_catch@PLT
 2963      00
 2964              	.LEHE232:
 2965 1b6a E99AEFFF 		jmp	.L166
 2965      FF
 2966              	.L309:
 2967 1b6f 4889C3   		movq	%rax, %rbx
  81:testConv.cpp  **** 	CHECK_EQUAL(13, nibble);
 2968              		.loc 3 81 0
 2969 1b72 E8000000 		call	__cxa_end_catch@PLT
 2969      00
 2970 1b77 4889D8   		movq	%rbx, %rax
 2971 1b7a 4889C7   		movq	%rax, %rdi
 2972              	.LEHB233:
 2973 1b7d E8000000 		call	_Unwind_Resume@PLT
 2973      00
 2974              	.LEHE233:
 2975              	.L311:
 2976 1b82 EB00     		jmp	.L169
 2977              	.L310:
 2978              	.L169:
  82:testConv.cpp  **** 	status = getHexNibble('e', &nibble);
 2979              		.loc 3 82 0 is_stmt 1
 2980 1b84 4889C7   		movq	%rax, %rdi
 2981 1b87 E8000000 		call	__cxa_begin_catch@PLT
 2981      00
 2982              	.LEHB234:
 2983 1b8c E8000000 		call	_ZN8UnitTest11CurrentTest7ResultsEv@PLT
 2983      00
 2984 1b91 488B18   		movq	(%rax), %rbx
 2985 1b94 E8000000 		call	_ZN8UnitTest11CurrentTest7DetailsEv@PLT
 2985      00
  82:testConv.cpp  **** 	status = getHexNibble('e', &nibble);
 2986              		.loc 3 82 0 is_stmt 0 discriminator 8
 2987 1b99 488B08   		movq	(%rax), %rcx
 2988 1b9c 488D45C0 		leaq	-64(%rbp), %rax
 2989 1ba0 BA520000 		movl	$82, %edx
 2989      00
 2990 1ba5 4889CE   		movq	%rcx, %rsi
 2991 1ba8 4889C7   		movq	%rax, %rdi
 2992 1bab E8000000 		call	_ZN8UnitTest11TestDetailsC1ERKS0_i@PLT
 2992      00
  82:testConv.cpp  **** 	status = getHexNibble('e', &nibble);
 2993              		.loc 3 82 0 discriminator 12
 2994 1bb0 488D45C0 		leaq	-64(%rbp), %rax
 2995 1bb4 488D1500 		leaq	.LC17(%rip), %rdx
 2995      000000
 2996 1bbb 4889C6   		movq	%rax, %rsi
 2997 1bbe 4889DF   		movq	%rbx, %rdi
 2998 1bc1 E8000000 		call	_ZN8UnitTest11TestResults13OnTestFailureERKNS_11TestDetailsEPKc@PLT
 2998      00
 2999              	.LEHE234:
 3000              	.LEHB235:
  82:testConv.cpp  **** 	status = getHexNibble('e', &nibble);
 3001              		.loc 3 82 0 discriminator 14
 3002 1bc6 E8000000 		call	__cxa_end_catch@PLT
 3002      00
 3003              	.LEHE235:
 3004 1bcb E978EFFF 		jmp	.L170
 3004      FF
 3005              	.L312:
 3006 1bd0 4889C3   		movq	%rax, %rbx
  82:testConv.cpp  **** 	status = getHexNibble('e', &nibble);
 3007              		.loc 3 82 0
 3008 1bd3 E8000000 		call	__cxa_end_catch@PLT
 3008      00
 3009 1bd8 4889D8   		movq	%rbx, %rax
 3010 1bdb 4889C7   		movq	%rax, %rdi
 3011              	.LEHB236:
 3012 1bde E8000000 		call	_Unwind_Resume@PLT
 3012      00
 3013              	.LEHE236:
 3014              	.L314:
 3015 1be3 EB00     		jmp	.L173
 3016              	.L313:
 3017              	.L173:
  84:testConv.cpp  **** 	CHECK_EQUAL(14, nibble);
 3018              		.loc 3 84 0 is_stmt 1
 3019 1be5 4889C7   		movq	%rax, %rdi
 3020 1be8 E8000000 		call	__cxa_begin_catch@PLT
 3020      00
 3021              	.LEHB237:
 3022 1bed E8000000 		call	_ZN8UnitTest11CurrentTest7ResultsEv@PLT
 3022      00
 3023 1bf2 488B18   		movq	(%rax), %rbx
 3024 1bf5 E8000000 		call	_ZN8UnitTest11CurrentTest7DetailsEv@PLT
 3024      00
  84:testConv.cpp  **** 	CHECK_EQUAL(14, nibble);
 3025              		.loc 3 84 0 is_stmt 0 discriminator 8
 3026 1bfa 488B08   		movq	(%rax), %rcx
 3027 1bfd 488D45C0 		leaq	-64(%rbp), %rax
 3028 1c01 BA540000 		movl	$84, %edx
 3028      00
 3029 1c06 4889CE   		movq	%rcx, %rsi
 3030 1c09 4889C7   		movq	%rax, %rdi
 3031 1c0c E8000000 		call	_ZN8UnitTest11TestDetailsC1ERKS0_i@PLT
 3031      00
  84:testConv.cpp  **** 	CHECK_EQUAL(14, nibble);
 3032              		.loc 3 84 0 discriminator 12
 3033 1c11 488D45C0 		leaq	-64(%rbp), %rax
 3034 1c15 488D1500 		leaq	.LC3(%rip), %rdx
 3034      000000
 3035 1c1c 4889C6   		movq	%rax, %rsi
 3036 1c1f 4889DF   		movq	%rbx, %rdi
 3037 1c22 E8000000 		call	_ZN8UnitTest11TestResults13OnTestFailureERKNS_11TestDetailsEPKc@PLT
 3037      00
 3038              	.LEHE237:
 3039              	.LEHB238:
  84:testConv.cpp  **** 	CHECK_EQUAL(14, nibble);
 3040              		.loc 3 84 0 discriminator 14
 3041 1c27 E8000000 		call	__cxa_end_catch@PLT
 3041      00
 3042              	.LEHE238:
 3043 1c2c E967EFFF 		jmp	.L174
 3043      FF
 3044              	.L315:
 3045 1c31 4889C3   		movq	%rax, %rbx
  84:testConv.cpp  **** 	CHECK_EQUAL(14, nibble);
 3046              		.loc 3 84 0
 3047 1c34 E8000000 		call	__cxa_end_catch@PLT
 3047      00
 3048 1c39 4889D8   		movq	%rbx, %rax
 3049 1c3c 4889C7   		movq	%rax, %rdi
 3050              	.LEHB239:
 3051 1c3f E8000000 		call	_Unwind_Resume@PLT
 3051      00
 3052              	.LEHE239:
 3053              	.L317:
 3054 1c44 EB00     		jmp	.L177
 3055              	.L316:
 3056              	.L177:
  85:testConv.cpp  **** 	status = getHexNibble('f', &nibble);
 3057              		.loc 3 85 0 is_stmt 1
 3058 1c46 4889C7   		movq	%rax, %rdi
 3059 1c49 E8000000 		call	__cxa_begin_catch@PLT
 3059      00
 3060              	.LEHB240:
 3061 1c4e E8000000 		call	_ZN8UnitTest11CurrentTest7ResultsEv@PLT
 3061      00
 3062 1c53 488B18   		movq	(%rax), %rbx
 3063 1c56 E8000000 		call	_ZN8UnitTest11CurrentTest7DetailsEv@PLT
 3063      00
  85:testConv.cpp  **** 	status = getHexNibble('f', &nibble);
 3064              		.loc 3 85 0 is_stmt 0 discriminator 8
 3065 1c5b 488B08   		movq	(%rax), %rcx
 3066 1c5e 488D45C0 		leaq	-64(%rbp), %rax
 3067 1c62 BA550000 		movl	$85, %edx
 3067      00
 3068 1c67 4889CE   		movq	%rcx, %rsi
 3069 1c6a 4889C7   		movq	%rax, %rdi
 3070 1c6d E8000000 		call	_ZN8UnitTest11TestDetailsC1ERKS0_i@PLT
 3070      00
  85:testConv.cpp  **** 	status = getHexNibble('f', &nibble);
 3071              		.loc 3 85 0 discriminator 12
 3072 1c72 488D45C0 		leaq	-64(%rbp), %rax
 3073 1c76 488D1500 		leaq	.LC18(%rip), %rdx
 3073      000000
 3074 1c7d 4889C6   		movq	%rax, %rsi
 3075 1c80 4889DF   		movq	%rbx, %rdi
 3076 1c83 E8000000 		call	_ZN8UnitTest11TestResults13OnTestFailureERKNS_11TestDetailsEPKc@PLT
 3076      00
 3077              	.LEHE240:
 3078              	.LEHB241:
  85:testConv.cpp  **** 	status = getHexNibble('f', &nibble);
 3079              		.loc 3 85 0 discriminator 14
 3080 1c88 E8000000 		call	__cxa_end_catch@PLT
 3080      00
 3081              	.LEHE241:
 3082 1c8d E945EFFF 		jmp	.L178
 3082      FF
 3083              	.L318:
 3084 1c92 4889C3   		movq	%rax, %rbx
  85:testConv.cpp  **** 	status = getHexNibble('f', &nibble);
 3085              		.loc 3 85 0
 3086 1c95 E8000000 		call	__cxa_end_catch@PLT
 3086      00
 3087 1c9a 4889D8   		movq	%rbx, %rax
 3088 1c9d 4889C7   		movq	%rax, %rdi
 3089              	.LEHB242:
 3090 1ca0 E8000000 		call	_Unwind_Resume@PLT
 3090      00
 3091              	.LEHE242:
 3092              	.L320:
 3093 1ca5 EB00     		jmp	.L181
 3094              	.L319:
 3095              	.L181:
  87:testConv.cpp  **** 	CHECK_EQUAL(15, nibble);
 3096              		.loc 3 87 0 is_stmt 1
 3097 1ca7 4889C7   		movq	%rax, %rdi
 3098 1caa E8000000 		call	__cxa_begin_catch@PLT
 3098      00
 3099              	.LEHB243:
 3100 1caf E8000000 		call	_ZN8UnitTest11CurrentTest7ResultsEv@PLT
 3100      00
 3101 1cb4 488B18   		movq	(%rax), %rbx
 3102 1cb7 E8000000 		call	_ZN8UnitTest11CurrentTest7DetailsEv@PLT
 3102      00
  87:testConv.cpp  **** 	CHECK_EQUAL(15, nibble);
 3103              		.loc 3 87 0 is_stmt 0 discriminator 8
 3104 1cbc 488B08   		movq	(%rax), %rcx
 3105 1cbf 488D45C0 		leaq	-64(%rbp), %rax
 3106 1cc3 BA570000 		movl	$87, %edx
 3106      00
 3107 1cc8 4889CE   		movq	%rcx, %rsi
 3108 1ccb 4889C7   		movq	%rax, %rdi
 3109 1cce E8000000 		call	_ZN8UnitTest11TestDetailsC1ERKS0_i@PLT
 3109      00
  87:testConv.cpp  **** 	CHECK_EQUAL(15, nibble);
 3110              		.loc 3 87 0 discriminator 12
 3111 1cd3 488D45C0 		leaq	-64(%rbp), %rax
 3112 1cd7 488D1500 		leaq	.LC3(%rip), %rdx
 3112      000000
 3113 1cde 4889C6   		movq	%rax, %rsi
 3114 1ce1 4889DF   		movq	%rbx, %rdi
 3115 1ce4 E8000000 		call	_ZN8UnitTest11TestResults13OnTestFailureERKNS_11TestDetailsEPKc@PLT
 3115      00
 3116              	.LEHE243:
 3117              	.LEHB244:
  87:testConv.cpp  **** 	CHECK_EQUAL(15, nibble);
 3118              		.loc 3 87 0 discriminator 14
 3119 1ce9 E8000000 		call	__cxa_end_catch@PLT
 3119      00
 3120              	.LEHE244:
 3121 1cee E934EFFF 		jmp	.L182
 3121      FF
 3122              	.L321:
 3123 1cf3 4889C3   		movq	%rax, %rbx
  87:testConv.cpp  **** 	CHECK_EQUAL(15, nibble);
 3124              		.loc 3 87 0
 3125 1cf6 E8000000 		call	__cxa_end_catch@PLT
 3125      00
 3126 1cfb 4889D8   		movq	%rbx, %rax
 3127 1cfe 4889C7   		movq	%rax, %rdi
 3128              	.LEHB245:
 3129 1d01 E8000000 		call	_Unwind_Resume@PLT
 3129      00
 3130              	.LEHE245:
 3131              	.L323:
 3132 1d06 EB00     		jmp	.L185
 3133              	.L322:
 3134              	.L185:
  88:testConv.cpp  **** 	status = getHexNibble('.', &nibble);
 3135              		.loc 3 88 0 is_stmt 1
 3136 1d08 4889C7   		movq	%rax, %rdi
 3137 1d0b E8000000 		call	__cxa_begin_catch@PLT
 3137      00
 3138              	.LEHB246:
 3139 1d10 E8000000 		call	_ZN8UnitTest11CurrentTest7ResultsEv@PLT
 3139      00
 3140 1d15 488B18   		movq	(%rax), %rbx
 3141 1d18 E8000000 		call	_ZN8UnitTest11CurrentTest7DetailsEv@PLT
 3141      00
  88:testConv.cpp  **** 	status = getHexNibble('.', &nibble);
 3142              		.loc 3 88 0 is_stmt 0 discriminator 8
 3143 1d1d 488B08   		movq	(%rax), %rcx
 3144 1d20 488D45C0 		leaq	-64(%rbp), %rax
 3145 1d24 BA580000 		movl	$88, %edx
 3145      00
 3146 1d29 4889CE   		movq	%rcx, %rsi
 3147 1d2c 4889C7   		movq	%rax, %rdi
 3148 1d2f E8000000 		call	_ZN8UnitTest11TestDetailsC1ERKS0_i@PLT
 3148      00
  88:testConv.cpp  **** 	status = getHexNibble('.', &nibble);
 3149              		.loc 3 88 0 discriminator 12
 3150 1d34 488D45C0 		leaq	-64(%rbp), %rax
 3151 1d38 488D1500 		leaq	.LC19(%rip), %rdx
 3151      000000
 3152 1d3f 4889C6   		movq	%rax, %rsi
 3153 1d42 4889DF   		movq	%rbx, %rdi
 3154 1d45 E8000000 		call	_ZN8UnitTest11TestResults13OnTestFailureERKNS_11TestDetailsEPKc@PLT
 3154      00
 3155              	.LEHE246:
 3156              	.LEHB247:
  88:testConv.cpp  **** 	status = getHexNibble('.', &nibble);
 3157              		.loc 3 88 0 discriminator 14
 3158 1d4a E8000000 		call	__cxa_end_catch@PLT
 3158      00
 3159              	.LEHE247:
 3160 1d4f E912EFFF 		jmp	.L186
 3160      FF
 3161              	.L324:
 3162 1d54 4889C3   		movq	%rax, %rbx
  88:testConv.cpp  **** 	status = getHexNibble('.', &nibble);
 3163              		.loc 3 88 0
 3164 1d57 E8000000 		call	__cxa_end_catch@PLT
 3164      00
 3165 1d5c 4889D8   		movq	%rbx, %rax
 3166 1d5f 4889C7   		movq	%rax, %rdi
 3167              	.LEHB248:
 3168 1d62 E8000000 		call	_Unwind_Resume@PLT
 3168      00
 3169              	.LEHE248:
 3170              	.L326:
 3171 1d67 EB00     		jmp	.L189
 3172              	.L325:
 3173              	.L189:
  90:testConv.cpp  **** }
 3174              		.loc 3 90 0 is_stmt 1
 3175 1d69 4889C7   		movq	%rax, %rdi
 3176 1d6c E8000000 		call	__cxa_begin_catch@PLT
 3176      00
 3177              	.LEHB249:
 3178 1d71 E8000000 		call	_ZN8UnitTest11CurrentTest7ResultsEv@PLT
 3178      00
 3179 1d76 488B18   		movq	(%rax), %rbx
 3180 1d79 E8000000 		call	_ZN8UnitTest11CurrentTest7DetailsEv@PLT
 3180      00
  90:testConv.cpp  **** }
 3181              		.loc 3 90 0 is_stmt 0 discriminator 8
 3182 1d7e 488B08   		movq	(%rax), %rcx
 3183 1d81 488D45C0 		leaq	-64(%rbp), %rax
 3184 1d85 BA5A0000 		movl	$90, %edx
 3184      00
 3185 1d8a 4889CE   		movq	%rcx, %rsi
 3186 1d8d 4889C7   		movq	%rax, %rdi
 3187 1d90 E8000000 		call	_ZN8UnitTest11TestDetailsC1ERKS0_i@PLT
 3187      00
  90:testConv.cpp  **** }
 3188              		.loc 3 90 0 discriminator 12
 3189 1d95 488D45C0 		leaq	-64(%rbp), %rax
 3190 1d99 488D1500 		leaq	.LC20(%rip), %rdx
 3190      000000
 3191 1da0 4889C6   		movq	%rax, %rsi
 3192 1da3 4889DF   		movq	%rbx, %rdi
 3193 1da6 E8000000 		call	_ZN8UnitTest11TestResults13OnTestFailureERKNS_11TestDetailsEPKc@PLT
 3193      00
 3194              	.LEHE249:
 3195              	.LEHB250:
  90:testConv.cpp  **** }
 3196              		.loc 3 90 0 discriminator 14
 3197 1dab E8000000 		call	__cxa_end_catch@PLT
 3197      00
 3198              	.LEHE250:
 3199              		.loc 3 91 0 is_stmt 1 discriminator 14
 3200 1db0 EB13     		jmp	.L11
 3201              	.L327:
 3202 1db2 4889C3   		movq	%rax, %rbx
  90:testConv.cpp  **** }
 3203              		.loc 3 90 0
 3204 1db5 E8000000 		call	__cxa_end_catch@PLT
 3204      00
 3205 1dba 4889D8   		movq	%rbx, %rax
 3206 1dbd 4889C7   		movq	%rax, %rdi
 3207              	.LEHB251:
 3208 1dc0 E8000000 		call	_Unwind_Resume@PLT
 3208      00
 3209              	.LEHE251:
 3210              	.L11:
 3211              		.loc 3 91 0
 3212 1dc5 488B45E8 		movq	-24(%rbp), %rax
 3213 1dc9 64483304 		xorq	%fs:40, %rax
 3213      25280000 
 3213      00
 3214 1dd2 7405     		je	.L192
 3215 1dd4 E8000000 		call	__stack_chk_fail@PLT
 3215      00
 3216              	.L192:
 3217 1dd9 4883C458 		addq	$88, %rsp
 3218 1ddd 5B       		popq	%rbx
 3219 1dde 5D       		popq	%rbp
 3220              		.cfi_def_cfa 7, 8
 3221 1ddf C3       		ret
 3222              		.cfi_endproc
 3223              	.LFE1095:
 3224              		.section	.gcc_except_table,"a",@progbits
 3225              		.align 4
 3226              	.LLSDA1095:
 3227 0000 FF       		.byte	0xff
 3228 0001 9B       		.byte	0x9b
 3229 0002 E80A     		.uleb128 .LLSDATT1095-.LLSDATTD1095
 3230              	.LLSDATTD1095:
 3231 0004 01       		.byte	0x1
 3232 0005 DB0A     		.uleb128 .LLSDACSE1095-.LLSDACSB1095
 3233              	.LLSDACSB1095:
 3234 0007 28       		.uleb128 .LEHB4-.LFB1095
 3235 0008 05       		.uleb128 .LEHE4-.LEHB4
 3236 0009 00       		.uleb128 0
 3237 000a 00       		.uleb128 0
 3238 000b 30       		.uleb128 .LEHB5-.LFB1095
 3239 000c 1C       		.uleb128 .LEHE5-.LEHB5
 3240 000d BD19     		.uleb128 .L193-.LFB1095
 3241 000f 01       		.uleb128 0x1
 3242 0010 50       		.uleb128 .LEHB6-.LFB1095
 3243 0011 1C       		.uleb128 .LEHE6-.LEHB6
 3244 0012 BB19     		.uleb128 .L194-.LFB1095
 3245 0014 03       		.uleb128 0x3
 3246 0015 6C       		.uleb128 .LEHB7-.LFB1095
 3247 0016 1C       		.uleb128 .LEHE7-.LEHB7
 3248 0017 9E1A     		.uleb128 .L196-.LFB1095
 3249 0019 01       		.uleb128 0x1
 3250 001a 8F01     		.uleb128 .LEHB8-.LFB1095
 3251 001c 1C       		.uleb128 .LEHE8-.LEHB8
 3252 001d 9C1A     		.uleb128 .L197-.LFB1095
 3253 001f 03       		.uleb128 0x3
 3254 0020 B701     		.uleb128 .LEHB9-.LFB1095
 3255 0022 05       		.uleb128 .LEHE9-.LEHB9
 3256 0023 00       		.uleb128 0
 3257 0024 00       		.uleb128 0
 3258 0025 BF01     		.uleb128 .LEHB10-.LFB1095
 3259 0027 1C       		.uleb128 .LEHE10-.LEHB10
 3260 0028 FF1A     		.uleb128 .L199-.LFB1095
 3261 002a 01       		.uleb128 0x1
 3262 002b DF01     		.uleb128 .LEHB11-.LFB1095
 3263 002d 1C       		.uleb128 .LEHE11-.LEHB11
 3264 002e FD1A     		.uleb128 .L200-.LFB1095
 3265 0030 03       		.uleb128 0x3
 3266 0031 FB01     		.uleb128 .LEHB12-.LFB1095
 3267 0033 1C       		.uleb128 .LEHE12-.LEHB12
 3268 0034 E01B     		.uleb128 .L202-.LFB1095
 3269 0036 01       		.uleb128 0x1
 3270 0037 9E02     		.uleb128 .LEHB13-.LFB1095
 3271 0039 1C       		.uleb128 .LEHE13-.LEHB13
 3272 003a DE1B     		.uleb128 .L203-.LFB1095
 3273 003c 03       		.uleb128 0x3
 3274 003d C602     		.uleb128 .LEHB14-.LFB1095
 3275 003f 05       		.uleb128 .LEHE14-.LEHB14
 3276 0040 00       		.uleb128 0
 3277 0041 00       		.uleb128 0
 3278 0042 CE02     		.uleb128 .LEHB15-.LFB1095
 3279 0044 1C       		.uleb128 .LEHE15-.LEHB15
 3280 0045 C11C     		.uleb128 .L205-.LFB1095
 3281 0047 01       		.uleb128 0x1
 3282 0048 EE02     		.uleb128 .LEHB16-.LFB1095
 3283 004a 1C       		.uleb128 .LEHE16-.LEHB16
 3284 004b BF1C     		.uleb128 .L206-.LFB1095
 3285 004d 03       		.uleb128 0x3
 3286 004e 8A03     		.uleb128 .LEHB17-.LFB1095
 3287 0050 1C       		.uleb128 .LEHE17-.LEHB17
 3288 0051 A21D     		.uleb128 .L208-.LFB1095
 3289 0053 01       		.uleb128 0x1
 3290 0054 AD03     		.uleb128 .LEHB18-.LFB1095
 3291 0056 1C       		.uleb128 .LEHE18-.LEHB18
 3292 0057 A01D     		.uleb128 .L209-.LFB1095
 3293 0059 03       		.uleb128 0x3
 3294 005a D503     		.uleb128 .LEHB19-.LFB1095
 3295 005c 05       		.uleb128 .LEHE19-.LEHB19
 3296 005d 00       		.uleb128 0
 3297 005e 00       		.uleb128 0
 3298 005f DD03     		.uleb128 .LEHB20-.LFB1095
 3299 0061 1C       		.uleb128 .LEHE20-.LEHB20
 3300 0062 831E     		.uleb128 .L211-.LFB1095
 3301 0064 01       		.uleb128 0x1
 3302 0065 FD03     		.uleb128 .LEHB21-.LFB1095
 3303 0067 1C       		.uleb128 .LEHE21-.LEHB21
 3304 0068 811E     		.uleb128 .L212-.LFB1095
 3305 006a 03       		.uleb128 0x3
 3306 006b 9904     		.uleb128 .LEHB22-.LFB1095
 3307 006d 1C       		.uleb128 .LEHE22-.LEHB22
 3308 006e E41E     		.uleb128 .L214-.LFB1095
 3309 0070 01       		.uleb128 0x1
 3310 0071 BC04     		.uleb128 .LEHB23-.LFB1095
 3311 0073 1C       		.uleb128 .LEHE23-.LEHB23
 3312 0074 E21E     		.uleb128 .L215-.LFB1095
 3313 0076 03       		.uleb128 0x3
 3314 0077 E404     		.uleb128 .LEHB24-.LFB1095
 3315 0079 05       		.uleb128 .LEHE24-.LEHB24
 3316 007a 00       		.uleb128 0
 3317 007b 00       		.uleb128 0
 3318 007c EC04     		.uleb128 .LEHB25-.LFB1095
 3319 007e 1C       		.uleb128 .LEHE25-.LEHB25
 3320 007f C51F     		.uleb128 .L217-.LFB1095
 3321 0081 01       		.uleb128 0x1
 3322 0082 8C05     		.uleb128 .LEHB26-.LFB1095
 3323 0084 1C       		.uleb128 .LEHE26-.LEHB26
 3324 0085 C31F     		.uleb128 .L218-.LFB1095
 3325 0087 03       		.uleb128 0x3
 3326 0088 A805     		.uleb128 .LEHB27-.LFB1095
 3327 008a 1C       		.uleb128 .LEHE27-.LEHB27
 3328 008b A620     		.uleb128 .L220-.LFB1095
 3329 008d 01       		.uleb128 0x1
 3330 008e CB05     		.uleb128 .LEHB28-.LFB1095
 3331 0090 1C       		.uleb128 .LEHE28-.LEHB28
 3332 0091 A420     		.uleb128 .L221-.LFB1095
 3333 0093 03       		.uleb128 0x3
 3334 0094 F305     		.uleb128 .LEHB29-.LFB1095
 3335 0096 05       		.uleb128 .LEHE29-.LEHB29
 3336 0097 00       		.uleb128 0
 3337 0098 00       		.uleb128 0
 3338 0099 FB05     		.uleb128 .LEHB30-.LFB1095
 3339 009b 1C       		.uleb128 .LEHE30-.LEHB30
 3340 009c 8721     		.uleb128 .L223-.LFB1095
 3341 009e 01       		.uleb128 0x1
 3342 009f 9B06     		.uleb128 .LEHB31-.LFB1095
 3343 00a1 1C       		.uleb128 .LEHE31-.LEHB31
 3344 00a2 8521     		.uleb128 .L224-.LFB1095
 3345 00a4 03       		.uleb128 0x3
 3346 00a5 B706     		.uleb128 .LEHB32-.LFB1095
 3347 00a7 1C       		.uleb128 .LEHE32-.LEHB32
 3348 00a8 E821     		.uleb128 .L226-.LFB1095
 3349 00aa 01       		.uleb128 0x1
 3350 00ab DA06     		.uleb128 .LEHB33-.LFB1095
 3351 00ad 1C       		.uleb128 .LEHE33-.LEHB33
 3352 00ae E621     		.uleb128 .L227-.LFB1095
 3353 00b0 03       		.uleb128 0x3
 3354 00b1 8207     		.uleb128 .LEHB34-.LFB1095
 3355 00b3 05       		.uleb128 .LEHE34-.LEHB34
 3356 00b4 00       		.uleb128 0
 3357 00b5 00       		.uleb128 0
 3358 00b6 8A07     		.uleb128 .LEHB35-.LFB1095
 3359 00b8 1C       		.uleb128 .LEHE35-.LEHB35
 3360 00b9 C922     		.uleb128 .L229-.LFB1095
 3361 00bb 01       		.uleb128 0x1
 3362 00bc AA07     		.uleb128 .LEHB36-.LFB1095
 3363 00be 1C       		.uleb128 .LEHE36-.LEHB36
 3364 00bf C722     		.uleb128 .L230-.LFB1095
 3365 00c1 03       		.uleb128 0x3
 3366 00c2 C607     		.uleb128 .LEHB37-.LFB1095
 3367 00c4 1C       		.uleb128 .LEHE37-.LEHB37
 3368 00c5 AA23     		.uleb128 .L232-.LFB1095
 3369 00c7 01       		.uleb128 0x1
 3370 00c8 E907     		.uleb128 .LEHB38-.LFB1095
 3371 00ca 1C       		.uleb128 .LEHE38-.LEHB38
 3372 00cb A823     		.uleb128 .L233-.LFB1095
 3373 00cd 03       		.uleb128 0x3
 3374 00ce 9108     		.uleb128 .LEHB39-.LFB1095
 3375 00d0 05       		.uleb128 .LEHE39-.LEHB39
 3376 00d1 00       		.uleb128 0
 3377 00d2 00       		.uleb128 0
 3378 00d3 9908     		.uleb128 .LEHB40-.LFB1095
 3379 00d5 1C       		.uleb128 .LEHE40-.LEHB40
 3380 00d6 8B24     		.uleb128 .L235-.LFB1095
 3381 00d8 01       		.uleb128 0x1
 3382 00d9 B908     		.uleb128 .LEHB41-.LFB1095
 3383 00db 1C       		.uleb128 .LEHE41-.LEHB41
 3384 00dc 8924     		.uleb128 .L236-.LFB1095
 3385 00de 03       		.uleb128 0x3
 3386 00df D508     		.uleb128 .LEHB42-.LFB1095
 3387 00e1 1C       		.uleb128 .LEHE42-.LEHB42
 3388 00e2 EC24     		.uleb128 .L238-.LFB1095
 3389 00e4 01       		.uleb128 0x1
 3390 00e5 F808     		.uleb128 .LEHB43-.LFB1095
 3391 00e7 1C       		.uleb128 .LEHE43-.LEHB43
 3392 00e8 EA24     		.uleb128 .L239-.LFB1095
 3393 00ea 03       		.uleb128 0x3
 3394 00eb A009     		.uleb128 .LEHB44-.LFB1095
 3395 00ed 05       		.uleb128 .LEHE44-.LEHB44
 3396 00ee 00       		.uleb128 0
 3397 00ef 00       		.uleb128 0
 3398 00f0 A809     		.uleb128 .LEHB45-.LFB1095
 3399 00f2 1C       		.uleb128 .LEHE45-.LEHB45
 3400 00f3 CD25     		.uleb128 .L241-.LFB1095
 3401 00f5 01       		.uleb128 0x1
 3402 00f6 C809     		.uleb128 .LEHB46-.LFB1095
 3403 00f8 1C       		.uleb128 .LEHE46-.LEHB46
 3404 00f9 CB25     		.uleb128 .L242-.LFB1095
 3405 00fb 03       		.uleb128 0x3
 3406 00fc E409     		.uleb128 .LEHB47-.LFB1095
 3407 00fe 1C       		.uleb128 .LEHE47-.LEHB47
 3408 00ff AE26     		.uleb128 .L244-.LFB1095
 3409 0101 01       		.uleb128 0x1
 3410 0102 870A     		.uleb128 .LEHB48-.LFB1095
 3411 0104 1C       		.uleb128 .LEHE48-.LEHB48
 3412 0105 AC26     		.uleb128 .L245-.LFB1095
 3413 0107 03       		.uleb128 0x3
 3414 0108 AF0A     		.uleb128 .LEHB49-.LFB1095
 3415 010a 05       		.uleb128 .LEHE49-.LEHB49
 3416 010b 00       		.uleb128 0
 3417 010c 00       		.uleb128 0
 3418 010d B70A     		.uleb128 .LEHB50-.LFB1095
 3419 010f 1C       		.uleb128 .LEHE50-.LEHB50
 3420 0110 8F27     		.uleb128 .L247-.LFB1095
 3421 0112 01       		.uleb128 0x1
 3422 0113 D70A     		.uleb128 .LEHB51-.LFB1095
 3423 0115 1C       		.uleb128 .LEHE51-.LEHB51
 3424 0116 8D27     		.uleb128 .L248-.LFB1095
 3425 0118 03       		.uleb128 0x3
 3426 0119 F30A     		.uleb128 .LEHB52-.LFB1095
 3427 011b 1C       		.uleb128 .LEHE52-.LEHB52
 3428 011c F027     		.uleb128 .L250-.LFB1095
 3429 011e 01       		.uleb128 0x1
 3430 011f 960B     		.uleb128 .LEHB53-.LFB1095
 3431 0121 1C       		.uleb128 .LEHE53-.LEHB53
 3432 0122 EE27     		.uleb128 .L251-.LFB1095
 3433 0124 03       		.uleb128 0x3
 3434 0125 BE0B     		.uleb128 .LEHB54-.LFB1095
 3435 0127 05       		.uleb128 .LEHE54-.LEHB54
 3436 0128 00       		.uleb128 0
 3437 0129 00       		.uleb128 0
 3438 012a C60B     		.uleb128 .LEHB55-.LFB1095
 3439 012c 1C       		.uleb128 .LEHE55-.LEHB55
 3440 012d D128     		.uleb128 .L253-.LFB1095
 3441 012f 01       		.uleb128 0x1
 3442 0130 E60B     		.uleb128 .LEHB56-.LFB1095
 3443 0132 1C       		.uleb128 .LEHE56-.LEHB56
 3444 0133 CF28     		.uleb128 .L254-.LFB1095
 3445 0135 03       		.uleb128 0x3
 3446 0136 820C     		.uleb128 .LEHB57-.LFB1095
 3447 0138 1C       		.uleb128 .LEHE57-.LEHB57
 3448 0139 B229     		.uleb128 .L256-.LFB1095
 3449 013b 01       		.uleb128 0x1
 3450 013c A50C     		.uleb128 .LEHB58-.LFB1095
 3451 013e 1C       		.uleb128 .LEHE58-.LEHB58
 3452 013f B029     		.uleb128 .L257-.LFB1095
 3453 0141 03       		.uleb128 0x3
 3454 0142 CD0C     		.uleb128 .LEHB59-.LFB1095
 3455 0144 05       		.uleb128 .LEHE59-.LEHB59
 3456 0145 00       		.uleb128 0
 3457 0146 00       		.uleb128 0
 3458 0147 D50C     		.uleb128 .LEHB60-.LFB1095
 3459 0149 1C       		.uleb128 .LEHE60-.LEHB60
 3460 014a 932A     		.uleb128 .L259-.LFB1095
 3461 014c 01       		.uleb128 0x1
 3462 014d F50C     		.uleb128 .LEHB61-.LFB1095
 3463 014f 1C       		.uleb128 .LEHE61-.LEHB61
 3464 0150 912A     		.uleb128 .L260-.LFB1095
 3465 0152 03       		.uleb128 0x3
 3466 0153 910D     		.uleb128 .LEHB62-.LFB1095
 3467 0155 1C       		.uleb128 .LEHE62-.LEHB62
 3468 0156 F42A     		.uleb128 .L262-.LFB1095
 3469 0158 01       		.uleb128 0x1
 3470 0159 B40D     		.uleb128 .LEHB63-.LFB1095
 3471 015b 1C       		.uleb128 .LEHE63-.LEHB63
 3472 015c F22A     		.uleb128 .L263-.LFB1095
 3473 015e 03       		.uleb128 0x3
 3474 015f DC0D     		.uleb128 .LEHB64-.LFB1095
 3475 0161 05       		.uleb128 .LEHE64-.LEHB64
 3476 0162 00       		.uleb128 0
 3477 0163 00       		.uleb128 0
 3478 0164 E40D     		.uleb128 .LEHB65-.LFB1095
 3479 0166 1C       		.uleb128 .LEHE65-.LEHB65
 3480 0167 D52B     		.uleb128 .L265-.LFB1095
 3481 0169 01       		.uleb128 0x1
 3482 016a 840E     		.uleb128 .LEHB66-.LFB1095
 3483 016c 1C       		.uleb128 .LEHE66-.LEHB66
 3484 016d D32B     		.uleb128 .L266-.LFB1095
 3485 016f 03       		.uleb128 0x3
 3486 0170 A00E     		.uleb128 .LEHB67-.LFB1095
 3487 0172 1C       		.uleb128 .LEHE67-.LEHB67
 3488 0173 B62C     		.uleb128 .L268-.LFB1095
 3489 0175 01       		.uleb128 0x1
 3490 0176 C30E     		.uleb128 .LEHB68-.LFB1095
 3491 0178 1C       		.uleb128 .LEHE68-.LEHB68
 3492 0179 B42C     		.uleb128 .L269-.LFB1095
 3493 017b 03       		.uleb128 0x3
 3494 017c EB0E     		.uleb128 .LEHB69-.LFB1095
 3495 017e 05       		.uleb128 .LEHE69-.LEHB69
 3496 017f 00       		.uleb128 0
 3497 0180 00       		.uleb128 0
 3498 0181 F30E     		.uleb128 .LEHB70-.LFB1095
 3499 0183 1C       		.uleb128 .LEHE70-.LEHB70
 3500 0184 972D     		.uleb128 .L271-.LFB1095
 3501 0186 01       		.uleb128 0x1
 3502 0187 930F     		.uleb128 .LEHB71-.LFB1095
 3503 0189 1C       		.uleb128 .LEHE71-.LEHB71
 3504 018a 952D     		.uleb128 .L272-.LFB1095
 3505 018c 03       		.uleb128 0x3
 3506 018d AF0F     		.uleb128 .LEHB72-.LFB1095
 3507 018f 1C       		.uleb128 .LEHE72-.LEHB72
 3508 0190 F82D     		.uleb128 .L274-.LFB1095
 3509 0192 01       		.uleb128 0x1
 3510 0193 D20F     		.uleb128 .LEHB73-.LFB1095
 3511 0195 1C       		.uleb128 .LEHE73-.LEHB73
 3512 0196 F62D     		.uleb128 .L275-.LFB1095
 3513 0198 03       		.uleb128 0x3
 3514 0199 FA0F     		.uleb128 .LEHB74-.LFB1095
 3515 019b 05       		.uleb128 .LEHE74-.LEHB74
 3516 019c 00       		.uleb128 0
 3517 019d 00       		.uleb128 0
 3518 019e 8210     		.uleb128 .LEHB75-.LFB1095
 3519 01a0 1C       		.uleb128 .LEHE75-.LEHB75
 3520 01a1 D92E     		.uleb128 .L277-.LFB1095
 3521 01a3 01       		.uleb128 0x1
 3522 01a4 A210     		.uleb128 .LEHB76-.LFB1095
 3523 01a6 1C       		.uleb128 .LEHE76-.LEHB76
 3524 01a7 D72E     		.uleb128 .L278-.LFB1095
 3525 01a9 03       		.uleb128 0x3
 3526 01aa BE10     		.uleb128 .LEHB77-.LFB1095
 3527 01ac 1C       		.uleb128 .LEHE77-.LEHB77
 3528 01ad BA2F     		.uleb128 .L280-.LFB1095
 3529 01af 01       		.uleb128 0x1
 3530 01b0 E110     		.uleb128 .LEHB78-.LFB1095
 3531 01b2 1C       		.uleb128 .LEHE78-.LEHB78
 3532 01b3 B82F     		.uleb128 .L281-.LFB1095
 3533 01b5 03       		.uleb128 0x3
 3534 01b6 8911     		.uleb128 .LEHB79-.LFB1095
 3535 01b8 05       		.uleb128 .LEHE79-.LEHB79
 3536 01b9 00       		.uleb128 0
 3537 01ba 00       		.uleb128 0
 3538 01bb 9111     		.uleb128 .LEHB80-.LFB1095
 3539 01bd 1C       		.uleb128 .LEHE80-.LEHB80
 3540 01be 9B30     		.uleb128 .L283-.LFB1095
 3541 01c0 01       		.uleb128 0x1
 3542 01c1 B111     		.uleb128 .LEHB81-.LFB1095
 3543 01c3 1C       		.uleb128 .LEHE81-.LEHB81
 3544 01c4 9930     		.uleb128 .L284-.LFB1095
 3545 01c6 03       		.uleb128 0x3
 3546 01c7 CD11     		.uleb128 .LEHB82-.LFB1095
 3547 01c9 1C       		.uleb128 .LEHE82-.LEHB82
 3548 01ca FC30     		.uleb128 .L286-.LFB1095
 3549 01cc 01       		.uleb128 0x1
 3550 01cd F011     		.uleb128 .LEHB83-.LFB1095
 3551 01cf 1C       		.uleb128 .LEHE83-.LEHB83
 3552 01d0 FA30     		.uleb128 .L287-.LFB1095
 3553 01d2 03       		.uleb128 0x3
 3554 01d3 9812     		.uleb128 .LEHB84-.LFB1095
 3555 01d5 05       		.uleb128 .LEHE84-.LEHB84
 3556 01d6 00       		.uleb128 0
 3557 01d7 00       		.uleb128 0
 3558 01d8 A012     		.uleb128 .LEHB85-.LFB1095
 3559 01da 1C       		.uleb128 .LEHE85-.LEHB85
 3560 01db DD31     		.uleb128 .L289-.LFB1095
 3561 01dd 01       		.uleb128 0x1
 3562 01de C012     		.uleb128 .LEHB86-.LFB1095
 3563 01e0 1C       		.uleb128 .LEHE86-.LEHB86
 3564 01e1 DB31     		.uleb128 .L290-.LFB1095
 3565 01e3 03       		.uleb128 0x3
 3566 01e4 DC12     		.uleb128 .LEHB87-.LFB1095
 3567 01e6 1C       		.uleb128 .LEHE87-.LEHB87
 3568 01e7 BE32     		.uleb128 .L292-.LFB1095
 3569 01e9 01       		.uleb128 0x1
 3570 01ea FF12     		.uleb128 .LEHB88-.LFB1095
 3571 01ec 1C       		.uleb128 .LEHE88-.LEHB88
 3572 01ed BC32     		.uleb128 .L293-.LFB1095
 3573 01ef 03       		.uleb128 0x3
 3574 01f0 A713     		.uleb128 .LEHB89-.LFB1095
 3575 01f2 05       		.uleb128 .LEHE89-.LEHB89
 3576 01f3 00       		.uleb128 0
 3577 01f4 00       		.uleb128 0
 3578 01f5 AF13     		.uleb128 .LEHB90-.LFB1095
 3579 01f7 1C       		.uleb128 .LEHE90-.LEHB90
 3580 01f8 9F33     		.uleb128 .L295-.LFB1095
 3581 01fa 01       		.uleb128 0x1
 3582 01fb CF13     		.uleb128 .LEHB91-.LFB1095
 3583 01fd 1C       		.uleb128 .LEHE91-.LEHB91
 3584 01fe 9D33     		.uleb128 .L296-.LFB1095
 3585 0200 03       		.uleb128 0x3
 3586 0201 EB13     		.uleb128 .LEHB92-.LFB1095
 3587 0203 1C       		.uleb128 .LEHE92-.LEHB92
 3588 0204 8034     		.uleb128 .L298-.LFB1095
 3589 0206 01       		.uleb128 0x1
 3590 0207 8E14     		.uleb128 .LEHB93-.LFB1095
 3591 0209 1C       		.uleb128 .LEHE93-.LEHB93
 3592 020a FE33     		.uleb128 .L299-.LFB1095
 3593 020c 03       		.uleb128 0x3
 3594 020d B614     		.uleb128 .LEHB94-.LFB1095
 3595 020f 05       		.uleb128 .LEHE94-.LEHB94
 3596 0210 00       		.uleb128 0
 3597 0211 00       		.uleb128 0
 3598 0212 BE14     		.uleb128 .LEHB95-.LFB1095
 3599 0214 1C       		.uleb128 .LEHE95-.LEHB95
 3600 0215 E134     		.uleb128 .L301-.LFB1095
 3601 0217 01       		.uleb128 0x1
 3602 0218 DE14     		.uleb128 .LEHB96-.LFB1095
 3603 021a 1C       		.uleb128 .LEHE96-.LEHB96
 3604 021b DF34     		.uleb128 .L302-.LFB1095
 3605 021d 03       		.uleb128 0x3
 3606 021e FA14     		.uleb128 .LEHB97-.LFB1095
 3607 0220 1C       		.uleb128 .LEHE97-.LEHB97
 3608 0221 C235     		.uleb128 .L304-.LFB1095
 3609 0223 01       		.uleb128 0x1
 3610 0224 9D15     		.uleb128 .LEHB98-.LFB1095
 3611 0226 1C       		.uleb128 .LEHE98-.LEHB98
 3612 0227 C035     		.uleb128 .L305-.LFB1095
 3613 0229 03       		.uleb128 0x3
 3614 022a C515     		.uleb128 .LEHB99-.LFB1095
 3615 022c 05       		.uleb128 .LEHE99-.LEHB99
 3616 022d 00       		.uleb128 0
 3617 022e 00       		.uleb128 0
 3618 022f CD15     		.uleb128 .LEHB100-.LFB1095
 3619 0231 1C       		.uleb128 .LEHE100-.LEHB100
 3620 0232 A336     		.uleb128 .L307-.LFB1095
 3621 0234 01       		.uleb128 0x1
 3622 0235 ED15     		.uleb128 .LEHB101-.LFB1095
 3623 0237 1C       		.uleb128 .LEHE101-.LEHB101
 3624 0238 A136     		.uleb128 .L308-.LFB1095
 3625 023a 03       		.uleb128 0x3
 3626 023b 8916     		.uleb128 .LEHB102-.LFB1095
 3627 023d 1C       		.uleb128 .LEHE102-.LEHB102
 3628 023e 8437     		.uleb128 .L310-.LFB1095
 3629 0240 01       		.uleb128 0x1
 3630 0241 AC16     		.uleb128 .LEHB103-.LFB1095
 3631 0243 1C       		.uleb128 .LEHE103-.LEHB103
 3632 0244 8237     		.uleb128 .L311-.LFB1095
 3633 0246 03       		.uleb128 0x3
 3634 0247 D416     		.uleb128 .LEHB104-.LFB1095
 3635 0249 05       		.uleb128 .LEHE104-.LEHB104
 3636 024a 00       		.uleb128 0
 3637 024b 00       		.uleb128 0
 3638 024c DC16     		.uleb128 .LEHB105-.LFB1095
 3639 024e 1C       		.uleb128 .LEHE105-.LEHB105
 3640 024f E537     		.uleb128 .L313-.LFB1095
 3641 0251 01       		.uleb128 0x1
 3642 0252 FC16     		.uleb128 .LEHB106-.LFB1095
 3643 0254 1C       		.uleb128 .LEHE106-.LEHB106
 3644 0255 E337     		.uleb128 .L314-.LFB1095
 3645 0257 03       		.uleb128 0x3
 3646 0258 9817     		.uleb128 .LEHB107-.LFB1095
 3647 025a 1C       		.uleb128 .LEHE107-.LEHB107
 3648 025b C638     		.uleb128 .L316-.LFB1095
 3649 025d 01       		.uleb128 0x1
 3650 025e BB17     		.uleb128 .LEHB108-.LFB1095
 3651 0260 1C       		.uleb128 .LEHE108-.LEHB108
 3652 0261 C438     		.uleb128 .L317-.LFB1095
 3653 0263 03       		.uleb128 0x3
 3654 0264 E317     		.uleb128 .LEHB109-.LFB1095
 3655 0266 05       		.uleb128 .LEHE109-.LEHB109
 3656 0267 00       		.uleb128 0
 3657 0268 00       		.uleb128 0
 3658 0269 EB17     		.uleb128 .LEHB110-.LFB1095
 3659 026b 1C       		.uleb128 .LEHE110-.LEHB110
 3660 026c A739     		.uleb128 .L319-.LFB1095
 3661 026e 01       		.uleb128 0x1
 3662 026f 8B18     		.uleb128 .LEHB111-.LFB1095
 3663 0271 1C       		.uleb128 .LEHE111-.LEHB111
 3664 0272 A539     		.uleb128 .L320-.LFB1095
 3665 0274 03       		.uleb128 0x3
 3666 0275 A718     		.uleb128 .LEHB112-.LFB1095
 3667 0277 1C       		.uleb128 .LEHE112-.LEHB112
 3668 0278 883A     		.uleb128 .L322-.LFB1095
 3669 027a 01       		.uleb128 0x1
 3670 027b CA18     		.uleb128 .LEHB113-.LFB1095
 3671 027d 1C       		.uleb128 .LEHE113-.LEHB113
 3672 027e 863A     		.uleb128 .L323-.LFB1095
 3673 0280 03       		.uleb128 0x3
 3674 0281 F218     		.uleb128 .LEHB114-.LFB1095
 3675 0283 05       		.uleb128 .LEHE114-.LEHB114
 3676 0284 00       		.uleb128 0
 3677 0285 00       		.uleb128 0
 3678 0286 FA18     		.uleb128 .LEHB115-.LFB1095
 3679 0288 1C       		.uleb128 .LEHE115-.LEHB115
 3680 0289 E93A     		.uleb128 .L325-.LFB1095
 3681 028b 01       		.uleb128 0x1
 3682 028c 9A19     		.uleb128 .LEHB116-.LFB1095
 3683 028e 1C       		.uleb128 .LEHE116-.LEHB116
 3684 028f E73A     		.uleb128 .L326-.LFB1095
 3685 0291 03       		.uleb128 0x3
 3686 0292 C519     		.uleb128 .LEHB117-.LFB1095
 3687 0294 3A       		.uleb128 .LEHE117-.LEHB117
 3688 0295 891A     		.uleb128 .L195-.LFB1095
 3689 0297 00       		.uleb128 0
 3690 0298 FF19     		.uleb128 .LEHB118-.LFB1095
 3691 029a 05       		.uleb128 .LEHE118-.LEHB118
 3692 029b 00       		.uleb128 0
 3693 029c 00       		.uleb128 0
 3694 029d 971A     		.uleb128 .LEHB119-.LFB1095
 3695 029f 05       		.uleb128 .LEHE119-.LEHB119
 3696 02a0 00       		.uleb128 0
 3697 02a1 00       		.uleb128 0
 3698 02a2 A61A     		.uleb128 .LEHB120-.LFB1095
 3699 02a4 3A       		.uleb128 .LEHE120-.LEHB120
 3700 02a5 EA1A     		.uleb128 .L198-.LFB1095
 3701 02a7 00       		.uleb128 0
 3702 02a8 E01A     		.uleb128 .LEHB121-.LFB1095
 3703 02aa 05       		.uleb128 .LEHE121-.LEHB121
 3704 02ab 00       		.uleb128 0
 3705 02ac 00       		.uleb128 0
 3706 02ad F81A     		.uleb128 .LEHB122-.LFB1095
 3707 02af 05       		.uleb128 .LEHE122-.LEHB122
 3708 02b0 00       		.uleb128 0
 3709 02b1 00       		.uleb128 0
 3710 02b2 871B     		.uleb128 .LEHB123-.LFB1095
 3711 02b4 3A       		.uleb128 .LEHE123-.LEHB123
 3712 02b5 CB1B     		.uleb128 .L201-.LFB1095
 3713 02b7 00       		.uleb128 0
 3714 02b8 C11B     		.uleb128 .LEHB124-.LFB1095
 3715 02ba 05       		.uleb128 .LEHE124-.LEHB124
 3716 02bb 00       		.uleb128 0
 3717 02bc 00       		.uleb128 0
 3718 02bd D91B     		.uleb128 .LEHB125-.LFB1095
 3719 02bf 05       		.uleb128 .LEHE125-.LEHB125
 3720 02c0 00       		.uleb128 0
 3721 02c1 00       		.uleb128 0
 3722 02c2 E81B     		.uleb128 .LEHB126-.LFB1095
 3723 02c4 3A       		.uleb128 .LEHE126-.LEHB126
 3724 02c5 AC1C     		.uleb128 .L204-.LFB1095
 3725 02c7 00       		.uleb128 0
 3726 02c8 A21C     		.uleb128 .LEHB127-.LFB1095
 3727 02ca 05       		.uleb128 .LEHE127-.LEHB127
 3728 02cb 00       		.uleb128 0
 3729 02cc 00       		.uleb128 0
 3730 02cd BA1C     		.uleb128 .LEHB128-.LFB1095
 3731 02cf 05       		.uleb128 .LEHE128-.LEHB128
 3732 02d0 00       		.uleb128 0
 3733 02d1 00       		.uleb128 0
 3734 02d2 C91C     		.uleb128 .LEHB129-.LFB1095
 3735 02d4 3A       		.uleb128 .LEHE129-.LEHB129
 3736 02d5 8D1D     		.uleb128 .L207-.LFB1095
 3737 02d7 00       		.uleb128 0
 3738 02d8 831D     		.uleb128 .LEHB130-.LFB1095
 3739 02da 05       		.uleb128 .LEHE130-.LEHB130
 3740 02db 00       		.uleb128 0
 3741 02dc 00       		.uleb128 0
 3742 02dd 9B1D     		.uleb128 .LEHB131-.LFB1095
 3743 02df 05       		.uleb128 .LEHE131-.LEHB131
 3744 02e0 00       		.uleb128 0
 3745 02e1 00       		.uleb128 0
 3746 02e2 AA1D     		.uleb128 .LEHB132-.LFB1095
 3747 02e4 3A       		.uleb128 .LEHE132-.LEHB132
 3748 02e5 EE1D     		.uleb128 .L210-.LFB1095
 3749 02e7 00       		.uleb128 0
 3750 02e8 E41D     		.uleb128 .LEHB133-.LFB1095
 3751 02ea 05       		.uleb128 .LEHE133-.LEHB133
 3752 02eb 00       		.uleb128 0
 3753 02ec 00       		.uleb128 0
 3754 02ed FC1D     		.uleb128 .LEHB134-.LFB1095
 3755 02ef 05       		.uleb128 .LEHE134-.LEHB134
 3756 02f0 00       		.uleb128 0
 3757 02f1 00       		.uleb128 0
 3758 02f2 8B1E     		.uleb128 .LEHB135-.LFB1095
 3759 02f4 3A       		.uleb128 .LEHE135-.LEHB135
 3760 02f5 CF1E     		.uleb128 .L213-.LFB1095
 3761 02f7 00       		.uleb128 0
 3762 02f8 C51E     		.uleb128 .LEHB136-.LFB1095
 3763 02fa 05       		.uleb128 .LEHE136-.LEHB136
 3764 02fb 00       		.uleb128 0
 3765 02fc 00       		.uleb128 0
 3766 02fd DD1E     		.uleb128 .LEHB137-.LFB1095
 3767 02ff 05       		.uleb128 .LEHE137-.LEHB137
 3768 0300 00       		.uleb128 0
 3769 0301 00       		.uleb128 0
 3770 0302 EC1E     		.uleb128 .LEHB138-.LFB1095
 3771 0304 3A       		.uleb128 .LEHE138-.LEHB138
 3772 0305 B01F     		.uleb128 .L216-.LFB1095
 3773 0307 00       		.uleb128 0
 3774 0308 A61F     		.uleb128 .LEHB139-.LFB1095
 3775 030a 05       		.uleb128 .LEHE139-.LEHB139
 3776 030b 00       		.uleb128 0
 3777 030c 00       		.uleb128 0
 3778 030d BE1F     		.uleb128 .LEHB140-.LFB1095
 3779 030f 05       		.uleb128 .LEHE140-.LEHB140
 3780 0310 00       		.uleb128 0
 3781 0311 00       		.uleb128 0
 3782 0312 CD1F     		.uleb128 .LEHB141-.LFB1095
 3783 0314 3A       		.uleb128 .LEHE141-.LEHB141
 3784 0315 9120     		.uleb128 .L219-.LFB1095
 3785 0317 00       		.uleb128 0
 3786 0318 8720     		.uleb128 .LEHB142-.LFB1095
 3787 031a 05       		.uleb128 .LEHE142-.LEHB142
 3788 031b 00       		.uleb128 0
 3789 031c 00       		.uleb128 0
 3790 031d 9F20     		.uleb128 .LEHB143-.LFB1095
 3791 031f 05       		.uleb128 .LEHE143-.LEHB143
 3792 0320 00       		.uleb128 0
 3793 0321 00       		.uleb128 0
 3794 0322 AE20     		.uleb128 .LEHB144-.LFB1095
 3795 0324 3A       		.uleb128 .LEHE144-.LEHB144
 3796 0325 F220     		.uleb128 .L222-.LFB1095
 3797 0327 00       		.uleb128 0
 3798 0328 E820     		.uleb128 .LEHB145-.LFB1095
 3799 032a 05       		.uleb128 .LEHE145-.LEHB145
 3800 032b 00       		.uleb128 0
 3801 032c 00       		.uleb128 0
 3802 032d 8021     		.uleb128 .LEHB146-.LFB1095
 3803 032f 05       		.uleb128 .LEHE146-.LEHB146
 3804 0330 00       		.uleb128 0
 3805 0331 00       		.uleb128 0
 3806 0332 8F21     		.uleb128 .LEHB147-.LFB1095
 3807 0334 3A       		.uleb128 .LEHE147-.LEHB147
 3808 0335 D321     		.uleb128 .L225-.LFB1095
 3809 0337 00       		.uleb128 0
 3810 0338 C921     		.uleb128 .LEHB148-.LFB1095
 3811 033a 05       		.uleb128 .LEHE148-.LEHB148
 3812 033b 00       		.uleb128 0
 3813 033c 00       		.uleb128 0
 3814 033d E121     		.uleb128 .LEHB149-.LFB1095
 3815 033f 05       		.uleb128 .LEHE149-.LEHB149
 3816 0340 00       		.uleb128 0
 3817 0341 00       		.uleb128 0
 3818 0342 F021     		.uleb128 .LEHB150-.LFB1095
 3819 0344 3A       		.uleb128 .LEHE150-.LEHB150
 3820 0345 B422     		.uleb128 .L228-.LFB1095
 3821 0347 00       		.uleb128 0
 3822 0348 AA22     		.uleb128 .LEHB151-.LFB1095
 3823 034a 05       		.uleb128 .LEHE151-.LEHB151
 3824 034b 00       		.uleb128 0
 3825 034c 00       		.uleb128 0
 3826 034d C222     		.uleb128 .LEHB152-.LFB1095
 3827 034f 05       		.uleb128 .LEHE152-.LEHB152
 3828 0350 00       		.uleb128 0
 3829 0351 00       		.uleb128 0
 3830 0352 D122     		.uleb128 .LEHB153-.LFB1095
 3831 0354 3A       		.uleb128 .LEHE153-.LEHB153
 3832 0355 9523     		.uleb128 .L231-.LFB1095
 3833 0357 00       		.uleb128 0
 3834 0358 8B23     		.uleb128 .LEHB154-.LFB1095
 3835 035a 05       		.uleb128 .LEHE154-.LEHB154
 3836 035b 00       		.uleb128 0
 3837 035c 00       		.uleb128 0
 3838 035d A323     		.uleb128 .LEHB155-.LFB1095
 3839 035f 05       		.uleb128 .LEHE155-.LEHB155
 3840 0360 00       		.uleb128 0
 3841 0361 00       		.uleb128 0
 3842 0362 B223     		.uleb128 .LEHB156-.LFB1095
 3843 0364 3A       		.uleb128 .LEHE156-.LEHB156
 3844 0365 F623     		.uleb128 .L234-.LFB1095
 3845 0367 00       		.uleb128 0
 3846 0368 EC23     		.uleb128 .LEHB157-.LFB1095
 3847 036a 05       		.uleb128 .LEHE157-.LEHB157
 3848 036b 00       		.uleb128 0
 3849 036c 00       		.uleb128 0
 3850 036d 8424     		.uleb128 .LEHB158-.LFB1095
 3851 036f 05       		.uleb128 .LEHE158-.LEHB158
 3852 0370 00       		.uleb128 0
 3853 0371 00       		.uleb128 0
 3854 0372 9324     		.uleb128 .LEHB159-.LFB1095
 3855 0374 3A       		.uleb128 .LEHE159-.LEHB159
 3856 0375 D724     		.uleb128 .L237-.LFB1095
 3857 0377 00       		.uleb128 0
 3858 0378 CD24     		.uleb128 .LEHB160-.LFB1095
 3859 037a 05       		.uleb128 .LEHE160-.LEHB160
 3860 037b 00       		.uleb128 0
 3861 037c 00       		.uleb128 0
 3862 037d E524     		.uleb128 .LEHB161-.LFB1095
 3863 037f 05       		.uleb128 .LEHE161-.LEHB161
 3864 0380 00       		.uleb128 0
 3865 0381 00       		.uleb128 0
 3866 0382 F424     		.uleb128 .LEHB162-.LFB1095
 3867 0384 3A       		.uleb128 .LEHE162-.LEHB162
 3868 0385 B825     		.uleb128 .L240-.LFB1095
 3869 0387 00       		.uleb128 0
 3870 0388 AE25     		.uleb128 .LEHB163-.LFB1095
 3871 038a 05       		.uleb128 .LEHE163-.LEHB163
 3872 038b 00       		.uleb128 0
 3873 038c 00       		.uleb128 0
 3874 038d C625     		.uleb128 .LEHB164-.LFB1095
 3875 038f 05       		.uleb128 .LEHE164-.LEHB164
 3876 0390 00       		.uleb128 0
 3877 0391 00       		.uleb128 0
 3878 0392 D525     		.uleb128 .LEHB165-.LFB1095
 3879 0394 3A       		.uleb128 .LEHE165-.LEHB165
 3880 0395 9926     		.uleb128 .L243-.LFB1095
 3881 0397 00       		.uleb128 0
 3882 0398 8F26     		.uleb128 .LEHB166-.LFB1095
 3883 039a 05       		.uleb128 .LEHE166-.LEHB166
 3884 039b 00       		.uleb128 0
 3885 039c 00       		.uleb128 0
 3886 039d A726     		.uleb128 .LEHB167-.LFB1095
 3887 039f 05       		.uleb128 .LEHE167-.LEHB167
 3888 03a0 00       		.uleb128 0
 3889 03a1 00       		.uleb128 0
 3890 03a2 B626     		.uleb128 .LEHB168-.LFB1095
 3891 03a4 3A       		.uleb128 .LEHE168-.LEHB168
 3892 03a5 FA26     		.uleb128 .L246-.LFB1095
 3893 03a7 00       		.uleb128 0
 3894 03a8 F026     		.uleb128 .LEHB169-.LFB1095
 3895 03aa 05       		.uleb128 .LEHE169-.LEHB169
 3896 03ab 00       		.uleb128 0
 3897 03ac 00       		.uleb128 0
 3898 03ad 8827     		.uleb128 .LEHB170-.LFB1095
 3899 03af 05       		.uleb128 .LEHE170-.LEHB170
 3900 03b0 00       		.uleb128 0
 3901 03b1 00       		.uleb128 0
 3902 03b2 9727     		.uleb128 .LEHB171-.LFB1095
 3903 03b4 3A       		.uleb128 .LEHE171-.LEHB171
 3904 03b5 DB27     		.uleb128 .L249-.LFB1095
 3905 03b7 00       		.uleb128 0
 3906 03b8 D127     		.uleb128 .LEHB172-.LFB1095
 3907 03ba 05       		.uleb128 .LEHE172-.LEHB172
 3908 03bb 00       		.uleb128 0
 3909 03bc 00       		.uleb128 0
 3910 03bd E927     		.uleb128 .LEHB173-.LFB1095
 3911 03bf 05       		.uleb128 .LEHE173-.LEHB173
 3912 03c0 00       		.uleb128 0
 3913 03c1 00       		.uleb128 0
 3914 03c2 F827     		.uleb128 .LEHB174-.LFB1095
 3915 03c4 3A       		.uleb128 .LEHE174-.LEHB174
 3916 03c5 BC28     		.uleb128 .L252-.LFB1095
 3917 03c7 00       		.uleb128 0
 3918 03c8 B228     		.uleb128 .LEHB175-.LFB1095
 3919 03ca 05       		.uleb128 .LEHE175-.LEHB175
 3920 03cb 00       		.uleb128 0
 3921 03cc 00       		.uleb128 0
 3922 03cd CA28     		.uleb128 .LEHB176-.LFB1095
 3923 03cf 05       		.uleb128 .LEHE176-.LEHB176
 3924 03d0 00       		.uleb128 0
 3925 03d1 00       		.uleb128 0
 3926 03d2 D928     		.uleb128 .LEHB177-.LFB1095
 3927 03d4 3A       		.uleb128 .LEHE177-.LEHB177
 3928 03d5 9D29     		.uleb128 .L255-.LFB1095
 3929 03d7 00       		.uleb128 0
 3930 03d8 9329     		.uleb128 .LEHB178-.LFB1095
 3931 03da 05       		.uleb128 .LEHE178-.LEHB178
 3932 03db 00       		.uleb128 0
 3933 03dc 00       		.uleb128 0
 3934 03dd AB29     		.uleb128 .LEHB179-.LFB1095
 3935 03df 05       		.uleb128 .LEHE179-.LEHB179
 3936 03e0 00       		.uleb128 0
 3937 03e1 00       		.uleb128 0
 3938 03e2 BA29     		.uleb128 .LEHB180-.LFB1095
 3939 03e4 3A       		.uleb128 .LEHE180-.LEHB180
 3940 03e5 FE29     		.uleb128 .L258-.LFB1095
 3941 03e7 00       		.uleb128 0
 3942 03e8 F429     		.uleb128 .LEHB181-.LFB1095
 3943 03ea 05       		.uleb128 .LEHE181-.LEHB181
 3944 03eb 00       		.uleb128 0
 3945 03ec 00       		.uleb128 0
 3946 03ed 8C2A     		.uleb128 .LEHB182-.LFB1095
 3947 03ef 05       		.uleb128 .LEHE182-.LEHB182
 3948 03f0 00       		.uleb128 0
 3949 03f1 00       		.uleb128 0
 3950 03f2 9B2A     		.uleb128 .LEHB183-.LFB1095
 3951 03f4 3A       		.uleb128 .LEHE183-.LEHB183
 3952 03f5 DF2A     		.uleb128 .L261-.LFB1095
 3953 03f7 00       		.uleb128 0
 3954 03f8 D52A     		.uleb128 .LEHB184-.LFB1095
 3955 03fa 05       		.uleb128 .LEHE184-.LEHB184
 3956 03fb 00       		.uleb128 0
 3957 03fc 00       		.uleb128 0
 3958 03fd ED2A     		.uleb128 .LEHB185-.LFB1095
 3959 03ff 05       		.uleb128 .LEHE185-.LEHB185
 3960 0400 00       		.uleb128 0
 3961 0401 00       		.uleb128 0
 3962 0402 FC2A     		.uleb128 .LEHB186-.LFB1095
 3963 0404 3A       		.uleb128 .LEHE186-.LEHB186
 3964 0405 C02B     		.uleb128 .L264-.LFB1095
 3965 0407 00       		.uleb128 0
 3966 0408 B62B     		.uleb128 .LEHB187-.LFB1095
 3967 040a 05       		.uleb128 .LEHE187-.LEHB187
 3968 040b 00       		.uleb128 0
 3969 040c 00       		.uleb128 0
 3970 040d CE2B     		.uleb128 .LEHB188-.LFB1095
 3971 040f 05       		.uleb128 .LEHE188-.LEHB188
 3972 0410 00       		.uleb128 0
 3973 0411 00       		.uleb128 0
 3974 0412 DD2B     		.uleb128 .LEHB189-.LFB1095
 3975 0414 3A       		.uleb128 .LEHE189-.LEHB189
 3976 0415 A12C     		.uleb128 .L267-.LFB1095
 3977 0417 00       		.uleb128 0
 3978 0418 972C     		.uleb128 .LEHB190-.LFB1095
 3979 041a 05       		.uleb128 .LEHE190-.LEHB190
 3980 041b 00       		.uleb128 0
 3981 041c 00       		.uleb128 0
 3982 041d AF2C     		.uleb128 .LEHB191-.LFB1095
 3983 041f 05       		.uleb128 .LEHE191-.LEHB191
 3984 0420 00       		.uleb128 0
 3985 0421 00       		.uleb128 0
 3986 0422 BE2C     		.uleb128 .LEHB192-.LFB1095
 3987 0424 3A       		.uleb128 .LEHE192-.LEHB192
 3988 0425 822D     		.uleb128 .L270-.LFB1095
 3989 0427 00       		.uleb128 0
 3990 0428 F82C     		.uleb128 .LEHB193-.LFB1095
 3991 042a 05       		.uleb128 .LEHE193-.LEHB193
 3992 042b 00       		.uleb128 0
 3993 042c 00       		.uleb128 0
 3994 042d 902D     		.uleb128 .LEHB194-.LFB1095
 3995 042f 05       		.uleb128 .LEHE194-.LEHB194
 3996 0430 00       		.uleb128 0
 3997 0431 00       		.uleb128 0
 3998 0432 9F2D     		.uleb128 .LEHB195-.LFB1095
 3999 0434 3A       		.uleb128 .LEHE195-.LEHB195
 4000 0435 E32D     		.uleb128 .L273-.LFB1095
 4001 0437 00       		.uleb128 0
 4002 0438 D92D     		.uleb128 .LEHB196-.LFB1095
 4003 043a 05       		.uleb128 .LEHE196-.LEHB196
 4004 043b 00       		.uleb128 0
 4005 043c 00       		.uleb128 0
 4006 043d F12D     		.uleb128 .LEHB197-.LFB1095
 4007 043f 05       		.uleb128 .LEHE197-.LEHB197
 4008 0440 00       		.uleb128 0
 4009 0441 00       		.uleb128 0
 4010 0442 802E     		.uleb128 .LEHB198-.LFB1095
 4011 0444 3A       		.uleb128 .LEHE198-.LEHB198
 4012 0445 C42E     		.uleb128 .L276-.LFB1095
 4013 0447 00       		.uleb128 0
 4014 0448 BA2E     		.uleb128 .LEHB199-.LFB1095
 4015 044a 05       		.uleb128 .LEHE199-.LEHB199
 4016 044b 00       		.uleb128 0
 4017 044c 00       		.uleb128 0
 4018 044d D22E     		.uleb128 .LEHB200-.LFB1095
 4019 044f 05       		.uleb128 .LEHE200-.LEHB200
 4020 0450 00       		.uleb128 0
 4021 0451 00       		.uleb128 0
 4022 0452 E12E     		.uleb128 .LEHB201-.LFB1095
 4023 0454 3A       		.uleb128 .LEHE201-.LEHB201
 4024 0455 A52F     		.uleb128 .L279-.LFB1095
 4025 0457 00       		.uleb128 0
 4026 0458 9B2F     		.uleb128 .LEHB202-.LFB1095
 4027 045a 05       		.uleb128 .LEHE202-.LEHB202
 4028 045b 00       		.uleb128 0
 4029 045c 00       		.uleb128 0
 4030 045d B32F     		.uleb128 .LEHB203-.LFB1095
 4031 045f 05       		.uleb128 .LEHE203-.LEHB203
 4032 0460 00       		.uleb128 0
 4033 0461 00       		.uleb128 0
 4034 0462 C22F     		.uleb128 .LEHB204-.LFB1095
 4035 0464 3A       		.uleb128 .LEHE204-.LEHB204
 4036 0465 8630     		.uleb128 .L282-.LFB1095
 4037 0467 00       		.uleb128 0
 4038 0468 FC2F     		.uleb128 .LEHB205-.LFB1095
 4039 046a 05       		.uleb128 .LEHE205-.LEHB205
 4040 046b 00       		.uleb128 0
 4041 046c 00       		.uleb128 0
 4042 046d 9430     		.uleb128 .LEHB206-.LFB1095
 4043 046f 05       		.uleb128 .LEHE206-.LEHB206
 4044 0470 00       		.uleb128 0
 4045 0471 00       		.uleb128 0
 4046 0472 A330     		.uleb128 .LEHB207-.LFB1095
 4047 0474 3A       		.uleb128 .LEHE207-.LEHB207
 4048 0475 E730     		.uleb128 .L285-.LFB1095
 4049 0477 00       		.uleb128 0
 4050 0478 DD30     		.uleb128 .LEHB208-.LFB1095
 4051 047a 05       		.uleb128 .LEHE208-.LEHB208
 4052 047b 00       		.uleb128 0
 4053 047c 00       		.uleb128 0
 4054 047d F530     		.uleb128 .LEHB209-.LFB1095
 4055 047f 05       		.uleb128 .LEHE209-.LEHB209
 4056 0480 00       		.uleb128 0
 4057 0481 00       		.uleb128 0
 4058 0482 8431     		.uleb128 .LEHB210-.LFB1095
 4059 0484 3A       		.uleb128 .LEHE210-.LEHB210
 4060 0485 C831     		.uleb128 .L288-.LFB1095
 4061 0487 00       		.uleb128 0
 4062 0488 BE31     		.uleb128 .LEHB211-.LFB1095
 4063 048a 05       		.uleb128 .LEHE211-.LEHB211
 4064 048b 00       		.uleb128 0
 4065 048c 00       		.uleb128 0
 4066 048d D631     		.uleb128 .LEHB212-.LFB1095
 4067 048f 05       		.uleb128 .LEHE212-.LEHB212
 4068 0490 00       		.uleb128 0
 4069 0491 00       		.uleb128 0
 4070 0492 E531     		.uleb128 .LEHB213-.LFB1095
 4071 0494 3A       		.uleb128 .LEHE213-.LEHB213
 4072 0495 A932     		.uleb128 .L291-.LFB1095
 4073 0497 00       		.uleb128 0
 4074 0498 9F32     		.uleb128 .LEHB214-.LFB1095
 4075 049a 05       		.uleb128 .LEHE214-.LEHB214
 4076 049b 00       		.uleb128 0
 4077 049c 00       		.uleb128 0
 4078 049d B732     		.uleb128 .LEHB215-.LFB1095
 4079 049f 05       		.uleb128 .LEHE215-.LEHB215
 4080 04a0 00       		.uleb128 0
 4081 04a1 00       		.uleb128 0
 4082 04a2 C632     		.uleb128 .LEHB216-.LFB1095
 4083 04a4 3A       		.uleb128 .LEHE216-.LEHB216
 4084 04a5 8A33     		.uleb128 .L294-.LFB1095
 4085 04a7 00       		.uleb128 0
 4086 04a8 8033     		.uleb128 .LEHB217-.LFB1095
 4087 04aa 05       		.uleb128 .LEHE217-.LEHB217
 4088 04ab 00       		.uleb128 0
 4089 04ac 00       		.uleb128 0
 4090 04ad 9833     		.uleb128 .LEHB218-.LFB1095
 4091 04af 05       		.uleb128 .LEHE218-.LEHB218
 4092 04b0 00       		.uleb128 0
 4093 04b1 00       		.uleb128 0
 4094 04b2 A733     		.uleb128 .LEHB219-.LFB1095
 4095 04b4 3A       		.uleb128 .LEHE219-.LEHB219
 4096 04b5 EB33     		.uleb128 .L297-.LFB1095
 4097 04b7 00       		.uleb128 0
 4098 04b8 E133     		.uleb128 .LEHB220-.LFB1095
 4099 04ba 05       		.uleb128 .LEHE220-.LEHB220
 4100 04bb 00       		.uleb128 0
 4101 04bc 00       		.uleb128 0
 4102 04bd F933     		.uleb128 .LEHB221-.LFB1095
 4103 04bf 05       		.uleb128 .LEHE221-.LEHB221
 4104 04c0 00       		.uleb128 0
 4105 04c1 00       		.uleb128 0
 4106 04c2 8834     		.uleb128 .LEHB222-.LFB1095
 4107 04c4 3A       		.uleb128 .LEHE222-.LEHB222
 4108 04c5 CC34     		.uleb128 .L300-.LFB1095
 4109 04c7 00       		.uleb128 0
 4110 04c8 C234     		.uleb128 .LEHB223-.LFB1095
 4111 04ca 05       		.uleb128 .LEHE223-.LEHB223
 4112 04cb 00       		.uleb128 0
 4113 04cc 00       		.uleb128 0
 4114 04cd DA34     		.uleb128 .LEHB224-.LFB1095
 4115 04cf 05       		.uleb128 .LEHE224-.LEHB224
 4116 04d0 00       		.uleb128 0
 4117 04d1 00       		.uleb128 0
 4118 04d2 E934     		.uleb128 .LEHB225-.LFB1095
 4119 04d4 3A       		.uleb128 .LEHE225-.LEHB225
 4120 04d5 AD35     		.uleb128 .L303-.LFB1095
 4121 04d7 00       		.uleb128 0
 4122 04d8 A335     		.uleb128 .LEHB226-.LFB1095
 4123 04da 05       		.uleb128 .LEHE226-.LEHB226
 4124 04db 00       		.uleb128 0
 4125 04dc 00       		.uleb128 0
 4126 04dd BB35     		.uleb128 .LEHB227-.LFB1095
 4127 04df 05       		.uleb128 .LEHE227-.LEHB227
 4128 04e0 00       		.uleb128 0
 4129 04e1 00       		.uleb128 0
 4130 04e2 CA35     		.uleb128 .LEHB228-.LFB1095
 4131 04e4 3A       		.uleb128 .LEHE228-.LEHB228
 4132 04e5 8E36     		.uleb128 .L306-.LFB1095
 4133 04e7 00       		.uleb128 0
 4134 04e8 8436     		.uleb128 .LEHB229-.LFB1095
 4135 04ea 05       		.uleb128 .LEHE229-.LEHB229
 4136 04eb 00       		.uleb128 0
 4137 04ec 00       		.uleb128 0
 4138 04ed 9C36     		.uleb128 .LEHB230-.LFB1095
 4139 04ef 05       		.uleb128 .LEHE230-.LEHB230
 4140 04f0 00       		.uleb128 0
 4141 04f1 00       		.uleb128 0
 4142 04f2 AB36     		.uleb128 .LEHB231-.LFB1095
 4143 04f4 3A       		.uleb128 .LEHE231-.LEHB231
 4144 04f5 EF36     		.uleb128 .L309-.LFB1095
 4145 04f7 00       		.uleb128 0
 4146 04f8 E536     		.uleb128 .LEHB232-.LFB1095
 4147 04fa 05       		.uleb128 .LEHE232-.LEHB232
 4148 04fb 00       		.uleb128 0
 4149 04fc 00       		.uleb128 0
 4150 04fd FD36     		.uleb128 .LEHB233-.LFB1095
 4151 04ff 05       		.uleb128 .LEHE233-.LEHB233
 4152 0500 00       		.uleb128 0
 4153 0501 00       		.uleb128 0
 4154 0502 8C37     		.uleb128 .LEHB234-.LFB1095
 4155 0504 3A       		.uleb128 .LEHE234-.LEHB234
 4156 0505 D037     		.uleb128 .L312-.LFB1095
 4157 0507 00       		.uleb128 0
 4158 0508 C637     		.uleb128 .LEHB235-.LFB1095
 4159 050a 05       		.uleb128 .LEHE235-.LEHB235
 4160 050b 00       		.uleb128 0
 4161 050c 00       		.uleb128 0
 4162 050d DE37     		.uleb128 .LEHB236-.LFB1095
 4163 050f 05       		.uleb128 .LEHE236-.LEHB236
 4164 0510 00       		.uleb128 0
 4165 0511 00       		.uleb128 0
 4166 0512 ED37     		.uleb128 .LEHB237-.LFB1095
 4167 0514 3A       		.uleb128 .LEHE237-.LEHB237
 4168 0515 B138     		.uleb128 .L315-.LFB1095
 4169 0517 00       		.uleb128 0
 4170 0518 A738     		.uleb128 .LEHB238-.LFB1095
 4171 051a 05       		.uleb128 .LEHE238-.LEHB238
 4172 051b 00       		.uleb128 0
 4173 051c 00       		.uleb128 0
 4174 051d BF38     		.uleb128 .LEHB239-.LFB1095
 4175 051f 05       		.uleb128 .LEHE239-.LEHB239
 4176 0520 00       		.uleb128 0
 4177 0521 00       		.uleb128 0
 4178 0522 CE38     		.uleb128 .LEHB240-.LFB1095
 4179 0524 3A       		.uleb128 .LEHE240-.LEHB240
 4180 0525 9239     		.uleb128 .L318-.LFB1095
 4181 0527 00       		.uleb128 0
 4182 0528 8839     		.uleb128 .LEHB241-.LFB1095
 4183 052a 05       		.uleb128 .LEHE241-.LEHB241
 4184 052b 00       		.uleb128 0
 4185 052c 00       		.uleb128 0
 4186 052d A039     		.uleb128 .LEHB242-.LFB1095
 4187 052f 05       		.uleb128 .LEHE242-.LEHB242
 4188 0530 00       		.uleb128 0
 4189 0531 00       		.uleb128 0
 4190 0532 AF39     		.uleb128 .LEHB243-.LFB1095
 4191 0534 3A       		.uleb128 .LEHE243-.LEHB243
 4192 0535 F339     		.uleb128 .L321-.LFB1095
 4193 0537 00       		.uleb128 0
 4194 0538 E939     		.uleb128 .LEHB244-.LFB1095
 4195 053a 05       		.uleb128 .LEHE244-.LEHB244
 4196 053b 00       		.uleb128 0
 4197 053c 00       		.uleb128 0
 4198 053d 813A     		.uleb128 .LEHB245-.LFB1095
 4199 053f 05       		.uleb128 .LEHE245-.LEHB245
 4200 0540 00       		.uleb128 0
 4201 0541 00       		.uleb128 0
 4202 0542 903A     		.uleb128 .LEHB246-.LFB1095
 4203 0544 3A       		.uleb128 .LEHE246-.LEHB246
 4204 0545 D43A     		.uleb128 .L324-.LFB1095
 4205 0547 00       		.uleb128 0
 4206 0548 CA3A     		.uleb128 .LEHB247-.LFB1095
 4207 054a 05       		.uleb128 .LEHE247-.LEHB247
 4208 054b 00       		.uleb128 0
 4209 054c 00       		.uleb128 0
 4210 054d E23A     		.uleb128 .LEHB248-.LFB1095
 4211 054f 05       		.uleb128 .LEHE248-.LEHB248
 4212 0550 00       		.uleb128 0
 4213 0551 00       		.uleb128 0
 4214 0552 F13A     		.uleb128 .LEHB249-.LFB1095
 4215 0554 3A       		.uleb128 .LEHE249-.LEHB249
 4216 0555 B23B     		.uleb128 .L327-.LFB1095
 4217 0557 00       		.uleb128 0
 4218 0558 AB3B     		.uleb128 .LEHB250-.LFB1095
 4219 055a 05       		.uleb128 .LEHE250-.LEHB250
 4220 055b 00       		.uleb128 0
 4221 055c 00       		.uleb128 0
 4222 055d C03B     		.uleb128 .LEHB251-.LFB1095
 4223 055f 05       		.uleb128 .LEHE251-.LEHB251
 4224 0560 00       		.uleb128 0
 4225 0561 00       		.uleb128 0
 4226              	.LLSDACSE1095:
 4227 0562 01       		.byte	0x1
 4228 0563 00       		.byte	0
 4229 0564 00       		.byte	0
 4230 0565 7D       		.byte	0x7d
 4231 0566 0000     		.align 4
 4232 0568 00000000 		.long	0
 4233              	
 4234              	.LLSDATT1095:
 4235              		.text
 4237              		.section	.rodata
 4238              	.LC21:
 4239 0399 436F6E76 		.string	"Conv_testGetHexByte"
 4239      5F746573 
 4239      74476574 
 4239      48657842 
 4239      79746500 
 4240              		.section	.text._ZN23TestConv_testGetHexByteC2Ev,"axG",@progbits,_ZN23TestConv_testGetHexByteC5Ev,c
 4241              		.align 2
 4242              		.weak	_ZN23TestConv_testGetHexByteC2Ev
 4244              	_ZN23TestConv_testGetHexByteC2Ev:
 4245              	.LFB1097:
  92:testConv.cpp  **** 
  93:testConv.cpp  **** TEST(Conv_testGetHexByte) {
 4246              		.loc 3 93 0
 4247              		.cfi_startproc
 4248 0000 55       		pushq	%rbp
 4249              		.cfi_def_cfa_offset 16
 4250              		.cfi_offset 6, -16
 4251 0001 4889E5   		movq	%rsp, %rbp
 4252              		.cfi_def_cfa_register 6
 4253 0004 53       		pushq	%rbx
 4254 0005 4883EC18 		subq	$24, %rsp
 4255              		.cfi_offset 3, -24
 4256 0009 48897DE8 		movq	%rdi, -24(%rbp)
 4257              	.LBB5:
 4258              		.loc 3 93 0
 4259 000d 488B5DE8 		movq	-24(%rbp), %rbx
 4260 0011 E8000000 		call	_ZN13UnitTestSuite12GetSuiteNameEv
 4260      00
 4261 0016 41B85D00 		movl	$93, %r8d
 4261      0000
 4262 001c 488D0D00 		leaq	.LC1(%rip), %rcx
 4262      000000
 4263 0023 4889C2   		movq	%rax, %rdx
 4264 0026 488D3500 		leaq	.LC21(%rip), %rsi
 4264      000000
 4265 002d 4889DF   		movq	%rbx, %rdi
 4266 0030 E8000000 		call	_ZN8UnitTest4TestC2EPKcS2_S2_i@PLT
 4266      00
 4267 0035 488D1500 		leaq	16+_ZTV23TestConv_testGetHexByte(%rip), %rdx
 4267      000000
 4268 003c 488B45E8 		movq	-24(%rbp), %rax
 4269 0040 488910   		movq	%rdx, (%rax)
 4270              	.LBE5:
 4271 0043 90       		nop
 4272 0044 4883C418 		addq	$24, %rsp
 4273 0048 5B       		popq	%rbx
 4274 0049 5D       		popq	%rbp
 4275              		.cfi_def_cfa 7, 8
 4276 004a C3       		ret
 4277              		.cfi_endproc
 4278              	.LFE1097:
 4280              		.weak	_ZN23TestConv_testGetHexByteC1Ev
 4281              		.set	_ZN23TestConv_testGetHexByteC1Ev,_ZN23TestConv_testGetHexByteC2Ev
 4282              		.globl	testConv_testGetHexByteInstance
 4283              		.bss
 4284 0039 00000000 		.align 32
 4284      000000
 4287              	testConv_testGetHexByteInstance:
 4288 0040 00000000 		.zero	56
 4288      00000000 
 4288      00000000 
 4288      00000000 
 4288      00000000 
 4289              		.globl	adderConv_testGetHexByte
 4292              	adderConv_testGetHexByte:
 4293 0078 00       		.zero	1
 4294              		.section	.rodata
 4295              	.LC22:
 4296 03ad 303000   		.string	"00"
 4297              	.LC23:
 4298 03b0 413500   		.string	"A5"
 4299              	.LC24:
 4300 03b3 464600   		.string	"FF"
 4301              	.LC25:
 4302 03b6 474600   		.string	"GF"
 4303              	.LC26:
 4304 03b9 464700   		.string	"FG"
 4305 03bc 00000000 		.align 8
 4306              	.LC27:
 4307 03c0 556E6861 		.string	"Unhandled exception in CHECK_EQUAL(0x00, byte)"
 4307      6E646C65 
 4307      64206578 
 4307      63657074 
 4307      696F6E20 
 4308 03ef 00       		.align 8
 4309              	.LC28:
 4310 03f0 556E6861 		.string	"Unhandled exception in CHECK_EQUAL(0xA5, byte)"
 4310      6E646C65 
 4310      64206578 
 4310      63657074 
 4310      696F6E20 
 4311 041f 00       		.align 8
 4312              	.LC29:
 4313 0420 556E6861 		.string	"Unhandled exception in CHECK_EQUAL(0xFF, byte)"
 4313      6E646C65 
 4313      64206578 
 4313      63657074 
 4313      696F6E20 
 4314              		.text
 4315              		.align 2
 4316              		.globl	_ZNK23TestConv_testGetHexByte7RunImplEv
 4318              	_ZNK23TestConv_testGetHexByte7RunImplEv:
 4319              	.LFB1099:
 4320              		.loc 3 93 0
 4321              		.cfi_startproc
 4322              		.cfi_personality 0x9b,DW.ref.__gxx_personality_v0
 4323              		.cfi_lsda 0x1b,.LLSDA1099
 4324 1de0 55       		pushq	%rbp
 4325              		.cfi_def_cfa_offset 16
 4326              		.cfi_offset 6, -16
 4327 1de1 4889E5   		movq	%rsp, %rbp
 4328              		.cfi_def_cfa_register 6
 4329 1de4 53       		pushq	%rbx
 4330 1de5 4883EC58 		subq	$88, %rsp
 4331              		.cfi_offset 3, -24
 4332 1de9 48897DA8 		movq	%rdi, -88(%rbp)
 4333              		.loc 3 93 0
 4334 1ded 64488B04 		movq	%fs:40, %rax
 4334      25280000 
 4334      00
 4335 1df6 488945E8 		movq	%rax, -24(%rbp)
 4336 1dfa 31C0     		xorl	%eax, %eax
  94:testConv.cpp  **** 	uint8 byte;
  95:testConv.cpp  **** 	bool status;
  96:testConv.cpp  **** 	status = getHexByte("00", &byte);
 4337              		.loc 3 96 0
 4338 1dfc 488D45BA 		leaq	-70(%rbp), %rax
 4339 1e00 4889C6   		movq	%rax, %rsi
 4340 1e03 488D3D00 		leaq	.LC22(%rip), %rdi
 4340      000000
 4341              	.LEHB252:
 4342 1e0a E8000000 		call	getHexByte@PLT
 4342      00
 4343              	.LEHE252:
 4344 1e0f 8845BB   		movb	%al, -69(%rbp)
 4345              	.LEHB253:
  97:testConv.cpp  **** 	CHECK_EQUAL(false, status);
 4346              		.loc 3 97 0
 4347 1e12 E8000000 		call	_ZN8UnitTest11CurrentTest7DetailsEv@PLT
 4347      00
 4348 1e17 488B08   		movq	(%rax), %rcx
 4349 1e1a 488D45C0 		leaq	-64(%rbp), %rax
 4350 1e1e BA610000 		movl	$97, %edx
 4350      00
 4351 1e23 4889CE   		movq	%rcx, %rsi
 4352 1e26 4889C7   		movq	%rax, %rdi
 4353 1e29 E8000000 		call	_ZN8UnitTest11TestDetailsC1ERKS0_i@PLT
 4353      00
 4354              	.LEHE253:
 4355              		.loc 3 97 0 is_stmt 0 discriminator 2
 4356 1e2e C645BC00 		movb	$0, -68(%rbp)
 4357              	.LEHB254:
 4358 1e32 E8000000 		call	_ZN8UnitTest11CurrentTest7ResultsEv@PLT
 4358      00
 4359 1e37 488B00   		movq	(%rax), %rax
 4360 1e3a 488D4DC0 		leaq	-64(%rbp), %rcx
 4361 1e3e 488D55BB 		leaq	-69(%rbp), %rdx
 4362 1e42 488D75BC 		leaq	-68(%rbp), %rsi
 4363 1e46 4889C7   		movq	%rax, %rdi
 4364 1e49 E8000000 		call	_ZN8UnitTest10CheckEqualIbbEEvRNS_11TestResultsERKT_RKT0_RKNS_11TestDetailsE
 4364      00
 4365              	.LEHE254:
 4366              	.L332:
 4367              	.LEHB255:
  98:testConv.cpp  **** 	CHECK_EQUAL(0x00, byte);
 4368              		.loc 3 98 0 is_stmt 1
 4369 1e4e E8000000 		call	_ZN8UnitTest11CurrentTest7DetailsEv@PLT
 4369      00
 4370 1e53 488B08   		movq	(%rax), %rcx
 4371 1e56 488D45C0 		leaq	-64(%rbp), %rax
 4372 1e5a BA620000 		movl	$98, %edx
 4372      00
 4373 1e5f 4889CE   		movq	%rcx, %rsi
 4374 1e62 4889C7   		movq	%rax, %rdi
 4375 1e65 E8000000 		call	_ZN8UnitTest11TestDetailsC1ERKS0_i@PLT
 4375      00
 4376              	.LEHE255:
 4377              		.loc 3 98 0 is_stmt 0 discriminator 2
 4378 1e6a C745BC00 		movl	$0, -68(%rbp)
 4378      000000
 4379              	.LEHB256:
 4380 1e71 E8000000 		call	_ZN8UnitTest11CurrentTest7ResultsEv@PLT
 4380      00
 4381 1e76 488B00   		movq	(%rax), %rax
 4382 1e79 488D4DC0 		leaq	-64(%rbp), %rcx
 4383 1e7d 488D55BA 		leaq	-70(%rbp), %rdx
 4384 1e81 488D75BC 		leaq	-68(%rbp), %rsi
 4385 1e85 4889C7   		movq	%rax, %rdi
 4386 1e88 E8000000 		call	_ZN8UnitTest10CheckEqualIihEEvRNS_11TestResultsERKT_RKT0_RKNS_11TestDetailsE
 4386      00
 4387              	.LEHE256:
 4388              	.L336:
  99:testConv.cpp  **** 	status = getHexByte("A5", &byte);
 4389              		.loc 3 99 0 is_stmt 1
 4390 1e8d 488D45BA 		leaq	-70(%rbp), %rax
 4391 1e91 4889C6   		movq	%rax, %rsi
 4392 1e94 488D3D00 		leaq	.LC23(%rip), %rdi
 4392      000000
 4393              	.LEHB257:
 4394 1e9b E8000000 		call	getHexByte@PLT
 4394      00
 4395              	.LEHE257:
 4396 1ea0 8845BB   		movb	%al, -69(%rbp)
 4397              	.LEHB258:
 100:testConv.cpp  **** 	CHECK_EQUAL(false, status);
 4398              		.loc 3 100 0
 4399 1ea3 E8000000 		call	_ZN8UnitTest11CurrentTest7DetailsEv@PLT
 4399      00
 4400 1ea8 488B08   		movq	(%rax), %rcx
 4401 1eab 488D45C0 		leaq	-64(%rbp), %rax
 4402 1eaf BA640000 		movl	$100, %edx
 4402      00
 4403 1eb4 4889CE   		movq	%rcx, %rsi
 4404 1eb7 4889C7   		movq	%rax, %rdi
 4405 1eba E8000000 		call	_ZN8UnitTest11TestDetailsC1ERKS0_i@PLT
 4405      00
 4406              	.LEHE258:
 4407              		.loc 3 100 0 is_stmt 0 discriminator 2
 4408 1ebf C645BC00 		movb	$0, -68(%rbp)
 4409              	.LEHB259:
 4410 1ec3 E8000000 		call	_ZN8UnitTest11CurrentTest7ResultsEv@PLT
 4410      00
 4411 1ec8 488B00   		movq	(%rax), %rax
 4412 1ecb 488D4DC0 		leaq	-64(%rbp), %rcx
 4413 1ecf 488D55BB 		leaq	-69(%rbp), %rdx
 4414 1ed3 488D75BC 		leaq	-68(%rbp), %rsi
 4415 1ed7 4889C7   		movq	%rax, %rdi
 4416 1eda E8000000 		call	_ZN8UnitTest10CheckEqualIbbEEvRNS_11TestResultsERKT_RKT0_RKNS_11TestDetailsE
 4416      00
 4417              	.LEHE259:
 4418              	.L340:
 4419              	.LEHB260:
 101:testConv.cpp  **** 	CHECK_EQUAL(0xA5, byte);
 4420              		.loc 3 101 0 is_stmt 1
 4421 1edf E8000000 		call	_ZN8UnitTest11CurrentTest7DetailsEv@PLT
 4421      00
 4422 1ee4 488B08   		movq	(%rax), %rcx
 4423 1ee7 488D45C0 		leaq	-64(%rbp), %rax
 4424 1eeb BA650000 		movl	$101, %edx
 4424      00
 4425 1ef0 4889CE   		movq	%rcx, %rsi
 4426 1ef3 4889C7   		movq	%rax, %rdi
 4427 1ef6 E8000000 		call	_ZN8UnitTest11TestDetailsC1ERKS0_i@PLT
 4427      00
 4428              	.LEHE260:
 4429              		.loc 3 101 0 is_stmt 0 discriminator 2
 4430 1efb C745BCA5 		movl	$165, -68(%rbp)
 4430      000000
 4431              	.LEHB261:
 4432 1f02 E8000000 		call	_ZN8UnitTest11CurrentTest7ResultsEv@PLT
 4432      00
 4433 1f07 488B00   		movq	(%rax), %rax
 4434 1f0a 488D4DC0 		leaq	-64(%rbp), %rcx
 4435 1f0e 488D55BA 		leaq	-70(%rbp), %rdx
 4436 1f12 488D75BC 		leaq	-68(%rbp), %rsi
 4437 1f16 4889C7   		movq	%rax, %rdi
 4438 1f19 E8000000 		call	_ZN8UnitTest10CheckEqualIihEEvRNS_11TestResultsERKT_RKT0_RKNS_11TestDetailsE
 4438      00
 4439              	.LEHE261:
 4440              	.L344:
 102:testConv.cpp  **** 	status = getHexByte("FF", &byte);
 4441              		.loc 3 102 0 is_stmt 1
 4442 1f1e 488D45BA 		leaq	-70(%rbp), %rax
 4443 1f22 4889C6   		movq	%rax, %rsi
 4444 1f25 488D3D00 		leaq	.LC24(%rip), %rdi
 4444      000000
 4445              	.LEHB262:
 4446 1f2c E8000000 		call	getHexByte@PLT
 4446      00
 4447              	.LEHE262:
 4448 1f31 8845BB   		movb	%al, -69(%rbp)
 4449              	.LEHB263:
 103:testConv.cpp  **** 	CHECK_EQUAL(false, status);
 4450              		.loc 3 103 0
 4451 1f34 E8000000 		call	_ZN8UnitTest11CurrentTest7DetailsEv@PLT
 4451      00
 4452 1f39 488B08   		movq	(%rax), %rcx
 4453 1f3c 488D45C0 		leaq	-64(%rbp), %rax
 4454 1f40 BA670000 		movl	$103, %edx
 4454      00
 4455 1f45 4889CE   		movq	%rcx, %rsi
 4456 1f48 4889C7   		movq	%rax, %rdi
 4457 1f4b E8000000 		call	_ZN8UnitTest11TestDetailsC1ERKS0_i@PLT
 4457      00
 4458              	.LEHE263:
 4459              		.loc 3 103 0 is_stmt 0 discriminator 2
 4460 1f50 C645BC00 		movb	$0, -68(%rbp)
 4461              	.LEHB264:
 4462 1f54 E8000000 		call	_ZN8UnitTest11CurrentTest7ResultsEv@PLT
 4462      00
 4463 1f59 488B00   		movq	(%rax), %rax
 4464 1f5c 488D4DC0 		leaq	-64(%rbp), %rcx
 4465 1f60 488D55BB 		leaq	-69(%rbp), %rdx
 4466 1f64 488D75BC 		leaq	-68(%rbp), %rsi
 4467 1f68 4889C7   		movq	%rax, %rdi
 4468 1f6b E8000000 		call	_ZN8UnitTest10CheckEqualIbbEEvRNS_11TestResultsERKT_RKT0_RKNS_11TestDetailsE
 4468      00
 4469              	.LEHE264:
 4470              	.L348:
 4471              	.LEHB265:
 104:testConv.cpp  **** 	CHECK_EQUAL(0xFF, byte);
 4472              		.loc 3 104 0 is_stmt 1
 4473 1f70 E8000000 		call	_ZN8UnitTest11CurrentTest7DetailsEv@PLT
 4473      00
 4474 1f75 488B08   		movq	(%rax), %rcx
 4475 1f78 488D45C0 		leaq	-64(%rbp), %rax
 4476 1f7c BA680000 		movl	$104, %edx
 4476      00
 4477 1f81 4889CE   		movq	%rcx, %rsi
 4478 1f84 4889C7   		movq	%rax, %rdi
 4479 1f87 E8000000 		call	_ZN8UnitTest11TestDetailsC1ERKS0_i@PLT
 4479      00
 4480              	.LEHE265:
 4481              		.loc 3 104 0 is_stmt 0 discriminator 2
 4482 1f8c C745BCFF 		movl	$255, -68(%rbp)
 4482      000000
 4483              	.LEHB266:
 4484 1f93 E8000000 		call	_ZN8UnitTest11CurrentTest7ResultsEv@PLT
 4484      00
 4485 1f98 488B00   		movq	(%rax), %rax
 4486 1f9b 488D4DC0 		leaq	-64(%rbp), %rcx
 4487 1f9f 488D55BA 		leaq	-70(%rbp), %rdx
 4488 1fa3 488D75BC 		leaq	-68(%rbp), %rsi
 4489 1fa7 4889C7   		movq	%rax, %rdi
 4490 1faa E8000000 		call	_ZN8UnitTest10CheckEqualIihEEvRNS_11TestResultsERKT_RKT0_RKNS_11TestDetailsE
 4490      00
 4491              	.LEHE266:
 4492              	.L352:
 105:testConv.cpp  **** 	status = getHexByte("GF", &byte);
 4493              		.loc 3 105 0 is_stmt 1
 4494 1faf 488D45BA 		leaq	-70(%rbp), %rax
 4495 1fb3 4889C6   		movq	%rax, %rsi
 4496 1fb6 488D3D00 		leaq	.LC25(%rip), %rdi
 4496      000000
 4497              	.LEHB267:
 4498 1fbd E8000000 		call	getHexByte@PLT
 4498      00
 4499              	.LEHE267:
 4500 1fc2 8845BB   		movb	%al, -69(%rbp)
 4501              	.LEHB268:
 106:testConv.cpp  **** 	CHECK_EQUAL(true, status);
 4502              		.loc 3 106 0
 4503 1fc5 E8000000 		call	_ZN8UnitTest11CurrentTest7DetailsEv@PLT
 4503      00
 4504 1fca 488B08   		movq	(%rax), %rcx
 4505 1fcd 488D45C0 		leaq	-64(%rbp), %rax
 4506 1fd1 BA6A0000 		movl	$106, %edx
 4506      00
 4507 1fd6 4889CE   		movq	%rcx, %rsi
 4508 1fd9 4889C7   		movq	%rax, %rdi
 4509 1fdc E8000000 		call	_ZN8UnitTest11TestDetailsC1ERKS0_i@PLT
 4509      00
 4510              	.LEHE268:
 4511              		.loc 3 106 0 is_stmt 0 discriminator 2
 4512 1fe1 C645BC01 		movb	$1, -68(%rbp)
 4513              	.LEHB269:
 4514 1fe5 E8000000 		call	_ZN8UnitTest11CurrentTest7ResultsEv@PLT
 4514      00
 4515 1fea 488B00   		movq	(%rax), %rax
 4516 1fed 488D4DC0 		leaq	-64(%rbp), %rcx
 4517 1ff1 488D55BB 		leaq	-69(%rbp), %rdx
 4518 1ff5 488D75BC 		leaq	-68(%rbp), %rsi
 4519 1ff9 4889C7   		movq	%rax, %rdi
 4520 1ffc E8000000 		call	_ZN8UnitTest10CheckEqualIbbEEvRNS_11TestResultsERKT_RKT0_RKNS_11TestDetailsE
 4520      00
 4521              	.LEHE269:
 4522              	.L356:
 107:testConv.cpp  **** 	status = getHexByte("FG", &byte);
 4523              		.loc 3 107 0 is_stmt 1
 4524 2001 488D45BA 		leaq	-70(%rbp), %rax
 4525 2005 4889C6   		movq	%rax, %rsi
 4526 2008 488D3D00 		leaq	.LC26(%rip), %rdi
 4526      000000
 4527              	.LEHB270:
 4528 200f E8000000 		call	getHexByte@PLT
 4528      00
 4529              	.LEHE270:
 4530 2014 8845BB   		movb	%al, -69(%rbp)
 4531              	.LEHB271:
 108:testConv.cpp  **** 	CHECK_EQUAL(true, status);
 4532              		.loc 3 108 0
 4533 2017 E8000000 		call	_ZN8UnitTest11CurrentTest7DetailsEv@PLT
 4533      00
 4534 201c 488B08   		movq	(%rax), %rcx
 4535 201f 488D45C0 		leaq	-64(%rbp), %rax
 4536 2023 BA6C0000 		movl	$108, %edx
 4536      00
 4537 2028 4889CE   		movq	%rcx, %rsi
 4538 202b 4889C7   		movq	%rax, %rdi
 4539 202e E8000000 		call	_ZN8UnitTest11TestDetailsC1ERKS0_i@PLT
 4539      00
 4540              	.LEHE271:
 4541              		.loc 3 108 0 is_stmt 0 discriminator 2
 4542 2033 C645BC01 		movb	$1, -68(%rbp)
 4543              	.LEHB272:
 4544 2037 E8000000 		call	_ZN8UnitTest11CurrentTest7ResultsEv@PLT
 4544      00
 4545 203c 488B00   		movq	(%rax), %rax
 4546 203f 488D4DC0 		leaq	-64(%rbp), %rcx
 4547 2043 488D55BB 		leaq	-69(%rbp), %rdx
 4548 2047 488D75BC 		leaq	-68(%rbp), %rsi
 4549 204b 4889C7   		movq	%rax, %rdi
 4550 204e E8000000 		call	_ZN8UnitTest10CheckEqualIbbEEvRNS_11TestResultsERKT_RKT0_RKNS_11TestDetailsE
 4550      00
 4551              	.LEHE272:
 109:testConv.cpp  **** }
 4552              		.loc 3 109 0 is_stmt 1
 4553 2053 E9050300 		jmp	.L329
 4553      00
 4554              	.L364:
 4555 2058 EB00     		jmp	.L331
 4556              	.L363:
 4557              	.L331:
  97:testConv.cpp  **** 	CHECK_EQUAL(0x00, byte);
 4558              		.loc 3 97 0
 4559 205a 4889C7   		movq	%rax, %rdi
 4560 205d E8000000 		call	__cxa_begin_catch@PLT
 4560      00
 4561              	.LEHB273:
 4562 2062 E8000000 		call	_ZN8UnitTest11CurrentTest7ResultsEv@PLT
 4562      00
 4563 2067 488B18   		movq	(%rax), %rbx
 4564 206a E8000000 		call	_ZN8UnitTest11CurrentTest7DetailsEv@PLT
 4564      00
  97:testConv.cpp  **** 	CHECK_EQUAL(0x00, byte);
 4565              		.loc 3 97 0 is_stmt 0 discriminator 8
 4566 206f 488B08   		movq	(%rax), %rcx
 4567 2072 488D45C0 		leaq	-64(%rbp), %rax
 4568 2076 BA610000 		movl	$97, %edx
 4568      00
 4569 207b 4889CE   		movq	%rcx, %rsi
 4570 207e 4889C7   		movq	%rax, %rdi
 4571 2081 E8000000 		call	_ZN8UnitTest11TestDetailsC1ERKS0_i@PLT
 4571      00
  97:testConv.cpp  **** 	CHECK_EQUAL(0x00, byte);
 4572              		.loc 3 97 0 discriminator 12
 4573 2086 488D45C0 		leaq	-64(%rbp), %rax
 4574 208a 488D1500 		leaq	.LC3(%rip), %rdx
 4574      000000
 4575 2091 4889C6   		movq	%rax, %rsi
 4576 2094 4889DF   		movq	%rbx, %rdi
 4577 2097 E8000000 		call	_ZN8UnitTest11TestResults13OnTestFailureERKNS_11TestDetailsEPKc@PLT
 4577      00
 4578              	.LEHE273:
 4579              	.LEHB274:
  97:testConv.cpp  **** 	CHECK_EQUAL(0x00, byte);
 4580              		.loc 3 97 0 discriminator 14
 4581 209c E8000000 		call	__cxa_end_catch@PLT
 4581      00
 4582              	.LEHE274:
 4583 20a1 E9A8FDFF 		jmp	.L332
 4583      FF
 4584              	.L365:
 4585 20a6 4889C3   		movq	%rax, %rbx
  97:testConv.cpp  **** 	CHECK_EQUAL(0x00, byte);
 4586              		.loc 3 97 0
 4587 20a9 E8000000 		call	__cxa_end_catch@PLT
 4587      00
 4588 20ae 4889D8   		movq	%rbx, %rax
 4589 20b1 4889C7   		movq	%rax, %rdi
 4590              	.LEHB275:
 4591 20b4 E8000000 		call	_Unwind_Resume@PLT
 4591      00
 4592              	.LEHE275:
 4593              	.L367:
 4594 20b9 EB00     		jmp	.L335
 4595              	.L366:
 4596              	.L335:
  98:testConv.cpp  **** 	status = getHexByte("A5", &byte);
 4597              		.loc 3 98 0 is_stmt 1
 4598 20bb 4889C7   		movq	%rax, %rdi
 4599 20be E8000000 		call	__cxa_begin_catch@PLT
 4599      00
 4600              	.LEHB276:
 4601 20c3 E8000000 		call	_ZN8UnitTest11CurrentTest7ResultsEv@PLT
 4601      00
 4602 20c8 488B18   		movq	(%rax), %rbx
 4603 20cb E8000000 		call	_ZN8UnitTest11CurrentTest7DetailsEv@PLT
 4603      00
  98:testConv.cpp  **** 	status = getHexByte("A5", &byte);
 4604              		.loc 3 98 0 is_stmt 0 discriminator 8
 4605 20d0 488B08   		movq	(%rax), %rcx
 4606 20d3 488D45C0 		leaq	-64(%rbp), %rax
 4607 20d7 BA620000 		movl	$98, %edx
 4607      00
 4608 20dc 4889CE   		movq	%rcx, %rsi
 4609 20df 4889C7   		movq	%rax, %rdi
 4610 20e2 E8000000 		call	_ZN8UnitTest11TestDetailsC1ERKS0_i@PLT
 4610      00
  98:testConv.cpp  **** 	status = getHexByte("A5", &byte);
 4611              		.loc 3 98 0 discriminator 12
 4612 20e7 488D45C0 		leaq	-64(%rbp), %rax
 4613 20eb 488D1500 		leaq	.LC27(%rip), %rdx
 4613      000000
 4614 20f2 4889C6   		movq	%rax, %rsi
 4615 20f5 4889DF   		movq	%rbx, %rdi
 4616 20f8 E8000000 		call	_ZN8UnitTest11TestResults13OnTestFailureERKNS_11TestDetailsEPKc@PLT
 4616      00
 4617              	.LEHE276:
 4618              	.LEHB277:
  98:testConv.cpp  **** 	status = getHexByte("A5", &byte);
 4619              		.loc 3 98 0 discriminator 14
 4620 20fd E8000000 		call	__cxa_end_catch@PLT
 4620      00
 4621              	.LEHE277:
 4622 2102 E986FDFF 		jmp	.L336
 4622      FF
 4623              	.L368:
 4624 2107 4889C3   		movq	%rax, %rbx
  98:testConv.cpp  **** 	status = getHexByte("A5", &byte);
 4625              		.loc 3 98 0
 4626 210a E8000000 		call	__cxa_end_catch@PLT
 4626      00
 4627 210f 4889D8   		movq	%rbx, %rax
 4628 2112 4889C7   		movq	%rax, %rdi
 4629              	.LEHB278:
 4630 2115 E8000000 		call	_Unwind_Resume@PLT
 4630      00
 4631              	.LEHE278:
 4632              	.L370:
 4633 211a EB00     		jmp	.L339
 4634              	.L369:
 4635              	.L339:
 100:testConv.cpp  **** 	CHECK_EQUAL(0xA5, byte);
 4636              		.loc 3 100 0 is_stmt 1
 4637 211c 4889C7   		movq	%rax, %rdi
 4638 211f E8000000 		call	__cxa_begin_catch@PLT
 4638      00
 4639              	.LEHB279:
 4640 2124 E8000000 		call	_ZN8UnitTest11CurrentTest7ResultsEv@PLT
 4640      00
 4641 2129 488B18   		movq	(%rax), %rbx
 4642 212c E8000000 		call	_ZN8UnitTest11CurrentTest7DetailsEv@PLT
 4642      00
 100:testConv.cpp  **** 	CHECK_EQUAL(0xA5, byte);
 4643              		.loc 3 100 0 is_stmt 0 discriminator 8
 4644 2131 488B08   		movq	(%rax), %rcx
 4645 2134 488D45C0 		leaq	-64(%rbp), %rax
 4646 2138 BA640000 		movl	$100, %edx
 4646      00
 4647 213d 4889CE   		movq	%rcx, %rsi
 4648 2140 4889C7   		movq	%rax, %rdi
 4649 2143 E8000000 		call	_ZN8UnitTest11TestDetailsC1ERKS0_i@PLT
 4649      00
 100:testConv.cpp  **** 	CHECK_EQUAL(0xA5, byte);
 4650              		.loc 3 100 0 discriminator 12
 4651 2148 488D45C0 		leaq	-64(%rbp), %rax
 4652 214c 488D1500 		leaq	.LC3(%rip), %rdx
 4652      000000
 4653 2153 4889C6   		movq	%rax, %rsi
 4654 2156 4889DF   		movq	%rbx, %rdi
 4655 2159 E8000000 		call	_ZN8UnitTest11TestResults13OnTestFailureERKNS_11TestDetailsEPKc@PLT
 4655      00
 4656              	.LEHE279:
 4657              	.LEHB280:
 100:testConv.cpp  **** 	CHECK_EQUAL(0xA5, byte);
 4658              		.loc 3 100 0 discriminator 14
 4659 215e E8000000 		call	__cxa_end_catch@PLT
 4659      00
 4660              	.LEHE280:
 4661 2163 E977FDFF 		jmp	.L340
 4661      FF
 4662              	.L371:
 4663 2168 4889C3   		movq	%rax, %rbx
 100:testConv.cpp  **** 	CHECK_EQUAL(0xA5, byte);
 4664              		.loc 3 100 0
 4665 216b E8000000 		call	__cxa_end_catch@PLT
 4665      00
 4666 2170 4889D8   		movq	%rbx, %rax
 4667 2173 4889C7   		movq	%rax, %rdi
 4668              	.LEHB281:
 4669 2176 E8000000 		call	_Unwind_Resume@PLT
 4669      00
 4670              	.LEHE281:
 4671              	.L373:
 4672 217b EB00     		jmp	.L343
 4673              	.L372:
 4674              	.L343:
 101:testConv.cpp  **** 	status = getHexByte("FF", &byte);
 4675              		.loc 3 101 0 is_stmt 1
 4676 217d 4889C7   		movq	%rax, %rdi
 4677 2180 E8000000 		call	__cxa_begin_catch@PLT
 4677      00
 4678              	.LEHB282:
 4679 2185 E8000000 		call	_ZN8UnitTest11CurrentTest7ResultsEv@PLT
 4679      00
 4680 218a 488B18   		movq	(%rax), %rbx
 4681 218d E8000000 		call	_ZN8UnitTest11CurrentTest7DetailsEv@PLT
 4681      00
 101:testConv.cpp  **** 	status = getHexByte("FF", &byte);
 4682              		.loc 3 101 0 is_stmt 0 discriminator 8
 4683 2192 488B08   		movq	(%rax), %rcx
 4684 2195 488D45C0 		leaq	-64(%rbp), %rax
 4685 2199 BA650000 		movl	$101, %edx
 4685      00
 4686 219e 4889CE   		movq	%rcx, %rsi
 4687 21a1 4889C7   		movq	%rax, %rdi
 4688 21a4 E8000000 		call	_ZN8UnitTest11TestDetailsC1ERKS0_i@PLT
 4688      00
 101:testConv.cpp  **** 	status = getHexByte("FF", &byte);
 4689              		.loc 3 101 0 discriminator 12
 4690 21a9 488D45C0 		leaq	-64(%rbp), %rax
 4691 21ad 488D1500 		leaq	.LC28(%rip), %rdx
 4691      000000
 4692 21b4 4889C6   		movq	%rax, %rsi
 4693 21b7 4889DF   		movq	%rbx, %rdi
 4694 21ba E8000000 		call	_ZN8UnitTest11TestResults13OnTestFailureERKNS_11TestDetailsEPKc@PLT
 4694      00
 4695              	.LEHE282:
 4696              	.LEHB283:
 101:testConv.cpp  **** 	status = getHexByte("FF", &byte);
 4697              		.loc 3 101 0 discriminator 14
 4698 21bf E8000000 		call	__cxa_end_catch@PLT
 4698      00
 4699              	.LEHE283:
 4700 21c4 E955FDFF 		jmp	.L344
 4700      FF
 4701              	.L374:
 4702 21c9 4889C3   		movq	%rax, %rbx
 101:testConv.cpp  **** 	status = getHexByte("FF", &byte);
 4703              		.loc 3 101 0
 4704 21cc E8000000 		call	__cxa_end_catch@PLT
 4704      00
 4705 21d1 4889D8   		movq	%rbx, %rax
 4706 21d4 4889C7   		movq	%rax, %rdi
 4707              	.LEHB284:
 4708 21d7 E8000000 		call	_Unwind_Resume@PLT
 4708      00
 4709              	.LEHE284:
 4710              	.L376:
 4711 21dc EB00     		jmp	.L347
 4712              	.L375:
 4713              	.L347:
 103:testConv.cpp  **** 	CHECK_EQUAL(0xFF, byte);
 4714              		.loc 3 103 0 is_stmt 1
 4715 21de 4889C7   		movq	%rax, %rdi
 4716 21e1 E8000000 		call	__cxa_begin_catch@PLT
 4716      00
 4717              	.LEHB285:
 4718 21e6 E8000000 		call	_ZN8UnitTest11CurrentTest7ResultsEv@PLT
 4718      00
 4719 21eb 488B18   		movq	(%rax), %rbx
 4720 21ee E8000000 		call	_ZN8UnitTest11CurrentTest7DetailsEv@PLT
 4720      00
 103:testConv.cpp  **** 	CHECK_EQUAL(0xFF, byte);
 4721              		.loc 3 103 0 is_stmt 0 discriminator 8
 4722 21f3 488B08   		movq	(%rax), %rcx
 4723 21f6 488D45C0 		leaq	-64(%rbp), %rax
 4724 21fa BA670000 		movl	$103, %edx
 4724      00
 4725 21ff 4889CE   		movq	%rcx, %rsi
 4726 2202 4889C7   		movq	%rax, %rdi
 4727 2205 E8000000 		call	_ZN8UnitTest11TestDetailsC1ERKS0_i@PLT
 4727      00
 103:testConv.cpp  **** 	CHECK_EQUAL(0xFF, byte);
 4728              		.loc 3 103 0 discriminator 12
 4729 220a 488D45C0 		leaq	-64(%rbp), %rax
 4730 220e 488D1500 		leaq	.LC3(%rip), %rdx
 4730      000000
 4731 2215 4889C6   		movq	%rax, %rsi
 4732 2218 4889DF   		movq	%rbx, %rdi
 4733 221b E8000000 		call	_ZN8UnitTest11TestResults13OnTestFailureERKNS_11TestDetailsEPKc@PLT
 4733      00
 4734              	.LEHE285:
 4735              	.LEHB286:
 103:testConv.cpp  **** 	CHECK_EQUAL(0xFF, byte);
 4736              		.loc 3 103 0 discriminator 14
 4737 2220 E8000000 		call	__cxa_end_catch@PLT
 4737      00
 4738              	.LEHE286:
 4739 2225 E946FDFF 		jmp	.L348
 4739      FF
 4740              	.L377:
 4741 222a 4889C3   		movq	%rax, %rbx
 103:testConv.cpp  **** 	CHECK_EQUAL(0xFF, byte);
 4742              		.loc 3 103 0
 4743 222d E8000000 		call	__cxa_end_catch@PLT
 4743      00
 4744 2232 4889D8   		movq	%rbx, %rax
 4745 2235 4889C7   		movq	%rax, %rdi
 4746              	.LEHB287:
 4747 2238 E8000000 		call	_Unwind_Resume@PLT
 4747      00
 4748              	.LEHE287:
 4749              	.L379:
 4750 223d EB00     		jmp	.L351
 4751              	.L378:
 4752              	.L351:
 104:testConv.cpp  **** 	status = getHexByte("GF", &byte);
 4753              		.loc 3 104 0 is_stmt 1
 4754 223f 4889C7   		movq	%rax, %rdi
 4755 2242 E8000000 		call	__cxa_begin_catch@PLT
 4755      00
 4756              	.LEHB288:
 4757 2247 E8000000 		call	_ZN8UnitTest11CurrentTest7ResultsEv@PLT
 4757      00
 4758 224c 488B18   		movq	(%rax), %rbx
 4759 224f E8000000 		call	_ZN8UnitTest11CurrentTest7DetailsEv@PLT
 4759      00
 104:testConv.cpp  **** 	status = getHexByte("GF", &byte);
 4760              		.loc 3 104 0 is_stmt 0 discriminator 8
 4761 2254 488B08   		movq	(%rax), %rcx
 4762 2257 488D45C0 		leaq	-64(%rbp), %rax
 4763 225b BA680000 		movl	$104, %edx
 4763      00
 4764 2260 4889CE   		movq	%rcx, %rsi
 4765 2263 4889C7   		movq	%rax, %rdi
 4766 2266 E8000000 		call	_ZN8UnitTest11TestDetailsC1ERKS0_i@PLT
 4766      00
 104:testConv.cpp  **** 	status = getHexByte("GF", &byte);
 4767              		.loc 3 104 0 discriminator 12
 4768 226b 488D45C0 		leaq	-64(%rbp), %rax
 4769 226f 488D1500 		leaq	.LC29(%rip), %rdx
 4769      000000
 4770 2276 4889C6   		movq	%rax, %rsi
 4771 2279 4889DF   		movq	%rbx, %rdi
 4772 227c E8000000 		call	_ZN8UnitTest11TestResults13OnTestFailureERKNS_11TestDetailsEPKc@PLT
 4772      00
 4773              	.LEHE288:
 4774              	.LEHB289:
 104:testConv.cpp  **** 	status = getHexByte("GF", &byte);
 4775              		.loc 3 104 0 discriminator 14
 4776 2281 E8000000 		call	__cxa_end_catch@PLT
 4776      00
 4777              	.LEHE289:
 4778 2286 E924FDFF 		jmp	.L352
 4778      FF
 4779              	.L380:
 4780 228b 4889C3   		movq	%rax, %rbx
 104:testConv.cpp  **** 	status = getHexByte("GF", &byte);
 4781              		.loc 3 104 0
 4782 228e E8000000 		call	__cxa_end_catch@PLT
 4782      00
 4783 2293 4889D8   		movq	%rbx, %rax
 4784 2296 4889C7   		movq	%rax, %rdi
 4785              	.LEHB290:
 4786 2299 E8000000 		call	_Unwind_Resume@PLT
 4786      00
 4787              	.LEHE290:
 4788              	.L382:
 4789 229e EB00     		jmp	.L355
 4790              	.L381:
 4791              	.L355:
 106:testConv.cpp  **** 	status = getHexByte("FG", &byte);
 4792              		.loc 3 106 0 is_stmt 1
 4793 22a0 4889C7   		movq	%rax, %rdi
 4794 22a3 E8000000 		call	__cxa_begin_catch@PLT
 4794      00
 4795              	.LEHB291:
 4796 22a8 E8000000 		call	_ZN8UnitTest11CurrentTest7ResultsEv@PLT
 4796      00
 4797 22ad 488B18   		movq	(%rax), %rbx
 4798 22b0 E8000000 		call	_ZN8UnitTest11CurrentTest7DetailsEv@PLT
 4798      00
 106:testConv.cpp  **** 	status = getHexByte("FG", &byte);
 4799              		.loc 3 106 0 is_stmt 0 discriminator 8
 4800 22b5 488B08   		movq	(%rax), %rcx
 4801 22b8 488D45C0 		leaq	-64(%rbp), %rax
 4802 22bc BA6A0000 		movl	$106, %edx
 4802      00
 4803 22c1 4889CE   		movq	%rcx, %rsi
 4804 22c4 4889C7   		movq	%rax, %rdi
 4805 22c7 E8000000 		call	_ZN8UnitTest11TestDetailsC1ERKS0_i@PLT
 4805      00
 106:testConv.cpp  **** 	status = getHexByte("FG", &byte);
 4806              		.loc 3 106 0 discriminator 12
 4807 22cc 488D45C0 		leaq	-64(%rbp), %rax
 4808 22d0 488D1500 		leaq	.LC20(%rip), %rdx
 4808      000000
 4809 22d7 4889C6   		movq	%rax, %rsi
 4810 22da 4889DF   		movq	%rbx, %rdi
 4811 22dd E8000000 		call	_ZN8UnitTest11TestResults13OnTestFailureERKNS_11TestDetailsEPKc@PLT
 4811      00
 4812              	.LEHE291:
 4813              	.LEHB292:
 106:testConv.cpp  **** 	status = getHexByte("FG", &byte);
 4814              		.loc 3 106 0 discriminator 14
 4815 22e2 E8000000 		call	__cxa_end_catch@PLT
 4815      00
 4816              	.LEHE292:
 4817 22e7 E915FDFF 		jmp	.L356
 4817      FF
 4818              	.L383:
 4819 22ec 4889C3   		movq	%rax, %rbx
 106:testConv.cpp  **** 	status = getHexByte("FG", &byte);
 4820              		.loc 3 106 0
 4821 22ef E8000000 		call	__cxa_end_catch@PLT
 4821      00
 4822 22f4 4889D8   		movq	%rbx, %rax
 4823 22f7 4889C7   		movq	%rax, %rdi
 4824              	.LEHB293:
 4825 22fa E8000000 		call	_Unwind_Resume@PLT
 4825      00
 4826              	.LEHE293:
 4827              	.L385:
 4828 22ff EB00     		jmp	.L359
 4829              	.L384:
 4830              	.L359:
 108:testConv.cpp  **** }
 4831              		.loc 3 108 0 is_stmt 1
 4832 2301 4889C7   		movq	%rax, %rdi
 4833 2304 E8000000 		call	__cxa_begin_catch@PLT
 4833      00
 4834              	.LEHB294:
 4835 2309 E8000000 		call	_ZN8UnitTest11CurrentTest7ResultsEv@PLT
 4835      00
 4836 230e 488B18   		movq	(%rax), %rbx
 4837 2311 E8000000 		call	_ZN8UnitTest11CurrentTest7DetailsEv@PLT
 4837      00
 108:testConv.cpp  **** }
 4838              		.loc 3 108 0 is_stmt 0 discriminator 8
 4839 2316 488B08   		movq	(%rax), %rcx
 4840 2319 488D45C0 		leaq	-64(%rbp), %rax
 4841 231d BA6C0000 		movl	$108, %edx
 4841      00
 4842 2322 4889CE   		movq	%rcx, %rsi
 4843 2325 4889C7   		movq	%rax, %rdi
 4844 2328 E8000000 		call	_ZN8UnitTest11TestDetailsC1ERKS0_i@PLT
 4844      00
 108:testConv.cpp  **** }
 4845              		.loc 3 108 0 discriminator 12
 4846 232d 488D45C0 		leaq	-64(%rbp), %rax
 4847 2331 488D1500 		leaq	.LC20(%rip), %rdx
 4847      000000
 4848 2338 4889C6   		movq	%rax, %rsi
 4849 233b 4889DF   		movq	%rbx, %rdi
 4850 233e E8000000 		call	_ZN8UnitTest11TestResults13OnTestFailureERKNS_11TestDetailsEPKc@PLT
 4850      00
 4851              	.LEHE294:
 4852              	.LEHB295:
 108:testConv.cpp  **** }
 4853              		.loc 3 108 0 discriminator 14
 4854 2343 E8000000 		call	__cxa_end_catch@PLT
 4854      00
 4855              	.LEHE295:
 4856              		.loc 3 109 0 is_stmt 1 discriminator 14
 4857 2348 EB13     		jmp	.L329
 4858              	.L386:
 4859 234a 4889C3   		movq	%rax, %rbx
 108:testConv.cpp  **** }
 4860              		.loc 3 108 0
 4861 234d E8000000 		call	__cxa_end_catch@PLT
 4861      00
 4862 2352 4889D8   		movq	%rbx, %rax
 4863 2355 4889C7   		movq	%rax, %rdi
 4864              	.LEHB296:
 4865 2358 E8000000 		call	_Unwind_Resume@PLT
 4865      00
 4866              	.LEHE296:
 4867              	.L329:
 4868              		.loc 3 109 0
 4869 235d 488B45E8 		movq	-24(%rbp), %rax
 4870 2361 64483304 		xorq	%fs:40, %rax
 4870      25280000 
 4870      00
 4871 236a 7405     		je	.L362
 4872 236c E8000000 		call	__stack_chk_fail@PLT
 4872      00
 4873              	.L362:
 4874 2371 4883C458 		addq	$88, %rsp
 4875 2375 5B       		popq	%rbx
 4876 2376 5D       		popq	%rbp
 4877              		.cfi_def_cfa 7, 8
 4878 2377 C3       		ret
 4879              		.cfi_endproc
 4880              	.LFE1099:
 4881              		.section	.gcc_except_table
 4882              		.align 4
 4883              	.LLSDA1099:
 4884 056c FF       		.byte	0xff
 4885 056d 9B       		.byte	0x9b
 4886 056e 8002     		.uleb128 .LLSDATT1099-.LLSDATTD1099
 4887              	.LLSDATTD1099:
 4888 0570 01       		.byte	0x1
 4889 0571 F501     		.uleb128 .LLSDACSE1099-.LLSDACSB1099
 4890              	.LLSDACSB1099:
 4891 0573 2A       		.uleb128 .LEHB252-.LFB1099
 4892 0574 05       		.uleb128 .LEHE252-.LEHB252
 4893 0575 00       		.uleb128 0
 4894 0576 00       		.uleb128 0
 4895 0577 32       		.uleb128 .LEHB253-.LFB1099
 4896 0578 1C       		.uleb128 .LEHE253-.LEHB253
 4897 0579 FA04     		.uleb128 .L363-.LFB1099
 4898 057b 01       		.uleb128 0x1
 4899 057c 52       		.uleb128 .LEHB254-.LFB1099
 4900 057d 1C       		.uleb128 .LEHE254-.LEHB254
 4901 057e F804     		.uleb128 .L364-.LFB1099
 4902 0580 03       		.uleb128 0x3
 4903 0581 6E       		.uleb128 .LEHB255-.LFB1099
 4904 0582 1C       		.uleb128 .LEHE255-.LEHB255
 4905 0583 DB05     		.uleb128 .L366-.LFB1099
 4906 0585 01       		.uleb128 0x1
 4907 0586 9101     		.uleb128 .LEHB256-.LFB1099
 4908 0588 1C       		.uleb128 .LEHE256-.LEHB256
 4909 0589 D905     		.uleb128 .L367-.LFB1099
 4910 058b 03       		.uleb128 0x3
 4911 058c BB01     		.uleb128 .LEHB257-.LFB1099
 4912 058e 05       		.uleb128 .LEHE257-.LEHB257
 4913 058f 00       		.uleb128 0
 4914 0590 00       		.uleb128 0
 4915 0591 C301     		.uleb128 .LEHB258-.LFB1099
 4916 0593 1C       		.uleb128 .LEHE258-.LEHB258
 4917 0594 BC06     		.uleb128 .L369-.LFB1099
 4918 0596 01       		.uleb128 0x1
 4919 0597 E301     		.uleb128 .LEHB259-.LFB1099
 4920 0599 1C       		.uleb128 .LEHE259-.LEHB259
 4921 059a BA06     		.uleb128 .L370-.LFB1099
 4922 059c 03       		.uleb128 0x3
 4923 059d FF01     		.uleb128 .LEHB260-.LFB1099
 4924 059f 1C       		.uleb128 .LEHE260-.LEHB260
 4925 05a0 9D07     		.uleb128 .L372-.LFB1099
 4926 05a2 01       		.uleb128 0x1
 4927 05a3 A202     		.uleb128 .LEHB261-.LFB1099
 4928 05a5 1C       		.uleb128 .LEHE261-.LEHB261
 4929 05a6 9B07     		.uleb128 .L373-.LFB1099
 4930 05a8 03       		.uleb128 0x3
 4931 05a9 CC02     		.uleb128 .LEHB262-.LFB1099
 4932 05ab 05       		.uleb128 .LEHE262-.LEHB262
 4933 05ac 00       		.uleb128 0
 4934 05ad 00       		.uleb128 0
 4935 05ae D402     		.uleb128 .LEHB263-.LFB1099
 4936 05b0 1C       		.uleb128 .LEHE263-.LEHB263
 4937 05b1 FE07     		.uleb128 .L375-.LFB1099
 4938 05b3 01       		.uleb128 0x1
 4939 05b4 F402     		.uleb128 .LEHB264-.LFB1099
 4940 05b6 1C       		.uleb128 .LEHE264-.LEHB264
 4941 05b7 FC07     		.uleb128 .L376-.LFB1099
 4942 05b9 03       		.uleb128 0x3
 4943 05ba 9003     		.uleb128 .LEHB265-.LFB1099
 4944 05bc 1C       		.uleb128 .LEHE265-.LEHB265
 4945 05bd DF08     		.uleb128 .L378-.LFB1099
 4946 05bf 01       		.uleb128 0x1
 4947 05c0 B303     		.uleb128 .LEHB266-.LFB1099
 4948 05c2 1C       		.uleb128 .LEHE266-.LEHB266
 4949 05c3 DD08     		.uleb128 .L379-.LFB1099
 4950 05c5 03       		.uleb128 0x3
 4951 05c6 DD03     		.uleb128 .LEHB267-.LFB1099
 4952 05c8 05       		.uleb128 .LEHE267-.LEHB267
 4953 05c9 00       		.uleb128 0
 4954 05ca 00       		.uleb128 0
 4955 05cb E503     		.uleb128 .LEHB268-.LFB1099
 4956 05cd 1C       		.uleb128 .LEHE268-.LEHB268
 4957 05ce C009     		.uleb128 .L381-.LFB1099
 4958 05d0 01       		.uleb128 0x1
 4959 05d1 8504     		.uleb128 .LEHB269-.LFB1099
 4960 05d3 1C       		.uleb128 .LEHE269-.LEHB269
 4961 05d4 BE09     		.uleb128 .L382-.LFB1099
 4962 05d6 03       		.uleb128 0x3
 4963 05d7 AF04     		.uleb128 .LEHB270-.LFB1099
 4964 05d9 05       		.uleb128 .LEHE270-.LEHB270
 4965 05da 00       		.uleb128 0
 4966 05db 00       		.uleb128 0
 4967 05dc B704     		.uleb128 .LEHB271-.LFB1099
 4968 05de 1C       		.uleb128 .LEHE271-.LEHB271
 4969 05df A10A     		.uleb128 .L384-.LFB1099
 4970 05e1 01       		.uleb128 0x1
 4971 05e2 D704     		.uleb128 .LEHB272-.LFB1099
 4972 05e4 1C       		.uleb128 .LEHE272-.LEHB272
 4973 05e5 9F0A     		.uleb128 .L385-.LFB1099
 4974 05e7 03       		.uleb128 0x3
 4975 05e8 8205     		.uleb128 .LEHB273-.LFB1099
 4976 05ea 3A       		.uleb128 .LEHE273-.LEHB273
 4977 05eb C605     		.uleb128 .L365-.LFB1099
 4978 05ed 00       		.uleb128 0
 4979 05ee BC05     		.uleb128 .LEHB274-.LFB1099
 4980 05f0 05       		.uleb128 .LEHE274-.LEHB274
 4981 05f1 00       		.uleb128 0
 4982 05f2 00       		.uleb128 0
 4983 05f3 D405     		.uleb128 .LEHB275-.LFB1099
 4984 05f5 05       		.uleb128 .LEHE275-.LEHB275
 4985 05f6 00       		.uleb128 0
 4986 05f7 00       		.uleb128 0
 4987 05f8 E305     		.uleb128 .LEHB276-.LFB1099
 4988 05fa 3A       		.uleb128 .LEHE276-.LEHB276
 4989 05fb A706     		.uleb128 .L368-.LFB1099
 4990 05fd 00       		.uleb128 0
 4991 05fe 9D06     		.uleb128 .LEHB277-.LFB1099
 4992 0600 05       		.uleb128 .LEHE277-.LEHB277
 4993 0601 00       		.uleb128 0
 4994 0602 00       		.uleb128 0
 4995 0603 B506     		.uleb128 .LEHB278-.LFB1099
 4996 0605 05       		.uleb128 .LEHE278-.LEHB278
 4997 0606 00       		.uleb128 0
 4998 0607 00       		.uleb128 0
 4999 0608 C406     		.uleb128 .LEHB279-.LFB1099
 5000 060a 3A       		.uleb128 .LEHE279-.LEHB279
 5001 060b 8807     		.uleb128 .L371-.LFB1099
 5002 060d 00       		.uleb128 0
 5003 060e FE06     		.uleb128 .LEHB280-.LFB1099
 5004 0610 05       		.uleb128 .LEHE280-.LEHB280
 5005 0611 00       		.uleb128 0
 5006 0612 00       		.uleb128 0
 5007 0613 9607     		.uleb128 .LEHB281-.LFB1099
 5008 0615 05       		.uleb128 .LEHE281-.LEHB281
 5009 0616 00       		.uleb128 0
 5010 0617 00       		.uleb128 0
 5011 0618 A507     		.uleb128 .LEHB282-.LFB1099
 5012 061a 3A       		.uleb128 .LEHE282-.LEHB282
