   1              		.file	"testConv.cpp"
   2              		.text
   3              	.Ltext0:
   4              		.section	.rodata
   5              	.LC0:
   6 0000 44656661 		.string	"DefaultSuite"
   6      756C7453 
   6      75697465 
   6      00
   7              		.section	.text._ZN13UnitTestSuite12GetSuiteNameEv,"axG",@progbits,_ZN13UnitTestSuite12GetSuiteName
   8              		.weak	_ZN13UnitTestSuite12GetSuiteNameEv
  10              	_ZN13UnitTestSuite12GetSuiteNameEv:
  11              	.LFB0:
  12              		.file 1 "/home/gani/eval/20140524/makestuff/libs/libutpp/TestSuite.h"
   1:/home/gani/eval/20140524/makestuff/libs/libutpp/TestSuite.h **** #ifndef UNITTEST_TESTSUITE_H
   2:/home/gani/eval/20140524/makestuff/libs/libutpp/TestSuite.h **** #define UNITTEST_TESTSUITE_H
   3:/home/gani/eval/20140524/makestuff/libs/libutpp/TestSuite.h **** 
   4:/home/gani/eval/20140524/makestuff/libs/libutpp/TestSuite.h **** namespace UnitTestSuite {
   5:/home/gani/eval/20140524/makestuff/libs/libutpp/TestSuite.h **** 
   6:/home/gani/eval/20140524/makestuff/libs/libutpp/TestSuite.h ****     inline char const* GetSuiteName ()
   7:/home/gani/eval/20140524/makestuff/libs/libutpp/TestSuite.h ****     {
  13              		.loc 1 7 0
  14              		.cfi_startproc
  15 0000 55       		pushq	%rbp
  16              		.cfi_def_cfa_offset 16
  17              		.cfi_offset 6, -16
  18 0001 4889E5   		movq	%rsp, %rbp
  19              		.cfi_def_cfa_register 6
   8:/home/gani/eval/20140524/makestuff/libs/libutpp/TestSuite.h ****         return "DefaultSuite";
  20              		.loc 1 8 0
  21 0004 488D0500 		leaq	.LC0(%rip), %rax
  21      000000
   9:/home/gani/eval/20140524/makestuff/libs/libutpp/TestSuite.h ****     }
  22              		.loc 1 9 0
  23 000b 5D       		popq	%rbp
  24              		.cfi_def_cfa 7, 8
  25 000c C3       		ret
  26              		.cfi_endproc
  27              	.LFE0:
  29              		.section	.text._ZN8UnitTest15MemoryOutStreamC1Ev,"axG",@progbits,_ZN8UnitTest15MemoryOutStreamC1Ev
  30              		.align 2
  31              		.weak	_ZN8UnitTest15MemoryOutStreamC1Ev
  33              	_ZN8UnitTest15MemoryOutStreamC1Ev:
  34              	.LFB1076:
  35              		.file 2 "/home/gani/eval/20140524/makestuff/libs/libutpp/MemoryOutStream.h"
   1:/home/gani/eval/20140524/makestuff/libs/libutpp/MemoryOutStream.h **** #ifndef UNITTEST_MEMORYOUTSTREAM_H
   2:/home/gani/eval/20140524/makestuff/libs/libutpp/MemoryOutStream.h **** #define UNITTEST_MEMORYOUTSTREAM_H
   3:/home/gani/eval/20140524/makestuff/libs/libutpp/MemoryOutStream.h **** 
   4:/home/gani/eval/20140524/makestuff/libs/libutpp/MemoryOutStream.h **** #include "Config.h"
   5:/home/gani/eval/20140524/makestuff/libs/libutpp/MemoryOutStream.h **** 
   6:/home/gani/eval/20140524/makestuff/libs/libutpp/MemoryOutStream.h **** #ifndef UNITTEST_USE_CUSTOM_STREAMS
   7:/home/gani/eval/20140524/makestuff/libs/libutpp/MemoryOutStream.h **** 
   8:/home/gani/eval/20140524/makestuff/libs/libutpp/MemoryOutStream.h **** #include <sstream>
   9:/home/gani/eval/20140524/makestuff/libs/libutpp/MemoryOutStream.h **** 
  10:/home/gani/eval/20140524/makestuff/libs/libutpp/MemoryOutStream.h **** namespace UnitTest
  11:/home/gani/eval/20140524/makestuff/libs/libutpp/MemoryOutStream.h **** {
  12:/home/gani/eval/20140524/makestuff/libs/libutpp/MemoryOutStream.h **** 
  13:/home/gani/eval/20140524/makestuff/libs/libutpp/MemoryOutStream.h **** class MemoryOutStream : public std::ostringstream
  14:/home/gani/eval/20140524/makestuff/libs/libutpp/MemoryOutStream.h **** {
  15:/home/gani/eval/20140524/makestuff/libs/libutpp/MemoryOutStream.h **** public:
  16:/home/gani/eval/20140524/makestuff/libs/libutpp/MemoryOutStream.h ****     MemoryOutStream() {}
  36              		.loc 2 16 0
  37              		.cfi_startproc
  38              		.cfi_personality 0x9b,DW.ref.__gxx_personality_v0
  39              		.cfi_lsda 0x1b,.LLSDA1076
  40 0000 55       		pushq	%rbp
  41              		.cfi_def_cfa_offset 16
  42              		.cfi_offset 6, -16
  43 0001 4889E5   		movq	%rsp, %rbp
  44              		.cfi_def_cfa_register 6
  45 0004 53       		pushq	%rbx
  46 0005 4883EC18 		subq	$24, %rsp
  47              		.cfi_offset 3, -24
  48 0009 48897DE8 		movq	%rdi, -24(%rbp)
  49              	.LBB2:
  50              		.loc 2 16 0
  51 000d 488B45E8 		movq	-24(%rbp), %rax
  52 0011 48059000 		addq	$144, %rax
  52      0000
  53 0017 4889C7   		movq	%rax, %rdi
  54              	.LEHB0:
  55 001a E8000000 		call	_ZNSt9basic_iosIcSt11char_traitsIcEEC2Ev@PLT
  55      00
  56              	.LEHE0:
  57 001f 488B45E8 		movq	-24(%rbp), %rax
  58 0023 488D0D00 		leaq	8+_ZTTN8UnitTest15MemoryOutStreamE(%rip), %rcx
  58      000000
  59 002a BA100000 		movl	$16, %edx
  59      00
  60 002f 4889CE   		movq	%rcx, %rsi
  61 0032 4889C7   		movq	%rax, %rdi
  62              	.LEHB1:
  63 0035 E8000000 		call	_ZNSt7__cxx1119basic_ostringstreamIcSt11char_traitsIcESaIcEEC2ESt13_Ios_Openmode@PLT
  63      00
  64              	.LEHE1:
  65              		.loc 2 16 0 is_stmt 0 discriminator 8
  66 003a 488D1500 		leaq	24+_ZTVN8UnitTest15MemoryOutStreamE(%rip), %rdx
  66      000000
  67 0041 488B45E8 		movq	-24(%rbp), %rax
  68 0045 488910   		movq	%rdx, (%rax)
  69 0048 488B45E8 		movq	-24(%rbp), %rax
  70 004c 488D9090 		leaq	144(%rax), %rdx
  70      000000
  71 0053 488D0500 		leaq	64+_ZTVN8UnitTest15MemoryOutStreamE(%rip), %rax
  71      000000
  72 005a 488902   		movq	%rax, (%rdx)
  73 005d 488B45E8 		movq	-24(%rbp), %rax
  74 0061 4883C070 		addq	$112, %rax
  75 0065 4889C7   		movq	%rax, %rdi
  76              	.LEHB2:
  77 0068 E8000000 		call	_ZNSt7__cxx1112basic_stringIcSt11char_traitsIcESaIcEEC1Ev@PLT
  77      00
  78              	.LEHE2:
  79              	.LBE2:
  80              		.loc 2 16 0
  81 006d EB3B     		jmp	.L9
  82              	.L7:
  83 006f 4889C3   		movq	%rax, %rbx
  84              	.LBB3:
  85 0072 488B45E8 		movq	-24(%rbp), %rax
  86 0076 488D1500 		leaq	8+_ZTTN8UnitTest15MemoryOutStreamE(%rip), %rdx
  86      000000
  87 007d 4889D6   		movq	%rdx, %rsi
  88 0080 4889C7   		movq	%rax, %rdi
  89 0083 E8000000 		call	_ZNSt7__cxx1119basic_ostringstreamIcSt11char_traitsIcESaIcEED2Ev@PLT
  89      00
  90 0088 EB03     		jmp	.L8
  91              	.L6:
  92 008a 4889C3   		movq	%rax, %rbx
  93              	.L8:
  94              		.loc 2 16 0 discriminator 11
  95 008d 488B45E8 		movq	-24(%rbp), %rax
  96 0091 48059000 		addq	$144, %rax
  96      0000
  97 0097 4889C7   		movq	%rax, %rdi
  98 009a E8000000 		call	_ZNSt9basic_iosIcSt11char_traitsIcEED2Ev@PLT
  98      00
  99 009f 4889D8   		movq	%rbx, %rax
 100 00a2 4889C7   		movq	%rax, %rdi
 101              	.LEHB3:
 102 00a5 E8000000 		call	_Unwind_Resume@PLT
 102      00
 103              	.LEHE3:
 104              	.L9:
 105              	.LBE3:
 106              		.loc 2 16 0
 107 00aa 4883C418 		addq	$24, %rsp
 108 00ae 5B       		popq	%rbx
 109 00af 5D       		popq	%rbp
 110              		.cfi_def_cfa 7, 8
 111 00b0 C3       		ret
 112              		.cfi_endproc
 113              	.LFE1076:
 114              		.globl	__gxx_personality_v0
 115              		.section	.gcc_except_table._ZN8UnitTest15MemoryOutStreamC1Ev,"aG",@progbits,_ZN8UnitTest15MemoryOu
 116              	.LLSDA1076:
 117 0000 FF       		.byte	0xff
 118 0001 FF       		.byte	0xff
 119 0002 01       		.byte	0x1
 120 0003 12       		.uleb128 .LLSDACSE1076-.LLSDACSB1076
 121              	.LLSDACSB1076:
 122 0004 1A       		.uleb128 .LEHB0-.LFB1076
 123 0005 05       		.uleb128 .LEHE0-.LEHB0
 124 0006 00       		.uleb128 0
 125 0007 00       		.uleb128 0
 126 0008 35       		.uleb128 .LEHB1-.LFB1076
 127 0009 05       		.uleb128 .LEHE1-.LEHB1
 128 000a 8A01     		.uleb128 .L6-.LFB1076
 129 000c 00       		.uleb128 0
 130 000d 68       		.uleb128 .LEHB2-.LFB1076
 131 000e 05       		.uleb128 .LEHE2-.LEHB2
 132 000f 6F       		.uleb128 .L7-.LFB1076
 133 0010 00       		.uleb128 0
 134 0011 A501     		.uleb128 .LEHB3-.LFB1076
 135 0013 05       		.uleb128 .LEHE3-.LEHB3
 136 0014 00       		.uleb128 0
 137 0015 00       		.uleb128 0
 138              	.LLSDACSE1076:
 139              		.section	.text._ZN8UnitTest15MemoryOutStreamC1Ev,"axG",@progbits,_ZN8UnitTest15MemoryOutStreamC1Ev
 141              		.section	.rodata
 142              	.LC1:
 143 000d 74657374 		.string	"testConv.cpp"
 143      436F6E76 
 143      2E637070 
 143      00
 144              	.LC2:
 145 001a 436F6E76 		.string	"Conv_testGetHexNibble"
 145      5F746573 
 145      74476574 
 145      4865784E 
 145      6962626C 
 146              		.section	.text._ZN25TestConv_testGetHexNibbleC2Ev,"axG",@progbits,_ZN25TestConv_testGetHexNibbleC5
 147              		.align 2
 148              		.weak	_ZN25TestConv_testGetHexNibbleC2Ev
 150              	_ZN25TestConv_testGetHexNibbleC2Ev:
 151              	.LFB1093:
 152              		.file 3 "testConv.cpp"
   1:testConv.cpp  **** /*
   2:testConv.cpp  ****  * Copyright (C) 2009-2012 Chris McClelland
   3:testConv.cpp  ****  *
   4:testConv.cpp  ****  * This program is free software: you can redistribute it and/or modify
   5:testConv.cpp  ****  * it under the terms of the GNU Lesser General Public License as published by
   6:testConv.cpp  ****  * the Free Software Foundation, either version 3 of the License, or
   7:testConv.cpp  ****  * (at your option) any later version.
   8:testConv.cpp  ****  *
   9:testConv.cpp  ****  * This program is distributed in the hope that it will be useful,
  10:testConv.cpp  ****  * but WITHOUT ANY WARRANTY; without even the implied warranty of
  11:testConv.cpp  ****  * MERCHANTABILITY or FITNESS FOR A PARTICULAR PURPOSE.  See the
  12:testConv.cpp  ****  * GNU Lesser General Public License for more details.
  13:testConv.cpp  ****  *
  14:testConv.cpp  ****  * You should have received a copy of the GNU Lesser General Public License
  15:testConv.cpp  ****  * along with this program.  If not, see <http://www.gnu.org/licenses/>.
  16:testConv.cpp  ****  */
  17:testConv.cpp  **** #include <UnitTest++.h>
  18:testConv.cpp  **** #include "../conv.h"
  19:testConv.cpp  **** 
  20:testConv.cpp  **** TEST(Conv_testGetHexNibble) {
 153              		.loc 3 20 0 is_stmt 1
 154              		.cfi_startproc
 155 0000 55       		pushq	%rbp
 156              		.cfi_def_cfa_offset 16
 157              		.cfi_offset 6, -16
 158 0001 4889E5   		movq	%rsp, %rbp
 159              		.cfi_def_cfa_register 6
 160 0004 53       		pushq	%rbx
 161 0005 4883EC18 		subq	$24, %rsp
 162              		.cfi_offset 3, -24
 163 0009 48897DE8 		movq	%rdi, -24(%rbp)
 164              	.LBB4:
 165              		.loc 3 20 0
 166 000d 488B5DE8 		movq	-24(%rbp), %rbx
 167 0011 E8000000 		call	_ZN13UnitTestSuite12GetSuiteNameEv
 167      00
 168 0016 41B81400 		movl	$20, %r8d
 168      0000
 169 001c 488D0D00 		leaq	.LC1(%rip), %rcx
 169      000000
 170 0023 4889C2   		movq	%rax, %rdx
 171 0026 488D3500 		leaq	.LC2(%rip), %rsi
 171      000000
 172 002d 4889DF   		movq	%rbx, %rdi
 173 0030 E8000000 		call	_ZN8UnitTest4TestC2EPKcS2_S2_i@PLT
 173      00
 174 0035 488D1500 		leaq	16+_ZTV25TestConv_testGetHexNibble(%rip), %rdx
 174      000000
 175 003c 488B45E8 		movq	-24(%rbp), %rax
 176 0040 488910   		movq	%rdx, (%rax)
 177              	.LBE4:
 178 0043 90       		nop
 179 0044 4883C418 		addq	$24, %rsp
 180 0048 5B       		popq	%rbx
 181 0049 5D       		popq	%rbp
 182              		.cfi_def_cfa 7, 8
 183 004a C3       		ret
 184              		.cfi_endproc
 185              	.LFE1093:
 187              		.weak	_ZN25TestConv_testGetHexNibbleC1Ev
 188              		.set	_ZN25TestConv_testGetHexNibbleC1Ev,_ZN25TestConv_testGetHexNibbleC2Ev
 189              		.globl	testConv_testGetHexNibbleInstance
 190              		.bss
 191              		.align 32
 194              	testConv_testGetHexNibbleInstance:
 195 0000 00000000 		.zero	56
 195      00000000 
 195      00000000 
 195      00000000 
 195      00000000 
 196              		.globl	adderConv_testGetHexNibble
 199              	adderConv_testGetHexNibble:
 200 0038 00       		.zero	1
 201              		.section	.rodata
 202              		.align 8
 203              	.LC3:
 204 0030 556E6861 		.string	"Unhandled exception in CHECK_EQUAL(false, status)"
 204      6E646C65 
 204      64206578 
 204      63657074 
 204      696F6E20 
 205 0062 00000000 		.align 8
 205      0000
 206              	.LC4:
 207 0068 556E6861 		.string	"Unhandled exception in CHECK_EQUAL(0, nibble)"
 207      6E646C65 
 207      64206578 
 207      63657074 
 207      696F6E20 
 208 0096 0000     		.align 8
 209              	.LC5:
 210 0098 556E6861 		.string	"Unhandled exception in CHECK_EQUAL(1, nibble)"
 210      6E646C65 
 210      64206578 
 210      63657074 
 210      696F6E20 
 211 00c6 0000     		.align 8
 212              	.LC6:
 213 00c8 556E6861 		.string	"Unhandled exception in CHECK_EQUAL(2, nibble)"
 213      6E646C65 
 213      64206578 
 213      63657074 
 213      696F6E20 
 214 00f6 0000     		.align 8
 215              	.LC7:
 216 00f8 556E6861 		.string	"Unhandled exception in CHECK_EQUAL(3, nibble)"
 216      6E646C65 
 216      64206578 
 216      63657074 
 216      696F6E20 
 217 0126 0000     		.align 8
 218              	.LC8:
 219 0128 556E6861 		.string	"Unhandled exception in CHECK_EQUAL(4, nibble)"
 219      6E646C65 
 219      64206578 
 219      63657074 
 219      696F6E20 
 220 0156 0000     		.align 8
 221              	.LC9:
 222 0158 556E6861 		.string	"Unhandled exception in CHECK_EQUAL(5, nibble)"
 222      6E646C65 
 222      64206578 
 222      63657074 
 222      696F6E20 
 223 0186 0000     		.align 8
 224              	.LC10:
 225 0188 556E6861 		.string	"Unhandled exception in CHECK_EQUAL(6, nibble)"
 225      6E646C65 
 225      64206578 
 225      63657074 
 225      696F6E20 
 226 01b6 0000     		.align 8
 227              	.LC11:
 228 01b8 556E6861 		.string	"Unhandled exception in CHECK_EQUAL(7, nibble)"
 228      6E646C65 
 228      64206578 
 228      63657074 
 228      696F6E20 
 229 01e6 0000     		.align 8
 230              	.LC12:
 231 01e8 556E6861 		.string	"Unhandled exception in CHECK_EQUAL(8, nibble)"
 231      6E646C65 
 231      64206578 
 231      63657074 
 231      696F6E20 
 232 0216 0000     		.align 8
 233              	.LC13:
 234 0218 556E6861 		.string	"Unhandled exception in CHECK_EQUAL(9, nibble)"
 234      6E646C65 
 234      64206578 
 234      63657074 
 234      696F6E20 
 235 0246 0000     		.align 8
 236              	.LC14:
 237 0248 556E6861 		.string	"Unhandled exception in CHECK_EQUAL(10, nibble)"
 237      6E646C65 
 237      64206578 
 237      63657074 
 237      696F6E20 
 238 0277 00       		.align 8
 239              	.LC15:
 240 0278 556E6861 		.string	"Unhandled exception in CHECK_EQUAL(11, nibble)"
 240      6E646C65 
 240      64206578 
 240      63657074 
 240      696F6E20 
 241 02a7 00       		.align 8
 242              	.LC16:
 243 02a8 556E6861 		.string	"Unhandled exception in CHECK_EQUAL(12, nibble)"
 243      6E646C65 
 243      64206578 
 243      63657074 
 243      696F6E20 
 244 02d7 00       		.align 8
 245              	.LC17:
 246 02d8 556E6861 		.string	"Unhandled exception in CHECK_EQUAL(13, nibble)"
 246      6E646C65 
 246      64206578 
 246      63657074 
 246      696F6E20 
 247 0307 00       		.align 8
 248              	.LC18:
 249 0308 556E6861 		.string	"Unhandled exception in CHECK_EQUAL(14, nibble)"
 249      6E646C65 
 249      64206578 
 249      63657074 
 249      696F6E20 
 250 0337 00       		.align 8
 251              	.LC19:
 252 0338 556E6861 		.string	"Unhandled exception in CHECK_EQUAL(15, nibble)"
 252      6E646C65 
 252      64206578 
 252      63657074 
 252      696F6E20 
 253 0367 00       		.align 8
 254              	.LC20:
 255 0368 556E6861 		.string	"Unhandled exception in CHECK_EQUAL(true, status)"
 255      6E646C65 
 255      64206578 
 255      63657074 
 255      696F6E20 
 256              		.text
 257              		.align 2
 258              		.globl	_ZNK25TestConv_testGetHexNibble7RunImplEv
 260              	_ZNK25TestConv_testGetHexNibble7RunImplEv:
 261              	.LFB1095:
 262              		.loc 3 20 0
 263              		.cfi_startproc
 264              		.cfi_personality 0x9b,DW.ref.__gxx_personality_v0
 265              		.cfi_lsda 0x1b,.LLSDA1095
 266 0000 55       		pushq	%rbp
 267              		.cfi_def_cfa_offset 16
 268              		.cfi_offset 6, -16
 269 0001 4889E5   		movq	%rsp, %rbp
 270              		.cfi_def_cfa_register 6
 271 0004 53       		pushq	%rbx
 272 0005 4883EC58 		subq	$88, %rsp
 273              		.cfi_offset 3, -24
 274 0009 48897DA8 		movq	%rdi, -88(%rbp)
 275              		.loc 3 20 0
 276 000d 64488B04 		movq	%fs:40, %rax
 276      25280000 
 276      00
 277 0016 488945E8 		movq	%rax, -24(%rbp)
 278 001a 31C0     		xorl	%eax, %eax
  21:testConv.cpp  **** 	uint8 nibble;
  22:testConv.cpp  **** 	bool status;
  23:testConv.cpp  **** 	status = getHexNibble('0', &nibble);
 279              		.loc 3 23 0
 280 001c 488D45BA 		leaq	-70(%rbp), %rax
 281 0020 4889C6   		movq	%rax, %rsi
 282 0023 BF300000 		movl	$48, %edi
 282      00
 283              	.LEHB4:
 284 0028 E8000000 		call	getHexNibble@PLT
 284      00
 285              	.LEHE4:
 286 002d 8845BB   		movb	%al, -69(%rbp)
 287              	.LEHB5:
  24:testConv.cpp  **** 	CHECK_EQUAL(false, status);
 288              		.loc 3 24 0
 289 0030 E8000000 		call	_ZN8UnitTest11CurrentTest7DetailsEv@PLT
 289      00
 290 0035 488B08   		movq	(%rax), %rcx
 291 0038 488D45C0 		leaq	-64(%rbp), %rax
 292 003c BA180000 		movl	$24, %edx
 292      00
 293 0041 4889CE   		movq	%rcx, %rsi
 294 0044 4889C7   		movq	%rax, %rdi
 295 0047 E8000000 		call	_ZN8UnitTest11TestDetailsC1ERKS0_i@PLT
 295      00
 296              	.LEHE5:
 297              		.loc 3 24 0 is_stmt 0 discriminator 2
 298 004c C645BC00 		movb	$0, -68(%rbp)
 299              	.LEHB6:
 300 0050 E8000000 		call	_ZN8UnitTest11CurrentTest7ResultsEv@PLT
 300      00
 301 0055 488B00   		movq	(%rax), %rax
 302 0058 488D4DC0 		leaq	-64(%rbp), %rcx
 303 005c 488D55BB 		leaq	-69(%rbp), %rdx
 304 0060 488D75BC 		leaq	-68(%rbp), %rsi
 305 0064 4889C7   		movq	%rax, %rdi
 306 0067 E8000000 		call	_ZN8UnitTest10CheckEqualIbbEEvRNS_11TestResultsERKT_RKT0_RKNS_11TestDetailsE
 306      00
 307              	.LEHE6:
 308              	.L14:
 309              	.LEHB7:
  25:testConv.cpp  **** 	CHECK_EQUAL(0, nibble);
 310              		.loc 3 25 0 is_stmt 1
 311 006c E8000000 		call	_ZN8UnitTest11CurrentTest7DetailsEv@PLT
 311      00
 312 0071 488B08   		movq	(%rax), %rcx
 313 0074 488D45C0 		leaq	-64(%rbp), %rax
 314 0078 BA190000 		movl	$25, %edx
 314      00
 315 007d 4889CE   		movq	%rcx, %rsi
 316 0080 4889C7   		movq	%rax, %rdi
 317 0083 E8000000 		call	_ZN8UnitTest11TestDetailsC1ERKS0_i@PLT
 317      00
 318              	.LEHE7:
 319              		.loc 3 25 0 is_stmt 0 discriminator 2
 320 0088 C745BC00 		movl	$0, -68(%rbp)
 320      000000
 321              	.LEHB8:
 322 008f E8000000 		call	_ZN8UnitTest11CurrentTest7ResultsEv@PLT
 322      00
 323 0094 488B00   		movq	(%rax), %rax
 324 0097 488D4DC0 		leaq	-64(%rbp), %rcx
 325 009b 488D55BA 		leaq	-70(%rbp), %rdx
 326 009f 488D75BC 		leaq	-68(%rbp), %rsi
 327 00a3 4889C7   		movq	%rax, %rdi
 328 00a6 E8000000 		call	_ZN8UnitTest10CheckEqualIihEEvRNS_11TestResultsERKT_RKT0_RKNS_11TestDetailsE
 328      00
 329              	.LEHE8:
 330              	.L18:
  26:testConv.cpp  **** 	status = getHexNibble('1', &nibble);
 331              		.loc 3 26 0 is_stmt 1
 332 00ab 488D45BA 		leaq	-70(%rbp), %rax
 333 00af 4889C6   		movq	%rax, %rsi
 334 00b2 BF310000 		movl	$49, %edi
 334      00
 335              	.LEHB9:
 336 00b7 E8000000 		call	getHexNibble@PLT
 336      00
 337              	.LEHE9:
 338 00bc 8845BB   		movb	%al, -69(%rbp)
 339              	.LEHB10:
  27:testConv.cpp  **** 	CHECK_EQUAL(false, status);
 340              		.loc 3 27 0
 341 00bf E8000000 		call	_ZN8UnitTest11CurrentTest7DetailsEv@PLT
 341      00
 342 00c4 488B08   		movq	(%rax), %rcx
 343 00c7 488D45C0 		leaq	-64(%rbp), %rax
 344 00cb BA1B0000 		movl	$27, %edx
 344      00
 345 00d0 4889CE   		movq	%rcx, %rsi
 346 00d3 4889C7   		movq	%rax, %rdi
 347 00d6 E8000000 		call	_ZN8UnitTest11TestDetailsC1ERKS0_i@PLT
 347      00
 348              	.LEHE10:
 349              		.loc 3 27 0 is_stmt 0 discriminator 2
 350 00db C645BC00 		movb	$0, -68(%rbp)
 351              	.LEHB11:
 352 00df E8000000 		call	_ZN8UnitTest11CurrentTest7ResultsEv@PLT
 352      00
 353 00e4 488B00   		movq	(%rax), %rax
 354 00e7 488D4DC0 		leaq	-64(%rbp), %rcx
 355 00eb 488D55BB 		leaq	-69(%rbp), %rdx
 356 00ef 488D75BC 		leaq	-68(%rbp), %rsi
 357 00f3 4889C7   		movq	%rax, %rdi
 358 00f6 E8000000 		call	_ZN8UnitTest10CheckEqualIbbEEvRNS_11TestResultsERKT_RKT0_RKNS_11TestDetailsE
 358      00
 359              	.LEHE11:
 360              	.L22:
 361              	.LEHB12:
  28:testConv.cpp  **** 	CHECK_EQUAL(1, nibble);
 362              		.loc 3 28 0 is_stmt 1
 363 00fb E8000000 		call	_ZN8UnitTest11CurrentTest7DetailsEv@PLT
 363      00
 364 0100 488B08   		movq	(%rax), %rcx
 365 0103 488D45C0 		leaq	-64(%rbp), %rax
 366 0107 BA1C0000 		movl	$28, %edx
 366      00
 367 010c 4889CE   		movq	%rcx, %rsi
 368 010f 4889C7   		movq	%rax, %rdi
 369 0112 E8000000 		call	_ZN8UnitTest11TestDetailsC1ERKS0_i@PLT
 369      00
 370              	.LEHE12:
 371              		.loc 3 28 0 is_stmt 0 discriminator 2
 372 0117 C745BC01 		movl	$1, -68(%rbp)
 372      000000
 373              	.LEHB13:
 374 011e E8000000 		call	_ZN8UnitTest11CurrentTest7ResultsEv@PLT
 374      00
 375 0123 488B00   		movq	(%rax), %rax
 376 0126 488D4DC0 		leaq	-64(%rbp), %rcx
 377 012a 488D55BA 		leaq	-70(%rbp), %rdx
 378 012e 488D75BC 		leaq	-68(%rbp), %rsi
 379 0132 4889C7   		movq	%rax, %rdi
 380 0135 E8000000 		call	_ZN8UnitTest10CheckEqualIihEEvRNS_11TestResultsERKT_RKT0_RKNS_11TestDetailsE
 380      00
 381              	.LEHE13:
 382              	.L26:
  29:testConv.cpp  **** 	status = getHexNibble('2', &nibble);
 383              		.loc 3 29 0 is_stmt 1
 384 013a 488D45BA 		leaq	-70(%rbp), %rax
 385 013e 4889C6   		movq	%rax, %rsi
 386 0141 BF320000 		movl	$50, %edi
 386      00
 387              	.LEHB14:
 388 0146 E8000000 		call	getHexNibble@PLT
 388      00
 389              	.LEHE14:
 390 014b 8845BB   		movb	%al, -69(%rbp)
 391              	.LEHB15:
  30:testConv.cpp  **** 	CHECK_EQUAL(false, status);
 392              		.loc 3 30 0
 393 014e E8000000 		call	_ZN8UnitTest11CurrentTest7DetailsEv@PLT
 393      00
 394 0153 488B08   		movq	(%rax), %rcx
 395 0156 488D45C0 		leaq	-64(%rbp), %rax
 396 015a BA1E0000 		movl	$30, %edx
 396      00
 397 015f 4889CE   		movq	%rcx, %rsi
 398 0162 4889C7   		movq	%rax, %rdi
 399 0165 E8000000 		call	_ZN8UnitTest11TestDetailsC1ERKS0_i@PLT
 399      00
 400              	.LEHE15:
 401              		.loc 3 30 0 is_stmt 0 discriminator 2
 402 016a C645BC00 		movb	$0, -68(%rbp)
 403              	.LEHB16:
 404 016e E8000000 		call	_ZN8UnitTest11CurrentTest7ResultsEv@PLT
 404      00
 405 0173 488B00   		movq	(%rax), %rax
 406 0176 488D4DC0 		leaq	-64(%rbp), %rcx
 407 017a 488D55BB 		leaq	-69(%rbp), %rdx
 408 017e 488D75BC 		leaq	-68(%rbp), %rsi
 409 0182 4889C7   		movq	%rax, %rdi
 410 0185 E8000000 		call	_ZN8UnitTest10CheckEqualIbbEEvRNS_11TestResultsERKT_RKT0_RKNS_11TestDetailsE
 410      00
 411              	.LEHE16:
 412              	.L30:
 413              	.LEHB17:
  31:testConv.cpp  **** 	CHECK_EQUAL(2, nibble);
 414              		.loc 3 31 0 is_stmt 1
 415 018a E8000000 		call	_ZN8UnitTest11CurrentTest7DetailsEv@PLT
 415      00
 416 018f 488B08   		movq	(%rax), %rcx
 417 0192 488D45C0 		leaq	-64(%rbp), %rax
 418 0196 BA1F0000 		movl	$31, %edx
 418      00
 419 019b 4889CE   		movq	%rcx, %rsi
 420 019e 4889C7   		movq	%rax, %rdi
 421 01a1 E8000000 		call	_ZN8UnitTest11TestDetailsC1ERKS0_i@PLT
 421      00
 422              	.LEHE17:
 423              		.loc 3 31 0 is_stmt 0 discriminator 2
 424 01a6 C745BC02 		movl	$2, -68(%rbp)
 424      000000
 425              	.LEHB18:
 426 01ad E8000000 		call	_ZN8UnitTest11CurrentTest7ResultsEv@PLT
 426      00
 427 01b2 488B00   		movq	(%rax), %rax
 428 01b5 488D4DC0 		leaq	-64(%rbp), %rcx
 429 01b9 488D55BA 		leaq	-70(%rbp), %rdx
 430 01bd 488D75BC 		leaq	-68(%rbp), %rsi
 431 01c1 4889C7   		movq	%rax, %rdi
 432 01c4 E8000000 		call	_ZN8UnitTest10CheckEqualIihEEvRNS_11TestResultsERKT_RKT0_RKNS_11TestDetailsE
 432      00
 433              	.LEHE18:
 434              	.L34:
  32:testConv.cpp  **** 	status = getHexNibble('3', &nibble);
 435              		.loc 3 32 0 is_stmt 1
 436 01c9 488D45BA 		leaq	-70(%rbp), %rax
 437 01cd 4889C6   		movq	%rax, %rsi
 438 01d0 BF330000 		movl	$51, %edi
 438      00
 439              	.LEHB19:
 440 01d5 E8000000 		call	getHexNibble@PLT
 440      00
 441              	.LEHE19:
 442 01da 8845BB   		movb	%al, -69(%rbp)
 443              	.LEHB20:
  33:testConv.cpp  **** 	CHECK_EQUAL(false, status);
 444              		.loc 3 33 0
 445 01dd E8000000 		call	_ZN8UnitTest11CurrentTest7DetailsEv@PLT
 445      00
 446 01e2 488B08   		movq	(%rax), %rcx
 447 01e5 488D45C0 		leaq	-64(%rbp), %rax
 448 01e9 BA210000 		movl	$33, %edx
 448      00
 449 01ee 4889CE   		movq	%rcx, %rsi
 450 01f1 4889C7   		movq	%rax, %rdi
 451 01f4 E8000000 		call	_ZN8UnitTest11TestDetailsC1ERKS0_i@PLT
 451      00
 452              	.LEHE20:
 453              		.loc 3 33 0 is_stmt 0 discriminator 2
 454 01f9 C645BC00 		movb	$0, -68(%rbp)
 455              	.LEHB21:
 456 01fd E8000000 		call	_ZN8UnitTest11CurrentTest7ResultsEv@PLT
 456      00
 457 0202 488B00   		movq	(%rax), %rax
 458 0205 488D4DC0 		leaq	-64(%rbp), %rcx
 459 0209 488D55BB 		leaq	-69(%rbp), %rdx
 460 020d 488D75BC 		leaq	-68(%rbp), %rsi
 461 0211 4889C7   		movq	%rax, %rdi
 462 0214 E8000000 		call	_ZN8UnitTest10CheckEqualIbbEEvRNS_11TestResultsERKT_RKT0_RKNS_11TestDetailsE
 462      00
 463              	.LEHE21:
 464              	.L38:
 465              	.LEHB22:
  34:testConv.cpp  **** 	CHECK_EQUAL(3, nibble);
 466              		.loc 3 34 0 is_stmt 1
 467 0219 E8000000 		call	_ZN8UnitTest11CurrentTest7DetailsEv@PLT
 467      00
 468 021e 488B08   		movq	(%rax), %rcx
 469 0221 488D45C0 		leaq	-64(%rbp), %rax
 470 0225 BA220000 		movl	$34, %edx
 470      00
 471 022a 4889CE   		movq	%rcx, %rsi
 472 022d 4889C7   		movq	%rax, %rdi
 473 0230 E8000000 		call	_ZN8UnitTest11TestDetailsC1ERKS0_i@PLT
 473      00
 474              	.LEHE22:
 475              		.loc 3 34 0 is_stmt 0 discriminator 2
 476 0235 C745BC03 		movl	$3, -68(%rbp)
 476      000000
 477              	.LEHB23:
 478 023c E8000000 		call	_ZN8UnitTest11CurrentTest7ResultsEv@PLT
 478      00
 479 0241 488B00   		movq	(%rax), %rax
 480 0244 488D4DC0 		leaq	-64(%rbp), %rcx
 481 0248 488D55BA 		leaq	-70(%rbp), %rdx
 482 024c 488D75BC 		leaq	-68(%rbp), %rsi
 483 0250 4889C7   		movq	%rax, %rdi
 484 0253 E8000000 		call	_ZN8UnitTest10CheckEqualIihEEvRNS_11TestResultsERKT_RKT0_RKNS_11TestDetailsE
 484      00
 485              	.LEHE23:
 486              	.L42:
  35:testConv.cpp  **** 	status = getHexNibble('4', &nibble);
 487              		.loc 3 35 0 is_stmt 1
 488 0258 488D45BA 		leaq	-70(%rbp), %rax
 489 025c 4889C6   		movq	%rax, %rsi
 490 025f BF340000 		movl	$52, %edi
 490      00
 491              	.LEHB24:
 492 0264 E8000000 		call	getHexNibble@PLT
 492      00
 493              	.LEHE24:
 494 0269 8845BB   		movb	%al, -69(%rbp)
 495              	.LEHB25:
  36:testConv.cpp  **** 	CHECK_EQUAL(false, status);
 496              		.loc 3 36 0
 497 026c E8000000 		call	_ZN8UnitTest11CurrentTest7DetailsEv@PLT
 497      00
 498 0271 488B08   		movq	(%rax), %rcx
 499 0274 488D45C0 		leaq	-64(%rbp), %rax
 500 0278 BA240000 		movl	$36, %edx
 500      00
 501 027d 4889CE   		movq	%rcx, %rsi
 502 0280 4889C7   		movq	%rax, %rdi
 503 0283 E8000000 		call	_ZN8UnitTest11TestDetailsC1ERKS0_i@PLT
 503      00
 504              	.LEHE25:
 505              		.loc 3 36 0 is_stmt 0 discriminator 2
 506 0288 C645BC00 		movb	$0, -68(%rbp)
 507              	.LEHB26:
 508 028c E8000000 		call	_ZN8UnitTest11CurrentTest7ResultsEv@PLT
 508      00
 509 0291 488B00   		movq	(%rax), %rax
 510 0294 488D4DC0 		leaq	-64(%rbp), %rcx
 511 0298 488D55BB 		leaq	-69(%rbp), %rdx
 512 029c 488D75BC 		leaq	-68(%rbp), %rsi
 513 02a0 4889C7   		movq	%rax, %rdi
 514 02a3 E8000000 		call	_ZN8UnitTest10CheckEqualIbbEEvRNS_11TestResultsERKT_RKT0_RKNS_11TestDetailsE
 514      00
 515              	.LEHE26:
 516              	.L46:
 517              	.LEHB27:
  37:testConv.cpp  **** 	CHECK_EQUAL(4, nibble);
 518              		.loc 3 37 0 is_stmt 1
 519 02a8 E8000000 		call	_ZN8UnitTest11CurrentTest7DetailsEv@PLT
 519      00
 520 02ad 488B08   		movq	(%rax), %rcx
 521 02b0 488D45C0 		leaq	-64(%rbp), %rax
 522 02b4 BA250000 		movl	$37, %edx
 522      00
 523 02b9 4889CE   		movq	%rcx, %rsi
 524 02bc 4889C7   		movq	%rax, %rdi
 525 02bf E8000000 		call	_ZN8UnitTest11TestDetailsC1ERKS0_i@PLT
 525      00
 526              	.LEHE27:
 527              		.loc 3 37 0 is_stmt 0 discriminator 2
 528 02c4 C745BC04 		movl	$4, -68(%rbp)
 528      000000
 529              	.LEHB28:
 530 02cb E8000000 		call	_ZN8UnitTest11CurrentTest7ResultsEv@PLT
 530      00
 531 02d0 488B00   		movq	(%rax), %rax
 532 02d3 488D4DC0 		leaq	-64(%rbp), %rcx
 533 02d7 488D55BA 		leaq	-70(%rbp), %rdx
 534 02db 488D75BC 		leaq	-68(%rbp), %rsi
 535 02df 4889C7   		movq	%rax, %rdi
 536 02e2 E8000000 		call	_ZN8UnitTest10CheckEqualIihEEvRNS_11TestResultsERKT_RKT0_RKNS_11TestDetailsE
 536      00
 537              	.LEHE28:
 538              	.L50:
  38:testConv.cpp  **** 	status = getHexNibble('5', &nibble);
 539              		.loc 3 38 0 is_stmt 1
 540 02e7 488D45BA 		leaq	-70(%rbp), %rax
 541 02eb 4889C6   		movq	%rax, %rsi
 542 02ee BF350000 		movl	$53, %edi
 542      00
 543              	.LEHB29:
 544 02f3 E8000000 		call	getHexNibble@PLT
 544      00
 545              	.LEHE29:
 546 02f8 8845BB   		movb	%al, -69(%rbp)
 547              	.LEHB30:
  39:testConv.cpp  **** 	CHECK_EQUAL(false, status);
 548              		.loc 3 39 0
 549 02fb E8000000 		call	_ZN8UnitTest11CurrentTest7DetailsEv@PLT
 549      00
 550 0300 488B08   		movq	(%rax), %rcx
 551 0303 488D45C0 		leaq	-64(%rbp), %rax
 552 0307 BA270000 		movl	$39, %edx
 552      00
 553 030c 4889CE   		movq	%rcx, %rsi
 554 030f 4889C7   		movq	%rax, %rdi
 555 0312 E8000000 		call	_ZN8UnitTest11TestDetailsC1ERKS0_i@PLT
 555      00
 556              	.LEHE30:
 557              		.loc 3 39 0 is_stmt 0 discriminator 2
 558 0317 C645BC00 		movb	$0, -68(%rbp)
 559              	.LEHB31:
 560 031b E8000000 		call	_ZN8UnitTest11CurrentTest7ResultsEv@PLT
 560      00
 561 0320 488B00   		movq	(%rax), %rax
 562 0323 488D4DC0 		leaq	-64(%rbp), %rcx
 563 0327 488D55BB 		leaq	-69(%rbp), %rdx
 564 032b 488D75BC 		leaq	-68(%rbp), %rsi
 565 032f 4889C7   		movq	%rax, %rdi
 566 0332 E8000000 		call	_ZN8UnitTest10CheckEqualIbbEEvRNS_11TestResultsERKT_RKT0_RKNS_11TestDetailsE
 566      00
 567              	.LEHE31:
 568              	.L54:
 569              	.LEHB32:
  40:testConv.cpp  **** 	CHECK_EQUAL(5, nibble);
 570              		.loc 3 40 0 is_stmt 1
 571 0337 E8000000 		call	_ZN8UnitTest11CurrentTest7DetailsEv@PLT
 571      00
 572 033c 488B08   		movq	(%rax), %rcx
 573 033f 488D45C0 		leaq	-64(%rbp), %rax
 574 0343 BA280000 		movl	$40, %edx
 574      00
 575 0348 4889CE   		movq	%rcx, %rsi
 576 034b 4889C7   		movq	%rax, %rdi
 577 034e E8000000 		call	_ZN8UnitTest11TestDetailsC1ERKS0_i@PLT
 577      00
 578              	.LEHE32:
 579              		.loc 3 40 0 is_stmt 0 discriminator 2
 580 0353 C745BC05 		movl	$5, -68(%rbp)
 580      000000
 581              	.LEHB33:
 582 035a E8000000 		call	_ZN8UnitTest11CurrentTest7ResultsEv@PLT
 582      00
 583 035f 488B00   		movq	(%rax), %rax
 584 0362 488D4DC0 		leaq	-64(%rbp), %rcx
 585 0366 488D55BA 		leaq	-70(%rbp), %rdx
 586 036a 488D75BC 		leaq	-68(%rbp), %rsi
 587 036e 4889C7   		movq	%rax, %rdi
 588 0371 E8000000 		call	_ZN8UnitTest10CheckEqualIihEEvRNS_11TestResultsERKT_RKT0_RKNS_11TestDetailsE
 588      00
 589              	.LEHE33:
 590              	.L58:
  41:testConv.cpp  **** 	status = getHexNibble('6', &nibble);
 591              		.loc 3 41 0 is_stmt 1
 592 0376 488D45BA 		leaq	-70(%rbp), %rax
 593 037a 4889C6   		movq	%rax, %rsi
 594 037d BF360000 		movl	$54, %edi
 594      00
 595              	.LEHB34:
 596 0382 E8000000 		call	getHexNibble@PLT
 596      00
 597              	.LEHE34:
 598 0387 8845BB   		movb	%al, -69(%rbp)
 599              	.LEHB35:
  42:testConv.cpp  **** 	CHECK_EQUAL(false, status);
 600              		.loc 3 42 0
 601 038a E8000000 		call	_ZN8UnitTest11CurrentTest7DetailsEv@PLT
 601      00
 602 038f 488B08   		movq	(%rax), %rcx
 603 0392 488D45C0 		leaq	-64(%rbp), %rax
 604 0396 BA2A0000 		movl	$42, %edx
 604      00
 605 039b 4889CE   		movq	%rcx, %rsi
 606 039e 4889C7   		movq	%rax, %rdi
 607 03a1 E8000000 		call	_ZN8UnitTest11TestDetailsC1ERKS0_i@PLT
 607      00
 608              	.LEHE35:
 609              		.loc 3 42 0 is_stmt 0 discriminator 2
 610 03a6 C645BC00 		movb	$0, -68(%rbp)
 611              	.LEHB36:
 612 03aa E8000000 		call	_ZN8UnitTest11CurrentTest7ResultsEv@PLT
 612      00
 613 03af 488B00   		movq	(%rax), %rax
 614 03b2 488D4DC0 		leaq	-64(%rbp), %rcx
 615 03b6 488D55BB 		leaq	-69(%rbp), %rdx
 616 03ba 488D75BC 		leaq	-68(%rbp), %rsi
 617 03be 4889C7   		movq	%rax, %rdi
 618 03c1 E8000000 		call	_ZN8UnitTest10CheckEqualIbbEEvRNS_11TestResultsERKT_RKT0_RKNS_11TestDetailsE
 618      00
 619              	.LEHE36:
 620              	.L62:
 621              	.LEHB37:
  43:testConv.cpp  **** 	CHECK_EQUAL(6, nibble);
 622              		.loc 3 43 0 is_stmt 1
 623 03c6 E8000000 		call	_ZN8UnitTest11CurrentTest7DetailsEv@PLT
 623      00
 624 03cb 488B08   		movq	(%rax), %rcx
 625 03ce 488D45C0 		leaq	-64(%rbp), %rax
 626 03d2 BA2B0000 		movl	$43, %edx
 626      00
 627 03d7 4889CE   		movq	%rcx, %rsi
 628 03da 4889C7   		movq	%rax, %rdi
 629 03dd E8000000 		call	_ZN8UnitTest11TestDetailsC1ERKS0_i@PLT
 629      00
 630              	.LEHE37:
 631              		.loc 3 43 0 is_stmt 0 discriminator 2
 632 03e2 C745BC06 		movl	$6, -68(%rbp)
 632      000000
 633              	.LEHB38:
 634 03e9 E8000000 		call	_ZN8UnitTest11CurrentTest7ResultsEv@PLT
 634      00
 635 03ee 488B00   		movq	(%rax), %rax
 636 03f1 488D4DC0 		leaq	-64(%rbp), %rcx
 637 03f5 488D55BA 		leaq	-70(%rbp), %rdx
 638 03f9 488D75BC 		leaq	-68(%rbp), %rsi
 639 03fd 4889C7   		movq	%rax, %rdi
 640 0400 E8000000 		call	_ZN8UnitTest10CheckEqualIihEEvRNS_11TestResultsERKT_RKT0_RKNS_11TestDetailsE
 640      00
 641              	.LEHE38:
 642              	.L66:
  44:testConv.cpp  **** 	status = getHexNibble('7', &nibble);
 643              		.loc 3 44 0 is_stmt 1
 644 0405 488D45BA 		leaq	-70(%rbp), %rax
 645 0409 4889C6   		movq	%rax, %rsi
 646 040c BF370000 		movl	$55, %edi
 646      00
 647              	.LEHB39:
 648 0411 E8000000 		call	getHexNibble@PLT
 648      00
 649              	.LEHE39:
 650 0416 8845BB   		movb	%al, -69(%rbp)
 651              	.LEHB40:
  45:testConv.cpp  **** 	CHECK_EQUAL(false, status);
 652              		.loc 3 45 0
 653 0419 E8000000 		call	_ZN8UnitTest11CurrentTest7DetailsEv@PLT
 653      00
 654 041e 488B08   		movq	(%rax), %rcx
 655 0421 488D45C0 		leaq	-64(%rbp), %rax
 656 0425 BA2D0000 		movl	$45, %edx
 656      00
 657 042a 4889CE   		movq	%rcx, %rsi
 658 042d 4889C7   		movq	%rax, %rdi
 659 0430 E8000000 		call	_ZN8UnitTest11TestDetailsC1ERKS0_i@PLT
 659      00
 660              	.LEHE40:
 661              		.loc 3 45 0 is_stmt 0 discriminator 2
 662 0435 C645BC00 		movb	$0, -68(%rbp)
 663              	.LEHB41:
 664 0439 E8000000 		call	_ZN8UnitTest11CurrentTest7ResultsEv@PLT
 664      00
 665 043e 488B00   		movq	(%rax), %rax
 666 0441 488D4DC0 		leaq	-64(%rbp), %rcx
 667 0445 488D55BB 		leaq	-69(%rbp), %rdx
 668 0449 488D75BC 		leaq	-68(%rbp), %rsi
 669 044d 4889C7   		movq	%rax, %rdi
 670 0450 E8000000 		call	_ZN8UnitTest10CheckEqualIbbEEvRNS_11TestResultsERKT_RKT0_RKNS_11TestDetailsE
 670      00
 671              	.LEHE41:
 672              	.L70:
 673              	.LEHB42:
  46:testConv.cpp  **** 	CHECK_EQUAL(7, nibble);
 674              		.loc 3 46 0 is_stmt 1
 675 0455 E8000000 		call	_ZN8UnitTest11CurrentTest7DetailsEv@PLT
 675      00
 676 045a 488B08   		movq	(%rax), %rcx
 677 045d 488D45C0 		leaq	-64(%rbp), %rax
 678 0461 BA2E0000 		movl	$46, %edx
 678      00
 679 0466 4889CE   		movq	%rcx, %rsi
 680 0469 4889C7   		movq	%rax, %rdi
 681 046c E8000000 		call	_ZN8UnitTest11TestDetailsC1ERKS0_i@PLT
 681      00
 682              	.LEHE42:
 683              		.loc 3 46 0 is_stmt 0 discriminator 2
 684 0471 C745BC07 		movl	$7, -68(%rbp)
 684      000000
 685              	.LEHB43:
 686 0478 E8000000 		call	_ZN8UnitTest11CurrentTest7ResultsEv@PLT
 686      00
 687 047d 488B00   		movq	(%rax), %rax
 688 0480 488D4DC0 		leaq	-64(%rbp), %rcx
 689 0484 488D55BA 		leaq	-70(%rbp), %rdx
 690 0488 488D75BC 		leaq	-68(%rbp), %rsi
 691 048c 4889C7   		movq	%rax, %rdi
 692 048f E8000000 		call	_ZN8UnitTest10CheckEqualIihEEvRNS_11TestResultsERKT_RKT0_RKNS_11TestDetailsE
 692      00
 693              	.LEHE43:
 694              	.L74:
  47:testConv.cpp  **** 	status = getHexNibble('8', &nibble);
 695              		.loc 3 47 0 is_stmt 1
 696 0494 488D45BA 		leaq	-70(%rbp), %rax
 697 0498 4889C6   		movq	%rax, %rsi
 698 049b BF380000 		movl	$56, %edi
 698      00
 699              	.LEHB44:
 700 04a0 E8000000 		call	getHexNibble@PLT
 700      00
 701              	.LEHE44:
 702 04a5 8845BB   		movb	%al, -69(%rbp)
 703              	.LEHB45:
  48:testConv.cpp  **** 	CHECK_EQUAL(false, status);
 704              		.loc 3 48 0
 705 04a8 E8000000 		call	_ZN8UnitTest11CurrentTest7DetailsEv@PLT
 705      00
 706 04ad 488B08   		movq	(%rax), %rcx
 707 04b0 488D45C0 		leaq	-64(%rbp), %rax
 708 04b4 BA300000 		movl	$48, %edx
 708      00
 709 04b9 4889CE   		movq	%rcx, %rsi
 710 04bc 4889C7   		movq	%rax, %rdi
 711 04bf E8000000 		call	_ZN8UnitTest11TestDetailsC1ERKS0_i@PLT
 711      00
 712              	.LEHE45:
 713              		.loc 3 48 0 is_stmt 0 discriminator 2
 714 04c4 C645BC00 		movb	$0, -68(%rbp)
 715              	.LEHB46:
 716 04c8 E8000000 		call	_ZN8UnitTest11CurrentTest7ResultsEv@PLT
 716      00
 717 04cd 488B00   		movq	(%rax), %rax
 718 04d0 488D4DC0 		leaq	-64(%rbp), %rcx
 719 04d4 488D55BB 		leaq	-69(%rbp), %rdx
 720 04d8 488D75BC 		leaq	-68(%rbp), %rsi
 721 04dc 4889C7   		movq	%rax, %rdi
 722 04df E8000000 		call	_ZN8UnitTest10CheckEqualIbbEEvRNS_11TestResultsERKT_RKT0_RKNS_11TestDetailsE
 722      00
 723              	.LEHE46:
 724              	.L78:
 725              	.LEHB47:
  49:testConv.cpp  **** 	CHECK_EQUAL(8, nibble);
 726              		.loc 3 49 0 is_stmt 1
 727 04e4 E8000000 		call	_ZN8UnitTest11CurrentTest7DetailsEv@PLT
 727      00
 728 04e9 488B08   		movq	(%rax), %rcx
 729 04ec 488D45C0 		leaq	-64(%rbp), %rax
 730 04f0 BA310000 		movl	$49, %edx
 730      00
 731 04f5 4889CE   		movq	%rcx, %rsi
 732 04f8 4889C7   		movq	%rax, %rdi
 733 04fb E8000000 		call	_ZN8UnitTest11TestDetailsC1ERKS0_i@PLT
 733      00
 734              	.LEHE47:
 735              		.loc 3 49 0 is_stmt 0 discriminator 2
 736 0500 C745BC08 		movl	$8, -68(%rbp)
 736      000000
 737              	.LEHB48:
 738 0507 E8000000 		call	_ZN8UnitTest11CurrentTest7ResultsEv@PLT
 738      00
 739 050c 488B00   		movq	(%rax), %rax
 740 050f 488D4DC0 		leaq	-64(%rbp), %rcx
 741 0513 488D55BA 		leaq	-70(%rbp), %rdx
 742 0517 488D75BC 		leaq	-68(%rbp), %rsi
 743 051b 4889C7   		movq	%rax, %rdi
 744 051e E8000000 		call	_ZN8UnitTest10CheckEqualIihEEvRNS_11TestResultsERKT_RKT0_RKNS_11TestDetailsE
 744      00
 745              	.LEHE48:
 746              	.L82:
  50:testConv.cpp  **** 	status = getHexNibble('9', &nibble);
 747              		.loc 3 50 0 is_stmt 1
 748 0523 488D45BA 		leaq	-70(%rbp), %rax
 749 0527 4889C6   		movq	%rax, %rsi
 750 052a BF390000 		movl	$57, %edi
 750      00
 751              	.LEHB49:
 752 052f E8000000 		call	getHexNibble@PLT
 752      00
 753              	.LEHE49:
 754 0534 8845BB   		movb	%al, -69(%rbp)
 755              	.LEHB50:
  51:testConv.cpp  **** 	CHECK_EQUAL(false, status);
 756              		.loc 3 51 0
 757 0537 E8000000 		call	_ZN8UnitTest11CurrentTest7DetailsEv@PLT
 757      00
 758 053c 488B08   		movq	(%rax), %rcx
 759 053f 488D45C0 		leaq	-64(%rbp), %rax
 760 0543 BA330000 		movl	$51, %edx
 760      00
 761 0548 4889CE   		movq	%rcx, %rsi
 762 054b 4889C7   		movq	%rax, %rdi
 763 054e E8000000 		call	_ZN8UnitTest11TestDetailsC1ERKS0_i@PLT
 763      00
 764              	.LEHE50:
 765              		.loc 3 51 0 is_stmt 0 discriminator 2
 766 0553 C645BC00 		movb	$0, -68(%rbp)
 767              	.LEHB51:
 768 0557 E8000000 		call	_ZN8UnitTest11CurrentTest7ResultsEv@PLT
 768      00
 769 055c 488B00   		movq	(%rax), %rax
 770 055f 488D4DC0 		leaq	-64(%rbp), %rcx
 771 0563 488D55BB 		leaq	-69(%rbp), %rdx
 772 0567 488D75BC 		leaq	-68(%rbp), %rsi
 773 056b 4889C7   		movq	%rax, %rdi
 774 056e E8000000 		call	_ZN8UnitTest10CheckEqualIbbEEvRNS_11TestResultsERKT_RKT0_RKNS_11TestDetailsE
 774      00
 775              	.LEHE51:
 776              	.L86:
 777              	.LEHB52:
  52:testConv.cpp  **** 	CHECK_EQUAL(9, nibble);
 778              		.loc 3 52 0 is_stmt 1
 779 0573 E8000000 		call	_ZN8UnitTest11CurrentTest7DetailsEv@PLT
 779      00
 780 0578 488B08   		movq	(%rax), %rcx
 781 057b 488D45C0 		leaq	-64(%rbp), %rax
 782 057f BA340000 		movl	$52, %edx
 782      00
 783 0584 4889CE   		movq	%rcx, %rsi
 784 0587 4889C7   		movq	%rax, %rdi
 785 058a E8000000 		call	_ZN8UnitTest11TestDetailsC1ERKS0_i@PLT
 785      00
 786              	.LEHE52:
 787              		.loc 3 52 0 is_stmt 0 discriminator 2
 788 058f C745BC09 		movl	$9, -68(%rbp)
 788      000000
 789              	.LEHB53:
 790 0596 E8000000 		call	_ZN8UnitTest11CurrentTest7ResultsEv@PLT
 790      00
 791 059b 488B00   		movq	(%rax), %rax
 792 059e 488D4DC0 		leaq	-64(%rbp), %rcx
 793 05a2 488D55BA 		leaq	-70(%rbp), %rdx
 794 05a6 488D75BC 		leaq	-68(%rbp), %rsi
 795 05aa 4889C7   		movq	%rax, %rdi
 796 05ad E8000000 		call	_ZN8UnitTest10CheckEqualIihEEvRNS_11TestResultsERKT_RKT0_RKNS_11TestDetailsE
 796      00
 797              	.LEHE53:
 798              	.L90:
  53:testConv.cpp  **** 	status = getHexNibble('A', &nibble);
 799              		.loc 3 53 0 is_stmt 1
 800 05b2 488D45BA 		leaq	-70(%rbp), %rax
 801 05b6 4889C6   		movq	%rax, %rsi
 802 05b9 BF410000 		movl	$65, %edi
 802      00
 803              	.LEHB54:
 804 05be E8000000 		call	getHexNibble@PLT
 804      00
 805              	.LEHE54:
 806 05c3 8845BB   		movb	%al, -69(%rbp)
 807              	.LEHB55:
  54:testConv.cpp  **** 	CHECK_EQUAL(false, status);
 808              		.loc 3 54 0
 809 05c6 E8000000 		call	_ZN8UnitTest11CurrentTest7DetailsEv@PLT
 809      00
 810 05cb 488B08   		movq	(%rax), %rcx
 811 05ce 488D45C0 		leaq	-64(%rbp), %rax
 812 05d2 BA360000 		movl	$54, %edx
 812      00
 813 05d7 4889CE   		movq	%rcx, %rsi
 814 05da 4889C7   		movq	%rax, %rdi
 815 05dd E8000000 		call	_ZN8UnitTest11TestDetailsC1ERKS0_i@PLT
 815      00
 816              	.LEHE55:
 817              		.loc 3 54 0 is_stmt 0 discriminator 2
 818 05e2 C645BC00 		movb	$0, -68(%rbp)
 819              	.LEHB56:
 820 05e6 E8000000 		call	_ZN8UnitTest11CurrentTest7ResultsEv@PLT
 820      00
 821 05eb 488B00   		movq	(%rax), %rax
 822 05ee 488D4DC0 		leaq	-64(%rbp), %rcx
 823 05f2 488D55BB 		leaq	-69(%rbp), %rdx
 824 05f6 488D75BC 		leaq	-68(%rbp), %rsi
 825 05fa 4889C7   		movq	%rax, %rdi
 826 05fd E8000000 		call	_ZN8UnitTest10CheckEqualIbbEEvRNS_11TestResultsERKT_RKT0_RKNS_11TestDetailsE
 826      00
 827              	.LEHE56:
 828              	.L94:
 829              	.LEHB57:
  55:testConv.cpp  **** 	CHECK_EQUAL(10, nibble);
 830              		.loc 3 55 0 is_stmt 1
 831 0602 E8000000 		call	_ZN8UnitTest11CurrentTest7DetailsEv@PLT
 831      00
 832 0607 488B08   		movq	(%rax), %rcx
 833 060a 488D45C0 		leaq	-64(%rbp), %rax
 834 060e BA370000 		movl	$55, %edx
 834      00
 835 0613 4889CE   		movq	%rcx, %rsi
 836 0616 4889C7   		movq	%rax, %rdi
 837 0619 E8000000 		call	_ZN8UnitTest11TestDetailsC1ERKS0_i@PLT
 837      00
 838              	.LEHE57:
 839              		.loc 3 55 0 is_stmt 0 discriminator 2
 840 061e C745BC0A 		movl	$10, -68(%rbp)
 840      000000
 841              	.LEHB58:
 842 0625 E8000000 		call	_ZN8UnitTest11CurrentTest7ResultsEv@PLT
 842      00
 843 062a 488B00   		movq	(%rax), %rax
 844 062d 488D4DC0 		leaq	-64(%rbp), %rcx
 845 0631 488D55BA 		leaq	-70(%rbp), %rdx
 846 0635 488D75BC 		leaq	-68(%rbp), %rsi
 847 0639 4889C7   		movq	%rax, %rdi
 848 063c E8000000 		call	_ZN8UnitTest10CheckEqualIihEEvRNS_11TestResultsERKT_RKT0_RKNS_11TestDetailsE
 848      00
 849              	.LEHE58:
 850              	.L98:
  56:testConv.cpp  **** 	status = getHexNibble('B', &nibble);
 851              		.loc 3 56 0 is_stmt 1
 852 0641 488D45BA 		leaq	-70(%rbp), %rax
 853 0645 4889C6   		movq	%rax, %rsi
 854 0648 BF420000 		movl	$66, %edi
 854      00
 855              	.LEHB59:
 856 064d E8000000 		call	getHexNibble@PLT
 856      00
 857              	.LEHE59:
 858 0652 8845BB   		movb	%al, -69(%rbp)
 859              	.LEHB60:
  57:testConv.cpp  **** 	CHECK_EQUAL(false, status);
 860              		.loc 3 57 0
 861 0655 E8000000 		call	_ZN8UnitTest11CurrentTest7DetailsEv@PLT
 861      00
 862 065a 488B08   		movq	(%rax), %rcx
 863 065d 488D45C0 		leaq	-64(%rbp), %rax
 864 0661 BA390000 		movl	$57, %edx
 864      00
 865 0666 4889CE   		movq	%rcx, %rsi
 866 0669 4889C7   		movq	%rax, %rdi
 867 066c E8000000 		call	_ZN8UnitTest11TestDetailsC1ERKS0_i@PLT
 867      00
 868              	.LEHE60:
 869              		.loc 3 57 0 is_stmt 0 discriminator 2
 870 0671 C645BC00 		movb	$0, -68(%rbp)
 871              	.LEHB61:
 872 0675 E8000000 		call	_ZN8UnitTest11CurrentTest7ResultsEv@PLT
 872      00
 873 067a 488B00   		movq	(%rax), %rax
 874 067d 488D4DC0 		leaq	-64(%rbp), %rcx
 875 0681 488D55BB 		leaq	-69(%rbp), %rdx
 876 0685 488D75BC 		leaq	-68(%rbp), %rsi
 877 0689 4889C7   		movq	%rax, %rdi
 878 068c E8000000 		call	_ZN8UnitTest10CheckEqualIbbEEvRNS_11TestResultsERKT_RKT0_RKNS_11TestDetailsE
 878      00
 879              	.LEHE61:
 880              	.L102:
 881              	.LEHB62:
  58:testConv.cpp  **** 	CHECK_EQUAL(11, nibble);
 882              		.loc 3 58 0 is_stmt 1
 883 0691 E8000000 		call	_ZN8UnitTest11CurrentTest7DetailsEv@PLT
 883      00
 884 0696 488B08   		movq	(%rax), %rcx
 885 0699 488D45C0 		leaq	-64(%rbp), %rax
 886 069d BA3A0000 		movl	$58, %edx
 886      00
 887 06a2 4889CE   		movq	%rcx, %rsi
 888 06a5 4889C7   		movq	%rax, %rdi
 889 06a8 E8000000 		call	_ZN8UnitTest11TestDetailsC1ERKS0_i@PLT
 889      00
 890              	.LEHE62:
 891              		.loc 3 58 0 is_stmt 0 discriminator 2
 892 06ad C745BC0B 		movl	$11, -68(%rbp)
 892      000000
 893              	.LEHB63:
 894 06b4 E8000000 		call	_ZN8UnitTest11CurrentTest7ResultsEv@PLT
 894      00
 895 06b9 488B00   		movq	(%rax), %rax
 896 06bc 488D4DC0 		leaq	-64(%rbp), %rcx
 897 06c0 488D55BA 		leaq	-70(%rbp), %rdx
 898 06c4 488D75BC 		leaq	-68(%rbp), %rsi
 899 06c8 4889C7   		movq	%rax, %rdi
 900 06cb E8000000 		call	_ZN8UnitTest10CheckEqualIihEEvRNS_11TestResultsERKT_RKT0_RKNS_11TestDetailsE
 900      00
 901              	.LEHE63:
 902              	.L106:
  59:testConv.cpp  **** 	status = getHexNibble('C', &nibble);
 903              		.loc 3 59 0 is_stmt 1
 904 06d0 488D45BA 		leaq	-70(%rbp), %rax
 905 06d4 4889C6   		movq	%rax, %rsi
 906 06d7 BF430000 		movl	$67, %edi
 906      00
 907              	.LEHB64:
 908 06dc E8000000 		call	getHexNibble@PLT
 908      00
 909              	.LEHE64:
 910 06e1 8845BB   		movb	%al, -69(%rbp)
 911              	.LEHB65:
  60:testConv.cpp  **** 	CHECK_EQUAL(false, status);
 912              		.loc 3 60 0
 913 06e4 E8000000 		call	_ZN8UnitTest11CurrentTest7DetailsEv@PLT
 913      00
 914 06e9 488B08   		movq	(%rax), %rcx
 915 06ec 488D45C0 		leaq	-64(%rbp), %rax
 916 06f0 BA3C0000 		movl	$60, %edx
 916      00
 917 06f5 4889CE   		movq	%rcx, %rsi
 918 06f8 4889C7   		movq	%rax, %rdi
 919 06fb E8000000 		call	_ZN8UnitTest11TestDetailsC1ERKS0_i@PLT
 919      00
 920              	.LEHE65:
 921              		.loc 3 60 0 is_stmt 0 discriminator 2
 922 0700 C645BC00 		movb	$0, -68(%rbp)
 923              	.LEHB66:
 924 0704 E8000000 		call	_ZN8UnitTest11CurrentTest7ResultsEv@PLT
 924      00
 925 0709 488B00   		movq	(%rax), %rax
 926 070c 488D4DC0 		leaq	-64(%rbp), %rcx
 927 0710 488D55BB 		leaq	-69(%rbp), %rdx
 928 0714 488D75BC 		leaq	-68(%rbp), %rsi
 929 0718 4889C7   		movq	%rax, %rdi
 930 071b E8000000 		call	_ZN8UnitTest10CheckEqualIbbEEvRNS_11TestResultsERKT_RKT0_RKNS_11TestDetailsE
 930      00
 931              	.LEHE66:
 932              	.L110:
 933              	.LEHB67:
  61:testConv.cpp  **** 	CHECK_EQUAL(12, nibble);
 934              		.loc 3 61 0 is_stmt 1
 935 0720 E8000000 		call	_ZN8UnitTest11CurrentTest7DetailsEv@PLT
 935      00
 936 0725 488B08   		movq	(%rax), %rcx
 937 0728 488D45C0 		leaq	-64(%rbp), %rax
 938 072c BA3D0000 		movl	$61, %edx
 938      00
 939 0731 4889CE   		movq	%rcx, %rsi
 940 0734 4889C7   		movq	%rax, %rdi
 941 0737 E8000000 		call	_ZN8UnitTest11TestDetailsC1ERKS0_i@PLT
 941      00
 942              	.LEHE67:
 943              		.loc 3 61 0 is_stmt 0 discriminator 2
 944 073c C745BC0C 		movl	$12, -68(%rbp)
 944      000000
 945              	.LEHB68:
 946 0743 E8000000 		call	_ZN8UnitTest11CurrentTest7ResultsEv@PLT
 946      00
 947 0748 488B00   		movq	(%rax), %rax
 948 074b 488D4DC0 		leaq	-64(%rbp), %rcx
 949 074f 488D55BA 		leaq	-70(%rbp), %rdx
 950 0753 488D75BC 		leaq	-68(%rbp), %rsi
 951 0757 4889C7   		movq	%rax, %rdi
 952 075a E8000000 		call	_ZN8UnitTest10CheckEqualIihEEvRNS_11TestResultsERKT_RKT0_RKNS_11TestDetailsE
 952      00
 953              	.LEHE68:
 954              	.L114:
  62:testConv.cpp  **** 	status = getHexNibble('D', &nibble);
 955              		.loc 3 62 0 is_stmt 1
 956 075f 488D45BA 		leaq	-70(%rbp), %rax
 957 0763 4889C6   		movq	%rax, %rsi
 958 0766 BF440000 		movl	$68, %edi
 958      00
 959              	.LEHB69:
 960 076b E8000000 		call	getHexNibble@PLT
 960      00
 961              	.LEHE69:
 962 0770 8845BB   		movb	%al, -69(%rbp)
 963              	.LEHB70:
  63:testConv.cpp  **** 	CHECK_EQUAL(false, status);
 964              		.loc 3 63 0
 965 0773 E8000000 		call	_ZN8UnitTest11CurrentTest7DetailsEv@PLT
 965      00
 966 0778 488B08   		movq	(%rax), %rcx
 967 077b 488D45C0 		leaq	-64(%rbp), %rax
 968 077f BA3F0000 		movl	$63, %edx
 968      00
 969 0784 4889CE   		movq	%rcx, %rsi
 970 0787 4889C7   		movq	%rax, %rdi
 971 078a E8000000 		call	_ZN8UnitTest11TestDetailsC1ERKS0_i@PLT
 971      00
 972              	.LEHE70:
 973              		.loc 3 63 0 is_stmt 0 discriminator 2
 974 078f C645BC00 		movb	$0, -68(%rbp)
 975              	.LEHB71:
 976 0793 E8000000 		call	_ZN8UnitTest11CurrentTest7ResultsEv@PLT
 976      00
 977 0798 488B00   		movq	(%rax), %rax
 978 079b 488D4DC0 		leaq	-64(%rbp), %rcx
 979 079f 488D55BB 		leaq	-69(%rbp), %rdx
 980 07a3 488D75BC 		leaq	-68(%rbp), %rsi
 981 07a7 4889C7   		movq	%rax, %rdi
 982 07aa E8000000 		call	_ZN8UnitTest10CheckEqualIbbEEvRNS_11TestResultsERKT_RKT0_RKNS_11TestDetailsE
 982      00
 983              	.LEHE71:
 984              	.L118:
 985              	.LEHB72:
  64:testConv.cpp  **** 	CHECK_EQUAL(13, nibble);
 986              		.loc 3 64 0 is_stmt 1
 987 07af E8000000 		call	_ZN8UnitTest11CurrentTest7DetailsEv@PLT
 987      00
 988 07b4 488B08   		movq	(%rax), %rcx
 989 07b7 488D45C0 		leaq	-64(%rbp), %rax
 990 07bb BA400000 		movl	$64, %edx
 990      00
 991 07c0 4889CE   		movq	%rcx, %rsi
 992 07c3 4889C7   		movq	%rax, %rdi
 993 07c6 E8000000 		call	_ZN8UnitTest11TestDetailsC1ERKS0_i@PLT
 993      00
 994              	.LEHE72:
 995              		.loc 3 64 0 is_stmt 0 discriminator 2
 996 07cb C745BC0D 		movl	$13, -68(%rbp)
 996      000000
 997              	.LEHB73:
 998 07d2 E8000000 		call	_ZN8UnitTest11CurrentTest7ResultsEv@PLT
 998      00
 999 07d7 488B00   		movq	(%rax), %rax
 1000 07da 488D4DC0 		leaq	-64(%rbp), %rcx
 1001 07de 488D55BA 		leaq	-70(%rbp), %rdx
 1002 07e2 488D75BC 		leaq	-68(%rbp), %rsi
 1003 07e6 4889C7   		movq	%rax, %rdi
 1004 07e9 E8000000 		call	_ZN8UnitTest10CheckEqualIihEEvRNS_11TestResultsERKT_RKT0_RKNS_11TestDetailsE
 1004      00
 1005              	.LEHE73:
 1006              	.L122:
  65:testConv.cpp  **** 	status = getHexNibble('E', &nibble);
 1007              		.loc 3 65 0 is_stmt 1
 1008 07ee 488D45BA 		leaq	-70(%rbp), %rax
 1009 07f2 4889C6   		movq	%rax, %rsi
 1010 07f5 BF450000 		movl	$69, %edi
 1010      00
 1011              	.LEHB74:
 1012 07fa E8000000 		call	getHexNibble@PLT
 1012      00
 1013              	.LEHE74:
 1014 07ff 8845BB   		movb	%al, -69(%rbp)
 1015              	.LEHB75:
  66:testConv.cpp  **** 	CHECK_EQUAL(false, status);
 1016              		.loc 3 66 0
 1017 0802 E8000000 		call	_ZN8UnitTest11CurrentTest7DetailsEv@PLT
 1017      00
 1018 0807 488B08   		movq	(%rax), %rcx
 1019 080a 488D45C0 		leaq	-64(%rbp), %rax
 1020 080e BA420000 		movl	$66, %edx
 1020      00
 1021 0813 4889CE   		movq	%rcx, %rsi
 1022 0816 4889C7   		movq	%rax, %rdi
 1023 0819 E8000000 		call	_ZN8UnitTest11TestDetailsC1ERKS0_i@PLT
 1023      00
 1024              	.LEHE75:
 1025              		.loc 3 66 0 is_stmt 0 discriminator 2
 1026 081e C645BC00 		movb	$0, -68(%rbp)
 1027              	.LEHB76:
 1028 0822 E8000000 		call	_ZN8UnitTest11CurrentTest7ResultsEv@PLT
 1028      00
 1029 0827 488B00   		movq	(%rax), %rax
 1030 082a 488D4DC0 		leaq	-64(%rbp), %rcx
 1031 082e 488D55BB 		leaq	-69(%rbp), %rdx
 1032 0832 488D75BC 		leaq	-68(%rbp), %rsi
 1033 0836 4889C7   		movq	%rax, %rdi
 1034 0839 E8000000 		call	_ZN8UnitTest10CheckEqualIbbEEvRNS_11TestResultsERKT_RKT0_RKNS_11TestDetailsE
 1034      00
 1035              	.LEHE76:
 1036              	.L126:
 1037              	.LEHB77:
  67:testConv.cpp  **** 	CHECK_EQUAL(14, nibble);
 1038              		.loc 3 67 0 is_stmt 1
 1039 083e E8000000 		call	_ZN8UnitTest11CurrentTest7DetailsEv@PLT
 1039      00
 1040 0843 488B08   		movq	(%rax), %rcx
 1041 0846 488D45C0 		leaq	-64(%rbp), %rax
 1042 084a BA430000 		movl	$67, %edx
 1042      00
 1043 084f 4889CE   		movq	%rcx, %rsi
 1044 0852 4889C7   		movq	%rax, %rdi
 1045 0855 E8000000 		call	_ZN8UnitTest11TestDetailsC1ERKS0_i@PLT
 1045      00
 1046              	.LEHE77:
 1047              		.loc 3 67 0 is_stmt 0 discriminator 2
 1048 085a C745BC0E 		movl	$14, -68(%rbp)
 1048      000000
 1049              	.LEHB78:
 1050 0861 E8000000 		call	_ZN8UnitTest11CurrentTest7ResultsEv@PLT
 1050      00
 1051 0866 488B00   		movq	(%rax), %rax
 1052 0869 488D4DC0 		leaq	-64(%rbp), %rcx
 1053 086d 488D55BA 		leaq	-70(%rbp), %rdx
 1054 0871 488D75BC 		leaq	-68(%rbp), %rsi
 1055 0875 4889C7   		movq	%rax, %rdi
 1056 0878 E8000000 		call	_ZN8UnitTest10CheckEqualIihEEvRNS_11TestResultsERKT_RKT0_RKNS_11TestDetailsE
 1056      00
 1057              	.LEHE78:
 1058              	.L130:
  68:testConv.cpp  **** 	status = getHexNibble('F', &nibble);
 1059              		.loc 3 68 0 is_stmt 1
 1060 087d 488D45BA 		leaq	-70(%rbp), %rax
 1061 0881 4889C6   		movq	%rax, %rsi
 1062 0884 BF460000 		movl	$70, %edi
 1062      00
 1063              	.LEHB79:
 1064 0889 E8000000 		call	getHexNibble@PLT
 1064      00
 1065              	.LEHE79:
 1066 088e 8845BB   		movb	%al, -69(%rbp)
 1067              	.LEHB80:
  69:testConv.cpp  **** 	CHECK_EQUAL(false, status);
 1068              		.loc 3 69 0
 1069 0891 E8000000 		call	_ZN8UnitTest11CurrentTest7DetailsEv@PLT
 1069      00
 1070 0896 488B08   		movq	(%rax), %rcx
 1071 0899 488D45C0 		leaq	-64(%rbp), %rax
 1072 089d BA450000 		movl	$69, %edx
 1072      00
 1073 08a2 4889CE   		movq	%rcx, %rsi
 1074 08a5 4889C7   		movq	%rax, %rdi
 1075 08a8 E8000000 		call	_ZN8UnitTest11TestDetailsC1ERKS0_i@PLT
 1075      00
 1076              	.LEHE80:
 1077              		.loc 3 69 0 is_stmt 0 discriminator 2
 1078 08ad C645BC00 		movb	$0, -68(%rbp)
 1079              	.LEHB81:
 1080 08b1 E8000000 		call	_ZN8UnitTest11CurrentTest7ResultsEv@PLT
 1080      00
 1081 08b6 488B00   		movq	(%rax), %rax
 1082 08b9 488D4DC0 		leaq	-64(%rbp), %rcx
 1083 08bd 488D55BB 		leaq	-69(%rbp), %rdx
 1084 08c1 488D75BC 		leaq	-68(%rbp), %rsi
 1085 08c5 4889C7   		movq	%rax, %rdi
 1086 08c8 E8000000 		call	_ZN8UnitTest10CheckEqualIbbEEvRNS_11TestResultsERKT_RKT0_RKNS_11TestDetailsE
 1086      00
 1087              	.LEHE81:
 1088              	.L134:
 1089              	.LEHB82:
  70:testConv.cpp  **** 	CHECK_EQUAL(15, nibble);
 1090              		.loc 3 70 0 is_stmt 1
 1091 08cd E8000000 		call	_ZN8UnitTest11CurrentTest7DetailsEv@PLT
 1091      00
 1092 08d2 488B08   		movq	(%rax), %rcx
 1093 08d5 488D45C0 		leaq	-64(%rbp), %rax
 1094 08d9 BA460000 		movl	$70, %edx
 1094      00
 1095 08de 4889CE   		movq	%rcx, %rsi
 1096 08e1 4889C7   		movq	%rax, %rdi
 1097 08e4 E8000000 		call	_ZN8UnitTest11TestDetailsC1ERKS0_i@PLT
 1097      00
 1098              	.LEHE82:
 1099              		.loc 3 70 0 is_stmt 0 discriminator 2
 1100 08e9 C745BC0F 		movl	$15, -68(%rbp)
 1100      000000
 1101              	.LEHB83:
 1102 08f0 E8000000 		call	_ZN8UnitTest11CurrentTest7ResultsEv@PLT
 1102      00
 1103 08f5 488B00   		movq	(%rax), %rax
 1104 08f8 488D4DC0 		leaq	-64(%rbp), %rcx
 1105 08fc 488D55BA 		leaq	-70(%rbp), %rdx
 1106 0900 488D75BC 		leaq	-68(%rbp), %rsi
 1107 0904 4889C7   		movq	%rax, %rdi
 1108 0907 E8000000 		call	_ZN8UnitTest10CheckEqualIihEEvRNS_11TestResultsERKT_RKT0_RKNS_11TestDetailsE
 1108      00
 1109              	.LEHE83:
 1110              	.L138:
  71:testConv.cpp  **** 	status = getHexNibble('a', &nibble);
 1111              		.loc 3 71 0 is_stmt 1
 1112 090c 488D45BA 		leaq	-70(%rbp), %rax
 1113 0910 4889C6   		movq	%rax, %rsi
 1114 0913 BF610000 		movl	$97, %edi
 1114      00
 1115              	.LEHB84:
 1116 0918 E8000000 		call	getHexNibble@PLT
 1116      00
 1117              	.LEHE84:
 1118 091d 8845BB   		movb	%al, -69(%rbp)
 1119              	.LEHB85:
  72:testConv.cpp  **** 	CHECK_EQUAL(false, status);
 1120              		.loc 3 72 0
 1121 0920 E8000000 		call	_ZN8UnitTest11CurrentTest7DetailsEv@PLT
 1121      00
 1122 0925 488B08   		movq	(%rax), %rcx
 1123 0928 488D45C0 		leaq	-64(%rbp), %rax
 1124 092c BA480000 		movl	$72, %edx
 1124      00
 1125 0931 4889CE   		movq	%rcx, %rsi
 1126 0934 4889C7   		movq	%rax, %rdi
 1127 0937 E8000000 		call	_ZN8UnitTest11TestDetailsC1ERKS0_i@PLT
 1127      00
 1128              	.LEHE85:
 1129              		.loc 3 72 0 is_stmt 0 discriminator 2
 1130 093c C645BC00 		movb	$0, -68(%rbp)
 1131              	.LEHB86:
 1132 0940 E8000000 		call	_ZN8UnitTest11CurrentTest7ResultsEv@PLT
 1132      00
 1133 0945 488B00   		movq	(%rax), %rax
 1134 0948 488D4DC0 		leaq	-64(%rbp), %rcx
 1135 094c 488D55BB 		leaq	-69(%rbp), %rdx
 1136 0950 488D75BC 		leaq	-68(%rbp), %rsi
 1137 0954 4889C7   		movq	%rax, %rdi
 1138 0957 E8000000 		call	_ZN8UnitTest10CheckEqualIbbEEvRNS_11TestResultsERKT_RKT0_RKNS_11TestDetailsE
 1138      00
 1139              	.LEHE86:
 1140              	.L142:
 1141              	.LEHB87:
  73:testConv.cpp  **** 	CHECK_EQUAL(10, nibble);
 1142              		.loc 3 73 0 is_stmt 1
 1143 095c E8000000 		call	_ZN8UnitTest11CurrentTest7DetailsEv@PLT
 1143      00
 1144 0961 488B08   		movq	(%rax), %rcx
 1145 0964 488D45C0 		leaq	-64(%rbp), %rax
 1146 0968 BA490000 		movl	$73, %edx
 1146      00
 1147 096d 4889CE   		movq	%rcx, %rsi
 1148 0970 4889C7   		movq	%rax, %rdi
 1149 0973 E8000000 		call	_ZN8UnitTest11TestDetailsC1ERKS0_i@PLT
 1149      00
 1150              	.LEHE87:
 1151              		.loc 3 73 0 is_stmt 0 discriminator 2
 1152 0978 C745BC0A 		movl	$10, -68(%rbp)
 1152      000000
 1153              	.LEHB88:
 1154 097f E8000000 		call	_ZN8UnitTest11CurrentTest7ResultsEv@PLT
 1154      00
 1155 0984 488B00   		movq	(%rax), %rax
 1156 0987 488D4DC0 		leaq	-64(%rbp), %rcx
 1157 098b 488D55BA 		leaq	-70(%rbp), %rdx
 1158 098f 488D75BC 		leaq	-68(%rbp), %rsi
 1159 0993 4889C7   		movq	%rax, %rdi
 1160 0996 E8000000 		call	_ZN8UnitTest10CheckEqualIihEEvRNS_11TestResultsERKT_RKT0_RKNS_11TestDetailsE
 1160      00
 1161              	.LEHE88:
 1162              	.L146:
  74:testConv.cpp  **** 	status = getHexNibble('b', &nibble);
 1163              		.loc 3 74 0 is_stmt 1
 1164 099b 488D45BA 		leaq	-70(%rbp), %rax
 1165 099f 4889C6   		movq	%rax, %rsi
 1166 09a2 BF620000 		movl	$98, %edi
 1166      00
 1167              	.LEHB89:
 1168 09a7 E8000000 		call	getHexNibble@PLT
 1168      00
 1169              	.LEHE89:
 1170 09ac 8845BB   		movb	%al, -69(%rbp)
 1171              	.LEHB90:
  75:testConv.cpp  **** 	CHECK_EQUAL(false, status);
 1172              		.loc 3 75 0
 1173 09af E8000000 		call	_ZN8UnitTest11CurrentTest7DetailsEv@PLT
 1173      00
 1174 09b4 488B08   		movq	(%rax), %rcx
 1175 09b7 488D45C0 		leaq	-64(%rbp), %rax
 1176 09bb BA4B0000 		movl	$75, %edx
 1176      00
 1177 09c0 4889CE   		movq	%rcx, %rsi
 1178 09c3 4889C7   		movq	%rax, %rdi
 1179 09c6 E8000000 		call	_ZN8UnitTest11TestDetailsC1ERKS0_i@PLT
 1179      00
 1180              	.LEHE90:
 1181              		.loc 3 75 0 is_stmt 0 discriminator 2
 1182 09cb C645BC00 		movb	$0, -68(%rbp)
 1183              	.LEHB91:
 1184 09cf E8000000 		call	_ZN8UnitTest11CurrentTest7ResultsEv@PLT
 1184      00
 1185 09d4 488B00   		movq	(%rax), %rax
 1186 09d7 488D4DC0 		leaq	-64(%rbp), %rcx
 1187 09db 488D55BB 		leaq	-69(%rbp), %rdx
 1188 09df 488D75BC 		leaq	-68(%rbp), %rsi
 1189 09e3 4889C7   		movq	%rax, %rdi
 1190 09e6 E8000000 		call	_ZN8UnitTest10CheckEqualIbbEEvRNS_11TestResultsERKT_RKT0_RKNS_11TestDetailsE
 1190      00
 1191              	.LEHE91:
 1192              	.L150:
 1193              	.LEHB92:
  76:testConv.cpp  **** 	CHECK_EQUAL(11, nibble);
 1194              		.loc 3 76 0 is_stmt 1
 1195 09eb E8000000 		call	_ZN8UnitTest11CurrentTest7DetailsEv@PLT
 1195      00
 1196 09f0 488B08   		movq	(%rax), %rcx
 1197 09f3 488D45C0 		leaq	-64(%rbp), %rax
 1198 09f7 BA4C0000 		movl	$76, %edx
 1198      00
 1199 09fc 4889CE   		movq	%rcx, %rsi
 1200 09ff 4889C7   		movq	%rax, %rdi
 1201 0a02 E8000000 		call	_ZN8UnitTest11TestDetailsC1ERKS0_i@PLT
 1201      00
 1202              	.LEHE92:
 1203              		.loc 3 76 0 is_stmt 0 discriminator 2
 1204 0a07 C745BC0B 		movl	$11, -68(%rbp)
 1204      000000
 1205              	.LEHB93:
 1206 0a0e E8000000 		call	_ZN8UnitTest11CurrentTest7ResultsEv@PLT
 1206      00
 1207 0a13 488B00   		movq	(%rax), %rax
 1208 0a16 488D4DC0 		leaq	-64(%rbp), %rcx
 1209 0a1a 488D55BA 		leaq	-70(%rbp), %rdx
 1210 0a1e 488D75BC 		leaq	-68(%rbp), %rsi
 1211 0a22 4889C7   		movq	%rax, %rdi
 1212 0a25 E8000000 		call	_ZN8UnitTest10CheckEqualIihEEvRNS_11TestResultsERKT_RKT0_RKNS_11TestDetailsE
 1212      00
 1213              	.LEHE93:
 1214              	.L154:
  77:testConv.cpp  **** 	status = getHexNibble('c', &nibble);
 1215              		.loc 3 77 0 is_stmt 1
 1216 0a2a 488D45BA 		leaq	-70(%rbp), %rax
 1217 0a2e 4889C6   		movq	%rax, %rsi
 1218 0a31 BF630000 		movl	$99, %edi
 1218      00
 1219              	.LEHB94:
 1220 0a36 E8000000 		call	getHexNibble@PLT
 1220      00
 1221              	.LEHE94:
 1222 0a3b 8845BB   		movb	%al, -69(%rbp)
 1223              	.LEHB95:
  78:testConv.cpp  **** 	CHECK_EQUAL(false, status);
 1224              		.loc 3 78 0
 1225 0a3e E8000000 		call	_ZN8UnitTest11CurrentTest7DetailsEv@PLT
 1225      00
 1226 0a43 488B08   		movq	(%rax), %rcx
 1227 0a46 488D45C0 		leaq	-64(%rbp), %rax
 1228 0a4a BA4E0000 		movl	$78, %edx
 1228      00
 1229 0a4f 4889CE   		movq	%rcx, %rsi
 1230 0a52 4889C7   		movq	%rax, %rdi
 1231 0a55 E8000000 		call	_ZN8UnitTest11TestDetailsC1ERKS0_i@PLT
 1231      00
 1232              	.LEHE95:
 1233              		.loc 3 78 0 is_stmt 0 discriminator 2
 1234 0a5a C645BC00 		movb	$0, -68(%rbp)
 1235              	.LEHB96:
 1236 0a5e E8000000 		call	_ZN8UnitTest11CurrentTest7ResultsEv@PLT
 1236      00
 1237 0a63 488B00   		movq	(%rax), %rax
 1238 0a66 488D4DC0 		leaq	-64(%rbp), %rcx
 1239 0a6a 488D55BB 		leaq	-69(%rbp), %rdx
 1240 0a6e 488D75BC 		leaq	-68(%rbp), %rsi
 1241 0a72 4889C7   		movq	%rax, %rdi
 1242 0a75 E8000000 		call	_ZN8UnitTest10CheckEqualIbbEEvRNS_11TestResultsERKT_RKT0_RKNS_11TestDetailsE
 1242      00
 1243              	.LEHE96:
 1244              	.L158:
 1245              	.LEHB97:
  79:testConv.cpp  **** 	CHECK_EQUAL(12, nibble);
 1246              		.loc 3 79 0 is_stmt 1
 1247 0a7a E8000000 		call	_ZN8UnitTest11CurrentTest7DetailsEv@PLT
 1247      00
 1248 0a7f 488B08   		movq	(%rax), %rcx
 1249 0a82 488D45C0 		leaq	-64(%rbp), %rax
 1250 0a86 BA4F0000 		movl	$79, %edx
 1250      00
 1251 0a8b 4889CE   		movq	%rcx, %rsi
 1252 0a8e 4889C7   		movq	%rax, %rdi
 1253 0a91 E8000000 		call	_ZN8UnitTest11TestDetailsC1ERKS0_i@PLT
 1253      00
 1254              	.LEHE97:
 1255              		.loc 3 79 0 is_stmt 0 discriminator 2
 1256 0a96 C745BC0C 		movl	$12, -68(%rbp)
 1256      000000
 1257              	.LEHB98:
 1258 0a9d E8000000 		call	_ZN8UnitTest11CurrentTest7ResultsEv@PLT
 1258      00
 1259 0aa2 488B00   		movq	(%rax), %rax
 1260 0aa5 488D4DC0 		leaq	-64(%rbp), %rcx
 1261 0aa9 488D55BA 		leaq	-70(%rbp), %rdx
 1262 0aad 488D75BC 		leaq	-68(%rbp), %rsi
 1263 0ab1 4889C7   		movq	%rax, %rdi
 1264 0ab4 E8000000 		call	_ZN8UnitTest10CheckEqualIihEEvRNS_11TestResultsERKT_RKT0_RKNS_11TestDetailsE
 1264      00
 1265              	.LEHE98:
 1266              	.L162:
  80:testConv.cpp  **** 	status = getHexNibble('d', &nibble);
 1267              		.loc 3 80 0 is_stmt 1
 1268 0ab9 488D45BA 		leaq	-70(%rbp), %rax
 1269 0abd 4889C6   		movq	%rax, %rsi
 1270 0ac0 BF640000 		movl	$100, %edi
 1270      00
 1271              	.LEHB99:
 1272 0ac5 E8000000 		call	getHexNibble@PLT
 1272      00
 1273              	.LEHE99:
 1274 0aca 8845BB   		movb	%al, -69(%rbp)
 1275              	.LEHB100:
  81:testConv.cpp  **** 	CHECK_EQUAL(false, status);
 1276              		.loc 3 81 0
 1277 0acd E8000000 		call	_ZN8UnitTest11CurrentTest7DetailsEv@PLT
 1277      00
 1278 0ad2 488B08   		movq	(%rax), %rcx
 1279 0ad5 488D45C0 		leaq	-64(%rbp), %rax
 1280 0ad9 BA510000 		movl	$81, %edx
 1280      00
 1281 0ade 4889CE   		movq	%rcx, %rsi
 1282 0ae1 4889C7   		movq	%rax, %rdi
 1283 0ae4 E8000000 		call	_ZN8UnitTest11TestDetailsC1ERKS0_i@PLT
 1283      00
 1284              	.LEHE100:
 1285              		.loc 3 81 0 is_stmt 0 discriminator 2
 1286 0ae9 C645BC00 		movb	$0, -68(%rbp)
 1287              	.LEHB101:
 1288 0aed E8000000 		call	_ZN8UnitTest11CurrentTest7ResultsEv@PLT
 1288      00
 1289 0af2 488B00   		movq	(%rax), %rax
 1290 0af5 488D4DC0 		leaq	-64(%rbp), %rcx
 1291 0af9 488D55BB 		leaq	-69(%rbp), %rdx
 1292 0afd 488D75BC 		leaq	-68(%rbp), %rsi
 1293 0b01 4889C7   		movq	%rax, %rdi
 1294 0b04 E8000000 		call	_ZN8UnitTest10CheckEqualIbbEEvRNS_11TestResultsERKT_RKT0_RKNS_11TestDetailsE
 1294      00
 1295              	.LEHE101:
 1296              	.L166:
 1297              	.LEHB102:
  82:testConv.cpp  **** 	CHECK_EQUAL(13, nibble);
 1298              		.loc 3 82 0 is_stmt 1
 1299 0b09 E8000000 		call	_ZN8UnitTest11CurrentTest7DetailsEv@PLT
 1299      00
 1300 0b0e 488B08   		movq	(%rax), %rcx
 1301 0b11 488D45C0 		leaq	-64(%rbp), %rax
 1302 0b15 BA520000 		movl	$82, %edx
 1302      00
 1303 0b1a 4889CE   		movq	%rcx, %rsi
 1304 0b1d 4889C7   		movq	%rax, %rdi
 1305 0b20 E8000000 		call	_ZN8UnitTest11TestDetailsC1ERKS0_i@PLT
 1305      00
 1306              	.LEHE102:
 1307              		.loc 3 82 0 is_stmt 0 discriminator 2
 1308 0b25 C745BC0D 		movl	$13, -68(%rbp)
 1308      000000
 1309              	.LEHB103:
 1310 0b2c E8000000 		call	_ZN8UnitTest11CurrentTest7ResultsEv@PLT
 1310      00
 1311 0b31 488B00   		movq	(%rax), %rax
 1312 0b34 488D4DC0 		leaq	-64(%rbp), %rcx
 1313 0b38 488D55BA 		leaq	-70(%rbp), %rdx
 1314 0b3c 488D75BC 		leaq	-68(%rbp), %rsi
 1315 0b40 4889C7   		movq	%rax, %rdi
 1316 0b43 E8000000 		call	_ZN8UnitTest10CheckEqualIihEEvRNS_11TestResultsERKT_RKT0_RKNS_11TestDetailsE
 1316      00
 1317              	.LEHE103:
 1318              	.L170:
  83:testConv.cpp  **** 	status = getHexNibble('e', &nibble);
 1319              		.loc 3 83 0 is_stmt 1
 1320 0b48 488D45BA 		leaq	-70(%rbp), %rax
 1321 0b4c 4889C6   		movq	%rax, %rsi
 1322 0b4f BF650000 		movl	$101, %edi
 1322      00
 1323              	.LEHB104:
 1324 0b54 E8000000 		call	getHexNibble@PLT
 1324      00
 1325              	.LEHE104:
 1326 0b59 8845BB   		movb	%al, -69(%rbp)
 1327              	.LEHB105:
  84:testConv.cpp  **** 	CHECK_EQUAL(false, status);
 1328              		.loc 3 84 0
 1329 0b5c E8000000 		call	_ZN8UnitTest11CurrentTest7DetailsEv@PLT
 1329      00
 1330 0b61 488B08   		movq	(%rax), %rcx
 1331 0b64 488D45C0 		leaq	-64(%rbp), %rax
 1332 0b68 BA540000 		movl	$84, %edx
 1332      00
 1333 0b6d 4889CE   		movq	%rcx, %rsi
 1334 0b70 4889C7   		movq	%rax, %rdi
 1335 0b73 E8000000 		call	_ZN8UnitTest11TestDetailsC1ERKS0_i@PLT
 1335      00
 1336              	.LEHE105:
 1337              		.loc 3 84 0 is_stmt 0 discriminator 2
 1338 0b78 C645BC00 		movb	$0, -68(%rbp)
 1339              	.LEHB106:
 1340 0b7c E8000000 		call	_ZN8UnitTest11CurrentTest7ResultsEv@PLT
 1340      00
 1341 0b81 488B00   		movq	(%rax), %rax
 1342 0b84 488D4DC0 		leaq	-64(%rbp), %rcx
 1343 0b88 488D55BB 		leaq	-69(%rbp), %rdx
 1344 0b8c 488D75BC 		leaq	-68(%rbp), %rsi
 1345 0b90 4889C7   		movq	%rax, %rdi
 1346 0b93 E8000000 		call	_ZN8UnitTest10CheckEqualIbbEEvRNS_11TestResultsERKT_RKT0_RKNS_11TestDetailsE
 1346      00
 1347              	.LEHE106:
 1348              	.L174:
 1349              	.LEHB107:
  85:testConv.cpp  **** 	CHECK_EQUAL(14, nibble);
 1350              		.loc 3 85 0 is_stmt 1
 1351 0b98 E8000000 		call	_ZN8UnitTest11CurrentTest7DetailsEv@PLT
 1351      00
 1352 0b9d 488B08   		movq	(%rax), %rcx
 1353 0ba0 488D45C0 		leaq	-64(%rbp), %rax
 1354 0ba4 BA550000 		movl	$85, %edx
 1354      00
 1355 0ba9 4889CE   		movq	%rcx, %rsi
 1356 0bac 4889C7   		movq	%rax, %rdi
 1357 0baf E8000000 		call	_ZN8UnitTest11TestDetailsC1ERKS0_i@PLT
 1357      00
 1358              	.LEHE107:
 1359              		.loc 3 85 0 is_stmt 0 discriminator 2
 1360 0bb4 C745BC0E 		movl	$14, -68(%rbp)
 1360      000000
 1361              	.LEHB108:
 1362 0bbb E8000000 		call	_ZN8UnitTest11CurrentTest7ResultsEv@PLT
 1362      00
 1363 0bc0 488B00   		movq	(%rax), %rax
 1364 0bc3 488D4DC0 		leaq	-64(%rbp), %rcx
 1365 0bc7 488D55BA 		leaq	-70(%rbp), %rdx
 1366 0bcb 488D75BC 		leaq	-68(%rbp), %rsi
 1367 0bcf 4889C7   		movq	%rax, %rdi
 1368 0bd2 E8000000 		call	_ZN8UnitTest10CheckEqualIihEEvRNS_11TestResultsERKT_RKT0_RKNS_11TestDetailsE
 1368      00
 1369              	.LEHE108:
 1370              	.L178:
  86:testConv.cpp  **** 	status = getHexNibble('f', &nibble);
 1371              		.loc 3 86 0 is_stmt 1
 1372 0bd7 488D45BA 		leaq	-70(%rbp), %rax
 1373 0bdb 4889C6   		movq	%rax, %rsi
 1374 0bde BF660000 		movl	$102, %edi
 1374      00
 1375              	.LEHB109:
 1376 0be3 E8000000 		call	getHexNibble@PLT
 1376      00
 1377              	.LEHE109:
 1378 0be8 8845BB   		movb	%al, -69(%rbp)
 1379              	.LEHB110:
  87:testConv.cpp  **** 	CHECK_EQUAL(false, status);
 1380              		.loc 3 87 0
 1381 0beb E8000000 		call	_ZN8UnitTest11CurrentTest7DetailsEv@PLT
 1381      00
 1382 0bf0 488B08   		movq	(%rax), %rcx
 1383 0bf3 488D45C0 		leaq	-64(%rbp), %rax
 1384 0bf7 BA570000 		movl	$87, %edx
 1384      00
 1385 0bfc 4889CE   		movq	%rcx, %rsi
 1386 0bff 4889C7   		movq	%rax, %rdi
 1387 0c02 E8000000 		call	_ZN8UnitTest11TestDetailsC1ERKS0_i@PLT
 1387      00
 1388              	.LEHE110:
 1389              		.loc 3 87 0 is_stmt 0 discriminator 2
 1390 0c07 C645BC00 		movb	$0, -68(%rbp)
 1391              	.LEHB111:
 1392 0c0b E8000000 		call	_ZN8UnitTest11CurrentTest7ResultsEv@PLT
 1392      00
 1393 0c10 488B00   		movq	(%rax), %rax
 1394 0c13 488D4DC0 		leaq	-64(%rbp), %rcx
 1395 0c17 488D55BB 		leaq	-69(%rbp), %rdx
 1396 0c1b 488D75BC 		leaq	-68(%rbp), %rsi
 1397 0c1f 4889C7   		movq	%rax, %rdi
 1398 0c22 E8000000 		call	_ZN8UnitTest10CheckEqualIbbEEvRNS_11TestResultsERKT_RKT0_RKNS_11TestDetailsE
 1398      00
 1399              	.LEHE111:
 1400              	.L182:
 1401              	.LEHB112:
  88:testConv.cpp  **** 	CHECK_EQUAL(15, nibble);
 1402              		.loc 3 88 0 is_stmt 1
 1403 0c27 E8000000 		call	_ZN8UnitTest11CurrentTest7DetailsEv@PLT
 1403      00
 1404 0c2c 488B08   		movq	(%rax), %rcx
 1405 0c2f 488D45C0 		leaq	-64(%rbp), %rax
 1406 0c33 BA580000 		movl	$88, %edx
 1406      00
 1407 0c38 4889CE   		movq	%rcx, %rsi
 1408 0c3b 4889C7   		movq	%rax, %rdi
 1409 0c3e E8000000 		call	_ZN8UnitTest11TestDetailsC1ERKS0_i@PLT
 1409      00
 1410              	.LEHE112:
 1411              		.loc 3 88 0 is_stmt 0 discriminator 2
 1412 0c43 C745BC0F 		movl	$15, -68(%rbp)
 1412      000000
 1413              	.LEHB113:
 1414 0c4a E8000000 		call	_ZN8UnitTest11CurrentTest7ResultsEv@PLT
 1414      00
 1415 0c4f 488B00   		movq	(%rax), %rax
 1416 0c52 488D4DC0 		leaq	-64(%rbp), %rcx
 1417 0c56 488D55BA 		leaq	-70(%rbp), %rdx
 1418 0c5a 488D75BC 		leaq	-68(%rbp), %rsi
 1419 0c5e 4889C7   		movq	%rax, %rdi
 1420 0c61 E8000000 		call	_ZN8UnitTest10CheckEqualIihEEvRNS_11TestResultsERKT_RKT0_RKNS_11TestDetailsE
 1420      00
 1421              	.LEHE113:
 1422              	.L186:
  89:testConv.cpp  **** 	status = getHexNibble('.', &nibble);
 1423              		.loc 3 89 0 is_stmt 1
 1424 0c66 488D45BA 		leaq	-70(%rbp), %rax
 1425 0c6a 4889C6   		movq	%rax, %rsi
 1426 0c6d BF2E0000 		movl	$46, %edi
 1426      00
 1427              	.LEHB114:
 1428 0c72 E8000000 		call	getHexNibble@PLT
 1428      00
 1429              	.LEHE114:
 1430 0c77 8845BB   		movb	%al, -69(%rbp)
 1431              	.LEHB115:
  90:testConv.cpp  **** 	CHECK_EQUAL(true, status);
 1432              		.loc 3 90 0
 1433 0c7a E8000000 		call	_ZN8UnitTest11CurrentTest7DetailsEv@PLT
 1433      00
 1434 0c7f 488B08   		movq	(%rax), %rcx
 1435 0c82 488D45C0 		leaq	-64(%rbp), %rax
 1436 0c86 BA5A0000 		movl	$90, %edx
 1436      00
 1437 0c8b 4889CE   		movq	%rcx, %rsi
 1438 0c8e 4889C7   		movq	%rax, %rdi
 1439 0c91 E8000000 		call	_ZN8UnitTest11TestDetailsC1ERKS0_i@PLT
 1439      00
 1440              	.LEHE115:
 1441              		.loc 3 90 0 is_stmt 0 discriminator 2
 1442 0c96 C645BC01 		movb	$1, -68(%rbp)
 1443              	.LEHB116:
 1444 0c9a E8000000 		call	_ZN8UnitTest11CurrentTest7ResultsEv@PLT
 1444      00
 1445 0c9f 488B00   		movq	(%rax), %rax
 1446 0ca2 488D4DC0 		leaq	-64(%rbp), %rcx
 1447 0ca6 488D55BB 		leaq	-69(%rbp), %rdx
 1448 0caa 488D75BC 		leaq	-68(%rbp), %rsi
 1449 0cae 4889C7   		movq	%rax, %rdi
 1450 0cb1 E8000000 		call	_ZN8UnitTest10CheckEqualIbbEEvRNS_11TestResultsERKT_RKT0_RKNS_11TestDetailsE
 1450      00
 1451              	.LEHE116:
  91:testConv.cpp  **** }
 1452              		.loc 3 91 0 is_stmt 1
 1453 0cb6 E90A1100 		jmp	.L11
 1453      00
 1454              	.L194:
 1455 0cbb EB00     		jmp	.L13
 1456              	.L193:
 1457              	.L13:
  24:testConv.cpp  **** 	CHECK_EQUAL(0, nibble);
 1458              		.loc 3 24 0
 1459 0cbd 4889C7   		movq	%rax, %rdi
 1460 0cc0 E8000000 		call	__cxa_begin_catch@PLT
 1460      00
 1461              	.LEHB117:
 1462 0cc5 E8000000 		call	_ZN8UnitTest11CurrentTest7ResultsEv@PLT
 1462      00
 1463 0cca 488B18   		movq	(%rax), %rbx
 1464 0ccd E8000000 		call	_ZN8UnitTest11CurrentTest7DetailsEv@PLT
 1464      00
  24:testConv.cpp  **** 	CHECK_EQUAL(0, nibble);
 1465              		.loc 3 24 0 is_stmt 0 discriminator 8
 1466 0cd2 488B08   		movq	(%rax), %rcx
 1467 0cd5 488D45C0 		leaq	-64(%rbp), %rax
 1468 0cd9 BA180000 		movl	$24, %edx
 1468      00
 1469 0cde 4889CE   		movq	%rcx, %rsi
 1470 0ce1 4889C7   		movq	%rax, %rdi
 1471 0ce4 E8000000 		call	_ZN8UnitTest11TestDetailsC1ERKS0_i@PLT
 1471      00
  24:testConv.cpp  **** 	CHECK_EQUAL(0, nibble);
 1472              		.loc 3 24 0 discriminator 12
 1473 0ce9 488D45C0 		leaq	-64(%rbp), %rax
 1474 0ced 488D1500 		leaq	.LC3(%rip), %rdx
 1474      000000
 1475 0cf4 4889C6   		movq	%rax, %rsi
 1476 0cf7 4889DF   		movq	%rbx, %rdi
 1477 0cfa E8000000 		call	_ZN8UnitTest11TestResults13OnTestFailureERKNS_11TestDetailsEPKc@PLT
 1477      00
 1478              	.LEHE117:
 1479              	.LEHB118:
  24:testConv.cpp  **** 	CHECK_EQUAL(0, nibble);
 1480              		.loc 3 24 0 discriminator 14
 1481 0cff E8000000 		call	__cxa_end_catch@PLT
 1481      00
 1482              	.LEHE118:
 1483 0d04 E963F3FF 		jmp	.L14
 1483      FF
 1484              	.L195:
 1485 0d09 4889C3   		movq	%rax, %rbx
  24:testConv.cpp  **** 	CHECK_EQUAL(0, nibble);
 1486              		.loc 3 24 0
 1487 0d0c E8000000 		call	__cxa_end_catch@PLT
 1487      00
 1488 0d11 4889D8   		movq	%rbx, %rax
 1489 0d14 4889C7   		movq	%rax, %rdi
 1490              	.LEHB119:
 1491 0d17 E8000000 		call	_Unwind_Resume@PLT
 1491      00
 1492              	.LEHE119:
 1493              	.L197:
 1494 0d1c EB00     		jmp	.L17
 1495              	.L196:
 1496              	.L17:
  25:testConv.cpp  **** 	status = getHexNibble('1', &nibble);
 1497              		.loc 3 25 0 is_stmt 1
 1498 0d1e 4889C7   		movq	%rax, %rdi
 1499 0d21 E8000000 		call	__cxa_begin_catch@PLT
 1499      00
 1500              	.LEHB120:
 1501 0d26 E8000000 		call	_ZN8UnitTest11CurrentTest7ResultsEv@PLT
 1501      00
 1502 0d2b 488B18   		movq	(%rax), %rbx
 1503 0d2e E8000000 		call	_ZN8UnitTest11CurrentTest7DetailsEv@PLT
 1503      00
  25:testConv.cpp  **** 	status = getHexNibble('1', &nibble);
 1504              		.loc 3 25 0 is_stmt 0 discriminator 8
 1505 0d33 488B08   		movq	(%rax), %rcx
 1506 0d36 488D45C0 		leaq	-64(%rbp), %rax
 1507 0d3a BA190000 		movl	$25, %edx
 1507      00
 1508 0d3f 4889CE   		movq	%rcx, %rsi
 1509 0d42 4889C7   		movq	%rax, %rdi
 1510 0d45 E8000000 		call	_ZN8UnitTest11TestDetailsC1ERKS0_i@PLT
 1510      00
  25:testConv.cpp  **** 	status = getHexNibble('1', &nibble);
 1511              		.loc 3 25 0 discriminator 12
 1512 0d4a 488D45C0 		leaq	-64(%rbp), %rax
 1513 0d4e 488D1500 		leaq	.LC4(%rip), %rdx
 1513      000000
 1514 0d55 4889C6   		movq	%rax, %rsi
 1515 0d58 4889DF   		movq	%rbx, %rdi
 1516 0d5b E8000000 		call	_ZN8UnitTest11TestResults13OnTestFailureERKNS_11TestDetailsEPKc@PLT
 1516      00
 1517              	.LEHE120:
 1518              	.LEHB121:
  25:testConv.cpp  **** 	status = getHexNibble('1', &nibble);
 1519              		.loc 3 25 0 discriminator 14
 1520 0d60 E8000000 		call	__cxa_end_catch@PLT
 1520      00
 1521              	.LEHE121:
 1522 0d65 E941F3FF 		jmp	.L18
 1522      FF
 1523              	.L198:
 1524 0d6a 4889C3   		movq	%rax, %rbx
  25:testConv.cpp  **** 	status = getHexNibble('1', &nibble);
 1525              		.loc 3 25 0
 1526 0d6d E8000000 		call	__cxa_end_catch@PLT
 1526      00
 1527 0d72 4889D8   		movq	%rbx, %rax
 1528 0d75 4889C7   		movq	%rax, %rdi
 1529              	.LEHB122:
 1530 0d78 E8000000 		call	_Unwind_Resume@PLT
 1530      00
 1531              	.LEHE122:
 1532              	.L200:
 1533 0d7d EB00     		jmp	.L21
 1534              	.L199:
 1535              	.L21:
  27:testConv.cpp  **** 	CHECK_EQUAL(1, nibble);
 1536              		.loc 3 27 0 is_stmt 1
 1537 0d7f 4889C7   		movq	%rax, %rdi
 1538 0d82 E8000000 		call	__cxa_begin_catch@PLT
 1538      00
 1539              	.LEHB123:
 1540 0d87 E8000000 		call	_ZN8UnitTest11CurrentTest7ResultsEv@PLT
 1540      00
 1541 0d8c 488B18   		movq	(%rax), %rbx
 1542 0d8f E8000000 		call	_ZN8UnitTest11CurrentTest7DetailsEv@PLT
 1542      00
  27:testConv.cpp  **** 	CHECK_EQUAL(1, nibble);
 1543              		.loc 3 27 0 is_stmt 0 discriminator 8
 1544 0d94 488B08   		movq	(%rax), %rcx
 1545 0d97 488D45C0 		leaq	-64(%rbp), %rax
 1546 0d9b BA1B0000 		movl	$27, %edx
 1546      00
 1547 0da0 4889CE   		movq	%rcx, %rsi
 1548 0da3 4889C7   		movq	%rax, %rdi
 1549 0da6 E8000000 		call	_ZN8UnitTest11TestDetailsC1ERKS0_i@PLT
 1549      00
  27:testConv.cpp  **** 	CHECK_EQUAL(1, nibble);
 1550              		.loc 3 27 0 discriminator 12
 1551 0dab 488D45C0 		leaq	-64(%rbp), %rax
 1552 0daf 488D1500 		leaq	.LC3(%rip), %rdx
 1552      000000
 1553 0db6 4889C6   		movq	%rax, %rsi
 1554 0db9 4889DF   		movq	%rbx, %rdi
 1555 0dbc E8000000 		call	_ZN8UnitTest11TestResults13OnTestFailureERKNS_11TestDetailsEPKc@PLT
 1555      00
 1556              	.LEHE123:
 1557              	.LEHB124:
  27:testConv.cpp  **** 	CHECK_EQUAL(1, nibble);
 1558              		.loc 3 27 0 discriminator 14
 1559 0dc1 E8000000 		call	__cxa_end_catch@PLT
 1559      00
 1560              	.LEHE124:
 1561 0dc6 E930F3FF 		jmp	.L22
 1561      FF
 1562              	.L201:
 1563 0dcb 4889C3   		movq	%rax, %rbx
  27:testConv.cpp  **** 	CHECK_EQUAL(1, nibble);
 1564              		.loc 3 27 0
 1565 0dce E8000000 		call	__cxa_end_catch@PLT
 1565      00
 1566 0dd3 4889D8   		movq	%rbx, %rax
 1567 0dd6 4889C7   		movq	%rax, %rdi
 1568              	.LEHB125:
 1569 0dd9 E8000000 		call	_Unwind_Resume@PLT
 1569      00
 1570              	.LEHE125:
 1571              	.L203:
 1572 0dde EB00     		jmp	.L25
 1573              	.L202:
 1574              	.L25:
  28:testConv.cpp  **** 	status = getHexNibble('2', &nibble);
 1575              		.loc 3 28 0 is_stmt 1
 1576 0de0 4889C7   		movq	%rax, %rdi
 1577 0de3 E8000000 		call	__cxa_begin_catch@PLT
 1577      00
 1578              	.LEHB126:
 1579 0de8 E8000000 		call	_ZN8UnitTest11CurrentTest7ResultsEv@PLT
 1579      00
 1580 0ded 488B18   		movq	(%rax), %rbx
 1581 0df0 E8000000 		call	_ZN8UnitTest11CurrentTest7DetailsEv@PLT
 1581      00
  28:testConv.cpp  **** 	status = getHexNibble('2', &nibble);
 1582              		.loc 3 28 0 is_stmt 0 discriminator 8
 1583 0df5 488B08   		movq	(%rax), %rcx
 1584 0df8 488D45C0 		leaq	-64(%rbp), %rax
 1585 0dfc BA1C0000 		movl	$28, %edx
 1585      00
 1586 0e01 4889CE   		movq	%rcx, %rsi
 1587 0e04 4889C7   		movq	%rax, %rdi
 1588 0e07 E8000000 		call	_ZN8UnitTest11TestDetailsC1ERKS0_i@PLT
 1588      00
  28:testConv.cpp  **** 	status = getHexNibble('2', &nibble);
 1589              		.loc 3 28 0 discriminator 12
 1590 0e0c 488D45C0 		leaq	-64(%rbp), %rax
 1591 0e10 488D1500 		leaq	.LC5(%rip), %rdx
 1591      000000
 1592 0e17 4889C6   		movq	%rax, %rsi
 1593 0e1a 4889DF   		movq	%rbx, %rdi
 1594 0e1d E8000000 		call	_ZN8UnitTest11TestResults13OnTestFailureERKNS_11TestDetailsEPKc@PLT
 1594      00
 1595              	.LEHE126:
 1596              	.LEHB127:
  28:testConv.cpp  **** 	status = getHexNibble('2', &nibble);
 1597              		.loc 3 28 0 discriminator 14
 1598 0e22 E8000000 		call	__cxa_end_catch@PLT
 1598      00
 1599              	.LEHE127:
 1600 0e27 E90EF3FF 		jmp	.L26
 1600      FF
 1601              	.L204:
 1602 0e2c 4889C3   		movq	%rax, %rbx
  28:testConv.cpp  **** 	status = getHexNibble('2', &nibble);
 1603              		.loc 3 28 0
 1604 0e2f E8000000 		call	__cxa_end_catch@PLT
 1604      00
 1605 0e34 4889D8   		movq	%rbx, %rax
 1606 0e37 4889C7   		movq	%rax, %rdi
 1607              	.LEHB128:
 1608 0e3a E8000000 		call	_Unwind_Resume@PLT
 1608      00
 1609              	.LEHE128:
 1610              	.L206:
 1611 0e3f EB00     		jmp	.L29
 1612              	.L205:
 1613              	.L29:
  30:testConv.cpp  **** 	CHECK_EQUAL(2, nibble);
 1614              		.loc 3 30 0 is_stmt 1
 1615 0e41 4889C7   		movq	%rax, %rdi
 1616 0e44 E8000000 		call	__cxa_begin_catch@PLT
 1616      00
 1617              	.LEHB129:
 1618 0e49 E8000000 		call	_ZN8UnitTest11CurrentTest7ResultsEv@PLT
 1618      00
 1619 0e4e 488B18   		movq	(%rax), %rbx
 1620 0e51 E8000000 		call	_ZN8UnitTest11CurrentTest7DetailsEv@PLT
 1620      00
  30:testConv.cpp  **** 	CHECK_EQUAL(2, nibble);
 1621              		.loc 3 30 0 is_stmt 0 discriminator 8
 1622 0e56 488B08   		movq	(%rax), %rcx
 1623 0e59 488D45C0 		leaq	-64(%rbp), %rax
 1624 0e5d BA1E0000 		movl	$30, %edx
 1624      00
 1625 0e62 4889CE   		movq	%rcx, %rsi
 1626 0e65 4889C7   		movq	%rax, %rdi
 1627 0e68 E8000000 		call	_ZN8UnitTest11TestDetailsC1ERKS0_i@PLT
 1627      00
  30:testConv.cpp  **** 	CHECK_EQUAL(2, nibble);
 1628              		.loc 3 30 0 discriminator 12
 1629 0e6d 488D45C0 		leaq	-64(%rbp), %rax
 1630 0e71 488D1500 		leaq	.LC3(%rip), %rdx
 1630      000000
 1631 0e78 4889C6   		movq	%rax, %rsi
 1632 0e7b 4889DF   		movq	%rbx, %rdi
 1633 0e7e E8000000 		call	_ZN8UnitTest11TestResults13OnTestFailureERKNS_11TestDetailsEPKc@PLT
 1633      00
 1634              	.LEHE129:
 1635              	.LEHB130:
  30:testConv.cpp  **** 	CHECK_EQUAL(2, nibble);
 1636              		.loc 3 30 0 discriminator 14
 1637 0e83 E8000000 		call	__cxa_end_catch@PLT
 1637      00
 1638              	.LEHE130:
 1639 0e88 E9FDF2FF 		jmp	.L30
 1639      FF
 1640              	.L207:
 1641 0e8d 4889C3   		movq	%rax, %rbx
  30:testConv.cpp  **** 	CHECK_EQUAL(2, nibble);
 1642              		.loc 3 30 0
 1643 0e90 E8000000 		call	__cxa_end_catch@PLT
 1643      00
 1644 0e95 4889D8   		movq	%rbx, %rax
 1645 0e98 4889C7   		movq	%rax, %rdi
 1646              	.LEHB131:
 1647 0e9b E8000000 		call	_Unwind_Resume@PLT
 1647      00
 1648              	.LEHE131:
 1649              	.L209:
 1650 0ea0 EB00     		jmp	.L33
 1651              	.L208:
 1652              	.L33:
  31:testConv.cpp  **** 	status = getHexNibble('3', &nibble);
 1653              		.loc 3 31 0 is_stmt 1
 1654 0ea2 4889C7   		movq	%rax, %rdi
 1655 0ea5 E8000000 		call	__cxa_begin_catch@PLT
 1655      00
 1656              	.LEHB132:
 1657 0eaa E8000000 		call	_ZN8UnitTest11CurrentTest7ResultsEv@PLT
 1657      00
 1658 0eaf 488B18   		movq	(%rax), %rbx
 1659 0eb2 E8000000 		call	_ZN8UnitTest11CurrentTest7DetailsEv@PLT
 1659      00
  31:testConv.cpp  **** 	status = getHexNibble('3', &nibble);
 1660              		.loc 3 31 0 is_stmt 0 discriminator 8
 1661 0eb7 488B08   		movq	(%rax), %rcx
 1662 0eba 488D45C0 		leaq	-64(%rbp), %rax
 1663 0ebe BA1F0000 		movl	$31, %edx
 1663      00
 1664 0ec3 4889CE   		movq	%rcx, %rsi
 1665 0ec6 4889C7   		movq	%rax, %rdi
 1666 0ec9 E8000000 		call	_ZN8UnitTest11TestDetailsC1ERKS0_i@PLT
 1666      00
  31:testConv.cpp  **** 	status = getHexNibble('3', &nibble);
 1667              		.loc 3 31 0 discriminator 12
 1668 0ece 488D45C0 		leaq	-64(%rbp), %rax
 1669 0ed2 488D1500 		leaq	.LC6(%rip), %rdx
 1669      000000
 1670 0ed9 4889C6   		movq	%rax, %rsi
 1671 0edc 4889DF   		movq	%rbx, %rdi
 1672 0edf E8000000 		call	_ZN8UnitTest11TestResults13OnTestFailureERKNS_11TestDetailsEPKc@PLT
 1672      00
 1673              	.LEHE132:
 1674              	.LEHB133:
  31:testConv.cpp  **** 	status = getHexNibble('3', &nibble);
 1675              		.loc 3 31 0 discriminator 14
 1676 0ee4 E8000000 		call	__cxa_end_catch@PLT
 1676      00
 1677              	.LEHE133:
 1678 0ee9 E9DBF2FF 		jmp	.L34
 1678      FF
 1679              	.L210:
 1680 0eee 4889C3   		movq	%rax, %rbx
  31:testConv.cpp  **** 	status = getHexNibble('3', &nibble);
 1681              		.loc 3 31 0
 1682 0ef1 E8000000 		call	__cxa_end_catch@PLT
 1682      00
 1683 0ef6 4889D8   		movq	%rbx, %rax
 1684 0ef9 4889C7   		movq	%rax, %rdi
 1685              	.LEHB134:
 1686 0efc E8000000 		call	_Unwind_Resume@PLT
 1686      00
 1687              	.LEHE134:
 1688              	.L212:
 1689 0f01 EB00     		jmp	.L37
 1690              	.L211:
 1691              	.L37:
  33:testConv.cpp  **** 	CHECK_EQUAL(3, nibble);
 1692              		.loc 3 33 0 is_stmt 1
 1693 0f03 4889C7   		movq	%rax, %rdi
 1694 0f06 E8000000 		call	__cxa_begin_catch@PLT
 1694      00
 1695              	.LEHB135:
 1696 0f0b E8000000 		call	_ZN8UnitTest11CurrentTest7ResultsEv@PLT
 1696      00
 1697 0f10 488B18   		movq	(%rax), %rbx
 1698 0f13 E8000000 		call	_ZN8UnitTest11CurrentTest7DetailsEv@PLT
 1698      00
  33:testConv.cpp  **** 	CHECK_EQUAL(3, nibble);
 1699              		.loc 3 33 0 is_stmt 0 discriminator 8
 1700 0f18 488B08   		movq	(%rax), %rcx
 1701 0f1b 488D45C0 		leaq	-64(%rbp), %rax
 1702 0f1f BA210000 		movl	$33, %edx
 1702      00
 1703 0f24 4889CE   		movq	%rcx, %rsi
 1704 0f27 4889C7   		movq	%rax, %rdi
 1705 0f2a E8000000 		call	_ZN8UnitTest11TestDetailsC1ERKS0_i@PLT
 1705      00
  33:testConv.cpp  **** 	CHECK_EQUAL(3, nibble);
 1706              		.loc 3 33 0 discriminator 12
 1707 0f2f 488D45C0 		leaq	-64(%rbp), %rax
 1708 0f33 488D1500 		leaq	.LC3(%rip), %rdx
 1708      000000
 1709 0f3a 4889C6   		movq	%rax, %rsi
 1710 0f3d 4889DF   		movq	%rbx, %rdi
 1711 0f40 E8000000 		call	_ZN8UnitTest11TestResults13OnTestFailureERKNS_11TestDetailsEPKc@PLT
 1711      00
 1712              	.LEHE135:
 1713              	.LEHB136:
  33:testConv.cpp  **** 	CHECK_EQUAL(3, nibble);
 1714              		.loc 3 33 0 discriminator 14
 1715 0f45 E8000000 		call	__cxa_end_catch@PLT
 1715      00
 1716              	.LEHE136:
 1717 0f4a E9CAF2FF 		jmp	.L38
 1717      FF
 1718              	.L213:
 1719 0f4f 4889C3   		movq	%rax, %rbx
  33:testConv.cpp  **** 	CHECK_EQUAL(3, nibble);
 1720              		.loc 3 33 0
 1721 0f52 E8000000 		call	__cxa_end_catch@PLT
 1721      00
 1722 0f57 4889D8   		movq	%rbx, %rax
 1723 0f5a 4889C7   		movq	%rax, %rdi
 1724              	.LEHB137:
 1725 0f5d E8000000 		call	_Unwind_Resume@PLT
 1725      00
 1726              	.LEHE137:
 1727              	.L215:
 1728 0f62 EB00     		jmp	.L41
 1729              	.L214:
 1730              	.L41:
  34:testConv.cpp  **** 	status = getHexNibble('4', &nibble);
 1731              		.loc 3 34 0 is_stmt 1
 1732 0f64 4889C7   		movq	%rax, %rdi
 1733 0f67 E8000000 		call	__cxa_begin_catch@PLT
 1733      00
 1734              	.LEHB138:
 1735 0f6c E8000000 		call	_ZN8UnitTest11CurrentTest7ResultsEv@PLT
 1735      00
 1736 0f71 488B18   		movq	(%rax), %rbx
 1737 0f74 E8000000 		call	_ZN8UnitTest11CurrentTest7DetailsEv@PLT
 1737      00
  34:testConv.cpp  **** 	status = getHexNibble('4', &nibble);
 1738              		.loc 3 34 0 is_stmt 0 discriminator 8
 1739 0f79 488B08   		movq	(%rax), %rcx
 1740 0f7c 488D45C0 		leaq	-64(%rbp), %rax
 1741 0f80 BA220000 		movl	$34, %edx
 1741      00
 1742 0f85 4889CE   		movq	%rcx, %rsi
 1743 0f88 4889C7   		movq	%rax, %rdi
 1744 0f8b E8000000 		call	_ZN8UnitTest11TestDetailsC1ERKS0_i@PLT
 1744      00
  34:testConv.cpp  **** 	status = getHexNibble('4', &nibble);
 1745              		.loc 3 34 0 discriminator 12
 1746 0f90 488D45C0 		leaq	-64(%rbp), %rax
 1747 0f94 488D1500 		leaq	.LC7(%rip), %rdx
 1747      000000
 1748 0f9b 4889C6   		movq	%rax, %rsi
 1749 0f9e 4889DF   		movq	%rbx, %rdi
 1750 0fa1 E8000000 		call	_ZN8UnitTest11TestResults13OnTestFailureERKNS_11TestDetailsEPKc@PLT
 1750      00
 1751              	.LEHE138:
 1752              	.LEHB139:
  34:testConv.cpp  **** 	status = getHexNibble('4', &nibble);
 1753              		.loc 3 34 0 discriminator 14
 1754 0fa6 E8000000 		call	__cxa_end_catch@PLT
 1754      00
 1755              	.LEHE139:
 1756 0fab E9A8F2FF 		jmp	.L42
 1756      FF
 1757              	.L216:
 1758 0fb0 4889C3   		movq	%rax, %rbx
  34:testConv.cpp  **** 	status = getHexNibble('4', &nibble);
 1759              		.loc 3 34 0
 1760 0fb3 E8000000 		call	__cxa_end_catch@PLT
 1760      00
 1761 0fb8 4889D8   		movq	%rbx, %rax
 1762 0fbb 4889C7   		movq	%rax, %rdi
 1763              	.LEHB140:
 1764 0fbe E8000000 		call	_Unwind_Resume@PLT
 1764      00
 1765              	.LEHE140:
 1766              	.L218:
 1767 0fc3 EB00     		jmp	.L45
 1768              	.L217:
 1769              	.L45:
  36:testConv.cpp  **** 	CHECK_EQUAL(4, nibble);
 1770              		.loc 3 36 0 is_stmt 1
 1771 0fc5 4889C7   		movq	%rax, %rdi
 1772 0fc8 E8000000 		call	__cxa_begin_catch@PLT
 1772      00
 1773              	.LEHB141:
 1774 0fcd E8000000 		call	_ZN8UnitTest11CurrentTest7ResultsEv@PLT
 1774      00
 1775 0fd2 488B18   		movq	(%rax), %rbx
 1776 0fd5 E8000000 		call	_ZN8UnitTest11CurrentTest7DetailsEv@PLT
 1776      00
  36:testConv.cpp  **** 	CHECK_EQUAL(4, nibble);
 1777              		.loc 3 36 0 is_stmt 0 discriminator 8
 1778 0fda 488B08   		movq	(%rax), %rcx
 1779 0fdd 488D45C0 		leaq	-64(%rbp), %rax
 1780 0fe1 BA240000 		movl	$36, %edx
 1780      00
 1781 0fe6 4889CE   		movq	%rcx, %rsi
 1782 0fe9 4889C7   		movq	%rax, %rdi
 1783 0fec E8000000 		call	_ZN8UnitTest11TestDetailsC1ERKS0_i@PLT
 1783      00
  36:testConv.cpp  **** 	CHECK_EQUAL(4, nibble);
 1784              		.loc 3 36 0 discriminator 12
 1785 0ff1 488D45C0 		leaq	-64(%rbp), %rax
 1786 0ff5 488D1500 		leaq	.LC3(%rip), %rdx
 1786      000000
 1787 0ffc 4889C6   		movq	%rax, %rsi
 1788 0fff 4889DF   		movq	%rbx, %rdi
 1789 1002 E8000000 		call	_ZN8UnitTest11TestResults13OnTestFailureERKNS_11TestDetailsEPKc@PLT
 1789      00
 1790              	.LEHE141:
 1791              	.LEHB142:
  36:testConv.cpp  **** 	CHECK_EQUAL(4, nibble);
 1792              		.loc 3 36 0 discriminator 14
 1793 1007 E8000000 		call	__cxa_end_catch@PLT
 1793      00
 1794              	.LEHE142:
 1795 100c E997F2FF 		jmp	.L46
 1795      FF
 1796              	.L219:
 1797 1011 4889C3   		movq	%rax, %rbx
  36:testConv.cpp  **** 	CHECK_EQUAL(4, nibble);
 1798              		.loc 3 36 0
 1799 1014 E8000000 		call	__cxa_end_catch@PLT
 1799      00
 1800 1019 4889D8   		movq	%rbx, %rax
 1801 101c 4889C7   		movq	%rax, %rdi
 1802              	.LEHB143:
 1803 101f E8000000 		call	_Unwind_Resume@PLT
 1803      00
 1804              	.LEHE143:
 1805              	.L221:
 1806 1024 EB00     		jmp	.L49
 1807              	.L220:
 1808              	.L49:
  37:testConv.cpp  **** 	status = getHexNibble('5', &nibble);
 1809              		.loc 3 37 0 is_stmt 1
 1810 1026 4889C7   		movq	%rax, %rdi
 1811 1029 E8000000 		call	__cxa_begin_catch@PLT
 1811      00
 1812              	.LEHB144:
 1813 102e E8000000 		call	_ZN8UnitTest11CurrentTest7ResultsEv@PLT
 1813      00
 1814 1033 488B18   		movq	(%rax), %rbx
 1815 1036 E8000000 		call	_ZN8UnitTest11CurrentTest7DetailsEv@PLT
 1815      00
  37:testConv.cpp  **** 	status = getHexNibble('5', &nibble);
 1816              		.loc 3 37 0 is_stmt 0 discriminator 8
 1817 103b 488B08   		movq	(%rax), %rcx
 1818 103e 488D45C0 		leaq	-64(%rbp), %rax
 1819 1042 BA250000 		movl	$37, %edx
 1819      00
 1820 1047 4889CE   		movq	%rcx, %rsi
 1821 104a 4889C7   		movq	%rax, %rdi
 1822 104d E8000000 		call	_ZN8UnitTest11TestDetailsC1ERKS0_i@PLT
 1822      00
  37:testConv.cpp  **** 	status = getHexNibble('5', &nibble);
 1823              		.loc 3 37 0 discriminator 12
 1824 1052 488D45C0 		leaq	-64(%rbp), %rax
 1825 1056 488D1500 		leaq	.LC8(%rip), %rdx
 1825      000000
 1826 105d 4889C6   		movq	%rax, %rsi
 1827 1060 4889DF   		movq	%rbx, %rdi
 1828 1063 E8000000 		call	_ZN8UnitTest11TestResults13OnTestFailureERKNS_11TestDetailsEPKc@PLT
 1828      00
 1829              	.LEHE144:
 1830              	.LEHB145:
  37:testConv.cpp  **** 	status = getHexNibble('5', &nibble);
 1831              		.loc 3 37 0 discriminator 14
 1832 1068 E8000000 		call	__cxa_end_catch@PLT
 1832      00
 1833              	.LEHE145:
 1834 106d E975F2FF 		jmp	.L50
 1834      FF
 1835              	.L222:
 1836 1072 4889C3   		movq	%rax, %rbx
  37:testConv.cpp  **** 	status = getHexNibble('5', &nibble);
 1837              		.loc 3 37 0
 1838 1075 E8000000 		call	__cxa_end_catch@PLT
 1838      00
 1839 107a 4889D8   		movq	%rbx, %rax
 1840 107d 4889C7   		movq	%rax, %rdi
 1841              	.LEHB146:
 1842 1080 E8000000 		call	_Unwind_Resume@PLT
 1842      00
 1843              	.LEHE146:
 1844              	.L224:
 1845 1085 EB00     		jmp	.L53
 1846              	.L223:
 1847              	.L53:
  39:testConv.cpp  **** 	CHECK_EQUAL(5, nibble);
 1848              		.loc 3 39 0 is_stmt 1
 1849 1087 4889C7   		movq	%rax, %rdi
 1850 108a E8000000 		call	__cxa_begin_catch@PLT
 1850      00
 1851              	.LEHB147:
 1852 108f E8000000 		call	_ZN8UnitTest11CurrentTest7ResultsEv@PLT
 1852      00
 1853 1094 488B18   		movq	(%rax), %rbx
 1854 1097 E8000000 		call	_ZN8UnitTest11CurrentTest7DetailsEv@PLT
 1854      00
  39:testConv.cpp  **** 	CHECK_EQUAL(5, nibble);
 1855              		.loc 3 39 0 is_stmt 0 discriminator 8
 1856 109c 488B08   		movq	(%rax), %rcx
 1857 109f 488D45C0 		leaq	-64(%rbp), %rax
 1858 10a3 BA270000 		movl	$39, %edx
 1858      00
 1859 10a8 4889CE   		movq	%rcx, %rsi
 1860 10ab 4889C7   		movq	%rax, %rdi
 1861 10ae E8000000 		call	_ZN8UnitTest11TestDetailsC1ERKS0_i@PLT
 1861      00
  39:testConv.cpp  **** 	CHECK_EQUAL(5, nibble);
 1862              		.loc 3 39 0 discriminator 12
 1863 10b3 488D45C0 		leaq	-64(%rbp), %rax
 1864 10b7 488D1500 		leaq	.LC3(%rip), %rdx
 1864      000000
 1865 10be 4889C6   		movq	%rax, %rsi
 1866 10c1 4889DF   		movq	%rbx, %rdi
 1867 10c4 E8000000 		call	_ZN8UnitTest11TestResults13OnTestFailureERKNS_11TestDetailsEPKc@PLT
 1867      00
 1868              	.LEHE147:
 1869              	.LEHB148:
  39:testConv.cpp  **** 	CHECK_EQUAL(5, nibble);
 1870              		.loc 3 39 0 discriminator 14
 1871 10c9 E8000000 		call	__cxa_end_catch@PLT
 1871      00
 1872              	.LEHE148:
 1873 10ce E964F2FF 		jmp	.L54
 1873      FF
 1874              	.L225:
 1875 10d3 4889C3   		movq	%rax, %rbx
  39:testConv.cpp  **** 	CHECK_EQUAL(5, nibble);
 1876              		.loc 3 39 0
 1877 10d6 E8000000 		call	__cxa_end_catch@PLT
 1877      00
 1878 10db 4889D8   		movq	%rbx, %rax
 1879 10de 4889C7   		movq	%rax, %rdi
 1880              	.LEHB149:
 1881 10e1 E8000000 		call	_Unwind_Resume@PLT
 1881      00
 1882              	.LEHE149:
 1883              	.L227:
 1884 10e6 EB00     		jmp	.L57
 1885              	.L226:
 1886              	.L57:
  40:testConv.cpp  **** 	status = getHexNibble('6', &nibble);
 1887              		.loc 3 40 0 is_stmt 1
 1888 10e8 4889C7   		movq	%rax, %rdi
 1889 10eb E8000000 		call	__cxa_begin_catch@PLT
 1889      00
 1890              	.LEHB150:
 1891 10f0 E8000000 		call	_ZN8UnitTest11CurrentTest7ResultsEv@PLT
 1891      00
 1892 10f5 488B18   		movq	(%rax), %rbx
 1893 10f8 E8000000 		call	_ZN8UnitTest11CurrentTest7DetailsEv@PLT
 1893      00
  40:testConv.cpp  **** 	status = getHexNibble('6', &nibble);
 1894              		.loc 3 40 0 is_stmt 0 discriminator 8
 1895 10fd 488B08   		movq	(%rax), %rcx
 1896 1100 488D45C0 		leaq	-64(%rbp), %rax
 1897 1104 BA280000 		movl	$40, %edx
 1897      00
 1898 1109 4889CE   		movq	%rcx, %rsi
 1899 110c 4889C7   		movq	%rax, %rdi
 1900 110f E8000000 		call	_ZN8UnitTest11TestDetailsC1ERKS0_i@PLT
 1900      00
  40:testConv.cpp  **** 	status = getHexNibble('6', &nibble);
 1901              		.loc 3 40 0 discriminator 12
 1902 1114 488D45C0 		leaq	-64(%rbp), %rax
 1903 1118 488D1500 		leaq	.LC9(%rip), %rdx
 1903      000000
 1904 111f 4889C6   		movq	%rax, %rsi
 1905 1122 4889DF   		movq	%rbx, %rdi
 1906 1125 E8000000 		call	_ZN8UnitTest11TestResults13OnTestFailureERKNS_11TestDetailsEPKc@PLT
 1906      00
 1907              	.LEHE150:
 1908              	.LEHB151:
  40:testConv.cpp  **** 	status = getHexNibble('6', &nibble);
 1909              		.loc 3 40 0 discriminator 14
 1910 112a E8000000 		call	__cxa_end_catch@PLT
 1910      00
 1911              	.LEHE151:
 1912 112f E942F2FF 		jmp	.L58
 1912      FF
 1913              	.L228:
 1914 1134 4889C3   		movq	%rax, %rbx
  40:testConv.cpp  **** 	status = getHexNibble('6', &nibble);
 1915              		.loc 3 40 0
 1916 1137 E8000000 		call	__cxa_end_catch@PLT
 1916      00
 1917 113c 4889D8   		movq	%rbx, %rax
 1918 113f 4889C7   		movq	%rax, %rdi
 1919              	.LEHB152:
 1920 1142 E8000000 		call	_Unwind_Resume@PLT
 1920      00
 1921              	.LEHE152:
 1922              	.L230:
 1923 1147 EB00     		jmp	.L61
 1924              	.L229:
 1925              	.L61:
  42:testConv.cpp  **** 	CHECK_EQUAL(6, nibble);
 1926              		.loc 3 42 0 is_stmt 1
 1927 1149 4889C7   		movq	%rax, %rdi
 1928 114c E8000000 		call	__cxa_begin_catch@PLT
 1928      00
 1929              	.LEHB153:
 1930 1151 E8000000 		call	_ZN8UnitTest11CurrentTest7ResultsEv@PLT
 1930      00
 1931 1156 488B18   		movq	(%rax), %rbx
 1932 1159 E8000000 		call	_ZN8UnitTest11CurrentTest7DetailsEv@PLT
 1932      00
  42:testConv.cpp  **** 	CHECK_EQUAL(6, nibble);
 1933              		.loc 3 42 0 is_stmt 0 discriminator 8
 1934 115e 488B08   		movq	(%rax), %rcx
 1935 1161 488D45C0 		leaq	-64(%rbp), %rax
 1936 1165 BA2A0000 		movl	$42, %edx
 1936      00
 1937 116a 4889CE   		movq	%rcx, %rsi
 1938 116d 4889C7   		movq	%rax, %rdi
 1939 1170 E8000000 		call	_ZN8UnitTest11TestDetailsC1ERKS0_i@PLT
 1939      00
  42:testConv.cpp  **** 	CHECK_EQUAL(6, nibble);
 1940              		.loc 3 42 0 discriminator 12
 1941 1175 488D45C0 		leaq	-64(%rbp), %rax
 1942 1179 488D1500 		leaq	.LC3(%rip), %rdx
 1942      000000
 1943 1180 4889C6   		movq	%rax, %rsi
 1944 1183 4889DF   		movq	%rbx, %rdi
 1945 1186 E8000000 		call	_ZN8UnitTest11TestResults13OnTestFailureERKNS_11TestDetailsEPKc@PLT
 1945      00
 1946              	.LEHE153:
 1947              	.LEHB154:
  42:testConv.cpp  **** 	CHECK_EQUAL(6, nibble);
 1948              		.loc 3 42 0 discriminator 14
 1949 118b E8000000 		call	__cxa_end_catch@PLT
 1949      00
 1950              	.LEHE154:
 1951 1190 E931F2FF 		jmp	.L62
 1951      FF
 1952              	.L231:
 1953 1195 4889C3   		movq	%rax, %rbx
  42:testConv.cpp  **** 	CHECK_EQUAL(6, nibble);
 1954              		.loc 3 42 0
 1955 1198 E8000000 		call	__cxa_end_catch@PLT
 1955      00
 1956 119d 4889D8   		movq	%rbx, %rax
 1957 11a0 4889C7   		movq	%rax, %rdi
 1958              	.LEHB155:
 1959 11a3 E8000000 		call	_Unwind_Resume@PLT
 1959      00
 1960              	.LEHE155:
 1961              	.L233:
 1962 11a8 EB00     		jmp	.L65
 1963              	.L232:
 1964              	.L65:
  43:testConv.cpp  **** 	status = getHexNibble('7', &nibble);
 1965              		.loc 3 43 0 is_stmt 1
 1966 11aa 4889C7   		movq	%rax, %rdi
 1967 11ad E8000000 		call	__cxa_begin_catch@PLT
 1967      00
 1968              	.LEHB156:
 1969 11b2 E8000000 		call	_ZN8UnitTest11CurrentTest7ResultsEv@PLT
 1969      00
 1970 11b7 488B18   		movq	(%rax), %rbx
 1971 11ba E8000000 		call	_ZN8UnitTest11CurrentTest7DetailsEv@PLT
 1971      00
  43:testConv.cpp  **** 	status = getHexNibble('7', &nibble);
 1972              		.loc 3 43 0 is_stmt 0 discriminator 8
 1973 11bf 488B08   		movq	(%rax), %rcx
 1974 11c2 488D45C0 		leaq	-64(%rbp), %rax
 1975 11c6 BA2B0000 		movl	$43, %edx
 1975      00
 1976 11cb 4889CE   		movq	%rcx, %rsi
 1977 11ce 4889C7   		movq	%rax, %rdi
 1978 11d1 E8000000 		call	_ZN8UnitTest11TestDetailsC1ERKS0_i@PLT
 1978      00
  43:testConv.cpp  **** 	status = getHexNibble('7', &nibble);
 1979              		.loc 3 43 0 discriminator 12
 1980 11d6 488D45C0 		leaq	-64(%rbp), %rax
 1981 11da 488D1500 		leaq	.LC10(%rip), %rdx
 1981      000000
 1982 11e1 4889C6   		movq	%rax, %rsi
 1983 11e4 4889DF   		movq	%rbx, %rdi
 1984 11e7 E8000000 		call	_ZN8UnitTest11TestResults13OnTestFailureERKNS_11TestDetailsEPKc@PLT
 1984      00
 1985              	.LEHE156:
 1986              	.LEHB157:
  43:testConv.cpp  **** 	status = getHexNibble('7', &nibble);
 1987              		.loc 3 43 0 discriminator 14
 1988 11ec E8000000 		call	__cxa_end_catch@PLT
 1988      00
 1989              	.LEHE157:
 1990 11f1 E90FF2FF 		jmp	.L66
 1990      FF
 1991              	.L234:
 1992 11f6 4889C3   		movq	%rax, %rbx
  43:testConv.cpp  **** 	status = getHexNibble('7', &nibble);
 1993              		.loc 3 43 0
 1994 11f9 E8000000 		call	__cxa_end_catch@PLT
 1994      00
 1995 11fe 4889D8   		movq	%rbx, %rax
 1996 1201 4889C7   		movq	%rax, %rdi
 1997              	.LEHB158:
 1998 1204 E8000000 		call	_Unwind_Resume@PLT
 1998      00
 1999              	.LEHE158:
 2000              	.L236:
 2001 1209 EB00     		jmp	.L69
 2002              	.L235:
 2003              	.L69:
  45:testConv.cpp  **** 	CHECK_EQUAL(7, nibble);
 2004              		.loc 3 45 0 is_stmt 1
 2005 120b 4889C7   		movq	%rax, %rdi
 2006 120e E8000000 		call	__cxa_begin_catch@PLT
 2006      00
 2007              	.LEHB159:
 2008 1213 E8000000 		call	_ZN8UnitTest11CurrentTest7ResultsEv@PLT
 2008      00
 2009 1218 488B18   		movq	(%rax), %rbx
 2010 121b E8000000 		call	_ZN8UnitTest11CurrentTest7DetailsEv@PLT
 2010      00
  45:testConv.cpp  **** 	CHECK_EQUAL(7, nibble);
 2011              		.loc 3 45 0 is_stmt 0 discriminator 8
 2012 1220 488B08   		movq	(%rax), %rcx
 2013 1223 488D45C0 		leaq	-64(%rbp), %rax
 2014 1227 BA2D0000 		movl	$45, %edx
 2014      00
 2015 122c 4889CE   		movq	%rcx, %rsi
 2016 122f 4889C7   		movq	%rax, %rdi
 2017 1232 E8000000 		call	_ZN8UnitTest11TestDetailsC1ERKS0_i@PLT
 2017      00
  45:testConv.cpp  **** 	CHECK_EQUAL(7, nibble);
 2018              		.loc 3 45 0 discriminator 12
 2019 1237 488D45C0 		leaq	-64(%rbp), %rax
 2020 123b 488D1500 		leaq	.LC3(%rip), %rdx
 2020      000000
 2021 1242 4889C6   		movq	%rax, %rsi
 2022 1245 4889DF   		movq	%rbx, %rdi
 2023 1248 E8000000 		call	_ZN8UnitTest11TestResults13OnTestFailureERKNS_11TestDetailsEPKc@PLT
 2023      00
 2024              	.LEHE159:
 2025              	.LEHB160:
  45:testConv.cpp  **** 	CHECK_EQUAL(7, nibble);
 2026              		.loc 3 45 0 discriminator 14
 2027 124d E8000000 		call	__cxa_end_catch@PLT
 2027      00
 2028              	.LEHE160:
 2029 1252 E9FEF1FF 		jmp	.L70
 2029      FF
 2030              	.L237:
 2031 1257 4889C3   		movq	%rax, %rbx
  45:testConv.cpp  **** 	CHECK_EQUAL(7, nibble);
 2032              		.loc 3 45 0
 2033 125a E8000000 		call	__cxa_end_catch@PLT
 2033      00
 2034 125f 4889D8   		movq	%rbx, %rax
 2035 1262 4889C7   		movq	%rax, %rdi
 2036              	.LEHB161:
 2037 1265 E8000000 		call	_Unwind_Resume@PLT
 2037      00
 2038              	.LEHE161:
 2039              	.L239:
 2040 126a EB00     		jmp	.L73
 2041              	.L238:
 2042              	.L73:
  46:testConv.cpp  **** 	status = getHexNibble('8', &nibble);
 2043              		.loc 3 46 0 is_stmt 1
 2044 126c 4889C7   		movq	%rax, %rdi
 2045 126f E8000000 		call	__cxa_begin_catch@PLT
 2045      00
 2046              	.LEHB162:
 2047 1274 E8000000 		call	_ZN8UnitTest11CurrentTest7ResultsEv@PLT
 2047      00
 2048 1279 488B18   		movq	(%rax), %rbx
 2049 127c E8000000 		call	_ZN8UnitTest11CurrentTest7DetailsEv@PLT
 2049      00
  46:testConv.cpp  **** 	status = getHexNibble('8', &nibble);
 2050              		.loc 3 46 0 is_stmt 0 discriminator 8
 2051 1281 488B08   		movq	(%rax), %rcx
 2052 1284 488D45C0 		leaq	-64(%rbp), %rax
 2053 1288 BA2E0000 		movl	$46, %edx
 2053      00
 2054 128d 4889CE   		movq	%rcx, %rsi
 2055 1290 4889C7   		movq	%rax, %rdi
 2056 1293 E8000000 		call	_ZN8UnitTest11TestDetailsC1ERKS0_i@PLT
 2056      00
  46:testConv.cpp  **** 	status = getHexNibble('8', &nibble);
 2057              		.loc 3 46 0 discriminator 12
 2058 1298 488D45C0 		leaq	-64(%rbp), %rax
 2059 129c 488D1500 		leaq	.LC11(%rip), %rdx
 2059      000000
 2060 12a3 4889C6   		movq	%rax, %rsi
 2061 12a6 4889DF   		movq	%rbx, %rdi
 2062 12a9 E8000000 		call	_ZN8UnitTest11TestResults13OnTestFailureERKNS_11TestDetailsEPKc@PLT
 2062      00
 2063              	.LEHE162:
 2064              	.LEHB163:
  46:testConv.cpp  **** 	status = getHexNibble('8', &nibble);
 2065              		.loc 3 46 0 discriminator 14
 2066 12ae E8000000 		call	__cxa_end_catch@PLT
 2066      00
 2067              	.LEHE163:
 2068 12b3 E9DCF1FF 		jmp	.L74
 2068      FF
 2069              	.L240:
 2070 12b8 4889C3   		movq	%rax, %rbx
  46:testConv.cpp  **** 	status = getHexNibble('8', &nibble);
 2071              		.loc 3 46 0
 2072 12bb E8000000 		call	__cxa_end_catch@PLT
 2072      00
 2073 12c0 4889D8   		movq	%rbx, %rax
 2074 12c3 4889C7   		movq	%rax, %rdi
 2075              	.LEHB164:
 2076 12c6 E8000000 		call	_Unwind_Resume@PLT
 2076      00
 2077              	.LEHE164:
 2078              	.L242:
 2079 12cb EB00     		jmp	.L77
 2080              	.L241:
 2081              	.L77:
  48:testConv.cpp  **** 	CHECK_EQUAL(8, nibble);
 2082              		.loc 3 48 0 is_stmt 1
 2083 12cd 4889C7   		movq	%rax, %rdi
 2084 12d0 E8000000 		call	__cxa_begin_catch@PLT
 2084      00
 2085              	.LEHB165:
 2086 12d5 E8000000 		call	_ZN8UnitTest11CurrentTest7ResultsEv@PLT
 2086      00
 2087 12da 488B18   		movq	(%rax), %rbx
 2088 12dd E8000000 		call	_ZN8UnitTest11CurrentTest7DetailsEv@PLT
 2088      00
  48:testConv.cpp  **** 	CHECK_EQUAL(8, nibble);
 2089              		.loc 3 48 0 is_stmt 0 discriminator 8
 2090 12e2 488B08   		movq	(%rax), %rcx
 2091 12e5 488D45C0 		leaq	-64(%rbp), %rax
 2092 12e9 BA300000 		movl	$48, %edx
 2092      00
 2093 12ee 4889CE   		movq	%rcx, %rsi
 2094 12f1 4889C7   		movq	%rax, %rdi
 2095 12f4 E8000000 		call	_ZN8UnitTest11TestDetailsC1ERKS0_i@PLT
 2095      00
  48:testConv.cpp  **** 	CHECK_EQUAL(8, nibble);
 2096              		.loc 3 48 0 discriminator 12
 2097 12f9 488D45C0 		leaq	-64(%rbp), %rax
 2098 12fd 488D1500 		leaq	.LC3(%rip), %rdx
 2098      000000
 2099 1304 4889C6   		movq	%rax, %rsi
 2100 1307 4889DF   		movq	%rbx, %rdi
 2101 130a E8000000 		call	_ZN8UnitTest11TestResults13OnTestFailureERKNS_11TestDetailsEPKc@PLT
 2101      00
 2102              	.LEHE165:
 2103              	.LEHB166:
  48:testConv.cpp  **** 	CHECK_EQUAL(8, nibble);
 2104              		.loc 3 48 0 discriminator 14
 2105 130f E8000000 		call	__cxa_end_catch@PLT
 2105      00
 2106              	.LEHE166:
 2107 1314 E9CBF1FF 		jmp	.L78
 2107      FF
 2108              	.L243:
 2109 1319 4889C3   		movq	%rax, %rbx
  48:testConv.cpp  **** 	CHECK_EQUAL(8, nibble);
 2110              		.loc 3 48 0
 2111 131c E8000000 		call	__cxa_end_catch@PLT
 2111      00
 2112 1321 4889D8   		movq	%rbx, %rax
 2113 1324 4889C7   		movq	%rax, %rdi
 2114              	.LEHB167:
 2115 1327 E8000000 		call	_Unwind_Resume@PLT
 2115      00
 2116              	.LEHE167:
 2117              	.L245:
 2118 132c EB00     		jmp	.L81
 2119              	.L244:
 2120              	.L81:
  49:testConv.cpp  **** 	status = getHexNibble('9', &nibble);
 2121              		.loc 3 49 0 is_stmt 1
 2122 132e 4889C7   		movq	%rax, %rdi
 2123 1331 E8000000 		call	__cxa_begin_catch@PLT
 2123      00
 2124              	.LEHB168:
 2125 1336 E8000000 		call	_ZN8UnitTest11CurrentTest7ResultsEv@PLT
 2125      00
 2126 133b 488B18   		movq	(%rax), %rbx
 2127 133e E8000000 		call	_ZN8UnitTest11CurrentTest7DetailsEv@PLT
 2127      00
  49:testConv.cpp  **** 	status = getHexNibble('9', &nibble);
 2128              		.loc 3 49 0 is_stmt 0 discriminator 8
 2129 1343 488B08   		movq	(%rax), %rcx
 2130 1346 488D45C0 		leaq	-64(%rbp), %rax
 2131 134a BA310000 		movl	$49, %edx
 2131      00
 2132 134f 4889CE   		movq	%rcx, %rsi
 2133 1352 4889C7   		movq	%rax, %rdi
 2134 1355 E8000000 		call	_ZN8UnitTest11TestDetailsC1ERKS0_i@PLT
 2134      00
  49:testConv.cpp  **** 	status = getHexNibble('9', &nibble);
 2135              		.loc 3 49 0 discriminator 12
 2136 135a 488D45C0 		leaq	-64(%rbp), %rax
 2137 135e 488D1500 		leaq	.LC12(%rip), %rdx
 2137      000000
 2138 1365 4889C6   		movq	%rax, %rsi
 2139 1368 4889DF   		movq	%rbx, %rdi
 2140 136b E8000000 		call	_ZN8UnitTest11TestResults13OnTestFailureERKNS_11TestDetailsEPKc@PLT
 2140      00
 2141              	.LEHE168:
 2142              	.LEHB169:
  49:testConv.cpp  **** 	status = getHexNibble('9', &nibble);
 2143              		.loc 3 49 0 discriminator 14
 2144 1370 E8000000 		call	__cxa_end_catch@PLT
 2144      00
 2145              	.LEHE169:
 2146 1375 E9A9F1FF 		jmp	.L82
 2146      FF
 2147              	.L246:
 2148 137a 4889C3   		movq	%rax, %rbx
  49:testConv.cpp  **** 	status = getHexNibble('9', &nibble);
 2149              		.loc 3 49 0
 2150 137d E8000000 		call	__cxa_end_catch@PLT
 2150      00
 2151 1382 4889D8   		movq	%rbx, %rax
 2152 1385 4889C7   		movq	%rax, %rdi
 2153              	.LEHB170:
 2154 1388 E8000000 		call	_Unwind_Resume@PLT
 2154      00
 2155              	.LEHE170:
 2156              	.L248:
 2157 138d EB00     		jmp	.L85
 2158              	.L247:
 2159              	.L85:
  51:testConv.cpp  **** 	CHECK_EQUAL(9, nibble);
 2160              		.loc 3 51 0 is_stmt 1
 2161 138f 4889C7   		movq	%rax, %rdi
 2162 1392 E8000000 		call	__cxa_begin_catch@PLT
 2162      00
 2163              	.LEHB171:
 2164 1397 E8000000 		call	_ZN8UnitTest11CurrentTest7ResultsEv@PLT
 2164      00
 2165 139c 488B18   		movq	(%rax), %rbx
 2166 139f E8000000 		call	_ZN8UnitTest11CurrentTest7DetailsEv@PLT
 2166      00
  51:testConv.cpp  **** 	CHECK_EQUAL(9, nibble);
 2167              		.loc 3 51 0 is_stmt 0 discriminator 8
 2168 13a4 488B08   		movq	(%rax), %rcx
 2169 13a7 488D45C0 		leaq	-64(%rbp), %rax
 2170 13ab BA330000 		movl	$51, %edx
 2170      00
 2171 13b0 4889CE   		movq	%rcx, %rsi
 2172 13b3 4889C7   		movq	%rax, %rdi
 2173 13b6 E8000000 		call	_ZN8UnitTest11TestDetailsC1ERKS0_i@PLT
 2173      00
  51:testConv.cpp  **** 	CHECK_EQUAL(9, nibble);
 2174              		.loc 3 51 0 discriminator 12
 2175 13bb 488D45C0 		leaq	-64(%rbp), %rax
 2176 13bf 488D1500 		leaq	.LC3(%rip), %rdx
 2176      000000
 2177 13c6 4889C6   		movq	%rax, %rsi
 2178 13c9 4889DF   		movq	%rbx, %rdi
 2179 13cc E8000000 		call	_ZN8UnitTest11TestResults13OnTestFailureERKNS_11TestDetailsEPKc@PLT
 2179      00
 2180              	.LEHE171:
 2181              	.LEHB172:
  51:testConv.cpp  **** 	CHECK_EQUAL(9, nibble);
 2182              		.loc 3 51 0 discriminator 14
 2183 13d1 E8000000 		call	__cxa_end_catch@PLT
 2183      00
 2184              	.LEHE172:
 2185 13d6 E998F1FF 		jmp	.L86
 2185      FF
 2186              	.L249:
 2187 13db 4889C3   		movq	%rax, %rbx
  51:testConv.cpp  **** 	CHECK_EQUAL(9, nibble);
 2188              		.loc 3 51 0
 2189 13de E8000000 		call	__cxa_end_catch@PLT
 2189      00
 2190 13e3 4889D8   		movq	%rbx, %rax
 2191 13e6 4889C7   		movq	%rax, %rdi
 2192              	.LEHB173:
 2193 13e9 E8000000 		call	_Unwind_Resume@PLT
 2193      00
 2194              	.LEHE173:
 2195              	.L251:
 2196 13ee EB00     		jmp	.L89
 2197              	.L250:
 2198              	.L89:
  52:testConv.cpp  **** 	status = getHexNibble('A', &nibble);
 2199              		.loc 3 52 0 is_stmt 1
 2200 13f0 4889C7   		movq	%rax, %rdi
 2201 13f3 E8000000 		call	__cxa_begin_catch@PLT
 2201      00
 2202              	.LEHB174:
 2203 13f8 E8000000 		call	_ZN8UnitTest11CurrentTest7ResultsEv@PLT
 2203      00
 2204 13fd 488B18   		movq	(%rax), %rbx
 2205 1400 E8000000 		call	_ZN8UnitTest11CurrentTest7DetailsEv@PLT
 2205      00
  52:testConv.cpp  **** 	status = getHexNibble('A', &nibble);
 2206              		.loc 3 52 0 is_stmt 0 discriminator 8
 2207 1405 488B08   		movq	(%rax), %rcx
 2208 1408 488D45C0 		leaq	-64(%rbp), %rax
 2209 140c BA340000 		movl	$52, %edx
 2209      00
 2210 1411 4889CE   		movq	%rcx, %rsi
 2211 1414 4889C7   		movq	%rax, %rdi
 2212 1417 E8000000 		call	_ZN8UnitTest11TestDetailsC1ERKS0_i@PLT
 2212      00
  52:testConv.cpp  **** 	status = getHexNibble('A', &nibble);
 2213              		.loc 3 52 0 discriminator 12
 2214 141c 488D45C0 		leaq	-64(%rbp), %rax
 2215 1420 488D1500 		leaq	.LC13(%rip), %rdx
 2215      000000
 2216 1427 4889C6   		movq	%rax, %rsi
 2217 142a 4889DF   		movq	%rbx, %rdi
 2218 142d E8000000 		call	_ZN8UnitTest11TestResults13OnTestFailureERKNS_11TestDetailsEPKc@PLT
 2218      00
 2219              	.LEHE174:
 2220              	.LEHB175:
  52:testConv.cpp  **** 	status = getHexNibble('A', &nibble);
 2221              		.loc 3 52 0 discriminator 14
 2222 1432 E8000000 		call	__cxa_end_catch@PLT
 2222      00
 2223              	.LEHE175:
 2224 1437 E976F1FF 		jmp	.L90
 2224      FF
 2225              	.L252:
 2226 143c 4889C3   		movq	%rax, %rbx
  52:testConv.cpp  **** 	status = getHexNibble('A', &nibble);
 2227              		.loc 3 52 0
 2228 143f E8000000 		call	__cxa_end_catch@PLT
 2228      00
 2229 1444 4889D8   		movq	%rbx, %rax
 2230 1447 4889C7   		movq	%rax, %rdi
 2231              	.LEHB176:
 2232 144a E8000000 		call	_Unwind_Resume@PLT
 2232      00
 2233              	.LEHE176:
 2234              	.L254:
 2235 144f EB00     		jmp	.L93
 2236              	.L253:
 2237              	.L93:
  54:testConv.cpp  **** 	CHECK_EQUAL(10, nibble);
 2238              		.loc 3 54 0 is_stmt 1
 2239 1451 4889C7   		movq	%rax, %rdi
 2240 1454 E8000000 		call	__cxa_begin_catch@PLT
 2240      00
 2241              	.LEHB177:
 2242 1459 E8000000 		call	_ZN8UnitTest11CurrentTest7ResultsEv@PLT
 2242      00
 2243 145e 488B18   		movq	(%rax), %rbx
 2244 1461 E8000000 		call	_ZN8UnitTest11CurrentTest7DetailsEv@PLT
 2244      00
  54:testConv.cpp  **** 	CHECK_EQUAL(10, nibble);
 2245              		.loc 3 54 0 is_stmt 0 discriminator 8
 2246 1466 488B08   		movq	(%rax), %rcx
 2247 1469 488D45C0 		leaq	-64(%rbp), %rax
 2248 146d BA360000 		movl	$54, %edx
 2248      00
 2249 1472 4889CE   		movq	%rcx, %rsi
 2250 1475 4889C7   		movq	%rax, %rdi
 2251 1478 E8000000 		call	_ZN8UnitTest11TestDetailsC1ERKS0_i@PLT
 2251      00
  54:testConv.cpp  **** 	CHECK_EQUAL(10, nibble);
 2252              		.loc 3 54 0 discriminator 12
 2253 147d 488D45C0 		leaq	-64(%rbp), %rax
 2254 1481 488D1500 		leaq	.LC3(%rip), %rdx
 2254      000000
 2255 1488 4889C6   		movq	%rax, %rsi
 2256 148b 4889DF   		movq	%rbx, %rdi
 2257 148e E8000000 		call	_ZN8UnitTest11TestResults13OnTestFailureERKNS_11TestDetailsEPKc@PLT
 2257      00
 2258              	.LEHE177:
 2259              	.LEHB178:
  54:testConv.cpp  **** 	CHECK_EQUAL(10, nibble);
 2260              		.loc 3 54 0 discriminator 14
 2261 1493 E8000000 		call	__cxa_end_catch@PLT
 2261      00
 2262              	.LEHE178:
 2263 1498 E965F1FF 		jmp	.L94
 2263      FF
 2264              	.L255:
 2265 149d 4889C3   		movq	%rax, %rbx
  54:testConv.cpp  **** 	CHECK_EQUAL(10, nibble);
 2266              		.loc 3 54 0
 2267 14a0 E8000000 		call	__cxa_end_catch@PLT
 2267      00
 2268 14a5 4889D8   		movq	%rbx, %rax
 2269 14a8 4889C7   		movq	%rax, %rdi
 2270              	.LEHB179:
 2271 14ab E8000000 		call	_Unwind_Resume@PLT
 2271      00
 2272              	.LEHE179:
 2273              	.L257:
 2274 14b0 EB00     		jmp	.L97
 2275              	.L256:
 2276              	.L97:
  55:testConv.cpp  **** 	status = getHexNibble('B', &nibble);
 2277              		.loc 3 55 0 is_stmt 1
 2278 14b2 4889C7   		movq	%rax, %rdi
 2279 14b5 E8000000 		call	__cxa_begin_catch@PLT
 2279      00
 2280              	.LEHB180:
 2281 14ba E8000000 		call	_ZN8UnitTest11CurrentTest7ResultsEv@PLT
 2281      00
 2282 14bf 488B18   		movq	(%rax), %rbx
 2283 14c2 E8000000 		call	_ZN8UnitTest11CurrentTest7DetailsEv@PLT
 2283      00
  55:testConv.cpp  **** 	status = getHexNibble('B', &nibble);
 2284              		.loc 3 55 0 is_stmt 0 discriminator 8
 2285 14c7 488B08   		movq	(%rax), %rcx
 2286 14ca 488D45C0 		leaq	-64(%rbp), %rax
 2287 14ce BA370000 		movl	$55, %edx
 2287      00
 2288 14d3 4889CE   		movq	%rcx, %rsi
 2289 14d6 4889C7   		movq	%rax, %rdi
 2290 14d9 E8000000 		call	_ZN8UnitTest11TestDetailsC1ERKS0_i@PLT
 2290      00
  55:testConv.cpp  **** 	status = getHexNibble('B', &nibble);
 2291              		.loc 3 55 0 discriminator 12
 2292 14de 488D45C0 		leaq	-64(%rbp), %rax
 2293 14e2 488D1500 		leaq	.LC14(%rip), %rdx
 2293      000000
 2294 14e9 4889C6   		movq	%rax, %rsi
 2295 14ec 4889DF   		movq	%rbx, %rdi
 2296 14ef E8000000 		call	_ZN8UnitTest11TestResults13OnTestFailureERKNS_11TestDetailsEPKc@PLT
 2296      00
 2297              	.LEHE180:
 2298              	.LEHB181:
  55:testConv.cpp  **** 	status = getHexNibble('B', &nibble);
 2299              		.loc 3 55 0 discriminator 14
 2300 14f4 E8000000 		call	__cxa_end_catch@PLT
 2300      00
 2301              	.LEHE181:
 2302 14f9 E943F1FF 		jmp	.L98
 2302      FF
 2303              	.L258:
 2304 14fe 4889C3   		movq	%rax, %rbx
  55:testConv.cpp  **** 	status = getHexNibble('B', &nibble);
 2305              		.loc 3 55 0
 2306 1501 E8000000 		call	__cxa_end_catch@PLT
 2306      00
 2307 1506 4889D8   		movq	%rbx, %rax
 2308 1509 4889C7   		movq	%rax, %rdi
 2309              	.LEHB182:
 2310 150c E8000000 		call	_Unwind_Resume@PLT
 2310      00
 2311              	.LEHE182:
 2312              	.L260:
 2313 1511 EB00     		jmp	.L101
 2314              	.L259:
 2315              	.L101:
  57:testConv.cpp  **** 	CHECK_EQUAL(11, nibble);
 2316              		.loc 3 57 0 is_stmt 1
 2317 1513 4889C7   		movq	%rax, %rdi
 2318 1516 E8000000 		call	__cxa_begin_catch@PLT
 2318      00
 2319              	.LEHB183:
 2320 151b E8000000 		call	_ZN8UnitTest11CurrentTest7ResultsEv@PLT
 2320      00
 2321 1520 488B18   		movq	(%rax), %rbx
 2322 1523 E8000000 		call	_ZN8UnitTest11CurrentTest7DetailsEv@PLT
 2322      00
  57:testConv.cpp  **** 	CHECK_EQUAL(11, nibble);
 2323              		.loc 3 57 0 is_stmt 0 discriminator 8
 2324 1528 488B08   		movq	(%rax), %rcx
 2325 152b 488D45C0 		leaq	-64(%rbp), %rax
 2326 152f BA390000 		movl	$57, %edx
 2326      00
 2327 1534 4889CE   		movq	%rcx, %rsi
 2328 1537 4889C7   		movq	%rax, %rdi
 2329 153a E8000000 		call	_ZN8UnitTest11TestDetailsC1ERKS0_i@PLT
 2329      00
  57:testConv.cpp  **** 	CHECK_EQUAL(11, nibble);
 2330              		.loc 3 57 0 discriminator 12
 2331 153f 488D45C0 		leaq	-64(%rbp), %rax
 2332 1543 488D1500 		leaq	.LC3(%rip), %rdx
 2332      000000
 2333 154a 4889C6   		movq	%rax, %rsi
 2334 154d 4889DF   		movq	%rbx, %rdi
 2335 1550 E8000000 		call	_ZN8UnitTest11TestResults13OnTestFailureERKNS_11TestDetailsEPKc@PLT
 2335      00
 2336              	.LEHE183:
 2337              	.LEHB184:
  57:testConv.cpp  **** 	CHECK_EQUAL(11, nibble);
 2338              		.loc 3 57 0 discriminator 14
 2339 1555 E8000000 		call	__cxa_end_catch@PLT
 2339      00
 2340              	.LEHE184:
 2341 155a E932F1FF 		jmp	.L102
 2341      FF
 2342              	.L261:
 2343 155f 4889C3   		movq	%rax, %rbx
  57:testConv.cpp  **** 	CHECK_EQUAL(11, nibble);
 2344              		.loc 3 57 0
 2345 1562 E8000000 		call	__cxa_end_catch@PLT
 2345      00
 2346 1567 4889D8   		movq	%rbx, %rax
 2347 156a 4889C7   		movq	%rax, %rdi
 2348              	.LEHB185:
 2349 156d E8000000 		call	_Unwind_Resume@PLT
 2349      00
 2350              	.LEHE185:
 2351              	.L263:
 2352 1572 EB00     		jmp	.L105
 2353              	.L262:
 2354              	.L105:
  58:testConv.cpp  **** 	status = getHexNibble('C', &nibble);
 2355              		.loc 3 58 0 is_stmt 1
 2356 1574 4889C7   		movq	%rax, %rdi
 2357 1577 E8000000 		call	__cxa_begin_catch@PLT
 2357      00
 2358              	.LEHB186:
 2359 157c E8000000 		call	_ZN8UnitTest11CurrentTest7ResultsEv@PLT
 2359      00
 2360 1581 488B18   		movq	(%rax), %rbx
 2361 1584 E8000000 		call	_ZN8UnitTest11CurrentTest7DetailsEv@PLT
 2361      00
  58:testConv.cpp  **** 	status = getHexNibble('C', &nibble);
 2362              		.loc 3 58 0 is_stmt 0 discriminator 8
 2363 1589 488B08   		movq	(%rax), %rcx
 2364 158c 488D45C0 		leaq	-64(%rbp), %rax
 2365 1590 BA3A0000 		movl	$58, %edx
 2365      00
 2366 1595 4889CE   		movq	%rcx, %rsi
 2367 1598 4889C7   		movq	%rax, %rdi
 2368 159b E8000000 		call	_ZN8UnitTest11TestDetailsC1ERKS0_i@PLT
 2368      00
  58:testConv.cpp  **** 	status = getHexNibble('C', &nibble);
 2369              		.loc 3 58 0 discriminator 12
 2370 15a0 488D45C0 		leaq	-64(%rbp), %rax
 2371 15a4 488D1500 		leaq	.LC15(%rip), %rdx
 2371      000000
 2372 15ab 4889C6   		movq	%rax, %rsi
 2373 15ae 4889DF   		movq	%rbx, %rdi
 2374 15b1 E8000000 		call	_ZN8UnitTest11TestResults13OnTestFailureERKNS_11TestDetailsEPKc@PLT
 2374      00
 2375              	.LEHE186:
 2376              	.LEHB187:
  58:testConv.cpp  **** 	status = getHexNibble('C', &nibble);
 2377              		.loc 3 58 0 discriminator 14
 2378 15b6 E8000000 		call	__cxa_end_catch@PLT
 2378      00
 2379              	.LEHE187:
 2380 15bb E910F1FF 		jmp	.L106
 2380      FF
 2381              	.L264:
 2382 15c0 4889C3   		movq	%rax, %rbx
  58:testConv.cpp  **** 	status = getHexNibble('C', &nibble);
 2383              		.loc 3 58 0
 2384 15c3 E8000000 		call	__cxa_end_catch@PLT
 2384      00
 2385 15c8 4889D8   		movq	%rbx, %rax
 2386 15cb 4889C7   		movq	%rax, %rdi
 2387              	.LEHB188:
 2388 15ce E8000000 		call	_Unwind_Resume@PLT
 2388      00
 2389              	.LEHE188:
 2390              	.L266:
 2391 15d3 EB00     		jmp	.L109
 2392              	.L265:
 2393              	.L109:
  60:testConv.cpp  **** 	CHECK_EQUAL(12, nibble);
 2394              		.loc 3 60 0 is_stmt 1
 2395 15d5 4889C7   		movq	%rax, %rdi
 2396 15d8 E8000000 		call	__cxa_begin_catch@PLT
 2396      00
 2397              	.LEHB189:
 2398 15dd E8000000 		call	_ZN8UnitTest11CurrentTest7ResultsEv@PLT
 2398      00
 2399 15e2 488B18   		movq	(%rax), %rbx
 2400 15e5 E8000000 		call	_ZN8UnitTest11CurrentTest7DetailsEv@PLT
 2400      00
  60:testConv.cpp  **** 	CHECK_EQUAL(12, nibble);
 2401              		.loc 3 60 0 is_stmt 0 discriminator 8
 2402 15ea 488B08   		movq	(%rax), %rcx
 2403 15ed 488D45C0 		leaq	-64(%rbp), %rax
 2404 15f1 BA3C0000 		movl	$60, %edx
 2404      00
 2405 15f6 4889CE   		movq	%rcx, %rsi
 2406 15f9 4889C7   		movq	%rax, %rdi
 2407 15fc E8000000 		call	_ZN8UnitTest11TestDetailsC1ERKS0_i@PLT
 2407      00
  60:testConv.cpp  **** 	CHECK_EQUAL(12, nibble);
 2408              		.loc 3 60 0 discriminator 12
 2409 1601 488D45C0 		leaq	-64(%rbp), %rax
 2410 1605 488D1500 		leaq	.LC3(%rip), %rdx
 2410      000000
 2411 160c 4889C6   		movq	%rax, %rsi
 2412 160f 4889DF   		movq	%rbx, %rdi
 2413 1612 E8000000 		call	_ZN8UnitTest11TestResults13OnTestFailureERKNS_11TestDetailsEPKc@PLT
 2413      00
 2414              	.LEHE189:
 2415              	.LEHB190:
  60:testConv.cpp  **** 	CHECK_EQUAL(12, nibble);
 2416              		.loc 3 60 0 discriminator 14
 2417 1617 E8000000 		call	__cxa_end_catch@PLT
 2417      00
 2418              	.LEHE190:
 2419 161c E9FFF0FF 		jmp	.L110
 2419      FF
 2420              	.L267:
 2421 1621 4889C3   		movq	%rax, %rbx
  60:testConv.cpp  **** 	CHECK_EQUAL(12, nibble);
 2422              		.loc 3 60 0
 2423 1624 E8000000 		call	__cxa_end_catch@PLT
 2423      00
 2424 1629 4889D8   		movq	%rbx, %rax
 2425 162c 4889C7   		movq	%rax, %rdi
 2426              	.LEHB191:
 2427 162f E8000000 		call	_Unwind_Resume@PLT
 2427      00
 2428              	.LEHE191:
 2429              	.L269:
 2430 1634 EB00     		jmp	.L113
 2431              	.L268:
 2432              	.L113:
  61:testConv.cpp  **** 	status = getHexNibble('D', &nibble);
 2433              		.loc 3 61 0 is_stmt 1
 2434 1636 4889C7   		movq	%rax, %rdi
 2435 1639 E8000000 		call	__cxa_begin_catch@PLT
 2435      00
 2436              	.LEHB192:
 2437 163e E8000000 		call	_ZN8UnitTest11CurrentTest7ResultsEv@PLT
 2437      00
 2438 1643 488B18   		movq	(%rax), %rbx
 2439 1646 E8000000 		call	_ZN8UnitTest11CurrentTest7DetailsEv@PLT
 2439      00
  61:testConv.cpp  **** 	status = getHexNibble('D', &nibble);
 2440              		.loc 3 61 0 is_stmt 0 discriminator 8
 2441 164b 488B08   		movq	(%rax), %rcx
 2442 164e 488D45C0 		leaq	-64(%rbp), %rax
 2443 1652 BA3D0000 		movl	$61, %edx
 2443      00
 2444 1657 4889CE   		movq	%rcx, %rsi
 2445 165a 4889C7   		movq	%rax, %rdi
 2446 165d E8000000 		call	_ZN8UnitTest11TestDetailsC1ERKS0_i@PLT
 2446      00
  61:testConv.cpp  **** 	status = getHexNibble('D', &nibble);
 2447              		.loc 3 61 0 discriminator 12
 2448 1662 488D45C0 		leaq	-64(%rbp), %rax
 2449 1666 488D1500 		leaq	.LC16(%rip), %rdx
 2449      000000
 2450 166d 4889C6   		movq	%rax, %rsi
 2451 1670 4889DF   		movq	%rbx, %rdi
 2452 1673 E8000000 		call	_ZN8UnitTest11TestResults13OnTestFailureERKNS_11TestDetailsEPKc@PLT
 2452      00
 2453              	.LEHE192:
 2454              	.LEHB193:
  61:testConv.cpp  **** 	status = getHexNibble('D', &nibble);
 2455              		.loc 3 61 0 discriminator 14
 2456 1678 E8000000 		call	__cxa_end_catch@PLT
 2456      00
 2457              	.LEHE193:
 2458 167d E9DDF0FF 		jmp	.L114
 2458      FF
 2459              	.L270:
 2460 1682 4889C3   		movq	%rax, %rbx
  61:testConv.cpp  **** 	status = getHexNibble('D', &nibble);
 2461              		.loc 3 61 0
 2462 1685 E8000000 		call	__cxa_end_catch@PLT
 2462      00
 2463 168a 4889D8   		movq	%rbx, %rax
 2464 168d 4889C7   		movq	%rax, %rdi
 2465              	.LEHB194:
 2466 1690 E8000000 		call	_Unwind_Resume@PLT
 2466      00
 2467              	.LEHE194:
 2468              	.L272:
 2469 1695 EB00     		jmp	.L117
 2470              	.L271:
 2471              	.L117:
  63:testConv.cpp  **** 	CHECK_EQUAL(13, nibble);
 2472              		.loc 3 63 0 is_stmt 1
 2473 1697 4889C7   		movq	%rax, %rdi
 2474 169a E8000000 		call	__cxa_begin_catch@PLT
 2474      00
 2475              	.LEHB195:
 2476 169f E8000000 		call	_ZN8UnitTest11CurrentTest7ResultsEv@PLT
 2476      00
 2477 16a4 488B18   		movq	(%rax), %rbx
 2478 16a7 E8000000 		call	_ZN8UnitTest11CurrentTest7DetailsEv@PLT
 2478      00
  63:testConv.cpp  **** 	CHECK_EQUAL(13, nibble);
 2479              		.loc 3 63 0 is_stmt 0 discriminator 8
 2480 16ac 488B08   		movq	(%rax), %rcx
 2481 16af 488D45C0 		leaq	-64(%rbp), %rax
 2482 16b3 BA3F0000 		movl	$63, %edx
 2482      00
 2483 16b8 4889CE   		movq	%rcx, %rsi
 2484 16bb 4889C7   		movq	%rax, %rdi
 2485 16be E8000000 		call	_ZN8UnitTest11TestDetailsC1ERKS0_i@PLT
 2485      00
  63:testConv.cpp  **** 	CHECK_EQUAL(13, nibble);
 2486              		.loc 3 63 0 discriminator 12
 2487 16c3 488D45C0 		leaq	-64(%rbp), %rax
 2488 16c7 488D1500 		leaq	.LC3(%rip), %rdx
 2488      000000
 2489 16ce 4889C6   		movq	%rax, %rsi
 2490 16d1 4889DF   		movq	%rbx, %rdi
 2491 16d4 E8000000 		call	_ZN8UnitTest11TestResults13OnTestFailureERKNS_11TestDetailsEPKc@PLT
 2491      00
 2492              	.LEHE195:
 2493              	.LEHB196:
  63:testConv.cpp  **** 	CHECK_EQUAL(13, nibble);
 2494              		.loc 3 63 0 discriminator 14
 2495 16d9 E8000000 		call	__cxa_end_catch@PLT
 2495      00
 2496              	.LEHE196:
 2497 16de E9CCF0FF 		jmp	.L118
 2497      FF
 2498              	.L273:
 2499 16e3 4889C3   		movq	%rax, %rbx
  63:testConv.cpp  **** 	CHECK_EQUAL(13, nibble);
 2500              		.loc 3 63 0
 2501 16e6 E8000000 		call	__cxa_end_catch@PLT
 2501      00
 2502 16eb 4889D8   		movq	%rbx, %rax
 2503 16ee 4889C7   		movq	%rax, %rdi
 2504              	.LEHB197:
 2505 16f1 E8000000 		call	_Unwind_Resume@PLT
 2505      00
 2506              	.LEHE197:
 2507              	.L275:
 2508 16f6 EB00     		jmp	.L121
 2509              	.L274:
 2510              	.L121:
  64:testConv.cpp  **** 	status = getHexNibble('E', &nibble);
 2511              		.loc 3 64 0 is_stmt 1
 2512 16f8 4889C7   		movq	%rax, %rdi
 2513 16fb E8000000 		call	__cxa_begin_catch@PLT
 2513      00
 2514              	.LEHB198:
 2515 1700 E8000000 		call	_ZN8UnitTest11CurrentTest7ResultsEv@PLT
 2515      00
 2516 1705 488B18   		movq	(%rax), %rbx
 2517 1708 E8000000 		call	_ZN8UnitTest11CurrentTest7DetailsEv@PLT
 2517      00
  64:testConv.cpp  **** 	status = getHexNibble('E', &nibble);
 2518              		.loc 3 64 0 is_stmt 0 discriminator 8
 2519 170d 488B08   		movq	(%rax), %rcx
 2520 1710 488D45C0 		leaq	-64(%rbp), %rax
 2521 1714 BA400000 		movl	$64, %edx
 2521      00
 2522 1719 4889CE   		movq	%rcx, %rsi
 2523 171c 4889C7   		movq	%rax, %rdi
 2524 171f E8000000 		call	_ZN8UnitTest11TestDetailsC1ERKS0_i@PLT
 2524      00
  64:testConv.cpp  **** 	status = getHexNibble('E', &nibble);
 2525              		.loc 3 64 0 discriminator 12
 2526 1724 488D45C0 		leaq	-64(%rbp), %rax
 2527 1728 488D1500 		leaq	.LC17(%rip), %rdx
 2527      000000
 2528 172f 4889C6   		movq	%rax, %rsi
 2529 1732 4889DF   		movq	%rbx, %rdi
 2530 1735 E8000000 		call	_ZN8UnitTest11TestResults13OnTestFailureERKNS_11TestDetailsEPKc@PLT
 2530      00
 2531              	.LEHE198:
 2532              	.LEHB199:
  64:testConv.cpp  **** 	status = getHexNibble('E', &nibble);
 2533              		.loc 3 64 0 discriminator 14
 2534 173a E8000000 		call	__cxa_end_catch@PLT
 2534      00
 2535              	.LEHE199:
 2536 173f E9AAF0FF 		jmp	.L122
 2536      FF
 2537              	.L276:
 2538 1744 4889C3   		movq	%rax, %rbx
  64:testConv.cpp  **** 	status = getHexNibble('E', &nibble);
 2539              		.loc 3 64 0
 2540 1747 E8000000 		call	__cxa_end_catch@PLT
 2540      00
 2541 174c 4889D8   		movq	%rbx, %rax
 2542 174f 4889C7   		movq	%rax, %rdi
 2543              	.LEHB200:
 2544 1752 E8000000 		call	_Unwind_Resume@PLT
 2544      00
 2545              	.LEHE200:
 2546              	.L278:
 2547 1757 EB00     		jmp	.L125
 2548              	.L277:
 2549              	.L125:
  66:testConv.cpp  **** 	CHECK_EQUAL(14, nibble);
 2550              		.loc 3 66 0 is_stmt 1
 2551 1759 4889C7   		movq	%rax, %rdi
 2552 175c E8000000 		call	__cxa_begin_catch@PLT
 2552      00
 2553              	.LEHB201:
 2554 1761 E8000000 		call	_ZN8UnitTest11CurrentTest7ResultsEv@PLT
 2554      00
 2555 1766 488B18   		movq	(%rax), %rbx
 2556 1769 E8000000 		call	_ZN8UnitTest11CurrentTest7DetailsEv@PLT
 2556      00
  66:testConv.cpp  **** 	CHECK_EQUAL(14, nibble);
 2557              		.loc 3 66 0 is_stmt 0 discriminator 8
 2558 176e 488B08   		movq	(%rax), %rcx
 2559 1771 488D45C0 		leaq	-64(%rbp), %rax
 2560 1775 BA420000 		movl	$66, %edx
 2560      00
 2561 177a 4889CE   		movq	%rcx, %rsi
 2562 177d 4889C7   		movq	%rax, %rdi
 2563 1780 E8000000 		call	_ZN8UnitTest11TestDetailsC1ERKS0_i@PLT
 2563      00
  66:testConv.cpp  **** 	CHECK_EQUAL(14, nibble);
 2564              		.loc 3 66 0 discriminator 12
 2565 1785 488D45C0 		leaq	-64(%rbp), %rax
 2566 1789 488D1500 		leaq	.LC3(%rip), %rdx
 2566      000000
 2567 1790 4889C6   		movq	%rax, %rsi
 2568 1793 4889DF   		movq	%rbx, %rdi
 2569 1796 E8000000 		call	_ZN8UnitTest11TestResults13OnTestFailureERKNS_11TestDetailsEPKc@PLT
 2569      00
 2570              	.LEHE201:
 2571              	.LEHB202:
  66:testConv.cpp  **** 	CHECK_EQUAL(14, nibble);
 2572              		.loc 3 66 0 discriminator 14
 2573 179b E8000000 		call	__cxa_end_catch@PLT
 2573      00
 2574              	.LEHE202:
 2575 17a0 E999F0FF 		jmp	.L126
 2575      FF
 2576              	.L279:
 2577 17a5 4889C3   		movq	%rax, %rbx
  66:testConv.cpp  **** 	CHECK_EQUAL(14, nibble);
 2578              		.loc 3 66 0
 2579 17a8 E8000000 		call	__cxa_end_catch@PLT
 2579      00
 2580 17ad 4889D8   		movq	%rbx, %rax
 2581 17b0 4889C7   		movq	%rax, %rdi
 2582              	.LEHB203:
 2583 17b3 E8000000 		call	_Unwind_Resume@PLT
 2583      00
 2584              	.LEHE203:
 2585              	.L281:
 2586 17b8 EB00     		jmp	.L129
 2587              	.L280:
 2588              	.L129:
  67:testConv.cpp  **** 	status = getHexNibble('F', &nibble);
 2589              		.loc 3 67 0 is_stmt 1
 2590 17ba 4889C7   		movq	%rax, %rdi
 2591 17bd E8000000 		call	__cxa_begin_catch@PLT
 2591      00
 2592              	.LEHB204:
 2593 17c2 E8000000 		call	_ZN8UnitTest11CurrentTest7ResultsEv@PLT
 2593      00
 2594 17c7 488B18   		movq	(%rax), %rbx
 2595 17ca E8000000 		call	_ZN8UnitTest11CurrentTest7DetailsEv@PLT
 2595      00
  67:testConv.cpp  **** 	status = getHexNibble('F', &nibble);
 2596              		.loc 3 67 0 is_stmt 0 discriminator 8
 2597 17cf 488B08   		movq	(%rax), %rcx
 2598 17d2 488D45C0 		leaq	-64(%rbp), %rax
 2599 17d6 BA430000 		movl	$67, %edx
 2599      00
 2600 17db 4889CE   		movq	%rcx, %rsi
 2601 17de 4889C7   		movq	%rax, %rdi
 2602 17e1 E8000000 		call	_ZN8UnitTest11TestDetailsC1ERKS0_i@PLT
 2602      00
  67:testConv.cpp  **** 	status = getHexNibble('F', &nibble);
 2603              		.loc 3 67 0 discriminator 12
 2604 17e6 488D45C0 		leaq	-64(%rbp), %rax
 2605 17ea 488D1500 		leaq	.LC18(%rip), %rdx
 2605      000000
 2606 17f1 4889C6   		movq	%rax, %rsi
 2607 17f4 4889DF   		movq	%rbx, %rdi
 2608 17f7 E8000000 		call	_ZN8UnitTest11TestResults13OnTestFailureERKNS_11TestDetailsEPKc@PLT
 2608      00
 2609              	.LEHE204:
 2610              	.LEHB205:
  67:testConv.cpp  **** 	status = getHexNibble('F', &nibble);
 2611              		.loc 3 67 0 discriminator 14
 2612 17fc E8000000 		call	__cxa_end_catch@PLT
 2612      00
 2613              	.LEHE205:
 2614 1801 E977F0FF 		jmp	.L130
 2614      FF
 2615              	.L282:
 2616 1806 4889C3   		movq	%rax, %rbx
  67:testConv.cpp  **** 	status = getHexNibble('F', &nibble);
 2617              		.loc 3 67 0
 2618 1809 E8000000 		call	__cxa_end_catch@PLT
 2618      00
 2619 180e 4889D8   		movq	%rbx, %rax
 2620 1811 4889C7   		movq	%rax, %rdi
 2621              	.LEHB206:
 2622 1814 E8000000 		call	_Unwind_Resume@PLT
 2622      00
 2623              	.LEHE206:
 2624              	.L284:
 2625 1819 EB00     		jmp	.L133
 2626              	.L283:
 2627              	.L133:
  69:testConv.cpp  **** 	CHECK_EQUAL(15, nibble);
 2628              		.loc 3 69 0 is_stmt 1
 2629 181b 4889C7   		movq	%rax, %rdi
 2630 181e E8000000 		call	__cxa_begin_catch@PLT
 2630      00
 2631              	.LEHB207:
 2632 1823 E8000000 		call	_ZN8UnitTest11CurrentTest7ResultsEv@PLT
 2632      00
 2633 1828 488B18   		movq	(%rax), %rbx
 2634 182b E8000000 		call	_ZN8UnitTest11CurrentTest7DetailsEv@PLT
 2634      00
  69:testConv.cpp  **** 	CHECK_EQUAL(15, nibble);
 2635              		.loc 3 69 0 is_stmt 0 discriminator 8
 2636 1830 488B08   		movq	(%rax), %rcx
 2637 1833 488D45C0 		leaq	-64(%rbp), %rax
 2638 1837 BA450000 		movl	$69, %edx
 2638      00
 2639 183c 4889CE   		movq	%rcx, %rsi
 2640 183f 4889C7   		movq	%rax, %rdi
 2641 1842 E8000000 		call	_ZN8UnitTest11TestDetailsC1ERKS0_i@PLT
 2641      00
  69:testConv.cpp  **** 	CHECK_EQUAL(15, nibble);
 2642              		.loc 3 69 0 discriminator 12
 2643 1847 488D45C0 		leaq	-64(%rbp), %rax
 2644 184b 488D1500 		leaq	.LC3(%rip), %rdx
 2644      000000
 2645 1852 4889C6   		movq	%rax, %rsi
 2646 1855 4889DF   		movq	%rbx, %rdi
 2647 1858 E8000000 		call	_ZN8UnitTest11TestResults13OnTestFailureERKNS_11TestDetailsEPKc@PLT
 2647      00
 2648              	.LEHE207:
 2649              	.LEHB208:
  69:testConv.cpp  **** 	CHECK_EQUAL(15, nibble);
 2650              		.loc 3 69 0 discriminator 14
 2651 185d E8000000 		call	__cxa_end_catch@PLT
 2651      00
 2652              	.LEHE208:
 2653 1862 E966F0FF 		jmp	.L134
 2653      FF
 2654              	.L285:
 2655 1867 4889C3   		movq	%rax, %rbx
  69:testConv.cpp  **** 	CHECK_EQUAL(15, nibble);
 2656              		.loc 3 69 0
 2657 186a E8000000 		call	__cxa_end_catch@PLT
 2657      00
 2658 186f 4889D8   		movq	%rbx, %rax
 2659 1872 4889C7   		movq	%rax, %rdi
 2660              	.LEHB209:
 2661 1875 E8000000 		call	_Unwind_Resume@PLT
 2661      00
 2662              	.LEHE209:
 2663              	.L287:
 2664 187a EB00     		jmp	.L137
 2665              	.L286:
 2666              	.L137:
  70:testConv.cpp  **** 	status = getHexNibble('a', &nibble);
 2667              		.loc 3 70 0 is_stmt 1
 2668 187c 4889C7   		movq	%rax, %rdi
 2669 187f E8000000 		call	__cxa_begin_catch@PLT
 2669      00
 2670              	.LEHB210:
 2671 1884 E8000000 		call	_ZN8UnitTest11CurrentTest7ResultsEv@PLT
 2671      00
 2672 1889 488B18   		movq	(%rax), %rbx
 2673 188c E8000000 		call	_ZN8UnitTest11CurrentTest7DetailsEv@PLT
 2673      00
  70:testConv.cpp  **** 	status = getHexNibble('a', &nibble);
 2674              		.loc 3 70 0 is_stmt 0 discriminator 8
 2675 1891 488B08   		movq	(%rax), %rcx
 2676 1894 488D45C0 		leaq	-64(%rbp), %rax
 2677 1898 BA460000 		movl	$70, %edx
 2677      00
 2678 189d 4889CE   		movq	%rcx, %rsi
 2679 18a0 4889C7   		movq	%rax, %rdi
 2680 18a3 E8000000 		call	_ZN8UnitTest11TestDetailsC1ERKS0_i@PLT
 2680      00
  70:testConv.cpp  **** 	status = getHexNibble('a', &nibble);
 2681              		.loc 3 70 0 discriminator 12
 2682 18a8 488D45C0 		leaq	-64(%rbp), %rax
 2683 18ac 488D1500 		leaq	.LC19(%rip), %rdx
 2683      000000
 2684 18b3 4889C6   		movq	%rax, %rsi
 2685 18b6 4889DF   		movq	%rbx, %rdi
 2686 18b9 E8000000 		call	_ZN8UnitTest11TestResults13OnTestFailureERKNS_11TestDetailsEPKc@PLT
 2686      00
 2687              	.LEHE210:
 2688              	.LEHB211:
  70:testConv.cpp  **** 	status = getHexNibble('a', &nibble);
 2689              		.loc 3 70 0 discriminator 14
 2690 18be E8000000 		call	__cxa_end_catch@PLT
 2690      00
 2691              	.LEHE211:
 2692 18c3 E944F0FF 		jmp	.L138
 2692      FF
 2693              	.L288:
 2694 18c8 4889C3   		movq	%rax, %rbx
  70:testConv.cpp  **** 	status = getHexNibble('a', &nibble);
 2695              		.loc 3 70 0
 2696 18cb E8000000 		call	__cxa_end_catch@PLT
 2696      00
 2697 18d0 4889D8   		movq	%rbx, %rax
 2698 18d3 4889C7   		movq	%rax, %rdi
 2699              	.LEHB212:
 2700 18d6 E8000000 		call	_Unwind_Resume@PLT
 2700      00
 2701              	.LEHE212:
 2702              	.L290:
 2703 18db EB00     		jmp	.L141
 2704              	.L289:
 2705              	.L141:
  72:testConv.cpp  **** 	CHECK_EQUAL(10, nibble);
 2706              		.loc 3 72 0 is_stmt 1
 2707 18dd 4889C7   		movq	%rax, %rdi
 2708 18e0 E8000000 		call	__cxa_begin_catch@PLT
 2708      00
 2709              	.LEHB213:
 2710 18e5 E8000000 		call	_ZN8UnitTest11CurrentTest7ResultsEv@PLT
 2710      00
 2711 18ea 488B18   		movq	(%rax), %rbx
 2712 18ed E8000000 		call	_ZN8UnitTest11CurrentTest7DetailsEv@PLT
 2712      00
  72:testConv.cpp  **** 	CHECK_EQUAL(10, nibble);
 2713              		.loc 3 72 0 is_stmt 0 discriminator 8
 2714 18f2 488B08   		movq	(%rax), %rcx
 2715 18f5 488D45C0 		leaq	-64(%rbp), %rax
 2716 18f9 BA480000 		movl	$72, %edx
 2716      00
 2717 18fe 4889CE   		movq	%rcx, %rsi
 2718 1901 4889C7   		movq	%rax, %rdi
 2719 1904 E8000000 		call	_ZN8UnitTest11TestDetailsC1ERKS0_i@PLT
 2719      00
  72:testConv.cpp  **** 	CHECK_EQUAL(10, nibble);
 2720              		.loc 3 72 0 discriminator 12
 2721 1909 488D45C0 		leaq	-64(%rbp), %rax
 2722 190d 488D1500 		leaq	.LC3(%rip), %rdx
 2722      000000
 2723 1914 4889C6   		movq	%rax, %rsi
 2724 1917 4889DF   		movq	%rbx, %rdi
 2725 191a E8000000 		call	_ZN8UnitTest11TestResults13OnTestFailureERKNS_11TestDetailsEPKc@PLT
 2725      00
 2726              	.LEHE213:
 2727              	.LEHB214:
  72:testConv.cpp  **** 	CHECK_EQUAL(10, nibble);
 2728              		.loc 3 72 0 discriminator 14
 2729 191f E8000000 		call	__cxa_end_catch@PLT
 2729      00
 2730              	.LEHE214:
 2731 1924 E933F0FF 		jmp	.L142
 2731      FF
 2732              	.L291:
 2733 1929 4889C3   		movq	%rax, %rbx
  72:testConv.cpp  **** 	CHECK_EQUAL(10, nibble);
 2734              		.loc 3 72 0
 2735 192c E8000000 		call	__cxa_end_catch@PLT
 2735      00
 2736 1931 4889D8   		movq	%rbx, %rax
 2737 1934 4889C7   		movq	%rax, %rdi
 2738              	.LEHB215:
 2739 1937 E8000000 		call	_Unwind_Resume@PLT
 2739      00
 2740              	.LEHE215:
 2741              	.L293:
 2742 193c EB00     		jmp	.L145
 2743              	.L292:
 2744              	.L145:
  73:testConv.cpp  **** 	status = getHexNibble('b', &nibble);
 2745              		.loc 3 73 0 is_stmt 1
 2746 193e 4889C7   		movq	%rax, %rdi
 2747 1941 E8000000 		call	__cxa_begin_catch@PLT
 2747      00
 2748              	.LEHB216:
 2749 1946 E8000000 		call	_ZN8UnitTest11CurrentTest7ResultsEv@PLT
 2749      00
 2750 194b 488B18   		movq	(%rax), %rbx
 2751 194e E8000000 		call	_ZN8UnitTest11CurrentTest7DetailsEv@PLT
 2751      00
  73:testConv.cpp  **** 	status = getHexNibble('b', &nibble);
 2752              		.loc 3 73 0 is_stmt 0 discriminator 8
 2753 1953 488B08   		movq	(%rax), %rcx
 2754 1956 488D45C0 		leaq	-64(%rbp), %rax
 2755 195a BA490000 		movl	$73, %edx
 2755      00
 2756 195f 4889CE   		movq	%rcx, %rsi
 2757 1962 4889C7   		movq	%rax, %rdi
 2758 1965 E8000000 		call	_ZN8UnitTest11TestDetailsC1ERKS0_i@PLT
 2758      00
  73:testConv.cpp  **** 	status = getHexNibble('b', &nibble);
 2759              		.loc 3 73 0 discriminator 12
 2760 196a 488D45C0 		leaq	-64(%rbp), %rax
 2761 196e 488D1500 		leaq	.LC14(%rip), %rdx
 2761      000000
 2762 1975 4889C6   		movq	%rax, %rsi
 2763 1978 4889DF   		movq	%rbx, %rdi
 2764 197b E8000000 		call	_ZN8UnitTest11TestResults13OnTestFailureERKNS_11TestDetailsEPKc@PLT
 2764      00
 2765              	.LEHE216:
 2766              	.LEHB217:
  73:testConv.cpp  **** 	status = getHexNibble('b', &nibble);
 2767              		.loc 3 73 0 discriminator 14
 2768 1980 E8000000 		call	__cxa_end_catch@PLT
 2768      00
 2769              	.LEHE217:
 2770 1985 E911F0FF 		jmp	.L146
 2770      FF
 2771              	.L294:
 2772 198a 4889C3   		movq	%rax, %rbx
  73:testConv.cpp  **** 	status = getHexNibble('b', &nibble);
 2773              		.loc 3 73 0
 2774 198d E8000000 		call	__cxa_end_catch@PLT
 2774      00
 2775 1992 4889D8   		movq	%rbx, %rax
 2776 1995 4889C7   		movq	%rax, %rdi
 2777              	.LEHB218:
 2778 1998 E8000000 		call	_Unwind_Resume@PLT
 2778      00
 2779              	.LEHE218:
 2780              	.L296:
 2781 199d EB00     		jmp	.L149
 2782              	.L295:
 2783              	.L149:
  75:testConv.cpp  **** 	CHECK_EQUAL(11, nibble);
 2784              		.loc 3 75 0 is_stmt 1
 2785 199f 4889C7   		movq	%rax, %rdi
 2786 19a2 E8000000 		call	__cxa_begin_catch@PLT
 2786      00
 2787              	.LEHB219:
 2788 19a7 E8000000 		call	_ZN8UnitTest11CurrentTest7ResultsEv@PLT
 2788      00
 2789 19ac 488B18   		movq	(%rax), %rbx
 2790 19af E8000000 		call	_ZN8UnitTest11CurrentTest7DetailsEv@PLT
 2790      00
  75:testConv.cpp  **** 	CHECK_EQUAL(11, nibble);
 2791              		.loc 3 75 0 is_stmt 0 discriminator 8
 2792 19b4 488B08   		movq	(%rax), %rcx
 2793 19b7 488D45C0 		leaq	-64(%rbp), %rax
 2794 19bb BA4B0000 		movl	$75, %edx
 2794      00
 2795 19c0 4889CE   		movq	%rcx, %rsi
 2796 19c3 4889C7   		movq	%rax, %rdi
 2797 19c6 E8000000 		call	_ZN8UnitTest11TestDetailsC1ERKS0_i@PLT
 2797      00
  75:testConv.cpp  **** 	CHECK_EQUAL(11, nibble);
 2798              		.loc 3 75 0 discriminator 12
 2799 19cb 488D45C0 		leaq	-64(%rbp), %rax
 2800 19cf 488D1500 		leaq	.LC3(%rip), %rdx
 2800      000000
 2801 19d6 4889C6   		movq	%rax, %rsi
 2802 19d9 4889DF   		movq	%rbx, %rdi
 2803 19dc E8000000 		call	_ZN8UnitTest11TestResults13OnTestFailureERKNS_11TestDetailsEPKc@PLT
 2803      00
 2804              	.LEHE219:
 2805              	.LEHB220:
  75:testConv.cpp  **** 	CHECK_EQUAL(11, nibble);
 2806              		.loc 3 75 0 discriminator 14
 2807 19e1 E8000000 		call	__cxa_end_catch@PLT
 2807      00
 2808              	.LEHE220:
 2809 19e6 E900F0FF 		jmp	.L150
 2809      FF
 2810              	.L297:
 2811 19eb 4889C3   		movq	%rax, %rbx
  75:testConv.cpp  **** 	CHECK_EQUAL(11, nibble);
 2812              		.loc 3 75 0
 2813 19ee E8000000 		call	__cxa_end_catch@PLT
 2813      00
 2814 19f3 4889D8   		movq	%rbx, %rax
 2815 19f6 4889C7   		movq	%rax, %rdi
 2816              	.LEHB221:
 2817 19f9 E8000000 		call	_Unwind_Resume@PLT
 2817      00
 2818              	.LEHE221:
 2819              	.L299:
 2820 19fe EB00     		jmp	.L153
 2821              	.L298:
 2822              	.L153:
  76:testConv.cpp  **** 	status = getHexNibble('c', &nibble);
 2823              		.loc 3 76 0 is_stmt 1
 2824 1a00 4889C7   		movq	%rax, %rdi
 2825 1a03 E8000000 		call	__cxa_begin_catch@PLT
 2825      00
 2826              	.LEHB222:
 2827 1a08 E8000000 		call	_ZN8UnitTest11CurrentTest7ResultsEv@PLT
 2827      00
 2828 1a0d 488B18   		movq	(%rax), %rbx
 2829 1a10 E8000000 		call	_ZN8UnitTest11CurrentTest7DetailsEv@PLT
 2829      00
  76:testConv.cpp  **** 	status = getHexNibble('c', &nibble);
 2830              		.loc 3 76 0 is_stmt 0 discriminator 8
 2831 1a15 488B08   		movq	(%rax), %rcx
 2832 1a18 488D45C0 		leaq	-64(%rbp), %rax
 2833 1a1c BA4C0000 		movl	$76, %edx
 2833      00
 2834 1a21 4889CE   		movq	%rcx, %rsi
 2835 1a24 4889C7   		movq	%rax, %rdi
 2836 1a27 E8000000 		call	_ZN8UnitTest11TestDetailsC1ERKS0_i@PLT
 2836      00
  76:testConv.cpp  **** 	status = getHexNibble('c', &nibble);
 2837              		.loc 3 76 0 discriminator 12
 2838 1a2c 488D45C0 		leaq	-64(%rbp), %rax
 2839 1a30 488D1500 		leaq	.LC15(%rip), %rdx
 2839      000000
 2840 1a37 4889C6   		movq	%rax, %rsi
 2841 1a3a 4889DF   		movq	%rbx, %rdi
 2842 1a3d E8000000 		call	_ZN8UnitTest11TestResults13OnTestFailureERKNS_11TestDetailsEPKc@PLT
 2842      00
 2843              	.LEHE222:
 2844              	.LEHB223:
  76:testConv.cpp  **** 	status = getHexNibble('c', &nibble);
 2845              		.loc 3 76 0 discriminator 14
 2846 1a42 E8000000 		call	__cxa_end_catch@PLT
 2846      00
 2847              	.LEHE223:
 2848 1a47 E9DEEFFF 		jmp	.L154
 2848      FF
 2849              	.L300:
 2850 1a4c 4889C3   		movq	%rax, %rbx
  76:testConv.cpp  **** 	status = getHexNibble('c', &nibble);
 2851              		.loc 3 76 0
 2852 1a4f E8000000 		call	__cxa_end_catch@PLT
 2852      00
 2853 1a54 4889D8   		movq	%rbx, %rax
 2854 1a57 4889C7   		movq	%rax, %rdi
 2855              	.LEHB224:
 2856 1a5a E8000000 		call	_Unwind_Resume@PLT
 2856      00
 2857              	.LEHE224:
 2858              	.L302:
 2859 1a5f EB00     		jmp	.L157
 2860              	.L301:
 2861              	.L157:
  78:testConv.cpp  **** 	CHECK_EQUAL(12, nibble);
 2862              		.loc 3 78 0 is_stmt 1
 2863 1a61 4889C7   		movq	%rax, %rdi
 2864 1a64 E8000000 		call	__cxa_begin_catch@PLT
 2864      00
 2865              	.LEHB225:
 2866 1a69 E8000000 		call	_ZN8UnitTest11CurrentTest7ResultsEv@PLT
 2866      00
 2867 1a6e 488B18   		movq	(%rax), %rbx
 2868 1a71 E8000000 		call	_ZN8UnitTest11CurrentTest7DetailsEv@PLT
 2868      00
  78:testConv.cpp  **** 	CHECK_EQUAL(12, nibble);
 2869              		.loc 3 78 0 is_stmt 0 discriminator 8
 2870 1a76 488B08   		movq	(%rax), %rcx
 2871 1a79 488D45C0 		leaq	-64(%rbp), %rax
 2872 1a7d BA4E0000 		movl	$78, %edx
 2872      00
 2873 1a82 4889CE   		movq	%rcx, %rsi
 2874 1a85 4889C7   		movq	%rax, %rdi
 2875 1a88 E8000000 		call	_ZN8UnitTest11TestDetailsC1ERKS0_i@PLT
 2875      00
  78:testConv.cpp  **** 	CHECK_EQUAL(12, nibble);
 2876              		.loc 3 78 0 discriminator 12
 2877 1a8d 488D45C0 		leaq	-64(%rbp), %rax
 2878 1a91 488D1500 		leaq	.LC3(%rip), %rdx
 2878      000000
 2879 1a98 4889C6   		movq	%rax, %rsi
 2880 1a9b 4889DF   		movq	%rbx, %rdi
 2881 1a9e E8000000 		call	_ZN8UnitTest11TestResults13OnTestFailureERKNS_11TestDetailsEPKc@PLT
 2881      00
 2882              	.LEHE225:
 2883              	.LEHB226:
  78:testConv.cpp  **** 	CHECK_EQUAL(12, nibble);
 2884              		.loc 3 78 0 discriminator 14
 2885 1aa3 E8000000 		call	__cxa_end_catch@PLT
 2885      00
 2886              	.LEHE226:
 2887 1aa8 E9CDEFFF 		jmp	.L158
 2887      FF
 2888              	.L303:
 2889 1aad 4889C3   		movq	%rax, %rbx
  78:testConv.cpp  **** 	CHECK_EQUAL(12, nibble);
 2890              		.loc 3 78 0
 2891 1ab0 E8000000 		call	__cxa_end_catch@PLT
 2891      00
 2892 1ab5 4889D8   		movq	%rbx, %rax
 2893 1ab8 4889C7   		movq	%rax, %rdi
 2894              	.LEHB227:
 2895 1abb E8000000 		call	_Unwind_Resume@PLT
 2895      00
 2896              	.LEHE227:
 2897              	.L305:
 2898 1ac0 EB00     		jmp	.L161
 2899              	.L304:
 2900              	.L161:
  79:testConv.cpp  **** 	status = getHexNibble('d', &nibble);
 2901              		.loc 3 79 0 is_stmt 1
 2902 1ac2 4889C7   		movq	%rax, %rdi
 2903 1ac5 E8000000 		call	__cxa_begin_catch@PLT
 2903      00
 2904              	.LEHB228:
 2905 1aca E8000000 		call	_ZN8UnitTest11CurrentTest7ResultsEv@PLT
 2905      00
 2906 1acf 488B18   		movq	(%rax), %rbx
 2907 1ad2 E8000000 		call	_ZN8UnitTest11CurrentTest7DetailsEv@PLT
 2907      00
  79:testConv.cpp  **** 	status = getHexNibble('d', &nibble);
 2908              		.loc 3 79 0 is_stmt 0 discriminator 8
 2909 1ad7 488B08   		movq	(%rax), %rcx
 2910 1ada 488D45C0 		leaq	-64(%rbp), %rax
 2911 1ade BA4F0000 		movl	$79, %edx
 2911      00
 2912 1ae3 4889CE   		movq	%rcx, %rsi
 2913 1ae6 4889C7   		movq	%rax, %rdi
 2914 1ae9 E8000000 		call	_ZN8UnitTest11TestDetailsC1ERKS0_i@PLT
 2914      00
  79:testConv.cpp  **** 	status = getHexNibble('d', &nibble);
 2915              		.loc 3 79 0 discriminator 12
 2916 1aee 488D45C0 		leaq	-64(%rbp), %rax
 2917 1af2 488D1500 		leaq	.LC16(%rip), %rdx
 2917      000000
 2918 1af9 4889C6   		movq	%rax, %rsi
 2919 1afc 4889DF   		movq	%rbx, %rdi
 2920 1aff E8000000 		call	_ZN8UnitTest11TestResults13OnTestFailureERKNS_11TestDetailsEPKc@PLT
 2920      00
 2921              	.LEHE228:
 2922              	.LEHB229:
  79:testConv.cpp  **** 	status = getHexNibble('d', &nibble);
 2923              		.loc 3 79 0 discriminator 14
 2924 1b04 E8000000 		call	__cxa_end_catch@PLT
 2924      00
 2925              	.LEHE229:
 2926 1b09 E9ABEFFF 		jmp	.L162
 2926      FF
 2927              	.L306:
 2928 1b0e 4889C3   		movq	%rax, %rbx
  79:testConv.cpp  **** 	status = getHexNibble('d', &nibble);
 2929              		.loc 3 79 0
 2930 1b11 E8000000 		call	__cxa_end_catch@PLT
 2930      00
 2931 1b16 4889D8   		movq	%rbx, %rax
 2932 1b19 4889C7   		movq	%rax, %rdi
 2933              	.LEHB230:
 2934 1b1c E8000000 		call	_Unwind_Resume@PLT
 2934      00
 2935              	.LEHE230:
 2936              	.L308:
 2937 1b21 EB00     		jmp	.L165
 2938              	.L307:
 2939              	.L165:
  81:testConv.cpp  **** 	CHECK_EQUAL(13, nibble);
 2940              		.loc 3 81 0 is_stmt 1
 2941 1b23 4889C7   		movq	%rax, %rdi
 2942 1b26 E8000000 		call	__cxa_begin_catch@PLT
 2942      00
 2943              	.LEHB231:
 2944 1b2b E8000000 		call	_ZN8UnitTest11CurrentTest7ResultsEv@PLT
 2944      00
 2945 1b30 488B18   		movq	(%rax), %rbx
 2946 1b33 E8000000 		call	_ZN8UnitTest11CurrentTest7DetailsEv@PLT
 2946      00
  81:testConv.cpp  **** 	CHECK_EQUAL(13, nibble);
 2947              		.loc 3 81 0 is_stmt 0 discriminator 8
 2948 1b38 488B08   		movq	(%rax), %rcx
 2949 1b3b 488D45C0 		leaq	-64(%rbp), %rax
 2950 1b3f BA510000 		movl	$81, %edx
 2950      00
 2951 1b44 4889CE   		movq	%rcx, %rsi
 2952 1b47 4889C7   		movq	%rax, %rdi
 2953 1b4a E8000000 		call	_ZN8UnitTest11TestDetailsC1ERKS0_i@PLT
 2953      00
  81:testConv.cpp  **** 	CHECK_EQUAL(13, nibble);
 2954              		.loc 3 81 0 discriminator 12
 2955 1b4f 488D45C0 		leaq	-64(%rbp), %rax
 2956 1b53 488D1500 		leaq	.LC3(%rip), %rdx
 2956      000000
 2957 1b5a 4889C6   		movq	%rax, %rsi
 2958 1b5d 4889DF   		movq	%rbx, %rdi
 2959 1b60 E8000000 		call	_ZN8UnitTest11TestResults13OnTestFailureERKNS_11TestDetailsEPKc@PLT
 2959      00
 2960              	.LEHE231:
 2961              	.LEHB232:
  81:testConv.cpp  **** 	CHECK_EQUAL(13, nibble);
 2962              		.loc 3 81 0 discriminator 14
 2963 1b65 E8000000 		call	__cxa_end_catch@PLT
 2963      00
 2964              	.LEHE232:
 2965 1b6a E99AEFFF 		jmp	.L166
 2965      FF
 2966              	.L309:
 2967 1b6f 4889C3   		movq	%rax, %rbx
  81:testConv.cpp  **** 	CHECK_EQUAL(13, nibble);
 2968              		.loc 3 81 0
 2969 1b72 E8000000 		call	__cxa_end_catch@PLT
 2969      00
 2970 1b77 4889D8   		movq	%rbx, %rax
 2971 1b7a 4889C7   		movq	%rax, %rdi
 2972              	.LEHB233:
 2973 1b7d E8000000 		call	_Unwind_Resume@PLT
 2973      00
 2974              	.LEHE233:
 2975              	.L311:
 2976 1b82 EB00     		jmp	.L169
 2977              	.L310:
 2978              	.L169:
  82:testConv.cpp  **** 	status = getHexNibble('e', &nibble);
 2979              		.loc 3 82 0 is_stmt 1
 2980 1b84 4889C7   		movq	%rax, %rdi
 2981 1b87 E8000000 		call	__cxa_begin_catch@PLT
 2981      00
 2982              	.LEHB234:
 2983 1b8c E8000000 		call	_ZN8UnitTest11CurrentTest7ResultsEv@PLT
 2983      00
 2984 1b91 488B18   		movq	(%rax), %rbx
 2985 1b94 E8000000 		call	_ZN8UnitTest11CurrentTest7DetailsEv@PLT
 2985      00
  82:testConv.cpp  **** 	status = getHexNibble('e', &nibble);
 2986              		.loc 3 82 0 is_stmt 0 discriminator 8
 2987 1b99 488B08   		movq	(%rax), %rcx
 2988 1b9c 488D45C0 		leaq	-64(%rbp), %rax
 2989 1ba0 BA520000 		movl	$82, %edx
 2989      00
 2990 1ba5 4889CE   		movq	%rcx, %rsi
 2991 1ba8 4889C7   		movq	%rax, %rdi
 2992 1bab E8000000 		call	_ZN8UnitTest11TestDetailsC1ERKS0_i@PLT
 2992      00
  82:testConv.cpp  **** 	status = getHexNibble('e', &nibble);
 2993              		.loc 3 82 0 discriminator 12
 2994 1bb0 488D45C0 		leaq	-64(%rbp), %rax
 2995 1bb4 488D1500 		leaq	.LC17(%rip), %rdx
 2995      000000
 2996 1bbb 4889C6   		movq	%rax, %rsi
 2997 1bbe 4889DF   		movq	%rbx, %rdi
 2998 1bc1 E8000000 		call	_ZN8UnitTest11TestResults13OnTestFailureERKNS_11TestDetailsEPKc@PLT
 2998      00
 2999              	.LEHE234:
 3000              	.LEHB235:
  82:testConv.cpp  **** 	status = getHexNibble('e', &nibble);
 3001              		.loc 3 82 0 discriminator 14
 3002 1bc6 E8000000 		call	__cxa_end_catch@PLT
 3002      00
 3003              	.LEHE235:
 3004 1bcb E978EFFF 		jmp	.L170
 3004      FF
 3005              	.L312:
 3006 1bd0 4889C3   		movq	%rax, %rbx
  82:testConv.cpp  **** 	status = getHexNibble('e', &nibble);
 3007              		.loc 3 82 0
 3008 1bd3 E8000000 		call	__cxa_end_catch@PLT
 3008      00
 3009 1bd8 4889D8   		movq	%rbx, %rax
 3010 1bdb 4889C7   		movq	%rax, %rdi
 3011              	.LEHB236:
 3012 1bde E8000000 		call	_Unwind_Resume@PLT
 3012      00
 3013              	.LEHE236:
 3014              	.L314:
 3015 1be3 EB00     		jmp	.L173
 3016              	.L313:
 3017              	.L173:
  84:testConv.cpp  **** 	CHECK_EQUAL(14, nibble);
 3018              		.loc 3 84 0 is_stmt 1
 3019 1be5 4889C7   		movq	%rax, %rdi
 3020 1be8 E8000000 		call	__cxa_begin_catch@PLT
 3020      00
 3021              	.LEHB237:
 3022 1bed E8000000 		call	_ZN8UnitTest11CurrentTest7ResultsEv@PLT
 3022      00
 3023 1bf2 488B18   		movq	(%rax), %rbx
 3024 1bf5 E8000000 		call	_ZN8UnitTest11CurrentTest7DetailsEv@PLT
 3024      00
  84:testConv.cpp  **** 	CHECK_EQUAL(14, nibble);
 3025              		.loc 3 84 0 is_stmt 0 discriminator 8
 3026 1bfa 488B08   		movq	(%rax), %rcx
 3027 1bfd 488D45C0 		leaq	-64(%rbp), %rax
 3028 1c01 BA540000 		movl	$84, %edx
 3028      00
 3029 1c06 4889CE   		movq	%rcx, %rsi
 3030 1c09 4889C7   		movq	%rax, %rdi
 3031 1c0c E8000000 		call	_ZN8UnitTest11TestDetailsC1ERKS0_i@PLT
 3031      00
  84:testConv.cpp  **** 	CHECK_EQUAL(14, nibble);
 3032              		.loc 3 84 0 discriminator 12
 3033 1c11 488D45C0 		leaq	-64(%rbp), %rax
 3034 1c15 488D1500 		leaq	.LC3(%rip), %rdx
 3034      000000
 3035 1c1c 4889C6   		movq	%rax, %rsi
 3036 1c1f 4889DF   		movq	%rbx, %rdi
 3037 1c22 E8000000 		call	_ZN8UnitTest11TestResults13OnTestFailureERKNS_11TestDetailsEPKc@PLT
 3037      00
 3038              	.LEHE237:
 3039              	.LEHB238:
  84:testConv.cpp  **** 	CHECK_EQUAL(14, nibble);
 3040              		.loc 3 84 0 discriminator 14
 3041 1c27 E8000000 		call	__cxa_end_catch@PLT
 3041      00
 3042              	.LEHE238:
 3043 1c2c E967EFFF 		jmp	.L174
 3043      FF
 3044              	.L315:
 3045 1c31 4889C3   		movq	%rax, %rbx
  84:testConv.cpp  **** 	CHECK_EQUAL(14, nibble);
 3046              		.loc 3 84 0
 3047 1c34 E8000000 		call	__cxa_end_catch@PLT
 3047      00
 3048 1c39 4889D8   		movq	%rbx, %rax
 3049 1c3c 4889C7   		movq	%rax, %rdi
 3050              	.LEHB239:
 3051 1c3f E8000000 		call	_Unwind_Resume@PLT
 3051      00
 3052              	.LEHE239:
 3053              	.L317:
 3054 1c44 EB00     		jmp	.L177
 3055              	.L316:
 3056              	.L177:
  85:testConv.cpp  **** 	status = getHexNibble('f', &nibble);
 3057              		.loc 3 85 0 is_stmt 1
 3058 1c46 4889C7   		movq	%rax, %rdi
 3059 1c49 E8000000 		call	__cxa_begin_catch@PLT
 3059      00
 3060              	.LEHB240:
 3061 1c4e E8000000 		call	_ZN8UnitTest11CurrentTest7ResultsEv@PLT
 3061      00
 3062 1c53 488B18   		movq	(%rax), %rbx
 3063 1c56 E8000000 		call	_ZN8UnitTest11CurrentTest7DetailsEv@PLT
 3063      00
  85:testConv.cpp  **** 	status = getHexNibble('f', &nibble);
 3064              		.loc 3 85 0 is_stmt 0 discriminator 8
 3065 1c5b 488B08   		movq	(%rax), %rcx
 3066 1c5e 488D45C0 		leaq	-64(%rbp), %rax
 3067 1c62 BA550000 		movl	$85, %edx
 3067      00
 3068 1c67 4889CE   		movq	%rcx, %rsi
 3069 1c6a 4889C7   		movq	%rax, %rdi
 3070 1c6d E8000000 		call	_ZN8UnitTest11TestDetailsC1ERKS0_i@PLT
 3070      00
  85:testConv.cpp  **** 	status = getHexNibble('f', &nibble);
 3071              		.loc 3 85 0 discriminator 12
 3072 1c72 488D45C0 		leaq	-64(%rbp), %rax
 3073 1c76 488D1500 		leaq	.LC18(%rip), %rdx
 3073      000000
 3074 1c7d 4889C6   		movq	%rax, %rsi
 3075 1c80 4889DF   		movq	%rbx, %rdi
 3076 1c83 E8000000 		call	_ZN8UnitTest11TestResults13OnTestFailureERKNS_11TestDetailsEPKc@PLT
 3076      00
 3077              	.LEHE240:
 3078              	.LEHB241:
  85:testConv.cpp  **** 	status = getHexNibble('f', &nibble);
 3079              		.loc 3 85 0 discriminator 14
 3080 1c88 E8000000 		call	__cxa_end_catch@PLT
 3080      00
 3081              	.LEHE241:
 3082 1c8d E945EFFF 		jmp	.L178
 3082      FF
 3083              	.L318:
 3084 1c92 4889C3   		movq	%rax, %rbx
  85:testConv.cpp  **** 	status = getHexNibble('f', &nibble);
 3085              		.loc 3 85 0
 3086 1c95 E8000000 		call	__cxa_end_catch@PLT
 3086      00
 3087 1c9a 4889D8   		movq	%rbx, %rax
 3088 1c9d 4889C7   		movq	%rax, %rdi
 3089              	.LEHB242:
 3090 1ca0 E8000000 		call	_Unwind_Resume@PLT
 3090      00
 3091              	.LEHE242:
 3092              	.L320:
 3093 1ca5 EB00     		jmp	.L181
 3094              	.L319:
 3095              	.L181:
  87:testConv.cpp  **** 	CHECK_EQUAL(15, nibble);
 3096              		.loc 3 87 0 is_stmt 1
 3097 1ca7 4889C7   		movq	%rax, %rdi
 3098 1caa E8000000 		call	__cxa_begin_catch@PLT
 3098      00
 3099              	.LEHB243:
 3100 1caf E8000000 		call	_ZN8UnitTest11CurrentTest7ResultsEv@PLT
 3100      00
 3101 1cb4 488B18   		movq	(%rax), %rbx
 3102 1cb7 E8000000 		call	_ZN8UnitTest11CurrentTest7DetailsEv@PLT
 3102      00
  87:testConv.cpp  **** 	CHECK_EQUAL(15, nibble);
 3103              		.loc 3 87 0 is_stmt 0 discriminator 8
 3104 1cbc 488B08   		movq	(%rax), %rcx
 3105 1cbf 488D45C0 		leaq	-64(%rbp), %rax
 3106 1cc3 BA570000 		movl	$87, %edx
 3106      00
 3107 1cc8 4889CE   		movq	%rcx, %rsi
 3108 1ccb 4889C7   		movq	%rax, %rdi
 3109 1cce E8000000 		call	_ZN8UnitTest11TestDetailsC1ERKS0_i@PLT
 3109      00
  87:testConv.cpp  **** 	CHECK_EQUAL(15, nibble);
 3110              		.loc 3 87 0 discriminator 12
 3111 1cd3 488D45C0 		leaq	-64(%rbp), %rax
 3112 1cd7 488D1500 		leaq	.LC3(%rip), %rdx
 3112      000000
 3113 1cde 4889C6   		movq	%rax, %rsi
 3114 1ce1 4889DF   		movq	%rbx, %rdi
 3115 1ce4 E8000000 		call	_ZN8UnitTest11TestResults13OnTestFailureERKNS_11TestDetailsEPKc@PLT
 3115      00
 3116              	.LEHE243:
 3117              	.LEHB244:
  87:testConv.cpp  **** 	CHECK_EQUAL(15, nibble);
 3118              		.loc 3 87 0 discriminator 14
 3119 1ce9 E8000000 		call	__cxa_end_catch@PLT
 3119      00
 3120              	.LEHE244:
 3121 1cee E934EFFF 		jmp	.L182
 3121      FF
 3122              	.L321:
 3123 1cf3 4889C3   		movq	%rax, %rbx
  87:testConv.cpp  **** 	CHECK_EQUAL(15, nibble);
 3124              		.loc 3 87 0
 3125 1cf6 E8000000 		call	__cxa_end_catch@PLT
 3125      00
 3126 1cfb 4889D8   		movq	%rbx, %rax
 3127 1cfe 4889C7   		movq	%rax, %rdi
 3128              	.LEHB245:
 3129 1d01 E8000000 		call	_Unwind_Resume@PLT
 3129      00
 3130              	.LEHE245:
 3131              	.L323:
 3132 1d06 EB00     		jmp	.L185
 3133              	.L322:
 3134              	.L185:
  88:testConv.cpp  **** 	status = getHexNibble('.', &nibble);
 3135              		.loc 3 88 0 is_stmt 1
 3136 1d08 4889C7   		movq	%rax, %rdi
 3137 1d0b E8000000 		call	__cxa_begin_catch@PLT
 3137      00
 3138              	.LEHB246:
 3139 1d10 E8000000 		call	_ZN8UnitTest11CurrentTest7ResultsEv@PLT
 3139      00
 3140 1d15 488B18   		movq	(%rax), %rbx
 3141 1d18 E8000000 		call	_ZN8UnitTest11CurrentTest7DetailsEv@PLT
 3141      00
  88:testConv.cpp  **** 	status = getHexNibble('.', &nibble);
 3142              		.loc 3 88 0 is_stmt 0 discriminator 8
 3143 1d1d 488B08   		movq	(%rax), %rcx
 3144 1d20 488D45C0 		leaq	-64(%rbp), %rax
 3145 1d24 BA580000 		movl	$88, %edx
 3145      00
 3146 1d29 4889CE   		movq	%rcx, %rsi
 3147 1d2c 4889C7   		movq	%rax, %rdi
 3148 1d2f E8000000 		call	_ZN8UnitTest11TestDetailsC1ERKS0_i@PLT
 3148      00
  88:testConv.cpp  **** 	status = getHexNibble('.', &nibble);
 3149              		.loc 3 88 0 discriminator 12
 3150 1d34 488D45C0 		leaq	-64(%rbp), %rax
 3151 1d38 488D1500 		leaq	.LC19(%rip), %rdx
 3151      000000
 3152 1d3f 4889C6   		movq	%rax, %rsi
 3153 1d42 4889DF   		movq	%rbx, %rdi
 3154 1d45 E8000000 		call	_ZN8UnitTest11TestResults13OnTestFailureERKNS_11TestDetailsEPKc@PLT
 3154      00
 3155              	.LEHE246:
 3156              	.LEHB247:
  88:testConv.cpp  **** 	status = getHexNibble('.', &nibble);
 3157              		.loc 3 88 0 discriminator 14
 3158 1d4a E8000000 		call	__cxa_end_catch@PLT
 3158      00
 3159              	.LEHE247:
 3160 1d4f E912EFFF 		jmp	.L186
 3160      FF
 3161              	.L324:
 3162 1d54 4889C3   		movq	%rax, %rbx
  88:testConv.cpp  **** 	status = getHexNibble('.', &nibble);
 3163              		.loc 3 88 0
 3164 1d57 E8000000 		call	__cxa_end_catch@PLT
 3164      00
 3165 1d5c 4889D8   		movq	%rbx, %rax
 3166 1d5f 4889C7   		movq	%rax, %rdi
 3167              	.LEHB248:
 3168 1d62 E8000000 		call	_Unwind_Resume@PLT
 3168      00
 3169              	.LEHE248:
 3170              	.L326:
 3171 1d67 EB00     		jmp	.L189
 3172              	.L325:
 3173              	.L189:
  90:testConv.cpp  **** }
 3174              		.loc 3 90 0 is_stmt 1
 3175 1d69 4889C7   		movq	%rax, %rdi
 3176 1d6c E8000000 		call	__cxa_begin_catch@PLT
 3176      00
 3177              	.LEHB249:
 3178 1d71 E8000000 		call	_ZN8UnitTest11CurrentTest7ResultsEv@PLT
 3178      00
 3179 1d76 488B18   		movq	(%rax), %rbx
 3180 1d79 E8000000 		call	_ZN8UnitTest11CurrentTest7DetailsEv@PLT
 3180      00
  90:testConv.cpp  **** }
 3181              		.loc 3 90 0 is_stmt 0 discriminator 8
 3182 1d7e 488B08   		movq	(%rax), %rcx
 3183 1d81 488D45C0 		leaq	-64(%rbp), %rax
 3184 1d85 BA5A0000 		movl	$90, %edx
 3184      00
 3185 1d8a 4889CE   		movq	%rcx, %rsi
 3186 1d8d 4889C7   		movq	%rax, %rdi
 3187 1d90 E8000000 		call	_ZN8UnitTest11TestDetailsC1ERKS0_i@PLT
 3187      00
  90:testConv.cpp  **** }
 3188              		.loc 3 90 0 discriminator 12
 3189 1d95 488D45C0 		leaq	-64(%rbp), %rax
 3190 1d99 488D1500 		leaq	.LC20(%rip), %rdx
 3190      000000
 3191 1da0 4889C6   		movq	%rax, %rsi
 3192 1da3 4889DF   		movq	%rbx, %rdi
 3193 1da6 E8000000 		call	_ZN8UnitTest11TestResults13OnTestFailureERKNS_11TestDetailsEPKc@PLT
 3193      00
 3194              	.LEHE249:
 3195              	.LEHB250:
  90:testConv.cpp  **** }
 3196              		.loc 3 90 0 discriminator 14
 3197 1dab E8000000 		call	__cxa_end_catch@PLT
 3197      00
 3198              	.LEHE250:
 3199              		.loc 3 91 0 is_stmt 1 discriminator 14
 3200 1db0 EB13     		jmp	.L11
 3201              	.L327:
 3202 1db2 4889C3   		movq	%rax, %rbx
  90:testConv.cpp  **** }
 3203              		.loc 3 90 0
 3204 1db5 E8000000 		call	__cxa_end_catch@PLT
 3204      00
 3205 1dba 4889D8   		movq	%rbx, %rax
 3206 1dbd 4889C7   		movq	%rax, %rdi
 3207              	.LEHB251:
 3208 1dc0 E8000000 		call	_Unwind_Resume@PLT
 3208      00
 3209              	.LEHE251:
 3210              	.L11:
 3211              		.loc 3 91 0
 3212 1dc5 488B45E8 		movq	-24(%rbp), %rax
 3213 1dc9 64483304 		xorq	%fs:40, %rax
 3213      25280000 
 3213      00
 3214 1dd2 7405     		je	.L192
 3215 1dd4 E8000000 		call	__stack_chk_fail@PLT
 3215      00
 3216              	.L192:
 3217 1dd9 4883C458 		addq	$88, %rsp
 3218 1ddd 5B       		popq	%rbx
 3219 1dde 5D       		popq	%rbp
 3220              		.cfi_def_cfa 7, 8
 3221 1ddf C3       		ret
 3222              		.cfi_endproc
 3223              	.LFE1095:
 3224              		.section	.gcc_except_table,"a",@progbits
 3225              		.align 4
 3226              	.LLSDA1095:
 3227 0000 FF       		.byte	0xff
 3228 0001 9B       		.byte	0x9b
 3229 0002 E80A     		.uleb128 .LLSDATT1095-.LLSDATTD1095
 3230              	.LLSDATTD1095:
 3231 0004 01       		.byte	0x1
 3232 0005 DB0A     		.uleb128 .LLSDACSE1095-.LLSDACSB1095
 3233              	.LLSDACSB1095:
 3234 0007 28       		.uleb128 .LEHB4-.LFB1095
 3235 0008 05       		.uleb128 .LEHE4-.LEHB4
 3236 0009 00       		.uleb128 0
 3237 000a 00       		.uleb128 0
 3238 000b 30       		.uleb128 .LEHB5-.LFB1095
 3239 000c 1C       		.uleb128 .LEHE5-.LEHB5
 3240 000d BD19     		.uleb128 .L193-.LFB1095
 3241 000f 01       		.uleb128 0x1
 3242 0010 50       		.uleb128 .LEHB6-.LFB1095
 3243 0011 1C       		.uleb128 .LEHE6-.LEHB6
 3244 0012 BB19     		.uleb128 .L194-.LFB1095
 3245 0014 03       		.uleb128 0x3
 3246 0015 6C       		.uleb128 .LEHB7-.LFB1095
 3247 0016 1C       		.uleb128 .LEHE7-.LEHB7
 3248 0017 9E1A     		.uleb128 .L196-.LFB1095
 3249 0019 01       		.uleb128 0x1
 3250 001a 8F01     		.uleb128 .LEHB8-.LFB1095
 3251 001c 1C       		.uleb128 .LEHE8-.LEHB8
 3252 001d 9C1A     		.uleb128 .L197-.LFB1095
 3253 001f 03       		.uleb128 0x3
 3254 0020 B701     		.uleb128 .LEHB9-.LFB1095
 3255 0022 05       		.uleb128 .LEHE9-.LEHB9
 3256 0023 00       		.uleb128 0
 3257 0024 00       		.uleb128 0
 3258 0025 BF01     		.uleb128 .LEHB10-.LFB1095
 3259 0027 1C       		.uleb128 .LEHE10-.LEHB10
 3260 0028 FF1A     		.uleb128 .L199-.LFB1095
 3261 002a 01       		.uleb128 0x1
 3262 002b DF01     		.uleb128 .LEHB11-.LFB1095
 3263 002d 1C       		.uleb128 .LEHE11-.LEHB11
 3264 002e FD1A     		.uleb128 .L200-.LFB1095
 3265 0030 03       		.uleb128 0x3
 3266 0031 FB01     		.uleb128 .LEHB12-.LFB1095
 3267 0033 1C       		.uleb128 .LEHE12-.LEHB12
 3268 0034 E01B     		.uleb128 .L202-.LFB1095
 3269 0036 01       		.uleb128 0x1
 3270 0037 9E02     		.uleb128 .LEHB13-.LFB1095
 3271 0039 1C       		.uleb128 .LEHE13-.LEHB13
 3272 003a DE1B     		.uleb128 .L203-.LFB1095
 3273 003c 03       		.uleb128 0x3
 3274 003d C602     		.uleb128 .LEHB14-.LFB1095
 3275 003f 05       		.uleb128 .LEHE14-.LEHB14
 3276 0040 00       		.uleb128 0
 3277 0041 00       		.uleb128 0
 3278 0042 CE02     		.uleb128 .LEHB15-.LFB1095
 3279 0044 1C       		.uleb128 .LEHE15-.LEHB15
 3280 0045 C11C     		.uleb128 .L205-.LFB1095
 3281 0047 01       		.uleb128 0x1
 3282 0048 EE02     		.uleb128 .LEHB16-.LFB1095
 3283 004a 1C       		.uleb128 .LEHE16-.LEHB16
 3284 004b BF1C     		.uleb128 .L206-.LFB1095
 3285 004d 03       		.uleb128 0x3
 3286 004e 8A03     		.uleb128 .LEHB17-.LFB1095
 3287 0050 1C       		.uleb128 .LEHE17-.LEHB17
 3288 0051 A21D     		.uleb128 .L208-.LFB1095
 3289 0053 01       		.uleb128 0x1
 3290 0054 AD03     		.uleb128 .LEHB18-.LFB1095
 3291 0056 1C       		.uleb128 .LEHE18-.LEHB18
 3292 0057 A01D     		.uleb128 .L209-.LFB1095
 3293 0059 03       		.uleb128 0x3
 3294 005a D503     		.uleb128 .LEHB19-.LFB1095
 3295 005c 05       		.uleb128 .LEHE19-.LEHB19
 3296 005d 00       		.uleb128 0
 3297 005e 00       		.uleb128 0
 3298 005f DD03     		.uleb128 .LEHB20-.LFB1095
 3299 0061 1C       		.uleb128 .LEHE20-.LEHB20
 3300 0062 831E     		.uleb128 .L211-.LFB1095
 3301 0064 01       		.uleb128 0x1
 3302 0065 FD03     		.uleb128 .LEHB21-.LFB1095
 3303 0067 1C       		.uleb128 .LEHE21-.LEHB21
 3304 0068 811E     		.uleb128 .L212-.LFB1095
 3305 006a 03       		.uleb128 0x3
 3306 006b 9904     		.uleb128 .LEHB22-.LFB1095
 3307 006d 1C       		.uleb128 .LEHE22-.LEHB22
 3308 006e E41E     		.uleb128 .L214-.LFB1095
 3309 0070 01       		.uleb128 0x1
 3310 0071 BC04     		.uleb128 .LEHB23-.LFB1095
 3311 0073 1C       		.uleb128 .LEHE23-.LEHB23
 3312 0074 E21E     		.uleb128 .L215-.LFB1095
 3313 0076 03       		.uleb128 0x3
 3314 0077 E404     		.uleb128 .LEHB24-.LFB1095
 3315 0079 05       		.uleb128 .LEHE24-.LEHB24
 3316 007a 00       		.uleb128 0
 3317 007b 00       		.uleb128 0
 3318 007c EC04     		.uleb128 .LEHB25-.LFB1095
 3319 007e 1C       		.uleb128 .LEHE25-.LEHB25
 3320 007f C51F     		.uleb128 .L217-.LFB1095
 3321 0081 01       		.uleb128 0x1
 3322 0082 8C05     		.uleb128 .LEHB26-.LFB1095
 3323 0084 1C       		.uleb128 .LEHE26-.LEHB26
 3324 0085 C31F     		.uleb128 .L218-.LFB1095
 3325 0087 03       		.uleb128 0x3
 3326 0088 A805     		.uleb128 .LEHB27-.LFB1095
 3327 008a 1C       		.uleb128 .LEHE27-.LEHB27
 3328 008b A620     		.uleb128 .L220-.LFB1095
 3329 008d 01       		.uleb128 0x1
 3330 008e CB05     		.uleb128 .LEHB28-.LFB1095
 3331 0090 1C       		.uleb128 .LEHE28-.LEHB28
 3332 0091 A420     		.uleb128 .L221-.LFB1095
 3333 0093 03       		.uleb128 0x3
 3334 0094 F305     		.uleb128 .LEHB29-.LFB1095
 3335 0096 05       		.uleb128 .LEHE29-.LEHB29
 3336 0097 00       		.uleb128 0
 3337 0098 00       		.uleb128 0
 3338 0099 FB05     		.uleb128 .LEHB30-.LFB1095
 3339 009b 1C       		.uleb128 .LEHE30-.LEHB30
 3340 009c 8721     		.uleb128 .L223-.LFB1095
 3341 009e 01       		.uleb128 0x1
 3342 009f 9B06     		.uleb128 .LEHB31-.LFB1095
 3343 00a1 1C       		.uleb128 .LEHE31-.LEHB31
 3344 00a2 8521     		.uleb128 .L224-.LFB1095
 3345 00a4 03       		.uleb128 0x3
 3346 00a5 B706     		.uleb128 .LEHB32-.LFB1095
 3347 00a7 1C       		.uleb128 .LEHE32-.LEHB32
 3348 00a8 E821     		.uleb128 .L226-.LFB1095
 3349 00aa 01       		.uleb128 0x1
 3350 00ab DA06     		.uleb128 .LEHB33-.LFB1095
 3351 00ad 1C       		.uleb128 .LEHE33-.LEHB33
 3352 00ae E621     		.uleb128 .L227-.LFB1095
 3353 00b0 03       		.uleb128 0x3
 3354 00b1 8207     		.uleb128 .LEHB34-.LFB1095
 3355 00b3 05       		.uleb128 .LEHE34-.LEHB34
 3356 00b4 00       		.uleb128 0
 3357 00b5 00       		.uleb128 0
 3358 00b6 8A07     		.uleb128 .LEHB35-.LFB1095
 3359 00b8 1C       		.uleb128 .LEHE35-.LEHB35
 3360 00b9 C922     		.uleb128 .L229-.LFB1095
 3361 00bb 01       		.uleb128 0x1
 3362 00bc AA07     		.uleb128 .LEHB36-.LFB1095
 3363 00be 1C       		.uleb128 .LEHE36-.LEHB36
 3364 00bf C722     		.uleb128 .L230-.LFB1095
 3365 00c1 03       		.uleb128 0x3
 3366 00c2 C607     		.uleb128 .LEHB37-.LFB1095
 3367 00c4 1C       		.uleb128 .LEHE37-.LEHB37
 3368 00c5 AA23     		.uleb128 .L232-.LFB1095
 3369 00c7 01       		.uleb128 0x1
 3370 00c8 E907     		.uleb128 .LEHB38-.LFB1095
 3371 00ca 1C       		.uleb128 .LEHE38-.LEHB38
 3372 00cb A823     		.uleb128 .L233-.LFB1095
 3373 00cd 03       		.uleb128 0x3
 3374 00ce 9108     		.uleb128 .LEHB39-.LFB1095
 3375 00d0 05       		.uleb128 .LEHE39-.LEHB39
 3376 00d1 00       		.uleb128 0
 3377 00d2 00       		.uleb128 0
 3378 00d3 9908     		.uleb128 .LEHB40-.LFB1095
 3379 00d5 1C       		.uleb128 .LEHE40-.LEHB40
 3380 00d6 8B24     		.uleb128 .L235-.LFB1095
 3381 00d8 01       		.uleb128 0x1
 3382 00d9 B908     		.uleb128 .LEHB41-.LFB1095
 3383 00db 1C       		.uleb128 .LEHE41-.LEHB41
 3384 00dc 8924     		.uleb128 .L236-.LFB1095
 3385 00de 03       		.uleb128 0x3
 3386 00df D508     		.uleb128 .LEHB42-.LFB1095
 3387 00e1 1C       		.uleb128 .LEHE42-.LEHB42
 3388 00e2 EC24     		.uleb128 .L238-.LFB1095
 3389 00e4 01       		.uleb128 0x1
 3390 00e5 F808     		.uleb128 .LEHB43-.LFB1095
 3391 00e7 1C       		.uleb128 .LEHE43-.LEHB43
 3392 00e8 EA24     		.uleb128 .L239-.LFB1095
 3393 00ea 03       		.uleb128 0x3
 3394 00eb A009     		.uleb128 .LEHB44-.LFB1095
 3395 00ed 05       		.uleb128 .LEHE44-.LEHB44
 3396 00ee 00       		.uleb128 0
 3397 00ef 00       		.uleb128 0
 3398 00f0 A809     		.uleb128 .LEHB45-.LFB1095
 3399 00f2 1C       		.uleb128 .LEHE45-.LEHB45
 3400 00f3 CD25     		.uleb128 .L241-.LFB1095
 3401 00f5 01       		.uleb128 0x1
 3402 00f6 C809     		.uleb128 .LEHB46-.LFB1095
 3403 00f8 1C       		.uleb128 .LEHE46-.LEHB46
 3404 00f9 CB25     		.uleb128 .L242-.LFB1095
 3405 00fb 03       		.uleb128 0x3
 3406 00fc E409     		.uleb128 .LEHB47-.LFB1095
 3407 00fe 1C       		.uleb128 .LEHE47-.LEHB47
 3408 00ff AE26     		.uleb128 .L244-.LFB1095
 3409 0101 01       		.uleb128 0x1
 3410 0102 870A     		.uleb128 .LEHB48-.LFB1095
 3411 0104 1C       		.uleb128 .LEHE48-.LEHB48
 3412 0105 AC26     		.uleb128 .L245-.LFB1095
 3413 0107 03       		.uleb128 0x3
 3414 0108 AF0A     		.uleb128 .LEHB49-.LFB1095
 3415 010a 05       		.uleb128 .LEHE49-.LEHB49
 3416 010b 00       		.uleb128 0
 3417 010c 00       		.uleb128 0
 3418 010d B70A     		.uleb128 .LEHB50-.LFB1095
 3419 010f 1C       		.uleb128 .LEHE50-.LEHB50
 3420 0110 8F27     		.uleb128 .L247-.LFB1095
 3421 0112 01       		.uleb128 0x1
 3422 0113 D70A     		.uleb128 .LEHB51-.LFB1095
 3423 0115 1C       		.uleb128 .LEHE51-.LEHB51
 3424 0116 8D27     		.uleb128 .L248-.LFB1095
 3425 0118 03       		.uleb128 0x3
 3426 0119 F30A     		.uleb128 .LEHB52-.LFB1095
 3427 011b 1C       		.uleb128 .LEHE52-.LEHB52
 3428 011c F027     		.uleb128 .L250-.LFB1095
 3429 011e 01       		.uleb128 0x1
 3430 011f 960B     		.uleb128 .LEHB53-.LFB1095
 3431 0121 1C       		.uleb128 .LEHE53-.LEHB53
 3432 0122 EE27     		.uleb128 .L251-.LFB1095
 3433 0124 03       		.uleb128 0x3
 3434 0125 BE0B     		.uleb128 .LEHB54-.LFB1095
 3435 0127 05       		.uleb128 .LEHE54-.LEHB54
 3436 0128 00       		.uleb128 0
 3437 0129 00       		.uleb128 0
 3438 012a C60B     		.uleb128 .LEHB55-.LFB1095
 3439 012c 1C       		.uleb128 .LEHE55-.LEHB55
 3440 012d D128     		.uleb128 .L253-.LFB1095
 3441 012f 01       		.uleb128 0x1
 3442 0130 E60B     		.uleb128 .LEHB56-.LFB1095
 3443 0132 1C       		.uleb128 .LEHE56-.LEHB56
 3444 0133 CF28     		.uleb128 .L254-.LFB1095
 3445 0135 03       		.uleb128 0x3
 3446 0136 820C     		.uleb128 .LEHB57-.LFB1095
 3447 0138 1C       		.uleb128 .LEHE57-.LEHB57
 3448 0139 B229     		.uleb128 .L256-.LFB1095
 3449 013b 01       		.uleb128 0x1
 3450 013c A50C     		.uleb128 .LEHB58-.LFB1095
 3451 013e 1C       		.uleb128 .LEHE58-.LEHB58
 3452 013f B029     		.uleb128 .L257-.LFB1095
 3453 0141 03       		.uleb128 0x3
 3454 0142 CD0C     		.uleb128 .LEHB59-.LFB1095
 3455 0144 05       		.uleb128 .LEHE59-.LEHB59
 3456 0145 00       		.uleb128 0
 3457 0146 00       		.uleb128 0
 3458 0147 D50C     		.uleb128 .LEHB60-.LFB1095
 3459 0149 1C       		.uleb128 .LEHE60-.LEHB60
 3460 014a 932A     		.uleb128 .L259-.LFB1095
 3461 014c 01       		.uleb128 0x1
 3462 014d F50C     		.uleb128 .LEHB61-.LFB1095
 3463 014f 1C       		.uleb128 .LEHE61-.LEHB61
 3464 0150 912A     		.uleb128 .L260-.LFB1095
 3465 0152 03       		.uleb128 0x3
 3466 0153 910D     		.uleb128 .LEHB62-.LFB1095
 3467 0155 1C       		.uleb128 .LEHE62-.LEHB62
 3468 0156 F42A     		.uleb128 .L262-.LFB1095
 3469 0158 01       		.uleb128 0x1
 3470 0159 B40D     		.uleb128 .LEHB63-.LFB1095
 3471 015b 1C       		.uleb128 .LEHE63-.LEHB63
 3472 015c F22A     		.uleb128 .L263-.LFB1095
 3473 015e 03       		.uleb128 0x3
 3474 015f DC0D     		.uleb128 .LEHB64-.LFB1095
 3475 0161 05       		.uleb128 .LEHE64-.LEHB64
 3476 0162 00       		.uleb128 0
 3477 0163 00       		.uleb128 0
 3478 0164 E40D     		.uleb128 .LEHB65-.LFB1095
 3479 0166 1C       		.uleb128 .LEHE65-.LEHB65
 3480 0167 D52B     		.uleb128 .L265-.LFB1095
 3481 0169 01       		.uleb128 0x1
 3482 016a 840E     		.uleb128 .LEHB66-.LFB1095
 3483 016c 1C       		.uleb128 .LEHE66-.LEHB66
 3484 016d D32B     		.uleb128 .L266-.LFB1095
 3485 016f 03       		.uleb128 0x3
 3486 0170 A00E     		.uleb128 .LEHB67-.LFB1095
 3487 0172 1C       		.uleb128 .LEHE67-.LEHB67
 3488 0173 B62C     		.uleb128 .L268-.LFB1095
 3489 0175 01       		.uleb128 0x1
 3490 0176 C30E     		.uleb128 .LEHB68-.LFB1095
 3491 0178 1C       		.uleb128 .LEHE68-.LEHB68
 3492 0179 B42C     		.uleb128 .L269-.LFB1095
 3493 017b 03       		.uleb128 0x3
 3494 017c EB0E     		.uleb128 .LEHB69-.LFB1095
 3495 017e 05       		.uleb128 .LEHE69-.LEHB69
 3496 017f 00       		.uleb128 0
 3497 0180 00       		.uleb128 0
 3498 0181 F30E     		.uleb128 .LEHB70-.LFB1095
 3499 0183 1C       		.uleb128 .LEHE70-.LEHB70
 3500 0184 972D     		.uleb128 .L271-.LFB1095
 3501 0186 01       		.uleb128 0x1
 3502 0187 930F     		.uleb128 .LEHB71-.LFB1095
 3503 0189 1C       		.uleb128 .LEHE71-.LEHB71
 3504 018a 952D     		.uleb128 .L272-.LFB1095
 3505 018c 03       		.uleb128 0x3
 3506 018d AF0F     		.uleb128 .LEHB72-.LFB1095
 3507 018f 1C       		.uleb128 .LEHE72-.LEHB72
 3508 0190 F82D     		.uleb128 .L274-.LFB1095
 3509 0192 01       		.uleb128 0x1
 3510 0193 D20F     		.uleb128 .LEHB73-.LFB1095
 3511 0195 1C       		.uleb128 .LEHE73-.LEHB73
 3512 0196 F62D     		.uleb128 .L275-.LFB1095
 3513 0198 03       		.uleb128 0x3
 3514 0199 FA0F     		.uleb128 .LEHB74-.LFB1095
 3515 019b 05       		.uleb128 .LEHE74-.LEHB74
 3516 019c 00       		.uleb128 0
 3517 019d 00       		.uleb128 0
 3518 019e 8210     		.uleb128 .LEHB75-.LFB1095
 3519 01a0 1C       		.uleb128 .LEHE75-.LEHB75
 3520 01a1 D92E     		.uleb128 .L277-.LFB1095
 3521 01a3 01       		.uleb128 0x1
 3522 01a4 A210     		.uleb128 .LEHB76-.LFB1095
 3523 01a6 1C       		.uleb128 .LEHE76-.LEHB76
 3524 01a7 D72E     		.uleb128 .L278-.LFB1095
 3525 01a9 03       		.uleb128 0x3
 3526 01aa BE10     		.uleb128 .LEHB77-.LFB1095
 3527 01ac 1C       		.uleb128 .LEHE77-.LEHB77
 3528 01ad BA2F     		.uleb128 .L280-.LFB1095
 3529 01af 01       		.uleb128 0x1
 3530 01b0 E110     		.uleb128 .LEHB78-.LFB1095
 3531 01b2 1C       		.uleb128 .LEHE78-.LEHB78
 3532 01b3 B82F     		.uleb128 .L281-.LFB1095
 3533 01b5 03       		.uleb128 0x3
 3534 01b6 8911     		.uleb128 .LEHB79-.LFB1095
 3535 01b8 05       		.uleb128 .LEHE79-.LEHB79
 3536 01b9 00       		.uleb128 0
 3537 01ba 00       		.uleb128 0
 3538 01bb 9111     		.uleb128 .LEHB80-.LFB1095
 3539 01bd 1C       		.uleb128 .LEHE80-.LEHB80
 3540 01be 9B30     		.uleb128 .L283-.LFB1095
 3541 01c0 01       		.uleb128 0x1
 3542 01c1 B111     		.uleb128 .LEHB81-.LFB1095
 3543 01c3 1C       		.uleb128 .LEHE81-.LEHB81
 3544 01c4 9930     		.uleb128 .L284-.LFB1095
 3545 01c6 03       		.uleb128 0x3
 3546 01c7 CD11     		.uleb128 .LEHB82-.LFB1095
 3547 01c9 1C       		.uleb128 .LEHE82-.LEHB82
 3548 01ca FC30     		.uleb128 .L286-.LFB1095
 3549 01cc 01       		.uleb128 0x1
 3550 01cd F011     		.uleb128 .LEHB83-.LFB1095
 3551 01cf 1C       		.uleb128 .LEHE83-.LEHB83
 3552 01d0 FA30     		.uleb128 .L287-.LFB1095
 3553 01d2 03       		.uleb128 0x3
 3554 01d3 9812     		.uleb128 .LEHB84-.LFB1095
 3555 01d5 05       		.uleb128 .LEHE84-.LEHB84
 3556 01d6 00       		.uleb128 0
 3557 01d7 00       		.uleb128 0
 3558 01d8 A012     		.uleb128 .LEHB85-.LFB1095
 3559 01da 1C       		.uleb128 .LEHE85-.LEHB85
 3560 01db DD31     		.uleb128 .L289-.LFB1095
 3561 01dd 01       		.uleb128 0x1
 3562 01de C012     		.uleb128 .LEHB86-.LFB1095
 3563 01e0 1C       		.uleb128 .LEHE86-.LEHB86
 3564 01e1 DB31     		.uleb128 .L290-.LFB1095
 3565 01e3 03       		.uleb128 0x3
 3566 01e4 DC12     		.uleb128 .LEHB87-.LFB1095
 3567 01e6 1C       		.uleb128 .LEHE87-.LEHB87
 3568 01e7 BE32     		.uleb128 .L292-.LFB1095
 3569 01e9 01       		.uleb128 0x1
 3570 01ea FF12     		.uleb128 .LEHB88-.LFB1095
 3571 01ec 1C       		.uleb128 .LEHE88-.LEHB88
 3572 01ed BC32     		.uleb128 .L293-.LFB1095
 3573 01ef 03       		.uleb128 0x3
 3574 01f0 A713     		.uleb128 .LEHB89-.LFB1095
 3575 01f2 05       		.uleb128 .LEHE89-.LEHB89
 3576 01f3 00       		.uleb128 0
 3577 01f4 00       		.uleb128 0
 3578 01f5 AF13     		.uleb128 .LEHB90-.LFB1095
 3579 01f7 1C       		.uleb128 .LEHE90-.LEHB90
 3580 01f8 9F33     		.uleb128 .L295-.LFB1095
 3581 01fa 01       		.uleb128 0x1
 3582 01fb CF13     		.uleb128 .LEHB91-.LFB1095
 3583 01fd 1C       		.uleb128 .LEHE91-.LEHB91
 3584 01fe 9D33     		.uleb128 .L296-.LFB1095
 3585 0200 03       		.uleb128 0x3
 3586 0201 EB13     		.uleb128 .LEHB92-.LFB1095
 3587 0203 1C       		.uleb128 .LEHE92-.LEHB92
 3588 0204 8034     		.uleb128 .L298-.LFB1095
 3589 0206 01       		.uleb128 0x1
 3590 0207 8E14     		.uleb128 .LEHB93-.LFB1095
 3591 0209 1C       		.uleb128 .LEHE93-.LEHB93
 3592 020a FE33     		.uleb128 .L299-.LFB1095
 3593 020c 03       		.uleb128 0x3
 3594 020d B614     		.uleb128 .LEHB94-.LFB1095
 3595 020f 05       		.uleb128 .LEHE94-.LEHB94
 3596 0210 00       		.uleb128 0
 3597 0211 00       		.uleb128 0
 3598 0212 BE14     		.uleb128 .LEHB95-.LFB1095
 3599 0214 1C       		.uleb128 .LEHE95-.LEHB95
 3600 0215 E134     		.uleb128 .L301-.LFB1095
 3601 0217 01       		.uleb128 0x1
 3602 0218 DE14     		.uleb128 .LEHB96-.LFB1095
 3603 021a 1C       		.uleb128 .LEHE96-.LEHB96
 3604 021b DF34     		.uleb128 .L302-.LFB1095
 3605 021d 03       		.uleb128 0x3
 3606 021e FA14     		.uleb128 .LEHB97-.LFB1095
 3607 0220 1C       		.uleb128 .LEHE97-.LEHB97
 3608 0221 C235     		.uleb128 .L304-.LFB1095
 3609 0223 01       		.uleb128 0x1
 3610 0224 9D15     		.uleb128 .LEHB98-.LFB1095
 3611 0226 1C       		.uleb128 .LEHE98-.LEHB98
 3612 0227 C035     		.uleb128 .L305-.LFB1095
 3613 0229 03       		.uleb128 0x3
 3614 022a C515     		.uleb128 .LEHB99-.LFB1095
 3615 022c 05       		.uleb128 .LEHE99-.LEHB99
 3616 022d 00       		.uleb128 0
 3617 022e 00       		.uleb128 0
 3618 022f CD15     		.uleb128 .LEHB100-.LFB1095
 3619 0231 1C       		.uleb128 .LEHE100-.LEHB100
 3620 0232 A336     		.uleb128 .L307-.LFB1095
 3621 0234 01       		.uleb128 0x1
 3622 0235 ED15     		.uleb128 .LEHB101-.LFB1095
 3623 0237 1C       		.uleb128 .LEHE101-.LEHB101
 3624 0238 A136     		.uleb128 .L308-.LFB1095
 3625 023a 03       		.uleb128 0x3
 3626 023b 8916     		.uleb128 .LEHB102-.LFB1095
 3627 023d 1C       		.uleb128 .LEHE102-.LEHB102
 3628 023e 8437     		.uleb128 .L310-.LFB1095
 3629 0240 01       		.uleb128 0x1
 3630 0241 AC16     		.uleb128 .LEHB103-.LFB1095
 3631 0243 1C       		.uleb128 .LEHE103-.LEHB103
 3632 0244 8237     		.uleb128 .L311-.LFB1095
 3633 0246 03       		.uleb128 0x3
 3634 0247 D416     		.uleb128 .LEHB104-.LFB1095
 3635 0249 05       		.uleb128 .LEHE104-.LEHB104
 3636 024a 00       		.uleb128 0
 3637 024b 00       		.uleb128 0
 3638 024c DC16     		.uleb128 .LEHB105-.LFB1095
 3639 024e 1C       		.uleb128 .LEHE105-.LEHB105
 3640 024f E537     		.uleb128 .L313-.LFB1095
 3641 0251 01       		.uleb128 0x1
 3642 0252 FC16     		.uleb128 .LEHB106-.LFB1095
 3643 0254 1C       		.uleb128 .LEHE106-.LEHB106
 3644 0255 E337     		.uleb128 .L314-.LFB1095
 3645 0257 03       		.uleb128 0x3
 3646 0258 9817     		.uleb128 .LEHB107-.LFB1095
 3647 025a 1C       		.uleb128 .LEHE107-.LEHB107
 3648 025b C638     		.uleb128 .L316-.LFB1095
 3649 025d 01       		.uleb128 0x1
 3650 025e BB17     		.uleb128 .LEHB108-.LFB1095
 3651 0260 1C       		.uleb128 .LEHE108-.LEHB108
 3652 0261 C438     		.uleb128 .L317-.LFB1095
 3653 0263 03       		.uleb128 0x3
 3654 0264 E317     		.uleb128 .LEHB109-.LFB1095
 3655 0266 05       		.uleb128 .LEHE109-.LEHB109
 3656 0267 00       		.uleb128 0
 3657 0268 00       		.uleb128 0
 3658 0269 EB17     		.uleb128 .LEHB110-.LFB1095
 3659 026b 1C       		.uleb128 .LEHE110-.LEHB110
 3660 026c A739     		.uleb128 .L319-.LFB1095
 3661 026e 01       		.uleb128 0x1
 3662 026f 8B18     		.uleb128 .LEHB111-.LFB1095
 3663 0271 1C       		.uleb128 .LEHE111-.LEHB111
 3664 0272 A539     		.uleb128 .L320-.LFB1095
 3665 0274 03       		.uleb128 0x3
 3666 0275 A718     		.uleb128 .LEHB112-.LFB1095
 3667 0277 1C       		.uleb128 .LEHE112-.LEHB112
 3668 0278 883A     		.uleb128 .L322-.LFB1095
 3669 027a 01       		.uleb128 0x1
 3670 027b CA18     		.uleb128 .LEHB113-.LFB1095
 3671 027d 1C       		.uleb128 .LEHE113-.LEHB113
 3672 027e 863A     		.uleb128 .L323-.LFB1095
 3673 0280 03       		.uleb128 0x3
 3674 0281 F218     		.uleb128 .LEHB114-.LFB1095
 3675 0283 05       		.uleb128 .LEHE114-.LEHB114
 3676 0284 00       		.uleb128 0
 3677 0285 00       		.uleb128 0
 3678 0286 FA18     		.uleb128 .LEHB115-.LFB1095
 3679 0288 1C       		.uleb128 .LEHE115-.LEHB115
 3680 0289 E93A     		.uleb128 .L325-.LFB1095
 3681 028b 01       		.uleb128 0x1
 3682 028c 9A19     		.uleb128 .LEHB116-.LFB1095
 3683 028e 1C       		.uleb128 .LEHE116-.LEHB116
 3684 028f E73A     		.uleb128 .L326-.LFB1095
 3685 0291 03       		.uleb128 0x3
 3686 0292 C519     		.uleb128 .LEHB117-.LFB1095
 3687 0294 3A       		.uleb128 .LEHE117-.LEHB117
 3688 0295 891A     		.uleb128 .L195-.LFB1095
 3689 0297 00       		.uleb128 0
 3690 0298 FF19     		.uleb128 .LEHB118-.LFB1095
 3691 029a 05       		.uleb128 .LEHE118-.LEHB118
 3692 029b 00       		.uleb128 0
 3693 029c 00       		.uleb128 0
 3694 029d 971A     		.uleb128 .LEHB119-.LFB1095
 3695 029f 05       		.uleb128 .LEHE119-.LEHB119
 3696 02a0 00       		.uleb128 0
 3697 02a1 00       		.uleb128 0
 3698 02a2 A61A     		.uleb128 .LEHB120-.LFB1095
 3699 02a4 3A       		.uleb128 .LEHE120-.LEHB120
 3700 02a5 EA1A     		.uleb128 .L198-.LFB1095
 3701 02a7 00       		.uleb128 0
 3702 02a8 E01A     		.uleb128 .LEHB121-.LFB1095
 3703 02aa 05       		.uleb128 .LEHE121-.LEHB121
 3704 02ab 00       		.uleb128 0
 3705 02ac 00       		.uleb128 0
 3706 02ad F81A     		.uleb128 .LEHB122-.LFB1095
 3707 02af 05       		.uleb128 .LEHE122-.LEHB122
 3708 02b0 00       		.uleb128 0
 3709 02b1 00       		.uleb128 0
 3710 02b2 871B     		.uleb128 .LEHB123-.LFB1095
 3711 02b4 3A       		.uleb128 .LEHE123-.LEHB123
 3712 02b5 CB1B     		.uleb128 .L201-.LFB1095
 3713 02b7 00       		.uleb128 0
 3714 02b8 C11B     		.uleb128 .LEHB124-.LFB1095
 3715 02ba 05       		.uleb128 .LEHE124-.LEHB124
 3716 02bb 00       		.uleb128 0
 3717 02bc 00       		.uleb128 0
 3718 02bd D91B     		.uleb128 .LEHB125-.LFB1095
 3719 02bf 05       		.uleb128 .LEHE125-.LEHB125
 3720 02c0 00       		.uleb128 0
 3721 02c1 00       		.uleb128 0
 3722 02c2 E81B     		.uleb128 .LEHB126-.LFB1095
 3723 02c4 3A       		.uleb128 .LEHE126-.LEHB126
 3724 02c5 AC1C     		.uleb128 .L204-.LFB1095
 3725 02c7 00       		.uleb128 0
 3726 02c8 A21C     		.uleb128 .LEHB127-.LFB1095
 3727 02ca 05       		.uleb128 .LEHE127-.LEHB127
 3728 02cb 00       		.uleb128 0
 3729 02cc 00       		.uleb128 0
 3730 02cd BA1C     		.uleb128 .LEHB128-.LFB1095
 3731 02cf 05       		.uleb128 .LEHE128-.LEHB128
 3732 02d0 00       		.uleb128 0
 3733 02d1 00       		.uleb128 0
 3734 02d2 C91C     		.uleb128 .LEHB129-.LFB1095
 3735 02d4 3A       		.uleb128 .LEHE129-.LEHB129
 3736 02d5 8D1D     		.uleb128 .L207-.LFB1095
 3737 02d7 00       		.uleb128 0
 3738 02d8 831D     		.uleb128 .LEHB130-.LFB1095
 3739 02da 05       		.uleb128 .LEHE130-.LEHB130
 3740 02db 00       		.uleb128 0
 3741 02dc 00       		.uleb128 0
 3742 02dd 9B1D     		.uleb128 .LEHB131-.LFB1095
 3743 02df 05       		.uleb128 .LEHE131-.LEHB131
 3744 02e0 00       		.uleb128 0
 3745 02e1 00       		.uleb128 0
 3746 02e2 AA1D     		.uleb128 .LEHB132-.LFB1095
 3747 02e4 3A       		.uleb128 .LEHE132-.LEHB132
 3748 02e5 EE1D     		.uleb128 .L210-.LFB1095
 3749 02e7 00       		.uleb128 0
 3750 02e8 E41D     		.uleb128 .LEHB133-.LFB1095
 3751 02ea 05       		.uleb128 .LEHE133-.LEHB133
 3752 02eb 00       		.uleb128 0
 3753 02ec 00       		.uleb128 0
 3754 02ed FC1D     		.uleb128 .LEHB134-.LFB1095
 3755 02ef 05       		.uleb128 .LEHE134-.LEHB134
 3756 02f0 00       		.uleb128 0
 3757 02f1 00       		.uleb128 0
 3758 02f2 8B1E     		.uleb128 .LEHB135-.LFB1095
 3759 02f4 3A       		.uleb128 .LEHE135-.LEHB135
 3760 02f5 CF1E     		.uleb128 .L213-.LFB1095
 3761 02f7 00       		.uleb128 0
 3762 02f8 C51E     		.uleb128 .LEHB136-.LFB1095
 3763 02fa 05       		.uleb128 .LEHE136-.LEHB136
 3764 02fb 00       		.uleb128 0
 3765 02fc 00       		.uleb128 0
 3766 02fd DD1E     		.uleb128 .LEHB137-.LFB1095
 3767 02ff 05       		.uleb128 .LEHE137-.LEHB137
 3768 0300 00       		.uleb128 0
 3769 0301 00       		.uleb128 0
 3770 0302 EC1E     		.uleb128 .LEHB138-.LFB1095
 3771 0304 3A       		.uleb128 .LEHE138-.LEHB138
 3772 0305 B01F     		.uleb128 .L216-.LFB1095
 3773 0307 00       		.uleb128 0
 3774 0308 A61F     		.uleb128 .LEHB139-.LFB1095
 3775 030a 05       		.uleb128 .LEHE139-.LEHB139
 3776 030b 00       		.uleb128 0
 3777 030c 00       		.uleb128 0
 3778 030d BE1F     		.uleb128 .LEHB140-.LFB1095
 3779 030f 05       		.uleb128 .LEHE140-.LEHB140
 3780 0310 00       		.uleb128 0
 3781 0311 00       		.uleb128 0
 3782 0312 CD1F     		.uleb128 .LEHB141-.LFB1095
 3783 0314 3A       		.uleb128 .LEHE141-.LEHB141
 3784 0315 9120     		.uleb128 .L219-.LFB1095
 3785 0317 00       		.uleb128 0
 3786 0318 8720     		.uleb128 .LEHB142-.LFB1095
 3787 031a 05       		.uleb128 .LEHE142-.LEHB142
 3788 031b 00       		.uleb128 0
 3789 031c 00       		.uleb128 0
 3790 031d 9F20     		.uleb128 .LEHB143-.LFB1095
 3791 031f 05       		.uleb128 .LEHE143-.LEHB143
 3792 0320 00       		.uleb128 0
 3793 0321 00       		.uleb128 0
 3794 0322 AE20     		.uleb128 .LEHB144-.LFB1095
 3795 0324 3A       		.uleb128 .LEHE144-.LEHB144
 3796 0325 F220     		.uleb128 .L222-.LFB1095
 3797 0327 00       		.uleb128 0
 3798 0328 E820     		.uleb128 .LEHB145-.LFB1095
 3799 032a 05       		.uleb128 .LEHE145-.LEHB145
 3800 032b 00       		.uleb128 0
 3801 032c 00       		.uleb128 0
 3802 032d 8021     		.uleb128 .LEHB146-.LFB1095
 3803 032f 05       		.uleb128 .LEHE146-.LEHB146
 3804 0330 00       		.uleb128 0
 3805 0331 00       		.uleb128 0
 3806 0332 8F21     		.uleb128 .LEHB147-.LFB1095
 3807 0334 3A       		.uleb128 .LEHE147-.LEHB147
 3808 0335 D321     		.uleb128 .L225-.LFB1095
 3809 0337 00       		.uleb128 0
 3810 0338 C921     		.uleb128 .LEHB148-.LFB1095
 3811 033a 05       		.uleb128 .LEHE148-.LEHB148
 3812 033b 00       		.uleb128 0
 3813 033c 00       		.uleb128 0
 3814 033d E121     		.uleb128 .LEHB149-.LFB1095
 3815 033f 05       		.uleb128 .LEHE149-.LEHB149
 3816 0340 00       		.uleb128 0
 3817 0341 00       		.uleb128 0
 3818 0342 F021     		.uleb128 .LEHB150-.LFB1095
 3819 0344 3A       		.uleb128 .LEHE150-.LEHB150
 3820 0345 B422     		.uleb128 .L228-.LFB1095
 3821 0347 00       		.uleb128 0
 3822 0348 AA22     		.uleb128 .LEHB151-.LFB1095
 3823 034a 05       		.uleb128 .LEHE151-.LEHB151
 3824 034b 00       		.uleb128 0
 3825 034c 00       		.uleb128 0
 3826 034d C222     		.uleb128 .LEHB152-.LFB1095
 3827 034f 05       		.uleb128 .LEHE152-.LEHB152
 3828 0350 00       		.uleb128 0
 3829 0351 00       		.uleb128 0
 3830 0352 D122     		.uleb128 .LEHB153-.LFB1095
 3831 0354 3A       		.uleb128 .LEHE153-.LEHB153
 3832 0355 9523     		.uleb128 .L231-.LFB1095
 3833 0357 00       		.uleb128 0
 3834 0358 8B23     		.uleb128 .LEHB154-.LFB1095
 3835 035a 05       		.uleb128 .LEHE154-.LEHB154
 3836 035b 00       		.uleb128 0
 3837 035c 00       		.uleb128 0
 3838 035d A323     		.uleb128 .LEHB155-.LFB1095
 3839 035f 05       		.uleb128 .LEHE155-.LEHB155
 3840 0360 00       		.uleb128 0
 3841 0361 00       		.uleb128 0
 3842 0362 B223     		.uleb128 .LEHB156-.LFB1095
 3843 0364 3A       		.uleb128 .LEHE156-.LEHB156
 3844 0365 F623     		.uleb128 .L234-.LFB1095
 3845 0367 00       		.uleb128 0
 3846 0368 EC23     		.uleb128 .LEHB157-.LFB1095
 3847 036a 05       		.uleb128 .LEHE157-.LEHB157
 3848 036b 00       		.uleb128 0
 3849 036c 00       		.uleb128 0
 3850 036d 8424     		.uleb128 .LEHB158-.LFB1095
 3851 036f 05       		.uleb128 .LEHE158-.LEHB158
 3852 0370 00       		.uleb128 0
 3853 0371 00       		.uleb128 0
 3854 0372 9324     		.uleb128 .LEHB159-.LFB1095
 3855 0374 3A       		.uleb128 .LEHE159-.LEHB159
 3856 0375 D724     		.uleb128 .L237-.LFB1095
 3857 0377 00       		.uleb128 0
 3858 0378 CD24     		.uleb128 .LEHB160-.LFB1095
 3859 037a 05       		.uleb128 .LEHE160-.LEHB160
 3860 037b 00       		.uleb128 0
 3861 037c 00       		.uleb128 0
 3862 037d E524     		.uleb128 .LEHB161-.LFB1095
 3863 037f 05       		.uleb128 .LEHE161-.LEHB161
 3864 0380 00       		.uleb128 0
 3865 0381 00       		.uleb128 0
 3866 0382 F424     		.uleb128 .LEHB162-.LFB1095
 3867 0384 3A       		.uleb128 .LEHE162-.LEHB162
 3868 0385 B825     		.uleb128 .L240-.LFB1095
 3869 0387 00       		.uleb128 0
 3870 0388 AE25     		.uleb128 .LEHB163-.LFB1095
 3871 038a 05       		.uleb128 .LEHE163-.LEHB163
 3872 038b 00       		.uleb128 0
 3873 038c 00       		.uleb128 0
 3874 038d C625     		.uleb128 .LEHB164-.LFB1095
 3875 038f 05       		.uleb128 .LEHE164-.LEHB164
 3876 0390 00       		.uleb128 0
 3877 0391 00       		.uleb128 0
 3878 0392 D525     		.uleb128 .LEHB165-.LFB1095
 3879 0394 3A       		.uleb128 .LEHE165-.LEHB165
 3880 0395 9926     		.uleb128 .L243-.LFB1095
 3881 0397 00       		.uleb128 0
 3882 0398 8F26     		.uleb128 .LEHB166-.LFB1095
 3883 039a 05       		.uleb128 .LEHE166-.LEHB166
 3884 039b 00       		.uleb128 0
 3885 039c 00       		.uleb128 0
 3886 039d A726     		.uleb128 .LEHB167-.LFB1095
 3887 039f 05       		.uleb128 .LEHE167-.LEHB167
 3888 03a0 00       		.uleb128 0
 3889 03a1 00       		.uleb128 0
 3890 03a2 B626     		.uleb128 .LEHB168-.LFB1095
 3891 03a4 3A       		.uleb128 .LEHE168-.LEHB168
 3892 03a5 FA26     		.uleb128 .L246-.LFB1095
 3893 03a7 00       		.uleb128 0
 3894 03a8 F026     		.uleb128 .LEHB169-.LFB1095
 3895 03aa 05       		.uleb128 .LEHE169-.LEHB169
 3896 03ab 00       		.uleb128 0
 3897 03ac 00       		.uleb128 0
 3898 03ad 8827     		.uleb128 .LEHB170-.LFB1095
 3899 03af 05       		.uleb128 .LEHE170-.LEHB170
 3900 03b0 00       		.uleb128 0
 3901 03b1 00       		.uleb128 0
 3902 03b2 9727     		.uleb128 .LEHB171-.LFB1095
 3903 03b4 3A       		.uleb128 .LEHE171-.LEHB171
 3904 03b5 DB27     		.uleb128 .L249-.LFB1095
 3905 03b7 00       		.uleb128 0
 3906 03b8 D127     		.uleb128 .LEHB172-.LFB1095
 3907 03ba 05       		.uleb128 .LEHE172-.LEHB172
 3908 03bb 00       		.uleb128 0
 3909 03bc 00       		.uleb128 0
 3910 03bd E927     		.uleb128 .LEHB173-.LFB1095
 3911 03bf 05       		.uleb128 .LEHE173-.LEHB173
 3912 03c0 00       		.uleb128 0
 3913 03c1 00       		.uleb128 0
 3914 03c2 F827     		.uleb128 .LEHB174-.LFB1095
 3915 03c4 3A       		.uleb128 .LEHE174-.LEHB174
 3916 03c5 BC28     		.uleb128 .L252-.LFB1095
 3917 03c7 00       		.uleb128 0
 3918 03c8 B228     		.uleb128 .LEHB175-.LFB1095
 3919 03ca 05       		.uleb128 .LEHE175-.LEHB175
 3920 03cb 00       		.uleb128 0
 3921 03cc 00       		.uleb128 0
 3922 03cd CA28     		.uleb128 .LEHB176-.LFB1095
 3923 03cf 05       		.uleb128 .LEHE176-.LEHB176
 3924 03d0 00       		.uleb128 0
 3925 03d1 00       		.uleb128 0
 3926 03d2 D928     		.uleb128 .LEHB177-.LFB1095
 3927 03d4 3A       		.uleb128 .LEHE177-.LEHB177
 3928 03d5 9D29     		.uleb128 .L255-.LFB1095
 3929 03d7 00       		.uleb128 0
 3930 03d8 9329     		.uleb128 .LEHB178-.LFB1095
 3931 03da 05       		.uleb128 .LEHE178-.LEHB178
 3932 03db 00       		.uleb128 0
 3933 03dc 00       		.uleb128 0
 3934 03dd AB29     		.uleb128 .LEHB179-.LFB1095
 3935 03df 05       		.uleb128 .LEHE179-.LEHB179
 3936 03e0 00       		.uleb128 0
 3937 03e1 00       		.uleb128 0
 3938 03e2 BA29     		.uleb128 .LEHB180-.LFB1095
 3939 03e4 3A       		.uleb128 .LEHE180-.LEHB180
 3940 03e5 FE29     		.uleb128 .L258-.LFB1095
 3941 03e7 00       		.uleb128 0
 3942 03e8 F429     		.uleb128 .LEHB181-.LFB1095
 3943 03ea 05       		.uleb128 .LEHE181-.LEHB181
 3944 03eb 00       		.uleb128 0
 3945 03ec 00       		.uleb128 0
 3946 03ed 8C2A     		.uleb128 .LEHB182-.LFB1095
 3947 03ef 05       		.uleb128 .LEHE182-.LEHB182
 3948 03f0 00       		.uleb128 0
 3949 03f1 00       		.uleb128 0
 3950 03f2 9B2A     		.uleb128 .LEHB183-.LFB1095
 3951 03f4 3A       		.uleb128 .LEHE183-.LEHB183
 3952 03f5 DF2A     		.uleb128 .L261-.LFB1095
 3953 03f7 00       		.uleb128 0
 3954 03f8 D52A     		.uleb128 .LEHB184-.LFB1095
 3955 03fa 05       		.uleb128 .LEHE184-.LEHB184
 3956 03fb 00       		.uleb128 0
 3957 03fc 00       		.uleb128 0
 3958 03fd ED2A     		.uleb128 .LEHB185-.LFB1095
 3959 03ff 05       		.uleb128 .LEHE185-.LEHB185
 3960 0400 00       		.uleb128 0
 3961 0401 00       		.uleb128 0
 3962 0402 FC2A     		.uleb128 .LEHB186-.LFB1095
 3963 0404 3A       		.uleb128 .LEHE186-.LEHB186
 3964 0405 C02B     		.uleb128 .L264-.LFB1095
 3965 0407 00       		.uleb128 0
 3966 0408 B62B     		.uleb128 .LEHB187-.LFB1095
 3967 040a 05       		.uleb128 .LEHE187-.LEHB187
 3968 040b 00       		.uleb128 0
 3969 040c 00       		.uleb128 0
 3970 040d CE2B     		.uleb128 .LEHB188-.LFB1095
 3971 040f 05       		.uleb128 .LEHE188-.LEHB188
 3972 0410 00       		.uleb128 0
 3973 0411 00       		.uleb128 0
 3974 0412 DD2B     		.uleb128 .LEHB189-.LFB1095
 3975 0414 3A       		.uleb128 .LEHE189-.LEHB189
 3976 0415 A12C     		.uleb128 .L267-.LFB1095
 3977 0417 00       		.uleb128 0
 3978 0418 972C     		.uleb128 .LEHB190-.LFB1095
 3979 041a 05       		.uleb128 .LEHE190-.LEHB190
 3980 041b 00       		.uleb128 0
 3981 041c 00       		.uleb128 0
 3982 041d AF2C     		.uleb128 .LEHB191-.LFB1095
 3983 041f 05       		.uleb128 .LEHE191-.LEHB191
 3984 0420 00       		.uleb128 0
 3985 0421 00       		.uleb128 0
 3986 0422 BE2C     		.uleb128 .LEHB192-.LFB1095
 3987 0424 3A       		.uleb128 .LEHE192-.LEHB192
 3988 0425 822D     		.uleb128 .L270-.LFB1095
 3989 0427 00       		.uleb128 0
 3990 0428 F82C     		.uleb128 .LEHB193-.LFB1095
 3991 042a 05       		.uleb128 .LEHE193-.LEHB193
 3992 042b 00       		.uleb128 0
 3993 042c 00       		.uleb128 0
 3994 042d 902D     		.uleb128 .LEHB194-.LFB1095
 3995 042f 05       		.uleb128 .LEHE194-.LEHB194
 3996 0430 00       		.uleb128 0
 3997 0431 00       		.uleb128 0
 3998 0432 9F2D     		.uleb128 .LEHB195-.LFB1095
 3999 0434 3A       		.uleb128 .LEHE195-.LEHB195
 4000 0435 E32D     		.uleb128 .L273-.LFB1095
 4001 0437 00       		.uleb128 0
 4002 0438 D92D     		.uleb128 .LEHB196-.LFB1095
 4003 043a 05       		.uleb128 .LEHE196-.LEHB196
 4004 043b 00       		.uleb128 0
 4005 043c 00       		.uleb128 0
 4006 043d F12D     		.uleb128 .LEHB197-.LFB1095
 4007 043f 05       		.uleb128 .LEHE197-.LEHB197
 4008 0440 00       		.uleb128 0
 4009 0441 00       		.uleb128 0
 4010 0442 802E     		.uleb128 .LEHB198-.LFB1095
 4011 0444 3A       		.uleb128 .LEHE198-.LEHB198
 4012 0445 C42E     		.uleb128 .L276-.LFB1095
 4013 0447 00       		.uleb128 0
 4014 0448 BA2E     		.uleb128 .LEHB199-.LFB1095
 4015 044a 05       		.uleb128 .LEHE199-.LEHB199
 4016 044b 00       		.uleb128 0
 4017 044c 00       		.uleb128 0
 4018 044d D22E     		.uleb128 .LEHB200-.LFB1095
 4019 044f 05       		.uleb128 .LEHE200-.LEHB200
 4020 0450 00       		.uleb128 0
 4021 0451 00       		.uleb128 0
 4022 0452 E12E     		.uleb128 .LEHB201-.LFB1095
 4023 0454 3A       		.uleb128 .LEHE201-.LEHB201
 4024 0455 A52F     		.uleb128 .L279-.LFB1095
 4025 0457 00       		.uleb128 0
 4026 0458 9B2F     		.uleb128 .LEHB202-.LFB1095
 4027 045a 05       		.uleb128 .LEHE202-.LEHB202
 4028 045b 00       		.uleb128 0
 4029 045c 00       		.uleb128 0
 4030 045d B32F     		.uleb128 .LEHB203-.LFB1095
 4031 045f 05       		.uleb128 .LEHE203-.LEHB203
 4032 0460 00       		.uleb128 0
 4033 0461 00       		.uleb128 0
 4034 0462 C22F     		.uleb128 .LEHB204-.LFB1095
 4035 0464 3A       		.uleb128 .LEHE204-.LEHB204
 4036 0465 8630     		.uleb128 .L282-.LFB1095
 4037 0467 00       		.uleb128 0
 4038 0468 FC2F     		.uleb128 .LEHB205-.LFB1095
 4039 046a 05       		.uleb128 .LEHE205-.LEHB205
 4040 046b 00       		.uleb128 0
 4041 046c 00       		.uleb128 0
 4042 046d 9430     		.uleb128 .LEHB206-.LFB1095
 4043 046f 05       		.uleb128 .LEHE206-.LEHB206
 4044 0470 00       		.uleb128 0
 4045 0471 00       		.uleb128 0
 4046 0472 A330     		.uleb128 .LEHB207-.LFB1095
 4047 0474 3A       		.uleb128 .LEHE207-.LEHB207
 4048 0475 E730     		.uleb128 .L285-.LFB1095
 4049 0477 00       		.uleb128 0
 4050 0478 DD30     		.uleb128 .LEHB208-.LFB1095
 4051 047a 05       		.uleb128 .LEHE208-.LEHB208
 4052 047b 00       		.uleb128 0
 4053 047c 00       		.uleb128 0
 4054 047d F530     		.uleb128 .LEHB209-.LFB1095
 4055 047f 05       		.uleb128 .LEHE209-.LEHB209
 4056 0480 00       		.uleb128 0
 4057 0481 00       		.uleb128 0
 4058 0482 8431     		.uleb128 .LEHB210-.LFB1095
 4059 0484 3A       		.uleb128 .LEHE210-.LEHB210
 4060 0485 C831     		.uleb128 .L288-.LFB1095
 4061 0487 00       		.uleb128 0
 4062 0488 BE31     		.uleb128 .LEHB211-.LFB1095
 4063 048a 05       		.uleb128 .LEHE211-.LEHB211
 4064 048b 00       		.uleb128 0
 4065 048c 00       		.uleb128 0
 4066 048d D631     		.uleb128 .LEHB212-.LFB1095
 4067 048f 05       		.uleb128 .LEHE212-.LEHB212
 4068 0490 00       		.uleb128 0
 4069 0491 00       		.uleb128 0
 4070 0492 E531     		.uleb128 .LEHB213-.LFB1095
 4071 0494 3A       		.uleb128 .LEHE213-.LEHB213
 4072 0495 A932     		.uleb128 .L291-.LFB1095
 4073 0497 00       		.uleb128 0
 4074 0498 9F32     		.uleb128 .LEHB214-.LFB1095
 4075 049a 05       		.uleb128 .LEHE214-.LEHB214
 4076 049b 00       		.uleb128 0
 4077 049c 00       		.uleb128 0
 4078 049d B732     		.uleb128 .LEHB215-.LFB1095
 4079 049f 05       		.uleb128 .LEHE215-.LEHB215
 4080 04a0 00       		.uleb128 0
 4081 04a1 00       		.uleb128 0
 4082 04a2 C632     		.uleb128 .LEHB216-.LFB1095
 4083 04a4 3A       		.uleb128 .LEHE216-.LEHB216
 4084 04a5 8A33     		.uleb128 .L294-.LFB1095
 4085 04a7 00       		.uleb128 0
 4086 04a8 8033     		.uleb128 .LEHB217-.LFB1095
 4087 04aa 05       		.uleb128 .LEHE217-.LEHB217
 4088 04ab 00       		.uleb128 0
 4089 04ac 00       		.uleb128 0
 4090 04ad 9833     		.uleb128 .LEHB218-.LFB1095
 4091 04af 05       		.uleb128 .LEHE218-.LEHB218
 4092 04b0 00       		.uleb128 0
 4093 04b1 00       		.uleb128 0
 4094 04b2 A733     		.uleb128 .LEHB219-.LFB1095
 4095 04b4 3A       		.uleb128 .LEHE219-.LEHB219
 4096 04b5 EB33     		.uleb128 .L297-.LFB1095
 4097 04b7 00       		.uleb128 0
 4098 04b8 E133     		.uleb128 .LEHB220-.LFB1095
 4099 04ba 05       		.uleb128 .LEHE220-.LEHB220
 4100 04bb 00       		.uleb128 0
 4101 04bc 00       		.uleb128 0
 4102 04bd F933     		.uleb128 .LEHB221-.LFB1095
 4103 04bf 05       		.uleb128 .LEHE221-.LEHB221
 4104 04c0 00       		.uleb128 0
 4105 04c1 00       		.uleb128 0
 4106 04c2 8834     		.uleb128 .LEHB222-.LFB1095
 4107 04c4 3A       		.uleb128 .LEHE222-.LEHB222
 4108 04c5 CC34     		.uleb128 .L300-.LFB1095
 4109 04c7 00       		.uleb128 0
 4110 04c8 C234     		.uleb128 .LEHB223-.LFB1095
 4111 04ca 05       		.uleb128 .LEHE223-.LEHB223
 4112 04cb 00       		.uleb128 0
 4113 04cc 00       		.uleb128 0
 4114 04cd DA34     		.uleb128 .LEHB224-.LFB1095
 4115 04cf 05       		.uleb128 .LEHE224-.LEHB224
 4116 04d0 00       		.uleb128 0
 4117 04d1 00       		.uleb128 0
 4118 04d2 E934     		.uleb128 .LEHB225-.LFB1095
 4119 04d4 3A       		.uleb128 .LEHE225-.LEHB225
 4120 04d5 AD35     		.uleb128 .L303-.LFB1095
 4121 04d7 00       		.uleb128 0
 4122 04d8 A335     		.uleb128 .LEHB226-.LFB1095
 4123 04da 05       		.uleb128 .LEHE226-.LEHB226
 4124 04db 00       		.uleb128 0
 4125 04dc 00       		.uleb128 0
 4126 04dd BB35     		.uleb128 .LEHB227-.LFB1095
 4127 04df 05       		.uleb128 .LEHE227-.LEHB227
 4128 04e0 00       		.uleb128 0
 4129 04e1 00       		.uleb128 0
 4130 04e2 CA35     		.uleb128 .LEHB228-.LFB1095
 4131 04e4 3A       		.uleb128 .LEHE228-.LEHB228
 4132 04e5 8E36     		.uleb128 .L306-.LFB1095
 4133 04e7 00       		.uleb128 0
 4134 04e8 8436     		.uleb128 .LEHB229-.LFB1095
 4135 04ea 05       		.uleb128 .LEHE229-.LEHB229
 4136 04eb 00       		.uleb128 0
 4137 04ec 00       		.uleb128 0
 4138 04ed 9C36     		.uleb128 .LEHB230-.LFB1095
 4139 04ef 05       		.uleb128 .LEHE230-.LEHB230
 4140 04f0 00       		.uleb128 0
 4141 04f1 00       		.uleb128 0
 4142 04f2 AB36     		.uleb128 .LEHB231-.LFB1095
 4143 04f4 3A       		.uleb128 .LEHE231-.LEHB231
 4144 04f5 EF36     		.uleb128 .L309-.LFB1095
 4145 04f7 00       		.uleb128 0
 4146 04f8 E536     		.uleb128 .LEHB232-.LFB1095
 4147 04fa 05       		.uleb128 .LEHE232-.LEHB232
 4148 04fb 00       		.uleb128 0
 4149 04fc 00       		.uleb128 0
 4150 04fd FD36     		.uleb128 .LEHB233-.LFB1095
 4151 04ff 05       		.uleb128 .LEHE233-.LEHB233
 4152 0500 00       		.uleb128 0
 4153 0501 00       		.uleb128 0
 4154 0502 8C37     		.uleb128 .LEHB234-.LFB1095
 4155 0504 3A       		.uleb128 .LEHE234-.LEHB234
 4156 0505 D037     		.uleb128 .L312-.LFB1095
 4157 0507 00       		.uleb128 0
 4158 0508 C637     		.uleb128 .LEHB235-.LFB1095
 4159 050a 05       		.uleb128 .LEHE235-.LEHB235
 4160 050b 00       		.uleb128 0
 4161 050c 00       		.uleb128 0
 4162 050d DE37     		.uleb128 .LEHB236-.LFB1095
 4163 050f 05       		.uleb128 .LEHE236-.LEHB236
 4164 0510 00       		.uleb128 0
 4165 0511 00       		.uleb128 0
 4166 0512 ED37     		.uleb128 .LEHB237-.LFB1095
 4167 0514 3A       		.uleb128 .LEHE237-.LEHB237
 4168 0515 B138     		.uleb128 .L315-.LFB1095
 4169 0517 00       		.uleb128 0
 4170 0518 A738     		.uleb128 .LEHB238-.LFB1095
 4171 051a 05       		.uleb128 .LEHE238-.LEHB238
 4172 051b 00       		.uleb128 0
 4173 051c 00       		.uleb128 0
 4174 051d BF38     		.uleb128 .LEHB239-.LFB1095
 4175 051f 05       		.uleb128 .LEHE239-.LEHB239
 4176 0520 00       		.uleb128 0
 4177 0521 00       		.uleb128 0
 4178 0522 CE38     		.uleb128 .LEHB240-.LFB1095
 4179 0524 3A       		.uleb128 .LEHE240-.LEHB240
 4180 0525 9239     		.uleb128 .L318-.LFB1095
 4181 0527 00       		.uleb128 0
 4182 0528 8839     		.uleb128 .LEHB241-.LFB1095
 4183 052a 05       		.uleb128 .LEHE241-.LEHB241
 4184 052b 00       		.uleb128 0
 4185 052c 00       		.uleb128 0
 4186 052d A039     		.uleb128 .LEHB242-.LFB1095
 4187 052f 05       		.uleb128 .LEHE242-.LEHB242
 4188 0530 00       		.uleb128 0
 4189 0531 00       		.uleb128 0
 4190 0532 AF39     		.uleb128 .LEHB243-.LFB1095
 4191 0534 3A       		.uleb128 .LEHE243-.LEHB243
 4192 0535 F339     		.uleb128 .L321-.LFB1095
 4193 0537 00       		.uleb128 0
 4194 0538 E939     		.uleb128 .LEHB244-.LFB1095
 4195 053a 05       		.uleb128 .LEHE244-.LEHB244
 4196 053b 00       		.uleb128 0
 4197 053c 00       		.uleb128 0
 4198 053d 813A     		.uleb128 .LEHB245-.LFB1095
 4199 053f 05       		.uleb128 .LEHE245-.LEHB245
 4200 0540 00       		.uleb128 0
 4201 0541 00       		.uleb128 0
 4202 0542 903A     		.uleb128 .LEHB246-.LFB1095
 4203 0544 3A       		.uleb128 .LEHE246-.LEHB246
 4204 0545 D43A     		.uleb128 .L324-.LFB1095
 4205 0547 00       		.uleb128 0
 4206 0548 CA3A     		.uleb128 .LEHB247-.LFB1095
 4207 054a 05       		.uleb128 .LEHE247-.LEHB247
 4208 054b 00       		.uleb128 0
 4209 054c 00       		.uleb128 0
 4210 054d E23A     		.uleb128 .LEHB248-.LFB1095
 4211 054f 05       		.uleb128 .LEHE248-.LEHB248
 4212 0550 00       		.uleb128 0
 4213 0551 00       		.uleb128 0
 4214 0552 F13A     		.uleb128 .LEHB249-.LFB1095
 4215 0554 3A       		.uleb128 .LEHE249-.LEHB249
 4216 0555 B23B     		.uleb128 .L327-.LFB1095
 4217 0557 00       		.uleb128 0
 4218 0558 AB3B     		.uleb128 .LEHB250-.LFB1095
 4219 055a 05       		.uleb128 .LEHE250-.LEHB250
 4220 055b 00       		.uleb128 0
 4221 055c 00       		.uleb128 0
 4222 055d C03B     		.uleb128 .LEHB251-.LFB1095
 4223 055f 05       		.uleb128 .LEHE251-.LEHB251
 4224 0560 00       		.uleb128 0
 4225 0561 00       		.uleb128 0
 4226              	.LLSDACSE1095:
 4227 0562 01       		.byte	0x1
 4228 0563 00       		.byte	0
 4229 0564 00       		.byte	0
 4230 0565 7D       		.byte	0x7d
 4231 0566 0000     		.align 4
 4232 0568 00000000 		.long	0
 4233              	
 4234              	.LLSDATT1095:
 4235              		.text
 4237              		.section	.rodata
 4238              	.LC21:
 4239 0399 436F6E76 		.string	"Conv_testGetHexByte"
 4239      5F746573 
 4239      74476574 
 4239      48657842 
 4239      79746500 
 4240              		.section	.text._ZN23TestConv_testGetHexByteC2Ev,"axG",@progbits,_ZN23TestConv_testGetHexByteC5Ev,c
 4241              		.align 2
 4242              		.weak	_ZN23TestConv_testGetHexByteC2Ev
 4244              	_ZN23TestConv_testGetHexByteC2Ev:
 4245              	.LFB1097:
  92:testConv.cpp  **** 
  93:testConv.cpp  **** TEST(Conv_testGetHexByte) {
 4246              		.loc 3 93 0
 4247              		.cfi_startproc
 4248 0000 55       		pushq	%rbp
 4249              		.cfi_def_cfa_offset 16
 4250              		.cfi_offset 6, -16
 4251 0001 4889E5   		movq	%rsp, %rbp
 4252              		.cfi_def_cfa_register 6
 4253 0004 53       		pushq	%rbx
 4254 0005 4883EC18 		subq	$24, %rsp
 4255              		.cfi_offset 3, -24
 4256 0009 48897DE8 		movq	%rdi, -24(%rbp)
 4257              	.LBB5:
 4258              		.loc 3 93 0
 4259 000d 488B5DE8 		movq	-24(%rbp), %rbx
 4260 0011 E8000000 		call	_ZN13UnitTestSuite12GetSuiteNameEv
 4260      00
 4261 0016 41B85D00 		movl	$93, %r8d
 4261      0000
 4262 001c 488D0D00 		leaq	.LC1(%rip), %rcx
 4262      000000
 4263 0023 4889C2   		movq	%rax, %rdx
 4264 0026 488D3500 		leaq	.LC21(%rip), %rsi
 4264      000000
 4265 002d 4889DF   		movq	%rbx, %rdi
 4266 0030 E8000000 		call	_ZN8UnitTest4TestC2EPKcS2_S2_i@PLT
 4266      00
 4267 0035 488D1500 		leaq	16+_ZTV23TestConv_testGetHexByte(%rip), %rdx
 4267      000000
 4268 003c 488B45E8 		movq	-24(%rbp), %rax
 4269 0040 488910   		movq	%rdx, (%rax)
 4270              	.LBE5:
 4271 0043 90       		nop
 4272 0044 4883C418 		addq	$24, %rsp
 4273 0048 5B       		popq	%rbx
 4274 0049 5D       		popq	%rbp
 4275              		.cfi_def_cfa 7, 8
 4276 004a C3       		ret
 4277              		.cfi_endproc
 4278              	.LFE1097:
 4280              		.weak	_ZN23TestConv_testGetHexByteC1Ev
 4281              		.set	_ZN23TestConv_testGetHexByteC1Ev,_ZN23TestConv_testGetHexByteC2Ev
 4282              		.globl	testConv_testGetHexByteInstance
 4283              		.bss
 4284 0039 00000000 		.align 32
 4284      000000
 4287              	testConv_testGetHexByteInstance:
 4288 0040 00000000 		.zero	56
 4288      00000000 
 4288      00000000 
 4288      00000000 
 4288      00000000 
 4289              		.globl	adderConv_testGetHexByte
 4292              	adderConv_testGetHexByte:
 4293 0078 00       		.zero	1
 4294              		.section	.rodata
 4295              	.LC22:
 4296 03ad 303000   		.string	"00"
 4297              	.LC23:
 4298 03b0 413500   		.string	"A5"
 4299              	.LC24:
 4300 03b3 464600   		.string	"FF"
 4301              	.LC25:
 4302 03b6 474600   		.string	"GF"
 4303              	.LC26:
 4304 03b9 464700   		.string	"FG"
 4305 03bc 00000000 		.align 8
 4306              	.LC27:
 4307 03c0 556E6861 		.string	"Unhandled exception in CHECK_EQUAL(0x00, byte)"
 4307      6E646C65 
 4307      64206578 
 4307      63657074 
 4307      696F6E20 
 4308 03ef 00       		.align 8
 4309              	.LC28:
 4310 03f0 556E6861 		.string	"Unhandled exception in CHECK_EQUAL(0xA5, byte)"
 4310      6E646C65 
 4310      64206578 
 4310      63657074 
 4310      696F6E20 
 4311 041f 00       		.align 8
 4312              	.LC29:
 4313 0420 556E6861 		.string	"Unhandled exception in CHECK_EQUAL(0xFF, byte)"
 4313      6E646C65 
 4313      64206578 
 4313      63657074 
 4313      696F6E20 
 4314              		.text
 4315              		.align 2
 4316              		.globl	_ZNK23TestConv_testGetHexByte7RunImplEv
 4318              	_ZNK23TestConv_testGetHexByte7RunImplEv:
 4319              	.LFB1099:
 4320              		.loc 3 93 0
 4321              		.cfi_startproc
 4322              		.cfi_personality 0x9b,DW.ref.__gxx_personality_v0
 4323              		.cfi_lsda 0x1b,.LLSDA1099
 4324 1de0 55       		pushq	%rbp
 4325              		.cfi_def_cfa_offset 16
 4326              		.cfi_offset 6, -16
 4327 1de1 4889E5   		movq	%rsp, %rbp
 4328              		.cfi_def_cfa_register 6
 4329 1de4 53       		pushq	%rbx
 4330 1de5 4883EC58 		subq	$88, %rsp
 4331              		.cfi_offset 3, -24
 4332 1de9 48897DA8 		movq	%rdi, -88(%rbp)
 4333              		.loc 3 93 0
 4334 1ded 64488B04 		movq	%fs:40, %rax
 4334      25280000 
 4334      00
 4335 1df6 488945E8 		movq	%rax, -24(%rbp)
 4336 1dfa 31C0     		xorl	%eax, %eax
  94:testConv.cpp  **** 	uint8 byte;
  95:testConv.cpp  **** 	bool status;
  96:testConv.cpp  **** 	status = getHexByte("00", &byte);
 4337              		.loc 3 96 0
 4338 1dfc 488D45BA 		leaq	-70(%rbp), %rax
 4339 1e00 4889C6   		movq	%rax, %rsi
 4340 1e03 488D3D00 		leaq	.LC22(%rip), %rdi
 4340      000000
 4341              	.LEHB252:
 4342 1e0a E8000000 		call	getHexByte@PLT
 4342      00
 4343              	.LEHE252:
 4344 1e0f 8845BB   		movb	%al, -69(%rbp)
 4345              	.LEHB253:
  97:testConv.cpp  **** 	CHECK_EQUAL(false, status);
 4346              		.loc 3 97 0
 4347 1e12 E8000000 		call	_ZN8UnitTest11CurrentTest7DetailsEv@PLT
 4347      00
 4348 1e17 488B08   		movq	(%rax), %rcx
 4349 1e1a 488D45C0 		leaq	-64(%rbp), %rax
 4350 1e1e BA610000 		movl	$97, %edx
 4350      00
 4351 1e23 4889CE   		movq	%rcx, %rsi
 4352 1e26 4889C7   		movq	%rax, %rdi
 4353 1e29 E8000000 		call	_ZN8UnitTest11TestDetailsC1ERKS0_i@PLT
 4353      00
 4354              	.LEHE253:
 4355              		.loc 3 97 0 is_stmt 0 discriminator 2
 4356 1e2e C645BC00 		movb	$0, -68(%rbp)
 4357              	.LEHB254:
 4358 1e32 E8000000 		call	_ZN8UnitTest11CurrentTest7ResultsEv@PLT
 4358      00
 4359 1e37 488B00   		movq	(%rax), %rax
 4360 1e3a 488D4DC0 		leaq	-64(%rbp), %rcx
 4361 1e3e 488D55BB 		leaq	-69(%rbp), %rdx
 4362 1e42 488D75BC 		leaq	-68(%rbp), %rsi
 4363 1e46 4889C7   		movq	%rax, %rdi
 4364 1e49 E8000000 		call	_ZN8UnitTest10CheckEqualIbbEEvRNS_11TestResultsERKT_RKT0_RKNS_11TestDetailsE
 4364      00
 4365              	.LEHE254:
 4366              	.L332:
 4367              	.LEHB255:
  98:testConv.cpp  **** 	CHECK_EQUAL(0x00, byte);
 4368              		.loc 3 98 0 is_stmt 1
 4369 1e4e E8000000 		call	_ZN8UnitTest11CurrentTest7DetailsEv@PLT
 4369      00
 4370 1e53 488B08   		movq	(%rax), %rcx
 4371 1e56 488D45C0 		leaq	-64(%rbp), %rax
 4372 1e5a BA620000 		movl	$98, %edx
 4372      00
 4373 1e5f 4889CE   		movq	%rcx, %rsi
 4374 1e62 4889C7   		movq	%rax, %rdi
 4375 1e65 E8000000 		call	_ZN8UnitTest11TestDetailsC1ERKS0_i@PLT
 4375      00
 4376              	.LEHE255:
 4377              		.loc 3 98 0 is_stmt 0 discriminator 2
 4378 1e6a C745BC00 		movl	$0, -68(%rbp)
 4378      000000
 4379              	.LEHB256:
 4380 1e71 E8000000 		call	_ZN8UnitTest11CurrentTest7ResultsEv@PLT
 4380      00
 4381 1e76 488B00   		movq	(%rax), %rax
 4382 1e79 488D4DC0 		leaq	-64(%rbp), %rcx
 4383 1e7d 488D55BA 		leaq	-70(%rbp), %rdx
 4384 1e81 488D75BC 		leaq	-68(%rbp), %rsi
 4385 1e85 4889C7   		movq	%rax, %rdi
 4386 1e88 E8000000 		call	_ZN8UnitTest10CheckEqualIihEEvRNS_11TestResultsERKT_RKT0_RKNS_11TestDetailsE
 4386      00
 4387              	.LEHE256:
 4388              	.L336:
  99:testConv.cpp  **** 	status = getHexByte("A5", &byte);
 4389              		.loc 3 99 0 is_stmt 1
 4390 1e8d 488D45BA 		leaq	-70(%rbp), %rax
 4391 1e91 4889C6   		movq	%rax, %rsi
 4392 1e94 488D3D00 		leaq	.LC23(%rip), %rdi
 4392      000000
 4393              	.LEHB257:
 4394 1e9b E8000000 		call	getHexByte@PLT
 4394      00
 4395              	.LEHE257:
 4396 1ea0 8845BB   		movb	%al, -69(%rbp)
 4397              	.LEHB258:
 100:testConv.cpp  **** 	CHECK_EQUAL(false, status);
 4398              		.loc 3 100 0
 4399 1ea3 E8000000 		call	_ZN8UnitTest11CurrentTest7DetailsEv@PLT
 4399      00
 4400 1ea8 488B08   		movq	(%rax), %rcx
 4401 1eab 488D45C0 		leaq	-64(%rbp), %rax
 4402 1eaf BA640000 		movl	$100, %edx
 4402      00
 4403 1eb4 4889CE   		movq	%rcx, %rsi
 4404 1eb7 4889C7   		movq	%rax, %rdi
 4405 1eba E8000000 		call	_ZN8UnitTest11TestDetailsC1ERKS0_i@PLT
 4405      00
 4406              	.LEHE258:
 4407              		.loc 3 100 0 is_stmt 0 discriminator 2
 4408 1ebf C645BC00 		movb	$0, -68(%rbp)
 4409              	.LEHB259:
 4410 1ec3 E8000000 		call	_ZN8UnitTest11CurrentTest7ResultsEv@PLT
 4410      00
 4411 1ec8 488B00   		movq	(%rax), %rax
 4412 1ecb 488D4DC0 		leaq	-64(%rbp), %rcx
 4413 1ecf 488D55BB 		leaq	-69(%rbp), %rdx
 4414 1ed3 488D75BC 		leaq	-68(%rbp), %rsi
 4415 1ed7 4889C7   		movq	%rax, %rdi
 4416 1eda E8000000 		call	_ZN8UnitTest10CheckEqualIbbEEvRNS_11TestResultsERKT_RKT0_RKNS_11TestDetailsE
 4416      00
 4417              	.LEHE259:
 4418              	.L340:
 4419              	.LEHB260:
 101:testConv.cpp  **** 	CHECK_EQUAL(0xA5, byte);
 4420              		.loc 3 101 0 is_stmt 1
 4421 1edf E8000000 		call	_ZN8UnitTest11CurrentTest7DetailsEv@PLT
 4421      00
 4422 1ee4 488B08   		movq	(%rax), %rcx
 4423 1ee7 488D45C0 		leaq	-64(%rbp), %rax
 4424 1eeb BA650000 		movl	$101, %edx
 4424      00
 4425 1ef0 4889CE   		movq	%rcx, %rsi
 4426 1ef3 4889C7   		movq	%rax, %rdi
 4427 1ef6 E8000000 		call	_ZN8UnitTest11TestDetailsC1ERKS0_i@PLT
 4427      00
 4428              	.LEHE260:
 4429              		.loc 3 101 0 is_stmt 0 discriminator 2
 4430 1efb C745BCA5 		movl	$165, -68(%rbp)
 4430      000000
 4431              	.LEHB261:
 4432 1f02 E8000000 		call	_ZN8UnitTest11CurrentTest7ResultsEv@PLT
 4432      00
 4433 1f07 488B00   		movq	(%rax), %rax
 4434 1f0a 488D4DC0 		leaq	-64(%rbp), %rcx
 4435 1f0e 488D55BA 		leaq	-70(%rbp), %rdx
 4436 1f12 488D75BC 		leaq	-68(%rbp), %rsi
 4437 1f16 4889C7   		movq	%rax, %rdi
 4438 1f19 E8000000 		call	_ZN8UnitTest10CheckEqualIihEEvRNS_11TestResultsERKT_RKT0_RKNS_11TestDetailsE
 4438      00
 4439              	.LEHE261:
 4440              	.L344:
 102:testConv.cpp  **** 	status = getHexByte("FF", &byte);
 4441              		.loc 3 102 0 is_stmt 1
 4442 1f1e 488D45BA 		leaq	-70(%rbp), %rax
 4443 1f22 4889C6   		movq	%rax, %rsi
 4444 1f25 488D3D00 		leaq	.LC24(%rip), %rdi
 4444      000000
 4445              	.LEHB262:
 4446 1f2c E8000000 		call	getHexByte@PLT
 4446      00
 4447              	.LEHE262:
 4448 1f31 8845BB   		movb	%al, -69(%rbp)
 4449              	.LEHB263:
 103:testConv.cpp  **** 	CHECK_EQUAL(false, status);
 4450              		.loc 3 103 0
 4451 1f34 E8000000 		call	_ZN8UnitTest11CurrentTest7DetailsEv@PLT
 4451      00
 4452 1f39 488B08   		movq	(%rax), %rcx
 4453 1f3c 488D45C0 		leaq	-64(%rbp), %rax
 4454 1f40 BA670000 		movl	$103, %edx
 4454      00
 4455 1f45 4889CE   		movq	%rcx, %rsi
 4456 1f48 4889C7   		movq	%rax, %rdi
 4457 1f4b E8000000 		call	_ZN8UnitTest11TestDetailsC1ERKS0_i@PLT
 4457      00
 4458              	.LEHE263:
 4459              		.loc 3 103 0 is_stmt 0 discriminator 2
 4460 1f50 C645BC00 		movb	$0, -68(%rbp)
 4461              	.LEHB264:
 4462 1f54 E8000000 		call	_ZN8UnitTest11CurrentTest7ResultsEv@PLT
 4462      00
 4463 1f59 488B00   		movq	(%rax), %rax
 4464 1f5c 488D4DC0 		leaq	-64(%rbp), %rcx
 4465 1f60 488D55BB 		leaq	-69(%rbp), %rdx
 4466 1f64 488D75BC 		leaq	-68(%rbp), %rsi
 4467 1f68 4889C7   		movq	%rax, %rdi
 4468 1f6b E8000000 		call	_ZN8UnitTest10CheckEqualIbbEEvRNS_11TestResultsERKT_RKT0_RKNS_11TestDetailsE
 4468      00
 4469              	.LEHE264:
 4470              	.L348:
 4471              	.LEHB265:
 104:testConv.cpp  **** 	CHECK_EQUAL(0xFF, byte);
 4472              		.loc 3 104 0 is_stmt 1
 4473 1f70 E8000000 		call	_ZN8UnitTest11CurrentTest7DetailsEv@PLT
 4473      00
 4474 1f75 488B08   		movq	(%rax), %rcx
 4475 1f78 488D45C0 		leaq	-64(%rbp), %rax
 4476 1f7c BA680000 		movl	$104, %edx
 4476      00
 4477 1f81 4889CE   		movq	%rcx, %rsi
 4478 1f84 4889C7   		movq	%rax, %rdi
 4479 1f87 E8000000 		call	_ZN8UnitTest11TestDetailsC1ERKS0_i@PLT
 4479      00
 4480              	.LEHE265:
 4481              		.loc 3 104 0 is_stmt 0 discriminator 2
 4482 1f8c C745BCFF 		movl	$255, -68(%rbp)
 4482      000000
 4483              	.LEHB266:
 4484 1f93 E8000000 		call	_ZN8UnitTest11CurrentTest7ResultsEv@PLT
 4484      00
 4485 1f98 488B00   		movq	(%rax), %rax
 4486 1f9b 488D4DC0 		leaq	-64(%rbp), %rcx
 4487 1f9f 488D55BA 		leaq	-70(%rbp), %rdx
 4488 1fa3 488D75BC 		leaq	-68(%rbp), %rsi
 4489 1fa7 4889C7   		movq	%rax, %rdi
 4490 1faa E8000000 		call	_ZN8UnitTest10CheckEqualIihEEvRNS_11TestResultsERKT_RKT0_RKNS_11TestDetailsE
 4490      00
 4491              	.LEHE266:
 4492              	.L352:
 105:testConv.cpp  **** 	status = getHexByte("GF", &byte);
 4493              		.loc 3 105 0 is_stmt 1
 4494 1faf 488D45BA 		leaq	-70(%rbp), %rax
 4495 1fb3 4889C6   		movq	%rax, %rsi
 4496 1fb6 488D3D00 		leaq	.LC25(%rip), %rdi
 4496      000000
 4497              	.LEHB267:
 4498 1fbd E8000000 		call	getHexByte@PLT
 4498      00
 4499              	.LEHE267:
 4500 1fc2 8845BB   		movb	%al, -69(%rbp)
 4501              	.LEHB268:
 106:testConv.cpp  **** 	CHECK_EQUAL(true, status);
 4502              		.loc 3 106 0
 4503 1fc5 E8000000 		call	_ZN8UnitTest11CurrentTest7DetailsEv@PLT
 4503      00
 4504 1fca 488B08   		movq	(%rax), %rcx
 4505 1fcd 488D45C0 		leaq	-64(%rbp), %rax
 4506 1fd1 BA6A0000 		movl	$106, %edx
 4506      00
 4507 1fd6 4889CE   		movq	%rcx, %rsi
 4508 1fd9 4889C7   		movq	%rax, %rdi
 4509 1fdc E8000000 		call	_ZN8UnitTest11TestDetailsC1ERKS0_i@PLT
 4509      00
 4510              	.LEHE268:
 4511              		.loc 3 106 0 is_stmt 0 discriminator 2
 4512 1fe1 C645BC01 		movb	$1, -68(%rbp)
 4513              	.LEHB269:
 4514 1fe5 E8000000 		call	_ZN8UnitTest11CurrentTest7ResultsEv@PLT
 4514      00
 4515 1fea 488B00   		movq	(%rax), %rax
 4516 1fed 488D4DC0 		leaq	-64(%rbp), %rcx
 4517 1ff1 488D55BB 		leaq	-69(%rbp), %rdx
 4518 1ff5 488D75BC 		leaq	-68(%rbp), %rsi
 4519 1ff9 4889C7   		movq	%rax, %rdi
 4520 1ffc E8000000 		call	_ZN8UnitTest10CheckEqualIbbEEvRNS_11TestResultsERKT_RKT0_RKNS_11TestDetailsE
 4520      00
 4521              	.LEHE269:
 4522              	.L356:
 107:testConv.cpp  **** 	status = getHexByte("FG", &byte);
 4523              		.loc 3 107 0 is_stmt 1
 4524 2001 488D45BA 		leaq	-70(%rbp), %rax
 4525 2005 4889C6   		movq	%rax, %rsi
 4526 2008 488D3D00 		leaq	.LC26(%rip), %rdi
 4526      000000
 4527              	.LEHB270:
 4528 200f E8000000 		call	getHexByte@PLT
 4528      00
 4529              	.LEHE270:
 4530 2014 8845BB   		movb	%al, -69(%rbp)
 4531              	.LEHB271:
 108:testConv.cpp  **** 	CHECK_EQUAL(true, status);
 4532              		.loc 3 108 0
 4533 2017 E8000000 		call	_ZN8UnitTest11CurrentTest7DetailsEv@PLT
 4533      00
 4534 201c 488B08   		movq	(%rax), %rcx
 4535 201f 488D45C0 		leaq	-64(%rbp), %rax
 4536 2023 BA6C0000 		movl	$108, %edx
 4536      00
 4537 2028 4889CE   		movq	%rcx, %rsi
 4538 202b 4889C7   		movq	%rax, %rdi
 4539 202e E8000000 		call	_ZN8UnitTest11TestDetailsC1ERKS0_i@PLT
 4539      00
 4540              	.LEHE271:
 4541              		.loc 3 108 0 is_stmt 0 discriminator 2
 4542 2033 C645BC01 		movb	$1, -68(%rbp)
 4543              	.LEHB272:
 4544 2037 E8000000 		call	_ZN8UnitTest11CurrentTest7ResultsEv@PLT
 4544      00
 4545 203c 488B00   		movq	(%rax), %rax
 4546 203f 488D4DC0 		leaq	-64(%rbp), %rcx
 4547 2043 488D55BB 		leaq	-69(%rbp), %rdx
 4548 2047 488D75BC 		leaq	-68(%rbp), %rsi
 4549 204b 4889C7   		movq	%rax, %rdi
 4550 204e E8000000 		call	_ZN8UnitTest10CheckEqualIbbEEvRNS_11TestResultsERKT_RKT0_RKNS_11TestDetailsE
 4550      00
 4551              	.LEHE272:
 109:testConv.cpp  **** }
 4552              		.loc 3 109 0 is_stmt 1
 4553 2053 E9050300 		jmp	.L329
 4553      00
 4554              	.L364:
 4555 2058 EB00     		jmp	.L331
 4556              	.L363:
 4557              	.L331:
  97:testConv.cpp  **** 	CHECK_EQUAL(0x00, byte);
 4558              		.loc 3 97 0
 4559 205a 4889C7   		movq	%rax, %rdi
 4560 205d E8000000 		call	__cxa_begin_catch@PLT
 4560      00
 4561              	.LEHB273:
 4562 2062 E8000000 		call	_ZN8UnitTest11CurrentTest7ResultsEv@PLT
 4562      00
 4563 2067 488B18   		movq	(%rax), %rbx
 4564 206a E8000000 		call	_ZN8UnitTest11CurrentTest7DetailsEv@PLT
 4564      00
  97:testConv.cpp  **** 	CHECK_EQUAL(0x00, byte);
 4565              		.loc 3 97 0 is_stmt 0 discriminator 8
 4566 206f 488B08   		movq	(%rax), %rcx
 4567 2072 488D45C0 		leaq	-64(%rbp), %rax
 4568 2076 BA610000 		movl	$97, %edx
 4568      00
 4569 207b 4889CE   		movq	%rcx, %rsi
 4570 207e 4889C7   		movq	%rax, %rdi
 4571 2081 E8000000 		call	_ZN8UnitTest11TestDetailsC1ERKS0_i@PLT
 4571      00
  97:testConv.cpp  **** 	CHECK_EQUAL(0x00, byte);
 4572              		.loc 3 97 0 discriminator 12
 4573 2086 488D45C0 		leaq	-64(%rbp), %rax
 4574 208a 488D1500 		leaq	.LC3(%rip), %rdx
 4574      000000
 4575 2091 4889C6   		movq	%rax, %rsi
 4576 2094 4889DF   		movq	%rbx, %rdi
 4577 2097 E8000000 		call	_ZN8UnitTest11TestResults13OnTestFailureERKNS_11TestDetailsEPKc@PLT
 4577      00
 4578              	.LEHE273:
 4579              	.LEHB274:
  97:testConv.cpp  **** 	CHECK_EQUAL(0x00, byte);
 4580              		.loc 3 97 0 discriminator 14
 4581 209c E8000000 		call	__cxa_end_catch@PLT
 4581      00
 4582              	.LEHE274:
 4583 20a1 E9A8FDFF 		jmp	.L332
 4583      FF
 4584              	.L365:
 4585 20a6 4889C3   		movq	%rax, %rbx
  97:testConv.cpp  **** 	CHECK_EQUAL(0x00, byte);
 4586              		.loc 3 97 0
 4587 20a9 E8000000 		call	__cxa_end_catch@PLT
 4587      00
 4588 20ae 4889D8   		movq	%rbx, %rax
 4589 20b1 4889C7   		movq	%rax, %rdi
 4590              	.LEHB275:
 4591 20b4 E8000000 		call	_Unwind_Resume@PLT
 4591      00
 4592              	.LEHE275:
 4593              	.L367:
 4594 20b9 EB00     		jmp	.L335
 4595              	.L366:
 4596              	.L335:
  98:testConv.cpp  **** 	status = getHexByte("A5", &byte);
 4597              		.loc 3 98 0 is_stmt 1
 4598 20bb 4889C7   		movq	%rax, %rdi
 4599 20be E8000000 		call	__cxa_begin_catch@PLT
 4599      00
 4600              	.LEHB276:
 4601 20c3 E8000000 		call	_ZN8UnitTest11CurrentTest7ResultsEv@PLT
 4601      00
 4602 20c8 488B18   		movq	(%rax), %rbx
 4603 20cb E8000000 		call	_ZN8UnitTest11CurrentTest7DetailsEv@PLT
 4603      00
  98:testConv.cpp  **** 	status = getHexByte("A5", &byte);
 4604              		.loc 3 98 0 is_stmt 0 discriminator 8
 4605 20d0 488B08   		movq	(%rax), %rcx
 4606 20d3 488D45C0 		leaq	-64(%rbp), %rax
 4607 20d7 BA620000 		movl	$98, %edx
 4607      00
 4608 20dc 4889CE   		movq	%rcx, %rsi
 4609 20df 4889C7   		movq	%rax, %rdi
 4610 20e2 E8000000 		call	_ZN8UnitTest11TestDetailsC1ERKS0_i@PLT
 4610      00
  98:testConv.cpp  **** 	status = getHexByte("A5", &byte);
 4611              		.loc 3 98 0 discriminator 12
 4612 20e7 488D45C0 		leaq	-64(%rbp), %rax
 4613 20eb 488D1500 		leaq	.LC27(%rip), %rdx
 4613      000000
 4614 20f2 4889C6   		movq	%rax, %rsi
 4615 20f5 4889DF   		movq	%rbx, %rdi
 4616 20f8 E8000000 		call	_ZN8UnitTest11TestResults13OnTestFailureERKNS_11TestDetailsEPKc@PLT
 4616      00
 4617              	.LEHE276:
 4618              	.LEHB277:
  98:testConv.cpp  **** 	status = getHexByte("A5", &byte);
 4619              		.loc 3 98 0 discriminator 14
 4620 20fd E8000000 		call	__cxa_end_catch@PLT
 4620      00
 4621              	.LEHE277:
 4622 2102 E986FDFF 		jmp	.L336
 4622      FF
 4623              	.L368:
 4624 2107 4889C3   		movq	%rax, %rbx
  98:testConv.cpp  **** 	status = getHexByte("A5", &byte);
 4625              		.loc 3 98 0
 4626 210a E8000000 		call	__cxa_end_catch@PLT
 4626      00
 4627 210f 4889D8   		movq	%rbx, %rax
 4628 2112 4889C7   		movq	%rax, %rdi
 4629              	.LEHB278:
 4630 2115 E8000000 		call	_Unwind_Resume@PLT
 4630      00
 4631              	.LEHE278:
 4632              	.L370:
 4633 211a EB00     		jmp	.L339
 4634              	.L369:
 4635              	.L339:
 100:testConv.cpp  **** 	CHECK_EQUAL(0xA5, byte);
 4636              		.loc 3 100 0 is_stmt 1
 4637 211c 4889C7   		movq	%rax, %rdi
 4638 211f E8000000 		call	__cxa_begin_catch@PLT
 4638      00
 4639              	.LEHB279:
 4640 2124 E8000000 		call	_ZN8UnitTest11CurrentTest7ResultsEv@PLT
 4640      00
 4641 2129 488B18   		movq	(%rax), %rbx
 4642 212c E8000000 		call	_ZN8UnitTest11CurrentTest7DetailsEv@PLT
 4642      00
 100:testConv.cpp  **** 	CHECK_EQUAL(0xA5, byte);
 4643              		.loc 3 100 0 is_stmt 0 discriminator 8
 4644 2131 488B08   		movq	(%rax), %rcx
 4645 2134 488D45C0 		leaq	-64(%rbp), %rax
 4646 2138 BA640000 		movl	$100, %edx
 4646      00
 4647 213d 4889CE   		movq	%rcx, %rsi
 4648 2140 4889C7   		movq	%rax, %rdi
 4649 2143 E8000000 		call	_ZN8UnitTest11TestDetailsC1ERKS0_i@PLT
 4649      00
 100:testConv.cpp  **** 	CHECK_EQUAL(0xA5, byte);
 4650              		.loc 3 100 0 discriminator 12
 4651 2148 488D45C0 		leaq	-64(%rbp), %rax
 4652 214c 488D1500 		leaq	.LC3(%rip), %rdx
 4652      000000
 4653 2153 4889C6   		movq	%rax, %rsi
 4654 2156 4889DF   		movq	%rbx, %rdi
 4655 2159 E8000000 		call	_ZN8UnitTest11TestResults13OnTestFailureERKNS_11TestDetailsEPKc@PLT
 4655      00
 4656              	.LEHE279:
 4657              	.LEHB280:
 100:testConv.cpp  **** 	CHECK_EQUAL(0xA5, byte);
 4658              		.loc 3 100 0 discriminator 14
 4659 215e E8000000 		call	__cxa_end_catch@PLT
 4659      00
 4660              	.LEHE280:
 4661 2163 E977FDFF 		jmp	.L340
 4661      FF
 4662              	.L371:
 4663 2168 4889C3   		movq	%rax, %rbx
 100:testConv.cpp  **** 	CHECK_EQUAL(0xA5, byte);
 4664              		.loc 3 100 0
 4665 216b E8000000 		call	__cxa_end_catch@PLT
 4665      00
 4666 2170 4889D8   		movq	%rbx, %rax
 4667 2173 4889C7   		movq	%rax, %rdi
 4668              	.LEHB281:
 4669 2176 E8000000 		call	_Unwind_Resume@PLT
 4669      00
 4670              	.LEHE281:
 4671              	.L373:
 4672 217b EB00     		jmp	.L343
 4673              	.L372:
 4674              	.L343:
 101:testConv.cpp  **** 	status = getHexByte("FF", &byte);
 4675              		.loc 3 101 0 is_stmt 1
 4676 217d 4889C7   		movq	%rax, %rdi
 4677 2180 E8000000 		call	__cxa_begin_catch@PLT
 4677      00
 4678              	.LEHB282:
 4679 2185 E8000000 		call	_ZN8UnitTest11CurrentTest7ResultsEv@PLT
 4679      00
 4680 218a 488B18   		movq	(%rax), %rbx
 4681 218d E8000000 		call	_ZN8UnitTest11CurrentTest7DetailsEv@PLT
 4681      00
 101:testConv.cpp  **** 	status = getHexByte("FF", &byte);
 4682              		.loc 3 101 0 is_stmt 0 discriminator 8
 4683 2192 488B08   		movq	(%rax), %rcx
 4684 2195 488D45C0 		leaq	-64(%rbp), %rax
 4685 2199 BA650000 		movl	$101, %edx
 4685      00
 4686 219e 4889CE   		movq	%rcx, %rsi
 4687 21a1 4889C7   		movq	%rax, %rdi
 4688 21a4 E8000000 		call	_ZN8UnitTest11TestDetailsC1ERKS0_i@PLT
 4688      00
 101:testConv.cpp  **** 	status = getHexByte("FF", &byte);
 4689              		.loc 3 101 0 discriminator 12
 4690 21a9 488D45C0 		leaq	-64(%rbp), %rax
 4691 21ad 488D1500 		leaq	.LC28(%rip), %rdx
 4691      000000
 4692 21b4 4889C6   		movq	%rax, %rsi
 4693 21b7 4889DF   		movq	%rbx, %rdi
 4694 21ba E8000000 		call	_ZN8UnitTest11TestResults13OnTestFailureERKNS_11TestDetailsEPKc@PLT
 4694      00
 4695              	.LEHE282:
 4696              	.LEHB283:
 101:testConv.cpp  **** 	status = getHexByte("FF", &byte);
 4697              		.loc 3 101 0 discriminator 14
 4698 21bf E8000000 		call	__cxa_end_catch@PLT
 4698      00
 4699              	.LEHE283:
 4700 21c4 E955FDFF 		jmp	.L344
 4700      FF
 4701              	.L374:
 4702 21c9 4889C3   		movq	%rax, %rbx
 101:testConv.cpp  **** 	status = getHexByte("FF", &byte);
 4703              		.loc 3 101 0
 4704 21cc E8000000 		call	__cxa_end_catch@PLT
 4704      00
 4705 21d1 4889D8   		movq	%rbx, %rax
 4706 21d4 4889C7   		movq	%rax, %rdi
 4707              	.LEHB284:
 4708 21d7 E8000000 		call	_Unwind_Resume@PLT
 4708      00
 4709              	.LEHE284:
 4710              	.L376:
 4711 21dc EB00     		jmp	.L347
 4712              	.L375:
 4713              	.L347:
 103:testConv.cpp  **** 	CHECK_EQUAL(0xFF, byte);
 4714              		.loc 3 103 0 is_stmt 1
 4715 21de 4889C7   		movq	%rax, %rdi
 4716 21e1 E8000000 		call	__cxa_begin_catch@PLT
 4716      00
 4717              	.LEHB285:
 4718 21e6 E8000000 		call	_ZN8UnitTest11CurrentTest7ResultsEv@PLT
 4718      00
 4719 21eb 488B18   		movq	(%rax), %rbx
 4720 21ee E8000000 		call	_ZN8UnitTest11CurrentTest7DetailsEv@PLT
 4720      00
 103:testConv.cpp  **** 	CHECK_EQUAL(0xFF, byte);
 4721              		.loc 3 103 0 is_stmt 0 discriminator 8
 4722 21f3 488B08   		movq	(%rax), %rcx
 4723 21f6 488D45C0 		leaq	-64(%rbp), %rax
 4724 21fa BA670000 		movl	$103, %edx
 4724      00
 4725 21ff 4889CE   		movq	%rcx, %rsi
 4726 2202 4889C7   		movq	%rax, %rdi
 4727 2205 E8000000 		call	_ZN8UnitTest11TestDetailsC1ERKS0_i@PLT
 4727      00
 103:testConv.cpp  **** 	CHECK_EQUAL(0xFF, byte);
 4728              		.loc 3 103 0 discriminator 12
 4729 220a 488D45C0 		leaq	-64(%rbp), %rax
 4730 220e 488D1500 		leaq	.LC3(%rip), %rdx
 4730      000000
 4731 2215 4889C6   		movq	%rax, %rsi
 4732 2218 4889DF   		movq	%rbx, %rdi
 4733 221b E8000000 		call	_ZN8UnitTest11TestResults13OnTestFailureERKNS_11TestDetailsEPKc@PLT
 4733      00
 4734              	.LEHE285:
 4735              	.LEHB286:
 103:testConv.cpp  **** 	CHECK_EQUAL(0xFF, byte);
 4736              		.loc 3 103 0 discriminator 14
 4737 2220 E8000000 		call	__cxa_end_catch@PLT
 4737      00
 4738              	.LEHE286:
 4739 2225 E946FDFF 		jmp	.L348
 4739      FF
 4740              	.L377:
 4741 222a 4889C3   		movq	%rax, %rbx
 103:testConv.cpp  **** 	CHECK_EQUAL(0xFF, byte);
 4742              		.loc 3 103 0
 4743 222d E8000000 		call	__cxa_end_catch@PLT
 4743      00
 4744 2232 4889D8   		movq	%rbx, %rax
 4745 2235 4889C7   		movq	%rax, %rdi
 4746              	.LEHB287:
 4747 2238 E8000000 		call	_Unwind_Resume@PLT
 4747      00
 4748              	.LEHE287:
 4749              	.L379:
 4750 223d EB00     		jmp	.L351
 4751              	.L378:
 4752              	.L351:
 104:testConv.cpp  **** 	status = getHexByte("GF", &byte);
 4753              		.loc 3 104 0 is_stmt 1
 4754 223f 4889C7   		movq	%rax, %rdi
 4755 2242 E8000000 		call	__cxa_begin_catch@PLT
 4755      00
 4756              	.LEHB288:
 4757 2247 E8000000 		call	_ZN8UnitTest11CurrentTest7ResultsEv@PLT
 4757      00
 4758 224c 488B18   		movq	(%rax), %rbx
 4759 224f E8000000 		call	_ZN8UnitTest11CurrentTest7DetailsEv@PLT
 4759      00
 104:testConv.cpp  **** 	status = getHexByte("GF", &byte);
 4760              		.loc 3 104 0 is_stmt 0 discriminator 8
 4761 2254 488B08   		movq	(%rax), %rcx
 4762 2257 488D45C0 		leaq	-64(%rbp), %rax
 4763 225b BA680000 		movl	$104, %edx
 4763      00
 4764 2260 4889CE   		movq	%rcx, %rsi
 4765 2263 4889C7   		movq	%rax, %rdi
 4766 2266 E8000000 		call	_ZN8UnitTest11TestDetailsC1ERKS0_i@PLT
 4766      00
 104:testConv.cpp  **** 	status = getHexByte("GF", &byte);
 4767              		.loc 3 104 0 discriminator 12
 4768 226b 488D45C0 		leaq	-64(%rbp), %rax
 4769 226f 488D1500 		leaq	.LC29(%rip), %rdx
 4769      000000
 4770 2276 4889C6   		movq	%rax, %rsi
 4771 2279 4889DF   		movq	%rbx, %rdi
 4772 227c E8000000 		call	_ZN8UnitTest11TestResults13OnTestFailureERKNS_11TestDetailsEPKc@PLT
 4772      00
 4773              	.LEHE288:
 4774              	.LEHB289:
 104:testConv.cpp  **** 	status = getHexByte("GF", &byte);
 4775              		.loc 3 104 0 discriminator 14
 4776 2281 E8000000 		call	__cxa_end_catch@PLT
 4776      00
 4777              	.LEHE289:
 4778 2286 E924FDFF 		jmp	.L352
 4778      FF
 4779              	.L380:
 4780 228b 4889C3   		movq	%rax, %rbx
 104:testConv.cpp  **** 	status = getHexByte("GF", &byte);
 4781              		.loc 3 104 0
 4782 228e E8000000 		call	__cxa_end_catch@PLT
 4782      00
 4783 2293 4889D8   		movq	%rbx, %rax
 4784 2296 4889C7   		movq	%rax, %rdi
 4785              	.LEHB290:
 4786 2299 E8000000 		call	_Unwind_Resume@PLT
 4786      00
 4787              	.LEHE290:
 4788              	.L382:
 4789 229e EB00     		jmp	.L355
 4790              	.L381:
 4791              	.L355:
 106:testConv.cpp  **** 	status = getHexByte("FG", &byte);
 4792              		.loc 3 106 0 is_stmt 1
 4793 22a0 4889C7   		movq	%rax, %rdi
 4794 22a3 E8000000 		call	__cxa_begin_catch@PLT
 4794      00
 4795              	.LEHB291:
 4796 22a8 E8000000 		call	_ZN8UnitTest11CurrentTest7ResultsEv@PLT
 4796      00
 4797 22ad 488B18   		movq	(%rax), %rbx
 4798 22b0 E8000000 		call	_ZN8UnitTest11CurrentTest7DetailsEv@PLT
 4798      00
 106:testConv.cpp  **** 	status = getHexByte("FG", &byte);
 4799              		.loc 3 106 0 is_stmt 0 discriminator 8
 4800 22b5 488B08   		movq	(%rax), %rcx
 4801 22b8 488D45C0 		leaq	-64(%rbp), %rax
 4802 22bc BA6A0000 		movl	$106, %edx
 4802      00
 4803 22c1 4889CE   		movq	%rcx, %rsi
 4804 22c4 4889C7   		movq	%rax, %rdi
 4805 22c7 E8000000 		call	_ZN8UnitTest11TestDetailsC1ERKS0_i@PLT
 4805      00
 106:testConv.cpp  **** 	status = getHexByte("FG", &byte);
 4806              		.loc 3 106 0 discriminator 12
 4807 22cc 488D45C0 		leaq	-64(%rbp), %rax
 4808 22d0 488D1500 		leaq	.LC20(%rip), %rdx
 4808      000000
 4809 22d7 4889C6   		movq	%rax, %rsi
 4810 22da 4889DF   		movq	%rbx, %rdi
 4811 22dd E8000000 		call	_ZN8UnitTest11TestResults13OnTestFailureERKNS_11TestDetailsEPKc@PLT
 4811      00
 4812              	.LEHE291:
 4813              	.LEHB292:
 106:testConv.cpp  **** 	status = getHexByte("FG", &byte);
 4814              		.loc 3 106 0 discriminator 14
 4815 22e2 E8000000 		call	__cxa_end_catch@PLT
 4815      00
 4816              	.LEHE292:
 4817 22e7 E915FDFF 		jmp	.L356
 4817      FF
 4818              	.L383:
 4819 22ec 4889C3   		movq	%rax, %rbx
 106:testConv.cpp  **** 	status = getHexByte("FG", &byte);
 4820              		.loc 3 106 0
 4821 22ef E8000000 		call	__cxa_end_catch@PLT
 4821      00
 4822 22f4 4889D8   		movq	%rbx, %rax
 4823 22f7 4889C7   		movq	%rax, %rdi
 4824              	.LEHB293:
 4825 22fa E8000000 		call	_Unwind_Resume@PLT
 4825      00
 4826              	.LEHE293:
 4827              	.L385:
 4828 22ff EB00     		jmp	.L359
 4829              	.L384:
 4830              	.L359:
 108:testConv.cpp  **** }
 4831              		.loc 3 108 0 is_stmt 1
 4832 2301 4889C7   		movq	%rax, %rdi
 4833 2304 E8000000 		call	__cxa_begin_catch@PLT
 4833      00
 4834              	.LEHB294:
 4835 2309 E8000000 		call	_ZN8UnitTest11CurrentTest7ResultsEv@PLT
 4835      00
 4836 230e 488B18   		movq	(%rax), %rbx
 4837 2311 E8000000 		call	_ZN8UnitTest11CurrentTest7DetailsEv@PLT
 4837      00
 108:testConv.cpp  **** }
 4838              		.loc 3 108 0 is_stmt 0 discriminator 8
 4839 2316 488B08   		movq	(%rax), %rcx
 4840 2319 488D45C0 		leaq	-64(%rbp), %rax
 4841 231d BA6C0000 		movl	$108, %edx
 4841      00
 4842 2322 4889CE   		movq	%rcx, %rsi
 4843 2325 4889C7   		movq	%rax, %rdi
 4844 2328 E8000000 		call	_ZN8UnitTest11TestDetailsC1ERKS0_i@PLT
 4844      00
 108:testConv.cpp  **** }
 4845              		.loc 3 108 0 discriminator 12
 4846 232d 488D45C0 		leaq	-64(%rbp), %rax
 4847 2331 488D1500 		leaq	.LC20(%rip), %rdx
 4847      000000
 4848 2338 4889C6   		movq	%rax, %rsi
 4849 233b 4889DF   		movq	%rbx, %rdi
 4850 233e E8000000 		call	_ZN8UnitTest11TestResults13OnTestFailureERKNS_11TestDetailsEPKc@PLT
 4850      00
 4851              	.LEHE294:
 4852              	.LEHB295:
 108:testConv.cpp  **** }
 4853              		.loc 3 108 0 discriminator 14
 4854 2343 E8000000 		call	__cxa_end_catch@PLT
 4854      00
 4855              	.LEHE295:
 4856              		.loc 3 109 0 is_stmt 1 discriminator 14
 4857 2348 EB13     		jmp	.L329
 4858              	.L386:
 4859 234a 4889C3   		movq	%rax, %rbx
 108:testConv.cpp  **** }
 4860              		.loc 3 108 0
 4861 234d E8000000 		call	__cxa_end_catch@PLT
 4861      00
 4862 2352 4889D8   		movq	%rbx, %rax
 4863 2355 4889C7   		movq	%rax, %rdi
 4864              	.LEHB296:
 4865 2358 E8000000 		call	_Unwind_Resume@PLT
 4865      00
 4866              	.LEHE296:
 4867              	.L329:
 4868              		.loc 3 109 0
 4869 235d 488B45E8 		movq	-24(%rbp), %rax
 4870 2361 64483304 		xorq	%fs:40, %rax
 4870      25280000 
 4870      00
 4871 236a 7405     		je	.L362
 4872 236c E8000000 		call	__stack_chk_fail@PLT
 4872      00
 4873              	.L362:
 4874 2371 4883C458 		addq	$88, %rsp
 4875 2375 5B       		popq	%rbx
 4876 2376 5D       		popq	%rbp
 4877              		.cfi_def_cfa 7, 8
 4878 2377 C3       		ret
 4879              		.cfi_endproc
 4880              	.LFE1099:
 4881              		.section	.gcc_except_table
 4882              		.align 4
 4883              	.LLSDA1099:
 4884 056c FF       		.byte	0xff
 4885 056d 9B       		.byte	0x9b
 4886 056e 8002     		.uleb128 .LLSDATT1099-.LLSDATTD1099
 4887              	.LLSDATTD1099:
 4888 0570 01       		.byte	0x1
 4889 0571 F501     		.uleb128 .LLSDACSE1099-.LLSDACSB1099
 4890              	.LLSDACSB1099:
 4891 0573 2A       		.uleb128 .LEHB252-.LFB1099
 4892 0574 05       		.uleb128 .LEHE252-.LEHB252
 4893 0575 00       		.uleb128 0
 4894 0576 00       		.uleb128 0
 4895 0577 32       		.uleb128 .LEHB253-.LFB1099
 4896 0578 1C       		.uleb128 .LEHE253-.LEHB253
 4897 0579 FA04     		.uleb128 .L363-.LFB1099
 4898 057b 01       		.uleb128 0x1
 4899 057c 52       		.uleb128 .LEHB254-.LFB1099
 4900 057d 1C       		.uleb128 .LEHE254-.LEHB254
 4901 057e F804     		.uleb128 .L364-.LFB1099
 4902 0580 03       		.uleb128 0x3
 4903 0581 6E       		.uleb128 .LEHB255-.LFB1099
 4904 0582 1C       		.uleb128 .LEHE255-.LEHB255
 4905 0583 DB05     		.uleb128 .L366-.LFB1099
 4906 0585 01       		.uleb128 0x1
 4907 0586 9101     		.uleb128 .LEHB256-.LFB1099
 4908 0588 1C       		.uleb128 .LEHE256-.LEHB256
 4909 0589 D905     		.uleb128 .L367-.LFB1099
 4910 058b 03       		.uleb128 0x3
 4911 058c BB01     		.uleb128 .LEHB257-.LFB1099
 4912 058e 05       		.uleb128 .LEHE257-.LEHB257
 4913 058f 00       		.uleb128 0
 4914 0590 00       		.uleb128 0
 4915 0591 C301     		.uleb128 .LEHB258-.LFB1099
 4916 0593 1C       		.uleb128 .LEHE258-.LEHB258
 4917 0594 BC06     		.uleb128 .L369-.LFB1099
 4918 0596 01       		.uleb128 0x1
 4919 0597 E301     		.uleb128 .LEHB259-.LFB1099
 4920 0599 1C       		.uleb128 .LEHE259-.LEHB259
 4921 059a BA06     		.uleb128 .L370-.LFB1099
 4922 059c 03       		.uleb128 0x3
 4923 059d FF01     		.uleb128 .LEHB260-.LFB1099
 4924 059f 1C       		.uleb128 .LEHE260-.LEHB260
 4925 05a0 9D07     		.uleb128 .L372-.LFB1099
 4926 05a2 01       		.uleb128 0x1
 4927 05a3 A202     		.uleb128 .LEHB261-.LFB1099
 4928 05a5 1C       		.uleb128 .LEHE261-.LEHB261
 4929 05a6 9B07     		.uleb128 .L373-.LFB1099
 4930 05a8 03       		.uleb128 0x3
 4931 05a9 CC02     		.uleb128 .LEHB262-.LFB1099
 4932 05ab 05       		.uleb128 .LEHE262-.LEHB262
 4933 05ac 00       		.uleb128 0
 4934 05ad 00       		.uleb128 0
 4935 05ae D402     		.uleb128 .LEHB263-.LFB1099
 4936 05b0 1C       		.uleb128 .LEHE263-.LEHB263
 4937 05b1 FE07     		.uleb128 .L375-.LFB1099
 4938 05b3 01       		.uleb128 0x1
 4939 05b4 F402     		.uleb128 .LEHB264-.LFB1099
 4940 05b6 1C       		.uleb128 .LEHE264-.LEHB264
 4941 05b7 FC07     		.uleb128 .L376-.LFB1099
 4942 05b9 03       		.uleb128 0x3
 4943 05ba 9003     		.uleb128 .LEHB265-.LFB1099
 4944 05bc 1C       		.uleb128 .LEHE265-.LEHB265
 4945 05bd DF08     		.uleb128 .L378-.LFB1099
 4946 05bf 01       		.uleb128 0x1
 4947 05c0 B303     		.uleb128 .LEHB266-.LFB1099
 4948 05c2 1C       		.uleb128 .LEHE266-.LEHB266
 4949 05c3 DD08     		.uleb128 .L379-.LFB1099
 4950 05c5 03       		.uleb128 0x3
 4951 05c6 DD03     		.uleb128 .LEHB267-.LFB1099
 4952 05c8 05       		.uleb128 .LEHE267-.LEHB267
 4953 05c9 00       		.uleb128 0
 4954 05ca 00       		.uleb128 0
 4955 05cb E503     		.uleb128 .LEHB268-.LFB1099
 4956 05cd 1C       		.uleb128 .LEHE268-.LEHB268
 4957 05ce C009     		.uleb128 .L381-.LFB1099
 4958 05d0 01       		.uleb128 0x1
 4959 05d1 8504     		.uleb128 .LEHB269-.LFB1099
 4960 05d3 1C       		.uleb128 .LEHE269-.LEHB269
 4961 05d4 BE09     		.uleb128 .L382-.LFB1099
 4962 05d6 03       		.uleb128 0x3
 4963 05d7 AF04     		.uleb128 .LEHB270-.LFB1099
 4964 05d9 05       		.uleb128 .LEHE270-.LEHB270
 4965 05da 00       		.uleb128 0
 4966 05db 00       		.uleb128 0
 4967 05dc B704     		.uleb128 .LEHB271-.LFB1099
 4968 05de 1C       		.uleb128 .LEHE271-.LEHB271
 4969 05df A10A     		.uleb128 .L384-.LFB1099
 4970 05e1 01       		.uleb128 0x1
 4971 05e2 D704     		.uleb128 .LEHB272-.LFB1099
 4972 05e4 1C       		.uleb128 .LEHE272-.LEHB272
 4973 05e5 9F0A     		.uleb128 .L385-.LFB1099
 4974 05e7 03       		.uleb128 0x3
 4975 05e8 8205     		.uleb128 .LEHB273-.LFB1099
 4976 05ea 3A       		.uleb128 .LEHE273-.LEHB273
 4977 05eb C605     		.uleb128 .L365-.LFB1099
 4978 05ed 00       		.uleb128 0
 4979 05ee BC05     		.uleb128 .LEHB274-.LFB1099
 4980 05f0 05       		.uleb128 .LEHE274-.LEHB274
 4981 05f1 00       		.uleb128 0
 4982 05f2 00       		.uleb128 0
 4983 05f3 D405     		.uleb128 .LEHB275-.LFB1099
 4984 05f5 05       		.uleb128 .LEHE275-.LEHB275
 4985 05f6 00       		.uleb128 0
 4986 05f7 00       		.uleb128 0
 4987 05f8 E305     		.uleb128 .LEHB276-.LFB1099
 4988 05fa 3A       		.uleb128 .LEHE276-.LEHB276
 4989 05fb A706     		.uleb128 .L368-.LFB1099
 4990 05fd 00       		.uleb128 0
 4991 05fe 9D06     		.uleb128 .LEHB277-.LFB1099
 4992 0600 05       		.uleb128 .LEHE277-.LEHB277
 4993 0601 00       		.uleb128 0
 4994 0602 00       		.uleb128 0
 4995 0603 B506     		.uleb128 .LEHB278-.LFB1099
 4996 0605 05       		.uleb128 .LEHE278-.LEHB278
 4997 0606 00       		.uleb128 0
 4998 0607 00       		.uleb128 0
 4999 0608 C406     		.uleb128 .LEHB279-.LFB1099
 5000 060a 3A       		.uleb128 .LEHE279-.LEHB279
 5001 060b 8807     		.uleb128 .L371-.LFB1099
 5002 060d 00       		.uleb128 0
 5003 060e FE06     		.uleb128 .LEHB280-.LFB1099
 5004 0610 05       		.uleb128 .LEHE280-.LEHB280
 5005 0611 00       		.uleb128 0
 5006 0612 00       		.uleb128 0
 5007 0613 9607     		.uleb128 .LEHB281-.LFB1099
 5008 0615 05       		.uleb128 .LEHE281-.LEHB281
 5009 0616 00       		.uleb128 0
 5010 0617 00       		.uleb128 0
 5011 0618 A507     		.uleb128 .LEHB282-.LFB1099
 5012 061a 3A       		.uleb128 .LEHE282-.LEHB282
 5013 061b E907     		.uleb128 .L374-.LFB1099
 5014 061d 00       		.uleb128 0
 5015 061e DF07     		.uleb128 .LEHB283-.LFB1099
 5016 0620 05       		.uleb128 .LEHE283-.LEHB283
 5017 0621 00       		.uleb128 0
 5018 0622 00       		.uleb128 0
 5019 0623 F707     		.uleb128 .LEHB284-.LFB1099
 5020 0625 05       		.uleb128 .LEHE284-.LEHB284
 5021 0626 00       		.uleb128 0
 5022 0627 00       		.uleb128 0
 5023 0628 8608     		.uleb128 .LEHB285-.LFB1099
 5024 062a 3A       		.uleb128 .LEHE285-.LEHB285
 5025 062b CA08     		.uleb128 .L377-.LFB1099
 5026 062d 00       		.uleb128 0
 5027 062e C008     		.uleb128 .LEHB286-.LFB1099
 5028 0630 05       		.uleb128 .LEHE286-.LEHB286
 5029 0631 00       		.uleb128 0
 5030 0632 00       		.uleb128 0
 5031 0633 D808     		.uleb128 .LEHB287-.LFB1099
 5032 0635 05       		.uleb128 .LEHE287-.LEHB287
 5033 0636 00       		.uleb128 0
 5034 0637 00       		.uleb128 0
 5035 0638 E708     		.uleb128 .LEHB288-.LFB1099
 5036 063a 3A       		.uleb128 .LEHE288-.LEHB288
 5037 063b AB09     		.uleb128 .L380-.LFB1099
 5038 063d 00       		.uleb128 0
 5039 063e A109     		.uleb128 .LEHB289-.LFB1099
 5040 0640 05       		.uleb128 .LEHE289-.LEHB289
 5041 0641 00       		.uleb128 0
 5042 0642 00       		.uleb128 0
 5043 0643 B909     		.uleb128 .LEHB290-.LFB1099
 5044 0645 05       		.uleb128 .LEHE290-.LEHB290
 5045 0646 00       		.uleb128 0
 5046 0647 00       		.uleb128 0
 5047 0648 C809     		.uleb128 .LEHB291-.LFB1099
 5048 064a 3A       		.uleb128 .LEHE291-.LEHB291
 5049 064b 8C0A     		.uleb128 .L383-.LFB1099
 5050 064d 00       		.uleb128 0
 5051 064e 820A     		.uleb128 .LEHB292-.LFB1099
 5052 0650 05       		.uleb128 .LEHE292-.LEHB292
 5053 0651 00       		.uleb128 0
 5054 0652 00       		.uleb128 0
 5055 0653 9A0A     		.uleb128 .LEHB293-.LFB1099
 5056 0655 05       		.uleb128 .LEHE293-.LEHB293
 5057 0656 00       		.uleb128 0
 5058 0657 00       		.uleb128 0
 5059 0658 A90A     		.uleb128 .LEHB294-.LFB1099
 5060 065a 3A       		.uleb128 .LEHE294-.LEHB294
 5061 065b EA0A     		.uleb128 .L386-.LFB1099
 5062 065d 00       		.uleb128 0
 5063 065e E30A     		.uleb128 .LEHB295-.LFB1099
 5064 0660 05       		.uleb128 .LEHE295-.LEHB295
 5065 0661 00       		.uleb128 0
 5066 0662 00       		.uleb128 0
 5067 0663 F80A     		.uleb128 .LEHB296-.LFB1099
 5068 0665 05       		.uleb128 .LEHE296-.LEHB296
 5069 0666 00       		.uleb128 0
 5070 0667 00       		.uleb128 0
 5071              	.LLSDACSE1099:
 5072 0668 01       		.byte	0x1
 5073 0669 00       		.byte	0
 5074 066a 00       		.byte	0
 5075 066b 7D       		.byte	0x7d
 5076              		.align 4
 5077 066c 00000000 		.long	0
 5078              	
 5079              	.LLSDATT1099:
 5080              		.text
 5082              		.section	.rodata
 5083              	.LC30:
 5084 044f 436F6E76 		.string	"Conv_testGetHexUpperNibble"
 5084      5F746573 
 5084      74476574 
 5084      48657855 
 5084      70706572 
 5085              		.section	.text._ZN30TestConv_testGetHexUpperNibbleC2Ev,"axG",@progbits,_ZN30TestConv_testGetHexUpp
 5086              		.align 2
 5087              		.weak	_ZN30TestConv_testGetHexUpperNibbleC2Ev
 5089              	_ZN30TestConv_testGetHexUpperNibbleC2Ev:
 5090              	.LFB1101:
 110:testConv.cpp  **** 
 111:testConv.cpp  **** TEST(Conv_testGetHexUpperNibble) {
 5091              		.loc 3 111 0
 5092              		.cfi_startproc
 5093 0000 55       		pushq	%rbp
 5094              		.cfi_def_cfa_offset 16
 5095              		.cfi_offset 6, -16
 5096 0001 4889E5   		movq	%rsp, %rbp
 5097              		.cfi_def_cfa_register 6
 5098 0004 53       		pushq	%rbx
 5099 0005 4883EC18 		subq	$24, %rsp
 5100              		.cfi_offset 3, -24
 5101 0009 48897DE8 		movq	%rdi, -24(%rbp)
 5102              	.LBB6:
 5103              		.loc 3 111 0
 5104 000d 488B5DE8 		movq	-24(%rbp), %rbx
 5105 0011 E8000000 		call	_ZN13UnitTestSuite12GetSuiteNameEv
 5105      00
 5106 0016 41B86F00 		movl	$111, %r8d
 5106      0000
 5107 001c 488D0D00 		leaq	.LC1(%rip), %rcx
 5107      000000
 5108 0023 4889C2   		movq	%rax, %rdx
 5109 0026 488D3500 		leaq	.LC30(%rip), %rsi
 5109      000000
 5110 002d 4889DF   		movq	%rbx, %rdi
 5111 0030 E8000000 		call	_ZN8UnitTest4TestC2EPKcS2_S2_i@PLT
 5111      00
 5112 0035 488D1500 		leaq	16+_ZTV30TestConv_testGetHexUpperNibble(%rip), %rdx
 5112      000000
 5113 003c 488B45E8 		movq	-24(%rbp), %rax
 5114 0040 488910   		movq	%rdx, (%rax)
 5115              	.LBE6:
 5116 0043 90       		nop
 5117 0044 4883C418 		addq	$24, %rsp
 5118 0048 5B       		popq	%rbx
 5119 0049 5D       		popq	%rbp
 5120              		.cfi_def_cfa 7, 8
 5121 004a C3       		ret
 5122              		.cfi_endproc
 5123              	.LFE1101:
 5125              		.weak	_ZN30TestConv_testGetHexUpperNibbleC1Ev
 5126              		.set	_ZN30TestConv_testGetHexUpperNibbleC1Ev,_ZN30TestConv_testGetHexUpperNibbleC2Ev
 5127              		.globl	testConv_testGetHexUpperNibbleInstance
 5128              		.bss
 5129 0079 00000000 		.align 32
 5129      000000
 5132              	testConv_testGetHexUpperNibbleInstance:
 5133 0080 00000000 		.zero	56
 5133      00000000 
 5133      00000000 
 5133      00000000 
 5133      00000000 
 5134              		.globl	adderConv_testGetHexUpperNibble
 5137              	adderConv_testGetHexUpperNibble:
 5138 00b8 00       		.zero	1
 5139              		.section	.rodata
 5140 046a 00000000 		.align 8
 5140      0000
 5141              	.LC31:
 5142 0470 556E6861 		.string	"Unhandled exception in CHECK_EQUAL('0', getHexUpperNibble(0x0F))"
 5142      6E646C65 
 5142      64206578 
 5142      63657074 
 5142      696F6E20 
 5143 04b1 00000000 		.align 8
 5143      000000
 5144              	.LC32:
 5145 04b8 556E6861 		.string	"Unhandled exception in CHECK_EQUAL('1', getHexUpperNibble(0x1F))"
 5145      6E646C65 
 5145      64206578 
 5145      63657074 
 5145      696F6E20 
 5146 04f9 00000000 		.align 8
 5146      000000
 5147              	.LC33:
 5148 0500 556E6861 		.string	"Unhandled exception in CHECK_EQUAL('2', getHexUpperNibble(0x2F))"
 5148      6E646C65 
 5148      64206578 
 5148      63657074 
 5148      696F6E20 
 5149 0541 00000000 		.align 8
 5149      000000
 5150              	.LC34:
 5151 0548 556E6861 		.string	"Unhandled exception in CHECK_EQUAL('3', getHexUpperNibble(0x3F))"
 5151      6E646C65 
 5151      64206578 
 5151      63657074 
 5151      696F6E20 
 5152 0589 00000000 		.align 8
 5152      000000
 5153              	.LC35:
 5154 0590 556E6861 		.string	"Unhandled exception in CHECK_EQUAL('4', getHexUpperNibble(0x4F))"
 5154      6E646C65 
 5154      64206578 
 5154      63657074 
 5154      696F6E20 
 5155 05d1 00000000 		.align 8
 5155      000000
 5156              	.LC36:
 5157 05d8 556E6861 		.string	"Unhandled exception in CHECK_EQUAL('5', getHexUpperNibble(0x5F))"
 5157      6E646C65 
 5157      64206578 
 5157      63657074 
 5157      696F6E20 
 5158 0619 00000000 		.align 8
 5158      000000
 5159              	.LC37:
 5160 0620 556E6861 		.string	"Unhandled exception in CHECK_EQUAL('6', getHexUpperNibble(0x6F))"
 5160      6E646C65 
 5160      64206578 
 5160      63657074 
 5160      696F6E20 
 5161 0661 00000000 		.align 8
 5161      000000
 5162              	.LC38:
 5163 0668 556E6861 		.string	"Unhandled exception in CHECK_EQUAL('7', getHexUpperNibble(0x7F))"
 5163      6E646C65 
 5163      64206578 
 5163      63657074 
 5163      696F6E20 
 5164 06a9 00000000 		.align 8
 5164      000000
 5165              	.LC39:
 5166 06b0 556E6861 		.string	"Unhandled exception in CHECK_EQUAL('8', getHexUpperNibble(0x8F))"
 5166      6E646C65 
 5166      64206578 
 5166      63657074 
 5166      696F6E20 
 5167 06f1 00000000 		.align 8
 5167      000000
 5168              	.LC40:
 5169 06f8 556E6861 		.string	"Unhandled exception in CHECK_EQUAL('9', getHexUpperNibble(0x9F))"
 5169      6E646C65 
 5169      64206578 
 5169      63657074 
 5169      696F6E20 
 5170 0739 00000000 		.align 8
 5170      000000
 5171              	.LC41:
 5172 0740 556E6861 		.string	"Unhandled exception in CHECK_EQUAL('A', getHexUpperNibble(0xAF))"
 5172      6E646C65 
 5172      64206578 
 5172      63657074 
 5172      696F6E20 
 5173 0781 00000000 		.align 8
 5173      000000
 5174              	.LC42:
 5175 0788 556E6861 		.string	"Unhandled exception in CHECK_EQUAL('B', getHexUpperNibble(0xBF))"
 5175      6E646C65 
 5175      64206578 
 5175      63657074 
 5175      696F6E20 
 5176 07c9 00000000 		.align 8
 5176      000000
 5177              	.LC43:
 5178 07d0 556E6861 		.string	"Unhandled exception in CHECK_EQUAL('C', getHexUpperNibble(0xCF))"
 5178      6E646C65 
 5178      64206578 
 5178      63657074 
 5178      696F6E20 
 5179 0811 00000000 		.align 8
 5179      000000
 5180              	.LC44:
 5181 0818 556E6861 		.string	"Unhandled exception in CHECK_EQUAL('D', getHexUpperNibble(0xDF))"
 5181      6E646C65 
 5181      64206578 
 5181      63657074 
 5181      696F6E20 
 5182 0859 00000000 		.align 8
 5182      000000
 5183              	.LC45:
 5184 0860 556E6861 		.string	"Unhandled exception in CHECK_EQUAL('E', getHexUpperNibble(0xEF))"
 5184      6E646C65 
 5184      64206578 
 5184      63657074 
 5184      696F6E20 
 5185 08a1 00000000 		.align 8
 5185      000000
 5186              	.LC46:
 5187 08a8 556E6861 		.string	"Unhandled exception in CHECK_EQUAL('F', getHexUpperNibble(0xFF))"
 5187      6E646C65 
 5187      64206578 
 5187      63657074 
 5187      696F6E20 
 5188              		.text
 5189              		.align 2
 5190              		.globl	_ZNK30TestConv_testGetHexUpperNibble7RunImplEv
 5192              	_ZNK30TestConv_testGetHexUpperNibble7RunImplEv:
 5193              	.LFB1103:
 5194              		.loc 3 111 0
 5195              		.cfi_startproc
 5196              		.cfi_personality 0x9b,DW.ref.__gxx_personality_v0
 5197              		.cfi_lsda 0x1b,.LLSDA1103
 5198 2378 55       		pushq	%rbp
 5199              		.cfi_def_cfa_offset 16
 5200              		.cfi_offset 6, -16
 5201 2379 4889E5   		movq	%rsp, %rbp
 5202              		.cfi_def_cfa_register 6
 5203 237c 53       		pushq	%rbx
 5204 237d 4883EC58 		subq	$88, %rsp
 5205              		.cfi_offset 3, -24
 5206 2381 48897DA8 		movq	%rdi, -88(%rbp)
 5207              		.loc 3 111 0
 5208 2385 64488B04 		movq	%fs:40, %rax
 5208      25280000 
 5208      00
 5209 238e 488945E8 		movq	%rax, -24(%rbp)
 5210 2392 31C0     		xorl	%eax, %eax
 5211              	.LEHB297:
 112:testConv.cpp  **** 	CHECK_EQUAL('0', getHexUpperNibble(0x0F));
 5212              		.loc 3 112 0
 5213 2394 E8000000 		call	_ZN8UnitTest11CurrentTest7DetailsEv@PLT
 5213      00
 5214 2399 488B08   		movq	(%rax), %rcx
 5215 239c 488D45C0 		leaq	-64(%rbp), %rax
 5216 23a0 BA700000 		movl	$112, %edx
 5216      00
 5217 23a5 4889CE   		movq	%rcx, %rsi
 5218 23a8 4889C7   		movq	%rax, %rdi
 5219 23ab E8000000 		call	_ZN8UnitTest11TestDetailsC1ERKS0_i@PLT
 5219      00
 5220              		.loc 3 112 0 is_stmt 0 discriminator 2
 5221 23b0 BF0F0000 		movl	$15, %edi
 5221      00
 5222 23b5 E8000000 		call	getHexUpperNibble@PLT
 5222      00
 5223              	.LEHE297:
 5224 23ba 8845BF   		movb	%al, -65(%rbp)
 5225 23bd C645BE30 		movb	$48, -66(%rbp)
 5226              	.LEHB298:
 5227 23c1 E8000000 		call	_ZN8UnitTest11CurrentTest7ResultsEv@PLT
 5227      00
 5228              		.loc 3 112 0 discriminator 4
 5229 23c6 488B00   		movq	(%rax), %rax
 5230 23c9 488D4DC0 		leaq	-64(%rbp), %rcx
 5231 23cd 488D55BF 		leaq	-65(%rbp), %rdx
 5232 23d1 488D75BE 		leaq	-66(%rbp), %rsi
 5233 23d5 4889C7   		movq	%rax, %rdi
 5234 23d8 E8000000 		call	_ZN8UnitTest10CheckEqualIccEEvRNS_11TestResultsERKT_RKT0_RKNS_11TestDetailsE
 5234      00
 5235              	.LEHE298:
 5236              	.L391:
 5237              	.LEHB299:
 113:testConv.cpp  **** 	CHECK_EQUAL('1', getHexUpperNibble(0x1F));
 5238              		.loc 3 113 0 is_stmt 1
 5239 23dd E8000000 		call	_ZN8UnitTest11CurrentTest7DetailsEv@PLT
 5239      00
 5240 23e2 488B08   		movq	(%rax), %rcx
 5241 23e5 488D45C0 		leaq	-64(%rbp), %rax
 5242 23e9 BA710000 		movl	$113, %edx
 5242      00
 5243 23ee 4889CE   		movq	%rcx, %rsi
 5244 23f1 4889C7   		movq	%rax, %rdi
 5245 23f4 E8000000 		call	_ZN8UnitTest11TestDetailsC1ERKS0_i@PLT
 5245      00
 5246              		.loc 3 113 0 is_stmt 0 discriminator 2
 5247 23f9 BF1F0000 		movl	$31, %edi
 5247      00
 5248 23fe E8000000 		call	getHexUpperNibble@PLT
 5248      00
 5249              	.LEHE299:
 5250 2403 8845BF   		movb	%al, -65(%rbp)
 5251 2406 C645BE31 		movb	$49, -66(%rbp)
 5252              	.LEHB300:
 5253 240a E8000000 		call	_ZN8UnitTest11CurrentTest7ResultsEv@PLT
 5253      00
 5254              		.loc 3 113 0 discriminator 4
 5255 240f 488B00   		movq	(%rax), %rax
 5256 2412 488D4DC0 		leaq	-64(%rbp), %rcx
 5257 2416 488D55BF 		leaq	-65(%rbp), %rdx
 5258 241a 488D75BE 		leaq	-66(%rbp), %rsi
 5259 241e 4889C7   		movq	%rax, %rdi
 5260 2421 E8000000 		call	_ZN8UnitTest10CheckEqualIccEEvRNS_11TestResultsERKT_RKT0_RKNS_11TestDetailsE
 5260      00
 5261              	.LEHE300:
 5262              	.L395:
 5263              	.LEHB301:
 114:testConv.cpp  **** 	CHECK_EQUAL('2', getHexUpperNibble(0x2F));
 5264              		.loc 3 114 0 is_stmt 1
 5265 2426 E8000000 		call	_ZN8UnitTest11CurrentTest7DetailsEv@PLT
 5265      00
 5266 242b 488B08   		movq	(%rax), %rcx
 5267 242e 488D45C0 		leaq	-64(%rbp), %rax
 5268 2432 BA720000 		movl	$114, %edx
 5268      00
 5269 2437 4889CE   		movq	%rcx, %rsi
 5270 243a 4889C7   		movq	%rax, %rdi
 5271 243d E8000000 		call	_ZN8UnitTest11TestDetailsC1ERKS0_i@PLT
 5271      00
 5272              		.loc 3 114 0 is_stmt 0 discriminator 2
 5273 2442 BF2F0000 		movl	$47, %edi
 5273      00
 5274 2447 E8000000 		call	getHexUpperNibble@PLT
 5274      00
 5275              	.LEHE301:
 5276 244c 8845BF   		movb	%al, -65(%rbp)
 5277 244f C645BE32 		movb	$50, -66(%rbp)
 5278              	.LEHB302:
 5279 2453 E8000000 		call	_ZN8UnitTest11CurrentTest7ResultsEv@PLT
 5279      00
 5280              		.loc 3 114 0 discriminator 4
 5281 2458 488B00   		movq	(%rax), %rax
 5282 245b 488D4DC0 		leaq	-64(%rbp), %rcx
 5283 245f 488D55BF 		leaq	-65(%rbp), %rdx
 5284 2463 488D75BE 		leaq	-66(%rbp), %rsi
 5285 2467 4889C7   		movq	%rax, %rdi
 5286 246a E8000000 		call	_ZN8UnitTest10CheckEqualIccEEvRNS_11TestResultsERKT_RKT0_RKNS_11TestDetailsE
 5286      00
 5287              	.LEHE302:
 5288              	.L399:
 5289              	.LEHB303:
 115:testConv.cpp  **** 	CHECK_EQUAL('3', getHexUpperNibble(0x3F));
 5290              		.loc 3 115 0 is_stmt 1
 5291 246f E8000000 		call	_ZN8UnitTest11CurrentTest7DetailsEv@PLT
 5291      00
 5292 2474 488B08   		movq	(%rax), %rcx
 5293 2477 488D45C0 		leaq	-64(%rbp), %rax
 5294 247b BA730000 		movl	$115, %edx
 5294      00
 5295 2480 4889CE   		movq	%rcx, %rsi
 5296 2483 4889C7   		movq	%rax, %rdi
 5297 2486 E8000000 		call	_ZN8UnitTest11TestDetailsC1ERKS0_i@PLT
 5297      00
 5298              		.loc 3 115 0 is_stmt 0 discriminator 2
 5299 248b BF3F0000 		movl	$63, %edi
 5299      00
 5300 2490 E8000000 		call	getHexUpperNibble@PLT
 5300      00
 5301              	.LEHE303:
 5302 2495 8845BF   		movb	%al, -65(%rbp)
 5303 2498 C645BE33 		movb	$51, -66(%rbp)
 5304              	.LEHB304:
 5305 249c E8000000 		call	_ZN8UnitTest11CurrentTest7ResultsEv@PLT
 5305      00
 5306              		.loc 3 115 0 discriminator 4
 5307 24a1 488B00   		movq	(%rax), %rax
 5308 24a4 488D4DC0 		leaq	-64(%rbp), %rcx
 5309 24a8 488D55BF 		leaq	-65(%rbp), %rdx
 5310 24ac 488D75BE 		leaq	-66(%rbp), %rsi
 5311 24b0 4889C7   		movq	%rax, %rdi
 5312 24b3 E8000000 		call	_ZN8UnitTest10CheckEqualIccEEvRNS_11TestResultsERKT_RKT0_RKNS_11TestDetailsE
 5312      00
 5313              	.LEHE304:
 5314              	.L403:
 5315              	.LEHB305:
 116:testConv.cpp  **** 	CHECK_EQUAL('4', getHexUpperNibble(0x4F));
 5316              		.loc 3 116 0 is_stmt 1
 5317 24b8 E8000000 		call	_ZN8UnitTest11CurrentTest7DetailsEv@PLT
 5317      00
 5318 24bd 488B08   		movq	(%rax), %rcx
 5319 24c0 488D45C0 		leaq	-64(%rbp), %rax
 5320 24c4 BA740000 		movl	$116, %edx
 5320      00
 5321 24c9 4889CE   		movq	%rcx, %rsi
 5322 24cc 4889C7   		movq	%rax, %rdi
 5323 24cf E8000000 		call	_ZN8UnitTest11TestDetailsC1ERKS0_i@PLT
 5323      00
 5324              		.loc 3 116 0 is_stmt 0 discriminator 2
 5325 24d4 BF4F0000 		movl	$79, %edi
 5325      00
 5326 24d9 E8000000 		call	getHexUpperNibble@PLT
 5326      00
 5327              	.LEHE305:
 5328 24de 8845BF   		movb	%al, -65(%rbp)
 5329 24e1 C645BE34 		movb	$52, -66(%rbp)
 5330              	.LEHB306:
 5331 24e5 E8000000 		call	_ZN8UnitTest11CurrentTest7ResultsEv@PLT
 5331      00
 5332              		.loc 3 116 0 discriminator 4
 5333 24ea 488B00   		movq	(%rax), %rax
 5334 24ed 488D4DC0 		leaq	-64(%rbp), %rcx
 5335 24f1 488D55BF 		leaq	-65(%rbp), %rdx
 5336 24f5 488D75BE 		leaq	-66(%rbp), %rsi
 5337 24f9 4889C7   		movq	%rax, %rdi
 5338 24fc E8000000 		call	_ZN8UnitTest10CheckEqualIccEEvRNS_11TestResultsERKT_RKT0_RKNS_11TestDetailsE
 5338      00
 5339              	.LEHE306:
 5340              	.L407:
 5341              	.LEHB307:
 117:testConv.cpp  **** 	CHECK_EQUAL('5', getHexUpperNibble(0x5F));
 5342              		.loc 3 117 0 is_stmt 1
 5343 2501 E8000000 		call	_ZN8UnitTest11CurrentTest7DetailsEv@PLT
 5343      00
 5344 2506 488B08   		movq	(%rax), %rcx
 5345 2509 488D45C0 		leaq	-64(%rbp), %rax
 5346 250d BA750000 		movl	$117, %edx
 5346      00
 5347 2512 4889CE   		movq	%rcx, %rsi
 5348 2515 4889C7   		movq	%rax, %rdi
 5349 2518 E8000000 		call	_ZN8UnitTest11TestDetailsC1ERKS0_i@PLT
 5349      00
 5350              		.loc 3 117 0 is_stmt 0 discriminator 2
 5351 251d BF5F0000 		movl	$95, %edi
 5351      00
 5352 2522 E8000000 		call	getHexUpperNibble@PLT
 5352      00
 5353              	.LEHE307:
 5354 2527 8845BF   		movb	%al, -65(%rbp)
 5355 252a C645BE35 		movb	$53, -66(%rbp)
 5356              	.LEHB308:
 5357 252e E8000000 		call	_ZN8UnitTest11CurrentTest7ResultsEv@PLT
 5357      00
 5358              		.loc 3 117 0 discriminator 4
 5359 2533 488B00   		movq	(%rax), %rax
 5360 2536 488D4DC0 		leaq	-64(%rbp), %rcx
 5361 253a 488D55BF 		leaq	-65(%rbp), %rdx
 5362 253e 488D75BE 		leaq	-66(%rbp), %rsi
 5363 2542 4889C7   		movq	%rax, %rdi
 5364 2545 E8000000 		call	_ZN8UnitTest10CheckEqualIccEEvRNS_11TestResultsERKT_RKT0_RKNS_11TestDetailsE
 5364      00
 5365              	.LEHE308:
 5366              	.L411:
 5367              	.LEHB309:
 118:testConv.cpp  **** 	CHECK_EQUAL('6', getHexUpperNibble(0x6F));
 5368              		.loc 3 118 0 is_stmt 1
 5369 254a E8000000 		call	_ZN8UnitTest11CurrentTest7DetailsEv@PLT
 5369      00
 5370 254f 488B08   		movq	(%rax), %rcx
 5371 2552 488D45C0 		leaq	-64(%rbp), %rax
 5372 2556 BA760000 		movl	$118, %edx
 5372      00
 5373 255b 4889CE   		movq	%rcx, %rsi
 5374 255e 4889C7   		movq	%rax, %rdi
 5375 2561 E8000000 		call	_ZN8UnitTest11TestDetailsC1ERKS0_i@PLT
 5375      00
 5376              		.loc 3 118 0 is_stmt 0 discriminator 2
 5377 2566 BF6F0000 		movl	$111, %edi
 5377      00
 5378 256b E8000000 		call	getHexUpperNibble@PLT
 5378      00
 5379              	.LEHE309:
 5380 2570 8845BF   		movb	%al, -65(%rbp)
 5381 2573 C645BE36 		movb	$54, -66(%rbp)
 5382              	.LEHB310:
 5383 2577 E8000000 		call	_ZN8UnitTest11CurrentTest7ResultsEv@PLT
 5383      00
 5384              		.loc 3 118 0 discriminator 4
 5385 257c 488B00   		movq	(%rax), %rax
 5386 257f 488D4DC0 		leaq	-64(%rbp), %rcx
 5387 2583 488D55BF 		leaq	-65(%rbp), %rdx
 5388 2587 488D75BE 		leaq	-66(%rbp), %rsi
 5389 258b 4889C7   		movq	%rax, %rdi
 5390 258e E8000000 		call	_ZN8UnitTest10CheckEqualIccEEvRNS_11TestResultsERKT_RKT0_RKNS_11TestDetailsE
 5390      00
 5391              	.LEHE310:
 5392              	.L415:
 5393              	.LEHB311:
 119:testConv.cpp  **** 	CHECK_EQUAL('7', getHexUpperNibble(0x7F));
 5394              		.loc 3 119 0 is_stmt 1
 5395 2593 E8000000 		call	_ZN8UnitTest11CurrentTest7DetailsEv@PLT
 5395      00
 5396 2598 488B08   		movq	(%rax), %rcx
 5397 259b 488D45C0 		leaq	-64(%rbp), %rax
 5398 259f BA770000 		movl	$119, %edx
 5398      00
 5399 25a4 4889CE   		movq	%rcx, %rsi
 5400 25a7 4889C7   		movq	%rax, %rdi
 5401 25aa E8000000 		call	_ZN8UnitTest11TestDetailsC1ERKS0_i@PLT
 5401      00
 5402              		.loc 3 119 0 is_stmt 0 discriminator 2
 5403 25af BF7F0000 		movl	$127, %edi
 5403      00
 5404 25b4 E8000000 		call	getHexUpperNibble@PLT
 5404      00
 5405              	.LEHE311:
 5406 25b9 8845BF   		movb	%al, -65(%rbp)
 5407 25bc C645BE37 		movb	$55, -66(%rbp)
 5408              	.LEHB312:
 5409 25c0 E8000000 		call	_ZN8UnitTest11CurrentTest7ResultsEv@PLT
 5409      00
 5410              		.loc 3 119 0 discriminator 4
 5411 25c5 488B00   		movq	(%rax), %rax
 5412 25c8 488D4DC0 		leaq	-64(%rbp), %rcx
 5413 25cc 488D55BF 		leaq	-65(%rbp), %rdx
 5414 25d0 488D75BE 		leaq	-66(%rbp), %rsi
 5415 25d4 4889C7   		movq	%rax, %rdi
 5416 25d7 E8000000 		call	_ZN8UnitTest10CheckEqualIccEEvRNS_11TestResultsERKT_RKT0_RKNS_11TestDetailsE
 5416      00
 5417              	.LEHE312:
 5418              	.L419:
 5419              	.LEHB313:
 120:testConv.cpp  **** 	CHECK_EQUAL('8', getHexUpperNibble(0x8F));
 5420              		.loc 3 120 0 is_stmt 1
 5421 25dc E8000000 		call	_ZN8UnitTest11CurrentTest7DetailsEv@PLT
 5421      00
 5422 25e1 488B08   		movq	(%rax), %rcx
 5423 25e4 488D45C0 		leaq	-64(%rbp), %rax
 5424 25e8 BA780000 		movl	$120, %edx
 5424      00
 5425 25ed 4889CE   		movq	%rcx, %rsi
 5426 25f0 4889C7   		movq	%rax, %rdi
 5427 25f3 E8000000 		call	_ZN8UnitTest11TestDetailsC1ERKS0_i@PLT
 5427      00
 5428              		.loc 3 120 0 is_stmt 0 discriminator 2
 5429 25f8 BF8F0000 		movl	$143, %edi
 5429      00
 5430 25fd E8000000 		call	getHexUpperNibble@PLT
 5430      00
 5431              	.LEHE313:
 5432 2602 8845BF   		movb	%al, -65(%rbp)
 5433 2605 C645BE38 		movb	$56, -66(%rbp)
 5434              	.LEHB314:
 5435 2609 E8000000 		call	_ZN8UnitTest11CurrentTest7ResultsEv@PLT
 5435      00
 5436              		.loc 3 120 0 discriminator 4
 5437 260e 488B00   		movq	(%rax), %rax
 5438 2611 488D4DC0 		leaq	-64(%rbp), %rcx
 5439 2615 488D55BF 		leaq	-65(%rbp), %rdx
 5440 2619 488D75BE 		leaq	-66(%rbp), %rsi
 5441 261d 4889C7   		movq	%rax, %rdi
 5442 2620 E8000000 		call	_ZN8UnitTest10CheckEqualIccEEvRNS_11TestResultsERKT_RKT0_RKNS_11TestDetailsE
 5442      00
 5443              	.LEHE314:
 5444              	.L423:
 5445              	.LEHB315:
 121:testConv.cpp  **** 	CHECK_EQUAL('9', getHexUpperNibble(0x9F));
 5446              		.loc 3 121 0 is_stmt 1
 5447 2625 E8000000 		call	_ZN8UnitTest11CurrentTest7DetailsEv@PLT
 5447      00
 5448 262a 488B08   		movq	(%rax), %rcx
 5449 262d 488D45C0 		leaq	-64(%rbp), %rax
 5450 2631 BA790000 		movl	$121, %edx
 5450      00
 5451 2636 4889CE   		movq	%rcx, %rsi
 5452 2639 4889C7   		movq	%rax, %rdi
 5453 263c E8000000 		call	_ZN8UnitTest11TestDetailsC1ERKS0_i@PLT
 5453      00
 5454              		.loc 3 121 0 is_stmt 0 discriminator 2
 5455 2641 BF9F0000 		movl	$159, %edi
 5455      00
 5456 2646 E8000000 		call	getHexUpperNibble@PLT
 5456      00
 5457              	.LEHE315:
 5458 264b 8845BF   		movb	%al, -65(%rbp)
 5459 264e C645BE39 		movb	$57, -66(%rbp)
 5460              	.LEHB316:
 5461 2652 E8000000 		call	_ZN8UnitTest11CurrentTest7ResultsEv@PLT
 5461      00
 5462              		.loc 3 121 0 discriminator 4
 5463 2657 488B00   		movq	(%rax), %rax
 5464 265a 488D4DC0 		leaq	-64(%rbp), %rcx
 5465 265e 488D55BF 		leaq	-65(%rbp), %rdx
 5466 2662 488D75BE 		leaq	-66(%rbp), %rsi
 5467 2666 4889C7   		movq	%rax, %rdi
 5468 2669 E8000000 		call	_ZN8UnitTest10CheckEqualIccEEvRNS_11TestResultsERKT_RKT0_RKNS_11TestDetailsE
 5468      00
 5469              	.LEHE316:
 5470              	.L427:
 5471              	.LEHB317:
 122:testConv.cpp  **** 	CHECK_EQUAL('A', getHexUpperNibble(0xAF));
 5472              		.loc 3 122 0 is_stmt 1
 5473 266e E8000000 		call	_ZN8UnitTest11CurrentTest7DetailsEv@PLT
 5473      00
 5474 2673 488B08   		movq	(%rax), %rcx
 5475 2676 488D45C0 		leaq	-64(%rbp), %rax
 5476 267a BA7A0000 		movl	$122, %edx
 5476      00
 5477 267f 4889CE   		movq	%rcx, %rsi
 5478 2682 4889C7   		movq	%rax, %rdi
 5479 2685 E8000000 		call	_ZN8UnitTest11TestDetailsC1ERKS0_i@PLT
 5479      00
 5480              		.loc 3 122 0 is_stmt 0 discriminator 2
 5481 268a BFAF0000 		movl	$175, %edi
 5481      00
 5482 268f E8000000 		call	getHexUpperNibble@PLT
 5482      00
 5483              	.LEHE317:
 5484 2694 8845BF   		movb	%al, -65(%rbp)
 5485 2697 C645BE41 		movb	$65, -66(%rbp)
 5486              	.LEHB318:
 5487 269b E8000000 		call	_ZN8UnitTest11CurrentTest7ResultsEv@PLT
 5487      00
 5488              		.loc 3 122 0 discriminator 4
 5489 26a0 488B00   		movq	(%rax), %rax
 5490 26a3 488D4DC0 		leaq	-64(%rbp), %rcx
 5491 26a7 488D55BF 		leaq	-65(%rbp), %rdx
 5492 26ab 488D75BE 		leaq	-66(%rbp), %rsi
 5493 26af 4889C7   		movq	%rax, %rdi
 5494 26b2 E8000000 		call	_ZN8UnitTest10CheckEqualIccEEvRNS_11TestResultsERKT_RKT0_RKNS_11TestDetailsE
 5494      00
 5495              	.LEHE318:
 5496              	.L431:
 5497              	.LEHB319:
 123:testConv.cpp  **** 	CHECK_EQUAL('B', getHexUpperNibble(0xBF));
 5498              		.loc 3 123 0 is_stmt 1
 5499 26b7 E8000000 		call	_ZN8UnitTest11CurrentTest7DetailsEv@PLT
 5499      00
 5500 26bc 488B08   		movq	(%rax), %rcx
 5501 26bf 488D45C0 		leaq	-64(%rbp), %rax
 5502 26c3 BA7B0000 		movl	$123, %edx
 5502      00
 5503 26c8 4889CE   		movq	%rcx, %rsi
 5504 26cb 4889C7   		movq	%rax, %rdi
 5505 26ce E8000000 		call	_ZN8UnitTest11TestDetailsC1ERKS0_i@PLT
 5505      00
 5506              		.loc 3 123 0 is_stmt 0 discriminator 2
 5507 26d3 BFBF0000 		movl	$191, %edi
 5507      00
 5508 26d8 E8000000 		call	getHexUpperNibble@PLT
 5508      00
 5509              	.LEHE319:
 5510 26dd 8845BF   		movb	%al, -65(%rbp)
 5511 26e0 C645BE42 		movb	$66, -66(%rbp)
 5512              	.LEHB320:
 5513 26e4 E8000000 		call	_ZN8UnitTest11CurrentTest7ResultsEv@PLT
 5513      00
 5514              		.loc 3 123 0 discriminator 4
 5515 26e9 488B00   		movq	(%rax), %rax
 5516 26ec 488D4DC0 		leaq	-64(%rbp), %rcx
 5517 26f0 488D55BF 		leaq	-65(%rbp), %rdx
 5518 26f4 488D75BE 		leaq	-66(%rbp), %rsi
 5519 26f8 4889C7   		movq	%rax, %rdi
 5520 26fb E8000000 		call	_ZN8UnitTest10CheckEqualIccEEvRNS_11TestResultsERKT_RKT0_RKNS_11TestDetailsE
 5520      00
 5521              	.LEHE320:
 5522              	.L435:
 5523              	.LEHB321:
 124:testConv.cpp  **** 	CHECK_EQUAL('C', getHexUpperNibble(0xCF));
 5524              		.loc 3 124 0 is_stmt 1
 5525 2700 E8000000 		call	_ZN8UnitTest11CurrentTest7DetailsEv@PLT
 5525      00
 5526 2705 488B08   		movq	(%rax), %rcx
 5527 2708 488D45C0 		leaq	-64(%rbp), %rax
 5528 270c BA7C0000 		movl	$124, %edx
 5528      00
 5529 2711 4889CE   		movq	%rcx, %rsi
 5530 2714 4889C7   		movq	%rax, %rdi
 5531 2717 E8000000 		call	_ZN8UnitTest11TestDetailsC1ERKS0_i@PLT
 5531      00
 5532              		.loc 3 124 0 is_stmt 0 discriminator 2
 5533 271c BFCF0000 		movl	$207, %edi
 5533      00
 5534 2721 E8000000 		call	getHexUpperNibble@PLT
 5534      00
 5535              	.LEHE321:
 5536 2726 8845BF   		movb	%al, -65(%rbp)
 5537 2729 C645BE43 		movb	$67, -66(%rbp)
 5538              	.LEHB322:
 5539 272d E8000000 		call	_ZN8UnitTest11CurrentTest7ResultsEv@PLT
 5539      00
 5540              		.loc 3 124 0 discriminator 4
 5541 2732 488B00   		movq	(%rax), %rax
 5542 2735 488D4DC0 		leaq	-64(%rbp), %rcx
 5543 2739 488D55BF 		leaq	-65(%rbp), %rdx
 5544 273d 488D75BE 		leaq	-66(%rbp), %rsi
 5545 2741 4889C7   		movq	%rax, %rdi
 5546 2744 E8000000 		call	_ZN8UnitTest10CheckEqualIccEEvRNS_11TestResultsERKT_RKT0_RKNS_11TestDetailsE
 5546      00
 5547              	.LEHE322:
 5548              	.L439:
 5549              	.LEHB323:
 125:testConv.cpp  **** 	CHECK_EQUAL('D', getHexUpperNibble(0xDF));
 5550              		.loc 3 125 0 is_stmt 1
 5551 2749 E8000000 		call	_ZN8UnitTest11CurrentTest7DetailsEv@PLT
 5551      00
 5552 274e 488B08   		movq	(%rax), %rcx
 5553 2751 488D45C0 		leaq	-64(%rbp), %rax
 5554 2755 BA7D0000 		movl	$125, %edx
 5554      00
 5555 275a 4889CE   		movq	%rcx, %rsi
 5556 275d 4889C7   		movq	%rax, %rdi
 5557 2760 E8000000 		call	_ZN8UnitTest11TestDetailsC1ERKS0_i@PLT
 5557      00
 5558              		.loc 3 125 0 is_stmt 0 discriminator 2
 5559 2765 BFDF0000 		movl	$223, %edi
 5559      00
 5560 276a E8000000 		call	getHexUpperNibble@PLT
 5560      00
 5561              	.LEHE323:
 5562 276f 8845BF   		movb	%al, -65(%rbp)
 5563 2772 C645BE44 		movb	$68, -66(%rbp)
 5564              	.LEHB324:
 5565 2776 E8000000 		call	_ZN8UnitTest11CurrentTest7ResultsEv@PLT
 5565      00
 5566              		.loc 3 125 0 discriminator 4
 5567 277b 488B00   		movq	(%rax), %rax
 5568 277e 488D4DC0 		leaq	-64(%rbp), %rcx
 5569 2782 488D55BF 		leaq	-65(%rbp), %rdx
 5570 2786 488D75BE 		leaq	-66(%rbp), %rsi
 5571 278a 4889C7   		movq	%rax, %rdi
 5572 278d E8000000 		call	_ZN8UnitTest10CheckEqualIccEEvRNS_11TestResultsERKT_RKT0_RKNS_11TestDetailsE
 5572      00
 5573              	.LEHE324:
 5574              	.L443:
 5575              	.LEHB325:
 126:testConv.cpp  **** 	CHECK_EQUAL('E', getHexUpperNibble(0xEF));
 5576              		.loc 3 126 0 is_stmt 1
 5577 2792 E8000000 		call	_ZN8UnitTest11CurrentTest7DetailsEv@PLT
 5577      00
 5578 2797 488B08   		movq	(%rax), %rcx
 5579 279a 488D45C0 		leaq	-64(%rbp), %rax
 5580 279e BA7E0000 		movl	$126, %edx
 5580      00
 5581 27a3 4889CE   		movq	%rcx, %rsi
 5582 27a6 4889C7   		movq	%rax, %rdi
 5583 27a9 E8000000 		call	_ZN8UnitTest11TestDetailsC1ERKS0_i@PLT
 5583      00
 5584              		.loc 3 126 0 is_stmt 0 discriminator 2
 5585 27ae BFEF0000 		movl	$239, %edi
 5585      00
 5586 27b3 E8000000 		call	getHexUpperNibble@PLT
 5586      00
 5587              	.LEHE325:
 5588 27b8 8845BF   		movb	%al, -65(%rbp)
 5589 27bb C645BE45 		movb	$69, -66(%rbp)
 5590              	.LEHB326:
 5591 27bf E8000000 		call	_ZN8UnitTest11CurrentTest7ResultsEv@PLT
 5591      00
 5592              		.loc 3 126 0 discriminator 4
 5593 27c4 488B00   		movq	(%rax), %rax
 5594 27c7 488D4DC0 		leaq	-64(%rbp), %rcx
 5595 27cb 488D55BF 		leaq	-65(%rbp), %rdx
 5596 27cf 488D75BE 		leaq	-66(%rbp), %rsi
 5597 27d3 4889C7   		movq	%rax, %rdi
 5598 27d6 E8000000 		call	_ZN8UnitTest10CheckEqualIccEEvRNS_11TestResultsERKT_RKT0_RKNS_11TestDetailsE
 5598      00
 5599              	.LEHE326:
 5600              	.L447:
 5601              	.LEHB327:
 127:testConv.cpp  **** 	CHECK_EQUAL('F', getHexUpperNibble(0xFF));
 5602              		.loc 3 127 0 is_stmt 1
 5603 27db E8000000 		call	_ZN8UnitTest11CurrentTest7DetailsEv@PLT
 5603      00
 5604 27e0 488B08   		movq	(%rax), %rcx
 5605 27e3 488D45C0 		leaq	-64(%rbp), %rax
 5606 27e7 BA7F0000 		movl	$127, %edx
 5606      00
 5607 27ec 4889CE   		movq	%rcx, %rsi
 5608 27ef 4889C7   		movq	%rax, %rdi
 5609 27f2 E8000000 		call	_ZN8UnitTest11TestDetailsC1ERKS0_i@PLT
 5609      00
 5610              		.loc 3 127 0 is_stmt 0 discriminator 2
 5611 27f7 BFFF0000 		movl	$255, %edi
 5611      00
 5612 27fc E8000000 		call	getHexUpperNibble@PLT
 5612      00
 5613              	.LEHE327:
 5614 2801 8845BF   		movb	%al, -65(%rbp)
 5615 2804 C645BE46 		movb	$70, -66(%rbp)
 5616              	.LEHB328:
 5617 2808 E8000000 		call	_ZN8UnitTest11CurrentTest7ResultsEv@PLT
 5617      00
 5618              		.loc 3 127 0 discriminator 4
 5619 280d 488B00   		movq	(%rax), %rax
 5620 2810 488D4DC0 		leaq	-64(%rbp), %rcx
 5621 2814 488D55BF 		leaq	-65(%rbp), %rdx
 5622 2818 488D75BE 		leaq	-66(%rbp), %rsi
 5623 281c 4889C7   		movq	%rax, %rdi
 5624 281f E8000000 		call	_ZN8UnitTest10CheckEqualIccEEvRNS_11TestResultsERKT_RKT0_RKNS_11TestDetailsE
 5624      00
 5625              	.LEHE328:
 128:testConv.cpp  **** }
 5626              		.loc 3 128 0 is_stmt 1
 5627 2824 E90D0600 		jmp	.L388
 5627      00
 5628              	.L455:
 5629 2829 EB00     		jmp	.L390
 5630              	.L454:
 5631              	.L390:
 112:testConv.cpp  **** 	CHECK_EQUAL('1', getHexUpperNibble(0x1F));
 5632              		.loc 3 112 0
 5633 282b 4889C7   		movq	%rax, %rdi
 5634 282e E8000000 		call	__cxa_begin_catch@PLT
 5634      00
 5635              	.LEHB329:
 5636 2833 E8000000 		call	_ZN8UnitTest11CurrentTest7ResultsEv@PLT
 5636      00
 5637 2838 488B18   		movq	(%rax), %rbx
 5638 283b E8000000 		call	_ZN8UnitTest11CurrentTest7DetailsEv@PLT
 5638      00
 112:testConv.cpp  **** 	CHECK_EQUAL('1', getHexUpperNibble(0x1F));
 5639              		.loc 3 112 0 is_stmt 0 discriminator 10
 5640 2840 488B08   		movq	(%rax), %rcx
 5641 2843 488D45C0 		leaq	-64(%rbp), %rax
 5642 2847 BA700000 		movl	$112, %edx
 5642      00
 5643 284c 4889CE   		movq	%rcx, %rsi
 5644 284f 4889C7   		movq	%rax, %rdi
 5645 2852 E8000000 		call	_ZN8UnitTest11TestDetailsC1ERKS0_i@PLT
 5645      00
 112:testConv.cpp  **** 	CHECK_EQUAL('1', getHexUpperNibble(0x1F));
 5646              		.loc 3 112 0 discriminator 14
 5647 2857 488D45C0 		leaq	-64(%rbp), %rax
 5648 285b 488D1500 		leaq	.LC31(%rip), %rdx
 5648      000000
 5649 2862 4889C6   		movq	%rax, %rsi
 5650 2865 4889DF   		movq	%rbx, %rdi
 5651 2868 E8000000 		call	_ZN8UnitTest11TestResults13OnTestFailureERKNS_11TestDetailsEPKc@PLT
 5651      00
 5652              	.LEHE329:
 5653              	.LEHB330:
 112:testConv.cpp  **** 	CHECK_EQUAL('1', getHexUpperNibble(0x1F));
 5654              		.loc 3 112 0 discriminator 16
 5655 286d E8000000 		call	__cxa_end_catch@PLT
 5655      00
 5656              	.LEHE330:
 5657 2872 E966FBFF 		jmp	.L391
 5657      FF
 5658              	.L456:
 5659 2877 4889C3   		movq	%rax, %rbx
 112:testConv.cpp  **** 	CHECK_EQUAL('1', getHexUpperNibble(0x1F));
 5660              		.loc 3 112 0
 5661 287a E8000000 		call	__cxa_end_catch@PLT
 5661      00
 5662 287f 4889D8   		movq	%rbx, %rax
 5663 2882 4889C7   		movq	%rax, %rdi
 5664              	.LEHB331:
 5665 2885 E8000000 		call	_Unwind_Resume@PLT
 5665      00
 5666              	.LEHE331:
 5667              	.L458:
 5668 288a EB00     		jmp	.L394
 5669              	.L457:
 5670              	.L394:
 113:testConv.cpp  **** 	CHECK_EQUAL('2', getHexUpperNibble(0x2F));
 5671              		.loc 3 113 0 is_stmt 1
 5672 288c 4889C7   		movq	%rax, %rdi
 5673 288f E8000000 		call	__cxa_begin_catch@PLT
 5673      00
 5674              	.LEHB332:
 5675 2894 E8000000 		call	_ZN8UnitTest11CurrentTest7ResultsEv@PLT
 5675      00
 5676 2899 488B18   		movq	(%rax), %rbx
 5677 289c E8000000 		call	_ZN8UnitTest11CurrentTest7DetailsEv@PLT
 5677      00
 113:testConv.cpp  **** 	CHECK_EQUAL('2', getHexUpperNibble(0x2F));
 5678              		.loc 3 113 0 is_stmt 0 discriminator 10
 5679 28a1 488B08   		movq	(%rax), %rcx
 5680 28a4 488D45C0 		leaq	-64(%rbp), %rax
 5681 28a8 BA710000 		movl	$113, %edx
 5681      00
 5682 28ad 4889CE   		movq	%rcx, %rsi
 5683 28b0 4889C7   		movq	%rax, %rdi
 5684 28b3 E8000000 		call	_ZN8UnitTest11TestDetailsC1ERKS0_i@PLT
 5684      00
 113:testConv.cpp  **** 	CHECK_EQUAL('2', getHexUpperNibble(0x2F));
 5685              		.loc 3 113 0 discriminator 14
 5686 28b8 488D45C0 		leaq	-64(%rbp), %rax
 5687 28bc 488D1500 		leaq	.LC32(%rip), %rdx
 5687      000000
 5688 28c3 4889C6   		movq	%rax, %rsi
 5689 28c6 4889DF   		movq	%rbx, %rdi
 5690 28c9 E8000000 		call	_ZN8UnitTest11TestResults13OnTestFailureERKNS_11TestDetailsEPKc@PLT
 5690      00
 5691              	.LEHE332:
 5692              	.LEHB333:
 113:testConv.cpp  **** 	CHECK_EQUAL('2', getHexUpperNibble(0x2F));
 5693              		.loc 3 113 0 discriminator 16
 5694 28ce E8000000 		call	__cxa_end_catch@PLT
 5694      00
 5695              	.LEHE333:
 5696 28d3 E94EFBFF 		jmp	.L395
 5696      FF
 5697              	.L459:
 5698 28d8 4889C3   		movq	%rax, %rbx
 113:testConv.cpp  **** 	CHECK_EQUAL('2', getHexUpperNibble(0x2F));
 5699              		.loc 3 113 0
 5700 28db E8000000 		call	__cxa_end_catch@PLT
 5700      00
 5701 28e0 4889D8   		movq	%rbx, %rax
 5702 28e3 4889C7   		movq	%rax, %rdi
 5703              	.LEHB334:
 5704 28e6 E8000000 		call	_Unwind_Resume@PLT
 5704      00
 5705              	.LEHE334:
 5706              	.L461:
 5707 28eb EB00     		jmp	.L398
 5708              	.L460:
 5709              	.L398:
 114:testConv.cpp  **** 	CHECK_EQUAL('3', getHexUpperNibble(0x3F));
 5710              		.loc 3 114 0 is_stmt 1
 5711 28ed 4889C7   		movq	%rax, %rdi
 5712 28f0 E8000000 		call	__cxa_begin_catch@PLT
 5712      00
 5713              	.LEHB335:
 5714 28f5 E8000000 		call	_ZN8UnitTest11CurrentTest7ResultsEv@PLT
 5714      00
 5715 28fa 488B18   		movq	(%rax), %rbx
 5716 28fd E8000000 		call	_ZN8UnitTest11CurrentTest7DetailsEv@PLT
 5716      00
 114:testConv.cpp  **** 	CHECK_EQUAL('3', getHexUpperNibble(0x3F));
 5717              		.loc 3 114 0 is_stmt 0 discriminator 10
 5718 2902 488B08   		movq	(%rax), %rcx
 5719 2905 488D45C0 		leaq	-64(%rbp), %rax
 5720 2909 BA720000 		movl	$114, %edx
 5720      00
 5721 290e 4889CE   		movq	%rcx, %rsi
 5722 2911 4889C7   		movq	%rax, %rdi
 5723 2914 E8000000 		call	_ZN8UnitTest11TestDetailsC1ERKS0_i@PLT
 5723      00
 114:testConv.cpp  **** 	CHECK_EQUAL('3', getHexUpperNibble(0x3F));
 5724              		.loc 3 114 0 discriminator 14
 5725 2919 488D45C0 		leaq	-64(%rbp), %rax
 5726 291d 488D1500 		leaq	.LC33(%rip), %rdx
 5726      000000
 5727 2924 4889C6   		movq	%rax, %rsi
 5728 2927 4889DF   		movq	%rbx, %rdi
 5729 292a E8000000 		call	_ZN8UnitTest11TestResults13OnTestFailureERKNS_11TestDetailsEPKc@PLT
 5729      00
 5730              	.LEHE335:
 5731              	.LEHB336:
 114:testConv.cpp  **** 	CHECK_EQUAL('3', getHexUpperNibble(0x3F));
 5732              		.loc 3 114 0 discriminator 16
 5733 292f E8000000 		call	__cxa_end_catch@PLT
 5733      00
 5734              	.LEHE336:
 5735 2934 E936FBFF 		jmp	.L399
 5735      FF
 5736              	.L462:
 5737 2939 4889C3   		movq	%rax, %rbx
 114:testConv.cpp  **** 	CHECK_EQUAL('3', getHexUpperNibble(0x3F));
 5738              		.loc 3 114 0
 5739 293c E8000000 		call	__cxa_end_catch@PLT
 5739      00
 5740 2941 4889D8   		movq	%rbx, %rax
 5741 2944 4889C7   		movq	%rax, %rdi
 5742              	.LEHB337:
 5743 2947 E8000000 		call	_Unwind_Resume@PLT
 5743      00
 5744              	.LEHE337:
 5745              	.L464:
 5746 294c EB00     		jmp	.L402
 5747              	.L463:
 5748              	.L402:
 115:testConv.cpp  **** 	CHECK_EQUAL('4', getHexUpperNibble(0x4F));
 5749              		.loc 3 115 0 is_stmt 1
 5750 294e 4889C7   		movq	%rax, %rdi
 5751 2951 E8000000 		call	__cxa_begin_catch@PLT
 5751      00
 5752              	.LEHB338:
 5753 2956 E8000000 		call	_ZN8UnitTest11CurrentTest7ResultsEv@PLT
 5753      00
 5754 295b 488B18   		movq	(%rax), %rbx
 5755 295e E8000000 		call	_ZN8UnitTest11CurrentTest7DetailsEv@PLT
 5755      00
 115:testConv.cpp  **** 	CHECK_EQUAL('4', getHexUpperNibble(0x4F));
 5756              		.loc 3 115 0 is_stmt 0 discriminator 10
 5757 2963 488B08   		movq	(%rax), %rcx
 5758 2966 488D45C0 		leaq	-64(%rbp), %rax
 5759 296a BA730000 		movl	$115, %edx
 5759      00
 5760 296f 4889CE   		movq	%rcx, %rsi
 5761 2972 4889C7   		movq	%rax, %rdi
 5762 2975 E8000000 		call	_ZN8UnitTest11TestDetailsC1ERKS0_i@PLT
 5762      00
 115:testConv.cpp  **** 	CHECK_EQUAL('4', getHexUpperNibble(0x4F));
 5763              		.loc 3 115 0 discriminator 14
 5764 297a 488D45C0 		leaq	-64(%rbp), %rax
 5765 297e 488D1500 		leaq	.LC34(%rip), %rdx
 5765      000000
 5766 2985 4889C6   		movq	%rax, %rsi
 5767 2988 4889DF   		movq	%rbx, %rdi
 5768 298b E8000000 		call	_ZN8UnitTest11TestResults13OnTestFailureERKNS_11TestDetailsEPKc@PLT
 5768      00
 5769              	.LEHE338:
 5770              	.LEHB339:
 115:testConv.cpp  **** 	CHECK_EQUAL('4', getHexUpperNibble(0x4F));
 5771              		.loc 3 115 0 discriminator 16
 5772 2990 E8000000 		call	__cxa_end_catch@PLT
 5772      00
 5773              	.LEHE339:
 5774 2995 E91EFBFF 		jmp	.L403
 5774      FF
 5775              	.L465:
 5776 299a 4889C3   		movq	%rax, %rbx
 115:testConv.cpp  **** 	CHECK_EQUAL('4', getHexUpperNibble(0x4F));
 5777              		.loc 3 115 0
 5778 299d E8000000 		call	__cxa_end_catch@PLT
 5778      00
 5779 29a2 4889D8   		movq	%rbx, %rax
 5780 29a5 4889C7   		movq	%rax, %rdi
 5781              	.LEHB340:
 5782 29a8 E8000000 		call	_Unwind_Resume@PLT
 5782      00
 5783              	.LEHE340:
 5784              	.L467:
 5785 29ad EB00     		jmp	.L406
 5786              	.L466:
 5787              	.L406:
 116:testConv.cpp  **** 	CHECK_EQUAL('5', getHexUpperNibble(0x5F));
 5788              		.loc 3 116 0 is_stmt 1
 5789 29af 4889C7   		movq	%rax, %rdi
 5790 29b2 E8000000 		call	__cxa_begin_catch@PLT
 5790      00
 5791              	.LEHB341:
 5792 29b7 E8000000 		call	_ZN8UnitTest11CurrentTest7ResultsEv@PLT
 5792      00
 5793 29bc 488B18   		movq	(%rax), %rbx
 5794 29bf E8000000 		call	_ZN8UnitTest11CurrentTest7DetailsEv@PLT
 5794      00
 116:testConv.cpp  **** 	CHECK_EQUAL('5', getHexUpperNibble(0x5F));
 5795              		.loc 3 116 0 is_stmt 0 discriminator 10
 5796 29c4 488B08   		movq	(%rax), %rcx
 5797 29c7 488D45C0 		leaq	-64(%rbp), %rax
 5798 29cb BA740000 		movl	$116, %edx
 5798      00
 5799 29d0 4889CE   		movq	%rcx, %rsi
 5800 29d3 4889C7   		movq	%rax, %rdi
 5801 29d6 E8000000 		call	_ZN8UnitTest11TestDetailsC1ERKS0_i@PLT
 5801      00
 116:testConv.cpp  **** 	CHECK_EQUAL('5', getHexUpperNibble(0x5F));
 5802              		.loc 3 116 0 discriminator 14
 5803 29db 488D45C0 		leaq	-64(%rbp), %rax
 5804 29df 488D1500 		leaq	.LC35(%rip), %rdx
 5804      000000
 5805 29e6 4889C6   		movq	%rax, %rsi
 5806 29e9 4889DF   		movq	%rbx, %rdi
 5807 29ec E8000000 		call	_ZN8UnitTest11TestResults13OnTestFailureERKNS_11TestDetailsEPKc@PLT
 5807      00
 5808              	.LEHE341:
 5809              	.LEHB342:
 116:testConv.cpp  **** 	CHECK_EQUAL('5', getHexUpperNibble(0x5F));
 5810              		.loc 3 116 0 discriminator 16
 5811 29f1 E8000000 		call	__cxa_end_catch@PLT
 5811      00
 5812              	.LEHE342:
 5813 29f6 E906FBFF 		jmp	.L407
 5813      FF
 5814              	.L468:
 5815 29fb 4889C3   		movq	%rax, %rbx
 116:testConv.cpp  **** 	CHECK_EQUAL('5', getHexUpperNibble(0x5F));
 5816              		.loc 3 116 0
 5817 29fe E8000000 		call	__cxa_end_catch@PLT
 5817      00
 5818 2a03 4889D8   		movq	%rbx, %rax
 5819 2a06 4889C7   		movq	%rax, %rdi
 5820              	.LEHB343:
 5821 2a09 E8000000 		call	_Unwind_Resume@PLT
 5821      00
 5822              	.LEHE343:
 5823              	.L470:
 5824 2a0e EB00     		jmp	.L410
 5825              	.L469:
 5826              	.L410:
 117:testConv.cpp  **** 	CHECK_EQUAL('6', getHexUpperNibble(0x6F));
 5827              		.loc 3 117 0 is_stmt 1
 5828 2a10 4889C7   		movq	%rax, %rdi
 5829 2a13 E8000000 		call	__cxa_begin_catch@PLT
 5829      00
 5830              	.LEHB344:
 5831 2a18 E8000000 		call	_ZN8UnitTest11CurrentTest7ResultsEv@PLT
 5831      00
 5832 2a1d 488B18   		movq	(%rax), %rbx
 5833 2a20 E8000000 		call	_ZN8UnitTest11CurrentTest7DetailsEv@PLT
 5833      00
 117:testConv.cpp  **** 	CHECK_EQUAL('6', getHexUpperNibble(0x6F));
 5834              		.loc 3 117 0 is_stmt 0 discriminator 10
 5835 2a25 488B08   		movq	(%rax), %rcx
 5836 2a28 488D45C0 		leaq	-64(%rbp), %rax
 5837 2a2c BA750000 		movl	$117, %edx
 5837      00
 5838 2a31 4889CE   		movq	%rcx, %rsi
 5839 2a34 4889C7   		movq	%rax, %rdi
 5840 2a37 E8000000 		call	_ZN8UnitTest11TestDetailsC1ERKS0_i@PLT
 5840      00
 117:testConv.cpp  **** 	CHECK_EQUAL('6', getHexUpperNibble(0x6F));
 5841              		.loc 3 117 0 discriminator 14
 5842 2a3c 488D45C0 		leaq	-64(%rbp), %rax
 5843 2a40 488D1500 		leaq	.LC36(%rip), %rdx
 5843      000000
 5844 2a47 4889C6   		movq	%rax, %rsi
 5845 2a4a 4889DF   		movq	%rbx, %rdi
 5846 2a4d E8000000 		call	_ZN8UnitTest11TestResults13OnTestFailureERKNS_11TestDetailsEPKc@PLT
 5846      00
 5847              	.LEHE344:
 5848              	.LEHB345:
 117:testConv.cpp  **** 	CHECK_EQUAL('6', getHexUpperNibble(0x6F));
 5849              		.loc 3 117 0 discriminator 16
 5850 2a52 E8000000 		call	__cxa_end_catch@PLT
 5850      00
 5851              	.LEHE345:
 5852 2a57 E9EEFAFF 		jmp	.L411
 5852      FF
 5853              	.L471:
 5854 2a5c 4889C3   		movq	%rax, %rbx
 117:testConv.cpp  **** 	CHECK_EQUAL('6', getHexUpperNibble(0x6F));
 5855              		.loc 3 117 0
 5856 2a5f E8000000 		call	__cxa_end_catch@PLT
 5856      00
 5857 2a64 4889D8   		movq	%rbx, %rax
 5858 2a67 4889C7   		movq	%rax, %rdi
 5859              	.LEHB346:
 5860 2a6a E8000000 		call	_Unwind_Resume@PLT
 5860      00
 5861              	.LEHE346:
 5862              	.L473:
 5863 2a6f EB00     		jmp	.L414
 5864              	.L472:
 5865              	.L414:
 118:testConv.cpp  **** 	CHECK_EQUAL('7', getHexUpperNibble(0x7F));
 5866              		.loc 3 118 0 is_stmt 1
 5867 2a71 4889C7   		movq	%rax, %rdi
 5868 2a74 E8000000 		call	__cxa_begin_catch@PLT
 5868      00
 5869              	.LEHB347:
 5870 2a79 E8000000 		call	_ZN8UnitTest11CurrentTest7ResultsEv@PLT
 5870      00
 5871 2a7e 488B18   		movq	(%rax), %rbx
 5872 2a81 E8000000 		call	_ZN8UnitTest11CurrentTest7DetailsEv@PLT
 5872      00
 118:testConv.cpp  **** 	CHECK_EQUAL('7', getHexUpperNibble(0x7F));
 5873              		.loc 3 118 0 is_stmt 0 discriminator 10
 5874 2a86 488B08   		movq	(%rax), %rcx
 5875 2a89 488D45C0 		leaq	-64(%rbp), %rax
 5876 2a8d BA760000 		movl	$118, %edx
 5876      00
 5877 2a92 4889CE   		movq	%rcx, %rsi
 5878 2a95 4889C7   		movq	%rax, %rdi
 5879 2a98 E8000000 		call	_ZN8UnitTest11TestDetailsC1ERKS0_i@PLT
 5879      00
 118:testConv.cpp  **** 	CHECK_EQUAL('7', getHexUpperNibble(0x7F));
 5880              		.loc 3 118 0 discriminator 14
 5881 2a9d 488D45C0 		leaq	-64(%rbp), %rax
 5882 2aa1 488D1500 		leaq	.LC37(%rip), %rdx
 5882      000000
 5883 2aa8 4889C6   		movq	%rax, %rsi
 5884 2aab 4889DF   		movq	%rbx, %rdi
 5885 2aae E8000000 		call	_ZN8UnitTest11TestResults13OnTestFailureERKNS_11TestDetailsEPKc@PLT
 5885      00
 5886              	.LEHE347:
 5887              	.LEHB348:
 118:testConv.cpp  **** 	CHECK_EQUAL('7', getHexUpperNibble(0x7F));
 5888              		.loc 3 118 0 discriminator 16
 5889 2ab3 E8000000 		call	__cxa_end_catch@PLT
 5889      00
 5890              	.LEHE348:
 5891 2ab8 E9D6FAFF 		jmp	.L415
 5891      FF
 5892              	.L474:
 5893 2abd 4889C3   		movq	%rax, %rbx
 118:testConv.cpp  **** 	CHECK_EQUAL('7', getHexUpperNibble(0x7F));
 5894              		.loc 3 118 0
 5895 2ac0 E8000000 		call	__cxa_end_catch@PLT
 5895      00
 5896 2ac5 4889D8   		movq	%rbx, %rax
 5897 2ac8 4889C7   		movq	%rax, %rdi
 5898              	.LEHB349:
 5899 2acb E8000000 		call	_Unwind_Resume@PLT
 5899      00
 5900              	.LEHE349:
 5901              	.L476:
 5902 2ad0 EB00     		jmp	.L418
 5903              	.L475:
 5904              	.L418:
 119:testConv.cpp  **** 	CHECK_EQUAL('8', getHexUpperNibble(0x8F));
 5905              		.loc 3 119 0 is_stmt 1
 5906 2ad2 4889C7   		movq	%rax, %rdi
 5907 2ad5 E8000000 		call	__cxa_begin_catch@PLT
 5907      00
 5908              	.LEHB350:
 5909 2ada E8000000 		call	_ZN8UnitTest11CurrentTest7ResultsEv@PLT
 5909      00
 5910 2adf 488B18   		movq	(%rax), %rbx
 5911 2ae2 E8000000 		call	_ZN8UnitTest11CurrentTest7DetailsEv@PLT
 5911      00
 119:testConv.cpp  **** 	CHECK_EQUAL('8', getHexUpperNibble(0x8F));
 5912              		.loc 3 119 0 is_stmt 0 discriminator 10
 5913 2ae7 488B08   		movq	(%rax), %rcx
 5914 2aea 488D45C0 		leaq	-64(%rbp), %rax
 5915 2aee BA770000 		movl	$119, %edx
 5915      00
 5916 2af3 4889CE   		movq	%rcx, %rsi
 5917 2af6 4889C7   		movq	%rax, %rdi
 5918 2af9 E8000000 		call	_ZN8UnitTest11TestDetailsC1ERKS0_i@PLT
 5918      00
 119:testConv.cpp  **** 	CHECK_EQUAL('8', getHexUpperNibble(0x8F));
 5919              		.loc 3 119 0 discriminator 14
 5920 2afe 488D45C0 		leaq	-64(%rbp), %rax
 5921 2b02 488D1500 		leaq	.LC38(%rip), %rdx
 5921      000000
 5922 2b09 4889C6   		movq	%rax, %rsi
 5923 2b0c 4889DF   		movq	%rbx, %rdi
 5924 2b0f E8000000 		call	_ZN8UnitTest11TestResults13OnTestFailureERKNS_11TestDetailsEPKc@PLT
 5924      00
 5925              	.LEHE350:
 5926              	.LEHB351:
 119:testConv.cpp  **** 	CHECK_EQUAL('8', getHexUpperNibble(0x8F));
 5927              		.loc 3 119 0 discriminator 16
 5928 2b14 E8000000 		call	__cxa_end_catch@PLT
 5928      00
 5929              	.LEHE351:
 5930 2b19 E9BEFAFF 		jmp	.L419
 5930      FF
 5931              	.L477:
 5932 2b1e 4889C3   		movq	%rax, %rbx
 119:testConv.cpp  **** 	CHECK_EQUAL('8', getHexUpperNibble(0x8F));
 5933              		.loc 3 119 0
 5934 2b21 E8000000 		call	__cxa_end_catch@PLT
 5934      00
 5935 2b26 4889D8   		movq	%rbx, %rax
 5936 2b29 4889C7   		movq	%rax, %rdi
 5937              	.LEHB352:
 5938 2b2c E8000000 		call	_Unwind_Resume@PLT
 5938      00
 5939              	.LEHE352:
 5940              	.L479:
 5941 2b31 EB00     		jmp	.L422
 5942              	.L478:
 5943              	.L422:
 120:testConv.cpp  **** 	CHECK_EQUAL('9', getHexUpperNibble(0x9F));
 5944              		.loc 3 120 0 is_stmt 1
 5945 2b33 4889C7   		movq	%rax, %rdi
 5946 2b36 E8000000 		call	__cxa_begin_catch@PLT
 5946      00
 5947              	.LEHB353:
 5948 2b3b E8000000 		call	_ZN8UnitTest11CurrentTest7ResultsEv@PLT
 5948      00
 5949 2b40 488B18   		movq	(%rax), %rbx
 5950 2b43 E8000000 		call	_ZN8UnitTest11CurrentTest7DetailsEv@PLT
 5950      00
 120:testConv.cpp  **** 	CHECK_EQUAL('9', getHexUpperNibble(0x9F));
 5951              		.loc 3 120 0 is_stmt 0 discriminator 10
 5952 2b48 488B08   		movq	(%rax), %rcx
 5953 2b4b 488D45C0 		leaq	-64(%rbp), %rax
 5954 2b4f BA780000 		movl	$120, %edx
 5954      00
 5955 2b54 4889CE   		movq	%rcx, %rsi
 5956 2b57 4889C7   		movq	%rax, %rdi
 5957 2b5a E8000000 		call	_ZN8UnitTest11TestDetailsC1ERKS0_i@PLT
 5957      00
 120:testConv.cpp  **** 	CHECK_EQUAL('9', getHexUpperNibble(0x9F));
 5958              		.loc 3 120 0 discriminator 14
 5959 2b5f 488D45C0 		leaq	-64(%rbp), %rax
 5960 2b63 488D1500 		leaq	.LC39(%rip), %rdx
 5960      000000
 5961 2b6a 4889C6   		movq	%rax, %rsi
 5962 2b6d 4889DF   		movq	%rbx, %rdi
 5963 2b70 E8000000 		call	_ZN8UnitTest11TestResults13OnTestFailureERKNS_11TestDetailsEPKc@PLT
 5963      00
 5964              	.LEHE353:
 5965              	.LEHB354:
 120:testConv.cpp  **** 	CHECK_EQUAL('9', getHexUpperNibble(0x9F));
 5966              		.loc 3 120 0 discriminator 16
 5967 2b75 E8000000 		call	__cxa_end_catch@PLT
 5967      00
 5968              	.LEHE354:
 5969 2b7a E9A6FAFF 		jmp	.L423
 5969      FF
 5970              	.L480:
 5971 2b7f 4889C3   		movq	%rax, %rbx
 120:testConv.cpp  **** 	CHECK_EQUAL('9', getHexUpperNibble(0x9F));
 5972              		.loc 3 120 0
 5973 2b82 E8000000 		call	__cxa_end_catch@PLT
 5973      00
 5974 2b87 4889D8   		movq	%rbx, %rax
 5975 2b8a 4889C7   		movq	%rax, %rdi
 5976              	.LEHB355:
 5977 2b8d E8000000 		call	_Unwind_Resume@PLT
 5977      00
 5978              	.LEHE355:
 5979              	.L482:
 5980 2b92 EB00     		jmp	.L426
 5981              	.L481:
 5982              	.L426:
 121:testConv.cpp  **** 	CHECK_EQUAL('A', getHexUpperNibble(0xAF));
 5983              		.loc 3 121 0 is_stmt 1
 5984 2b94 4889C7   		movq	%rax, %rdi
 5985 2b97 E8000000 		call	__cxa_begin_catch@PLT
 5985      00
 5986              	.LEHB356:
 5987 2b9c E8000000 		call	_ZN8UnitTest11CurrentTest7ResultsEv@PLT
 5987      00
 5988 2ba1 488B18   		movq	(%rax), %rbx
 5989 2ba4 E8000000 		call	_ZN8UnitTest11CurrentTest7DetailsEv@PLT
 5989      00
 121:testConv.cpp  **** 	CHECK_EQUAL('A', getHexUpperNibble(0xAF));
 5990              		.loc 3 121 0 is_stmt 0 discriminator 10
 5991 2ba9 488B08   		movq	(%rax), %rcx
 5992 2bac 488D45C0 		leaq	-64(%rbp), %rax
 5993 2bb0 BA790000 		movl	$121, %edx
 5993      00
 5994 2bb5 4889CE   		movq	%rcx, %rsi
 5995 2bb8 4889C7   		movq	%rax, %rdi
 5996 2bbb E8000000 		call	_ZN8UnitTest11TestDetailsC1ERKS0_i@PLT
 5996      00
 121:testConv.cpp  **** 	CHECK_EQUAL('A', getHexUpperNibble(0xAF));
 5997              		.loc 3 121 0 discriminator 14
 5998 2bc0 488D45C0 		leaq	-64(%rbp), %rax
 5999 2bc4 488D1500 		leaq	.LC40(%rip), %rdx
 5999      000000
 6000 2bcb 4889C6   		movq	%rax, %rsi
 6001 2bce 4889DF   		movq	%rbx, %rdi
 6002 2bd1 E8000000 		call	_ZN8UnitTest11TestResults13OnTestFailureERKNS_11TestDetailsEPKc@PLT
 6002      00
 6003              	.LEHE356:
 6004              	.LEHB357:
 121:testConv.cpp  **** 	CHECK_EQUAL('A', getHexUpperNibble(0xAF));
 6005              		.loc 3 121 0 discriminator 16
 6006 2bd6 E8000000 		call	__cxa_end_catch@PLT
 6006      00
 6007              	.LEHE357:
 6008 2bdb E98EFAFF 		jmp	.L427
 6008      FF
 6009              	.L483:
 6010 2be0 4889C3   		movq	%rax, %rbx
 121:testConv.cpp  **** 	CHECK_EQUAL('A', getHexUpperNibble(0xAF));
 6011              		.loc 3 121 0
 6012 2be3 E8000000 		call	__cxa_end_catch@PLT
 6012      00
 6013 2be8 4889D8   		movq	%rbx, %rax
 6014 2beb 4889C7   		movq	%rax, %rdi
 6015              	.LEHB358:
 6016 2bee E8000000 		call	_Unwind_Resume@PLT
 6016      00
 6017              	.LEHE358:
 6018              	.L485:
 6019 2bf3 EB00     		jmp	.L430
 6020              	.L484:
 6021              	.L430:
 122:testConv.cpp  **** 	CHECK_EQUAL('B', getHexUpperNibble(0xBF));
 6022              		.loc 3 122 0 is_stmt 1
 6023 2bf5 4889C7   		movq	%rax, %rdi
 6024 2bf8 E8000000 		call	__cxa_begin_catch@PLT
 6024      00
 6025              	.LEHB359:
 6026 2bfd E8000000 		call	_ZN8UnitTest11CurrentTest7ResultsEv@PLT
 6026      00
 6027 2c02 488B18   		movq	(%rax), %rbx
 6028 2c05 E8000000 		call	_ZN8UnitTest11CurrentTest7DetailsEv@PLT
 6028      00
 122:testConv.cpp  **** 	CHECK_EQUAL('B', getHexUpperNibble(0xBF));
 6029              		.loc 3 122 0 is_stmt 0 discriminator 10
 6030 2c0a 488B08   		movq	(%rax), %rcx
 6031 2c0d 488D45C0 		leaq	-64(%rbp), %rax
 6032 2c11 BA7A0000 		movl	$122, %edx
 6032      00
 6033 2c16 4889CE   		movq	%rcx, %rsi
 6034 2c19 4889C7   		movq	%rax, %rdi
 6035 2c1c E8000000 		call	_ZN8UnitTest11TestDetailsC1ERKS0_i@PLT
 6035      00
 122:testConv.cpp  **** 	CHECK_EQUAL('B', getHexUpperNibble(0xBF));
 6036              		.loc 3 122 0 discriminator 14
 6037 2c21 488D45C0 		leaq	-64(%rbp), %rax
 6038 2c25 488D1500 		leaq	.LC41(%rip), %rdx
 6038      000000
 6039 2c2c 4889C6   		movq	%rax, %rsi
 6040 2c2f 4889DF   		movq	%rbx, %rdi
 6041 2c32 E8000000 		call	_ZN8UnitTest11TestResults13OnTestFailureERKNS_11TestDetailsEPKc@PLT
 6041      00
 6042              	.LEHE359:
 6043              	.LEHB360:
 122:testConv.cpp  **** 	CHECK_EQUAL('B', getHexUpperNibble(0xBF));
 6044              		.loc 3 122 0 discriminator 16
 6045 2c37 E8000000 		call	__cxa_end_catch@PLT
 6045      00
 6046              	.LEHE360:
 6047 2c3c E976FAFF 		jmp	.L431
 6047      FF
 6048              	.L486:
 6049 2c41 4889C3   		movq	%rax, %rbx
 122:testConv.cpp  **** 	CHECK_EQUAL('B', getHexUpperNibble(0xBF));
 6050              		.loc 3 122 0
 6051 2c44 E8000000 		call	__cxa_end_catch@PLT
 6051      00
 6052 2c49 4889D8   		movq	%rbx, %rax
 6053 2c4c 4889C7   		movq	%rax, %rdi
 6054              	.LEHB361:
 6055 2c4f E8000000 		call	_Unwind_Resume@PLT
 6055      00
 6056              	.LEHE361:
 6057              	.L488:
 6058 2c54 EB00     		jmp	.L434
 6059              	.L487:
 6060              	.L434:
 123:testConv.cpp  **** 	CHECK_EQUAL('C', getHexUpperNibble(0xCF));
 6061              		.loc 3 123 0 is_stmt 1
 6062 2c56 4889C7   		movq	%rax, %rdi
 6063 2c59 E8000000 		call	__cxa_begin_catch@PLT
 6063      00
 6064              	.LEHB362:
 6065 2c5e E8000000 		call	_ZN8UnitTest11CurrentTest7ResultsEv@PLT
 6065      00
 6066 2c63 488B18   		movq	(%rax), %rbx
 6067 2c66 E8000000 		call	_ZN8UnitTest11CurrentTest7DetailsEv@PLT
 6067      00
 123:testConv.cpp  **** 	CHECK_EQUAL('C', getHexUpperNibble(0xCF));
 6068              		.loc 3 123 0 is_stmt 0 discriminator 10
 6069 2c6b 488B08   		movq	(%rax), %rcx
 6070 2c6e 488D45C0 		leaq	-64(%rbp), %rax
 6071 2c72 BA7B0000 		movl	$123, %edx
 6071      00
 6072 2c77 4889CE   		movq	%rcx, %rsi
 6073 2c7a 4889C7   		movq	%rax, %rdi
 6074 2c7d E8000000 		call	_ZN8UnitTest11TestDetailsC1ERKS0_i@PLT
 6074      00
 123:testConv.cpp  **** 	CHECK_EQUAL('C', getHexUpperNibble(0xCF));
 6075              		.loc 3 123 0 discriminator 14
 6076 2c82 488D45C0 		leaq	-64(%rbp), %rax
 6077 2c86 488D1500 		leaq	.LC42(%rip), %rdx
 6077      000000
 6078 2c8d 4889C6   		movq	%rax, %rsi
 6079 2c90 4889DF   		movq	%rbx, %rdi
 6080 2c93 E8000000 		call	_ZN8UnitTest11TestResults13OnTestFailureERKNS_11TestDetailsEPKc@PLT
 6080      00
 6081              	.LEHE362:
 6082              	.LEHB363:
 123:testConv.cpp  **** 	CHECK_EQUAL('C', getHexUpperNibble(0xCF));
 6083              		.loc 3 123 0 discriminator 16
 6084 2c98 E8000000 		call	__cxa_end_catch@PLT
 6084      00
 6085              	.LEHE363:
 6086 2c9d E95EFAFF 		jmp	.L435
 6086      FF
 6087              	.L489:
 6088 2ca2 4889C3   		movq	%rax, %rbx
 123:testConv.cpp  **** 	CHECK_EQUAL('C', getHexUpperNibble(0xCF));
 6089              		.loc 3 123 0
 6090 2ca5 E8000000 		call	__cxa_end_catch@PLT
 6090      00
 6091 2caa 4889D8   		movq	%rbx, %rax
 6092 2cad 4889C7   		movq	%rax, %rdi
 6093              	.LEHB364:
 6094 2cb0 E8000000 		call	_Unwind_Resume@PLT
 6094      00
 6095              	.LEHE364:
 6096              	.L491:
 6097 2cb5 EB00     		jmp	.L438
 6098              	.L490:
 6099              	.L438:
 124:testConv.cpp  **** 	CHECK_EQUAL('D', getHexUpperNibble(0xDF));
 6100              		.loc 3 124 0 is_stmt 1
 6101 2cb7 4889C7   		movq	%rax, %rdi
 6102 2cba E8000000 		call	__cxa_begin_catch@PLT
 6102      00
 6103              	.LEHB365:
 6104 2cbf E8000000 		call	_ZN8UnitTest11CurrentTest7ResultsEv@PLT
 6104      00
 6105 2cc4 488B18   		movq	(%rax), %rbx
 6106 2cc7 E8000000 		call	_ZN8UnitTest11CurrentTest7DetailsEv@PLT
 6106      00
 124:testConv.cpp  **** 	CHECK_EQUAL('D', getHexUpperNibble(0xDF));
 6107              		.loc 3 124 0 is_stmt 0 discriminator 10
 6108 2ccc 488B08   		movq	(%rax), %rcx
 6109 2ccf 488D45C0 		leaq	-64(%rbp), %rax
 6110 2cd3 BA7C0000 		movl	$124, %edx
 6110      00
 6111 2cd8 4889CE   		movq	%rcx, %rsi
 6112 2cdb 4889C7   		movq	%rax, %rdi
 6113 2cde E8000000 		call	_ZN8UnitTest11TestDetailsC1ERKS0_i@PLT
 6113      00
 124:testConv.cpp  **** 	CHECK_EQUAL('D', getHexUpperNibble(0xDF));
 6114              		.loc 3 124 0 discriminator 14
 6115 2ce3 488D45C0 		leaq	-64(%rbp), %rax
 6116 2ce7 488D1500 		leaq	.LC43(%rip), %rdx
 6116      000000
 6117 2cee 4889C6   		movq	%rax, %rsi
 6118 2cf1 4889DF   		movq	%rbx, %rdi
 6119 2cf4 E8000000 		call	_ZN8UnitTest11TestResults13OnTestFailureERKNS_11TestDetailsEPKc@PLT
 6119      00
 6120              	.LEHE365:
 6121              	.LEHB366:
 124:testConv.cpp  **** 	CHECK_EQUAL('D', getHexUpperNibble(0xDF));
 6122              		.loc 3 124 0 discriminator 16
 6123 2cf9 E8000000 		call	__cxa_end_catch@PLT
 6123      00
 6124              	.LEHE366:
 6125 2cfe E946FAFF 		jmp	.L439
 6125      FF
 6126              	.L492:
 6127 2d03 4889C3   		movq	%rax, %rbx
 124:testConv.cpp  **** 	CHECK_EQUAL('D', getHexUpperNibble(0xDF));
 6128              		.loc 3 124 0
 6129 2d06 E8000000 		call	__cxa_end_catch@PLT
 6129      00
 6130 2d0b 4889D8   		movq	%rbx, %rax
 6131 2d0e 4889C7   		movq	%rax, %rdi
 6132              	.LEHB367:
 6133 2d11 E8000000 		call	_Unwind_Resume@PLT
 6133      00
 6134              	.LEHE367:
 6135              	.L494:
 6136 2d16 EB00     		jmp	.L442
 6137              	.L493:
 6138              	.L442:
 125:testConv.cpp  **** 	CHECK_EQUAL('E', getHexUpperNibble(0xEF));
 6139              		.loc 3 125 0 is_stmt 1
 6140 2d18 4889C7   		movq	%rax, %rdi
 6141 2d1b E8000000 		call	__cxa_begin_catch@PLT
 6141      00
 6142              	.LEHB368:
 6143 2d20 E8000000 		call	_ZN8UnitTest11CurrentTest7ResultsEv@PLT
 6143      00
 6144 2d25 488B18   		movq	(%rax), %rbx
 6145 2d28 E8000000 		call	_ZN8UnitTest11CurrentTest7DetailsEv@PLT
 6145      00
 125:testConv.cpp  **** 	CHECK_EQUAL('E', getHexUpperNibble(0xEF));
 6146              		.loc 3 125 0 is_stmt 0 discriminator 10
 6147 2d2d 488B08   		movq	(%rax), %rcx
 6148 2d30 488D45C0 		leaq	-64(%rbp), %rax
 6149 2d34 BA7D0000 		movl	$125, %edx
 6149      00
 6150 2d39 4889CE   		movq	%rcx, %rsi
 6151 2d3c 4889C7   		movq	%rax, %rdi
 6152 2d3f E8000000 		call	_ZN8UnitTest11TestDetailsC1ERKS0_i@PLT
 6152      00
 125:testConv.cpp  **** 	CHECK_EQUAL('E', getHexUpperNibble(0xEF));
 6153              		.loc 3 125 0 discriminator 14
 6154 2d44 488D45C0 		leaq	-64(%rbp), %rax
 6155 2d48 488D1500 		leaq	.LC44(%rip), %rdx
 6155      000000
 6156 2d4f 4889C6   		movq	%rax, %rsi
 6157 2d52 4889DF   		movq	%rbx, %rdi
 6158 2d55 E8000000 		call	_ZN8UnitTest11TestResults13OnTestFailureERKNS_11TestDetailsEPKc@PLT
 6158      00
 6159              	.LEHE368:
 6160              	.LEHB369:
 125:testConv.cpp  **** 	CHECK_EQUAL('E', getHexUpperNibble(0xEF));
 6161              		.loc 3 125 0 discriminator 16
 6162 2d5a E8000000 		call	__cxa_end_catch@PLT
 6162      00
 6163              	.LEHE369:
 6164 2d5f E92EFAFF 		jmp	.L443
 6164      FF
 6165              	.L495:
 6166 2d64 4889C3   		movq	%rax, %rbx
 125:testConv.cpp  **** 	CHECK_EQUAL('E', getHexUpperNibble(0xEF));
 6167              		.loc 3 125 0
 6168 2d67 E8000000 		call	__cxa_end_catch@PLT
 6168      00
 6169 2d6c 4889D8   		movq	%rbx, %rax
 6170 2d6f 4889C7   		movq	%rax, %rdi
 6171              	.LEHB370:
 6172 2d72 E8000000 		call	_Unwind_Resume@PLT
 6172      00
 6173              	.LEHE370:
 6174              	.L497:
 6175 2d77 EB00     		jmp	.L446
 6176              	.L496:
 6177              	.L446:
 126:testConv.cpp  **** 	CHECK_EQUAL('F', getHexUpperNibble(0xFF));
 6178              		.loc 3 126 0 is_stmt 1
 6179 2d79 4889C7   		movq	%rax, %rdi
 6180 2d7c E8000000 		call	__cxa_begin_catch@PLT
 6180      00
 6181              	.LEHB371:
 6182 2d81 E8000000 		call	_ZN8UnitTest11CurrentTest7ResultsEv@PLT
 6182      00
 6183 2d86 488B18   		movq	(%rax), %rbx
 6184 2d89 E8000000 		call	_ZN8UnitTest11CurrentTest7DetailsEv@PLT
 6184      00
 126:testConv.cpp  **** 	CHECK_EQUAL('F', getHexUpperNibble(0xFF));
 6185              		.loc 3 126 0 is_stmt 0 discriminator 10
 6186 2d8e 488B08   		movq	(%rax), %rcx
 6187 2d91 488D45C0 		leaq	-64(%rbp), %rax
 6188 2d95 BA7E0000 		movl	$126, %edx
 6188      00
 6189 2d9a 4889CE   		movq	%rcx, %rsi
 6190 2d9d 4889C7   		movq	%rax, %rdi
 6191 2da0 E8000000 		call	_ZN8UnitTest11TestDetailsC1ERKS0_i@PLT
 6191      00
 126:testConv.cpp  **** 	CHECK_EQUAL('F', getHexUpperNibble(0xFF));
 6192              		.loc 3 126 0 discriminator 14
 6193 2da5 488D45C0 		leaq	-64(%rbp), %rax
 6194 2da9 488D1500 		leaq	.LC45(%rip), %rdx
 6194      000000
 6195 2db0 4889C6   		movq	%rax, %rsi
 6196 2db3 4889DF   		movq	%rbx, %rdi
 6197 2db6 E8000000 		call	_ZN8UnitTest11TestResults13OnTestFailureERKNS_11TestDetailsEPKc@PLT
 6197      00
 6198              	.LEHE371:
 6199              	.LEHB372:
 126:testConv.cpp  **** 	CHECK_EQUAL('F', getHexUpperNibble(0xFF));
 6200              		.loc 3 126 0 discriminator 16
 6201 2dbb E8000000 		call	__cxa_end_catch@PLT
 6201      00
 6202              	.LEHE372:
 6203 2dc0 E916FAFF 		jmp	.L447
 6203      FF
 6204              	.L498:
 6205 2dc5 4889C3   		movq	%rax, %rbx
 126:testConv.cpp  **** 	CHECK_EQUAL('F', getHexUpperNibble(0xFF));
 6206              		.loc 3 126 0
 6207 2dc8 E8000000 		call	__cxa_end_catch@PLT
 6207      00
 6208 2dcd 4889D8   		movq	%rbx, %rax
 6209 2dd0 4889C7   		movq	%rax, %rdi
 6210              	.LEHB373:
 6211 2dd3 E8000000 		call	_Unwind_Resume@PLT
 6211      00
 6212              	.LEHE373:
 6213              	.L500:
 6214 2dd8 EB00     		jmp	.L450
 6215              	.L499:
 6216              	.L450:
 127:testConv.cpp  **** }
 6217              		.loc 3 127 0 is_stmt 1
 6218 2dda 4889C7   		movq	%rax, %rdi
 6219 2ddd E8000000 		call	__cxa_begin_catch@PLT
 6219      00
 6220              	.LEHB374:
 6221 2de2 E8000000 		call	_ZN8UnitTest11CurrentTest7ResultsEv@PLT
 6221      00
 6222 2de7 488B18   		movq	(%rax), %rbx
 6223 2dea E8000000 		call	_ZN8UnitTest11CurrentTest7DetailsEv@PLT
 6223      00
 127:testConv.cpp  **** }
 6224              		.loc 3 127 0 is_stmt 0 discriminator 10
 6225 2def 488B08   		movq	(%rax), %rcx
 6226 2df2 488D45C0 		leaq	-64(%rbp), %rax
 6227 2df6 BA7F0000 		movl	$127, %edx
 6227      00
 6228 2dfb 4889CE   		movq	%rcx, %rsi
 6229 2dfe 4889C7   		movq	%rax, %rdi
 6230 2e01 E8000000 		call	_ZN8UnitTest11TestDetailsC1ERKS0_i@PLT
 6230      00
 127:testConv.cpp  **** }
 6231              		.loc 3 127 0 discriminator 14
 6232 2e06 488D45C0 		leaq	-64(%rbp), %rax
 6233 2e0a 488D1500 		leaq	.LC46(%rip), %rdx
 6233      000000
 6234 2e11 4889C6   		movq	%rax, %rsi
 6235 2e14 4889DF   		movq	%rbx, %rdi
 6236 2e17 E8000000 		call	_ZN8UnitTest11TestResults13OnTestFailureERKNS_11TestDetailsEPKc@PLT
 6236      00
 6237              	.LEHE374:
 6238              	.LEHB375:
 127:testConv.cpp  **** }
 6239              		.loc 3 127 0 discriminator 16
 6240 2e1c E8000000 		call	__cxa_end_catch@PLT
 6240      00
 6241              	.LEHE375:
 6242              		.loc 3 128 0 is_stmt 1 discriminator 16
 6243 2e21 EB13     		jmp	.L388
 6244              	.L501:
 6245 2e23 4889C3   		movq	%rax, %rbx
 127:testConv.cpp  **** }
 6246              		.loc 3 127 0
 6247 2e26 E8000000 		call	__cxa_end_catch@PLT
 6247      00
 6248 2e2b 4889D8   		movq	%rbx, %rax
 6249 2e2e 4889C7   		movq	%rax, %rdi
 6250              	.LEHB376:
 6251 2e31 E8000000 		call	_Unwind_Resume@PLT
 6251      00
 6252              	.LEHE376:
 6253              	.L388:
 6254              		.loc 3 128 0
 6255 2e36 488B45E8 		movq	-24(%rbp), %rax
 6256 2e3a 64483304 		xorq	%fs:40, %rax
 6256      25280000 
 6256      00
 6257 2e43 7405     		je	.L453
 6258 2e45 E8000000 		call	__stack_chk_fail@PLT
 6258      00
 6259              	.L453:
 6260 2e4a 4883C458 		addq	$88, %rsp
 6261 2e4e 5B       		popq	%rbx
 6262 2e4f 5D       		popq	%rbp
 6263              		.cfi_def_cfa 7, 8
 6264 2e50 C3       		ret
 6265              		.cfi_endproc
 6266              	.LFE1103:
 6267              		.section	.gcc_except_table
 6268              		.align 4
 6269              	.LLSDA1103:
 6270 0670 FF       		.byte	0xff
 6271 0671 9B       		.byte	0x9b
 6272 0672 C803     		.uleb128 .LLSDATT1103-.LLSDATTD1103
 6273              	.LLSDATTD1103:
 6274 0674 01       		.byte	0x1
 6275 0675 BD03     		.uleb128 .LLSDACSE1103-.LLSDACSB1103
 6276              	.LLSDACSB1103:
 6277 0677 1C       		.uleb128 .LEHB297-.LFB1103
 6278 0678 26       		.uleb128 .LEHE297-.LEHB297
 6279 0679 B309     		.uleb128 .L454-.LFB1103
 6280 067b 01       		.uleb128 0x1
 6281 067c 49       		.uleb128 .LEHB298-.LFB1103
 6282 067d 1C       		.uleb128 .LEHE298-.LEHB298
 6283 067e B109     		.uleb128 .L455-.LFB1103
 6284 0680 03       		.uleb128 0x3
 6285 0681 65       		.uleb128 .LEHB299-.LFB1103
 6286 0682 26       		.uleb128 .LEHE299-.LEHB299
 6287 0683 940A     		.uleb128 .L457-.LFB1103
 6288 0685 01       		.uleb128 0x1
 6289 0686 9201     		.uleb128 .LEHB300-.LFB1103
 6290 0688 1C       		.uleb128 .LEHE300-.LEHB300
 6291 0689 920A     		.uleb128 .L458-.LFB1103
 6292 068b 03       		.uleb128 0x3
 6293 068c AE01     		.uleb128 .LEHB301-.LFB1103
 6294 068e 26       		.uleb128 .LEHE301-.LEHB301
 6295 068f F50A     		.uleb128 .L460-.LFB1103
 6296 0691 01       		.uleb128 0x1
 6297 0692 DB01     		.uleb128 .LEHB302-.LFB1103
 6298 0694 1C       		.uleb128 .LEHE302-.LEHB302
 6299 0695 F30A     		.uleb128 .L461-.LFB1103
 6300 0697 03       		.uleb128 0x3
 6301 0698 F701     		.uleb128 .LEHB303-.LFB1103
 6302 069a 26       		.uleb128 .LEHE303-.LEHB303
 6303 069b D60B     		.uleb128 .L463-.LFB1103
 6304 069d 01       		.uleb128 0x1
 6305 069e A402     		.uleb128 .LEHB304-.LFB1103
 6306 06a0 1C       		.uleb128 .LEHE304-.LEHB304
 6307 06a1 D40B     		.uleb128 .L464-.LFB1103
 6308 06a3 03       		.uleb128 0x3
 6309 06a4 C002     		.uleb128 .LEHB305-.LFB1103
 6310 06a6 26       		.uleb128 .LEHE305-.LEHB305
 6311 06a7 B70C     		.uleb128 .L466-.LFB1103
 6312 06a9 01       		.uleb128 0x1
 6313 06aa ED02     		.uleb128 .LEHB306-.LFB1103
 6314 06ac 1C       		.uleb128 .LEHE306-.LEHB306
 6315 06ad B50C     		.uleb128 .L467-.LFB1103
 6316 06af 03       		.uleb128 0x3
 6317 06b0 8903     		.uleb128 .LEHB307-.LFB1103
 6318 06b2 26       		.uleb128 .LEHE307-.LEHB307
 6319 06b3 980D     		.uleb128 .L469-.LFB1103
 6320 06b5 01       		.uleb128 0x1
 6321 06b6 B603     		.uleb128 .LEHB308-.LFB1103
 6322 06b8 1C       		.uleb128 .LEHE308-.LEHB308
 6323 06b9 960D     		.uleb128 .L470-.LFB1103
 6324 06bb 03       		.uleb128 0x3
 6325 06bc D203     		.uleb128 .LEHB309-.LFB1103
 6326 06be 26       		.uleb128 .LEHE309-.LEHB309
 6327 06bf F90D     		.uleb128 .L472-.LFB1103
 6328 06c1 01       		.uleb128 0x1
 6329 06c2 FF03     		.uleb128 .LEHB310-.LFB1103
 6330 06c4 1C       		.uleb128 .LEHE310-.LEHB310
 6331 06c5 F70D     		.uleb128 .L473-.LFB1103
 6332 06c7 03       		.uleb128 0x3
 6333 06c8 9B04     		.uleb128 .LEHB311-.LFB1103
 6334 06ca 26       		.uleb128 .LEHE311-.LEHB311
 6335 06cb DA0E     		.uleb128 .L475-.LFB1103
 6336 06cd 01       		.uleb128 0x1
 6337 06ce C804     		.uleb128 .LEHB312-.LFB1103
 6338 06d0 1C       		.uleb128 .LEHE312-.LEHB312
 6339 06d1 D80E     		.uleb128 .L476-.LFB1103
 6340 06d3 03       		.uleb128 0x3
 6341 06d4 E404     		.uleb128 .LEHB313-.LFB1103
 6342 06d6 26       		.uleb128 .LEHE313-.LEHB313
 6343 06d7 BB0F     		.uleb128 .L478-.LFB1103
 6344 06d9 01       		.uleb128 0x1
 6345 06da 9105     		.uleb128 .LEHB314-.LFB1103
 6346 06dc 1C       		.uleb128 .LEHE314-.LEHB314
 6347 06dd B90F     		.uleb128 .L479-.LFB1103
 6348 06df 03       		.uleb128 0x3
 6349 06e0 AD05     		.uleb128 .LEHB315-.LFB1103
 6350 06e2 26       		.uleb128 .LEHE315-.LEHB315
 6351 06e3 9C10     		.uleb128 .L481-.LFB1103
 6352 06e5 01       		.uleb128 0x1
 6353 06e6 DA05     		.uleb128 .LEHB316-.LFB1103
 6354 06e8 1C       		.uleb128 .LEHE316-.LEHB316
 6355 06e9 9A10     		.uleb128 .L482-.LFB1103
 6356 06eb 03       		.uleb128 0x3
 6357 06ec F605     		.uleb128 .LEHB317-.LFB1103
 6358 06ee 26       		.uleb128 .LEHE317-.LEHB317
 6359 06ef FD10     		.uleb128 .L484-.LFB1103
 6360 06f1 01       		.uleb128 0x1
 6361 06f2 A306     		.uleb128 .LEHB318-.LFB1103
 6362 06f4 1C       		.uleb128 .LEHE318-.LEHB318
 6363 06f5 FB10     		.uleb128 .L485-.LFB1103
 6364 06f7 03       		.uleb128 0x3
 6365 06f8 BF06     		.uleb128 .LEHB319-.LFB1103
 6366 06fa 26       		.uleb128 .LEHE319-.LEHB319
 6367 06fb DE11     		.uleb128 .L487-.LFB1103
 6368 06fd 01       		.uleb128 0x1
 6369 06fe EC06     		.uleb128 .LEHB320-.LFB1103
 6370 0700 1C       		.uleb128 .LEHE320-.LEHB320
 6371 0701 DC11     		.uleb128 .L488-.LFB1103
 6372 0703 03       		.uleb128 0x3
 6373 0704 8807     		.uleb128 .LEHB321-.LFB1103
 6374 0706 26       		.uleb128 .LEHE321-.LEHB321
 6375 0707 BF12     		.uleb128 .L490-.LFB1103
 6376 0709 01       		.uleb128 0x1
 6377 070a B507     		.uleb128 .LEHB322-.LFB1103
 6378 070c 1C       		.uleb128 .LEHE322-.LEHB322
 6379 070d BD12     		.uleb128 .L491-.LFB1103
 6380 070f 03       		.uleb128 0x3
 6381 0710 D107     		.uleb128 .LEHB323-.LFB1103
 6382 0712 26       		.uleb128 .LEHE323-.LEHB323
 6383 0713 A013     		.uleb128 .L493-.LFB1103
 6384 0715 01       		.uleb128 0x1
 6385 0716 FE07     		.uleb128 .LEHB324-.LFB1103
 6386 0718 1C       		.uleb128 .LEHE324-.LEHB324
 6387 0719 9E13     		.uleb128 .L494-.LFB1103
 6388 071b 03       		.uleb128 0x3
 6389 071c 9A08     		.uleb128 .LEHB325-.LFB1103
 6390 071e 26       		.uleb128 .LEHE325-.LEHB325
 6391 071f 8114     		.uleb128 .L496-.LFB1103
 6392 0721 01       		.uleb128 0x1
 6393 0722 C708     		.uleb128 .LEHB326-.LFB1103
 6394 0724 1C       		.uleb128 .LEHE326-.LEHB326
 6395 0725 FF13     		.uleb128 .L497-.LFB1103
 6396 0727 03       		.uleb128 0x3
 6397 0728 E308     		.uleb128 .LEHB327-.LFB1103
 6398 072a 26       		.uleb128 .LEHE327-.LEHB327
 6399 072b E214     		.uleb128 .L499-.LFB1103
 6400 072d 01       		.uleb128 0x1
 6401 072e 9009     		.uleb128 .LEHB328-.LFB1103
 6402 0730 1C       		.uleb128 .LEHE328-.LEHB328
 6403 0731 E014     		.uleb128 .L500-.LFB1103
 6404 0733 03       		.uleb128 0x3
 6405 0734 BB09     		.uleb128 .LEHB329-.LFB1103
 6406 0736 3A       		.uleb128 .LEHE329-.LEHB329
 6407 0737 FF09     		.uleb128 .L456-.LFB1103
 6408 0739 00       		.uleb128 0
 6409 073a F509     		.uleb128 .LEHB330-.LFB1103
 6410 073c 05       		.uleb128 .LEHE330-.LEHB330
 6411 073d 00       		.uleb128 0
 6412 073e 00       		.uleb128 0
 6413 073f 8D0A     		.uleb128 .LEHB331-.LFB1103
 6414 0741 05       		.uleb128 .LEHE331-.LEHB331
 6415 0742 00       		.uleb128 0
 6416 0743 00       		.uleb128 0
 6417 0744 9C0A     		.uleb128 .LEHB332-.LFB1103
 6418 0746 3A       		.uleb128 .LEHE332-.LEHB332
 6419 0747 E00A     		.uleb128 .L459-.LFB1103
 6420 0749 00       		.uleb128 0
 6421 074a D60A     		.uleb128 .LEHB333-.LFB1103
 6422 074c 05       		.uleb128 .LEHE333-.LEHB333
 6423 074d 00       		.uleb128 0
 6424 074e 00       		.uleb128 0
 6425 074f EE0A     		.uleb128 .LEHB334-.LFB1103
 6426 0751 05       		.uleb128 .LEHE334-.LEHB334
 6427 0752 00       		.uleb128 0
 6428 0753 00       		.uleb128 0
 6429 0754 FD0A     		.uleb128 .LEHB335-.LFB1103
 6430 0756 3A       		.uleb128 .LEHE335-.LEHB335
 6431 0757 C10B     		.uleb128 .L462-.LFB1103
 6432 0759 00       		.uleb128 0
 6433 075a B70B     		.uleb128 .LEHB336-.LFB1103
 6434 075c 05       		.uleb128 .LEHE336-.LEHB336
 6435 075d 00       		.uleb128 0
 6436 075e 00       		.uleb128 0
 6437 075f CF0B     		.uleb128 .LEHB337-.LFB1103
 6438 0761 05       		.uleb128 .LEHE337-.LEHB337
 6439 0762 00       		.uleb128 0
 6440 0763 00       		.uleb128 0
 6441 0764 DE0B     		.uleb128 .LEHB338-.LFB1103
 6442 0766 3A       		.uleb128 .LEHE338-.LEHB338
 6443 0767 A20C     		.uleb128 .L465-.LFB1103
 6444 0769 00       		.uleb128 0
 6445 076a 980C     		.uleb128 .LEHB339-.LFB1103
 6446 076c 05       		.uleb128 .LEHE339-.LEHB339
 6447 076d 00       		.uleb128 0
 6448 076e 00       		.uleb128 0
 6449 076f B00C     		.uleb128 .LEHB340-.LFB1103
 6450 0771 05       		.uleb128 .LEHE340-.LEHB340
 6451 0772 00       		.uleb128 0
 6452 0773 00       		.uleb128 0
 6453 0774 BF0C     		.uleb128 .LEHB341-.LFB1103
 6454 0776 3A       		.uleb128 .LEHE341-.LEHB341
 6455 0777 830D     		.uleb128 .L468-.LFB1103
 6456 0779 00       		.uleb128 0
 6457 077a F90C     		.uleb128 .LEHB342-.LFB1103
 6458 077c 05       		.uleb128 .LEHE342-.LEHB342
 6459 077d 00       		.uleb128 0
 6460 077e 00       		.uleb128 0
 6461 077f 910D     		.uleb128 .LEHB343-.LFB1103
 6462 0781 05       		.uleb128 .LEHE343-.LEHB343
 6463 0782 00       		.uleb128 0
 6464 0783 00       		.uleb128 0
 6465 0784 A00D     		.uleb128 .LEHB344-.LFB1103
 6466 0786 3A       		.uleb128 .LEHE344-.LEHB344
 6467 0787 E40D     		.uleb128 .L471-.LFB1103
 6468 0789 00       		.uleb128 0
 6469 078a DA0D     		.uleb128 .LEHB345-.LFB1103
 6470 078c 05       		.uleb128 .LEHE345-.LEHB345
 6471 078d 00       		.uleb128 0
 6472 078e 00       		.uleb128 0
 6473 078f F20D     		.uleb128 .LEHB346-.LFB1103
 6474 0791 05       		.uleb128 .LEHE346-.LEHB346
 6475 0792 00       		.uleb128 0
 6476 0793 00       		.uleb128 0
 6477 0794 810E     		.uleb128 .LEHB347-.LFB1103
 6478 0796 3A       		.uleb128 .LEHE347-.LEHB347
 6479 0797 C50E     		.uleb128 .L474-.LFB1103
 6480 0799 00       		.uleb128 0
 6481 079a BB0E     		.uleb128 .LEHB348-.LFB1103
 6482 079c 05       		.uleb128 .LEHE348-.LEHB348
 6483 079d 00       		.uleb128 0
 6484 079e 00       		.uleb128 0
 6485 079f D30E     		.uleb128 .LEHB349-.LFB1103
 6486 07a1 05       		.uleb128 .LEHE349-.LEHB349
 6487 07a2 00       		.uleb128 0
 6488 07a3 00       		.uleb128 0
 6489 07a4 E20E     		.uleb128 .LEHB350-.LFB1103
 6490 07a6 3A       		.uleb128 .LEHE350-.LEHB350
 6491 07a7 A60F     		.uleb128 .L477-.LFB1103
 6492 07a9 00       		.uleb128 0
 6493 07aa 9C0F     		.uleb128 .LEHB351-.LFB1103
 6494 07ac 05       		.uleb128 .LEHE351-.LEHB351
 6495 07ad 00       		.uleb128 0
 6496 07ae 00       		.uleb128 0
 6497 07af B40F     		.uleb128 .LEHB352-.LFB1103
 6498 07b1 05       		.uleb128 .LEHE352-.LEHB352
 6499 07b2 00       		.uleb128 0
 6500 07b3 00       		.uleb128 0
 6501 07b4 C30F     		.uleb128 .LEHB353-.LFB1103
 6502 07b6 3A       		.uleb128 .LEHE353-.LEHB353
 6503 07b7 8710     		.uleb128 .L480-.LFB1103
 6504 07b9 00       		.uleb128 0
 6505 07ba FD0F     		.uleb128 .LEHB354-.LFB1103
 6506 07bc 05       		.uleb128 .LEHE354-.LEHB354
 6507 07bd 00       		.uleb128 0
 6508 07be 00       		.uleb128 0
 6509 07bf 9510     		.uleb128 .LEHB355-.LFB1103
 6510 07c1 05       		.uleb128 .LEHE355-.LEHB355
 6511 07c2 00       		.uleb128 0
 6512 07c3 00       		.uleb128 0
 6513 07c4 A410     		.uleb128 .LEHB356-.LFB1103
 6514 07c6 3A       		.uleb128 .LEHE356-.LEHB356
 6515 07c7 E810     		.uleb128 .L483-.LFB1103
 6516 07c9 00       		.uleb128 0
 6517 07ca DE10     		.uleb128 .LEHB357-.LFB1103
 6518 07cc 05       		.uleb128 .LEHE357-.LEHB357
 6519 07cd 00       		.uleb128 0
 6520 07ce 00       		.uleb128 0
 6521 07cf F610     		.uleb128 .LEHB358-.LFB1103
 6522 07d1 05       		.uleb128 .LEHE358-.LEHB358
 6523 07d2 00       		.uleb128 0
 6524 07d3 00       		.uleb128 0
 6525 07d4 8511     		.uleb128 .LEHB359-.LFB1103
 6526 07d6 3A       		.uleb128 .LEHE359-.LEHB359
 6527 07d7 C911     		.uleb128 .L486-.LFB1103
 6528 07d9 00       		.uleb128 0
 6529 07da BF11     		.uleb128 .LEHB360-.LFB1103
 6530 07dc 05       		.uleb128 .LEHE360-.LEHB360
 6531 07dd 00       		.uleb128 0
 6532 07de 00       		.uleb128 0
 6533 07df D711     		.uleb128 .LEHB361-.LFB1103
 6534 07e1 05       		.uleb128 .LEHE361-.LEHB361
 6535 07e2 00       		.uleb128 0
 6536 07e3 00       		.uleb128 0
 6537 07e4 E611     		.uleb128 .LEHB362-.LFB1103
 6538 07e6 3A       		.uleb128 .LEHE362-.LEHB362
 6539 07e7 AA12     		.uleb128 .L489-.LFB1103
 6540 07e9 00       		.uleb128 0
 6541 07ea A012     		.uleb128 .LEHB363-.LFB1103
 6542 07ec 05       		.uleb128 .LEHE363-.LEHB363
 6543 07ed 00       		.uleb128 0
 6544 07ee 00       		.uleb128 0
 6545 07ef B812     		.uleb128 .LEHB364-.LFB1103
 6546 07f1 05       		.uleb128 .LEHE364-.LEHB364
 6547 07f2 00       		.uleb128 0
 6548 07f3 00       		.uleb128 0
 6549 07f4 C712     		.uleb128 .LEHB365-.LFB1103
 6550 07f6 3A       		.uleb128 .LEHE365-.LEHB365
 6551 07f7 8B13     		.uleb128 .L492-.LFB1103
 6552 07f9 00       		.uleb128 0
 6553 07fa 8113     		.uleb128 .LEHB366-.LFB1103
 6554 07fc 05       		.uleb128 .LEHE366-.LEHB366
 6555 07fd 00       		.uleb128 0
 6556 07fe 00       		.uleb128 0
 6557 07ff 9913     		.uleb128 .LEHB367-.LFB1103
 6558 0801 05       		.uleb128 .LEHE367-.LEHB367
 6559 0802 00       		.uleb128 0
 6560 0803 00       		.uleb128 0
 6561 0804 A813     		.uleb128 .LEHB368-.LFB1103
 6562 0806 3A       		.uleb128 .LEHE368-.LEHB368
 6563 0807 EC13     		.uleb128 .L495-.LFB1103
 6564 0809 00       		.uleb128 0
 6565 080a E213     		.uleb128 .LEHB369-.LFB1103
 6566 080c 05       		.uleb128 .LEHE369-.LEHB369
 6567 080d 00       		.uleb128 0
 6568 080e 00       		.uleb128 0
 6569 080f FA13     		.uleb128 .LEHB370-.LFB1103
 6570 0811 05       		.uleb128 .LEHE370-.LEHB370
 6571 0812 00       		.uleb128 0
 6572 0813 00       		.uleb128 0
 6573 0814 8914     		.uleb128 .LEHB371-.LFB1103
 6574 0816 3A       		.uleb128 .LEHE371-.LEHB371
 6575 0817 CD14     		.uleb128 .L498-.LFB1103
 6576 0819 00       		.uleb128 0
 6577 081a C314     		.uleb128 .LEHB372-.LFB1103
 6578 081c 05       		.uleb128 .LEHE372-.LEHB372
 6579 081d 00       		.uleb128 0
 6580 081e 00       		.uleb128 0
 6581 081f DB14     		.uleb128 .LEHB373-.LFB1103
 6582 0821 05       		.uleb128 .LEHE373-.LEHB373
 6583 0822 00       		.uleb128 0
 6584 0823 00       		.uleb128 0
 6585 0824 EA14     		.uleb128 .LEHB374-.LFB1103
 6586 0826 3A       		.uleb128 .LEHE374-.LEHB374
 6587 0827 AB15     		.uleb128 .L501-.LFB1103
 6588 0829 00       		.uleb128 0
 6589 082a A415     		.uleb128 .LEHB375-.LFB1103
 6590 082c 05       		.uleb128 .LEHE375-.LEHB375
 6591 082d 00       		.uleb128 0
 6592 082e 00       		.uleb128 0
 6593 082f B915     		.uleb128 .LEHB376-.LFB1103
 6594 0831 05       		.uleb128 .LEHE376-.LEHB376
 6595 0832 00       		.uleb128 0
 6596 0833 00       		.uleb128 0
 6597              	.LLSDACSE1103:
 6598 0834 01       		.byte	0x1
 6599 0835 00       		.byte	0
 6600 0836 00       		.byte	0
 6601 0837 7D       		.byte	0x7d
 6602              		.align 4
 6603 0838 00000000 		.long	0
 6604              	
 6605              	.LLSDATT1103:
 6606              		.text
 6608              		.section	.rodata
 6609              	.LC47:
 6610 08e9 436F6E76 		.string	"Conv_testGetHexLowerNibble"
 6610      5F746573 
 6610      74476574 
 6610      4865784C 
 6610      6F776572 
 6611              		.section	.text._ZN30TestConv_testGetHexLowerNibbleC2Ev,"axG",@progbits,_ZN30TestConv_testGetHexLow
 6612              		.align 2
 6613              		.weak	_ZN30TestConv_testGetHexLowerNibbleC2Ev
 6615              	_ZN30TestConv_testGetHexLowerNibbleC2Ev:
 6616              	.LFB1105:
 129:testConv.cpp  **** 
 130:testConv.cpp  **** TEST(Conv_testGetHexLowerNibble) {
 6617              		.loc 3 130 0
 6618              		.cfi_startproc
 6619 0000 55       		pushq	%rbp
 6620              		.cfi_def_cfa_offset 16
 6621              		.cfi_offset 6, -16
 6622 0001 4889E5   		movq	%rsp, %rbp
 6623              		.cfi_def_cfa_register 6
 6624 0004 53       		pushq	%rbx
 6625 0005 4883EC18 		subq	$24, %rsp
 6626              		.cfi_offset 3, -24
 6627 0009 48897DE8 		movq	%rdi, -24(%rbp)
 6628              	.LBB7:
 6629              		.loc 3 130 0
 6630 000d 488B5DE8 		movq	-24(%rbp), %rbx
 6631 0011 E8000000 		call	_ZN13UnitTestSuite12GetSuiteNameEv
 6631      00
 6632 0016 41B88200 		movl	$130, %r8d
 6632      0000
 6633 001c 488D0D00 		leaq	.LC1(%rip), %rcx
 6633      000000
 6634 0023 4889C2   		movq	%rax, %rdx
 6635 0026 488D3500 		leaq	.LC47(%rip), %rsi
 6635      000000
 6636 002d 4889DF   		movq	%rbx, %rdi
 6637 0030 E8000000 		call	_ZN8UnitTest4TestC2EPKcS2_S2_i@PLT
 6637      00
 6638 0035 488D1500 		leaq	16+_ZTV30TestConv_testGetHexLowerNibble(%rip), %rdx
 6638      000000
 6639 003c 488B45E8 		movq	-24(%rbp), %rax
 6640 0040 488910   		movq	%rdx, (%rax)
 6641              	.LBE7:
 6642 0043 90       		nop
 6643 0044 4883C418 		addq	$24, %rsp
 6644 0048 5B       		popq	%rbx
 6645 0049 5D       		popq	%rbp
 6646              		.cfi_def_cfa 7, 8
 6647 004a C3       		ret
 6648              		.cfi_endproc
 6649              	.LFE1105:
 6651              		.weak	_ZN30TestConv_testGetHexLowerNibbleC1Ev
 6652              		.set	_ZN30TestConv_testGetHexLowerNibbleC1Ev,_ZN30TestConv_testGetHexLowerNibbleC2Ev
 6653              		.globl	testConv_testGetHexLowerNibbleInstance
 6654              		.bss
 6655 00b9 00000000 		.align 32
 6655      000000
 6658              	testConv_testGetHexLowerNibbleInstance:
 6659 00c0 00000000 		.zero	56
 6659      00000000 
 6659      00000000 
 6659      00000000 
 6659      00000000 
 6660              		.globl	adderConv_testGetHexLowerNibble
 6663              	adderConv_testGetHexLowerNibble:
 6664 00f8 00       		.zero	1
 6665              		.section	.rodata
 6666 0904 00000000 		.align 8
 6667              	.LC48:
 6668 0908 556E6861 		.string	"Unhandled exception in CHECK_EQUAL('0', getHexLowerNibble(0xF0))"
 6668      6E646C65 
 6668      64206578 
 6668      63657074 
 6668      696F6E20 
 6669 0949 00000000 		.align 8
 6669      000000
 6670              	.LC49:
 6671 0950 556E6861 		.string	"Unhandled exception in CHECK_EQUAL('1', getHexLowerNibble(0xF1))"
 6671      6E646C65 
 6671      64206578 
 6671      63657074 
 6671      696F6E20 
 6672 0991 00000000 		.align 8
 6672      000000
 6673              	.LC50:
 6674 0998 556E6861 		.string	"Unhandled exception in CHECK_EQUAL('2', getHexLowerNibble(0xF2))"
 6674      6E646C65 
 6674      64206578 
 6674      63657074 
 6674      696F6E20 
 6675 09d9 00000000 		.align 8
 6675      000000
 6676              	.LC51:
 6677 09e0 556E6861 		.string	"Unhandled exception in CHECK_EQUAL('3', getHexLowerNibble(0xF3))"
 6677      6E646C65 
 6677      64206578 
 6677      63657074 
 6677      696F6E20 
 6678 0a21 00000000 		.align 8
 6678      000000
 6679              	.LC52:
 6680 0a28 556E6861 		.string	"Unhandled exception in CHECK_EQUAL('4', getHexLowerNibble(0xF4))"
 6680      6E646C65 
 6680      64206578 
 6680      63657074 
 6680      696F6E20 
 6681 0a69 00000000 		.align 8
 6681      000000
 6682              	.LC53:
 6683 0a70 556E6861 		.string	"Unhandled exception in CHECK_EQUAL('5', getHexLowerNibble(0xF5))"
 6683      6E646C65 
 6683      64206578 
 6683      63657074 
 6683      696F6E20 
 6684 0ab1 00000000 		.align 8
 6684      000000
 6685              	.LC54:
 6686 0ab8 556E6861 		.string	"Unhandled exception in CHECK_EQUAL('6', getHexLowerNibble(0xF6))"
 6686      6E646C65 
 6686      64206578 
 6686      63657074 
 6686      696F6E20 
 6687 0af9 00000000 		.align 8
 6687      000000
 6688              	.LC55:
 6689 0b00 556E6861 		.string	"Unhandled exception in CHECK_EQUAL('7', getHexLowerNibble(0xF7))"
 6689      6E646C65 
 6689      64206578 
 6689      63657074 
 6689      696F6E20 
 6690 0b41 00000000 		.align 8
 6690      000000
 6691              	.LC56:
 6692 0b48 556E6861 		.string	"Unhandled exception in CHECK_EQUAL('8', getHexLowerNibble(0xF8))"
 6692      6E646C65 
 6692      64206578 
 6692      63657074 
 6692      696F6E20 
 6693 0b89 00000000 		.align 8
 6693      000000
 6694              	.LC57:
 6695 0b90 556E6861 		.string	"Unhandled exception in CHECK_EQUAL('9', getHexLowerNibble(0xF9))"
 6695      6E646C65 
 6695      64206578 
 6695      63657074 
 6695      696F6E20 
 6696 0bd1 00000000 		.align 8
 6696      000000
 6697              	.LC58:
 6698 0bd8 556E6861 		.string	"Unhandled exception in CHECK_EQUAL('A', getHexLowerNibble(0xFA))"
 6698      6E646C65 
 6698      64206578 
 6698      63657074 
 6698      696F6E20 
 6699 0c19 00000000 		.align 8
 6699      000000
 6700              	.LC59:
 6701 0c20 556E6861 		.string	"Unhandled exception in CHECK_EQUAL('B', getHexLowerNibble(0xFB))"
 6701      6E646C65 
 6701      64206578 
 6701      63657074 
 6701      696F6E20 
 6702 0c61 00000000 		.align 8
 6702      000000
 6703              	.LC60:
 6704 0c68 556E6861 		.string	"Unhandled exception in CHECK_EQUAL('C', getHexLowerNibble(0xFC))"
 6704      6E646C65 
 6704      64206578 
 6704      63657074 
 6704      696F6E20 
 6705 0ca9 00000000 		.align 8
 6705      000000
 6706              	.LC61:
 6707 0cb0 556E6861 		.string	"Unhandled exception in CHECK_EQUAL('D', getHexLowerNibble(0xFD))"
 6707      6E646C65 
 6707      64206578 
 6707      63657074 
 6707      696F6E20 
 6708 0cf1 00000000 		.align 8
 6708      000000
 6709              	.LC62:
 6710 0cf8 556E6861 		.string	"Unhandled exception in CHECK_EQUAL('E', getHexLowerNibble(0xFE))"
 6710      6E646C65 
 6710      64206578 
 6710      63657074 
 6710      696F6E20 
 6711 0d39 00000000 		.align 8
 6711      000000
 6712              	.LC63:
 6713 0d40 556E6861 		.string	"Unhandled exception in CHECK_EQUAL('F', getHexLowerNibble(0xFF))"
 6713      6E646C65 
 6713      64206578 
 6713      63657074 
 6713      696F6E20 
 6714              		.text
 6715 2e51 90       		.align 2
 6716              		.globl	_ZNK30TestConv_testGetHexLowerNibble7RunImplEv
 6718              	_ZNK30TestConv_testGetHexLowerNibble7RunImplEv:
 6719              	.LFB1107:
 6720              		.loc 3 130 0
 6721              		.cfi_startproc
 6722              		.cfi_personality 0x9b,DW.ref.__gxx_personality_v0
 6723              		.cfi_lsda 0x1b,.LLSDA1107
 6724 2e52 55       		pushq	%rbp
 6725              		.cfi_def_cfa_offset 16
 6726              		.cfi_offset 6, -16
 6727 2e53 4889E5   		movq	%rsp, %rbp
 6728              		.cfi_def_cfa_register 6
 6729 2e56 53       		pushq	%rbx
 6730 2e57 4883EC58 		subq	$88, %rsp
 6731              		.cfi_offset 3, -24
 6732 2e5b 48897DA8 		movq	%rdi, -88(%rbp)
 6733              		.loc 3 130 0
 6734 2e5f 64488B04 		movq	%fs:40, %rax
 6734      25280000 
 6734      00
 6735 2e68 488945E8 		movq	%rax, -24(%rbp)
 6736 2e6c 31C0     		xorl	%eax, %eax
 6737              	.LEHB377:
 131:testConv.cpp  **** 	CHECK_EQUAL('0', getHexLowerNibble(0xF0));
 6738              		.loc 3 131 0
 6739 2e6e E8000000 		call	_ZN8UnitTest11CurrentTest7DetailsEv@PLT
 6739      00
 6740 2e73 488B08   		movq	(%rax), %rcx
 6741 2e76 488D45C0 		leaq	-64(%rbp), %rax
 6742 2e7a BA830000 		movl	$131, %edx
 6742      00
 6743 2e7f 4889CE   		movq	%rcx, %rsi
 6744 2e82 4889C7   		movq	%rax, %rdi
 6745 2e85 E8000000 		call	_ZN8UnitTest11TestDetailsC1ERKS0_i@PLT
 6745      00
 6746              		.loc 3 131 0 is_stmt 0 discriminator 2
 6747 2e8a BFF00000 		movl	$240, %edi
 6747      00
 6748 2e8f E8000000 		call	getHexLowerNibble@PLT
 6748      00
 6749              	.LEHE377:
 6750 2e94 8845BF   		movb	%al, -65(%rbp)
 6751 2e97 C645BE30 		movb	$48, -66(%rbp)
 6752              	.LEHB378:
 6753 2e9b E8000000 		call	_ZN8UnitTest11CurrentTest7ResultsEv@PLT
 6753      00
 6754              		.loc 3 131 0 discriminator 4
 6755 2ea0 488B00   		movq	(%rax), %rax
 6756 2ea3 488D4DC0 		leaq	-64(%rbp), %rcx
 6757 2ea7 488D55BF 		leaq	-65(%rbp), %rdx
 6758 2eab 488D75BE 		leaq	-66(%rbp), %rsi
 6759 2eaf 4889C7   		movq	%rax, %rdi
 6760 2eb2 E8000000 		call	_ZN8UnitTest10CheckEqualIccEEvRNS_11TestResultsERKT_RKT0_RKNS_11TestDetailsE
 6760      00
 6761              	.LEHE378:
 6762              	.L506:
 6763              	.LEHB379:
 132:testConv.cpp  **** 	CHECK_EQUAL('1', getHexLowerNibble(0xF1));
 6764              		.loc 3 132 0 is_stmt 1
 6765 2eb7 E8000000 		call	_ZN8UnitTest11CurrentTest7DetailsEv@PLT
 6765      00
 6766 2ebc 488B08   		movq	(%rax), %rcx
 6767 2ebf 488D45C0 		leaq	-64(%rbp), %rax
 6768 2ec3 BA840000 		movl	$132, %edx
 6768      00
 6769 2ec8 4889CE   		movq	%rcx, %rsi
 6770 2ecb 4889C7   		movq	%rax, %rdi
 6771 2ece E8000000 		call	_ZN8UnitTest11TestDetailsC1ERKS0_i@PLT
 6771      00
 6772              		.loc 3 132 0 is_stmt 0 discriminator 2
 6773 2ed3 BFF10000 		movl	$241, %edi
 6773      00
 6774 2ed8 E8000000 		call	getHexLowerNibble@PLT
 6774      00
 6775              	.LEHE379:
 6776 2edd 8845BF   		movb	%al, -65(%rbp)
 6777 2ee0 C645BE31 		movb	$49, -66(%rbp)
 6778              	.LEHB380:
 6779 2ee4 E8000000 		call	_ZN8UnitTest11CurrentTest7ResultsEv@PLT
 6779      00
 6780              		.loc 3 132 0 discriminator 4
 6781 2ee9 488B00   		movq	(%rax), %rax
 6782 2eec 488D4DC0 		leaq	-64(%rbp), %rcx
 6783 2ef0 488D55BF 		leaq	-65(%rbp), %rdx
 6784 2ef4 488D75BE 		leaq	-66(%rbp), %rsi
 6785 2ef8 4889C7   		movq	%rax, %rdi
 6786 2efb E8000000 		call	_ZN8UnitTest10CheckEqualIccEEvRNS_11TestResultsERKT_RKT0_RKNS_11TestDetailsE
 6786      00
 6787              	.LEHE380:
 6788              	.L510:
 6789              	.LEHB381:
 133:testConv.cpp  **** 	CHECK_EQUAL('2', getHexLowerNibble(0xF2));
 6790              		.loc 3 133 0 is_stmt 1
 6791 2f00 E8000000 		call	_ZN8UnitTest11CurrentTest7DetailsEv@PLT
 6791      00
 6792 2f05 488B08   		movq	(%rax), %rcx
 6793 2f08 488D45C0 		leaq	-64(%rbp), %rax
 6794 2f0c BA850000 		movl	$133, %edx
 6794      00
 6795 2f11 4889CE   		movq	%rcx, %rsi
 6796 2f14 4889C7   		movq	%rax, %rdi
 6797 2f17 E8000000 		call	_ZN8UnitTest11TestDetailsC1ERKS0_i@PLT
 6797      00
 6798              		.loc 3 133 0 is_stmt 0 discriminator 2
 6799 2f1c BFF20000 		movl	$242, %edi
 6799      00
 6800 2f21 E8000000 		call	getHexLowerNibble@PLT
 6800      00
 6801              	.LEHE381:
 6802 2f26 8845BF   		movb	%al, -65(%rbp)
 6803 2f29 C645BE32 		movb	$50, -66(%rbp)
 6804              	.LEHB382:
 6805 2f2d E8000000 		call	_ZN8UnitTest11CurrentTest7ResultsEv@PLT
 6805      00
 6806              		.loc 3 133 0 discriminator 4
 6807 2f32 488B00   		movq	(%rax), %rax
 6808 2f35 488D4DC0 		leaq	-64(%rbp), %rcx
 6809 2f39 488D55BF 		leaq	-65(%rbp), %rdx
 6810 2f3d 488D75BE 		leaq	-66(%rbp), %rsi
 6811 2f41 4889C7   		movq	%rax, %rdi
 6812 2f44 E8000000 		call	_ZN8UnitTest10CheckEqualIccEEvRNS_11TestResultsERKT_RKT0_RKNS_11TestDetailsE
 6812      00
 6813              	.LEHE382:
 6814              	.L514:
 6815              	.LEHB383:
 134:testConv.cpp  **** 	CHECK_EQUAL('3', getHexLowerNibble(0xF3));
 6816              		.loc 3 134 0 is_stmt 1
 6817 2f49 E8000000 		call	_ZN8UnitTest11CurrentTest7DetailsEv@PLT
 6817      00
 6818 2f4e 488B08   		movq	(%rax), %rcx
 6819 2f51 488D45C0 		leaq	-64(%rbp), %rax
 6820 2f55 BA860000 		movl	$134, %edx
 6820      00
 6821 2f5a 4889CE   		movq	%rcx, %rsi
 6822 2f5d 4889C7   		movq	%rax, %rdi
 6823 2f60 E8000000 		call	_ZN8UnitTest11TestDetailsC1ERKS0_i@PLT
 6823      00
 6824              		.loc 3 134 0 is_stmt 0 discriminator 2
 6825 2f65 BFF30000 		movl	$243, %edi
 6825      00
 6826 2f6a E8000000 		call	getHexLowerNibble@PLT
 6826      00
 6827              	.LEHE383:
 6828 2f6f 8845BF   		movb	%al, -65(%rbp)
 6829 2f72 C645BE33 		movb	$51, -66(%rbp)
 6830              	.LEHB384:
 6831 2f76 E8000000 		call	_ZN8UnitTest11CurrentTest7ResultsEv@PLT
 6831      00
 6832              		.loc 3 134 0 discriminator 4
 6833 2f7b 488B00   		movq	(%rax), %rax
 6834 2f7e 488D4DC0 		leaq	-64(%rbp), %rcx
 6835 2f82 488D55BF 		leaq	-65(%rbp), %rdx
 6836 2f86 488D75BE 		leaq	-66(%rbp), %rsi
 6837 2f8a 4889C7   		movq	%rax, %rdi
 6838 2f8d E8000000 		call	_ZN8UnitTest10CheckEqualIccEEvRNS_11TestResultsERKT_RKT0_RKNS_11TestDetailsE
 6838      00
 6839              	.LEHE384:
 6840              	.L518:
 6841              	.LEHB385:
 135:testConv.cpp  **** 	CHECK_EQUAL('4', getHexLowerNibble(0xF4));
 6842              		.loc 3 135 0 is_stmt 1
 6843 2f92 E8000000 		call	_ZN8UnitTest11CurrentTest7DetailsEv@PLT
 6843      00
 6844 2f97 488B08   		movq	(%rax), %rcx
 6845 2f9a 488D45C0 		leaq	-64(%rbp), %rax
 6846 2f9e BA870000 		movl	$135, %edx
 6846      00
 6847 2fa3 4889CE   		movq	%rcx, %rsi
 6848 2fa6 4889C7   		movq	%rax, %rdi
 6849 2fa9 E8000000 		call	_ZN8UnitTest11TestDetailsC1ERKS0_i@PLT
 6849      00
 6850              		.loc 3 135 0 is_stmt 0 discriminator 2
 6851 2fae BFF40000 		movl	$244, %edi
 6851      00
 6852 2fb3 E8000000 		call	getHexLowerNibble@PLT
 6852      00
 6853              	.LEHE385:
 6854 2fb8 8845BF   		movb	%al, -65(%rbp)
 6855 2fbb C645BE34 		movb	$52, -66(%rbp)
 6856              	.LEHB386:
 6857 2fbf E8000000 		call	_ZN8UnitTest11CurrentTest7ResultsEv@PLT
 6857      00
 6858              		.loc 3 135 0 discriminator 4
 6859 2fc4 488B00   		movq	(%rax), %rax
 6860 2fc7 488D4DC0 		leaq	-64(%rbp), %rcx
 6861 2fcb 488D55BF 		leaq	-65(%rbp), %rdx
 6862 2fcf 488D75BE 		leaq	-66(%rbp), %rsi
 6863 2fd3 4889C7   		movq	%rax, %rdi
 6864 2fd6 E8000000 		call	_ZN8UnitTest10CheckEqualIccEEvRNS_11TestResultsERKT_RKT0_RKNS_11TestDetailsE
 6864      00
 6865              	.LEHE386:
 6866              	.L522:
 6867              	.LEHB387:
 136:testConv.cpp  **** 	CHECK_EQUAL('5', getHexLowerNibble(0xF5));
 6868              		.loc 3 136 0 is_stmt 1
 6869 2fdb E8000000 		call	_ZN8UnitTest11CurrentTest7DetailsEv@PLT
 6869      00
 6870 2fe0 488B08   		movq	(%rax), %rcx
 6871 2fe3 488D45C0 		leaq	-64(%rbp), %rax
 6872 2fe7 BA880000 		movl	$136, %edx
 6872      00
 6873 2fec 4889CE   		movq	%rcx, %rsi
 6874 2fef 4889C7   		movq	%rax, %rdi
 6875 2ff2 E8000000 		call	_ZN8UnitTest11TestDetailsC1ERKS0_i@PLT
 6875      00
 6876              		.loc 3 136 0 is_stmt 0 discriminator 2
 6877 2ff7 BFF50000 		movl	$245, %edi
 6877      00
 6878 2ffc E8000000 		call	getHexLowerNibble@PLT
 6878      00
 6879              	.LEHE387:
 6880 3001 8845BF   		movb	%al, -65(%rbp)
 6881 3004 C645BE35 		movb	$53, -66(%rbp)
 6882              	.LEHB388:
 6883 3008 E8000000 		call	_ZN8UnitTest11CurrentTest7ResultsEv@PLT
 6883      00
 6884              		.loc 3 136 0 discriminator 4
 6885 300d 488B00   		movq	(%rax), %rax
 6886 3010 488D4DC0 		leaq	-64(%rbp), %rcx
 6887 3014 488D55BF 		leaq	-65(%rbp), %rdx
 6888 3018 488D75BE 		leaq	-66(%rbp), %rsi
 6889 301c 4889C7   		movq	%rax, %rdi
 6890 301f E8000000 		call	_ZN8UnitTest10CheckEqualIccEEvRNS_11TestResultsERKT_RKT0_RKNS_11TestDetailsE
 6890      00
 6891              	.LEHE388:
 6892              	.L526:
 6893              	.LEHB389:
 137:testConv.cpp  **** 	CHECK_EQUAL('6', getHexLowerNibble(0xF6));
 6894              		.loc 3 137 0 is_stmt 1
 6895 3024 E8000000 		call	_ZN8UnitTest11CurrentTest7DetailsEv@PLT
 6895      00
 6896 3029 488B08   		movq	(%rax), %rcx
 6897 302c 488D45C0 		leaq	-64(%rbp), %rax
 6898 3030 BA890000 		movl	$137, %edx
 6898      00
 6899 3035 4889CE   		movq	%rcx, %rsi
 6900 3038 4889C7   		movq	%rax, %rdi
 6901 303b E8000000 		call	_ZN8UnitTest11TestDetailsC1ERKS0_i@PLT
 6901      00
 6902              		.loc 3 137 0 is_stmt 0 discriminator 2
 6903 3040 BFF60000 		movl	$246, %edi
 6903      00
 6904 3045 E8000000 		call	getHexLowerNibble@PLT
 6904      00
 6905              	.LEHE389:
 6906 304a 8845BF   		movb	%al, -65(%rbp)
 6907 304d C645BE36 		movb	$54, -66(%rbp)
 6908              	.LEHB390:
 6909 3051 E8000000 		call	_ZN8UnitTest11CurrentTest7ResultsEv@PLT
 6909      00
 6910              		.loc 3 137 0 discriminator 4
 6911 3056 488B00   		movq	(%rax), %rax
 6912 3059 488D4DC0 		leaq	-64(%rbp), %rcx
 6913 305d 488D55BF 		leaq	-65(%rbp), %rdx
 6914 3061 488D75BE 		leaq	-66(%rbp), %rsi
 6915 3065 4889C7   		movq	%rax, %rdi
 6916 3068 E8000000 		call	_ZN8UnitTest10CheckEqualIccEEvRNS_11TestResultsERKT_RKT0_RKNS_11TestDetailsE
 6916      00
 6917              	.LEHE390:
 6918              	.L530:
 6919              	.LEHB391:
 138:testConv.cpp  **** 	CHECK_EQUAL('7', getHexLowerNibble(0xF7));
 6920              		.loc 3 138 0 is_stmt 1
 6921 306d E8000000 		call	_ZN8UnitTest11CurrentTest7DetailsEv@PLT
 6921      00
 6922 3072 488B08   		movq	(%rax), %rcx
 6923 3075 488D45C0 		leaq	-64(%rbp), %rax
 6924 3079 BA8A0000 		movl	$138, %edx
 6924      00
 6925 307e 4889CE   		movq	%rcx, %rsi
 6926 3081 4889C7   		movq	%rax, %rdi
 6927 3084 E8000000 		call	_ZN8UnitTest11TestDetailsC1ERKS0_i@PLT
 6927      00
 6928              		.loc 3 138 0 is_stmt 0 discriminator 2
 6929 3089 BFF70000 		movl	$247, %edi
 6929      00
 6930 308e E8000000 		call	getHexLowerNibble@PLT
 6930      00
 6931              	.LEHE391:
 6932 3093 8845BF   		movb	%al, -65(%rbp)
 6933 3096 C645BE37 		movb	$55, -66(%rbp)
 6934              	.LEHB392:
 6935 309a E8000000 		call	_ZN8UnitTest11CurrentTest7ResultsEv@PLT
 6935      00
 6936              		.loc 3 138 0 discriminator 4
 6937 309f 488B00   		movq	(%rax), %rax
 6938 30a2 488D4DC0 		leaq	-64(%rbp), %rcx
 6939 30a6 488D55BF 		leaq	-65(%rbp), %rdx
 6940 30aa 488D75BE 		leaq	-66(%rbp), %rsi
 6941 30ae 4889C7   		movq	%rax, %rdi
 6942 30b1 E8000000 		call	_ZN8UnitTest10CheckEqualIccEEvRNS_11TestResultsERKT_RKT0_RKNS_11TestDetailsE
 6942      00
 6943              	.LEHE392:
 6944              	.L534:
 6945              	.LEHB393:
 139:testConv.cpp  **** 	CHECK_EQUAL('8', getHexLowerNibble(0xF8));
 6946              		.loc 3 139 0 is_stmt 1
 6947 30b6 E8000000 		call	_ZN8UnitTest11CurrentTest7DetailsEv@PLT
 6947      00
 6948 30bb 488B08   		movq	(%rax), %rcx
 6949 30be 488D45C0 		leaq	-64(%rbp), %rax
 6950 30c2 BA8B0000 		movl	$139, %edx
 6950      00
 6951 30c7 4889CE   		movq	%rcx, %rsi
 6952 30ca 4889C7   		movq	%rax, %rdi
 6953 30cd E8000000 		call	_ZN8UnitTest11TestDetailsC1ERKS0_i@PLT
 6953      00
 6954              		.loc 3 139 0 is_stmt 0 discriminator 2
 6955 30d2 BFF80000 		movl	$248, %edi
 6955      00
 6956 30d7 E8000000 		call	getHexLowerNibble@PLT
 6956      00
 6957              	.LEHE393:
 6958 30dc 8845BF   		movb	%al, -65(%rbp)
 6959 30df C645BE38 		movb	$56, -66(%rbp)
 6960              	.LEHB394:
 6961 30e3 E8000000 		call	_ZN8UnitTest11CurrentTest7ResultsEv@PLT
 6961      00
 6962              		.loc 3 139 0 discriminator 4
 6963 30e8 488B00   		movq	(%rax), %rax
 6964 30eb 488D4DC0 		leaq	-64(%rbp), %rcx
 6965 30ef 488D55BF 		leaq	-65(%rbp), %rdx
 6966 30f3 488D75BE 		leaq	-66(%rbp), %rsi
 6967 30f7 4889C7   		movq	%rax, %rdi
 6968 30fa E8000000 		call	_ZN8UnitTest10CheckEqualIccEEvRNS_11TestResultsERKT_RKT0_RKNS_11TestDetailsE
 6968      00
 6969              	.LEHE394:
 6970              	.L538:
 6971              	.LEHB395:
 140:testConv.cpp  **** 	CHECK_EQUAL('9', getHexLowerNibble(0xF9));
 6972              		.loc 3 140 0 is_stmt 1
 6973 30ff E8000000 		call	_ZN8UnitTest11CurrentTest7DetailsEv@PLT
 6973      00
 6974 3104 488B08   		movq	(%rax), %rcx
 6975 3107 488D45C0 		leaq	-64(%rbp), %rax
 6976 310b BA8C0000 		movl	$140, %edx
 6976      00
 6977 3110 4889CE   		movq	%rcx, %rsi
 6978 3113 4889C7   		movq	%rax, %rdi
 6979 3116 E8000000 		call	_ZN8UnitTest11TestDetailsC1ERKS0_i@PLT
 6979      00
 6980              		.loc 3 140 0 is_stmt 0 discriminator 2
 6981 311b BFF90000 		movl	$249, %edi
 6981      00
 6982 3120 E8000000 		call	getHexLowerNibble@PLT
 6982      00
 6983              	.LEHE395:
 6984 3125 8845BF   		movb	%al, -65(%rbp)
 6985 3128 C645BE39 		movb	$57, -66(%rbp)
 6986              	.LEHB396:
 6987 312c E8000000 		call	_ZN8UnitTest11CurrentTest7ResultsEv@PLT
 6987      00
 6988              		.loc 3 140 0 discriminator 4
 6989 3131 488B00   		movq	(%rax), %rax
 6990 3134 488D4DC0 		leaq	-64(%rbp), %rcx
 6991 3138 488D55BF 		leaq	-65(%rbp), %rdx
 6992 313c 488D75BE 		leaq	-66(%rbp), %rsi
 6993 3140 4889C7   		movq	%rax, %rdi
 6994 3143 E8000000 		call	_ZN8UnitTest10CheckEqualIccEEvRNS_11TestResultsERKT_RKT0_RKNS_11TestDetailsE
 6994      00
 6995              	.LEHE396:
 6996              	.L542:
 6997              	.LEHB397:
 141:testConv.cpp  **** 	CHECK_EQUAL('A', getHexLowerNibble(0xFA));
 6998              		.loc 3 141 0 is_stmt 1
 6999 3148 E8000000 		call	_ZN8UnitTest11CurrentTest7DetailsEv@PLT
 6999      00
 7000 314d 488B08   		movq	(%rax), %rcx
 7001 3150 488D45C0 		leaq	-64(%rbp), %rax
 7002 3154 BA8D0000 		movl	$141, %edx
 7002      00
 7003 3159 4889CE   		movq	%rcx, %rsi
 7004 315c 4889C7   		movq	%rax, %rdi
 7005 315f E8000000 		call	_ZN8UnitTest11TestDetailsC1ERKS0_i@PLT
 7005      00
 7006              		.loc 3 141 0 is_stmt 0 discriminator 2
 7007 3164 BFFA0000 		movl	$250, %edi
 7007      00
 7008 3169 E8000000 		call	getHexLowerNibble@PLT
 7008      00
 7009              	.LEHE397:
 7010 316e 8845BF   		movb	%al, -65(%rbp)
 7011 3171 C645BE41 		movb	$65, -66(%rbp)
 7012              	.LEHB398:
 7013 3175 E8000000 		call	_ZN8UnitTest11CurrentTest7ResultsEv@PLT
 7013      00
 7014              		.loc 3 141 0 discriminator 4
 7015 317a 488B00   		movq	(%rax), %rax
 7016 317d 488D4DC0 		leaq	-64(%rbp), %rcx
 7017 3181 488D55BF 		leaq	-65(%rbp), %rdx
 7018 3185 488D75BE 		leaq	-66(%rbp), %rsi
 7019 3189 4889C7   		movq	%rax, %rdi
 7020 318c E8000000 		call	_ZN8UnitTest10CheckEqualIccEEvRNS_11TestResultsERKT_RKT0_RKNS_11TestDetailsE
 7020      00
 7021              	.LEHE398:
 7022              	.L546:
 7023              	.LEHB399:
 142:testConv.cpp  **** 	CHECK_EQUAL('B', getHexLowerNibble(0xFB));
 7024              		.loc 3 142 0 is_stmt 1
 7025 3191 E8000000 		call	_ZN8UnitTest11CurrentTest7DetailsEv@PLT
 7025      00
 7026 3196 488B08   		movq	(%rax), %rcx
 7027 3199 488D45C0 		leaq	-64(%rbp), %rax
 7028 319d BA8E0000 		movl	$142, %edx
 7028      00
 7029 31a2 4889CE   		movq	%rcx, %rsi
 7030 31a5 4889C7   		movq	%rax, %rdi
 7031 31a8 E8000000 		call	_ZN8UnitTest11TestDetailsC1ERKS0_i@PLT
 7031      00
 7032              		.loc 3 142 0 is_stmt 0 discriminator 2
 7033 31ad BFFB0000 		movl	$251, %edi
 7033      00
 7034 31b2 E8000000 		call	getHexLowerNibble@PLT
 7034      00
 7035              	.LEHE399:
 7036 31b7 8845BF   		movb	%al, -65(%rbp)
 7037 31ba C645BE42 		movb	$66, -66(%rbp)
 7038              	.LEHB400:
 7039 31be E8000000 		call	_ZN8UnitTest11CurrentTest7ResultsEv@PLT
 7039      00
 7040              		.loc 3 142 0 discriminator 4
 7041 31c3 488B00   		movq	(%rax), %rax
 7042 31c6 488D4DC0 		leaq	-64(%rbp), %rcx
 7043 31ca 488D55BF 		leaq	-65(%rbp), %rdx
 7044 31ce 488D75BE 		leaq	-66(%rbp), %rsi
 7045 31d2 4889C7   		movq	%rax, %rdi
 7046 31d5 E8000000 		call	_ZN8UnitTest10CheckEqualIccEEvRNS_11TestResultsERKT_RKT0_RKNS_11TestDetailsE
 7046      00
 7047              	.LEHE400:
 7048              	.L550:
 7049              	.LEHB401:
 143:testConv.cpp  **** 	CHECK_EQUAL('C', getHexLowerNibble(0xFC));
 7050              		.loc 3 143 0 is_stmt 1
 7051 31da E8000000 		call	_ZN8UnitTest11CurrentTest7DetailsEv@PLT
 7051      00
 7052 31df 488B08   		movq	(%rax), %rcx
 7053 31e2 488D45C0 		leaq	-64(%rbp), %rax
 7054 31e6 BA8F0000 		movl	$143, %edx
 7054      00
 7055 31eb 4889CE   		movq	%rcx, %rsi
 7056 31ee 4889C7   		movq	%rax, %rdi
 7057 31f1 E8000000 		call	_ZN8UnitTest11TestDetailsC1ERKS0_i@PLT
 7057      00
 7058              		.loc 3 143 0 is_stmt 0 discriminator 2
 7059 31f6 BFFC0000 		movl	$252, %edi
 7059      00
 7060 31fb E8000000 		call	getHexLowerNibble@PLT
 7060      00
 7061              	.LEHE401:
 7062 3200 8845BF   		movb	%al, -65(%rbp)
 7063 3203 C645BE43 		movb	$67, -66(%rbp)
 7064              	.LEHB402:
 7065 3207 E8000000 		call	_ZN8UnitTest11CurrentTest7ResultsEv@PLT
 7065      00
 7066              		.loc 3 143 0 discriminator 4
 7067 320c 488B00   		movq	(%rax), %rax
 7068 320f 488D4DC0 		leaq	-64(%rbp), %rcx
 7069 3213 488D55BF 		leaq	-65(%rbp), %rdx
 7070 3217 488D75BE 		leaq	-66(%rbp), %rsi
 7071 321b 4889C7   		movq	%rax, %rdi
 7072 321e E8000000 		call	_ZN8UnitTest10CheckEqualIccEEvRNS_11TestResultsERKT_RKT0_RKNS_11TestDetailsE
 7072      00
 7073              	.LEHE402:
 7074              	.L554:
 7075              	.LEHB403:
 144:testConv.cpp  **** 	CHECK_EQUAL('D', getHexLowerNibble(0xFD));
 7076              		.loc 3 144 0 is_stmt 1
 7077 3223 E8000000 		call	_ZN8UnitTest11CurrentTest7DetailsEv@PLT
 7077      00
 7078 3228 488B08   		movq	(%rax), %rcx
 7079 322b 488D45C0 		leaq	-64(%rbp), %rax
 7080 322f BA900000 		movl	$144, %edx
 7080      00
 7081 3234 4889CE   		movq	%rcx, %rsi
 7082 3237 4889C7   		movq	%rax, %rdi
 7083 323a E8000000 		call	_ZN8UnitTest11TestDetailsC1ERKS0_i@PLT
 7083      00
 7084              		.loc 3 144 0 is_stmt 0 discriminator 2
 7085 323f BFFD0000 		movl	$253, %edi
 7085      00
 7086 3244 E8000000 		call	getHexLowerNibble@PLT
 7086      00
 7087              	.LEHE403:
 7088 3249 8845BF   		movb	%al, -65(%rbp)
 7089 324c C645BE44 		movb	$68, -66(%rbp)
 7090              	.LEHB404:
 7091 3250 E8000000 		call	_ZN8UnitTest11CurrentTest7ResultsEv@PLT
 7091      00
 7092              		.loc 3 144 0 discriminator 4
 7093 3255 488B00   		movq	(%rax), %rax
 7094 3258 488D4DC0 		leaq	-64(%rbp), %rcx
 7095 325c 488D55BF 		leaq	-65(%rbp), %rdx
 7096 3260 488D75BE 		leaq	-66(%rbp), %rsi
 7097 3264 4889C7   		movq	%rax, %rdi
 7098 3267 E8000000 		call	_ZN8UnitTest10CheckEqualIccEEvRNS_11TestResultsERKT_RKT0_RKNS_11TestDetailsE
 7098      00
 7099              	.LEHE404:
 7100              	.L558:
 7101              	.LEHB405:
 145:testConv.cpp  **** 	CHECK_EQUAL('E', getHexLowerNibble(0xFE));
 7102              		.loc 3 145 0 is_stmt 1
 7103 326c E8000000 		call	_ZN8UnitTest11CurrentTest7DetailsEv@PLT
 7103      00
 7104 3271 488B08   		movq	(%rax), %rcx
 7105 3274 488D45C0 		leaq	-64(%rbp), %rax
 7106 3278 BA910000 		movl	$145, %edx
 7106      00
 7107 327d 4889CE   		movq	%rcx, %rsi
 7108 3280 4889C7   		movq	%rax, %rdi
 7109 3283 E8000000 		call	_ZN8UnitTest11TestDetailsC1ERKS0_i@PLT
 7109      00
 7110              		.loc 3 145 0 is_stmt 0 discriminator 2
 7111 3288 BFFE0000 		movl	$254, %edi
 7111      00
 7112 328d E8000000 		call	getHexLowerNibble@PLT
 7112      00
 7113              	.LEHE405:
 7114 3292 8845BF   		movb	%al, -65(%rbp)
 7115 3295 C645BE45 		movb	$69, -66(%rbp)
 7116              	.LEHB406:
 7117 3299 E8000000 		call	_ZN8UnitTest11CurrentTest7ResultsEv@PLT
 7117      00
 7118              		.loc 3 145 0 discriminator 4
 7119 329e 488B00   		movq	(%rax), %rax
 7120 32a1 488D4DC0 		leaq	-64(%rbp), %rcx
 7121 32a5 488D55BF 		leaq	-65(%rbp), %rdx
 7122 32a9 488D75BE 		leaq	-66(%rbp), %rsi
 7123 32ad 4889C7   		movq	%rax, %rdi
 7124 32b0 E8000000 		call	_ZN8UnitTest10CheckEqualIccEEvRNS_11TestResultsERKT_RKT0_RKNS_11TestDetailsE
 7124      00
 7125              	.LEHE406:
 7126              	.L562:
 7127              	.LEHB407:
 146:testConv.cpp  **** 	CHECK_EQUAL('F', getHexLowerNibble(0xFF));
 7128              		.loc 3 146 0 is_stmt 1
 7129 32b5 E8000000 		call	_ZN8UnitTest11CurrentTest7DetailsEv@PLT
 7129      00
 7130 32ba 488B08   		movq	(%rax), %rcx
 7131 32bd 488D45C0 		leaq	-64(%rbp), %rax
 7132 32c1 BA920000 		movl	$146, %edx
 7132      00
 7133 32c6 4889CE   		movq	%rcx, %rsi
 7134 32c9 4889C7   		movq	%rax, %rdi
 7135 32cc E8000000 		call	_ZN8UnitTest11TestDetailsC1ERKS0_i@PLT
 7135      00
 7136              		.loc 3 146 0 is_stmt 0 discriminator 2
 7137 32d1 BFFF0000 		movl	$255, %edi
 7137      00
 7138 32d6 E8000000 		call	getHexLowerNibble@PLT
 7138      00
 7139              	.LEHE407:
 7140 32db 8845BF   		movb	%al, -65(%rbp)
 7141 32de C645BE46 		movb	$70, -66(%rbp)
 7142              	.LEHB408:
 7143 32e2 E8000000 		call	_ZN8UnitTest11CurrentTest7ResultsEv@PLT
 7143      00
 7144              		.loc 3 146 0 discriminator 4
 7145 32e7 488B00   		movq	(%rax), %rax
 7146 32ea 488D4DC0 		leaq	-64(%rbp), %rcx
 7147 32ee 488D55BF 		leaq	-65(%rbp), %rdx
 7148 32f2 488D75BE 		leaq	-66(%rbp), %rsi
 7149 32f6 4889C7   		movq	%rax, %rdi
 7150 32f9 E8000000 		call	_ZN8UnitTest10CheckEqualIccEEvRNS_11TestResultsERKT_RKT0_RKNS_11TestDetailsE
 7150      00
 7151              	.LEHE408:
 147:testConv.cpp  **** }
 7152              		.loc 3 147 0 is_stmt 1
 7153 32fe E90D0600 		jmp	.L503
 7153      00
 7154              	.L570:
 7155 3303 EB00     		jmp	.L505
 7156              	.L569:
 7157              	.L505:
 131:testConv.cpp  **** 	CHECK_EQUAL('1', getHexLowerNibble(0xF1));
 7158              		.loc 3 131 0
 7159 3305 4889C7   		movq	%rax, %rdi
 7160 3308 E8000000 		call	__cxa_begin_catch@PLT
 7160      00
 7161              	.LEHB409:
 7162 330d E8000000 		call	_ZN8UnitTest11CurrentTest7ResultsEv@PLT
 7162      00
 7163 3312 488B18   		movq	(%rax), %rbx
 7164 3315 E8000000 		call	_ZN8UnitTest11CurrentTest7DetailsEv@PLT
 7164      00
 131:testConv.cpp  **** 	CHECK_EQUAL('1', getHexLowerNibble(0xF1));
 7165              		.loc 3 131 0 is_stmt 0 discriminator 10
 7166 331a 488B08   		movq	(%rax), %rcx
 7167 331d 488D45C0 		leaq	-64(%rbp), %rax
 7168 3321 BA830000 		movl	$131, %edx
 7168      00
 7169 3326 4889CE   		movq	%rcx, %rsi
 7170 3329 4889C7   		movq	%rax, %rdi
 7171 332c E8000000 		call	_ZN8UnitTest11TestDetailsC1ERKS0_i@PLT
 7171      00
 131:testConv.cpp  **** 	CHECK_EQUAL('1', getHexLowerNibble(0xF1));
 7172              		.loc 3 131 0 discriminator 14
 7173 3331 488D45C0 		leaq	-64(%rbp), %rax
 7174 3335 488D1500 		leaq	.LC48(%rip), %rdx
 7174      000000
 7175 333c 4889C6   		movq	%rax, %rsi
 7176 333f 4889DF   		movq	%rbx, %rdi
 7177 3342 E8000000 		call	_ZN8UnitTest11TestResults13OnTestFailureERKNS_11TestDetailsEPKc@PLT
 7177      00
 7178              	.LEHE409:
 7179              	.LEHB410:
 131:testConv.cpp  **** 	CHECK_EQUAL('1', getHexLowerNibble(0xF1));
 7180              		.loc 3 131 0 discriminator 16
 7181 3347 E8000000 		call	__cxa_end_catch@PLT
 7181      00
 7182              	.LEHE410:
 7183 334c E966FBFF 		jmp	.L506
 7183      FF
 7184              	.L571:
 7185 3351 4889C3   		movq	%rax, %rbx
 131:testConv.cpp  **** 	CHECK_EQUAL('1', getHexLowerNibble(0xF1));
 7186              		.loc 3 131 0
 7187 3354 E8000000 		call	__cxa_end_catch@PLT
 7187      00
 7188 3359 4889D8   		movq	%rbx, %rax
 7189 335c 4889C7   		movq	%rax, %rdi
 7190              	.LEHB411:
 7191 335f E8000000 		call	_Unwind_Resume@PLT
 7191      00
 7192              	.LEHE411:
 7193              	.L573:
 7194 3364 EB00     		jmp	.L509
 7195              	.L572:
 7196              	.L509:
 132:testConv.cpp  **** 	CHECK_EQUAL('2', getHexLowerNibble(0xF2));
 7197              		.loc 3 132 0 is_stmt 1
 7198 3366 4889C7   		movq	%rax, %rdi
 7199 3369 E8000000 		call	__cxa_begin_catch@PLT
 7199      00
 7200              	.LEHB412:
 7201 336e E8000000 		call	_ZN8UnitTest11CurrentTest7ResultsEv@PLT
 7201      00
 7202 3373 488B18   		movq	(%rax), %rbx
 7203 3376 E8000000 		call	_ZN8UnitTest11CurrentTest7DetailsEv@PLT
 7203      00
 132:testConv.cpp  **** 	CHECK_EQUAL('2', getHexLowerNibble(0xF2));
 7204              		.loc 3 132 0 is_stmt 0 discriminator 10
 7205 337b 488B08   		movq	(%rax), %rcx
 7206 337e 488D45C0 		leaq	-64(%rbp), %rax
 7207 3382 BA840000 		movl	$132, %edx
 7207      00
 7208 3387 4889CE   		movq	%rcx, %rsi
 7209 338a 4889C7   		movq	%rax, %rdi
 7210 338d E8000000 		call	_ZN8UnitTest11TestDetailsC1ERKS0_i@PLT
 7210      00
 132:testConv.cpp  **** 	CHECK_EQUAL('2', getHexLowerNibble(0xF2));
 7211              		.loc 3 132 0 discriminator 14
 7212 3392 488D45C0 		leaq	-64(%rbp), %rax
 7213 3396 488D1500 		leaq	.LC49(%rip), %rdx
 7213      000000
 7214 339d 4889C6   		movq	%rax, %rsi
 7215 33a0 4889DF   		movq	%rbx, %rdi
 7216 33a3 E8000000 		call	_ZN8UnitTest11TestResults13OnTestFailureERKNS_11TestDetailsEPKc@PLT
 7216      00
 7217              	.LEHE412:
 7218              	.LEHB413:
 132:testConv.cpp  **** 	CHECK_EQUAL('2', getHexLowerNibble(0xF2));
 7219              		.loc 3 132 0 discriminator 16
 7220 33a8 E8000000 		call	__cxa_end_catch@PLT
 7220      00
 7221              	.LEHE413:
 7222 33ad E94EFBFF 		jmp	.L510
 7222      FF
 7223              	.L574:
 7224 33b2 4889C3   		movq	%rax, %rbx
 132:testConv.cpp  **** 	CHECK_EQUAL('2', getHexLowerNibble(0xF2));
 7225              		.loc 3 132 0
 7226 33b5 E8000000 		call	__cxa_end_catch@PLT
 7226      00
 7227 33ba 4889D8   		movq	%rbx, %rax
 7228 33bd 4889C7   		movq	%rax, %rdi
 7229              	.LEHB414:
 7230 33c0 E8000000 		call	_Unwind_Resume@PLT
 7230      00
 7231              	.LEHE414:
 7232              	.L576:
 7233 33c5 EB00     		jmp	.L513
 7234              	.L575:
 7235              	.L513:
 133:testConv.cpp  **** 	CHECK_EQUAL('3', getHexLowerNibble(0xF3));
 7236              		.loc 3 133 0 is_stmt 1
 7237 33c7 4889C7   		movq	%rax, %rdi
 7238 33ca E8000000 		call	__cxa_begin_catch@PLT
 7238      00
 7239              	.LEHB415:
 7240 33cf E8000000 		call	_ZN8UnitTest11CurrentTest7ResultsEv@PLT
 7240      00
 7241 33d4 488B18   		movq	(%rax), %rbx
 7242 33d7 E8000000 		call	_ZN8UnitTest11CurrentTest7DetailsEv@PLT
 7242      00
 133:testConv.cpp  **** 	CHECK_EQUAL('3', getHexLowerNibble(0xF3));
 7243              		.loc 3 133 0 is_stmt 0 discriminator 10
 7244 33dc 488B08   		movq	(%rax), %rcx
 7245 33df 488D45C0 		leaq	-64(%rbp), %rax
 7246 33e3 BA850000 		movl	$133, %edx
 7246      00
 7247 33e8 4889CE   		movq	%rcx, %rsi
 7248 33eb 4889C7   		movq	%rax, %rdi
 7249 33ee E8000000 		call	_ZN8UnitTest11TestDetailsC1ERKS0_i@PLT
 7249      00
 133:testConv.cpp  **** 	CHECK_EQUAL('3', getHexLowerNibble(0xF3));
 7250              		.loc 3 133 0 discriminator 14
 7251 33f3 488D45C0 		leaq	-64(%rbp), %rax
 7252 33f7 488D1500 		leaq	.LC50(%rip), %rdx
 7252      000000
 7253 33fe 4889C6   		movq	%rax, %rsi
 7254 3401 4889DF   		movq	%rbx, %rdi
 7255 3404 E8000000 		call	_ZN8UnitTest11TestResults13OnTestFailureERKNS_11TestDetailsEPKc@PLT
 7255      00
 7256              	.LEHE415:
 7257              	.LEHB416:
 133:testConv.cpp  **** 	CHECK_EQUAL('3', getHexLowerNibble(0xF3));
 7258              		.loc 3 133 0 discriminator 16
 7259 3409 E8000000 		call	__cxa_end_catch@PLT
 7259      00
 7260              	.LEHE416:
 7261 340e E936FBFF 		jmp	.L514
 7261      FF
 7262              	.L577:
 7263 3413 4889C3   		movq	%rax, %rbx
 133:testConv.cpp  **** 	CHECK_EQUAL('3', getHexLowerNibble(0xF3));
 7264              		.loc 3 133 0
 7265 3416 E8000000 		call	__cxa_end_catch@PLT
 7265      00
 7266 341b 4889D8   		movq	%rbx, %rax
 7267 341e 4889C7   		movq	%rax, %rdi
 7268              	.LEHB417:
 7269 3421 E8000000 		call	_Unwind_Resume@PLT
 7269      00
 7270              	.LEHE417:
 7271              	.L579:
 7272 3426 EB00     		jmp	.L517
 7273              	.L578:
 7274              	.L517:
 134:testConv.cpp  **** 	CHECK_EQUAL('4', getHexLowerNibble(0xF4));
 7275              		.loc 3 134 0 is_stmt 1
 7276 3428 4889C7   		movq	%rax, %rdi
 7277 342b E8000000 		call	__cxa_begin_catch@PLT
 7277      00
 7278              	.LEHB418:
 7279 3430 E8000000 		call	_ZN8UnitTest11CurrentTest7ResultsEv@PLT
 7279      00
 7280 3435 488B18   		movq	(%rax), %rbx
 7281 3438 E8000000 		call	_ZN8UnitTest11CurrentTest7DetailsEv@PLT
 7281      00
 134:testConv.cpp  **** 	CHECK_EQUAL('4', getHexLowerNibble(0xF4));
 7282              		.loc 3 134 0 is_stmt 0 discriminator 10
 7283 343d 488B08   		movq	(%rax), %rcx
 7284 3440 488D45C0 		leaq	-64(%rbp), %rax
 7285 3444 BA860000 		movl	$134, %edx
 7285      00
 7286 3449 4889CE   		movq	%rcx, %rsi
 7287 344c 4889C7   		movq	%rax, %rdi
 7288 344f E8000000 		call	_ZN8UnitTest11TestDetailsC1ERKS0_i@PLT
 7288      00
 134:testConv.cpp  **** 	CHECK_EQUAL('4', getHexLowerNibble(0xF4));
 7289              		.loc 3 134 0 discriminator 14
 7290 3454 488D45C0 		leaq	-64(%rbp), %rax
 7291 3458 488D1500 		leaq	.LC51(%rip), %rdx
 7291      000000
 7292 345f 4889C6   		movq	%rax, %rsi
 7293 3462 4889DF   		movq	%rbx, %rdi
 7294 3465 E8000000 		call	_ZN8UnitTest11TestResults13OnTestFailureERKNS_11TestDetailsEPKc@PLT
 7294      00
 7295              	.LEHE418:
 7296              	.LEHB419:
 134:testConv.cpp  **** 	CHECK_EQUAL('4', getHexLowerNibble(0xF4));
 7297              		.loc 3 134 0 discriminator 16
 7298 346a E8000000 		call	__cxa_end_catch@PLT
 7298      00
 7299              	.LEHE419:
 7300 346f E91EFBFF 		jmp	.L518
 7300      FF
 7301              	.L580:
 7302 3474 4889C3   		movq	%rax, %rbx
 134:testConv.cpp  **** 	CHECK_EQUAL('4', getHexLowerNibble(0xF4));
 7303              		.loc 3 134 0
 7304 3477 E8000000 		call	__cxa_end_catch@PLT
 7304      00
 7305 347c 4889D8   		movq	%rbx, %rax
 7306 347f 4889C7   		movq	%rax, %rdi
 7307              	.LEHB420:
 7308 3482 E8000000 		call	_Unwind_Resume@PLT
 7308      00
 7309              	.LEHE420:
 7310              	.L582:
 7311 3487 EB00     		jmp	.L521
 7312              	.L581:
 7313              	.L521:
 135:testConv.cpp  **** 	CHECK_EQUAL('5', getHexLowerNibble(0xF5));
 7314              		.loc 3 135 0 is_stmt 1
 7315 3489 4889C7   		movq	%rax, %rdi
 7316 348c E8000000 		call	__cxa_begin_catch@PLT
 7316      00
 7317              	.LEHB421:
 7318 3491 E8000000 		call	_ZN8UnitTest11CurrentTest7ResultsEv@PLT
 7318      00
 7319 3496 488B18   		movq	(%rax), %rbx
 7320 3499 E8000000 		call	_ZN8UnitTest11CurrentTest7DetailsEv@PLT
 7320      00
 135:testConv.cpp  **** 	CHECK_EQUAL('5', getHexLowerNibble(0xF5));
 7321              		.loc 3 135 0 is_stmt 0 discriminator 10
 7322 349e 488B08   		movq	(%rax), %rcx
 7323 34a1 488D45C0 		leaq	-64(%rbp), %rax
 7324 34a5 BA870000 		movl	$135, %edx
 7324      00
 7325 34aa 4889CE   		movq	%rcx, %rsi
 7326 34ad 4889C7   		movq	%rax, %rdi
 7327 34b0 E8000000 		call	_ZN8UnitTest11TestDetailsC1ERKS0_i@PLT
 7327      00
 135:testConv.cpp  **** 	CHECK_EQUAL('5', getHexLowerNibble(0xF5));
 7328              		.loc 3 135 0 discriminator 14
 7329 34b5 488D45C0 		leaq	-64(%rbp), %rax
 7330 34b9 488D1500 		leaq	.LC52(%rip), %rdx
 7330      000000
 7331 34c0 4889C6   		movq	%rax, %rsi
 7332 34c3 4889DF   		movq	%rbx, %rdi
 7333 34c6 E8000000 		call	_ZN8UnitTest11TestResults13OnTestFailureERKNS_11TestDetailsEPKc@PLT
 7333      00
 7334              	.LEHE421:
 7335              	.LEHB422:
 135:testConv.cpp  **** 	CHECK_EQUAL('5', getHexLowerNibble(0xF5));
 7336              		.loc 3 135 0 discriminator 16
 7337 34cb E8000000 		call	__cxa_end_catch@PLT
 7337      00
 7338              	.LEHE422:
 7339 34d0 E906FBFF 		jmp	.L522
 7339      FF
 7340              	.L583:
 7341 34d5 4889C3   		movq	%rax, %rbx
 135:testConv.cpp  **** 	CHECK_EQUAL('5', getHexLowerNibble(0xF5));
 7342              		.loc 3 135 0
 7343 34d8 E8000000 		call	__cxa_end_catch@PLT
 7343      00
 7344 34dd 4889D8   		movq	%rbx, %rax
 7345 34e0 4889C7   		movq	%rax, %rdi
 7346              	.LEHB423:
 7347 34e3 E8000000 		call	_Unwind_Resume@PLT
 7347      00
 7348              	.LEHE423:
 7349              	.L585:
 7350 34e8 EB00     		jmp	.L525
 7351              	.L584:
 7352              	.L525:
 136:testConv.cpp  **** 	CHECK_EQUAL('6', getHexLowerNibble(0xF6));
 7353              		.loc 3 136 0 is_stmt 1
 7354 34ea 4889C7   		movq	%rax, %rdi
 7355 34ed E8000000 		call	__cxa_begin_catch@PLT
 7355      00
 7356              	.LEHB424:
 7357 34f2 E8000000 		call	_ZN8UnitTest11CurrentTest7ResultsEv@PLT
 7357      00
 7358 34f7 488B18   		movq	(%rax), %rbx
 7359 34fa E8000000 		call	_ZN8UnitTest11CurrentTest7DetailsEv@PLT
 7359      00
 136:testConv.cpp  **** 	CHECK_EQUAL('6', getHexLowerNibble(0xF6));
 7360              		.loc 3 136 0 is_stmt 0 discriminator 10
 7361 34ff 488B08   		movq	(%rax), %rcx
 7362 3502 488D45C0 		leaq	-64(%rbp), %rax
 7363 3506 BA880000 		movl	$136, %edx
 7363      00
 7364 350b 4889CE   		movq	%rcx, %rsi
 7365 350e 4889C7   		movq	%rax, %rdi
 7366 3511 E8000000 		call	_ZN8UnitTest11TestDetailsC1ERKS0_i@PLT
 7366      00
 136:testConv.cpp  **** 	CHECK_EQUAL('6', getHexLowerNibble(0xF6));
 7367              		.loc 3 136 0 discriminator 14
 7368 3516 488D45C0 		leaq	-64(%rbp), %rax
 7369 351a 488D1500 		leaq	.LC53(%rip), %rdx
 7369      000000
 7370 3521 4889C6   		movq	%rax, %rsi
 7371 3524 4889DF   		movq	%rbx, %rdi
 7372 3527 E8000000 		call	_ZN8UnitTest11TestResults13OnTestFailureERKNS_11TestDetailsEPKc@PLT
 7372      00
 7373              	.LEHE424:
 7374              	.LEHB425:
 136:testConv.cpp  **** 	CHECK_EQUAL('6', getHexLowerNibble(0xF6));
 7375              		.loc 3 136 0 discriminator 16
 7376 352c E8000000 		call	__cxa_end_catch@PLT
 7376      00
 7377              	.LEHE425:
 7378 3531 E9EEFAFF 		jmp	.L526
 7378      FF
 7379              	.L586:
 7380 3536 4889C3   		movq	%rax, %rbx
 136:testConv.cpp  **** 	CHECK_EQUAL('6', getHexLowerNibble(0xF6));
 7381              		.loc 3 136 0
 7382 3539 E8000000 		call	__cxa_end_catch@PLT
 7382      00
 7383 353e 4889D8   		movq	%rbx, %rax
 7384 3541 4889C7   		movq	%rax, %rdi
 7385              	.LEHB426:
 7386 3544 E8000000 		call	_Unwind_Resume@PLT
 7386      00
 7387              	.LEHE426:
 7388              	.L588:
 7389 3549 EB00     		jmp	.L529
 7390              	.L587:
 7391              	.L529:
 137:testConv.cpp  **** 	CHECK_EQUAL('7', getHexLowerNibble(0xF7));
 7392              		.loc 3 137 0 is_stmt 1
 7393 354b 4889C7   		movq	%rax, %rdi
 7394 354e E8000000 		call	__cxa_begin_catch@PLT
 7394      00
 7395              	.LEHB427:
 7396 3553 E8000000 		call	_ZN8UnitTest11CurrentTest7ResultsEv@PLT
 7396      00
 7397 3558 488B18   		movq	(%rax), %rbx
 7398 355b E8000000 		call	_ZN8UnitTest11CurrentTest7DetailsEv@PLT
 7398      00
 137:testConv.cpp  **** 	CHECK_EQUAL('7', getHexLowerNibble(0xF7));
 7399              		.loc 3 137 0 is_stmt 0 discriminator 10
 7400 3560 488B08   		movq	(%rax), %rcx
 7401 3563 488D45C0 		leaq	-64(%rbp), %rax
 7402 3567 BA890000 		movl	$137, %edx
 7402      00
 7403 356c 4889CE   		movq	%rcx, %rsi
 7404 356f 4889C7   		movq	%rax, %rdi
 7405 3572 E8000000 		call	_ZN8UnitTest11TestDetailsC1ERKS0_i@PLT
 7405      00
 137:testConv.cpp  **** 	CHECK_EQUAL('7', getHexLowerNibble(0xF7));
 7406              		.loc 3 137 0 discriminator 14
 7407 3577 488D45C0 		leaq	-64(%rbp), %rax
 7408 357b 488D1500 		leaq	.LC54(%rip), %rdx
 7408      000000
 7409 3582 4889C6   		movq	%rax, %rsi
 7410 3585 4889DF   		movq	%rbx, %rdi
 7411 3588 E8000000 		call	_ZN8UnitTest11TestResults13OnTestFailureERKNS_11TestDetailsEPKc@PLT
 7411      00
 7412              	.LEHE427:
 7413              	.LEHB428:
 137:testConv.cpp  **** 	CHECK_EQUAL('7', getHexLowerNibble(0xF7));
 7414              		.loc 3 137 0 discriminator 16
 7415 358d E8000000 		call	__cxa_end_catch@PLT
 7415      00
 7416              	.LEHE428:
 7417 3592 E9D6FAFF 		jmp	.L530
 7417      FF
 7418              	.L589:
 7419 3597 4889C3   		movq	%rax, %rbx
 137:testConv.cpp  **** 	CHECK_EQUAL('7', getHexLowerNibble(0xF7));
 7420              		.loc 3 137 0
 7421 359a E8000000 		call	__cxa_end_catch@PLT
 7421      00
 7422 359f 4889D8   		movq	%rbx, %rax
 7423 35a2 4889C7   		movq	%rax, %rdi
 7424              	.LEHB429:
 7425 35a5 E8000000 		call	_Unwind_Resume@PLT
 7425      00
 7426              	.LEHE429:
 7427              	.L591:
 7428 35aa EB00     		jmp	.L533
 7429              	.L590:
 7430              	.L533:
 138:testConv.cpp  **** 	CHECK_EQUAL('8', getHexLowerNibble(0xF8));
 7431              		.loc 3 138 0 is_stmt 1
 7432 35ac 4889C7   		movq	%rax, %rdi
 7433 35af E8000000 		call	__cxa_begin_catch@PLT
 7433      00
 7434              	.LEHB430:
 7435 35b4 E8000000 		call	_ZN8UnitTest11CurrentTest7ResultsEv@PLT
 7435      00
 7436 35b9 488B18   		movq	(%rax), %rbx
 7437 35bc E8000000 		call	_ZN8UnitTest11CurrentTest7DetailsEv@PLT
 7437      00
 138:testConv.cpp  **** 	CHECK_EQUAL('8', getHexLowerNibble(0xF8));
 7438              		.loc 3 138 0 is_stmt 0 discriminator 10
 7439 35c1 488B08   		movq	(%rax), %rcx
 7440 35c4 488D45C0 		leaq	-64(%rbp), %rax
 7441 35c8 BA8A0000 		movl	$138, %edx
 7441      00
 7442 35cd 4889CE   		movq	%rcx, %rsi
 7443 35d0 4889C7   		movq	%rax, %rdi
 7444 35d3 E8000000 		call	_ZN8UnitTest11TestDetailsC1ERKS0_i@PLT
 7444      00
 138:testConv.cpp  **** 	CHECK_EQUAL('8', getHexLowerNibble(0xF8));
 7445              		.loc 3 138 0 discriminator 14
 7446 35d8 488D45C0 		leaq	-64(%rbp), %rax
 7447 35dc 488D1500 		leaq	.LC55(%rip), %rdx
 7447      000000
 7448 35e3 4889C6   		movq	%rax, %rsi
 7449 35e6 4889DF   		movq	%rbx, %rdi
 7450 35e9 E8000000 		call	_ZN8UnitTest11TestResults13OnTestFailureERKNS_11TestDetailsEPKc@PLT
 7450      00
 7451              	.LEHE430:
 7452              	.LEHB431:
 138:testConv.cpp  **** 	CHECK_EQUAL('8', getHexLowerNibble(0xF8));
 7453              		.loc 3 138 0 discriminator 16
 7454 35ee E8000000 		call	__cxa_end_catch@PLT
 7454      00
 7455              	.LEHE431:
 7456 35f3 E9BEFAFF 		jmp	.L534
 7456      FF
 7457              	.L592:
 7458 35f8 4889C3   		movq	%rax, %rbx
 138:testConv.cpp  **** 	CHECK_EQUAL('8', getHexLowerNibble(0xF8));
 7459              		.loc 3 138 0
 7460 35fb E8000000 		call	__cxa_end_catch@PLT
 7460      00
 7461 3600 4889D8   		movq	%rbx, %rax
 7462 3603 4889C7   		movq	%rax, %rdi
 7463              	.LEHB432:
 7464 3606 E8000000 		call	_Unwind_Resume@PLT
 7464      00
 7465              	.LEHE432:
 7466              	.L594:
 7467 360b EB00     		jmp	.L537
 7468              	.L593:
 7469              	.L537:
 139:testConv.cpp  **** 	CHECK_EQUAL('9', getHexLowerNibble(0xF9));
 7470              		.loc 3 139 0 is_stmt 1
 7471 360d 4889C7   		movq	%rax, %rdi
 7472 3610 E8000000 		call	__cxa_begin_catch@PLT
 7472      00
 7473              	.LEHB433:
 7474 3615 E8000000 		call	_ZN8UnitTest11CurrentTest7ResultsEv@PLT
 7474      00
 7475 361a 488B18   		movq	(%rax), %rbx
 7476 361d E8000000 		call	_ZN8UnitTest11CurrentTest7DetailsEv@PLT
 7476      00
 139:testConv.cpp  **** 	CHECK_EQUAL('9', getHexLowerNibble(0xF9));
 7477              		.loc 3 139 0 is_stmt 0 discriminator 10
 7478 3622 488B08   		movq	(%rax), %rcx
 7479 3625 488D45C0 		leaq	-64(%rbp), %rax
 7480 3629 BA8B0000 		movl	$139, %edx
 7480      00
 7481 362e 4889CE   		movq	%rcx, %rsi
 7482 3631 4889C7   		movq	%rax, %rdi
 7483 3634 E8000000 		call	_ZN8UnitTest11TestDetailsC1ERKS0_i@PLT
 7483      00
 139:testConv.cpp  **** 	CHECK_EQUAL('9', getHexLowerNibble(0xF9));
 7484              		.loc 3 139 0 discriminator 14
 7485 3639 488D45C0 		leaq	-64(%rbp), %rax
 7486 363d 488D1500 		leaq	.LC56(%rip), %rdx
 7486      000000
 7487 3644 4889C6   		movq	%rax, %rsi
 7488 3647 4889DF   		movq	%rbx, %rdi
 7489 364a E8000000 		call	_ZN8UnitTest11TestResults13OnTestFailureERKNS_11TestDetailsEPKc@PLT
 7489      00
 7490              	.LEHE433:
 7491              	.LEHB434:
 139:testConv.cpp  **** 	CHECK_EQUAL('9', getHexLowerNibble(0xF9));
 7492              		.loc 3 139 0 discriminator 16
 7493 364f E8000000 		call	__cxa_end_catch@PLT
 7493      00
 7494              	.LEHE434:
 7495 3654 E9A6FAFF 		jmp	.L538
 7495      FF
 7496              	.L595:
 7497 3659 4889C3   		movq	%rax, %rbx
 139:testConv.cpp  **** 	CHECK_EQUAL('9', getHexLowerNibble(0xF9));
 7498              		.loc 3 139 0
 7499 365c E8000000 		call	__cxa_end_catch@PLT
 7499      00
 7500 3661 4889D8   		movq	%rbx, %rax
 7501 3664 4889C7   		movq	%rax, %rdi
 7502              	.LEHB435:
 7503 3667 E8000000 		call	_Unwind_Resume@PLT
 7503      00
 7504              	.LEHE435:
 7505              	.L597:
 7506 366c EB00     		jmp	.L541
 7507              	.L596:
 7508              	.L541:
 140:testConv.cpp  **** 	CHECK_EQUAL('A', getHexLowerNibble(0xFA));
 7509              		.loc 3 140 0 is_stmt 1
 7510 366e 4889C7   		movq	%rax, %rdi
 7511 3671 E8000000 		call	__cxa_begin_catch@PLT
 7511      00
 7512              	.LEHB436:
 7513 3676 E8000000 		call	_ZN8UnitTest11CurrentTest7ResultsEv@PLT
 7513      00
 7514 367b 488B18   		movq	(%rax), %rbx
 7515 367e E8000000 		call	_ZN8UnitTest11CurrentTest7DetailsEv@PLT
 7515      00
 140:testConv.cpp  **** 	CHECK_EQUAL('A', getHexLowerNibble(0xFA));
 7516              		.loc 3 140 0 is_stmt 0 discriminator 10
 7517 3683 488B08   		movq	(%rax), %rcx
 7518 3686 488D45C0 		leaq	-64(%rbp), %rax
 7519 368a BA8C0000 		movl	$140, %edx
 7519      00
 7520 368f 4889CE   		movq	%rcx, %rsi
 7521 3692 4889C7   		movq	%rax, %rdi
 7522 3695 E8000000 		call	_ZN8UnitTest11TestDetailsC1ERKS0_i@PLT
 7522      00
 140:testConv.cpp  **** 	CHECK_EQUAL('A', getHexLowerNibble(0xFA));
 7523              		.loc 3 140 0 discriminator 14
 7524 369a 488D45C0 		leaq	-64(%rbp), %rax
 7525 369e 488D1500 		leaq	.LC57(%rip), %rdx
 7525      000000
 7526 36a5 4889C6   		movq	%rax, %rsi
 7527 36a8 4889DF   		movq	%rbx, %rdi
 7528 36ab E8000000 		call	_ZN8UnitTest11TestResults13OnTestFailureERKNS_11TestDetailsEPKc@PLT
 7528      00
 7529              	.LEHE436:
 7530              	.LEHB437:
 140:testConv.cpp  **** 	CHECK_EQUAL('A', getHexLowerNibble(0xFA));
 7531              		.loc 3 140 0 discriminator 16
 7532 36b0 E8000000 		call	__cxa_end_catch@PLT
 7532      00
 7533              	.LEHE437:
 7534 36b5 E98EFAFF 		jmp	.L542
 7534      FF
 7535              	.L598:
 7536 36ba 4889C3   		movq	%rax, %rbx
 140:testConv.cpp  **** 	CHECK_EQUAL('A', getHexLowerNibble(0xFA));
 7537              		.loc 3 140 0
 7538 36bd E8000000 		call	__cxa_end_catch@PLT
 7538      00
 7539 36c2 4889D8   		movq	%rbx, %rax
 7540 36c5 4889C7   		movq	%rax, %rdi
 7541              	.LEHB438:
 7542 36c8 E8000000 		call	_Unwind_Resume@PLT
 7542      00
 7543              	.LEHE438:
 7544              	.L600:
 7545 36cd EB00     		jmp	.L545
 7546              	.L599:
 7547              	.L545:
 141:testConv.cpp  **** 	CHECK_EQUAL('B', getHexLowerNibble(0xFB));
 7548              		.loc 3 141 0 is_stmt 1
 7549 36cf 4889C7   		movq	%rax, %rdi
 7550 36d2 E8000000 		call	__cxa_begin_catch@PLT
 7550      00
 7551              	.LEHB439:
 7552 36d7 E8000000 		call	_ZN8UnitTest11CurrentTest7ResultsEv@PLT
 7552      00
 7553 36dc 488B18   		movq	(%rax), %rbx
 7554 36df E8000000 		call	_ZN8UnitTest11CurrentTest7DetailsEv@PLT
 7554      00
 141:testConv.cpp  **** 	CHECK_EQUAL('B', getHexLowerNibble(0xFB));
 7555              		.loc 3 141 0 is_stmt 0 discriminator 10
 7556 36e4 488B08   		movq	(%rax), %rcx
 7557 36e7 488D45C0 		leaq	-64(%rbp), %rax
 7558 36eb BA8D0000 		movl	$141, %edx
 7558      00
 7559 36f0 4889CE   		movq	%rcx, %rsi
 7560 36f3 4889C7   		movq	%rax, %rdi
 7561 36f6 E8000000 		call	_ZN8UnitTest11TestDetailsC1ERKS0_i@PLT
 7561      00
 141:testConv.cpp  **** 	CHECK_EQUAL('B', getHexLowerNibble(0xFB));
 7562              		.loc 3 141 0 discriminator 14
 7563 36fb 488D45C0 		leaq	-64(%rbp), %rax
 7564 36ff 488D1500 		leaq	.LC58(%rip), %rdx
 7564      000000
 7565 3706 4889C6   		movq	%rax, %rsi
 7566 3709 4889DF   		movq	%rbx, %rdi
 7567 370c E8000000 		call	_ZN8UnitTest11TestResults13OnTestFailureERKNS_11TestDetailsEPKc@PLT
 7567      00
 7568              	.LEHE439:
 7569              	.LEHB440:
 141:testConv.cpp  **** 	CHECK_EQUAL('B', getHexLowerNibble(0xFB));
 7570              		.loc 3 141 0 discriminator 16
 7571 3711 E8000000 		call	__cxa_end_catch@PLT
 7571      00
 7572              	.LEHE440:
 7573 3716 E976FAFF 		jmp	.L546
 7573      FF
 7574              	.L601:
 7575 371b 4889C3   		movq	%rax, %rbx
 141:testConv.cpp  **** 	CHECK_EQUAL('B', getHexLowerNibble(0xFB));
 7576              		.loc 3 141 0
 7577 371e E8000000 		call	__cxa_end_catch@PLT
 7577      00
 7578 3723 4889D8   		movq	%rbx, %rax
 7579 3726 4889C7   		movq	%rax, %rdi
 7580              	.LEHB441:
 7581 3729 E8000000 		call	_Unwind_Resume@PLT
 7581      00
 7582              	.LEHE441:
 7583              	.L603:
 7584 372e EB00     		jmp	.L549
 7585              	.L602:
 7586              	.L549:
 142:testConv.cpp  **** 	CHECK_EQUAL('C', getHexLowerNibble(0xFC));
 7587              		.loc 3 142 0 is_stmt 1
 7588 3730 4889C7   		movq	%rax, %rdi
 7589 3733 E8000000 		call	__cxa_begin_catch@PLT
 7589      00
 7590              	.LEHB442:
 7591 3738 E8000000 		call	_ZN8UnitTest11CurrentTest7ResultsEv@PLT
 7591      00
 7592 373d 488B18   		movq	(%rax), %rbx
 7593 3740 E8000000 		call	_ZN8UnitTest11CurrentTest7DetailsEv@PLT
 7593      00
 142:testConv.cpp  **** 	CHECK_EQUAL('C', getHexLowerNibble(0xFC));
 7594              		.loc 3 142 0 is_stmt 0 discriminator 10
 7595 3745 488B08   		movq	(%rax), %rcx
 7596 3748 488D45C0 		leaq	-64(%rbp), %rax
 7597 374c BA8E0000 		movl	$142, %edx
 7597      00
 7598 3751 4889CE   		movq	%rcx, %rsi
 7599 3754 4889C7   		movq	%rax, %rdi
 7600 3757 E8000000 		call	_ZN8UnitTest11TestDetailsC1ERKS0_i@PLT
 7600      00
 142:testConv.cpp  **** 	CHECK_EQUAL('C', getHexLowerNibble(0xFC));
 7601              		.loc 3 142 0 discriminator 14
 7602 375c 488D45C0 		leaq	-64(%rbp), %rax
 7603 3760 488D1500 		leaq	.LC59(%rip), %rdx
 7603      000000
 7604 3767 4889C6   		movq	%rax, %rsi
 7605 376a 4889DF   		movq	%rbx, %rdi
 7606 376d E8000000 		call	_ZN8UnitTest11TestResults13OnTestFailureERKNS_11TestDetailsEPKc@PLT
 7606      00
 7607              	.LEHE442:
 7608              	.LEHB443:
 142:testConv.cpp  **** 	CHECK_EQUAL('C', getHexLowerNibble(0xFC));
 7609              		.loc 3 142 0 discriminator 16
 7610 3772 E8000000 		call	__cxa_end_catch@PLT
 7610      00
 7611              	.LEHE443:
 7612 3777 E95EFAFF 		jmp	.L550
 7612      FF
 7613              	.L604:
 7614 377c 4889C3   		movq	%rax, %rbx
 142:testConv.cpp  **** 	CHECK_EQUAL('C', getHexLowerNibble(0xFC));
 7615              		.loc 3 142 0
 7616 377f E8000000 		call	__cxa_end_catch@PLT
 7616      00
 7617 3784 4889D8   		movq	%rbx, %rax
 7618 3787 4889C7   		movq	%rax, %rdi
 7619              	.LEHB444:
 7620 378a E8000000 		call	_Unwind_Resume@PLT
 7620      00
 7621              	.LEHE444:
 7622              	.L606:
 7623 378f EB00     		jmp	.L553
 7624              	.L605:
 7625              	.L553:
 143:testConv.cpp  **** 	CHECK_EQUAL('D', getHexLowerNibble(0xFD));
 7626              		.loc 3 143 0 is_stmt 1
 7627 3791 4889C7   		movq	%rax, %rdi
 7628 3794 E8000000 		call	__cxa_begin_catch@PLT
 7628      00
 7629              	.LEHB445:
 7630 3799 E8000000 		call	_ZN8UnitTest11CurrentTest7ResultsEv@PLT
 7630      00
 7631 379e 488B18   		movq	(%rax), %rbx
 7632 37a1 E8000000 		call	_ZN8UnitTest11CurrentTest7DetailsEv@PLT
 7632      00
 143:testConv.cpp  **** 	CHECK_EQUAL('D', getHexLowerNibble(0xFD));
 7633              		.loc 3 143 0 is_stmt 0 discriminator 10
 7634 37a6 488B08   		movq	(%rax), %rcx
 7635 37a9 488D45C0 		leaq	-64(%rbp), %rax
 7636 37ad BA8F0000 		movl	$143, %edx
 7636      00
 7637 37b2 4889CE   		movq	%rcx, %rsi
 7638 37b5 4889C7   		movq	%rax, %rdi
 7639 37b8 E8000000 		call	_ZN8UnitTest11TestDetailsC1ERKS0_i@PLT
 7639      00
 143:testConv.cpp  **** 	CHECK_EQUAL('D', getHexLowerNibble(0xFD));
 7640              		.loc 3 143 0 discriminator 14
 7641 37bd 488D45C0 		leaq	-64(%rbp), %rax
 7642 37c1 488D1500 		leaq	.LC60(%rip), %rdx
 7642      000000
 7643 37c8 4889C6   		movq	%rax, %rsi
 7644 37cb 4889DF   		movq	%rbx, %rdi
 7645 37ce E8000000 		call	_ZN8UnitTest11TestResults13OnTestFailureERKNS_11TestDetailsEPKc@PLT
 7645      00
 7646              	.LEHE445:
 7647              	.LEHB446:
 143:testConv.cpp  **** 	CHECK_EQUAL('D', getHexLowerNibble(0xFD));
 7648              		.loc 3 143 0 discriminator 16
 7649 37d3 E8000000 		call	__cxa_end_catch@PLT
 7649      00
 7650              	.LEHE446:
 7651 37d8 E946FAFF 		jmp	.L554
 7651      FF
 7652              	.L607:
 7653 37dd 4889C3   		movq	%rax, %rbx
 143:testConv.cpp  **** 	CHECK_EQUAL('D', getHexLowerNibble(0xFD));
 7654              		.loc 3 143 0
 7655 37e0 E8000000 		call	__cxa_end_catch@PLT
 7655      00
 7656 37e5 4889D8   		movq	%rbx, %rax
 7657 37e8 4889C7   		movq	%rax, %rdi
 7658              	.LEHB447:
 7659 37eb E8000000 		call	_Unwind_Resume@PLT
 7659      00
 7660              	.LEHE447:
 7661              	.L609:
 7662 37f0 EB00     		jmp	.L557
 7663              	.L608:
 7664              	.L557:
 144:testConv.cpp  **** 	CHECK_EQUAL('E', getHexLowerNibble(0xFE));
 7665              		.loc 3 144 0 is_stmt 1
 7666 37f2 4889C7   		movq	%rax, %rdi
 7667 37f5 E8000000 		call	__cxa_begin_catch@PLT
 7667      00
 7668              	.LEHB448:
 7669 37fa E8000000 		call	_ZN8UnitTest11CurrentTest7ResultsEv@PLT
 7669      00
 7670 37ff 488B18   		movq	(%rax), %rbx
 7671 3802 E8000000 		call	_ZN8UnitTest11CurrentTest7DetailsEv@PLT
 7671      00
 144:testConv.cpp  **** 	CHECK_EQUAL('E', getHexLowerNibble(0xFE));
 7672              		.loc 3 144 0 is_stmt 0 discriminator 10
 7673 3807 488B08   		movq	(%rax), %rcx
 7674 380a 488D45C0 		leaq	-64(%rbp), %rax
 7675 380e BA900000 		movl	$144, %edx
 7675      00
 7676 3813 4889CE   		movq	%rcx, %rsi
 7677 3816 4889C7   		movq	%rax, %rdi
 7678 3819 E8000000 		call	_ZN8UnitTest11TestDetailsC1ERKS0_i@PLT
 7678      00
 144:testConv.cpp  **** 	CHECK_EQUAL('E', getHexLowerNibble(0xFE));
 7679              		.loc 3 144 0 discriminator 14
 7680 381e 488D45C0 		leaq	-64(%rbp), %rax
 7681 3822 488D1500 		leaq	.LC61(%rip), %rdx
 7681      000000
 7682 3829 4889C6   		movq	%rax, %rsi
 7683 382c 4889DF   		movq	%rbx, %rdi
 7684 382f E8000000 		call	_ZN8UnitTest11TestResults13OnTestFailureERKNS_11TestDetailsEPKc@PLT
 7684      00
 7685              	.LEHE448:
 7686              	.LEHB449:
 144:testConv.cpp  **** 	CHECK_EQUAL('E', getHexLowerNibble(0xFE));
 7687              		.loc 3 144 0 discriminator 16
 7688 3834 E8000000 		call	__cxa_end_catch@PLT
 7688      00
 7689              	.LEHE449:
 7690 3839 E92EFAFF 		jmp	.L558
 7690      FF
 7691              	.L610:
 7692 383e 4889C3   		movq	%rax, %rbx
 144:testConv.cpp  **** 	CHECK_EQUAL('E', getHexLowerNibble(0xFE));
 7693              		.loc 3 144 0
 7694 3841 E8000000 		call	__cxa_end_catch@PLT
 7694      00
 7695 3846 4889D8   		movq	%rbx, %rax
 7696 3849 4889C7   		movq	%rax, %rdi
 7697              	.LEHB450:
 7698 384c E8000000 		call	_Unwind_Resume@PLT
 7698      00
 7699              	.LEHE450:
 7700              	.L612:
 7701 3851 EB00     		jmp	.L561
 7702              	.L611:
 7703              	.L561:
 145:testConv.cpp  **** 	CHECK_EQUAL('F', getHexLowerNibble(0xFF));
 7704              		.loc 3 145 0 is_stmt 1
 7705 3853 4889C7   		movq	%rax, %rdi
 7706 3856 E8000000 		call	__cxa_begin_catch@PLT
 7706      00
 7707              	.LEHB451:
 7708 385b E8000000 		call	_ZN8UnitTest11CurrentTest7ResultsEv@PLT
 7708      00
 7709 3860 488B18   		movq	(%rax), %rbx
 7710 3863 E8000000 		call	_ZN8UnitTest11CurrentTest7DetailsEv@PLT
 7710      00
 145:testConv.cpp  **** 	CHECK_EQUAL('F', getHexLowerNibble(0xFF));
 7711              		.loc 3 145 0 is_stmt 0 discriminator 10
 7712 3868 488B08   		movq	(%rax), %rcx
 7713 386b 488D45C0 		leaq	-64(%rbp), %rax
 7714 386f BA910000 		movl	$145, %edx
 7714      00
 7715 3874 4889CE   		movq	%rcx, %rsi
 7716 3877 4889C7   		movq	%rax, %rdi
 7717 387a E8000000 		call	_ZN8UnitTest11TestDetailsC1ERKS0_i@PLT
 7717      00
 145:testConv.cpp  **** 	CHECK_EQUAL('F', getHexLowerNibble(0xFF));
 7718              		.loc 3 145 0 discriminator 14
 7719 387f 488D45C0 		leaq	-64(%rbp), %rax
 7720 3883 488D1500 		leaq	.LC62(%rip), %rdx
 7720      000000
 7721 388a 4889C6   		movq	%rax, %rsi
 7722 388d 4889DF   		movq	%rbx, %rdi
 7723 3890 E8000000 		call	_ZN8UnitTest11TestResults13OnTestFailureERKNS_11TestDetailsEPKc@PLT
 7723      00
 7724              	.LEHE451:
 7725              	.LEHB452:
 145:testConv.cpp  **** 	CHECK_EQUAL('F', getHexLowerNibble(0xFF));
 7726              		.loc 3 145 0 discriminator 16
 7727 3895 E8000000 		call	__cxa_end_catch@PLT
 7727      00
 7728              	.LEHE452:
 7729 389a E916FAFF 		jmp	.L562
 7729      FF
 7730              	.L613:
 7731 389f 4889C3   		movq	%rax, %rbx
 145:testConv.cpp  **** 	CHECK_EQUAL('F', getHexLowerNibble(0xFF));
 7732              		.loc 3 145 0
 7733 38a2 E8000000 		call	__cxa_end_catch@PLT
 7733      00
 7734 38a7 4889D8   		movq	%rbx, %rax
 7735 38aa 4889C7   		movq	%rax, %rdi
 7736              	.LEHB453:
 7737 38ad E8000000 		call	_Unwind_Resume@PLT
 7737      00
 7738              	.LEHE453:
 7739              	.L615:
 7740 38b2 EB00     		jmp	.L565
 7741              	.L614:
 7742              	.L565:
 146:testConv.cpp  **** }
 7743              		.loc 3 146 0 is_stmt 1
 7744 38b4 4889C7   		movq	%rax, %rdi
 7745 38b7 E8000000 		call	__cxa_begin_catch@PLT
 7745      00
 7746              	.LEHB454:
 7747 38bc E8000000 		call	_ZN8UnitTest11CurrentTest7ResultsEv@PLT
 7747      00
 7748 38c1 488B18   		movq	(%rax), %rbx
 7749 38c4 E8000000 		call	_ZN8UnitTest11CurrentTest7DetailsEv@PLT
 7749      00
 146:testConv.cpp  **** }
 7750              		.loc 3 146 0 is_stmt 0 discriminator 10
 7751 38c9 488B08   		movq	(%rax), %rcx
 7752 38cc 488D45C0 		leaq	-64(%rbp), %rax
 7753 38d0 BA920000 		movl	$146, %edx
 7753      00
 7754 38d5 4889CE   		movq	%rcx, %rsi
 7755 38d8 4889C7   		movq	%rax, %rdi
 7756 38db E8000000 		call	_ZN8UnitTest11TestDetailsC1ERKS0_i@PLT
 7756      00
 146:testConv.cpp  **** }
 7757              		.loc 3 146 0 discriminator 14
 7758 38e0 488D45C0 		leaq	-64(%rbp), %rax
 7759 38e4 488D1500 		leaq	.LC63(%rip), %rdx
 7759      000000
 7760 38eb 4889C6   		movq	%rax, %rsi
 7761 38ee 4889DF   		movq	%rbx, %rdi
 7762 38f1 E8000000 		call	_ZN8UnitTest11TestResults13OnTestFailureERKNS_11TestDetailsEPKc@PLT
 7762      00
 7763              	.LEHE454:
 7764              	.LEHB455:
 146:testConv.cpp  **** }
 7765              		.loc 3 146 0 discriminator 16
 7766 38f6 E8000000 		call	__cxa_end_catch@PLT
 7766      00
 7767              	.LEHE455:
 7768              		.loc 3 147 0 is_stmt 1 discriminator 16
 7769 38fb EB13     		jmp	.L503
 7770              	.L616:
 7771 38fd 4889C3   		movq	%rax, %rbx
 146:testConv.cpp  **** }
 7772              		.loc 3 146 0
 7773 3900 E8000000 		call	__cxa_end_catch@PLT
 7773      00
 7774 3905 4889D8   		movq	%rbx, %rax
 7775 3908 4889C7   		movq	%rax, %rdi
 7776              	.LEHB456:
 7777 390b E8000000 		call	_Unwind_Resume@PLT
 7777      00
 7778              	.LEHE456:
 7779              	.L503:
 7780              		.loc 3 147 0
 7781 3910 488B45E8 		movq	-24(%rbp), %rax
 7782 3914 64483304 		xorq	%fs:40, %rax
 7782      25280000 
 7782      00
 7783 391d 7405     		je	.L568
 7784 391f E8000000 		call	__stack_chk_fail@PLT
 7784      00
 7785              	.L568:
 7786 3924 4883C458 		addq	$88, %rsp
 7787 3928 5B       		popq	%rbx
 7788 3929 5D       		popq	%rbp
 7789              		.cfi_def_cfa 7, 8
 7790 392a C3       		ret
 7791              		.cfi_endproc
 7792              	.LFE1107:
 7793              		.section	.gcc_except_table
 7794              		.align 4
 7795              	.LLSDA1107:
 7796 083c FF       		.byte	0xff
 7797 083d 9B       		.byte	0x9b
 7798 083e C803     		.uleb128 .LLSDATT1107-.LLSDATTD1107
 7799              	.LLSDATTD1107:
 7800 0840 01       		.byte	0x1
 7801 0841 BD03     		.uleb128 .LLSDACSE1107-.LLSDACSB1107
 7802              	.LLSDACSB1107:
 7803 0843 1C       		.uleb128 .LEHB377-.LFB1107
 7804 0844 26       		.uleb128 .LEHE377-.LEHB377
 7805 0845 B309     		.uleb128 .L569-.LFB1107
 7806 0847 01       		.uleb128 0x1
 7807 0848 49       		.uleb128 .LEHB378-.LFB1107
 7808 0849 1C       		.uleb128 .LEHE378-.LEHB378
 7809 084a B109     		.uleb128 .L570-.LFB1107
 7810 084c 03       		.uleb128 0x3
 7811 084d 65       		.uleb128 .LEHB379-.LFB1107
 7812 084e 26       		.uleb128 .LEHE379-.LEHB379
 7813 084f 940A     		.uleb128 .L572-.LFB1107
 7814 0851 01       		.uleb128 0x1
 7815 0852 9201     		.uleb128 .LEHB380-.LFB1107
 7816 0854 1C       		.uleb128 .LEHE380-.LEHB380
 7817 0855 920A     		.uleb128 .L573-.LFB1107
 7818 0857 03       		.uleb128 0x3
 7819 0858 AE01     		.uleb128 .LEHB381-.LFB1107
 7820 085a 26       		.uleb128 .LEHE381-.LEHB381
 7821 085b F50A     		.uleb128 .L575-.LFB1107
 7822 085d 01       		.uleb128 0x1
 7823 085e DB01     		.uleb128 .LEHB382-.LFB1107
 7824 0860 1C       		.uleb128 .LEHE382-.LEHB382
 7825 0861 F30A     		.uleb128 .L576-.LFB1107
 7826 0863 03       		.uleb128 0x3
 7827 0864 F701     		.uleb128 .LEHB383-.LFB1107
 7828 0866 26       		.uleb128 .LEHE383-.LEHB383
 7829 0867 D60B     		.uleb128 .L578-.LFB1107
 7830 0869 01       		.uleb128 0x1
 7831 086a A402     		.uleb128 .LEHB384-.LFB1107
 7832 086c 1C       		.uleb128 .LEHE384-.LEHB384
 7833 086d D40B     		.uleb128 .L579-.LFB1107
 7834 086f 03       		.uleb128 0x3
 7835 0870 C002     		.uleb128 .LEHB385-.LFB1107
 7836 0872 26       		.uleb128 .LEHE385-.LEHB385
 7837 0873 B70C     		.uleb128 .L581-.LFB1107
 7838 0875 01       		.uleb128 0x1
 7839 0876 ED02     		.uleb128 .LEHB386-.LFB1107
 7840 0878 1C       		.uleb128 .LEHE386-.LEHB386
 7841 0879 B50C     		.uleb128 .L582-.LFB1107
 7842 087b 03       		.uleb128 0x3
 7843 087c 8903     		.uleb128 .LEHB387-.LFB1107
 7844 087e 26       		.uleb128 .LEHE387-.LEHB387
 7845 087f 980D     		.uleb128 .L584-.LFB1107
 7846 0881 01       		.uleb128 0x1
 7847 0882 B603     		.uleb128 .LEHB388-.LFB1107
 7848 0884 1C       		.uleb128 .LEHE388-.LEHB388
 7849 0885 960D     		.uleb128 .L585-.LFB1107
 7850 0887 03       		.uleb128 0x3
 7851 0888 D203     		.uleb128 .LEHB389-.LFB1107
 7852 088a 26       		.uleb128 .LEHE389-.LEHB389
 7853 088b F90D     		.uleb128 .L587-.LFB1107
 7854 088d 01       		.uleb128 0x1
 7855 088e FF03     		.uleb128 .LEHB390-.LFB1107
 7856 0890 1C       		.uleb128 .LEHE390-.LEHB390
 7857 0891 F70D     		.uleb128 .L588-.LFB1107
 7858 0893 03       		.uleb128 0x3
 7859 0894 9B04     		.uleb128 .LEHB391-.LFB1107
 7860 0896 26       		.uleb128 .LEHE391-.LEHB391
 7861 0897 DA0E     		.uleb128 .L590-.LFB1107
 7862 0899 01       		.uleb128 0x1
 7863 089a C804     		.uleb128 .LEHB392-.LFB1107
 7864 089c 1C       		.uleb128 .LEHE392-.LEHB392
 7865 089d D80E     		.uleb128 .L591-.LFB1107
 7866 089f 03       		.uleb128 0x3
 7867 08a0 E404     		.uleb128 .LEHB393-.LFB1107
 7868 08a2 26       		.uleb128 .LEHE393-.LEHB393
 7869 08a3 BB0F     		.uleb128 .L593-.LFB1107
 7870 08a5 01       		.uleb128 0x1
 7871 08a6 9105     		.uleb128 .LEHB394-.LFB1107
 7872 08a8 1C       		.uleb128 .LEHE394-.LEHB394
 7873 08a9 B90F     		.uleb128 .L594-.LFB1107
 7874 08ab 03       		.uleb128 0x3
 7875 08ac AD05     		.uleb128 .LEHB395-.LFB1107
 7876 08ae 26       		.uleb128 .LEHE395-.LEHB395
 7877 08af 9C10     		.uleb128 .L596-.LFB1107
 7878 08b1 01       		.uleb128 0x1
 7879 08b2 DA05     		.uleb128 .LEHB396-.LFB1107
 7880 08b4 1C       		.uleb128 .LEHE396-.LEHB396
 7881 08b5 9A10     		.uleb128 .L597-.LFB1107
 7882 08b7 03       		.uleb128 0x3
 7883 08b8 F605     		.uleb128 .LEHB397-.LFB1107
 7884 08ba 26       		.uleb128 .LEHE397-.LEHB397
 7885 08bb FD10     		.uleb128 .L599-.LFB1107
 7886 08bd 01       		.uleb128 0x1
 7887 08be A306     		.uleb128 .LEHB398-.LFB1107
 7888 08c0 1C       		.uleb128 .LEHE398-.LEHB398
 7889 08c1 FB10     		.uleb128 .L600-.LFB1107
 7890 08c3 03       		.uleb128 0x3
 7891 08c4 BF06     		.uleb128 .LEHB399-.LFB1107
 7892 08c6 26       		.uleb128 .LEHE399-.LEHB399
 7893 08c7 DE11     		.uleb128 .L602-.LFB1107
 7894 08c9 01       		.uleb128 0x1
 7895 08ca EC06     		.uleb128 .LEHB400-.LFB1107
 7896 08cc 1C       		.uleb128 .LEHE400-.LEHB400
 7897 08cd DC11     		.uleb128 .L603-.LFB1107
 7898 08cf 03       		.uleb128 0x3
 7899 08d0 8807     		.uleb128 .LEHB401-.LFB1107
 7900 08d2 26       		.uleb128 .LEHE401-.LEHB401
 7901 08d3 BF12     		.uleb128 .L605-.LFB1107
 7902 08d5 01       		.uleb128 0x1
 7903 08d6 B507     		.uleb128 .LEHB402-.LFB1107
 7904 08d8 1C       		.uleb128 .LEHE402-.LEHB402
 7905 08d9 BD12     		.uleb128 .L606-.LFB1107
 7906 08db 03       		.uleb128 0x3
 7907 08dc D107     		.uleb128 .LEHB403-.LFB1107
 7908 08de 26       		.uleb128 .LEHE403-.LEHB403
 7909 08df A013     		.uleb128 .L608-.LFB1107
 7910 08e1 01       		.uleb128 0x1
 7911 08e2 FE07     		.uleb128 .LEHB404-.LFB1107
 7912 08e4 1C       		.uleb128 .LEHE404-.LEHB404
 7913 08e5 9E13     		.uleb128 .L609-.LFB1107
 7914 08e7 03       		.uleb128 0x3
 7915 08e8 9A08     		.uleb128 .LEHB405-.LFB1107
 7916 08ea 26       		.uleb128 .LEHE405-.LEHB405
 7917 08eb 8114     		.uleb128 .L611-.LFB1107
 7918 08ed 01       		.uleb128 0x1
 7919 08ee C708     		.uleb128 .LEHB406-.LFB1107
 7920 08f0 1C       		.uleb128 .LEHE406-.LEHB406
 7921 08f1 FF13     		.uleb128 .L612-.LFB1107
 7922 08f3 03       		.uleb128 0x3
 7923 08f4 E308     		.uleb128 .LEHB407-.LFB1107
 7924 08f6 26       		.uleb128 .LEHE407-.LEHB407
 7925 08f7 E214     		.uleb128 .L614-.LFB1107
 7926 08f9 01       		.uleb128 0x1
 7927 08fa 9009     		.uleb128 .LEHB408-.LFB1107
 7928 08fc 1C       		.uleb128 .LEHE408-.LEHB408
 7929 08fd E014     		.uleb128 .L615-.LFB1107
 7930 08ff 03       		.uleb128 0x3
 7931 0900 BB09     		.uleb128 .LEHB409-.LFB1107
 7932 0902 3A       		.uleb128 .LEHE409-.LEHB409
 7933 0903 FF09     		.uleb128 .L571-.LFB1107
 7934 0905 00       		.uleb128 0
 7935 0906 F509     		.uleb128 .LEHB410-.LFB1107
 7936 0908 05       		.uleb128 .LEHE410-.LEHB410
 7937 0909 00       		.uleb128 0
 7938 090a 00       		.uleb128 0
 7939 090b 8D0A     		.uleb128 .LEHB411-.LFB1107
 7940 090d 05       		.uleb128 .LEHE411-.LEHB411
 7941 090e 00       		.uleb128 0
 7942 090f 00       		.uleb128 0
 7943 0910 9C0A     		.uleb128 .LEHB412-.LFB1107
 7944 0912 3A       		.uleb128 .LEHE412-.LEHB412
 7945 0913 E00A     		.uleb128 .L574-.LFB1107
 7946 0915 00       		.uleb128 0
 7947 0916 D60A     		.uleb128 .LEHB413-.LFB1107
 7948 0918 05       		.uleb128 .LEHE413-.LEHB413
 7949 0919 00       		.uleb128 0
 7950 091a 00       		.uleb128 0
 7951 091b EE0A     		.uleb128 .LEHB414-.LFB1107
 7952 091d 05       		.uleb128 .LEHE414-.LEHB414
 7953 091e 00       		.uleb128 0
 7954 091f 00       		.uleb128 0
 7955 0920 FD0A     		.uleb128 .LEHB415-.LFB1107
 7956 0922 3A       		.uleb128 .LEHE415-.LEHB415
 7957 0923 C10B     		.uleb128 .L577-.LFB1107
 7958 0925 00       		.uleb128 0
 7959 0926 B70B     		.uleb128 .LEHB416-.LFB1107
 7960 0928 05       		.uleb128 .LEHE416-.LEHB416
 7961 0929 00       		.uleb128 0
 7962 092a 00       		.uleb128 0
 7963 092b CF0B     		.uleb128 .LEHB417-.LFB1107
 7964 092d 05       		.uleb128 .LEHE417-.LEHB417
 7965 092e 00       		.uleb128 0
 7966 092f 00       		.uleb128 0
 7967 0930 DE0B     		.uleb128 .LEHB418-.LFB1107
 7968 0932 3A       		.uleb128 .LEHE418-.LEHB418
 7969 0933 A20C     		.uleb128 .L580-.LFB1107
 7970 0935 00       		.uleb128 0
 7971 0936 980C     		.uleb128 .LEHB419-.LFB1107
 7972 0938 05       		.uleb128 .LEHE419-.LEHB419
 7973 0939 00       		.uleb128 0
 7974 093a 00       		.uleb128 0
 7975 093b B00C     		.uleb128 .LEHB420-.LFB1107
 7976 093d 05       		.uleb128 .LEHE420-.LEHB420
 7977 093e 00       		.uleb128 0
 7978 093f 00       		.uleb128 0
 7979 0940 BF0C     		.uleb128 .LEHB421-.LFB1107
 7980 0942 3A       		.uleb128 .LEHE421-.LEHB421
 7981 0943 830D     		.uleb128 .L583-.LFB1107
 7982 0945 00       		.uleb128 0
 7983 0946 F90C     		.uleb128 .LEHB422-.LFB1107
 7984 0948 05       		.uleb128 .LEHE422-.LEHB422
 7985 0949 00       		.uleb128 0
 7986 094a 00       		.uleb128 0
 7987 094b 910D     		.uleb128 .LEHB423-.LFB1107
 7988 094d 05       		.uleb128 .LEHE423-.LEHB423
 7989 094e 00       		.uleb128 0
 7990 094f 00       		.uleb128 0
 7991 0950 A00D     		.uleb128 .LEHB424-.LFB1107
 7992 0952 3A       		.uleb128 .LEHE424-.LEHB424
 7993 0953 E40D     		.uleb128 .L586-.LFB1107
 7994 0955 00       		.uleb128 0
 7995 0956 DA0D     		.uleb128 .LEHB425-.LFB1107
 7996 0958 05       		.uleb128 .LEHE425-.LEHB425
 7997 0959 00       		.uleb128 0
 7998 095a 00       		.uleb128 0
 7999 095b F20D     		.uleb128 .LEHB426-.LFB1107
 8000 095d 05       		.uleb128 .LEHE426-.LEHB426
 8001 095e 00       		.uleb128 0
 8002 095f 00       		.uleb128 0
 8003 0960 810E     		.uleb128 .LEHB427-.LFB1107
 8004 0962 3A       		.uleb128 .LEHE427-.LEHB427
 8005 0963 C50E     		.uleb128 .L589-.LFB1107
 8006 0965 00       		.uleb128 0
 8007 0966 BB0E     		.uleb128 .LEHB428-.LFB1107
 8008 0968 05       		.uleb128 .LEHE428-.LEHB428
 8009 0969 00       		.uleb128 0
 8010 096a 00       		.uleb128 0
 8011 096b D30E     		.uleb128 .LEHB429-.LFB1107
 8012 096d 05       		.uleb128 .LEHE429-.LEHB429
 8013 096e 00       		.uleb128 0
 8014 096f 00       		.uleb128 0
 8015 0970 E20E     		.uleb128 .LEHB430-.LFB1107
 8016 0972 3A       		.uleb128 .LEHE430-.LEHB430
 8017 0973 A60F     		.uleb128 .L592-.LFB1107
 8018 0975 00       		.uleb128 0
 8019 0976 9C0F     		.uleb128 .LEHB431-.LFB1107
 8020 0978 05       		.uleb128 .LEHE431-.LEHB431
 8021 0979 00       		.uleb128 0
 8022 097a 00       		.uleb128 0
 8023 097b B40F     		.uleb128 .LEHB432-.LFB1107
 8024 097d 05       		.uleb128 .LEHE432-.LEHB432
 8025 097e 00       		.uleb128 0
 8026 097f 00       		.uleb128 0
 8027 0980 C30F     		.uleb128 .LEHB433-.LFB1107
 8028 0982 3A       		.uleb128 .LEHE433-.LEHB433
 8029 0983 8710     		.uleb128 .L595-.LFB1107
 8030 0985 00       		.uleb128 0
 8031 0986 FD0F     		.uleb128 .LEHB434-.LFB1107
 8032 0988 05       		.uleb128 .LEHE434-.LEHB434
 8033 0989 00       		.uleb128 0
 8034 098a 00       		.uleb128 0
 8035 098b 9510     		.uleb128 .LEHB435-.LFB1107
 8036 098d 05       		.uleb128 .LEHE435-.LEHB435
 8037 098e 00       		.uleb128 0
 8038 098f 00       		.uleb128 0
 8039 0990 A410     		.uleb128 .LEHB436-.LFB1107
 8040 0992 3A       		.uleb128 .LEHE436-.LEHB436
 8041 0993 E810     		.uleb128 .L598-.LFB1107
 8042 0995 00       		.uleb128 0
 8043 0996 DE10     		.uleb128 .LEHB437-.LFB1107
 8044 0998 05       		.uleb128 .LEHE437-.LEHB437
 8045 0999 00       		.uleb128 0
 8046 099a 00       		.uleb128 0
 8047 099b F610     		.uleb128 .LEHB438-.LFB1107
 8048 099d 05       		.uleb128 .LEHE438-.LEHB438
 8049 099e 00       		.uleb128 0
 8050 099f 00       		.uleb128 0
 8051 09a0 8511     		.uleb128 .LEHB439-.LFB1107
 8052 09a2 3A       		.uleb128 .LEHE439-.LEHB439
 8053 09a3 C911     		.uleb128 .L601-.LFB1107
 8054 09a5 00       		.uleb128 0
 8055 09a6 BF11     		.uleb128 .LEHB440-.LFB1107
 8056 09a8 05       		.uleb128 .LEHE440-.LEHB440
 8057 09a9 00       		.uleb128 0
 8058 09aa 00       		.uleb128 0
 8059 09ab D711     		.uleb128 .LEHB441-.LFB1107
 8060 09ad 05       		.uleb128 .LEHE441-.LEHB441
 8061 09ae 00       		.uleb128 0
 8062 09af 00       		.uleb128 0
 8063 09b0 E611     		.uleb128 .LEHB442-.LFB1107
 8064 09b2 3A       		.uleb128 .LEHE442-.LEHB442
 8065 09b3 AA12     		.uleb128 .L604-.LFB1107
 8066 09b5 00       		.uleb128 0
 8067 09b6 A012     		.uleb128 .LEHB443-.LFB1107
 8068 09b8 05       		.uleb128 .LEHE443-.LEHB443
 8069 09b9 00       		.uleb128 0
 8070 09ba 00       		.uleb128 0
 8071 09bb B812     		.uleb128 .LEHB444-.LFB1107
 8072 09bd 05       		.uleb128 .LEHE444-.LEHB444
 8073 09be 00       		.uleb128 0
 8074 09bf 00       		.uleb128 0
 8075 09c0 C712     		.uleb128 .LEHB445-.LFB1107
 8076 09c2 3A       		.uleb128 .LEHE445-.LEHB445
 8077 09c3 8B13     		.uleb128 .L607-.LFB1107
 8078 09c5 00       		.uleb128 0
 8079 09c6 8113     		.uleb128 .LEHB446-.LFB1107
 8080 09c8 05       		.uleb128 .LEHE446-.LEHB446
 8081 09c9 00       		.uleb128 0
 8082 09ca 00       		.uleb128 0
 8083 09cb 9913     		.uleb128 .LEHB447-.LFB1107
 8084 09cd 05       		.uleb128 .LEHE447-.LEHB447
 8085 09ce 00       		.uleb128 0
 8086 09cf 00       		.uleb128 0
 8087 09d0 A813     		.uleb128 .LEHB448-.LFB1107
 8088 09d2 3A       		.uleb128 .LEHE448-.LEHB448
 8089 09d3 EC13     		.uleb128 .L610-.LFB1107
 8090 09d5 00       		.uleb128 0
 8091 09d6 E213     		.uleb128 .LEHB449-.LFB1107
 8092 09d8 05       		.uleb128 .LEHE449-.LEHB449
 8093 09d9 00       		.uleb128 0
 8094 09da 00       		.uleb128 0
 8095 09db FA13     		.uleb128 .LEHB450-.LFB1107
 8096 09dd 05       		.uleb128 .LEHE450-.LEHB450
 8097 09de 00       		.uleb128 0
 8098 09df 00       		.uleb128 0
 8099 09e0 8914     		.uleb128 .LEHB451-.LFB1107
 8100 09e2 3A       		.uleb128 .LEHE451-.LEHB451
 8101 09e3 CD14     		.uleb128 .L613-.LFB1107
 8102 09e5 00       		.uleb128 0
 8103 09e6 C314     		.uleb128 .LEHB452-.LFB1107
 8104 09e8 05       		.uleb128 .LEHE452-.LEHB452
 8105 09e9 00       		.uleb128 0
 8106 09ea 00       		.uleb128 0
 8107 09eb DB14     		.uleb128 .LEHB453-.LFB1107
 8108 09ed 05       		.uleb128 .LEHE453-.LEHB453
 8109 09ee 00       		.uleb128 0
 8110 09ef 00       		.uleb128 0
 8111 09f0 EA14     		.uleb128 .LEHB454-.LFB1107
 8112 09f2 3A       		.uleb128 .LEHE454-.LEHB454
 8113 09f3 AB15     		.uleb128 .L616-.LFB1107
 8114 09f5 00       		.uleb128 0
 8115 09f6 A415     		.uleb128 .LEHB455-.LFB1107
 8116 09f8 05       		.uleb128 .LEHE455-.LEHB455
 8117 09f9 00       		.uleb128 0
 8118 09fa 00       		.uleb128 0
 8119 09fb B915     		.uleb128 .LEHB456-.LFB1107
 8120 09fd 05       		.uleb128 .LEHE456-.LEHB456
 8121 09fe 00       		.uleb128 0
 8122 09ff 00       		.uleb128 0
 8123              	.LLSDACSE1107:
 8124 0a00 01       		.byte	0x1
 8125 0a01 00       		.byte	0
 8126 0a02 00       		.byte	0
 8127 0a03 7D       		.byte	0x7d
 8128              		.align 4
 8129 0a04 00000000 		.long	0
 8130              	
 8131              	.LLSDATT1107:
 8132              		.text
 8134              		.section	.text._ZN8UnitTest15MemoryOutStreamD1Ev,"axG",@progbits,_ZN8UnitTest15MemoryOutStreamD1Ev
 8135              		.align 2
 8136              		.weak	_ZN8UnitTest15MemoryOutStreamD1Ev
 8138              	_ZN8UnitTest15MemoryOutStreamD1Ev:
 8139              	.LFB1138:
  13:/home/gani/eval/20140524/makestuff/libs/libutpp/MemoryOutStream.h **** {
 8140              		.loc 2 13 0
 8141              		.cfi_startproc
 8142              		.cfi_personality 0x9b,DW.ref.__gxx_personality_v0
 8143              		.cfi_lsda 0x1b,.LLSDA1138
 8144 0000 55       		pushq	%rbp
 8145              		.cfi_def_cfa_offset 16
 8146              		.cfi_offset 6, -16
 8147 0001 4889E5   		movq	%rsp, %rbp
 8148              		.cfi_def_cfa_register 6
 8149 0004 53       		pushq	%rbx
 8150 0005 4883EC18 		subq	$24, %rsp
 8151              		.cfi_offset 3, -24
 8152 0009 48897DE8 		movq	%rdi, -24(%rbp)
 8153              	.LBB8:
  13:/home/gani/eval/20140524/makestuff/libs/libutpp/MemoryOutStream.h **** {
 8154              		.loc 2 13 0
 8155 000d 488D1500 		leaq	24+_ZTVN8UnitTest15MemoryOutStreamE(%rip), %rdx
 8155      000000
 8156 0014 488B45E8 		movq	-24(%rbp), %rax
 8157 0018 488910   		movq	%rdx, (%rax)
 8158 001b 488B45E8 		movq	-24(%rbp), %rax
 8159 001f 488D9090 		leaq	144(%rax), %rdx
 8159      000000
 8160 0026 488D0500 		leaq	64+_ZTVN8UnitTest15MemoryOutStreamE(%rip), %rax
 8160      000000
 8161 002d 488902   		movq	%rax, (%rdx)
 8162 0030 488B45E8 		movq	-24(%rbp), %rax
 8163 0034 4883C070 		addq	$112, %rax
 8164 0038 4889C7   		movq	%rax, %rdi
 8165              	.LEHB457:
 8166 003b E8000000 		call	_ZNSt7__cxx1112basic_stringIcSt11char_traitsIcESaIcEED1Ev@PLT
 8166      00
 8167              	.LEHE457:
  13:/home/gani/eval/20140524/makestuff/libs/libutpp/MemoryOutStream.h **** {
 8168              		.loc 2 13 0 is_stmt 0 discriminator 2
 8169 0040 488B45E8 		movq	-24(%rbp), %rax
 8170 0044 488D1500 		leaq	8+_ZTTN8UnitTest15MemoryOutStreamE(%rip), %rdx
 8170      000000
 8171 004b 4889D6   		movq	%rdx, %rsi
 8172 004e 4889C7   		movq	%rax, %rdi
 8173              	.LEHB458:
 8174 0051 E8000000 		call	_ZNSt7__cxx1119basic_ostringstreamIcSt11char_traitsIcESaIcEED2Ev@PLT
 8174      00
 8175              	.LEHE458:
  13:/home/gani/eval/20140524/makestuff/libs/libutpp/MemoryOutStream.h **** {
 8176              		.loc 2 13 0 discriminator 4
 8177 0056 488B45E8 		movq	-24(%rbp), %rax
 8178 005a 48059000 		addq	$144, %rax
 8178      0000
 8179 0060 4889C7   		movq	%rax, %rdi
 8180              	.LEHB459:
 8181 0063 E8000000 		call	_ZNSt9basic_iosIcSt11char_traitsIcEED2Ev@PLT
 8181      00
 8182              	.LEHE459:
 8183              	.LBE8:
 8184 0068 EB3B     		jmp	.L622
 8185              	.L620:
 8186 006a 4889C3   		movq	%rax, %rbx
 8187              	.LBB9:
  13:/home/gani/eval/20140524/makestuff/libs/libutpp/MemoryOutStream.h **** {
 8188              		.loc 2 13 0
 8189 006d 488B45E8 		movq	-24(%rbp), %rax
 8190 0071 488D1500 		leaq	8+_ZTTN8UnitTest15MemoryOutStreamE(%rip), %rdx
 8190      000000
 8191 0078 4889D6   		movq	%rdx, %rsi
 8192 007b 4889C7   		movq	%rax, %rdi
 8193 007e E8000000 		call	_ZNSt7__cxx1119basic_ostringstreamIcSt11char_traitsIcESaIcEED2Ev@PLT
 8193      00
 8194 0083 EB03     		jmp	.L619
 8195              	.L621:
 8196 0085 4889C3   		movq	%rax, %rbx
 8197              	.L619:
  13:/home/gani/eval/20140524/makestuff/libs/libutpp/MemoryOutStream.h **** {
 8198              		.loc 2 13 0 discriminator 3
 8199 0088 488B45E8 		movq	-24(%rbp), %rax
 8200 008c 48059000 		addq	$144, %rax
 8200      0000
 8201 0092 4889C7   		movq	%rax, %rdi
 8202 0095 E8000000 		call	_ZNSt9basic_iosIcSt11char_traitsIcEED2Ev@PLT
 8202      00
 8203 009a 4889D8   		movq	%rbx, %rax
 8204 009d 4889C7   		movq	%rax, %rdi
 8205              	.LEHB460:
 8206 00a0 E8000000 		call	_Unwind_Resume@PLT
 8206      00
 8207              	.LEHE460:
 8208              	.L622:
 8209              	.LBE9:
  13:/home/gani/eval/20140524/makestuff/libs/libutpp/MemoryOutStream.h **** {
 8210              		.loc 2 13 0
 8211 00a5 4883C418 		addq	$24, %rsp
 8212 00a9 5B       		popq	%rbx
 8213 00aa 5D       		popq	%rbp
 8214              		.cfi_def_cfa 7, 8
 8215 00ab C3       		ret
 8216              		.cfi_endproc
 8217              	.LFE1138:
 8218              		.section	.gcc_except_table
 8219              	.LLSDA1138:
 8220 0a08 FF       		.byte	0xff
 8221 0a09 FF       		.byte	0xff
 8222 0a0a 01       		.byte	0x1
 8223 0a0b 12       		.uleb128 .LLSDACSE1138-.LLSDACSB1138
 8224              	.LLSDACSB1138:
 8225 0a0c 3B       		.uleb128 .LEHB457-.LFB1138
 8226 0a0d 05       		.uleb128 .LEHE457-.LEHB457
 8227 0a0e 6A       		.uleb128 .L620-.LFB1138
 8228 0a0f 00       		.uleb128 0
 8229 0a10 51       		.uleb128 .LEHB458-.LFB1138
 8230 0a11 05       		.uleb128 .LEHE458-.LEHB458
 8231 0a12 8501     		.uleb128 .L621-.LFB1138
 8232 0a14 00       		.uleb128 0
 8233 0a15 63       		.uleb128 .LEHB459-.LFB1138
 8234 0a16 05       		.uleb128 .LEHE459-.LEHB459
 8235 0a17 00       		.uleb128 0
 8236 0a18 00       		.uleb128 0
 8237 0a19 A001     		.uleb128 .LEHB460-.LFB1138
 8238 0a1b 05       		.uleb128 .LEHE460-.LEHB460
 8239 0a1c 00       		.uleb128 0
 8240 0a1d 00       		.uleb128 0
 8241              	.LLSDACSE1138:
 8242              		.section	.text._ZN8UnitTest15MemoryOutStreamD1Ev,"axG",@progbits,_ZN8UnitTest15MemoryOutStreamD1Ev
 8244              		.set	.LTHUNK0,_ZN8UnitTest15MemoryOutStreamD1Ev
 8245              		.weak	_ZTv0_n24_N8UnitTest15MemoryOutStreamD1Ev
 8247              	_ZTv0_n24_N8UnitTest15MemoryOutStreamD1Ev:
 8248              	.LFB1215:
  13:/home/gani/eval/20140524/makestuff/libs/libutpp/MemoryOutStream.h **** {
 8249              		.loc 2 13 0 is_stmt 1
 8250              		.cfi_startproc
 8251 00ac 4C8B17   		movq	(%rdi), %r10
 8252 00af 49037AE8 		addq	-24(%r10), %rdi
 8253 00b3 E948FFFF 		jmp	.LTHUNK0
 8253      FF
 8254              		.cfi_endproc
 8255              	.LFE1215:
 8257              		.section	.text._ZN8UnitTest15MemoryOutStreamD0Ev,"axG",@progbits,_ZN8UnitTest15MemoryOutStreamD0Ev
 8258              		.align 2
 8259              		.weak	_ZN8UnitTest15MemoryOutStreamD0Ev
 8261              	_ZN8UnitTest15MemoryOutStreamD0Ev:
 8262              	.LFB1139:
  13:/home/gani/eval/20140524/makestuff/libs/libutpp/MemoryOutStream.h **** {
 8263              		.loc 2 13 0
 8264              		.cfi_startproc
 8265              		.cfi_personality 0x9b,DW.ref.__gxx_personality_v0
 8266              		.cfi_lsda 0x1b,.LLSDA1139
 8267 0000 55       		pushq	%rbp
 8268              		.cfi_def_cfa_offset 16
 8269              		.cfi_offset 6, -16
 8270 0001 4889E5   		movq	%rsp, %rbp
 8271              		.cfi_def_cfa_register 6
 8272 0004 53       		pushq	%rbx
 8273 0005 4883EC18 		subq	$24, %rsp
 8274              		.cfi_offset 3, -24
 8275 0009 48897DE8 		movq	%rdi, -24(%rbp)
  13:/home/gani/eval/20140524/makestuff/libs/libutpp/MemoryOutStream.h **** {
 8276              		.loc 2 13 0
 8277 000d 488B45E8 		movq	-24(%rbp), %rax
 8278 0011 4889C7   		movq	%rax, %rdi
 8279              	.LEHB461:
 8280 0014 E8000000 		call	_ZN8UnitTest15MemoryOutStreamD1Ev
 8280      00
 8281              	.LEHE461:
  13:/home/gani/eval/20140524/makestuff/libs/libutpp/MemoryOutStream.h **** {
 8282              		.loc 2 13 0 is_stmt 0 discriminator 2
 8283 0019 488B45E8 		movq	-24(%rbp), %rax
 8284 001d 4889C7   		movq	%rax, %rdi
 8285 0020 E8000000 		call	_ZdlPv@PLT
 8285      00
 8286 0025 EB1A     		jmp	.L626
 8287              	.L625:
 8288 0027 4889C3   		movq	%rax, %rbx
  13:/home/gani/eval/20140524/makestuff/libs/libutpp/MemoryOutStream.h **** {
 8289              		.loc 2 13 0
 8290 002a 488B45E8 		movq	-24(%rbp), %rax
 8291 002e 4889C7   		movq	%rax, %rdi
 8292 0031 E8000000 		call	_ZdlPv@PLT
 8292      00
 8293 0036 4889D8   		movq	%rbx, %rax
 8294 0039 4889C7   		movq	%rax, %rdi
 8295              	.LEHB462:
 8296 003c E8000000 		call	_Unwind_Resume@PLT
 8296      00
 8297              	.LEHE462:
 8298              	.L626:
 8299 0041 4883C418 		addq	$24, %rsp
 8300 0045 5B       		popq	%rbx
 8301 0046 5D       		popq	%rbp
 8302              		.cfi_def_cfa 7, 8
 8303 0047 C3       		ret
 8304              		.cfi_endproc
 8305              	.LFE1139:
 8306              		.section	.gcc_except_table
 8307              	.LLSDA1139:
 8308 0a1e FF       		.byte	0xff
 8309 0a1f FF       		.byte	0xff
 8310 0a20 01       		.byte	0x1
 8311 0a21 08       		.uleb128 .LLSDACSE1139-.LLSDACSB1139
 8312              	.LLSDACSB1139:
 8313 0a22 14       		.uleb128 .LEHB461-.LFB1139
 8314 0a23 05       		.uleb128 .LEHE461-.LEHB461
 8315 0a24 27       		.uleb128 .L625-.LFB1139
 8316 0a25 00       		.uleb128 0
 8317 0a26 3C       		.uleb128 .LEHB462-.LFB1139
 8318 0a27 05       		.uleb128 .LEHE462-.LEHB462
 8319 0a28 00       		.uleb128 0
 8320 0a29 00       		.uleb128 0
 8321              	.LLSDACSE1139:
 8322              		.section	.text._ZN8UnitTest15MemoryOutStreamD0Ev,"axG",@progbits,_ZN8UnitTest15MemoryOutStreamD0Ev
 8324              		.set	.LTHUNK1,_ZN8UnitTest15MemoryOutStreamD0Ev
 8325              		.weak	_ZTv0_n24_N8UnitTest15MemoryOutStreamD0Ev
 8327              	_ZTv0_n24_N8UnitTest15MemoryOutStreamD0Ev:
 8328              	.LFB1216:
  13:/home/gani/eval/20140524/makestuff/libs/libutpp/MemoryOutStream.h **** {
 8329              		.loc 2 13 0 is_stmt 1
 8330              		.cfi_startproc
 8331 0048 4C8B17   		movq	(%rdi), %r10
 8332 004b 49037AE8 		addq	-24(%r10), %rdi
 8333 004f EBAF     		jmp	.LTHUNK1
 8334              		.cfi_endproc
 8335              	.LFE1216:
 8337              		.section	.rodata
 8338              	.LC64:
 8339 0d81 45787065 		.string	"Expected "
 8339      63746564 
 8339      2000
 8340              	.LC65:
 8341 0d8b 20627574 		.string	" but was "
 8341      20776173 
 8341      2000
 8342              		.section	.text._ZN8UnitTest10CheckEqualIbbEEvRNS_11TestResultsERKT_RKT0_RKNS_11TestDetailsE,"axG",
 8343              		.weak	_ZN8UnitTest10CheckEqualIbbEEvRNS_11TestResultsERKT_RKT0_RKNS_11TestDetailsE
 8345              	_ZN8UnitTest10CheckEqualIbbEEvRNS_11TestResultsERKT_RKT0_RKNS_11TestDetailsE:
 8346              	.LFB1135:
 8347              		.file 4 "/home/gani/eval/20140524/makestuff/libs/libutpp/Checks.h"
   1:/home/gani/eval/20140524/makestuff/libs/libutpp/Checks.h **** #ifndef UNITTEST_CHECKS_H
   2:/home/gani/eval/20140524/makestuff/libs/libutpp/Checks.h **** #define UNITTEST_CHECKS_H
   3:/home/gani/eval/20140524/makestuff/libs/libutpp/Checks.h **** 
   4:/home/gani/eval/20140524/makestuff/libs/libutpp/Checks.h **** #include "Config.h"
   5:/home/gani/eval/20140524/makestuff/libs/libutpp/Checks.h **** #include "TestResults.h"
   6:/home/gani/eval/20140524/makestuff/libs/libutpp/Checks.h **** #include "MemoryOutStream.h"
   7:/home/gani/eval/20140524/makestuff/libs/libutpp/Checks.h **** 
   8:/home/gani/eval/20140524/makestuff/libs/libutpp/Checks.h **** namespace UnitTest {
   9:/home/gani/eval/20140524/makestuff/libs/libutpp/Checks.h **** 
  10:/home/gani/eval/20140524/makestuff/libs/libutpp/Checks.h **** 
  11:/home/gani/eval/20140524/makestuff/libs/libutpp/Checks.h **** template< typename Value >
  12:/home/gani/eval/20140524/makestuff/libs/libutpp/Checks.h **** bool Check(Value const value)
  13:/home/gani/eval/20140524/makestuff/libs/libutpp/Checks.h **** {
  14:/home/gani/eval/20140524/makestuff/libs/libutpp/Checks.h ****     return !!value; // doing double negative to avoid silly VS warnings
  15:/home/gani/eval/20140524/makestuff/libs/libutpp/Checks.h **** }
  16:/home/gani/eval/20140524/makestuff/libs/libutpp/Checks.h **** 
  17:/home/gani/eval/20140524/makestuff/libs/libutpp/Checks.h **** 
  18:/home/gani/eval/20140524/makestuff/libs/libutpp/Checks.h **** template< typename Expected, typename Actual >
  19:/home/gani/eval/20140524/makestuff/libs/libutpp/Checks.h **** void CheckEqual(TestResults& results, Expected const& expected, Actual const& actual, TestDetails c
 8348              		.loc 4 19 0
 8349              		.cfi_startproc
 8350              		.cfi_personality 0x9b,DW.ref.__gxx_personality_v0
 8351              		.cfi_lsda 0x1b,.LLSDA1135
 8352 0000 55       		pushq	%rbp
 8353              		.cfi_def_cfa_offset 16
 8354              		.cfi_offset 6, -16
 8355 0001 4889E5   		movq	%rsp, %rbp
 8356              		.cfi_def_cfa_register 6
 8357 0004 53       		pushq	%rbx
 8358 0005 4881ECC8 		subq	$456, %rsp
 8358      010000
 8359              		.cfi_offset 3, -24
 8360 000c 4889BD48 		movq	%rdi, -440(%rbp)
 8360      FEFFFF
 8361 0013 4889B540 		movq	%rsi, -448(%rbp)
 8361      FEFFFF
 8362 001a 48899538 		movq	%rdx, -456(%rbp)
 8362      FEFFFF
 8363 0021 48898D30 		movq	%rcx, -464(%rbp)
 8363      FEFFFF
 8364              		.loc 4 19 0
 8365 0028 64488B04 		movq	%fs:40, %rax
 8365      25280000 
 8365      00
 8366 0031 488945E8 		movq	%rax, -24(%rbp)
 8367 0035 31C0     		xorl	%eax, %eax
 8368              	.LBB10:
  20:/home/gani/eval/20140524/makestuff/libs/libutpp/Checks.h **** {
  21:/home/gani/eval/20140524/makestuff/libs/libutpp/Checks.h ****     if (!(expected == actual))
 8369              		.loc 4 21 0
 8370 0037 488B8540 		movq	-448(%rbp), %rax
 8370      FEFFFF
 8371 003e 0FB610   		movzbl	(%rax), %edx
 8372 0041 488B8538 		movq	-456(%rbp), %rax
 8372      FEFFFF
 8373 0048 0FB600   		movzbl	(%rax), %eax
 8374 004b 38C2     		cmpb	%al, %dl
 8375 004d 0F84C100 		je	.L632
 8375      0000
 8376              	.LBB11:
  22:/home/gani/eval/20140524/makestuff/libs/libutpp/Checks.h ****     {
  23:/home/gani/eval/20140524/makestuff/libs/libutpp/Checks.h ****         UnitTest::MemoryOutStream stream;
 8377              		.loc 4 23 0
 8378 0053 488D8550 		leaq	-432(%rbp), %rax
 8378      FEFFFF
 8379 005a 4889C7   		movq	%rax, %rdi
 8380              	.LEHB463:
 8381 005d E8000000 		call	_ZN8UnitTest15MemoryOutStreamC1Ev
 8381      00
 8382              	.LEHE463:
  24:/home/gani/eval/20140524/makestuff/libs/libutpp/Checks.h ****         stream << "Expected " << expected << " but was " << actual;
 8383              		.loc 4 24 0
 8384 0062 488D8550 		leaq	-432(%rbp), %rax
 8384      FEFFFF
 8385 0069 488D3500 		leaq	.LC64(%rip), %rsi
 8385      000000
 8386 0070 4889C7   		movq	%rax, %rdi
 8387              	.LEHB464:
 8388 0073 E8000000 		call	_ZStlsISt11char_traitsIcEERSt13basic_ostreamIcT_ES5_PKc@PLT
 8388      00
 8389 0078 4889C2   		movq	%rax, %rdx
 8390 007b 488B8540 		movq	-448(%rbp), %rax
 8390      FEFFFF
 8391 0082 0FB600   		movzbl	(%rax), %eax
 8392 0085 0FB6C0   		movzbl	%al, %eax
 8393 0088 89C6     		movl	%eax, %esi
 8394 008a 4889D7   		movq	%rdx, %rdi
 8395 008d E8000000 		call	_ZNSolsEb@PLT
 8395      00
 8396              		.loc 4 24 0 is_stmt 0 discriminator 1
 8397 0092 488D3500 		leaq	.LC65(%rip), %rsi
 8397      000000
 8398 0099 4889C7   		movq	%rax, %rdi
 8399 009c E8000000 		call	_ZStlsISt11char_traitsIcEERSt13basic_ostreamIcT_ES5_PKc@PLT
 8399      00
 8400              		.loc 4 24 0 discriminator 2
 8401 00a1 4889C2   		movq	%rax, %rdx
 8402 00a4 488B8538 		movq	-456(%rbp), %rax
 8402      FEFFFF
 8403 00ab 0FB600   		movzbl	(%rax), %eax
 8404 00ae 0FB6C0   		movzbl	%al, %eax
 8405 00b1 89C6     		movl	%eax, %esi
 8406 00b3 4889D7   		movq	%rdx, %rdi
 8407 00b6 E8000000 		call	_ZNSolsEb@PLT
 8407      00
  25:/home/gani/eval/20140524/makestuff/libs/libutpp/Checks.h **** 
  26:/home/gani/eval/20140524/makestuff/libs/libutpp/Checks.h ****         results.OnTestFailure(details, stream.GetText());
 8408              		.loc 4 26 0 is_stmt 1
 8409 00bb 488D8550 		leaq	-432(%rbp), %rax
 8409      FEFFFF
 8410 00c2 4889C7   		movq	%rax, %rdi
 8411 00c5 E8000000 		call	_ZNK8UnitTest15MemoryOutStream7GetTextEv@PLT
 8411      00
 8412 00ca 4889C2   		movq	%rax, %rdx
 8413 00cd 488B8D30 		movq	-464(%rbp), %rcx
 8413      FEFFFF
 8414 00d4 488B8548 		movq	-440(%rbp), %rax
 8414      FEFFFF
 8415 00db 4889CE   		movq	%rcx, %rsi
 8416 00de 4889C7   		movq	%rax, %rdi
 8417 00e1 E8000000 		call	_ZN8UnitTest11TestResults13OnTestFailureERKNS_11TestDetailsEPKc@PLT
 8417      00
 8418              	.LEHE464:
  23:/home/gani/eval/20140524/makestuff/libs/libutpp/Checks.h ****         stream << "Expected " << expected << " but was " << actual;
 8419              		.loc 4 23 0
 8420 00e6 488D8550 		leaq	-432(%rbp), %rax
 8420      FEFFFF
 8421 00ed 4889C7   		movq	%rax, %rdi
 8422              	.LEHB465:
 8423 00f0 E8000000 		call	_ZN8UnitTest15MemoryOutStreamD1Ev
 8423      00
 8424              	.LEHE465:
 8425              	.LBE11:
 8426              	.LBE10:
  27:/home/gani/eval/20140524/makestuff/libs/libutpp/Checks.h ****     }
  28:/home/gani/eval/20140524/makestuff/libs/libutpp/Checks.h **** }
 8427              		.loc 4 28 0
 8428 00f5 EB1D     		jmp	.L632
 8429              	.L631:
 8430 00f7 4889C3   		movq	%rax, %rbx
 8431              	.LBB13:
 8432              	.LBB12:
  23:/home/gani/eval/20140524/makestuff/libs/libutpp/Checks.h ****         stream << "Expected " << expected << " but was " << actual;
 8433              		.loc 4 23 0
 8434 00fa 488D8550 		leaq	-432(%rbp), %rax
 8434      FEFFFF
 8435 0101 4889C7   		movq	%rax, %rdi
 8436 0104 E8000000 		call	_ZN8UnitTest15MemoryOutStreamD1Ev
 8436      00
 8437 0109 4889D8   		movq	%rbx, %rax
 8438 010c 4889C7   		movq	%rax, %rdi
 8439              	.LEHB466:
 8440 010f E8000000 		call	_Unwind_Resume@PLT
 8440      00
 8441              	.LEHE466:
 8442              	.L632:
 8443              	.LBE12:
 8444              	.LBE13:
 8445              		.loc 4 28 0
 8446 0114 90       		nop
 8447 0115 488B45E8 		movq	-24(%rbp), %rax
 8448 0119 64483304 		xorq	%fs:40, %rax
 8448      25280000 
 8448      00
 8449 0122 7405     		je	.L630
 8450 0124 E8000000 		call	__stack_chk_fail@PLT
 8450      00
 8451              	.L630:
 8452 0129 4881C4C8 		addq	$456, %rsp
 8452      010000
 8453 0130 5B       		popq	%rbx
 8454 0131 5D       		popq	%rbp
 8455              		.cfi_def_cfa 7, 8
 8456 0132 C3       		ret
 8457              		.cfi_endproc
 8458              	.LFE1135:
 8459              		.section	.gcc_except_table
 8460              	.LLSDA1135:
 8461 0a2a FF       		.byte	0xff
 8462 0a2b FF       		.byte	0xff
 8463 0a2c 01       		.byte	0x1
 8464 0a2d 13       		.uleb128 .LLSDACSE1135-.LLSDACSB1135
 8465              	.LLSDACSB1135:
 8466 0a2e 5D       		.uleb128 .LEHB463-.LFB1135
 8467 0a2f 05       		.uleb128 .LEHE463-.LEHB463
 8468 0a30 00       		.uleb128 0
 8469 0a31 00       		.uleb128 0
 8470 0a32 73       		.uleb128 .LEHB464-.LFB1135
 8471 0a33 73       		.uleb128 .LEHE464-.LEHB464
 8472 0a34 F701     		.uleb128 .L631-.LFB1135
 8473 0a36 00       		.uleb128 0
 8474 0a37 F001     		.uleb128 .LEHB465-.LFB1135
 8475 0a39 05       		.uleb128 .LEHE465-.LEHB465
 8476 0a3a 00       		.uleb128 0
 8477 0a3b 00       		.uleb128 0
 8478 0a3c 8F02     		.uleb128 .LEHB466-.LFB1135
 8479 0a3e 05       		.uleb128 .LEHE466-.LEHB466
 8480 0a3f 00       		.uleb128 0
 8481 0a40 00       		.uleb128 0
 8482              	.LLSDACSE1135:
 8483              		.section	.text._ZN8UnitTest10CheckEqualIbbEEvRNS_11TestResultsERKT_RKT0_RKNS_11TestDetailsE,"axG",
 8485              		.section	.text._ZN8UnitTest10CheckEqualIihEEvRNS_11TestResultsERKT_RKT0_RKNS_11TestDetailsE,"axG",
 8486              		.weak	_ZN8UnitTest10CheckEqualIihEEvRNS_11TestResultsERKT_RKT0_RKNS_11TestDetailsE
 8488              	_ZN8UnitTest10CheckEqualIihEEvRNS_11TestResultsERKT_RKT0_RKNS_11TestDetailsE:
 8489              	.LFB1140:
  19:/home/gani/eval/20140524/makestuff/libs/libutpp/Checks.h **** {
 8490              		.loc 4 19 0
 8491              		.cfi_startproc
 8492              		.cfi_personality 0x9b,DW.ref.__gxx_personality_v0
 8493              		.cfi_lsda 0x1b,.LLSDA1140
 8494 0000 55       		pushq	%rbp
 8495              		.cfi_def_cfa_offset 16
 8496              		.cfi_offset 6, -16
 8497 0001 4889E5   		movq	%rsp, %rbp
 8498              		.cfi_def_cfa_register 6
 8499 0004 53       		pushq	%rbx
 8500 0005 4881ECC8 		subq	$456, %rsp
 8500      010000
 8501              		.cfi_offset 3, -24
 8502 000c 4889BD48 		movq	%rdi, -440(%rbp)
 8502      FEFFFF
 8503 0013 4889B540 		movq	%rsi, -448(%rbp)
 8503      FEFFFF
 8504 001a 48899538 		movq	%rdx, -456(%rbp)
 8504      FEFFFF
 8505 0021 48898D30 		movq	%rcx, -464(%rbp)
 8505      FEFFFF
  19:/home/gani/eval/20140524/makestuff/libs/libutpp/Checks.h **** {
 8506              		.loc 4 19 0
 8507 0028 64488B04 		movq	%fs:40, %rax
 8507      25280000 
 8507      00
 8508 0031 488945E8 		movq	%rax, -24(%rbp)
 8509 0035 31C0     		xorl	%eax, %eax
 8510              	.LBB14:
  21:/home/gani/eval/20140524/makestuff/libs/libutpp/Checks.h ****     {
 8511              		.loc 4 21 0
 8512 0037 488B8540 		movq	-448(%rbp), %rax
 8512      FEFFFF
 8513 003e 8B10     		movl	(%rax), %edx
 8514 0040 488B8538 		movq	-456(%rbp), %rax
 8514      FEFFFF
 8515 0047 0FB600   		movzbl	(%rax), %eax
 8516 004a 0FB6C0   		movzbl	%al, %eax
 8517 004d 39C2     		cmpl	%eax, %edx
 8518 004f 0F84BD00 		je	.L638
 8518      0000
 8519              	.LBB15:
  23:/home/gani/eval/20140524/makestuff/libs/libutpp/Checks.h ****         stream << "Expected " << expected << " but was " << actual;
 8520              		.loc 4 23 0
 8521 0055 488D8550 		leaq	-432(%rbp), %rax
 8521      FEFFFF
 8522 005c 4889C7   		movq	%rax, %rdi
 8523              	.LEHB467:
 8524 005f E8000000 		call	_ZN8UnitTest15MemoryOutStreamC1Ev
 8524      00
 8525              	.LEHE467:
  24:/home/gani/eval/20140524/makestuff/libs/libutpp/Checks.h **** 
 8526              		.loc 4 24 0
 8527 0064 488D8550 		leaq	-432(%rbp), %rax
 8527      FEFFFF
 8528 006b 488D3500 		leaq	.LC64(%rip), %rsi
 8528      000000
 8529 0072 4889C7   		movq	%rax, %rdi
 8530              	.LEHB468:
 8531 0075 E8000000 		call	_ZStlsISt11char_traitsIcEERSt13basic_ostreamIcT_ES5_PKc@PLT
 8531      00
 8532 007a 4889C2   		movq	%rax, %rdx
 8533 007d 488B8540 		movq	-448(%rbp), %rax
 8533      FEFFFF
 8534 0084 8B00     		movl	(%rax), %eax
 8535 0086 89C6     		movl	%eax, %esi
 8536 0088 4889D7   		movq	%rdx, %rdi
 8537 008b E8000000 		call	_ZNSolsEi@PLT
 8537      00
  24:/home/gani/eval/20140524/makestuff/libs/libutpp/Checks.h **** 
 8538              		.loc 4 24 0 is_stmt 0 discriminator 1
 8539 0090 488D3500 		leaq	.LC65(%rip), %rsi
 8539      000000
 8540 0097 4889C7   		movq	%rax, %rdi
 8541 009a E8000000 		call	_ZStlsISt11char_traitsIcEERSt13basic_ostreamIcT_ES5_PKc@PLT
 8541      00
  24:/home/gani/eval/20140524/makestuff/libs/libutpp/Checks.h **** 
 8542              		.loc 4 24 0 discriminator 2
 8543 009f 4889C2   		movq	%rax, %rdx
 8544 00a2 488B8538 		movq	-456(%rbp), %rax
 8544      FEFFFF
 8545 00a9 0FB600   		movzbl	(%rax), %eax
 8546 00ac 0FB6C0   		movzbl	%al, %eax
 8547 00af 89C6     		movl	%eax, %esi
 8548 00b1 4889D7   		movq	%rdx, %rdi
 8549 00b4 E8000000 		call	_ZStlsISt11char_traitsIcEERSt13basic_ostreamIcT_ES5_h@PLT
 8549      00
  26:/home/gani/eval/20140524/makestuff/libs/libutpp/Checks.h ****     }
 8550              		.loc 4 26 0 is_stmt 1
 8551 00b9 488D8550 		leaq	-432(%rbp), %rax
 8551      FEFFFF
 8552 00c0 4889C7   		movq	%rax, %rdi
 8553 00c3 E8000000 		call	_ZNK8UnitTest15MemoryOutStream7GetTextEv@PLT
 8553      00
 8554 00c8 4889C2   		movq	%rax, %rdx
 8555 00cb 488B8D30 		movq	-464(%rbp), %rcx
 8555      FEFFFF
 8556 00d2 488B8548 		movq	-440(%rbp), %rax
 8556      FEFFFF
 8557 00d9 4889CE   		movq	%rcx, %rsi
 8558 00dc 4889C7   		movq	%rax, %rdi
 8559 00df E8000000 		call	_ZN8UnitTest11TestResults13OnTestFailureERKNS_11TestDetailsEPKc@PLT
 8559      00
 8560              	.LEHE468:
  23:/home/gani/eval/20140524/makestuff/libs/libutpp/Checks.h ****         stream << "Expected " << expected << " but was " << actual;
 8561              		.loc 4 23 0
 8562 00e4 488D8550 		leaq	-432(%rbp), %rax
 8562      FEFFFF
 8563 00eb 4889C7   		movq	%rax, %rdi
 8564              	.LEHB469:
 8565 00ee E8000000 		call	_ZN8UnitTest15MemoryOutStreamD1Ev
 8565      00
 8566              	.LEHE469:
 8567              	.LBE15:
 8568              	.LBE14:
 8569              		.loc 4 28 0
 8570 00f3 EB1D     		jmp	.L638
 8571              	.L637:
 8572 00f5 4889C3   		movq	%rax, %rbx
 8573              	.LBB17:
 8574              	.LBB16:
  23:/home/gani/eval/20140524/makestuff/libs/libutpp/Checks.h ****         stream << "Expected " << expected << " but was " << actual;
 8575              		.loc 4 23 0
 8576 00f8 488D8550 		leaq	-432(%rbp), %rax
 8576      FEFFFF
 8577 00ff 4889C7   		movq	%rax, %rdi
 8578 0102 E8000000 		call	_ZN8UnitTest15MemoryOutStreamD1Ev
 8578      00
 8579 0107 4889D8   		movq	%rbx, %rax
 8580 010a 4889C7   		movq	%rax, %rdi
 8581              	.LEHB470:
 8582 010d E8000000 		call	_Unwind_Resume@PLT
 8582      00
 8583              	.LEHE470:
 8584              	.L638:
 8585              	.LBE16:
 8586              	.LBE17:
 8587              		.loc 4 28 0
 8588 0112 90       		nop
 8589 0113 488B45E8 		movq	-24(%rbp), %rax
 8590 0117 64483304 		xorq	%fs:40, %rax
 8590      25280000 
 8590      00
 8591 0120 7405     		je	.L636
 8592 0122 E8000000 		call	__stack_chk_fail@PLT
 8592      00
 8593              	.L636:
 8594 0127 4881C4C8 		addq	$456, %rsp
 8594      010000
 8595 012e 5B       		popq	%rbx
 8596 012f 5D       		popq	%rbp
 8597              		.cfi_def_cfa 7, 8
 8598 0130 C3       		ret
 8599              		.cfi_endproc
 8600              	.LFE1140:
 8601              		.section	.gcc_except_table
 8602              	.LLSDA1140:
 8603 0a41 FF       		.byte	0xff
 8604 0a42 FF       		.byte	0xff
 8605 0a43 01       		.byte	0x1
 8606 0a44 13       		.uleb128 .LLSDACSE1140-.LLSDACSB1140
 8607              	.LLSDACSB1140:
 8608 0a45 5F       		.uleb128 .LEHB467-.LFB1140
 8609 0a46 05       		.uleb128 .LEHE467-.LEHB467
 8610 0a47 00       		.uleb128 0
 8611 0a48 00       		.uleb128 0
 8612 0a49 75       		.uleb128 .LEHB468-.LFB1140
 8613 0a4a 6F       		.uleb128 .LEHE468-.LEHB468
 8614 0a4b F501     		.uleb128 .L637-.LFB1140
 8615 0a4d 00       		.uleb128 0
 8616 0a4e EE01     		.uleb128 .LEHB469-.LFB1140
 8617 0a50 05       		.uleb128 .LEHE469-.LEHB469
 8618 0a51 00       		.uleb128 0
 8619 0a52 00       		.uleb128 0
 8620 0a53 8D02     		.uleb128 .LEHB470-.LFB1140
 8621 0a55 05       		.uleb128 .LEHE470-.LEHB470
 8622 0a56 00       		.uleb128 0
 8623 0a57 00       		.uleb128 0
 8624              	.LLSDACSE1140:
 8625              		.section	.text._ZN8UnitTest10CheckEqualIihEEvRNS_11TestResultsERKT_RKT0_RKNS_11TestDetailsE,"axG",
 8627              		.section	.text._ZN8UnitTest10CheckEqualIccEEvRNS_11TestResultsERKT_RKT0_RKNS_11TestDetailsE,"axG",
 8628              		.weak	_ZN8UnitTest10CheckEqualIccEEvRNS_11TestResultsERKT_RKT0_RKNS_11TestDetailsE
 8630              	_ZN8UnitTest10CheckEqualIccEEvRNS_11TestResultsERKT_RKT0_RKNS_11TestDetailsE:
 8631              	.LFB1141:
  19:/home/gani/eval/20140524/makestuff/libs/libutpp/Checks.h **** {
 8632              		.loc 4 19 0
 8633              		.cfi_startproc
 8634              		.cfi_personality 0x9b,DW.ref.__gxx_personality_v0
 8635              		.cfi_lsda 0x1b,.LLSDA1141
 8636 0000 55       		pushq	%rbp
 8637              		.cfi_def_cfa_offset 16
 8638              		.cfi_offset 6, -16
 8639 0001 4889E5   		movq	%rsp, %rbp
 8640              		.cfi_def_cfa_register 6
 8641 0004 53       		pushq	%rbx
 8642 0005 4881ECC8 		subq	$456, %rsp
 8642      010000
 8643              		.cfi_offset 3, -24
 8644 000c 4889BD48 		movq	%rdi, -440(%rbp)
 8644      FEFFFF
 8645 0013 4889B540 		movq	%rsi, -448(%rbp)
 8645      FEFFFF
 8646 001a 48899538 		movq	%rdx, -456(%rbp)
 8646      FEFFFF
 8647 0021 48898D30 		movq	%rcx, -464(%rbp)
 8647      FEFFFF
  19:/home/gani/eval/20140524/makestuff/libs/libutpp/Checks.h **** {
 8648              		.loc 4 19 0
 8649 0028 64488B04 		movq	%fs:40, %rax
 8649      25280000 
 8649      00
 8650 0031 488945E8 		movq	%rax, -24(%rbp)
 8651 0035 31C0     		xorl	%eax, %eax
 8652              	.LBB18:
  21:/home/gani/eval/20140524/makestuff/libs/libutpp/Checks.h ****     {
 8653              		.loc 4 21 0
 8654 0037 488B8540 		movq	-448(%rbp), %rax
 8654      FEFFFF
 8655 003e 0FB610   		movzbl	(%rax), %edx
 8656 0041 488B8538 		movq	-456(%rbp), %rax
 8656      FEFFFF
 8657 0048 0FB600   		movzbl	(%rax), %eax
 8658 004b 38C2     		cmpb	%al, %dl
 8659 004d 0F84C100 		je	.L644
 8659      0000
 8660              	.LBB19:
  23:/home/gani/eval/20140524/makestuff/libs/libutpp/Checks.h ****         stream << "Expected " << expected << " but was " << actual;
 8661              		.loc 4 23 0
 8662 0053 488D8550 		leaq	-432(%rbp), %rax
 8662      FEFFFF
 8663 005a 4889C7   		movq	%rax, %rdi
 8664              	.LEHB471:
 8665 005d E8000000 		call	_ZN8UnitTest15MemoryOutStreamC1Ev
 8665      00
 8666              	.LEHE471:
  24:/home/gani/eval/20140524/makestuff/libs/libutpp/Checks.h **** 
 8667              		.loc 4 24 0
 8668 0062 488D8550 		leaq	-432(%rbp), %rax
 8668      FEFFFF
 8669 0069 488D3500 		leaq	.LC64(%rip), %rsi
 8669      000000
 8670 0070 4889C7   		movq	%rax, %rdi
 8671              	.LEHB472:
 8672 0073 E8000000 		call	_ZStlsISt11char_traitsIcEERSt13basic_ostreamIcT_ES5_PKc@PLT
 8672      00
 8673 0078 4889C2   		movq	%rax, %rdx
 8674 007b 488B8540 		movq	-448(%rbp), %rax
 8674      FEFFFF
 8675 0082 0FB600   		movzbl	(%rax), %eax
 8676 0085 0FBEC0   		movsbl	%al, %eax
 8677 0088 89C6     		movl	%eax, %esi
 8678 008a 4889D7   		movq	%rdx, %rdi
 8679 008d E8000000 		call	_ZStlsISt11char_traitsIcEERSt13basic_ostreamIcT_ES5_c@PLT
 8679      00
  24:/home/gani/eval/20140524/makestuff/libs/libutpp/Checks.h **** 
 8680              		.loc 4 24 0 is_stmt 0 discriminator 1
 8681 0092 488D3500 		leaq	.LC65(%rip), %rsi
 8681      000000
 8682 0099 4889C7   		movq	%rax, %rdi
 8683 009c E8000000 		call	_ZStlsISt11char_traitsIcEERSt13basic_ostreamIcT_ES5_PKc@PLT
 8683      00
  24:/home/gani/eval/20140524/makestuff/libs/libutpp/Checks.h **** 
 8684              		.loc 4 24 0 discriminator 2
 8685 00a1 4889C2   		movq	%rax, %rdx
 8686 00a4 488B8538 		movq	-456(%rbp), %rax
 8686      FEFFFF
 8687 00ab 0FB600   		movzbl	(%rax), %eax
 8688 00ae 0FBEC0   		movsbl	%al, %eax
 8689 00b1 89C6     		movl	%eax, %esi
 8690 00b3 4889D7   		movq	%rdx, %rdi
 8691 00b6 E8000000 		call	_ZStlsISt11char_traitsIcEERSt13basic_ostreamIcT_ES5_c@PLT
 8691      00
  26:/home/gani/eval/20140524/makestuff/libs/libutpp/Checks.h ****     }
 8692              		.loc 4 26 0 is_stmt 1
 8693 00bb 488D8550 		leaq	-432(%rbp), %rax
 8693      FEFFFF
 8694 00c2 4889C7   		movq	%rax, %rdi
 8695 00c5 E8000000 		call	_ZNK8UnitTest15MemoryOutStream7GetTextEv@PLT
 8695      00
 8696 00ca 4889C2   		movq	%rax, %rdx
 8697 00cd 488B8D30 		movq	-464(%rbp), %rcx
 8697      FEFFFF
 8698 00d4 488B8548 		movq	-440(%rbp), %rax
 8698      FEFFFF
 8699 00db 4889CE   		movq	%rcx, %rsi
 8700 00de 4889C7   		movq	%rax, %rdi
 8701 00e1 E8000000 		call	_ZN8UnitTest11TestResults13OnTestFailureERKNS_11TestDetailsEPKc@PLT
 8701      00
 8702              	.LEHE472:
  23:/home/gani/eval/20140524/makestuff/libs/libutpp/Checks.h ****         stream << "Expected " << expected << " but was " << actual;
 8703              		.loc 4 23 0
 8704 00e6 488D8550 		leaq	-432(%rbp), %rax
 8704      FEFFFF
 8705 00ed 4889C7   		movq	%rax, %rdi
 8706              	.LEHB473:
 8707 00f0 E8000000 		call	_ZN8UnitTest15MemoryOutStreamD1Ev
 8707      00
 8708              	.LEHE473:
 8709              	.LBE19:
 8710              	.LBE18:
 8711              		.loc 4 28 0
 8712 00f5 EB1D     		jmp	.L644
 8713              	.L643:
 8714 00f7 4889C3   		movq	%rax, %rbx
 8715              	.LBB21:
 8716              	.LBB20:
  23:/home/gani/eval/20140524/makestuff/libs/libutpp/Checks.h ****         stream << "Expected " << expected << " but was " << actual;
 8717              		.loc 4 23 0
 8718 00fa 488D8550 		leaq	-432(%rbp), %rax
 8718      FEFFFF
 8719 0101 4889C7   		movq	%rax, %rdi
 8720 0104 E8000000 		call	_ZN8UnitTest15MemoryOutStreamD1Ev
 8720      00
 8721 0109 4889D8   		movq	%rbx, %rax
 8722 010c 4889C7   		movq	%rax, %rdi
 8723              	.LEHB474:
 8724 010f E8000000 		call	_Unwind_Resume@PLT
 8724      00
 8725              	.LEHE474:
 8726              	.L644:
 8727              	.LBE20:
 8728              	.LBE21:
 8729              		.loc 4 28 0
 8730 0114 90       		nop
 8731 0115 488B45E8 		movq	-24(%rbp), %rax
 8732 0119 64483304 		xorq	%fs:40, %rax
 8732      25280000 
 8732      00
 8733 0122 7405     		je	.L642
 8734 0124 E8000000 		call	__stack_chk_fail@PLT
 8734      00
 8735              	.L642:
 8736 0129 4881C4C8 		addq	$456, %rsp
 8736      010000
 8737 0130 5B       		popq	%rbx
 8738 0131 5D       		popq	%rbp
 8739              		.cfi_def_cfa 7, 8
 8740 0132 C3       		ret
 8741              		.cfi_endproc
 8742              	.LFE1141:
 8743              		.section	.gcc_except_table
 8744              	.LLSDA1141:
 8745 0a58 FF       		.byte	0xff
 8746 0a59 FF       		.byte	0xff
 8747 0a5a 01       		.byte	0x1
 8748 0a5b 13       		.uleb128 .LLSDACSE1141-.LLSDACSB1141
 8749              	.LLSDACSB1141:
 8750 0a5c 5D       		.uleb128 .LEHB471-.LFB1141
 8751 0a5d 05       		.uleb128 .LEHE471-.LEHB471
 8752 0a5e 00       		.uleb128 0
 8753 0a5f 00       		.uleb128 0
 8754 0a60 73       		.uleb128 .LEHB472-.LFB1141
 8755 0a61 73       		.uleb128 .LEHE472-.LEHB472
 8756 0a62 F701     		.uleb128 .L643-.LFB1141
 8757 0a64 00       		.uleb128 0
 8758 0a65 F001     		.uleb128 .LEHB473-.LFB1141
 8759 0a67 05       		.uleb128 .LEHE473-.LEHB473
 8760 0a68 00       		.uleb128 0
 8761 0a69 00       		.uleb128 0
 8762 0a6a 8F02     		.uleb128 .LEHB474-.LFB1141
 8763 0a6c 05       		.uleb128 .LEHE474-.LEHB474
 8764 0a6d 00       		.uleb128 0
 8765 0a6e 00       		.uleb128 0
 8766              	.LLSDACSE1141:
 8767              		.section	.text._ZN8UnitTest10CheckEqualIccEEvRNS_11TestResultsERKT_RKT0_RKNS_11TestDetailsE,"axG",
 8769              		.weak	_ZTV30TestConv_testGetHexLowerNibble
 8770              		.section	.data.rel.ro.local._ZTV30TestConv_testGetHexLowerNibble,"awG",@progbits,_ZTV30TestConv_te
 8771              		.align 8
 8774              	_ZTV30TestConv_testGetHexLowerNibble:
 8775 0000 00000000 		.quad	0
 8775      00000000 
 8776 0008 00000000 		.quad	_ZTI30TestConv_testGetHexLowerNibble
 8776      00000000 
 8777 0010 00000000 		.quad	_ZN30TestConv_testGetHexLowerNibbleD1Ev
 8777      00000000 
 8778 0018 00000000 		.quad	_ZN30TestConv_testGetHexLowerNibbleD0Ev
 8778      00000000 
 8779 0020 00000000 		.quad	_ZNK30TestConv_testGetHexLowerNibble7RunImplEv
 8779      00000000 
 8780              		.section	.text._ZN30TestConv_testGetHexLowerNibbleD2Ev,"axG",@progbits,_ZN30TestConv_testGetHexLow
 8781              		.align 2
 8782              		.weak	_ZN30TestConv_testGetHexLowerNibbleD2Ev
 8784              	_ZN30TestConv_testGetHexLowerNibbleD2Ev:
 8785              	.LFB1198:
 130:testConv.cpp  **** 	CHECK_EQUAL('0', getHexLowerNibble(0xF0));
 8786              		.loc 3 130 0
 8787              		.cfi_startproc
 8788 0000 55       		pushq	%rbp
 8789              		.cfi_def_cfa_offset 16
 8790              		.cfi_offset 6, -16
 8791 0001 4889E5   		movq	%rsp, %rbp
 8792              		.cfi_def_cfa_register 6
 8793 0004 4883EC10 		subq	$16, %rsp
 8794 0008 48897DF8 		movq	%rdi, -8(%rbp)
 8795              	.LBB22:
 130:testConv.cpp  **** 	CHECK_EQUAL('0', getHexLowerNibble(0xF0));
 8796              		.loc 3 130 0
 8797 000c 488D1500 		leaq	16+_ZTV30TestConv_testGetHexLowerNibble(%rip), %rdx
 8797      000000
 8798 0013 488B45F8 		movq	-8(%rbp), %rax
 8799 0017 488910   		movq	%rdx, (%rax)
 8800 001a 488B45F8 		movq	-8(%rbp), %rax
 8801 001e 4889C7   		movq	%rax, %rdi
 8802 0021 E8000000 		call	_ZN8UnitTest4TestD2Ev@PLT
 8802      00
 8803              	.LBE22:
 8804 0026 90       		nop
 8805 0027 C9       		leave
 8806              		.cfi_def_cfa 7, 8
 8807 0028 C3       		ret
 8808              		.cfi_endproc
 8809              	.LFE1198:
 8811              		.weak	_ZN30TestConv_testGetHexLowerNibbleD1Ev
 8812              		.set	_ZN30TestConv_testGetHexLowerNibbleD1Ev,_ZN30TestConv_testGetHexLowerNibbleD2Ev
 8813              		.section	.text._ZN30TestConv_testGetHexLowerNibbleD0Ev,"axG",@progbits,_ZN30TestConv_testGetHexLow
 8814              		.align 2
 8815              		.weak	_ZN30TestConv_testGetHexLowerNibbleD0Ev
 8817              	_ZN30TestConv_testGetHexLowerNibbleD0Ev:
 8818              	.LFB1200:
 130:testConv.cpp  **** 	CHECK_EQUAL('0', getHexLowerNibble(0xF0));
 8819              		.loc 3 130 0
 8820              		.cfi_startproc
 8821              		.cfi_personality 0x9b,DW.ref.__gxx_personality_v0
 8822              		.cfi_lsda 0x1b,.LLSDA1200
 8823 0000 55       		pushq	%rbp
 8824              		.cfi_def_cfa_offset 16
 8825              		.cfi_offset 6, -16
 8826 0001 4889E5   		movq	%rsp, %rbp
 8827              		.cfi_def_cfa_register 6
 8828 0004 53       		pushq	%rbx
 8829 0005 4883EC18 		subq	$24, %rsp
 8830              		.cfi_offset 3, -24
 8831 0009 48897DE8 		movq	%rdi, -24(%rbp)
 130:testConv.cpp  **** 	CHECK_EQUAL('0', getHexLowerNibble(0xF0));
 8832              		.loc 3 130 0
 8833 000d 488B45E8 		movq	-24(%rbp), %rax
 8834 0011 4889C7   		movq	%rax, %rdi
 8835              	.LEHB475:
 8836 0014 E8000000 		call	_ZN30TestConv_testGetHexLowerNibbleD1Ev
 8836      00
 8837              	.LEHE475:
 130:testConv.cpp  **** 	CHECK_EQUAL('0', getHexLowerNibble(0xF0));
 8838              		.loc 3 130 0 is_stmt 0 discriminator 2
 8839 0019 488B45E8 		movq	-24(%rbp), %rax
 8840 001d 4889C7   		movq	%rax, %rdi
 8841 0020 E8000000 		call	_ZdlPv@PLT
 8841      00
 8842 0025 EB1A     		jmp	.L649
 8843              	.L648:
 8844 0027 4889C3   		movq	%rax, %rbx
 130:testConv.cpp  **** 	CHECK_EQUAL('0', getHexLowerNibble(0xF0));
 8845              		.loc 3 130 0
 8846 002a 488B45E8 		movq	-24(%rbp), %rax
 8847 002e 4889C7   		movq	%rax, %rdi
 8848 0031 E8000000 		call	_ZdlPv@PLT
 8848      00
 8849 0036 4889D8   		movq	%rbx, %rax
 8850 0039 4889C7   		movq	%rax, %rdi
 8851              	.LEHB476:
 8852 003c E8000000 		call	_Unwind_Resume@PLT
 8852      00
 8853              	.LEHE476:
 8854              	.L649:
 8855 0041 4883C418 		addq	$24, %rsp
 8856 0045 5B       		popq	%rbx
 8857 0046 5D       		popq	%rbp
 8858              		.cfi_def_cfa 7, 8
 8859 0047 C3       		ret
 8860              		.cfi_endproc
 8861              	.LFE1200:
 8862              		.section	.gcc_except_table
 8863              	.LLSDA1200:
 8864 0a6f FF       		.byte	0xff
 8865 0a70 FF       		.byte	0xff
 8866 0a71 01       		.byte	0x1
 8867 0a72 08       		.uleb128 .LLSDACSE1200-.LLSDACSB1200
 8868              	.LLSDACSB1200:
 8869 0a73 14       		.uleb128 .LEHB475-.LFB1200
 8870 0a74 05       		.uleb128 .LEHE475-.LEHB475
 8871 0a75 27       		.uleb128 .L648-.LFB1200
 8872 0a76 00       		.uleb128 0
 8873 0a77 3C       		.uleb128 .LEHB476-.LFB1200
 8874 0a78 05       		.uleb128 .LEHE476-.LEHB476
 8875 0a79 00       		.uleb128 0
 8876 0a7a 00       		.uleb128 0
 8877              	.LLSDACSE1200:
 8878              		.section	.text._ZN30TestConv_testGetHexLowerNibbleD0Ev,"axG",@progbits,_ZN30TestConv_testGetHexLow
 8880              		.weak	_ZTV30TestConv_testGetHexUpperNibble
 8881              		.section	.data.rel.ro.local._ZTV30TestConv_testGetHexUpperNibble,"awG",@progbits,_ZTV30TestConv_te
 8882              		.align 8
 8885              	_ZTV30TestConv_testGetHexUpperNibble:
 8886 0000 00000000 		.quad	0
 8886      00000000 
 8887 0008 00000000 		.quad	_ZTI30TestConv_testGetHexUpperNibble
 8887      00000000 
 8888 0010 00000000 		.quad	_ZN30TestConv_testGetHexUpperNibbleD1Ev
 8888      00000000 
 8889 0018 00000000 		.quad	_ZN30TestConv_testGetHexUpperNibbleD0Ev
 8889      00000000 
 8890 0020 00000000 		.quad	_ZNK30TestConv_testGetHexUpperNibble7RunImplEv
 8890      00000000 
 8891              		.section	.text._ZN30TestConv_testGetHexUpperNibbleD2Ev,"axG",@progbits,_ZN30TestConv_testGetHexUpp
 8892              		.align 2
 8893              		.weak	_ZN30TestConv_testGetHexUpperNibbleD2Ev
 8895              	_ZN30TestConv_testGetHexUpperNibbleD2Ev:
 8896              	.LFB1202:
 111:testConv.cpp  **** 	CHECK_EQUAL('0', getHexUpperNibble(0x0F));
 8897              		.loc 3 111 0 is_stmt 1
 8898              		.cfi_startproc
 8899 0000 55       		pushq	%rbp
 8900              		.cfi_def_cfa_offset 16
 8901              		.cfi_offset 6, -16
 8902 0001 4889E5   		movq	%rsp, %rbp
 8903              		.cfi_def_cfa_register 6
 8904 0004 4883EC10 		subq	$16, %rsp
 8905 0008 48897DF8 		movq	%rdi, -8(%rbp)
 8906              	.LBB23:
 111:testConv.cpp  **** 	CHECK_EQUAL('0', getHexUpperNibble(0x0F));
 8907              		.loc 3 111 0
 8908 000c 488D1500 		leaq	16+_ZTV30TestConv_testGetHexUpperNibble(%rip), %rdx
 8908      000000
 8909 0013 488B45F8 		movq	-8(%rbp), %rax
 8910 0017 488910   		movq	%rdx, (%rax)
 8911 001a 488B45F8 		movq	-8(%rbp), %rax
 8912 001e 4889C7   		movq	%rax, %rdi
 8913 0021 E8000000 		call	_ZN8UnitTest4TestD2Ev@PLT
 8913      00
 8914              	.LBE23:
 8915 0026 90       		nop
 8916 0027 C9       		leave
 8917              		.cfi_def_cfa 7, 8
 8918 0028 C3       		ret
 8919              		.cfi_endproc
 8920              	.LFE1202:
 8922              		.weak	_ZN30TestConv_testGetHexUpperNibbleD1Ev
 8923              		.set	_ZN30TestConv_testGetHexUpperNibbleD1Ev,_ZN30TestConv_testGetHexUpperNibbleD2Ev
 8924              		.section	.text._ZN30TestConv_testGetHexUpperNibbleD0Ev,"axG",@progbits,_ZN30TestConv_testGetHexUpp
 8925              		.align 2
 8926              		.weak	_ZN30TestConv_testGetHexUpperNibbleD0Ev
 8928              	_ZN30TestConv_testGetHexUpperNibbleD0Ev:
 8929              	.LFB1204:
 111:testConv.cpp  **** 	CHECK_EQUAL('0', getHexUpperNibble(0x0F));
 8930              		.loc 3 111 0
 8931              		.cfi_startproc
 8932              		.cfi_personality 0x9b,DW.ref.__gxx_personality_v0
 8933              		.cfi_lsda 0x1b,.LLSDA1204
 8934 0000 55       		pushq	%rbp
 8935              		.cfi_def_cfa_offset 16
 8936              		.cfi_offset 6, -16
 8937 0001 4889E5   		movq	%rsp, %rbp
 8938              		.cfi_def_cfa_register 6
 8939 0004 53       		pushq	%rbx
 8940 0005 4883EC18 		subq	$24, %rsp
 8941              		.cfi_offset 3, -24
 8942 0009 48897DE8 		movq	%rdi, -24(%rbp)
 111:testConv.cpp  **** 	CHECK_EQUAL('0', getHexUpperNibble(0x0F));
 8943              		.loc 3 111 0
 8944 000d 488B45E8 		movq	-24(%rbp), %rax
 8945 0011 4889C7   		movq	%rax, %rdi
 8946              	.LEHB477:
 8947 0014 E8000000 		call	_ZN30TestConv_testGetHexUpperNibbleD1Ev
 8947      00
 8948              	.LEHE477:
 111:testConv.cpp  **** 	CHECK_EQUAL('0', getHexUpperNibble(0x0F));
 8949              		.loc 3 111 0 is_stmt 0 discriminator 2
 8950 0019 488B45E8 		movq	-24(%rbp), %rax
 8951 001d 4889C7   		movq	%rax, %rdi
 8952 0020 E8000000 		call	_ZdlPv@PLT
 8952      00
 8953 0025 EB1A     		jmp	.L654
 8954              	.L653:
 8955 0027 4889C3   		movq	%rax, %rbx
 111:testConv.cpp  **** 	CHECK_EQUAL('0', getHexUpperNibble(0x0F));
 8956              		.loc 3 111 0
 8957 002a 488B45E8 		movq	-24(%rbp), %rax
 8958 002e 4889C7   		movq	%rax, %rdi
 8959 0031 E8000000 		call	_ZdlPv@PLT
 8959      00
 8960 0036 4889D8   		movq	%rbx, %rax
 8961 0039 4889C7   		movq	%rax, %rdi
 8962              	.LEHB478:
 8963 003c E8000000 		call	_Unwind_Resume@PLT
 8963      00
 8964              	.LEHE478:
 8965              	.L654:
 8966 0041 4883C418 		addq	$24, %rsp
 8967 0045 5B       		popq	%rbx
 8968 0046 5D       		popq	%rbp
 8969              		.cfi_def_cfa 7, 8
 8970 0047 C3       		ret
 8971              		.cfi_endproc
 8972              	.LFE1204:
 8973              		.section	.gcc_except_table
 8974              	.LLSDA1204:
 8975 0a7b FF       		.byte	0xff
 8976 0a7c FF       		.byte	0xff
 8977 0a7d 01       		.byte	0x1
 8978 0a7e 08       		.uleb128 .LLSDACSE1204-.LLSDACSB1204
 8979              	.LLSDACSB1204:
 8980 0a7f 14       		.uleb128 .LEHB477-.LFB1204
 8981 0a80 05       		.uleb128 .LEHE477-.LEHB477
 8982 0a81 27       		.uleb128 .L653-.LFB1204
 8983 0a82 00       		.uleb128 0
 8984 0a83 3C       		.uleb128 .LEHB478-.LFB1204
 8985 0a84 05       		.uleb128 .LEHE478-.LEHB478
 8986 0a85 00       		.uleb128 0
 8987 0a86 00       		.uleb128 0
 8988              	.LLSDACSE1204:
 8989              		.section	.text._ZN30TestConv_testGetHexUpperNibbleD0Ev,"axG",@progbits,_ZN30TestConv_testGetHexUpp
 8991              		.weak	_ZTV23TestConv_testGetHexByte
 8992              		.section	.data.rel.ro.local._ZTV23TestConv_testGetHexByte,"awG",@progbits,_ZTV23TestConv_testGetHe
 8993              		.align 8
 8996              	_ZTV23TestConv_testGetHexByte:
 8997 0000 00000000 		.quad	0
 8997      00000000 
 8998 0008 00000000 		.quad	_ZTI23TestConv_testGetHexByte
 8998      00000000 
 8999 0010 00000000 		.quad	_ZN23TestConv_testGetHexByteD1Ev
 8999      00000000 
 9000 0018 00000000 		.quad	_ZN23TestConv_testGetHexByteD0Ev
 9000      00000000 
 9001 0020 00000000 		.quad	_ZNK23TestConv_testGetHexByte7RunImplEv
 9001      00000000 
 9002              		.section	.text._ZN23TestConv_testGetHexByteD2Ev,"axG",@progbits,_ZN23TestConv_testGetHexByteD5Ev,c
 9003              		.align 2
 9004              		.weak	_ZN23TestConv_testGetHexByteD2Ev
 9006              	_ZN23TestConv_testGetHexByteD2Ev:
 9007              	.LFB1206:
  93:testConv.cpp  **** 	uint8 byte;
 9008              		.loc 3 93 0 is_stmt 1
 9009              		.cfi_startproc
 9010 0000 55       		pushq	%rbp
 9011              		.cfi_def_cfa_offset 16
 9012              		.cfi_offset 6, -16
 9013 0001 4889E5   		movq	%rsp, %rbp
 9014              		.cfi_def_cfa_register 6
 9015 0004 4883EC10 		subq	$16, %rsp
 9016 0008 48897DF8 		movq	%rdi, -8(%rbp)
 9017              	.LBB24:
  93:testConv.cpp  **** 	uint8 byte;
 9018              		.loc 3 93 0
 9019 000c 488D1500 		leaq	16+_ZTV23TestConv_testGetHexByte(%rip), %rdx
 9019      000000
 9020 0013 488B45F8 		movq	-8(%rbp), %rax
 9021 0017 488910   		movq	%rdx, (%rax)
 9022 001a 488B45F8 		movq	-8(%rbp), %rax
 9023 001e 4889C7   		movq	%rax, %rdi
 9024 0021 E8000000 		call	_ZN8UnitTest4TestD2Ev@PLT
 9024      00
 9025              	.LBE24:
 9026 0026 90       		nop
 9027 0027 C9       		leave
 9028              		.cfi_def_cfa 7, 8
 9029 0028 C3       		ret
 9030              		.cfi_endproc
 9031              	.LFE1206:
 9033              		.weak	_ZN23TestConv_testGetHexByteD1Ev
 9034              		.set	_ZN23TestConv_testGetHexByteD1Ev,_ZN23TestConv_testGetHexByteD2Ev
 9035              		.section	.text._ZN23TestConv_testGetHexByteD0Ev,"axG",@progbits,_ZN23TestConv_testGetHexByteD5Ev,c
 9036              		.align 2
 9037              		.weak	_ZN23TestConv_testGetHexByteD0Ev
 9039              	_ZN23TestConv_testGetHexByteD0Ev:
 9040              	.LFB1208:
  93:testConv.cpp  **** 	uint8 byte;
 9041              		.loc 3 93 0
 9042              		.cfi_startproc
 9043              		.cfi_personality 0x9b,DW.ref.__gxx_personality_v0
 9044              		.cfi_lsda 0x1b,.LLSDA1208
 9045 0000 55       		pushq	%rbp
 9046              		.cfi_def_cfa_offset 16
 9047              		.cfi_offset 6, -16
 9048 0001 4889E5   		movq	%rsp, %rbp
 9049              		.cfi_def_cfa_register 6
 9050 0004 53       		pushq	%rbx
 9051 0005 4883EC18 		subq	$24, %rsp
 9052              		.cfi_offset 3, -24
 9053 0009 48897DE8 		movq	%rdi, -24(%rbp)
  93:testConv.cpp  **** 	uint8 byte;
 9054              		.loc 3 93 0
 9055 000d 488B45E8 		movq	-24(%rbp), %rax
 9056 0011 4889C7   		movq	%rax, %rdi
 9057              	.LEHB479:
 9058 0014 E8000000 		call	_ZN23TestConv_testGetHexByteD1Ev
 9058      00
 9059              	.LEHE479:
  93:testConv.cpp  **** 	uint8 byte;
 9060              		.loc 3 93 0 is_stmt 0 discriminator 2
 9061 0019 488B45E8 		movq	-24(%rbp), %rax
 9062 001d 4889C7   		movq	%rax, %rdi
 9063 0020 E8000000 		call	_ZdlPv@PLT
 9063      00
 9064 0025 EB1A     		jmp	.L659
 9065              	.L658:
 9066 0027 4889C3   		movq	%rax, %rbx
  93:testConv.cpp  **** 	uint8 byte;
 9067              		.loc 3 93 0
 9068 002a 488B45E8 		movq	-24(%rbp), %rax
 9069 002e 4889C7   		movq	%rax, %rdi
 9070 0031 E8000000 		call	_ZdlPv@PLT
 9070      00
 9071 0036 4889D8   		movq	%rbx, %rax
 9072 0039 4889C7   		movq	%rax, %rdi
 9073              	.LEHB480:
 9074 003c E8000000 		call	_Unwind_Resume@PLT
 9074      00
 9075              	.LEHE480:
 9076              	.L659:
 9077 0041 4883C418 		addq	$24, %rsp
 9078 0045 5B       		popq	%rbx
 9079 0046 5D       		popq	%rbp
 9080              		.cfi_def_cfa 7, 8
 9081 0047 C3       		ret
 9082              		.cfi_endproc
 9083              	.LFE1208:
 9084              		.section	.gcc_except_table
 9085              	.LLSDA1208:
 9086 0a87 FF       		.byte	0xff
 9087 0a88 FF       		.byte	0xff
 9088 0a89 01       		.byte	0x1
 9089 0a8a 08       		.uleb128 .LLSDACSE1208-.LLSDACSB1208
 9090              	.LLSDACSB1208:
 9091 0a8b 14       		.uleb128 .LEHB479-.LFB1208
 9092 0a8c 05       		.uleb128 .LEHE479-.LEHB479
 9093 0a8d 27       		.uleb128 .L658-.LFB1208
 9094 0a8e 00       		.uleb128 0
 9095 0a8f 3C       		.uleb128 .LEHB480-.LFB1208
 9096 0a90 05       		.uleb128 .LEHE480-.LEHB480
 9097 0a91 00       		.uleb128 0
 9098 0a92 00       		.uleb128 0
 9099              	.LLSDACSE1208:
 9100              		.section	.text._ZN23TestConv_testGetHexByteD0Ev,"axG",@progbits,_ZN23TestConv_testGetHexByteD5Ev,c
 9102              		.weak	_ZTV25TestConv_testGetHexNibble
 9103              		.section	.data.rel.ro.local._ZTV25TestConv_testGetHexNibble,"awG",@progbits,_ZTV25TestConv_testGet
 9104              		.align 8
 9107              	_ZTV25TestConv_testGetHexNibble:
 9108 0000 00000000 		.quad	0
 9108      00000000 
 9109 0008 00000000 		.quad	_ZTI25TestConv_testGetHexNibble
 9109      00000000 
 9110 0010 00000000 		.quad	_ZN25TestConv_testGetHexNibbleD1Ev
 9110      00000000 
 9111 0018 00000000 		.quad	_ZN25TestConv_testGetHexNibbleD0Ev
 9111      00000000 
 9112 0020 00000000 		.quad	_ZNK25TestConv_testGetHexNibble7RunImplEv
 9112      00000000 
 9113              		.section	.text._ZN25TestConv_testGetHexNibbleD2Ev,"axG",@progbits,_ZN25TestConv_testGetHexNibbleD5
 9114              		.align 2
 9115              		.weak	_ZN25TestConv_testGetHexNibbleD2Ev
 9117              	_ZN25TestConv_testGetHexNibbleD2Ev:
 9118              	.LFB1210:
  20:testConv.cpp  **** 	uint8 nibble;
 9119              		.loc 3 20 0 is_stmt 1
 9120              		.cfi_startproc
 9121 0000 55       		pushq	%rbp
 9122              		.cfi_def_cfa_offset 16
 9123              		.cfi_offset 6, -16
 9124 0001 4889E5   		movq	%rsp, %rbp
 9125              		.cfi_def_cfa_register 6
 9126 0004 4883EC10 		subq	$16, %rsp
 9127 0008 48897DF8 		movq	%rdi, -8(%rbp)
 9128              	.LBB25:
  20:testConv.cpp  **** 	uint8 nibble;
 9129              		.loc 3 20 0
 9130 000c 488D1500 		leaq	16+_ZTV25TestConv_testGetHexNibble(%rip), %rdx
 9130      000000
 9131 0013 488B45F8 		movq	-8(%rbp), %rax
 9132 0017 488910   		movq	%rdx, (%rax)
 9133 001a 488B45F8 		movq	-8(%rbp), %rax
 9134 001e 4889C7   		movq	%rax, %rdi
 9135 0021 E8000000 		call	_ZN8UnitTest4TestD2Ev@PLT
 9135      00
 9136              	.LBE25:
 9137 0026 90       		nop
 9138 0027 C9       		leave
 9139              		.cfi_def_cfa 7, 8
 9140 0028 C3       		ret
 9141              		.cfi_endproc
 9142              	.LFE1210:
 9144              		.weak	_ZN25TestConv_testGetHexNibbleD1Ev
 9145              		.set	_ZN25TestConv_testGetHexNibbleD1Ev,_ZN25TestConv_testGetHexNibbleD2Ev
 9146              		.section	.text._ZN25TestConv_testGetHexNibbleD0Ev,"axG",@progbits,_ZN25TestConv_testGetHexNibbleD5
 9147              		.align 2
 9148              		.weak	_ZN25TestConv_testGetHexNibbleD0Ev
 9150              	_ZN25TestConv_testGetHexNibbleD0Ev:
 9151              	.LFB1212:
  20:testConv.cpp  **** 	uint8 nibble;
 9152              		.loc 3 20 0
 9153              		.cfi_startproc
 9154              		.cfi_personality 0x9b,DW.ref.__gxx_personality_v0
 9155              		.cfi_lsda 0x1b,.LLSDA1212
 9156 0000 55       		pushq	%rbp
 9157              		.cfi_def_cfa_offset 16
 9158              		.cfi_offset 6, -16
 9159 0001 4889E5   		movq	%rsp, %rbp
 9160              		.cfi_def_cfa_register 6
 9161 0004 53       		pushq	%rbx
 9162 0005 4883EC18 		subq	$24, %rsp
 9163              		.cfi_offset 3, -24
 9164 0009 48897DE8 		movq	%rdi, -24(%rbp)
  20:testConv.cpp  **** 	uint8 nibble;
 9165              		.loc 3 20 0
 9166 000d 488B45E8 		movq	-24(%rbp), %rax
 9167 0011 4889C7   		movq	%rax, %rdi
 9168              	.LEHB481:
 9169 0014 E8000000 		call	_ZN25TestConv_testGetHexNibbleD1Ev
 9169      00
 9170              	.LEHE481:
  20:testConv.cpp  **** 	uint8 nibble;
 9171              		.loc 3 20 0 is_stmt 0 discriminator 2
 9172 0019 488B45E8 		movq	-24(%rbp), %rax
 9173 001d 4889C7   		movq	%rax, %rdi
 9174 0020 E8000000 		call	_ZdlPv@PLT
 9174      00
 9175 0025 EB1A     		jmp	.L664
 9176              	.L663:
 9177 0027 4889C3   		movq	%rax, %rbx
  20:testConv.cpp  **** 	uint8 nibble;
 9178              		.loc 3 20 0
 9179 002a 488B45E8 		movq	-24(%rbp), %rax
 9180 002e 4889C7   		movq	%rax, %rdi
 9181 0031 E8000000 		call	_ZdlPv@PLT
 9181      00
 9182 0036 4889D8   		movq	%rbx, %rax
 9183 0039 4889C7   		movq	%rax, %rdi
 9184              	.LEHB482:
 9185 003c E8000000 		call	_Unwind_Resume@PLT
 9185      00
 9186              	.LEHE482:
 9187              	.L664:
 9188 0041 4883C418 		addq	$24, %rsp
 9189 0045 5B       		popq	%rbx
 9190 0046 5D       		popq	%rbp
 9191              		.cfi_def_cfa 7, 8
 9192 0047 C3       		ret
 9193              		.cfi_endproc
 9194              	.LFE1212:
 9195              		.section	.gcc_except_table
 9196              	.LLSDA1212:
 9197 0a93 FF       		.byte	0xff
 9198 0a94 FF       		.byte	0xff
 9199 0a95 01       		.byte	0x1
 9200 0a96 08       		.uleb128 .LLSDACSE1212-.LLSDACSB1212
 9201              	.LLSDACSB1212:
 9202 0a97 14       		.uleb128 .LEHB481-.LFB1212
 9203 0a98 05       		.uleb128 .LEHE481-.LEHB481
 9204 0a99 27       		.uleb128 .L663-.LFB1212
 9205 0a9a 00       		.uleb128 0
 9206 0a9b 3C       		.uleb128 .LEHB482-.LFB1212
 9207 0a9c 05       		.uleb128 .LEHE482-.LEHB482
 9208 0a9d 00       		.uleb128 0
 9209 0a9e 00       		.uleb128 0
 9210              	.LLSDACSE1212:
 9211              		.section	.text._ZN25TestConv_testGetHexNibbleD0Ev,"axG",@progbits,_ZN25TestConv_testGetHexNibbleD5
 9213              		.weak	_ZTVN8UnitTest15MemoryOutStreamE
 9214              		.section	.data.rel.ro.local._ZTVN8UnitTest15MemoryOutStreamE,"awG",@progbits,_ZTVN8UnitTest15Memor
 9215              		.align 8
 9218              	_ZTVN8UnitTest15MemoryOutStreamE:
 9219 0000 90000000 		.quad	144
 9219      00000000 
 9220 0008 00000000 		.quad	0
 9220      00000000 
 9221 0010 00000000 		.quad	_ZTIN8UnitTest15MemoryOutStreamE
 9221      00000000 
 9222 0018 00000000 		.quad	_ZN8UnitTest15MemoryOutStreamD1Ev
 9222      00000000 
 9223 0020 00000000 		.quad	_ZN8UnitTest15MemoryOutStreamD0Ev
 9223      00000000 
 9224 0028 70FFFFFF 		.quad	-144
 9224      FFFFFFFF 
 9225 0030 70FFFFFF 		.quad	-144
 9225      FFFFFFFF 
 9226 0038 00000000 		.quad	_ZTIN8UnitTest15MemoryOutStreamE
 9226      00000000 
 9227 0040 00000000 		.quad	_ZTv0_n24_N8UnitTest15MemoryOutStreamD1Ev
 9227      00000000 
 9228 0048 00000000 		.quad	_ZTv0_n24_N8UnitTest15MemoryOutStreamD0Ev
 9228      00000000 
 9229              		.weak	_ZTTN8UnitTest15MemoryOutStreamE
 9230              		.section	.data.rel.ro.local._ZTTN8UnitTest15MemoryOutStreamE,"awG",@progbits,_ZTVN8UnitTest15Memor
 9231              		.align 8
 9234              	_ZTTN8UnitTest15MemoryOutStreamE:
 9235 0000 00000000 		.quad	_ZTVN8UnitTest15MemoryOutStreamE+24
 9235      00000000 
 9236 0008 00000000 		.quad	_ZTCN8UnitTest15MemoryOutStreamE0_NSt7__cxx1119basic_ostringstreamIcSt11char_traitsIcESaIcEE
 9236      00000000 
 9237 0010 00000000 		.quad	_ZTCN8UnitTest15MemoryOutStreamE0_So+24
 9237      00000000 
 9238 0018 00000000 		.quad	_ZTCN8UnitTest15MemoryOutStreamE0_So+64
 9238      00000000 
 9239 0020 00000000 		.quad	_ZTCN8UnitTest15MemoryOutStreamE0_NSt7__cxx1119basic_ostringstreamIcSt11char_traitsIcESaIcEE
 9239      00000000 
 9240 0028 00000000 		.quad	_ZTVN8UnitTest15MemoryOutStreamE+64
 9240      00000000 
 9241              		.hidden	_ZTCN8UnitTest15MemoryOutStreamE0_NSt7__cxx1119basic_ostringstreamIcSt11char_traitsIcESaIc
 9242              		.weak	_ZTCN8UnitTest15MemoryOutStreamE0_NSt7__cxx1119basic_ostringstreamIcSt11char_traitsIcESaIcEE
 9243              		.section	.data.rel.ro._ZTCN8UnitTest15MemoryOutStreamE0_NSt7__cxx1119basic_ostringstreamIcSt11char
 9244              		.align 8
 9247              	_ZTCN8UnitTest15MemoryOutStreamE0_NSt7__cxx1119basic_ostringstreamIcSt11char_traitsIcESaIcEEE:
 9248 0000 90000000 		.quad	144
 9248      00000000 
 9249 0008 00000000 		.quad	0
 9249      00000000 
 9250 0010 00000000 		.quad	_ZTINSt7__cxx1119basic_ostringstreamIcSt11char_traitsIcESaIcEEE
 9250      00000000 
 9251 0018 00000000 		.quad	0
 9251      00000000 
 9252 0020 00000000 		.quad	0
 9252      00000000 
 9253 0028 70FFFFFF 		.quad	-144
 9253      FFFFFFFF 
 9254 0030 70FFFFFF 		.quad	-144
 9254      FFFFFFFF 
 9255 0038 00000000 		.quad	_ZTINSt7__cxx1119basic_ostringstreamIcSt11char_traitsIcESaIcEEE
 9255      00000000 
 9256 0040 00000000 		.quad	0
 9256      00000000 
 9257 0048 00000000 		.quad	0
 9257      00000000 
 9258              		.hidden	_ZTCN8UnitTest15MemoryOutStreamE0_So
 9259              		.weak	_ZTCN8UnitTest15MemoryOutStreamE0_So
 9260              		.section	.data.rel.ro._ZTCN8UnitTest15MemoryOutStreamE0_So,"awG",@progbits,_ZTVN8UnitTest15MemoryO
 9261              		.align 8
 9264              	_ZTCN8UnitTest15MemoryOutStreamE0_So:
 9265 0000 90000000 		.quad	144
 9265      00000000 
 9266 0008 00000000 		.quad	0
 9266      00000000 
 9267 0010 00000000 		.quad	_ZTISo
 9267      00000000 
 9268 0018 00000000 		.quad	0
 9268      00000000 
 9269 0020 00000000 		.quad	0
 9269      00000000 
 9270 0028 70FFFFFF 		.quad	-144
 9270      FFFFFFFF 
 9271 0030 70FFFFFF 		.quad	-144
 9271      FFFFFFFF 
 9272 0038 00000000 		.quad	_ZTISo
 9272      00000000 
 9273 0040 00000000 		.quad	0
 9273      00000000 
 9274 0048 00000000 		.quad	0
 9274      00000000 
 9275              		.weak	_ZTI30TestConv_testGetHexLowerNibble
 9276              		.section	.data.rel.ro._ZTI30TestConv_testGetHexLowerNibble,"awG",@progbits,_ZTI30TestConv_testGetH
 9277              		.align 8
 9280              	_ZTI30TestConv_testGetHexLowerNibble:
 9281 0000 00000000 		.quad	_ZTVN10__cxxabiv120__si_class_type_infoE+16
 9281      00000000 
 9282 0008 00000000 		.quad	_ZTS30TestConv_testGetHexLowerNibble
 9282      00000000 
 9283 0010 00000000 		.quad	_ZTIN8UnitTest4TestE
 9283      00000000 
 9284              		.weak	_ZTS30TestConv_testGetHexLowerNibble
 9285              		.section	.rodata._ZTS30TestConv_testGetHexLowerNibble,"aG",@progbits,_ZTS30TestConv_testGetHexLowe
 9286              		.align 32
 9289              	_ZTS30TestConv_testGetHexLowerNibble:
 9290 0000 33305465 		.string	"30TestConv_testGetHexLowerNibble"
 9290      7374436F 
 9290      6E765F74 
 9290      65737447 
 9290      65744865 
 9291              		.weak	_ZTI30TestConv_testGetHexUpperNibble
 9292              		.section	.data.rel.ro._ZTI30TestConv_testGetHexUpperNibble,"awG",@progbits,_ZTI30TestConv_testGetH
 9293              		.align 8
 9296              	_ZTI30TestConv_testGetHexUpperNibble:
 9297 0000 00000000 		.quad	_ZTVN10__cxxabiv120__si_class_type_infoE+16
 9297      00000000 
 9298 0008 00000000 		.quad	_ZTS30TestConv_testGetHexUpperNibble
 9298      00000000 
 9299 0010 00000000 		.quad	_ZTIN8UnitTest4TestE
 9299      00000000 
 9300              		.weak	_ZTS30TestConv_testGetHexUpperNibble
 9301              		.section	.rodata._ZTS30TestConv_testGetHexUpperNibble,"aG",@progbits,_ZTS30TestConv_testGetHexUppe
 9302              		.align 32
 9305              	_ZTS30TestConv_testGetHexUpperNibble:
 9306 0000 33305465 		.string	"30TestConv_testGetHexUpperNibble"
 9306      7374436F 
 9306      6E765F74 
 9306      65737447 
 9306      65744865 
 9307              		.weak	_ZTI23TestConv_testGetHexByte
 9308              		.section	.data.rel.ro._ZTI23TestConv_testGetHexByte,"awG",@progbits,_ZTI23TestConv_testGetHexByte,
 9309              		.align 8
 9312              	_ZTI23TestConv_testGetHexByte:
 9313 0000 00000000 		.quad	_ZTVN10__cxxabiv120__si_class_type_infoE+16
 9313      00000000 
 9314 0008 00000000 		.quad	_ZTS23TestConv_testGetHexByte
 9314      00000000 
 9315 0010 00000000 		.quad	_ZTIN8UnitTest4TestE
 9315      00000000 
 9316              		.weak	_ZTS23TestConv_testGetHexByte
 9317              		.section	.rodata._ZTS23TestConv_testGetHexByte,"aG",@progbits,_ZTS23TestConv_testGetHexByte,comdat
 9318              		.align 16
 9321              	_ZTS23TestConv_testGetHexByte:
 9322 0000 32335465 		.string	"23TestConv_testGetHexByte"
 9322      7374436F 
 9322      6E765F74 
 9322      65737447 
 9322      65744865 
 9323              		.weak	_ZTI25TestConv_testGetHexNibble
 9324              		.section	.data.rel.ro._ZTI25TestConv_testGetHexNibble,"awG",@progbits,_ZTI25TestConv_testGetHexNib
 9325              		.align 8
 9328              	_ZTI25TestConv_testGetHexNibble:
 9329 0000 00000000 		.quad	_ZTVN10__cxxabiv120__si_class_type_infoE+16
 9329      00000000 
 9330 0008 00000000 		.quad	_ZTS25TestConv_testGetHexNibble
 9330      00000000 
 9331 0010 00000000 		.quad	_ZTIN8UnitTest4TestE
 9331      00000000 
 9332              		.weak	_ZTS25TestConv_testGetHexNibble
 9333              		.section	.rodata._ZTS25TestConv_testGetHexNibble,"aG",@progbits,_ZTS25TestConv_testGetHexNibble,co
 9334              		.align 16
 9337              	_ZTS25TestConv_testGetHexNibble:
 9338 0000 32355465 		.string	"25TestConv_testGetHexNibble"
 9338      7374436F 
 9338      6E765F74 
 9338      65737447 
 9338      65744865 
 9339              		.weak	_ZTIN8UnitTest15MemoryOutStreamE
 9340              		.section	.data.rel.ro._ZTIN8UnitTest15MemoryOutStreamE,"awG",@progbits,_ZTIN8UnitTest15MemoryOutSt
 9341              		.align 8
 9344              	_ZTIN8UnitTest15MemoryOutStreamE:
 9345 0000 00000000 		.quad	_ZTVN10__cxxabiv120__si_class_type_infoE+16
 9345      00000000 
 9346 0008 00000000 		.quad	_ZTSN8UnitTest15MemoryOutStreamE
 9346      00000000 
 9347 0010 00000000 		.quad	_ZTINSt7__cxx1119basic_ostringstreamIcSt11char_traitsIcESaIcEEE
 9347      00000000 
 9348              		.weak	_ZTSN8UnitTest15MemoryOutStreamE
 9349              		.section	.rodata._ZTSN8UnitTest15MemoryOutStreamE,"aG",@progbits,_ZTSN8UnitTest15MemoryOutStreamE,
 9350              		.align 16
 9353              	_ZTSN8UnitTest15MemoryOutStreamE:
 9354 0000 4E38556E 		.string	"N8UnitTest15MemoryOutStreamE"
 9354      69745465 
 9354      73743135 
 9354      4D656D6F 
 9354      72794F75 
 9355              		.text
 9357              	_Z41__static_initialization_and_destruction_0ii:
 9358              	.LFB1213:
 9359              		.loc 3 147 0 is_stmt 1
 9360              		.cfi_startproc
 9361 392b 55       		pushq	%rbp
 9362              		.cfi_def_cfa_offset 16
 9363              		.cfi_offset 6, -16
 9364 392c 4889E5   		movq	%rsp, %rbp
 9365              		.cfi_def_cfa_register 6
 9366 392f 4883EC10 		subq	$16, %rsp
 9367 3933 897DFC   		movl	%edi, -4(%rbp)
 9368 3936 8975F8   		movl	%esi, -8(%rbp)
 9369              		.loc 3 147 0
 9370 3939 837DFC01 		cmpl	$1, -4(%rbp)
 9371 393d 0F851101 		jne	.L667
 9371      0000
 9372              		.loc 3 147 0 is_stmt 0 discriminator 1
 9373 3943 817DF8FF 		cmpl	$65535, -8(%rbp)
 9373      FF0000
 9374 394a 0F850401 		jne	.L667
 9374      0000
  20:testConv.cpp  **** 	uint8 nibble;
 9375              		.loc 3 20 0 is_stmt 1
 9376 3950 488D3D00 		leaq	testConv_testGetHexNibbleInstance(%rip), %rdi
 9376      000000
 9377 3957 E8000000 		call	_ZN25TestConv_testGetHexNibbleC1Ev
 9377      00
 9378 395c 488D1500 		leaq	__dso_handle(%rip), %rdx
 9378      000000
 9379 3963 488D3500 		leaq	testConv_testGetHexNibbleInstance(%rip), %rsi
 9379      000000
 9380 396a 488D3D00 		leaq	_ZN25TestConv_testGetHexNibbleD1Ev(%rip), %rdi
 9380      000000
 9381 3971 E8000000 		call	__cxa_atexit@PLT
 9381      00
 9382 3976 E8000000 		call	_ZN8UnitTest4Test11GetTestListEv@PLT
 9382      00
 9383 397b 488D1500 		leaq	testConv_testGetHexNibbleInstance(%rip), %rdx
 9383      000000
 9384 3982 4889C6   		movq	%rax, %rsi
 9385 3985 488D3D00 		leaq	adderConv_testGetHexNibble(%rip), %rdi
 9385      000000
 9386 398c E8000000 		call	_ZN8UnitTest9ListAdderC1ERNS_8TestListEPNS_4TestE@PLT
 9386      00
  93:testConv.cpp  **** 	uint8 byte;
 9387              		.loc 3 93 0
 9388 3991 488D3D00 		leaq	testConv_testGetHexByteInstance(%rip), %rdi
 9388      000000
 9389 3998 E8000000 		call	_ZN23TestConv_testGetHexByteC1Ev
 9389      00
 9390 399d 488D1500 		leaq	__dso_handle(%rip), %rdx
 9390      000000
 9391 39a4 488D3500 		leaq	testConv_testGetHexByteInstance(%rip), %rsi
 9391      000000
 9392 39ab 488D3D00 		leaq	_ZN23TestConv_testGetHexByteD1Ev(%rip), %rdi
 9392      000000
 9393 39b2 E8000000 		call	__cxa_atexit@PLT
 9393      00
 9394 39b7 E8000000 		call	_ZN8UnitTest4Test11GetTestListEv@PLT
 9394      00
 9395 39bc 488D1500 		leaq	testConv_testGetHexByteInstance(%rip), %rdx
 9395      000000
 9396 39c3 4889C6   		movq	%rax, %rsi
 9397 39c6 488D3D00 		leaq	adderConv_testGetHexByte(%rip), %rdi
 9397      000000
 9398 39cd E8000000 		call	_ZN8UnitTest9ListAdderC1ERNS_8TestListEPNS_4TestE@PLT
 9398      00
 111:testConv.cpp  **** 	CHECK_EQUAL('0', getHexUpperNibble(0x0F));
 9399              		.loc 3 111 0
 9400 39d2 488D3D00 		leaq	testConv_testGetHexUpperNibbleInstance(%rip), %rdi
 9400      000000
 9401 39d9 E8000000 		call	_ZN30TestConv_testGetHexUpperNibbleC1Ev
 9401      00
 9402 39de 488D1500 		leaq	__dso_handle(%rip), %rdx
 9402      000000
 9403 39e5 488D3500 		leaq	testConv_testGetHexUpperNibbleInstance(%rip), %rsi
 9403      000000
 9404 39ec 488D3D00 		leaq	_ZN30TestConv_testGetHexUpperNibbleD1Ev(%rip), %rdi
 9404      000000
 9405 39f3 E8000000 		call	__cxa_atexit@PLT
 9405      00
 9406 39f8 E8000000 		call	_ZN8UnitTest4Test11GetTestListEv@PLT
 9406      00
 9407 39fd 488D1500 		leaq	testConv_testGetHexUpperNibbleInstance(%rip), %rdx
 9407      000000
 9408 3a04 4889C6   		movq	%rax, %rsi
 9409 3a07 488D3D00 		leaq	adderConv_testGetHexUpperNibble(%rip), %rdi
 9409      000000
 9410 3a0e E8000000 		call	_ZN8UnitTest9ListAdderC1ERNS_8TestListEPNS_4TestE@PLT
 9410      00
 130:testConv.cpp  **** 	CHECK_EQUAL('0', getHexLowerNibble(0xF0));
 9411              		.loc 3 130 0
 9412 3a13 488D3D00 		leaq	testConv_testGetHexLowerNibbleInstance(%rip), %rdi
 9412      000000
 9413 3a1a E8000000 		call	_ZN30TestConv_testGetHexLowerNibbleC1Ev
 9413      00
 9414 3a1f 488D1500 		leaq	__dso_handle(%rip), %rdx
 9414      000000
 9415 3a26 488D3500 		leaq	testConv_testGetHexLowerNibbleInstance(%rip), %rsi
 9415      000000
 9416 3a2d 488D3D00 		leaq	_ZN30TestConv_testGetHexLowerNibbleD1Ev(%rip), %rdi
 9416      000000
 9417 3a34 E8000000 		call	__cxa_atexit@PLT
 9417      00
 9418 3a39 E8000000 		call	_ZN8UnitTest4Test11GetTestListEv@PLT
 9418      00
 9419 3a3e 488D1500 		leaq	testConv_testGetHexLowerNibbleInstance(%rip), %rdx
 9419      000000
 9420 3a45 4889C6   		movq	%rax, %rsi
 9421 3a48 488D3D00 		leaq	adderConv_testGetHexLowerNibble(%rip), %rdi
 9421      000000
 9422 3a4f E8000000 		call	_ZN8UnitTest9ListAdderC1ERNS_8TestListEPNS_4TestE@PLT
 9422      00
 9423              	.L667:
 9424              		.loc 3 147 0
 9425 3a54 90       		nop
 9426 3a55 C9       		leave
 9427              		.cfi_def_cfa 7, 8
 9428 3a56 C3       		ret
 9429              		.cfi_endproc
 9430              	.LFE1213:
 9433              	_GLOBAL__sub_I_testConv_testGetHexNibbleInstance:
 9434              	.LFB1214:
 9435              		.loc 3 147 0
 9436              		.cfi_startproc
 9437 3a57 55       		pushq	%rbp
 9438              		.cfi_def_cfa_offset 16
 9439              		.cfi_offset 6, -16
 9440 3a58 4889E5   		movq	%rsp, %rbp
 9441              		.cfi_def_cfa_register 6
 9442              		.loc 3 147 0
 9443 3a5b BEFFFF00 		movl	$65535, %esi
 9443      00
 9444 3a60 BF010000 		movl	$1, %edi
 9444      00
 9445 3a65 E8C1FEFF 		call	_Z41__static_initialization_and_destruction_0ii
 9445      FF
 9446 3a6a 5D       		popq	%rbp
 9447              		.cfi_def_cfa 7, 8
 9448 3a6b C3       		ret
 9449              		.cfi_endproc
 9450              	.LFE1214:
 9452              		.section	.init_array,"aw"
 9453              		.align 8
 9454 0000 00000000 		.quad	_GLOBAL__sub_I_testConv_testGetHexNibbleInstance
 9454      00000000 
 9455              		.text
 9456              	.Letext0:
 9457              		.file 5 "/home/gani/eval/20140524/makestuff/libs/libutpp/TestDetails.h"
 9458              		.file 6 "/home/gani/eval/20140524/makestuff/libs/libutpp/TestList.h"
 9459              		.file 7 "/home/gani/eval/20140524/makestuff/libs/libutpp/TestResults.h"
 9460              		.file 8 "/usr/include/x86_64-linux-gnu/c++/7/bits/c++config.h"
 9461              		.file 9 "/usr/include/c++/7/bits/basic_string.h"
 9462              		.file 10 "/usr/include/c++/7/bits/basic_string.tcc"
 9463              		.file 11 "/usr/include/c++/7/bits/stringfwd.h"
 9464              		.file 12 "/usr/include/c++/7/cwchar"
 9465              		.file 13 "/usr/include/c++/7/bits/char_traits.h"
 9466              		.file 14 "/usr/include/c++/7/clocale"
 9467              		.file 15 "/usr/include/c++/7/bits/allocator.h"
 9468              		.file 16 "/usr/include/c++/7/cwctype"
 9469              		.file 17 "/usr/include/c++/7/debug/debug.h"
 9470              		.file 18 "/usr/include/c++/7/bits/predefined_ops.h"
 9471              		.file 19 "/usr/include/c++/7/ext/new_allocator.h"
 9472              		.file 20 "/usr/include/c++/7/ext/numeric_traits.h"
 9473              		.file 21 "/usr/include/c++/7/ext/alloc_traits.h"
 9474              		.file 22 "/usr/lib/gcc/x86_64-linux-gnu/7/include/stddef.h"
 9475              		.file 23 "<built-in>"
 9476              		.file 24 "/usr/include/x86_64-linux-gnu/bits/types/wint_t.h"
 9477              		.file 25 "/usr/include/x86_64-linux-gnu/bits/types/__mbstate_t.h"
 9478              		.file 26 "/usr/include/x86_64-linux-gnu/bits/types/mbstate_t.h"
 9479              		.file 27 "/usr/include/x86_64-linux-gnu/bits/types/__FILE.h"
 9480              		.file 28 "/usr/include/wchar.h"
 9481              		.file 29 "/usr/include/x86_64-linux-gnu/bits/types/struct_tm.h"
 9482              		.file 30 "/usr/include/locale.h"
 9483              		.file 31 "/usr/include/x86_64-linux-gnu/bits/types.h"
 9484              		.file 32 "/usr/include/time.h"
 9485              		.file 33 "/usr/include/x86_64-linux-gnu/bits/wctype-wchar.h"
 9486              		.file 34 "/usr/include/wctype.h"
 9487              		.file 35 "/usr/include/signal.h"
 9488              		.file 36 "/usr/include/x86_64-linux-gnu/sys/time.h"
 9489              		.file 37 "/home/gani/eval/20140524/makestuff/common/makestuff.h"
 9490              		.file 38 "/usr/include/c++/7/new"
 19341              		.align 8
 19344              	DW.ref.__gxx_personality_v0:
 19345 0000 00000000 		.quad	__gxx_personality_v0
 19345      00000000 
 19346              		.hidden	__dso_handle
 19347              		.ident	"GCC: (Ubuntu 7.2.0-8ubuntu3.2) 7.2.0"
 19348              		.section	.note.GNU-stack,"",@progbits
DEFINED SYMBOLS
                            *ABS*:0000000000000000 testConv.cpp
     /tmp/ccJmiN3U.s:10     .text._ZN13UnitTestSuite12GetSuiteNameEv:0000000000000000 _ZN13UnitTestSuite12GetSuiteNameEv
     /tmp/ccJmiN3U.s:33     .text._ZN8UnitTest15MemoryOutStreamC1Ev:0000000000000000 _ZN8UnitTest15MemoryOutStreamC1Ev
     /tmp/ccJmiN3U.s:19344  .data.DW.ref.__gxx_personality_v0:0000000000000000 DW.ref.__gxx_personality_v0
     /tmp/ccJmiN3U.s:9234   .data.rel.ro.local._ZTTN8UnitTest15MemoryOutStreamE:0000000000000000 _ZTTN8UnitTest15MemoryOutStreamE
     /tmp/ccJmiN3U.s:9218   .data.rel.ro.local._ZTVN8UnitTest15MemoryOutStreamE:0000000000000000 _ZTVN8UnitTest15MemoryOutStreamE
     /tmp/ccJmiN3U.s:150    .text._ZN25TestConv_testGetHexNibbleC2Ev:0000000000000000 _ZN25TestConv_testGetHexNibbleC2Ev
     /tmp/ccJmiN3U.s:9107   .data.rel.ro.local._ZTV25TestConv_testGetHexNibble:0000000000000000 _ZTV25TestConv_testGetHexNibble
     /tmp/ccJmiN3U.s:150    .text._ZN25TestConv_testGetHexNibbleC2Ev:0000000000000000 _ZN25TestConv_testGetHexNibbleC1Ev
     /tmp/ccJmiN3U.s:194    .bss:0000000000000000 testConv_testGetHexNibbleInstance
     /tmp/ccJmiN3U.s:199    .bss:0000000000000038 adderConv_testGetHexNibble
     /tmp/ccJmiN3U.s:260    .text:0000000000000000 _ZNK25TestConv_testGetHexNibble7RunImplEv
     /tmp/ccJmiN3U.s:8345   .text._ZN8UnitTest10CheckEqualIbbEEvRNS_11TestResultsERKT_RKT0_RKNS_11TestDetailsE:0000000000000000 _ZN8UnitTest10CheckEqualIbbEEvRNS_11TestResultsERKT_RKT0_RKNS_11TestDetailsE
     /tmp/ccJmiN3U.s:8488   .text._ZN8UnitTest10CheckEqualIihEEvRNS_11TestResultsERKT_RKT0_RKNS_11TestDetailsE:0000000000000000 _ZN8UnitTest10CheckEqualIihEEvRNS_11TestResultsERKT_RKT0_RKNS_11TestDetailsE
     /tmp/ccJmiN3U.s:4244   .text._ZN23TestConv_testGetHexByteC2Ev:0000000000000000 _ZN23TestConv_testGetHexByteC2Ev
     /tmp/ccJmiN3U.s:8996   .data.rel.ro.local._ZTV23TestConv_testGetHexByte:0000000000000000 _ZTV23TestConv_testGetHexByte
     /tmp/ccJmiN3U.s:4244   .text._ZN23TestConv_testGetHexByteC2Ev:0000000000000000 _ZN23TestConv_testGetHexByteC1Ev
     /tmp/ccJmiN3U.s:4287   .bss:0000000000000040 testConv_testGetHexByteInstance
     /tmp/ccJmiN3U.s:4292   .bss:0000000000000078 adderConv_testGetHexByte
     /tmp/ccJmiN3U.s:4318   .text:0000000000001de0 _ZNK23TestConv_testGetHexByte7RunImplEv
     /tmp/ccJmiN3U.s:5089   .text._ZN30TestConv_testGetHexUpperNibbleC2Ev:0000000000000000 _ZN30TestConv_testGetHexUpperNibbleC2Ev
     /tmp/ccJmiN3U.s:8885   .data.rel.ro.local._ZTV30TestConv_testGetHexUpperNibble:0000000000000000 _ZTV30TestConv_testGetHexUpperNibble
     /tmp/ccJmiN3U.s:5089   .text._ZN30TestConv_testGetHexUpperNibbleC2Ev:0000000000000000 _ZN30TestConv_testGetHexUpperNibbleC1Ev
     /tmp/ccJmiN3U.s:5132   .bss:0000000000000080 testConv_testGetHexUpperNibbleInstance
     /tmp/ccJmiN3U.s:5137   .bss:00000000000000b8 adderConv_testGetHexUpperNibble
     /tmp/ccJmiN3U.s:5192   .text:0000000000002378 _ZNK30TestConv_testGetHexUpperNibble7RunImplEv
     /tmp/ccJmiN3U.s:8630   .text._ZN8UnitTest10CheckEqualIccEEvRNS_11TestResultsERKT_RKT0_RKNS_11TestDetailsE:0000000000000000 _ZN8UnitTest10CheckEqualIccEEvRNS_11TestResultsERKT_RKT0_RKNS_11TestDetailsE
     /tmp/ccJmiN3U.s:6615   .text._ZN30TestConv_testGetHexLowerNibbleC2Ev:0000000000000000 _ZN30TestConv_testGetHexLowerNibbleC2Ev
     /tmp/ccJmiN3U.s:8774   .data.rel.ro.local._ZTV30TestConv_testGetHexLowerNibble:0000000000000000 _ZTV30TestConv_testGetHexLowerNibble
     /tmp/ccJmiN3U.s:6615   .text._ZN30TestConv_testGetHexLowerNibbleC2Ev:0000000000000000 _ZN30TestConv_testGetHexLowerNibbleC1Ev
     /tmp/ccJmiN3U.s:6658   .bss:00000000000000c0 testConv_testGetHexLowerNibbleInstance
     /tmp/ccJmiN3U.s:6663   .bss:00000000000000f8 adderConv_testGetHexLowerNibble
     /tmp/ccJmiN3U.s:6718   .text:0000000000002e52 _ZNK30TestConv_testGetHexLowerNibble7RunImplEv
     /tmp/ccJmiN3U.s:8138   .text._ZN8UnitTest15MemoryOutStreamD1Ev:0000000000000000 _ZN8UnitTest15MemoryOutStreamD1Ev
     /tmp/ccJmiN3U.s:8247   .text._ZN8UnitTest15MemoryOutStreamD1Ev:00000000000000ac _ZTv0_n24_N8UnitTest15MemoryOutStreamD1Ev
     /tmp/ccJmiN3U.s:8261   .text._ZN8UnitTest15MemoryOutStreamD0Ev:0000000000000000 _ZN8UnitTest15MemoryOutStreamD0Ev
     /tmp/ccJmiN3U.s:8327   .text._ZN8UnitTest15MemoryOutStreamD0Ev:0000000000000048 _ZTv0_n24_N8UnitTest15MemoryOutStreamD0Ev
     /tmp/ccJmiN3U.s:9280   .data.rel.ro._ZTI30TestConv_testGetHexLowerNibble:0000000000000000 _ZTI30TestConv_testGetHexLowerNibble
     /tmp/ccJmiN3U.s:8784   .text._ZN30TestConv_testGetHexLowerNibbleD2Ev:0000000000000000 _ZN30TestConv_testGetHexLowerNibbleD1Ev
     /tmp/ccJmiN3U.s:8817   .text._ZN30TestConv_testGetHexLowerNibbleD0Ev:0000000000000000 _ZN30TestConv_testGetHexLowerNibbleD0Ev
     /tmp/ccJmiN3U.s:8784   .text._ZN30TestConv_testGetHexLowerNibbleD2Ev:0000000000000000 _ZN30TestConv_testGetHexLowerNibbleD2Ev
     /tmp/ccJmiN3U.s:9296   .data.rel.ro._ZTI30TestConv_testGetHexUpperNibble:0000000000000000 _ZTI30TestConv_testGetHexUpperNibble
     /tmp/ccJmiN3U.s:8895   .text._ZN30TestConv_testGetHexUpperNibbleD2Ev:0000000000000000 _ZN30TestConv_testGetHexUpperNibbleD1Ev
     /tmp/ccJmiN3U.s:8928   .text._ZN30TestConv_testGetHexUpperNibbleD0Ev:0000000000000000 _ZN30TestConv_testGetHexUpperNibbleD0Ev
     /tmp/ccJmiN3U.s:8895   .text._ZN30TestConv_testGetHexUpperNibbleD2Ev:0000000000000000 _ZN30TestConv_testGetHexUpperNibbleD2Ev
     /tmp/ccJmiN3U.s:9312   .data.rel.ro._ZTI23TestConv_testGetHexByte:0000000000000000 _ZTI23TestConv_testGetHexByte
     /tmp/ccJmiN3U.s:9006   .text._ZN23TestConv_testGetHexByteD2Ev:0000000000000000 _ZN23TestConv_testGetHexByteD1Ev
     /tmp/ccJmiN3U.s:9039   .text._ZN23TestConv_testGetHexByteD0Ev:0000000000000000 _ZN23TestConv_testGetHexByteD0Ev
     /tmp/ccJmiN3U.s:9006   .text._ZN23TestConv_testGetHexByteD2Ev:0000000000000000 _ZN23TestConv_testGetHexByteD2Ev
     /tmp/ccJmiN3U.s:9328   .data.rel.ro._ZTI25TestConv_testGetHexNibble:0000000000000000 _ZTI25TestConv_testGetHexNibble
     /tmp/ccJmiN3U.s:9117   .text._ZN25TestConv_testGetHexNibbleD2Ev:0000000000000000 _ZN25TestConv_testGetHexNibbleD1Ev
     /tmp/ccJmiN3U.s:9150   .text._ZN25TestConv_testGetHexNibbleD0Ev:0000000000000000 _ZN25TestConv_testGetHexNibbleD0Ev
     /tmp/ccJmiN3U.s:9117   .text._ZN25TestConv_testGetHexNibbleD2Ev:0000000000000000 _ZN25TestConv_testGetHexNibbleD2Ev
     /tmp/ccJmiN3U.s:9344   .data.rel.ro._ZTIN8UnitTest15MemoryOutStreamE:0000000000000000 _ZTIN8UnitTest15MemoryOutStreamE
     /tmp/ccJmiN3U.s:9247   .data.rel.ro._ZTCN8UnitTest15MemoryOutStreamE0_NSt7__cxx1119basic_ostringstreamIcSt11char_traitsIcESaIcEEE:0000000000000000 _ZTCN8UnitTest15MemoryOutStreamE0_NSt7__cxx1119basic_ostringstreamIcSt11char_traitsIcESaIcEEE
     /tmp/ccJmiN3U.s:9264   .data.rel.ro._ZTCN8UnitTest15MemoryOutStreamE0_So:0000000000000000 _ZTCN8UnitTest15MemoryOutStreamE0_So
     /tmp/ccJmiN3U.s:9289   .rodata._ZTS30TestConv_testGetHexLowerNibble:0000000000000000 _ZTS30TestConv_testGetHexLowerNibble
     /tmp/ccJmiN3U.s:9305   .rodata._ZTS30TestConv_testGetHexUpperNibble:0000000000000000 _ZTS30TestConv_testGetHexUpperNibble
     /tmp/ccJmiN3U.s:9321   .rodata._ZTS23TestConv_testGetHexByte:0000000000000000 _ZTS23TestConv_testGetHexByte
     /tmp/ccJmiN3U.s:9337   .rodata._ZTS25TestConv_testGetHexNibble:0000000000000000 _ZTS25TestConv_testGetHexNibble
     /tmp/ccJmiN3U.s:9353   .rodata._ZTSN8UnitTest15MemoryOutStreamE:0000000000000000 _ZTSN8UnitTest15MemoryOutStreamE
     /tmp/ccJmiN3U.s:9357   .text:000000000000392b _Z41__static_initialization_and_destruction_0ii
     /tmp/ccJmiN3U.s:9433   .text:0000000000003a57 _GLOBAL__sub_I_testConv_testGetHexNibbleInstance
                           .group:0000000000000000 _ZN25TestConv_testGetHexNibbleC5Ev
                           .group:0000000000000000 _ZN23TestConv_testGetHexByteC5Ev
                           .group:0000000000000000 _ZN30TestConv_testGetHexUpperNibbleC5Ev
                           .group:0000000000000000 _ZN30TestConv_testGetHexLowerNibbleC5Ev
                           .group:0000000000000000 _ZN30TestConv_testGetHexLowerNibbleD5Ev
                           .group:0000000000000000 _ZN30TestConv_testGetHexUpperNibbleD5Ev
                           .group:0000000000000000 _ZN23TestConv_testGetHexByteD5Ev
                           .group:0000000000000000 _ZN25TestConv_testGetHexNibbleD5Ev

UNDEFINED SYMBOLS
_GLOBAL_OFFSET_TABLE_
_ZNSt9basic_iosIcSt11char_traitsIcEEC2Ev
_ZNSt7__cxx1119basic_ostringstreamIcSt11char_traitsIcESaIcEEC2ESt13_Ios_Openmode
_ZNSt7__cxx1112basic_stringIcSt11char_traitsIcESaIcEEC1Ev
_ZNSt7__cxx1119basic_ostringstreamIcSt11char_traitsIcESaIcEED2Ev
_ZNSt9basic_iosIcSt11char_traitsIcEED2Ev
_Unwind_Resume
__gxx_personality_v0
_ZN8UnitTest4TestC2EPKcS2_S2_i
getHexNibble
_ZN8UnitTest11CurrentTest7DetailsEv
_ZN8UnitTest11TestDetailsC1ERKS0_i
_ZN8UnitTest11CurrentTest7ResultsEv
__cxa_begin_catch
_ZN8UnitTest11TestResults13OnTestFailureERKNS_11TestDetailsEPKc
__cxa_end_catch
__stack_chk_fail
getHexByte
getHexUpperNibble
getHexLowerNibble
_ZNSt7__cxx1112basic_stringIcSt11char_traitsIcESaIcEED1Ev
_ZdlPv
_ZStlsISt11char_traitsIcEERSt13basic_ostreamIcT_ES5_PKc
_ZNSolsEb
_ZNK8UnitTest15MemoryOutStream7GetTextEv
_ZNSolsEi
_ZStlsISt11char_traitsIcEERSt13basic_ostreamIcT_ES5_h
_ZStlsISt11char_traitsIcEERSt13basic_ostreamIcT_ES5_c
_ZN8UnitTest4TestD2Ev
_ZTINSt7__cxx1119basic_ostringstreamIcSt11char_traitsIcESaIcEEE
_ZTISo
_ZTVN10__cxxabiv120__si_class_type_infoE
_ZTIN8UnitTest4TestE
__dso_handle
__cxa_atexit
_ZN8UnitTest4Test11GetTestListEv
_ZN8UnitTest9ListAdderC1ERNS_8TestListEPNS_4TestE
