   1              		.file	"TestCheckMacros.cpp"
   2              		.text
   3              	.Ltext0:
   4              		.section	.rodata
   5              	.LC0:
   6 0000 44656661 		.string	"DefaultSuite"
   6      756C7453 
   6      75697465 
   6      00
   7              		.section	.text._ZN13UnitTestSuite12GetSuiteNameEv,"axG",@progbits,_ZN13UnitTestSuite12GetSuiteName
   8              		.weak	_ZN13UnitTestSuite12GetSuiteNameEv
  10              	_ZN13UnitTestSuite12GetSuiteNameEv:
  11              	.LFB0:
  12              		.file 1 "../TestSuite.h"
   1:../TestSuite.h **** #ifndef UNITTEST_TESTSUITE_H
   2:../TestSuite.h **** #define UNITTEST_TESTSUITE_H
   3:../TestSuite.h **** 
   4:../TestSuite.h **** namespace UnitTestSuite {
   5:../TestSuite.h **** 
   6:../TestSuite.h ****     inline char const* GetSuiteName ()
   7:../TestSuite.h ****     {
  13              		.loc 1 7 0
  14              		.cfi_startproc
  15 0000 55       		pushq	%rbp
  16              		.cfi_def_cfa_offset 16
  17              		.cfi_offset 6, -16
  18 0001 4889E5   		movq	%rsp, %rbp
  19              		.cfi_def_cfa_register 6
   8:../TestSuite.h ****         return "DefaultSuite";
  20              		.loc 1 8 0
  21 0004 488D0500 		leaq	.LC0(%rip), %rax
  21      000000
   9:../TestSuite.h ****     }
  22              		.loc 1 9 0
  23 000b 5D       		popq	%rbp
  24              		.cfi_def_cfa 7, 8
  25 000c C3       		ret
  26              		.cfi_endproc
  27              	.LFE0:
  29              		.section	.text._ZN8UnitTest15MemoryOutStreamC1Ev,"axG",@progbits,_ZN8UnitTest15MemoryOutStreamC1Ev
  30              		.align 2
  31              		.weak	_ZN8UnitTest15MemoryOutStreamC1Ev
  33              	_ZN8UnitTest15MemoryOutStreamC1Ev:
  34              	.LFB1076:
  35              		.file 2 "../MemoryOutStream.h"
   1:../MemoryOutStream.h **** #ifndef UNITTEST_MEMORYOUTSTREAM_H
   2:../MemoryOutStream.h **** #define UNITTEST_MEMORYOUTSTREAM_H
   3:../MemoryOutStream.h **** 
   4:../MemoryOutStream.h **** #include "Config.h"
   5:../MemoryOutStream.h **** 
   6:../MemoryOutStream.h **** #ifndef UNITTEST_USE_CUSTOM_STREAMS
   7:../MemoryOutStream.h **** 
   8:../MemoryOutStream.h **** #include <sstream>
   9:../MemoryOutStream.h **** 
  10:../MemoryOutStream.h **** namespace UnitTest
  11:../MemoryOutStream.h **** {
  12:../MemoryOutStream.h **** 
  13:../MemoryOutStream.h **** class MemoryOutStream : public std::ostringstream
  14:../MemoryOutStream.h **** {
  15:../MemoryOutStream.h **** public:
  16:../MemoryOutStream.h ****     MemoryOutStream() {}
  36              		.loc 2 16 0
  37              		.cfi_startproc
  38              		.cfi_personality 0x9b,DW.ref.__gxx_personality_v0
  39              		.cfi_lsda 0x1b,.LLSDA1076
  40 0000 55       		pushq	%rbp
  41              		.cfi_def_cfa_offset 16
  42              		.cfi_offset 6, -16
  43 0001 4889E5   		movq	%rsp, %rbp
  44              		.cfi_def_cfa_register 6
  45 0004 53       		pushq	%rbx
  46 0005 4883EC18 		subq	$24, %rsp
  47              		.cfi_offset 3, -24
  48 0009 48897DE8 		movq	%rdi, -24(%rbp)
  49              	.LBB2:
  50              		.loc 2 16 0
  51 000d 488B45E8 		movq	-24(%rbp), %rax
  52 0011 48059000 		addq	$144, %rax
  52      0000
  53 0017 4889C7   		movq	%rax, %rdi
  54              	.LEHB0:
  55 001a E8000000 		call	_ZNSt9basic_iosIcSt11char_traitsIcEEC2Ev@PLT
  55      00
  56              	.LEHE0:
  57 001f 488B45E8 		movq	-24(%rbp), %rax
  58 0023 488D0D00 		leaq	8+_ZTTN8UnitTest15MemoryOutStreamE(%rip), %rcx
  58      000000
  59 002a BA100000 		movl	$16, %edx
  59      00
  60 002f 4889CE   		movq	%rcx, %rsi
  61 0032 4889C7   		movq	%rax, %rdi
  62              	.LEHB1:
  63 0035 E8000000 		call	_ZNSt7__cxx1119basic_ostringstreamIcSt11char_traitsIcESaIcEEC2ESt13_Ios_Openmode@PLT
  63      00
  64              	.LEHE1:
  65              		.loc 2 16 0 is_stmt 0 discriminator 8
  66 003a 488D1500 		leaq	24+_ZTVN8UnitTest15MemoryOutStreamE(%rip), %rdx
  66      000000
  67 0041 488B45E8 		movq	-24(%rbp), %rax
  68 0045 488910   		movq	%rdx, (%rax)
  69 0048 488B45E8 		movq	-24(%rbp), %rax
  70 004c 488D9090 		leaq	144(%rax), %rdx
  70      000000
  71 0053 488D0500 		leaq	64+_ZTVN8UnitTest15MemoryOutStreamE(%rip), %rax
  71      000000
  72 005a 488902   		movq	%rax, (%rdx)
  73 005d 488B45E8 		movq	-24(%rbp), %rax
  74 0061 4883C070 		addq	$112, %rax
  75 0065 4889C7   		movq	%rax, %rdi
  76              	.LEHB2:
  77 0068 E8000000 		call	_ZNSt7__cxx1112basic_stringIcSt11char_traitsIcESaIcEEC1Ev@PLT
  77      00
  78              	.LEHE2:
  79              	.LBE2:
  80              		.loc 2 16 0
  81 006d EB3B     		jmp	.L9
  82              	.L7:
  83 006f 4889C3   		movq	%rax, %rbx
  84              	.LBB3:
  85 0072 488B45E8 		movq	-24(%rbp), %rax
  86 0076 488D1500 		leaq	8+_ZTTN8UnitTest15MemoryOutStreamE(%rip), %rdx
  86      000000
  87 007d 4889D6   		movq	%rdx, %rsi
  88 0080 4889C7   		movq	%rax, %rdi
  89 0083 E8000000 		call	_ZNSt7__cxx1119basic_ostringstreamIcSt11char_traitsIcESaIcEED2Ev@PLT
  89      00
  90 0088 EB03     		jmp	.L8
  91              	.L6:
  92 008a 4889C3   		movq	%rax, %rbx
  93              	.L8:
  94              		.loc 2 16 0 discriminator 11
  95 008d 488B45E8 		movq	-24(%rbp), %rax
  96 0091 48059000 		addq	$144, %rax
  96      0000
  97 0097 4889C7   		movq	%rax, %rdi
  98 009a E8000000 		call	_ZNSt9basic_iosIcSt11char_traitsIcEED2Ev@PLT
  98      00
  99 009f 4889D8   		movq	%rbx, %rax
 100 00a2 4889C7   		movq	%rax, %rdi
 101              	.LEHB3:
 102 00a5 E8000000 		call	_Unwind_Resume@PLT
 102      00
 103              	.LEHE3:
 104              	.L9:
 105              	.LBE3:
 106              		.loc 2 16 0
 107 00aa 4883C418 		addq	$24, %rsp
 108 00ae 5B       		popq	%rbx
 109 00af 5D       		popq	%rbp
 110              		.cfi_def_cfa 7, 8
 111 00b0 C3       		ret
 112              		.cfi_endproc
 113              	.LFE1076:
 114              		.globl	__gxx_personality_v0
 115              		.section	.gcc_except_table._ZN8UnitTest15MemoryOutStreamC1Ev,"aG",@progbits,_ZN8UnitTest15MemoryOu
 116              	.LLSDA1076:
 117 0000 FF       		.byte	0xff
 118 0001 FF       		.byte	0xff
 119 0002 01       		.byte	0x1
 120 0003 12       		.uleb128 .LLSDACSE1076-.LLSDACSB1076
 121              	.LLSDACSB1076:
 122 0004 1A       		.uleb128 .LEHB0-.LFB1076
 123 0005 05       		.uleb128 .LEHE0-.LEHB0
 124 0006 00       		.uleb128 0
 125 0007 00       		.uleb128 0
 126 0008 35       		.uleb128 .LEHB1-.LFB1076
 127 0009 05       		.uleb128 .LEHE1-.LEHB1
 128 000a 8A01     		.uleb128 .L6-.LFB1076
 129 000c 00       		.uleb128 0
 130 000d 68       		.uleb128 .LEHB2-.LFB1076
 131 000e 05       		.uleb128 .LEHE2-.LEHB2
 132 000f 6F       		.uleb128 .L7-.LFB1076
 133 0010 00       		.uleb128 0
 134 0011 A501     		.uleb128 .LEHB3-.LFB1076
 135 0013 05       		.uleb128 .LEHE3-.LEHB3
 136 0014 00       		.uleb128 0
 137 0015 00       		.uleb128 0
 138              	.LLSDACSE1076:
 139              		.section	.text._ZN8UnitTest15MemoryOutStreamC1Ev,"axG",@progbits,_ZN8UnitTest15MemoryOutStreamC1Ev
 141              		.section	.text._ZN8UnitTest12TestReporterC2Ev,"axG",@progbits,_ZN8UnitTest12TestReporterC5Ev,comda
 142              		.align 2
 143              		.weak	_ZN8UnitTest12TestReporterC2Ev
 145              	_ZN8UnitTest12TestReporterC2Ev:
 146              	.LFB1090:
 147              		.file 3 "../TestReporter.h"
   1:../TestReporter.h **** #ifndef UNITTEST_TESTREPORTER_H
   2:../TestReporter.h **** #define UNITTEST_TESTREPORTER_H
   3:../TestReporter.h **** 
   4:../TestReporter.h **** namespace UnitTest {
   5:../TestReporter.h **** 
   6:../TestReporter.h **** class TestDetails;
   7:../TestReporter.h **** 
   8:../TestReporter.h **** class TestReporter
 148              		.loc 3 8 0 is_stmt 1
 149              		.cfi_startproc
 150 0000 55       		pushq	%rbp
 151              		.cfi_def_cfa_offset 16
 152              		.cfi_offset 6, -16
 153 0001 4889E5   		movq	%rsp, %rbp
 154              		.cfi_def_cfa_register 6
 155 0004 48897DF8 		movq	%rdi, -8(%rbp)
 156              	.LBB4:
 157              		.loc 3 8 0
 158 0008 488D1500 		leaq	16+_ZTVN8UnitTest12TestReporterE(%rip), %rdx
 158      000000
 159 000f 488B45F8 		movq	-8(%rbp), %rax
 160 0013 488910   		movq	%rdx, (%rax)
 161              	.LBE4:
 162 0016 90       		nop
 163 0017 5D       		popq	%rbp
 164              		.cfi_def_cfa 7, 8
 165 0018 C3       		ret
 166              		.cfi_endproc
 167              	.LFE1090:
 169              		.weak	_ZN8UnitTest12TestReporterC1Ev
 170              		.set	_ZN8UnitTest12TestReporterC1Ev,_ZN8UnitTest12TestReporterC2Ev
 171              		.section	.text._ZN17RecordingReporterC2Ev,"axG",@progbits,_ZN17RecordingReporterC5Ev,comdat
 172              		.align 2
 173              		.weak	_ZN17RecordingReporterC2Ev
 175              	_ZN17RecordingReporterC2Ev:
 176              	.LFB1092:
 177              		.file 4 "RecordingReporter.h"
   1:RecordingReporter.h **** #ifndef UNITTEST_RECORDINGREPORTER_H
   2:RecordingReporter.h **** #define UNITTEST_RECORDINGREPORTER_H
   3:RecordingReporter.h **** 
   4:RecordingReporter.h **** #include "../TestReporter.h"
   5:RecordingReporter.h **** #include <cstring>
   6:RecordingReporter.h **** 
   7:RecordingReporter.h **** #include "../TestDetails.h"
   8:RecordingReporter.h **** 
   9:RecordingReporter.h **** struct RecordingReporter : public UnitTest::TestReporter
  10:RecordingReporter.h **** {
  11:RecordingReporter.h **** private:
  12:RecordingReporter.h ****     enum { kMaxStringLength = 256 };
  13:RecordingReporter.h **** 
  14:RecordingReporter.h **** public:
  15:RecordingReporter.h ****     RecordingReporter()
 178              		.loc 4 15 0
 179              		.cfi_startproc
 180 0000 55       		pushq	%rbp
 181              		.cfi_def_cfa_offset 16
 182              		.cfi_offset 6, -16
 183 0001 4889E5   		movq	%rsp, %rbp
 184              		.cfi_def_cfa_register 6
 185 0004 4883EC10 		subq	$16, %rsp
 186 0008 48897DF8 		movq	%rdi, -8(%rbp)
 187              	.LBB5:
  16:RecordingReporter.h ****         : testRunCount(0)
  17:RecordingReporter.h ****         , testFailedCount(0)
  18:RecordingReporter.h ****         , lastFailedLine(0)
  19:RecordingReporter.h ****         , testFinishedCount(0)
  20:RecordingReporter.h ****         , lastFinishedTestTime(0)
  21:RecordingReporter.h ****         , summaryTotalTestCount(0)
  22:RecordingReporter.h ****         , summaryFailedTestCount(0)
  23:RecordingReporter.h ****         , summaryFailureCount(0)
  24:RecordingReporter.h ****         , summarySecondsElapsed(0)
 188              		.loc 4 24 0
 189 000c 488B45F8 		movq	-8(%rbp), %rax
 190 0010 4889C7   		movq	%rax, %rdi
 191 0013 E8000000 		call	_ZN8UnitTest12TestReporterC2Ev
 191      00
 192 0018 488D1500 		leaq	16+_ZTV17RecordingReporter(%rip), %rdx
 192      000000
 193 001f 488B45F8 		movq	-8(%rbp), %rax
 194 0023 488910   		movq	%rdx, (%rax)
 195 0026 488B45F8 		movq	-8(%rbp), %rax
 196 002a C7400800 		movl	$0, 8(%rax)
 196      000000
 197 0031 488B45F8 		movq	-8(%rbp), %rax
 198 0035 C7800C02 		movl	$0, 524(%rax)
 198      00000000 
 198      0000
 199 003f 488B45F8 		movq	-8(%rbp), %rax
 200 0043 C7801003 		movl	$0, 784(%rax)
 200      00000000 
 200      0000
 201 004d 488B45F8 		movq	-8(%rbp), %rax
 202 0051 C7801406 		movl	$0, 1556(%rax)
 202      00000000 
 202      0000
 203 005b 488B45F8 		movq	-8(%rbp), %rax
 204 005f 660FEFC0 		pxor	%xmm0, %xmm0
 205 0063 F30F1180 		movss	%xmm0, 2072(%rax)
 205      18080000 
 206 006b 488B45F8 		movq	-8(%rbp), %rax
 207 006f C7801C08 		movl	$0, 2076(%rax)
 207      00000000 
 207      0000
 208 0079 488B45F8 		movq	-8(%rbp), %rax
 209 007d C7802008 		movl	$0, 2080(%rax)
 209      00000000 
 209      0000
 210 0087 488B45F8 		movq	-8(%rbp), %rax
 211 008b C7802408 		movl	$0, 2084(%rax)
 211      00000000 
 211      0000
 212 0095 488B45F8 		movq	-8(%rbp), %rax
 213 0099 660FEFC0 		pxor	%xmm0, %xmm0
 214 009d F30F1180 		movss	%xmm0, 2088(%rax)
 214      28080000 
  25:RecordingReporter.h ****     {
  26:RecordingReporter.h ****         lastStartedSuite[0] = '\0';
 215              		.loc 4 26 0
 216 00a5 488B45F8 		movq	-8(%rbp), %rax
 217 00a9 C6400C00 		movb	$0, 12(%rax)
  27:RecordingReporter.h ****         lastStartedTest[0] = '\0';
 218              		.loc 4 27 0
 219 00ad 488B45F8 		movq	-8(%rbp), %rax
 220 00b1 C6800C01 		movb	$0, 268(%rax)
 220      000000
  28:RecordingReporter.h ****         lastFailedFile[0] = '\0';
 221              		.loc 4 28 0
 222 00b8 488B45F8 		movq	-8(%rbp), %rax
 223 00bc C6801002 		movb	$0, 528(%rax)
 223      000000
  29:RecordingReporter.h ****         lastFailedSuite[0] = '\0';
 224              		.loc 4 29 0
 225 00c3 488B45F8 		movq	-8(%rbp), %rax
 226 00c7 C6801403 		movb	$0, 788(%rax)
 226      000000
  30:RecordingReporter.h ****         lastFailedTest[0] = '\0';
 227              		.loc 4 30 0
 228 00ce 488B45F8 		movq	-8(%rbp), %rax
 229 00d2 C6801404 		movb	$0, 1044(%rax)
 229      000000
  31:RecordingReporter.h ****         lastFailedMessage[0] = '\0';
 230              		.loc 4 31 0
 231 00d9 488B45F8 		movq	-8(%rbp), %rax
 232 00dd C6801405 		movb	$0, 1300(%rax)
 232      000000
  32:RecordingReporter.h ****         lastFinishedSuite[0] = '\0';
 233              		.loc 4 32 0
 234 00e4 488B45F8 		movq	-8(%rbp), %rax
 235 00e8 C6801806 		movb	$0, 1560(%rax)
 235      000000
  33:RecordingReporter.h ****         lastFinishedTest[0] = '\0';
 236              		.loc 4 33 0
 237 00ef 488B45F8 		movq	-8(%rbp), %rax
 238 00f3 C6801807 		movb	$0, 1816(%rax)
 238      000000
 239              	.LBE5:
  34:RecordingReporter.h ****     }
 240              		.loc 4 34 0
 241 00fa 90       		nop
 242 00fb C9       		leave
 243              		.cfi_def_cfa 7, 8
 244 00fc C3       		ret
 245              		.cfi_endproc
 246              	.LFE1092:
 248              		.weak	_ZN17RecordingReporterC1Ev
 249              		.set	_ZN17RecordingReporterC1Ev,_ZN17RecordingReporterC2Ev
 250              		.section	.text._ZN17RecordingReporter15ReportTestStartERKN8UnitTest11TestDetailsE,"axG",@progbits,
 251              		.align 2
 252              		.weak	_ZN17RecordingReporter15ReportTestStartERKN8UnitTest11TestDetailsE
 254              	_ZN17RecordingReporter15ReportTestStartERKN8UnitTest11TestDetailsE:
 255              	.LFB1094:
  35:RecordingReporter.h **** 
  36:RecordingReporter.h ****     virtual void ReportTestStart(UnitTest::TestDetails const& test)
 256              		.loc 4 36 0
 257              		.cfi_startproc
 258 0000 55       		pushq	%rbp
 259              		.cfi_def_cfa_offset 16
 260              		.cfi_offset 6, -16
 261 0001 4889E5   		movq	%rsp, %rbp
 262              		.cfi_def_cfa_register 6
 263 0004 4883EC10 		subq	$16, %rsp
 264 0008 48897DF8 		movq	%rdi, -8(%rbp)
 265 000c 488975F0 		movq	%rsi, -16(%rbp)
  37:RecordingReporter.h ****     {
  38:RecordingReporter.h **** 		using namespace std;
  39:RecordingReporter.h **** 
  40:RecordingReporter.h ****         ++testRunCount;
 266              		.loc 4 40 0
 267 0010 488B45F8 		movq	-8(%rbp), %rax
 268 0014 8B4008   		movl	8(%rax), %eax
 269 0017 8D5001   		leal	1(%rax), %edx
 270 001a 488B45F8 		movq	-8(%rbp), %rax
 271 001e 895008   		movl	%edx, 8(%rax)
  41:RecordingReporter.h ****         strcpy(lastStartedSuite, test.suiteName);
 272              		.loc 4 41 0
 273 0021 488B45F0 		movq	-16(%rbp), %rax
 274 0025 488B00   		movq	(%rax), %rax
 275 0028 488B55F8 		movq	-8(%rbp), %rdx
 276 002c 4883C20C 		addq	$12, %rdx
 277 0030 4889C6   		movq	%rax, %rsi
 278 0033 4889D7   		movq	%rdx, %rdi
 279 0036 E8000000 		call	strcpy@PLT
 279      00
  42:RecordingReporter.h ****         strcpy(lastStartedTest, test.testName);
 280              		.loc 4 42 0
 281 003b 488B45F0 		movq	-16(%rbp), %rax
 282 003f 488B4008 		movq	8(%rax), %rax
 283 0043 488B55F8 		movq	-8(%rbp), %rdx
 284 0047 4881C20C 		addq	$268, %rdx
 284      010000
 285 004e 4889C6   		movq	%rax, %rsi
 286 0051 4889D7   		movq	%rdx, %rdi
 287 0054 E8000000 		call	strcpy@PLT
 287      00
  43:RecordingReporter.h ****     }
 288              		.loc 4 43 0
 289 0059 90       		nop
 290 005a C9       		leave
 291              		.cfi_def_cfa 7, 8
 292 005b C3       		ret
 293              		.cfi_endproc
 294              	.LFE1094:
 296              		.section	.text._ZN17RecordingReporter13ReportFailureERKN8UnitTest11TestDetailsEPKc,"axG",@progbits
 297              		.align 2
 298              		.weak	_ZN17RecordingReporter13ReportFailureERKN8UnitTest11TestDetailsEPKc
 300              	_ZN17RecordingReporter13ReportFailureERKN8UnitTest11TestDetailsEPKc:
 301              	.LFB1095:
  44:RecordingReporter.h **** 
  45:RecordingReporter.h ****     virtual void ReportFailure(UnitTest::TestDetails const& test, char const* failure)
 302              		.loc 4 45 0
 303              		.cfi_startproc
 304 0000 55       		pushq	%rbp
 305              		.cfi_def_cfa_offset 16
 306              		.cfi_offset 6, -16
 307 0001 4889E5   		movq	%rsp, %rbp
 308              		.cfi_def_cfa_register 6
 309 0004 4883EC20 		subq	$32, %rsp
 310 0008 48897DF8 		movq	%rdi, -8(%rbp)
 311 000c 488975F0 		movq	%rsi, -16(%rbp)
 312 0010 488955E8 		movq	%rdx, -24(%rbp)
  46:RecordingReporter.h ****     {
  47:RecordingReporter.h **** 		using namespace std;
  48:RecordingReporter.h **** 
  49:RecordingReporter.h **** 		++testFailedCount;
 313              		.loc 4 49 0
 314 0014 488B45F8 		movq	-8(%rbp), %rax
 315 0018 8B800C02 		movl	524(%rax), %eax
 315      0000
 316 001e 8D5001   		leal	1(%rax), %edx
 317 0021 488B45F8 		movq	-8(%rbp), %rax
 318 0025 89900C02 		movl	%edx, 524(%rax)
 318      0000
  50:RecordingReporter.h ****         strcpy(lastFailedFile, test.filename);
 319              		.loc 4 50 0
 320 002b 488B45F0 		movq	-16(%rbp), %rax
 321 002f 488B4010 		movq	16(%rax), %rax
 322 0033 488B55F8 		movq	-8(%rbp), %rdx
 323 0037 4881C210 		addq	$528, %rdx
 323      020000
 324 003e 4889C6   		movq	%rax, %rsi
 325 0041 4889D7   		movq	%rdx, %rdi
 326 0044 E8000000 		call	strcpy@PLT
 326      00
  51:RecordingReporter.h ****         lastFailedLine = test.lineNumber;
 327              		.loc 4 51 0
 328 0049 488B45F0 		movq	-16(%rbp), %rax
 329 004d 8B5018   		movl	24(%rax), %edx
 330 0050 488B45F8 		movq	-8(%rbp), %rax
 331 0054 89901003 		movl	%edx, 784(%rax)
 331      0000
  52:RecordingReporter.h ****         strcpy(lastFailedSuite, test.suiteName);
 332              		.loc 4 52 0
 333 005a 488B45F0 		movq	-16(%rbp), %rax
 334 005e 488B00   		movq	(%rax), %rax
 335 0061 488B55F8 		movq	-8(%rbp), %rdx
 336 0065 4881C214 		addq	$788, %rdx
 336      030000
 337 006c 4889C6   		movq	%rax, %rsi
 338 006f 4889D7   		movq	%rdx, %rdi
 339 0072 E8000000 		call	strcpy@PLT
 339      00
  53:RecordingReporter.h ****         strcpy(lastFailedTest, test.testName);
 340              		.loc 4 53 0
 341 0077 488B45F0 		movq	-16(%rbp), %rax
 342 007b 488B4008 		movq	8(%rax), %rax
 343 007f 488B55F8 		movq	-8(%rbp), %rdx
 344 0083 4881C214 		addq	$1044, %rdx
 344      040000
 345 008a 4889C6   		movq	%rax, %rsi
 346 008d 4889D7   		movq	%rdx, %rdi
 347 0090 E8000000 		call	strcpy@PLT
 347      00
  54:RecordingReporter.h ****         strcpy(lastFailedMessage, failure);
 348              		.loc 4 54 0
 349 0095 488B45F8 		movq	-8(%rbp), %rax
 350 0099 488D9014 		leaq	1300(%rax), %rdx
 350      050000
 351 00a0 488B45E8 		movq	-24(%rbp), %rax
 352 00a4 4889C6   		movq	%rax, %rsi
 353 00a7 4889D7   		movq	%rdx, %rdi
 354 00aa E8000000 		call	strcpy@PLT
 354      00
  55:RecordingReporter.h ****     }
 355              		.loc 4 55 0
 356 00af 90       		nop
 357 00b0 C9       		leave
 358              		.cfi_def_cfa 7, 8
 359 00b1 C3       		ret
 360              		.cfi_endproc
 361              	.LFE1095:
 363              		.section	.text._ZN17RecordingReporter16ReportTestFinishERKN8UnitTest11TestDetailsEf,"axG",@progbit
 364              		.align 2
 365              		.weak	_ZN17RecordingReporter16ReportTestFinishERKN8UnitTest11TestDetailsEf
 367              	_ZN17RecordingReporter16ReportTestFinishERKN8UnitTest11TestDetailsEf:
 368              	.LFB1096:
  56:RecordingReporter.h **** 
  57:RecordingReporter.h ****     virtual void ReportTestFinish(UnitTest::TestDetails const& test, float testDuration)
 369              		.loc 4 57 0
 370              		.cfi_startproc
 371 0000 55       		pushq	%rbp
 372              		.cfi_def_cfa_offset 16
 373              		.cfi_offset 6, -16
 374 0001 4889E5   		movq	%rsp, %rbp
 375              		.cfi_def_cfa_register 6
 376 0004 4883EC20 		subq	$32, %rsp
 377 0008 48897DF8 		movq	%rdi, -8(%rbp)
 378 000c 488975F0 		movq	%rsi, -16(%rbp)
 379 0010 F30F1145 		movss	%xmm0, -20(%rbp)
 379      EC
  58:RecordingReporter.h ****     {
  59:RecordingReporter.h **** 		using namespace std;
  60:RecordingReporter.h **** 
  61:RecordingReporter.h **** 		++testFinishedCount;
 380              		.loc 4 61 0
 381 0015 488B45F8 		movq	-8(%rbp), %rax
 382 0019 8B801406 		movl	1556(%rax), %eax
 382      0000
 383 001f 8D5001   		leal	1(%rax), %edx
 384 0022 488B45F8 		movq	-8(%rbp), %rax
 385 0026 89901406 		movl	%edx, 1556(%rax)
 385      0000
  62:RecordingReporter.h ****         strcpy(lastFinishedSuite, test.suiteName);
 386              		.loc 4 62 0
 387 002c 488B45F0 		movq	-16(%rbp), %rax
 388 0030 488B00   		movq	(%rax), %rax
 389 0033 488B55F8 		movq	-8(%rbp), %rdx
 390 0037 4881C218 		addq	$1560, %rdx
 390      060000
 391 003e 4889C6   		movq	%rax, %rsi
 392 0041 4889D7   		movq	%rdx, %rdi
 393 0044 E8000000 		call	strcpy@PLT
 393      00
  63:RecordingReporter.h ****         strcpy(lastFinishedTest, test.testName);
 394              		.loc 4 63 0
 395 0049 488B45F0 		movq	-16(%rbp), %rax
 396 004d 488B4008 		movq	8(%rax), %rax
 397 0051 488B55F8 		movq	-8(%rbp), %rdx
 398 0055 4881C218 		addq	$1816, %rdx
 398      070000
 399 005c 4889C6   		movq	%rax, %rsi
 400 005f 4889D7   		movq	%rdx, %rdi
 401 0062 E8000000 		call	strcpy@PLT
 401      00
  64:RecordingReporter.h ****         lastFinishedTestTime = testDuration;
 402              		.loc 4 64 0
 403 0067 488B45F8 		movq	-8(%rbp), %rax
 404 006b F30F1045 		movss	-20(%rbp), %xmm0
 404      EC
 405 0070 F30F1180 		movss	%xmm0, 2072(%rax)
 405      18080000 
  65:RecordingReporter.h ****     }
 406              		.loc 4 65 0
 407 0078 90       		nop
 408 0079 C9       		leave
 409              		.cfi_def_cfa 7, 8
 410 007a C3       		ret
 411              		.cfi_endproc
 412              	.LFE1096:
 414              		.section	.text._ZN17RecordingReporter13ReportSummaryEiiif,"axG",@progbits,_ZN17RecordingReporter13
 415              		.align 2
 416              		.weak	_ZN17RecordingReporter13ReportSummaryEiiif
 418              	_ZN17RecordingReporter13ReportSummaryEiiif:
 419              	.LFB1097:
  66:RecordingReporter.h **** 
  67:RecordingReporter.h ****     virtual void ReportSummary(int totalTestCount, int failedTestCount, int failureCount, float sec
 420              		.loc 4 67 0
 421              		.cfi_startproc
 422 0000 55       		pushq	%rbp
 423              		.cfi_def_cfa_offset 16
 424              		.cfi_offset 6, -16
 425 0001 4889E5   		movq	%rsp, %rbp
 426              		.cfi_def_cfa_register 6
 427 0004 48897DF8 		movq	%rdi, -8(%rbp)
 428 0008 8975F4   		movl	%esi, -12(%rbp)
 429 000b 8955F0   		movl	%edx, -16(%rbp)
 430 000e 894DEC   		movl	%ecx, -20(%rbp)
 431 0011 F30F1145 		movss	%xmm0, -24(%rbp)
 431      E8
  68:RecordingReporter.h ****     {
  69:RecordingReporter.h ****         summaryTotalTestCount = totalTestCount;
 432              		.loc 4 69 0
 433 0016 488B45F8 		movq	-8(%rbp), %rax
 434 001a 8B55F4   		movl	-12(%rbp), %edx
 435 001d 89901C08 		movl	%edx, 2076(%rax)
 435      0000
  70:RecordingReporter.h ****         summaryFailedTestCount = failedTestCount;
 436              		.loc 4 70 0
 437 0023 488B45F8 		movq	-8(%rbp), %rax
 438 0027 8B55F0   		movl	-16(%rbp), %edx
 439 002a 89902008 		movl	%edx, 2080(%rax)
 439      0000
  71:RecordingReporter.h ****         summaryFailureCount = failureCount;
 440              		.loc 4 71 0
 441 0030 488B45F8 		movq	-8(%rbp), %rax
 442 0034 8B55EC   		movl	-20(%rbp), %edx
 443 0037 89902408 		movl	%edx, 2084(%rax)
 443      0000
  72:RecordingReporter.h ****         summarySecondsElapsed = secondsElapsed;
 444              		.loc 4 72 0
 445 003d 488B45F8 		movq	-8(%rbp), %rax
 446 0041 F30F1045 		movss	-24(%rbp), %xmm0
 446      E8
 447 0046 F30F1180 		movss	%xmm0, 2088(%rax)
 447      28080000 
  73:RecordingReporter.h ****     }
 448              		.loc 4 73 0
 449 004e 90       		nop
 450 004f 5D       		popq	%rbp
 451              		.cfi_def_cfa 7, 8
 452 0050 C3       		ret
 453              		.cfi_endproc
 454              	.LFE1097:
 456              		.section	.text._ZN17ScopedCurrentTestC2ERN8UnitTest11TestResultsEPKNS0_11TestDetailsE,"axG",@progb
 457              		.align 2
 458              		.weak	_ZN17ScopedCurrentTestC2ERN8UnitTest11TestResultsEPKNS0_11TestDetailsE
 460              	_ZN17ScopedCurrentTestC2ERN8UnitTest11TestResultsEPKNS0_11TestDetailsE:
 461              	.LFB1102:
 462              		.file 5 "ScopedCurrentTest.h"
   1:ScopedCurrentTest.h **** #ifndef UNITTEST_SCOPEDCURRENTTEST_H
   2:ScopedCurrentTest.h **** #define UNITTEST_SCOPEDCURRENTTEST_H
   3:ScopedCurrentTest.h **** 
   4:ScopedCurrentTest.h **** #include "../CurrentTest.h"
   5:ScopedCurrentTest.h **** #include <cstddef>
   6:ScopedCurrentTest.h **** 
   7:ScopedCurrentTest.h **** class ScopedCurrentTest
   8:ScopedCurrentTest.h **** {
   9:ScopedCurrentTest.h **** public:
  10:ScopedCurrentTest.h **** 	ScopedCurrentTest()
  11:ScopedCurrentTest.h **** 		: m_oldTestResults(UnitTest::CurrentTest::Results())
  12:ScopedCurrentTest.h **** 		, m_oldTestDetails(UnitTest::CurrentTest::Details())
  13:ScopedCurrentTest.h **** 	{
  14:ScopedCurrentTest.h **** 	}
  15:ScopedCurrentTest.h **** 
  16:ScopedCurrentTest.h **** 	explicit ScopedCurrentTest(UnitTest::TestResults& newResults, const UnitTest::TestDetails* newDeta
 463              		.loc 5 16 0
 464              		.cfi_startproc
 465 0000 55       		pushq	%rbp
 466              		.cfi_def_cfa_offset 16
 467              		.cfi_offset 6, -16
 468 0001 4889E5   		movq	%rsp, %rbp
 469              		.cfi_def_cfa_register 6
 470 0004 4883EC20 		subq	$32, %rsp
 471 0008 48897DF8 		movq	%rdi, -8(%rbp)
 472 000c 488975F0 		movq	%rsi, -16(%rbp)
 473 0010 488955E8 		movq	%rdx, -24(%rbp)
 474              	.LBB6:
  17:ScopedCurrentTest.h **** 		: m_oldTestResults(UnitTest::CurrentTest::Results())
 475              		.loc 5 17 0
 476 0014 E8000000 		call	_ZN8UnitTest11CurrentTest7ResultsEv@PLT
 476      00
 477 0019 488B10   		movq	(%rax), %rdx
  18:ScopedCurrentTest.h **** 		, m_oldTestDetails(UnitTest::CurrentTest::Details())
 478              		.loc 5 18 0
 479 001c 488B45F8 		movq	-8(%rbp), %rax
 480 0020 488910   		movq	%rdx, (%rax)
 481 0023 E8000000 		call	_ZN8UnitTest11CurrentTest7DetailsEv@PLT
 481      00
 482 0028 488B10   		movq	(%rax), %rdx
 483 002b 488B45F8 		movq	-8(%rbp), %rax
 484 002f 48895008 		movq	%rdx, 8(%rax)
  19:ScopedCurrentTest.h **** 	{
  20:ScopedCurrentTest.h **** 		UnitTest::CurrentTest::Results() = &newResults;
 485              		.loc 5 20 0
 486 0033 E8000000 		call	_ZN8UnitTest11CurrentTest7ResultsEv@PLT
 486      00
 487 0038 4889C2   		movq	%rax, %rdx
 488 003b 488B45F0 		movq	-16(%rbp), %rax
 489 003f 488902   		movq	%rax, (%rdx)
  21:ScopedCurrentTest.h **** 
  22:ScopedCurrentTest.h **** 		if (newDetails != NULL)
 490              		.loc 5 22 0
 491 0042 48837DE8 		cmpq	$0, -24(%rbp)
 491      00
 492 0047 740F     		je	.L18
  23:ScopedCurrentTest.h **** 			UnitTest::CurrentTest::Details() = newDetails;
 493              		.loc 5 23 0
 494 0049 E8000000 		call	_ZN8UnitTest11CurrentTest7DetailsEv@PLT
 494      00
 495 004e 4889C2   		movq	%rax, %rdx
 496 0051 488B45E8 		movq	-24(%rbp), %rax
 497 0055 488902   		movq	%rax, (%rdx)
 498              	.L18:
 499              	.LBE6:
  24:ScopedCurrentTest.h **** 	}
 500              		.loc 5 24 0
 501 0058 90       		nop
 502 0059 C9       		leave
 503              		.cfi_def_cfa 7, 8
 504 005a C3       		ret
 505              		.cfi_endproc
 506              	.LFE1102:
 508              		.weak	_ZN17ScopedCurrentTestC1ERN8UnitTest11TestResultsEPKNS0_11TestDetailsE
 509              		.set	_ZN17ScopedCurrentTestC1ERN8UnitTest11TestResultsEPKNS0_11TestDetailsE,_ZN17ScopedCurrentTest
 510              		.section	.text._ZN17ScopedCurrentTestD2Ev,"axG",@progbits,_ZN17ScopedCurrentTestD5Ev,comdat
 511              		.align 2
 512              		.weak	_ZN17ScopedCurrentTestD2Ev
 514              	_ZN17ScopedCurrentTestD2Ev:
 515              	.LFB1105:
  25:ScopedCurrentTest.h **** 
  26:ScopedCurrentTest.h **** 	~ScopedCurrentTest()
 516              		.loc 5 26 0
 517              		.cfi_startproc
 518 0000 55       		pushq	%rbp
 519              		.cfi_def_cfa_offset 16
 520              		.cfi_offset 6, -16
 521 0001 4889E5   		movq	%rsp, %rbp
 522              		.cfi_def_cfa_register 6
 523 0004 4883EC10 		subq	$16, %rsp
 524 0008 48897DF8 		movq	%rdi, -8(%rbp)
 525              	.LBB7:
  27:ScopedCurrentTest.h **** 	{
  28:ScopedCurrentTest.h **** 		UnitTest::CurrentTest::Results() = m_oldTestResults;
 526              		.loc 5 28 0
 527 000c E8000000 		call	_ZN8UnitTest11CurrentTest7ResultsEv@PLT
 527      00
 528 0011 4889C2   		movq	%rax, %rdx
 529 0014 488B45F8 		movq	-8(%rbp), %rax
 530 0018 488B00   		movq	(%rax), %rax
 531 001b 488902   		movq	%rax, (%rdx)
  29:ScopedCurrentTest.h **** 		UnitTest::CurrentTest::Details() = m_oldTestDetails;
 532              		.loc 5 29 0
 533 001e E8000000 		call	_ZN8UnitTest11CurrentTest7DetailsEv@PLT
 533      00
 534 0023 4889C2   		movq	%rax, %rdx
 535 0026 488B45F8 		movq	-8(%rbp), %rax
 536 002a 488B4008 		movq	8(%rax), %rax
 537 002e 488902   		movq	%rax, (%rdx)
 538              	.LBE7:
  30:ScopedCurrentTest.h **** 	}
 539              		.loc 5 30 0
 540 0031 90       		nop
 541 0032 C9       		leave
 542              		.cfi_def_cfa 7, 8
 543 0033 C3       		ret
 544              		.cfi_endproc
 545              	.LFE1105:
 547              		.weak	_ZN17ScopedCurrentTestD1Ev
 548              		.set	_ZN17ScopedCurrentTestD1Ev,_ZN17ScopedCurrentTestD2Ev
 549              		.section	.rodata
 550              	.LC2:
 551 000d 54657374 		.string	"TestCheckMacros.cpp"
 551      43686563 
 551      6B4D6163 
 551      726F732E 
 551      63707000 
 552              	.LC3:
 553 0021 43686563 		.string	"CheckSucceedsOnTrue"
 553      6B537563 
 553      63656564 
 553      734F6E54 
 553      72756500 
 554              		.text
 555              		.align 2
 557              	_ZN12_GLOBAL__N_123TestCheckSucceedsOnTrueC2Ev:
 558              	.LFB1108:
 559              		.file 6 "TestCheckMacros.cpp"
   1:TestCheckMacros.cpp **** #include "../UnitTest++.h"
   2:TestCheckMacros.cpp **** #include "../CurrentTest.h"
   3:TestCheckMacros.cpp **** #include "RecordingReporter.h"
   4:TestCheckMacros.cpp **** #include "ScopedCurrentTest.h"
   5:TestCheckMacros.cpp **** 
   6:TestCheckMacros.cpp **** using namespace std;
   7:TestCheckMacros.cpp **** 
   8:TestCheckMacros.cpp **** namespace {
   9:TestCheckMacros.cpp **** 
  10:TestCheckMacros.cpp **** TEST(CheckSucceedsOnTrue)
 560              		.loc 6 10 0
 561              		.cfi_startproc
 562 0000 55       		pushq	%rbp
 563              		.cfi_def_cfa_offset 16
 564              		.cfi_offset 6, -16
 565 0001 4889E5   		movq	%rsp, %rbp
 566              		.cfi_def_cfa_register 6
 567 0004 53       		pushq	%rbx
 568 0005 4883EC18 		subq	$24, %rsp
 569              		.cfi_offset 3, -24
 570 0009 48897DE8 		movq	%rdi, -24(%rbp)
 571              	.LBB8:
 572              		.loc 6 10 0
 573 000d 488B5DE8 		movq	-24(%rbp), %rbx
 574 0011 E8000000 		call	_ZN13UnitTestSuite12GetSuiteNameEv
 574      00
 575 0016 41B80A00 		movl	$10, %r8d
 575      0000
 576 001c 488D0D00 		leaq	.LC2(%rip), %rcx
 576      000000
 577 0023 4889C2   		movq	%rax, %rdx
 578 0026 488D3500 		leaq	.LC3(%rip), %rsi
 578      000000
 579 002d 4889DF   		movq	%rbx, %rdi
 580 0030 E8000000 		call	_ZN8UnitTest4TestC2EPKcS2_S2_i@PLT
 580      00
 581 0035 488D1500 		leaq	16+_ZTVN12_GLOBAL__N_123TestCheckSucceedsOnTrueE(%rip), %rdx
 581      000000
 582 003c 488B45E8 		movq	-24(%rbp), %rax
 583 0040 488910   		movq	%rdx, (%rax)
 584              	.LBE8:
 585 0043 90       		nop
 586 0044 4883C418 		addq	$24, %rsp
 587 0048 5B       		popq	%rbx
 588 0049 5D       		popq	%rbp
 589              		.cfi_def_cfa 7, 8
 590 004a C3       		ret
 591              		.cfi_endproc
 592              	.LFE1108:
 594              		.set	_ZN12_GLOBAL__N_123TestCheckSucceedsOnTrueC1Ev,_ZN12_GLOBAL__N_123TestCheckSucceedsOnTrueC2Ev
 595              		.local	_ZN12_GLOBAL__N_131testCheckSucceedsOnTrueInstanceE
 596              		.comm	_ZN12_GLOBAL__N_131testCheckSucceedsOnTrueInstanceE,56,32
 597              		.local	_ZN12_GLOBAL__N_124adderCheckSucceedsOnTrueE
 598              		.comm	_ZN12_GLOBAL__N_124adderCheckSucceedsOnTrueE,1,1
 599              		.section	.rodata
 600              	.LC4:
 601 0035 74727565 		.string	"true"
 601      00
 602              	.LC5:
 603 003a 21666169 		.string	"!failure"
 603      6C757265 
 603      00
 604 0043 00000000 		.align 8
 604      00
 605              	.LC6:
 606 0048 556E6861 		.string	"Unhandled exception in CHECK(true)"
 606      6E646C65 
 606      64206578 
 606      63657074 
 606      696F6E20 
 607 006b 00000000 		.align 8
 607      00
 608              	.LC7:
 609 0070 556E6861 		.string	"Unhandled exception in CHECK(!failure)"
 609      6E646C65 
 609      64206578 
 609      63657074 
 609      696F6E20 
 610              		.text
 611 004b 90       		.align 2
 613              	_ZNK12_GLOBAL__N_123TestCheckSucceedsOnTrue7RunImplEv:
 614              	.LFB1110:
  11:TestCheckMacros.cpp **** {
 615              		.loc 6 11 0
 616              		.cfi_startproc
 617              		.cfi_personality 0x9b,DW.ref.__gxx_personality_v0
 618              		.cfi_lsda 0x1b,.LLSDA1110
 619 004c 55       		pushq	%rbp
 620              		.cfi_def_cfa_offset 16
 621              		.cfi_offset 6, -16
 622 004d 4889E5   		movq	%rsp, %rbp
 623              		.cfi_def_cfa_register 6
 624 0050 53       		pushq	%rbx
 625 0051 4881ECB8 		subq	$2232, %rsp
 625      080000
 626              		.cfi_offset 3, -24
 627 0058 4889BD48 		movq	%rdi, -2232(%rbp)
 627      F7FFFF
 628              		.loc 6 11 0
 629 005f 64488B04 		movq	%fs:40, %rax
 629      25280000 
 629      00
 630 0068 488945E8 		movq	%rax, -24(%rbp)
 631 006c 31C0     		xorl	%eax, %eax
  12:TestCheckMacros.cpp ****     bool failure = true;
 632              		.loc 6 12 0
 633 006e C6855FF7 		movb	$1, -2209(%rbp)
 633      FFFF01
 634              	.LBB9:
  13:TestCheckMacros.cpp ****     {
  14:TestCheckMacros.cpp ****         RecordingReporter reporter;
 635              		.loc 6 14 0
 636 0075 488D85B0 		leaq	-2128(%rbp), %rax
 636      F7FFFF
 637 007c 4889C7   		movq	%rax, %rdi
 638 007f E8000000 		call	_ZN17RecordingReporterC1Ev
 638      00
  15:TestCheckMacros.cpp ****         UnitTest::TestResults testResults(&reporter);
 639              		.loc 6 15 0
 640 0084 488D95B0 		leaq	-2128(%rbp), %rdx
 640      F7FFFF
 641 008b 488D8570 		leaq	-2192(%rbp), %rax
 641      F7FFFF
 642 0092 4889D6   		movq	%rdx, %rsi
 643 0095 4889C7   		movq	%rax, %rdi
 644              	.LEHB4:
 645 0098 E8000000 		call	_ZN8UnitTest11TestResultsC1EPNS_12TestReporterE@PLT
 645      00
  16:TestCheckMacros.cpp **** 
  17:TestCheckMacros.cpp **** 		ScopedCurrentTest scopedResults(testResults);
 646              		.loc 6 17 0
 647 009d 488D8D70 		leaq	-2192(%rbp), %rcx
 647      F7FFFF
 648 00a4 488D8560 		leaq	-2208(%rbp), %rax
 648      F7FFFF
 649 00ab BA000000 		movl	$0, %edx
 649      00
 650 00b0 4889CE   		movq	%rcx, %rsi
 651 00b3 4889C7   		movq	%rax, %rdi
 652 00b6 E8000000 		call	_ZN17ScopedCurrentTestC1ERN8UnitTest11TestResultsEPKNS0_11TestDetailsE
 652      00
 653              	.LEHE4:
  18:TestCheckMacros.cpp **** 		CHECK(true);
 654              		.loc 6 18 0
 655 00bb BF010000 		movl	$1, %edi
 655      00
 656 00c0 E8000000 		call	_ZN8UnitTest5CheckIbEEbT_
 656      00
 657 00c5 83F001   		xorl	$1, %eax
 658 00c8 84C0     		testb	%al, %al
 659 00ca 7440     		je	.L22
 660              	.LEHB5:
 661              		.loc 6 18 0 is_stmt 0 discriminator 1
 662 00cc E8000000 		call	_ZN8UnitTest11CurrentTest7ResultsEv@PLT
 662      00
 663 00d1 488B18   		movq	(%rax), %rbx
 664 00d4 E8000000 		call	_ZN8UnitTest11CurrentTest7DetailsEv@PLT
 664      00
 665              		.loc 6 18 0 discriminator 2
 666 00d9 488B08   		movq	(%rax), %rcx
 667 00dc 488D8590 		leaq	-2160(%rbp), %rax
 667      F7FFFF
 668 00e3 BA120000 		movl	$18, %edx
 668      00
 669 00e8 4889CE   		movq	%rcx, %rsi
 670 00eb 4889C7   		movq	%rax, %rdi
 671 00ee E8000000 		call	_ZN8UnitTest11TestDetailsC1ERKS0_i@PLT
 671      00
 672              		.loc 6 18 0 discriminator 4
 673 00f3 488D8590 		leaq	-2160(%rbp), %rax
 673      F7FFFF
 674 00fa 488D1500 		leaq	.LC4(%rip), %rdx
 674      000000
 675 0101 4889C6   		movq	%rax, %rsi
 676 0104 4889DF   		movq	%rbx, %rdi
 677 0107 E8000000 		call	_ZN8UnitTest11TestResults13OnTestFailureERKNS_11TestDetailsEPKc@PLT
 677      00
 678              	.LEHE5:
 679              	.L22:
  19:TestCheckMacros.cpp **** 
  20:TestCheckMacros.cpp **** 		failure = (testResults.GetFailureCount() > 0);
 680              		.loc 6 20 0 is_stmt 1
 681 010c 488D8570 		leaq	-2192(%rbp), %rax
 681      F7FFFF
 682 0113 4889C7   		movq	%rax, %rdi
 683              	.LEHB6:
 684 0116 E8000000 		call	_ZNK8UnitTest11TestResults15GetFailureCountEv@PLT
 684      00
 685              	.LEHE6:
 686 011b 85C0     		testl	%eax, %eax
 687 011d 0F9FC0   		setg	%al
 688 0120 88855FF7 		movb	%al, -2209(%rbp)
 688      FFFF
  17:TestCheckMacros.cpp **** 		CHECK(true);
 689              		.loc 6 17 0
 690 0126 488D8560 		leaq	-2208(%rbp), %rax
 690      F7FFFF
 691 012d 4889C7   		movq	%rax, %rdi
 692              	.LEHB7:
 693 0130 E8000000 		call	_ZN17ScopedCurrentTestD1Ev
 693      00
 694              	.LEHE7:
  14:TestCheckMacros.cpp ****         UnitTest::TestResults testResults(&reporter);
 695              		.loc 6 14 0
 696 0135 488D85B0 		leaq	-2128(%rbp), %rax
 696      F7FFFF
 697 013c 4889C7   		movq	%rax, %rdi
 698              	.LEHB8:
 699 013f E8000000 		call	_ZN17RecordingReporterD1Ev
 699      00
 700              	.LEHE8:
 701              	.LBE9:
  21:TestCheckMacros.cpp ****     }
  22:TestCheckMacros.cpp **** 
  23:TestCheckMacros.cpp ****     CHECK(!failure);
 702              		.loc 6 23 0
 703 0144 0FB6855F 		movzbl	-2209(%rbp), %eax
 703      F7FFFF
 704 014b 83F001   		xorl	$1, %eax
 705 014e 0FB6C0   		movzbl	%al, %eax
 706 0151 89C7     		movl	%eax, %edi
 707 0153 E8000000 		call	_ZN8UnitTest5CheckIbEEbT_
 707      00
 708 0158 83F001   		xorl	$1, %eax
 709 015b 84C0     		testb	%al, %al
 710 015d 0F843401 		je	.L37
 710      0000
 711              	.LEHB9:
 712              		.loc 6 23 0 is_stmt 0 discriminator 1
 713 0163 E8000000 		call	_ZN8UnitTest11CurrentTest7ResultsEv@PLT
 713      00
 714 0168 488B18   		movq	(%rax), %rbx
 715 016b E8000000 		call	_ZN8UnitTest11CurrentTest7DetailsEv@PLT
 715      00
 716              		.loc 6 23 0 discriminator 2
 717 0170 488B08   		movq	(%rax), %rcx
 718 0173 488D8590 		leaq	-2160(%rbp), %rax
 718      F7FFFF
 719 017a BA170000 		movl	$23, %edx
 719      00
 720 017f 4889CE   		movq	%rcx, %rsi
 721 0182 4889C7   		movq	%rax, %rdi
 722 0185 E8000000 		call	_ZN8UnitTest11TestDetailsC1ERKS0_i@PLT
 722      00
 723              		.loc 6 23 0 discriminator 4
 724 018a 488D8590 		leaq	-2160(%rbp), %rax
 724      F7FFFF
 725 0191 488D1500 		leaq	.LC5(%rip), %rdx
 725      000000
 726 0198 4889C6   		movq	%rax, %rsi
 727 019b 4889DF   		movq	%rbx, %rdi
 728 019e E8000000 		call	_ZN8UnitTest11TestResults13OnTestFailureERKNS_11TestDetailsEPKc@PLT
 728      00
 729              	.LEHE9:
  24:TestCheckMacros.cpp **** }
 730              		.loc 6 24 0 is_stmt 1
 731 01a3 E9EF0000 		jmp	.L37
 731      00
 732              	.L32:
 733              	.LBB10:
  18:TestCheckMacros.cpp **** 
 734              		.loc 6 18 0
 735 01a8 4889C7   		movq	%rax, %rdi
 736 01ab E8000000 		call	__cxa_begin_catch@PLT
 736      00
 737              	.LEHB10:
 738 01b0 E8000000 		call	_ZN8UnitTest11CurrentTest7ResultsEv@PLT
 738      00
 739 01b5 488B18   		movq	(%rax), %rbx
 740 01b8 E8000000 		call	_ZN8UnitTest11CurrentTest7DetailsEv@PLT
 740      00
  18:TestCheckMacros.cpp **** 
 741              		.loc 6 18 0 is_stmt 0 discriminator 8
 742 01bd 488B08   		movq	(%rax), %rcx
 743 01c0 488D8590 		leaq	-2160(%rbp), %rax
 743      F7FFFF
 744 01c7 BA120000 		movl	$18, %edx
 744      00
 745 01cc 4889CE   		movq	%rcx, %rsi
 746 01cf 4889C7   		movq	%rax, %rdi
 747 01d2 E8000000 		call	_ZN8UnitTest11TestDetailsC1ERKS0_i@PLT
 747      00
  18:TestCheckMacros.cpp **** 
 748              		.loc 6 18 0 discriminator 12
 749 01d7 488D8590 		leaq	-2160(%rbp), %rax
 749      F7FFFF
 750 01de 488D1500 		leaq	.LC6(%rip), %rdx
 750      000000
 751 01e5 4889C6   		movq	%rax, %rsi
 752 01e8 4889DF   		movq	%rbx, %rdi
 753 01eb E8000000 		call	_ZN8UnitTest11TestResults13OnTestFailureERKNS_11TestDetailsEPKc@PLT
 753      00
 754              	.LEHE10:
 755              	.LEHB11:
  18:TestCheckMacros.cpp **** 
 756              		.loc 6 18 0 discriminator 14
 757 01f0 E8000000 		call	__cxa_end_catch@PLT
 757      00
 758              	.LEHE11:
  18:TestCheckMacros.cpp **** 
 759              		.loc 6 18 0
 760 01f5 E912FFFF 		jmp	.L22
 760      FF
 761              	.L34:
 762 01fa 4889C3   		movq	%rax, %rbx
 763 01fd E8000000 		call	__cxa_end_catch@PLT
 763      00
 764 0202 EB03     		jmp	.L26
 765              	.L33:
 766 0204 4889C3   		movq	%rax, %rbx
 767              	.L26:
  17:TestCheckMacros.cpp **** 		CHECK(true);
 768              		.loc 6 17 0 is_stmt 1
 769 0207 488D8560 		leaq	-2208(%rbp), %rax
 769      F7FFFF
 770 020e 4889C7   		movq	%rax, %rdi
 771 0211 E8000000 		call	_ZN17ScopedCurrentTestD1Ev
 771      00
 772 0216 EB03     		jmp	.L27
 773              	.L31:
 774 0218 4889C3   		movq	%rax, %rbx
 775              	.L27:
  14:TestCheckMacros.cpp ****         UnitTest::TestResults testResults(&reporter);
 776              		.loc 6 14 0
 777 021b 488D85B0 		leaq	-2128(%rbp), %rax
 777      F7FFFF
 778 0222 4889C7   		movq	%rax, %rdi
 779 0225 E8000000 		call	_ZN17RecordingReporterD1Ev
 779      00
 780 022a 4889D8   		movq	%rbx, %rax
 781 022d 4889C7   		movq	%rax, %rdi
 782              	.LEHB12:
 783 0230 E8000000 		call	_Unwind_Resume@PLT
 783      00
 784              	.LEHE12:
 785              	.L35:
 786              	.LBE10:
  23:TestCheckMacros.cpp **** }
 787              		.loc 6 23 0
 788 0235 4889C7   		movq	%rax, %rdi
 789 0238 E8000000 		call	__cxa_begin_catch@PLT
 789      00
 790              	.LEHB13:
 791 023d E8000000 		call	_ZN8UnitTest11CurrentTest7ResultsEv@PLT
 791      00
 792 0242 488B18   		movq	(%rax), %rbx
 793 0245 E8000000 		call	_ZN8UnitTest11CurrentTest7DetailsEv@PLT
 793      00
  23:TestCheckMacros.cpp **** }
 794              		.loc 6 23 0 is_stmt 0 discriminator 8
 795 024a 488B08   		movq	(%rax), %rcx
 796 024d 488D8590 		leaq	-2160(%rbp), %rax
 796      F7FFFF
 797 0254 BA170000 		movl	$23, %edx
 797      00
 798 0259 4889CE   		movq	%rcx, %rsi
 799 025c 4889C7   		movq	%rax, %rdi
 800 025f E8000000 		call	_ZN8UnitTest11TestDetailsC1ERKS0_i@PLT
 800      00
  23:TestCheckMacros.cpp **** }
 801              		.loc 6 23 0 discriminator 12
 802 0264 488D8590 		leaq	-2160(%rbp), %rax
 802      F7FFFF
 803 026b 488D1500 		leaq	.LC7(%rip), %rdx
 803      000000
 804 0272 4889C6   		movq	%rax, %rsi
 805 0275 4889DF   		movq	%rbx, %rdi
 806 0278 E8000000 		call	_ZN8UnitTest11TestResults13OnTestFailureERKNS_11TestDetailsEPKc@PLT
 806      00
 807              	.LEHE13:
 808              	.LEHB14:
  23:TestCheckMacros.cpp **** }
 809              		.loc 6 23 0 discriminator 14
 810 027d E8000000 		call	__cxa_end_catch@PLT
 810      00
 811              	.LEHE14:
 812              		.loc 6 24 0 is_stmt 1 discriminator 14
 813 0282 EB13     		jmp	.L37
 814              	.L36:
 815 0284 4889C3   		movq	%rax, %rbx
  23:TestCheckMacros.cpp **** }
 816              		.loc 6 23 0
 817 0287 E8000000 		call	__cxa_end_catch@PLT
 817      00
 818 028c 4889D8   		movq	%rbx, %rax
 819 028f 4889C7   		movq	%rax, %rdi
 820              	.LEHB15:
 821 0292 E8000000 		call	_Unwind_Resume@PLT
 821      00
 822              	.LEHE15:
 823              	.L37:
 824              		.loc 6 24 0
 825 0297 90       		nop
 826 0298 488B45E8 		movq	-24(%rbp), %rax
 827 029c 64483304 		xorq	%fs:40, %rax
 827      25280000 
 827      00
 828 02a5 7405     		je	.L30
 829 02a7 E8000000 		call	__stack_chk_fail@PLT
 829      00
 830              	.L30:
 831 02ac 4881C4B8 		addq	$2232, %rsp
 831      080000
 832 02b3 5B       		popq	%rbx
 833 02b4 5D       		popq	%rbp
 834              		.cfi_def_cfa 7, 8
 835 02b5 C3       		ret
 836              		.cfi_endproc
 837              	.LFE1110:
 838              		.section	.gcc_except_table,"a",@progbits
 839              		.align 4
 840              	.LLSDA1110:
 841 0000 FF       		.byte	0xff
 842 0001 9B       		.byte	0x9b
 843 0002 4D       		.uleb128 .LLSDATT1110-.LLSDATTD1110
 844              	.LLSDATTD1110:
 845 0003 01       		.byte	0x1
 846 0004 43       		.uleb128 .LLSDACSE1110-.LLSDACSB1110
 847              	.LLSDACSB1110:
 848 0005 4C       		.uleb128 .LEHB4-.LFB1110
 849 0006 23       		.uleb128 .LEHE4-.LEHB4
 850 0007 CC03     		.uleb128 .L31-.LFB1110
 851 0009 00       		.uleb128 0
 852 000a 8001     		.uleb128 .LEHB5-.LFB1110
 853 000c 40       		.uleb128 .LEHE5-.LEHB5
 854 000d DC02     		.uleb128 .L32-.LFB1110
 855 000f 01       		.uleb128 0x1
 856 0010 CA01     		.uleb128 .LEHB6-.LFB1110
 857 0012 05       		.uleb128 .LEHE6-.LEHB6
 858 0013 B803     		.uleb128 .L33-.LFB1110
 859 0015 00       		.uleb128 0
 860 0016 E401     		.uleb128 .LEHB7-.LFB1110
 861 0018 05       		.uleb128 .LEHE7-.LEHB7
 862 0019 CC03     		.uleb128 .L31-.LFB1110
 863 001b 00       		.uleb128 0
 864 001c F301     		.uleb128 .LEHB8-.LFB1110
 865 001e 05       		.uleb128 .LEHE8-.LEHB8
 866 001f 00       		.uleb128 0
 867 0020 00       		.uleb128 0
 868 0021 9702     		.uleb128 .LEHB9-.LFB1110
 869 0023 40       		.uleb128 .LEHE9-.LEHB9
 870 0024 E903     		.uleb128 .L35-.LFB1110
 871 0026 01       		.uleb128 0x1
 872 0027 E402     		.uleb128 .LEHB10-.LFB1110
 873 0029 40       		.uleb128 .LEHE10-.LEHB10
 874 002a AE03     		.uleb128 .L34-.LFB1110
 875 002c 00       		.uleb128 0
 876 002d A403     		.uleb128 .LEHB11-.LFB1110
 877 002f 05       		.uleb128 .LEHE11-.LEHB11
 878 0030 B803     		.uleb128 .L33-.LFB1110
 879 0032 00       		.uleb128 0
 880 0033 E403     		.uleb128 .LEHB12-.LFB1110
 881 0035 05       		.uleb128 .LEHE12-.LEHB12
 882 0036 00       		.uleb128 0
 883 0037 00       		.uleb128 0
 884 0038 F103     		.uleb128 .LEHB13-.LFB1110
 885 003a 40       		.uleb128 .LEHE13-.LEHB13
 886 003b B804     		.uleb128 .L36-.LFB1110
 887 003d 00       		.uleb128 0
 888 003e B104     		.uleb128 .LEHB14-.LFB1110
 889 0040 05       		.uleb128 .LEHE14-.LEHB14
 890 0041 00       		.uleb128 0
 891 0042 00       		.uleb128 0
 892 0043 C604     		.uleb128 .LEHB15-.LFB1110
 893 0045 05       		.uleb128 .LEHE15-.LEHB15
 894 0046 00       		.uleb128 0
 895 0047 00       		.uleb128 0
 896              	.LLSDACSE1110:
 897 0048 01       		.byte	0x1
 898 0049 00       		.byte	0
 899 004a 0000     		.align 4
 900 004c 00000000 		.long	0
 901              	
 902              	.LLSDATT1110:
 903              		.text
 905              		.section	.rodata
 906              	.LC8:
 907 0097 43686563 		.string	"CheckFailsOnFalse"
 907      6B466169 
 907      6C734F6E 
 907      46616C73 
 907      6500
 908              		.text
 909              		.align 2
 911              	_ZN12_GLOBAL__N_121TestCheckFailsOnFalseC2Ev:
 912              	.LFB1112:
  25:TestCheckMacros.cpp **** 
  26:TestCheckMacros.cpp **** TEST(CheckFailsOnFalse)
 913              		.loc 6 26 0
 914              		.cfi_startproc
 915 02b6 55       		pushq	%rbp
 916              		.cfi_def_cfa_offset 16
 917              		.cfi_offset 6, -16
 918 02b7 4889E5   		movq	%rsp, %rbp
 919              		.cfi_def_cfa_register 6
 920 02ba 53       		pushq	%rbx
 921 02bb 4883EC18 		subq	$24, %rsp
 922              		.cfi_offset 3, -24
 923 02bf 48897DE8 		movq	%rdi, -24(%rbp)
 924              	.LBB11:
 925              		.loc 6 26 0
 926 02c3 488B5DE8 		movq	-24(%rbp), %rbx
 927 02c7 E8000000 		call	_ZN13UnitTestSuite12GetSuiteNameEv
 927      00
 928 02cc 41B81A00 		movl	$26, %r8d
 928      0000
 929 02d2 488D0D00 		leaq	.LC2(%rip), %rcx
 929      000000
 930 02d9 4889C2   		movq	%rax, %rdx
 931 02dc 488D3500 		leaq	.LC8(%rip), %rsi
 931      000000
 932 02e3 4889DF   		movq	%rbx, %rdi
 933 02e6 E8000000 		call	_ZN8UnitTest4TestC2EPKcS2_S2_i@PLT
 933      00
 934 02eb 488D1500 		leaq	16+_ZTVN12_GLOBAL__N_121TestCheckFailsOnFalseE(%rip), %rdx
 934      000000
 935 02f2 488B45E8 		movq	-24(%rbp), %rax
 936 02f6 488910   		movq	%rdx, (%rax)
 937              	.LBE11:
 938 02f9 90       		nop
 939 02fa 4883C418 		addq	$24, %rsp
 940 02fe 5B       		popq	%rbx
 941 02ff 5D       		popq	%rbp
 942              		.cfi_def_cfa 7, 8
 943 0300 C3       		ret
 944              		.cfi_endproc
 945              	.LFE1112:
 947              		.set	_ZN12_GLOBAL__N_121TestCheckFailsOnFalseC1Ev,_ZN12_GLOBAL__N_121TestCheckFailsOnFalseC2Ev
 948              		.local	_ZN12_GLOBAL__N_129testCheckFailsOnFalseInstanceE
 949              		.comm	_ZN12_GLOBAL__N_129testCheckFailsOnFalseInstanceE,56,32
 950              		.local	_ZN12_GLOBAL__N_122adderCheckFailsOnFalseE
 951              		.comm	_ZN12_GLOBAL__N_122adderCheckFailsOnFalseE,1,1
 952              		.section	.rodata
 953              	.LC9:
 954 00a9 66616C73 		.string	"false"
 954      6500
 955              	.LC10:
 956 00af 6661696C 		.string	"failure"
 956      75726500 
 957 00b7 00       		.align 8
 958              	.LC11:
 959 00b8 556E6861 		.string	"Unhandled exception in CHECK(false)"
 959      6E646C65 
 959      64206578 
 959      63657074 
 959      696F6E20 
 960 00dc 00000000 		.align 8
 961              	.LC12:
 962 00e0 556E6861 		.string	"Unhandled exception in CHECK(failure)"
 962      6E646C65 
 962      64206578 
 962      63657074 
 962      696F6E20 
 963              		.text
 964 0301 90       		.align 2
 966              	_ZNK12_GLOBAL__N_121TestCheckFailsOnFalse7RunImplEv:
 967              	.LFB1114:
  27:TestCheckMacros.cpp **** {
 968              		.loc 6 27 0
 969              		.cfi_startproc
 970              		.cfi_personality 0x9b,DW.ref.__gxx_personality_v0
 971              		.cfi_lsda 0x1b,.LLSDA1114
 972 0302 55       		pushq	%rbp
 973              		.cfi_def_cfa_offset 16
 974              		.cfi_offset 6, -16
 975 0303 4889E5   		movq	%rsp, %rbp
 976              		.cfi_def_cfa_register 6
 977 0306 53       		pushq	%rbx
 978 0307 4881ECB8 		subq	$2232, %rsp
 978      080000
 979              		.cfi_offset 3, -24
 980 030e 4889BD48 		movq	%rdi, -2232(%rbp)
 980      F7FFFF
 981              		.loc 6 27 0
 982 0315 64488B04 		movq	%fs:40, %rax
 982      25280000 
 982      00
 983 031e 488945E8 		movq	%rax, -24(%rbp)
 984 0322 31C0     		xorl	%eax, %eax
  28:TestCheckMacros.cpp ****     bool failure = false;
 985              		.loc 6 28 0
 986 0324 C6855FF7 		movb	$0, -2209(%rbp)
 986      FFFF00
 987              	.LBB12:
  29:TestCheckMacros.cpp ****     {
  30:TestCheckMacros.cpp ****         RecordingReporter reporter;
 988              		.loc 6 30 0
 989 032b 488D85B0 		leaq	-2128(%rbp), %rax
 989      F7FFFF
 990 0332 4889C7   		movq	%rax, %rdi
 991 0335 E8000000 		call	_ZN17RecordingReporterC1Ev
 991      00
  31:TestCheckMacros.cpp ****         UnitTest::TestResults testResults(&reporter);
 992              		.loc 6 31 0
 993 033a 488D95B0 		leaq	-2128(%rbp), %rdx
 993      F7FFFF
 994 0341 488D8570 		leaq	-2192(%rbp), %rax
 994      F7FFFF
 995 0348 4889D6   		movq	%rdx, %rsi
 996 034b 4889C7   		movq	%rax, %rdi
 997              	.LEHB16:
 998 034e E8000000 		call	_ZN8UnitTest11TestResultsC1EPNS_12TestReporterE@PLT
 998      00
  32:TestCheckMacros.cpp **** 		ScopedCurrentTest scopedResults(testResults);
 999              		.loc 6 32 0
 1000 0353 488D8D70 		leaq	-2192(%rbp), %rcx
 1000      F7FFFF
 1001 035a 488D8560 		leaq	-2208(%rbp), %rax
 1001      F7FFFF
 1002 0361 BA000000 		movl	$0, %edx
 1002      00
 1003 0366 4889CE   		movq	%rcx, %rsi
 1004 0369 4889C7   		movq	%rax, %rdi
 1005 036c E8000000 		call	_ZN17ScopedCurrentTestC1ERN8UnitTest11TestResultsEPKNS0_11TestDetailsE
 1005      00
 1006              	.LEHE16:
  33:TestCheckMacros.cpp ****         CHECK(false);
 1007              		.loc 6 33 0
 1008 0371 BF000000 		movl	$0, %edi
 1008      00
 1009 0376 E8000000 		call	_ZN8UnitTest5CheckIbEEbT_
 1009      00
 1010 037b 83F001   		xorl	$1, %eax
 1011 037e 84C0     		testb	%al, %al
 1012 0380 7440     		je	.L40
 1013              	.LEHB17:
 1014              		.loc 6 33 0 is_stmt 0 discriminator 1
 1015 0382 E8000000 		call	_ZN8UnitTest11CurrentTest7ResultsEv@PLT
 1015      00
 1016 0387 488B18   		movq	(%rax), %rbx
 1017 038a E8000000 		call	_ZN8UnitTest11CurrentTest7DetailsEv@PLT
 1017      00
 1018              		.loc 6 33 0 discriminator 2
 1019 038f 488B08   		movq	(%rax), %rcx
 1020 0392 488D8590 		leaq	-2160(%rbp), %rax
 1020      F7FFFF
 1021 0399 BA210000 		movl	$33, %edx
 1021      00
 1022 039e 4889CE   		movq	%rcx, %rsi
 1023 03a1 4889C7   		movq	%rax, %rdi
 1024 03a4 E8000000 		call	_ZN8UnitTest11TestDetailsC1ERKS0_i@PLT
 1024      00
 1025              		.loc 6 33 0 discriminator 4
 1026 03a9 488D8590 		leaq	-2160(%rbp), %rax
 1026      F7FFFF
 1027 03b0 488D1500 		leaq	.LC9(%rip), %rdx
 1027      000000
 1028 03b7 4889C6   		movq	%rax, %rsi
 1029 03ba 4889DF   		movq	%rbx, %rdi
 1030 03bd E8000000 		call	_ZN8UnitTest11TestResults13OnTestFailureERKNS_11TestDetailsEPKc@PLT
 1030      00
 1031              	.LEHE17:
 1032              	.L40:
  34:TestCheckMacros.cpp ****         failure = (testResults.GetFailureCount() > 0);
 1033              		.loc 6 34 0 is_stmt 1
 1034 03c2 488D8570 		leaq	-2192(%rbp), %rax
 1034      F7FFFF
 1035 03c9 4889C7   		movq	%rax, %rdi
 1036              	.LEHB18:
 1037 03cc E8000000 		call	_ZNK8UnitTest11TestResults15GetFailureCountEv@PLT
 1037      00
 1038              	.LEHE18:
 1039 03d1 85C0     		testl	%eax, %eax
 1040 03d3 0F9FC0   		setg	%al
 1041 03d6 88855FF7 		movb	%al, -2209(%rbp)
 1041      FFFF
  32:TestCheckMacros.cpp **** 		ScopedCurrentTest scopedResults(testResults);
 1042              		.loc 6 32 0
 1043 03dc 488D8560 		leaq	-2208(%rbp), %rax
 1043      F7FFFF
 1044 03e3 4889C7   		movq	%rax, %rdi
 1045              	.LEHB19:
 1046 03e6 E8000000 		call	_ZN17ScopedCurrentTestD1Ev
 1046      00
 1047              	.LEHE19:
  30:TestCheckMacros.cpp ****         UnitTest::TestResults testResults(&reporter);
 1048              		.loc 6 30 0
 1049 03eb 488D85B0 		leaq	-2128(%rbp), %rax
 1049      F7FFFF
 1050 03f2 4889C7   		movq	%rax, %rdi
 1051              	.LEHB20:
 1052 03f5 E8000000 		call	_ZN17RecordingReporterD1Ev
 1052      00
 1053              	.LEHE20:
 1054              	.LBE12:
  35:TestCheckMacros.cpp ****     }
  36:TestCheckMacros.cpp **** 
  37:TestCheckMacros.cpp ****     CHECK(failure);
 1055              		.loc 6 37 0
 1056 03fa 0FB6855F 		movzbl	-2209(%rbp), %eax
 1056      F7FFFF
 1057 0401 89C7     		movl	%eax, %edi
 1058 0403 E8000000 		call	_ZN8UnitTest5CheckIbEEbT_
 1058      00
 1059 0408 83F001   		xorl	$1, %eax
 1060 040b 84C0     		testb	%al, %al
 1061 040d 0F843401 		je	.L55
 1061      0000
 1062              	.LEHB21:
 1063              		.loc 6 37 0 is_stmt 0 discriminator 1
 1064 0413 E8000000 		call	_ZN8UnitTest11CurrentTest7ResultsEv@PLT
 1064      00
 1065 0418 488B18   		movq	(%rax), %rbx
 1066 041b E8000000 		call	_ZN8UnitTest11CurrentTest7DetailsEv@PLT
 1066      00
 1067              		.loc 6 37 0 discriminator 2
 1068 0420 488B08   		movq	(%rax), %rcx
 1069 0423 488D8590 		leaq	-2160(%rbp), %rax
 1069      F7FFFF
 1070 042a BA250000 		movl	$37, %edx
 1070      00
 1071 042f 4889CE   		movq	%rcx, %rsi
 1072 0432 4889C7   		movq	%rax, %rdi
 1073 0435 E8000000 		call	_ZN8UnitTest11TestDetailsC1ERKS0_i@PLT
 1073      00
 1074              		.loc 6 37 0 discriminator 4
 1075 043a 488D8590 		leaq	-2160(%rbp), %rax
 1075      F7FFFF
 1076 0441 488D1500 		leaq	.LC10(%rip), %rdx
 1076      000000
 1077 0448 4889C6   		movq	%rax, %rsi
 1078 044b 4889DF   		movq	%rbx, %rdi
 1079 044e E8000000 		call	_ZN8UnitTest11TestResults13OnTestFailureERKNS_11TestDetailsEPKc@PLT
 1079      00
 1080              	.LEHE21:
  38:TestCheckMacros.cpp **** }
 1081              		.loc 6 38 0 is_stmt 1
 1082 0453 E9EF0000 		jmp	.L55
 1082      00
 1083              	.L50:
 1084              	.LBB13:
  33:TestCheckMacros.cpp ****         failure = (testResults.GetFailureCount() > 0);
 1085              		.loc 6 33 0
 1086 0458 4889C7   		movq	%rax, %rdi
 1087 045b E8000000 		call	__cxa_begin_catch@PLT
 1087      00
 1088              	.LEHB22:
 1089 0460 E8000000 		call	_ZN8UnitTest11CurrentTest7ResultsEv@PLT
 1089      00
 1090 0465 488B18   		movq	(%rax), %rbx
 1091 0468 E8000000 		call	_ZN8UnitTest11CurrentTest7DetailsEv@PLT
 1091      00
  33:TestCheckMacros.cpp ****         failure = (testResults.GetFailureCount() > 0);
 1092              		.loc 6 33 0 is_stmt 0 discriminator 8
 1093 046d 488B08   		movq	(%rax), %rcx
 1094 0470 488D8590 		leaq	-2160(%rbp), %rax
 1094      F7FFFF
 1095 0477 BA210000 		movl	$33, %edx
 1095      00
 1096 047c 4889CE   		movq	%rcx, %rsi
 1097 047f 4889C7   		movq	%rax, %rdi
 1098 0482 E8000000 		call	_ZN8UnitTest11TestDetailsC1ERKS0_i@PLT
 1098      00
  33:TestCheckMacros.cpp ****         failure = (testResults.GetFailureCount() > 0);
 1099              		.loc 6 33 0 discriminator 12
 1100 0487 488D8590 		leaq	-2160(%rbp), %rax
 1100      F7FFFF
 1101 048e 488D1500 		leaq	.LC11(%rip), %rdx
 1101      000000
 1102 0495 4889C6   		movq	%rax, %rsi
 1103 0498 4889DF   		movq	%rbx, %rdi
 1104 049b E8000000 		call	_ZN8UnitTest11TestResults13OnTestFailureERKNS_11TestDetailsEPKc@PLT
 1104      00
 1105              	.LEHE22:
 1106              	.LEHB23:
  33:TestCheckMacros.cpp ****         failure = (testResults.GetFailureCount() > 0);
 1107              		.loc 6 33 0 discriminator 14
 1108 04a0 E8000000 		call	__cxa_end_catch@PLT
 1108      00
 1109              	.LEHE23:
  33:TestCheckMacros.cpp ****         failure = (testResults.GetFailureCount() > 0);
 1110              		.loc 6 33 0
 1111 04a5 E918FFFF 		jmp	.L40
 1111      FF
 1112              	.L52:
 1113 04aa 4889C3   		movq	%rax, %rbx
 1114 04ad E8000000 		call	__cxa_end_catch@PLT
 1114      00
 1115 04b2 EB03     		jmp	.L44
 1116              	.L51:
 1117 04b4 4889C3   		movq	%rax, %rbx
 1118              	.L44:
  32:TestCheckMacros.cpp ****         CHECK(false);
 1119              		.loc 6 32 0 is_stmt 1
 1120 04b7 488D8560 		leaq	-2208(%rbp), %rax
 1120      F7FFFF
 1121 04be 4889C7   		movq	%rax, %rdi
 1122 04c1 E8000000 		call	_ZN17ScopedCurrentTestD1Ev
 1122      00
 1123 04c6 EB03     		jmp	.L45
 1124              	.L49:
 1125 04c8 4889C3   		movq	%rax, %rbx
 1126              	.L45:
  30:TestCheckMacros.cpp ****         UnitTest::TestResults testResults(&reporter);
 1127              		.loc 6 30 0
 1128 04cb 488D85B0 		leaq	-2128(%rbp), %rax
 1128      F7FFFF
 1129 04d2 4889C7   		movq	%rax, %rdi
 1130 04d5 E8000000 		call	_ZN17RecordingReporterD1Ev
 1130      00
 1131 04da 4889D8   		movq	%rbx, %rax
 1132 04dd 4889C7   		movq	%rax, %rdi
 1133              	.LEHB24:
 1134 04e0 E8000000 		call	_Unwind_Resume@PLT
 1134      00
 1135              	.LEHE24:
 1136              	.L53:
 1137              	.LBE13:
  37:TestCheckMacros.cpp **** }
 1138              		.loc 6 37 0
 1139 04e5 4889C7   		movq	%rax, %rdi
 1140 04e8 E8000000 		call	__cxa_begin_catch@PLT
 1140      00
 1141              	.LEHB25:
 1142 04ed E8000000 		call	_ZN8UnitTest11CurrentTest7ResultsEv@PLT
 1142      00
 1143 04f2 488B18   		movq	(%rax), %rbx
 1144 04f5 E8000000 		call	_ZN8UnitTest11CurrentTest7DetailsEv@PLT
 1144      00
  37:TestCheckMacros.cpp **** }
 1145              		.loc 6 37 0 is_stmt 0 discriminator 8
 1146 04fa 488B08   		movq	(%rax), %rcx
 1147 04fd 488D8590 		leaq	-2160(%rbp), %rax
 1147      F7FFFF
 1148 0504 BA250000 		movl	$37, %edx
 1148      00
 1149 0509 4889CE   		movq	%rcx, %rsi
 1150 050c 4889C7   		movq	%rax, %rdi
 1151 050f E8000000 		call	_ZN8UnitTest11TestDetailsC1ERKS0_i@PLT
 1151      00
  37:TestCheckMacros.cpp **** }
 1152              		.loc 6 37 0 discriminator 12
 1153 0514 488D8590 		leaq	-2160(%rbp), %rax
 1153      F7FFFF
 1154 051b 488D1500 		leaq	.LC12(%rip), %rdx
 1154      000000
 1155 0522 4889C6   		movq	%rax, %rsi
 1156 0525 4889DF   		movq	%rbx, %rdi
 1157 0528 E8000000 		call	_ZN8UnitTest11TestResults13OnTestFailureERKNS_11TestDetailsEPKc@PLT
 1157      00
 1158              	.LEHE25:
 1159              	.LEHB26:
  37:TestCheckMacros.cpp **** }
 1160              		.loc 6 37 0 discriminator 14
 1161 052d E8000000 		call	__cxa_end_catch@PLT
 1161      00
 1162              	.LEHE26:
 1163              		.loc 6 38 0 is_stmt 1 discriminator 14
 1164 0532 EB13     		jmp	.L55
 1165              	.L54:
 1166 0534 4889C3   		movq	%rax, %rbx
  37:TestCheckMacros.cpp **** }
 1167              		.loc 6 37 0
 1168 0537 E8000000 		call	__cxa_end_catch@PLT
 1168      00
 1169 053c 4889D8   		movq	%rbx, %rax
 1170 053f 4889C7   		movq	%rax, %rdi
 1171              	.LEHB27:
 1172 0542 E8000000 		call	_Unwind_Resume@PLT
 1172      00
 1173              	.LEHE27:
 1174              	.L55:
 1175              		.loc 6 38 0
 1176 0547 90       		nop
 1177 0548 488B45E8 		movq	-24(%rbp), %rax
 1178 054c 64483304 		xorq	%fs:40, %rax
 1178      25280000 
 1178      00
 1179 0555 7405     		je	.L48
 1180 0557 E8000000 		call	__stack_chk_fail@PLT
 1180      00
 1181              	.L48:
 1182 055c 4881C4B8 		addq	$2232, %rsp
 1182      080000
 1183 0563 5B       		popq	%rbx
 1184 0564 5D       		popq	%rbp
 1185              		.cfi_def_cfa 7, 8
 1186 0565 C3       		ret
 1187              		.cfi_endproc
 1188              	.LFE1114:
 1189              		.section	.gcc_except_table
 1190              		.align 4
 1191              	.LLSDA1114:
 1192 0050 FF       		.byte	0xff
 1193 0051 9B       		.byte	0x9b
 1194 0052 4D       		.uleb128 .LLSDATT1114-.LLSDATTD1114
 1195              	.LLSDATTD1114:
 1196 0053 01       		.byte	0x1
 1197 0054 43       		.uleb128 .LLSDACSE1114-.LLSDACSB1114
 1198              	.LLSDACSB1114:
 1199 0055 4C       		.uleb128 .LEHB16-.LFB1114
 1200 0056 23       		.uleb128 .LEHE16-.LEHB16
 1201 0057 C603     		.uleb128 .L49-.LFB1114
 1202 0059 00       		.uleb128 0
 1203 005a 8001     		.uleb128 .LEHB17-.LFB1114
 1204 005c 40       		.uleb128 .LEHE17-.LEHB17
 1205 005d D602     		.uleb128 .L50-.LFB1114
 1206 005f 01       		.uleb128 0x1
 1207 0060 CA01     		.uleb128 .LEHB18-.LFB1114
 1208 0062 05       		.uleb128 .LEHE18-.LEHB18
 1209 0063 B203     		.uleb128 .L51-.LFB1114
 1210 0065 00       		.uleb128 0
 1211 0066 E401     		.uleb128 .LEHB19-.LFB1114
 1212 0068 05       		.uleb128 .LEHE19-.LEHB19
 1213 0069 C603     		.uleb128 .L49-.LFB1114
 1214 006b 00       		.uleb128 0
 1215 006c F301     		.uleb128 .LEHB20-.LFB1114
 1216 006e 05       		.uleb128 .LEHE20-.LEHB20
 1217 006f 00       		.uleb128 0
 1218 0070 00       		.uleb128 0
 1219 0071 9102     		.uleb128 .LEHB21-.LFB1114
 1220 0073 40       		.uleb128 .LEHE21-.LEHB21
 1221 0074 E303     		.uleb128 .L53-.LFB1114
 1222 0076 01       		.uleb128 0x1
 1223 0077 DE02     		.uleb128 .LEHB22-.LFB1114
 1224 0079 40       		.uleb128 .LEHE22-.LEHB22
 1225 007a A803     		.uleb128 .L52-.LFB1114
 1226 007c 00       		.uleb128 0
 1227 007d 9E03     		.uleb128 .LEHB23-.LFB1114
 1228 007f 05       		.uleb128 .LEHE23-.LEHB23
 1229 0080 B203     		.uleb128 .L51-.LFB1114
 1230 0082 00       		.uleb128 0
 1231 0083 DE03     		.uleb128 .LEHB24-.LFB1114
 1232 0085 05       		.uleb128 .LEHE24-.LEHB24
 1233 0086 00       		.uleb128 0
 1234 0087 00       		.uleb128 0
 1235 0088 EB03     		.uleb128 .LEHB25-.LFB1114
 1236 008a 40       		.uleb128 .LEHE25-.LEHB25
 1237 008b B204     		.uleb128 .L54-.LFB1114
 1238 008d 00       		.uleb128 0
 1239 008e AB04     		.uleb128 .LEHB26-.LFB1114
 1240 0090 05       		.uleb128 .LEHE26-.LEHB26
 1241 0091 00       		.uleb128 0
 1242 0092 00       		.uleb128 0
 1243 0093 C004     		.uleb128 .LEHB27-.LFB1114
 1244 0095 05       		.uleb128 .LEHE27-.LEHB27
 1245 0096 00       		.uleb128 0
 1246 0097 00       		.uleb128 0
 1247              	.LLSDACSE1114:
 1248 0098 01       		.byte	0x1
 1249 0099 00       		.byte	0
 1250 009a 0000     		.align 4
 1251 009c 00000000 		.long	0
 1252              	
 1253              	.LLSDATT1114:
 1254              		.text
 1256              		.section	.rodata
 1257              	.LC13:
 1258 0106 4661696C 		.string	"FailureReportsCorrectTestName"
 1258      75726552 
 1258      65706F72 
 1258      7473436F 
 1258      72726563 
 1259              		.text
 1260              		.align 2
 1262              	_ZN12_GLOBAL__N_133TestFailureReportsCorrectTestNameC2Ev:
 1263              	.LFB1116:
  39:TestCheckMacros.cpp **** 
  40:TestCheckMacros.cpp **** TEST(FailureReportsCorrectTestName)
 1264              		.loc 6 40 0
 1265              		.cfi_startproc
 1266 0566 55       		pushq	%rbp
 1267              		.cfi_def_cfa_offset 16
 1268              		.cfi_offset 6, -16
 1269 0567 4889E5   		movq	%rsp, %rbp
 1270              		.cfi_def_cfa_register 6
 1271 056a 53       		pushq	%rbx
 1272 056b 4883EC18 		subq	$24, %rsp
 1273              		.cfi_offset 3, -24
 1274 056f 48897DE8 		movq	%rdi, -24(%rbp)
 1275              	.LBB14:
 1276              		.loc 6 40 0
 1277 0573 488B5DE8 		movq	-24(%rbp), %rbx
 1278 0577 E8000000 		call	_ZN13UnitTestSuite12GetSuiteNameEv
 1278      00
 1279 057c 41B82800 		movl	$40, %r8d
 1279      0000
 1280 0582 488D0D00 		leaq	.LC2(%rip), %rcx
 1280      000000
 1281 0589 4889C2   		movq	%rax, %rdx
 1282 058c 488D3500 		leaq	.LC13(%rip), %rsi
 1282      000000
 1283 0593 4889DF   		movq	%rbx, %rdi
 1284 0596 E8000000 		call	_ZN8UnitTest4TestC2EPKcS2_S2_i@PLT
 1284      00
 1285 059b 488D1500 		leaq	16+_ZTVN12_GLOBAL__N_133TestFailureReportsCorrectTestNameE(%rip), %rdx
 1285      000000
 1286 05a2 488B45E8 		movq	-24(%rbp), %rax
 1287 05a6 488910   		movq	%rdx, (%rax)
 1288              	.LBE14:
 1289 05a9 90       		nop
 1290 05aa 4883C418 		addq	$24, %rsp
 1291 05ae 5B       		popq	%rbx
 1292 05af 5D       		popq	%rbp
 1293              		.cfi_def_cfa 7, 8
 1294 05b0 C3       		ret
 1295              		.cfi_endproc
 1296              	.LFE1116:
 1298              		.set	_ZN12_GLOBAL__N_133TestFailureReportsCorrectTestNameC1Ev,_ZN12_GLOBAL__N_133TestFailureReport
 1299              		.local	_ZN12_GLOBAL__N_141testFailureReportsCorrectTestNameInstanceE
 1300              		.comm	_ZN12_GLOBAL__N_141testFailureReportsCorrectTestNameInstanceE,56,32
 1301              		.local	_ZN12_GLOBAL__N_134adderFailureReportsCorrectTestNameE
 1302              		.comm	_ZN12_GLOBAL__N_134adderFailureReportsCorrectTestNameE,1,1
 1303              		.section	.rodata
 1304 0124 00000000 		.align 8
 1305              	.LC14:
 1306 0128 556E6861 		.string	"Unhandled exception in CHECK_EQUAL(m_details.testName, reporter.lastFailedTest)"
 1306      6E646C65 
 1306      64206578 
 1306      63657074 
 1306      696F6E20 
 1307              		.text
 1308 05b1 90       		.align 2
 1310              	_ZNK12_GLOBAL__N_133TestFailureReportsCorrectTestName7RunImplEv:
 1311              	.LFB1118:
  41:TestCheckMacros.cpp **** {
 1312              		.loc 6 41 0
 1313              		.cfi_startproc
 1314              		.cfi_personality 0x9b,DW.ref.__gxx_personality_v0
 1315              		.cfi_lsda 0x1b,.LLSDA1118
 1316 05b2 55       		pushq	%rbp
 1317              		.cfi_def_cfa_offset 16
 1318              		.cfi_offset 6, -16
 1319 05b3 4889E5   		movq	%rsp, %rbp
 1320              		.cfi_def_cfa_register 6
 1321 05b6 53       		pushq	%rbx
 1322 05b7 4881ECA8 		subq	$2216, %rsp
 1322      080000
 1323              		.cfi_offset 3, -24
 1324 05be 4889BD58 		movq	%rdi, -2216(%rbp)
 1324      F7FFFF
 1325              		.loc 6 41 0
 1326 05c5 64488B04 		movq	%fs:40, %rax
 1326      25280000 
 1326      00
 1327 05ce 488945E8 		movq	%rax, -24(%rbp)
 1328 05d2 31C0     		xorl	%eax, %eax
  42:TestCheckMacros.cpp ****     RecordingReporter reporter;
 1329              		.loc 6 42 0
 1330 05d4 488D85B0 		leaq	-2128(%rbp), %rax
 1330      F7FFFF
 1331 05db 4889C7   		movq	%rax, %rdi
 1332 05de E8000000 		call	_ZN17RecordingReporterC1Ev
 1332      00
 1333              	.LBB15:
  43:TestCheckMacros.cpp ****     {
  44:TestCheckMacros.cpp ****         UnitTest::TestResults testResults(&reporter);
 1334              		.loc 6 44 0
 1335 05e3 488D95B0 		leaq	-2128(%rbp), %rdx
 1335      F7FFFF
 1336 05ea 488D8570 		leaq	-2192(%rbp), %rax
 1336      F7FFFF
 1337 05f1 4889D6   		movq	%rdx, %rsi
 1338 05f4 4889C7   		movq	%rax, %rdi
 1339              	.LEHB28:
 1340 05f7 E8000000 		call	_ZN8UnitTest11TestResultsC1EPNS_12TestReporterE@PLT
 1340      00
  45:TestCheckMacros.cpp **** 		ScopedCurrentTest scopedResults(testResults);
 1341              		.loc 6 45 0
 1342 05fc 488D8D70 		leaq	-2192(%rbp), %rcx
 1342      F7FFFF
 1343 0603 488D8560 		leaq	-2208(%rbp), %rax
 1343      F7FFFF
 1344 060a BA000000 		movl	$0, %edx
 1344      00
 1345 060f 4889CE   		movq	%rcx, %rsi
 1346 0612 4889C7   		movq	%rax, %rdi
 1347 0615 E8000000 		call	_ZN17ScopedCurrentTestC1ERN8UnitTest11TestResultsEPKNS0_11TestDetailsE
 1347      00
 1348              	.LEHE28:
  46:TestCheckMacros.cpp ****         CHECK(false);
 1349              		.loc 6 46 0
 1350 061a BF000000 		movl	$0, %edi
 1350      00
 1351 061f E8000000 		call	_ZN8UnitTest5CheckIbEEbT_
 1351      00
 1352 0624 83F001   		xorl	$1, %eax
 1353 0627 84C0     		testb	%al, %al
 1354 0629 7440     		je	.L58
 1355              	.LEHB29:
 1356              		.loc 6 46 0 is_stmt 0 discriminator 1
 1357 062b E8000000 		call	_ZN8UnitTest11CurrentTest7ResultsEv@PLT
 1357      00
 1358 0630 488B18   		movq	(%rax), %rbx
 1359 0633 E8000000 		call	_ZN8UnitTest11CurrentTest7DetailsEv@PLT
 1359      00
 1360              		.loc 6 46 0 discriminator 2
 1361 0638 488B08   		movq	(%rax), %rcx
 1362 063b 488D8590 		leaq	-2160(%rbp), %rax
 1362      F7FFFF
 1363 0642 BA2E0000 		movl	$46, %edx
 1363      00
 1364 0647 4889CE   		movq	%rcx, %rsi
 1365 064a 4889C7   		movq	%rax, %rdi
 1366 064d E8000000 		call	_ZN8UnitTest11TestDetailsC1ERKS0_i@PLT
 1366      00
 1367              		.loc 6 46 0 discriminator 4
 1368 0652 488D8590 		leaq	-2160(%rbp), %rax
 1368      F7FFFF
 1369 0659 488D1500 		leaq	.LC9(%rip), %rdx
 1369      000000
 1370 0660 4889C6   		movq	%rax, %rsi
 1371 0663 4889DF   		movq	%rbx, %rdi
 1372 0666 E8000000 		call	_ZN8UnitTest11TestResults13OnTestFailureERKNS_11TestDetailsEPKc@PLT
 1372      00
 1373              	.LEHE29:
 1374              	.L58:
  45:TestCheckMacros.cpp **** 		ScopedCurrentTest scopedResults(testResults);
 1375              		.loc 6 45 0 is_stmt 1
 1376 066b 488D8560 		leaq	-2208(%rbp), %rax
 1376      F7FFFF
 1377 0672 4889C7   		movq	%rax, %rdi
 1378              	.LEHB30:
 1379 0675 E8000000 		call	_ZN17ScopedCurrentTestD1Ev
 1379      00
 1380              	.LEHE30:
 1381              	.LEHB31:
 1382              	.LBE15:
  47:TestCheckMacros.cpp ****     }
  48:TestCheckMacros.cpp **** 
  49:TestCheckMacros.cpp ****     CHECK_EQUAL(m_details.testName, reporter.lastFailedTest);
 1383              		.loc 6 49 0
 1384 067a E8000000 		call	_ZN8UnitTest11CurrentTest7DetailsEv@PLT
 1384      00
 1385 067f 488B08   		movq	(%rax), %rcx
 1386 0682 488D8590 		leaq	-2160(%rbp), %rax
 1386      F7FFFF
 1387 0689 BA310000 		movl	$49, %edx
 1387      00
 1388 068e 4889CE   		movq	%rcx, %rsi
 1389 0691 4889C7   		movq	%rax, %rdi
 1390 0694 E8000000 		call	_ZN8UnitTest11TestDetailsC1ERKS0_i@PLT
 1390      00
 1391              		.loc 6 49 0 is_stmt 0 discriminator 2
 1392 0699 488B8558 		movq	-2216(%rbp), %rax
 1392      F7FFFF
 1393 06a0 488B5810 		movq	16(%rax), %rbx
 1394 06a4 E8000000 		call	_ZN8UnitTest11CurrentTest7ResultsEv@PLT
 1394      00
 1395 06a9 488B00   		movq	(%rax), %rax
 1396 06ac 488D9590 		leaq	-2160(%rbp), %rdx
 1396      F7FFFF
 1397 06b3 488D8DB0 		leaq	-2128(%rbp), %rcx
 1397      F7FFFF
 1398 06ba 488DB114 		leaq	1044(%rcx), %rsi
 1398      040000
 1399 06c1 4889D1   		movq	%rdx, %rcx
 1400 06c4 4889F2   		movq	%rsi, %rdx
 1401 06c7 4889DE   		movq	%rbx, %rsi
 1402 06ca 4889C7   		movq	%rax, %rdi
 1403 06cd E8000000 		call	_ZN8UnitTest10CheckEqualERNS_11TestResultsEPKcPcRKNS_11TestDetailsE@PLT
 1403      00
 1404              	.LEHE31:
 1405              	.L64:
  42:TestCheckMacros.cpp ****     {
 1406              		.loc 6 42 0 is_stmt 1
 1407 06d2 488D85B0 		leaq	-2128(%rbp), %rax
 1407      F7FFFF
 1408 06d9 4889C7   		movq	%rax, %rdi
 1409              	.LEHB32:
 1410 06dc E8000000 		call	_ZN17RecordingReporterD1Ev
 1410      00
 1411              	.LEHE32:
  50:TestCheckMacros.cpp **** }
 1412              		.loc 6 50 0
 1413 06e1 90       		nop
 1414 06e2 488B45E8 		movq	-24(%rbp), %rax
 1415 06e6 64483304 		xorq	%fs:40, %rax
 1415      25280000 
 1415      00
 1416 06ef 0F84F300 		je	.L66
 1416      0000
 1417 06f5 E9E90000 		jmp	.L73
 1417      00
 1418              	.L67:
 1419              	.LBB16:
  46:TestCheckMacros.cpp ****     }
 1420              		.loc 6 46 0
 1421 06fa 4889C7   		movq	%rax, %rdi
 1422 06fd E8000000 		call	__cxa_begin_catch@PLT
 1422      00
 1423              	.LEHB33:
 1424 0702 E8000000 		call	_ZN8UnitTest11CurrentTest7ResultsEv@PLT
 1424      00
 1425 0707 488B18   		movq	(%rax), %rbx
 1426 070a E8000000 		call	_ZN8UnitTest11CurrentTest7DetailsEv@PLT
 1426      00
  46:TestCheckMacros.cpp ****     }
 1427              		.loc 6 46 0 is_stmt 0 discriminator 8
 1428 070f 488B08   		movq	(%rax), %rcx
 1429 0712 488D8590 		leaq	-2160(%rbp), %rax
 1429      F7FFFF
 1430 0719 BA2E0000 		movl	$46, %edx
 1430      00
 1431 071e 4889CE   		movq	%rcx, %rsi
 1432 0721 4889C7   		movq	%rax, %rdi
 1433 0724 E8000000 		call	_ZN8UnitTest11TestDetailsC1ERKS0_i@PLT
 1433      00
  46:TestCheckMacros.cpp ****     }
 1434              		.loc 6 46 0 discriminator 12
 1435 0729 488D8590 		leaq	-2160(%rbp), %rax
 1435      F7FFFF
 1436 0730 488D1500 		leaq	.LC11(%rip), %rdx
 1436      000000
 1437 0737 4889C6   		movq	%rax, %rsi
 1438 073a 4889DF   		movq	%rbx, %rdi
 1439 073d E8000000 		call	_ZN8UnitTest11TestResults13OnTestFailureERKNS_11TestDetailsEPKc@PLT
 1439      00
 1440              	.LEHE33:
 1441              	.LEHB34:
  46:TestCheckMacros.cpp ****     }
 1442              		.loc 6 46 0 discriminator 14
 1443 0742 E8000000 		call	__cxa_end_catch@PLT
 1443      00
 1444              	.LEHE34:
  46:TestCheckMacros.cpp ****     }
 1445              		.loc 6 46 0
 1446 0747 E91FFFFF 		jmp	.L58
 1446      FF
 1447              	.L69:
 1448 074c 4889C3   		movq	%rax, %rbx
 1449 074f E8000000 		call	__cxa_end_catch@PLT
 1449      00
 1450 0754 EB03     		jmp	.L61
 1451              	.L68:
 1452 0756 4889C3   		movq	%rax, %rbx
 1453              	.L61:
  45:TestCheckMacros.cpp ****         CHECK(false);
 1454              		.loc 6 45 0 is_stmt 1
 1455 0759 488D8560 		leaq	-2208(%rbp), %rax
 1455      F7FFFF
 1456 0760 4889C7   		movq	%rax, %rdi
 1457 0763 E8000000 		call	_ZN17ScopedCurrentTestD1Ev
 1457      00
 1458 0768 EB5F     		jmp	.L62
 1459              	.L71:
 1460              	.LBE16:
  49:TestCheckMacros.cpp **** }
 1461              		.loc 6 49 0
 1462 076a 4889C7   		movq	%rax, %rdi
 1463 076d E8000000 		call	__cxa_begin_catch@PLT
 1463      00
 1464              	.LEHB35:
 1465 0772 E8000000 		call	_ZN8UnitTest11CurrentTest7ResultsEv@PLT
 1465      00
 1466 0777 488B18   		movq	(%rax), %rbx
 1467 077a E8000000 		call	_ZN8UnitTest11CurrentTest7DetailsEv@PLT
 1467      00
  49:TestCheckMacros.cpp **** }
 1468              		.loc 6 49 0 is_stmt 0 discriminator 8
 1469 077f 488B08   		movq	(%rax), %rcx
 1470 0782 488D8590 		leaq	-2160(%rbp), %rax
 1470      F7FFFF
 1471 0789 BA310000 		movl	$49, %edx
 1471      00
 1472 078e 4889CE   		movq	%rcx, %rsi
 1473 0791 4889C7   		movq	%rax, %rdi
 1474 0794 E8000000 		call	_ZN8UnitTest11TestDetailsC1ERKS0_i@PLT
 1474      00
  49:TestCheckMacros.cpp **** }
 1475              		.loc 6 49 0 discriminator 12
 1476 0799 488D8590 		leaq	-2160(%rbp), %rax
 1476      F7FFFF
 1477 07a0 488D1500 		leaq	.LC14(%rip), %rdx
 1477      000000
 1478 07a7 4889C6   		movq	%rax, %rsi
 1479 07aa 4889DF   		movq	%rbx, %rdi
 1480 07ad E8000000 		call	_ZN8UnitTest11TestResults13OnTestFailureERKNS_11TestDetailsEPKc@PLT
 1480      00
 1481              	.LEHE35:
 1482              	.LEHB36:
  49:TestCheckMacros.cpp **** }
 1483              		.loc 6 49 0 discriminator 14
 1484 07b2 E8000000 		call	__cxa_end_catch@PLT
 1484      00
 1485              	.LEHE36:
  49:TestCheckMacros.cpp **** }
 1486              		.loc 6 49 0
 1487 07b7 E916FFFF 		jmp	.L64
 1487      FF
 1488              	.L72:
 1489 07bc 4889C3   		movq	%rax, %rbx
 1490 07bf E8000000 		call	__cxa_end_catch@PLT
 1490      00
 1491 07c4 EB03     		jmp	.L62
 1492              	.L70:
 1493 07c6 4889C3   		movq	%rax, %rbx
 1494              	.L62:
  42:TestCheckMacros.cpp ****     {
 1495              		.loc 6 42 0 is_stmt 1
 1496 07c9 488D85B0 		leaq	-2128(%rbp), %rax
 1496      F7FFFF
 1497 07d0 4889C7   		movq	%rax, %rdi
 1498 07d3 E8000000 		call	_ZN17RecordingReporterD1Ev
 1498      00
 1499 07d8 4889D8   		movq	%rbx, %rax
 1500 07db 4889C7   		movq	%rax, %rdi
 1501              	.LEHB37:
 1502 07de E8000000 		call	_Unwind_Resume@PLT
 1502      00
 1503              	.LEHE37:
 1504              	.L73:
 1505              		.loc 6 50 0
 1506 07e3 E8000000 		call	__stack_chk_fail@PLT
 1506      00
 1507              	.L66:
 1508 07e8 4881C4A8 		addq	$2216, %rsp
 1508      080000
 1509 07ef 5B       		popq	%rbx
 1510 07f0 5D       		popq	%rbp
 1511              		.cfi_def_cfa 7, 8
 1512 07f1 C3       		ret
 1513              		.cfi_endproc
 1514              	.LFE1118:
 1515              		.section	.gcc_except_table
 1516              		.align 4
 1517              	.LLSDA1118:
 1518 00a0 FF       		.byte	0xff
 1519 00a1 9B       		.byte	0x9b
 1520 00a2 41       		.uleb128 .LLSDATT1118-.LLSDATTD1118
 1521              	.LLSDATTD1118:
 1522 00a3 01       		.byte	0x1
 1523 00a4 38       		.uleb128 .LLSDACSE1118-.LLSDACSB1118
 1524              	.LLSDACSB1118:
 1525 00a5 45       		.uleb128 .LEHB28-.LFB1118
 1526 00a6 23       		.uleb128 .LEHE28-.LEHB28
 1527 00a7 9404     		.uleb128 .L70-.LFB1118
 1528 00a9 00       		.uleb128 0
 1529 00aa 79       		.uleb128 .LEHB29-.LFB1118
 1530 00ab 40       		.uleb128 .LEHE29-.LEHB29
 1531 00ac C802     		.uleb128 .L67-.LFB1118
 1532 00ae 01       		.uleb128 0x1
 1533 00af C301     		.uleb128 .LEHB30-.LFB1118
 1534 00b1 05       		.uleb128 .LEHE30-.LEHB30
 1535 00b2 9404     		.uleb128 .L70-.LFB1118
 1536 00b4 00       		.uleb128 0
 1537 00b5 C801     		.uleb128 .LEHB31-.LFB1118
 1538 00b7 58       		.uleb128 .LEHE31-.LEHB31
 1539 00b8 B803     		.uleb128 .L71-.LFB1118
 1540 00ba 01       		.uleb128 0x1
 1541 00bb AA02     		.uleb128 .LEHB32-.LFB1118
 1542 00bd 05       		.uleb128 .LEHE32-.LEHB32
 1543 00be 00       		.uleb128 0
 1544 00bf 00       		.uleb128 0
 1545 00c0 D002     		.uleb128 .LEHB33-.LFB1118
 1546 00c2 40       		.uleb128 .LEHE33-.LEHB33
 1547 00c3 9A03     		.uleb128 .L69-.LFB1118
 1548 00c5 00       		.uleb128 0
 1549 00c6 9003     		.uleb128 .LEHB34-.LFB1118
 1550 00c8 05       		.uleb128 .LEHE34-.LEHB34
 1551 00c9 A403     		.uleb128 .L68-.LFB1118
 1552 00cb 00       		.uleb128 0
 1553 00cc C003     		.uleb128 .LEHB35-.LFB1118
 1554 00ce 40       		.uleb128 .LEHE35-.LEHB35
 1555 00cf 8A04     		.uleb128 .L72-.LFB1118
 1556 00d1 00       		.uleb128 0
 1557 00d2 8004     		.uleb128 .LEHB36-.LFB1118
 1558 00d4 05       		.uleb128 .LEHE36-.LEHB36
 1559 00d5 9404     		.uleb128 .L70-.LFB1118
 1560 00d7 00       		.uleb128 0
 1561 00d8 AC04     		.uleb128 .LEHB37-.LFB1118
 1562 00da 05       		.uleb128 .LEHE37-.LEHB37
 1563 00db 00       		.uleb128 0
 1564 00dc 00       		.uleb128 0
 1565              	.LLSDACSE1118:
 1566 00dd 01       		.byte	0x1
 1567 00de 00       		.byte	0
 1568 00df 00       		.align 4
 1569 00e0 00000000 		.long	0
 1570              	
 1571              	.LLSDATT1118:
 1572              		.text
 1574              		.section	.rodata
 1575              		.align 8
 1576              	.LC15:
 1577 0178 43686563 		.string	"CheckFailureIncludesCheckContents"
 1577      6B466169 
 1577      6C757265 
 1577      496E636C 
 1577      75646573 
 1578              		.text
 1579              		.align 2
 1581              	_ZN12_GLOBAL__N_137TestCheckFailureIncludesCheckContentsC2Ev:
 1582              	.LFB1120:
  51:TestCheckMacros.cpp **** 
  52:TestCheckMacros.cpp **** TEST(CheckFailureIncludesCheckContents)
 1583              		.loc 6 52 0
 1584              		.cfi_startproc
 1585 07f2 55       		pushq	%rbp
 1586              		.cfi_def_cfa_offset 16
 1587              		.cfi_offset 6, -16
 1588 07f3 4889E5   		movq	%rsp, %rbp
 1589              		.cfi_def_cfa_register 6
 1590 07f6 53       		pushq	%rbx
 1591 07f7 4883EC18 		subq	$24, %rsp
 1592              		.cfi_offset 3, -24
 1593 07fb 48897DE8 		movq	%rdi, -24(%rbp)
 1594              	.LBB17:
 1595              		.loc 6 52 0
 1596 07ff 488B5DE8 		movq	-24(%rbp), %rbx
 1597 0803 E8000000 		call	_ZN13UnitTestSuite12GetSuiteNameEv
 1597      00
 1598 0808 41B83400 		movl	$52, %r8d
 1598      0000
 1599 080e 488D0D00 		leaq	.LC2(%rip), %rcx
 1599      000000
 1600 0815 4889C2   		movq	%rax, %rdx
 1601 0818 488D3500 		leaq	.LC15(%rip), %rsi
 1601      000000
 1602 081f 4889DF   		movq	%rbx, %rdi
 1603 0822 E8000000 		call	_ZN8UnitTest4TestC2EPKcS2_S2_i@PLT
 1603      00
 1604 0827 488D1500 		leaq	16+_ZTVN12_GLOBAL__N_137TestCheckFailureIncludesCheckContentsE(%rip), %rdx
 1604      000000
 1605 082e 488B45E8 		movq	-24(%rbp), %rax
 1606 0832 488910   		movq	%rdx, (%rax)
 1607              	.LBE17:
 1608 0835 90       		nop
 1609 0836 4883C418 		addq	$24, %rsp
 1610 083a 5B       		popq	%rbx
 1611 083b 5D       		popq	%rbp
 1612              		.cfi_def_cfa 7, 8
 1613 083c C3       		ret
 1614              		.cfi_endproc
 1615              	.LFE1120:
 1617              		.set	_ZN12_GLOBAL__N_137TestCheckFailureIncludesCheckContentsC1Ev,_ZN12_GLOBAL__N_137TestCheckFail
 1618              		.local	_ZN12_GLOBAL__N_145testCheckFailureIncludesCheckContentsInstanceE
 1619              		.comm	_ZN12_GLOBAL__N_145testCheckFailureIncludesCheckContentsInstanceE,56,32
 1620              		.local	_ZN12_GLOBAL__N_138adderCheckFailureIncludesCheckContentsE
 1621              		.comm	_ZN12_GLOBAL__N_138adderCheckFailureIncludesCheckContentsE,1,1
 1622              		.section	.rodata
 1623              	.LC16:
 1624 019a 79616464 		.string	"yaddayadda"
 1624      61796164 
 1624      646100
 1625 01a5 000000   		.align 8
 1626              	.LC17:
 1627 01a8 73747273 		.string	"strstr(reporter.lastFailedMessage, \"yaddayadda\")"
 1627      74722872 
 1627      65706F72 
 1627      7465722E 
 1627      6C617374 
 1628 01d9 00000000 		.align 8
 1628      000000
 1629              	.LC18:
 1630 01e0 556E6861 		.string	"Unhandled exception in CHECK(yaddayadda)"
 1630      6E646C65 
 1630      64206578 
 1630      63657074 
 1630      696F6E20 
 1631 0209 00000000 		.align 8
 1631      000000
 1632              	.LC19:
 1633 0210 556E6861 		.string	"Unhandled exception in CHECK(strstr(reporter.lastFailedMessage, \"yaddayadda\"))"
 1633      6E646C65 
 1633      64206578 
 1633      63657074 
 1633      696F6E20 
 1634              		.text
 1635 083d 90       		.align 2
 1637              	_ZNK12_GLOBAL__N_137TestCheckFailureIncludesCheckContents7RunImplEv:
 1638              	.LFB1122:
  53:TestCheckMacros.cpp **** {
 1639              		.loc 6 53 0
 1640              		.cfi_startproc
 1641              		.cfi_personality 0x9b,DW.ref.__gxx_personality_v0
 1642              		.cfi_lsda 0x1b,.LLSDA1122
 1643 083e 55       		pushq	%rbp
 1644              		.cfi_def_cfa_offset 16
 1645              		.cfi_offset 6, -16
 1646 083f 4889E5   		movq	%rsp, %rbp
 1647              		.cfi_def_cfa_register 6
 1648 0842 53       		pushq	%rbx
 1649 0843 4881ECB8 		subq	$2232, %rsp
 1649      080000
 1650              		.cfi_offset 3, -24
 1651 084a 4889BD48 		movq	%rdi, -2232(%rbp)
 1651      F7FFFF
 1652              		.loc 6 53 0
 1653 0851 64488B04 		movq	%fs:40, %rax
 1653      25280000 
 1653      00
 1654 085a 488945E8 		movq	%rax, -24(%rbp)
 1655 085e 31C0     		xorl	%eax, %eax
  54:TestCheckMacros.cpp ****     RecordingReporter reporter;
 1656              		.loc 6 54 0
 1657 0860 488D85B0 		leaq	-2128(%rbp), %rax
 1657      F7FFFF
 1658 0867 4889C7   		movq	%rax, %rdi
 1659 086a E8000000 		call	_ZN17RecordingReporterC1Ev
 1659      00
 1660              	.LBB18:
  55:TestCheckMacros.cpp ****     {
  56:TestCheckMacros.cpp ****         UnitTest::TestResults testResults(&reporter);
 1661              		.loc 6 56 0
 1662 086f 488D95B0 		leaq	-2128(%rbp), %rdx
 1662      F7FFFF
 1663 0876 488D8570 		leaq	-2192(%rbp), %rax
 1663      F7FFFF
 1664 087d 4889D6   		movq	%rdx, %rsi
 1665 0880 4889C7   		movq	%rax, %rdi
 1666              	.LEHB38:
 1667 0883 E8000000 		call	_ZN8UnitTest11TestResultsC1EPNS_12TestReporterE@PLT
 1667      00
  57:TestCheckMacros.cpp **** 		ScopedCurrentTest scopedResults(testResults);
 1668              		.loc 6 57 0
 1669 0888 488D8D70 		leaq	-2192(%rbp), %rcx
 1669      F7FFFF
 1670 088f 488D8560 		leaq	-2208(%rbp), %rax
 1670      F7FFFF
 1671 0896 BA000000 		movl	$0, %edx
 1671      00
 1672 089b 4889CE   		movq	%rcx, %rsi
 1673 089e 4889C7   		movq	%rax, %rdi
 1674 08a1 E8000000 		call	_ZN17ScopedCurrentTestC1ERN8UnitTest11TestResultsEPKNS0_11TestDetailsE
 1674      00
 1675              	.LEHE38:
  58:TestCheckMacros.cpp ****         const bool yaddayadda = false;
 1676              		.loc 6 58 0
 1677 08a6 C6855FF7 		movb	$0, -2209(%rbp)
 1677      FFFF00
  59:TestCheckMacros.cpp ****         CHECK(yaddayadda);
 1678              		.loc 6 59 0
 1679 08ad BF000000 		movl	$0, %edi
 1679      00
 1680 08b2 E8000000 		call	_ZN8UnitTest5CheckIbEEbT_
 1680      00
 1681 08b7 83F001   		xorl	$1, %eax
 1682 08ba 84C0     		testb	%al, %al
 1683 08bc 7440     		je	.L76
 1684              	.LEHB39:
 1685              		.loc 6 59 0 is_stmt 0 discriminator 1
 1686 08be E8000000 		call	_ZN8UnitTest11CurrentTest7ResultsEv@PLT
 1686      00
 1687 08c3 488B18   		movq	(%rax), %rbx
 1688 08c6 E8000000 		call	_ZN8UnitTest11CurrentTest7DetailsEv@PLT
 1688      00
 1689              		.loc 6 59 0 discriminator 2
 1690 08cb 488B08   		movq	(%rax), %rcx
 1691 08ce 488D8590 		leaq	-2160(%rbp), %rax
 1691      F7FFFF
 1692 08d5 BA3B0000 		movl	$59, %edx
 1692      00
 1693 08da 4889CE   		movq	%rcx, %rsi
 1694 08dd 4889C7   		movq	%rax, %rdi
 1695 08e0 E8000000 		call	_ZN8UnitTest11TestDetailsC1ERKS0_i@PLT
 1695      00
 1696              		.loc 6 59 0 discriminator 4
 1697 08e5 488D8590 		leaq	-2160(%rbp), %rax
 1697      F7FFFF
 1698 08ec 488D1500 		leaq	.LC16(%rip), %rdx
 1698      000000
 1699 08f3 4889C6   		movq	%rax, %rsi
 1700 08f6 4889DF   		movq	%rbx, %rdi
 1701 08f9 E8000000 		call	_ZN8UnitTest11TestResults13OnTestFailureERKNS_11TestDetailsEPKc@PLT
 1701      00
 1702              	.LEHE39:
 1703              	.L76:
  57:TestCheckMacros.cpp **** 		ScopedCurrentTest scopedResults(testResults);
 1704              		.loc 6 57 0 is_stmt 1
 1705 08fe 488D8560 		leaq	-2208(%rbp), %rax
 1705      F7FFFF
 1706 0905 4889C7   		movq	%rax, %rdi
 1707              	.LEHB40:
 1708 0908 E8000000 		call	_ZN17ScopedCurrentTestD1Ev
 1708      00
 1709              	.LEHE40:
 1710              	.LBE18:
  60:TestCheckMacros.cpp ****     }
  61:TestCheckMacros.cpp **** 
  62:TestCheckMacros.cpp ****     CHECK(strstr(reporter.lastFailedMessage, "yaddayadda"));
 1711              		.loc 6 62 0
 1712 090d 488D85B0 		leaq	-2128(%rbp), %rax
 1712      F7FFFF
 1713 0914 48051405 		addq	$1300, %rax
 1713      0000
 1714 091a 488D3500 		leaq	.LC16(%rip), %rsi
 1714      000000
 1715 0921 4889C7   		movq	%rax, %rdi
 1716 0924 E8000000 		call	strstr@PLT
 1716      00
 1717 0929 4889C7   		movq	%rax, %rdi
 1718 092c E8000000 		call	_ZN8UnitTest5CheckIPcEEbT_
 1718      00
 1719 0931 83F001   		xorl	$1, %eax
 1720 0934 84C0     		testb	%al, %al
 1721 0936 7440     		je	.L77
 1722              	.LEHB41:
 1723              		.loc 6 62 0 is_stmt 0 discriminator 1
 1724 0938 E8000000 		call	_ZN8UnitTest11CurrentTest7ResultsEv@PLT
 1724      00
 1725 093d 488B18   		movq	(%rax), %rbx
 1726 0940 E8000000 		call	_ZN8UnitTest11CurrentTest7DetailsEv@PLT
 1726      00
 1727              		.loc 6 62 0 discriminator 2
 1728 0945 488B08   		movq	(%rax), %rcx
 1729 0948 488D8590 		leaq	-2160(%rbp), %rax
 1729      F7FFFF
 1730 094f BA3E0000 		movl	$62, %edx
 1730      00
 1731 0954 4889CE   		movq	%rcx, %rsi
 1732 0957 4889C7   		movq	%rax, %rdi
 1733 095a E8000000 		call	_ZN8UnitTest11TestDetailsC1ERKS0_i@PLT
 1733      00
 1734              		.loc 6 62 0 discriminator 4
 1735 095f 488D8590 		leaq	-2160(%rbp), %rax
 1735      F7FFFF
 1736 0966 488D1500 		leaq	.LC17(%rip), %rdx
 1736      000000
 1737 096d 4889C6   		movq	%rax, %rsi
 1738 0970 4889DF   		movq	%rbx, %rdi
 1739 0973 E8000000 		call	_ZN8UnitTest11TestResults13OnTestFailureERKNS_11TestDetailsEPKc@PLT
 1739      00
 1740              	.LEHE41:
 1741              	.L77:
  54:TestCheckMacros.cpp ****     {
 1742              		.loc 6 54 0 is_stmt 1
 1743 0978 488D85B0 		leaq	-2128(%rbp), %rax
 1743      F7FFFF
 1744 097f 4889C7   		movq	%rax, %rdi
 1745              	.LEHB42:
 1746 0982 E8000000 		call	_ZN17RecordingReporterD1Ev
 1746      00
 1747              	.LEHE42:
  63:TestCheckMacros.cpp **** }
 1748              		.loc 6 63 0
 1749 0987 90       		nop
 1750 0988 488B45E8 		movq	-24(%rbp), %rax
 1751 098c 64483304 		xorq	%fs:40, %rax
 1751      25280000 
 1751      00
 1752 0995 0F84F300 		je	.L84
 1752      0000
 1753 099b E9E90000 		jmp	.L91
 1753      00
 1754              	.L85:
 1755              	.LBB19:
  59:TestCheckMacros.cpp ****     }
 1756              		.loc 6 59 0
 1757 09a0 4889C7   		movq	%rax, %rdi
 1758 09a3 E8000000 		call	__cxa_begin_catch@PLT
 1758      00
 1759              	.LEHB43:
 1760 09a8 E8000000 		call	_ZN8UnitTest11CurrentTest7ResultsEv@PLT
 1760      00
 1761 09ad 488B18   		movq	(%rax), %rbx
 1762 09b0 E8000000 		call	_ZN8UnitTest11CurrentTest7DetailsEv@PLT
 1762      00
  59:TestCheckMacros.cpp ****     }
 1763              		.loc 6 59 0 is_stmt 0 discriminator 8
 1764 09b5 488B08   		movq	(%rax), %rcx
 1765 09b8 488D8590 		leaq	-2160(%rbp), %rax
 1765      F7FFFF
 1766 09bf BA3B0000 		movl	$59, %edx
 1766      00
 1767 09c4 4889CE   		movq	%rcx, %rsi
 1768 09c7 4889C7   		movq	%rax, %rdi
 1769 09ca E8000000 		call	_ZN8UnitTest11TestDetailsC1ERKS0_i@PLT
 1769      00
  59:TestCheckMacros.cpp ****     }
 1770              		.loc 6 59 0 discriminator 12
 1771 09cf 488D8590 		leaq	-2160(%rbp), %rax
 1771      F7FFFF
 1772 09d6 488D1500 		leaq	.LC18(%rip), %rdx
 1772      000000
 1773 09dd 4889C6   		movq	%rax, %rsi
 1774 09e0 4889DF   		movq	%rbx, %rdi
 1775 09e3 E8000000 		call	_ZN8UnitTest11TestResults13OnTestFailureERKNS_11TestDetailsEPKc@PLT
 1775      00
 1776              	.LEHE43:
 1777              	.LEHB44:
  59:TestCheckMacros.cpp ****     }
 1778              		.loc 6 59 0 discriminator 14
 1779 09e8 E8000000 		call	__cxa_end_catch@PLT
 1779      00
 1780              	.LEHE44:
  59:TestCheckMacros.cpp ****     }
 1781              		.loc 6 59 0
 1782 09ed E90CFFFF 		jmp	.L76
 1782      FF
 1783              	.L87:
 1784 09f2 4889C3   		movq	%rax, %rbx
 1785 09f5 E8000000 		call	__cxa_end_catch@PLT
 1785      00
 1786 09fa EB03     		jmp	.L80
 1787              	.L86:
 1788 09fc 4889C3   		movq	%rax, %rbx
 1789              	.L80:
  57:TestCheckMacros.cpp ****         const bool yaddayadda = false;
 1790              		.loc 6 57 0 is_stmt 1
 1791 09ff 488D8560 		leaq	-2208(%rbp), %rax
 1791      F7FFFF
 1792 0a06 4889C7   		movq	%rax, %rdi
 1793 0a09 E8000000 		call	_ZN17ScopedCurrentTestD1Ev
 1793      00
 1794 0a0e EB5F     		jmp	.L81
 1795              	.L89:
 1796              	.LBE19:
  62:TestCheckMacros.cpp **** }
 1797              		.loc 6 62 0
 1798 0a10 4889C7   		movq	%rax, %rdi
 1799 0a13 E8000000 		call	__cxa_begin_catch@PLT
 1799      00
 1800              	.LEHB45:
 1801 0a18 E8000000 		call	_ZN8UnitTest11CurrentTest7ResultsEv@PLT
 1801      00
 1802 0a1d 488B18   		movq	(%rax), %rbx
 1803 0a20 E8000000 		call	_ZN8UnitTest11CurrentTest7DetailsEv@PLT
 1803      00
  62:TestCheckMacros.cpp **** }
 1804              		.loc 6 62 0 is_stmt 0 discriminator 8
 1805 0a25 488B08   		movq	(%rax), %rcx
 1806 0a28 488D8590 		leaq	-2160(%rbp), %rax
 1806      F7FFFF
 1807 0a2f BA3E0000 		movl	$62, %edx
 1807      00
 1808 0a34 4889CE   		movq	%rcx, %rsi
 1809 0a37 4889C7   		movq	%rax, %rdi
 1810 0a3a E8000000 		call	_ZN8UnitTest11TestDetailsC1ERKS0_i@PLT
 1810      00
  62:TestCheckMacros.cpp **** }
 1811              		.loc 6 62 0 discriminator 12
 1812 0a3f 488D8590 		leaq	-2160(%rbp), %rax
 1812      F7FFFF
 1813 0a46 488D1500 		leaq	.LC19(%rip), %rdx
 1813      000000
 1814 0a4d 4889C6   		movq	%rax, %rsi
 1815 0a50 4889DF   		movq	%rbx, %rdi
 1816 0a53 E8000000 		call	_ZN8UnitTest11TestResults13OnTestFailureERKNS_11TestDetailsEPKc@PLT
 1816      00
 1817              	.LEHE45:
 1818              	.LEHB46:
  62:TestCheckMacros.cpp **** }
 1819              		.loc 6 62 0 discriminator 14
 1820 0a58 E8000000 		call	__cxa_end_catch@PLT
 1820      00
 1821              	.LEHE46:
  62:TestCheckMacros.cpp **** }
 1822              		.loc 6 62 0
 1823 0a5d E916FFFF 		jmp	.L77
 1823      FF
 1824              	.L90:
 1825 0a62 4889C3   		movq	%rax, %rbx
 1826 0a65 E8000000 		call	__cxa_end_catch@PLT
 1826      00
 1827 0a6a EB03     		jmp	.L81
 1828              	.L88:
 1829 0a6c 4889C3   		movq	%rax, %rbx
 1830              	.L81:
  54:TestCheckMacros.cpp ****     {
 1831              		.loc 6 54 0 is_stmt 1
 1832 0a6f 488D85B0 		leaq	-2128(%rbp), %rax
 1832      F7FFFF
 1833 0a76 4889C7   		movq	%rax, %rdi
 1834 0a79 E8000000 		call	_ZN17RecordingReporterD1Ev
 1834      00
 1835 0a7e 4889D8   		movq	%rbx, %rax
 1836 0a81 4889C7   		movq	%rax, %rdi
 1837              	.LEHB47:
 1838 0a84 E8000000 		call	_Unwind_Resume@PLT
 1838      00
 1839              	.LEHE47:
 1840              	.L91:
 1841              		.loc 6 63 0
 1842 0a89 E8000000 		call	__stack_chk_fail@PLT
 1842      00
 1843              	.L84:
 1844 0a8e 4881C4B8 		addq	$2232, %rsp
 1844      080000
 1845 0a95 5B       		popq	%rbx
 1846 0a96 5D       		popq	%rbp
 1847              		.cfi_def_cfa 7, 8
 1848 0a97 C3       		ret
 1849              		.cfi_endproc
 1850              	.LFE1122:
 1851              		.section	.gcc_except_table
 1852              		.align 4
 1853              	.LLSDA1122:
 1854 00e4 FF       		.byte	0xff
 1855 00e5 9B       		.byte	0x9b
 1856 00e6 41       		.uleb128 .LLSDATT1122-.LLSDATTD1122
 1857              	.LLSDATTD1122:
 1858 00e7 01       		.byte	0x1
 1859 00e8 39       		.uleb128 .LLSDACSE1122-.LLSDACSB1122
 1860              	.LLSDACSB1122:
 1861 00e9 45       		.uleb128 .LEHB38-.LFB1122
 1862 00ea 23       		.uleb128 .LEHE38-.LEHB38
 1863 00eb AE04     		.uleb128 .L88-.LFB1122
 1864 00ed 00       		.uleb128 0
 1865 00ee 8001     		.uleb128 .LEHB39-.LFB1122
 1866 00f0 40       		.uleb128 .LEHE39-.LEHB39
 1867 00f1 E202     		.uleb128 .L85-.LFB1122
 1868 00f3 01       		.uleb128 0x1
 1869 00f4 CA01     		.uleb128 .LEHB40-.LFB1122
 1870 00f6 05       		.uleb128 .LEHE40-.LEHB40
 1871 00f7 AE04     		.uleb128 .L88-.LFB1122
 1872 00f9 00       		.uleb128 0
 1873 00fa FA01     		.uleb128 .LEHB41-.LFB1122
 1874 00fc 40       		.uleb128 .LEHE41-.LEHB41
 1875 00fd D203     		.uleb128 .L89-.LFB1122
 1876 00ff 01       		.uleb128 0x1
 1877 0100 C402     		.uleb128 .LEHB42-.LFB1122
 1878 0102 05       		.uleb128 .LEHE42-.LEHB42
 1879 0103 00       		.uleb128 0
 1880 0104 00       		.uleb128 0
 1881 0105 EA02     		.uleb128 .LEHB43-.LFB1122
 1882 0107 40       		.uleb128 .LEHE43-.LEHB43
 1883 0108 B403     		.uleb128 .L87-.LFB1122
 1884 010a 00       		.uleb128 0
 1885 010b AA03     		.uleb128 .LEHB44-.LFB1122
 1886 010d 05       		.uleb128 .LEHE44-.LEHB44
 1887 010e BE03     		.uleb128 .L86-.LFB1122
 1888 0110 00       		.uleb128 0
 1889 0111 DA03     		.uleb128 .LEHB45-.LFB1122
 1890 0113 40       		.uleb128 .LEHE45-.LEHB45
 1891 0114 A404     		.uleb128 .L90-.LFB1122
 1892 0116 00       		.uleb128 0
 1893 0117 9A04     		.uleb128 .LEHB46-.LFB1122
 1894 0119 05       		.uleb128 .LEHE46-.LEHB46
 1895 011a AE04     		.uleb128 .L88-.LFB1122
 1896 011c 00       		.uleb128 0
 1897 011d C604     		.uleb128 .LEHB47-.LFB1122
 1898 011f 05       		.uleb128 .LEHE47-.LEHB47
 1899 0120 00       		.uleb128 0
 1900 0121 00       		.uleb128 0
 1901              	.LLSDACSE1122:
 1902 0122 01       		.byte	0x1
 1903 0123 00       		.byte	0
 1904              		.align 4
 1905 0124 00000000 		.long	0
 1906              	
 1907              	.LLSDATT1122:
 1908              		.text
 1910              		.section	.rodata
 1911              	.LC20:
 1912 025f 446F6800 		.string	"Doh"
 1913              		.text
 1915              	_ZN12_GLOBAL__N_116ThrowingFunctionEv:
 1916              	.LFB1123:
  64:TestCheckMacros.cpp **** 
  65:TestCheckMacros.cpp **** int ThrowingFunction()
  66:TestCheckMacros.cpp **** {
 1917              		.loc 6 66 0
 1918              		.cfi_startproc
 1919 0a98 55       		pushq	%rbp
 1920              		.cfi_def_cfa_offset 16
 1921              		.cfi_offset 6, -16
 1922 0a99 4889E5   		movq	%rsp, %rbp
 1923              		.cfi_def_cfa_register 6
  67:TestCheckMacros.cpp ****     throw "Doh";
 1924              		.loc 6 67 0
 1925 0a9c BF080000 		movl	$8, %edi
 1925      00
 1926 0aa1 E8000000 		call	__cxa_allocate_exception@PLT
 1926      00
 1927 0aa6 488D1500 		leaq	.LC20(%rip), %rdx
 1927      000000
 1928 0aad 488910   		movq	%rdx, (%rax)
 1929 0ab0 BA000000 		movl	$0, %edx
 1929      00
 1930 0ab5 488D3500 		leaq	_ZTIPKc(%rip), %rsi
 1930      000000
 1931 0abc 4889C7   		movq	%rax, %rdi
 1932 0abf E8000000 		call	__cxa_throw@PLT
 1932      00
 1933              		.cfi_endproc
 1934              	.LFE1123:
 1936              		.section	.rodata
 1937              	.LC21:
 1938 0263 43686563 		.string	"CheckFailsOnException"
 1938      6B466169 
 1938      6C734F6E 
 1938      45786365 
 1938      7074696F 
 1939              		.text
 1940              		.align 2
 1942              	_ZN12_GLOBAL__N_125TestCheckFailsOnExceptionC2Ev:
 1943              	.LFB1125:
  68:TestCheckMacros.cpp **** }
  69:TestCheckMacros.cpp **** 
  70:TestCheckMacros.cpp **** TEST(CheckFailsOnException)
 1944              		.loc 6 70 0
 1945              		.cfi_startproc
 1946 0ac4 55       		pushq	%rbp
 1947              		.cfi_def_cfa_offset 16
 1948              		.cfi_offset 6, -16
 1949 0ac5 4889E5   		movq	%rsp, %rbp
 1950              		.cfi_def_cfa_register 6
 1951 0ac8 53       		pushq	%rbx
 1952 0ac9 4883EC18 		subq	$24, %rsp
 1953              		.cfi_offset 3, -24
 1954 0acd 48897DE8 		movq	%rdi, -24(%rbp)
 1955              	.LBB20:
 1956              		.loc 6 70 0
 1957 0ad1 488B5DE8 		movq	-24(%rbp), %rbx
 1958 0ad5 E8000000 		call	_ZN13UnitTestSuite12GetSuiteNameEv
 1958      00
 1959 0ada 41B84600 		movl	$70, %r8d
 1959      0000
 1960 0ae0 488D0D00 		leaq	.LC2(%rip), %rcx
 1960      000000
 1961 0ae7 4889C2   		movq	%rax, %rdx
 1962 0aea 488D3500 		leaq	.LC21(%rip), %rsi
 1962      000000
 1963 0af1 4889DF   		movq	%rbx, %rdi
 1964 0af4 E8000000 		call	_ZN8UnitTest4TestC2EPKcS2_S2_i@PLT
 1964      00
 1965 0af9 488D1500 		leaq	16+_ZTVN12_GLOBAL__N_125TestCheckFailsOnExceptionE(%rip), %rdx
 1965      000000
 1966 0b00 488B45E8 		movq	-24(%rbp), %rax
 1967 0b04 488910   		movq	%rdx, (%rax)
 1968              	.LBE20:
 1969 0b07 90       		nop
 1970 0b08 4883C418 		addq	$24, %rsp
 1971 0b0c 5B       		popq	%rbx
 1972 0b0d 5D       		popq	%rbp
 1973              		.cfi_def_cfa 7, 8
 1974 0b0e C3       		ret
 1975              		.cfi_endproc
 1976              	.LFE1125:
 1978              		.set	_ZN12_GLOBAL__N_125TestCheckFailsOnExceptionC1Ev,_ZN12_GLOBAL__N_125TestCheckFailsOnException
 1979              		.local	_ZN12_GLOBAL__N_133testCheckFailsOnExceptionInstanceE
 1980              		.comm	_ZN12_GLOBAL__N_133testCheckFailsOnExceptionInstanceE,56,32
 1981              		.local	_ZN12_GLOBAL__N_126adderCheckFailsOnExceptionE
 1982              		.comm	_ZN12_GLOBAL__N_126adderCheckFailsOnExceptionE,1,1
 1983              		.section	.rodata
 1984              	.LC22:
 1985 0279 5468726F 		.string	"ThrowingFunction() == 1"
 1985      77696E67 
 1985      46756E63 
 1985      74696F6E 
 1985      2829203D 
 1986 0291 00000000 		.align 8
 1986      000000
 1987              	.LC23:
 1988 0298 556E6861 		.string	"Unhandled exception in CHECK(ThrowingFunction() == 1)"
 1988      6E646C65 
 1988      64206578 
 1988      63657074 
 1988      696F6E20 
 1989              		.text
 1990 0b0f 90       		.align 2
 1992              	_ZNK12_GLOBAL__N_125TestCheckFailsOnException7RunImplEv:
 1993              	.LFB1127:
  71:TestCheckMacros.cpp **** {
 1994              		.loc 6 71 0
 1995              		.cfi_startproc
 1996              		.cfi_personality 0x9b,DW.ref.__gxx_personality_v0
 1997              		.cfi_lsda 0x1b,.LLSDA1127
 1998 0b10 55       		pushq	%rbp
 1999              		.cfi_def_cfa_offset 16
 2000              		.cfi_offset 6, -16
 2001 0b11 4889E5   		movq	%rsp, %rbp
 2002              		.cfi_def_cfa_register 6
 2003 0b14 53       		pushq	%rbx
 2004 0b15 4881ECB8 		subq	$2232, %rsp
 2004      080000
 2005              		.cfi_offset 3, -24
 2006 0b1c 4889BD48 		movq	%rdi, -2232(%rbp)
 2006      F7FFFF
 2007              		.loc 6 71 0
 2008 0b23 64488B04 		movq	%fs:40, %rax
 2008      25280000 
 2008      00
 2009 0b2c 488945E8 		movq	%rax, -24(%rbp)
 2010 0b30 31C0     		xorl	%eax, %eax
  72:TestCheckMacros.cpp ****     bool failure = false;
 2011              		.loc 6 72 0
 2012 0b32 C6855FF7 		movb	$0, -2209(%rbp)
 2012      FFFF00
 2013              	.LBB21:
  73:TestCheckMacros.cpp ****     {
  74:TestCheckMacros.cpp ****         RecordingReporter reporter;
 2014              		.loc 6 74 0
 2015 0b39 488D85B0 		leaq	-2128(%rbp), %rax
 2015      F7FFFF
 2016 0b40 4889C7   		movq	%rax, %rdi
 2017 0b43 E8000000 		call	_ZN17RecordingReporterC1Ev
 2017      00
  75:TestCheckMacros.cpp ****         UnitTest::TestResults testResults(&reporter);
 2018              		.loc 6 75 0
 2019 0b48 488D95B0 		leaq	-2128(%rbp), %rdx
 2019      F7FFFF
 2020 0b4f 488D8570 		leaq	-2192(%rbp), %rax
 2020      F7FFFF
 2021 0b56 4889D6   		movq	%rdx, %rsi
 2022 0b59 4889C7   		movq	%rax, %rdi
 2023              	.LEHB48:
 2024 0b5c E8000000 		call	_ZN8UnitTest11TestResultsC1EPNS_12TestReporterE@PLT
 2024      00
  76:TestCheckMacros.cpp **** 		ScopedCurrentTest scopedResults(testResults);
 2025              		.loc 6 76 0
 2026 0b61 488D8D70 		leaq	-2192(%rbp), %rcx
 2026      F7FFFF
 2027 0b68 488D8560 		leaq	-2208(%rbp), %rax
 2027      F7FFFF
 2028 0b6f BA000000 		movl	$0, %edx
 2028      00
 2029 0b74 4889CE   		movq	%rcx, %rsi
 2030 0b77 4889C7   		movq	%rax, %rdi
 2031 0b7a E8000000 		call	_ZN17ScopedCurrentTestC1ERN8UnitTest11TestResultsEPKNS0_11TestDetailsE
 2031      00
 2032              	.LEHE48:
 2033              	.LEHB49:
  77:TestCheckMacros.cpp ****         CHECK(ThrowingFunction() == 1);
 2034              		.loc 6 77 0
 2035 0b7f E814FFFF 		call	_ZN12_GLOBAL__N_116ThrowingFunctionEv
 2035      FF
 2036 0b84 83F801   		cmpl	$1, %eax
 2037 0b87 0F94C0   		sete	%al
 2038 0b8a 0FB6C0   		movzbl	%al, %eax
 2039 0b8d 89C7     		movl	%eax, %edi
 2040 0b8f E8000000 		call	_ZN8UnitTest5CheckIbEEbT_
 2040      00
 2041 0b94 83F001   		xorl	$1, %eax
 2042 0b97 84C0     		testb	%al, %al
 2043 0b99 7440     		je	.L95
 2044              		.loc 6 77 0 is_stmt 0 discriminator 2
 2045 0b9b E8000000 		call	_ZN8UnitTest11CurrentTest7ResultsEv@PLT
 2045      00
 2046 0ba0 488B18   		movq	(%rax), %rbx
 2047 0ba3 E8000000 		call	_ZN8UnitTest11CurrentTest7DetailsEv@PLT
 2047      00
 2048              		.loc 6 77 0 discriminator 3
 2049 0ba8 488B08   		movq	(%rax), %rcx
 2050 0bab 488D8590 		leaq	-2160(%rbp), %rax
 2050      F7FFFF
 2051 0bb2 BA4D0000 		movl	$77, %edx
 2051      00
 2052 0bb7 4889CE   		movq	%rcx, %rsi
 2053 0bba 4889C7   		movq	%rax, %rdi
 2054 0bbd E8000000 		call	_ZN8UnitTest11TestDetailsC1ERKS0_i@PLT
 2054      00
 2055              		.loc 6 77 0 discriminator 5
 2056 0bc2 488D8590 		leaq	-2160(%rbp), %rax
 2056      F7FFFF
 2057 0bc9 488D1500 		leaq	.LC22(%rip), %rdx
 2057      000000
 2058 0bd0 4889C6   		movq	%rax, %rsi
 2059 0bd3 4889DF   		movq	%rbx, %rdi
 2060 0bd6 E8000000 		call	_ZN8UnitTest11TestResults13OnTestFailureERKNS_11TestDetailsEPKc@PLT
 2060      00
 2061              	.LEHE49:
 2062              	.L95:
  78:TestCheckMacros.cpp ****         failure = (testResults.GetFailureCount() > 0);
 2063              		.loc 6 78 0 is_stmt 1
 2064 0bdb 488D8570 		leaq	-2192(%rbp), %rax
 2064      F7FFFF
 2065 0be2 4889C7   		movq	%rax, %rdi
 2066              	.LEHB50:
 2067 0be5 E8000000 		call	_ZNK8UnitTest11TestResults15GetFailureCountEv@PLT
 2067      00
 2068              	.LEHE50:
 2069 0bea 85C0     		testl	%eax, %eax
 2070 0bec 0F9FC0   		setg	%al
 2071 0bef 88855FF7 		movb	%al, -2209(%rbp)
 2071      FFFF
  76:TestCheckMacros.cpp **** 		ScopedCurrentTest scopedResults(testResults);
 2072              		.loc 6 76 0
 2073 0bf5 488D8560 		leaq	-2208(%rbp), %rax
 2073      F7FFFF
 2074 0bfc 4889C7   		movq	%rax, %rdi
 2075              	.LEHB51:
 2076 0bff E8000000 		call	_ZN17ScopedCurrentTestD1Ev
 2076      00
 2077              	.LEHE51:
  74:TestCheckMacros.cpp ****         UnitTest::TestResults testResults(&reporter);
 2078              		.loc 6 74 0
 2079 0c04 488D85B0 		leaq	-2128(%rbp), %rax
 2079      F7FFFF
 2080 0c0b 4889C7   		movq	%rax, %rdi
 2081              	.LEHB52:
 2082 0c0e E8000000 		call	_ZN17RecordingReporterD1Ev
 2082      00
 2083              	.LEHE52:
 2084              	.LBE21:
  79:TestCheckMacros.cpp ****     }
  80:TestCheckMacros.cpp **** 
  81:TestCheckMacros.cpp ****     CHECK(failure);
 2085              		.loc 6 81 0
 2086 0c13 0FB6855F 		movzbl	-2209(%rbp), %eax
 2086      F7FFFF
 2087 0c1a 89C7     		movl	%eax, %edi
 2088 0c1c E8000000 		call	_ZN8UnitTest5CheckIbEEbT_
 2088      00
 2089 0c21 83F001   		xorl	$1, %eax
 2090 0c24 84C0     		testb	%al, %al
 2091 0c26 0F843401 		je	.L110
 2091      0000
 2092              	.LEHB53:
 2093              		.loc 6 81 0 is_stmt 0 discriminator 1
 2094 0c2c E8000000 		call	_ZN8UnitTest11CurrentTest7ResultsEv@PLT
 2094      00
 2095 0c31 488B18   		movq	(%rax), %rbx
 2096 0c34 E8000000 		call	_ZN8UnitTest11CurrentTest7DetailsEv@PLT
 2096      00
 2097              		.loc 6 81 0 discriminator 2
 2098 0c39 488B08   		movq	(%rax), %rcx
 2099 0c3c 488D8590 		leaq	-2160(%rbp), %rax
 2099      F7FFFF
 2100 0c43 BA510000 		movl	$81, %edx
 2100      00
 2101 0c48 4889CE   		movq	%rcx, %rsi
 2102 0c4b 4889C7   		movq	%rax, %rdi
 2103 0c4e E8000000 		call	_ZN8UnitTest11TestDetailsC1ERKS0_i@PLT
 2103      00
 2104              		.loc 6 81 0 discriminator 4
 2105 0c53 488D8590 		leaq	-2160(%rbp), %rax
 2105      F7FFFF
 2106 0c5a 488D1500 		leaq	.LC10(%rip), %rdx
 2106      000000
 2107 0c61 4889C6   		movq	%rax, %rsi
 2108 0c64 4889DF   		movq	%rbx, %rdi
 2109 0c67 E8000000 		call	_ZN8UnitTest11TestResults13OnTestFailureERKNS_11TestDetailsEPKc@PLT
 2109      00
 2110              	.LEHE53:
  82:TestCheckMacros.cpp **** }
 2111              		.loc 6 82 0 is_stmt 1
 2112 0c6c E9EF0000 		jmp	.L110
 2112      00
 2113              	.L105:
 2114              	.LBB22:
  77:TestCheckMacros.cpp ****         failure = (testResults.GetFailureCount() > 0);
 2115              		.loc 6 77 0
 2116 0c71 4889C7   		movq	%rax, %rdi
 2117 0c74 E8000000 		call	__cxa_begin_catch@PLT
 2117      00
 2118              	.LEHB54:
 2119 0c79 E8000000 		call	_ZN8UnitTest11CurrentTest7ResultsEv@PLT
 2119      00
 2120 0c7e 488B18   		movq	(%rax), %rbx
 2121 0c81 E8000000 		call	_ZN8UnitTest11CurrentTest7DetailsEv@PLT
 2121      00
  77:TestCheckMacros.cpp ****         failure = (testResults.GetFailureCount() > 0);
 2122              		.loc 6 77 0 is_stmt 0 discriminator 9
 2123 0c86 488B08   		movq	(%rax), %rcx
 2124 0c89 488D8590 		leaq	-2160(%rbp), %rax
 2124      F7FFFF
 2125 0c90 BA4D0000 		movl	$77, %edx
 2125      00
 2126 0c95 4889CE   		movq	%rcx, %rsi
 2127 0c98 4889C7   		movq	%rax, %rdi
 2128 0c9b E8000000 		call	_ZN8UnitTest11TestDetailsC1ERKS0_i@PLT
 2128      00
  77:TestCheckMacros.cpp ****         failure = (testResults.GetFailureCount() > 0);
 2129              		.loc 6 77 0 discriminator 13
 2130 0ca0 488D8590 		leaq	-2160(%rbp), %rax
 2130      F7FFFF
 2131 0ca7 488D1500 		leaq	.LC23(%rip), %rdx
 2131      000000
 2132 0cae 4889C6   		movq	%rax, %rsi
 2133 0cb1 4889DF   		movq	%rbx, %rdi
 2134 0cb4 E8000000 		call	_ZN8UnitTest11TestResults13OnTestFailureERKNS_11TestDetailsEPKc@PLT
 2134      00
 2135              	.LEHE54:
 2136              	.LEHB55:
  77:TestCheckMacros.cpp ****         failure = (testResults.GetFailureCount() > 0);
 2137              		.loc 6 77 0 discriminator 15
 2138 0cb9 E8000000 		call	__cxa_end_catch@PLT
 2138      00
 2139              	.LEHE55:
  77:TestCheckMacros.cpp ****         failure = (testResults.GetFailureCount() > 0);
 2140              		.loc 6 77 0
 2141 0cbe E918FFFF 		jmp	.L95
 2141      FF
 2142              	.L107:
 2143 0cc3 4889C3   		movq	%rax, %rbx
 2144 0cc6 E8000000 		call	__cxa_end_catch@PLT
 2144      00
 2145 0ccb EB03     		jmp	.L99
 2146              	.L106:
 2147 0ccd 4889C3   		movq	%rax, %rbx
 2148              	.L99:
  76:TestCheckMacros.cpp ****         CHECK(ThrowingFunction() == 1);
 2149              		.loc 6 76 0 is_stmt 1
 2150 0cd0 488D8560 		leaq	-2208(%rbp), %rax
 2150      F7FFFF
 2151 0cd7 4889C7   		movq	%rax, %rdi
 2152 0cda E8000000 		call	_ZN17ScopedCurrentTestD1Ev
 2152      00
 2153 0cdf EB03     		jmp	.L100
 2154              	.L104:
 2155 0ce1 4889C3   		movq	%rax, %rbx
 2156              	.L100:
  74:TestCheckMacros.cpp ****         UnitTest::TestResults testResults(&reporter);
 2157              		.loc 6 74 0
 2158 0ce4 488D85B0 		leaq	-2128(%rbp), %rax
 2158      F7FFFF
 2159 0ceb 4889C7   		movq	%rax, %rdi
 2160 0cee E8000000 		call	_ZN17RecordingReporterD1Ev
 2160      00
 2161 0cf3 4889D8   		movq	%rbx, %rax
 2162 0cf6 4889C7   		movq	%rax, %rdi
 2163              	.LEHB56:
 2164 0cf9 E8000000 		call	_Unwind_Resume@PLT
 2164      00
 2165              	.LEHE56:
 2166              	.L108:
 2167              	.LBE22:
  81:TestCheckMacros.cpp **** }
 2168              		.loc 6 81 0
 2169 0cfe 4889C7   		movq	%rax, %rdi
 2170 0d01 E8000000 		call	__cxa_begin_catch@PLT
 2170      00
 2171              	.LEHB57:
 2172 0d06 E8000000 		call	_ZN8UnitTest11CurrentTest7ResultsEv@PLT
 2172      00
 2173 0d0b 488B18   		movq	(%rax), %rbx
 2174 0d0e E8000000 		call	_ZN8UnitTest11CurrentTest7DetailsEv@PLT
 2174      00
  81:TestCheckMacros.cpp **** }
 2175              		.loc 6 81 0 is_stmt 0 discriminator 8
 2176 0d13 488B08   		movq	(%rax), %rcx
 2177 0d16 488D8590 		leaq	-2160(%rbp), %rax
 2177      F7FFFF
 2178 0d1d BA510000 		movl	$81, %edx
 2178      00
 2179 0d22 4889CE   		movq	%rcx, %rsi
 2180 0d25 4889C7   		movq	%rax, %rdi
 2181 0d28 E8000000 		call	_ZN8UnitTest11TestDetailsC1ERKS0_i@PLT
 2181      00
  81:TestCheckMacros.cpp **** }
 2182              		.loc 6 81 0 discriminator 12
 2183 0d2d 488D8590 		leaq	-2160(%rbp), %rax
 2183      F7FFFF
 2184 0d34 488D1500 		leaq	.LC12(%rip), %rdx
 2184      000000
 2185 0d3b 4889C6   		movq	%rax, %rsi
 2186 0d3e 4889DF   		movq	%rbx, %rdi
 2187 0d41 E8000000 		call	_ZN8UnitTest11TestResults13OnTestFailureERKNS_11TestDetailsEPKc@PLT
 2187      00
 2188              	.LEHE57:
 2189              	.LEHB58:
  81:TestCheckMacros.cpp **** }
 2190              		.loc 6 81 0 discriminator 14
 2191 0d46 E8000000 		call	__cxa_end_catch@PLT
 2191      00
 2192              	.LEHE58:
 2193              		.loc 6 82 0 is_stmt 1 discriminator 14
 2194 0d4b EB13     		jmp	.L110
 2195              	.L109:
 2196 0d4d 4889C3   		movq	%rax, %rbx
  81:TestCheckMacros.cpp **** }
 2197              		.loc 6 81 0
 2198 0d50 E8000000 		call	__cxa_end_catch@PLT
 2198      00
 2199 0d55 4889D8   		movq	%rbx, %rax
 2200 0d58 4889C7   		movq	%rax, %rdi
 2201              	.LEHB59:
 2202 0d5b E8000000 		call	_Unwind_Resume@PLT
 2202      00
 2203              	.LEHE59:
 2204              	.L110:
 2205              		.loc 6 82 0
 2206 0d60 90       		nop
 2207 0d61 488B45E8 		movq	-24(%rbp), %rax
 2208 0d65 64483304 		xorq	%fs:40, %rax
 2208      25280000 
 2208      00
 2209 0d6e 7405     		je	.L103
 2210 0d70 E8000000 		call	__stack_chk_fail@PLT
 2210      00
 2211              	.L103:
 2212 0d75 4881C4B8 		addq	$2232, %rsp
 2212      080000
 2213 0d7c 5B       		popq	%rbx
 2214 0d7d 5D       		popq	%rbp
 2215              		.cfi_def_cfa 7, 8
 2216 0d7e C3       		ret
 2217              		.cfi_endproc
 2218              	.LFE1127:
 2219              		.section	.gcc_except_table
 2220              		.align 4
 2221              	.LLSDA1127:
 2222 0128 FF       		.byte	0xff
 2223 0129 9B       		.byte	0x9b
 2224 012a 4D       		.uleb128 .LLSDATT1127-.LLSDATTD1127
 2225              	.LLSDATTD1127:
 2226 012b 01       		.byte	0x1
 2227 012c 42       		.uleb128 .LLSDACSE1127-.LLSDACSB1127
 2228              	.LLSDACSB1127:
 2229 012d 4C       		.uleb128 .LEHB48-.LFB1127
 2230 012e 23       		.uleb128 .LEHE48-.LEHB48
 2231 012f D103     		.uleb128 .L104-.LFB1127
 2232 0131 00       		.uleb128 0
 2233 0132 6F       		.uleb128 .LEHB49-.LFB1127
 2234 0133 5C       		.uleb128 .LEHE49-.LEHB49
 2235 0134 E102     		.uleb128 .L105-.LFB1127
 2236 0136 01       		.uleb128 0x1
 2237 0137 D501     		.uleb128 .LEHB50-.LFB1127
 2238 0139 05       		.uleb128 .LEHE50-.LEHB50
 2239 013a BD03     		.uleb128 .L106-.LFB1127
 2240 013c 00       		.uleb128 0
 2241 013d EF01     		.uleb128 .LEHB51-.LFB1127
 2242 013f 05       		.uleb128 .LEHE51-.LEHB51
 2243 0140 D103     		.uleb128 .L104-.LFB1127
 2244 0142 00       		.uleb128 0
 2245 0143 FE01     		.uleb128 .LEHB52-.LFB1127
 2246 0145 05       		.uleb128 .LEHE52-.LEHB52
 2247 0146 00       		.uleb128 0
 2248 0147 00       		.uleb128 0
 2249 0148 9C02     		.uleb128 .LEHB53-.LFB1127
 2250 014a 40       		.uleb128 .LEHE53-.LEHB53
 2251 014b EE03     		.uleb128 .L108-.LFB1127
 2252 014d 01       		.uleb128 0x1
 2253 014e E902     		.uleb128 .LEHB54-.LFB1127
 2254 0150 40       		.uleb128 .LEHE54-.LEHB54
 2255 0151 B303     		.uleb128 .L107-.LFB1127
 2256 0153 00       		.uleb128 0
 2257 0154 A903     		.uleb128 .LEHB55-.LFB1127
 2258 0156 05       		.uleb128 .LEHE55-.LEHB55
 2259 0157 BD03     		.uleb128 .L106-.LFB1127
 2260 0159 00       		.uleb128 0
 2261 015a E903     		.uleb128 .LEHB56-.LFB1127
 2262 015c 05       		.uleb128 .LEHE56-.LEHB56
 2263 015d 00       		.uleb128 0
 2264 015e 00       		.uleb128 0
 2265 015f F603     		.uleb128 .LEHB57-.LFB1127
 2266 0161 40       		.uleb128 .LEHE57-.LEHB57
 2267 0162 BD04     		.uleb128 .L109-.LFB1127
 2268 0164 00       		.uleb128 0
 2269 0165 B604     		.uleb128 .LEHB58-.LFB1127
 2270 0167 05       		.uleb128 .LEHE58-.LEHB58
 2271 0168 00       		.uleb128 0
 2272 0169 00       		.uleb128 0
 2273 016a CB04     		.uleb128 .LEHB59-.LFB1127
 2274 016c 05       		.uleb128 .LEHE59-.LEHB59
 2275 016d 00       		.uleb128 0
 2276 016e 00       		.uleb128 0
 2277              	.LLSDACSE1127:
 2278 016f 01       		.byte	0x1
 2279 0170 00       		.byte	0
 2280 0171 000000   		.align 4
 2281 0174 00000000 		.long	0
 2282              	
 2283              	.LLSDATT1127:
 2284              		.text
 2286              		.section	.rodata
 2287 02ce 0000     		.align 8
 2288              	.LC24:
 2289 02d0 43686563 		.string	"CheckFailureBecauseOfExceptionIncludesCheckContents"
 2289      6B466169 
 2289      6C757265 
 2289      42656361 
 2289      7573654F 
 2290              		.text
 2291 0d7f 90       		.align 2
 2293              	_ZN12_GLOBAL__N_155TestCheckFailureBecauseOfExceptionIncludesCheckContentsC2Ev:
 2294              	.LFB1129:
  83:TestCheckMacros.cpp **** 
  84:TestCheckMacros.cpp **** TEST(CheckFailureBecauseOfExceptionIncludesCheckContents)
 2295              		.loc 6 84 0
 2296              		.cfi_startproc
 2297 0d80 55       		pushq	%rbp
 2298              		.cfi_def_cfa_offset 16
 2299              		.cfi_offset 6, -16
 2300 0d81 4889E5   		movq	%rsp, %rbp
 2301              		.cfi_def_cfa_register 6
 2302 0d84 53       		pushq	%rbx
 2303 0d85 4883EC18 		subq	$24, %rsp
 2304              		.cfi_offset 3, -24
 2305 0d89 48897DE8 		movq	%rdi, -24(%rbp)
 2306              	.LBB23:
 2307              		.loc 6 84 0
 2308 0d8d 488B5DE8 		movq	-24(%rbp), %rbx
 2309 0d91 E8000000 		call	_ZN13UnitTestSuite12GetSuiteNameEv
 2309      00
 2310 0d96 41B85400 		movl	$84, %r8d
 2310      0000
 2311 0d9c 488D0D00 		leaq	.LC2(%rip), %rcx
 2311      000000
 2312 0da3 4889C2   		movq	%rax, %rdx
 2313 0da6 488D3500 		leaq	.LC24(%rip), %rsi
 2313      000000
 2314 0dad 4889DF   		movq	%rbx, %rdi
 2315 0db0 E8000000 		call	_ZN8UnitTest4TestC2EPKcS2_S2_i@PLT
 2315      00
 2316 0db5 488D1500 		leaq	16+_ZTVN12_GLOBAL__N_155TestCheckFailureBecauseOfExceptionIncludesCheckContentsE(%rip), %rdx
 2316      000000
 2317 0dbc 488B45E8 		movq	-24(%rbp), %rax
 2318 0dc0 488910   		movq	%rdx, (%rax)
 2319              	.LBE23:
 2320 0dc3 90       		nop
 2321 0dc4 4883C418 		addq	$24, %rsp
 2322 0dc8 5B       		popq	%rbx
 2323 0dc9 5D       		popq	%rbp
 2324              		.cfi_def_cfa 7, 8
 2325 0dca C3       		ret
 2326              		.cfi_endproc
 2327              	.LFE1129:
 2329              		.set	_ZN12_GLOBAL__N_155TestCheckFailureBecauseOfExceptionIncludesCheckContentsC1Ev,_ZN12_GLOBAL__
 2330              		.local	_ZN12_GLOBAL__N_163testCheckFailureBecauseOfExceptionIncludesCheckContentsInstanceE
 2331              		.comm	_ZN12_GLOBAL__N_163testCheckFailureBecauseOfExceptionIncludesCheckContentsInstanceE,56,32
 2332              		.local	_ZN12_GLOBAL__N_156adderCheckFailureBecauseOfExceptionIncludesCheckContentsE
 2333              		.comm	_ZN12_GLOBAL__N_156adderCheckFailureBecauseOfExceptionIncludesCheckContentsE,1,1
 2334              		.section	.rodata
 2335 0304 00000000 		.align 8
 2336              	.LC25:
 2337 0308 73747273 		.string	"strstr(reporter.lastFailedMessage, \"ThrowingFunction() == 1\")"
 2337      74722872 
 2337      65706F72 
 2337      7465722E 
 2337      6C617374 
 2338 0346 0000     		.align 8
 2339              	.LC26:
 2340 0348 556E6861 		.string	"Unhandled exception in CHECK(strstr(reporter.lastFailedMessage, \"ThrowingFunction() == 1
 2340      6E646C65 
 2340      64206578 
 2340      63657074 
 2340      696F6E20 
 2341              		.text
 2342 0dcb 90       		.align 2
 2344              	_ZNK12_GLOBAL__N_155TestCheckFailureBecauseOfExceptionIncludesCheckContents7RunImplEv:
 2345              	.LFB1131:
  85:TestCheckMacros.cpp **** {
 2346              		.loc 6 85 0
 2347              		.cfi_startproc
 2348              		.cfi_personality 0x9b,DW.ref.__gxx_personality_v0
 2349              		.cfi_lsda 0x1b,.LLSDA1131
 2350 0dcc 55       		pushq	%rbp
 2351              		.cfi_def_cfa_offset 16
 2352              		.cfi_offset 6, -16
 2353 0dcd 4889E5   		movq	%rsp, %rbp
 2354              		.cfi_def_cfa_register 6
 2355 0dd0 53       		pushq	%rbx
 2356 0dd1 4881ECA8 		subq	$2216, %rsp
 2356      080000
 2357              		.cfi_offset 3, -24
 2358 0dd8 4889BD58 		movq	%rdi, -2216(%rbp)
 2358      F7FFFF
 2359              		.loc 6 85 0
 2360 0ddf 64488B04 		movq	%fs:40, %rax
 2360      25280000 
 2360      00
 2361 0de8 488945E8 		movq	%rax, -24(%rbp)
 2362 0dec 31C0     		xorl	%eax, %eax
  86:TestCheckMacros.cpp ****     RecordingReporter reporter;
 2363              		.loc 6 86 0
 2364 0dee 488D85B0 		leaq	-2128(%rbp), %rax
 2364      F7FFFF
 2365 0df5 4889C7   		movq	%rax, %rdi
 2366 0df8 E8000000 		call	_ZN17RecordingReporterC1Ev
 2366      00
 2367              	.LBB24:
  87:TestCheckMacros.cpp ****     {
  88:TestCheckMacros.cpp ****         UnitTest::TestResults testResults(&reporter);
 2368              		.loc 6 88 0
 2369 0dfd 488D95B0 		leaq	-2128(%rbp), %rdx
 2369      F7FFFF
 2370 0e04 488D8570 		leaq	-2192(%rbp), %rax
 2370      F7FFFF
 2371 0e0b 4889D6   		movq	%rdx, %rsi
 2372 0e0e 4889C7   		movq	%rax, %rdi
 2373              	.LEHB60:
 2374 0e11 E8000000 		call	_ZN8UnitTest11TestResultsC1EPNS_12TestReporterE@PLT
 2374      00
  89:TestCheckMacros.cpp **** 		ScopedCurrentTest scopedResults(testResults);
 2375              		.loc 6 89 0
 2376 0e16 488D8D70 		leaq	-2192(%rbp), %rcx
 2376      F7FFFF
 2377 0e1d 488D8560 		leaq	-2208(%rbp), %rax
 2377      F7FFFF
 2378 0e24 BA000000 		movl	$0, %edx
 2378      00
 2379 0e29 4889CE   		movq	%rcx, %rsi
 2380 0e2c 4889C7   		movq	%rax, %rdi
 2381 0e2f E8000000 		call	_ZN17ScopedCurrentTestC1ERN8UnitTest11TestResultsEPKNS0_11TestDetailsE
 2381      00
 2382              	.LEHE60:
 2383              	.LEHB61:
  90:TestCheckMacros.cpp ****         CHECK(ThrowingFunction() == 1);
 2384              		.loc 6 90 0
 2385 0e34 E85FFCFF 		call	_ZN12_GLOBAL__N_116ThrowingFunctionEv
 2385      FF
 2386 0e39 83F801   		cmpl	$1, %eax
 2387 0e3c 0F94C0   		sete	%al
 2388 0e3f 0FB6C0   		movzbl	%al, %eax
 2389 0e42 89C7     		movl	%eax, %edi
 2390 0e44 E8000000 		call	_ZN8UnitTest5CheckIbEEbT_
 2390      00
 2391 0e49 83F001   		xorl	$1, %eax
 2392 0e4c 84C0     		testb	%al, %al
 2393 0e4e 7440     		je	.L113
 2394              		.loc 6 90 0 is_stmt 0 discriminator 2
 2395 0e50 E8000000 		call	_ZN8UnitTest11CurrentTest7ResultsEv@PLT
 2395      00
 2396 0e55 488B18   		movq	(%rax), %rbx
 2397 0e58 E8000000 		call	_ZN8UnitTest11CurrentTest7DetailsEv@PLT
 2397      00
 2398              		.loc 6 90 0 discriminator 3
 2399 0e5d 488B08   		movq	(%rax), %rcx
 2400 0e60 488D8590 		leaq	-2160(%rbp), %rax
 2400      F7FFFF
 2401 0e67 BA5A0000 		movl	$90, %edx
 2401      00
 2402 0e6c 4889CE   		movq	%rcx, %rsi
 2403 0e6f 4889C7   		movq	%rax, %rdi
 2404 0e72 E8000000 		call	_ZN8UnitTest11TestDetailsC1ERKS0_i@PLT
 2404      00
 2405              		.loc 6 90 0 discriminator 5
 2406 0e77 488D8590 		leaq	-2160(%rbp), %rax
 2406      F7FFFF
 2407 0e7e 488D1500 		leaq	.LC22(%rip), %rdx
 2407      000000
 2408 0e85 4889C6   		movq	%rax, %rsi
 2409 0e88 4889DF   		movq	%rbx, %rdi
 2410 0e8b E8000000 		call	_ZN8UnitTest11TestResults13OnTestFailureERKNS_11TestDetailsEPKc@PLT
 2410      00
 2411              	.LEHE61:
 2412              	.L113:
  89:TestCheckMacros.cpp **** 		ScopedCurrentTest scopedResults(testResults);
 2413              		.loc 6 89 0 is_stmt 1
 2414 0e90 488D8560 		leaq	-2208(%rbp), %rax
 2414      F7FFFF
 2415 0e97 4889C7   		movq	%rax, %rdi
 2416              	.LEHB62:
 2417 0e9a E8000000 		call	_ZN17ScopedCurrentTestD1Ev
 2417      00
 2418              	.LEHE62:
 2419              	.LBE24:
  91:TestCheckMacros.cpp ****     }
  92:TestCheckMacros.cpp **** 
  93:TestCheckMacros.cpp ****     CHECK(strstr(reporter.lastFailedMessage, "ThrowingFunction() == 1"));
 2420              		.loc 6 93 0
 2421 0e9f 488D85B0 		leaq	-2128(%rbp), %rax
 2421      F7FFFF
 2422 0ea6 48051405 		addq	$1300, %rax
 2422      0000
 2423 0eac 488D3500 		leaq	.LC22(%rip), %rsi
 2423      000000
 2424 0eb3 4889C7   		movq	%rax, %rdi
 2425 0eb6 E8000000 		call	strstr@PLT
 2425      00
 2426 0ebb 4889C7   		movq	%rax, %rdi
 2427 0ebe E8000000 		call	_ZN8UnitTest5CheckIPcEEbT_
 2427      00
 2428 0ec3 83F001   		xorl	$1, %eax
 2429 0ec6 84C0     		testb	%al, %al
 2430 0ec8 7440     		je	.L114
 2431              	.LEHB63:
 2432              		.loc 6 93 0 is_stmt 0 discriminator 1
 2433 0eca E8000000 		call	_ZN8UnitTest11CurrentTest7ResultsEv@PLT
 2433      00
 2434 0ecf 488B18   		movq	(%rax), %rbx
 2435 0ed2 E8000000 		call	_ZN8UnitTest11CurrentTest7DetailsEv@PLT
 2435      00
 2436              		.loc 6 93 0 discriminator 2
 2437 0ed7 488B08   		movq	(%rax), %rcx
 2438 0eda 488D8590 		leaq	-2160(%rbp), %rax
 2438      F7FFFF
 2439 0ee1 BA5D0000 		movl	$93, %edx
 2439      00
 2440 0ee6 4889CE   		movq	%rcx, %rsi
 2441 0ee9 4889C7   		movq	%rax, %rdi
 2442 0eec E8000000 		call	_ZN8UnitTest11TestDetailsC1ERKS0_i@PLT
 2442      00
 2443              		.loc 6 93 0 discriminator 4
 2444 0ef1 488D8590 		leaq	-2160(%rbp), %rax
 2444      F7FFFF
 2445 0ef8 488D1500 		leaq	.LC25(%rip), %rdx
 2445      000000
 2446 0eff 4889C6   		movq	%rax, %rsi
 2447 0f02 4889DF   		movq	%rbx, %rdi
 2448 0f05 E8000000 		call	_ZN8UnitTest11TestResults13OnTestFailureERKNS_11TestDetailsEPKc@PLT
 2448      00
 2449              	.LEHE63:
 2450              	.L114:
  86:TestCheckMacros.cpp ****     {
 2451              		.loc 6 86 0 is_stmt 1
 2452 0f0a 488D85B0 		leaq	-2128(%rbp), %rax
 2452      F7FFFF
 2453 0f11 4889C7   		movq	%rax, %rdi
 2454              	.LEHB64:
 2455 0f14 E8000000 		call	_ZN17RecordingReporterD1Ev
 2455      00
 2456              	.LEHE64:
  94:TestCheckMacros.cpp **** }
 2457              		.loc 6 94 0
 2458 0f19 90       		nop
 2459 0f1a 488B45E8 		movq	-24(%rbp), %rax
 2460 0f1e 64483304 		xorq	%fs:40, %rax
 2460      25280000 
 2460      00
 2461 0f27 0F84F300 		je	.L121
 2461      0000
 2462 0f2d E9E90000 		jmp	.L128
 2462      00
 2463              	.L122:
 2464              	.LBB25:
  90:TestCheckMacros.cpp ****     }
 2465              		.loc 6 90 0
 2466 0f32 4889C7   		movq	%rax, %rdi
 2467 0f35 E8000000 		call	__cxa_begin_catch@PLT
 2467      00
 2468              	.LEHB65:
 2469 0f3a E8000000 		call	_ZN8UnitTest11CurrentTest7ResultsEv@PLT
 2469      00
 2470 0f3f 488B18   		movq	(%rax), %rbx
 2471 0f42 E8000000 		call	_ZN8UnitTest11CurrentTest7DetailsEv@PLT
 2471      00
  90:TestCheckMacros.cpp ****     }
 2472              		.loc 6 90 0 is_stmt 0 discriminator 9
 2473 0f47 488B08   		movq	(%rax), %rcx
 2474 0f4a 488D8590 		leaq	-2160(%rbp), %rax
 2474      F7FFFF
 2475 0f51 BA5A0000 		movl	$90, %edx
 2475      00
 2476 0f56 4889CE   		movq	%rcx, %rsi
 2477 0f59 4889C7   		movq	%rax, %rdi
 2478 0f5c E8000000 		call	_ZN8UnitTest11TestDetailsC1ERKS0_i@PLT
 2478      00
  90:TestCheckMacros.cpp ****     }
 2479              		.loc 6 90 0 discriminator 13
 2480 0f61 488D8590 		leaq	-2160(%rbp), %rax
 2480      F7FFFF
 2481 0f68 488D1500 		leaq	.LC23(%rip), %rdx
 2481      000000
 2482 0f6f 4889C6   		movq	%rax, %rsi
 2483 0f72 4889DF   		movq	%rbx, %rdi
 2484 0f75 E8000000 		call	_ZN8UnitTest11TestResults13OnTestFailureERKNS_11TestDetailsEPKc@PLT
 2484      00
 2485              	.LEHE65:
 2486              	.LEHB66:
  90:TestCheckMacros.cpp ****     }
 2487              		.loc 6 90 0 discriminator 15
 2488 0f7a E8000000 		call	__cxa_end_catch@PLT
 2488      00
 2489              	.LEHE66:
  90:TestCheckMacros.cpp ****     }
 2490              		.loc 6 90 0
 2491 0f7f E90CFFFF 		jmp	.L113
 2491      FF
 2492              	.L124:
 2493 0f84 4889C3   		movq	%rax, %rbx
 2494 0f87 E8000000 		call	__cxa_end_catch@PLT
 2494      00
 2495 0f8c EB03     		jmp	.L117
 2496              	.L123:
 2497 0f8e 4889C3   		movq	%rax, %rbx
 2498              	.L117:
  89:TestCheckMacros.cpp ****         CHECK(ThrowingFunction() == 1);
 2499              		.loc 6 89 0 is_stmt 1
 2500 0f91 488D8560 		leaq	-2208(%rbp), %rax
 2500      F7FFFF
 2501 0f98 4889C7   		movq	%rax, %rdi
 2502 0f9b E8000000 		call	_ZN17ScopedCurrentTestD1Ev
 2502      00
 2503 0fa0 EB5F     		jmp	.L118
 2504              	.L126:
 2505              	.LBE25:
  93:TestCheckMacros.cpp **** }
 2506              		.loc 6 93 0
 2507 0fa2 4889C7   		movq	%rax, %rdi
 2508 0fa5 E8000000 		call	__cxa_begin_catch@PLT
 2508      00
 2509              	.LEHB67:
 2510 0faa E8000000 		call	_ZN8UnitTest11CurrentTest7ResultsEv@PLT
 2510      00
 2511 0faf 488B18   		movq	(%rax), %rbx
 2512 0fb2 E8000000 		call	_ZN8UnitTest11CurrentTest7DetailsEv@PLT
 2512      00
  93:TestCheckMacros.cpp **** }
 2513              		.loc 6 93 0 is_stmt 0 discriminator 8
 2514 0fb7 488B08   		movq	(%rax), %rcx
 2515 0fba 488D8590 		leaq	-2160(%rbp), %rax
 2515      F7FFFF
 2516 0fc1 BA5D0000 		movl	$93, %edx
 2516      00
 2517 0fc6 4889CE   		movq	%rcx, %rsi
 2518 0fc9 4889C7   		movq	%rax, %rdi
 2519 0fcc E8000000 		call	_ZN8UnitTest11TestDetailsC1ERKS0_i@PLT
 2519      00
  93:TestCheckMacros.cpp **** }
 2520              		.loc 6 93 0 discriminator 12
 2521 0fd1 488D8590 		leaq	-2160(%rbp), %rax
 2521      F7FFFF
 2522 0fd8 488D1500 		leaq	.LC26(%rip), %rdx
 2522      000000
 2523 0fdf 4889C6   		movq	%rax, %rsi
 2524 0fe2 4889DF   		movq	%rbx, %rdi
 2525 0fe5 E8000000 		call	_ZN8UnitTest11TestResults13OnTestFailureERKNS_11TestDetailsEPKc@PLT
 2525      00
 2526              	.LEHE67:
 2527              	.LEHB68:
  93:TestCheckMacros.cpp **** }
 2528              		.loc 6 93 0 discriminator 14
 2529 0fea E8000000 		call	__cxa_end_catch@PLT
 2529      00
 2530              	.LEHE68:
  93:TestCheckMacros.cpp **** }
 2531              		.loc 6 93 0
 2532 0fef E916FFFF 		jmp	.L114
 2532      FF
 2533              	.L127:
 2534 0ff4 4889C3   		movq	%rax, %rbx
 2535 0ff7 E8000000 		call	__cxa_end_catch@PLT
 2535      00
 2536 0ffc EB03     		jmp	.L118
 2537              	.L125:
 2538 0ffe 4889C3   		movq	%rax, %rbx
 2539              	.L118:
  86:TestCheckMacros.cpp ****     {
 2540              		.loc 6 86 0 is_stmt 1
 2541 1001 488D85B0 		leaq	-2128(%rbp), %rax
 2541      F7FFFF
 2542 1008 4889C7   		movq	%rax, %rdi
 2543 100b E8000000 		call	_ZN17RecordingReporterD1Ev
 2543      00
 2544 1010 4889D8   		movq	%rbx, %rax
 2545 1013 4889C7   		movq	%rax, %rdi
 2546              	.LEHB69:
 2547 1016 E8000000 		call	_Unwind_Resume@PLT
 2547      00
 2548              	.LEHE69:
 2549              	.L128:
 2550              		.loc 6 94 0
 2551 101b E8000000 		call	__stack_chk_fail@PLT
 2551      00
 2552              	.L121:
 2553 1020 4881C4A8 		addq	$2216, %rsp
 2553      080000
 2554 1027 5B       		popq	%rbx
 2555 1028 5D       		popq	%rbp
 2556              		.cfi_def_cfa 7, 8
 2557 1029 C3       		ret
 2558              		.cfi_endproc
 2559              	.LFE1131:
 2560              		.section	.gcc_except_table
 2561              		.align 4
 2562              	.LLSDA1131:
 2563 0178 FF       		.byte	0xff
 2564 0179 9B       		.byte	0x9b
 2565 017a 41       		.uleb128 .LLSDATT1131-.LLSDATTD1131
 2566              	.LLSDATTD1131:
 2567 017b 01       		.byte	0x1
 2568 017c 38       		.uleb128 .LLSDACSE1131-.LLSDACSB1131
 2569              	.LLSDACSB1131:
 2570 017d 45       		.uleb128 .LEHB60-.LFB1131
 2571 017e 23       		.uleb128 .LEHE60-.LEHB60
 2572 017f B204     		.uleb128 .L125-.LFB1131
 2573 0181 00       		.uleb128 0
 2574 0182 68       		.uleb128 .LEHB61-.LFB1131
 2575 0183 5C       		.uleb128 .LEHE61-.LEHB61
 2576 0184 E602     		.uleb128 .L122-.LFB1131
 2577 0186 01       		.uleb128 0x1
 2578 0187 CE01     		.uleb128 .LEHB62-.LFB1131
 2579 0189 05       		.uleb128 .LEHE62-.LEHB62
 2580 018a B204     		.uleb128 .L125-.LFB1131
 2581 018c 00       		.uleb128 0
 2582 018d FE01     		.uleb128 .LEHB63-.LFB1131
 2583 018f 40       		.uleb128 .LEHE63-.LEHB63
 2584 0190 D603     		.uleb128 .L126-.LFB1131
 2585 0192 01       		.uleb128 0x1
 2586 0193 C802     		.uleb128 .LEHB64-.LFB1131
 2587 0195 05       		.uleb128 .LEHE64-.LEHB64
 2588 0196 00       		.uleb128 0
 2589 0197 00       		.uleb128 0
 2590 0198 EE02     		.uleb128 .LEHB65-.LFB1131
 2591 019a 40       		.uleb128 .LEHE65-.LEHB65
 2592 019b B803     		.uleb128 .L124-.LFB1131
 2593 019d 00       		.uleb128 0
 2594 019e AE03     		.uleb128 .LEHB66-.LFB1131
 2595 01a0 05       		.uleb128 .LEHE66-.LEHB66
 2596 01a1 C203     		.uleb128 .L123-.LFB1131
 2597 01a3 00       		.uleb128 0
 2598 01a4 DE03     		.uleb128 .LEHB67-.LFB1131
 2599 01a6 40       		.uleb128 .LEHE67-.LEHB67
 2600 01a7 A804     		.uleb128 .L127-.LFB1131
 2601 01a9 00       		.uleb128 0
 2602 01aa 9E04     		.uleb128 .LEHB68-.LFB1131
 2603 01ac 05       		.uleb128 .LEHE68-.LEHB68
 2604 01ad B204     		.uleb128 .L125-.LFB1131
 2605 01af 00       		.uleb128 0
 2606 01b0 CA04     		.uleb128 .LEHB69-.LFB1131
 2607 01b2 05       		.uleb128 .LEHE69-.LEHB69
 2608 01b3 00       		.uleb128 0
 2609 01b4 00       		.uleb128 0
 2610              	.LLSDACSE1131:
 2611 01b5 01       		.byte	0x1
 2612 01b6 00       		.byte	0
 2613 01b7 00       		.align 4
 2614 01b8 00000000 		.long	0
 2615              	
 2616              	.LLSDATT1131:
 2617              		.text
 2619              		.section	.rodata
 2620              	.LC27:
 2621 03a4 43686563 		.string	"CheckEqualSucceedsOnEqual"
 2621      6B457175 
 2621      616C5375 
 2621      63636565 
 2621      64734F6E 
 2622              		.text
 2623              		.align 2
 2625              	_ZN12_GLOBAL__N_129TestCheckEqualSucceedsOnEqualC2Ev:
 2626              	.LFB1133:
  95:TestCheckMacros.cpp **** 
  96:TestCheckMacros.cpp **** TEST(CheckEqualSucceedsOnEqual)
 2627              		.loc 6 96 0
 2628              		.cfi_startproc
 2629 102a 55       		pushq	%rbp
 2630              		.cfi_def_cfa_offset 16
 2631              		.cfi_offset 6, -16
 2632 102b 4889E5   		movq	%rsp, %rbp
 2633              		.cfi_def_cfa_register 6
 2634 102e 53       		pushq	%rbx
 2635 102f 4883EC18 		subq	$24, %rsp
 2636              		.cfi_offset 3, -24
 2637 1033 48897DE8 		movq	%rdi, -24(%rbp)
 2638              	.LBB26:
 2639              		.loc 6 96 0
 2640 1037 488B5DE8 		movq	-24(%rbp), %rbx
 2641 103b E8000000 		call	_ZN13UnitTestSuite12GetSuiteNameEv
 2641      00
 2642 1040 41B86000 		movl	$96, %r8d
 2642      0000
 2643 1046 488D0D00 		leaq	.LC2(%rip), %rcx
 2643      000000
 2644 104d 4889C2   		movq	%rax, %rdx
 2645 1050 488D3500 		leaq	.LC27(%rip), %rsi
 2645      000000
 2646 1057 4889DF   		movq	%rbx, %rdi
 2647 105a E8000000 		call	_ZN8UnitTest4TestC2EPKcS2_S2_i@PLT
 2647      00
 2648 105f 488D1500 		leaq	16+_ZTVN12_GLOBAL__N_129TestCheckEqualSucceedsOnEqualE(%rip), %rdx
 2648      000000
 2649 1066 488B45E8 		movq	-24(%rbp), %rax
 2650 106a 488910   		movq	%rdx, (%rax)
 2651              	.LBE26:
 2652 106d 90       		nop
 2653 106e 4883C418 		addq	$24, %rsp
 2654 1072 5B       		popq	%rbx
 2655 1073 5D       		popq	%rbp
 2656              		.cfi_def_cfa 7, 8
 2657 1074 C3       		ret
 2658              		.cfi_endproc
 2659              	.LFE1133:
 2661              		.set	_ZN12_GLOBAL__N_129TestCheckEqualSucceedsOnEqualC1Ev,_ZN12_GLOBAL__N_129TestCheckEqualSucceed
 2662              		.local	_ZN12_GLOBAL__N_137testCheckEqualSucceedsOnEqualInstanceE
 2663              		.comm	_ZN12_GLOBAL__N_137testCheckEqualSucceedsOnEqualInstanceE,56,32
 2664              		.local	_ZN12_GLOBAL__N_130adderCheckEqualSucceedsOnEqualE
 2665              		.comm	_ZN12_GLOBAL__N_130adderCheckEqualSucceedsOnEqualE,1,1
 2666              		.section	.rodata
 2667 03be 0000     		.align 8
 2668              	.LC28:
 2669 03c0 556E6861 		.string	"Unhandled exception in CHECK_EQUAL(1, 1)"
 2669      6E646C65 
 2669      64206578 
 2669      63657074 
 2669      696F6E20 
 2670              		.text
 2671 1075 90       		.align 2
 2673              	_ZNK12_GLOBAL__N_129TestCheckEqualSucceedsOnEqual7RunImplEv:
 2674              	.LFB1135:
  97:TestCheckMacros.cpp **** {
 2675              		.loc 6 97 0
 2676              		.cfi_startproc
 2677              		.cfi_personality 0x9b,DW.ref.__gxx_personality_v0
 2678              		.cfi_lsda 0x1b,.LLSDA1135
 2679 1076 55       		pushq	%rbp
 2680              		.cfi_def_cfa_offset 16
 2681              		.cfi_offset 6, -16
 2682 1077 4889E5   		movq	%rsp, %rbp
 2683              		.cfi_def_cfa_register 6
 2684 107a 53       		pushq	%rbx
 2685 107b 4881ECB8 		subq	$2232, %rsp
 2685      080000
 2686              		.cfi_offset 3, -24
 2687 1082 4889BD48 		movq	%rdi, -2232(%rbp)
 2687      F7FFFF
 2688              		.loc 6 97 0
 2689 1089 64488B04 		movq	%fs:40, %rax
 2689      25280000 
 2689      00
 2690 1092 488945E8 		movq	%rax, -24(%rbp)
 2691 1096 31C0     		xorl	%eax, %eax
  98:TestCheckMacros.cpp ****     bool failure = true;
 2692              		.loc 6 98 0
 2693 1098 C68557F7 		movb	$1, -2217(%rbp)
 2693      FFFF01
 2694              	.LBB27:
  99:TestCheckMacros.cpp ****     {
 100:TestCheckMacros.cpp ****         RecordingReporter reporter;
 2695              		.loc 6 100 0
 2696 109f 488D85B0 		leaq	-2128(%rbp), %rax
 2696      F7FFFF
 2697 10a6 4889C7   		movq	%rax, %rdi
 2698 10a9 E8000000 		call	_ZN17RecordingReporterC1Ev
 2698      00
 101:TestCheckMacros.cpp ****         UnitTest::TestResults testResults(&reporter);
 2699              		.loc 6 101 0
 2700 10ae 488D95B0 		leaq	-2128(%rbp), %rdx
 2700      F7FFFF
 2701 10b5 488D8570 		leaq	-2192(%rbp), %rax
 2701      F7FFFF
 2702 10bc 4889D6   		movq	%rdx, %rsi
 2703 10bf 4889C7   		movq	%rax, %rdi
 2704              	.LEHB70:
 2705 10c2 E8000000 		call	_ZN8UnitTest11TestResultsC1EPNS_12TestReporterE@PLT
 2705      00
 102:TestCheckMacros.cpp **** 		ScopedCurrentTest scopedResults(testResults);
 2706              		.loc 6 102 0
 2707 10c7 488D8D70 		leaq	-2192(%rbp), %rcx
 2707      F7FFFF
 2708 10ce 488D8560 		leaq	-2208(%rbp), %rax
 2708      F7FFFF
 2709 10d5 BA000000 		movl	$0, %edx
 2709      00
 2710 10da 4889CE   		movq	%rcx, %rsi
 2711 10dd 4889C7   		movq	%rax, %rdi
 2712 10e0 E8000000 		call	_ZN17ScopedCurrentTestC1ERN8UnitTest11TestResultsEPKNS0_11TestDetailsE
 2712      00
 2713              	.LEHE70:
 2714              	.LEHB71:
 103:TestCheckMacros.cpp ****         CHECK_EQUAL(1, 1);
 2715              		.loc 6 103 0
 2716 10e5 E8000000 		call	_ZN8UnitTest11CurrentTest7DetailsEv@PLT
 2716      00
 2717 10ea 488B08   		movq	(%rax), %rcx
 2718 10ed 488D8590 		leaq	-2160(%rbp), %rax
 2718      F7FFFF
 2719 10f4 BA670000 		movl	$103, %edx
 2719      00
 2720 10f9 4889CE   		movq	%rcx, %rsi
 2721 10fc 4889C7   		movq	%rax, %rdi
 2722 10ff E8000000 		call	_ZN8UnitTest11TestDetailsC1ERKS0_i@PLT
 2722      00
 2723              	.LEHE71:
 2724              		.loc 6 103 0 is_stmt 0 discriminator 2
 2725 1104 C7855CF7 		movl	$1, -2212(%rbp)
 2725      FFFF0100 
 2725      0000
 2726 110e C78558F7 		movl	$1, -2216(%rbp)
 2726      FFFF0100 
 2726      0000
 2727              	.LEHB72:
 2728 1118 E8000000 		call	_ZN8UnitTest11CurrentTest7ResultsEv@PLT
 2728      00
 2729 111d 488B00   		movq	(%rax), %rax
 2730 1120 488D8D90 		leaq	-2160(%rbp), %rcx
 2730      F7FFFF
 2731 1127 488D955C 		leaq	-2212(%rbp), %rdx
 2731      F7FFFF
 2732 112e 488DB558 		leaq	-2216(%rbp), %rsi
 2732      F7FFFF
 2733 1135 4889C7   		movq	%rax, %rdi
 2734 1138 E8000000 		call	_ZN8UnitTest10CheckEqualIiiEEvRNS_11TestResultsERKT_RKT0_RKNS_11TestDetailsE
 2734      00
 2735              	.LEHE72:
 2736              	.L134:
 104:TestCheckMacros.cpp ****         failure = (testResults.GetFailureCount() > 0);
 2737              		.loc 6 104 0 is_stmt 1
 2738 113d 488D8570 		leaq	-2192(%rbp), %rax
 2738      F7FFFF
 2739 1144 4889C7   		movq	%rax, %rdi
 2740              	.LEHB73:
 2741 1147 E8000000 		call	_ZNK8UnitTest11TestResults15GetFailureCountEv@PLT
 2741      00
 2742              	.LEHE73:
 2743 114c 85C0     		testl	%eax, %eax
 2744 114e 0F9FC0   		setg	%al
 2745 1151 888557F7 		movb	%al, -2217(%rbp)
 2745      FFFF
 102:TestCheckMacros.cpp **** 		ScopedCurrentTest scopedResults(testResults);
 2746              		.loc 6 102 0
 2747 1157 488D8560 		leaq	-2208(%rbp), %rax
 2747      F7FFFF
 2748 115e 4889C7   		movq	%rax, %rdi
 2749              	.LEHB74:
 2750 1161 E8000000 		call	_ZN17ScopedCurrentTestD1Ev
 2750      00
 2751              	.LEHE74:
 100:TestCheckMacros.cpp ****         UnitTest::TestResults testResults(&reporter);
 2752              		.loc 6 100 0
 2753 1166 488D85B0 		leaq	-2128(%rbp), %rax
 2753      F7FFFF
 2754 116d 4889C7   		movq	%rax, %rdi
 2755              	.LEHB75:
 2756 1170 E8000000 		call	_ZN17RecordingReporterD1Ev
 2756      00
 2757              	.LEHE75:
 2758              	.LBE27:
 105:TestCheckMacros.cpp ****     }
 106:TestCheckMacros.cpp **** 
 107:TestCheckMacros.cpp ****     CHECK(!failure);
 2759              		.loc 6 107 0
 2760 1175 0FB68557 		movzbl	-2217(%rbp), %eax
 2760      F7FFFF
 2761 117c 83F001   		xorl	$1, %eax
 2762 117f 0FB6C0   		movzbl	%al, %eax
 2763 1182 89C7     		movl	%eax, %edi
 2764 1184 E8000000 		call	_ZN8UnitTest5CheckIbEEbT_
 2764      00
 2765 1189 83F001   		xorl	$1, %eax
 2766 118c 84C0     		testb	%al, %al
 2767 118e 0F843601 		je	.L148
 2767      0000
 2768              	.LEHB76:
 2769              		.loc 6 107 0 is_stmt 0 discriminator 1
 2770 1194 E8000000 		call	_ZN8UnitTest11CurrentTest7ResultsEv@PLT
 2770      00
 2771 1199 488B18   		movq	(%rax), %rbx
 2772 119c E8000000 		call	_ZN8UnitTest11CurrentTest7DetailsEv@PLT
 2772      00
 2773              		.loc 6 107 0 discriminator 2
 2774 11a1 488B08   		movq	(%rax), %rcx
 2775 11a4 488D8590 		leaq	-2160(%rbp), %rax
 2775      F7FFFF
 2776 11ab BA6B0000 		movl	$107, %edx
 2776      00
 2777 11b0 4889CE   		movq	%rcx, %rsi
 2778 11b3 4889C7   		movq	%rax, %rdi
 2779 11b6 E8000000 		call	_ZN8UnitTest11TestDetailsC1ERKS0_i@PLT
 2779      00
 2780              		.loc 6 107 0 discriminator 4
 2781 11bb 488D8590 		leaq	-2160(%rbp), %rax
 2781      F7FFFF
 2782 11c2 488D1500 		leaq	.LC5(%rip), %rdx
 2782      000000
 2783 11c9 4889C6   		movq	%rax, %rsi
 2784 11cc 4889DF   		movq	%rbx, %rdi
 2785 11cf E8000000 		call	_ZN8UnitTest11TestResults13OnTestFailureERKNS_11TestDetailsEPKc@PLT
 2785      00
 2786              	.LEHE76:
 108:TestCheckMacros.cpp **** }
 2787              		.loc 6 108 0 is_stmt 1
 2788 11d4 E9F10000 		jmp	.L148
 2788      00
 2789              	.L143:
 2790 11d9 EB00     		jmp	.L133
 2791              	.L142:
 2792              	.L133:
 2793              	.LBB28:
 103:TestCheckMacros.cpp ****         failure = (testResults.GetFailureCount() > 0);
 2794              		.loc 6 103 0
 2795 11db 4889C7   		movq	%rax, %rdi
 2796 11de E8000000 		call	__cxa_begin_catch@PLT
 2796      00
 2797              	.LEHB77:
 2798 11e3 E8000000 		call	_ZN8UnitTest11CurrentTest7ResultsEv@PLT
 2798      00
 2799 11e8 488B18   		movq	(%rax), %rbx
 2800 11eb E8000000 		call	_ZN8UnitTest11CurrentTest7DetailsEv@PLT
 2800      00
 103:TestCheckMacros.cpp ****         failure = (testResults.GetFailureCount() > 0);
 2801              		.loc 6 103 0 is_stmt 0 discriminator 8
 2802 11f0 488B08   		movq	(%rax), %rcx
 2803 11f3 488D8590 		leaq	-2160(%rbp), %rax
 2803      F7FFFF
 2804 11fa BA670000 		movl	$103, %edx
 2804      00
 2805 11ff 4889CE   		movq	%rcx, %rsi
 2806 1202 4889C7   		movq	%rax, %rdi
 2807 1205 E8000000 		call	_ZN8UnitTest11TestDetailsC1ERKS0_i@PLT
 2807      00
 103:TestCheckMacros.cpp ****         failure = (testResults.GetFailureCount() > 0);
 2808              		.loc 6 103 0 discriminator 12
 2809 120a 488D8590 		leaq	-2160(%rbp), %rax
 2809      F7FFFF
 2810 1211 488D1500 		leaq	.LC28(%rip), %rdx
 2810      000000
 2811 1218 4889C6   		movq	%rax, %rsi
 2812 121b 4889DF   		movq	%rbx, %rdi
 2813 121e E8000000 		call	_ZN8UnitTest11TestResults13OnTestFailureERKNS_11TestDetailsEPKc@PLT
 2813      00
 2814              	.LEHE77:
 2815              	.LEHB78:
 103:TestCheckMacros.cpp ****         failure = (testResults.GetFailureCount() > 0);
 2816              		.loc 6 103 0 discriminator 14
 2817 1223 E8000000 		call	__cxa_end_catch@PLT
 2817      00
 2818              	.LEHE78:
 103:TestCheckMacros.cpp ****         failure = (testResults.GetFailureCount() > 0);
 2819              		.loc 6 103 0
 2820 1228 E910FFFF 		jmp	.L134
 2820      FF
 2821              	.L145:
 2822 122d 4889C3   		movq	%rax, %rbx
 2823 1230 E8000000 		call	__cxa_end_catch@PLT
 2823      00
 2824 1235 EB03     		jmp	.L136
 2825              	.L144:
 2826 1237 4889C3   		movq	%rax, %rbx
 2827              	.L136:
 102:TestCheckMacros.cpp ****         CHECK_EQUAL(1, 1);
 2828              		.loc 6 102 0 is_stmt 1
 2829 123a 488D8560 		leaq	-2208(%rbp), %rax
 2829      F7FFFF
 2830 1241 4889C7   		movq	%rax, %rdi
 2831 1244 E8000000 		call	_ZN17ScopedCurrentTestD1Ev
 2831      00
 2832 1249 EB03     		jmp	.L137
 2833              	.L141:
 2834 124b 4889C3   		movq	%rax, %rbx
 2835              	.L137:
 100:TestCheckMacros.cpp ****         UnitTest::TestResults testResults(&reporter);
 2836              		.loc 6 100 0
 2837 124e 488D85B0 		leaq	-2128(%rbp), %rax
 2837      F7FFFF
 2838 1255 4889C7   		movq	%rax, %rdi
 2839 1258 E8000000 		call	_ZN17RecordingReporterD1Ev
 2839      00
 2840 125d 4889D8   		movq	%rbx, %rax
 2841 1260 4889C7   		movq	%rax, %rdi
 2842              	.LEHB79:
 2843 1263 E8000000 		call	_Unwind_Resume@PLT
 2843      00
 2844              	.LEHE79:
 2845              	.L146:
 2846              	.LBE28:
 107:TestCheckMacros.cpp **** }
 2847              		.loc 6 107 0
 2848 1268 4889C7   		movq	%rax, %rdi
 2849 126b E8000000 		call	__cxa_begin_catch@PLT
 2849      00
 2850              	.LEHB80:
 2851 1270 E8000000 		call	_ZN8UnitTest11CurrentTest7ResultsEv@PLT
 2851      00
 2852 1275 488B18   		movq	(%rax), %rbx
 2853 1278 E8000000 		call	_ZN8UnitTest11CurrentTest7DetailsEv@PLT
 2853      00
 107:TestCheckMacros.cpp **** }
 2854              		.loc 6 107 0 is_stmt 0 discriminator 8
 2855 127d 488B08   		movq	(%rax), %rcx
 2856 1280 488D8590 		leaq	-2160(%rbp), %rax
 2856      F7FFFF
 2857 1287 BA6B0000 		movl	$107, %edx
 2857      00
 2858 128c 4889CE   		movq	%rcx, %rsi
 2859 128f 4889C7   		movq	%rax, %rdi
 2860 1292 E8000000 		call	_ZN8UnitTest11TestDetailsC1ERKS0_i@PLT
 2860      00
 107:TestCheckMacros.cpp **** }
 2861              		.loc 6 107 0 discriminator 12
 2862 1297 488D8590 		leaq	-2160(%rbp), %rax
 2862      F7FFFF
 2863 129e 488D1500 		leaq	.LC7(%rip), %rdx
 2863      000000
 2864 12a5 4889C6   		movq	%rax, %rsi
 2865 12a8 4889DF   		movq	%rbx, %rdi
 2866 12ab E8000000 		call	_ZN8UnitTest11TestResults13OnTestFailureERKNS_11TestDetailsEPKc@PLT
 2866      00
 2867              	.LEHE80:
 2868              	.LEHB81:
 107:TestCheckMacros.cpp **** }
 2869              		.loc 6 107 0 discriminator 14
 2870 12b0 E8000000 		call	__cxa_end_catch@PLT
 2870      00
 2871              	.LEHE81:
 2872              		.loc 6 108 0 is_stmt 1 discriminator 14
 2873 12b5 EB13     		jmp	.L148
 2874              	.L147:
 2875 12b7 4889C3   		movq	%rax, %rbx
 107:TestCheckMacros.cpp **** }
 2876              		.loc 6 107 0
 2877 12ba E8000000 		call	__cxa_end_catch@PLT
 2877      00
 2878 12bf 4889D8   		movq	%rbx, %rax
 2879 12c2 4889C7   		movq	%rax, %rdi
 2880              	.LEHB82:
 2881 12c5 E8000000 		call	_Unwind_Resume@PLT
 2881      00
 2882              	.LEHE82:
 2883              	.L148:
 2884              		.loc 6 108 0
 2885 12ca 90       		nop
 2886 12cb 488B45E8 		movq	-24(%rbp), %rax
 2887 12cf 64483304 		xorq	%fs:40, %rax
 2887      25280000 
 2887      00
 2888 12d8 7405     		je	.L140
 2889 12da E8000000 		call	__stack_chk_fail@PLT
 2889      00
 2890              	.L140:
 2891 12df 4881C4B8 		addq	$2232, %rsp
 2891      080000
 2892 12e6 5B       		popq	%rbx
 2893 12e7 5D       		popq	%rbp
 2894              		.cfi_def_cfa 7, 8
 2895 12e8 C3       		ret
 2896              		.cfi_endproc
 2897              	.LFE1135:
 2898              		.section	.gcc_except_table
 2899              		.align 4
 2900              	.LLSDA1135:
 2901 01bc FF       		.byte	0xff
 2902 01bd 9B       		.byte	0x9b
 2903 01be 51       		.uleb128 .LLSDATT1135-.LLSDATTD1135
 2904              	.LLSDATTD1135:
 2905 01bf 01       		.byte	0x1
 2906 01c0 48       		.uleb128 .LLSDACSE1135-.LLSDACSB1135
 2907              	.LLSDACSB1135:
 2908 01c1 4C       		.uleb128 .LEHB70-.LFB1135
 2909 01c2 23       		.uleb128 .LEHE70-.LEHB70
 2910 01c3 D503     		.uleb128 .L141-.LFB1135
 2911 01c5 00       		.uleb128 0
 2912 01c6 6F       		.uleb128 .LEHB71-.LFB1135
 2913 01c7 1F       		.uleb128 .LEHE71-.LEHB71
 2914 01c8 E502     		.uleb128 .L142-.LFB1135
 2915 01ca 01       		.uleb128 0x1
 2916 01cb A201     		.uleb128 .LEHB72-.LFB1135
 2917 01cd 25       		.uleb128 .LEHE72-.LEHB72
 2918 01ce E302     		.uleb128 .L143-.LFB1135
 2919 01d0 01       		.uleb128 0x1
 2920 01d1 D101     		.uleb128 .LEHB73-.LFB1135
 2921 01d3 05       		.uleb128 .LEHE73-.LEHB73
 2922 01d4 C103     		.uleb128 .L144-.LFB1135
 2923 01d6 00       		.uleb128 0
 2924 01d7 EB01     		.uleb128 .LEHB74-.LFB1135
 2925 01d9 05       		.uleb128 .LEHE74-.LEHB74
 2926 01da D503     		.uleb128 .L141-.LFB1135
 2927 01dc 00       		.uleb128 0
 2928 01dd FA01     		.uleb128 .LEHB75-.LFB1135
 2929 01df 05       		.uleb128 .LEHE75-.LEHB75
 2930 01e0 00       		.uleb128 0
 2931 01e1 00       		.uleb128 0
 2932 01e2 9E02     		.uleb128 .LEHB76-.LFB1135
 2933 01e4 40       		.uleb128 .LEHE76-.LEHB76
 2934 01e5 F203     		.uleb128 .L146-.LFB1135
 2935 01e7 01       		.uleb128 0x1
 2936 01e8 ED02     		.uleb128 .LEHB77-.LFB1135
 2937 01ea 40       		.uleb128 .LEHE77-.LEHB77
 2938 01eb B703     		.uleb128 .L145-.LFB1135
 2939 01ed 00       		.uleb128 0
 2940 01ee AD03     		.uleb128 .LEHB78-.LFB1135
 2941 01f0 05       		.uleb128 .LEHE78-.LEHB78
 2942 01f1 C103     		.uleb128 .L144-.LFB1135
 2943 01f3 00       		.uleb128 0
 2944 01f4 ED03     		.uleb128 .LEHB79-.LFB1135
 2945 01f6 05       		.uleb128 .LEHE79-.LEHB79
 2946 01f7 00       		.uleb128 0
 2947 01f8 00       		.uleb128 0
 2948 01f9 FA03     		.uleb128 .LEHB80-.LFB1135
 2949 01fb 40       		.uleb128 .LEHE80-.LEHB80
 2950 01fc C104     		.uleb128 .L147-.LFB1135
 2951 01fe 00       		.uleb128 0
 2952 01ff BA04     		.uleb128 .LEHB81-.LFB1135
 2953 0201 05       		.uleb128 .LEHE81-.LEHB81
 2954 0202 00       		.uleb128 0
 2955 0203 00       		.uleb128 0
 2956 0204 CF04     		.uleb128 .LEHB82-.LFB1135
 2957 0206 05       		.uleb128 .LEHE82-.LEHB82
 2958 0207 00       		.uleb128 0
 2959 0208 00       		.uleb128 0
 2960              	.LLSDACSE1135:
 2961 0209 01       		.byte	0x1
 2962 020a 00       		.byte	0
 2963 020b 00       		.align 4
 2964 020c 00000000 		.long	0
 2965              	
 2966              	.LLSDATT1135:
 2967              		.text
 2969              		.section	.rodata
 2970              	.LC29:
 2971 03e9 43686563 		.string	"CheckEqualFailsOnNotEqual"
 2971      6B457175 
 2971      616C4661 
 2971      696C734F 
 2971      6E4E6F74 
 2972              		.text
 2973 12e9 90       		.align 2
 2975              	_ZN12_GLOBAL__N_129TestCheckEqualFailsOnNotEqualC2Ev:
 2976              	.LFB1137:
 109:TestCheckMacros.cpp **** 
 110:TestCheckMacros.cpp **** TEST(CheckEqualFailsOnNotEqual)
 2977              		.loc 6 110 0
 2978              		.cfi_startproc
 2979 12ea 55       		pushq	%rbp
 2980              		.cfi_def_cfa_offset 16
 2981              		.cfi_offset 6, -16
 2982 12eb 4889E5   		movq	%rsp, %rbp
 2983              		.cfi_def_cfa_register 6
 2984 12ee 53       		pushq	%rbx
 2985 12ef 4883EC18 		subq	$24, %rsp
 2986              		.cfi_offset 3, -24
 2987 12f3 48897DE8 		movq	%rdi, -24(%rbp)
 2988              	.LBB29:
 2989              		.loc 6 110 0
 2990 12f7 488B5DE8 		movq	-24(%rbp), %rbx
 2991 12fb E8000000 		call	_ZN13UnitTestSuite12GetSuiteNameEv
 2991      00
 2992 1300 41B86E00 		movl	$110, %r8d
 2992      0000
 2993 1306 488D0D00 		leaq	.LC2(%rip), %rcx
 2993      000000
 2994 130d 4889C2   		movq	%rax, %rdx
 2995 1310 488D3500 		leaq	.LC29(%rip), %rsi
 2995      000000
 2996 1317 4889DF   		movq	%rbx, %rdi
 2997 131a E8000000 		call	_ZN8UnitTest4TestC2EPKcS2_S2_i@PLT
 2997      00
 2998 131f 488D1500 		leaq	16+_ZTVN12_GLOBAL__N_129TestCheckEqualFailsOnNotEqualE(%rip), %rdx
 2998      000000
 2999 1326 488B45E8 		movq	-24(%rbp), %rax
 3000 132a 488910   		movq	%rdx, (%rax)
 3001              	.LBE29:
 3002 132d 90       		nop
 3003 132e 4883C418 		addq	$24, %rsp
 3004 1332 5B       		popq	%rbx
 3005 1333 5D       		popq	%rbp
 3006              		.cfi_def_cfa 7, 8
 3007 1334 C3       		ret
 3008              		.cfi_endproc
 3009              	.LFE1137:
 3011              		.set	_ZN12_GLOBAL__N_129TestCheckEqualFailsOnNotEqualC1Ev,_ZN12_GLOBAL__N_129TestCheckEqualFailsOn
 3012              		.local	_ZN12_GLOBAL__N_137testCheckEqualFailsOnNotEqualInstanceE
 3013              		.comm	_ZN12_GLOBAL__N_137testCheckEqualFailsOnNotEqualInstanceE,56,32
 3014              		.local	_ZN12_GLOBAL__N_130adderCheckEqualFailsOnNotEqualE
 3015              		.comm	_ZN12_GLOBAL__N_130adderCheckEqualFailsOnNotEqualE,1,1
 3016              		.section	.rodata
 3017 0403 00000000 		.align 8
 3017      00
 3018              	.LC30:
 3019 0408 556E6861 		.string	"Unhandled exception in CHECK_EQUAL(1, 2)"
 3019      6E646C65 
 3019      64206578 
 3019      63657074 
 3019      696F6E20 
 3020              		.text
 3021 1335 90       		.align 2
 3023              	_ZNK12_GLOBAL__N_129TestCheckEqualFailsOnNotEqual7RunImplEv:
 3024              	.LFB1139:
 111:TestCheckMacros.cpp **** {
 3025              		.loc 6 111 0
 3026              		.cfi_startproc
 3027              		.cfi_personality 0x9b,DW.ref.__gxx_personality_v0
 3028              		.cfi_lsda 0x1b,.LLSDA1139
 3029 1336 55       		pushq	%rbp
 3030              		.cfi_def_cfa_offset 16
 3031              		.cfi_offset 6, -16
 3032 1337 4889E5   		movq	%rsp, %rbp
 3033              		.cfi_def_cfa_register 6
 3034 133a 53       		pushq	%rbx
 3035 133b 4881ECB8 		subq	$2232, %rsp
 3035      080000
 3036              		.cfi_offset 3, -24
 3037 1342 4889BD48 		movq	%rdi, -2232(%rbp)
 3037      F7FFFF
 3038              		.loc 6 111 0
 3039 1349 64488B04 		movq	%fs:40, %rax
 3039      25280000 
 3039      00
 3040 1352 488945E8 		movq	%rax, -24(%rbp)
 3041 1356 31C0     		xorl	%eax, %eax
 112:TestCheckMacros.cpp ****     bool failure = false;
 3042              		.loc 6 112 0
 3043 1358 C68557F7 		movb	$0, -2217(%rbp)
 3043      FFFF00
 3044              	.LBB30:
 113:TestCheckMacros.cpp ****     {
 114:TestCheckMacros.cpp ****         RecordingReporter reporter;
 3045              		.loc 6 114 0
 3046 135f 488D85B0 		leaq	-2128(%rbp), %rax
 3046      F7FFFF
 3047 1366 4889C7   		movq	%rax, %rdi
 3048 1369 E8000000 		call	_ZN17RecordingReporterC1Ev
 3048      00
 115:TestCheckMacros.cpp ****         UnitTest::TestResults testResults(&reporter);
 3049              		.loc 6 115 0
 3050 136e 488D95B0 		leaq	-2128(%rbp), %rdx
 3050      F7FFFF
 3051 1375 488D8570 		leaq	-2192(%rbp), %rax
 3051      F7FFFF
 3052 137c 4889D6   		movq	%rdx, %rsi
 3053 137f 4889C7   		movq	%rax, %rdi
 3054              	.LEHB83:
 3055 1382 E8000000 		call	_ZN8UnitTest11TestResultsC1EPNS_12TestReporterE@PLT
 3055      00
 116:TestCheckMacros.cpp **** 		ScopedCurrentTest scopedResults(testResults);
 3056              		.loc 6 116 0
 3057 1387 488D8D70 		leaq	-2192(%rbp), %rcx
 3057      F7FFFF
 3058 138e 488D8560 		leaq	-2208(%rbp), %rax
 3058      F7FFFF
 3059 1395 BA000000 		movl	$0, %edx
 3059      00
 3060 139a 4889CE   		movq	%rcx, %rsi
 3061 139d 4889C7   		movq	%rax, %rdi
 3062 13a0 E8000000 		call	_ZN17ScopedCurrentTestC1ERN8UnitTest11TestResultsEPKNS0_11TestDetailsE
 3062      00
 3063              	.LEHE83:
 3064              	.LEHB84:
 117:TestCheckMacros.cpp ****         CHECK_EQUAL(1, 2);
 3065              		.loc 6 117 0
 3066 13a5 E8000000 		call	_ZN8UnitTest11CurrentTest7DetailsEv@PLT
 3066      00
 3067 13aa 488B08   		movq	(%rax), %rcx
 3068 13ad 488D8590 		leaq	-2160(%rbp), %rax
 3068      F7FFFF
 3069 13b4 BA750000 		movl	$117, %edx
 3069      00
 3070 13b9 4889CE   		movq	%rcx, %rsi
 3071 13bc 4889C7   		movq	%rax, %rdi
 3072 13bf E8000000 		call	_ZN8UnitTest11TestDetailsC1ERKS0_i@PLT
 3072      00
 3073              	.LEHE84:
 3074              		.loc 6 117 0 is_stmt 0 discriminator 2
 3075 13c4 C7855CF7 		movl	$2, -2212(%rbp)
 3075      FFFF0200 
 3075      0000
 3076 13ce C78558F7 		movl	$1, -2216(%rbp)
 3076      FFFF0100 
 3076      0000
 3077              	.LEHB85:
 3078 13d8 E8000000 		call	_ZN8UnitTest11CurrentTest7ResultsEv@PLT
 3078      00
 3079 13dd 488B00   		movq	(%rax), %rax
 3080 13e0 488D8D90 		leaq	-2160(%rbp), %rcx
 3080      F7FFFF
 3081 13e7 488D955C 		leaq	-2212(%rbp), %rdx
 3081      F7FFFF
 3082 13ee 488DB558 		leaq	-2216(%rbp), %rsi
 3082      F7FFFF
 3083 13f5 4889C7   		movq	%rax, %rdi
 3084 13f8 E8000000 		call	_ZN8UnitTest10CheckEqualIiiEEvRNS_11TestResultsERKT_RKT0_RKNS_11TestDetailsE
 3084      00
 3085              	.LEHE85:
 3086              	.L154:
 118:TestCheckMacros.cpp ****         failure = (testResults.GetFailureCount() > 0);
 3087              		.loc 6 118 0 is_stmt 1
 3088 13fd 488D8570 		leaq	-2192(%rbp), %rax
 3088      F7FFFF
 3089 1404 4889C7   		movq	%rax, %rdi
 3090              	.LEHB86:
 3091 1407 E8000000 		call	_ZNK8UnitTest11TestResults15GetFailureCountEv@PLT
 3091      00
 3092              	.LEHE86:
 3093 140c 85C0     		testl	%eax, %eax
 3094 140e 0F9FC0   		setg	%al
 3095 1411 888557F7 		movb	%al, -2217(%rbp)
 3095      FFFF
 116:TestCheckMacros.cpp **** 		ScopedCurrentTest scopedResults(testResults);
 3096              		.loc 6 116 0
 3097 1417 488D8560 		leaq	-2208(%rbp), %rax
 3097      F7FFFF
 3098 141e 4889C7   		movq	%rax, %rdi
 3099              	.LEHB87:
 3100 1421 E8000000 		call	_ZN17ScopedCurrentTestD1Ev
 3100      00
 3101              	.LEHE87:
 114:TestCheckMacros.cpp ****         UnitTest::TestResults testResults(&reporter);
 3102              		.loc 6 114 0
 3103 1426 488D85B0 		leaq	-2128(%rbp), %rax
 3103      F7FFFF
 3104 142d 4889C7   		movq	%rax, %rdi
 3105              	.LEHB88:
 3106 1430 E8000000 		call	_ZN17RecordingReporterD1Ev
 3106      00
 3107              	.LEHE88:
 3108              	.LBE30:
 119:TestCheckMacros.cpp ****     }
 120:TestCheckMacros.cpp **** 
 121:TestCheckMacros.cpp ****     CHECK(failure);
 3109              		.loc 6 121 0
 3110 1435 0FB68557 		movzbl	-2217(%rbp), %eax
 3110      F7FFFF
 3111 143c 89C7     		movl	%eax, %edi
 3112 143e E8000000 		call	_ZN8UnitTest5CheckIbEEbT_
 3112      00
 3113 1443 83F001   		xorl	$1, %eax
 3114 1446 84C0     		testb	%al, %al
 3115 1448 0F843601 		je	.L168
 3115      0000
 3116              	.LEHB89:
 3117              		.loc 6 121 0 is_stmt 0 discriminator 1
 3118 144e E8000000 		call	_ZN8UnitTest11CurrentTest7ResultsEv@PLT
 3118      00
 3119 1453 488B18   		movq	(%rax), %rbx
 3120 1456 E8000000 		call	_ZN8UnitTest11CurrentTest7DetailsEv@PLT
 3120      00
 3121              		.loc 6 121 0 discriminator 2
 3122 145b 488B08   		movq	(%rax), %rcx
 3123 145e 488D8590 		leaq	-2160(%rbp), %rax
 3123      F7FFFF
 3124 1465 BA790000 		movl	$121, %edx
 3124      00
 3125 146a 4889CE   		movq	%rcx, %rsi
 3126 146d 4889C7   		movq	%rax, %rdi
 3127 1470 E8000000 		call	_ZN8UnitTest11TestDetailsC1ERKS0_i@PLT
 3127      00
 3128              		.loc 6 121 0 discriminator 4
 3129 1475 488D8590 		leaq	-2160(%rbp), %rax
 3129      F7FFFF
 3130 147c 488D1500 		leaq	.LC10(%rip), %rdx
 3130      000000
 3131 1483 4889C6   		movq	%rax, %rsi
 3132 1486 4889DF   		movq	%rbx, %rdi
 3133 1489 E8000000 		call	_ZN8UnitTest11TestResults13OnTestFailureERKNS_11TestDetailsEPKc@PLT
 3133      00
 3134              	.LEHE89:
 122:TestCheckMacros.cpp **** }
 3135              		.loc 6 122 0 is_stmt 1
 3136 148e E9F10000 		jmp	.L168
 3136      00
 3137              	.L163:
 3138 1493 EB00     		jmp	.L153
 3139              	.L162:
 3140              	.L153:
 3141              	.LBB31:
 117:TestCheckMacros.cpp ****         failure = (testResults.GetFailureCount() > 0);
 3142              		.loc 6 117 0
 3143 1495 4889C7   		movq	%rax, %rdi
 3144 1498 E8000000 		call	__cxa_begin_catch@PLT
 3144      00
 3145              	.LEHB90:
 3146 149d E8000000 		call	_ZN8UnitTest11CurrentTest7ResultsEv@PLT
 3146      00
 3147 14a2 488B18   		movq	(%rax), %rbx
 3148 14a5 E8000000 		call	_ZN8UnitTest11CurrentTest7DetailsEv@PLT
 3148      00
 117:TestCheckMacros.cpp ****         failure = (testResults.GetFailureCount() > 0);
 3149              		.loc 6 117 0 is_stmt 0 discriminator 8
 3150 14aa 488B08   		movq	(%rax), %rcx
 3151 14ad 488D8590 		leaq	-2160(%rbp), %rax
 3151      F7FFFF
 3152 14b4 BA750000 		movl	$117, %edx
 3152      00
 3153 14b9 4889CE   		movq	%rcx, %rsi
 3154 14bc 4889C7   		movq	%rax, %rdi
 3155 14bf E8000000 		call	_ZN8UnitTest11TestDetailsC1ERKS0_i@PLT
 3155      00
 117:TestCheckMacros.cpp ****         failure = (testResults.GetFailureCount() > 0);
 3156              		.loc 6 117 0 discriminator 12
 3157 14c4 488D8590 		leaq	-2160(%rbp), %rax
 3157      F7FFFF
 3158 14cb 488D1500 		leaq	.LC30(%rip), %rdx
 3158      000000
 3159 14d2 4889C6   		movq	%rax, %rsi
 3160 14d5 4889DF   		movq	%rbx, %rdi
 3161 14d8 E8000000 		call	_ZN8UnitTest11TestResults13OnTestFailureERKNS_11TestDetailsEPKc@PLT
 3161      00
 3162              	.LEHE90:
 3163              	.LEHB91:
 117:TestCheckMacros.cpp ****         failure = (testResults.GetFailureCount() > 0);
 3164              		.loc 6 117 0 discriminator 14
 3165 14dd E8000000 		call	__cxa_end_catch@PLT
 3165      00
 3166              	.LEHE91:
 117:TestCheckMacros.cpp ****         failure = (testResults.GetFailureCount() > 0);
 3167              		.loc 6 117 0
 3168 14e2 E916FFFF 		jmp	.L154
 3168      FF
 3169              	.L165:
 3170 14e7 4889C3   		movq	%rax, %rbx
 3171 14ea E8000000 		call	__cxa_end_catch@PLT
 3171      00
 3172 14ef EB03     		jmp	.L156
 3173              	.L164:
 3174 14f1 4889C3   		movq	%rax, %rbx
 3175              	.L156:
 116:TestCheckMacros.cpp ****         CHECK_EQUAL(1, 2);
 3176              		.loc 6 116 0 is_stmt 1
 3177 14f4 488D8560 		leaq	-2208(%rbp), %rax
 3177      F7FFFF
 3178 14fb 4889C7   		movq	%rax, %rdi
 3179 14fe E8000000 		call	_ZN17ScopedCurrentTestD1Ev
 3179      00
 3180 1503 EB03     		jmp	.L157
 3181              	.L161:
 3182 1505 4889C3   		movq	%rax, %rbx
 3183              	.L157:
 114:TestCheckMacros.cpp ****         UnitTest::TestResults testResults(&reporter);
 3184              		.loc 6 114 0
 3185 1508 488D85B0 		leaq	-2128(%rbp), %rax
 3185      F7FFFF
 3186 150f 4889C7   		movq	%rax, %rdi
 3187 1512 E8000000 		call	_ZN17RecordingReporterD1Ev
 3187      00
 3188 1517 4889D8   		movq	%rbx, %rax
 3189 151a 4889C7   		movq	%rax, %rdi
 3190              	.LEHB92:
 3191 151d E8000000 		call	_Unwind_Resume@PLT
 3191      00
 3192              	.LEHE92:
 3193              	.L166:
 3194              	.LBE31:
 121:TestCheckMacros.cpp **** }
 3195              		.loc 6 121 0
 3196 1522 4889C7   		movq	%rax, %rdi
 3197 1525 E8000000 		call	__cxa_begin_catch@PLT
 3197      00
 3198              	.LEHB93:
 3199 152a E8000000 		call	_ZN8UnitTest11CurrentTest7ResultsEv@PLT
 3199      00
 3200 152f 488B18   		movq	(%rax), %rbx
 3201 1532 E8000000 		call	_ZN8UnitTest11CurrentTest7DetailsEv@PLT
 3201      00
 121:TestCheckMacros.cpp **** }
 3202              		.loc 6 121 0 is_stmt 0 discriminator 8
 3203 1537 488B08   		movq	(%rax), %rcx
 3204 153a 488D8590 		leaq	-2160(%rbp), %rax
 3204      F7FFFF
 3205 1541 BA790000 		movl	$121, %edx
 3205      00
 3206 1546 4889CE   		movq	%rcx, %rsi
 3207 1549 4889C7   		movq	%rax, %rdi
 3208 154c E8000000 		call	_ZN8UnitTest11TestDetailsC1ERKS0_i@PLT
 3208      00
 121:TestCheckMacros.cpp **** }
 3209              		.loc 6 121 0 discriminator 12
 3210 1551 488D8590 		leaq	-2160(%rbp), %rax
 3210      F7FFFF
 3211 1558 488D1500 		leaq	.LC12(%rip), %rdx
 3211      000000
 3212 155f 4889C6   		movq	%rax, %rsi
 3213 1562 4889DF   		movq	%rbx, %rdi
 3214 1565 E8000000 		call	_ZN8UnitTest11TestResults13OnTestFailureERKNS_11TestDetailsEPKc@PLT
 3214      00
 3215              	.LEHE93:
 3216              	.LEHB94:
 121:TestCheckMacros.cpp **** }
 3217              		.loc 6 121 0 discriminator 14
 3218 156a E8000000 		call	__cxa_end_catch@PLT
 3218      00
 3219              	.LEHE94:
 3220              		.loc 6 122 0 is_stmt 1 discriminator 14
 3221 156f EB13     		jmp	.L168
 3222              	.L167:
 3223 1571 4889C3   		movq	%rax, %rbx
 121:TestCheckMacros.cpp **** }
 3224              		.loc 6 121 0
 3225 1574 E8000000 		call	__cxa_end_catch@PLT
 3225      00
 3226 1579 4889D8   		movq	%rbx, %rax
 3227 157c 4889C7   		movq	%rax, %rdi
 3228              	.LEHB95:
 3229 157f E8000000 		call	_Unwind_Resume@PLT
 3229      00
 3230              	.LEHE95:
 3231              	.L168:
 3232              		.loc 6 122 0
 3233 1584 90       		nop
 3234 1585 488B45E8 		movq	-24(%rbp), %rax
 3235 1589 64483304 		xorq	%fs:40, %rax
 3235      25280000 
 3235      00
 3236 1592 7405     		je	.L160
 3237 1594 E8000000 		call	__stack_chk_fail@PLT
 3237      00
 3238              	.L160:
 3239 1599 4881C4B8 		addq	$2232, %rsp
 3239      080000
 3240 15a0 5B       		popq	%rbx
 3241 15a1 5D       		popq	%rbp
 3242              		.cfi_def_cfa 7, 8
 3243 15a2 C3       		ret
 3244              		.cfi_endproc
 3245              	.LFE1139:
 3246              		.section	.gcc_except_table
 3247              		.align 4
 3248              	.LLSDA1139:
 3249 0210 FF       		.byte	0xff
 3250 0211 9B       		.byte	0x9b
 3251 0212 51       		.uleb128 .LLSDATT1139-.LLSDATTD1139
 3252              	.LLSDATTD1139:
 3253 0213 01       		.byte	0x1
 3254 0214 48       		.uleb128 .LLSDACSE1139-.LLSDACSB1139
 3255              	.LLSDACSB1139:
 3256 0215 4C       		.uleb128 .LEHB83-.LFB1139
 3257 0216 23       		.uleb128 .LEHE83-.LEHB83
 3258 0217 CF03     		.uleb128 .L161-.LFB1139
 3259 0219 00       		.uleb128 0
 3260 021a 6F       		.uleb128 .LEHB84-.LFB1139
 3261 021b 1F       		.uleb128 .LEHE84-.LEHB84
 3262 021c DF02     		.uleb128 .L162-.LFB1139
 3263 021e 01       		.uleb128 0x1
 3264 021f A201     		.uleb128 .LEHB85-.LFB1139
 3265 0221 25       		.uleb128 .LEHE85-.LEHB85
 3266 0222 DD02     		.uleb128 .L163-.LFB1139
 3267 0224 01       		.uleb128 0x1
 3268 0225 D101     		.uleb128 .LEHB86-.LFB1139
 3269 0227 05       		.uleb128 .LEHE86-.LEHB86
 3270 0228 BB03     		.uleb128 .L164-.LFB1139
 3271 022a 00       		.uleb128 0
 3272 022b EB01     		.uleb128 .LEHB87-.LFB1139
 3273 022d 05       		.uleb128 .LEHE87-.LEHB87
 3274 022e CF03     		.uleb128 .L161-.LFB1139
 3275 0230 00       		.uleb128 0
 3276 0231 FA01     		.uleb128 .LEHB88-.LFB1139
 3277 0233 05       		.uleb128 .LEHE88-.LEHB88
 3278 0234 00       		.uleb128 0
 3279 0235 00       		.uleb128 0
 3280 0236 9802     		.uleb128 .LEHB89-.LFB1139
 3281 0238 40       		.uleb128 .LEHE89-.LEHB89
 3282 0239 EC03     		.uleb128 .L166-.LFB1139
 3283 023b 01       		.uleb128 0x1
 3284 023c E702     		.uleb128 .LEHB90-.LFB1139
 3285 023e 40       		.uleb128 .LEHE90-.LEHB90
 3286 023f B103     		.uleb128 .L165-.LFB1139
 3287 0241 00       		.uleb128 0
 3288 0242 A703     		.uleb128 .LEHB91-.LFB1139
 3289 0244 05       		.uleb128 .LEHE91-.LEHB91
 3290 0245 BB03     		.uleb128 .L164-.LFB1139
 3291 0247 00       		.uleb128 0
 3292 0248 E703     		.uleb128 .LEHB92-.LFB1139
 3293 024a 05       		.uleb128 .LEHE92-.LEHB92
 3294 024b 00       		.uleb128 0
 3295 024c 00       		.uleb128 0
 3296 024d F403     		.uleb128 .LEHB93-.LFB1139
 3297 024f 40       		.uleb128 .LEHE93-.LEHB93
 3298 0250 BB04     		.uleb128 .L167-.LFB1139
 3299 0252 00       		.uleb128 0
 3300 0253 B404     		.uleb128 .LEHB94-.LFB1139
 3301 0255 05       		.uleb128 .LEHE94-.LEHB94
 3302 0256 00       		.uleb128 0
 3303 0257 00       		.uleb128 0
 3304 0258 C904     		.uleb128 .LEHB95-.LFB1139
 3305 025a 05       		.uleb128 .LEHE95-.LEHB95
 3306 025b 00       		.uleb128 0
 3307 025c 00       		.uleb128 0
 3308              	.LLSDACSE1139:
 3309 025d 01       		.byte	0x1
 3310 025e 00       		.byte	0
 3311 025f 00       		.align 4
 3312 0260 00000000 		.long	0
 3313              	
 3314              	.LLSDATT1139:
 3315              		.text
 3317              		.section	.rodata
 3318              	.LC31:
 3319 0431 43686563 		.string	"CheckEqualFailsOnException"
 3319      6B457175 
 3319      616C4661 
 3319      696C734F 
 3319      6E457863 
 3320              		.text
 3321 15a3 90       		.align 2
 3323              	_ZN12_GLOBAL__N_130TestCheckEqualFailsOnExceptionC2Ev:
 3324              	.LFB1141:
 123:TestCheckMacros.cpp **** 
 124:TestCheckMacros.cpp **** TEST(CheckEqualFailsOnException)
 3325              		.loc 6 124 0
 3326              		.cfi_startproc
 3327 15a4 55       		pushq	%rbp
 3328              		.cfi_def_cfa_offset 16
 3329              		.cfi_offset 6, -16
 3330 15a5 4889E5   		movq	%rsp, %rbp
 3331              		.cfi_def_cfa_register 6
 3332 15a8 53       		pushq	%rbx
 3333 15a9 4883EC18 		subq	$24, %rsp
 3334              		.cfi_offset 3, -24
 3335 15ad 48897DE8 		movq	%rdi, -24(%rbp)
 3336              	.LBB32:
 3337              		.loc 6 124 0
 3338 15b1 488B5DE8 		movq	-24(%rbp), %rbx
 3339 15b5 E8000000 		call	_ZN13UnitTestSuite12GetSuiteNameEv
 3339      00
 3340 15ba 41B87C00 		movl	$124, %r8d
 3340      0000
 3341 15c0 488D0D00 		leaq	.LC2(%rip), %rcx
 3341      000000
 3342 15c7 4889C2   		movq	%rax, %rdx
 3343 15ca 488D3500 		leaq	.LC31(%rip), %rsi
 3343      000000
 3344 15d1 4889DF   		movq	%rbx, %rdi
 3345 15d4 E8000000 		call	_ZN8UnitTest4TestC2EPKcS2_S2_i@PLT
 3345      00
 3346 15d9 488D1500 		leaq	16+_ZTVN12_GLOBAL__N_130TestCheckEqualFailsOnExceptionE(%rip), %rdx
 3346      000000
 3347 15e0 488B45E8 		movq	-24(%rbp), %rax
 3348 15e4 488910   		movq	%rdx, (%rax)
 3349              	.LBE32:
 3350 15e7 90       		nop
 3351 15e8 4883C418 		addq	$24, %rsp
 3352 15ec 5B       		popq	%rbx
 3353 15ed 5D       		popq	%rbp
 3354              		.cfi_def_cfa 7, 8
 3355 15ee C3       		ret
 3356              		.cfi_endproc
 3357              	.LFE1141:
 3359              		.set	_ZN12_GLOBAL__N_130TestCheckEqualFailsOnExceptionC1Ev,_ZN12_GLOBAL__N_130TestCheckEqualFailsO
 3360              		.local	_ZN12_GLOBAL__N_138testCheckEqualFailsOnExceptionInstanceE
 3361              		.comm	_ZN12_GLOBAL__N_138testCheckEqualFailsOnExceptionInstanceE,56,32
 3362              		.local	_ZN12_GLOBAL__N_131adderCheckEqualFailsOnExceptionE
 3363              		.comm	_ZN12_GLOBAL__N_131adderCheckEqualFailsOnExceptionE,1,1
 3364              		.section	.rodata
 3365 044c 00000000 		.align 8
 3366              	.LC32:
 3367 0450 556E6861 		.string	"Unhandled exception in CHECK_EQUAL(ThrowingFunction(), 1)"
 3367      6E646C65 
 3367      64206578 
 3367      63657074 
 3367      696F6E20 
 3368              		.text
 3369 15ef 90       		.align 2
 3371              	_ZNK12_GLOBAL__N_130TestCheckEqualFailsOnException7RunImplEv:
 3372              	.LFB1143:
 125:TestCheckMacros.cpp **** {
 3373              		.loc 6 125 0
 3374              		.cfi_startproc
 3375              		.cfi_personality 0x9b,DW.ref.__gxx_personality_v0
 3376              		.cfi_lsda 0x1b,.LLSDA1143
 3377 15f0 55       		pushq	%rbp
 3378              		.cfi_def_cfa_offset 16
 3379              		.cfi_offset 6, -16
 3380 15f1 4889E5   		movq	%rsp, %rbp
 3381              		.cfi_def_cfa_register 6
 3382 15f4 53       		pushq	%rbx
 3383 15f5 4881ECB8 		subq	$2232, %rsp
 3383      080000
 3384              		.cfi_offset 3, -24
 3385 15fc 4889BD48 		movq	%rdi, -2232(%rbp)
 3385      F7FFFF
 3386              		.loc 6 125 0
 3387 1603 64488B04 		movq	%fs:40, %rax
 3387      25280000 
 3387      00
 3388 160c 488945E8 		movq	%rax, -24(%rbp)
 3389 1610 31C0     		xorl	%eax, %eax
 126:TestCheckMacros.cpp ****     bool failure = false;
 3390              		.loc 6 126 0
 3391 1612 C68557F7 		movb	$0, -2217(%rbp)
 3391      FFFF00
 3392              	.LBB33:
 127:TestCheckMacros.cpp ****     {
 128:TestCheckMacros.cpp ****         RecordingReporter reporter;
 3393              		.loc 6 128 0
 3394 1619 488D85B0 		leaq	-2128(%rbp), %rax
 3394      F7FFFF
 3395 1620 4889C7   		movq	%rax, %rdi
 3396 1623 E8000000 		call	_ZN17RecordingReporterC1Ev
 3396      00
 129:TestCheckMacros.cpp ****         UnitTest::TestResults testResults(&reporter);
 3397              		.loc 6 129 0
 3398 1628 488D95B0 		leaq	-2128(%rbp), %rdx
 3398      F7FFFF
 3399 162f 488D8570 		leaq	-2192(%rbp), %rax
 3399      F7FFFF
 3400 1636 4889D6   		movq	%rdx, %rsi
 3401 1639 4889C7   		movq	%rax, %rdi
 3402              	.LEHB96:
 3403 163c E8000000 		call	_ZN8UnitTest11TestResultsC1EPNS_12TestReporterE@PLT
 3403      00
 130:TestCheckMacros.cpp **** 		ScopedCurrentTest scopedResults(testResults);
 3404              		.loc 6 130 0
 3405 1641 488D8D70 		leaq	-2192(%rbp), %rcx
 3405      F7FFFF
 3406 1648 488D8560 		leaq	-2208(%rbp), %rax
 3406      F7FFFF
 3407 164f BA000000 		movl	$0, %edx
 3407      00
 3408 1654 4889CE   		movq	%rcx, %rsi
 3409 1657 4889C7   		movq	%rax, %rdi
 3410 165a E8000000 		call	_ZN17ScopedCurrentTestC1ERN8UnitTest11TestResultsEPKNS0_11TestDetailsE
 3410      00
 3411              	.LEHE96:
 3412              	.LEHB97:
 131:TestCheckMacros.cpp ****         CHECK_EQUAL(ThrowingFunction(), 1);
 3413              		.loc 6 131 0
 3414 165f E8000000 		call	_ZN8UnitTest11CurrentTest7DetailsEv@PLT
 3414      00
 3415 1664 488B08   		movq	(%rax), %rcx
 3416 1667 488D8590 		leaq	-2160(%rbp), %rax
 3416      F7FFFF
 3417 166e BA830000 		movl	$131, %edx
 3417      00
 3418 1673 4889CE   		movq	%rcx, %rsi
 3419 1676 4889C7   		movq	%rax, %rdi
 3420 1679 E8000000 		call	_ZN8UnitTest11TestDetailsC1ERKS0_i@PLT
 3420      00
 3421              	.LEHE97:
 3422              		.loc 6 131 0 is_stmt 0 discriminator 2
 3423 167e C7855CF7 		movl	$1, -2212(%rbp)
 3423      FFFF0100 
 3423      0000
 3424              	.LEHB98:
 3425 1688 E80BF4FF 		call	_ZN12_GLOBAL__N_116ThrowingFunctionEv
 3425      FF
 3426 168d 898558F7 		movl	%eax, -2216(%rbp)
 3426      FFFF
 3427 1693 E8000000 		call	_ZN8UnitTest11CurrentTest7ResultsEv@PLT
 3427      00
 3428              		.loc 6 131 0 discriminator 4
 3429 1698 488B00   		movq	(%rax), %rax
 3430 169b 488D8D90 		leaq	-2160(%rbp), %rcx
 3430      F7FFFF
 3431 16a2 488D955C 		leaq	-2212(%rbp), %rdx
 3431      F7FFFF
 3432 16a9 488DB558 		leaq	-2216(%rbp), %rsi
 3432      F7FFFF
 3433 16b0 4889C7   		movq	%rax, %rdi
 3434 16b3 E8000000 		call	_ZN8UnitTest10CheckEqualIiiEEvRNS_11TestResultsERKT_RKT0_RKNS_11TestDetailsE
 3434      00
 3435              	.LEHE98:
 3436              	.L174:
 132:TestCheckMacros.cpp ****         failure = (testResults.GetFailureCount() > 0);
 3437              		.loc 6 132 0 is_stmt 1
 3438 16b8 488D8570 		leaq	-2192(%rbp), %rax
 3438      F7FFFF
 3439 16bf 4889C7   		movq	%rax, %rdi
 3440              	.LEHB99:
 3441 16c2 E8000000 		call	_ZNK8UnitTest11TestResults15GetFailureCountEv@PLT
 3441      00
 3442              	.LEHE99:
 3443 16c7 85C0     		testl	%eax, %eax
 3444 16c9 0F9FC0   		setg	%al
 3445 16cc 888557F7 		movb	%al, -2217(%rbp)
 3445      FFFF
 130:TestCheckMacros.cpp **** 		ScopedCurrentTest scopedResults(testResults);
 3446              		.loc 6 130 0
 3447 16d2 488D8560 		leaq	-2208(%rbp), %rax
 3447      F7FFFF
 3448 16d9 4889C7   		movq	%rax, %rdi
 3449              	.LEHB100:
 3450 16dc E8000000 		call	_ZN17ScopedCurrentTestD1Ev
 3450      00
 3451              	.LEHE100:
 128:TestCheckMacros.cpp ****         UnitTest::TestResults testResults(&reporter);
 3452              		.loc 6 128 0
 3453 16e1 488D85B0 		leaq	-2128(%rbp), %rax
 3453      F7FFFF
 3454 16e8 4889C7   		movq	%rax, %rdi
 3455              	.LEHB101:
 3456 16eb E8000000 		call	_ZN17RecordingReporterD1Ev
 3456      00
 3457              	.LEHE101:
 3458              	.LBE33:
 133:TestCheckMacros.cpp ****     }
 134:TestCheckMacros.cpp **** 
 135:TestCheckMacros.cpp ****     CHECK(failure);
 3459              		.loc 6 135 0
 3460 16f0 0FB68557 		movzbl	-2217(%rbp), %eax
 3460      F7FFFF
 3461 16f7 89C7     		movl	%eax, %edi
 3462 16f9 E8000000 		call	_ZN8UnitTest5CheckIbEEbT_
 3462      00
 3463 16fe 83F001   		xorl	$1, %eax
 3464 1701 84C0     		testb	%al, %al
 3465 1703 0F843601 		je	.L188
 3465      0000
 3466              	.LEHB102:
 3467              		.loc 6 135 0 is_stmt 0 discriminator 1
 3468 1709 E8000000 		call	_ZN8UnitTest11CurrentTest7ResultsEv@PLT
 3468      00
 3469 170e 488B18   		movq	(%rax), %rbx
 3470 1711 E8000000 		call	_ZN8UnitTest11CurrentTest7DetailsEv@PLT
 3470      00
 3471              		.loc 6 135 0 discriminator 2
 3472 1716 488B08   		movq	(%rax), %rcx
 3473 1719 488D8590 		leaq	-2160(%rbp), %rax
 3473      F7FFFF
 3474 1720 BA870000 		movl	$135, %edx
 3474      00
 3475 1725 4889CE   		movq	%rcx, %rsi
 3476 1728 4889C7   		movq	%rax, %rdi
 3477 172b E8000000 		call	_ZN8UnitTest11TestDetailsC1ERKS0_i@PLT
 3477      00
 3478              		.loc 6 135 0 discriminator 4
 3479 1730 488D8590 		leaq	-2160(%rbp), %rax
 3479      F7FFFF
 3480 1737 488D1500 		leaq	.LC10(%rip), %rdx
 3480      000000
 3481 173e 4889C6   		movq	%rax, %rsi
 3482 1741 4889DF   		movq	%rbx, %rdi
 3483 1744 E8000000 		call	_ZN8UnitTest11TestResults13OnTestFailureERKNS_11TestDetailsEPKc@PLT
 3483      00
 3484              	.LEHE102:
 136:TestCheckMacros.cpp **** }
 3485              		.loc 6 136 0 is_stmt 1
 3486 1749 E9F10000 		jmp	.L188
 3486      00
 3487              	.L183:
 3488 174e EB00     		jmp	.L173
 3489              	.L182:
 3490              	.L173:
 3491              	.LBB34:
 131:TestCheckMacros.cpp ****         failure = (testResults.GetFailureCount() > 0);
 3492              		.loc 6 131 0
 3493 1750 4889C7   		movq	%rax, %rdi
 3494 1753 E8000000 		call	__cxa_begin_catch@PLT
 3494      00
 3495              	.LEHB103:
 3496 1758 E8000000 		call	_ZN8UnitTest11CurrentTest7ResultsEv@PLT
 3496      00
 3497 175d 488B18   		movq	(%rax), %rbx
 3498 1760 E8000000 		call	_ZN8UnitTest11CurrentTest7DetailsEv@PLT
 3498      00
 131:TestCheckMacros.cpp ****         failure = (testResults.GetFailureCount() > 0);
 3499              		.loc 6 131 0 is_stmt 0 discriminator 10
 3500 1765 488B08   		movq	(%rax), %rcx
 3501 1768 488D8590 		leaq	-2160(%rbp), %rax
 3501      F7FFFF
 3502 176f BA830000 		movl	$131, %edx
 3502      00
 3503 1774 4889CE   		movq	%rcx, %rsi
 3504 1777 4889C7   		movq	%rax, %rdi
 3505 177a E8000000 		call	_ZN8UnitTest11TestDetailsC1ERKS0_i@PLT
 3505      00
 131:TestCheckMacros.cpp ****         failure = (testResults.GetFailureCount() > 0);
 3506              		.loc 6 131 0 discriminator 14
 3507 177f 488D8590 		leaq	-2160(%rbp), %rax
 3507      F7FFFF
 3508 1786 488D1500 		leaq	.LC32(%rip), %rdx
 3508      000000
 3509 178d 4889C6   		movq	%rax, %rsi
 3510 1790 4889DF   		movq	%rbx, %rdi
 3511 1793 E8000000 		call	_ZN8UnitTest11TestResults13OnTestFailureERKNS_11TestDetailsEPKc@PLT
 3511      00
 3512              	.LEHE103:
 3513              	.LEHB104:
 131:TestCheckMacros.cpp ****         failure = (testResults.GetFailureCount() > 0);
 3514              		.loc 6 131 0 discriminator 16
 3515 1798 E8000000 		call	__cxa_end_catch@PLT
 3515      00
 3516              	.LEHE104:
 131:TestCheckMacros.cpp ****         failure = (testResults.GetFailureCount() > 0);
 3517              		.loc 6 131 0
 3518 179d E916FFFF 		jmp	.L174
 3518      FF
 3519              	.L185:
 3520 17a2 4889C3   		movq	%rax, %rbx
 3521 17a5 E8000000 		call	__cxa_end_catch@PLT
 3521      00
 3522 17aa EB03     		jmp	.L176
 3523              	.L184:
 3524 17ac 4889C3   		movq	%rax, %rbx
 3525              	.L176:
 130:TestCheckMacros.cpp ****         CHECK_EQUAL(ThrowingFunction(), 1);
 3526              		.loc 6 130 0 is_stmt 1
 3527 17af 488D8560 		leaq	-2208(%rbp), %rax
 3527      F7FFFF
 3528 17b6 4889C7   		movq	%rax, %rdi
 3529 17b9 E8000000 		call	_ZN17ScopedCurrentTestD1Ev
 3529      00
 3530 17be EB03     		jmp	.L177
 3531              	.L181:
 3532 17c0 4889C3   		movq	%rax, %rbx
 3533              	.L177:
 128:TestCheckMacros.cpp ****         UnitTest::TestResults testResults(&reporter);
 3534              		.loc 6 128 0
 3535 17c3 488D85B0 		leaq	-2128(%rbp), %rax
 3535      F7FFFF
 3536 17ca 4889C7   		movq	%rax, %rdi
 3537 17cd E8000000 		call	_ZN17RecordingReporterD1Ev
 3537      00
 3538 17d2 4889D8   		movq	%rbx, %rax
 3539 17d5 4889C7   		movq	%rax, %rdi
 3540              	.LEHB105:
 3541 17d8 E8000000 		call	_Unwind_Resume@PLT
 3541      00
 3542              	.LEHE105:
 3543              	.L186:
 3544              	.LBE34:
 135:TestCheckMacros.cpp **** }
 3545              		.loc 6 135 0
 3546 17dd 4889C7   		movq	%rax, %rdi
 3547 17e0 E8000000 		call	__cxa_begin_catch@PLT
 3547      00
 3548              	.LEHB106:
 3549 17e5 E8000000 		call	_ZN8UnitTest11CurrentTest7ResultsEv@PLT
 3549      00
 3550 17ea 488B18   		movq	(%rax), %rbx
 3551 17ed E8000000 		call	_ZN8UnitTest11CurrentTest7DetailsEv@PLT
 3551      00
 135:TestCheckMacros.cpp **** }
 3552              		.loc 6 135 0 is_stmt 0 discriminator 8
 3553 17f2 488B08   		movq	(%rax), %rcx
 3554 17f5 488D8590 		leaq	-2160(%rbp), %rax
 3554      F7FFFF
 3555 17fc BA870000 		movl	$135, %edx
 3555      00
 3556 1801 4889CE   		movq	%rcx, %rsi
 3557 1804 4889C7   		movq	%rax, %rdi
 3558 1807 E8000000 		call	_ZN8UnitTest11TestDetailsC1ERKS0_i@PLT
 3558      00
 135:TestCheckMacros.cpp **** }
 3559              		.loc 6 135 0 discriminator 12
 3560 180c 488D8590 		leaq	-2160(%rbp), %rax
 3560      F7FFFF
 3561 1813 488D1500 		leaq	.LC12(%rip), %rdx
 3561      000000
 3562 181a 4889C6   		movq	%rax, %rsi
 3563 181d 4889DF   		movq	%rbx, %rdi
 3564 1820 E8000000 		call	_ZN8UnitTest11TestResults13OnTestFailureERKNS_11TestDetailsEPKc@PLT
 3564      00
 3565              	.LEHE106:
 3566              	.LEHB107:
 135:TestCheckMacros.cpp **** }
 3567              		.loc 6 135 0 discriminator 14
 3568 1825 E8000000 		call	__cxa_end_catch@PLT
 3568      00
 3569              	.LEHE107:
 3570              		.loc 6 136 0 is_stmt 1 discriminator 14
 3571 182a EB13     		jmp	.L188
 3572              	.L187:
 3573 182c 4889C3   		movq	%rax, %rbx
 135:TestCheckMacros.cpp **** }
 3574              		.loc 6 135 0
 3575 182f E8000000 		call	__cxa_end_catch@PLT
 3575      00
 3576 1834 4889D8   		movq	%rbx, %rax
 3577 1837 4889C7   		movq	%rax, %rdi
 3578              	.LEHB108:
 3579 183a E8000000 		call	_Unwind_Resume@PLT
 3579      00
 3580              	.LEHE108:
 3581              	.L188:
 3582              		.loc 6 136 0
 3583 183f 90       		nop
 3584 1840 488B45E8 		movq	-24(%rbp), %rax
 3585 1844 64483304 		xorq	%fs:40, %rax
 3585      25280000 
 3585      00
 3586 184d 7405     		je	.L180
 3587 184f E8000000 		call	__stack_chk_fail@PLT
 3587      00
 3588              	.L180:
 3589 1854 4881C4B8 		addq	$2232, %rsp
 3589      080000
 3590 185b 5B       		popq	%rbx
 3591 185c 5D       		popq	%rbp
 3592              		.cfi_def_cfa 7, 8
 3593 185d C3       		ret
 3594              		.cfi_endproc
 3595              	.LFE1143:
 3596              		.section	.gcc_except_table
 3597              		.align 4
 3598              	.LLSDA1143:
 3599 0264 FF       		.byte	0xff
 3600 0265 9B       		.byte	0x9b
 3601 0266 51       		.uleb128 .LLSDATT1143-.LLSDATTD1143
 3602              	.LLSDATTD1143:
 3603 0267 01       		.byte	0x1
 3604 0268 48       		.uleb128 .LLSDACSE1143-.LLSDACSB1143
 3605              	.LLSDACSB1143:
 3606 0269 4C       		.uleb128 .LEHB96-.LFB1143
 3607 026a 23       		.uleb128 .LEHE96-.LEHB96
 3608 026b D003     		.uleb128 .L181-.LFB1143
 3609 026d 00       		.uleb128 0
 3610 026e 6F       		.uleb128 .LEHB97-.LFB1143
 3611 026f 1F       		.uleb128 .LEHE97-.LEHB97
 3612 0270 E002     		.uleb128 .L182-.LFB1143
 3613 0272 01       		.uleb128 0x1
 3614 0273 9801     		.uleb128 .LEHB98-.LFB1143
 3615 0275 30       		.uleb128 .LEHE98-.LEHB98
 3616 0276 DE02     		.uleb128 .L183-.LFB1143
 3617 0278 01       		.uleb128 0x1
 3618 0279 D201     		.uleb128 .LEHB99-.LFB1143
 3619 027b 05       		.uleb128 .LEHE99-.LEHB99
 3620 027c BC03     		.uleb128 .L184-.LFB1143
 3621 027e 00       		.uleb128 0
 3622 027f EC01     		.uleb128 .LEHB100-.LFB1143
 3623 0281 05       		.uleb128 .LEHE100-.LEHB100
 3624 0282 D003     		.uleb128 .L181-.LFB1143
 3625 0284 00       		.uleb128 0
 3626 0285 FB01     		.uleb128 .LEHB101-.LFB1143
 3627 0287 05       		.uleb128 .LEHE101-.LEHB101
 3628 0288 00       		.uleb128 0
 3629 0289 00       		.uleb128 0
 3630 028a 9902     		.uleb128 .LEHB102-.LFB1143
 3631 028c 40       		.uleb128 .LEHE102-.LEHB102
 3632 028d ED03     		.uleb128 .L186-.LFB1143
 3633 028f 01       		.uleb128 0x1
 3634 0290 E802     		.uleb128 .LEHB103-.LFB1143
 3635 0292 40       		.uleb128 .LEHE103-.LEHB103
 3636 0293 B203     		.uleb128 .L185-.LFB1143
 3637 0295 00       		.uleb128 0
 3638 0296 A803     		.uleb128 .LEHB104-.LFB1143
 3639 0298 05       		.uleb128 .LEHE104-.LEHB104
 3640 0299 BC03     		.uleb128 .L184-.LFB1143
 3641 029b 00       		.uleb128 0
 3642 029c E803     		.uleb128 .LEHB105-.LFB1143
 3643 029e 05       		.uleb128 .LEHE105-.LEHB105
 3644 029f 00       		.uleb128 0
 3645 02a0 00       		.uleb128 0
 3646 02a1 F503     		.uleb128 .LEHB106-.LFB1143
 3647 02a3 40       		.uleb128 .LEHE106-.LEHB106
 3648 02a4 BC04     		.uleb128 .L187-.LFB1143
 3649 02a6 00       		.uleb128 0
 3650 02a7 B504     		.uleb128 .LEHB107-.LFB1143
 3651 02a9 05       		.uleb128 .LEHE107-.LEHB107
 3652 02aa 00       		.uleb128 0
 3653 02ab 00       		.uleb128 0
 3654 02ac CA04     		.uleb128 .LEHB108-.LFB1143
 3655 02ae 05       		.uleb128 .LEHE108-.LEHB108
 3656 02af 00       		.uleb128 0
 3657 02b0 00       		.uleb128 0
 3658              	.LLSDACSE1143:
 3659 02b1 01       		.byte	0x1
 3660 02b2 00       		.byte	0
 3661 02b3 00       		.align 4
 3662 02b4 00000000 		.long	0
 3663              	
 3664              	.LLSDATT1143:
 3665              		.text
 3667              		.section	.rodata
 3668 048a 00000000 		.align 8
 3668      0000
 3669              	.LC33:
 3670 0490 43686563 		.string	"CheckEqualFailureContainsCorrectDetails"
 3670      6B457175 
 3670      616C4661 
 3670      696C7572 
 3670      65436F6E 
 3671              		.text
 3672              		.align 2
 3674              	_ZN12_GLOBAL__N_143TestCheckEqualFailureContainsCorrectDetailsC2Ev:
 3675              	.LFB1145:
 137:TestCheckMacros.cpp **** 
 138:TestCheckMacros.cpp **** TEST(CheckEqualFailureContainsCorrectDetails)
 3676              		.loc 6 138 0
 3677              		.cfi_startproc
 3678 185e 55       		pushq	%rbp
 3679              		.cfi_def_cfa_offset 16
 3680              		.cfi_offset 6, -16
 3681 185f 4889E5   		movq	%rsp, %rbp
 3682              		.cfi_def_cfa_register 6
 3683 1862 53       		pushq	%rbx
 3684 1863 4883EC18 		subq	$24, %rsp
 3685              		.cfi_offset 3, -24
 3686 1867 48897DE8 		movq	%rdi, -24(%rbp)
 3687              	.LBB35:
 3688              		.loc 6 138 0
 3689 186b 488B5DE8 		movq	-24(%rbp), %rbx
 3690 186f E8000000 		call	_ZN13UnitTestSuite12GetSuiteNameEv
 3690      00
 3691 1874 41B88A00 		movl	$138, %r8d
 3691      0000
 3692 187a 488D0D00 		leaq	.LC2(%rip), %rcx
 3692      000000
 3693 1881 4889C2   		movq	%rax, %rdx
 3694 1884 488D3500 		leaq	.LC33(%rip), %rsi
 3694      000000
 3695 188b 4889DF   		movq	%rbx, %rdi
 3696 188e E8000000 		call	_ZN8UnitTest4TestC2EPKcS2_S2_i@PLT
 3696      00
 3697 1893 488D1500 		leaq	16+_ZTVN12_GLOBAL__N_143TestCheckEqualFailureContainsCorrectDetailsE(%rip), %rdx
 3697      000000
 3698 189a 488B45E8 		movq	-24(%rbp), %rax
 3699 189e 488910   		movq	%rdx, (%rax)
 3700              	.LBE35:
 3701 18a1 90       		nop
 3702 18a2 4883C418 		addq	$24, %rsp
 3703 18a6 5B       		popq	%rbx
 3704 18a7 5D       		popq	%rbp
 3705              		.cfi_def_cfa 7, 8
 3706 18a8 C3       		ret
 3707              		.cfi_endproc
 3708              	.LFE1145:
 3710              		.set	_ZN12_GLOBAL__N_143TestCheckEqualFailureContainsCorrectDetailsC1Ev,_ZN12_GLOBAL__N_143TestChe
 3711              		.local	_ZN12_GLOBAL__N_151testCheckEqualFailureContainsCorrectDetailsInstanceE
 3712              		.comm	_ZN12_GLOBAL__N_151testCheckEqualFailureContainsCorrectDetailsInstanceE,56,32
 3713              		.local	_ZN12_GLOBAL__N_144adderCheckEqualFailureContainsCorrectDetailsE
 3714              		.comm	_ZN12_GLOBAL__N_144adderCheckEqualFailureContainsCorrectDetailsE,1,1
 3715              		.section	.rodata
 3716              	.LC34:
 3717 04b8 66696C65 		.string	"filename"
 3717      6E616D65 
 3717      00
 3718              	.LC35:
 3719 04c1 73756974 		.string	"suiteName"
 3719      654E616D 
 3719      6500
 3720              	.LC36:
 3721 04cb 74657374 		.string	"testName"
 3721      4E616D65 
 3721      00
 3722 04d4 00000000 		.align 8
 3723              	.LC37:
 3724 04d8 556E6861 		.string	"Unhandled exception in CHECK_EQUAL(1, 123)"
 3724      6E646C65 
 3724      64206578 
 3724      63657074 
 3724      696F6E20 
 3725 0503 00000000 		.align 8
 3725      00
 3726              	.LC38:
 3727 0508 556E6861 		.string	"Unhandled exception in CHECK_EQUAL(\"testName\", reporter.lastFailedTest)"
 3727      6E646C65 
 3727      64206578 
 3727      63657074 
 3727      696F6E20 
 3728              		.align 8
 3729              	.LC39:
 3730 0550 556E6861 		.string	"Unhandled exception in CHECK_EQUAL(\"suiteName\", reporter.lastFailedSuite)"
 3730      6E646C65 
 3730      64206578 
 3730      63657074 
 3730      696F6E20 
 3731 059a 00000000 		.align 8
 3731      0000
 3732              	.LC40:
 3733 05a0 556E6861 		.string	"Unhandled exception in CHECK_EQUAL(\"filename\", reporter.lastFailedFile)"
 3733      6E646C65 
 3733      64206578 
 3733      63657074 
 3733      696F6E20 
 3734              		.align 8
 3735              	.LC41:
 3736 05e8 556E6861 		.string	"Unhandled exception in CHECK_EQUAL(line, reporter.lastFailedLine)"
 3736      6E646C65 
 3736      64206578 
 3736      63657074 
 3736      696F6E20 
 3737              		.text
 3738 18a9 90       		.align 2
 3740              	_ZNK12_GLOBAL__N_143TestCheckEqualFailureContainsCorrectDetails7RunImplEv:
 3741              	.LFB1147:
 139:TestCheckMacros.cpp **** {
 3742              		.loc 6 139 0
 3743              		.cfi_startproc
 3744              		.cfi_personality 0x9b,DW.ref.__gxx_personality_v0
 3745              		.cfi_lsda 0x1b,.LLSDA1147
 3746 18aa 55       		pushq	%rbp
 3747              		.cfi_def_cfa_offset 16
 3748              		.cfi_offset 6, -16
 3749 18ab 4889E5   		movq	%rsp, %rbp
 3750              		.cfi_def_cfa_register 6
 3751 18ae 53       		pushq	%rbx
 3752 18af 4881ECD8 		subq	$2264, %rsp
 3752      080000
 3753              		.cfi_offset 3, -24
 3754 18b6 4889BD28 		movq	%rdi, -2264(%rbp)
 3754      F7FFFF
 3755              		.loc 6 139 0
 3756 18bd 64488B04 		movq	%fs:40, %rax
 3756      25280000 
 3756      00
 3757 18c6 488945E8 		movq	%rax, -24(%rbp)
 3758 18ca 31C0     		xorl	%eax, %eax
 140:TestCheckMacros.cpp ****     int line = 0;
 3759              		.loc 6 140 0
 3760 18cc C78534F7 		movl	$0, -2252(%rbp)
 3760      FFFF0000 
 3760      0000
 141:TestCheckMacros.cpp ****     RecordingReporter reporter;
 3761              		.loc 6 141 0
 3762 18d6 488D85B0 		leaq	-2128(%rbp), %rax
 3762      F7FFFF
 3763 18dd 4889C7   		movq	%rax, %rdi
 3764 18e0 E8000000 		call	_ZN17RecordingReporterC1Ev
 3764      00
 3765              	.LBB36:
 142:TestCheckMacros.cpp ****     {
 143:TestCheckMacros.cpp ****         UnitTest::TestResults testResults(&reporter);
 3766              		.loc 6 143 0
 3767 18e5 488D95B0 		leaq	-2128(%rbp), %rdx
 3767      F7FFFF
 3768 18ec 488D8550 		leaq	-2224(%rbp), %rax
 3768      F7FFFF
 3769 18f3 4889D6   		movq	%rdx, %rsi
 3770 18f6 4889C7   		movq	%rax, %rdi
 3771              	.LEHB109:
 3772 18f9 E8000000 		call	_ZN8UnitTest11TestResultsC1EPNS_12TestReporterE@PLT
 3772      00
 144:TestCheckMacros.cpp **** 		UnitTest::TestDetails const testDetails("testName", "suiteName", "filename", -1);
 3773              		.loc 6 144 0
 3774 18fe 488D8570 		leaq	-2192(%rbp), %rax
 3774      F7FFFF
 3775 1905 41B8FFFF 		movl	$-1, %r8d
 3775      FFFF
 3776 190b 488D0D00 		leaq	.LC34(%rip), %rcx
 3776      000000
 3777 1912 488D1500 		leaq	.LC35(%rip), %rdx
 3777      000000
 3778 1919 488D3500 		leaq	.LC36(%rip), %rsi
 3778      000000
 3779 1920 4889C7   		movq	%rax, %rdi
 3780 1923 E8000000 		call	_ZN8UnitTest11TestDetailsC1EPKcS2_S2_i@PLT
 3780      00
 145:TestCheckMacros.cpp **** 		ScopedCurrentTest scopedResults(testResults, &testDetails);
 3781              		.loc 6 145 0
 3782 1928 488D9570 		leaq	-2192(%rbp), %rdx
 3782      F7FFFF
 3783 192f 488D8D50 		leaq	-2224(%rbp), %rcx
 3783      F7FFFF
 3784 1936 488D8540 		leaq	-2240(%rbp), %rax
 3784      F7FFFF
 3785 193d 4889CE   		movq	%rcx, %rsi
 3786 1940 4889C7   		movq	%rax, %rdi
 3787 1943 E8000000 		call	_ZN17ScopedCurrentTestC1ERN8UnitTest11TestResultsEPKNS0_11TestDetailsE
 3787      00
 3788              	.LEHE109:
 3789              	.LEHB110:
 146:TestCheckMacros.cpp **** 
 147:TestCheckMacros.cpp **** 		CHECK_EQUAL(1, 123);    line = __LINE__;
 3790              		.loc 6 147 0
 3791 1948 E8000000 		call	_ZN8UnitTest11CurrentTest7DetailsEv@PLT
 3791      00
 3792 194d 488B08   		movq	(%rax), %rcx
 3793 1950 488D8590 		leaq	-2160(%rbp), %rax
 3793      F7FFFF
 3794 1957 BA930000 		movl	$147, %edx
 3794      00
 3795 195c 4889CE   		movq	%rcx, %rsi
 3796 195f 4889C7   		movq	%rax, %rdi
 3797 1962 E8000000 		call	_ZN8UnitTest11TestDetailsC1ERKS0_i@PLT
 3797      00
 3798              	.LEHE110:
 3799              		.loc 6 147 0 is_stmt 0 discriminator 2
 3800 1967 C7853CF7 		movl	$123, -2244(%rbp)
 3800      FFFF7B00 
 3800      0000
 3801 1971 C78538F7 		movl	$1, -2248(%rbp)
 3801      FFFF0100 
 3801      0000
 3802              	.LEHB111:
 3803 197b E8000000 		call	_ZN8UnitTest11CurrentTest7ResultsEv@PLT
 3803      00
 3804 1980 488B00   		movq	(%rax), %rax
 3805 1983 488D8D90 		leaq	-2160(%rbp), %rcx
 3805      F7FFFF
 3806 198a 488D953C 		leaq	-2244(%rbp), %rdx
 3806      F7FFFF
 3807 1991 488DB538 		leaq	-2248(%rbp), %rsi
 3807      F7FFFF
 3808 1998 4889C7   		movq	%rax, %rdi
 3809 199b E8000000 		call	_ZN8UnitTest10CheckEqualIiiEEvRNS_11TestResultsERKT_RKT0_RKNS_11TestDetailsE
 3809      00
 3810              	.LEHE111:
 3811              	.L193:
 3812              		.loc 6 147 0 discriminator 7
 3813 19a0 C78534F7 		movl	$147, -2252(%rbp)
 3813      FFFF9300 
 3813      0000
 145:TestCheckMacros.cpp **** 		ScopedCurrentTest scopedResults(testResults, &testDetails);
 3814              		.loc 6 145 0 is_stmt 1 discriminator 7
 3815 19aa 488D8540 		leaq	-2240(%rbp), %rax
 3815      F7FFFF
 3816 19b1 4889C7   		movq	%rax, %rdi
 3817              	.LEHB112:
 3818 19b4 E8000000 		call	_ZN17ScopedCurrentTestD1Ev
 3818      00
 3819              	.LEHE112:
 3820              	.LEHB113:
 3821              	.LBE36:
 148:TestCheckMacros.cpp ****     }
 149:TestCheckMacros.cpp **** 
 150:TestCheckMacros.cpp ****     CHECK_EQUAL("testName", reporter.lastFailedTest);
 3822              		.loc 6 150 0
 3823 19b9 E8000000 		call	_ZN8UnitTest11CurrentTest7DetailsEv@PLT
 3823      00
 3824 19be 488B08   		movq	(%rax), %rcx
 3825 19c1 488D8590 		leaq	-2160(%rbp), %rax
 3825      F7FFFF
 3826 19c8 BA960000 		movl	$150, %edx
 3826      00
 3827 19cd 4889CE   		movq	%rcx, %rsi
 3828 19d0 4889C7   		movq	%rax, %rdi
 3829 19d3 E8000000 		call	_ZN8UnitTest11TestDetailsC1ERKS0_i@PLT
 3829      00
 3830              		.loc 6 150 0 is_stmt 0 discriminator 2
 3831 19d8 E8000000 		call	_ZN8UnitTest11CurrentTest7ResultsEv@PLT
 3831      00
 3832 19dd 488B00   		movq	(%rax), %rax
 3833 19e0 488D9590 		leaq	-2160(%rbp), %rdx
 3833      F7FFFF
 3834 19e7 488D8DB0 		leaq	-2128(%rbp), %rcx
 3834      F7FFFF
 3835 19ee 488DB114 		leaq	1044(%rcx), %rsi
 3835      040000
 3836 19f5 4889D1   		movq	%rdx, %rcx
 3837 19f8 4889F2   		movq	%rsi, %rdx
 3838 19fb 488D3500 		leaq	.LC36(%rip), %rsi
 3838      000000
 3839 1a02 4889C7   		movq	%rax, %rdi
 3840 1a05 E8000000 		call	_ZN8UnitTest10CheckEqualERNS_11TestResultsEPKcPcRKNS_11TestDetailsE@PLT
 3840      00
 3841              	.LEHE113:
 3842              	.L198:
 3843              	.LEHB114:
 151:TestCheckMacros.cpp ****     CHECK_EQUAL("suiteName", reporter.lastFailedSuite);
 3844              		.loc 6 151 0 is_stmt 1
 3845 1a0a E8000000 		call	_ZN8UnitTest11CurrentTest7DetailsEv@PLT
 3845      00
 3846 1a0f 488B08   		movq	(%rax), %rcx
 3847 1a12 488D8590 		leaq	-2160(%rbp), %rax
 3847      F7FFFF
 3848 1a19 BA970000 		movl	$151, %edx
 3848      00
 3849 1a1e 4889CE   		movq	%rcx, %rsi
 3850 1a21 4889C7   		movq	%rax, %rdi
 3851 1a24 E8000000 		call	_ZN8UnitTest11TestDetailsC1ERKS0_i@PLT
 3851      00
 3852              		.loc 6 151 0 is_stmt 0 discriminator 2
 3853 1a29 E8000000 		call	_ZN8UnitTest11CurrentTest7ResultsEv@PLT
 3853      00
 3854 1a2e 488B00   		movq	(%rax), %rax
 3855 1a31 488D9590 		leaq	-2160(%rbp), %rdx
 3855      F7FFFF
 3856 1a38 488D8DB0 		leaq	-2128(%rbp), %rcx
 3856      F7FFFF
 3857 1a3f 488DB114 		leaq	788(%rcx), %rsi
 3857      030000
 3858 1a46 4889D1   		movq	%rdx, %rcx
 3859 1a49 4889F2   		movq	%rsi, %rdx
 3860 1a4c 488D3500 		leaq	.LC35(%rip), %rsi
 3860      000000
 3861 1a53 4889C7   		movq	%rax, %rdi
 3862 1a56 E8000000 		call	_ZN8UnitTest10CheckEqualERNS_11TestResultsEPKcPcRKNS_11TestDetailsE@PLT
 3862      00
 3863              	.LEHE114:
 3864              	.L201:
 3865              	.LEHB115:
 152:TestCheckMacros.cpp ****     CHECK_EQUAL("filename", reporter.lastFailedFile);
 3866              		.loc 6 152 0 is_stmt 1
 3867 1a5b E8000000 		call	_ZN8UnitTest11CurrentTest7DetailsEv@PLT
 3867      00
 3868 1a60 488B08   		movq	(%rax), %rcx
 3869 1a63 488D8590 		leaq	-2160(%rbp), %rax
 3869      F7FFFF
 3870 1a6a BA980000 		movl	$152, %edx
 3870      00
 3871 1a6f 4889CE   		movq	%rcx, %rsi
 3872 1a72 4889C7   		movq	%rax, %rdi
 3873 1a75 E8000000 		call	_ZN8UnitTest11TestDetailsC1ERKS0_i@PLT
 3873      00
 3874              		.loc 6 152 0 is_stmt 0 discriminator 2
 3875 1a7a E8000000 		call	_ZN8UnitTest11CurrentTest7ResultsEv@PLT
 3875      00
 3876 1a7f 488B00   		movq	(%rax), %rax
 3877 1a82 488D9590 		leaq	-2160(%rbp), %rdx
 3877      F7FFFF
 3878 1a89 488D8DB0 		leaq	-2128(%rbp), %rcx
 3878      F7FFFF
 3879 1a90 488DB110 		leaq	528(%rcx), %rsi
 3879      020000
 3880 1a97 4889D1   		movq	%rdx, %rcx
 3881 1a9a 4889F2   		movq	%rsi, %rdx
 3882 1a9d 488D3500 		leaq	.LC34(%rip), %rsi
 3882      000000
 3883 1aa4 4889C7   		movq	%rax, %rdi
 3884 1aa7 E8000000 		call	_ZN8UnitTest10CheckEqualERNS_11TestResultsEPKcPcRKNS_11TestDetailsE@PLT
 3884      00
 3885              	.LEHE115:
 3886              	.L204:
 3887              	.LEHB116:
 153:TestCheckMacros.cpp ****     CHECK_EQUAL(line, reporter.lastFailedLine);
 3888              		.loc 6 153 0 is_stmt 1
 3889 1aac E8000000 		call	_ZN8UnitTest11CurrentTest7DetailsEv@PLT
 3889      00
 3890 1ab1 488B08   		movq	(%rax), %rcx
 3891 1ab4 488D8590 		leaq	-2160(%rbp), %rax
 3891      F7FFFF
 3892 1abb BA990000 		movl	$153, %edx
 3892      00
 3893 1ac0 4889CE   		movq	%rcx, %rsi
 3894 1ac3 4889C7   		movq	%rax, %rdi
 3895 1ac6 E8000000 		call	_ZN8UnitTest11TestDetailsC1ERKS0_i@PLT
 3895      00
 3896              		.loc 6 153 0 is_stmt 0 discriminator 2
 3897 1acb E8000000 		call	_ZN8UnitTest11CurrentTest7ResultsEv@PLT
 3897      00
 3898 1ad0 488B00   		movq	(%rax), %rax
 3899 1ad3 488D9590 		leaq	-2160(%rbp), %rdx
 3899      F7FFFF
 3900 1ada 488D8DB0 		leaq	-2128(%rbp), %rcx
 3900      F7FFFF
 3901 1ae1 488DB910 		leaq	784(%rcx), %rdi
 3901      030000
 3902 1ae8 488DB534 		leaq	-2252(%rbp), %rsi
 3902      F7FFFF
 3903 1aef 4889D1   		movq	%rdx, %rcx
 3904 1af2 4889FA   		movq	%rdi, %rdx
 3905 1af5 4889C7   		movq	%rax, %rdi
 3906 1af8 E8000000 		call	_ZN8UnitTest10CheckEqualIiiEEvRNS_11TestResultsERKT_RKT0_RKNS_11TestDetailsE
 3906      00
 3907              	.LEHE116:
 3908              	.L207:
 141:TestCheckMacros.cpp ****     {
 3909              		.loc 6 141 0 is_stmt 1
 3910 1afd 488D85B0 		leaq	-2128(%rbp), %rax
 3910      F7FFFF
 3911 1b04 4889C7   		movq	%rax, %rdi
 3912              	.LEHB117:
 3913 1b07 E8000000 		call	_ZN17RecordingReporterD1Ev
 3913      00
 3914              	.LEHE117:
 154:TestCheckMacros.cpp **** }
 3915              		.loc 6 154 0
 3916 1b0c 90       		nop
 3917 1b0d 488B45E8 		movq	-24(%rbp), %rax
 3918 1b11 64483304 		xorq	%fs:40, %rax
 3918      25280000 
 3918      00
 3919 1b1a 0F841202 		je	.L209
 3919      0000
 3920 1b20 E9080200 		jmp	.L223
 3920      00
 3921              	.L211:
 3922 1b25 EB00     		jmp	.L192
 3923              	.L210:
 3924              	.L192:
 3925              	.LBB37:
 147:TestCheckMacros.cpp ****     }
 3926              		.loc 6 147 0
 3927 1b27 4889C7   		movq	%rax, %rdi
 3928 1b2a E8000000 		call	__cxa_begin_catch@PLT
 3928      00
 3929              	.LEHB118:
 3930 1b2f E8000000 		call	_ZN8UnitTest11CurrentTest7ResultsEv@PLT
 3930      00
 3931 1b34 488B18   		movq	(%rax), %rbx
 3932 1b37 E8000000 		call	_ZN8UnitTest11CurrentTest7DetailsEv@PLT
 3932      00
 147:TestCheckMacros.cpp ****     }
 3933              		.loc 6 147 0 is_stmt 0 discriminator 9
 3934 1b3c 488B08   		movq	(%rax), %rcx
 3935 1b3f 488D8590 		leaq	-2160(%rbp), %rax
 3935      F7FFFF
 3936 1b46 BA930000 		movl	$147, %edx
 3936      00
 3937 1b4b 4889CE   		movq	%rcx, %rsi
 3938 1b4e 4889C7   		movq	%rax, %rdi
 3939 1b51 E8000000 		call	_ZN8UnitTest11TestDetailsC1ERKS0_i@PLT
 3939      00
 147:TestCheckMacros.cpp ****     }
 3940              		.loc 6 147 0 discriminator 13
 3941 1b56 488D8590 		leaq	-2160(%rbp), %rax
 3941      F7FFFF
 3942 1b5d 488D1500 		leaq	.LC37(%rip), %rdx
 3942      000000
 3943 1b64 4889C6   		movq	%rax, %rsi
 3944 1b67 4889DF   		movq	%rbx, %rdi
 3945 1b6a E8000000 		call	_ZN8UnitTest11TestResults13OnTestFailureERKNS_11TestDetailsEPKc@PLT
 3945      00
 3946              	.LEHE118:
 3947              	.LEHB119:
 147:TestCheckMacros.cpp ****     }
 3948              		.loc 6 147 0 discriminator 15
 3949 1b6f E8000000 		call	__cxa_end_catch@PLT
 3949      00
 3950              	.LEHE119:
 147:TestCheckMacros.cpp ****     }
 3951              		.loc 6 147 0
 3952 1b74 E927FEFF 		jmp	.L193
 3952      FF
 3953              	.L213:
 3954 1b79 4889C3   		movq	%rax, %rbx
 3955 1b7c E8000000 		call	__cxa_end_catch@PLT
 3955      00
 3956 1b81 EB03     		jmp	.L195
 3957              	.L212:
 3958 1b83 4889C3   		movq	%rax, %rbx
 3959              	.L195:
 145:TestCheckMacros.cpp **** 
 3960              		.loc 6 145 0 is_stmt 1
 3961 1b86 488D8540 		leaq	-2240(%rbp), %rax
 3961      F7FFFF
 3962 1b8d 4889C7   		movq	%rax, %rdi
 3963 1b90 E8000000 		call	_ZN17ScopedCurrentTestD1Ev
 3963      00
 3964 1b95 E9790100 		jmp	.L196
 3964      00
 3965              	.L215:
 3966              	.LBE37:
 150:TestCheckMacros.cpp ****     CHECK_EQUAL("suiteName", reporter.lastFailedSuite);
 3967              		.loc 6 150 0
 3968 1b9a 4889C7   		movq	%rax, %rdi
 3969 1b9d E8000000 		call	__cxa_begin_catch@PLT
 3969      00
 3970              	.LEHB120:
 3971 1ba2 E8000000 		call	_ZN8UnitTest11CurrentTest7ResultsEv@PLT
 3971      00
 3972 1ba7 488B18   		movq	(%rax), %rbx
 3973 1baa E8000000 		call	_ZN8UnitTest11CurrentTest7DetailsEv@PLT
 3973      00
 150:TestCheckMacros.cpp ****     CHECK_EQUAL("suiteName", reporter.lastFailedSuite);
 3974              		.loc 6 150 0 is_stmt 0 discriminator 8
 3975 1baf 488B08   		movq	(%rax), %rcx
 3976 1bb2 488D8590 		leaq	-2160(%rbp), %rax
 3976      F7FFFF
 3977 1bb9 BA960000 		movl	$150, %edx
 3977      00
 3978 1bbe 4889CE   		movq	%rcx, %rsi
 3979 1bc1 4889C7   		movq	%rax, %rdi
 3980 1bc4 E8000000 		call	_ZN8UnitTest11TestDetailsC1ERKS0_i@PLT
 3980      00
 150:TestCheckMacros.cpp ****     CHECK_EQUAL("suiteName", reporter.lastFailedSuite);
 3981              		.loc 6 150 0 discriminator 12
 3982 1bc9 488D8590 		leaq	-2160(%rbp), %rax
 3982      F7FFFF
 3983 1bd0 488D1500 		leaq	.LC38(%rip), %rdx
 3983      000000
 3984 1bd7 4889C6   		movq	%rax, %rsi
 3985 1bda 4889DF   		movq	%rbx, %rdi
 3986 1bdd E8000000 		call	_ZN8UnitTest11TestResults13OnTestFailureERKNS_11TestDetailsEPKc@PLT
 3986      00
 3987              	.LEHE120:
 3988              	.LEHB121:
 150:TestCheckMacros.cpp ****     CHECK_EQUAL("suiteName", reporter.lastFailedSuite);
 3989              		.loc 6 150 0 discriminator 14
 3990 1be2 E8000000 		call	__cxa_end_catch@PLT
 3990      00
 3991              	.LEHE121:
 150:TestCheckMacros.cpp ****     CHECK_EQUAL("suiteName", reporter.lastFailedSuite);
 3992              		.loc 6 150 0
 3993 1be7 E91EFEFF 		jmp	.L198
 3993      FF
 3994              	.L216:
 3995 1bec 4889C3   		movq	%rax, %rbx
 3996 1bef E8000000 		call	__cxa_end_catch@PLT
 3996      00
 3997 1bf4 E91A0100 		jmp	.L196
 3997      00
 3998              	.L217:
 151:TestCheckMacros.cpp ****     CHECK_EQUAL("filename", reporter.lastFailedFile);
 3999              		.loc 6 151 0 is_stmt 1
 4000 1bf9 4889C7   		movq	%rax, %rdi
 4001 1bfc E8000000 		call	__cxa_begin_catch@PLT
 4001      00
 4002              	.LEHB122:
 4003 1c01 E8000000 		call	_ZN8UnitTest11CurrentTest7ResultsEv@PLT
 4003      00
 4004 1c06 488B18   		movq	(%rax), %rbx
 4005 1c09 E8000000 		call	_ZN8UnitTest11CurrentTest7DetailsEv@PLT
 4005      00
 151:TestCheckMacros.cpp ****     CHECK_EQUAL("filename", reporter.lastFailedFile);
 4006              		.loc 6 151 0 is_stmt 0 discriminator 8
 4007 1c0e 488B08   		movq	(%rax), %rcx
 4008 1c11 488D8590 		leaq	-2160(%rbp), %rax
 4008      F7FFFF
 4009 1c18 BA970000 		movl	$151, %edx
 4009      00
 4010 1c1d 4889CE   		movq	%rcx, %rsi
 4011 1c20 4889C7   		movq	%rax, %rdi
 4012 1c23 E8000000 		call	_ZN8UnitTest11TestDetailsC1ERKS0_i@PLT
 4012      00
 151:TestCheckMacros.cpp ****     CHECK_EQUAL("filename", reporter.lastFailedFile);
 4013              		.loc 6 151 0 discriminator 12
 4014 1c28 488D8590 		leaq	-2160(%rbp), %rax
 4014      F7FFFF
 4015 1c2f 488D1500 		leaq	.LC39(%rip), %rdx
 4015      000000
 4016 1c36 4889C6   		movq	%rax, %rsi
 4017 1c39 4889DF   		movq	%rbx, %rdi
 4018 1c3c E8000000 		call	_ZN8UnitTest11TestResults13OnTestFailureERKNS_11TestDetailsEPKc@PLT
 4018      00
 4019              	.LEHE122:
 4020              	.LEHB123:
 151:TestCheckMacros.cpp ****     CHECK_EQUAL("filename", reporter.lastFailedFile);
 4021              		.loc 6 151 0 discriminator 14
 4022 1c41 E8000000 		call	__cxa_end_catch@PLT
 4022      00
 4023              	.LEHE123:
 151:TestCheckMacros.cpp ****     CHECK_EQUAL("filename", reporter.lastFailedFile);
 4024              		.loc 6 151 0
 4025 1c46 E910FEFF 		jmp	.L201
 4025      FF
 4026              	.L218:
 4027 1c4b 4889C3   		movq	%rax, %rbx
 4028 1c4e E8000000 		call	__cxa_end_catch@PLT
 4028      00
 4029 1c53 E9BB0000 		jmp	.L196
 4029      00
 4030              	.L219:
 152:TestCheckMacros.cpp ****     CHECK_EQUAL(line, reporter.lastFailedLine);
 4031              		.loc 6 152 0 is_stmt 1
 4032 1c58 4889C7   		movq	%rax, %rdi
 4033 1c5b E8000000 		call	__cxa_begin_catch@PLT
 4033      00
 4034              	.LEHB124:
 4035 1c60 E8000000 		call	_ZN8UnitTest11CurrentTest7ResultsEv@PLT
 4035      00
 4036 1c65 488B18   		movq	(%rax), %rbx
 4037 1c68 E8000000 		call	_ZN8UnitTest11CurrentTest7DetailsEv@PLT
 4037      00
 152:TestCheckMacros.cpp ****     CHECK_EQUAL(line, reporter.lastFailedLine);
 4038              		.loc 6 152 0 is_stmt 0 discriminator 8
 4039 1c6d 488B08   		movq	(%rax), %rcx
 4040 1c70 488D8590 		leaq	-2160(%rbp), %rax
 4040      F7FFFF
 4041 1c77 BA980000 		movl	$152, %edx
 4041      00
 4042 1c7c 4889CE   		movq	%rcx, %rsi
 4043 1c7f 4889C7   		movq	%rax, %rdi
 4044 1c82 E8000000 		call	_ZN8UnitTest11TestDetailsC1ERKS0_i@PLT
 4044      00
 152:TestCheckMacros.cpp ****     CHECK_EQUAL(line, reporter.lastFailedLine);
 4045              		.loc 6 152 0 discriminator 12
 4046 1c87 488D8590 		leaq	-2160(%rbp), %rax
 4046      F7FFFF
 4047 1c8e 488D1500 		leaq	.LC40(%rip), %rdx
 4047      000000
 4048 1c95 4889C6   		movq	%rax, %rsi
 4049 1c98 4889DF   		movq	%rbx, %rdi
 4050 1c9b E8000000 		call	_ZN8UnitTest11TestResults13OnTestFailureERKNS_11TestDetailsEPKc@PLT
 4050      00
 4051              	.LEHE124:
 4052              	.LEHB125:
 152:TestCheckMacros.cpp ****     CHECK_EQUAL(line, reporter.lastFailedLine);
 4053              		.loc 6 152 0 discriminator 14
 4054 1ca0 E8000000 		call	__cxa_end_catch@PLT
 4054      00
 4055              	.LEHE125:
 152:TestCheckMacros.cpp ****     CHECK_EQUAL(line, reporter.lastFailedLine);
 4056              		.loc 6 152 0
 4057 1ca5 E902FEFF 		jmp	.L204
 4057      FF
 4058              	.L220:
 4059 1caa 4889C3   		movq	%rax, %rbx
 4060 1cad E8000000 		call	__cxa_end_catch@PLT
 4060      00
 4061 1cb2 EB5F     		jmp	.L196
 4062              	.L221:
 153:TestCheckMacros.cpp **** }
 4063              		.loc 6 153 0 is_stmt 1
 4064 1cb4 4889C7   		movq	%rax, %rdi
 4065 1cb7 E8000000 		call	__cxa_begin_catch@PLT
 4065      00
 4066              	.LEHB126:
 4067 1cbc E8000000 		call	_ZN8UnitTest11CurrentTest7ResultsEv@PLT
 4067      00
 4068 1cc1 488B18   		movq	(%rax), %rbx
 4069 1cc4 E8000000 		call	_ZN8UnitTest11CurrentTest7DetailsEv@PLT
 4069      00
 153:TestCheckMacros.cpp **** }
 4070              		.loc 6 153 0 is_stmt 0 discriminator 8
 4071 1cc9 488B08   		movq	(%rax), %rcx
 4072 1ccc 488D8590 		leaq	-2160(%rbp), %rax
 4072      F7FFFF
 4073 1cd3 BA990000 		movl	$153, %edx
 4073      00
 4074 1cd8 4889CE   		movq	%rcx, %rsi
 4075 1cdb 4889C7   		movq	%rax, %rdi
 4076 1cde E8000000 		call	_ZN8UnitTest11TestDetailsC1ERKS0_i@PLT
 4076      00
 153:TestCheckMacros.cpp **** }
 4077              		.loc 6 153 0 discriminator 12
 4078 1ce3 488D8590 		leaq	-2160(%rbp), %rax
 4078      F7FFFF
 4079 1cea 488D1500 		leaq	.LC41(%rip), %rdx
 4079      000000
 4080 1cf1 4889C6   		movq	%rax, %rsi
 4081 1cf4 4889DF   		movq	%rbx, %rdi
 4082 1cf7 E8000000 		call	_ZN8UnitTest11TestResults13OnTestFailureERKNS_11TestDetailsEPKc@PLT
 4082      00
 4083              	.LEHE126:
 4084              	.LEHB127:
 153:TestCheckMacros.cpp **** }
 4085              		.loc 6 153 0 discriminator 14
 4086 1cfc E8000000 		call	__cxa_end_catch@PLT
 4086      00
 4087              	.LEHE127:
 153:TestCheckMacros.cpp **** }
 4088              		.loc 6 153 0
 4089 1d01 E9F7FDFF 		jmp	.L207
 4089      FF
 4090              	.L222:
 4091 1d06 4889C3   		movq	%rax, %rbx
 4092 1d09 E8000000 		call	__cxa_end_catch@PLT
 4092      00
 4093 1d0e EB03     		jmp	.L196
 4094              	.L214:
 4095 1d10 4889C3   		movq	%rax, %rbx
 4096              	.L196:
 141:TestCheckMacros.cpp ****     {
 4097              		.loc 6 141 0 is_stmt 1
 4098 1d13 488D85B0 		leaq	-2128(%rbp), %rax
 4098      F7FFFF
 4099 1d1a 4889C7   		movq	%rax, %rdi
 4100 1d1d E8000000 		call	_ZN17RecordingReporterD1Ev
 4100      00
 4101 1d22 4889D8   		movq	%rbx, %rax
 4102 1d25 4889C7   		movq	%rax, %rdi
 4103              	.LEHB128:
 4104 1d28 E8000000 		call	_Unwind_Resume@PLT
 4104      00
 4105              	.LEHE128:
 4106              	.L223:
 4107              		.loc 6 154 0
 4108 1d2d E8000000 		call	__stack_chk_fail@PLT
 4108      00
 4109              	.L209:
 4110 1d32 4881C4D8 		addq	$2264, %rsp
 4110      080000
 4111 1d39 5B       		popq	%rbx
 4112 1d3a 5D       		popq	%rbp
 4113              		.cfi_def_cfa 7, 8
 4114 1d3b C3       		ret
 4115              		.cfi_endproc
 4116              	.LFE1147:
 4117              		.section	.gcc_except_table
 4118              		.align 4
 4119              	.LLSDA1147:
 4120 02b8 FF       		.byte	0xff
 4121 02b9 9B       		.byte	0x9b
 4122 02ba 7D       		.uleb128 .LLSDATT1147-.LLSDATTD1147
 4123              	.LLSDATTD1147:
 4124 02bb 01       		.byte	0x1
 4125 02bc 75       		.uleb128 .LLSDACSE1147-.LLSDACSB1147
 4126              	.LLSDACSB1147:
 4127 02bd 4F       		.uleb128 .LEHB109-.LFB1147
 4128 02be 4F       		.uleb128 .LEHE109-.LEHB109
 4129 02bf E608     		.uleb128 .L214-.LFB1147
 4130 02c1 00       		.uleb128 0
 4131 02c2 9E01     		.uleb128 .LEHB110-.LFB1147
 4132 02c4 1F       		.uleb128 .LEHE110-.LEHB110
 4133 02c5 FD04     		.uleb128 .L210-.LFB1147
 4134 02c7 01       		.uleb128 0x1
 4135 02c8 D101     		.uleb128 .LEHB111-.LFB1147
 4136 02ca 25       		.uleb128 .LEHE111-.LEHB111
 4137 02cb FB04     		.uleb128 .L211-.LFB1147
 4138 02cd 01       		.uleb128 0x1
 4139 02ce 8A02     		.uleb128 .LEHB112-.LFB1147
 4140 02d0 05       		.uleb128 .LEHE112-.LEHB112
 4141 02d1 E608     		.uleb128 .L214-.LFB1147
 4142 02d3 00       		.uleb128 0
 4143 02d4 8F02     		.uleb128 .LEHB113-.LFB1147
 4144 02d6 51       		.uleb128 .LEHE113-.LEHB113
 4145 02d7 F005     		.uleb128 .L215-.LFB1147
 4146 02d9 01       		.uleb128 0x1
 4147 02da E002     		.uleb128 .LEHB114-.LFB1147
 4148 02dc 51       		.uleb128 .LEHE114-.LEHB114
 4149 02dd CF06     		.uleb128 .L217-.LFB1147
 4150 02df 01       		.uleb128 0x1
 4151 02e0 B103     		.uleb128 .LEHB115-.LFB1147
 4152 02e2 51       		.uleb128 .LEHE115-.LEHB115
 4153 02e3 AE07     		.uleb128 .L219-.LFB1147
 4154 02e5 01       		.uleb128 0x1
 4155 02e6 8204     		.uleb128 .LEHB116-.LFB1147
 4156 02e8 51       		.uleb128 .LEHE116-.LEHB116
 4157 02e9 8A08     		.uleb128 .L221-.LFB1147
 4158 02eb 01       		.uleb128 0x1
 4159 02ec DD04     		.uleb128 .LEHB117-.LFB1147
 4160 02ee 05       		.uleb128 .LEHE117-.LEHB117
 4161 02ef 00       		.uleb128 0
 4162 02f0 00       		.uleb128 0
 4163 02f1 8505     		.uleb128 .LEHB118-.LFB1147
 4164 02f3 40       		.uleb128 .LEHE118-.LEHB118
 4165 02f4 CF05     		.uleb128 .L213-.LFB1147
 4166 02f6 00       		.uleb128 0
 4167 02f7 C505     		.uleb128 .LEHB119-.LFB1147
 4168 02f9 05       		.uleb128 .LEHE119-.LEHB119
 4169 02fa D905     		.uleb128 .L212-.LFB1147
 4170 02fc 00       		.uleb128 0
 4171 02fd F805     		.uleb128 .LEHB120-.LFB1147
 4172 02ff 40       		.uleb128 .LEHE120-.LEHB120
 4173 0300 C206     		.uleb128 .L216-.LFB1147
 4174 0302 00       		.uleb128 0
 4175 0303 B806     		.uleb128 .LEHB121-.LFB1147
 4176 0305 05       		.uleb128 .LEHE121-.LEHB121
 4177 0306 E608     		.uleb128 .L214-.LFB1147
 4178 0308 00       		.uleb128 0
 4179 0309 D706     		.uleb128 .LEHB122-.LFB1147
 4180 030b 40       		.uleb128 .LEHE122-.LEHB122
 4181 030c A107     		.uleb128 .L218-.LFB1147
 4182 030e 00       		.uleb128 0
 4183 030f 9707     		.uleb128 .LEHB123-.LFB1147
 4184 0311 05       		.uleb128 .LEHE123-.LEHB123
 4185 0312 E608     		.uleb128 .L214-.LFB1147
 4186 0314 00       		.uleb128 0
 4187 0315 B607     		.uleb128 .LEHB124-.LFB1147
 4188 0317 40       		.uleb128 .LEHE124-.LEHB124
 4189 0318 8008     		.uleb128 .L220-.LFB1147
 4190 031a 00       		.uleb128 0
 4191 031b F607     		.uleb128 .LEHB125-.LFB1147
 4192 031d 05       		.uleb128 .LEHE125-.LEHB125
 4193 031e E608     		.uleb128 .L214-.LFB1147
 4194 0320 00       		.uleb128 0
 4195 0321 9208     		.uleb128 .LEHB126-.LFB1147
 4196 0323 40       		.uleb128 .LEHE126-.LEHB126
 4197 0324 DC08     		.uleb128 .L222-.LFB1147
 4198 0326 00       		.uleb128 0
 4199 0327 D208     		.uleb128 .LEHB127-.LFB1147
 4200 0329 05       		.uleb128 .LEHE127-.LEHB127
 4201 032a E608     		.uleb128 .L214-.LFB1147
 4202 032c 00       		.uleb128 0
 4203 032d FE08     		.uleb128 .LEHB128-.LFB1147
 4204 032f 05       		.uleb128 .LEHE128-.LEHB128
 4205 0330 00       		.uleb128 0
 4206 0331 00       		.uleb128 0
 4207              	.LLSDACSE1147:
 4208 0332 01       		.byte	0x1
 4209 0333 00       		.byte	0
 4210              		.align 4
 4211 0334 00000000 		.long	0
 4212              	
 4213              	.LLSDATT1147:
 4214              		.text
 4216              		.section	.rodata
 4217 062a 00000000 		.align 8
 4217      0000
 4218              	.LC42:
 4219 0630 43686563 		.string	"CheckEqualFailureBecauseOfExceptionContainsCorrectDetails"
 4219      6B457175 
 4219      616C4661 
 4219      696C7572 
 4219      65426563 
 4220              		.text
 4221              		.align 2
 4223              	_ZN12_GLOBAL__N_161TestCheckEqualFailureBecauseOfExceptionContainsCorrectDetailsC2Ev:
 4224              	.LFB1149:
 155:TestCheckMacros.cpp **** 
 156:TestCheckMacros.cpp **** TEST(CheckEqualFailureBecauseOfExceptionContainsCorrectDetails)
 4225              		.loc 6 156 0
 4226              		.cfi_startproc
 4227 1d3c 55       		pushq	%rbp
 4228              		.cfi_def_cfa_offset 16
 4229              		.cfi_offset 6, -16
 4230 1d3d 4889E5   		movq	%rsp, %rbp
 4231              		.cfi_def_cfa_register 6
 4232 1d40 53       		pushq	%rbx
 4233 1d41 4883EC18 		subq	$24, %rsp
 4234              		.cfi_offset 3, -24
 4235 1d45 48897DE8 		movq	%rdi, -24(%rbp)
 4236              	.LBB38:
 4237              		.loc 6 156 0
 4238 1d49 488B5DE8 		movq	-24(%rbp), %rbx
 4239 1d4d E8000000 		call	_ZN13UnitTestSuite12GetSuiteNameEv
 4239      00
 4240 1d52 41B89C00 		movl	$156, %r8d
 4240      0000
 4241 1d58 488D0D00 		leaq	.LC2(%rip), %rcx
 4241      000000
 4242 1d5f 4889C2   		movq	%rax, %rdx
 4243 1d62 488D3500 		leaq	.LC42(%rip), %rsi
 4243      000000
 4244 1d69 4889DF   		movq	%rbx, %rdi
 4245 1d6c E8000000 		call	_ZN8UnitTest4TestC2EPKcS2_S2_i@PLT
 4245      00
 4246 1d71 488D1500 		leaq	16+_ZTVN12_GLOBAL__N_161TestCheckEqualFailureBecauseOfExceptionContainsCorrectDetailsE(%rip),
 4246      000000
 4247 1d78 488B45E8 		movq	-24(%rbp), %rax
 4248 1d7c 488910   		movq	%rdx, (%rax)
 4249              	.LBE38:
 4250 1d7f 90       		nop
 4251 1d80 4883C418 		addq	$24, %rsp
 4252 1d84 5B       		popq	%rbx
 4253 1d85 5D       		popq	%rbp
 4254              		.cfi_def_cfa 7, 8
 4255 1d86 C3       		ret
 4256              		.cfi_endproc
 4257              	.LFE1149:
 4259              		.set	_ZN12_GLOBAL__N_161TestCheckEqualFailureBecauseOfExceptionContainsCorrectDetailsC1Ev,_ZN12_GL
 4260              		.local	_ZN12_GLOBAL__N_169testCheckEqualFailureBecauseOfExceptionContainsCorrectDetailsInstanceE
 4261              		.comm	_ZN12_GLOBAL__N_169testCheckEqualFailureBecauseOfExceptionContainsCorrectDetailsInstanceE,56
 4262              		.local	_ZN12_GLOBAL__N_162adderCheckEqualFailureBecauseOfExceptionContainsCorrectDetailsE
 4263              		.comm	_ZN12_GLOBAL__N_162adderCheckEqualFailureBecauseOfExceptionContainsCorrectDetailsE,1,1
 4264              		.section	.rodata
 4265 066a 00000000 		.align 8
 4265      0000
 4266              	.LC43:
 4267 0670 556E6861 		.string	"Unhandled exception in CHECK_EQUAL(ThrowingFunction(), 123)"
 4267      6E646C65 
 4267      64206578 
 4267      63657074 
 4267      696F6E20 
 4268              		.text
 4269 1d87 90       		.align 2
 4271              	_ZNK12_GLOBAL__N_161TestCheckEqualFailureBecauseOfExceptionContainsCorrectDetails7RunImplEv:
 4272              	.LFB1151:
 157:TestCheckMacros.cpp **** {
 4273              		.loc 6 157 0
 4274              		.cfi_startproc
 4275              		.cfi_personality 0x9b,DW.ref.__gxx_personality_v0
 4276              		.cfi_lsda 0x1b,.LLSDA1151
 4277 1d88 55       		pushq	%rbp
 4278              		.cfi_def_cfa_offset 16
 4279              		.cfi_offset 6, -16
 4280 1d89 4889E5   		movq	%rsp, %rbp
 4281              		.cfi_def_cfa_register 6
 4282 1d8c 53       		pushq	%rbx
 4283 1d8d 4881ECD8 		subq	$2264, %rsp
 4283      080000
 4284              		.cfi_offset 3, -24
 4285 1d94 4889BD28 		movq	%rdi, -2264(%rbp)
 4285      F7FFFF
 4286              		.loc 6 157 0
 4287 1d9b 64488B04 		movq	%fs:40, %rax
 4287      25280000 
 4287      00
 4288 1da4 488945E8 		movq	%rax, -24(%rbp)
 4289 1da8 31C0     		xorl	%eax, %eax
 158:TestCheckMacros.cpp ****     int line = 0;
 4290              		.loc 6 158 0
 4291 1daa C78534F7 		movl	$0, -2252(%rbp)
 4291      FFFF0000 
 4291      0000
 159:TestCheckMacros.cpp ****     RecordingReporter reporter;
 4292              		.loc 6 159 0
 4293 1db4 488D85B0 		leaq	-2128(%rbp), %rax
 4293      F7FFFF
 4294 1dbb 4889C7   		movq	%rax, %rdi
 4295 1dbe E8000000 		call	_ZN17RecordingReporterC1Ev
 4295      00
 4296              	.LBB39:
 160:TestCheckMacros.cpp ****     {
 161:TestCheckMacros.cpp ****         UnitTest::TestResults testResults(&reporter);
 4297              		.loc 6 161 0
 4298 1dc3 488D95B0 		leaq	-2128(%rbp), %rdx
 4298      F7FFFF
 4299 1dca 488D8550 		leaq	-2224(%rbp), %rax
 4299      F7FFFF
 4300 1dd1 4889D6   		movq	%rdx, %rsi
 4301 1dd4 4889C7   		movq	%rax, %rdi
 4302              	.LEHB129:
 4303 1dd7 E8000000 		call	_ZN8UnitTest11TestResultsC1EPNS_12TestReporterE@PLT
 4303      00
 162:TestCheckMacros.cpp **** 		UnitTest::TestDetails const testDetails("testName", "suiteName", "filename", -1);
 4304              		.loc 6 162 0
 4305 1ddc 488D8570 		leaq	-2192(%rbp), %rax
 4305      F7FFFF
 4306 1de3 41B8FFFF 		movl	$-1, %r8d
 4306      FFFF
 4307 1de9 488D0D00 		leaq	.LC34(%rip), %rcx
 4307      000000
 4308 1df0 488D1500 		leaq	.LC35(%rip), %rdx
 4308      000000
 4309 1df7 488D3500 		leaq	.LC36(%rip), %rsi
 4309      000000
 4310 1dfe 4889C7   		movq	%rax, %rdi
 4311 1e01 E8000000 		call	_ZN8UnitTest11TestDetailsC1EPKcS2_S2_i@PLT
 4311      00
 163:TestCheckMacros.cpp **** 		ScopedCurrentTest scopedResults(testResults, &testDetails);
 4312              		.loc 6 163 0
 4313 1e06 488D9570 		leaq	-2192(%rbp), %rdx
 4313      F7FFFF
 4314 1e0d 488D8D50 		leaq	-2224(%rbp), %rcx
 4314      F7FFFF
 4315 1e14 488D8540 		leaq	-2240(%rbp), %rax
 4315      F7FFFF
 4316 1e1b 4889CE   		movq	%rcx, %rsi
 4317 1e1e 4889C7   		movq	%rax, %rdi
 4318 1e21 E8000000 		call	_ZN17ScopedCurrentTestC1ERN8UnitTest11TestResultsEPKNS0_11TestDetailsE
 4318      00
 4319              	.LEHE129:
 4320              	.LEHB130:
 164:TestCheckMacros.cpp **** 
 165:TestCheckMacros.cpp **** 		CHECK_EQUAL(ThrowingFunction(), 123);    line = __LINE__;
 4321              		.loc 6 165 0
 4322 1e26 E8000000 		call	_ZN8UnitTest11CurrentTest7DetailsEv@PLT
 4322      00
 4323 1e2b 488B08   		movq	(%rax), %rcx
 4324 1e2e 488D8590 		leaq	-2160(%rbp), %rax
 4324      F7FFFF
 4325 1e35 BAA50000 		movl	$165, %edx
 4325      00
 4326 1e3a 4889CE   		movq	%rcx, %rsi
 4327 1e3d 4889C7   		movq	%rax, %rdi
 4328 1e40 E8000000 		call	_ZN8UnitTest11TestDetailsC1ERKS0_i@PLT
 4328      00
 4329              	.LEHE130:
 4330              		.loc 6 165 0 is_stmt 0 discriminator 2
 4331 1e45 C7853CF7 		movl	$123, -2244(%rbp)
 4331      FFFF7B00 
 4331      0000
 4332              	.LEHB131:
 4333 1e4f E844ECFF 		call	_ZN12_GLOBAL__N_116ThrowingFunctionEv
 4333      FF
 4334 1e54 898538F7 		movl	%eax, -2248(%rbp)
 4334      FFFF
 4335 1e5a E8000000 		call	_ZN8UnitTest11CurrentTest7ResultsEv@PLT
 4335      00
 4336              		.loc 6 165 0 discriminator 4
 4337 1e5f 488B00   		movq	(%rax), %rax
 4338 1e62 488D8D90 		leaq	-2160(%rbp), %rcx
 4338      F7FFFF
 4339 1e69 488D953C 		leaq	-2244(%rbp), %rdx
 4339      F7FFFF
 4340 1e70 488DB538 		leaq	-2248(%rbp), %rsi
 4340      F7FFFF
 4341 1e77 4889C7   		movq	%rax, %rdi
 4342 1e7a E8000000 		call	_ZN8UnitTest10CheckEqualIiiEEvRNS_11TestResultsERKT_RKT0_RKNS_11TestDetailsE
 4342      00
 4343              	.LEHE131:
 4344              	.L228:
 4345              		.loc 6 165 0 discriminator 9
 4346 1e7f C78534F7 		movl	$165, -2252(%rbp)
 4346      FFFFA500 
 4346      0000
 163:TestCheckMacros.cpp **** 		ScopedCurrentTest scopedResults(testResults, &testDetails);
 4347              		.loc 6 163 0 is_stmt 1 discriminator 9
 4348 1e89 488D8540 		leaq	-2240(%rbp), %rax
 4348      F7FFFF
 4349 1e90 4889C7   		movq	%rax, %rdi
 4350              	.LEHB132:
 4351 1e93 E8000000 		call	_ZN17ScopedCurrentTestD1Ev
 4351      00
 4352              	.LEHE132:
 4353              	.LEHB133:
 4354              	.LBE39:
 166:TestCheckMacros.cpp ****     }
 167:TestCheckMacros.cpp **** 
 168:TestCheckMacros.cpp ****     CHECK_EQUAL("testName", reporter.lastFailedTest);
 4355              		.loc 6 168 0
 4356 1e98 E8000000 		call	_ZN8UnitTest11CurrentTest7DetailsEv@PLT
 4356      00
 4357 1e9d 488B08   		movq	(%rax), %rcx
 4358 1ea0 488D8590 		leaq	-2160(%rbp), %rax
 4358      F7FFFF
 4359 1ea7 BAA80000 		movl	$168, %edx
 4359      00
 4360 1eac 4889CE   		movq	%rcx, %rsi
 4361 1eaf 4889C7   		movq	%rax, %rdi
 4362 1eb2 E8000000 		call	_ZN8UnitTest11TestDetailsC1ERKS0_i@PLT
 4362      00
 4363              		.loc 6 168 0 is_stmt 0 discriminator 2
 4364 1eb7 E8000000 		call	_ZN8UnitTest11CurrentTest7ResultsEv@PLT
 4364      00
 4365 1ebc 488B00   		movq	(%rax), %rax
 4366 1ebf 488D9590 		leaq	-2160(%rbp), %rdx
 4366      F7FFFF
 4367 1ec6 488D8DB0 		leaq	-2128(%rbp), %rcx
 4367      F7FFFF
 4368 1ecd 488DB114 		leaq	1044(%rcx), %rsi
 4368      040000
 4369 1ed4 4889D1   		movq	%rdx, %rcx
 4370 1ed7 4889F2   		movq	%rsi, %rdx
 4371 1eda 488D3500 		leaq	.LC36(%rip), %rsi
 4371      000000
 4372 1ee1 4889C7   		movq	%rax, %rdi
 4373 1ee4 E8000000 		call	_ZN8UnitTest10CheckEqualERNS_11TestResultsEPKcPcRKNS_11TestDetailsE@PLT
 4373      00
 4374              	.LEHE133:
 4375              	.L233:
 4376              	.LEHB134:
 169:TestCheckMacros.cpp ****     CHECK_EQUAL("suiteName", reporter.lastFailedSuite);
 4377              		.loc 6 169 0 is_stmt 1
 4378 1ee9 E8000000 		call	_ZN8UnitTest11CurrentTest7DetailsEv@PLT
 4378      00
 4379 1eee 488B08   		movq	(%rax), %rcx
 4380 1ef1 488D8590 		leaq	-2160(%rbp), %rax
 4380      F7FFFF
 4381 1ef8 BAA90000 		movl	$169, %edx
 4381      00
 4382 1efd 4889CE   		movq	%rcx, %rsi
 4383 1f00 4889C7   		movq	%rax, %rdi
 4384 1f03 E8000000 		call	_ZN8UnitTest11TestDetailsC1ERKS0_i@PLT
 4384      00
 4385              		.loc 6 169 0 is_stmt 0 discriminator 2
 4386 1f08 E8000000 		call	_ZN8UnitTest11CurrentTest7ResultsEv@PLT
 4386      00
 4387 1f0d 488B00   		movq	(%rax), %rax
 4388 1f10 488D9590 		leaq	-2160(%rbp), %rdx
 4388      F7FFFF
 4389 1f17 488D8DB0 		leaq	-2128(%rbp), %rcx
 4389      F7FFFF
 4390 1f1e 488DB114 		leaq	788(%rcx), %rsi
 4390      030000
 4391 1f25 4889D1   		movq	%rdx, %rcx
 4392 1f28 4889F2   		movq	%rsi, %rdx
 4393 1f2b 488D3500 		leaq	.LC35(%rip), %rsi
 4393      000000
 4394 1f32 4889C7   		movq	%rax, %rdi
 4395 1f35 E8000000 		call	_ZN8UnitTest10CheckEqualERNS_11TestResultsEPKcPcRKNS_11TestDetailsE@PLT
 4395      00
 4396              	.LEHE134:
 4397              	.L236:
 4398              	.LEHB135:
 170:TestCheckMacros.cpp ****     CHECK_EQUAL("filename", reporter.lastFailedFile);
 4399              		.loc 6 170 0 is_stmt 1
 4400 1f3a E8000000 		call	_ZN8UnitTest11CurrentTest7DetailsEv@PLT
 4400      00
 4401 1f3f 488B08   		movq	(%rax), %rcx
 4402 1f42 488D8590 		leaq	-2160(%rbp), %rax
 4402      F7FFFF
 4403 1f49 BAAA0000 		movl	$170, %edx
 4403      00
 4404 1f4e 4889CE   		movq	%rcx, %rsi
 4405 1f51 4889C7   		movq	%rax, %rdi
 4406 1f54 E8000000 		call	_ZN8UnitTest11TestDetailsC1ERKS0_i@PLT
 4406      00
 4407              		.loc 6 170 0 is_stmt 0 discriminator 2
 4408 1f59 E8000000 		call	_ZN8UnitTest11CurrentTest7ResultsEv@PLT
 4408      00
 4409 1f5e 488B00   		movq	(%rax), %rax
 4410 1f61 488D9590 		leaq	-2160(%rbp), %rdx
 4410      F7FFFF
 4411 1f68 488D8DB0 		leaq	-2128(%rbp), %rcx
 4411      F7FFFF
 4412 1f6f 488DB110 		leaq	528(%rcx), %rsi
 4412      020000
 4413 1f76 4889D1   		movq	%rdx, %rcx
 4414 1f79 4889F2   		movq	%rsi, %rdx
 4415 1f7c 488D3500 		leaq	.LC34(%rip), %rsi
 4415      000000
 4416 1f83 4889C7   		movq	%rax, %rdi
 4417 1f86 E8000000 		call	_ZN8UnitTest10CheckEqualERNS_11TestResultsEPKcPcRKNS_11TestDetailsE@PLT
 4417      00
 4418              	.LEHE135:
 4419              	.L239:
 4420              	.LEHB136:
 171:TestCheckMacros.cpp ****     CHECK_EQUAL(line, reporter.lastFailedLine);
 4421              		.loc 6 171 0 is_stmt 1
 4422 1f8b E8000000 		call	_ZN8UnitTest11CurrentTest7DetailsEv@PLT
 4422      00
 4423 1f90 488B08   		movq	(%rax), %rcx
 4424 1f93 488D8590 		leaq	-2160(%rbp), %rax
 4424      F7FFFF
 4425 1f9a BAAB0000 		movl	$171, %edx
 4425      00
 4426 1f9f 4889CE   		movq	%rcx, %rsi
 4427 1fa2 4889C7   		movq	%rax, %rdi
 4428 1fa5 E8000000 		call	_ZN8UnitTest11TestDetailsC1ERKS0_i@PLT
 4428      00
 4429              		.loc 6 171 0 is_stmt 0 discriminator 2
 4430 1faa E8000000 		call	_ZN8UnitTest11CurrentTest7ResultsEv@PLT
 4430      00
 4431 1faf 488B00   		movq	(%rax), %rax
 4432 1fb2 488D9590 		leaq	-2160(%rbp), %rdx
 4432      F7FFFF
 4433 1fb9 488D8DB0 		leaq	-2128(%rbp), %rcx
 4433      F7FFFF
 4434 1fc0 488DB910 		leaq	784(%rcx), %rdi
 4434      030000
 4435 1fc7 488DB534 		leaq	-2252(%rbp), %rsi
 4435      F7FFFF
 4436 1fce 4889D1   		movq	%rdx, %rcx
 4437 1fd1 4889FA   		movq	%rdi, %rdx
 4438 1fd4 4889C7   		movq	%rax, %rdi
 4439 1fd7 E8000000 		call	_ZN8UnitTest10CheckEqualIiiEEvRNS_11TestResultsERKT_RKT0_RKNS_11TestDetailsE
 4439      00
 4440              	.LEHE136:
 4441              	.L242:
 159:TestCheckMacros.cpp ****     {
 4442              		.loc 6 159 0 is_stmt 1
 4443 1fdc 488D85B0 		leaq	-2128(%rbp), %rax
 4443      F7FFFF
 4444 1fe3 4889C7   		movq	%rax, %rdi
 4445              	.LEHB137:
 4446 1fe6 E8000000 		call	_ZN17RecordingReporterD1Ev
 4446      00
 4447              	.LEHE137:
 172:TestCheckMacros.cpp **** }
 4448              		.loc 6 172 0
 4449 1feb 90       		nop
 4450 1fec 488B45E8 		movq	-24(%rbp), %rax
 4451 1ff0 64483304 		xorq	%fs:40, %rax
 4451      25280000 
 4451      00
 4452 1ff9 0F841202 		je	.L244
 4452      0000
 4453 1fff E9080200 		jmp	.L258
 4453      00
 4454              	.L246:
 4455 2004 EB00     		jmp	.L227
 4456              	.L245:
 4457              	.L227:
 4458              	.LBB40:
 165:TestCheckMacros.cpp ****     }
 4459              		.loc 6 165 0
 4460 2006 4889C7   		movq	%rax, %rdi
 4461 2009 E8000000 		call	__cxa_begin_catch@PLT
 4461      00
 4462              	.LEHB138:
 4463 200e E8000000 		call	_ZN8UnitTest11CurrentTest7ResultsEv@PLT
 4463      00
 4464 2013 488B18   		movq	(%rax), %rbx
 4465 2016 E8000000 		call	_ZN8UnitTest11CurrentTest7DetailsEv@PLT
 4465      00
 165:TestCheckMacros.cpp ****     }
 4466              		.loc 6 165 0 is_stmt 0 discriminator 11
 4467 201b 488B08   		movq	(%rax), %rcx
 4468 201e 488D8590 		leaq	-2160(%rbp), %rax
 4468      F7FFFF
 4469 2025 BAA50000 		movl	$165, %edx
 4469      00
 4470 202a 4889CE   		movq	%rcx, %rsi
 4471 202d 4889C7   		movq	%rax, %rdi
 4472 2030 E8000000 		call	_ZN8UnitTest11TestDetailsC1ERKS0_i@PLT
 4472      00
 165:TestCheckMacros.cpp ****     }
 4473              		.loc 6 165 0 discriminator 15
 4474 2035 488D8590 		leaq	-2160(%rbp), %rax
 4474      F7FFFF
 4475 203c 488D1500 		leaq	.LC43(%rip), %rdx
 4475      000000
 4476 2043 4889C6   		movq	%rax, %rsi
 4477 2046 4889DF   		movq	%rbx, %rdi
 4478 2049 E8000000 		call	_ZN8UnitTest11TestResults13OnTestFailureERKNS_11TestDetailsEPKc@PLT
 4478      00
 4479              	.LEHE138:
 4480              	.LEHB139:
 165:TestCheckMacros.cpp ****     }
 4481              		.loc 6 165 0 discriminator 17
 4482 204e E8000000 		call	__cxa_end_catch@PLT
 4482      00
 4483              	.LEHE139:
 165:TestCheckMacros.cpp ****     }
 4484              		.loc 6 165 0
 4485 2053 E927FEFF 		jmp	.L228
 4485      FF
 4486              	.L248:
 4487 2058 4889C3   		movq	%rax, %rbx
 4488 205b E8000000 		call	__cxa_end_catch@PLT
 4488      00
 4489 2060 EB03     		jmp	.L230
 4490              	.L247:
 4491 2062 4889C3   		movq	%rax, %rbx
 4492              	.L230:
 163:TestCheckMacros.cpp **** 
 4493              		.loc 6 163 0 is_stmt 1
 4494 2065 488D8540 		leaq	-2240(%rbp), %rax
 4494      F7FFFF
 4495 206c 4889C7   		movq	%rax, %rdi
 4496 206f E8000000 		call	_ZN17ScopedCurrentTestD1Ev
 4496      00
 4497 2074 E9790100 		jmp	.L231
 4497      00
 4498              	.L250:
 4499              	.LBE40:
 168:TestCheckMacros.cpp ****     CHECK_EQUAL("suiteName", reporter.lastFailedSuite);
 4500              		.loc 6 168 0
 4501 2079 4889C7   		movq	%rax, %rdi
 4502 207c E8000000 		call	__cxa_begin_catch@PLT
 4502      00
 4503              	.LEHB140:
 4504 2081 E8000000 		call	_ZN8UnitTest11CurrentTest7ResultsEv@PLT
 4504      00
 4505 2086 488B18   		movq	(%rax), %rbx
 4506 2089 E8000000 		call	_ZN8UnitTest11CurrentTest7DetailsEv@PLT
 4506      00
 168:TestCheckMacros.cpp ****     CHECK_EQUAL("suiteName", reporter.lastFailedSuite);
 4507              		.loc 6 168 0 is_stmt 0 discriminator 8
 4508 208e 488B08   		movq	(%rax), %rcx
 4509 2091 488D8590 		leaq	-2160(%rbp), %rax
 4509      F7FFFF
 4510 2098 BAA80000 		movl	$168, %edx
 4510      00
 4511 209d 4889CE   		movq	%rcx, %rsi
 4512 20a0 4889C7   		movq	%rax, %rdi
 4513 20a3 E8000000 		call	_ZN8UnitTest11TestDetailsC1ERKS0_i@PLT
 4513      00
 168:TestCheckMacros.cpp ****     CHECK_EQUAL("suiteName", reporter.lastFailedSuite);
 4514              		.loc 6 168 0 discriminator 12
 4515 20a8 488D8590 		leaq	-2160(%rbp), %rax
 4515      F7FFFF
 4516 20af 488D1500 		leaq	.LC38(%rip), %rdx
 4516      000000
 4517 20b6 4889C6   		movq	%rax, %rsi
 4518 20b9 4889DF   		movq	%rbx, %rdi
 4519 20bc E8000000 		call	_ZN8UnitTest11TestResults13OnTestFailureERKNS_11TestDetailsEPKc@PLT
 4519      00
 4520              	.LEHE140:
 4521              	.LEHB141:
 168:TestCheckMacros.cpp ****     CHECK_EQUAL("suiteName", reporter.lastFailedSuite);
 4522              		.loc 6 168 0 discriminator 14
 4523 20c1 E8000000 		call	__cxa_end_catch@PLT
 4523      00
 4524              	.LEHE141:
 168:TestCheckMacros.cpp ****     CHECK_EQUAL("suiteName", reporter.lastFailedSuite);
 4525              		.loc 6 168 0
 4526 20c6 E91EFEFF 		jmp	.L233
 4526      FF
 4527              	.L251:
 4528 20cb 4889C3   		movq	%rax, %rbx
 4529 20ce E8000000 		call	__cxa_end_catch@PLT
 4529      00
 4530 20d3 E91A0100 		jmp	.L231
 4530      00
 4531              	.L252:
 169:TestCheckMacros.cpp ****     CHECK_EQUAL("filename", reporter.lastFailedFile);
 4532              		.loc 6 169 0 is_stmt 1
 4533 20d8 4889C7   		movq	%rax, %rdi
 4534 20db E8000000 		call	__cxa_begin_catch@PLT
 4534      00
 4535              	.LEHB142:
 4536 20e0 E8000000 		call	_ZN8UnitTest11CurrentTest7ResultsEv@PLT
 4536      00
 4537 20e5 488B18   		movq	(%rax), %rbx
 4538 20e8 E8000000 		call	_ZN8UnitTest11CurrentTest7DetailsEv@PLT
 4538      00
 169:TestCheckMacros.cpp ****     CHECK_EQUAL("filename", reporter.lastFailedFile);
 4539              		.loc 6 169 0 is_stmt 0 discriminator 8
 4540 20ed 488B08   		movq	(%rax), %rcx
 4541 20f0 488D8590 		leaq	-2160(%rbp), %rax
 4541      F7FFFF
 4542 20f7 BAA90000 		movl	$169, %edx
 4542      00
 4543 20fc 4889CE   		movq	%rcx, %rsi
 4544 20ff 4889C7   		movq	%rax, %rdi
 4545 2102 E8000000 		call	_ZN8UnitTest11TestDetailsC1ERKS0_i@PLT
 4545      00
 169:TestCheckMacros.cpp ****     CHECK_EQUAL("filename", reporter.lastFailedFile);
 4546              		.loc 6 169 0 discriminator 12
 4547 2107 488D8590 		leaq	-2160(%rbp), %rax
 4547      F7FFFF
 4548 210e 488D1500 		leaq	.LC39(%rip), %rdx
 4548      000000
 4549 2115 4889C6   		movq	%rax, %rsi
 4550 2118 4889DF   		movq	%rbx, %rdi
 4551 211b E8000000 		call	_ZN8UnitTest11TestResults13OnTestFailureERKNS_11TestDetailsEPKc@PLT
 4551      00
 4552              	.LEHE142:
 4553              	.LEHB143:
 169:TestCheckMacros.cpp ****     CHECK_EQUAL("filename", reporter.lastFailedFile);
 4554              		.loc 6 169 0 discriminator 14
 4555 2120 E8000000 		call	__cxa_end_catch@PLT
 4555      00
 4556              	.LEHE143:
 169:TestCheckMacros.cpp ****     CHECK_EQUAL("filename", reporter.lastFailedFile);
 4557              		.loc 6 169 0
 4558 2125 E910FEFF 		jmp	.L236
 4558      FF
 4559              	.L253:
 4560 212a 4889C3   		movq	%rax, %rbx
 4561 212d E8000000 		call	__cxa_end_catch@PLT
 4561      00
 4562 2132 E9BB0000 		jmp	.L231
 4562      00
 4563              	.L254:
 170:TestCheckMacros.cpp ****     CHECK_EQUAL(line, reporter.lastFailedLine);
 4564              		.loc 6 170 0 is_stmt 1
 4565 2137 4889C7   		movq	%rax, %rdi
 4566 213a E8000000 		call	__cxa_begin_catch@PLT
 4566      00
 4567              	.LEHB144:
 4568 213f E8000000 		call	_ZN8UnitTest11CurrentTest7ResultsEv@PLT
 4568      00
 4569 2144 488B18   		movq	(%rax), %rbx
 4570 2147 E8000000 		call	_ZN8UnitTest11CurrentTest7DetailsEv@PLT
 4570      00
 170:TestCheckMacros.cpp ****     CHECK_EQUAL(line, reporter.lastFailedLine);
 4571              		.loc 6 170 0 is_stmt 0 discriminator 8
 4572 214c 488B08   		movq	(%rax), %rcx
 4573 214f 488D8590 		leaq	-2160(%rbp), %rax
 4573      F7FFFF
 4574 2156 BAAA0000 		movl	$170, %edx
 4574      00
 4575 215b 4889CE   		movq	%rcx, %rsi
 4576 215e 4889C7   		movq	%rax, %rdi
 4577 2161 E8000000 		call	_ZN8UnitTest11TestDetailsC1ERKS0_i@PLT
 4577      00
 170:TestCheckMacros.cpp ****     CHECK_EQUAL(line, reporter.lastFailedLine);
 4578              		.loc 6 170 0 discriminator 12
 4579 2166 488D8590 		leaq	-2160(%rbp), %rax
 4579      F7FFFF
 4580 216d 488D1500 		leaq	.LC40(%rip), %rdx
 4580      000000
 4581 2174 4889C6   		movq	%rax, %rsi
 4582 2177 4889DF   		movq	%rbx, %rdi
 4583 217a E8000000 		call	_ZN8UnitTest11TestResults13OnTestFailureERKNS_11TestDetailsEPKc@PLT
 4583      00
 4584              	.LEHE144:
 4585              	.LEHB145:
 170:TestCheckMacros.cpp ****     CHECK_EQUAL(line, reporter.lastFailedLine);
 4586              		.loc 6 170 0 discriminator 14
 4587 217f E8000000 		call	__cxa_end_catch@PLT
 4587      00
 4588              	.LEHE145:
 170:TestCheckMacros.cpp ****     CHECK_EQUAL(line, reporter.lastFailedLine);
 4589              		.loc 6 170 0
 4590 2184 E902FEFF 		jmp	.L239
 4590      FF
 4591              	.L255:
 4592 2189 4889C3   		movq	%rax, %rbx
 4593 218c E8000000 		call	__cxa_end_catch@PLT
 4593      00
 4594 2191 EB5F     		jmp	.L231
 4595              	.L256:
 171:TestCheckMacros.cpp **** }
 4596              		.loc 6 171 0 is_stmt 1
 4597 2193 4889C7   		movq	%rax, %rdi
 4598 2196 E8000000 		call	__cxa_begin_catch@PLT
 4598      00
 4599              	.LEHB146:
 4600 219b E8000000 		call	_ZN8UnitTest11CurrentTest7ResultsEv@PLT
 4600      00
 4601 21a0 488B18   		movq	(%rax), %rbx
 4602 21a3 E8000000 		call	_ZN8UnitTest11CurrentTest7DetailsEv@PLT
 4602      00
 171:TestCheckMacros.cpp **** }
 4603              		.loc 6 171 0 is_stmt 0 discriminator 8
 4604 21a8 488B08   		movq	(%rax), %rcx
 4605 21ab 488D8590 		leaq	-2160(%rbp), %rax
 4605      F7FFFF
 4606 21b2 BAAB0000 		movl	$171, %edx
 4606      00
 4607 21b7 4889CE   		movq	%rcx, %rsi
 4608 21ba 4889C7   		movq	%rax, %rdi
 4609 21bd E8000000 		call	_ZN8UnitTest11TestDetailsC1ERKS0_i@PLT
 4609      00
 171:TestCheckMacros.cpp **** }
 4610              		.loc 6 171 0 discriminator 12
 4611 21c2 488D8590 		leaq	-2160(%rbp), %rax
 4611      F7FFFF
 4612 21c9 488D1500 		leaq	.LC41(%rip), %rdx
 4612      000000
 4613 21d0 4889C6   		movq	%rax, %rsi
 4614 21d3 4889DF   		movq	%rbx, %rdi
 4615 21d6 E8000000 		call	_ZN8UnitTest11TestResults13OnTestFailureERKNS_11TestDetailsEPKc@PLT
 4615      00
 4616              	.LEHE146:
 4617              	.LEHB147:
 171:TestCheckMacros.cpp **** }
 4618              		.loc 6 171 0 discriminator 14
 4619 21db E8000000 		call	__cxa_end_catch@PLT
 4619      00
 4620              	.LEHE147:
 171:TestCheckMacros.cpp **** }
 4621              		.loc 6 171 0
 4622 21e0 E9F7FDFF 		jmp	.L242
 4622      FF
 4623              	.L257:
 4624 21e5 4889C3   		movq	%rax, %rbx
 4625 21e8 E8000000 		call	__cxa_end_catch@PLT
 4625      00
 4626 21ed EB03     		jmp	.L231
 4627              	.L249:
 4628 21ef 4889C3   		movq	%rax, %rbx
 4629              	.L231:
 159:TestCheckMacros.cpp ****     {
 4630              		.loc 6 159 0 is_stmt 1
 4631 21f2 488D85B0 		leaq	-2128(%rbp), %rax
 4631      F7FFFF
 4632 21f9 4889C7   		movq	%rax, %rdi
 4633 21fc E8000000 		call	_ZN17RecordingReporterD1Ev
 4633      00
 4634 2201 4889D8   		movq	%rbx, %rax
 4635 2204 4889C7   		movq	%rax, %rdi
 4636              	.LEHB148:
 4637 2207 E8000000 		call	_Unwind_Resume@PLT
 4637      00
 4638              	.LEHE148:
 4639              	.L258:
 4640              		.loc 6 172 0
 4641 220c E8000000 		call	__stack_chk_fail@PLT
 4641      00
 4642              	.L244:
 4643 2211 4881C4D8 		addq	$2264, %rsp
 4643      080000
 4644 2218 5B       		popq	%rbx
 4645 2219 5D       		popq	%rbp
 4646              		.cfi_def_cfa 7, 8
 4647 221a C3       		ret
 4648              		.cfi_endproc
 4649              	.LFE1151:
 4650              		.section	.gcc_except_table
 4651              		.align 4
 4652              	.LLSDA1151:
 4653 0338 FF       		.byte	0xff
 4654 0339 9B       		.byte	0x9b
 4655 033a 7D       		.uleb128 .LLSDATT1151-.LLSDATTD1151
 4656              	.LLSDATTD1151:
 4657 033b 01       		.byte	0x1
 4658 033c 75       		.uleb128 .LLSDACSE1151-.LLSDACSB1151
 4659              	.LLSDACSB1151:
 4660 033d 4F       		.uleb128 .LEHB129-.LFB1151
 4661 033e 4F       		.uleb128 .LEHE129-.LEHB129
 4662 033f E708     		.uleb128 .L249-.LFB1151
 4663 0341 00       		.uleb128 0
 4664 0342 9E01     		.uleb128 .LEHB130-.LFB1151
 4665 0344 1F       		.uleb128 .LEHE130-.LEHB130
 4666 0345 FE04     		.uleb128 .L245-.LFB1151
 4667 0347 01       		.uleb128 0x1
 4668 0348 C701     		.uleb128 .LEHB131-.LFB1151
 4669 034a 30       		.uleb128 .LEHE131-.LEHB131
 4670 034b FC04     		.uleb128 .L246-.LFB1151
 4671 034d 01       		.uleb128 0x1
 4672 034e 8B02     		.uleb128 .LEHB132-.LFB1151
 4673 0350 05       		.uleb128 .LEHE132-.LEHB132
 4674 0351 E708     		.uleb128 .L249-.LFB1151
 4675 0353 00       		.uleb128 0
 4676 0354 9002     		.uleb128 .LEHB133-.LFB1151
 4677 0356 51       		.uleb128 .LEHE133-.LEHB133
 4678 0357 F105     		.uleb128 .L250-.LFB1151
 4679 0359 01       		.uleb128 0x1
 4680 035a E102     		.uleb128 .LEHB134-.LFB1151
 4681 035c 51       		.uleb128 .LEHE134-.LEHB134
 4682 035d D006     		.uleb128 .L252-.LFB1151
 4683 035f 01       		.uleb128 0x1
 4684 0360 B203     		.uleb128 .LEHB135-.LFB1151
 4685 0362 51       		.uleb128 .LEHE135-.LEHB135
 4686 0363 AF07     		.uleb128 .L254-.LFB1151
 4687 0365 01       		.uleb128 0x1
 4688 0366 8304     		.uleb128 .LEHB136-.LFB1151
 4689 0368 51       		.uleb128 .LEHE136-.LEHB136
 4690 0369 8B08     		.uleb128 .L256-.LFB1151
 4691 036b 01       		.uleb128 0x1
 4692 036c DE04     		.uleb128 .LEHB137-.LFB1151
 4693 036e 05       		.uleb128 .LEHE137-.LEHB137
 4694 036f 00       		.uleb128 0
 4695 0370 00       		.uleb128 0
 4696 0371 8605     		.uleb128 .LEHB138-.LFB1151
 4697 0373 40       		.uleb128 .LEHE138-.LEHB138
 4698 0374 D005     		.uleb128 .L248-.LFB1151
 4699 0376 00       		.uleb128 0
 4700 0377 C605     		.uleb128 .LEHB139-.LFB1151
 4701 0379 05       		.uleb128 .LEHE139-.LEHB139
 4702 037a DA05     		.uleb128 .L247-.LFB1151
 4703 037c 00       		.uleb128 0
 4704 037d F905     		.uleb128 .LEHB140-.LFB1151
 4705 037f 40       		.uleb128 .LEHE140-.LEHB140
 4706 0380 C306     		.uleb128 .L251-.LFB1151
 4707 0382 00       		.uleb128 0
 4708 0383 B906     		.uleb128 .LEHB141-.LFB1151
 4709 0385 05       		.uleb128 .LEHE141-.LEHB141
 4710 0386 E708     		.uleb128 .L249-.LFB1151
 4711 0388 00       		.uleb128 0
 4712 0389 D806     		.uleb128 .LEHB142-.LFB1151
 4713 038b 40       		.uleb128 .LEHE142-.LEHB142
 4714 038c A207     		.uleb128 .L253-.LFB1151
 4715 038e 00       		.uleb128 0
 4716 038f 9807     		.uleb128 .LEHB143-.LFB1151
 4717 0391 05       		.uleb128 .LEHE143-.LEHB143
 4718 0392 E708     		.uleb128 .L249-.LFB1151
 4719 0394 00       		.uleb128 0
 4720 0395 B707     		.uleb128 .LEHB144-.LFB1151
 4721 0397 40       		.uleb128 .LEHE144-.LEHB144
 4722 0398 8108     		.uleb128 .L255-.LFB1151
 4723 039a 00       		.uleb128 0
 4724 039b F707     		.uleb128 .LEHB145-.LFB1151
 4725 039d 05       		.uleb128 .LEHE145-.LEHB145
 4726 039e E708     		.uleb128 .L249-.LFB1151
 4727 03a0 00       		.uleb128 0
 4728 03a1 9308     		.uleb128 .LEHB146-.LFB1151
 4729 03a3 40       		.uleb128 .LEHE146-.LEHB146
 4730 03a4 DD08     		.uleb128 .L257-.LFB1151
 4731 03a6 00       		.uleb128 0
 4732 03a7 D308     		.uleb128 .LEHB147-.LFB1151
 4733 03a9 05       		.uleb128 .LEHE147-.LEHB147
 4734 03aa E708     		.uleb128 .L249-.LFB1151
 4735 03ac 00       		.uleb128 0
 4736 03ad FF08     		.uleb128 .LEHB148-.LFB1151
 4737 03af 05       		.uleb128 .LEHE148-.LEHB148
 4738 03b0 00       		.uleb128 0
 4739 03b1 00       		.uleb128 0
 4740              	.LLSDACSE1151:
 4741 03b2 01       		.byte	0x1
 4742 03b3 00       		.byte	0
 4743              		.align 4
 4744 03b4 00000000 		.long	0
 4745              	
 4746              	.LLSDATT1151:
 4747              		.text
 4749              		.section	.rodata
 4750 06ac 00000000 		.align 8
 4751              	.LC44:
 4752 06b0 43686563 		.string	"CheckEqualFailureBecauseOfExceptionIncludesCheckContents"
 4752      6B457175 
 4752      616C4661 
 4752      696C7572 
 4752      65426563 
 4753              		.text
 4754 221b 90       		.align 2
 4756              	_ZN12_GLOBAL__N_160TestCheckEqualFailureBecauseOfExceptionIncludesCheckContentsC2Ev:
 4757              	.LFB1153:
 173:TestCheckMacros.cpp **** 
 174:TestCheckMacros.cpp **** TEST(CheckEqualFailureBecauseOfExceptionIncludesCheckContents)
 4758              		.loc 6 174 0
 4759              		.cfi_startproc
 4760 221c 55       		pushq	%rbp
 4761              		.cfi_def_cfa_offset 16
 4762              		.cfi_offset 6, -16
 4763 221d 4889E5   		movq	%rsp, %rbp
 4764              		.cfi_def_cfa_register 6
 4765 2220 53       		pushq	%rbx
 4766 2221 4883EC18 		subq	$24, %rsp
 4767              		.cfi_offset 3, -24
 4768 2225 48897DE8 		movq	%rdi, -24(%rbp)
 4769              	.LBB41:
 4770              		.loc 6 174 0
 4771 2229 488B5DE8 		movq	-24(%rbp), %rbx
 4772 222d E8000000 		call	_ZN13UnitTestSuite12GetSuiteNameEv
 4772      00
 4773 2232 41B8AE00 		movl	$174, %r8d
 4773      0000
 4774 2238 488D0D00 		leaq	.LC2(%rip), %rcx
 4774      000000
 4775 223f 4889C2   		movq	%rax, %rdx
 4776 2242 488D3500 		leaq	.LC44(%rip), %rsi
 4776      000000
 4777 2249 4889DF   		movq	%rbx, %rdi
 4778 224c E8000000 		call	_ZN8UnitTest4TestC2EPKcS2_S2_i@PLT
 4778      00
 4779 2251 488D1500 		leaq	16+_ZTVN12_GLOBAL__N_160TestCheckEqualFailureBecauseOfExceptionIncludesCheckContentsE(%rip), 
 4779      000000
 4780 2258 488B45E8 		movq	-24(%rbp), %rax
 4781 225c 488910   		movq	%rdx, (%rax)
 4782              	.LBE41:
 4783 225f 90       		nop
 4784 2260 4883C418 		addq	$24, %rsp
 4785 2264 5B       		popq	%rbx
 4786 2265 5D       		popq	%rbp
 4787              		.cfi_def_cfa 7, 8
 4788 2266 C3       		ret
 4789              		.cfi_endproc
 4790              	.LFE1153:
 4792              		.set	_ZN12_GLOBAL__N_160TestCheckEqualFailureBecauseOfExceptionIncludesCheckContentsC1Ev,_ZN12_GLO
 4793              		.local	_ZN12_GLOBAL__N_168testCheckEqualFailureBecauseOfExceptionIncludesCheckContentsInstanceE
 4794              		.comm	_ZN12_GLOBAL__N_168testCheckEqualFailureBecauseOfExceptionIncludesCheckContentsInstanceE,56,
 4795              		.local	_ZN12_GLOBAL__N_161adderCheckEqualFailureBecauseOfExceptionIncludesCheckContentsE
 4796              		.comm	_ZN12_GLOBAL__N_161adderCheckEqualFailureBecauseOfExceptionIncludesCheckContentsE,1,1
 4797              		.section	.rodata
 4798              	.LC45:
 4799 06e9 5468726F 		.string	"ThrowingFunction()"
 4799      77696E67 
 4799      46756E63 
 4799      74696F6E 
 4799      282900
 4800 06fc 00000000 		.align 8
 4801              	.LC46:
 4802 0700 73747273 		.string	"strstr(reporter.lastFailedMessage, \"ThrowingFunction()\")"
 4802      74722872 
 4802      65706F72 
 4802      7465722E 
 4802      6C617374 
 4803              	.LC47:
 4804 0739 31323300 		.string	"123"
 4805 073d 000000   		.align 8
 4806              	.LC48:
 4807 0740 73747273 		.string	"strstr(reporter.lastFailedMessage, \"123\")"
 4807      74722872 
 4807      65706F72 
 4807      7465722E 
 4807      6C617374 
 4808 076a 00000000 		.align 8
 4808      0000
 4809              	.LC49:
 4810 0770 556E6861 		.string	"Unhandled exception in CHECK(strstr(reporter.lastFailedMessage, \"ThrowingFunction()\"))"
 4810      6E646C65 
 4810      64206578 
 4810      63657074 
 4810      696F6E20 
 4811 07c7 00       		.align 8
 4812              	.LC50:
 4813 07c8 556E6861 		.string	"Unhandled exception in CHECK(strstr(reporter.lastFailedMessage, \"123\"))"
 4813      6E646C65 
 4813      64206578 
 4813      63657074 
 4813      696F6E20 
 4814              		.text
 4815 2267 90       		.align 2
 4817              	_ZNK12_GLOBAL__N_160TestCheckEqualFailureBecauseOfExceptionIncludesCheckContents7RunImplEv:
 4818              	.LFB1155:
 175:TestCheckMacros.cpp **** {
