   1              		.file	"TestDeferredTestReporter.cpp"
   2              		.text
   3              	.Ltext0:
   4              		.section	.rodata
   5              	.LC0:
   6 0000 44656661 		.string	"DefaultSuite"
   6      756C7453 
   6      75697465 
   6      00
   7              		.section	.text._ZN13UnitTestSuite12GetSuiteNameEv,"axG",@progbits,_ZN13UnitTestSuite12GetSuiteName
   8              		.weak	_ZN13UnitTestSuite12GetSuiteNameEv
  10              	_ZN13UnitTestSuite12GetSuiteNameEv:
  11              	.LFB0:
  12              		.file 1 "../TestSuite.h"
   1:../TestSuite.h **** #ifndef UNITTEST_TESTSUITE_H
   2:../TestSuite.h **** #define UNITTEST_TESTSUITE_H
   3:../TestSuite.h **** 
   4:../TestSuite.h **** namespace UnitTestSuite {
   5:../TestSuite.h **** 
   6:../TestSuite.h ****     inline char const* GetSuiteName ()
   7:../TestSuite.h ****     {
  13              		.loc 1 7 0
  14              		.cfi_startproc
  15 0000 55       		pushq	%rbp
  16              		.cfi_def_cfa_offset 16
  17              		.cfi_offset 6, -16
  18 0001 4889E5   		movq	%rsp, %rbp
  19              		.cfi_def_cfa_register 6
   8:../TestSuite.h ****         return "DefaultSuite";
  20              		.loc 1 8 0
  21 0004 488D0500 		leaq	.LC0(%rip), %rax
  21      000000
   9:../TestSuite.h ****     }
  22              		.loc 1 9 0
  23 000b 5D       		popq	%rbp
  24              		.cfi_def_cfa 7, 8
  25 000c C3       		ret
  26              		.cfi_endproc
  27              	.LFE0:
  29              		.section	.text._ZN8UnitTest15MemoryOutStreamC1Ev,"axG",@progbits,_ZN8UnitTest15MemoryOutStreamC1Ev
  30              		.align 2
  31              		.weak	_ZN8UnitTest15MemoryOutStreamC1Ev
  33              	_ZN8UnitTest15MemoryOutStreamC1Ev:
  34              	.LFB1076:
  35              		.file 2 "../MemoryOutStream.h"
   1:../MemoryOutStream.h **** #ifndef UNITTEST_MEMORYOUTSTREAM_H
   2:../MemoryOutStream.h **** #define UNITTEST_MEMORYOUTSTREAM_H
   3:../MemoryOutStream.h **** 
   4:../MemoryOutStream.h **** #include "Config.h"
   5:../MemoryOutStream.h **** 
   6:../MemoryOutStream.h **** #ifndef UNITTEST_USE_CUSTOM_STREAMS
   7:../MemoryOutStream.h **** 
   8:../MemoryOutStream.h **** #include <sstream>
   9:../MemoryOutStream.h **** 
  10:../MemoryOutStream.h **** namespace UnitTest
  11:../MemoryOutStream.h **** {
  12:../MemoryOutStream.h **** 
  13:../MemoryOutStream.h **** class MemoryOutStream : public std::ostringstream
  14:../MemoryOutStream.h **** {
  15:../MemoryOutStream.h **** public:
  16:../MemoryOutStream.h ****     MemoryOutStream() {}
  36              		.loc 2 16 0
  37              		.cfi_startproc
  38              		.cfi_personality 0x9b,DW.ref.__gxx_personality_v0
  39              		.cfi_lsda 0x1b,.LLSDA1076
  40 0000 55       		pushq	%rbp
  41              		.cfi_def_cfa_offset 16
  42              		.cfi_offset 6, -16
  43 0001 4889E5   		movq	%rsp, %rbp
  44              		.cfi_def_cfa_register 6
  45 0004 53       		pushq	%rbx
  46 0005 4883EC18 		subq	$24, %rsp
  47              		.cfi_offset 3, -24
  48 0009 48897DE8 		movq	%rdi, -24(%rbp)
  49              	.LBB2:
  50              		.loc 2 16 0
  51 000d 488B45E8 		movq	-24(%rbp), %rax
  52 0011 48059000 		addq	$144, %rax
  52      0000
  53 0017 4889C7   		movq	%rax, %rdi
  54              	.LEHB0:
  55 001a E8000000 		call	_ZNSt9basic_iosIcSt11char_traitsIcEEC2Ev@PLT
  55      00
  56              	.LEHE0:
  57 001f 488B45E8 		movq	-24(%rbp), %rax
  58 0023 488D0D00 		leaq	8+_ZTTN8UnitTest15MemoryOutStreamE(%rip), %rcx
  58      000000
  59 002a BA100000 		movl	$16, %edx
  59      00
  60 002f 4889CE   		movq	%rcx, %rsi
  61 0032 4889C7   		movq	%rax, %rdi
  62              	.LEHB1:
  63 0035 E8000000 		call	_ZNSt7__cxx1119basic_ostringstreamIcSt11char_traitsIcESaIcEEC2ESt13_Ios_Openmode@PLT
  63      00
  64              	.LEHE1:
  65              		.loc 2 16 0 is_stmt 0 discriminator 8
  66 003a 488D1500 		leaq	24+_ZTVN8UnitTest15MemoryOutStreamE(%rip), %rdx
  66      000000
  67 0041 488B45E8 		movq	-24(%rbp), %rax
  68 0045 488910   		movq	%rdx, (%rax)
  69 0048 488B45E8 		movq	-24(%rbp), %rax
  70 004c 488D9090 		leaq	144(%rax), %rdx
  70      000000
  71 0053 488D0500 		leaq	64+_ZTVN8UnitTest15MemoryOutStreamE(%rip), %rax
  71      000000
  72 005a 488902   		movq	%rax, (%rdx)
  73 005d 488B45E8 		movq	-24(%rbp), %rax
  74 0061 4883C070 		addq	$112, %rax
  75 0065 4889C7   		movq	%rax, %rdi
  76              	.LEHB2:
  77 0068 E8000000 		call	_ZNSt7__cxx1112basic_stringIcSt11char_traitsIcESaIcEEC1Ev@PLT
  77      00
  78              	.LEHE2:
  79              	.LBE2:
  80              		.loc 2 16 0
  81 006d EB3B     		jmp	.L9
  82              	.L7:
  83 006f 4889C3   		movq	%rax, %rbx
  84              	.LBB3:
  85 0072 488B45E8 		movq	-24(%rbp), %rax
  86 0076 488D1500 		leaq	8+_ZTTN8UnitTest15MemoryOutStreamE(%rip), %rdx
  86      000000
  87 007d 4889D6   		movq	%rdx, %rsi
  88 0080 4889C7   		movq	%rax, %rdi
  89 0083 E8000000 		call	_ZNSt7__cxx1119basic_ostringstreamIcSt11char_traitsIcESaIcEED2Ev@PLT
  89      00
  90 0088 EB03     		jmp	.L8
  91              	.L6:
  92 008a 4889C3   		movq	%rax, %rbx
  93              	.L8:
  94              		.loc 2 16 0 discriminator 11
  95 008d 488B45E8 		movq	-24(%rbp), %rax
  96 0091 48059000 		addq	$144, %rax
  96      0000
  97 0097 4889C7   		movq	%rax, %rdi
  98 009a E8000000 		call	_ZNSt9basic_iosIcSt11char_traitsIcEED2Ev@PLT
  98      00
  99 009f 4889D8   		movq	%rbx, %rax
 100 00a2 4889C7   		movq	%rax, %rdi
 101              	.LEHB3:
 102 00a5 E8000000 		call	_Unwind_Resume@PLT
 102      00
 103              	.LEHE3:
 104              	.L9:
 105              	.LBE3:
 106              		.loc 2 16 0
 107 00aa 4883C418 		addq	$24, %rsp
 108 00ae 5B       		popq	%rbx
 109 00af 5D       		popq	%rbp
 110              		.cfi_def_cfa 7, 8
 111 00b0 C3       		ret
 112              		.cfi_endproc
 113              	.LFE1076:
 114              		.globl	__gxx_personality_v0
 115              		.section	.gcc_except_table._ZN8UnitTest15MemoryOutStreamC1Ev,"aG",@progbits,_ZN8UnitTest15MemoryOu
 116              	.LLSDA1076:
 117 0000 FF       		.byte	0xff
 118 0001 FF       		.byte	0xff
 119 0002 01       		.byte	0x1
 120 0003 12       		.uleb128 .LLSDACSE1076-.LLSDACSB1076
 121              	.LLSDACSB1076:
 122 0004 1A       		.uleb128 .LEHB0-.LFB1076
 123 0005 05       		.uleb128 .LEHE0-.LEHB0
 124 0006 00       		.uleb128 0
 125 0007 00       		.uleb128 0
 126 0008 35       		.uleb128 .LEHB1-.LFB1076
 127 0009 05       		.uleb128 .LEHE1-.LEHB1
 128 000a 8A01     		.uleb128 .L6-.LFB1076
 129 000c 00       		.uleb128 0
 130 000d 68       		.uleb128 .LEHB2-.LFB1076
 131 000e 05       		.uleb128 .LEHE2-.LEHB2
 132 000f 6F       		.uleb128 .L7-.LFB1076
 133 0010 00       		.uleb128 0
 134 0011 A501     		.uleb128 .LEHB3-.LFB1076
 135 0013 05       		.uleb128 .LEHE3-.LEHB3
 136 0014 00       		.uleb128 0
 137 0015 00       		.uleb128 0
 138              	.LLSDACSE1076:
 139              		.section	.text._ZN8UnitTest15MemoryOutStreamC1Ev,"axG",@progbits,_ZN8UnitTest15MemoryOutStreamC1Ev
 141              		.text
 142              		.align 2
 144              	_ZN8UnitTest12_GLOBAL__N_124MockDeferredTestReporter13ReportSummaryEiiif:
 145              	.LFB1355:
 146              		.file 3 "TestDeferredTestReporter.cpp"
   1:TestDeferredTestReporter.cpp **** #include "../UnitTest++.h"
   2:TestDeferredTestReporter.cpp **** #include "../DeferredTestReporter.h"
   3:TestDeferredTestReporter.cpp **** #include "../Config.h"
   4:TestDeferredTestReporter.cpp **** #include <cstring>
   5:TestDeferredTestReporter.cpp **** 
   6:TestDeferredTestReporter.cpp **** namespace UnitTest
   7:TestDeferredTestReporter.cpp **** {
   8:TestDeferredTestReporter.cpp **** 
   9:TestDeferredTestReporter.cpp **** namespace 
  10:TestDeferredTestReporter.cpp **** {
  11:TestDeferredTestReporter.cpp **** 
  12:TestDeferredTestReporter.cpp **** #ifdef UNITTEST_USE_CUSTOM_STREAMS
  13:TestDeferredTestReporter.cpp **** 	MemoryOutStream& operator <<(MemoryOutStream& lhs, const std::string& rhs)
  14:TestDeferredTestReporter.cpp **** 	{
  15:TestDeferredTestReporter.cpp **** 		lhs << rhs.c_str();
  16:TestDeferredTestReporter.cpp **** 		return lhs;
  17:TestDeferredTestReporter.cpp **** 	}
  18:TestDeferredTestReporter.cpp **** #endif
  19:TestDeferredTestReporter.cpp **** 
  20:TestDeferredTestReporter.cpp **** struct MockDeferredTestReporter : public DeferredTestReporter
  21:TestDeferredTestReporter.cpp **** {
  22:TestDeferredTestReporter.cpp ****     virtual void ReportSummary(int, int, int, float) 
 147              		.loc 3 22 0 is_stmt 1
 148              		.cfi_startproc
 149 0000 55       		pushq	%rbp
 150              		.cfi_def_cfa_offset 16
 151              		.cfi_offset 6, -16
 152 0001 4889E5   		movq	%rsp, %rbp
 153              		.cfi_def_cfa_register 6
 154 0004 48897DF8 		movq	%rdi, -8(%rbp)
 155 0008 8975F4   		movl	%esi, -12(%rbp)
 156 000b 8955F0   		movl	%edx, -16(%rbp)
 157 000e 894DEC   		movl	%ecx, -20(%rbp)
 158 0011 F30F1145 		movss	%xmm0, -24(%rbp)
 158      E8
  23:TestDeferredTestReporter.cpp ****     {
  24:TestDeferredTestReporter.cpp ****     }
 159              		.loc 3 24 0
 160 0016 90       		nop
 161 0017 5D       		popq	%rbp
 162              		.cfi_def_cfa 7, 8
 163 0018 C3       		ret
 164              		.cfi_endproc
 165              	.LFE1355:
 167              		.section	.text._ZN8UnitTest12TestReporterC2Ev,"axG",@progbits,_ZN8UnitTest12TestReporterC5Ev,comda
 168              		.align 2
 169              		.weak	_ZN8UnitTest12TestReporterC2Ev
 171              	_ZN8UnitTest12TestReporterC2Ev:
 172              	.LFB1360:
 173              		.file 4 "../TestReporter.h"
   1:../TestReporter.h **** #ifndef UNITTEST_TESTREPORTER_H
   2:../TestReporter.h **** #define UNITTEST_TESTREPORTER_H
   3:../TestReporter.h **** 
   4:../TestReporter.h **** namespace UnitTest {
   5:../TestReporter.h **** 
   6:../TestReporter.h **** class TestDetails;
   7:../TestReporter.h **** 
   8:../TestReporter.h **** class TestReporter
 174              		.loc 4 8 0
 175              		.cfi_startproc
 176 0000 55       		pushq	%rbp
 177              		.cfi_def_cfa_offset 16
 178              		.cfi_offset 6, -16
 179 0001 4889E5   		movq	%rsp, %rbp
 180              		.cfi_def_cfa_register 6
 181 0004 48897DF8 		movq	%rdi, -8(%rbp)
 182              	.LBB4:
 183              		.loc 4 8 0
 184 0008 488D1500 		leaq	16+_ZTVN8UnitTest12TestReporterE(%rip), %rdx
 184      000000
 185 000f 488B45F8 		movq	-8(%rbp), %rax
 186 0013 488910   		movq	%rdx, (%rax)
 187              	.LBE4:
 188 0016 90       		nop
 189 0017 5D       		popq	%rbp
 190              		.cfi_def_cfa 7, 8
 191 0018 C3       		ret
 192              		.cfi_endproc
 193              	.LFE1360:
 195              		.weak	_ZN8UnitTest12TestReporterC1Ev
 196              		.set	_ZN8UnitTest12TestReporterC1Ev,_ZN8UnitTest12TestReporterC2Ev
 197              		.section	.text._ZN8UnitTest20DeferredTestReporterC2Ev,"axG",@progbits,_ZN8UnitTest20DeferredTestRe
 198              		.align 2
 199              		.weak	_ZN8UnitTest20DeferredTestReporterC2Ev
 201              	_ZN8UnitTest20DeferredTestReporterC2Ev:
 202              	.LFB1362:
 203              		.file 5 "../DeferredTestReporter.h"
   1:../DeferredTestReporter.h **** #ifndef UNITTEST_DEFERREDTESTREPORTER_H
   2:../DeferredTestReporter.h **** #define UNITTEST_DEFERREDTESTREPORTER_H
   3:../DeferredTestReporter.h **** 
   4:../DeferredTestReporter.h **** #include "TestReporter.h"
   5:../DeferredTestReporter.h **** #include "DeferredTestResult.h"
   6:../DeferredTestReporter.h **** 
   7:../DeferredTestReporter.h **** #include <vector>
   8:../DeferredTestReporter.h **** 
   9:../DeferredTestReporter.h **** namespace UnitTest
  10:../DeferredTestReporter.h **** {
  11:../DeferredTestReporter.h **** 
  12:../DeferredTestReporter.h **** class DeferredTestReporter : public TestReporter
 204              		.loc 5 12 0
 205              		.cfi_startproc
 206              		.cfi_personality 0x9b,DW.ref.__gxx_personality_v0
 207              		.cfi_lsda 0x1b,.LLSDA1362
 208 0000 55       		pushq	%rbp
 209              		.cfi_def_cfa_offset 16
 210              		.cfi_offset 6, -16
 211 0001 4889E5   		movq	%rsp, %rbp
 212              		.cfi_def_cfa_register 6
 213 0004 53       		pushq	%rbx
 214 0005 4883EC18 		subq	$24, %rsp
 215              		.cfi_offset 3, -24
 216 0009 48897DE8 		movq	%rdi, -24(%rbp)
 217              	.LBB5:
 218              		.loc 5 12 0
 219 000d 488B45E8 		movq	-24(%rbp), %rax
 220 0011 4889C7   		movq	%rax, %rdi
 221 0014 E8000000 		call	_ZN8UnitTest12TestReporterC2Ev
 221      00
 222 0019 488D1500 		leaq	16+_ZTVN8UnitTest20DeferredTestReporterE(%rip), %rdx
 222      000000
 223 0020 488B45E8 		movq	-24(%rbp), %rax
 224 0024 488910   		movq	%rdx, (%rax)
 225 0027 488B45E8 		movq	-24(%rbp), %rax
 226 002b 4883C008 		addq	$8, %rax
 227 002f 4889C7   		movq	%rax, %rdi
 228              	.LEHB4:
 229 0032 E8000000 		call	_ZNSt6vectorIN8UnitTest18DeferredTestResultESaIS1_EEC1Ev
 229      00
 230              	.LEHE4:
 231              	.LBE5:
 232 0037 EB1A     		jmp	.L15
 233              	.L14:
 234 0039 4889C3   		movq	%rax, %rbx
 235              	.LBB6:
 236 003c 488B45E8 		movq	-24(%rbp), %rax
 237 0040 4889C7   		movq	%rax, %rdi
 238 0043 E8000000 		call	_ZN8UnitTest12TestReporterD2Ev@PLT
 238      00
 239 0048 4889D8   		movq	%rbx, %rax
 240 004b 4889C7   		movq	%rax, %rdi
 241              	.LEHB5:
 242 004e E8000000 		call	_Unwind_Resume@PLT
 242      00
 243              	.LEHE5:
 244              	.L15:
 245              	.LBE6:
 246 0053 4883C418 		addq	$24, %rsp
 247 0057 5B       		popq	%rbx
 248 0058 5D       		popq	%rbp
 249              		.cfi_def_cfa 7, 8
 250 0059 C3       		ret
 251              		.cfi_endproc
 252              	.LFE1362:
 253              		.section	.gcc_except_table._ZN8UnitTest20DeferredTestReporterC2Ev,"aG",@progbits,_ZN8UnitTest20Def
 254              	.LLSDA1362:
 255 0000 FF       		.byte	0xff
 256 0001 FF       		.byte	0xff
 257 0002 01       		.byte	0x1
 258 0003 08       		.uleb128 .LLSDACSE1362-.LLSDACSB1362
 259              	.LLSDACSB1362:
 260 0004 32       		.uleb128 .LEHB4-.LFB1362
 261 0005 05       		.uleb128 .LEHE4-.LEHB4
 262 0006 39       		.uleb128 .L14-.LFB1362
 263 0007 00       		.uleb128 0
 264 0008 4E       		.uleb128 .LEHB5-.LFB1362
 265 0009 05       		.uleb128 .LEHE5-.LEHB5
 266 000a 00       		.uleb128 0
 267 000b 00       		.uleb128 0
 268              	.LLSDACSE1362:
 269              		.section	.text._ZN8UnitTest20DeferredTestReporterC2Ev,"axG",@progbits,_ZN8UnitTest20DeferredTestRe
 271              		.weak	_ZN8UnitTest20DeferredTestReporterC1Ev
 272              		.set	_ZN8UnitTest20DeferredTestReporterC1Ev,_ZN8UnitTest20DeferredTestReporterC2Ev
 273              		.section	.text._ZN8UnitTest20DeferredTestReporterD2Ev,"axG",@progbits,_ZN8UnitTest20DeferredTestRe
 274              		.align 2
 275              		.weak	_ZN8UnitTest20DeferredTestReporterD2Ev
 277              	_ZN8UnitTest20DeferredTestReporterD2Ev:
 278              	.LFB1365:
 279              		.loc 5 12 0
 280              		.cfi_startproc
 281              		.cfi_personality 0x9b,DW.ref.__gxx_personality_v0
 282              		.cfi_lsda 0x1b,.LLSDA1365
 283 0000 55       		pushq	%rbp
 284              		.cfi_def_cfa_offset 16
 285              		.cfi_offset 6, -16
 286 0001 4889E5   		movq	%rsp, %rbp
 287              		.cfi_def_cfa_register 6
 288 0004 53       		pushq	%rbx
 289 0005 4883EC18 		subq	$24, %rsp
 290              		.cfi_offset 3, -24
 291 0009 48897DE8 		movq	%rdi, -24(%rbp)
 292              	.LBB7:
 293              		.loc 5 12 0
 294 000d 488D1500 		leaq	16+_ZTVN8UnitTest20DeferredTestReporterE(%rip), %rdx
 294      000000
 295 0014 488B45E8 		movq	-24(%rbp), %rax
 296 0018 488910   		movq	%rdx, (%rax)
 297 001b 488B45E8 		movq	-24(%rbp), %rax
 298 001f 4883C008 		addq	$8, %rax
 299 0023 4889C7   		movq	%rax, %rdi
 300              	.LEHB6:
 301 0026 E8000000 		call	_ZNSt6vectorIN8UnitTest18DeferredTestResultESaIS1_EED1Ev
 301      00
 302              	.LEHE6:
 303              		.loc 5 12 0 is_stmt 0 discriminator 2
 304 002b 488B45E8 		movq	-24(%rbp), %rax
 305 002f 4889C7   		movq	%rax, %rdi
 306              	.LEHB7:
 307 0032 E8000000 		call	_ZN8UnitTest12TestReporterD2Ev@PLT
 307      00
 308              	.LEHE7:
 309              	.LBE7:
 310 0037 EB1A     		jmp	.L19
 311              	.L18:
 312 0039 4889C3   		movq	%rax, %rbx
 313              	.LBB8:
 314              		.loc 5 12 0
 315 003c 488B45E8 		movq	-24(%rbp), %rax
 316 0040 4889C7   		movq	%rax, %rdi
 317 0043 E8000000 		call	_ZN8UnitTest12TestReporterD2Ev@PLT
 317      00
 318 0048 4889D8   		movq	%rbx, %rax
 319 004b 4889C7   		movq	%rax, %rdi
 320              	.LEHB8:
 321 004e E8000000 		call	_Unwind_Resume@PLT
 321      00
 322              	.LEHE8:
 323              	.L19:
 324              	.LBE8:
 325 0053 4883C418 		addq	$24, %rsp
 326 0057 5B       		popq	%rbx
 327 0058 5D       		popq	%rbp
 328              		.cfi_def_cfa 7, 8
 329 0059 C3       		ret
 330              		.cfi_endproc
 331              	.LFE1365:
 332              		.section	.gcc_except_table._ZN8UnitTest20DeferredTestReporterD2Ev,"aG",@progbits,_ZN8UnitTest20Def
 333              	.LLSDA1365:
 334 0000 FF       		.byte	0xff
 335 0001 FF       		.byte	0xff
 336 0002 01       		.byte	0x1
 337 0003 0C       		.uleb128 .LLSDACSE1365-.LLSDACSB1365
 338              	.LLSDACSB1365:
 339 0004 26       		.uleb128 .LEHB6-.LFB1365
 340 0005 05       		.uleb128 .LEHE6-.LEHB6
 341 0006 39       		.uleb128 .L18-.LFB1365
 342 0007 00       		.uleb128 0
 343 0008 32       		.uleb128 .LEHB7-.LFB1365
 344 0009 05       		.uleb128 .LEHE7-.LEHB7
 345 000a 00       		.uleb128 0
 346 000b 00       		.uleb128 0
 347 000c 4E       		.uleb128 .LEHB8-.LFB1365
 348 000d 05       		.uleb128 .LEHE8-.LEHB8
 349 000e 00       		.uleb128 0
 350 000f 00       		.uleb128 0
 351              	.LLSDACSE1365:
 352              		.section	.text._ZN8UnitTest20DeferredTestReporterD2Ev,"axG",@progbits,_ZN8UnitTest20DeferredTestRe
 354              		.weak	_ZN8UnitTest20DeferredTestReporterD1Ev
 355              		.set	_ZN8UnitTest20DeferredTestReporterD1Ev,_ZN8UnitTest20DeferredTestReporterD2Ev
 356              		.section	.text._ZN8UnitTest20DeferredTestReporterD0Ev,"axG",@progbits,_ZN8UnitTest20DeferredTestRe
 357              		.align 2
 358              		.weak	_ZN8UnitTest20DeferredTestReporterD0Ev
 360              	_ZN8UnitTest20DeferredTestReporterD0Ev:
 361              	.LFB1367:
 362              		.loc 5 12 0 is_stmt 1
 363              		.cfi_startproc
 364              		.cfi_personality 0x9b,DW.ref.__gxx_personality_v0
 365              		.cfi_lsda 0x1b,.LLSDA1367
 366 0000 55       		pushq	%rbp
 367              		.cfi_def_cfa_offset 16
 368              		.cfi_offset 6, -16
 369 0001 4889E5   		movq	%rsp, %rbp
 370              		.cfi_def_cfa_register 6
 371 0004 53       		pushq	%rbx
 372 0005 4883EC18 		subq	$24, %rsp
 373              		.cfi_offset 3, -24
 374 0009 48897DE8 		movq	%rdi, -24(%rbp)
 375              		.loc 5 12 0
 376 000d 488B45E8 		movq	-24(%rbp), %rax
 377 0011 4889C7   		movq	%rax, %rdi
 378              	.LEHB9:
 379 0014 E8000000 		call	_ZN8UnitTest20DeferredTestReporterD1Ev
 379      00
 380              	.LEHE9:
 381              		.loc 5 12 0 is_stmt 0 discriminator 2
 382 0019 488B45E8 		movq	-24(%rbp), %rax
 383 001d 4889C7   		movq	%rax, %rdi
 384 0020 E8000000 		call	_ZdlPv@PLT
 384      00
 385 0025 EB1A     		jmp	.L23
 386              	.L22:
 387 0027 4889C3   		movq	%rax, %rbx
 388              		.loc 5 12 0
 389 002a 488B45E8 		movq	-24(%rbp), %rax
 390 002e 4889C7   		movq	%rax, %rdi
 391 0031 E8000000 		call	_ZdlPv@PLT
 391      00
 392 0036 4889D8   		movq	%rbx, %rax
 393 0039 4889C7   		movq	%rax, %rdi
 394              	.LEHB10:
 395 003c E8000000 		call	_Unwind_Resume@PLT
 395      00
 396              	.LEHE10:
 397              	.L23:
 398 0041 4883C418 		addq	$24, %rsp
 399 0045 5B       		popq	%rbx
 400 0046 5D       		popq	%rbp
 401              		.cfi_def_cfa 7, 8
 402 0047 C3       		ret
 403              		.cfi_endproc
 404              	.LFE1367:
 405              		.section	.gcc_except_table._ZN8UnitTest20DeferredTestReporterD0Ev,"aG",@progbits,_ZN8UnitTest20Def
 406              	.LLSDA1367:
 407 0000 FF       		.byte	0xff
 408 0001 FF       		.byte	0xff
 409 0002 01       		.byte	0x1
 410 0003 08       		.uleb128 .LLSDACSE1367-.LLSDACSB1367
 411              	.LLSDACSB1367:
 412 0004 14       		.uleb128 .LEHB9-.LFB1367
 413 0005 05       		.uleb128 .LEHE9-.LEHB9
 414 0006 27       		.uleb128 .L22-.LFB1367
 415 0007 00       		.uleb128 0
 416 0008 3C       		.uleb128 .LEHB10-.LFB1367
 417 0009 05       		.uleb128 .LEHE10-.LEHB10
 418 000a 00       		.uleb128 0
 419 000b 00       		.uleb128 0
 420              	.LLSDACSE1367:
 421              		.section	.text._ZN8UnitTest20DeferredTestReporterD0Ev,"axG",@progbits,_ZN8UnitTest20DeferredTestRe
 423              		.text
 424 0019 90       		.align 2
 426              	_ZN8UnitTest12_GLOBAL__N_124MockDeferredTestReporterC2Ev:
 427              	.LFB1368:
  20:TestDeferredTestReporter.cpp **** {
 428              		.loc 3 20 0 is_stmt 1
 429              		.cfi_startproc
 430 001a 55       		pushq	%rbp
 431              		.cfi_def_cfa_offset 16
 432              		.cfi_offset 6, -16
 433 001b 4889E5   		movq	%rsp, %rbp
 434              		.cfi_def_cfa_register 6
 435 001e 4883EC10 		subq	$16, %rsp
 436 0022 48897DF8 		movq	%rdi, -8(%rbp)
 437              	.LBB9:
  20:TestDeferredTestReporter.cpp **** {
 438              		.loc 3 20 0
 439 0026 488B45F8 		movq	-8(%rbp), %rax
 440 002a 4889C7   		movq	%rax, %rdi
 441 002d E8000000 		call	_ZN8UnitTest20DeferredTestReporterC2Ev
 441      00
 442 0032 488D1500 		leaq	16+_ZTVN8UnitTest12_GLOBAL__N_124MockDeferredTestReporterE(%rip), %rdx
 442      000000
 443 0039 488B45F8 		movq	-8(%rbp), %rax
 444 003d 488910   		movq	%rdx, (%rax)
 445              	.LBE9:
 446 0040 90       		nop
 447 0041 C9       		leave
 448              		.cfi_def_cfa 7, 8
 449 0042 C3       		ret
 450              		.cfi_endproc
 451              	.LFE1368:
 453              		.set	_ZN8UnitTest12_GLOBAL__N_124MockDeferredTestReporterC1Ev,_ZN8UnitTest12_GLOBAL__N_124MockDefe
 454              		.section	.rodata
 455              	.LC1:
 456 000d 556E6971 		.string	"UniqueTestName"
 456      75655465 
 456      73744E61 
 456      6D6500
 457              	.LC2:
 458 001c 556E6971 		.string	"UniqueTestSuite"
 458      75655465 
 458      73745375 
 458      69746500 
 459              	.LC3:
 460 002c 66696C65 		.string	"filename.h"
 460      6E616D65 
 460      2E6800
 461              		.text
 462 0043 90       		.align 2
 464              	_ZN8UnitTest12_GLOBAL__N_127DeferredTestReporterFixtureC2Ev:
 465              	.LFB1370:
  25:TestDeferredTestReporter.cpp **** };
  26:TestDeferredTestReporter.cpp **** 
  27:TestDeferredTestReporter.cpp **** struct DeferredTestReporterFixture
  28:TestDeferredTestReporter.cpp **** {
  29:TestDeferredTestReporter.cpp ****     DeferredTestReporterFixture()
 466              		.loc 3 29 0
 467              		.cfi_startproc
 468              		.cfi_personality 0x9b,DW.ref.__gxx_personality_v0
 469              		.cfi_lsda 0x1b,.LLSDA1370
 470 0044 55       		pushq	%rbp
 471              		.cfi_def_cfa_offset 16
 472              		.cfi_offset 6, -16
 473 0045 4889E5   		movq	%rsp, %rbp
 474              		.cfi_def_cfa_register 6
 475 0048 4156     		pushq	%r14
 476 004a 4155     		pushq	%r13
 477 004c 4154     		pushq	%r12
 478 004e 53       		pushq	%rbx
 479 004f 4883EC20 		subq	$32, %rsp
 480              		.cfi_offset 14, -24
 481              		.cfi_offset 13, -32
 482              		.cfi_offset 12, -40
 483              		.cfi_offset 3, -48
 484 0053 48897DC8 		movq	%rdi, -56(%rbp)
 485              		.loc 3 29 0
 486 0057 64488B04 		movq	%fs:40, %rax
 486      25280000 
 486      00
 487 0060 488945D8 		movq	%rax, -40(%rbp)
 488 0064 31C0     		xorl	%eax, %eax
 489              	.LBB10:
  30:TestDeferredTestReporter.cpp ****         : testName("UniqueTestName")
  31:TestDeferredTestReporter.cpp ****         , testSuite("UniqueTestSuite")
  32:TestDeferredTestReporter.cpp ****         , fileName("filename.h")
  33:TestDeferredTestReporter.cpp ****         , lineNumber(12)
  34:TestDeferredTestReporter.cpp ****         , details(testName.c_str(), testSuite.c_str(), fileName.c_str(), lineNumber)
 490              		.loc 3 34 0
 491 0066 488B45C8 		movq	-56(%rbp), %rax
 492 006a 4889C7   		movq	%rax, %rdi
 493              	.LEHB11:
 494 006d E8A8FFFF 		call	_ZN8UnitTest12_GLOBAL__N_124MockDeferredTestReporterC1Ev
 494      FF
 495              	.LEHE11:
 496 0072 488B45C8 		movq	-56(%rbp), %rax
 497 0076 488D5820 		leaq	32(%rax), %rbx
 498 007a 488D45D7 		leaq	-41(%rbp), %rax
 499 007e 4889C7   		movq	%rax, %rdi
 500 0081 E8000000 		call	_ZNSaIcEC1Ev@PLT
 500      00
 501 0086 488D45D7 		leaq	-41(%rbp), %rax
 502 008a 4889C2   		movq	%rax, %rdx
 503 008d 488D3500 		leaq	.LC1(%rip), %rsi
 503      000000
 504 0094 4889DF   		movq	%rbx, %rdi
 505              	.LEHB12:
 506 0097 E8000000 		call	_ZNSt7__cxx1112basic_stringIcSt11char_traitsIcESaIcEEC1EPKcRKS3_@PLT
 506      00
 507              	.LEHE12:
 508              		.loc 3 34 0 is_stmt 0 discriminator 2
 509 009c 488D45D7 		leaq	-41(%rbp), %rax
 510 00a0 4889C7   		movq	%rax, %rdi
 511 00a3 E8000000 		call	_ZNSaIcED1Ev@PLT
 511      00
 512 00a8 488B45C8 		movq	-56(%rbp), %rax
 513 00ac 488D5840 		leaq	64(%rax), %rbx
 514 00b0 488D45D7 		leaq	-41(%rbp), %rax
 515 00b4 4889C7   		movq	%rax, %rdi
 516 00b7 E8000000 		call	_ZNSaIcEC1Ev@PLT
 516      00
 517 00bc 488D45D7 		leaq	-41(%rbp), %rax
 518 00c0 4889C2   		movq	%rax, %rdx
 519 00c3 488D3500 		leaq	.LC2(%rip), %rsi
 519      000000
 520 00ca 4889DF   		movq	%rbx, %rdi
 521              	.LEHB13:
 522 00cd E8000000 		call	_ZNSt7__cxx1112basic_stringIcSt11char_traitsIcESaIcEEC1EPKcRKS3_@PLT
 522      00
 523              	.LEHE13:
 524              		.loc 3 34 0 discriminator 4
 525 00d2 488D45D7 		leaq	-41(%rbp), %rax
 526 00d6 4889C7   		movq	%rax, %rdi
 527 00d9 E8000000 		call	_ZNSaIcED1Ev@PLT
 527      00
 528 00de 488B45C8 		movq	-56(%rbp), %rax
 529 00e2 488D5860 		leaq	96(%rax), %rbx
 530 00e6 488D45D7 		leaq	-41(%rbp), %rax
 531 00ea 4889C7   		movq	%rax, %rdi
 532 00ed E8000000 		call	_ZNSaIcEC1Ev@PLT
 532      00
 533 00f2 488D45D7 		leaq	-41(%rbp), %rax
 534 00f6 4889C2   		movq	%rax, %rdx
 535 00f9 488D3500 		leaq	.LC3(%rip), %rsi
 535      000000
 536 0100 4889DF   		movq	%rbx, %rdi
 537              	.LEHB14:
 538 0103 E8000000 		call	_ZNSt7__cxx1112basic_stringIcSt11char_traitsIcESaIcEEC1EPKcRKS3_@PLT
 538      00
 539              	.LEHE14:
 540              		.loc 3 34 0 discriminator 6
 541 0108 488D45D7 		leaq	-41(%rbp), %rax
 542 010c 4889C7   		movq	%rax, %rdi
 543 010f E8000000 		call	_ZNSaIcED1Ev@PLT
 543      00
 544 0114 488B45C8 		movq	-56(%rbp), %rax
 545 0118 C7808000 		movl	$12, 128(%rax)
 545      00000C00 
 545      0000
 546 0122 488B45C8 		movq	-56(%rbp), %rax
 547 0126 488D9888 		leaq	136(%rax), %rbx
 547      000000
 548 012d 488B45C8 		movq	-56(%rbp), %rax
 549 0131 448BA080 		movl	128(%rax), %r12d
 549      000000
 550 0138 488B45C8 		movq	-56(%rbp), %rax
 551 013c 4883C060 		addq	$96, %rax
 552 0140 4889C7   		movq	%rax, %rdi
 553              	.LEHB15:
 554 0143 E8000000 		call	_ZNKSt7__cxx1112basic_stringIcSt11char_traitsIcESaIcEE5c_strEv@PLT
 554      00
 555 0148 4989C6   		movq	%rax, %r14
 556 014b 488B45C8 		movq	-56(%rbp), %rax
 557 014f 4883C040 		addq	$64, %rax
 558 0153 4889C7   		movq	%rax, %rdi
 559 0156 E8000000 		call	_ZNKSt7__cxx1112basic_stringIcSt11char_traitsIcESaIcEE5c_strEv@PLT
 559      00
 560              		.loc 3 34 0 discriminator 8
 561 015b 4989C5   		movq	%rax, %r13
 562 015e 488B45C8 		movq	-56(%rbp), %rax
 563 0162 4883C020 		addq	$32, %rax
 564 0166 4889C7   		movq	%rax, %rdi
 565 0169 E8000000 		call	_ZNKSt7__cxx1112basic_stringIcSt11char_traitsIcESaIcEE5c_strEv@PLT
 565      00
 566              		.loc 3 34 0 discriminator 10
 567 016e 4589E0   		movl	%r12d, %r8d
 568 0171 4C89F1   		movq	%r14, %rcx
 569 0174 4C89EA   		movq	%r13, %rdx
 570 0177 4889C6   		movq	%rax, %rsi
 571 017a 4889DF   		movq	%rbx, %rdi
 572 017d E8000000 		call	_ZN8UnitTest11TestDetailsC1EPKcS2_S2_i@PLT
 572      00
 573              	.LEHE15:
 574              	.LBE10:
  35:TestDeferredTestReporter.cpp ****     {
  36:TestDeferredTestReporter.cpp ****     }
 575              		.loc 3 36 0 is_stmt 1
 576 0182 EB7D     		jmp	.L38
 577              	.L34:
 578 0184 4889C3   		movq	%rax, %rbx
 579              	.LBB11:
  34:TestDeferredTestReporter.cpp ****     {
 580              		.loc 3 34 0
 581 0187 488D45D7 		leaq	-41(%rbp), %rax
 582 018b 4889C7   		movq	%rax, %rdi
 583 018e E8000000 		call	_ZNSaIcED1Ev@PLT
 583      00
 584 0193 EB55     		jmp	.L27
 585              	.L35:
 586 0195 4889C3   		movq	%rax, %rbx
 587 0198 488D45D7 		leaq	-41(%rbp), %rax
 588 019c 4889C7   		movq	%rax, %rdi
 589 019f E8000000 		call	_ZNSaIcED1Ev@PLT
 589      00
 590 01a4 EB34     		jmp	.L29
 591              	.L36:
 592 01a6 4889C3   		movq	%rax, %rbx
 593 01a9 488D45D7 		leaq	-41(%rbp), %rax
 594 01ad 4889C7   		movq	%rax, %rdi
 595 01b0 E8000000 		call	_ZNSaIcED1Ev@PLT
 595      00
 596 01b5 EB13     		jmp	.L31
 597              	.L37:
 598 01b7 4889C3   		movq	%rax, %rbx
 599 01ba 488B45C8 		movq	-56(%rbp), %rax
 600 01be 4883C060 		addq	$96, %rax
 601 01c2 4889C7   		movq	%rax, %rdi
 602 01c5 E8000000 		call	_ZNSt7__cxx1112basic_stringIcSt11char_traitsIcESaIcEED1Ev@PLT
 602      00
 603              	.L31:
 604 01ca 488B45C8 		movq	-56(%rbp), %rax
 605 01ce 4883C040 		addq	$64, %rax
 606 01d2 4889C7   		movq	%rax, %rdi
 607 01d5 E8000000 		call	_ZNSt7__cxx1112basic_stringIcSt11char_traitsIcESaIcEED1Ev@PLT
 607      00
 608              	.L29:
 609 01da 488B45C8 		movq	-56(%rbp), %rax
 610 01de 4883C020 		addq	$32, %rax
 611 01e2 4889C7   		movq	%rax, %rdi
 612 01e5 E8000000 		call	_ZNSt7__cxx1112basic_stringIcSt11char_traitsIcESaIcEED1Ev@PLT
 612      00
 613              	.L27:
 614 01ea 488B45C8 		movq	-56(%rbp), %rax
 615 01ee 4889C7   		movq	%rax, %rdi
 616 01f1 E8D23400 		call	_ZN8UnitTest12_GLOBAL__N_124MockDeferredTestReporterD1Ev
 616      00
 617 01f6 4889D8   		movq	%rbx, %rax
 618 01f9 4889C7   		movq	%rax, %rdi
 619              	.LEHB16:
 620 01fc E8000000 		call	_Unwind_Resume@PLT
 620      00
 621              	.LEHE16:
 622              	.L38:
 623              	.LBE11:
 624              		.loc 3 36 0
 625 0201 488B45D8 		movq	-40(%rbp), %rax
 626 0205 64483304 		xorq	%fs:40, %rax
 626      25280000 
 626      00
 627 020e 7405     		je	.L33
 628 0210 E8000000 		call	__stack_chk_fail@PLT
 628      00
 629              	.L33:
 630 0215 4883C420 		addq	$32, %rsp
 631 0219 5B       		popq	%rbx
 632 021a 415C     		popq	%r12
 633 021c 415D     		popq	%r13
 634 021e 415E     		popq	%r14
 635 0220 5D       		popq	%rbp
 636              		.cfi_def_cfa 7, 8
 637 0221 C3       		ret
 638              		.cfi_endproc
 639              	.LFE1370:
 640              		.section	.gcc_except_table,"a",@progbits
 641              	.LLSDA1370:
 642 0000 FF       		.byte	0xff
 643 0001 FF       		.byte	0xff
 644 0002 01       		.byte	0x1
 645 0003 20       		.uleb128 .LLSDACSE1370-.LLSDACSB1370
 646              	.LLSDACSB1370:
 647 0004 29       		.uleb128 .LEHB11-.LFB1370
 648 0005 05       		.uleb128 .LEHE11-.LEHB11
 649 0006 00       		.uleb128 0
 650 0007 00       		.uleb128 0
 651 0008 53       		.uleb128 .LEHB12-.LFB1370
 652 0009 05       		.uleb128 .LEHE12-.LEHB12
 653 000a C002     		.uleb128 .L34-.LFB1370
 654 000c 00       		.uleb128 0
 655 000d 8901     		.uleb128 .LEHB13-.LFB1370
 656 000f 05       		.uleb128 .LEHE13-.LEHB13
 657 0010 D102     		.uleb128 .L35-.LFB1370
 658 0012 00       		.uleb128 0
 659 0013 BF01     		.uleb128 .LEHB14-.LFB1370
 660 0015 05       		.uleb128 .LEHE14-.LEHB14
 661 0016 E202     		.uleb128 .L36-.LFB1370
 662 0018 00       		.uleb128 0
 663 0019 FF01     		.uleb128 .LEHB15-.LFB1370
 664 001b 3F       		.uleb128 .LEHE15-.LEHB15
 665 001c F302     		.uleb128 .L37-.LFB1370
 666 001e 00       		.uleb128 0
 667 001f B803     		.uleb128 .LEHB16-.LFB1370
 668 0021 05       		.uleb128 .LEHE16-.LEHB16
 669 0022 00       		.uleb128 0
 670 0023 00       		.uleb128 0
 671              	.LLSDACSE1370:
 672              		.text
 674              		.align 2
 676              	_ZN8UnitTest12_GLOBAL__N_127DeferredTestReporterFixtureD2Ev:
 677              	.LFB1374:
  27:TestDeferredTestReporter.cpp **** {
 678              		.loc 3 27 0
 679              		.cfi_startproc
 680              		.cfi_personality 0x9b,DW.ref.__gxx_personality_v0
 681              		.cfi_lsda 0x1b,.LLSDA1374
 682 0222 55       		pushq	%rbp
 683              		.cfi_def_cfa_offset 16
 684              		.cfi_offset 6, -16
 685 0223 4889E5   		movq	%rsp, %rbp
 686              		.cfi_def_cfa_register 6
 687 0226 53       		pushq	%rbx
 688 0227 4883EC18 		subq	$24, %rsp
 689              		.cfi_offset 3, -24
 690 022b 48897DE8 		movq	%rdi, -24(%rbp)
 691              	.LBB12:
  27:TestDeferredTestReporter.cpp **** {
 692              		.loc 3 27 0
 693 022f 488B45E8 		movq	-24(%rbp), %rax
 694 0233 4883C060 		addq	$96, %rax
 695 0237 4889C7   		movq	%rax, %rdi
 696              	.LEHB17:
 697 023a E8000000 		call	_ZNSt7__cxx1112basic_stringIcSt11char_traitsIcESaIcEED1Ev@PLT
 697      00
 698              	.LEHE17:
  27:TestDeferredTestReporter.cpp **** {
 699              		.loc 3 27 0 is_stmt 0 discriminator 2
 700 023f 488B45E8 		movq	-24(%rbp), %rax
 701 0243 4883C040 		addq	$64, %rax
 702 0247 4889C7   		movq	%rax, %rdi
 703              	.LEHB18:
 704 024a E8000000 		call	_ZNSt7__cxx1112basic_stringIcSt11char_traitsIcESaIcEED1Ev@PLT
 704      00
 705              	.LEHE18:
  27:TestDeferredTestReporter.cpp **** {
 706              		.loc 3 27 0 discriminator 4
 707 024f 488B45E8 		movq	-24(%rbp), %rax
 708 0253 4883C020 		addq	$32, %rax
 709 0257 4889C7   		movq	%rax, %rdi
 710              	.LEHB19:
 711 025a E8000000 		call	_ZNSt7__cxx1112basic_stringIcSt11char_traitsIcESaIcEED1Ev@PLT
 711      00
 712              	.LEHE19:
  27:TestDeferredTestReporter.cpp **** {
 713              		.loc 3 27 0 discriminator 6
 714 025f 488B45E8 		movq	-24(%rbp), %rax
 715 0263 4889C7   		movq	%rax, %rdi
 716              	.LEHB20:
 717 0266 E85D3400 		call	_ZN8UnitTest12_GLOBAL__N_124MockDeferredTestReporterD1Ev
 717      00
 718              	.LEHE20:
 719              	.LBE12:
 720 026b EB44     		jmp	.L46
 721              	.L43:
 722 026d 4889C3   		movq	%rax, %rbx
 723              	.LBB13:
  27:TestDeferredTestReporter.cpp **** {
 724              		.loc 3 27 0
 725 0270 488B45E8 		movq	-24(%rbp), %rax
 726 0274 4883C040 		addq	$64, %rax
 727 0278 4889C7   		movq	%rax, %rdi
 728 027b E8000000 		call	_ZNSt7__cxx1112basic_stringIcSt11char_traitsIcESaIcEED1Ev@PLT
 728      00
 729 0280 EB03     		jmp	.L41
 730              	.L44:
 731 0282 4889C3   		movq	%rax, %rbx
 732              	.L41:
  27:TestDeferredTestReporter.cpp **** {
 733              		.loc 3 27 0 discriminator 3
 734 0285 488B45E8 		movq	-24(%rbp), %rax
 735 0289 4883C020 		addq	$32, %rax
 736 028d 4889C7   		movq	%rax, %rdi
 737 0290 E8000000 		call	_ZNSt7__cxx1112basic_stringIcSt11char_traitsIcESaIcEED1Ev@PLT
 737      00
 738 0295 EB03     		jmp	.L42
 739              	.L45:
 740 0297 4889C3   		movq	%rax, %rbx
 741              	.L42:
  27:TestDeferredTestReporter.cpp **** {
 742              		.loc 3 27 0 discriminator 5
 743 029a 488B45E8 		movq	-24(%rbp), %rax
 744 029e 4889C7   		movq	%rax, %rdi
 745 02a1 E8223400 		call	_ZN8UnitTest12_GLOBAL__N_124MockDeferredTestReporterD1Ev
 745      00
 746 02a6 4889D8   		movq	%rbx, %rax
 747 02a9 4889C7   		movq	%rax, %rdi
 748              	.LEHB21:
 749 02ac E8000000 		call	_Unwind_Resume@PLT
 749      00
 750              	.LEHE21:
 751              	.L46:
 752              	.LBE13:
  27:TestDeferredTestReporter.cpp **** {
 753              		.loc 3 27 0
 754 02b1 4883C418 		addq	$24, %rsp
 755 02b5 5B       		popq	%rbx
 756 02b6 5D       		popq	%rbp
 757              		.cfi_def_cfa 7, 8
 758 02b7 C3       		ret
 759              		.cfi_endproc
 760              	.LFE1374:
 761              		.section	.gcc_except_table
 762              	.LLSDA1374:
 763 0024 FF       		.byte	0xff
 764 0025 FF       		.byte	0xff
 765 0026 01       		.byte	0x1
 766 0027 15       		.uleb128 .LLSDACSE1374-.LLSDACSB1374
 767              	.LLSDACSB1374:
 768 0028 18       		.uleb128 .LEHB17-.LFB1374
 769 0029 05       		.uleb128 .LEHE17-.LEHB17
 770 002a 4B       		.uleb128 .L43-.LFB1374
 771 002b 00       		.uleb128 0
 772 002c 28       		.uleb128 .LEHB18-.LFB1374
 773 002d 05       		.uleb128 .LEHE18-.LEHB18
 774 002e 60       		.uleb128 .L44-.LFB1374
 775 002f 00       		.uleb128 0
 776 0030 38       		.uleb128 .LEHB19-.LFB1374
 777 0031 05       		.uleb128 .LEHE19-.LEHB19
 778 0032 75       		.uleb128 .L45-.LFB1374
 779 0033 00       		.uleb128 0
 780 0034 44       		.uleb128 .LEHB20-.LFB1374
 781 0035 05       		.uleb128 .LEHE20-.LEHB20
 782 0036 00       		.uleb128 0
 783 0037 00       		.uleb128 0
 784 0038 8A01     		.uleb128 .LEHB21-.LFB1374
 785 003a 05       		.uleb128 .LEHE21-.LEHB21
 786 003b 00       		.uleb128 0
 787 003c 00       		.uleb128 0
 788              	.LLSDACSE1374:
 789              		.text
 791              		.align 2
 793              	_ZN8UnitTest12_GLOBAL__N_171DeferredTestReporterFixtureReportTestStartCreatesANewDeferredTestHelper
 794              	.LFB1376:
  37:TestDeferredTestReporter.cpp **** 
  38:TestDeferredTestReporter.cpp ****     MockDeferredTestReporter reporter;
  39:TestDeferredTestReporter.cpp ****     std::string const testName;
  40:TestDeferredTestReporter.cpp ****     std::string const testSuite;
  41:TestDeferredTestReporter.cpp ****     std::string const fileName;
  42:TestDeferredTestReporter.cpp ****     int const lineNumber;
  43:TestDeferredTestReporter.cpp ****     TestDetails const details;
  44:TestDeferredTestReporter.cpp **** };
  45:TestDeferredTestReporter.cpp **** 
  46:TestDeferredTestReporter.cpp **** TEST_FIXTURE(DeferredTestReporterFixture, ReportTestStartCreatesANewDeferredTest)
 795              		.loc 3 46 0 is_stmt 1
 796              		.cfi_startproc
 797 02b8 55       		pushq	%rbp
 798              		.cfi_def_cfa_offset 16
 799              		.cfi_offset 6, -16
 800 02b9 4889E5   		movq	%rsp, %rbp
 801              		.cfi_def_cfa_register 6
 802 02bc 4883EC10 		subq	$16, %rsp
 803 02c0 48897DF8 		movq	%rdi, -8(%rbp)
 804 02c4 488975F0 		movq	%rsi, -16(%rbp)
 805              	.LBB14:
 806              		.loc 3 46 0
 807 02c8 488B45F8 		movq	-8(%rbp), %rax
 808 02cc 4889C7   		movq	%rax, %rdi
 809 02cf E870FDFF 		call	_ZN8UnitTest12_GLOBAL__N_127DeferredTestReporterFixtureC2Ev
 809      FF
 810 02d4 488B45F8 		movq	-8(%rbp), %rax
 811 02d8 488B55F0 		movq	-16(%rbp), %rdx
 812 02dc 488990A8 		movq	%rdx, 168(%rax)
 812      000000
 813              	.LBE14:
 814 02e3 90       		nop
 815 02e4 C9       		leave
 816              		.cfi_def_cfa 7, 8
 817 02e5 C3       		ret
 818              		.cfi_endproc
 819              	.LFE1376:
 821              		.set	_ZN8UnitTest12_GLOBAL__N_171DeferredTestReporterFixtureReportTestStartCreatesANewDeferredTest
 822              		.section	.rodata
 823              	.LC4:
 824 0037 54657374 		.string	"TestDeferredTestReporter.cpp"
 824      44656665 
 824      72726564 
 824      54657374 
 824      5265706F 
 825 0054 00000000 		.align 8
 826              	.LC5:
 827 0058 5265706F 		.string	"ReportTestStartCreatesANewDeferredTest"
 827      72745465 
 827      73745374 
 827      61727443 
 827      72656174 
 828              		.text
 829              		.align 2
 831              	_ZN8UnitTest12_GLOBAL__N_169TestDeferredTestReporterFixtureReportTestStartCreatesANewDeferredTestC2
 832              	.LFB1379:
 833              		.loc 3 46 0
 834              		.cfi_startproc
 835 02e6 55       		pushq	%rbp
 836              		.cfi_def_cfa_offset 16
 837              		.cfi_offset 6, -16
 838 02e7 4889E5   		movq	%rsp, %rbp
 839              		.cfi_def_cfa_register 6
 840 02ea 53       		pushq	%rbx
 841 02eb 4883EC18 		subq	$24, %rsp
 842              		.cfi_offset 3, -24
 843 02ef 48897DE8 		movq	%rdi, -24(%rbp)
 844              	.LBB15:
 845              		.loc 3 46 0
 846 02f3 488B5DE8 		movq	-24(%rbp), %rbx
 847 02f7 E8000000 		call	_ZN13UnitTestSuite12GetSuiteNameEv
 847      00
 848 02fc 41B82E00 		movl	$46, %r8d
 848      0000
 849 0302 488D0D00 		leaq	.LC4(%rip), %rcx
 849      000000
 850 0309 4889C2   		movq	%rax, %rdx
 851 030c 488D3500 		leaq	.LC5(%rip), %rsi
 851      000000
 852 0313 4889DF   		movq	%rbx, %rdi
 853 0316 E8000000 		call	_ZN8UnitTest4TestC2EPKcS2_S2_i@PLT
 853      00
 854 031b 488D1500 		leaq	16+_ZTVN8UnitTest12_GLOBAL__N_169TestDeferredTestReporterFixtureReportTestStartCreatesANewDef
 854      000000
 855 0322 488B45E8 		movq	-24(%rbp), %rax
 856 0326 488910   		movq	%rdx, (%rax)
 857              	.LBE15:
 858 0329 90       		nop
 859 032a 4883C418 		addq	$24, %rsp
 860 032e 5B       		popq	%rbx
 861 032f 5D       		popq	%rbp
 862              		.cfi_def_cfa 7, 8
 863 0330 C3       		ret
 864              		.cfi_endproc
 865              	.LFE1379:
 867              		.set	_ZN8UnitTest12_GLOBAL__N_169TestDeferredTestReporterFixtureReportTestStartCreatesANewDeferred
 868              		.local	_ZN8UnitTest12_GLOBAL__N_177testDeferredTestReporterFixtureReportTestStartCreatesANewDeferr
 869              		.comm	_ZN8UnitTest12_GLOBAL__N_177testDeferredTestReporterFixtureReportTestStartCreatesANewDeferre
 870              		.local	_ZN8UnitTest12_GLOBAL__N_170adderDeferredTestReporterFixtureReportTestStartCreatesANewDefer
 871              		.comm	_ZN8UnitTest12_GLOBAL__N_170adderDeferredTestReporterFixtureReportTestStartCreatesANewDeferr
 872 0331 90       		.align 2
 874              	_ZN8UnitTest12_GLOBAL__N_171DeferredTestReporterFixtureReportTestStartCreatesANewDeferredTestHelper
 875              	.LFB1383:
 876              		.loc 3 46 0
 877              		.cfi_startproc
 878 0332 55       		pushq	%rbp
 879              		.cfi_def_cfa_offset 16
 880              		.cfi_offset 6, -16
 881 0333 4889E5   		movq	%rsp, %rbp
 882              		.cfi_def_cfa_register 6
 883 0336 4883EC10 		subq	$16, %rsp
 884 033a 48897DF8 		movq	%rdi, -8(%rbp)
 885              	.LBB16:
 886              		.loc 3 46 0
 887 033e 488B45F8 		movq	-8(%rbp), %rax
 888 0342 4889C7   		movq	%rax, %rdi
 889 0345 E8D8FEFF 		call	_ZN8UnitTest12_GLOBAL__N_127DeferredTestReporterFixtureD2Ev
 889      FF
 890              	.LBE16:
 891 034a 90       		nop
 892 034b C9       		leave
 893              		.cfi_def_cfa 7, 8
 894 034c C3       		ret
 895              		.cfi_endproc
 896              	.LFE1383:
 898              		.set	_ZN8UnitTest12_GLOBAL__N_171DeferredTestReporterFixtureReportTestStartCreatesANewDeferredTest
 899              		.section	.rodata
 900              	.LC6:
 901 007f 556E6861 		.string	"Unhandled exception: "
 901      6E646C65 
 901      64206578 
 901      63657074 
 901      696F6E3A 
 902 0095 000000   		.align 8
 903              	.LC7:
 904 0098 556E6861 		.string	"Unhandled exception while destroying fixture DeferredTestReporterFixture"
 904      6E646C65 
 904      64206578 
 904      63657074 
 904      696F6E20 
 905 00e1 00000000 		.align 8
 905      000000
 906              	.LC8:
 907 00e8 556E6861 		.string	"Unhandled exception while constructing fixture DeferredTestReporterFixture"
 907      6E646C65 
 907      64206578 
 907      63657074 
 907      696F6E20 
 908              		.text
 909 034d 90       		.align 2
 911              	_ZNK8UnitTest12_GLOBAL__N_169TestDeferredTestReporterFixtureReportTestStartCreatesANewDeferredTest7
 912              	.LFB1381:
 913              		.loc 3 46 0
 914              		.cfi_startproc
 915              		.cfi_personality 0x9b,DW.ref.__gxx_personality_v0
 916              		.cfi_lsda 0x1b,.LLSDA1381
 917 034e 55       		pushq	%rbp
 918              		.cfi_def_cfa_offset 16
 919              		.cfi_offset 6, -16
 920 034f 4889E5   		movq	%rsp, %rbp
 921              		.cfi_def_cfa_register 6
 922 0352 4155     		pushq	%r13
 923 0354 4154     		pushq	%r12
 924 0356 53       		pushq	%rbx
 925 0357 4881ECF8 		subq	$504, %rsp
 925      010000
 926              		.cfi_offset 13, -24
 927              		.cfi_offset 12, -32
 928              		.cfi_offset 3, -40
 929 035e 4889BDF8 		movq	%rdi, -520(%rbp)
 929      FDFFFF
 930              		.loc 3 46 0
 931 0365 64488B04 		movq	%fs:40, %rax
 931      25280000 
 931      00
 932 036e 488945D8 		movq	%rax, -40(%rbp)
 933 0372 31C0     		xorl	%eax, %eax
 934 0374 C6850FFE 		movb	$0, -497(%rbp)
 934      FFFF00
 935              	.LBB17:
 936 037b 488B85F8 		movq	-520(%rbp), %rax
 936      FDFFFF
 937 0382 488D5008 		leaq	8(%rax), %rdx
 938 0386 488D8540 		leaq	-448(%rbp), %rax
 938      FEFFFF
 939 038d 4889D6   		movq	%rdx, %rsi
 940 0390 4889C7   		movq	%rax, %rdi
 941              	.LEHB22:
 942 0393 E820FFFF 		call	_ZN8UnitTest12_GLOBAL__N_171DeferredTestReporterFixtureReportTestStartCreatesANewDeferredTest
 942      FF
 943              	.LEHE22:
 944              		.loc 3 46 0 is_stmt 0 discriminator 1
 945 0398 C6850FFE 		movb	$1, -497(%rbp)
 945      FFFF01
 946 039f 488B85F8 		movq	-520(%rbp), %rax
 946      FDFFFF
 947 03a6 488D5008 		leaq	8(%rax), %rdx
 948 03aa 488D8540 		leaq	-448(%rbp), %rax
 948      FEFFFF
 949 03b1 4889D6   		movq	%rdx, %rsi
 950 03b4 4889C7   		movq	%rax, %rdi
 951              	.LEHB23:
 952 03b7 E8A91F00 		call	_ZN8UnitTest11ExecuteTestINS_12_GLOBAL__N_171DeferredTestReporterFixtureReportTestStartCreate
 952      00
 953              	.LEHE23:
 954              		.loc 3 46 0 discriminator 3
 955 03bc 488D8540 		leaq	-448(%rbp), %rax
 955      FEFFFF
 956 03c3 4889C7   		movq	%rax, %rdi
 957              	.LEHB24:
 958 03c6 E867FFFF 		call	_ZN8UnitTest12_GLOBAL__N_171DeferredTestReporterFixtureReportTestStartCreatesANewDeferredTest
 958      FF
 959              	.LEHE24:
 960              	.LBE17:
 961              		.loc 3 46 0
 962 03cb E9690200 		jmp	.L50
 962      00
 963              	.L65:
 964 03d0 4989C4   		movq	%rax, %r12
 965 03d3 4889D3   		movq	%rdx, %rbx
 966              	.LBB18:
 967 03d6 488D8540 		leaq	-448(%rbp), %rax
 967      FEFFFF
 968 03dd 4889C7   		movq	%rax, %rdi
 969 03e0 E84DFFFF 		call	_ZN8UnitTest12_GLOBAL__N_171DeferredTestReporterFixtureReportTestStartCreatesANewDeferredTest
 969      FF
 970 03e5 4C89E0   		movq	%r12, %rax
 971 03e8 4889DA   		movq	%rbx, %rdx
 972 03eb EB00     		jmp	.L52
 973              	.L64:
 974              	.L52:
 975 03ed 4883FA01 		cmpq	$1, %rdx
 976 03f1 740F     		je	.L54
 977 03f3 4883FA02 		cmpq	$2, %rdx
 978 03f7 0F84A700 		je	.L55
 978      0000
 979 03fd E94A0100 		jmp	.L70
 979      00
 980              	.L54:
 981              	.LBE18:
 982              	.LBB19:
 983 0402 4889C7   		movq	%rax, %rdi
 984 0405 E8000000 		call	__cxa_begin_catch@PLT
 984      00
 985 040a 48898518 		movq	%rax, -488(%rbp)
 985      FEFFFF
 986              	.LEHB25:
 987 0411 E8000000 		call	_ZN8UnitTest11CurrentTest7ResultsEv@PLT
 987      00
 988 0416 488B18   		movq	(%rax), %rbx
 989 0419 488B8518 		movq	-488(%rbp), %rax
 989      FEFFFF
 990 0420 488B00   		movq	(%rax), %rax
 991 0423 4883C010 		addq	$16, %rax
 992 0427 488B00   		movq	(%rax), %rax
 993 042a 488B9518 		movq	-488(%rbp), %rdx
 993      FEFFFF
 994 0431 4889D7   		movq	%rdx, %rdi
 995 0434 FFD0     		call	*%rax
 996              	.LVL0:
 997 0436 4989C4   		movq	%rax, %r12
 998 0439 488B8518 		movq	-488(%rbp), %rax
 998      FEFFFF
 999 0440 4889C7   		movq	%rax, %rdi
 1000 0443 E8000000 		call	_ZNK8UnitTest15AssertException10LineNumberEv@PLT
 1000      00
 1001              		.loc 3 46 0 discriminator 5
 1002 0448 4189C5   		movl	%eax, %r13d
 1003 044b 488B8518 		movq	-488(%rbp), %rax
 1003      FEFFFF
 1004 0452 4889C7   		movq	%rax, %rdi
 1005 0455 E8000000 		call	_ZNK8UnitTest15AssertException8FilenameEv@PLT
 1005      00
 1006              		.loc 3 46 0 discriminator 7
 1007 045a 4889C1   		movq	%rax, %rcx
 1008 045d 488B85F8 		movq	-520(%rbp), %rax
 1008      FDFFFF
 1009 0464 488B5008 		movq	8(%rax), %rdx
 1010 0468 488B85F8 		movq	-520(%rbp), %rax
 1010      FDFFFF
 1011 046f 488B7010 		movq	16(%rax), %rsi
 1012 0473 488D8520 		leaq	-480(%rbp), %rax
 1012      FEFFFF
 1013 047a 4589E8   		movl	%r13d, %r8d
 1014 047d 4889C7   		movq	%rax, %rdi
 1015 0480 E8000000 		call	_ZN8UnitTest11TestDetailsC1EPKcS2_S2_i@PLT
 1015      00
 1016              		.loc 3 46 0 discriminator 11
 1017 0485 488D8520 		leaq	-480(%rbp), %rax
 1017      FEFFFF
 1018 048c 4C89E2   		movq	%r12, %rdx
 1019 048f 4889C6   		movq	%rax, %rsi
 1020 0492 4889DF   		movq	%rbx, %rdi
 1021 0495 E8000000 		call	_ZN8UnitTest11TestResults13OnTestFailureERKNS_11TestDetailsEPKc@PLT
 1021      00
 1022              	.LEHE25:
 1023              		.loc 3 46 0 discriminator 13
 1024 049a E8000000 		call	__cxa_end_catch@PLT
 1024      00
 1025              	.LBE19:
 1026 049f E9950100 		jmp	.L50
 1026      00
 1027              	.L55:
 1028              	.LBB20:
 1029              		.loc 3 46 0
 1030 04a4 4889C7   		movq	%rax, %rdi
 1031 04a7 E8000000 		call	__cxa_begin_catch@PLT
 1031      00
 1032 04ac 48898510 		movq	%rax, -496(%rbp)
 1032      FEFFFF
 1033              	.LBB21:
 1034 04b3 488D8540 		leaq	-448(%rbp), %rax
 1034      FEFFFF
 1035 04ba 4889C7   		movq	%rax, %rdi
 1036              	.LEHB26:
 1037 04bd E8000000 		call	_ZN8UnitTest15MemoryOutStreamC1Ev
 1037      00
 1038              	.LEHE26:
 1039              		.loc 3 46 0 discriminator 15
 1040 04c2 488D8540 		leaq	-448(%rbp), %rax
 1040      FEFFFF
 1041 04c9 488D3500 		leaq	.LC6(%rip), %rsi
 1041      000000
 1042 04d0 4889C7   		movq	%rax, %rdi
 1043              	.LEHB27:
 1044 04d3 E8000000 		call	_ZStlsISt11char_traitsIcEERSt13basic_ostreamIcT_ES5_PKc@PLT
 1044      00
 1045 04d8 4889C3   		movq	%rax, %rbx
 1046 04db 488B8510 		movq	-496(%rbp), %rax
 1046      FEFFFF
 1047 04e2 488B00   		movq	(%rax), %rax
 1048 04e5 4883C010 		addq	$16, %rax
 1049 04e9 488B00   		movq	(%rax), %rax
 1050 04ec 488B9510 		movq	-496(%rbp), %rdx
 1050      FEFFFF
 1051 04f3 4889D7   		movq	%rdx, %rdi
 1052 04f6 FFD0     		call	*%rax
 1053              	.LVL1:
 1054 04f8 4889C6   		movq	%rax, %rsi
 1055 04fb 4889DF   		movq	%rbx, %rdi
 1056 04fe E8000000 		call	_ZStlsISt11char_traitsIcEERSt13basic_ostreamIcT_ES5_PKc@PLT
 1056      00
 1057              		.loc 3 46 0 discriminator 19
 1058 0503 E8000000 		call	_ZN8UnitTest11CurrentTest7ResultsEv@PLT
 1058      00
 1059 0508 488B18   		movq	(%rax), %rbx
 1060 050b 488D8540 		leaq	-448(%rbp), %rax
 1060      FEFFFF
 1061 0512 4889C7   		movq	%rax, %rdi
 1062 0515 E8000000 		call	_ZNK8UnitTest15MemoryOutStream7GetTextEv@PLT
 1062      00
 1063              		.loc 3 46 0 discriminator 21
 1064 051a 4889C2   		movq	%rax, %rdx
 1065 051d 488B85F8 		movq	-520(%rbp), %rax
 1065      FDFFFF
 1066 0524 4883C008 		addq	$8, %rax
 1067 0528 4889C6   		movq	%rax, %rsi
 1068 052b 4889DF   		movq	%rbx, %rdi
 1069 052e E8000000 		call	_ZN8UnitTest11TestResults13OnTestFailureERKNS_11TestDetailsEPKc@PLT
 1069      00
 1070              	.LEHE27:
 1071              		.loc 3 46 0 discriminator 25
 1072 0533 488D8540 		leaq	-448(%rbp), %rax
 1072      FEFFFF
 1073 053a 4889C7   		movq	%rax, %rdi
 1074              	.LEHB28:
 1075 053d E8000000 		call	_ZN8UnitTest15MemoryOutStreamD1Ev
 1075      00
 1076              	.LEHE28:
 1077              	.LBE21:
 1078              		.loc 3 46 0 discriminator 26
 1079 0542 E8000000 		call	__cxa_end_catch@PLT
 1079      00
 1080              	.LBE20:
 1081 0547 E9ED0000 		jmp	.L50
 1081      00
 1082              	.L70:
 1083              		.loc 3 46 0
 1084 054c 4889C7   		movq	%rax, %rdi
 1085 054f E8000000 		call	__cxa_begin_catch@PLT
 1085      00
 1086 0554 80BD0FFE 		cmpb	$0, -497(%rbp)
 1086      FFFF00
 1087 055b 7445     		je	.L57
 1088              	.LEHB29:
 1089              		.loc 3 46 0 discriminator 28
 1090 055d E8000000 		call	_ZN8UnitTest11CurrentTest7ResultsEv@PLT
 1090      00
 1091 0562 488B18   		movq	(%rax), %rbx
 1092 0565 488B85F8 		movq	-520(%rbp), %rax
 1092      FDFFFF
 1093 056c 488D4808 		leaq	8(%rax), %rcx
 1094 0570 488D8520 		leaq	-480(%rbp), %rax
 1094      FEFFFF
 1095 0577 BA2E0000 		movl	$46, %edx
 1095      00
 1096 057c 4889CE   		movq	%rcx, %rsi
 1097 057f 4889C7   		movq	%rax, %rdi
 1098 0582 E8000000 		call	_ZN8UnitTest11TestDetailsC1ERKS0_i@PLT
 1098      00
 1099              		.loc 3 46 0 discriminator 33
 1100 0587 488D8520 		leaq	-480(%rbp), %rax
 1100      FEFFFF
 1101 058e 488D1500 		leaq	.LC7(%rip), %rdx
 1101      000000
 1102 0595 4889C6   		movq	%rax, %rsi
 1103 0598 4889DF   		movq	%rbx, %rdi
 1104 059b E8000000 		call	_ZN8UnitTest11TestResults13OnTestFailureERKNS_11TestDetailsEPKc@PLT
 1104      00
 1105 05a0 EB43     		jmp	.L58
 1106              	.L57:
 1107              		.loc 3 46 0 discriminator 29
 1108 05a2 E8000000 		call	_ZN8UnitTest11CurrentTest7ResultsEv@PLT
 1108      00
 1109 05a7 488B18   		movq	(%rax), %rbx
 1110 05aa 488B85F8 		movq	-520(%rbp), %rax
 1110      FDFFFF
 1111 05b1 488D4808 		leaq	8(%rax), %rcx
 1112 05b5 488D8520 		leaq	-480(%rbp), %rax
 1112      FEFFFF
 1113 05bc BA2E0000 		movl	$46, %edx
 1113      00
 1114 05c1 4889CE   		movq	%rcx, %rsi
 1115 05c4 4889C7   		movq	%rax, %rdi
 1116 05c7 E8000000 		call	_ZN8UnitTest11TestDetailsC1ERKS0_i@PLT
 1116      00
 1117              		.loc 3 46 0 discriminator 40
 1118 05cc 488D8520 		leaq	-480(%rbp), %rax
 1118      FEFFFF
 1119 05d3 488D1500 		leaq	.LC8(%rip), %rdx
 1119      000000
 1120 05da 4889C6   		movq	%rax, %rsi
 1121 05dd 4889DF   		movq	%rbx, %rdi
 1122 05e0 E8000000 		call	_ZN8UnitTest11TestResults13OnTestFailureERKNS_11TestDetailsEPKc@PLT
 1122      00
 1123              	.LEHE29:
 1124              	.L58:
 1125              	.LEHB30:
 1126              		.loc 3 46 0 discriminator 43
 1127 05e5 E8000000 		call	__cxa_end_catch@PLT
 1127      00
 1128 05ea EB4D     		jmp	.L50
 1129              	.L66:
 1130 05ec 4889C3   		movq	%rax, %rbx
 1131              	.LBB23:
 1132              		.loc 3 46 0
 1133 05ef E8000000 		call	__cxa_end_catch@PLT
 1133      00
 1134 05f4 4889D8   		movq	%rbx, %rax
 1135 05f7 4889C7   		movq	%rax, %rdi
 1136 05fa E8000000 		call	_Unwind_Resume@PLT
 1136      00
 1137              	.LEHE30:
 1138              	.L68:
 1139 05ff 4889C3   		movq	%rax, %rbx
 1140              	.LBE23:
 1141              	.LBB24:
 1142              	.LBB22:
 1143 0602 488D8540 		leaq	-448(%rbp), %rax
 1143      FEFFFF
 1144 0609 4889C7   		movq	%rax, %rdi
 1145 060c E8000000 		call	_ZN8UnitTest15MemoryOutStreamD1Ev
 1145      00
 1146 0611 EB03     		jmp	.L61
 1147              	.L67:
 1148 0613 4889C3   		movq	%rax, %rbx
 1149              	.L61:
 1150              	.LBE22:
 1151 0616 E8000000 		call	__cxa_end_catch@PLT
 1151      00
 1152 061b 4889D8   		movq	%rbx, %rax
 1153 061e 4889C7   		movq	%rax, %rdi
 1154              	.LEHB31:
 1155 0621 E8000000 		call	_Unwind_Resume@PLT
 1155      00
 1156              	.LEHE31:
 1157              	.L69:
 1158 0626 4889C3   		movq	%rax, %rbx
 1159              	.LBE24:
 1160 0629 E8000000 		call	__cxa_end_catch@PLT
 1160      00
 1161 062e 4889D8   		movq	%rbx, %rax
 1162 0631 4889C7   		movq	%rax, %rdi
 1163              	.LEHB32:
 1164 0634 E8000000 		call	_Unwind_Resume@PLT
 1164      00
 1165              	.LEHE32:
 1166              	.L50:
 1167 0639 488B45D8 		movq	-40(%rbp), %rax
 1168 063d 64483304 		xorq	%fs:40, %rax
 1168      25280000 
 1168      00
 1169 0646 7405     		je	.L63
 1170 0648 E8000000 		call	__stack_chk_fail@PLT
 1170      00
 1171              	.L63:
 1172 064d 4881C4F8 		addq	$504, %rsp
 1172      010000
 1173 0654 5B       		popq	%rbx
 1174 0655 415C     		popq	%r12
 1175 0657 415D     		popq	%r13
 1176 0659 5D       		popq	%rbp
 1177              		.cfi_def_cfa 7, 8
 1178 065a C3       		ret
 1179              		.cfi_endproc
 1180              	.LFE1381:
 1181              		.section	.gcc_except_table
 1182 003d 000000   		.align 4
 1183              	.LLSDA1381:
 1184 0040 FF       		.byte	0xff
 1185 0041 9B       		.byte	0x9b
 1186 0042 55       		.uleb128 .LLSDATT1381-.LLSDATTD1381
 1187              	.LLSDATTD1381:
 1188 0043 01       		.byte	0x1
 1189 0044 3E       		.uleb128 .LLSDACSE1381-.LLSDACSB1381
 1190              	.LLSDACSB1381:
 1191 0045 45       		.uleb128 .LEHB22-.LFB1381
 1192 0046 05       		.uleb128 .LEHE22-.LEHB22
 1193 0047 9F01     		.uleb128 .L64-.LFB1381
 1194 0049 05       		.uleb128 0x5
 1195 004a 69       		.uleb128 .LEHB23-.LFB1381
 1196 004b 05       		.uleb128 .LEHE23-.LEHB23
 1197 004c 8201     		.uleb128 .L65-.LFB1381
 1198 004e 07       		.uleb128 0x7
 1199 004f 78       		.uleb128 .LEHB24-.LFB1381
 1200 0050 05       		.uleb128 .LEHE24-.LEHB24
 1201 0051 9F01     		.uleb128 .L64-.LFB1381
 1202 0053 05       		.uleb128 0x5
 1203 0054 C301     		.uleb128 .LEHB25-.LFB1381
 1204 0056 8901     		.uleb128 .LEHE25-.LEHB25
 1205 0058 9E05     		.uleb128 .L66-.LFB1381
 1206 005a 00       		.uleb128 0
 1207 005b EF02     		.uleb128 .LEHB26-.LFB1381
 1208 005d 05       		.uleb128 .LEHE26-.LEHB26
 1209 005e C505     		.uleb128 .L67-.LFB1381
 1210 0060 00       		.uleb128 0
 1211 0061 8503     		.uleb128 .LEHB27-.LFB1381
 1212 0063 60       		.uleb128 .LEHE27-.LEHB27
 1213 0064 B105     		.uleb128 .L68-.LFB1381
 1214 0066 00       		.uleb128 0
 1215 0067 EF03     		.uleb128 .LEHB28-.LFB1381
 1216 0069 05       		.uleb128 .LEHE28-.LEHB28
 1217 006a C505     		.uleb128 .L67-.LFB1381
 1218 006c 00       		.uleb128 0
 1219 006d 8F04     		.uleb128 .LEHB29-.LFB1381
 1220 006f 8801     		.uleb128 .LEHE29-.LEHB29
 1221 0071 D805     		.uleb128 .L69-.LFB1381
 1222 0073 00       		.uleb128 0
 1223 0074 9705     		.uleb128 .LEHB30-.LFB1381
 1224 0076 1A       		.uleb128 .LEHE30-.LEHB30
 1225 0077 00       		.uleb128 0
 1226 0078 00       		.uleb128 0
 1227 0079 D305     		.uleb128 .LEHB31-.LFB1381
 1228 007b 05       		.uleb128 .LEHE31-.LEHB31
 1229 007c 00       		.uleb128 0
 1230 007d 00       		.uleb128 0
 1231 007e E605     		.uleb128 .LEHB32-.LFB1381
 1232 0080 05       		.uleb128 .LEHE32-.LEHB32
 1233 0081 00       		.uleb128 0
 1234 0082 00       		.uleb128 0
 1235              	.LLSDACSE1381:
 1236 0083 03       		.byte	0x3
 1237 0084 00       		.byte	0
 1238 0085 02       		.byte	0x2
 1239 0086 7D       		.byte	0x7d
 1240 0087 01       		.byte	0x1
 1241 0088 7D       		.byte	0x7d
 1242 0089 00       		.byte	0
 1243 008a 7D       		.byte	0x7d
 1244 008b 00       		.align 4
 1245 008c 00000000 		.long	0
 1246              	
 1247 0090 00000000 		.long	DW.ref._ZTISt9exception-.
 1248 0094 00000000 		.long	DW.ref._ZTIN8UnitTest15AssertExceptionE-.
 1249              	.LLSDATT1381:
 1250              		.text
 1252              		.section	.rodata
 1253 0133 00000000 		.align 8
 1253      00
 1254              	.LC9:
 1255 0138 556E6861 		.string	"Unhandled exception in CHECK_EQUAL(1, (int)reporter.GetResults().size())"
 1255      6E646C65 
 1255      64206578 
 1255      63657074 
 1255      696F6E20 
 1256              		.text
 1257 065b 90       		.align 2
 1259              	_ZN8UnitTest12_GLOBAL__N_171DeferredTestReporterFixtureReportTestStartCreatesANewDeferredTestHelper
 1260              	.LFB1385:
  47:TestDeferredTestReporter.cpp **** {
 1261              		.loc 3 47 0 is_stmt 1
 1262              		.cfi_startproc
 1263              		.cfi_personality 0x9b,DW.ref.__gxx_personality_v0
 1264              		.cfi_lsda 0x1b,.LLSDA1385
 1265 065c 55       		pushq	%rbp
 1266              		.cfi_def_cfa_offset 16
 1267              		.cfi_offset 6, -16
 1268 065d 4889E5   		movq	%rsp, %rbp
 1269              		.cfi_def_cfa_register 6
 1270 0660 53       		pushq	%rbx
 1271 0661 4883EC58 		subq	$88, %rsp
 1272              		.cfi_offset 3, -24
 1273 0665 48897DA8 		movq	%rdi, -88(%rbp)
 1274              		.loc 3 47 0
 1275 0669 64488B04 		movq	%fs:40, %rax
 1275      25280000 
 1275      00
 1276 0672 488945E8 		movq	%rax, -24(%rbp)
 1277 0676 31C0     		xorl	%eax, %eax
  48:TestDeferredTestReporter.cpp ****     reporter.ReportTestStart(details);
 1278              		.loc 3 48 0
 1279 0678 488B45A8 		movq	-88(%rbp), %rax
 1280 067c 488B55A8 		movq	-88(%rbp), %rdx
 1281 0680 4881C288 		addq	$136, %rdx
 1281      000000
 1282 0687 4889D6   		movq	%rdx, %rsi
 1283 068a 4889C7   		movq	%rax, %rdi
 1284              	.LEHB33:
 1285 068d E8000000 		call	_ZN8UnitTest20DeferredTestReporter15ReportTestStartERKNS_11TestDetailsE@PLT
 1285      00
 1286              	.LEHE33:
 1287              	.LEHB34:
  49:TestDeferredTestReporter.cpp ****     CHECK_EQUAL(1, (int)reporter.GetResults().size());
 1288              		.loc 3 49 0
 1289 0692 E8000000 		call	_ZN8UnitTest11CurrentTest7DetailsEv@PLT
 1289      00
 1290 0697 488B08   		movq	(%rax), %rcx
 1291 069a 488D45C0 		leaq	-64(%rbp), %rax
 1292 069e BA310000 		movl	$49, %edx
 1292      00
 1293 06a3 4889CE   		movq	%rcx, %rsi
 1294 06a6 4889C7   		movq	%rax, %rdi
 1295 06a9 E8000000 		call	_ZN8UnitTest11TestDetailsC1ERKS0_i@PLT
 1295      00
 1296              		.loc 3 49 0 is_stmt 0 discriminator 2
 1297 06ae 488B45A8 		movq	-88(%rbp), %rax
 1298 06b2 4889C7   		movq	%rax, %rdi
 1299 06b5 E8000000 		call	_ZN8UnitTest20DeferredTestReporter10GetResultsEv@PLT
 1299      00
 1300              	.LEHE34:
 1301 06ba 4889C7   		movq	%rax, %rdi
 1302 06bd E8000000 		call	_ZNKSt6vectorIN8UnitTest18DeferredTestResultESaIS1_EE4sizeEv
 1302      00
 1303 06c2 8945BC   		movl	%eax, -68(%rbp)
 1304 06c5 C745B801 		movl	$1, -72(%rbp)
 1304      000000
 1305              	.LEHB35:
 1306 06cc E8000000 		call	_ZN8UnitTest11CurrentTest7ResultsEv@PLT
 1306      00
 1307              		.loc 3 49 0 discriminator 4
 1308 06d1 488B00   		movq	(%rax), %rax
 1309 06d4 488D4DC0 		leaq	-64(%rbp), %rcx
 1310 06d8 488D55BC 		leaq	-68(%rbp), %rdx
 1311 06dc 488D75B8 		leaq	-72(%rbp), %rsi
 1312 06e0 4889C7   		movq	%rax, %rdi
 1313 06e3 E8000000 		call	_ZN8UnitTest10CheckEqualIiiEEvRNS_11TestResultsERKT_RKT0_RKNS_11TestDetailsE
 1313      00
 1314              	.LEHE35:
  50:TestDeferredTestReporter.cpp **** }
 1315              		.loc 3 50 0 is_stmt 1
 1316 06e8 EB5E     		jmp	.L71
 1317              	.L78:
 1318 06ea EB00     		jmp	.L73
 1319              	.L77:
 1320              	.L73:
  49:TestDeferredTestReporter.cpp ****     CHECK_EQUAL(1, (int)reporter.GetResults().size());
 1321              		.loc 3 49 0
 1322 06ec 4889C7   		movq	%rax, %rdi
 1323 06ef E8000000 		call	__cxa_begin_catch@PLT
 1323      00
 1324              	.LEHB36:
 1325 06f4 E8000000 		call	_ZN8UnitTest11CurrentTest7ResultsEv@PLT
 1325      00
 1326 06f9 488B18   		movq	(%rax), %rbx
 1327 06fc E8000000 		call	_ZN8UnitTest11CurrentTest7DetailsEv@PLT
 1327      00
  49:TestDeferredTestReporter.cpp ****     CHECK_EQUAL(1, (int)reporter.GetResults().size());
 1328              		.loc 3 49 0 is_stmt 0 discriminator 10
 1329 0701 488B08   		movq	(%rax), %rcx
 1330 0704 488D45C0 		leaq	-64(%rbp), %rax
 1331 0708 BA310000 		movl	$49, %edx
 1331      00
 1332 070d 4889CE   		movq	%rcx, %rsi
 1333 0710 4889C7   		movq	%rax, %rdi
 1334 0713 E8000000 		call	_ZN8UnitTest11TestDetailsC1ERKS0_i@PLT
 1334      00
  49:TestDeferredTestReporter.cpp ****     CHECK_EQUAL(1, (int)reporter.GetResults().size());
 1335              		.loc 3 49 0 discriminator 14
 1336 0718 488D45C0 		leaq	-64(%rbp), %rax
 1337 071c 488D1500 		leaq	.LC9(%rip), %rdx
 1337      000000
 1338 0723 4889C6   		movq	%rax, %rsi
 1339 0726 4889DF   		movq	%rbx, %rdi
 1340 0729 E8000000 		call	_ZN8UnitTest11TestResults13OnTestFailureERKNS_11TestDetailsEPKc@PLT
 1340      00
 1341              	.LEHE36:
 1342              	.LEHB37:
  49:TestDeferredTestReporter.cpp ****     CHECK_EQUAL(1, (int)reporter.GetResults().size());
 1343              		.loc 3 49 0 discriminator 16
 1344 072e E8000000 		call	__cxa_end_catch@PLT
 1344      00
 1345              	.LEHE37:
 1346              		.loc 3 50 0 is_stmt 1 discriminator 16
 1347 0733 EB13     		jmp	.L71
 1348              	.L79:
 1349 0735 4889C3   		movq	%rax, %rbx
  49:TestDeferredTestReporter.cpp ****     CHECK_EQUAL(1, (int)reporter.GetResults().size());
 1350              		.loc 3 49 0
 1351 0738 E8000000 		call	__cxa_end_catch@PLT
 1351      00
 1352 073d 4889D8   		movq	%rbx, %rax
 1353 0740 4889C7   		movq	%rax, %rdi
 1354              	.LEHB38:
 1355 0743 E8000000 		call	_Unwind_Resume@PLT
 1355      00
 1356              	.LEHE38:
 1357              	.L71:
 1358              		.loc 3 50 0
 1359 0748 488B45E8 		movq	-24(%rbp), %rax
 1360 074c 64483304 		xorq	%fs:40, %rax
 1360      25280000 
 1360      00
 1361 0755 7405     		je	.L76
 1362 0757 E8000000 		call	__stack_chk_fail@PLT
 1362      00
 1363              	.L76:
 1364 075c 4883C458 		addq	$88, %rsp
 1365 0760 5B       		popq	%rbx
 1366 0761 5D       		popq	%rbp
 1367              		.cfi_def_cfa 7, 8
 1368 0762 C3       		ret
 1369              		.cfi_endproc
 1370              	.LFE1385:
 1371              		.section	.gcc_except_table
 1372              		.align 4
 1373              	.LLSDA1385:
 1374 0098 FF       		.byte	0xff
 1375 0099 9B       		.byte	0x9b
 1376 009a 29       		.uleb128 .LLSDATT1385-.LLSDATTD1385
 1377              	.LLSDATTD1385:
 1378 009b 01       		.byte	0x1
 1379 009c 1E       		.uleb128 .LLSDACSE1385-.LLSDACSB1385
 1380              	.LLSDACSB1385:
 1381 009d 31       		.uleb128 .LEHB33-.LFB1385
 1382 009e 05       		.uleb128 .LEHE33-.LEHB33
 1383 009f 00       		.uleb128 0
 1384 00a0 00       		.uleb128 0
 1385 00a1 36       		.uleb128 .LEHB34-.LFB1385
 1386 00a2 28       		.uleb128 .LEHE34-.LEHB34
 1387 00a3 9001     		.uleb128 .L77-.LFB1385
 1388 00a5 01       		.uleb128 0x1
 1389 00a6 70       		.uleb128 .LEHB35-.LFB1385
 1390 00a7 1C       		.uleb128 .LEHE35-.LEHB35
 1391 00a8 8E01     		.uleb128 .L78-.LFB1385
 1392 00aa 03       		.uleb128 0x3
 1393 00ab 9801     		.uleb128 .LEHB36-.LFB1385
 1394 00ad 3A       		.uleb128 .LEHE36-.LEHB36
 1395 00ae D901     		.uleb128 .L79-.LFB1385
 1396 00b0 00       		.uleb128 0
 1397 00b1 D201     		.uleb128 .LEHB37-.LFB1385
 1398 00b3 05       		.uleb128 .LEHE37-.LEHB37
 1399 00b4 00       		.uleb128 0
 1400 00b5 00       		.uleb128 0
 1401 00b6 E701     		.uleb128 .LEHB38-.LFB1385
 1402 00b8 05       		.uleb128 .LEHE38-.LEHB38
 1403 00b9 00       		.uleb128 0
 1404 00ba 00       		.uleb128 0
 1405              	.LLSDACSE1385:
 1406 00bb 01       		.byte	0x1
 1407 00bc 00       		.byte	0
 1408 00bd 00       		.byte	0
 1409 00be 7D       		.byte	0x7d
 1410 00bf 00       		.align 4
 1411 00c0 00000000 		.long	0
 1412              	
 1413              	.LLSDATT1385:
 1414              		.text
 1416 0763 90       		.align 2
 1418              	_ZN8UnitTest12_GLOBAL__N_172DeferredTestReporterFixtureReportTestStartCapturesTestNameAndSuiteHelpe
 1419              	.LFB1387:
  51:TestDeferredTestReporter.cpp **** 
  52:TestDeferredTestReporter.cpp **** TEST_FIXTURE(DeferredTestReporterFixture, ReportTestStartCapturesTestNameAndSuite)
 1420              		.loc 3 52 0
 1421              		.cfi_startproc
 1422 0764 55       		pushq	%rbp
 1423              		.cfi_def_cfa_offset 16
 1424              		.cfi_offset 6, -16
 1425 0765 4889E5   		movq	%rsp, %rbp
 1426              		.cfi_def_cfa_register 6
 1427 0768 4883EC10 		subq	$16, %rsp
 1428 076c 48897DF8 		movq	%rdi, -8(%rbp)
 1429 0770 488975F0 		movq	%rsi, -16(%rbp)
 1430              	.LBB25:
 1431              		.loc 3 52 0
 1432 0774 488B45F8 		movq	-8(%rbp), %rax
 1433 0778 4889C7   		movq	%rax, %rdi
 1434 077b E8C4F8FF 		call	_ZN8UnitTest12_GLOBAL__N_127DeferredTestReporterFixtureC2Ev
 1434      FF
 1435 0780 488B45F8 		movq	-8(%rbp), %rax
 1436 0784 488B55F0 		movq	-16(%rbp), %rdx
 1437 0788 488990A8 		movq	%rdx, 168(%rax)
 1437      000000
 1438              	.LBE25:
 1439 078f 90       		nop
 1440 0790 C9       		leave
 1441              		.cfi_def_cfa 7, 8
 1442 0791 C3       		ret
 1443              		.cfi_endproc
 1444              	.LFE1387:
 1446              		.set	_ZN8UnitTest12_GLOBAL__N_172DeferredTestReporterFixtureReportTestStartCapturesTestNameAndSuit
 1447              		.section	.rodata
 1448 0181 00000000 		.align 8
 1448      000000
 1449              	.LC10:
 1450 0188 5265706F 		.string	"ReportTestStartCapturesTestNameAndSuite"
 1450      72745465 
 1450      73745374 
 1450      61727443 
 1450      61707475 
 1451              		.text
 1452              		.align 2
 1454              	_ZN8UnitTest12_GLOBAL__N_170TestDeferredTestReporterFixtureReportTestStartCapturesTestNameAndSuiteC
 1455              	.LFB1390:
 1456              		.loc 3 52 0
 1457              		.cfi_startproc
 1458 0792 55       		pushq	%rbp
 1459              		.cfi_def_cfa_offset 16
 1460              		.cfi_offset 6, -16
 1461 0793 4889E5   		movq	%rsp, %rbp
 1462              		.cfi_def_cfa_register 6
 1463 0796 53       		pushq	%rbx
 1464 0797 4883EC18 		subq	$24, %rsp
 1465              		.cfi_offset 3, -24
 1466 079b 48897DE8 		movq	%rdi, -24(%rbp)
 1467              	.LBB26:
 1468              		.loc 3 52 0
 1469 079f 488B5DE8 		movq	-24(%rbp), %rbx
 1470 07a3 E8000000 		call	_ZN13UnitTestSuite12GetSuiteNameEv
 1470      00
 1471 07a8 41B83400 		movl	$52, %r8d
 1471      0000
 1472 07ae 488D0D00 		leaq	.LC4(%rip), %rcx
 1472      000000
 1473 07b5 4889C2   		movq	%rax, %rdx
 1474 07b8 488D3500 		leaq	.LC10(%rip), %rsi
 1474      000000
 1475 07bf 4889DF   		movq	%rbx, %rdi
 1476 07c2 E8000000 		call	_ZN8UnitTest4TestC2EPKcS2_S2_i@PLT
 1476      00
 1477 07c7 488D1500 		leaq	16+_ZTVN8UnitTest12_GLOBAL__N_170TestDeferredTestReporterFixtureReportTestStartCapturesTestNa
 1477      000000
 1478 07ce 488B45E8 		movq	-24(%rbp), %rax
 1479 07d2 488910   		movq	%rdx, (%rax)
 1480              	.LBE26:
 1481 07d5 90       		nop
 1482 07d6 4883C418 		addq	$24, %rsp
 1483 07da 5B       		popq	%rbx
 1484 07db 5D       		popq	%rbp
 1485              		.cfi_def_cfa 7, 8
 1486 07dc C3       		ret
 1487              		.cfi_endproc
 1488              	.LFE1390:
 1490              		.set	_ZN8UnitTest12_GLOBAL__N_170TestDeferredTestReporterFixtureReportTestStartCapturesTestNameAnd
 1491              		.local	_ZN8UnitTest12_GLOBAL__N_178testDeferredTestReporterFixtureReportTestStartCapturesTestNameA
 1492              		.comm	_ZN8UnitTest12_GLOBAL__N_178testDeferredTestReporterFixtureReportTestStartCapturesTestNameAn
 1493              		.local	_ZN8UnitTest12_GLOBAL__N_171adderDeferredTestReporterFixtureReportTestStartCapturesTestName
 1494              		.comm	_ZN8UnitTest12_GLOBAL__N_171adderDeferredTestReporterFixtureReportTestStartCapturesTestNameA
 1495 07dd 90       		.align 2
 1497              	_ZN8UnitTest12_GLOBAL__N_172DeferredTestReporterFixtureReportTestStartCapturesTestNameAndSuiteHelpe
 1498              	.LFB1394:
 1499              		.loc 3 52 0
 1500              		.cfi_startproc
 1501 07de 55       		pushq	%rbp
 1502              		.cfi_def_cfa_offset 16
 1503              		.cfi_offset 6, -16
 1504 07df 4889E5   		movq	%rsp, %rbp
 1505              		.cfi_def_cfa_register 6
 1506 07e2 4883EC10 		subq	$16, %rsp
 1507 07e6 48897DF8 		movq	%rdi, -8(%rbp)
 1508              	.LBB27:
 1509              		.loc 3 52 0
 1510 07ea 488B45F8 		movq	-8(%rbp), %rax
 1511 07ee 4889C7   		movq	%rax, %rdi
 1512 07f1 E82CFAFF 		call	_ZN8UnitTest12_GLOBAL__N_127DeferredTestReporterFixtureD2Ev
 1512      FF
 1513              	.LBE27:
 1514 07f6 90       		nop
 1515 07f7 C9       		leave
 1516              		.cfi_def_cfa 7, 8
 1517 07f8 C3       		ret
 1518              		.cfi_endproc
 1519              	.LFE1394:
 1521              		.set	_ZN8UnitTest12_GLOBAL__N_172DeferredTestReporterFixtureReportTestStartCapturesTestNameAndSuit
 1522 07f9 90       		.align 2
 1524              	_ZNK8UnitTest12_GLOBAL__N_170TestDeferredTestReporterFixtureReportTestStartCapturesTestNameAndSuite
 1525              	.LFB1392:
 1526              		.loc 3 52 0
 1527              		.cfi_startproc
 1528              		.cfi_personality 0x9b,DW.ref.__gxx_personality_v0
 1529              		.cfi_lsda 0x1b,.LLSDA1392
 1530 07fa 55       		pushq	%rbp
 1531              		.cfi_def_cfa_offset 16
 1532              		.cfi_offset 6, -16
 1533 07fb 4889E5   		movq	%rsp, %rbp
 1534              		.cfi_def_cfa_register 6
 1535 07fe 4155     		pushq	%r13
 1536 0800 4154     		pushq	%r12
 1537 0802 53       		pushq	%rbx
 1538 0803 4881ECF8 		subq	$504, %rsp
 1538      010000
 1539              		.cfi_offset 13, -24
 1540              		.cfi_offset 12, -32
 1541              		.cfi_offset 3, -40
 1542 080a 4889BDF8 		movq	%rdi, -520(%rbp)
 1542      FDFFFF
 1543              		.loc 3 52 0
 1544 0811 64488B04 		movq	%fs:40, %rax
 1544      25280000 
 1544      00
 1545 081a 488945D8 		movq	%rax, -40(%rbp)
 1546 081e 31C0     		xorl	%eax, %eax
 1547 0820 C6850FFE 		movb	$0, -497(%rbp)
 1547      FFFF00
 1548              	.LBB28:
 1549 0827 488B85F8 		movq	-520(%rbp), %rax
 1549      FDFFFF
 1550 082e 488D5008 		leaq	8(%rax), %rdx
 1551 0832 488D8540 		leaq	-448(%rbp), %rax
 1551      FEFFFF
 1552 0839 4889D6   		movq	%rdx, %rsi
 1553 083c 4889C7   		movq	%rax, %rdi
 1554              	.LEHB39:
 1555 083f E820FFFF 		call	_ZN8UnitTest12_GLOBAL__N_172DeferredTestReporterFixtureReportTestStartCapturesTestNameAndSuit
 1555      FF
 1556              	.LEHE39:
 1557              		.loc 3 52 0 is_stmt 0 discriminator 1
 1558 0844 C6850FFE 		movb	$1, -497(%rbp)
 1558      FFFF01
 1559 084b 488B85F8 		movq	-520(%rbp), %rax
 1559      FDFFFF
 1560 0852 488D5008 		leaq	8(%rax), %rdx
 1561 0856 488D8540 		leaq	-448(%rbp), %rax
 1561      FEFFFF
 1562 085d 4889D6   		movq	%rdx, %rsi
 1563 0860 4889C7   		movq	%rax, %rdi
 1564              	.LEHB40:
 1565 0863 E8C61D00 		call	_ZN8UnitTest11ExecuteTestINS_12_GLOBAL__N_172DeferredTestReporterFixtureReportTestStartCaptur
 1565      00
 1566              	.LEHE40:
 1567              		.loc 3 52 0 discriminator 3
 1568 0868 488D8540 		leaq	-448(%rbp), %rax
 1568      FEFFFF
 1569 086f 4889C7   		movq	%rax, %rdi
 1570              	.LEHB41:
 1571 0872 E867FFFF 		call	_ZN8UnitTest12_GLOBAL__N_172DeferredTestReporterFixtureReportTestStartCapturesTestNameAndSuit
 1571      FF
 1572              	.LEHE41:
 1573              	.LBE28:
 1574              		.loc 3 52 0
 1575 0877 E9690200 		jmp	.L83
 1575      00
 1576              	.L98:
 1577 087c 4989C4   		movq	%rax, %r12
 1578 087f 4889D3   		movq	%rdx, %rbx
 1579              	.LBB29:
 1580 0882 488D8540 		leaq	-448(%rbp), %rax
 1580      FEFFFF
 1581 0889 4889C7   		movq	%rax, %rdi
 1582 088c E84DFFFF 		call	_ZN8UnitTest12_GLOBAL__N_172DeferredTestReporterFixtureReportTestStartCapturesTestNameAndSuit
 1582      FF
 1583 0891 4C89E0   		movq	%r12, %rax
 1584 0894 4889DA   		movq	%rbx, %rdx
 1585 0897 EB00     		jmp	.L85
 1586              	.L97:
 1587              	.L85:
 1588 0899 4883FA01 		cmpq	$1, %rdx
 1589 089d 740F     		je	.L87
 1590 089f 4883FA02 		cmpq	$2, %rdx
 1591 08a3 0F84A700 		je	.L88
 1591      0000
 1592 08a9 E94A0100 		jmp	.L103
 1592      00
 1593              	.L87:
 1594              	.LBE29:
 1595              	.LBB30:
 1596 08ae 4889C7   		movq	%rax, %rdi
 1597 08b1 E8000000 		call	__cxa_begin_catch@PLT
 1597      00
 1598 08b6 48898518 		movq	%rax, -488(%rbp)
 1598      FEFFFF
 1599              	.LEHB42:
 1600 08bd E8000000 		call	_ZN8UnitTest11CurrentTest7ResultsEv@PLT
 1600      00
 1601 08c2 488B18   		movq	(%rax), %rbx
 1602 08c5 488B8518 		movq	-488(%rbp), %rax
 1602      FEFFFF
 1603 08cc 488B00   		movq	(%rax), %rax
 1604 08cf 4883C010 		addq	$16, %rax
 1605 08d3 488B00   		movq	(%rax), %rax
 1606 08d6 488B9518 		movq	-488(%rbp), %rdx
 1606      FEFFFF
 1607 08dd 4889D7   		movq	%rdx, %rdi
 1608 08e0 FFD0     		call	*%rax
 1609              	.LVL2:
 1610 08e2 4989C4   		movq	%rax, %r12
 1611 08e5 488B8518 		movq	-488(%rbp), %rax
 1611      FEFFFF
 1612 08ec 4889C7   		movq	%rax, %rdi
 1613 08ef E8000000 		call	_ZNK8UnitTest15AssertException10LineNumberEv@PLT
 1613      00
 1614              		.loc 3 52 0 discriminator 5
 1615 08f4 4189C5   		movl	%eax, %r13d
 1616 08f7 488B8518 		movq	-488(%rbp), %rax
 1616      FEFFFF
 1617 08fe 4889C7   		movq	%rax, %rdi
 1618 0901 E8000000 		call	_ZNK8UnitTest15AssertException8FilenameEv@PLT
 1618      00
 1619              		.loc 3 52 0 discriminator 7
 1620 0906 4889C1   		movq	%rax, %rcx
 1621 0909 488B85F8 		movq	-520(%rbp), %rax
 1621      FDFFFF
 1622 0910 488B5008 		movq	8(%rax), %rdx
 1623 0914 488B85F8 		movq	-520(%rbp), %rax
 1623      FDFFFF
 1624 091b 488B7010 		movq	16(%rax), %rsi
 1625 091f 488D8520 		leaq	-480(%rbp), %rax
 1625      FEFFFF
 1626 0926 4589E8   		movl	%r13d, %r8d
 1627 0929 4889C7   		movq	%rax, %rdi
 1628 092c E8000000 		call	_ZN8UnitTest11TestDetailsC1EPKcS2_S2_i@PLT
 1628      00
 1629              		.loc 3 52 0 discriminator 11
 1630 0931 488D8520 		leaq	-480(%rbp), %rax
 1630      FEFFFF
 1631 0938 4C89E2   		movq	%r12, %rdx
 1632 093b 4889C6   		movq	%rax, %rsi
 1633 093e 4889DF   		movq	%rbx, %rdi
 1634 0941 E8000000 		call	_ZN8UnitTest11TestResults13OnTestFailureERKNS_11TestDetailsEPKc@PLT
 1634      00
 1635              	.LEHE42:
 1636              		.loc 3 52 0 discriminator 13
 1637 0946 E8000000 		call	__cxa_end_catch@PLT
 1637      00
 1638              	.LBE30:
 1639 094b E9950100 		jmp	.L83
 1639      00
 1640              	.L88:
 1641              	.LBB31:
 1642              		.loc 3 52 0
 1643 0950 4889C7   		movq	%rax, %rdi
 1644 0953 E8000000 		call	__cxa_begin_catch@PLT
 1644      00
 1645 0958 48898510 		movq	%rax, -496(%rbp)
 1645      FEFFFF
 1646              	.LBB32:
 1647 095f 488D8540 		leaq	-448(%rbp), %rax
 1647      FEFFFF
 1648 0966 4889C7   		movq	%rax, %rdi
 1649              	.LEHB43:
 1650 0969 E8000000 		call	_ZN8UnitTest15MemoryOutStreamC1Ev
 1650      00
 1651              	.LEHE43:
 1652              		.loc 3 52 0 discriminator 15
 1653 096e 488D8540 		leaq	-448(%rbp), %rax
 1653      FEFFFF
 1654 0975 488D3500 		leaq	.LC6(%rip), %rsi
 1654      000000
 1655 097c 4889C7   		movq	%rax, %rdi
 1656              	.LEHB44:
 1657 097f E8000000 		call	_ZStlsISt11char_traitsIcEERSt13basic_ostreamIcT_ES5_PKc@PLT
 1657      00
 1658 0984 4889C3   		movq	%rax, %rbx
 1659 0987 488B8510 		movq	-496(%rbp), %rax
 1659      FEFFFF
 1660 098e 488B00   		movq	(%rax), %rax
 1661 0991 4883C010 		addq	$16, %rax
 1662 0995 488B00   		movq	(%rax), %rax
 1663 0998 488B9510 		movq	-496(%rbp), %rdx
 1663      FEFFFF
 1664 099f 4889D7   		movq	%rdx, %rdi
 1665 09a2 FFD0     		call	*%rax
 1666              	.LVL3:
 1667 09a4 4889C6   		movq	%rax, %rsi
 1668 09a7 4889DF   		movq	%rbx, %rdi
 1669 09aa E8000000 		call	_ZStlsISt11char_traitsIcEERSt13basic_ostreamIcT_ES5_PKc@PLT
 1669      00
 1670              		.loc 3 52 0 discriminator 19
 1671 09af E8000000 		call	_ZN8UnitTest11CurrentTest7ResultsEv@PLT
 1671      00
 1672 09b4 488B18   		movq	(%rax), %rbx
 1673 09b7 488D8540 		leaq	-448(%rbp), %rax
 1673      FEFFFF
 1674 09be 4889C7   		movq	%rax, %rdi
 1675 09c1 E8000000 		call	_ZNK8UnitTest15MemoryOutStream7GetTextEv@PLT
 1675      00
 1676              		.loc 3 52 0 discriminator 21
 1677 09c6 4889C2   		movq	%rax, %rdx
 1678 09c9 488B85F8 		movq	-520(%rbp), %rax
 1678      FDFFFF
 1679 09d0 4883C008 		addq	$8, %rax
 1680 09d4 4889C6   		movq	%rax, %rsi
 1681 09d7 4889DF   		movq	%rbx, %rdi
 1682 09da E8000000 		call	_ZN8UnitTest11TestResults13OnTestFailureERKNS_11TestDetailsEPKc@PLT
 1682      00
 1683              	.LEHE44:
 1684              		.loc 3 52 0 discriminator 25
 1685 09df 488D8540 		leaq	-448(%rbp), %rax
 1685      FEFFFF
 1686 09e6 4889C7   		movq	%rax, %rdi
 1687              	.LEHB45:
 1688 09e9 E8000000 		call	_ZN8UnitTest15MemoryOutStreamD1Ev
 1688      00
 1689              	.LEHE45:
 1690              	.LBE32:
 1691              		.loc 3 52 0 discriminator 26
 1692 09ee E8000000 		call	__cxa_end_catch@PLT
 1692      00
 1693              	.LBE31:
 1694 09f3 E9ED0000 		jmp	.L83
 1694      00
 1695              	.L103:
 1696              		.loc 3 52 0
 1697 09f8 4889C7   		movq	%rax, %rdi
 1698 09fb E8000000 		call	__cxa_begin_catch@PLT
 1698      00
 1699 0a00 80BD0FFE 		cmpb	$0, -497(%rbp)
 1699      FFFF00
 1700 0a07 7445     		je	.L90
 1701              	.LEHB46:
 1702              		.loc 3 52 0 discriminator 28
 1703 0a09 E8000000 		call	_ZN8UnitTest11CurrentTest7ResultsEv@PLT
 1703      00
 1704 0a0e 488B18   		movq	(%rax), %rbx
 1705 0a11 488B85F8 		movq	-520(%rbp), %rax
 1705      FDFFFF
 1706 0a18 488D4808 		leaq	8(%rax), %rcx
 1707 0a1c 488D8520 		leaq	-480(%rbp), %rax
 1707      FEFFFF
 1708 0a23 BA340000 		movl	$52, %edx
 1708      00
 1709 0a28 4889CE   		movq	%rcx, %rsi
 1710 0a2b 4889C7   		movq	%rax, %rdi
 1711 0a2e E8000000 		call	_ZN8UnitTest11TestDetailsC1ERKS0_i@PLT
 1711      00
 1712              		.loc 3 52 0 discriminator 33
 1713 0a33 488D8520 		leaq	-480(%rbp), %rax
 1713      FEFFFF
 1714 0a3a 488D1500 		leaq	.LC7(%rip), %rdx
 1714      000000
 1715 0a41 4889C6   		movq	%rax, %rsi
 1716 0a44 4889DF   		movq	%rbx, %rdi
 1717 0a47 E8000000 		call	_ZN8UnitTest11TestResults13OnTestFailureERKNS_11TestDetailsEPKc@PLT
 1717      00
 1718 0a4c EB43     		jmp	.L91
 1719              	.L90:
 1720              		.loc 3 52 0 discriminator 29
 1721 0a4e E8000000 		call	_ZN8UnitTest11CurrentTest7ResultsEv@PLT
 1721      00
 1722 0a53 488B18   		movq	(%rax), %rbx
 1723 0a56 488B85F8 		movq	-520(%rbp), %rax
 1723      FDFFFF
 1724 0a5d 488D4808 		leaq	8(%rax), %rcx
 1725 0a61 488D8520 		leaq	-480(%rbp), %rax
 1725      FEFFFF
 1726 0a68 BA340000 		movl	$52, %edx
 1726      00
 1727 0a6d 4889CE   		movq	%rcx, %rsi
 1728 0a70 4889C7   		movq	%rax, %rdi
 1729 0a73 E8000000 		call	_ZN8UnitTest11TestDetailsC1ERKS0_i@PLT
 1729      00
 1730              		.loc 3 52 0 discriminator 40
 1731 0a78 488D8520 		leaq	-480(%rbp), %rax
 1731      FEFFFF
 1732 0a7f 488D1500 		leaq	.LC8(%rip), %rdx
 1732      000000
 1733 0a86 4889C6   		movq	%rax, %rsi
 1734 0a89 4889DF   		movq	%rbx, %rdi
 1735 0a8c E8000000 		call	_ZN8UnitTest11TestResults13OnTestFailureERKNS_11TestDetailsEPKc@PLT
 1735      00
 1736              	.LEHE46:
 1737              	.L91:
 1738              	.LEHB47:
 1739              		.loc 3 52 0 discriminator 43
 1740 0a91 E8000000 		call	__cxa_end_catch@PLT
 1740      00
 1741 0a96 EB4D     		jmp	.L83
 1742              	.L99:
 1743 0a98 4889C3   		movq	%rax, %rbx
 1744              	.LBB34:
 1745              		.loc 3 52 0
 1746 0a9b E8000000 		call	__cxa_end_catch@PLT
 1746      00
 1747 0aa0 4889D8   		movq	%rbx, %rax
 1748 0aa3 4889C7   		movq	%rax, %rdi
 1749 0aa6 E8000000 		call	_Unwind_Resume@PLT
 1749      00
 1750              	.LEHE47:
 1751              	.L101:
 1752 0aab 4889C3   		movq	%rax, %rbx
 1753              	.LBE34:
 1754              	.LBB35:
 1755              	.LBB33:
 1756 0aae 488D8540 		leaq	-448(%rbp), %rax
 1756      FEFFFF
 1757 0ab5 4889C7   		movq	%rax, %rdi
 1758 0ab8 E8000000 		call	_ZN8UnitTest15MemoryOutStreamD1Ev
 1758      00
 1759 0abd EB03     		jmp	.L94
 1760              	.L100:
 1761 0abf 4889C3   		movq	%rax, %rbx
 1762              	.L94:
 1763              	.LBE33:
 1764 0ac2 E8000000 		call	__cxa_end_catch@PLT
 1764      00
 1765 0ac7 4889D8   		movq	%rbx, %rax
 1766 0aca 4889C7   		movq	%rax, %rdi
 1767              	.LEHB48:
 1768 0acd E8000000 		call	_Unwind_Resume@PLT
 1768      00
 1769              	.LEHE48:
 1770              	.L102:
 1771 0ad2 4889C3   		movq	%rax, %rbx
 1772              	.LBE35:
 1773 0ad5 E8000000 		call	__cxa_end_catch@PLT
 1773      00
 1774 0ada 4889D8   		movq	%rbx, %rax
 1775 0add 4889C7   		movq	%rax, %rdi
 1776              	.LEHB49:
 1777 0ae0 E8000000 		call	_Unwind_Resume@PLT
 1777      00
 1778              	.LEHE49:
 1779              	.L83:
 1780 0ae5 488B45D8 		movq	-40(%rbp), %rax
 1781 0ae9 64483304 		xorq	%fs:40, %rax
 1781      25280000 
 1781      00
 1782 0af2 7405     		je	.L96
 1783 0af4 E8000000 		call	__stack_chk_fail@PLT
 1783      00
 1784              	.L96:
 1785 0af9 4881C4F8 		addq	$504, %rsp
 1785      010000
 1786 0b00 5B       		popq	%rbx
 1787 0b01 415C     		popq	%r12
 1788 0b03 415D     		popq	%r13
 1789 0b05 5D       		popq	%rbp
 1790              		.cfi_def_cfa 7, 8
 1791 0b06 C3       		ret
 1792              		.cfi_endproc
 1793              	.LFE1392:
 1794              		.section	.gcc_except_table
 1795              		.align 4
 1796              	.LLSDA1392:
 1797 00c4 FF       		.byte	0xff
 1798 00c5 9B       		.byte	0x9b
 1799 00c6 55       		.uleb128 .LLSDATT1392-.LLSDATTD1392
 1800              	.LLSDATTD1392:
 1801 00c7 01       		.byte	0x1
 1802 00c8 3E       		.uleb128 .LLSDACSE1392-.LLSDACSB1392
 1803              	.LLSDACSB1392:
 1804 00c9 45       		.uleb128 .LEHB39-.LFB1392
 1805 00ca 05       		.uleb128 .LEHE39-.LEHB39
 1806 00cb 9F01     		.uleb128 .L97-.LFB1392
 1807 00cd 05       		.uleb128 0x5
 1808 00ce 69       		.uleb128 .LEHB40-.LFB1392
 1809 00cf 05       		.uleb128 .LEHE40-.LEHB40
 1810 00d0 8201     		.uleb128 .L98-.LFB1392
 1811 00d2 07       		.uleb128 0x7
 1812 00d3 78       		.uleb128 .LEHB41-.LFB1392
 1813 00d4 05       		.uleb128 .LEHE41-.LEHB41
 1814 00d5 9F01     		.uleb128 .L97-.LFB1392
 1815 00d7 05       		.uleb128 0x5
 1816 00d8 C301     		.uleb128 .LEHB42-.LFB1392
 1817 00da 8901     		.uleb128 .LEHE42-.LEHB42
 1818 00dc 9E05     		.uleb128 .L99-.LFB1392
 1819 00de 00       		.uleb128 0
 1820 00df EF02     		.uleb128 .LEHB43-.LFB1392
 1821 00e1 05       		.uleb128 .LEHE43-.LEHB43
 1822 00e2 C505     		.uleb128 .L100-.LFB1392
 1823 00e4 00       		.uleb128 0
 1824 00e5 8503     		.uleb128 .LEHB44-.LFB1392
 1825 00e7 60       		.uleb128 .LEHE44-.LEHB44
 1826 00e8 B105     		.uleb128 .L101-.LFB1392
 1827 00ea 00       		.uleb128 0
 1828 00eb EF03     		.uleb128 .LEHB45-.LFB1392
 1829 00ed 05       		.uleb128 .LEHE45-.LEHB45
 1830 00ee C505     		.uleb128 .L100-.LFB1392
 1831 00f0 00       		.uleb128 0
 1832 00f1 8F04     		.uleb128 .LEHB46-.LFB1392
 1833 00f3 8801     		.uleb128 .LEHE46-.LEHB46
 1834 00f5 D805     		.uleb128 .L102-.LFB1392
 1835 00f7 00       		.uleb128 0
 1836 00f8 9705     		.uleb128 .LEHB47-.LFB1392
 1837 00fa 1A       		.uleb128 .LEHE47-.LEHB47
 1838 00fb 00       		.uleb128 0
 1839 00fc 00       		.uleb128 0
 1840 00fd D305     		.uleb128 .LEHB48-.LFB1392
 1841 00ff 05       		.uleb128 .LEHE48-.LEHB48
 1842 0100 00       		.uleb128 0
 1843 0101 00       		.uleb128 0
 1844 0102 E605     		.uleb128 .LEHB49-.LFB1392
 1845 0104 05       		.uleb128 .LEHE49-.LEHB49
 1846 0105 00       		.uleb128 0
 1847 0106 00       		.uleb128 0
 1848              	.LLSDACSE1392:
 1849 0107 03       		.byte	0x3
 1850 0108 00       		.byte	0
 1851 0109 02       		.byte	0x2
 1852 010a 7D       		.byte	0x7d
 1853 010b 01       		.byte	0x1
 1854 010c 7D       		.byte	0x7d
 1855 010d 00       		.byte	0
 1856 010e 7D       		.byte	0x7d
 1857 010f 00       		.align 4
 1858 0110 00000000 		.long	0
 1859              	
 1860 0114 00000000 		.long	DW.ref._ZTISt9exception-.
 1861 0118 00000000 		.long	DW.ref._ZTIN8UnitTest15AssertExceptionE-.
 1862              	.LLSDATT1392:
 1863              		.text
 1865              		.section	.rodata
 1866              		.align 8
 1867              	.LC11:
 1868 01b0 556E6861 		.string	"Unhandled exception in CHECK_EQUAL(testName.c_str(), result.testName)"
 1868      6E646C65 
 1868      64206578 
 1868      63657074 
 1868      696F6E20 
 1869 01f6 0000     		.align 8
 1870              	.LC12:
 1871 01f8 556E6861 		.string	"Unhandled exception in CHECK_EQUAL(testSuite.c_str(), result.suiteName)"
 1871      6E646C65 
 1871      64206578 
 1871      63657074 
 1871      696F6E20 
 1872              		.text
 1873 0b07 90       		.align 2
 1875              	_ZN8UnitTest12_GLOBAL__N_172DeferredTestReporterFixtureReportTestStartCapturesTestNameAndSuiteHelpe
 1876              	.LFB1396:
  53:TestDeferredTestReporter.cpp **** {
 1877              		.loc 3 53 0 is_stmt 1
 1878              		.cfi_startproc
 1879              		.cfi_personality 0x9b,DW.ref.__gxx_personality_v0
 1880              		.cfi_lsda 0x1b,.LLSDA1396
 1881 0b08 55       		pushq	%rbp
 1882              		.cfi_def_cfa_offset 16
 1883              		.cfi_offset 6, -16
 1884 0b09 4889E5   		movq	%rsp, %rbp
 1885              		.cfi_def_cfa_register 6
 1886 0b0c 53       		pushq	%rbx
 1887 0b0d 4883EC58 		subq	$88, %rsp
 1888              		.cfi_offset 3, -24
 1889 0b11 48897DA8 		movq	%rdi, -88(%rbp)
 1890              		.loc 3 53 0
 1891 0b15 64488B04 		movq	%fs:40, %rax
 1891      25280000 
 1891      00
 1892 0b1e 488945E8 		movq	%rax, -24(%rbp)
 1893 0b22 31C0     		xorl	%eax, %eax
  54:TestDeferredTestReporter.cpp ****     reporter.ReportTestStart(details);
 1894              		.loc 3 54 0
 1895 0b24 488B45A8 		movq	-88(%rbp), %rax
 1896 0b28 488B55A8 		movq	-88(%rbp), %rdx
 1897 0b2c 4881C288 		addq	$136, %rdx
 1897      000000
 1898 0b33 4889D6   		movq	%rdx, %rsi
 1899 0b36 4889C7   		movq	%rax, %rdi
 1900              	.LEHB50:
 1901 0b39 E8000000 		call	_ZN8UnitTest20DeferredTestReporter15ReportTestStartERKNS_11TestDetailsE@PLT
 1901      00
  55:TestDeferredTestReporter.cpp **** 
  56:TestDeferredTestReporter.cpp ****     DeferredTestResult const& result = reporter.GetResults().at(0);
 1902              		.loc 3 56 0
 1903 0b3e 488B45A8 		movq	-88(%rbp), %rax
 1904 0b42 4889C7   		movq	%rax, %rdi
 1905 0b45 E8000000 		call	_ZN8UnitTest20DeferredTestReporter10GetResultsEv@PLT
 1905      00
 1906 0b4a BE000000 		movl	$0, %esi
 1906      00
 1907 0b4f 4889C7   		movq	%rax, %rdi
 1908 0b52 E8000000 		call	_ZNSt6vectorIN8UnitTest18DeferredTestResultESaIS1_EE2atEm
 1908      00
 1909              	.LEHE50:
 1910 0b57 488945B8 		movq	%rax, -72(%rbp)
 1911              	.LEHB51:
  57:TestDeferredTestReporter.cpp ****     CHECK_EQUAL(testName.c_str(), result.testName);
 1912              		.loc 3 57 0
 1913 0b5b E8000000 		call	_ZN8UnitTest11CurrentTest7DetailsEv@PLT
 1913      00
 1914 0b60 488B08   		movq	(%rax), %rcx
 1915 0b63 488D45C0 		leaq	-64(%rbp), %rax
 1916 0b67 BA390000 		movl	$57, %edx
 1916      00
 1917 0b6c 4889CE   		movq	%rcx, %rsi
 1918 0b6f 4889C7   		movq	%rax, %rdi
 1919 0b72 E8000000 		call	_ZN8UnitTest11TestDetailsC1ERKS0_i@PLT
 1919      00
 1920              		.loc 3 57 0 is_stmt 0 discriminator 2
 1921 0b77 488B45B8 		movq	-72(%rbp), %rax
 1922 0b7b 488D5820 		leaq	32(%rax), %rbx
 1923 0b7f 488B45A8 		movq	-88(%rbp), %rax
 1924 0b83 4883C020 		addq	$32, %rax
 1925 0b87 4889C7   		movq	%rax, %rdi
 1926 0b8a E8000000 		call	_ZNKSt7__cxx1112basic_stringIcSt11char_traitsIcESaIcEE5c_strEv@PLT
 1926      00
 1927 0b8f 488945B0 		movq	%rax, -80(%rbp)
 1928 0b93 E8000000 		call	_ZN8UnitTest11CurrentTest7ResultsEv@PLT
 1928      00
 1929              		.loc 3 57 0 discriminator 4
 1930 0b98 488B00   		movq	(%rax), %rax
 1931 0b9b 488D55C0 		leaq	-64(%rbp), %rdx
 1932 0b9f 488D75B0 		leaq	-80(%rbp), %rsi
 1933 0ba3 4889D1   		movq	%rdx, %rcx
 1934 0ba6 4889DA   		movq	%rbx, %rdx
 1935 0ba9 4889C7   		movq	%rax, %rdi
 1936 0bac E8000000 		call	_ZN8UnitTest10CheckEqualIPKcNSt7__cxx1112basic_stringIcSt11char_traitsIcESaIcEEEEEvRNS_11Test
 1936      00
 1937              	.LEHE51:
 1938              	.L106:
 1939              	.LEHB52:
  58:TestDeferredTestReporter.cpp ****     CHECK_EQUAL(testSuite.c_str(), result.suiteName);
 1940              		.loc 3 58 0 is_stmt 1
 1941 0bb1 E8000000 		call	_ZN8UnitTest11CurrentTest7DetailsEv@PLT
 1941      00
 1942 0bb6 488B08   		movq	(%rax), %rcx
 1943 0bb9 488D45C0 		leaq	-64(%rbp), %rax
 1944 0bbd BA3A0000 		movl	$58, %edx
 1944      00
 1945 0bc2 4889CE   		movq	%rcx, %rsi
 1946 0bc5 4889C7   		movq	%rax, %rdi
 1947 0bc8 E8000000 		call	_ZN8UnitTest11TestDetailsC1ERKS0_i@PLT
 1947      00
 1948              		.loc 3 58 0 is_stmt 0 discriminator 2
 1949 0bcd 488B5DB8 		movq	-72(%rbp), %rbx
 1950 0bd1 488B45A8 		movq	-88(%rbp), %rax
 1951 0bd5 4883C040 		addq	$64, %rax
 1952 0bd9 4889C7   		movq	%rax, %rdi
 1953 0bdc E8000000 		call	_ZNKSt7__cxx1112basic_stringIcSt11char_traitsIcESaIcEE5c_strEv@PLT
 1953      00
 1954 0be1 488945B0 		movq	%rax, -80(%rbp)
 1955 0be5 E8000000 		call	_ZN8UnitTest11CurrentTest7ResultsEv@PLT
 1955      00
 1956              		.loc 3 58 0 discriminator 4
 1957 0bea 488B00   		movq	(%rax), %rax
 1958 0bed 488D55C0 		leaq	-64(%rbp), %rdx
 1959 0bf1 488D75B0 		leaq	-80(%rbp), %rsi
 1960 0bf5 4889D1   		movq	%rdx, %rcx
 1961 0bf8 4889DA   		movq	%rbx, %rdx
 1962 0bfb 4889C7   		movq	%rax, %rdi
 1963 0bfe E8000000 		call	_ZN8UnitTest10CheckEqualIPKcNSt7__cxx1112basic_stringIcSt11char_traitsIcESaIcEEEEEvRNS_11Test
 1963      00
 1964              	.LEHE52:
  59:TestDeferredTestReporter.cpp **** }
 1965              		.loc 3 59 0 is_stmt 1
 1966 0c03 E9BB0000 		jmp	.L104
 1966      00
 1967              	.L112:
  57:TestDeferredTestReporter.cpp ****     CHECK_EQUAL(testName.c_str(), result.testName);
 1968              		.loc 3 57 0
 1969 0c08 4889C7   		movq	%rax, %rdi
 1970 0c0b E8000000 		call	__cxa_begin_catch@PLT
 1970      00
 1971              	.LEHB53:
 1972 0c10 E8000000 		call	_ZN8UnitTest11CurrentTest7ResultsEv@PLT
 1972      00
 1973 0c15 488B18   		movq	(%rax), %rbx
 1974 0c18 E8000000 		call	_ZN8UnitTest11CurrentTest7DetailsEv@PLT
 1974      00
  57:TestDeferredTestReporter.cpp ****     CHECK_EQUAL(testName.c_str(), result.testName);
 1975              		.loc 3 57 0 is_stmt 0 discriminator 10
 1976 0c1d 488B08   		movq	(%rax), %rcx
 1977 0c20 488D45C0 		leaq	-64(%rbp), %rax
 1978 0c24 BA390000 		movl	$57, %edx
 1978      00
 1979 0c29 4889CE   		movq	%rcx, %rsi
 1980 0c2c 4889C7   		movq	%rax, %rdi
 1981 0c2f E8000000 		call	_ZN8UnitTest11TestDetailsC1ERKS0_i@PLT
 1981      00
  57:TestDeferredTestReporter.cpp ****     CHECK_EQUAL(testName.c_str(), result.testName);
 1982              		.loc 3 57 0 discriminator 14
 1983 0c34 488D45C0 		leaq	-64(%rbp), %rax
 1984 0c38 488D1500 		leaq	.LC11(%rip), %rdx
 1984      000000
 1985 0c3f 4889C6   		movq	%rax, %rsi
 1986 0c42 4889DF   		movq	%rbx, %rdi
 1987 0c45 E8000000 		call	_ZN8UnitTest11TestResults13OnTestFailureERKNS_11TestDetailsEPKc@PLT
 1987      00
 1988              	.LEHE53:
 1989              	.LEHB54:
  57:TestDeferredTestReporter.cpp ****     CHECK_EQUAL(testName.c_str(), result.testName);
 1990              		.loc 3 57 0 discriminator 16
 1991 0c4a E8000000 		call	__cxa_end_catch@PLT
 1991      00
 1992              	.LEHE54:
 1993 0c4f E95DFFFF 		jmp	.L106
 1993      FF
 1994              	.L113:
 1995 0c54 4889C3   		movq	%rax, %rbx
  57:TestDeferredTestReporter.cpp ****     CHECK_EQUAL(testName.c_str(), result.testName);
 1996              		.loc 3 57 0
 1997 0c57 E8000000 		call	__cxa_end_catch@PLT
 1997      00
 1998 0c5c 4889D8   		movq	%rbx, %rax
 1999 0c5f 4889C7   		movq	%rax, %rdi
 2000              	.LEHB55:
 2001 0c62 E8000000 		call	_Unwind_Resume@PLT
 2001      00
 2002              	.LEHE55:
 2003              	.L114:
  58:TestDeferredTestReporter.cpp ****     CHECK_EQUAL(testSuite.c_str(), result.suiteName);
 2004              		.loc 3 58 0 is_stmt 1
 2005 0c67 4889C7   		movq	%rax, %rdi
 2006 0c6a E8000000 		call	__cxa_begin_catch@PLT
 2006      00
 2007              	.LEHB56:
 2008 0c6f E8000000 		call	_ZN8UnitTest11CurrentTest7ResultsEv@PLT
 2008      00
 2009 0c74 488B18   		movq	(%rax), %rbx
 2010 0c77 E8000000 		call	_ZN8UnitTest11CurrentTest7DetailsEv@PLT
 2010      00
  58:TestDeferredTestReporter.cpp ****     CHECK_EQUAL(testSuite.c_str(), result.suiteName);
 2011              		.loc 3 58 0 is_stmt 0 discriminator 10
 2012 0c7c 488B08   		movq	(%rax), %rcx
 2013 0c7f 488D45C0 		leaq	-64(%rbp), %rax
 2014 0c83 BA3A0000 		movl	$58, %edx
 2014      00
 2015 0c88 4889CE   		movq	%rcx, %rsi
 2016 0c8b 4889C7   		movq	%rax, %rdi
 2017 0c8e E8000000 		call	_ZN8UnitTest11TestDetailsC1ERKS0_i@PLT
 2017      00
  58:TestDeferredTestReporter.cpp ****     CHECK_EQUAL(testSuite.c_str(), result.suiteName);
 2018              		.loc 3 58 0 discriminator 14
 2019 0c93 488D45C0 		leaq	-64(%rbp), %rax
 2020 0c97 488D1500 		leaq	.LC12(%rip), %rdx
 2020      000000
 2021 0c9e 4889C6   		movq	%rax, %rsi
 2022 0ca1 4889DF   		movq	%rbx, %rdi
 2023 0ca4 E8000000 		call	_ZN8UnitTest11TestResults13OnTestFailureERKNS_11TestDetailsEPKc@PLT
 2023      00
 2024              	.LEHE56:
 2025              	.LEHB57:
  58:TestDeferredTestReporter.cpp ****     CHECK_EQUAL(testSuite.c_str(), result.suiteName);
 2026              		.loc 3 58 0 discriminator 16
 2027 0ca9 E8000000 		call	__cxa_end_catch@PLT
 2027      00
 2028              	.LEHE57:
 2029              		.loc 3 59 0 is_stmt 1 discriminator 16
 2030 0cae EB13     		jmp	.L104
 2031              	.L115:
 2032 0cb0 4889C3   		movq	%rax, %rbx
  58:TestDeferredTestReporter.cpp ****     CHECK_EQUAL(testSuite.c_str(), result.suiteName);
 2033              		.loc 3 58 0
 2034 0cb3 E8000000 		call	__cxa_end_catch@PLT
 2034      00
 2035 0cb8 4889D8   		movq	%rbx, %rax
 2036 0cbb 4889C7   		movq	%rax, %rdi
 2037              	.LEHB58:
 2038 0cbe E8000000 		call	_Unwind_Resume@PLT
 2038      00
 2039              	.LEHE58:
 2040              	.L104:
 2041              		.loc 3 59 0
 2042 0cc3 488B45E8 		movq	-24(%rbp), %rax
 2043 0cc7 64483304 		xorq	%fs:40, %rax
 2043      25280000 
 2043      00
 2044 0cd0 7405     		je	.L111
 2045 0cd2 E8000000 		call	__stack_chk_fail@PLT
 2045      00
 2046              	.L111:
 2047 0cd7 4883C458 		addq	$88, %rsp
 2048 0cdb 5B       		popq	%rbx
 2049 0cdc 5D       		popq	%rbp
 2050              		.cfi_def_cfa 7, 8
 2051 0cdd C3       		ret
 2052              		.cfi_endproc
 2053              	.LFE1396:
 2054              		.section	.gcc_except_table
 2055              		.align 4
 2056              	.LLSDA1396:
 2057 011c FF       		.byte	0xff
 2058 011d 9B       		.byte	0x9b
 2059 011e 39       		.uleb128 .LLSDATT1396-.LLSDATTD1396
 2060              	.LLSDATTD1396:
 2061 011f 01       		.byte	0x1
 2062 0120 2F       		.uleb128 .LLSDACSE1396-.LLSDACSB1396
 2063              	.LLSDACSB1396:
 2064 0121 31       		.uleb128 .LEHB50-.LFB1396
 2065 0122 1E       		.uleb128 .LEHE50-.LEHB50
 2066 0123 00       		.uleb128 0
 2067 0124 00       		.uleb128 0
 2068 0125 53       		.uleb128 .LEHB51-.LFB1396
 2069 0126 56       		.uleb128 .LEHE51-.LEHB51
 2070 0127 8002     		.uleb128 .L112-.LFB1396
 2071 0129 01       		.uleb128 0x1
 2072 012a A901     		.uleb128 .LEHB52-.LFB1396
 2073 012c 52       		.uleb128 .LEHE52-.LEHB52
 2074 012d DF02     		.uleb128 .L114-.LFB1396
 2075 012f 01       		.uleb128 0x1
 2076 0130 8802     		.uleb128 .LEHB53-.LFB1396
 2077 0132 3A       		.uleb128 .LEHE53-.LEHB53
 2078 0133 CC02     		.uleb128 .L113-.LFB1396
 2079 0135 00       		.uleb128 0
 2080 0136 C202     		.uleb128 .LEHB54-.LFB1396
 2081 0138 05       		.uleb128 .LEHE54-.LEHB54
 2082 0139 00       		.uleb128 0
 2083 013a 00       		.uleb128 0
 2084 013b DA02     		.uleb128 .LEHB55-.LFB1396
 2085 013d 05       		.uleb128 .LEHE55-.LEHB55
 2086 013e 00       		.uleb128 0
 2087 013f 00       		.uleb128 0
 2088 0140 E702     		.uleb128 .LEHB56-.LFB1396
 2089 0142 3A       		.uleb128 .LEHE56-.LEHB56
 2090 0143 A803     		.uleb128 .L115-.LFB1396
 2091 0145 00       		.uleb128 0
 2092 0146 A103     		.uleb128 .LEHB57-.LFB1396
 2093 0148 05       		.uleb128 .LEHE57-.LEHB57
 2094 0149 00       		.uleb128 0
 2095 014a 00       		.uleb128 0
 2096 014b B603     		.uleb128 .LEHB58-.LFB1396
 2097 014d 05       		.uleb128 .LEHE58-.LEHB58
 2098 014e 00       		.uleb128 0
 2099 014f 00       		.uleb128 0
 2100              	.LLSDACSE1396:
 2101 0150 01       		.byte	0x1
 2102 0151 00       		.byte	0
 2103 0152 0000     		.align 4
 2104 0154 00000000 		.long	0
 2105              	
 2106              	.LLSDATT1396:
 2107              		.text
 2109              		.align 2
 2111              	_ZN8UnitTest12_GLOBAL__N_162DeferredTestReporterFixtureReportTestEndCapturesTestTimeHelperC2ERKNS_1
 2112              	.LFB1398:
  60:TestDeferredTestReporter.cpp **** 
  61:TestDeferredTestReporter.cpp **** TEST_FIXTURE(DeferredTestReporterFixture, ReportTestEndCapturesTestTime)
 2113              		.loc 3 61 0
 2114              		.cfi_startproc
 2115 0cde 55       		pushq	%rbp
 2116              		.cfi_def_cfa_offset 16
 2117              		.cfi_offset 6, -16
 2118 0cdf 4889E5   		movq	%rsp, %rbp
 2119              		.cfi_def_cfa_register 6
 2120 0ce2 4883EC10 		subq	$16, %rsp
 2121 0ce6 48897DF8 		movq	%rdi, -8(%rbp)
 2122 0cea 488975F0 		movq	%rsi, -16(%rbp)
 2123              	.LBB36:
 2124              		.loc 3 61 0
 2125 0cee 488B45F8 		movq	-8(%rbp), %rax
 2126 0cf2 4889C7   		movq	%rax, %rdi
 2127 0cf5 E84AF3FF 		call	_ZN8UnitTest12_GLOBAL__N_127DeferredTestReporterFixtureC2Ev
 2127      FF
 2128 0cfa 488B45F8 		movq	-8(%rbp), %rax
 2129 0cfe 488B55F0 		movq	-16(%rbp), %rdx
 2130 0d02 488990A8 		movq	%rdx, 168(%rax)
 2130      000000
 2131              	.LBE36:
 2132 0d09 90       		nop
 2133 0d0a C9       		leave
 2134              		.cfi_def_cfa 7, 8
 2135 0d0b C3       		ret
 2136              		.cfi_endproc
 2137              	.LFE1398:
 2139              		.set	_ZN8UnitTest12_GLOBAL__N_162DeferredTestReporterFixtureReportTestEndCapturesTestTimeHelperC1E
 2140              		.section	.rodata
 2141              	.LC13:
 2142 0240 5265706F 		.string	"ReportTestEndCapturesTestTime"
 2142      72745465 
 2142      7374456E 
 2142      64436170 
 2142      74757265 
 2143              		.text
 2144              		.align 2
 2146              	_ZN8UnitTest12_GLOBAL__N_160TestDeferredTestReporterFixtureReportTestEndCapturesTestTimeC2Ev:
 2147              	.LFB1401:
 2148              		.loc 3 61 0
 2149              		.cfi_startproc
 2150 0d0c 55       		pushq	%rbp
 2151              		.cfi_def_cfa_offset 16
 2152              		.cfi_offset 6, -16
 2153 0d0d 4889E5   		movq	%rsp, %rbp
 2154              		.cfi_def_cfa_register 6
 2155 0d10 53       		pushq	%rbx
 2156 0d11 4883EC18 		subq	$24, %rsp
 2157              		.cfi_offset 3, -24
 2158 0d15 48897DE8 		movq	%rdi, -24(%rbp)
 2159              	.LBB37:
 2160              		.loc 3 61 0
 2161 0d19 488B5DE8 		movq	-24(%rbp), %rbx
 2162 0d1d E8000000 		call	_ZN13UnitTestSuite12GetSuiteNameEv
 2162      00
 2163 0d22 41B83D00 		movl	$61, %r8d
 2163      0000
 2164 0d28 488D0D00 		leaq	.LC4(%rip), %rcx
 2164      000000
 2165 0d2f 4889C2   		movq	%rax, %rdx
 2166 0d32 488D3500 		leaq	.LC13(%rip), %rsi
 2166      000000
 2167 0d39 4889DF   		movq	%rbx, %rdi
 2168 0d3c E8000000 		call	_ZN8UnitTest4TestC2EPKcS2_S2_i@PLT
 2168      00
 2169 0d41 488D1500 		leaq	16+_ZTVN8UnitTest12_GLOBAL__N_160TestDeferredTestReporterFixtureReportTestEndCapturesTestTime
 2169      000000
 2170 0d48 488B45E8 		movq	-24(%rbp), %rax
 2171 0d4c 488910   		movq	%rdx, (%rax)
 2172              	.LBE37:
 2173 0d4f 90       		nop
 2174 0d50 4883C418 		addq	$24, %rsp
 2175 0d54 5B       		popq	%rbx
 2176 0d55 5D       		popq	%rbp
 2177              		.cfi_def_cfa 7, 8
 2178 0d56 C3       		ret
 2179              		.cfi_endproc
 2180              	.LFE1401:
 2182              		.set	_ZN8UnitTest12_GLOBAL__N_160TestDeferredTestReporterFixtureReportTestEndCapturesTestTimeC1Ev,
 2183              		.local	_ZN8UnitTest12_GLOBAL__N_168testDeferredTestReporterFixtureReportTestEndCapturesTestTimeIns
 2184              		.comm	_ZN8UnitTest12_GLOBAL__N_168testDeferredTestReporterFixtureReportTestEndCapturesTestTimeInst
 2185              		.local	_ZN8UnitTest12_GLOBAL__N_161adderDeferredTestReporterFixtureReportTestEndCapturesTestTimeE
 2186              		.comm	_ZN8UnitTest12_GLOBAL__N_161adderDeferredTestReporterFixtureReportTestEndCapturesTestTimeE,1
 2187 0d57 90       		.align 2
 2189              	_ZN8UnitTest12_GLOBAL__N_162DeferredTestReporterFixtureReportTestEndCapturesTestTimeHelperD2Ev:
 2190              	.LFB1405:
 2191              		.loc 3 61 0
 2192              		.cfi_startproc
 2193 0d58 55       		pushq	%rbp
 2194              		.cfi_def_cfa_offset 16
 2195              		.cfi_offset 6, -16
 2196 0d59 4889E5   		movq	%rsp, %rbp
 2197              		.cfi_def_cfa_register 6
 2198 0d5c 4883EC10 		subq	$16, %rsp
 2199 0d60 48897DF8 		movq	%rdi, -8(%rbp)
 2200              	.LBB38:
 2201              		.loc 3 61 0
 2202 0d64 488B45F8 		movq	-8(%rbp), %rax
 2203 0d68 4889C7   		movq	%rax, %rdi
 2204 0d6b E8B2F4FF 		call	_ZN8UnitTest12_GLOBAL__N_127DeferredTestReporterFixtureD2Ev
 2204      FF
 2205              	.LBE38:
 2206 0d70 90       		nop
 2207 0d71 C9       		leave
 2208              		.cfi_def_cfa 7, 8
 2209 0d72 C3       		ret
 2210              		.cfi_endproc
 2211              	.LFE1405:
 2213              		.set	_ZN8UnitTest12_GLOBAL__N_162DeferredTestReporterFixtureReportTestEndCapturesTestTimeHelperD1E
 2214 0d73 90       		.align 2
 2216              	_ZNK8UnitTest12_GLOBAL__N_160TestDeferredTestReporterFixtureReportTestEndCapturesTestTime7RunImplEv
 2217              	.LFB1403:
 2218              		.loc 3 61 0
 2219              		.cfi_startproc
 2220              		.cfi_personality 0x9b,DW.ref.__gxx_personality_v0
 2221              		.cfi_lsda 0x1b,.LLSDA1403
 2222 0d74 55       		pushq	%rbp
 2223              		.cfi_def_cfa_offset 16
 2224              		.cfi_offset 6, -16
 2225 0d75 4889E5   		movq	%rsp, %rbp
 2226              		.cfi_def_cfa_register 6
 2227 0d78 4155     		pushq	%r13
 2228 0d7a 4154     		pushq	%r12
 2229 0d7c 53       		pushq	%rbx
 2230 0d7d 4881ECF8 		subq	$504, %rsp
 2230      010000
 2231              		.cfi_offset 13, -24
 2232              		.cfi_offset 12, -32
 2233              		.cfi_offset 3, -40
 2234 0d84 4889BDF8 		movq	%rdi, -520(%rbp)
 2234      FDFFFF
 2235              		.loc 3 61 0
 2236 0d8b 64488B04 		movq	%fs:40, %rax
 2236      25280000 
 2236      00
 2237 0d94 488945D8 		movq	%rax, -40(%rbp)
 2238 0d98 31C0     		xorl	%eax, %eax
 2239 0d9a C6850FFE 		movb	$0, -497(%rbp)
 2239      FFFF00
 2240              	.LBB39:
 2241 0da1 488B85F8 		movq	-520(%rbp), %rax
 2241      FDFFFF
 2242 0da8 488D5008 		leaq	8(%rax), %rdx
 2243 0dac 488D8540 		leaq	-448(%rbp), %rax
 2243      FEFFFF
 2244 0db3 4889D6   		movq	%rdx, %rsi
 2245 0db6 4889C7   		movq	%rax, %rdi
 2246              	.LEHB59:
 2247 0db9 E820FFFF 		call	_ZN8UnitTest12_GLOBAL__N_162DeferredTestReporterFixtureReportTestEndCapturesTestTimeHelperC1E
 2247      FF
 2248              	.LEHE59:
 2249              		.loc 3 61 0 is_stmt 0 discriminator 1
 2250 0dbe C6850FFE 		movb	$1, -497(%rbp)
 2250      FFFF01
 2251 0dc5 488B85F8 		movq	-520(%rbp), %rax
 2251      FDFFFF
 2252 0dcc 488D5008 		leaq	8(%rax), %rdx
 2253 0dd0 488D8540 		leaq	-448(%rbp), %rax
 2253      FEFFFF
 2254 0dd7 4889D6   		movq	%rdx, %rsi
 2255 0dda 4889C7   		movq	%rax, %rdi
 2256              	.LEHB60:
 2257 0ddd E8151B00 		call	_ZN8UnitTest11ExecuteTestINS_12_GLOBAL__N_162DeferredTestReporterFixtureReportTestEndCaptures
 2257      00
 2258              	.LEHE60:
 2259              		.loc 3 61 0 discriminator 3
 2260 0de2 488D8540 		leaq	-448(%rbp), %rax
 2260      FEFFFF
 2261 0de9 4889C7   		movq	%rax, %rdi
 2262              	.LEHB61:
 2263 0dec E867FFFF 		call	_ZN8UnitTest12_GLOBAL__N_162DeferredTestReporterFixtureReportTestEndCapturesTestTimeHelperD1E
 2263      FF
 2264              	.LEHE61:
 2265              	.LBE39:
 2266              		.loc 3 61 0
 2267 0df1 E9690200 		jmp	.L119
 2267      00
 2268              	.L134:
 2269 0df6 4989C4   		movq	%rax, %r12
 2270 0df9 4889D3   		movq	%rdx, %rbx
 2271              	.LBB40:
 2272 0dfc 488D8540 		leaq	-448(%rbp), %rax
 2272      FEFFFF
 2273 0e03 4889C7   		movq	%rax, %rdi
 2274 0e06 E84DFFFF 		call	_ZN8UnitTest12_GLOBAL__N_162DeferredTestReporterFixtureReportTestEndCapturesTestTimeHelperD1E
 2274      FF
 2275 0e0b 4C89E0   		movq	%r12, %rax
 2276 0e0e 4889DA   		movq	%rbx, %rdx
 2277 0e11 EB00     		jmp	.L121
 2278              	.L133:
 2279              	.L121:
 2280 0e13 4883FA01 		cmpq	$1, %rdx
 2281 0e17 740F     		je	.L123
 2282 0e19 4883FA02 		cmpq	$2, %rdx
 2283 0e1d 0F84A700 		je	.L124
 2283      0000
 2284 0e23 E94A0100 		jmp	.L139
 2284      00
 2285              	.L123:
 2286              	.LBE40:
 2287              	.LBB41:
 2288 0e28 4889C7   		movq	%rax, %rdi
 2289 0e2b E8000000 		call	__cxa_begin_catch@PLT
 2289      00
 2290 0e30 48898518 		movq	%rax, -488(%rbp)
 2290      FEFFFF
 2291              	.LEHB62:
 2292 0e37 E8000000 		call	_ZN8UnitTest11CurrentTest7ResultsEv@PLT
 2292      00
 2293 0e3c 488B18   		movq	(%rax), %rbx
 2294 0e3f 488B8518 		movq	-488(%rbp), %rax
 2294      FEFFFF
 2295 0e46 488B00   		movq	(%rax), %rax
 2296 0e49 4883C010 		addq	$16, %rax
 2297 0e4d 488B00   		movq	(%rax), %rax
 2298 0e50 488B9518 		movq	-488(%rbp), %rdx
 2298      FEFFFF
 2299 0e57 4889D7   		movq	%rdx, %rdi
 2300 0e5a FFD0     		call	*%rax
 2301              	.LVL4:
 2302 0e5c 4989C4   		movq	%rax, %r12
 2303 0e5f 488B8518 		movq	-488(%rbp), %rax
 2303      FEFFFF
 2304 0e66 4889C7   		movq	%rax, %rdi
 2305 0e69 E8000000 		call	_ZNK8UnitTest15AssertException10LineNumberEv@PLT
 2305      00
 2306              		.loc 3 61 0 discriminator 5
 2307 0e6e 4189C5   		movl	%eax, %r13d
 2308 0e71 488B8518 		movq	-488(%rbp), %rax
 2308      FEFFFF
 2309 0e78 4889C7   		movq	%rax, %rdi
 2310 0e7b E8000000 		call	_ZNK8UnitTest15AssertException8FilenameEv@PLT
 2310      00
 2311              		.loc 3 61 0 discriminator 7
 2312 0e80 4889C1   		movq	%rax, %rcx
 2313 0e83 488B85F8 		movq	-520(%rbp), %rax
 2313      FDFFFF
 2314 0e8a 488B5008 		movq	8(%rax), %rdx
 2315 0e8e 488B85F8 		movq	-520(%rbp), %rax
 2315      FDFFFF
 2316 0e95 488B7010 		movq	16(%rax), %rsi
 2317 0e99 488D8520 		leaq	-480(%rbp), %rax
 2317      FEFFFF
 2318 0ea0 4589E8   		movl	%r13d, %r8d
 2319 0ea3 4889C7   		movq	%rax, %rdi
 2320 0ea6 E8000000 		call	_ZN8UnitTest11TestDetailsC1EPKcS2_S2_i@PLT
 2320      00
 2321              		.loc 3 61 0 discriminator 11
 2322 0eab 488D8520 		leaq	-480(%rbp), %rax
 2322      FEFFFF
 2323 0eb2 4C89E2   		movq	%r12, %rdx
 2324 0eb5 4889C6   		movq	%rax, %rsi
 2325 0eb8 4889DF   		movq	%rbx, %rdi
 2326 0ebb E8000000 		call	_ZN8UnitTest11TestResults13OnTestFailureERKNS_11TestDetailsEPKc@PLT
 2326      00
 2327              	.LEHE62:
 2328              		.loc 3 61 0 discriminator 13
 2329 0ec0 E8000000 		call	__cxa_end_catch@PLT
 2329      00
 2330              	.LBE41:
 2331 0ec5 E9950100 		jmp	.L119
 2331      00
 2332              	.L124:
 2333              	.LBB42:
 2334              		.loc 3 61 0
 2335 0eca 4889C7   		movq	%rax, %rdi
 2336 0ecd E8000000 		call	__cxa_begin_catch@PLT
 2336      00
 2337 0ed2 48898510 		movq	%rax, -496(%rbp)
 2337      FEFFFF
 2338              	.LBB43:
 2339 0ed9 488D8540 		leaq	-448(%rbp), %rax
 2339      FEFFFF
 2340 0ee0 4889C7   		movq	%rax, %rdi
 2341              	.LEHB63:
 2342 0ee3 E8000000 		call	_ZN8UnitTest15MemoryOutStreamC1Ev
 2342      00
 2343              	.LEHE63:
 2344              		.loc 3 61 0 discriminator 15
 2345 0ee8 488D8540 		leaq	-448(%rbp), %rax
 2345      FEFFFF
 2346 0eef 488D3500 		leaq	.LC6(%rip), %rsi
 2346      000000
 2347 0ef6 4889C7   		movq	%rax, %rdi
 2348              	.LEHB64:
 2349 0ef9 E8000000 		call	_ZStlsISt11char_traitsIcEERSt13basic_ostreamIcT_ES5_PKc@PLT
 2349      00
 2350 0efe 4889C3   		movq	%rax, %rbx
 2351 0f01 488B8510 		movq	-496(%rbp), %rax
 2351      FEFFFF
 2352 0f08 488B00   		movq	(%rax), %rax
 2353 0f0b 4883C010 		addq	$16, %rax
 2354 0f0f 488B00   		movq	(%rax), %rax
 2355 0f12 488B9510 		movq	-496(%rbp), %rdx
 2355      FEFFFF
 2356 0f19 4889D7   		movq	%rdx, %rdi
 2357 0f1c FFD0     		call	*%rax
 2358              	.LVL5:
 2359 0f1e 4889C6   		movq	%rax, %rsi
 2360 0f21 4889DF   		movq	%rbx, %rdi
 2361 0f24 E8000000 		call	_ZStlsISt11char_traitsIcEERSt13basic_ostreamIcT_ES5_PKc@PLT
 2361      00
 2362              		.loc 3 61 0 discriminator 19
 2363 0f29 E8000000 		call	_ZN8UnitTest11CurrentTest7ResultsEv@PLT
 2363      00
 2364 0f2e 488B18   		movq	(%rax), %rbx
 2365 0f31 488D8540 		leaq	-448(%rbp), %rax
 2365      FEFFFF
 2366 0f38 4889C7   		movq	%rax, %rdi
 2367 0f3b E8000000 		call	_ZNK8UnitTest15MemoryOutStream7GetTextEv@PLT
 2367      00
 2368              		.loc 3 61 0 discriminator 21
 2369 0f40 4889C2   		movq	%rax, %rdx
 2370 0f43 488B85F8 		movq	-520(%rbp), %rax
 2370      FDFFFF
 2371 0f4a 4883C008 		addq	$8, %rax
 2372 0f4e 4889C6   		movq	%rax, %rsi
 2373 0f51 4889DF   		movq	%rbx, %rdi
 2374 0f54 E8000000 		call	_ZN8UnitTest11TestResults13OnTestFailureERKNS_11TestDetailsEPKc@PLT
 2374      00
 2375              	.LEHE64:
 2376              		.loc 3 61 0 discriminator 25
 2377 0f59 488D8540 		leaq	-448(%rbp), %rax
 2377      FEFFFF
 2378 0f60 4889C7   		movq	%rax, %rdi
 2379              	.LEHB65:
 2380 0f63 E8000000 		call	_ZN8UnitTest15MemoryOutStreamD1Ev
 2380      00
 2381              	.LEHE65:
 2382              	.LBE43:
 2383              		.loc 3 61 0 discriminator 26
 2384 0f68 E8000000 		call	__cxa_end_catch@PLT
 2384      00
 2385              	.LBE42:
 2386 0f6d E9ED0000 		jmp	.L119
 2386      00
 2387              	.L139:
 2388              		.loc 3 61 0
 2389 0f72 4889C7   		movq	%rax, %rdi
 2390 0f75 E8000000 		call	__cxa_begin_catch@PLT
 2390      00
 2391 0f7a 80BD0FFE 		cmpb	$0, -497(%rbp)
 2391      FFFF00
 2392 0f81 7445     		je	.L126
 2393              	.LEHB66:
 2394              		.loc 3 61 0 discriminator 28
 2395 0f83 E8000000 		call	_ZN8UnitTest11CurrentTest7ResultsEv@PLT
 2395      00
 2396 0f88 488B18   		movq	(%rax), %rbx
 2397 0f8b 488B85F8 		movq	-520(%rbp), %rax
 2397      FDFFFF
 2398 0f92 488D4808 		leaq	8(%rax), %rcx
 2399 0f96 488D8520 		leaq	-480(%rbp), %rax
 2399      FEFFFF
 2400 0f9d BA3D0000 		movl	$61, %edx
 2400      00
 2401 0fa2 4889CE   		movq	%rcx, %rsi
 2402 0fa5 4889C7   		movq	%rax, %rdi
 2403 0fa8 E8000000 		call	_ZN8UnitTest11TestDetailsC1ERKS0_i@PLT
 2403      00
 2404              		.loc 3 61 0 discriminator 33
 2405 0fad 488D8520 		leaq	-480(%rbp), %rax
 2405      FEFFFF
 2406 0fb4 488D1500 		leaq	.LC7(%rip), %rdx
 2406      000000
 2407 0fbb 4889C6   		movq	%rax, %rsi
 2408 0fbe 4889DF   		movq	%rbx, %rdi
 2409 0fc1 E8000000 		call	_ZN8UnitTest11TestResults13OnTestFailureERKNS_11TestDetailsEPKc@PLT
 2409      00
 2410 0fc6 EB43     		jmp	.L127
 2411              	.L126:
 2412              		.loc 3 61 0 discriminator 29
 2413 0fc8 E8000000 		call	_ZN8UnitTest11CurrentTest7ResultsEv@PLT
 2413      00
 2414 0fcd 488B18   		movq	(%rax), %rbx
 2415 0fd0 488B85F8 		movq	-520(%rbp), %rax
 2415      FDFFFF
 2416 0fd7 488D4808 		leaq	8(%rax), %rcx
 2417 0fdb 488D8520 		leaq	-480(%rbp), %rax
 2417      FEFFFF
 2418 0fe2 BA3D0000 		movl	$61, %edx
 2418      00
 2419 0fe7 4889CE   		movq	%rcx, %rsi
 2420 0fea 4889C7   		movq	%rax, %rdi
 2421 0fed E8000000 		call	_ZN8UnitTest11TestDetailsC1ERKS0_i@PLT
 2421      00
 2422              		.loc 3 61 0 discriminator 40
 2423 0ff2 488D8520 		leaq	-480(%rbp), %rax
 2423      FEFFFF
 2424 0ff9 488D1500 		leaq	.LC8(%rip), %rdx
 2424      000000
 2425 1000 4889C6   		movq	%rax, %rsi
 2426 1003 4889DF   		movq	%rbx, %rdi
 2427 1006 E8000000 		call	_ZN8UnitTest11TestResults13OnTestFailureERKNS_11TestDetailsEPKc@PLT
 2427      00
 2428              	.LEHE66:
 2429              	.L127:
 2430              	.LEHB67:
 2431              		.loc 3 61 0 discriminator 43
 2432 100b E8000000 		call	__cxa_end_catch@PLT
 2432      00
 2433 1010 EB4D     		jmp	.L119
 2434              	.L135:
 2435 1012 4889C3   		movq	%rax, %rbx
 2436              	.LBB45:
 2437              		.loc 3 61 0
 2438 1015 E8000000 		call	__cxa_end_catch@PLT
 2438      00
 2439 101a 4889D8   		movq	%rbx, %rax
 2440 101d 4889C7   		movq	%rax, %rdi
 2441 1020 E8000000 		call	_Unwind_Resume@PLT
 2441      00
 2442              	.LEHE67:
 2443              	.L137:
 2444 1025 4889C3   		movq	%rax, %rbx
 2445              	.LBE45:
 2446              	.LBB46:
 2447              	.LBB44:
 2448 1028 488D8540 		leaq	-448(%rbp), %rax
 2448      FEFFFF
 2449 102f 4889C7   		movq	%rax, %rdi
 2450 1032 E8000000 		call	_ZN8UnitTest15MemoryOutStreamD1Ev
 2450      00
 2451 1037 EB03     		jmp	.L130
 2452              	.L136:
 2453 1039 4889C3   		movq	%rax, %rbx
 2454              	.L130:
 2455              	.LBE44:
 2456 103c E8000000 		call	__cxa_end_catch@PLT
 2456      00
 2457 1041 4889D8   		movq	%rbx, %rax
 2458 1044 4889C7   		movq	%rax, %rdi
 2459              	.LEHB68:
 2460 1047 E8000000 		call	_Unwind_Resume@PLT
 2460      00
 2461              	.LEHE68:
 2462              	.L138:
 2463 104c 4889C3   		movq	%rax, %rbx
 2464              	.LBE46:
 2465 104f E8000000 		call	__cxa_end_catch@PLT
 2465      00
 2466 1054 4889D8   		movq	%rbx, %rax
 2467 1057 4889C7   		movq	%rax, %rdi
 2468              	.LEHB69:
 2469 105a E8000000 		call	_Unwind_Resume@PLT
 2469      00
 2470              	.LEHE69:
 2471              	.L119:
 2472 105f 488B45D8 		movq	-40(%rbp), %rax
 2473 1063 64483304 		xorq	%fs:40, %rax
 2473      25280000 
 2473      00
 2474 106c 7405     		je	.L132
 2475 106e E8000000 		call	__stack_chk_fail@PLT
 2475      00
 2476              	.L132:
 2477 1073 4881C4F8 		addq	$504, %rsp
 2477      010000
 2478 107a 5B       		popq	%rbx
 2479 107b 415C     		popq	%r12
 2480 107d 415D     		popq	%r13
 2481 107f 5D       		popq	%rbp
 2482              		.cfi_def_cfa 7, 8
 2483 1080 C3       		ret
 2484              		.cfi_endproc
 2485              	.LFE1403:
 2486              		.section	.gcc_except_table
 2487              		.align 4
 2488              	.LLSDA1403:
 2489 0158 FF       		.byte	0xff
 2490 0159 9B       		.byte	0x9b
 2491 015a 55       		.uleb128 .LLSDATT1403-.LLSDATTD1403
 2492              	.LLSDATTD1403:
 2493 015b 01       		.byte	0x1
 2494 015c 3E       		.uleb128 .LLSDACSE1403-.LLSDACSB1403
 2495              	.LLSDACSB1403:
 2496 015d 45       		.uleb128 .LEHB59-.LFB1403
 2497 015e 05       		.uleb128 .LEHE59-.LEHB59
 2498 015f 9F01     		.uleb128 .L133-.LFB1403
 2499 0161 05       		.uleb128 0x5
 2500 0162 69       		.uleb128 .LEHB60-.LFB1403
 2501 0163 05       		.uleb128 .LEHE60-.LEHB60
 2502 0164 8201     		.uleb128 .L134-.LFB1403
 2503 0166 07       		.uleb128 0x7
 2504 0167 78       		.uleb128 .LEHB61-.LFB1403
 2505 0168 05       		.uleb128 .LEHE61-.LEHB61
 2506 0169 9F01     		.uleb128 .L133-.LFB1403
 2507 016b 05       		.uleb128 0x5
 2508 016c C301     		.uleb128 .LEHB62-.LFB1403
 2509 016e 8901     		.uleb128 .LEHE62-.LEHB62
 2510 0170 9E05     		.uleb128 .L135-.LFB1403
 2511 0172 00       		.uleb128 0
 2512 0173 EF02     		.uleb128 .LEHB63-.LFB1403
 2513 0175 05       		.uleb128 .LEHE63-.LEHB63
 2514 0176 C505     		.uleb128 .L136-.LFB1403
 2515 0178 00       		.uleb128 0
 2516 0179 8503     		.uleb128 .LEHB64-.LFB1403
 2517 017b 60       		.uleb128 .LEHE64-.LEHB64
 2518 017c B105     		.uleb128 .L137-.LFB1403
 2519 017e 00       		.uleb128 0
 2520 017f EF03     		.uleb128 .LEHB65-.LFB1403
 2521 0181 05       		.uleb128 .LEHE65-.LEHB65
 2522 0182 C505     		.uleb128 .L136-.LFB1403
 2523 0184 00       		.uleb128 0
 2524 0185 8F04     		.uleb128 .LEHB66-.LFB1403
 2525 0187 8801     		.uleb128 .LEHE66-.LEHB66
 2526 0189 D805     		.uleb128 .L138-.LFB1403
 2527 018b 00       		.uleb128 0
 2528 018c 9705     		.uleb128 .LEHB67-.LFB1403
 2529 018e 1A       		.uleb128 .LEHE67-.LEHB67
 2530 018f 00       		.uleb128 0
 2531 0190 00       		.uleb128 0
 2532 0191 D305     		.uleb128 .LEHB68-.LFB1403
 2533 0193 05       		.uleb128 .LEHE68-.LEHB68
 2534 0194 00       		.uleb128 0
 2535 0195 00       		.uleb128 0
 2536 0196 E605     		.uleb128 .LEHB69-.LFB1403
 2537 0198 05       		.uleb128 .LEHE69-.LEHB69
 2538 0199 00       		.uleb128 0
 2539 019a 00       		.uleb128 0
 2540              	.LLSDACSE1403:
 2541 019b 03       		.byte	0x3
 2542 019c 00       		.byte	0
 2543 019d 02       		.byte	0x2
 2544 019e 7D       		.byte	0x7d
 2545 019f 01       		.byte	0x1
 2546 01a0 7D       		.byte	0x7d
 2547 01a1 00       		.byte	0
 2548 01a2 7D       		.byte	0x7d
 2549 01a3 00       		.align 4
 2550 01a4 00000000 		.long	0
 2551              	
 2552 01a8 00000000 		.long	DW.ref._ZTISt9exception-.
 2553 01ac 00000000 		.long	DW.ref._ZTIN8UnitTest15AssertExceptionE-.
 2554              	.LLSDATT1403:
 2555              		.text
 2557              		.section	.rodata
 2558 025e 0000     		.align 8
 2559              	.LC16:
 2560 0260 556E6861 		.string	"Unhandled exception in CHECK_CLOSE(elapsed, result.timeElapsed)"
 2560      6E646C65 
 2560      64206578 
 2560      63657074 
 2560      696F6E20 
 2561              		.text
 2562 1081 90       		.align 2
 2564              	_ZN8UnitTest12_GLOBAL__N_162DeferredTestReporterFixtureReportTestEndCapturesTestTimeHelper7RunImplE
 2565              	.LFB1407:
  62:TestDeferredTestReporter.cpp **** {
 2566              		.loc 3 62 0 is_stmt 1
 2567              		.cfi_startproc
 2568              		.cfi_personality 0x9b,DW.ref.__gxx_personality_v0
 2569              		.cfi_lsda 0x1b,.LLSDA1407
 2570 1082 55       		pushq	%rbp
 2571              		.cfi_def_cfa_offset 16
 2572              		.cfi_offset 6, -16
 2573 1083 4889E5   		movq	%rsp, %rbp
 2574              		.cfi_def_cfa_register 6
 2575 1086 53       		pushq	%rbx
 2576 1087 4883EC58 		subq	$88, %rsp
 2577              		.cfi_offset 3, -24
 2578 108b 48897DA8 		movq	%rdi, -88(%rbp)
 2579              		.loc 3 62 0
 2580 108f 64488B04 		movq	%fs:40, %rax
 2580      25280000 
 2580      00
 2581 1098 488945E8 		movq	%rax, -24(%rbp)
 2582 109c 31C0     		xorl	%eax, %eax
  63:TestDeferredTestReporter.cpp ****     float const elapsed = 123.45f;
 2583              		.loc 3 63 0
 2584 109e F30F1005 		movss	.LC14(%rip), %xmm0
 2584      00000000 
 2585 10a6 F30F1145 		movss	%xmm0, -80(%rbp)
 2585      B0
  64:TestDeferredTestReporter.cpp ****     reporter.ReportTestStart(details);
 2586              		.loc 3 64 0
 2587 10ab 488B45A8 		movq	-88(%rbp), %rax
 2588 10af 488B55A8 		movq	-88(%rbp), %rdx
 2589 10b3 4881C288 		addq	$136, %rdx
 2589      000000
 2590 10ba 4889D6   		movq	%rdx, %rsi
 2591 10bd 4889C7   		movq	%rax, %rdi
 2592              	.LEHB70:
 2593 10c0 E8000000 		call	_ZN8UnitTest20DeferredTestReporter15ReportTestStartERKNS_11TestDetailsE@PLT
 2593      00
  65:TestDeferredTestReporter.cpp ****     reporter.ReportTestFinish(details, elapsed);
 2594              		.loc 3 65 0
 2595 10c5 488B45A8 		movq	-88(%rbp), %rax
 2596 10c9 488B55A8 		movq	-88(%rbp), %rdx
 2597 10cd 4881C288 		addq	$136, %rdx
 2597      000000
 2598 10d4 F30F1005 		movss	.LC14(%rip), %xmm0
 2598      00000000 
 2599 10dc 4889D6   		movq	%rdx, %rsi
 2600 10df 4889C7   		movq	%rax, %rdi
 2601 10e2 E8000000 		call	_ZN8UnitTest20DeferredTestReporter16ReportTestFinishERKNS_11TestDetailsEf@PLT
 2601      00
  66:TestDeferredTestReporter.cpp **** 
  67:TestDeferredTestReporter.cpp ****     DeferredTestResult const& result = reporter.GetResults().at(0);
 2602              		.loc 3 67 0
 2603 10e7 488B45A8 		movq	-88(%rbp), %rax
 2604 10eb 4889C7   		movq	%rax, %rdi
 2605 10ee E8000000 		call	_ZN8UnitTest20DeferredTestReporter10GetResultsEv@PLT
 2605      00
 2606 10f3 BE000000 		movl	$0, %esi
 2606      00
 2607 10f8 4889C7   		movq	%rax, %rdi
 2608 10fb E8000000 		call	_ZNSt6vectorIN8UnitTest18DeferredTestResultESaIS1_EE2atEm
 2608      00
 2609              	.LEHE70:
 2610 1100 488945B8 		movq	%rax, -72(%rbp)
 2611              	.LEHB71:
  68:TestDeferredTestReporter.cpp ****     CHECK_CLOSE(elapsed, result.timeElapsed, 0.0001f);
 2612              		.loc 3 68 0
 2613 1104 E8000000 		call	_ZN8UnitTest11CurrentTest7DetailsEv@PLT
 2613      00
 2614 1109 488B08   		movq	(%rax), %rcx
 2615 110c 488D45C0 		leaq	-64(%rbp), %rax
 2616 1110 BA440000 		movl	$68, %edx
 2616      00
 2617 1115 4889CE   		movq	%rcx, %rsi
 2618 1118 4889C7   		movq	%rax, %rdi
 2619 111b E8000000 		call	_ZN8UnitTest11TestDetailsC1ERKS0_i@PLT
 2619      00
 2620              	.LEHE71:
 2621              		.loc 3 68 0 is_stmt 0 discriminator 2
 2622 1120 F30F1005 		movss	.LC15(%rip), %xmm0
 2622      00000000 
 2623 1128 F30F1145 		movss	%xmm0, -76(%rbp)
 2623      B4
 2624 112d 488B45B8 		movq	-72(%rbp), %rax
 2625 1131 488D5878 		leaq	120(%rax), %rbx
 2626              	.LEHB72:
 2627 1135 E8000000 		call	_ZN8UnitTest11CurrentTest7ResultsEv@PLT
 2627      00
 2628 113a 488B00   		movq	(%rax), %rax
 2629 113d 488D4DC0 		leaq	-64(%rbp), %rcx
 2630 1141 488D55B4 		leaq	-76(%rbp), %rdx
 2631 1145 488D75B0 		leaq	-80(%rbp), %rsi
 2632 1149 4989C8   		movq	%rcx, %r8
 2633 114c 4889D1   		movq	%rdx, %rcx
 2634 114f 4889DA   		movq	%rbx, %rdx
 2635 1152 4889C7   		movq	%rax, %rdi
 2636 1155 E8000000 		call	_ZN8UnitTest10CheckCloseIfffEEvRNS_11TestResultsERKT_RKT0_RKT1_RKNS_11TestDetailsE
 2636      00
 2637              	.LEHE72:
  69:TestDeferredTestReporter.cpp **** }
 2638              		.loc 3 69 0 is_stmt 1
 2639 115a EB5E     		jmp	.L140
 2640              	.L147:
 2641 115c EB00     		jmp	.L142
 2642              	.L146:
 2643              	.L142:
  68:TestDeferredTestReporter.cpp ****     CHECK_CLOSE(elapsed, result.timeElapsed, 0.0001f);
 2644              		.loc 3 68 0
 2645 115e 4889C7   		movq	%rax, %rdi
 2646 1161 E8000000 		call	__cxa_begin_catch@PLT
 2646      00
 2647              	.LEHB73:
 2648 1166 E8000000 		call	_ZN8UnitTest11CurrentTest7ResultsEv@PLT
 2648      00
 2649 116b 488B18   		movq	(%rax), %rbx
 2650 116e E8000000 		call	_ZN8UnitTest11CurrentTest7DetailsEv@PLT
 2650      00
  68:TestDeferredTestReporter.cpp ****     CHECK_CLOSE(elapsed, result.timeElapsed, 0.0001f);
 2651              		.loc 3 68 0 is_stmt 0 discriminator 8
 2652 1173 488B08   		movq	(%rax), %rcx
 2653 1176 488D45C0 		leaq	-64(%rbp), %rax
 2654 117a BA440000 		movl	$68, %edx
 2654      00
 2655 117f 4889CE   		movq	%rcx, %rsi
 2656 1182 4889C7   		movq	%rax, %rdi
 2657 1185 E8000000 		call	_ZN8UnitTest11TestDetailsC1ERKS0_i@PLT
 2657      00
  68:TestDeferredTestReporter.cpp ****     CHECK_CLOSE(elapsed, result.timeElapsed, 0.0001f);
 2658              		.loc 3 68 0 discriminator 12
 2659 118a 488D45C0 		leaq	-64(%rbp), %rax
 2660 118e 488D1500 		leaq	.LC16(%rip), %rdx
 2660      000000
 2661 1195 4889C6   		movq	%rax, %rsi
 2662 1198 4889DF   		movq	%rbx, %rdi
 2663 119b E8000000 		call	_ZN8UnitTest11TestResults13OnTestFailureERKNS_11TestDetailsEPKc@PLT
 2663      00
 2664              	.LEHE73:
 2665              	.LEHB74:
  68:TestDeferredTestReporter.cpp ****     CHECK_CLOSE(elapsed, result.timeElapsed, 0.0001f);
 2666              		.loc 3 68 0 discriminator 14
 2667 11a0 E8000000 		call	__cxa_end_catch@PLT
 2667      00
 2668              	.LEHE74:
 2669              		.loc 3 69 0 is_stmt 1 discriminator 14
 2670 11a5 EB13     		jmp	.L140
 2671              	.L148:
 2672 11a7 4889C3   		movq	%rax, %rbx
  68:TestDeferredTestReporter.cpp ****     CHECK_CLOSE(elapsed, result.timeElapsed, 0.0001f);
 2673              		.loc 3 68 0
 2674 11aa E8000000 		call	__cxa_end_catch@PLT
 2674      00
 2675 11af 4889D8   		movq	%rbx, %rax
 2676 11b2 4889C7   		movq	%rax, %rdi
 2677              	.LEHB75:
 2678 11b5 E8000000 		call	_Unwind_Resume@PLT
 2678      00
 2679              	.LEHE75:
 2680              	.L140:
 2681              		.loc 3 69 0
 2682 11ba 488B45E8 		movq	-24(%rbp), %rax
 2683 11be 64483304 		xorq	%fs:40, %rax
 2683      25280000 
 2683      00
 2684 11c7 7405     		je	.L145
 2685 11c9 E8000000 		call	__stack_chk_fail@PLT
 2685      00
 2686              	.L145:
 2687 11ce 4883C458 		addq	$88, %rsp
 2688 11d2 5B       		popq	%rbx
 2689 11d3 5D       		popq	%rbp
 2690              		.cfi_def_cfa 7, 8
 2691 11d4 C3       		ret
 2692              		.cfi_endproc
 2693              	.LFE1407:
 2694              		.section	.gcc_except_table
 2695              		.align 4
 2696              	.LLSDA1407:
 2697 01b0 FF       		.byte	0xff
 2698 01b1 9B       		.byte	0x9b
 2699 01b2 2D       		.uleb128 .LLSDATT1407-.LLSDATTD1407
 2700              	.LLSDATTD1407:
 2701 01b3 01       		.byte	0x1
 2702 01b4 20       		.uleb128 .LLSDACSE1407-.LLSDACSB1407
 2703              	.LLSDACSB1407:
 2704 01b5 3E       		.uleb128 .LEHB70-.LFB1407
 2705 01b6 40       		.uleb128 .LEHE70-.LEHB70
 2706 01b7 00       		.uleb128 0
 2707 01b8 00       		.uleb128 0
 2708 01b9 8201     		.uleb128 .LEHB71-.LFB1407
 2709 01bb 1C       		.uleb128 .LEHE71-.LEHB71
 2710 01bc DC01     		.uleb128 .L146-.LFB1407
 2711 01be 01       		.uleb128 0x1
 2712 01bf B301     		.uleb128 .LEHB72-.LFB1407
 2713 01c1 25       		.uleb128 .LEHE72-.LEHB72
 2714 01c2 DA01     		.uleb128 .L147-.LFB1407
 2715 01c4 03       		.uleb128 0x3
 2716 01c5 E401     		.uleb128 .LEHB73-.LFB1407
 2717 01c7 3A       		.uleb128 .LEHE73-.LEHB73
 2718 01c8 A502     		.uleb128 .L148-.LFB1407
 2719 01ca 00       		.uleb128 0
 2720 01cb 9E02     		.uleb128 .LEHB74-.LFB1407
 2721 01cd 05       		.uleb128 .LEHE74-.LEHB74
 2722 01ce 00       		.uleb128 0
 2723 01cf 00       		.uleb128 0
 2724 01d0 B302     		.uleb128 .LEHB75-.LFB1407
 2725 01d2 05       		.uleb128 .LEHE75-.LEHB75
 2726 01d3 00       		.uleb128 0
 2727 01d4 00       		.uleb128 0
 2728              	.LLSDACSE1407:
 2729 01d5 01       		.byte	0x1
 2730 01d6 00       		.byte	0
 2731 01d7 00       		.byte	0
 2732 01d8 7D       		.byte	0x7d
 2733 01d9 000000   		.align 4
 2734 01dc 00000000 		.long	0
 2735              	
 2736              	.LLSDATT1407:
 2737              		.text
 2739 11d5 90       		.align 2
 2741              	_ZN8UnitTest12_GLOBAL__N_165DeferredTestReporterFixtureReportFailureSavesFailureDetailsHelperC2ERKN
 2742              	.LFB1409:
  70:TestDeferredTestReporter.cpp **** 
  71:TestDeferredTestReporter.cpp **** TEST_FIXTURE(DeferredTestReporterFixture, ReportFailureSavesFailureDetails)
 2743              		.loc 3 71 0
 2744              		.cfi_startproc
 2745 11d6 55       		pushq	%rbp
 2746              		.cfi_def_cfa_offset 16
 2747              		.cfi_offset 6, -16
 2748 11d7 4889E5   		movq	%rsp, %rbp
 2749              		.cfi_def_cfa_register 6
 2750 11da 4883EC10 		subq	$16, %rsp
 2751 11de 48897DF8 		movq	%rdi, -8(%rbp)
 2752 11e2 488975F0 		movq	%rsi, -16(%rbp)
 2753              	.LBB47:
 2754              		.loc 3 71 0
 2755 11e6 488B45F8 		movq	-8(%rbp), %rax
 2756 11ea 4889C7   		movq	%rax, %rdi
 2757 11ed E852EEFF 		call	_ZN8UnitTest12_GLOBAL__N_127DeferredTestReporterFixtureC2Ev
 2757      FF
 2758 11f2 488B45F8 		movq	-8(%rbp), %rax
 2759 11f6 488B55F0 		movq	-16(%rbp), %rdx
 2760 11fa 488990A8 		movq	%rdx, 168(%rax)
 2760      000000
 2761              	.LBE47:
 2762 1201 90       		nop
 2763 1202 C9       		leave
 2764              		.cfi_def_cfa 7, 8
 2765 1203 C3       		ret
 2766              		.cfi_endproc
 2767              	.LFE1409:
 2769              		.set	_ZN8UnitTest12_GLOBAL__N_165DeferredTestReporterFixtureReportFailureSavesFailureDetailsHelper
 2770              		.section	.rodata
 2771              		.align 8
 2772              	.LC17:
 2773 02a0 5265706F 		.string	"ReportFailureSavesFailureDetails"
 2773      72744661 
 2773      696C7572 
 2773      65536176 
 2773      65734661 
 2774              		.text
 2775              		.align 2
 2777              	_ZN8UnitTest12_GLOBAL__N_163TestDeferredTestReporterFixtureReportFailureSavesFailureDetailsC2Ev:
 2778              	.LFB1412:
 2779              		.loc 3 71 0
 2780              		.cfi_startproc
 2781 1204 55       		pushq	%rbp
 2782              		.cfi_def_cfa_offset 16
 2783              		.cfi_offset 6, -16
 2784 1205 4889E5   		movq	%rsp, %rbp
 2785              		.cfi_def_cfa_register 6
 2786 1208 53       		pushq	%rbx
 2787 1209 4883EC18 		subq	$24, %rsp
 2788              		.cfi_offset 3, -24
 2789 120d 48897DE8 		movq	%rdi, -24(%rbp)
 2790              	.LBB48:
 2791              		.loc 3 71 0
 2792 1211 488B5DE8 		movq	-24(%rbp), %rbx
 2793 1215 E8000000 		call	_ZN13UnitTestSuite12GetSuiteNameEv
 2793      00
 2794 121a 41B84700 		movl	$71, %r8d
 2794      0000
 2795 1220 488D0D00 		leaq	.LC4(%rip), %rcx
 2795      000000
 2796 1227 4889C2   		movq	%rax, %rdx
 2797 122a 488D3500 		leaq	.LC17(%rip), %rsi
 2797      000000
 2798 1231 4889DF   		movq	%rbx, %rdi
 2799 1234 E8000000 		call	_ZN8UnitTest4TestC2EPKcS2_S2_i@PLT
 2799      00
 2800 1239 488D1500 		leaq	16+_ZTVN8UnitTest12_GLOBAL__N_163TestDeferredTestReporterFixtureReportFailureSavesFailureDeta
 2800      000000
 2801 1240 488B45E8 		movq	-24(%rbp), %rax
 2802 1244 488910   		movq	%rdx, (%rax)
 2803              	.LBE48:
 2804 1247 90       		nop
 2805 1248 4883C418 		addq	$24, %rsp
 2806 124c 5B       		popq	%rbx
 2807 124d 5D       		popq	%rbp
 2808              		.cfi_def_cfa 7, 8
 2809 124e C3       		ret
 2810              		.cfi_endproc
 2811              	.LFE1412:
 2813              		.set	_ZN8UnitTest12_GLOBAL__N_163TestDeferredTestReporterFixtureReportFailureSavesFailureDetailsC1
 2814              		.local	_ZN8UnitTest12_GLOBAL__N_171testDeferredTestReporterFixtureReportFailureSavesFailureDetails
 2815              		.comm	_ZN8UnitTest12_GLOBAL__N_171testDeferredTestReporterFixtureReportFailureSavesFailureDetailsI
 2816              		.local	_ZN8UnitTest12_GLOBAL__N_164adderDeferredTestReporterFixtureReportFailureSavesFailureDetail
 2817              		.comm	_ZN8UnitTest12_GLOBAL__N_164adderDeferredTestReporterFixtureReportFailureSavesFailureDetails
 2818 124f 90       		.align 2
 2820              	_ZN8UnitTest12_GLOBAL__N_165DeferredTestReporterFixtureReportFailureSavesFailureDetailsHelperD2Ev:
 2821              	.LFB1416:
 2822              		.loc 3 71 0
 2823              		.cfi_startproc
 2824 1250 55       		pushq	%rbp
 2825              		.cfi_def_cfa_offset 16
 2826              		.cfi_offset 6, -16
 2827 1251 4889E5   		movq	%rsp, %rbp
 2828              		.cfi_def_cfa_register 6
 2829 1254 4883EC10 		subq	$16, %rsp
 2830 1258 48897DF8 		movq	%rdi, -8(%rbp)
 2831              	.LBB49:
 2832              		.loc 3 71 0
 2833 125c 488B45F8 		movq	-8(%rbp), %rax
 2834 1260 4889C7   		movq	%rax, %rdi
 2835 1263 E8BAEFFF 		call	_ZN8UnitTest12_GLOBAL__N_127DeferredTestReporterFixtureD2Ev
 2835      FF
 2836              	.LBE49:
 2837 1268 90       		nop
 2838 1269 C9       		leave
 2839              		.cfi_def_cfa 7, 8
 2840 126a C3       		ret
 2841              		.cfi_endproc
 2842              	.LFE1416:
 2844              		.set	_ZN8UnitTest12_GLOBAL__N_165DeferredTestReporterFixtureReportFailureSavesFailureDetailsHelper
 2845 126b 90       		.align 2
 2847              	_ZNK8UnitTest12_GLOBAL__N_163TestDeferredTestReporterFixtureReportFailureSavesFailureDetails7RunImp
 2848              	.LFB1414:
 2849              		.loc 3 71 0
 2850              		.cfi_startproc
 2851              		.cfi_personality 0x9b,DW.ref.__gxx_personality_v0
 2852              		.cfi_lsda 0x1b,.LLSDA1414
 2853 126c 55       		pushq	%rbp
 2854              		.cfi_def_cfa_offset 16
 2855              		.cfi_offset 6, -16
 2856 126d 4889E5   		movq	%rsp, %rbp
 2857              		.cfi_def_cfa_register 6
 2858 1270 4155     		pushq	%r13
 2859 1272 4154     		pushq	%r12
 2860 1274 53       		pushq	%rbx
 2861 1275 4881ECF8 		subq	$504, %rsp
 2861      010000
 2862              		.cfi_offset 13, -24
 2863              		.cfi_offset 12, -32
 2864              		.cfi_offset 3, -40
 2865 127c 4889BDF8 		movq	%rdi, -520(%rbp)
 2865      FDFFFF
 2866              		.loc 3 71 0
 2867 1283 64488B04 		movq	%fs:40, %rax
 2867      25280000 
 2867      00
 2868 128c 488945D8 		movq	%rax, -40(%rbp)
 2869 1290 31C0     		xorl	%eax, %eax
 2870 1292 C6850FFE 		movb	$0, -497(%rbp)
 2870      FFFF00
 2871              	.LBB50:
 2872 1299 488B85F8 		movq	-520(%rbp), %rax
 2872      FDFFFF
 2873 12a0 488D5008 		leaq	8(%rax), %rdx
 2874 12a4 488D8540 		leaq	-448(%rbp), %rax
 2874      FEFFFF
 2875 12ab 4889D6   		movq	%rdx, %rsi
 2876 12ae 4889C7   		movq	%rax, %rdi
 2877              	.LEHB76:
 2878 12b1 E820FFFF 		call	_ZN8UnitTest12_GLOBAL__N_165DeferredTestReporterFixtureReportFailureSavesFailureDetailsHelper
 2878      FF
 2879              	.LEHE76:
 2880              		.loc 3 71 0 is_stmt 0 discriminator 1
 2881 12b6 C6850FFE 		movb	$1, -497(%rbp)
 2881      FFFF01
 2882 12bd 488B85F8 		movq	-520(%rbp), %rax
 2882      FDFFFF
 2883 12c4 488D5008 		leaq	8(%rax), %rdx
 2884 12c8 488D8540 		leaq	-448(%rbp), %rax
 2884      FEFFFF
 2885 12cf 4889D6   		movq	%rdx, %rsi
 2886 12d2 4889C7   		movq	%rax, %rdi
 2887              	.LEHB77:
 2888 12d5 E8E61800 		call	_ZN8UnitTest11ExecuteTestINS_12_GLOBAL__N_165DeferredTestReporterFixtureReportFailureSavesFai
 2888      00
 2889              	.LEHE77:
 2890              		.loc 3 71 0 discriminator 3
 2891 12da 488D8540 		leaq	-448(%rbp), %rax
 2891      FEFFFF
 2892 12e1 4889C7   		movq	%rax, %rdi
 2893              	.LEHB78:
 2894 12e4 E867FFFF 		call	_ZN8UnitTest12_GLOBAL__N_165DeferredTestReporterFixtureReportFailureSavesFailureDetailsHelper
 2894      FF
 2895              	.LEHE78:
 2896              	.LBE50:
 2897              		.loc 3 71 0
 2898 12e9 E9690200 		jmp	.L152
 2898      00
 2899              	.L167:
 2900 12ee 4989C4   		movq	%rax, %r12
 2901 12f1 4889D3   		movq	%rdx, %rbx
 2902              	.LBB51:
 2903 12f4 488D8540 		leaq	-448(%rbp), %rax
 2903      FEFFFF
 2904 12fb 4889C7   		movq	%rax, %rdi
 2905 12fe E84DFFFF 		call	_ZN8UnitTest12_GLOBAL__N_165DeferredTestReporterFixtureReportFailureSavesFailureDetailsHelper
 2905      FF
 2906 1303 4C89E0   		movq	%r12, %rax
 2907 1306 4889DA   		movq	%rbx, %rdx
 2908 1309 EB00     		jmp	.L154
 2909              	.L166:
 2910              	.L154:
 2911 130b 4883FA01 		cmpq	$1, %rdx
 2912 130f 740F     		je	.L156
 2913 1311 4883FA02 		cmpq	$2, %rdx
 2914 1315 0F84A700 		je	.L157
 2914      0000
 2915 131b E94A0100 		jmp	.L172
 2915      00
 2916              	.L156:
 2917              	.LBE51:
 2918              	.LBB52:
 2919 1320 4889C7   		movq	%rax, %rdi
 2920 1323 E8000000 		call	__cxa_begin_catch@PLT
 2920      00
 2921 1328 48898518 		movq	%rax, -488(%rbp)
 2921      FEFFFF
 2922              	.LEHB79:
 2923 132f E8000000 		call	_ZN8UnitTest11CurrentTest7ResultsEv@PLT
 2923      00
 2924 1334 488B18   		movq	(%rax), %rbx
 2925 1337 488B8518 		movq	-488(%rbp), %rax
 2925      FEFFFF
 2926 133e 488B00   		movq	(%rax), %rax
 2927 1341 4883C010 		addq	$16, %rax
 2928 1345 488B00   		movq	(%rax), %rax
 2929 1348 488B9518 		movq	-488(%rbp), %rdx
 2929      FEFFFF
 2930 134f 4889D7   		movq	%rdx, %rdi
 2931 1352 FFD0     		call	*%rax
 2932              	.LVL6:
 2933 1354 4989C4   		movq	%rax, %r12
 2934 1357 488B8518 		movq	-488(%rbp), %rax
 2934      FEFFFF
 2935 135e 4889C7   		movq	%rax, %rdi
 2936 1361 E8000000 		call	_ZNK8UnitTest15AssertException10LineNumberEv@PLT
 2936      00
 2937              		.loc 3 71 0 discriminator 5
 2938 1366 4189C5   		movl	%eax, %r13d
 2939 1369 488B8518 		movq	-488(%rbp), %rax
 2939      FEFFFF
 2940 1370 4889C7   		movq	%rax, %rdi
 2941 1373 E8000000 		call	_ZNK8UnitTest15AssertException8FilenameEv@PLT
 2941      00
 2942              		.loc 3 71 0 discriminator 7
 2943 1378 4889C1   		movq	%rax, %rcx
 2944 137b 488B85F8 		movq	-520(%rbp), %rax
 2944      FDFFFF
 2945 1382 488B5008 		movq	8(%rax), %rdx
 2946 1386 488B85F8 		movq	-520(%rbp), %rax
 2946      FDFFFF
 2947 138d 488B7010 		movq	16(%rax), %rsi
 2948 1391 488D8520 		leaq	-480(%rbp), %rax
 2948      FEFFFF
 2949 1398 4589E8   		movl	%r13d, %r8d
 2950 139b 4889C7   		movq	%rax, %rdi
 2951 139e E8000000 		call	_ZN8UnitTest11TestDetailsC1EPKcS2_S2_i@PLT
 2951      00
 2952              		.loc 3 71 0 discriminator 11
 2953 13a3 488D8520 		leaq	-480(%rbp), %rax
 2953      FEFFFF
 2954 13aa 4C89E2   		movq	%r12, %rdx
 2955 13ad 4889C6   		movq	%rax, %rsi
 2956 13b0 4889DF   		movq	%rbx, %rdi
 2957 13b3 E8000000 		call	_ZN8UnitTest11TestResults13OnTestFailureERKNS_11TestDetailsEPKc@PLT
 2957      00
 2958              	.LEHE79:
 2959              		.loc 3 71 0 discriminator 13
 2960 13b8 E8000000 		call	__cxa_end_catch@PLT
 2960      00
 2961              	.LBE52:
 2962 13bd E9950100 		jmp	.L152
 2962      00
 2963              	.L157:
 2964              	.LBB53:
 2965              		.loc 3 71 0
 2966 13c2 4889C7   		movq	%rax, %rdi
 2967 13c5 E8000000 		call	__cxa_begin_catch@PLT
 2967      00
 2968 13ca 48898510 		movq	%rax, -496(%rbp)
 2968      FEFFFF
 2969              	.LBB54:
 2970 13d1 488D8540 		leaq	-448(%rbp), %rax
 2970      FEFFFF
 2971 13d8 4889C7   		movq	%rax, %rdi
 2972              	.LEHB80:
 2973 13db E8000000 		call	_ZN8UnitTest15MemoryOutStreamC1Ev
 2973      00
 2974              	.LEHE80:
 2975              		.loc 3 71 0 discriminator 15
 2976 13e0 488D8540 		leaq	-448(%rbp), %rax
 2976      FEFFFF
 2977 13e7 488D3500 		leaq	.LC6(%rip), %rsi
 2977      000000
 2978 13ee 4889C7   		movq	%rax, %rdi
 2979              	.LEHB81:
 2980 13f1 E8000000 		call	_ZStlsISt11char_traitsIcEERSt13basic_ostreamIcT_ES5_PKc@PLT
 2980      00
 2981 13f6 4889C3   		movq	%rax, %rbx
 2982 13f9 488B8510 		movq	-496(%rbp), %rax
 2982      FEFFFF
 2983 1400 488B00   		movq	(%rax), %rax
 2984 1403 4883C010 		addq	$16, %rax
 2985 1407 488B00   		movq	(%rax), %rax
 2986 140a 488B9510 		movq	-496(%rbp), %rdx
 2986      FEFFFF
 2987 1411 4889D7   		movq	%rdx, %rdi
 2988 1414 FFD0     		call	*%rax
 2989              	.LVL7:
 2990 1416 4889C6   		movq	%rax, %rsi
 2991 1419 4889DF   		movq	%rbx, %rdi
 2992 141c E8000000 		call	_ZStlsISt11char_traitsIcEERSt13basic_ostreamIcT_ES5_PKc@PLT
 2992      00
 2993              		.loc 3 71 0 discriminator 19
 2994 1421 E8000000 		call	_ZN8UnitTest11CurrentTest7ResultsEv@PLT
 2994      00
 2995 1426 488B18   		movq	(%rax), %rbx
 2996 1429 488D8540 		leaq	-448(%rbp), %rax
 2996      FEFFFF
 2997 1430 4889C7   		movq	%rax, %rdi
 2998 1433 E8000000 		call	_ZNK8UnitTest15MemoryOutStream7GetTextEv@PLT
 2998      00
 2999              		.loc 3 71 0 discriminator 21
 3000 1438 4889C2   		movq	%rax, %rdx
 3001 143b 488B85F8 		movq	-520(%rbp), %rax
 3001      FDFFFF
 3002 1442 4883C008 		addq	$8, %rax
 3003 1446 4889C6   		movq	%rax, %rsi
 3004 1449 4889DF   		movq	%rbx, %rdi
 3005 144c E8000000 		call	_ZN8UnitTest11TestResults13OnTestFailureERKNS_11TestDetailsEPKc@PLT
 3005      00
 3006              	.LEHE81:
 3007              		.loc 3 71 0 discriminator 25
 3008 1451 488D8540 		leaq	-448(%rbp), %rax
 3008      FEFFFF
 3009 1458 4889C7   		movq	%rax, %rdi
 3010              	.LEHB82:
 3011 145b E8000000 		call	_ZN8UnitTest15MemoryOutStreamD1Ev
 3011      00
 3012              	.LEHE82:
 3013              	.LBE54:
 3014              		.loc 3 71 0 discriminator 26
 3015 1460 E8000000 		call	__cxa_end_catch@PLT
 3015      00
 3016              	.LBE53:
 3017 1465 E9ED0000 		jmp	.L152
 3017      00
 3018              	.L172:
 3019              		.loc 3 71 0
 3020 146a 4889C7   		movq	%rax, %rdi
 3021 146d E8000000 		call	__cxa_begin_catch@PLT
 3021      00
 3022 1472 80BD0FFE 		cmpb	$0, -497(%rbp)
 3022      FFFF00
 3023 1479 7445     		je	.L159
 3024              	.LEHB83:
 3025              		.loc 3 71 0 discriminator 28
 3026 147b E8000000 		call	_ZN8UnitTest11CurrentTest7ResultsEv@PLT
 3026      00
 3027 1480 488B18   		movq	(%rax), %rbx
 3028 1483 488B85F8 		movq	-520(%rbp), %rax
 3028      FDFFFF
 3029 148a 488D4808 		leaq	8(%rax), %rcx
 3030 148e 488D8520 		leaq	-480(%rbp), %rax
 3030      FEFFFF
 3031 1495 BA470000 		movl	$71, %edx
 3031      00
 3032 149a 4889CE   		movq	%rcx, %rsi
 3033 149d 4889C7   		movq	%rax, %rdi
 3034 14a0 E8000000 		call	_ZN8UnitTest11TestDetailsC1ERKS0_i@PLT
 3034      00
 3035              		.loc 3 71 0 discriminator 33
 3036 14a5 488D8520 		leaq	-480(%rbp), %rax
 3036      FEFFFF
 3037 14ac 488D1500 		leaq	.LC7(%rip), %rdx
 3037      000000
 3038 14b3 4889C6   		movq	%rax, %rsi
 3039 14b6 4889DF   		movq	%rbx, %rdi
 3040 14b9 E8000000 		call	_ZN8UnitTest11TestResults13OnTestFailureERKNS_11TestDetailsEPKc@PLT
 3040      00
 3041 14be EB43     		jmp	.L160
 3042              	.L159:
 3043              		.loc 3 71 0 discriminator 29
 3044 14c0 E8000000 		call	_ZN8UnitTest11CurrentTest7ResultsEv@PLT
 3044      00
 3045 14c5 488B18   		movq	(%rax), %rbx
 3046 14c8 488B85F8 		movq	-520(%rbp), %rax
 3046      FDFFFF
 3047 14cf 488D4808 		leaq	8(%rax), %rcx
 3048 14d3 488D8520 		leaq	-480(%rbp), %rax
 3048      FEFFFF
 3049 14da BA470000 		movl	$71, %edx
 3049      00
 3050 14df 4889CE   		movq	%rcx, %rsi
 3051 14e2 4889C7   		movq	%rax, %rdi
 3052 14e5 E8000000 		call	_ZN8UnitTest11TestDetailsC1ERKS0_i@PLT
 3052      00
 3053              		.loc 3 71 0 discriminator 40
 3054 14ea 488D8520 		leaq	-480(%rbp), %rax
 3054      FEFFFF
 3055 14f1 488D1500 		leaq	.LC8(%rip), %rdx
 3055      000000
 3056 14f8 4889C6   		movq	%rax, %rsi
 3057 14fb 4889DF   		movq	%rbx, %rdi
 3058 14fe E8000000 		call	_ZN8UnitTest11TestResults13OnTestFailureERKNS_11TestDetailsEPKc@PLT
 3058      00
 3059              	.LEHE83:
 3060              	.L160:
 3061              	.LEHB84:
 3062              		.loc 3 71 0 discriminator 43
 3063 1503 E8000000 		call	__cxa_end_catch@PLT
 3063      00
 3064 1508 EB4D     		jmp	.L152
 3065              	.L168:
 3066 150a 4889C3   		movq	%rax, %rbx
 3067              	.LBB56:
 3068              		.loc 3 71 0
 3069 150d E8000000 		call	__cxa_end_catch@PLT
 3069      00
 3070 1512 4889D8   		movq	%rbx, %rax
 3071 1515 4889C7   		movq	%rax, %rdi
 3072 1518 E8000000 		call	_Unwind_Resume@PLT
 3072      00
 3073              	.LEHE84:
 3074              	.L170:
 3075 151d 4889C3   		movq	%rax, %rbx
 3076              	.LBE56:
 3077              	.LBB57:
 3078              	.LBB55:
 3079 1520 488D8540 		leaq	-448(%rbp), %rax
 3079      FEFFFF
 3080 1527 4889C7   		movq	%rax, %rdi
 3081 152a E8000000 		call	_ZN8UnitTest15MemoryOutStreamD1Ev
 3081      00
 3082 152f EB03     		jmp	.L163
 3083              	.L169:
 3084 1531 4889C3   		movq	%rax, %rbx
 3085              	.L163:
 3086              	.LBE55:
 3087 1534 E8000000 		call	__cxa_end_catch@PLT
 3087      00
 3088 1539 4889D8   		movq	%rbx, %rax
 3089 153c 4889C7   		movq	%rax, %rdi
 3090              	.LEHB85:
 3091 153f E8000000 		call	_Unwind_Resume@PLT
 3091      00
 3092              	.LEHE85:
 3093              	.L171:
 3094 1544 4889C3   		movq	%rax, %rbx
 3095              	.LBE57:
 3096 1547 E8000000 		call	__cxa_end_catch@PLT
 3096      00
 3097 154c 4889D8   		movq	%rbx, %rax
 3098 154f 4889C7   		movq	%rax, %rdi
 3099              	.LEHB86:
 3100 1552 E8000000 		call	_Unwind_Resume@PLT
 3100      00
 3101              	.LEHE86:
 3102              	.L152:
 3103 1557 488B45D8 		movq	-40(%rbp), %rax
 3104 155b 64483304 		xorq	%fs:40, %rax
 3104      25280000 
 3104      00
 3105 1564 7405     		je	.L165
 3106 1566 E8000000 		call	__stack_chk_fail@PLT
 3106      00
 3107              	.L165:
 3108 156b 4881C4F8 		addq	$504, %rsp
 3108      010000
 3109 1572 5B       		popq	%rbx
 3110 1573 415C     		popq	%r12
 3111 1575 415D     		popq	%r13
 3112 1577 5D       		popq	%rbp
 3113              		.cfi_def_cfa 7, 8
 3114 1578 C3       		ret
 3115              		.cfi_endproc
 3116              	.LFE1414:
 3117              		.section	.gcc_except_table
 3118              		.align 4
 3119              	.LLSDA1414:
 3120 01e0 FF       		.byte	0xff
 3121 01e1 9B       		.byte	0x9b
 3122 01e2 55       		.uleb128 .LLSDATT1414-.LLSDATTD1414
 3123              	.LLSDATTD1414:
 3124 01e3 01       		.byte	0x1
 3125 01e4 3E       		.uleb128 .LLSDACSE1414-.LLSDACSB1414
 3126              	.LLSDACSB1414:
 3127 01e5 45       		.uleb128 .LEHB76-.LFB1414
 3128 01e6 05       		.uleb128 .LEHE76-.LEHB76
 3129 01e7 9F01     		.uleb128 .L166-.LFB1414
 3130 01e9 05       		.uleb128 0x5
 3131 01ea 69       		.uleb128 .LEHB77-.LFB1414
 3132 01eb 05       		.uleb128 .LEHE77-.LEHB77
 3133 01ec 8201     		.uleb128 .L167-.LFB1414
 3134 01ee 07       		.uleb128 0x7
 3135 01ef 78       		.uleb128 .LEHB78-.LFB1414
 3136 01f0 05       		.uleb128 .LEHE78-.LEHB78
 3137 01f1 9F01     		.uleb128 .L166-.LFB1414
 3138 01f3 05       		.uleb128 0x5
 3139 01f4 C301     		.uleb128 .LEHB79-.LFB1414
 3140 01f6 8901     		.uleb128 .LEHE79-.LEHB79
 3141 01f8 9E05     		.uleb128 .L168-.LFB1414
 3142 01fa 00       		.uleb128 0
 3143 01fb EF02     		.uleb128 .LEHB80-.LFB1414
 3144 01fd 05       		.uleb128 .LEHE80-.LEHB80
 3145 01fe C505     		.uleb128 .L169-.LFB1414
 3146 0200 00       		.uleb128 0
 3147 0201 8503     		.uleb128 .LEHB81-.LFB1414
 3148 0203 60       		.uleb128 .LEHE81-.LEHB81
 3149 0204 B105     		.uleb128 .L170-.LFB1414
 3150 0206 00       		.uleb128 0
 3151 0207 EF03     		.uleb128 .LEHB82-.LFB1414
 3152 0209 05       		.uleb128 .LEHE82-.LEHB82
 3153 020a C505     		.uleb128 .L169-.LFB1414
 3154 020c 00       		.uleb128 0
 3155 020d 8F04     		.uleb128 .LEHB83-.LFB1414
 3156 020f 8801     		.uleb128 .LEHE83-.LEHB83
 3157 0211 D805     		.uleb128 .L171-.LFB1414
 3158 0213 00       		.uleb128 0
 3159 0214 9705     		.uleb128 .LEHB84-.LFB1414
 3160 0216 1A       		.uleb128 .LEHE84-.LEHB84
 3161 0217 00       		.uleb128 0
 3162 0218 00       		.uleb128 0
 3163 0219 D305     		.uleb128 .LEHB85-.LFB1414
 3164 021b 05       		.uleb128 .LEHE85-.LEHB85
 3165 021c 00       		.uleb128 0
 3166 021d 00       		.uleb128 0
 3167 021e E605     		.uleb128 .LEHB86-.LFB1414
 3168 0220 05       		.uleb128 .LEHE86-.LEHB86
 3169 0221 00       		.uleb128 0
 3170 0222 00       		.uleb128 0
 3171              	.LLSDACSE1414:
 3172 0223 03       		.byte	0x3
 3173 0224 00       		.byte	0
 3174 0225 02       		.byte	0x2
 3175 0226 7D       		.byte	0x7d
 3176 0227 01       		.byte	0x1
 3177 0228 7D       		.byte	0x7d
 3178 0229 00       		.byte	0
 3179 022a 7D       		.byte	0x7d
 3180 022b 00       		.align 4
 3181 022c 00000000 		.long	0
 3182              	
 3183 0230 00000000 		.long	DW.ref._ZTISt9exception-.
 3184 0234 00000000 		.long	DW.ref._ZTIN8UnitTest15AssertExceptionE-.
 3185              	.LLSDATT1414:
 3186              		.text
 3188              		.section	.rodata
 3189              	.LC18:
 3190 02c1 6661696C 		.string	"failure"
 3190      75726500 
 3191              	.LC19:
 3192 02c9 72657375 		.string	"result.failed == true"
 3192      6C742E66 
 3192      61696C65 
 3192      64203D3D 
 3192      20747275 
 3193 02df 00       		.align 8
 3194              	.LC20:
 3195 02e0 556E6861 		.string	"Unhandled exception in CHECK(result.failed == true)"
 3195      6E646C65 
 3195      64206578 
 3195      63657074 
 3195      696F6E20 
 3196 0314 00000000 		.align 8
 3197              	.LC21:
 3198 0318 556E6861 		.string	"Unhandled exception in CHECK_EQUAL(fileName.c_str(), result.failureFile)"
 3198      6E646C65 
 3198      64206578 
 3198      63657074 
 3198      696F6E20 
 3199              		.text
 3200 1579 90       		.align 2
 3202              	_ZN8UnitTest12_GLOBAL__N_165DeferredTestReporterFixtureReportFailureSavesFailureDetailsHelper7RunIm
 3203              	.LFB1418:
  72:TestDeferredTestReporter.cpp **** {
 3204              		.loc 3 72 0 is_stmt 1
 3205              		.cfi_startproc
 3206              		.cfi_personality 0x9b,DW.ref.__gxx_personality_v0
 3207              		.cfi_lsda 0x1b,.LLSDA1418
 3208 157a 55       		pushq	%rbp
 3209              		.cfi_def_cfa_offset 16
 3210              		.cfi_offset 6, -16
 3211 157b 4889E5   		movq	%rsp, %rbp
 3212              		.cfi_def_cfa_register 6
 3213 157e 53       		pushq	%rbx
 3214 157f 4883EC68 		subq	$104, %rsp
 3215              		.cfi_offset 3, -24
 3216 1583 48897D98 		movq	%rdi, -104(%rbp)
 3217              		.loc 3 72 0
 3218 1587 64488B04 		movq	%fs:40, %rax
 3218      25280000 
 3218      00
 3219 1590 488945E8 		movq	%rax, -24(%rbp)
 3220 1594 31C0     		xorl	%eax, %eax
  73:TestDeferredTestReporter.cpp ****     char const* failure = "failure";
 3221              		.loc 3 73 0
 3222 1596 488D0500 		leaq	.LC18(%rip), %rax
 3222      000000
 3223 159d 488945B0 		movq	%rax, -80(%rbp)
  74:TestDeferredTestReporter.cpp **** 
  75:TestDeferredTestReporter.cpp ****     reporter.ReportTestStart(details);
 3224              		.loc 3 75 0
 3225 15a1 488B4598 		movq	-104(%rbp), %rax
 3226 15a5 488B5598 		movq	-104(%rbp), %rdx
 3227 15a9 4881C288 		addq	$136, %rdx
 3227      000000
 3228 15b0 4889D6   		movq	%rdx, %rsi
 3229 15b3 4889C7   		movq	%rax, %rdi
 3230              	.LEHB87:
 3231 15b6 E8000000 		call	_ZN8UnitTest20DeferredTestReporter15ReportTestStartERKNS_11TestDetailsE@PLT
 3231      00
  76:TestDeferredTestReporter.cpp ****     reporter.ReportFailure(details, failure);
 3232              		.loc 3 76 0
 3233 15bb 488B4598 		movq	-104(%rbp), %rax
 3234 15bf 488B5598 		movq	-104(%rbp), %rdx
 3235 15c3 488D8A88 		leaq	136(%rdx), %rcx
 3235      000000
 3236 15ca 488B55B0 		movq	-80(%rbp), %rdx
 3237 15ce 4889CE   		movq	%rcx, %rsi
 3238 15d1 4889C7   		movq	%rax, %rdi
 3239 15d4 E8000000 		call	_ZN8UnitTest20DeferredTestReporter13ReportFailureERKNS_11TestDetailsEPKc@PLT
 3239      00
  77:TestDeferredTestReporter.cpp **** 
  78:TestDeferredTestReporter.cpp ****     DeferredTestResult const& result = reporter.GetResults().at(0);
 3240              		.loc 3 78 0
 3241 15d9 488B4598 		movq	-104(%rbp), %rax
 3242 15dd 4889C7   		movq	%rax, %rdi
 3243 15e0 E8000000 		call	_ZN8UnitTest20DeferredTestReporter10GetResultsEv@PLT
 3243      00
 3244 15e5 BE000000 		movl	$0, %esi
 3244      00
 3245 15ea 4889C7   		movq	%rax, %rdi
 3246 15ed E8000000 		call	_ZNSt6vectorIN8UnitTest18DeferredTestResultESaIS1_EE2atEm
 3246      00
 3247              	.LEHE87:
 3248 15f2 488945B8 		movq	%rax, -72(%rbp)
  79:TestDeferredTestReporter.cpp ****     CHECK(result.failed == true);
 3249              		.loc 3 79 0
 3250 15f6 488B45B8 		movq	-72(%rbp), %rax
 3251 15fa 0FB6407C 		movzbl	124(%rax), %eax
 3252 15fe 0FB6C0   		movzbl	%al, %eax
 3253 1601 89C7     		movl	%eax, %edi
 3254 1603 E8000000 		call	_ZN8UnitTest5CheckIbEEbT_
 3254      00
 3255 1608 83F001   		xorl	$1, %eax
 3256 160b 84C0     		testb	%al, %al
 3257 160d 743A     		je	.L174
 3258              	.LEHB88:
 3259              		.loc 3 79 0 is_stmt 0 discriminator 1
 3260 160f E8000000 		call	_ZN8UnitTest11CurrentTest7ResultsEv@PLT
 3260      00
 3261 1614 488B18   		movq	(%rax), %rbx
 3262 1617 E8000000 		call	_ZN8UnitTest11CurrentTest7DetailsEv@PLT
 3262      00
 3263              		.loc 3 79 0 discriminator 2
 3264 161c 488B08   		movq	(%rax), %rcx
 3265 161f 488D45C0 		leaq	-64(%rbp), %rax
 3266 1623 BA4F0000 		movl	$79, %edx
 3266      00
 3267 1628 4889CE   		movq	%rcx, %rsi
 3268 162b 4889C7   		movq	%rax, %rdi
 3269 162e E8000000 		call	_ZN8UnitTest11TestDetailsC1ERKS0_i@PLT
 3269      00
 3270              		.loc 3 79 0 discriminator 4
 3271 1633 488D45C0 		leaq	-64(%rbp), %rax
 3272 1637 488D1500 		leaq	.LC19(%rip), %rdx
 3272      000000
 3273 163e 4889C6   		movq	%rax, %rsi
 3274 1641 4889DF   		movq	%rbx, %rdi
 3275 1644 E8000000 		call	_ZN8UnitTest11TestResults13OnTestFailureERKNS_11TestDetailsEPKc@PLT
 3275      00
 3276              	.LEHE88:
 3277              	.L174:
 3278              	.LEHB89:
  80:TestDeferredTestReporter.cpp ****     CHECK_EQUAL(fileName.c_str(), result.failureFile);
 3279              		.loc 3 80 0 is_stmt 1
 3280 1649 E8000000 		call	_ZN8UnitTest11CurrentTest7DetailsEv@PLT
 3280      00
 3281 164e 488B08   		movq	(%rax), %rcx
 3282 1651 488D45C0 		leaq	-64(%rbp), %rax
 3283 1655 BA500000 		movl	$80, %edx
 3283      00
 3284 165a 4889CE   		movq	%rcx, %rsi
 3285 165d 4889C7   		movq	%rax, %rdi
 3286 1660 E8000000 		call	_ZN8UnitTest11TestDetailsC1ERKS0_i@PLT
 3286      00
 3287              		.loc 3 80 0 is_stmt 0 discriminator 2
 3288 1665 488B45B8 		movq	-72(%rbp), %rax
 3289 1669 488D5840 		leaq	64(%rax), %rbx
 3290 166d 488B4598 		movq	-104(%rbp), %rax
 3291 1671 4883C060 		addq	$96, %rax
 3292 1675 4889C7   		movq	%rax, %rdi
 3293 1678 E8000000 		call	_ZNKSt7__cxx1112basic_stringIcSt11char_traitsIcESaIcEE5c_strEv@PLT
 3293      00
 3294 167d 488945A8 		movq	%rax, -88(%rbp)
 3295 1681 E8000000 		call	_ZN8UnitTest11CurrentTest7ResultsEv@PLT
 3295      00
 3296              		.loc 3 80 0 discriminator 4
 3297 1686 488B00   		movq	(%rax), %rax
 3298 1689 488D55C0 		leaq	-64(%rbp), %rdx
 3299 168d 488D75A8 		leaq	-88(%rbp), %rsi
 3300 1691 4889D1   		movq	%rdx, %rcx
 3301 1694 4889DA   		movq	%rbx, %rdx
 3302 1697 4889C7   		movq	%rax, %rdi
 3303 169a E8000000 		call	_ZN8UnitTest10CheckEqualIPKcNSt7__cxx1112basic_stringIcSt11char_traitsIcESaIcEEEEEvRNS_11Test
 3303      00
 3304              	.LEHE89:
  81:TestDeferredTestReporter.cpp **** }
 3305              		.loc 3 81 0 is_stmt 1
 3306 169f E9BB0000 		jmp	.L173
 3306      00
 3307              	.L181:
  79:TestDeferredTestReporter.cpp ****     CHECK(result.failed == true);
 3308              		.loc 3 79 0
 3309 16a4 4889C7   		movq	%rax, %rdi
 3310 16a7 E8000000 		call	__cxa_begin_catch@PLT
 3310      00
 3311              	.LEHB90:
 3312 16ac E8000000 		call	_ZN8UnitTest11CurrentTest7ResultsEv@PLT
 3312      00
 3313 16b1 488B18   		movq	(%rax), %rbx
 3314 16b4 E8000000 		call	_ZN8UnitTest11CurrentTest7DetailsEv@PLT
 3314      00
  79:TestDeferredTestReporter.cpp ****     CHECK(result.failed == true);
 3315              		.loc 3 79 0 is_stmt 0 discriminator 8
 3316 16b9 488B08   		movq	(%rax), %rcx
 3317 16bc 488D45C0 		leaq	-64(%rbp), %rax
 3318 16c0 BA4F0000 		movl	$79, %edx
 3318      00
 3319 16c5 4889CE   		movq	%rcx, %rsi
 3320 16c8 4889C7   		movq	%rax, %rdi
 3321 16cb E8000000 		call	_ZN8UnitTest11TestDetailsC1ERKS0_i@PLT
 3321      00
  79:TestDeferredTestReporter.cpp ****     CHECK(result.failed == true);
 3322              		.loc 3 79 0 discriminator 12
 3323 16d0 488D45C0 		leaq	-64(%rbp), %rax
 3324 16d4 488D1500 		leaq	.LC20(%rip), %rdx
 3324      000000
 3325 16db 4889C6   		movq	%rax, %rsi
 3326 16de 4889DF   		movq	%rbx, %rdi
 3327 16e1 E8000000 		call	_ZN8UnitTest11TestResults13OnTestFailureERKNS_11TestDetailsEPKc@PLT
 3327      00
 3328              	.LEHE90:
 3329              	.LEHB91:
  79:TestDeferredTestReporter.cpp ****     CHECK(result.failed == true);
 3330              		.loc 3 79 0 discriminator 14
 3331 16e6 E8000000 		call	__cxa_end_catch@PLT
 3331      00
 3332              	.LEHE91:
 3333 16eb E959FFFF 		jmp	.L174
 3333      FF
 3334              	.L182:
 3335 16f0 4889C3   		movq	%rax, %rbx
  79:TestDeferredTestReporter.cpp ****     CHECK(result.failed == true);
 3336              		.loc 3 79 0
 3337 16f3 E8000000 		call	__cxa_end_catch@PLT
 3337      00
 3338 16f8 4889D8   		movq	%rbx, %rax
 3339 16fb 4889C7   		movq	%rax, %rdi
 3340              	.LEHB92:
 3341 16fe E8000000 		call	_Unwind_Resume@PLT
 3341      00
 3342              	.LEHE92:
 3343              	.L183:
  80:TestDeferredTestReporter.cpp ****     CHECK_EQUAL(fileName.c_str(), result.failureFile);
 3344              		.loc 3 80 0 is_stmt 1
 3345 1703 4889C7   		movq	%rax, %rdi
 3346 1706 E8000000 		call	__cxa_begin_catch@PLT
 3346      00
 3347              	.LEHB93:
 3348 170b E8000000 		call	_ZN8UnitTest11CurrentTest7ResultsEv@PLT
 3348      00
 3349 1710 488B18   		movq	(%rax), %rbx
 3350 1713 E8000000 		call	_ZN8UnitTest11CurrentTest7DetailsEv@PLT
 3350      00
  80:TestDeferredTestReporter.cpp ****     CHECK_EQUAL(fileName.c_str(), result.failureFile);
 3351              		.loc 3 80 0 is_stmt 0 discriminator 10
 3352 1718 488B08   		movq	(%rax), %rcx
 3353 171b 488D45C0 		leaq	-64(%rbp), %rax
 3354 171f BA500000 		movl	$80, %edx
 3354      00
 3355 1724 4889CE   		movq	%rcx, %rsi
 3356 1727 4889C7   		movq	%rax, %rdi
 3357 172a E8000000 		call	_ZN8UnitTest11TestDetailsC1ERKS0_i@PLT
 3357      00
  80:TestDeferredTestReporter.cpp ****     CHECK_EQUAL(fileName.c_str(), result.failureFile);
 3358              		.loc 3 80 0 discriminator 14
 3359 172f 488D45C0 		leaq	-64(%rbp), %rax
 3360 1733 488D1500 		leaq	.LC21(%rip), %rdx
 3360      000000
 3361 173a 4889C6   		movq	%rax, %rsi
 3362 173d 4889DF   		movq	%rbx, %rdi
 3363 1740 E8000000 		call	_ZN8UnitTest11TestResults13OnTestFailureERKNS_11TestDetailsEPKc@PLT
 3363      00
 3364              	.LEHE93:
 3365              	.LEHB94:
  80:TestDeferredTestReporter.cpp ****     CHECK_EQUAL(fileName.c_str(), result.failureFile);
 3366              		.loc 3 80 0 discriminator 16
 3367 1745 E8000000 		call	__cxa_end_catch@PLT
 3367      00
 3368              	.LEHE94:
 3369              		.loc 3 81 0 is_stmt 1 discriminator 16
 3370 174a EB13     		jmp	.L173
 3371              	.L184:
 3372 174c 4889C3   		movq	%rax, %rbx
  80:TestDeferredTestReporter.cpp ****     CHECK_EQUAL(fileName.c_str(), result.failureFile);
 3373              		.loc 3 80 0
 3374 174f E8000000 		call	__cxa_end_catch@PLT
 3374      00
 3375 1754 4889D8   		movq	%rbx, %rax
 3376 1757 4889C7   		movq	%rax, %rdi
 3377              	.LEHB95:
 3378 175a E8000000 		call	_Unwind_Resume@PLT
 3378      00
 3379              	.LEHE95:
 3380              	.L173:
 3381              		.loc 3 81 0
 3382 175f 488B45E8 		movq	-24(%rbp), %rax
 3383 1763 64483304 		xorq	%fs:40, %rax
 3383      25280000 
 3383      00
 3384 176c 7405     		je	.L180
 3385 176e E8000000 		call	__stack_chk_fail@PLT
 3385      00
 3386              	.L180:
 3387 1773 4883C468 		addq	$104, %rsp
 3388 1777 5B       		popq	%rbx
 3389 1778 5D       		popq	%rbp
 3390              		.cfi_def_cfa 7, 8
 3391 1779 C3       		ret
 3392              		.cfi_endproc
 3393              	.LFE1418:
 3394              		.section	.gcc_except_table
 3395              		.align 4
 3396              	.LLSDA1418:
 3397 0238 FF       		.byte	0xff
 3398 0239 9B       		.byte	0x9b
 3399 023a 39       		.uleb128 .LLSDATT1418-.LLSDATTD1418
 3400              	.LLSDATTD1418:
 3401 023b 01       		.byte	0x1
 3402 023c 30       		.uleb128 .LLSDACSE1418-.LLSDACSB1418
 3403              	.LLSDACSB1418:
 3404 023d 3C       		.uleb128 .LEHB87-.LFB1418
 3405 023e 3C       		.uleb128 .LEHE87-.LEHB87
 3406 023f 00       		.uleb128 0
 3407 0240 00       		.uleb128 0
 3408 0241 9501     		.uleb128 .LEHB88-.LFB1418
 3409 0243 3A       		.uleb128 .LEHE88-.LEHB88
 3410 0244 AA02     		.uleb128 .L181-.LFB1418
 3411 0246 01       		.uleb128 0x1
 3412 0247 CF01     		.uleb128 .LEHB89-.LFB1418
 3413 0249 56       		.uleb128 .LEHE89-.LEHB89
 3414 024a 8903     		.uleb128 .L183-.LFB1418
 3415 024c 01       		.uleb128 0x1
 3416 024d B202     		.uleb128 .LEHB90-.LFB1418
 3417 024f 3A       		.uleb128 .LEHE90-.LEHB90
 3418 0250 F602     		.uleb128 .L182-.LFB1418
 3419 0252 00       		.uleb128 0
 3420 0253 EC02     		.uleb128 .LEHB91-.LFB1418
 3421 0255 05       		.uleb128 .LEHE91-.LEHB91
 3422 0256 00       		.uleb128 0
 3423 0257 00       		.uleb128 0
 3424 0258 8403     		.uleb128 .LEHB92-.LFB1418
 3425 025a 05       		.uleb128 .LEHE92-.LEHB92
 3426 025b 00       		.uleb128 0
 3427 025c 00       		.uleb128 0
 3428 025d 9103     		.uleb128 .LEHB93-.LFB1418
 3429 025f 3A       		.uleb128 .LEHE93-.LEHB93
 3430 0260 D203     		.uleb128 .L184-.LFB1418
 3431 0262 00       		.uleb128 0
 3432 0263 CB03     		.uleb128 .LEHB94-.LFB1418
 3433 0265 05       		.uleb128 .LEHE94-.LEHB94
 3434 0266 00       		.uleb128 0
 3435 0267 00       		.uleb128 0
 3436 0268 E003     		.uleb128 .LEHB95-.LFB1418
 3437 026a 05       		.uleb128 .LEHE95-.LEHB95
 3438 026b 00       		.uleb128 0
 3439 026c 00       		.uleb128 0
 3440              	.LLSDACSE1418:
 3441 026d 01       		.byte	0x1
 3442 026e 00       		.byte	0
 3443 026f 00       		.align 4
 3444 0270 00000000 		.long	0
 3445              	
 3446              	.LLSDATT1418:
 3447              		.text
 3449              		.align 2
 3451              	_ZN8UnitTest12_GLOBAL__N_184DeferredTestReporterFixtureReportFailureSavesFailureDetailsForMultipleF
 3452              	.LFB1420:
  82:TestDeferredTestReporter.cpp **** 
  83:TestDeferredTestReporter.cpp **** TEST_FIXTURE(DeferredTestReporterFixture, ReportFailureSavesFailureDetailsForMultipleFailures)
 3453              		.loc 3 83 0
 3454              		.cfi_startproc
 3455 177a 55       		pushq	%rbp
 3456              		.cfi_def_cfa_offset 16
 3457              		.cfi_offset 6, -16
 3458 177b 4889E5   		movq	%rsp, %rbp
 3459              		.cfi_def_cfa_register 6
 3460 177e 4883EC10 		subq	$16, %rsp
 3461 1782 48897DF8 		movq	%rdi, -8(%rbp)
 3462 1786 488975F0 		movq	%rsi, -16(%rbp)
 3463              	.LBB58:
 3464              		.loc 3 83 0
 3465 178a 488B45F8 		movq	-8(%rbp), %rax
 3466 178e 4889C7   		movq	%rax, %rdi
 3467 1791 E8AEE8FF 		call	_ZN8UnitTest12_GLOBAL__N_127DeferredTestReporterFixtureC2Ev
 3467      FF
 3468 1796 488B45F8 		movq	-8(%rbp), %rax
 3469 179a 488B55F0 		movq	-16(%rbp), %rdx
 3470 179e 488990A8 		movq	%rdx, 168(%rax)
 3470      000000
 3471              	.LBE58:
 3472 17a5 90       		nop
 3473 17a6 C9       		leave
 3474              		.cfi_def_cfa 7, 8
 3475 17a7 C3       		ret
 3476              		.cfi_endproc
 3477              	.LFE1420:
 3479              		.set	_ZN8UnitTest12_GLOBAL__N_184DeferredTestReporterFixtureReportFailureSavesFailureDetailsForMul
 3480              		.section	.rodata
 3481 0361 00000000 		.align 8
 3481      000000
 3482              	.LC22:
 3483 0368 5265706F 		.string	"ReportFailureSavesFailureDetailsForMultipleFailures"
 3483      72744661 
 3483      696C7572 
 3483      65536176 
 3483      65734661 
 3484              		.text
 3485              		.align 2
 3487              	_ZN8UnitTest12_GLOBAL__N_182TestDeferredTestReporterFixtureReportFailureSavesFailureDetailsForMulti
 3488              	.LFB1423:
 3489              		.loc 3 83 0
 3490              		.cfi_startproc
 3491 17a8 55       		pushq	%rbp
 3492              		.cfi_def_cfa_offset 16
 3493              		.cfi_offset 6, -16
 3494 17a9 4889E5   		movq	%rsp, %rbp
 3495              		.cfi_def_cfa_register 6
 3496 17ac 53       		pushq	%rbx
 3497 17ad 4883EC18 		subq	$24, %rsp
 3498              		.cfi_offset 3, -24
 3499 17b1 48897DE8 		movq	%rdi, -24(%rbp)
 3500              	.LBB59:
 3501              		.loc 3 83 0
 3502 17b5 488B5DE8 		movq	-24(%rbp), %rbx
 3503 17b9 E8000000 		call	_ZN13UnitTestSuite12GetSuiteNameEv
 3503      00
 3504 17be 41B85300 		movl	$83, %r8d
 3504      0000
 3505 17c4 488D0D00 		leaq	.LC4(%rip), %rcx
 3505      000000
 3506 17cb 4889C2   		movq	%rax, %rdx
 3507 17ce 488D3500 		leaq	.LC22(%rip), %rsi
 3507      000000
 3508 17d5 4889DF   		movq	%rbx, %rdi
 3509 17d8 E8000000 		call	_ZN8UnitTest4TestC2EPKcS2_S2_i@PLT
 3509      00
 3510 17dd 488D1500 		leaq	16+_ZTVN8UnitTest12_GLOBAL__N_182TestDeferredTestReporterFixtureReportFailureSavesFailureDeta
 3510      000000
 3511 17e4 488B45E8 		movq	-24(%rbp), %rax
 3512 17e8 488910   		movq	%rdx, (%rax)
 3513              	.LBE59:
 3514 17eb 90       		nop
 3515 17ec 4883C418 		addq	$24, %rsp
 3516 17f0 5B       		popq	%rbx
 3517 17f1 5D       		popq	%rbp
 3518              		.cfi_def_cfa 7, 8
 3519 17f2 C3       		ret
 3520              		.cfi_endproc
 3521              	.LFE1423:
 3523              		.set	_ZN8UnitTest12_GLOBAL__N_182TestDeferredTestReporterFixtureReportFailureSavesFailureDetailsFo
 3524              		.local	_ZN8UnitTest12_GLOBAL__N_190testDeferredTestReporterFixtureReportFailureSavesFailureDetails
 3525              		.comm	_ZN8UnitTest12_GLOBAL__N_190testDeferredTestReporterFixtureReportFailureSavesFailureDetailsF
 3526              		.local	_ZN8UnitTest12_GLOBAL__N_183adderDeferredTestReporterFixtureReportFailureSavesFailureDetail
 3527              		.comm	_ZN8UnitTest12_GLOBAL__N_183adderDeferredTestReporterFixtureReportFailureSavesFailureDetails
 3528 17f3 90       		.align 2
 3530              	_ZN8UnitTest12_GLOBAL__N_184DeferredTestReporterFixtureReportFailureSavesFailureDetailsForMultipleF
 3531              	.LFB1427:
 3532              		.loc 3 83 0
 3533              		.cfi_startproc
 3534 17f4 55       		pushq	%rbp
 3535              		.cfi_def_cfa_offset 16
 3536              		.cfi_offset 6, -16
 3537 17f5 4889E5   		movq	%rsp, %rbp
 3538              		.cfi_def_cfa_register 6
 3539 17f8 4883EC10 		subq	$16, %rsp
 3540 17fc 48897DF8 		movq	%rdi, -8(%rbp)
 3541              	.LBB60:
 3542              		.loc 3 83 0
 3543 1800 488B45F8 		movq	-8(%rbp), %rax
 3544 1804 4889C7   		movq	%rax, %rdi
 3545 1807 E816EAFF 		call	_ZN8UnitTest12_GLOBAL__N_127DeferredTestReporterFixtureD2Ev
 3545      FF
 3546              	.LBE60:
 3547 180c 90       		nop
 3548 180d C9       		leave
 3549              		.cfi_def_cfa 7, 8
 3550 180e C3       		ret
 3551              		.cfi_endproc
 3552              	.LFE1427:
 3554              		.set	_ZN8UnitTest12_GLOBAL__N_184DeferredTestReporterFixtureReportFailureSavesFailureDetailsForMul
 3555 180f 90       		.align 2
 3557              	_ZNK8UnitTest12_GLOBAL__N_182TestDeferredTestReporterFixtureReportFailureSavesFailureDetailsForMult
 3558              	.LFB1425:
 3559              		.loc 3 83 0
 3560              		.cfi_startproc
 3561              		.cfi_personality 0x9b,DW.ref.__gxx_personality_v0
 3562              		.cfi_lsda 0x1b,.LLSDA1425
 3563 1810 55       		pushq	%rbp
 3564              		.cfi_def_cfa_offset 16
 3565              		.cfi_offset 6, -16
 3566 1811 4889E5   		movq	%rsp, %rbp
 3567              		.cfi_def_cfa_register 6
 3568 1814 4155     		pushq	%r13
 3569 1816 4154     		pushq	%r12
 3570 1818 53       		pushq	%rbx
 3571 1819 4881ECF8 		subq	$504, %rsp
 3571      010000
 3572              		.cfi_offset 13, -24
 3573              		.cfi_offset 12, -32
 3574              		.cfi_offset 3, -40
 3575 1820 4889BDF8 		movq	%rdi, -520(%rbp)
 3575      FDFFFF
 3576              		.loc 3 83 0
 3577 1827 64488B04 		movq	%fs:40, %rax
 3577      25280000 
 3577      00
 3578 1830 488945D8 		movq	%rax, -40(%rbp)
 3579 1834 31C0     		xorl	%eax, %eax
 3580 1836 C6850FFE 		movb	$0, -497(%rbp)
 3580      FFFF00
 3581              	.LBB61:
 3582 183d 488B85F8 		movq	-520(%rbp), %rax
 3582      FDFFFF
 3583 1844 488D5008 		leaq	8(%rax), %rdx
 3584 1848 488D8540 		leaq	-448(%rbp), %rax
 3584      FEFFFF
 3585 184f 4889D6   		movq	%rdx, %rsi
 3586 1852 4889C7   		movq	%rax, %rdi
 3587              	.LEHB96:
 3588 1855 E820FFFF 		call	_ZN8UnitTest12_GLOBAL__N_184DeferredTestReporterFixtureReportFailureSavesFailureDetailsForMul
 3588      FF
 3589              	.LEHE96:
 3590              		.loc 3 83 0 is_stmt 0 discriminator 1
 3591 185a C6850FFE 		movb	$1, -497(%rbp)
 3591      FFFF01
 3592 1861 488B85F8 		movq	-520(%rbp), %rax
 3592      FDFFFF
 3593 1868 488D5008 		leaq	8(%rax), %rdx
 3594 186c 488D8540 		leaq	-448(%rbp), %rax
 3594      FEFFFF
 3595 1873 4889D6   		movq	%rdx, %rsi
 3596 1876 4889C7   		movq	%rax, %rdi
 3597              	.LEHB97:
 3598 1879 E80B1600 		call	_ZN8UnitTest11ExecuteTestINS_12_GLOBAL__N_184DeferredTestReporterFixtureReportFailureSavesFai
 3598      00
 3599              	.LEHE97:
 3600              		.loc 3 83 0 discriminator 3
 3601 187e 488D8540 		leaq	-448(%rbp), %rax
 3601      FEFFFF
 3602 1885 4889C7   		movq	%rax, %rdi
 3603              	.LEHB98:
 3604 1888 E867FFFF 		call	_ZN8UnitTest12_GLOBAL__N_184DeferredTestReporterFixtureReportFailureSavesFailureDetailsForMul
 3604      FF
 3605              	.LEHE98:
 3606              	.LBE61:
 3607              		.loc 3 83 0
 3608 188d E9690200 		jmp	.L188
 3608      00
 3609              	.L203:
 3610 1892 4989C4   		movq	%rax, %r12
 3611 1895 4889D3   		movq	%rdx, %rbx
 3612              	.LBB62:
 3613 1898 488D8540 		leaq	-448(%rbp), %rax
 3613      FEFFFF
 3614 189f 4889C7   		movq	%rax, %rdi
 3615 18a2 E84DFFFF 		call	_ZN8UnitTest12_GLOBAL__N_184DeferredTestReporterFixtureReportFailureSavesFailureDetailsForMul
 3615      FF
 3616 18a7 4C89E0   		movq	%r12, %rax
 3617 18aa 4889DA   		movq	%rbx, %rdx
 3618 18ad EB00     		jmp	.L190
 3619              	.L202:
 3620              	.L190:
 3621 18af 4883FA01 		cmpq	$1, %rdx
 3622 18b3 740F     		je	.L192
 3623 18b5 4883FA02 		cmpq	$2, %rdx
 3624 18b9 0F84A700 		je	.L193
 3624      0000
 3625 18bf E94A0100 		jmp	.L208
 3625      00
 3626              	.L192:
 3627              	.LBE62:
 3628              	.LBB63:
 3629 18c4 4889C7   		movq	%rax, %rdi
 3630 18c7 E8000000 		call	__cxa_begin_catch@PLT
 3630      00
 3631 18cc 48898518 		movq	%rax, -488(%rbp)
 3631      FEFFFF
 3632              	.LEHB99:
 3633 18d3 E8000000 		call	_ZN8UnitTest11CurrentTest7ResultsEv@PLT
 3633      00
 3634 18d8 488B18   		movq	(%rax), %rbx
 3635 18db 488B8518 		movq	-488(%rbp), %rax
 3635      FEFFFF
 3636 18e2 488B00   		movq	(%rax), %rax
 3637 18e5 4883C010 		addq	$16, %rax
 3638 18e9 488B00   		movq	(%rax), %rax
 3639 18ec 488B9518 		movq	-488(%rbp), %rdx
 3639      FEFFFF
 3640 18f3 4889D7   		movq	%rdx, %rdi
 3641 18f6 FFD0     		call	*%rax
 3642              	.LVL8:
 3643 18f8 4989C4   		movq	%rax, %r12
 3644 18fb 488B8518 		movq	-488(%rbp), %rax
 3644      FEFFFF
 3645 1902 4889C7   		movq	%rax, %rdi
 3646 1905 E8000000 		call	_ZNK8UnitTest15AssertException10LineNumberEv@PLT
 3646      00
 3647              		.loc 3 83 0 discriminator 5
 3648 190a 4189C5   		movl	%eax, %r13d
 3649 190d 488B8518 		movq	-488(%rbp), %rax
 3649      FEFFFF
 3650 1914 4889C7   		movq	%rax, %rdi
 3651 1917 E8000000 		call	_ZNK8UnitTest15AssertException8FilenameEv@PLT
 3651      00
 3652              		.loc 3 83 0 discriminator 7
 3653 191c 4889C1   		movq	%rax, %rcx
 3654 191f 488B85F8 		movq	-520(%rbp), %rax
 3654      FDFFFF
 3655 1926 488B5008 		movq	8(%rax), %rdx
 3656 192a 488B85F8 		movq	-520(%rbp), %rax
 3656      FDFFFF
 3657 1931 488B7010 		movq	16(%rax), %rsi
 3658 1935 488D8520 		leaq	-480(%rbp), %rax
 3658      FEFFFF
 3659 193c 4589E8   		movl	%r13d, %r8d
 3660 193f 4889C7   		movq	%rax, %rdi
 3661 1942 E8000000 		call	_ZN8UnitTest11TestDetailsC1EPKcS2_S2_i@PLT
 3661      00
 3662              		.loc 3 83 0 discriminator 11
 3663 1947 488D8520 		leaq	-480(%rbp), %rax
 3663      FEFFFF
 3664 194e 4C89E2   		movq	%r12, %rdx
 3665 1951 4889C6   		movq	%rax, %rsi
 3666 1954 4889DF   		movq	%rbx, %rdi
 3667 1957 E8000000 		call	_ZN8UnitTest11TestResults13OnTestFailureERKNS_11TestDetailsEPKc@PLT
 3667      00
 3668              	.LEHE99:
 3669              		.loc 3 83 0 discriminator 13
 3670 195c E8000000 		call	__cxa_end_catch@PLT
 3670      00
 3671              	.LBE63:
 3672 1961 E9950100 		jmp	.L188
 3672      00
 3673              	.L193:
 3674              	.LBB64:
 3675              		.loc 3 83 0
 3676 1966 4889C7   		movq	%rax, %rdi
 3677 1969 E8000000 		call	__cxa_begin_catch@PLT
 3677      00
 3678 196e 48898510 		movq	%rax, -496(%rbp)
 3678      FEFFFF
 3679              	.LBB65:
 3680 1975 488D8540 		leaq	-448(%rbp), %rax
 3680      FEFFFF
 3681 197c 4889C7   		movq	%rax, %rdi
 3682              	.LEHB100:
 3683 197f E8000000 		call	_ZN8UnitTest15MemoryOutStreamC1Ev
 3683      00
 3684              	.LEHE100:
 3685              		.loc 3 83 0 discriminator 15
 3686 1984 488D8540 		leaq	-448(%rbp), %rax
 3686      FEFFFF
 3687 198b 488D3500 		leaq	.LC6(%rip), %rsi
 3687      000000
 3688 1992 4889C7   		movq	%rax, %rdi
 3689              	.LEHB101:
 3690 1995 E8000000 		call	_ZStlsISt11char_traitsIcEERSt13basic_ostreamIcT_ES5_PKc@PLT
 3690      00
 3691 199a 4889C3   		movq	%rax, %rbx
 3692 199d 488B8510 		movq	-496(%rbp), %rax
 3692      FEFFFF
 3693 19a4 488B00   		movq	(%rax), %rax
 3694 19a7 4883C010 		addq	$16, %rax
 3695 19ab 488B00   		movq	(%rax), %rax
 3696 19ae 488B9510 		movq	-496(%rbp), %rdx
 3696      FEFFFF
 3697 19b5 4889D7   		movq	%rdx, %rdi
 3698 19b8 FFD0     		call	*%rax
 3699              	.LVL9:
 3700 19ba 4889C6   		movq	%rax, %rsi
 3701 19bd 4889DF   		movq	%rbx, %rdi
 3702 19c0 E8000000 		call	_ZStlsISt11char_traitsIcEERSt13basic_ostreamIcT_ES5_PKc@PLT
 3702      00
 3703              		.loc 3 83 0 discriminator 19
 3704 19c5 E8000000 		call	_ZN8UnitTest11CurrentTest7ResultsEv@PLT
 3704      00
 3705 19ca 488B18   		movq	(%rax), %rbx
 3706 19cd 488D8540 		leaq	-448(%rbp), %rax
 3706      FEFFFF
 3707 19d4 4889C7   		movq	%rax, %rdi
 3708 19d7 E8000000 		call	_ZNK8UnitTest15MemoryOutStream7GetTextEv@PLT
 3708      00
 3709              		.loc 3 83 0 discriminator 21
 3710 19dc 4889C2   		movq	%rax, %rdx
 3711 19df 488B85F8 		movq	-520(%rbp), %rax
 3711      FDFFFF
 3712 19e6 4883C008 		addq	$8, %rax
 3713 19ea 4889C6   		movq	%rax, %rsi
 3714 19ed 4889DF   		movq	%rbx, %rdi
 3715 19f0 E8000000 		call	_ZN8UnitTest11TestResults13OnTestFailureERKNS_11TestDetailsEPKc@PLT
 3715      00
 3716              	.LEHE101:
 3717              		.loc 3 83 0 discriminator 25
 3718 19f5 488D8540 		leaq	-448(%rbp), %rax
 3718      FEFFFF
 3719 19fc 4889C7   		movq	%rax, %rdi
 3720              	.LEHB102:
 3721 19ff E8000000 		call	_ZN8UnitTest15MemoryOutStreamD1Ev
 3721      00
 3722              	.LEHE102:
 3723              	.LBE65:
 3724              		.loc 3 83 0 discriminator 26
 3725 1a04 E8000000 		call	__cxa_end_catch@PLT
 3725      00
 3726              	.LBE64:
 3727 1a09 E9ED0000 		jmp	.L188
 3727      00
 3728              	.L208:
 3729              		.loc 3 83 0
 3730 1a0e 4889C7   		movq	%rax, %rdi
 3731 1a11 E8000000 		call	__cxa_begin_catch@PLT
 3731      00
 3732 1a16 80BD0FFE 		cmpb	$0, -497(%rbp)
 3732      FFFF00
 3733 1a1d 7445     		je	.L195
 3734              	.LEHB103:
 3735              		.loc 3 83 0 discriminator 28
 3736 1a1f E8000000 		call	_ZN8UnitTest11CurrentTest7ResultsEv@PLT
 3736      00
 3737 1a24 488B18   		movq	(%rax), %rbx
 3738 1a27 488B85F8 		movq	-520(%rbp), %rax
 3738      FDFFFF
 3739 1a2e 488D4808 		leaq	8(%rax), %rcx
 3740 1a32 488D8520 		leaq	-480(%rbp), %rax
 3740      FEFFFF
 3741 1a39 BA530000 		movl	$83, %edx
 3741      00
 3742 1a3e 4889CE   		movq	%rcx, %rsi
 3743 1a41 4889C7   		movq	%rax, %rdi
 3744 1a44 E8000000 		call	_ZN8UnitTest11TestDetailsC1ERKS0_i@PLT
 3744      00
 3745              		.loc 3 83 0 discriminator 33
 3746 1a49 488D8520 		leaq	-480(%rbp), %rax
 3746      FEFFFF
 3747 1a50 488D1500 		leaq	.LC7(%rip), %rdx
 3747      000000
 3748 1a57 4889C6   		movq	%rax, %rsi
 3749 1a5a 4889DF   		movq	%rbx, %rdi
 3750 1a5d E8000000 		call	_ZN8UnitTest11TestResults13OnTestFailureERKNS_11TestDetailsEPKc@PLT
 3750      00
 3751 1a62 EB43     		jmp	.L196
 3752              	.L195:
 3753              		.loc 3 83 0 discriminator 29
 3754 1a64 E8000000 		call	_ZN8UnitTest11CurrentTest7ResultsEv@PLT
 3754      00
 3755 1a69 488B18   		movq	(%rax), %rbx
 3756 1a6c 488B85F8 		movq	-520(%rbp), %rax
 3756      FDFFFF
 3757 1a73 488D4808 		leaq	8(%rax), %rcx
 3758 1a77 488D8520 		leaq	-480(%rbp), %rax
 3758      FEFFFF
 3759 1a7e BA530000 		movl	$83, %edx
 3759      00
 3760 1a83 4889CE   		movq	%rcx, %rsi
 3761 1a86 4889C7   		movq	%rax, %rdi
 3762 1a89 E8000000 		call	_ZN8UnitTest11TestDetailsC1ERKS0_i@PLT
 3762      00
 3763              		.loc 3 83 0 discriminator 40
 3764 1a8e 488D8520 		leaq	-480(%rbp), %rax
 3764      FEFFFF
 3765 1a95 488D1500 		leaq	.LC8(%rip), %rdx
 3765      000000
 3766 1a9c 4889C6   		movq	%rax, %rsi
 3767 1a9f 4889DF   		movq	%rbx, %rdi
 3768 1aa2 E8000000 		call	_ZN8UnitTest11TestResults13OnTestFailureERKNS_11TestDetailsEPKc@PLT
 3768      00
 3769              	.LEHE103:
 3770              	.L196:
 3771              	.LEHB104:
 3772              		.loc 3 83 0 discriminator 43
 3773 1aa7 E8000000 		call	__cxa_end_catch@PLT
 3773      00
 3774 1aac EB4D     		jmp	.L188
 3775              	.L204:
 3776 1aae 4889C3   		movq	%rax, %rbx
 3777              	.LBB67:
 3778              		.loc 3 83 0
 3779 1ab1 E8000000 		call	__cxa_end_catch@PLT
 3779      00
 3780 1ab6 4889D8   		movq	%rbx, %rax
 3781 1ab9 4889C7   		movq	%rax, %rdi
 3782 1abc E8000000 		call	_Unwind_Resume@PLT
 3782      00
 3783              	.LEHE104:
 3784              	.L206:
 3785 1ac1 4889C3   		movq	%rax, %rbx
 3786              	.LBE67:
 3787              	.LBB68:
 3788              	.LBB66:
 3789 1ac4 488D8540 		leaq	-448(%rbp), %rax
 3789      FEFFFF
 3790 1acb 4889C7   		movq	%rax, %rdi
 3791 1ace E8000000 		call	_ZN8UnitTest15MemoryOutStreamD1Ev
 3791      00
 3792 1ad3 EB03     		jmp	.L199
 3793              	.L205:
 3794 1ad5 4889C3   		movq	%rax, %rbx
 3795              	.L199:
 3796              	.LBE66:
 3797 1ad8 E8000000 		call	__cxa_end_catch@PLT
 3797      00
 3798 1add 4889D8   		movq	%rbx, %rax
 3799 1ae0 4889C7   		movq	%rax, %rdi
 3800              	.LEHB105:
 3801 1ae3 E8000000 		call	_Unwind_Resume@PLT
 3801      00
 3802              	.LEHE105:
 3803              	.L207:
 3804 1ae8 4889C3   		movq	%rax, %rbx
 3805              	.LBE68:
 3806 1aeb E8000000 		call	__cxa_end_catch@PLT
 3806      00
 3807 1af0 4889D8   		movq	%rbx, %rax
 3808 1af3 4889C7   		movq	%rax, %rdi
 3809              	.LEHB106:
 3810 1af6 E8000000 		call	_Unwind_Resume@PLT
 3810      00
 3811              	.LEHE106:
 3812              	.L188:
 3813 1afb 488B45D8 		movq	-40(%rbp), %rax
 3814 1aff 64483304 		xorq	%fs:40, %rax
 3814      25280000 
 3814      00
 3815 1b08 7405     		je	.L201
 3816 1b0a E8000000 		call	__stack_chk_fail@PLT
 3816      00
 3817              	.L201:
 3818 1b0f 4881C4F8 		addq	$504, %rsp
 3818      010000
 3819 1b16 5B       		popq	%rbx
 3820 1b17 415C     		popq	%r12
 3821 1b19 415D     		popq	%r13
 3822 1b1b 5D       		popq	%rbp
 3823              		.cfi_def_cfa 7, 8
 3824 1b1c C3       		ret
 3825              		.cfi_endproc
 3826              	.LFE1425:
 3827              		.section	.gcc_except_table
 3828              		.align 4
 3829              	.LLSDA1425:
 3830 0274 FF       		.byte	0xff
 3831 0275 9B       		.byte	0x9b
 3832 0276 55       		.uleb128 .LLSDATT1425-.LLSDATTD1425
 3833              	.LLSDATTD1425:
 3834 0277 01       		.byte	0x1
 3835 0278 3E       		.uleb128 .LLSDACSE1425-.LLSDACSB1425
 3836              	.LLSDACSB1425:
 3837 0279 45       		.uleb128 .LEHB96-.LFB1425
 3838 027a 05       		.uleb128 .LEHE96-.LEHB96
 3839 027b 9F01     		.uleb128 .L202-.LFB1425
 3840 027d 05       		.uleb128 0x5
 3841 027e 69       		.uleb128 .LEHB97-.LFB1425
 3842 027f 05       		.uleb128 .LEHE97-.LEHB97
 3843 0280 8201     		.uleb128 .L203-.LFB1425
 3844 0282 07       		.uleb128 0x7
 3845 0283 78       		.uleb128 .LEHB98-.LFB1425
 3846 0284 05       		.uleb128 .LEHE98-.LEHB98
 3847 0285 9F01     		.uleb128 .L202-.LFB1425
 3848 0287 05       		.uleb128 0x5
 3849 0288 C301     		.uleb128 .LEHB99-.LFB1425
 3850 028a 8901     		.uleb128 .LEHE99-.LEHB99
 3851 028c 9E05     		.uleb128 .L204-.LFB1425
 3852 028e 00       		.uleb128 0
 3853 028f EF02     		.uleb128 .LEHB100-.LFB1425
 3854 0291 05       		.uleb128 .LEHE100-.LEHB100
 3855 0292 C505     		.uleb128 .L205-.LFB1425
 3856 0294 00       		.uleb128 0
 3857 0295 8503     		.uleb128 .LEHB101-.LFB1425
 3858 0297 60       		.uleb128 .LEHE101-.LEHB101
 3859 0298 B105     		.uleb128 .L206-.LFB1425
 3860 029a 00       		.uleb128 0
 3861 029b EF03     		.uleb128 .LEHB102-.LFB1425
 3862 029d 05       		.uleb128 .LEHE102-.LEHB102
 3863 029e C505     		.uleb128 .L205-.LFB1425
 3864 02a0 00       		.uleb128 0
 3865 02a1 8F04     		.uleb128 .LEHB103-.LFB1425
 3866 02a3 8801     		.uleb128 .LEHE103-.LEHB103
 3867 02a5 D805     		.uleb128 .L207-.LFB1425
 3868 02a7 00       		.uleb128 0
 3869 02a8 9705     		.uleb128 .LEHB104-.LFB1425
 3870 02aa 1A       		.uleb128 .LEHE104-.LEHB104
 3871 02ab 00       		.uleb128 0
 3872 02ac 00       		.uleb128 0
 3873 02ad D305     		.uleb128 .LEHB105-.LFB1425
 3874 02af 05       		.uleb128 .LEHE105-.LEHB105
 3875 02b0 00       		.uleb128 0
 3876 02b1 00       		.uleb128 0
 3877 02b2 E605     		.uleb128 .LEHB106-.LFB1425
 3878 02b4 05       		.uleb128 .LEHE106-.LEHB106
 3879 02b5 00       		.uleb128 0
 3880 02b6 00       		.uleb128 0
 3881              	.LLSDACSE1425:
 3882 02b7 03       		.byte	0x3
 3883 02b8 00       		.byte	0
 3884 02b9 02       		.byte	0x2
 3885 02ba 7D       		.byte	0x7d
 3886 02bb 01       		.byte	0x1
 3887 02bc 7D       		.byte	0x7d
 3888 02bd 00       		.byte	0
 3889 02be 7D       		.byte	0x7d
 3890 02bf 00       		.align 4
 3891 02c0 00000000 		.long	0
 3892              	
 3893 02c4 00000000 		.long	DW.ref._ZTISt9exception-.
 3894 02c8 00000000 		.long	DW.ref._ZTIN8UnitTest15AssertExceptionE-.
 3895              	.LLSDATT1425:
 3896              		.text
 3898              		.section	.rodata
 3899              	.LC23:
 3900 039c 6661696C 		.string	"failure 1"
 3900      75726520 
 3900      3100
 3901              	.LC24:
 3902 03a6 6661696C 		.string	"failure 2"
 3902      75726520 
 3902      3200
 3903              		.align 8
 3904              	.LC25:
 3905 03b0 556E6861 		.string	"Unhandled exception in CHECK_EQUAL(2, (int)result.failures.size())"
 3905      6E646C65 
 3905      64206578 
 3905      63657074 
 3905      696F6E20 
 3906 03f3 00000000 		.align 8
 3906      00
 3907              	.LC26:
 3908 03f8 556E6861 		.string	"Unhandled exception in CHECK_EQUAL(failure1, result.failures[0].second)"
 3908      6E646C65 
 3908      64206578 
 3908      63657074 
 3908      696F6E20 
 3909              		.align 8
 3910              	.LC27:
 3911 0440 556E6861 		.string	"Unhandled exception in CHECK_EQUAL(failure2, result.failures[1].second)"
 3911      6E646C65 
 3911      64206578 
 3911      63657074 
 3911      696F6E20 
 3912              		.text
 3913 1b1d 90       		.align 2
 3915              	_ZN8UnitTest12_GLOBAL__N_184DeferredTestReporterFixtureReportFailureSavesFailureDetailsForMultipleF
 3916              	.LFB1429:
  84:TestDeferredTestReporter.cpp **** {
 3917              		.loc 3 84 0 is_stmt 1
 3918              		.cfi_startproc
 3919              		.cfi_personality 0x9b,DW.ref.__gxx_personality_v0
 3920              		.cfi_lsda 0x1b,.LLSDA1429
 3921 1b1e 55       		pushq	%rbp
 3922              		.cfi_def_cfa_offset 16
 3923              		.cfi_offset 6, -16
 3924 1b1f 4889E5   		movq	%rsp, %rbp
 3925              		.cfi_def_cfa_register 6
 3926 1b22 53       		pushq	%rbx
 3927 1b23 4883EC68 		subq	$104, %rsp
 3928              		.cfi_offset 3, -24
 3929 1b27 48897D98 		movq	%rdi, -104(%rbp)
 3930              		.loc 3 84 0
 3931 1b2b 64488B04 		movq	%fs:40, %rax
 3931      25280000 
 3931      00
 3932 1b34 488945E8 		movq	%rax, -24(%rbp)
 3933 1b38 31C0     		xorl	%eax, %eax
  85:TestDeferredTestReporter.cpp ****     char const* failure1 = "failure 1";
 3934              		.loc 3 85 0
 3935 1b3a 488D0500 		leaq	.LC23(%rip), %rax
 3935      000000
 3936 1b41 488945A8 		movq	%rax, -88(%rbp)
  86:TestDeferredTestReporter.cpp ****     char const* failure2 = "failure 2";
 3937              		.loc 3 86 0
 3938 1b45 488D0500 		leaq	.LC24(%rip), %rax
 3938      000000
 3939 1b4c 488945B0 		movq	%rax, -80(%rbp)
  87:TestDeferredTestReporter.cpp **** 
  88:TestDeferredTestReporter.cpp ****     reporter.ReportTestStart(details);
 3940              		.loc 3 88 0
 3941 1b50 488B4598 		movq	-104(%rbp), %rax
 3942 1b54 488B5598 		movq	-104(%rbp), %rdx
 3943 1b58 4881C288 		addq	$136, %rdx
 3943      000000
 3944 1b5f 4889D6   		movq	%rdx, %rsi
 3945 1b62 4889C7   		movq	%rax, %rdi
 3946              	.LEHB107:
 3947 1b65 E8000000 		call	_ZN8UnitTest20DeferredTestReporter15ReportTestStartERKNS_11TestDetailsE@PLT
 3947      00
  89:TestDeferredTestReporter.cpp ****     reporter.ReportFailure(details, failure1);
 3948              		.loc 3 89 0
 3949 1b6a 488B4598 		movq	-104(%rbp), %rax
 3950 1b6e 488B55A8 		movq	-88(%rbp), %rdx
 3951 1b72 488B4D98 		movq	-104(%rbp), %rcx
 3952 1b76 4881C188 		addq	$136, %rcx
 3952      000000
 3953 1b7d 4889CE   		movq	%rcx, %rsi
 3954 1b80 4889C7   		movq	%rax, %rdi
 3955 1b83 E8000000 		call	_ZN8UnitTest20DeferredTestReporter13ReportFailureERKNS_11TestDetailsEPKc@PLT
 3955      00
  90:TestDeferredTestReporter.cpp ****     reporter.ReportFailure(details, failure2);
 3956              		.loc 3 90 0
 3957 1b88 488B4598 		movq	-104(%rbp), %rax
 3958 1b8c 488B55B0 		movq	-80(%rbp), %rdx
 3959 1b90 488B4D98 		movq	-104(%rbp), %rcx
 3960 1b94 4881C188 		addq	$136, %rcx
 3960      000000
 3961 1b9b 4889CE   		movq	%rcx, %rsi
 3962 1b9e 4889C7   		movq	%rax, %rdi
 3963 1ba1 E8000000 		call	_ZN8UnitTest20DeferredTestReporter13ReportFailureERKNS_11TestDetailsEPKc@PLT
 3963      00
  91:TestDeferredTestReporter.cpp **** 
  92:TestDeferredTestReporter.cpp ****     DeferredTestResult const& result = reporter.GetResults().at(0);
 3964              		.loc 3 92 0
 3965 1ba6 488B4598 		movq	-104(%rbp), %rax
 3966 1baa 4889C7   		movq	%rax, %rdi
 3967 1bad E8000000 		call	_ZN8UnitTest20DeferredTestReporter10GetResultsEv@PLT
 3967      00
 3968 1bb2 BE000000 		movl	$0, %esi
 3968      00
 3969 1bb7 4889C7   		movq	%rax, %rdi
 3970 1bba E8000000 		call	_ZNSt6vectorIN8UnitTest18DeferredTestResultESaIS1_EE2atEm
 3970      00
 3971              	.LEHE107:
 3972 1bbf 488945B8 		movq	%rax, -72(%rbp)
 3973              	.LEHB108:
  93:TestDeferredTestReporter.cpp ****     CHECK_EQUAL(2, (int)result.failures.size());
 3974              		.loc 3 93 0
 3975 1bc3 E8000000 		call	_ZN8UnitTest11CurrentTest7DetailsEv@PLT
 3975      00
 3976 1bc8 488B08   		movq	(%rax), %rcx
 3977 1bcb 488D45C0 		leaq	-64(%rbp), %rax
 3978 1bcf BA5D0000 		movl	$93, %edx
 3978      00
 3979 1bd4 4889CE   		movq	%rcx, %rsi
 3980 1bd7 4889C7   		movq	%rax, %rdi
 3981 1bda E8000000 		call	_ZN8UnitTest11TestDetailsC1ERKS0_i@PLT
 3981      00
 3982              	.LEHE108:
 3983              		.loc 3 93 0 is_stmt 0 discriminator 2
 3984 1bdf 488B45B8 		movq	-72(%rbp), %rax
 3985 1be3 4883C060 		addq	$96, %rax
 3986 1be7 4889C7   		movq	%rax, %rdi
 3987 1bea E8000000 		call	_ZNKSt6vectorISt4pairIiNSt7__cxx1112basic_stringIcSt11char_traitsIcESaIcEEEESaIS7_EE4sizeEv
 3987      00
 3988 1bef 8945A4   		movl	%eax, -92(%rbp)
 3989 1bf2 C745A002 		movl	$2, -96(%rbp)
 3989      000000
 3990              	.LEHB109:
 3991 1bf9 E8000000 		call	_ZN8UnitTest11CurrentTest7ResultsEv@PLT
 3991      00
 3992 1bfe 488B00   		movq	(%rax), %rax
 3993 1c01 488D4DC0 		leaq	-64(%rbp), %rcx
 3994 1c05 488D55A4 		leaq	-92(%rbp), %rdx
 3995 1c09 488D75A0 		leaq	-96(%rbp), %rsi
 3996 1c0d 4889C7   		movq	%rax, %rdi
 3997 1c10 E8000000 		call	_ZN8UnitTest10CheckEqualIiiEEvRNS_11TestResultsERKT_RKT0_RKNS_11TestDetailsE
 3997      00
 3998              	.LEHE109:
 3999              	.L212:
 4000              	.LEHB110:
  94:TestDeferredTestReporter.cpp ****     CHECK_EQUAL(failure1, result.failures[0].second);
 4001              		.loc 3 94 0 is_stmt 1
 4002 1c15 E8000000 		call	_ZN8UnitTest11CurrentTest7DetailsEv@PLT
 4002      00
 4003 1c1a 488B08   		movq	(%rax), %rcx
 4004 1c1d 488D45C0 		leaq	-64(%rbp), %rax
 4005 1c21 BA5E0000 		movl	$94, %edx
 4005      00
 4006 1c26 4889CE   		movq	%rcx, %rsi
 4007 1c29 4889C7   		movq	%rax, %rdi
 4008 1c2c E8000000 		call	_ZN8UnitTest11TestDetailsC1ERKS0_i@PLT
 4008      00
 4009              		.loc 3 94 0 is_stmt 0 discriminator 2
 4010 1c31 488B45B8 		movq	-72(%rbp), %rax
 4011 1c35 4883C060 		addq	$96, %rax
 4012 1c39 BE000000 		movl	$0, %esi
 4012      00
 4013 1c3e 4889C7   		movq	%rax, %rdi
 4014 1c41 E8000000 		call	_ZNKSt6vectorISt4pairIiNSt7__cxx1112basic_stringIcSt11char_traitsIcESaIcEEEESaIS7_EEixEm
 4014      00
 4015 1c46 488D5808 		leaq	8(%rax), %rbx
 4016 1c4a E8000000 		call	_ZN8UnitTest11CurrentTest7ResultsEv@PLT
 4016      00
 4017 1c4f 488B00   		movq	(%rax), %rax
 4018 1c52 488D55C0 		leaq	-64(%rbp), %rdx
 4019 1c56 488D75A8 		leaq	-88(%rbp), %rsi
 4020 1c5a 4889D1   		movq	%rdx, %rcx
 4021 1c5d 4889DA   		movq	%rbx, %rdx
 4022 1c60 4889C7   		movq	%rax, %rdi
 4023 1c63 E8000000 		call	_ZN8UnitTest10CheckEqualIPKcNSt7__cxx1112basic_stringIcSt11char_traitsIcESaIcEEEEEvRNS_11Test
 4023      00
 4024              	.LEHE110:
 4025              	.L215:
 4026              	.LEHB111:
  95:TestDeferredTestReporter.cpp ****     CHECK_EQUAL(failure2, result.failures[1].second);
 4027              		.loc 3 95 0 is_stmt 1
 4028 1c68 E8000000 		call	_ZN8UnitTest11CurrentTest7DetailsEv@PLT
 4028      00
 4029 1c6d 488B08   		movq	(%rax), %rcx
 4030 1c70 488D45C0 		leaq	-64(%rbp), %rax
 4031 1c74 BA5F0000 		movl	$95, %edx
 4031      00
 4032 1c79 4889CE   		movq	%rcx, %rsi
 4033 1c7c 4889C7   		movq	%rax, %rdi
 4034 1c7f E8000000 		call	_ZN8UnitTest11TestDetailsC1ERKS0_i@PLT
 4034      00
 4035              		.loc 3 95 0 is_stmt 0 discriminator 2
 4036 1c84 488B45B8 		movq	-72(%rbp), %rax
 4037 1c88 4883C060 		addq	$96, %rax
 4038 1c8c BE010000 		movl	$1, %esi
 4038      00
 4039 1c91 4889C7   		movq	%rax, %rdi
 4040 1c94 E8000000 		call	_ZNKSt6vectorISt4pairIiNSt7__cxx1112basic_stringIcSt11char_traitsIcESaIcEEEESaIS7_EEixEm
 4040      00
 4041 1c99 488D5808 		leaq	8(%rax), %rbx
 4042 1c9d E8000000 		call	_ZN8UnitTest11CurrentTest7ResultsEv@PLT
 4042      00
 4043 1ca2 488B00   		movq	(%rax), %rax
 4044 1ca5 488D55C0 		leaq	-64(%rbp), %rdx
 4045 1ca9 488D75B0 		leaq	-80(%rbp), %rsi
 4046 1cad 4889D1   		movq	%rdx, %rcx
 4047 1cb0 4889DA   		movq	%rbx, %rdx
 4048 1cb3 4889C7   		movq	%rax, %rdi
 4049 1cb6 E8000000 		call	_ZN8UnitTest10CheckEqualIPKcNSt7__cxx1112basic_stringIcSt11char_traitsIcESaIcEEEEEvRNS_11Test
 4049      00
 4050              	.LEHE111:
  96:TestDeferredTestReporter.cpp **** }
 4051              		.loc 3 96 0 is_stmt 1
 4052 1cbb E91C0100 		jmp	.L209
 4052      00
 4053              	.L222:
 4054 1cc0 EB00     		jmp	.L211
 4055              	.L221:
 4056              	.L211:
  93:TestDeferredTestReporter.cpp ****     CHECK_EQUAL(failure1, result.failures[0].second);
 4057              		.loc 3 93 0
 4058 1cc2 4889C7   		movq	%rax, %rdi
 4059 1cc5 E8000000 		call	__cxa_begin_catch@PLT
 4059      00
 4060              	.LEHB112:
 4061 1cca E8000000 		call	_ZN8UnitTest11CurrentTest7ResultsEv@PLT
 4061      00
 4062 1ccf 488B18   		movq	(%rax), %rbx
 4063 1cd2 E8000000 		call	_ZN8UnitTest11CurrentTest7DetailsEv@PLT
 4063      00
  93:TestDeferredTestReporter.cpp ****     CHECK_EQUAL(failure1, result.failures[0].second);
 4064              		.loc 3 93 0 is_stmt 0 discriminator 8
 4065 1cd7 488B08   		movq	(%rax), %rcx
 4066 1cda 488D45C0 		leaq	-64(%rbp), %rax
 4067 1cde BA5D0000 		movl	$93, %edx
 4067      00
 4068 1ce3 4889CE   		movq	%rcx, %rsi
 4069 1ce6 4889C7   		movq	%rax, %rdi
 4070 1ce9 E8000000 		call	_ZN8UnitTest11TestDetailsC1ERKS0_i@PLT
 4070      00
  93:TestDeferredTestReporter.cpp ****     CHECK_EQUAL(failure1, result.failures[0].second);
 4071              		.loc 3 93 0 discriminator 12
 4072 1cee 488D45C0 		leaq	-64(%rbp), %rax
 4073 1cf2 488D1500 		leaq	.LC25(%rip), %rdx
 4073      000000
 4074 1cf9 4889C6   		movq	%rax, %rsi
 4075 1cfc 4889DF   		movq	%rbx, %rdi
 4076 1cff E8000000 		call	_ZN8UnitTest11TestResults13OnTestFailureERKNS_11TestDetailsEPKc@PLT
 4076      00
 4077              	.LEHE112:
 4078              	.LEHB113:
  93:TestDeferredTestReporter.cpp ****     CHECK_EQUAL(failure1, result.failures[0].second);
 4079              		.loc 3 93 0 discriminator 14
 4080 1d04 E8000000 		call	__cxa_end_catch@PLT
 4080      00
 4081              	.LEHE113:
 4082 1d09 E907FFFF 		jmp	.L212
 4082      FF
 4083              	.L223:
 4084 1d0e 4889C3   		movq	%rax, %rbx
  93:TestDeferredTestReporter.cpp ****     CHECK_EQUAL(failure1, result.failures[0].second);
 4085              		.loc 3 93 0
 4086 1d11 E8000000 		call	__cxa_end_catch@PLT
 4086      00
 4087 1d16 4889D8   		movq	%rbx, %rax
 4088 1d19 4889C7   		movq	%rax, %rdi
 4089              	.LEHB114:
 4090 1d1c E8000000 		call	_Unwind_Resume@PLT
 4090      00
 4091              	.LEHE114:
 4092              	.L224:
  94:TestDeferredTestReporter.cpp ****     CHECK_EQUAL(failure2, result.failures[1].second);
 4093              		.loc 3 94 0 is_stmt 1
 4094 1d21 4889C7   		movq	%rax, %rdi
 4095 1d24 E8000000 		call	__cxa_begin_catch@PLT
 4095      00
 4096              	.LEHB115:
 4097 1d29 E8000000 		call	_ZN8UnitTest11CurrentTest7ResultsEv@PLT
 4097      00
 4098 1d2e 488B18   		movq	(%rax), %rbx
 4099 1d31 E8000000 		call	_ZN8UnitTest11CurrentTest7DetailsEv@PLT
 4099      00
  94:TestDeferredTestReporter.cpp ****     CHECK_EQUAL(failure2, result.failures[1].second);
 4100              		.loc 3 94 0 is_stmt 0 discriminator 8
 4101 1d36 488B08   		movq	(%rax), %rcx
 4102 1d39 488D45C0 		leaq	-64(%rbp), %rax
 4103 1d3d BA5E0000 		movl	$94, %edx
 4103      00
 4104 1d42 4889CE   		movq	%rcx, %rsi
 4105 1d45 4889C7   		movq	%rax, %rdi
 4106 1d48 E8000000 		call	_ZN8UnitTest11TestDetailsC1ERKS0_i@PLT
 4106      00
  94:TestDeferredTestReporter.cpp ****     CHECK_EQUAL(failure2, result.failures[1].second);
 4107              		.loc 3 94 0 discriminator 12
 4108 1d4d 488D45C0 		leaq	-64(%rbp), %rax
 4109 1d51 488D1500 		leaq	.LC26(%rip), %rdx
 4109      000000
 4110 1d58 4889C6   		movq	%rax, %rsi
 4111 1d5b 4889DF   		movq	%rbx, %rdi
 4112 1d5e E8000000 		call	_ZN8UnitTest11TestResults13OnTestFailureERKNS_11TestDetailsEPKc@PLT
 4112      00
 4113              	.LEHE115:
 4114              	.LEHB116:
  94:TestDeferredTestReporter.cpp ****     CHECK_EQUAL(failure2, result.failures[1].second);
 4115              		.loc 3 94 0 discriminator 14
 4116 1d63 E8000000 		call	__cxa_end_catch@PLT
 4116      00
 4117              	.LEHE116:
 4118 1d68 E9FBFEFF 		jmp	.L215
 4118      FF
 4119              	.L225:
 4120 1d6d 4889C3   		movq	%rax, %rbx
  94:TestDeferredTestReporter.cpp ****     CHECK_EQUAL(failure2, result.failures[1].second);
 4121              		.loc 3 94 0
 4122 1d70 E8000000 		call	__cxa_end_catch@PLT
 4122      00
 4123 1d75 4889D8   		movq	%rbx, %rax
 4124 1d78 4889C7   		movq	%rax, %rdi
 4125              	.LEHB117:
 4126 1d7b E8000000 		call	_Unwind_Resume@PLT
 4126      00
 4127              	.LEHE117:
 4128              	.L226:
  95:TestDeferredTestReporter.cpp **** }
 4129              		.loc 3 95 0 is_stmt 1
 4130 1d80 4889C7   		movq	%rax, %rdi
 4131 1d83 E8000000 		call	__cxa_begin_catch@PLT
 4131      00
 4132              	.LEHB118:
 4133 1d88 E8000000 		call	_ZN8UnitTest11CurrentTest7ResultsEv@PLT
 4133      00
 4134 1d8d 488B18   		movq	(%rax), %rbx
 4135 1d90 E8000000 		call	_ZN8UnitTest11CurrentTest7DetailsEv@PLT
 4135      00
  95:TestDeferredTestReporter.cpp **** }
 4136              		.loc 3 95 0 is_stmt 0 discriminator 8
 4137 1d95 488B08   		movq	(%rax), %rcx
 4138 1d98 488D45C0 		leaq	-64(%rbp), %rax
 4139 1d9c BA5F0000 		movl	$95, %edx
 4139      00
 4140 1da1 4889CE   		movq	%rcx, %rsi
 4141 1da4 4889C7   		movq	%rax, %rdi
 4142 1da7 E8000000 		call	_ZN8UnitTest11TestDetailsC1ERKS0_i@PLT
 4142      00
  95:TestDeferredTestReporter.cpp **** }
 4143              		.loc 3 95 0 discriminator 12
 4144 1dac 488D45C0 		leaq	-64(%rbp), %rax
 4145 1db0 488D1500 		leaq	.LC27(%rip), %rdx
 4145      000000
 4146 1db7 4889C6   		movq	%rax, %rsi
 4147 1dba 4889DF   		movq	%rbx, %rdi
 4148 1dbd E8000000 		call	_ZN8UnitTest11TestResults13OnTestFailureERKNS_11TestDetailsEPKc@PLT
 4148      00
 4149              	.LEHE118:
 4150              	.LEHB119:
  95:TestDeferredTestReporter.cpp **** }
 4151              		.loc 3 95 0 discriminator 14
 4152 1dc2 E8000000 		call	__cxa_end_catch@PLT
 4152      00
 4153              	.LEHE119:
 4154              		.loc 3 96 0 is_stmt 1 discriminator 14
 4155 1dc7 EB13     		jmp	.L209
 4156              	.L227:
 4157 1dc9 4889C3   		movq	%rax, %rbx
  95:TestDeferredTestReporter.cpp **** }
 4158              		.loc 3 95 0
 4159 1dcc E8000000 		call	__cxa_end_catch@PLT
 4159      00
 4160 1dd1 4889D8   		movq	%rbx, %rax
 4161 1dd4 4889C7   		movq	%rax, %rdi
 4162              	.LEHB120:
 4163 1dd7 E8000000 		call	_Unwind_Resume@PLT
 4163      00
 4164              	.LEHE120:
 4165              	.L209:
 4166              		.loc 3 96 0
 4167 1ddc 488B45E8 		movq	-24(%rbp), %rax
 4168 1de0 64483304 		xorq	%fs:40, %rax
 4168      25280000 
 4168      00
 4169 1de9 7405     		je	.L220
 4170 1deb E8000000 		call	__stack_chk_fail@PLT
 4170      00
 4171              	.L220:
 4172 1df0 4883C468 		addq	$104, %rsp
 4173 1df4 5B       		popq	%rbx
 4174 1df5 5D       		popq	%rbp
 4175              		.cfi_def_cfa 7, 8
 4176 1df6 C3       		ret
 4177              		.cfi_endproc
 4178              	.LFE1429:
 4179              		.section	.gcc_except_table
 4180              		.align 4
 4181              	.LLSDA1429:
 4182 02cc FF       		.byte	0xff
 4183 02cd 9B       		.byte	0x9b
 4184 02ce 59       		.uleb128 .LLSDATT1429-.LLSDATTD1429
 4185              	.LLSDATTD1429:
 4186 02cf 01       		.byte	0x1
 4187 02d0 4C       		.uleb128 .LLSDACSE1429-.LLSDACSB1429
 4188              	.LLSDACSB1429:
 4189 02d1 47       		.uleb128 .LEHB107-.LFB1429
 4190 02d2 5A       		.uleb128 .LEHE107-.LEHB107
 4191 02d3 00       		.uleb128 0
 4192 02d4 00       		.uleb128 0
 4193 02d5 A501     		.uleb128 .LEHB108-.LFB1429
 4194 02d7 1C       		.uleb128 .LEHE108-.LEHB108
 4195 02d8 A403     		.uleb128 .L221-.LFB1429
 4196 02da 01       		.uleb128 0x1
 4197 02db DB01     		.uleb128 .LEHB109-.LFB1429
 4198 02dd 1C       		.uleb128 .LEHE109-.LEHB109
 4199 02de A203     		.uleb128 .L222-.LFB1429
 4200 02e0 03       		.uleb128 0x3
 4201 02e1 F701     		.uleb128 .LEHB110-.LFB1429
 4202 02e3 53       		.uleb128 .LEHE110-.LEHB110
 4203 02e4 8304     		.uleb128 .L224-.LFB1429
 4204 02e6 01       		.uleb128 0x1
 4205 02e7 CA02     		.uleb128 .LEHB111-.LFB1429
 4206 02e9 53       		.uleb128 .LEHE111-.LEHB111
 4207 02ea E204     		.uleb128 .L226-.LFB1429
 4208 02ec 01       		.uleb128 0x1
 4209 02ed AC03     		.uleb128 .LEHB112-.LFB1429
 4210 02ef 3A       		.uleb128 .LEHE112-.LEHB112
 4211 02f0 F003     		.uleb128 .L223-.LFB1429
 4212 02f2 00       		.uleb128 0
 4213 02f3 E603     		.uleb128 .LEHB113-.LFB1429
 4214 02f5 05       		.uleb128 .LEHE113-.LEHB113
 4215 02f6 00       		.uleb128 0
 4216 02f7 00       		.uleb128 0
 4217 02f8 FE03     		.uleb128 .LEHB114-.LFB1429
 4218 02fa 05       		.uleb128 .LEHE114-.LEHB114
 4219 02fb 00       		.uleb128 0
 4220 02fc 00       		.uleb128 0
 4221 02fd 8B04     		.uleb128 .LEHB115-.LFB1429
 4222 02ff 3A       		.uleb128 .LEHE115-.LEHB115
 4223 0300 CF04     		.uleb128 .L225-.LFB1429
 4224 0302 00       		.uleb128 0
 4225 0303 C504     		.uleb128 .LEHB116-.LFB1429
 4226 0305 05       		.uleb128 .LEHE116-.LEHB116
 4227 0306 00       		.uleb128 0
 4228 0307 00       		.uleb128 0
 4229 0308 DD04     		.uleb128 .LEHB117-.LFB1429
 4230 030a 05       		.uleb128 .LEHE117-.LEHB117
 4231 030b 00       		.uleb128 0
 4232 030c 00       		.uleb128 0
 4233 030d EA04     		.uleb128 .LEHB118-.LFB1429
 4234 030f 3A       		.uleb128 .LEHE118-.LEHB118
 4235 0310 AB05     		.uleb128 .L227-.LFB1429
 4236 0312 00       		.uleb128 0
 4237 0313 A405     		.uleb128 .LEHB119-.LFB1429
 4238 0315 05       		.uleb128 .LEHE119-.LEHB119
 4239 0316 00       		.uleb128 0
 4240 0317 00       		.uleb128 0
 4241 0318 B905     		.uleb128 .LEHB120-.LFB1429
 4242 031a 05       		.uleb128 .LEHE120-.LEHB120
 4243 031b 00       		.uleb128 0
 4244 031c 00       		.uleb128 0
 4245              	.LLSDACSE1429:
 4246 031d 01       		.byte	0x1
 4247 031e 00       		.byte	0
 4248 031f 00       		.byte	0
 4249 0320 7D       		.byte	0x7d
 4250 0321 000000   		.align 4
 4251 0324 00000000 		.long	0
 4252              	
 4253              	.LLSDATT1429:
 4254              		.text
 4256 1df7 90       		.align 2
 4258              	_ZN8UnitTest12_GLOBAL__N_178DeferredTestReporterFixtureDeferredTestReporterTakesCopyOfFailureMessag
 4259              	.LFB1431:
  97:TestDeferredTestReporter.cpp **** 
  98:TestDeferredTestReporter.cpp **** TEST_FIXTURE(DeferredTestReporterFixture, DeferredTestReporterTakesCopyOfFailureMessage)
 4260              		.loc 3 98 0
 4261              		.cfi_startproc
 4262 1df8 55       		pushq	%rbp
 4263              		.cfi_def_cfa_offset 16
 4264              		.cfi_offset 6, -16
 4265 1df9 4889E5   		movq	%rsp, %rbp
 4266              		.cfi_def_cfa_register 6
 4267 1dfc 4883EC10 		subq	$16, %rsp
 4268 1e00 48897DF8 		movq	%rdi, -8(%rbp)
 4269 1e04 488975F0 		movq	%rsi, -16(%rbp)
 4270              	.LBB69:
 4271              		.loc 3 98 0
 4272 1e08 488B45F8 		movq	-8(%rbp), %rax
 4273 1e0c 4889C7   		movq	%rax, %rdi
 4274 1e0f E830E2FF 		call	_ZN8UnitTest12_GLOBAL__N_127DeferredTestReporterFixtureC2Ev
 4274      FF
 4275 1e14 488B45F8 		movq	-8(%rbp), %rax
 4276 1e18 488B55F0 		movq	-16(%rbp), %rdx
 4277 1e1c 488990A8 		movq	%rdx, 168(%rax)
 4277      000000
 4278              	.LBE69:
 4279 1e23 90       		nop
 4280 1e24 C9       		leave
 4281              		.cfi_def_cfa 7, 8
 4282 1e25 C3       		ret
 4283              		.cfi_endproc
 4284              	.LFE1431:
 4286              		.set	_ZN8UnitTest12_GLOBAL__N_178DeferredTestReporterFixtureDeferredTestReporterTakesCopyOfFailure
 4287              		.section	.rodata
 4288              		.align 8
 4289              	.LC28:
 4290 0488 44656665 		.string	"DeferredTestReporterTakesCopyOfFailureMessage"
 4290      72726564 
 4290      54657374 
 4290      5265706F 
 4290      72746572 
 4291              		.text
 4292              		.align 2
 4294              	_ZN8UnitTest12_GLOBAL__N_176TestDeferredTestReporterFixtureDeferredTestReporterTakesCopyOfFailureMe
 4295              	.LFB1434:
 4296              		.loc 3 98 0
 4297              		.cfi_startproc
 4298 1e26 55       		pushq	%rbp
 4299              		.cfi_def_cfa_offset 16
 4300              		.cfi_offset 6, -16
 4301 1e27 4889E5   		movq	%rsp, %rbp
 4302              		.cfi_def_cfa_register 6
 4303 1e2a 53       		pushq	%rbx
 4304 1e2b 4883EC18 		subq	$24, %rsp
 4305              		.cfi_offset 3, -24
 4306 1e2f 48897DE8 		movq	%rdi, -24(%rbp)
 4307              	.LBB70:
 4308              		.loc 3 98 0
 4309 1e33 488B5DE8 		movq	-24(%rbp), %rbx
 4310 1e37 E8000000 		call	_ZN13UnitTestSuite12GetSuiteNameEv
 4310      00
 4311 1e3c 41B86200 		movl	$98, %r8d
 4311      0000
 4312 1e42 488D0D00 		leaq	.LC4(%rip), %rcx
 4312      000000
 4313 1e49 4889C2   		movq	%rax, %rdx
 4314 1e4c 488D3500 		leaq	.LC28(%rip), %rsi
 4314      000000
 4315 1e53 4889DF   		movq	%rbx, %rdi
 4316 1e56 E8000000 		call	_ZN8UnitTest4TestC2EPKcS2_S2_i@PLT
 4316      00
 4317 1e5b 488D1500 		leaq	16+_ZTVN8UnitTest12_GLOBAL__N_176TestDeferredTestReporterFixtureDeferredTestReporterTakesCopy
 4317      000000
 4318 1e62 488B45E8 		movq	-24(%rbp), %rax
 4319 1e66 488910   		movq	%rdx, (%rax)
 4320              	.LBE70:
 4321 1e69 90       		nop
 4322 1e6a 4883C418 		addq	$24, %rsp
 4323 1e6e 5B       		popq	%rbx
 4324 1e6f 5D       		popq	%rbp
 4325              		.cfi_def_cfa 7, 8
 4326 1e70 C3       		ret
 4327              		.cfi_endproc
 4328              	.LFE1434:
 4330              		.set	_ZN8UnitTest12_GLOBAL__N_176TestDeferredTestReporterFixtureDeferredTestReporterTakesCopyOfFai
 4331              		.local	_ZN8UnitTest12_GLOBAL__N_184testDeferredTestReporterFixtureDeferredTestReporterTakesCopyOfF
 4332              		.comm	_ZN8UnitTest12_GLOBAL__N_184testDeferredTestReporterFixtureDeferredTestReporterTakesCopyOfFa
 4333              		.local	_ZN8UnitTest12_GLOBAL__N_177adderDeferredTestReporterFixtureDeferredTestReporterTakesCopyOf
 4334              		.comm	_ZN8UnitTest12_GLOBAL__N_177adderDeferredTestReporterFixtureDeferredTestReporterTakesCopyOfF
 4335 1e71 90       		.align 2
 4337              	_ZN8UnitTest12_GLOBAL__N_178DeferredTestReporterFixtureDeferredTestReporterTakesCopyOfFailureMessag
 4338              	.LFB1438:
 4339              		.loc 3 98 0
 4340              		.cfi_startproc
 4341 1e72 55       		pushq	%rbp
 4342              		.cfi_def_cfa_offset 16
 4343              		.cfi_offset 6, -16
 4344 1e73 4889E5   		movq	%rsp, %rbp
 4345              		.cfi_def_cfa_register 6
 4346 1e76 4883EC10 		subq	$16, %rsp
 4347 1e7a 48897DF8 		movq	%rdi, -8(%rbp)
 4348              	.LBB71:
 4349              		.loc 3 98 0
 4350 1e7e 488B45F8 		movq	-8(%rbp), %rax
 4351 1e82 4889C7   		movq	%rax, %rdi
 4352 1e85 E898E3FF 		call	_ZN8UnitTest12_GLOBAL__N_127DeferredTestReporterFixtureD2Ev
 4352      FF
 4353              	.LBE71:
 4354 1e8a 90       		nop
 4355 1e8b C9       		leave
 4356              		.cfi_def_cfa 7, 8
 4357 1e8c C3       		ret
 4358              		.cfi_endproc
 4359              	.LFE1438:
 4361              		.set	_ZN8UnitTest12_GLOBAL__N_178DeferredTestReporterFixtureDeferredTestReporterTakesCopyOfFailure
 4362 1e8d 90       		.align 2
 4364              	_ZNK8UnitTest12_GLOBAL__N_176TestDeferredTestReporterFixtureDeferredTestReporterTakesCopyOfFailureM
 4365              	.LFB1436:
 4366              		.loc 3 98 0
 4367              		.cfi_startproc
 4368              		.cfi_personality 0x9b,DW.ref.__gxx_personality_v0
 4369              		.cfi_lsda 0x1b,.LLSDA1436
 4370 1e8e 55       		pushq	%rbp
 4371              		.cfi_def_cfa_offset 16
 4372              		.cfi_offset 6, -16
 4373 1e8f 4889E5   		movq	%rsp, %rbp
 4374              		.cfi_def_cfa_register 6
 4375 1e92 4155     		pushq	%r13
 4376 1e94 4154     		pushq	%r12
 4377 1e96 53       		pushq	%rbx
 4378 1e97 4881ECF8 		subq	$504, %rsp
 4378      010000
 4379              		.cfi_offset 13, -24
 4380              		.cfi_offset 12, -32
 4381              		.cfi_offset 3, -40
 4382 1e9e 4889BDF8 		movq	%rdi, -520(%rbp)
 4382      FDFFFF
 4383              		.loc 3 98 0
 4384 1ea5 64488B04 		movq	%fs:40, %rax
 4384      25280000 
 4384      00
 4385 1eae 488945D8 		movq	%rax, -40(%rbp)
 4386 1eb2 31C0     		xorl	%eax, %eax
 4387 1eb4 C6850FFE 		movb	$0, -497(%rbp)
 4387      FFFF00
 4388              	.LBB72:
 4389 1ebb 488B85F8 		movq	-520(%rbp), %rax
 4389      FDFFFF
 4390 1ec2 488D5008 		leaq	8(%rax), %rdx
 4391 1ec6 488D8540 		leaq	-448(%rbp), %rax
 4391      FEFFFF
 4392 1ecd 4889D6   		movq	%rdx, %rsi
 4393 1ed0 4889C7   		movq	%rax, %rdi
 4394              	.LEHB121:
 4395 1ed3 E820FFFF 		call	_ZN8UnitTest12_GLOBAL__N_178DeferredTestReporterFixtureDeferredTestReporterTakesCopyOfFailure
 4395      FF
 4396              	.LEHE121:
 4397              		.loc 3 98 0 is_stmt 0 discriminator 1
 4398 1ed8 C6850FFE 		movb	$1, -497(%rbp)
 4398      FFFF01
 4399 1edf 488B85F8 		movq	-520(%rbp), %rax
 4399      FDFFFF
 4400 1ee6 488D5008 		leaq	8(%rax), %rdx
 4401 1eea 488D8540 		leaq	-448(%rbp), %rax
 4401      FEFFFF
 4402 1ef1 4889D6   		movq	%rdx, %rsi
 4403 1ef4 4889C7   		movq	%rax, %rdi
 4404              	.LEHB122:
 4405 1ef7 E8561200 		call	_ZN8UnitTest11ExecuteTestINS_12_GLOBAL__N_178DeferredTestReporterFixtureDeferredTestReporterT
 4405      00
 4406              	.LEHE122:
 4407              		.loc 3 98 0 discriminator 3
 4408 1efc 488D8540 		leaq	-448(%rbp), %rax
 4408      FEFFFF
 4409 1f03 4889C7   		movq	%rax, %rdi
 4410              	.LEHB123:
 4411 1f06 E867FFFF 		call	_ZN8UnitTest12_GLOBAL__N_178DeferredTestReporterFixtureDeferredTestReporterTakesCopyOfFailure
 4411      FF
 4412              	.LEHE123:
 4413              	.LBE72:
 4414              		.loc 3 98 0
 4415 1f0b E9690200 		jmp	.L231
 4415      00
 4416              	.L246:
 4417 1f10 4989C4   		movq	%rax, %r12
 4418 1f13 4889D3   		movq	%rdx, %rbx
 4419              	.LBB73:
 4420 1f16 488D8540 		leaq	-448(%rbp), %rax
 4420      FEFFFF
 4421 1f1d 4889C7   		movq	%rax, %rdi
 4422 1f20 E84DFFFF 		call	_ZN8UnitTest12_GLOBAL__N_178DeferredTestReporterFixtureDeferredTestReporterTakesCopyOfFailure
 4422      FF
 4423 1f25 4C89E0   		movq	%r12, %rax
 4424 1f28 4889DA   		movq	%rbx, %rdx
 4425 1f2b EB00     		jmp	.L233
 4426              	.L245:
 4427              	.L233:
 4428 1f2d 4883FA01 		cmpq	$1, %rdx
 4429 1f31 740F     		je	.L235
 4430 1f33 4883FA02 		cmpq	$2, %rdx
 4431 1f37 0F84A700 		je	.L236
 4431      0000
 4432 1f3d E94A0100 		jmp	.L251
 4432      00
 4433              	.L235:
 4434              	.LBE73:
 4435              	.LBB74:
 4436 1f42 4889C7   		movq	%rax, %rdi
 4437 1f45 E8000000 		call	__cxa_begin_catch@PLT
 4437      00
 4438 1f4a 48898518 		movq	%rax, -488(%rbp)
 4438      FEFFFF
 4439              	.LEHB124:
 4440 1f51 E8000000 		call	_ZN8UnitTest11CurrentTest7ResultsEv@PLT
 4440      00
 4441 1f56 488B18   		movq	(%rax), %rbx
 4442 1f59 488B8518 		movq	-488(%rbp), %rax
 4442      FEFFFF
 4443 1f60 488B00   		movq	(%rax), %rax
 4444 1f63 4883C010 		addq	$16, %rax
 4445 1f67 488B00   		movq	(%rax), %rax
 4446 1f6a 488B9518 		movq	-488(%rbp), %rdx
 4446      FEFFFF
 4447 1f71 4889D7   		movq	%rdx, %rdi
 4448 1f74 FFD0     		call	*%rax
 4449              	.LVL10:
 4450 1f76 4989C4   		movq	%rax, %r12
 4451 1f79 488B8518 		movq	-488(%rbp), %rax
 4451      FEFFFF
 4452 1f80 4889C7   		movq	%rax, %rdi
 4453 1f83 E8000000 		call	_ZNK8UnitTest15AssertException10LineNumberEv@PLT
 4453      00
 4454              		.loc 3 98 0 discriminator 5
 4455 1f88 4189C5   		movl	%eax, %r13d
 4456 1f8b 488B8518 		movq	-488(%rbp), %rax
 4456      FEFFFF
 4457 1f92 4889C7   		movq	%rax, %rdi
 4458 1f95 E8000000 		call	_ZNK8UnitTest15AssertException8FilenameEv@PLT
 4458      00
 4459              		.loc 3 98 0 discriminator 7
 4460 1f9a 4889C1   		movq	%rax, %rcx
 4461 1f9d 488B85F8 		movq	-520(%rbp), %rax
 4461      FDFFFF
 4462 1fa4 488B5008 		movq	8(%rax), %rdx
 4463 1fa8 488B85F8 		movq	-520(%rbp), %rax
 4463      FDFFFF
 4464 1faf 488B7010 		movq	16(%rax), %rsi
 4465 1fb3 488D8520 		leaq	-480(%rbp), %rax
 4465      FEFFFF
 4466 1fba 4589E8   		movl	%r13d, %r8d
 4467 1fbd 4889C7   		movq	%rax, %rdi
 4468 1fc0 E8000000 		call	_ZN8UnitTest11TestDetailsC1EPKcS2_S2_i@PLT
 4468      00
 4469              		.loc 3 98 0 discriminator 11
 4470 1fc5 488D8520 		leaq	-480(%rbp), %rax
 4470      FEFFFF
 4471 1fcc 4C89E2   		movq	%r12, %rdx
 4472 1fcf 4889C6   		movq	%rax, %rsi
 4473 1fd2 4889DF   		movq	%rbx, %rdi
 4474 1fd5 E8000000 		call	_ZN8UnitTest11TestResults13OnTestFailureERKNS_11TestDetailsEPKc@PLT
 4474      00
 4475              	.LEHE124:
 4476              		.loc 3 98 0 discriminator 13
 4477 1fda E8000000 		call	__cxa_end_catch@PLT
 4477      00
 4478              	.LBE74:
 4479 1fdf E9950100 		jmp	.L231
 4479      00
 4480              	.L236:
 4481              	.LBB75:
 4482              		.loc 3 98 0
 4483 1fe4 4889C7   		movq	%rax, %rdi
 4484 1fe7 E8000000 		call	__cxa_begin_catch@PLT
 4484      00
 4485 1fec 48898510 		movq	%rax, -496(%rbp)
 4485      FEFFFF
 4486              	.LBB76:
 4487 1ff3 488D8540 		leaq	-448(%rbp), %rax
 4487      FEFFFF
 4488 1ffa 4889C7   		movq	%rax, %rdi
 4489              	.LEHB125:
 4490 1ffd E8000000 		call	_ZN8UnitTest15MemoryOutStreamC1Ev
 4490      00
 4491              	.LEHE125:
 4492              		.loc 3 98 0 discriminator 15
 4493 2002 488D8540 		leaq	-448(%rbp), %rax
 4493      FEFFFF
 4494 2009 488D3500 		leaq	.LC6(%rip), %rsi
 4494      000000
 4495 2010 4889C7   		movq	%rax, %rdi
 4496              	.LEHB126:
 4497 2013 E8000000 		call	_ZStlsISt11char_traitsIcEERSt13basic_ostreamIcT_ES5_PKc@PLT
 4497      00
 4498 2018 4889C3   		movq	%rax, %rbx
 4499 201b 488B8510 		movq	-496(%rbp), %rax
 4499      FEFFFF
 4500 2022 488B00   		movq	(%rax), %rax
 4501 2025 4883C010 		addq	$16, %rax
 4502 2029 488B00   		movq	(%rax), %rax
 4503 202c 488B9510 		movq	-496(%rbp), %rdx
 4503      FEFFFF
 4504 2033 4889D7   		movq	%rdx, %rdi
 4505 2036 FFD0     		call	*%rax
 4506              	.LVL11:
 4507 2038 4889C6   		movq	%rax, %rsi
 4508 203b 4889DF   		movq	%rbx, %rdi
 4509 203e E8000000 		call	_ZStlsISt11char_traitsIcEERSt13basic_ostreamIcT_ES5_PKc@PLT
 4509      00
 4510              		.loc 3 98 0 discriminator 19
 4511 2043 E8000000 		call	_ZN8UnitTest11CurrentTest7ResultsEv@PLT
 4511      00
 4512 2048 488B18   		movq	(%rax), %rbx
 4513 204b 488D8540 		leaq	-448(%rbp), %rax
 4513      FEFFFF
 4514 2052 4889C7   		movq	%rax, %rdi
 4515 2055 E8000000 		call	_ZNK8UnitTest15MemoryOutStream7GetTextEv@PLT
 4515      00
 4516              		.loc 3 98 0 discriminator 21
 4517 205a 4889C2   		movq	%rax, %rdx
 4518 205d 488B85F8 		movq	-520(%rbp), %rax
 4518      FDFFFF
 4519 2064 4883C008 		addq	$8, %rax
 4520 2068 4889C6   		movq	%rax, %rsi
 4521 206b 4889DF   		movq	%rbx, %rdi
 4522 206e E8000000 		call	_ZN8UnitTest11TestResults13OnTestFailureERKNS_11TestDetailsEPKc@PLT
 4522      00
 4523              	.LEHE126:
 4524              		.loc 3 98 0 discriminator 25
 4525 2073 488D8540 		leaq	-448(%rbp), %rax
 4525      FEFFFF
 4526 207a 4889C7   		movq	%rax, %rdi
 4527              	.LEHB127:
 4528 207d E8000000 		call	_ZN8UnitTest15MemoryOutStreamD1Ev
 4528      00
 4529              	.LEHE127:
 4530              	.LBE76:
 4531              		.loc 3 98 0 discriminator 26
 4532 2082 E8000000 		call	__cxa_end_catch@PLT
 4532      00
 4533              	.LBE75:
 4534 2087 E9ED0000 		jmp	.L231
 4534      00
 4535              	.L251:
 4536              		.loc 3 98 0
 4537 208c 4889C7   		movq	%rax, %rdi
 4538 208f E8000000 		call	__cxa_begin_catch@PLT
 4538      00
 4539 2094 80BD0FFE 		cmpb	$0, -497(%rbp)
 4539      FFFF00
 4540 209b 7445     		je	.L238
 4541              	.LEHB128:
 4542              		.loc 3 98 0 discriminator 28
 4543 209d E8000000 		call	_ZN8UnitTest11CurrentTest7ResultsEv@PLT
 4543      00
 4544 20a2 488B18   		movq	(%rax), %rbx
 4545 20a5 488B85F8 		movq	-520(%rbp), %rax
 4545      FDFFFF
 4546 20ac 488D4808 		leaq	8(%rax), %rcx
 4547 20b0 488D8520 		leaq	-480(%rbp), %rax
 4547      FEFFFF
 4548 20b7 BA620000 		movl	$98, %edx
 4548      00
 4549 20bc 4889CE   		movq	%rcx, %rsi
 4550 20bf 4889C7   		movq	%rax, %rdi
 4551 20c2 E8000000 		call	_ZN8UnitTest11TestDetailsC1ERKS0_i@PLT
 4551      00
 4552              		.loc 3 98 0 discriminator 33
 4553 20c7 488D8520 		leaq	-480(%rbp), %rax
 4553      FEFFFF
 4554 20ce 488D1500 		leaq	.LC7(%rip), %rdx
 4554      000000
 4555 20d5 4889C6   		movq	%rax, %rsi
 4556 20d8 4889DF   		movq	%rbx, %rdi
 4557 20db E8000000 		call	_ZN8UnitTest11TestResults13OnTestFailureERKNS_11TestDetailsEPKc@PLT
 4557      00
 4558 20e0 EB43     		jmp	.L239
 4559              	.L238:
 4560              		.loc 3 98 0 discriminator 29
 4561 20e2 E8000000 		call	_ZN8UnitTest11CurrentTest7ResultsEv@PLT
 4561      00
 4562 20e7 488B18   		movq	(%rax), %rbx
 4563 20ea 488B85F8 		movq	-520(%rbp), %rax
 4563      FDFFFF
 4564 20f1 488D4808 		leaq	8(%rax), %rcx
 4565 20f5 488D8520 		leaq	-480(%rbp), %rax
 4565      FEFFFF
 4566 20fc BA620000 		movl	$98, %edx
 4566      00
 4567 2101 4889CE   		movq	%rcx, %rsi
 4568 2104 4889C7   		movq	%rax, %rdi
 4569 2107 E8000000 		call	_ZN8UnitTest11TestDetailsC1ERKS0_i@PLT
 4569      00
 4570              		.loc 3 98 0 discriminator 40
 4571 210c 488D8520 		leaq	-480(%rbp), %rax
 4571      FEFFFF
 4572 2113 488D1500 		leaq	.LC8(%rip), %rdx
 4572      000000
 4573 211a 4889C6   		movq	%rax, %rsi
 4574 211d 4889DF   		movq	%rbx, %rdi
 4575 2120 E8000000 		call	_ZN8UnitTest11TestResults13OnTestFailureERKNS_11TestDetailsEPKc@PLT
 4575      00
 4576              	.LEHE128:
 4577              	.L239:
 4578              	.LEHB129:
 4579              		.loc 3 98 0 discriminator 43
 4580 2125 E8000000 		call	__cxa_end_catch@PLT
 4580      00
 4581 212a EB4D     		jmp	.L231
 4582              	.L247:
 4583 212c 4889C3   		movq	%rax, %rbx
 4584              	.LBB78:
 4585              		.loc 3 98 0
 4586 212f E8000000 		call	__cxa_end_catch@PLT
 4586      00
 4587 2134 4889D8   		movq	%rbx, %rax
 4588 2137 4889C7   		movq	%rax, %rdi
 4589 213a E8000000 		call	_Unwind_Resume@PLT
 4589      00
 4590              	.LEHE129:
 4591              	.L249:
 4592 213f 4889C3   		movq	%rax, %rbx
 4593              	.LBE78:
 4594              	.LBB79:
 4595              	.LBB77:
 4596 2142 488D8540 		leaq	-448(%rbp), %rax
 4596      FEFFFF
 4597 2149 4889C7   		movq	%rax, %rdi
 4598 214c E8000000 		call	_ZN8UnitTest15MemoryOutStreamD1Ev
 4598      00
 4599 2151 EB03     		jmp	.L242
 4600              	.L248:
 4601 2153 4889C3   		movq	%rax, %rbx
 4602              	.L242:
 4603              	.LBE77:
 4604 2156 E8000000 		call	__cxa_end_catch@PLT
 4604      00
 4605 215b 4889D8   		movq	%rbx, %rax
 4606 215e 4889C7   		movq	%rax, %rdi
 4607              	.LEHB130:
 4608 2161 E8000000 		call	_Unwind_Resume@PLT
 4608      00
 4609              	.LEHE130:
 4610              	.L250:
 4611 2166 4889C3   		movq	%rax, %rbx
 4612              	.LBE79:
 4613 2169 E8000000 		call	__cxa_end_catch@PLT
 4613      00
 4614 216e 4889D8   		movq	%rbx, %rax
 4615 2171 4889C7   		movq	%rax, %rdi
 4616              	.LEHB131:
 4617 2174 E8000000 		call	_Unwind_Resume@PLT
 4617      00
 4618              	.LEHE131:
 4619              	.L231:
 4620 2179 488B45D8 		movq	-40(%rbp), %rax
 4621 217d 64483304 		xorq	%fs:40, %rax
 4621      25280000 
 4621      00
 4622 2186 7405     		je	.L244
 4623 2188 E8000000 		call	__stack_chk_fail@PLT
 4623      00
 4624              	.L244:
 4625 218d 4881C4F8 		addq	$504, %rsp
 4625      010000
 4626 2194 5B       		popq	%rbx
 4627 2195 415C     		popq	%r12
 4628 2197 415D     		popq	%r13
 4629 2199 5D       		popq	%rbp
 4630              		.cfi_def_cfa 7, 8
 4631 219a C3       		ret
 4632              		.cfi_endproc
 4633              	.LFE1436:
 4634              		.section	.gcc_except_table
 4635              		.align 4
 4636              	.LLSDA1436:
 4637 0328 FF       		.byte	0xff
 4638 0329 9B       		.byte	0x9b
 4639 032a 55       		.uleb128 .LLSDATT1436-.LLSDATTD1436
 4640              	.LLSDATTD1436:
 4641 032b 01       		.byte	0x1
 4642 032c 3E       		.uleb128 .LLSDACSE1436-.LLSDACSB1436
 4643              	.LLSDACSB1436:
 4644 032d 45       		.uleb128 .LEHB121-.LFB1436
 4645 032e 05       		.uleb128 .LEHE121-.LEHB121
 4646 032f 9F01     		.uleb128 .L245-.LFB1436
 4647 0331 05       		.uleb128 0x5
 4648 0332 69       		.uleb128 .LEHB122-.LFB1436
 4649 0333 05       		.uleb128 .LEHE122-.LEHB122
 4650 0334 8201     		.uleb128 .L246-.LFB1436
 4651 0336 07       		.uleb128 0x7
 4652 0337 78       		.uleb128 .LEHB123-.LFB1436
 4653 0338 05       		.uleb128 .LEHE123-.LEHB123
 4654 0339 9F01     		.uleb128 .L245-.LFB1436
 4655 033b 05       		.uleb128 0x5
 4656 033c C301     		.uleb128 .LEHB124-.LFB1436
 4657 033e 8901     		.uleb128 .LEHE124-.LEHB124
 4658 0340 9E05     		.uleb128 .L247-.LFB1436
 4659 0342 00       		.uleb128 0
 4660 0343 EF02     		.uleb128 .LEHB125-.LFB1436
 4661 0345 05       		.uleb128 .LEHE125-.LEHB125
 4662 0346 C505     		.uleb128 .L248-.LFB1436
 4663 0348 00       		.uleb128 0
 4664 0349 8503     		.uleb128 .LEHB126-.LFB1436
 4665 034b 60       		.uleb128 .LEHE126-.LEHB126
 4666 034c B105     		.uleb128 .L249-.LFB1436
 4667 034e 00       		.uleb128 0
 4668 034f EF03     		.uleb128 .LEHB127-.LFB1436
 4669 0351 05       		.uleb128 .LEHE127-.LEHB127
 4670 0352 C505     		.uleb128 .L248-.LFB1436
 4671 0354 00       		.uleb128 0
 4672 0355 8F04     		.uleb128 .LEHB128-.LFB1436
 4673 0357 8801     		.uleb128 .LEHE128-.LEHB128
 4674 0359 D805     		.uleb128 .L250-.LFB1436
 4675 035b 00       		.uleb128 0
 4676 035c 9705     		.uleb128 .LEHB129-.LFB1436
 4677 035e 1A       		.uleb128 .LEHE129-.LEHB129
 4678 035f 00       		.uleb128 0
 4679 0360 00       		.uleb128 0
 4680 0361 D305     		.uleb128 .LEHB130-.LFB1436
 4681 0363 05       		.uleb128 .LEHE130-.LEHB130
 4682 0364 00       		.uleb128 0
 4683 0365 00       		.uleb128 0
 4684 0366 E605     		.uleb128 .LEHB131-.LFB1436
 4685 0368 05       		.uleb128 .LEHE131-.LEHB131
 4686 0369 00       		.uleb128 0
 4687 036a 00       		.uleb128 0
 4688              	.LLSDACSE1436:
 4689 036b 03       		.byte	0x3
 4690 036c 00       		.byte	0
 4691 036d 02       		.byte	0x2
 4692 036e 7D       		.byte	0x7d
 4693 036f 01       		.byte	0x1
 4694 0370 7D       		.byte	0x7d
 4695 0371 00       		.byte	0
 4696 0372 7D       		.byte	0x7d
 4697 0373 00       		.align 4
 4698 0374 00000000 		.long	0
 4699              	
 4700 0378 00000000 		.long	DW.ref._ZTISt9exception-.
 4701 037c 00000000 		.long	DW.ref._ZTIN8UnitTest15AssertExceptionE-.
 4702              	.LLSDATT1436:
 4703              		.text
 4705              		.section	.rodata
 4706              	.LC29:
 4707 04b6 5265616C 		.string	"Real failure message"
 4707      20666169 
 4707      6C757265 
 4707      206D6573 
 4707      73616765 
 4708              	.LC30:
 4709 04cb 426F6775 		.string	"Bogus failure message"
 4709      73206661 
 4709      696C7572 
 4709      65206D65 
 4709      73736167 
 4710 04e1 00000000 		.align 8
 4710      000000
 4711              	.LC31:
 4712 04e8 556E6861 		.string	"Unhandled exception in CHECK_EQUAL(goodStr, failure.second)"
 4712      6E646C65 
 4712      64206578 
 4712      63657074 
 4712      696F6E20 
 4713              		.text
 4714 219b 90       		.align 2
 4716              	_ZN8UnitTest12_GLOBAL__N_178DeferredTestReporterFixtureDeferredTestReporterTakesCopyOfFailureMessag
 4717              	.LFB1440:
  99:TestDeferredTestReporter.cpp **** {
 4718              		.loc 3 99 0 is_stmt 1
 4719              		.cfi_startproc
 4720              		.cfi_personality 0x9b,DW.ref.__gxx_personality_v0
 4721              		.cfi_lsda 0x1b,.LLSDA1440
 4722 219c 55       		pushq	%rbp
 4723              		.cfi_def_cfa_offset 16
 4724              		.cfi_offset 6, -16
 4725 219d 4889E5   		movq	%rsp, %rbp
 4726              		.cfi_def_cfa_register 6
 4727 21a0 53       		pushq	%rbx
 4728 21a1 4881ECE8 		subq	$232, %rsp
 4728      000000
 4729              		.cfi_offset 3, -24
 4730 21a8 4889BD18 		movq	%rdi, -232(%rbp)
 4730      FFFFFF
 4731              		.loc 3 99 0
 4732 21af 64488B04 		movq	%fs:40, %rax
 4732      25280000 
 4732      00
 4733 21b8 488945E8 		movq	%rax, -24(%rbp)
 4734 21bc 31C0     		xorl	%eax, %eax
 100:TestDeferredTestReporter.cpp ****     reporter.ReportTestStart(details);
 4735              		.loc 3 100 0
 4736 21be 488B8518 		movq	-232(%rbp), %rax
 4736      FFFFFF
 4737 21c5 488B9518 		movq	-232(%rbp), %rdx
 4737      FFFFFF
 4738 21cc 4881C288 		addq	$136, %rdx
 4738      000000
 4739 21d3 4889D6   		movq	%rdx, %rsi
 4740 21d6 4889C7   		movq	%rax, %rdi
 4741              	.LEHB132:
 4742 21d9 E8000000 		call	_ZN8UnitTest20DeferredTestReporter15ReportTestStartERKNS_11TestDetailsE@PLT
 4742      00
 101:TestDeferredTestReporter.cpp **** 
 102:TestDeferredTestReporter.cpp ****     char failureMessage[128];
 103:TestDeferredTestReporter.cpp ****     char const* goodStr = "Real failure message";
 4743              		.loc 3 103 0
 4744 21de 488D0500 		leaq	.LC29(%rip), %rax
 4744      000000
 4745 21e5 48898520 		movq	%rax, -224(%rbp)
 4745      FFFFFF
 104:TestDeferredTestReporter.cpp ****     char const* badStr = "Bogus failure message";
 4746              		.loc 3 104 0
 4747 21ec 488D0500 		leaq	.LC30(%rip), %rax
 4747      000000
 4748 21f3 48898528 		movq	%rax, -216(%rbp)
 4748      FFFFFF
 105:TestDeferredTestReporter.cpp ****     
 106:TestDeferredTestReporter.cpp **** 	using namespace std;
 107:TestDeferredTestReporter.cpp **** 
 108:TestDeferredTestReporter.cpp ****     strcpy(failureMessage, goodStr);
 4749              		.loc 3 108 0
 4750 21fa 488B9520 		movq	-224(%rbp), %rdx
 4750      FFFFFF
 4751 2201 488D8560 		leaq	-160(%rbp), %rax
 4751      FFFFFF
 4752 2208 4889D6   		movq	%rdx, %rsi
 4753 220b 4889C7   		movq	%rax, %rdi
 4754 220e E8000000 		call	strcpy@PLT
 4754      00
 109:TestDeferredTestReporter.cpp ****     reporter.ReportFailure(details, failureMessage);
 4755              		.loc 3 109 0
 4756 2213 488B8518 		movq	-232(%rbp), %rax
 4756      FFFFFF
 4757 221a 488B9518 		movq	-232(%rbp), %rdx
 4757      FFFFFF
 4758 2221 488D8A88 		leaq	136(%rdx), %rcx
 4758      000000
 4759 2228 488D9560 		leaq	-160(%rbp), %rdx
 4759      FFFFFF
 4760 222f 4889CE   		movq	%rcx, %rsi
 4761 2232 4889C7   		movq	%rax, %rdi
 4762 2235 E8000000 		call	_ZN8UnitTest20DeferredTestReporter13ReportFailureERKNS_11TestDetailsEPKc@PLT
 4762      00
 110:TestDeferredTestReporter.cpp ****     strcpy(failureMessage, badStr);
 4763              		.loc 3 110 0
 4764 223a 488B9528 		movq	-216(%rbp), %rdx
 4764      FFFFFF
 4765 2241 488D8560 		leaq	-160(%rbp), %rax
 4765      FFFFFF
 4766 2248 4889D6   		movq	%rdx, %rsi
 4767 224b 4889C7   		movq	%rax, %rdi
 4768 224e E8000000 		call	strcpy@PLT
 4768      00
 111:TestDeferredTestReporter.cpp **** 
 112:TestDeferredTestReporter.cpp ****     DeferredTestResult const& result = reporter.GetResults().at(0);
 4769              		.loc 3 112 0
 4770 2253 488B8518 		movq	-232(%rbp), %rax
 4770      FFFFFF
 4771 225a 4889C7   		movq	%rax, %rdi
 4772 225d E8000000 		call	_ZN8UnitTest20DeferredTestReporter10GetResultsEv@PLT
 4772      00
 4773 2262 BE000000 		movl	$0, %esi
 4773      00
 4774 2267 4889C7   		movq	%rax, %rdi
 4775 226a E8000000 		call	_ZNSt6vectorIN8UnitTest18DeferredTestResultESaIS1_EE2atEm
 4775      00
 4776 226f 48898530 		movq	%rax, -208(%rbp)
 4776      FFFFFF
 113:TestDeferredTestReporter.cpp ****     DeferredTestResult::Failure const& failure = result.failures.at(0);
 4777              		.loc 3 113 0
 4778 2276 488B8530 		movq	-208(%rbp), %rax
 4778      FFFFFF
 4779 227d 4883C060 		addq	$96, %rax
 4780 2281 BE000000 		movl	$0, %esi
 4780      00
 4781 2286 4889C7   		movq	%rax, %rdi
 4782 2289 E8000000 		call	_ZNKSt6vectorISt4pairIiNSt7__cxx1112basic_stringIcSt11char_traitsIcESaIcEEEESaIS7_EE2atEm
 4782      00
 4783              	.LEHE132:
 4784 228e 48898538 		movq	%rax, -200(%rbp)
 4784      FFFFFF
 4785              	.LEHB133:
 114:TestDeferredTestReporter.cpp ****     CHECK_EQUAL(goodStr, failure.second);
 4786              		.loc 3 114 0
 4787 2295 E8000000 		call	_ZN8UnitTest11CurrentTest7DetailsEv@PLT
 4787      00
 4788 229a 488B08   		movq	(%rax), %rcx
 4789 229d 488D8540 		leaq	-192(%rbp), %rax
 4789      FFFFFF
 4790 22a4 BA720000 		movl	$114, %edx
 4790      00
 4791 22a9 4889CE   		movq	%rcx, %rsi
 4792 22ac 4889C7   		movq	%rax, %rdi
 4793 22af E8000000 		call	_ZN8UnitTest11TestDetailsC1ERKS0_i@PLT
 4793      00
 4794              		.loc 3 114 0 is_stmt 0 discriminator 2
 4795 22b4 488B8538 		movq	-200(%rbp), %rax
 4795      FFFFFF
 4796 22bb 488D5808 		leaq	8(%rax), %rbx
 4797 22bf E8000000 		call	_ZN8UnitTest11CurrentTest7ResultsEv@PLT
 4797      00
 4798 22c4 488B00   		movq	(%rax), %rax
 4799 22c7 488D9540 		leaq	-192(%rbp), %rdx
 4799      FFFFFF
 4800 22ce 488DB520 		leaq	-224(%rbp), %rsi
 4800      FFFFFF
 4801 22d5 4889D1   		movq	%rdx, %rcx
 4802 22d8 4889DA   		movq	%rbx, %rdx
 4803 22db 4889C7   		movq	%rax, %rdi
 4804 22de E8000000 		call	_ZN8UnitTest10CheckEqualIPKcNSt7__cxx1112basic_stringIcSt11char_traitsIcESaIcEEEEEvRNS_11Test
 4804      00
 4805              	.LEHE133:
 115:TestDeferredTestReporter.cpp **** }
 4806              		.loc 3 115 0 is_stmt 1
 4807 22e3 EB62     		jmp	.L252
 4808              	.L257:
 114:TestDeferredTestReporter.cpp ****     CHECK_EQUAL(goodStr, failure.second);
 4809              		.loc 3 114 0
 4810 22e5 4889C7   		movq	%rax, %rdi
 4811 22e8 E8000000 		call	__cxa_begin_catch@PLT
 4811      00
 4812              	.LEHB134:
 4813 22ed E8000000 		call	_ZN8UnitTest11CurrentTest7ResultsEv@PLT
 4813      00
 4814 22f2 488B18   		movq	(%rax), %rbx
 4815 22f5 E8000000 		call	_ZN8UnitTest11CurrentTest7DetailsEv@PLT
 4815      00
 114:TestDeferredTestReporter.cpp ****     CHECK_EQUAL(goodStr, failure.second);
 4816              		.loc 3 114 0 is_stmt 0 discriminator 8
 4817 22fa 488B08   		movq	(%rax), %rcx
 4818 22fd 488D8540 		leaq	-192(%rbp), %rax
 4818      FFFFFF
 4819 2304 BA720000 		movl	$114, %edx
 4819      00
 4820 2309 4889CE   		movq	%rcx, %rsi
 4821 230c 4889C7   		movq	%rax, %rdi
 4822 230f E8000000 		call	_ZN8UnitTest11TestDetailsC1ERKS0_i@PLT
 4822      00
 114:TestDeferredTestReporter.cpp ****     CHECK_EQUAL(goodStr, failure.second);
 4823              		.loc 3 114 0 discriminator 12
 4824 2314 488D8540 		leaq	-192(%rbp), %rax
 4824      FFFFFF
 4825 231b 488D1500 		leaq	.LC31(%rip), %rdx
 4825      000000
 4826 2322 4889C6   		movq	%rax, %rsi
 4827 2325 4889DF   		movq	%rbx, %rdi
 4828 2328 E8000000 		call	_ZN8UnitTest11TestResults13OnTestFailureERKNS_11TestDetailsEPKc@PLT
 4828      00
 4829              	.LEHE134:
 4830              	.LEHB135:
 114:TestDeferredTestReporter.cpp ****     CHECK_EQUAL(goodStr, failure.second);
 4831              		.loc 3 114 0 discriminator 14
 4832 232d E8000000 		call	__cxa_end_catch@PLT
 4832      00
 4833              	.LEHE135:
 4834              		.loc 3 115 0 is_stmt 1 discriminator 14
 4835 2332 EB13     		jmp	.L252
 4836              	.L258:
 4837 2334 4889C3   		movq	%rax, %rbx
 114:TestDeferredTestReporter.cpp ****     CHECK_EQUAL(goodStr, failure.second);
 4838              		.loc 3 114 0
 4839 2337 E8000000 		call	__cxa_end_catch@PLT
 4839      00
 4840 233c 4889D8   		movq	%rbx, %rax
 4841 233f 4889C7   		movq	%rax, %rdi
 4842              	.LEHB136:
 4843 2342 E8000000 		call	_Unwind_Resume@PLT
 4843      00
 4844              	.LEHE136:
 4845              	.L252:
 4846              		.loc 3 115 0
 4847 2347 488B45E8 		movq	-24(%rbp), %rax
 4848 234b 64483304 		xorq	%fs:40, %rax
 4848      25280000 
 4848      00
 4849 2354 7405     		je	.L256
 4850 2356 E8000000 		call	__stack_chk_fail@PLT
 4850      00
 4851              	.L256:
 4852 235b 4881C4E8 		addq	$232, %rsp
 4852      000000
 4853 2362 5B       		popq	%rbx
 4854 2363 5D       		popq	%rbp
 4855              		.cfi_def_cfa 7, 8
 4856 2364 C3       		ret
 4857              		.cfi_endproc
 4858              	.LFE1440:
 4859              		.section	.gcc_except_table
 4860              		.align 4
 4861              	.LLSDA1440:
 4862 0380 FF       		.byte	0xff
 4863 0381 9B       		.byte	0x9b
 4864 0382 25       		.uleb128 .LLSDATT1440-.LLSDATTD1440
 4865              	.LLSDATTD1440:
 4866 0383 01       		.byte	0x1
 4867 0384 1B       		.uleb128 .LLSDACSE1440-.LLSDACSB1440
 4868              	.LLSDACSB1440:
 4869 0385 3D       		.uleb128 .LEHB132-.LFB1440
 4870 0386 B501     		.uleb128 .LEHE132-.LEHB132
 4871 0388 00       		.uleb128 0
 4872 0389 00       		.uleb128 0
 4873 038a F901     		.uleb128 .LEHB133-.LFB1440
 4874 038c 4E       		.uleb128 .LEHE133-.LEHB133
 4875 038d C902     		.uleb128 .L257-.LFB1440
 4876 038f 01       		.uleb128 0x1
 4877 0390 D102     		.uleb128 .LEHB134-.LFB1440
 4878 0392 40       		.uleb128 .LEHE134-.LEHB134
 4879 0393 9803     		.uleb128 .L258-.LFB1440
 4880 0395 00       		.uleb128 0
 4881 0396 9103     		.uleb128 .LEHB135-.LFB1440
 4882 0398 05       		.uleb128 .LEHE135-.LEHB135
 4883 0399 00       		.uleb128 0
 4884 039a 00       		.uleb128 0
 4885 039b A603     		.uleb128 .LEHB136-.LFB1440
 4886 039d 05       		.uleb128 .LEHE136-.LEHB136
 4887 039e 00       		.uleb128 0
 4888 039f 00       		.uleb128 0
 4889              	.LLSDACSE1440:
 4890 03a0 01       		.byte	0x1
 4891 03a1 00       		.byte	0
 4892 03a2 0000     		.align 4
 4893 03a4 00000000 		.long	0
 4894              	
 4895              	.LLSDATT1440:
 4896              		.text
 4898              		.section	.text._ZNSt6vectorIN8UnitTest18DeferredTestResultESaIS1_EEC2Ev,"axG",@progbits,_ZNSt6vect
 4899              		.align 2
 4900              		.weak	_ZNSt6vectorIN8UnitTest18DeferredTestResultESaIS1_EEC2Ev
 4902              	_ZNSt6vectorIN8UnitTest18DeferredTestResultESaIS1_EEC2Ev:
 4903              	.LFB1471:
 4904              		.file 6 "/usr/include/c++/7/bits/stl_vector.h"
   1:/usr/include/c++/7/bits/stl_vector.h **** // Vector implementation -*- C++ -*-
   2:/usr/include/c++/7/bits/stl_vector.h **** 
   3:/usr/include/c++/7/bits/stl_vector.h **** // Copyright (C) 2001-2017 Free Software Foundation, Inc.
   4:/usr/include/c++/7/bits/stl_vector.h **** //
   5:/usr/include/c++/7/bits/stl_vector.h **** // This file is part of the GNU ISO C++ Library.  This library is free
   6:/usr/include/c++/7/bits/stl_vector.h **** // software; you can redistribute it and/or modify it under the
   7:/usr/include/c++/7/bits/stl_vector.h **** // terms of the GNU General Public License as published by the
   8:/usr/include/c++/7/bits/stl_vector.h **** // Free Software Foundation; either version 3, or (at your option)
   9:/usr/include/c++/7/bits/stl_vector.h **** // any later version.
  10:/usr/include/c++/7/bits/stl_vector.h **** 
  11:/usr/include/c++/7/bits/stl_vector.h **** // This library is distributed in the hope that it will be useful,
  12:/usr/include/c++/7/bits/stl_vector.h **** // but WITHOUT ANY WARRANTY; without even the implied warranty of
  13:/usr/include/c++/7/bits/stl_vector.h **** // MERCHANTABILITY or FITNESS FOR A PARTICULAR PURPOSE.  See the
  14:/usr/include/c++/7/bits/stl_vector.h **** // GNU General Public License for more details.
  15:/usr/include/c++/7/bits/stl_vector.h **** 
  16:/usr/include/c++/7/bits/stl_vector.h **** // Under Section 7 of GPL version 3, you are granted additional
  17:/usr/include/c++/7/bits/stl_vector.h **** // permissions described in the GCC Runtime Library Exception, version
  18:/usr/include/c++/7/bits/stl_vector.h **** // 3.1, as published by the Free Software Foundation.
  19:/usr/include/c++/7/bits/stl_vector.h **** 
  20:/usr/include/c++/7/bits/stl_vector.h **** // You should have received a copy of the GNU General Public License and
  21:/usr/include/c++/7/bits/stl_vector.h **** // a copy of the GCC Runtime Library Exception along with this program;
  22:/usr/include/c++/7/bits/stl_vector.h **** // see the files COPYING3 and COPYING.RUNTIME respectively.  If not, see
  23:/usr/include/c++/7/bits/stl_vector.h **** // <http://www.gnu.org/licenses/>.
  24:/usr/include/c++/7/bits/stl_vector.h **** 
  25:/usr/include/c++/7/bits/stl_vector.h **** /*
  26:/usr/include/c++/7/bits/stl_vector.h ****  *
  27:/usr/include/c++/7/bits/stl_vector.h ****  * Copyright (c) 1994
  28:/usr/include/c++/7/bits/stl_vector.h ****  * Hewlett-Packard Company
  29:/usr/include/c++/7/bits/stl_vector.h ****  *
  30:/usr/include/c++/7/bits/stl_vector.h ****  * Permission to use, copy, modify, distribute and sell this software
  31:/usr/include/c++/7/bits/stl_vector.h ****  * and its documentation for any purpose is hereby granted without fee,
  32:/usr/include/c++/7/bits/stl_vector.h ****  * provided that the above copyright notice appear in all copies and
  33:/usr/include/c++/7/bits/stl_vector.h ****  * that both that copyright notice and this permission notice appear
  34:/usr/include/c++/7/bits/stl_vector.h ****  * in supporting documentation.  Hewlett-Packard Company makes no
  35:/usr/include/c++/7/bits/stl_vector.h ****  * representations about the suitability of this software for any
  36:/usr/include/c++/7/bits/stl_vector.h ****  * purpose.  It is provided "as is" without express or implied warranty.
  37:/usr/include/c++/7/bits/stl_vector.h ****  *
  38:/usr/include/c++/7/bits/stl_vector.h ****  *
  39:/usr/include/c++/7/bits/stl_vector.h ****  * Copyright (c) 1996
  40:/usr/include/c++/7/bits/stl_vector.h ****  * Silicon Graphics Computer Systems, Inc.
  41:/usr/include/c++/7/bits/stl_vector.h ****  *
  42:/usr/include/c++/7/bits/stl_vector.h ****  * Permission to use, copy, modify, distribute and sell this software
  43:/usr/include/c++/7/bits/stl_vector.h ****  * and its documentation for any purpose is hereby granted without fee,
  44:/usr/include/c++/7/bits/stl_vector.h ****  * provided that the above copyright notice appear in all copies and
  45:/usr/include/c++/7/bits/stl_vector.h ****  * that both that copyright notice and this permission notice appear
  46:/usr/include/c++/7/bits/stl_vector.h ****  * in supporting documentation.  Silicon Graphics makes no
  47:/usr/include/c++/7/bits/stl_vector.h ****  * representations about the suitability of this  software for any
  48:/usr/include/c++/7/bits/stl_vector.h ****  * purpose.  It is provided "as is" without express or implied warranty.
  49:/usr/include/c++/7/bits/stl_vector.h ****  */
  50:/usr/include/c++/7/bits/stl_vector.h **** 
  51:/usr/include/c++/7/bits/stl_vector.h **** /** @file bits/stl_vector.h
  52:/usr/include/c++/7/bits/stl_vector.h ****  *  This is an internal header file, included by other library headers.
  53:/usr/include/c++/7/bits/stl_vector.h ****  *  Do not attempt to use it directly. @headername{vector}
  54:/usr/include/c++/7/bits/stl_vector.h ****  */
  55:/usr/include/c++/7/bits/stl_vector.h **** 
  56:/usr/include/c++/7/bits/stl_vector.h **** #ifndef _STL_VECTOR_H
  57:/usr/include/c++/7/bits/stl_vector.h **** #define _STL_VECTOR_H 1
  58:/usr/include/c++/7/bits/stl_vector.h **** 
  59:/usr/include/c++/7/bits/stl_vector.h **** #include <bits/stl_iterator_base_funcs.h>
  60:/usr/include/c++/7/bits/stl_vector.h **** #include <bits/functexcept.h>
  61:/usr/include/c++/7/bits/stl_vector.h **** #include <bits/concept_check.h>
  62:/usr/include/c++/7/bits/stl_vector.h **** #if __cplusplus >= 201103L
  63:/usr/include/c++/7/bits/stl_vector.h **** #include <initializer_list>
  64:/usr/include/c++/7/bits/stl_vector.h **** #endif
  65:/usr/include/c++/7/bits/stl_vector.h **** 
  66:/usr/include/c++/7/bits/stl_vector.h **** #include <debug/assertions.h>
  67:/usr/include/c++/7/bits/stl_vector.h **** 
  68:/usr/include/c++/7/bits/stl_vector.h **** namespace std _GLIBCXX_VISIBILITY(default)
  69:/usr/include/c++/7/bits/stl_vector.h **** {
  70:/usr/include/c++/7/bits/stl_vector.h **** _GLIBCXX_BEGIN_NAMESPACE_CONTAINER
  71:/usr/include/c++/7/bits/stl_vector.h **** 
  72:/usr/include/c++/7/bits/stl_vector.h ****   /// See bits/stl_deque.h's _Deque_base for an explanation.
  73:/usr/include/c++/7/bits/stl_vector.h ****   template<typename _Tp, typename _Alloc>
  74:/usr/include/c++/7/bits/stl_vector.h ****     struct _Vector_base
  75:/usr/include/c++/7/bits/stl_vector.h ****     {
  76:/usr/include/c++/7/bits/stl_vector.h ****       typedef typename __gnu_cxx::__alloc_traits<_Alloc>::template
  77:/usr/include/c++/7/bits/stl_vector.h **** 	rebind<_Tp>::other _Tp_alloc_type;
  78:/usr/include/c++/7/bits/stl_vector.h ****       typedef typename __gnu_cxx::__alloc_traits<_Tp_alloc_type>::pointer
  79:/usr/include/c++/7/bits/stl_vector.h ****        	pointer;
  80:/usr/include/c++/7/bits/stl_vector.h **** 
  81:/usr/include/c++/7/bits/stl_vector.h ****       struct _Vector_impl
  82:/usr/include/c++/7/bits/stl_vector.h ****       : public _Tp_alloc_type
  83:/usr/include/c++/7/bits/stl_vector.h ****       {
  84:/usr/include/c++/7/bits/stl_vector.h **** 	pointer _M_start;
  85:/usr/include/c++/7/bits/stl_vector.h **** 	pointer _M_finish;
  86:/usr/include/c++/7/bits/stl_vector.h **** 	pointer _M_end_of_storage;
  87:/usr/include/c++/7/bits/stl_vector.h **** 
  88:/usr/include/c++/7/bits/stl_vector.h **** 	_Vector_impl()
  89:/usr/include/c++/7/bits/stl_vector.h **** 	: _Tp_alloc_type(), _M_start(), _M_finish(), _M_end_of_storage()
  90:/usr/include/c++/7/bits/stl_vector.h **** 	{ }
  91:/usr/include/c++/7/bits/stl_vector.h **** 
  92:/usr/include/c++/7/bits/stl_vector.h **** 	_Vector_impl(_Tp_alloc_type const& __a) _GLIBCXX_NOEXCEPT
  93:/usr/include/c++/7/bits/stl_vector.h **** 	: _Tp_alloc_type(__a), _M_start(), _M_finish(), _M_end_of_storage()
  94:/usr/include/c++/7/bits/stl_vector.h **** 	{ }
  95:/usr/include/c++/7/bits/stl_vector.h **** 
  96:/usr/include/c++/7/bits/stl_vector.h **** #if __cplusplus >= 201103L
  97:/usr/include/c++/7/bits/stl_vector.h **** 	_Vector_impl(_Tp_alloc_type&& __a) noexcept
  98:/usr/include/c++/7/bits/stl_vector.h **** 	: _Tp_alloc_type(std::move(__a)),
  99:/usr/include/c++/7/bits/stl_vector.h **** 	  _M_start(), _M_finish(), _M_end_of_storage()
 100:/usr/include/c++/7/bits/stl_vector.h **** 	{ }
 101:/usr/include/c++/7/bits/stl_vector.h **** #endif
 102:/usr/include/c++/7/bits/stl_vector.h **** 
 103:/usr/include/c++/7/bits/stl_vector.h **** 	void _M_swap_data(_Vector_impl& __x) _GLIBCXX_NOEXCEPT
 104:/usr/include/c++/7/bits/stl_vector.h **** 	{
 105:/usr/include/c++/7/bits/stl_vector.h **** 	  std::swap(_M_start, __x._M_start);
 106:/usr/include/c++/7/bits/stl_vector.h **** 	  std::swap(_M_finish, __x._M_finish);
 107:/usr/include/c++/7/bits/stl_vector.h **** 	  std::swap(_M_end_of_storage, __x._M_end_of_storage);
 108:/usr/include/c++/7/bits/stl_vector.h **** 	}
 109:/usr/include/c++/7/bits/stl_vector.h ****       };
 110:/usr/include/c++/7/bits/stl_vector.h **** 
 111:/usr/include/c++/7/bits/stl_vector.h ****     public:
 112:/usr/include/c++/7/bits/stl_vector.h ****       typedef _Alloc allocator_type;
 113:/usr/include/c++/7/bits/stl_vector.h **** 
 114:/usr/include/c++/7/bits/stl_vector.h ****       _Tp_alloc_type&
 115:/usr/include/c++/7/bits/stl_vector.h ****       _M_get_Tp_allocator() _GLIBCXX_NOEXCEPT
 116:/usr/include/c++/7/bits/stl_vector.h ****       { return *static_cast<_Tp_alloc_type*>(&this->_M_impl); }
 117:/usr/include/c++/7/bits/stl_vector.h **** 
 118:/usr/include/c++/7/bits/stl_vector.h ****       const _Tp_alloc_type&
 119:/usr/include/c++/7/bits/stl_vector.h ****       _M_get_Tp_allocator() const _GLIBCXX_NOEXCEPT
 120:/usr/include/c++/7/bits/stl_vector.h ****       { return *static_cast<const _Tp_alloc_type*>(&this->_M_impl); }
 121:/usr/include/c++/7/bits/stl_vector.h **** 
 122:/usr/include/c++/7/bits/stl_vector.h ****       allocator_type
 123:/usr/include/c++/7/bits/stl_vector.h ****       get_allocator() const _GLIBCXX_NOEXCEPT
 124:/usr/include/c++/7/bits/stl_vector.h ****       { return allocator_type(_M_get_Tp_allocator()); }
 125:/usr/include/c++/7/bits/stl_vector.h **** 
 126:/usr/include/c++/7/bits/stl_vector.h ****       _Vector_base()
 127:/usr/include/c++/7/bits/stl_vector.h ****       : _M_impl() { }
 128:/usr/include/c++/7/bits/stl_vector.h **** 
 129:/usr/include/c++/7/bits/stl_vector.h ****       _Vector_base(const allocator_type& __a) _GLIBCXX_NOEXCEPT
 130:/usr/include/c++/7/bits/stl_vector.h ****       : _M_impl(__a) { }
 131:/usr/include/c++/7/bits/stl_vector.h **** 
 132:/usr/include/c++/7/bits/stl_vector.h ****       _Vector_base(size_t __n)
 133:/usr/include/c++/7/bits/stl_vector.h ****       : _M_impl()
 134:/usr/include/c++/7/bits/stl_vector.h ****       { _M_create_storage(__n); }
 135:/usr/include/c++/7/bits/stl_vector.h **** 
 136:/usr/include/c++/7/bits/stl_vector.h ****       _Vector_base(size_t __n, const allocator_type& __a)
 137:/usr/include/c++/7/bits/stl_vector.h ****       : _M_impl(__a)
 138:/usr/include/c++/7/bits/stl_vector.h ****       { _M_create_storage(__n); }
 139:/usr/include/c++/7/bits/stl_vector.h **** 
 140:/usr/include/c++/7/bits/stl_vector.h **** #if __cplusplus >= 201103L
 141:/usr/include/c++/7/bits/stl_vector.h ****       _Vector_base(_Tp_alloc_type&& __a) noexcept
 142:/usr/include/c++/7/bits/stl_vector.h ****       : _M_impl(std::move(__a)) { }
 143:/usr/include/c++/7/bits/stl_vector.h **** 
 144:/usr/include/c++/7/bits/stl_vector.h ****       _Vector_base(_Vector_base&& __x) noexcept
 145:/usr/include/c++/7/bits/stl_vector.h ****       : _M_impl(std::move(__x._M_get_Tp_allocator()))
 146:/usr/include/c++/7/bits/stl_vector.h ****       { this->_M_impl._M_swap_data(__x._M_impl); }
 147:/usr/include/c++/7/bits/stl_vector.h **** 
 148:/usr/include/c++/7/bits/stl_vector.h ****       _Vector_base(_Vector_base&& __x, const allocator_type& __a)
 149:/usr/include/c++/7/bits/stl_vector.h ****       : _M_impl(__a)
 150:/usr/include/c++/7/bits/stl_vector.h ****       {
 151:/usr/include/c++/7/bits/stl_vector.h **** 	if (__x.get_allocator() == __a)
 152:/usr/include/c++/7/bits/stl_vector.h **** 	  this->_M_impl._M_swap_data(__x._M_impl);
 153:/usr/include/c++/7/bits/stl_vector.h **** 	else
 154:/usr/include/c++/7/bits/stl_vector.h **** 	  {
 155:/usr/include/c++/7/bits/stl_vector.h **** 	    size_t __n = __x._M_impl._M_finish - __x._M_impl._M_start;
 156:/usr/include/c++/7/bits/stl_vector.h **** 	    _M_create_storage(__n);
 157:/usr/include/c++/7/bits/stl_vector.h **** 	  }
 158:/usr/include/c++/7/bits/stl_vector.h ****       }
 159:/usr/include/c++/7/bits/stl_vector.h **** #endif
 160:/usr/include/c++/7/bits/stl_vector.h **** 
 161:/usr/include/c++/7/bits/stl_vector.h ****       ~_Vector_base() _GLIBCXX_NOEXCEPT
 162:/usr/include/c++/7/bits/stl_vector.h ****       { _M_deallocate(this->_M_impl._M_start, this->_M_impl._M_end_of_storage
 163:/usr/include/c++/7/bits/stl_vector.h **** 		      - this->_M_impl._M_start); }
 164:/usr/include/c++/7/bits/stl_vector.h **** 
 165:/usr/include/c++/7/bits/stl_vector.h ****     public:
 166:/usr/include/c++/7/bits/stl_vector.h ****       _Vector_impl _M_impl;
 167:/usr/include/c++/7/bits/stl_vector.h **** 
 168:/usr/include/c++/7/bits/stl_vector.h ****       pointer
 169:/usr/include/c++/7/bits/stl_vector.h ****       _M_allocate(size_t __n)
 170:/usr/include/c++/7/bits/stl_vector.h ****       {
 171:/usr/include/c++/7/bits/stl_vector.h **** 	typedef __gnu_cxx::__alloc_traits<_Tp_alloc_type> _Tr;
 172:/usr/include/c++/7/bits/stl_vector.h **** 	return __n != 0 ? _Tr::allocate(_M_impl, __n) : pointer();
 173:/usr/include/c++/7/bits/stl_vector.h ****       }
 174:/usr/include/c++/7/bits/stl_vector.h **** 
 175:/usr/include/c++/7/bits/stl_vector.h ****       void
 176:/usr/include/c++/7/bits/stl_vector.h ****       _M_deallocate(pointer __p, size_t __n)
