   1              		.file	"TestTestRunner.cpp"
   2              		.text
   3              	.Ltext0:
   4              		.section	.rodata
   5              	.LC0:
   6 0000 44656661 		.string	"DefaultSuite"
   6      756C7453 
   6      75697465 
   6      00
   7              		.section	.text._ZN13UnitTestSuite12GetSuiteNameEv,"axG",@progbits,_ZN13UnitTestSuite12GetSuiteName
   8              		.weak	_ZN13UnitTestSuite12GetSuiteNameEv
  10              	_ZN13UnitTestSuite12GetSuiteNameEv:
  11              	.LFB0:
  12              		.file 1 "../TestSuite.h"
   1:../TestSuite.h **** #ifndef UNITTEST_TESTSUITE_H
   2:../TestSuite.h **** #define UNITTEST_TESTSUITE_H
   3:../TestSuite.h **** 
   4:../TestSuite.h **** namespace UnitTestSuite {
   5:../TestSuite.h **** 
   6:../TestSuite.h ****     inline char const* GetSuiteName ()
   7:../TestSuite.h ****     {
  13              		.loc 1 7 0
  14              		.cfi_startproc
  15 0000 55       		pushq	%rbp
  16              		.cfi_def_cfa_offset 16
  17              		.cfi_offset 6, -16
  18 0001 4889E5   		movq	%rsp, %rbp
  19              		.cfi_def_cfa_register 6
   8:../TestSuite.h ****         return "DefaultSuite";
  20              		.loc 1 8 0
  21 0004 488D0500 		leaq	.LC0(%rip), %rax
  21      000000
   9:../TestSuite.h ****     }
  22              		.loc 1 9 0
  23 000b 5D       		popq	%rbp
  24              		.cfi_def_cfa 7, 8
  25 000c C3       		ret
  26              		.cfi_endproc
  27              	.LFE0:
  29              		.section	.text._ZN8UnitTest15MemoryOutStreamC1Ev,"axG",@progbits,_ZN8UnitTest15MemoryOutStreamC1Ev
  30              		.align 2
  31              		.weak	_ZN8UnitTest15MemoryOutStreamC1Ev
  33              	_ZN8UnitTest15MemoryOutStreamC1Ev:
  34              	.LFB1076:
  35              		.file 2 "../MemoryOutStream.h"
   1:../MemoryOutStream.h **** #ifndef UNITTEST_MEMORYOUTSTREAM_H
   2:../MemoryOutStream.h **** #define UNITTEST_MEMORYOUTSTREAM_H
   3:../MemoryOutStream.h **** 
   4:../MemoryOutStream.h **** #include "Config.h"
   5:../MemoryOutStream.h **** 
   6:../MemoryOutStream.h **** #ifndef UNITTEST_USE_CUSTOM_STREAMS
   7:../MemoryOutStream.h **** 
   8:../MemoryOutStream.h **** #include <sstream>
   9:../MemoryOutStream.h **** 
  10:../MemoryOutStream.h **** namespace UnitTest
  11:../MemoryOutStream.h **** {
  12:../MemoryOutStream.h **** 
  13:../MemoryOutStream.h **** class MemoryOutStream : public std::ostringstream
  14:../MemoryOutStream.h **** {
  15:../MemoryOutStream.h **** public:
  16:../MemoryOutStream.h ****     MemoryOutStream() {}
  36              		.loc 2 16 0
  37              		.cfi_startproc
  38              		.cfi_personality 0x9b,DW.ref.__gxx_personality_v0
  39              		.cfi_lsda 0x1b,.LLSDA1076
  40 0000 55       		pushq	%rbp
  41              		.cfi_def_cfa_offset 16
  42              		.cfi_offset 6, -16
  43 0001 4889E5   		movq	%rsp, %rbp
  44              		.cfi_def_cfa_register 6
  45 0004 53       		pushq	%rbx
  46 0005 4883EC18 		subq	$24, %rsp
  47              		.cfi_offset 3, -24
  48 0009 48897DE8 		movq	%rdi, -24(%rbp)
  49              	.LBB2:
  50              		.loc 2 16 0
  51 000d 488B45E8 		movq	-24(%rbp), %rax
  52 0011 48059000 		addq	$144, %rax
  52      0000
  53 0017 4889C7   		movq	%rax, %rdi
  54              	.LEHB0:
  55 001a E8000000 		call	_ZNSt9basic_iosIcSt11char_traitsIcEEC2Ev@PLT
  55      00
  56              	.LEHE0:
  57 001f 488B45E8 		movq	-24(%rbp), %rax
  58 0023 488D0D00 		leaq	8+_ZTTN8UnitTest15MemoryOutStreamE(%rip), %rcx
  58      000000
  59 002a BA100000 		movl	$16, %edx
  59      00
  60 002f 4889CE   		movq	%rcx, %rsi
  61 0032 4889C7   		movq	%rax, %rdi
  62              	.LEHB1:
  63 0035 E8000000 		call	_ZNSt7__cxx1119basic_ostringstreamIcSt11char_traitsIcESaIcEEC2ESt13_Ios_Openmode@PLT
  63      00
  64              	.LEHE1:
  65              		.loc 2 16 0 is_stmt 0 discriminator 8
  66 003a 488D1500 		leaq	24+_ZTVN8UnitTest15MemoryOutStreamE(%rip), %rdx
  66      000000
  67 0041 488B45E8 		movq	-24(%rbp), %rax
  68 0045 488910   		movq	%rdx, (%rax)
  69 0048 488B45E8 		movq	-24(%rbp), %rax
  70 004c 488D9090 		leaq	144(%rax), %rdx
  70      000000
  71 0053 488D0500 		leaq	64+_ZTVN8UnitTest15MemoryOutStreamE(%rip), %rax
  71      000000
  72 005a 488902   		movq	%rax, (%rdx)
  73 005d 488B45E8 		movq	-24(%rbp), %rax
  74 0061 4883C070 		addq	$112, %rax
  75 0065 4889C7   		movq	%rax, %rdi
  76              	.LEHB2:
  77 0068 E8000000 		call	_ZNSt7__cxx1112basic_stringIcSt11char_traitsIcESaIcEEC1Ev@PLT
  77      00
  78              	.LEHE2:
  79              	.LBE2:
  80              		.loc 2 16 0
  81 006d EB3B     		jmp	.L9
  82              	.L7:
  83 006f 4889C3   		movq	%rax, %rbx
  84              	.LBB3:
  85 0072 488B45E8 		movq	-24(%rbp), %rax
  86 0076 488D1500 		leaq	8+_ZTTN8UnitTest15MemoryOutStreamE(%rip), %rdx
  86      000000
  87 007d 4889D6   		movq	%rdx, %rsi
  88 0080 4889C7   		movq	%rax, %rdi
  89 0083 E8000000 		call	_ZNSt7__cxx1119basic_ostringstreamIcSt11char_traitsIcESaIcEED2Ev@PLT
  89      00
  90 0088 EB03     		jmp	.L8
  91              	.L6:
  92 008a 4889C3   		movq	%rax, %rbx
  93              	.L8:
  94              		.loc 2 16 0 discriminator 11
  95 008d 488B45E8 		movq	-24(%rbp), %rax
  96 0091 48059000 		addq	$144, %rax
  96      0000
  97 0097 4889C7   		movq	%rax, %rdi
  98 009a E8000000 		call	_ZNSt9basic_iosIcSt11char_traitsIcEED2Ev@PLT
  98      00
  99 009f 4889D8   		movq	%rbx, %rax
 100 00a2 4889C7   		movq	%rax, %rdi
 101              	.LEHB3:
 102 00a5 E8000000 		call	_Unwind_Resume@PLT
 102      00
 103              	.LEHE3:
 104              	.L9:
 105              	.LBE3:
 106              		.loc 2 16 0
 107 00aa 4883C418 		addq	$24, %rsp
 108 00ae 5B       		popq	%rbx
 109 00af 5D       		popq	%rbp
 110              		.cfi_def_cfa 7, 8
 111 00b0 C3       		ret
 112              		.cfi_endproc
 113              	.LFE1076:
 114              		.globl	__gxx_personality_v0
 115              		.section	.gcc_except_table._ZN8UnitTest15MemoryOutStreamC1Ev,"aG",@progbits,_ZN8UnitTest15MemoryOu
 116              	.LLSDA1076:
 117 0000 FF       		.byte	0xff
 118 0001 FF       		.byte	0xff
 119 0002 01       		.byte	0x1
 120 0003 12       		.uleb128 .LLSDACSE1076-.LLSDACSB1076
 121              	.LLSDACSB1076:
 122 0004 1A       		.uleb128 .LEHB0-.LFB1076
 123 0005 05       		.uleb128 .LEHE0-.LEHB0
 124 0006 00       		.uleb128 0
 125 0007 00       		.uleb128 0
 126 0008 35       		.uleb128 .LEHB1-.LFB1076
 127 0009 05       		.uleb128 .LEHE1-.LEHB1
 128 000a 8A01     		.uleb128 .L6-.LFB1076
 129 000c 00       		.uleb128 0
 130 000d 68       		.uleb128 .LEHB2-.LFB1076
 131 000e 05       		.uleb128 .LEHE2-.LEHB2
 132 000f 6F       		.uleb128 .L7-.LFB1076
 133 0010 00       		.uleb128 0
 134 0011 A501     		.uleb128 .LEHB3-.LFB1076
 135 0013 05       		.uleb128 .LEHE3-.LEHB3
 136 0014 00       		.uleb128 0
 137 0015 00       		.uleb128 0
 138              	.LLSDACSE1076:
 139              		.section	.text._ZN8UnitTest15MemoryOutStreamC1Ev,"axG",@progbits,_ZN8UnitTest15MemoryOutStreamC1Ev
 141              		.section	.text._ZNK8UnitTest4TrueclEPKNS_4TestE,"axG",@progbits,_ZNK8UnitTest4TrueclEPKNS_4TestE,c
 142              		.align 2
 143              		.weak	_ZNK8UnitTest4TrueclEPKNS_4TestE
 145              	_ZNK8UnitTest4TrueclEPKNS_4TestE:
 146              	.LFB1086:
 147              		.file 3 "../TestRunner.h"
   1:../TestRunner.h **** #ifndef UNITTEST_TESTRUNNER_H
   2:../TestRunner.h **** #define UNITTEST_TESTRUNNER_H
   3:../TestRunner.h **** 
   4:../TestRunner.h **** #include "Test.h"
   5:../TestRunner.h **** #include "TestList.h"
   6:../TestRunner.h **** #include "CurrentTest.h"
   7:../TestRunner.h **** 
   8:../TestRunner.h **** namespace UnitTest {
   9:../TestRunner.h **** 
  10:../TestRunner.h **** class TestReporter;
  11:../TestRunner.h **** class TestResults;
  12:../TestRunner.h **** class Timer;
  13:../TestRunner.h **** 
  14:../TestRunner.h **** int RunAllTests();
  15:../TestRunner.h **** 
  16:../TestRunner.h **** struct True
  17:../TestRunner.h **** {
  18:../TestRunner.h **** 	bool operator()(const Test* const) const
 148              		.loc 3 18 0 is_stmt 1
 149              		.cfi_startproc
 150 0000 55       		pushq	%rbp
 151              		.cfi_def_cfa_offset 16
 152              		.cfi_offset 6, -16
 153 0001 4889E5   		movq	%rsp, %rbp
 154              		.cfi_def_cfa_register 6
 155 0004 48897DF8 		movq	%rdi, -8(%rbp)
 156 0008 488975F0 		movq	%rsi, -16(%rbp)
  19:../TestRunner.h **** 	{
  20:../TestRunner.h **** 		return true;	
 157              		.loc 3 20 0
 158 000c B8010000 		movl	$1, %eax
 158      00
  21:../TestRunner.h **** 	}
 159              		.loc 3 21 0
 160 0011 5D       		popq	%rbp
 161              		.cfi_def_cfa 7, 8
 162 0012 C3       		ret
 163              		.cfi_endproc
 164              	.LFE1086:
 166              		.section	.text._ZN8UnitTest12TestReporterC2Ev,"axG",@progbits,_ZN8UnitTest12TestReporterC5Ev,comda
 167              		.align 2
 168              		.weak	_ZN8UnitTest12TestReporterC2Ev
 170              	_ZN8UnitTest12TestReporterC2Ev:
 171              	.LFB1090:
 172              		.file 4 "../TestReporter.h"
   1:../TestReporter.h **** #ifndef UNITTEST_TESTREPORTER_H
   2:../TestReporter.h **** #define UNITTEST_TESTREPORTER_H
   3:../TestReporter.h **** 
   4:../TestReporter.h **** namespace UnitTest {
   5:../TestReporter.h **** 
   6:../TestReporter.h **** class TestDetails;
   7:../TestReporter.h **** 
   8:../TestReporter.h **** class TestReporter
 173              		.loc 4 8 0
 174              		.cfi_startproc
 175 0000 55       		pushq	%rbp
 176              		.cfi_def_cfa_offset 16
 177              		.cfi_offset 6, -16
 178 0001 4889E5   		movq	%rsp, %rbp
 179              		.cfi_def_cfa_register 6
 180 0004 48897DF8 		movq	%rdi, -8(%rbp)
 181              	.LBB4:
 182              		.loc 4 8 0
 183 0008 488D1500 		leaq	16+_ZTVN8UnitTest12TestReporterE(%rip), %rdx
 183      000000
 184 000f 488B45F8 		movq	-8(%rbp), %rax
 185 0013 488910   		movq	%rdx, (%rax)
 186              	.LBE4:
 187 0016 90       		nop
 188 0017 5D       		popq	%rbp
 189              		.cfi_def_cfa 7, 8
 190 0018 C3       		ret
 191              		.cfi_endproc
 192              	.LFE1090:
 194              		.weak	_ZN8UnitTest12TestReporterC1Ev
 195              		.set	_ZN8UnitTest12TestReporterC1Ev,_ZN8UnitTest12TestReporterC2Ev
 196              		.section	.text._ZN17RecordingReporterC2Ev,"axG",@progbits,_ZN17RecordingReporterC5Ev,comdat
 197              		.align 2
 198              		.weak	_ZN17RecordingReporterC2Ev
 200              	_ZN17RecordingReporterC2Ev:
 201              	.LFB1092:
 202              		.file 5 "RecordingReporter.h"
   1:RecordingReporter.h **** #ifndef UNITTEST_RECORDINGREPORTER_H
   2:RecordingReporter.h **** #define UNITTEST_RECORDINGREPORTER_H
   3:RecordingReporter.h **** 
   4:RecordingReporter.h **** #include "../TestReporter.h"
   5:RecordingReporter.h **** #include <cstring>
   6:RecordingReporter.h **** 
   7:RecordingReporter.h **** #include "../TestDetails.h"
   8:RecordingReporter.h **** 
   9:RecordingReporter.h **** struct RecordingReporter : public UnitTest::TestReporter
  10:RecordingReporter.h **** {
  11:RecordingReporter.h **** private:
  12:RecordingReporter.h ****     enum { kMaxStringLength = 256 };
  13:RecordingReporter.h **** 
  14:RecordingReporter.h **** public:
  15:RecordingReporter.h ****     RecordingReporter()
 203              		.loc 5 15 0
 204              		.cfi_startproc
 205 0000 55       		pushq	%rbp
 206              		.cfi_def_cfa_offset 16
 207              		.cfi_offset 6, -16
 208 0001 4889E5   		movq	%rsp, %rbp
 209              		.cfi_def_cfa_register 6
 210 0004 4883EC10 		subq	$16, %rsp
 211 0008 48897DF8 		movq	%rdi, -8(%rbp)
 212              	.LBB5:
  16:RecordingReporter.h ****         : testRunCount(0)
  17:RecordingReporter.h ****         , testFailedCount(0)
  18:RecordingReporter.h ****         , lastFailedLine(0)
  19:RecordingReporter.h ****         , testFinishedCount(0)
  20:RecordingReporter.h ****         , lastFinishedTestTime(0)
  21:RecordingReporter.h ****         , summaryTotalTestCount(0)
  22:RecordingReporter.h ****         , summaryFailedTestCount(0)
  23:RecordingReporter.h ****         , summaryFailureCount(0)
  24:RecordingReporter.h ****         , summarySecondsElapsed(0)
 213              		.loc 5 24 0
 214 000c 488B45F8 		movq	-8(%rbp), %rax
 215 0010 4889C7   		movq	%rax, %rdi
 216 0013 E8000000 		call	_ZN8UnitTest12TestReporterC2Ev
 216      00
 217 0018 488D1500 		leaq	16+_ZTV17RecordingReporter(%rip), %rdx
 217      000000
 218 001f 488B45F8 		movq	-8(%rbp), %rax
 219 0023 488910   		movq	%rdx, (%rax)
 220 0026 488B45F8 		movq	-8(%rbp), %rax
 221 002a C7400800 		movl	$0, 8(%rax)
 221      000000
 222 0031 488B45F8 		movq	-8(%rbp), %rax
 223 0035 C7800C02 		movl	$0, 524(%rax)
 223      00000000 
 223      0000
 224 003f 488B45F8 		movq	-8(%rbp), %rax
 225 0043 C7801003 		movl	$0, 784(%rax)
 225      00000000 
 225      0000
 226 004d 488B45F8 		movq	-8(%rbp), %rax
 227 0051 C7801406 		movl	$0, 1556(%rax)
 227      00000000 
 227      0000
 228 005b 488B45F8 		movq	-8(%rbp), %rax
 229 005f 660FEFC0 		pxor	%xmm0, %xmm0
 230 0063 F30F1180 		movss	%xmm0, 2072(%rax)
 230      18080000 
 231 006b 488B45F8 		movq	-8(%rbp), %rax
 232 006f C7801C08 		movl	$0, 2076(%rax)
 232      00000000 
 232      0000
 233 0079 488B45F8 		movq	-8(%rbp), %rax
 234 007d C7802008 		movl	$0, 2080(%rax)
 234      00000000 
 234      0000
 235 0087 488B45F8 		movq	-8(%rbp), %rax
 236 008b C7802408 		movl	$0, 2084(%rax)
 236      00000000 
 236      0000
 237 0095 488B45F8 		movq	-8(%rbp), %rax
 238 0099 660FEFC0 		pxor	%xmm0, %xmm0
 239 009d F30F1180 		movss	%xmm0, 2088(%rax)
 239      28080000 
  25:RecordingReporter.h ****     {
  26:RecordingReporter.h ****         lastStartedSuite[0] = '\0';
 240              		.loc 5 26 0
 241 00a5 488B45F8 		movq	-8(%rbp), %rax
 242 00a9 C6400C00 		movb	$0, 12(%rax)
  27:RecordingReporter.h ****         lastStartedTest[0] = '\0';
 243              		.loc 5 27 0
 244 00ad 488B45F8 		movq	-8(%rbp), %rax
 245 00b1 C6800C01 		movb	$0, 268(%rax)
 245      000000
  28:RecordingReporter.h ****         lastFailedFile[0] = '\0';
 246              		.loc 5 28 0
 247 00b8 488B45F8 		movq	-8(%rbp), %rax
 248 00bc C6801002 		movb	$0, 528(%rax)
 248      000000
  29:RecordingReporter.h ****         lastFailedSuite[0] = '\0';
 249              		.loc 5 29 0
 250 00c3 488B45F8 		movq	-8(%rbp), %rax
 251 00c7 C6801403 		movb	$0, 788(%rax)
 251      000000
  30:RecordingReporter.h ****         lastFailedTest[0] = '\0';
 252              		.loc 5 30 0
 253 00ce 488B45F8 		movq	-8(%rbp), %rax
 254 00d2 C6801404 		movb	$0, 1044(%rax)
 254      000000
  31:RecordingReporter.h ****         lastFailedMessage[0] = '\0';
 255              		.loc 5 31 0
 256 00d9 488B45F8 		movq	-8(%rbp), %rax
 257 00dd C6801405 		movb	$0, 1300(%rax)
 257      000000
  32:RecordingReporter.h ****         lastFinishedSuite[0] = '\0';
 258              		.loc 5 32 0
 259 00e4 488B45F8 		movq	-8(%rbp), %rax
 260 00e8 C6801806 		movb	$0, 1560(%rax)
 260      000000
  33:RecordingReporter.h ****         lastFinishedTest[0] = '\0';
 261              		.loc 5 33 0
 262 00ef 488B45F8 		movq	-8(%rbp), %rax
 263 00f3 C6801807 		movb	$0, 1816(%rax)
 263      000000
 264              	.LBE5:
  34:RecordingReporter.h ****     }
 265              		.loc 5 34 0
 266 00fa 90       		nop
 267 00fb C9       		leave
 268              		.cfi_def_cfa 7, 8
 269 00fc C3       		ret
 270              		.cfi_endproc
 271              	.LFE1092:
 273              		.weak	_ZN17RecordingReporterC1Ev
 274              		.set	_ZN17RecordingReporterC1Ev,_ZN17RecordingReporterC2Ev
 275              		.section	.text._ZN17RecordingReporter15ReportTestStartERKN8UnitTest11TestDetailsE,"axG",@progbits,
 276              		.align 2
 277              		.weak	_ZN17RecordingReporter15ReportTestStartERKN8UnitTest11TestDetailsE
 279              	_ZN17RecordingReporter15ReportTestStartERKN8UnitTest11TestDetailsE:
 280              	.LFB1094:
  35:RecordingReporter.h **** 
  36:RecordingReporter.h ****     virtual void ReportTestStart(UnitTest::TestDetails const& test)
 281              		.loc 5 36 0
 282              		.cfi_startproc
 283 0000 55       		pushq	%rbp
 284              		.cfi_def_cfa_offset 16
 285              		.cfi_offset 6, -16
 286 0001 4889E5   		movq	%rsp, %rbp
 287              		.cfi_def_cfa_register 6
 288 0004 4883EC10 		subq	$16, %rsp
 289 0008 48897DF8 		movq	%rdi, -8(%rbp)
 290 000c 488975F0 		movq	%rsi, -16(%rbp)
  37:RecordingReporter.h ****     {
  38:RecordingReporter.h **** 		using namespace std;
  39:RecordingReporter.h **** 
  40:RecordingReporter.h ****         ++testRunCount;
 291              		.loc 5 40 0
 292 0010 488B45F8 		movq	-8(%rbp), %rax
 293 0014 8B4008   		movl	8(%rax), %eax
 294 0017 8D5001   		leal	1(%rax), %edx
 295 001a 488B45F8 		movq	-8(%rbp), %rax
 296 001e 895008   		movl	%edx, 8(%rax)
  41:RecordingReporter.h ****         strcpy(lastStartedSuite, test.suiteName);
 297              		.loc 5 41 0
 298 0021 488B45F0 		movq	-16(%rbp), %rax
 299 0025 488B00   		movq	(%rax), %rax
 300 0028 488B55F8 		movq	-8(%rbp), %rdx
 301 002c 4883C20C 		addq	$12, %rdx
 302 0030 4889C6   		movq	%rax, %rsi
 303 0033 4889D7   		movq	%rdx, %rdi
 304 0036 E8000000 		call	strcpy@PLT
 304      00
  42:RecordingReporter.h ****         strcpy(lastStartedTest, test.testName);
 305              		.loc 5 42 0
 306 003b 488B45F0 		movq	-16(%rbp), %rax
 307 003f 488B4008 		movq	8(%rax), %rax
 308 0043 488B55F8 		movq	-8(%rbp), %rdx
 309 0047 4881C20C 		addq	$268, %rdx
 309      010000
 310 004e 4889C6   		movq	%rax, %rsi
 311 0051 4889D7   		movq	%rdx, %rdi
 312 0054 E8000000 		call	strcpy@PLT
 312      00
  43:RecordingReporter.h ****     }
 313              		.loc 5 43 0
 314 0059 90       		nop
 315 005a C9       		leave
 316              		.cfi_def_cfa 7, 8
 317 005b C3       		ret
 318              		.cfi_endproc
 319              	.LFE1094:
 321              		.section	.text._ZN17RecordingReporter13ReportFailureERKN8UnitTest11TestDetailsEPKc,"axG",@progbits
 322              		.align 2
 323              		.weak	_ZN17RecordingReporter13ReportFailureERKN8UnitTest11TestDetailsEPKc
 325              	_ZN17RecordingReporter13ReportFailureERKN8UnitTest11TestDetailsEPKc:
 326              	.LFB1095:
  44:RecordingReporter.h **** 
  45:RecordingReporter.h ****     virtual void ReportFailure(UnitTest::TestDetails const& test, char const* failure)
 327              		.loc 5 45 0
 328              		.cfi_startproc
 329 0000 55       		pushq	%rbp
 330              		.cfi_def_cfa_offset 16
 331              		.cfi_offset 6, -16
 332 0001 4889E5   		movq	%rsp, %rbp
 333              		.cfi_def_cfa_register 6
 334 0004 4883EC20 		subq	$32, %rsp
 335 0008 48897DF8 		movq	%rdi, -8(%rbp)
 336 000c 488975F0 		movq	%rsi, -16(%rbp)
 337 0010 488955E8 		movq	%rdx, -24(%rbp)
  46:RecordingReporter.h ****     {
  47:RecordingReporter.h **** 		using namespace std;
  48:RecordingReporter.h **** 
  49:RecordingReporter.h **** 		++testFailedCount;
 338              		.loc 5 49 0
 339 0014 488B45F8 		movq	-8(%rbp), %rax
 340 0018 8B800C02 		movl	524(%rax), %eax
 340      0000
 341 001e 8D5001   		leal	1(%rax), %edx
 342 0021 488B45F8 		movq	-8(%rbp), %rax
 343 0025 89900C02 		movl	%edx, 524(%rax)
 343      0000
  50:RecordingReporter.h ****         strcpy(lastFailedFile, test.filename);
 344              		.loc 5 50 0
 345 002b 488B45F0 		movq	-16(%rbp), %rax
 346 002f 488B4010 		movq	16(%rax), %rax
 347 0033 488B55F8 		movq	-8(%rbp), %rdx
 348 0037 4881C210 		addq	$528, %rdx
 348      020000
 349 003e 4889C6   		movq	%rax, %rsi
 350 0041 4889D7   		movq	%rdx, %rdi
 351 0044 E8000000 		call	strcpy@PLT
 351      00
  51:RecordingReporter.h ****         lastFailedLine = test.lineNumber;
 352              		.loc 5 51 0
 353 0049 488B45F0 		movq	-16(%rbp), %rax
 354 004d 8B5018   		movl	24(%rax), %edx
 355 0050 488B45F8 		movq	-8(%rbp), %rax
 356 0054 89901003 		movl	%edx, 784(%rax)
 356      0000
  52:RecordingReporter.h ****         strcpy(lastFailedSuite, test.suiteName);
 357              		.loc 5 52 0
 358 005a 488B45F0 		movq	-16(%rbp), %rax
 359 005e 488B00   		movq	(%rax), %rax
 360 0061 488B55F8 		movq	-8(%rbp), %rdx
 361 0065 4881C214 		addq	$788, %rdx
 361      030000
 362 006c 4889C6   		movq	%rax, %rsi
 363 006f 4889D7   		movq	%rdx, %rdi
 364 0072 E8000000 		call	strcpy@PLT
 364      00
  53:RecordingReporter.h ****         strcpy(lastFailedTest, test.testName);
 365              		.loc 5 53 0
 366 0077 488B45F0 		movq	-16(%rbp), %rax
 367 007b 488B4008 		movq	8(%rax), %rax
 368 007f 488B55F8 		movq	-8(%rbp), %rdx
 369 0083 4881C214 		addq	$1044, %rdx
 369      040000
 370 008a 4889C6   		movq	%rax, %rsi
 371 008d 4889D7   		movq	%rdx, %rdi
 372 0090 E8000000 		call	strcpy@PLT
 372      00
  54:RecordingReporter.h ****         strcpy(lastFailedMessage, failure);
 373              		.loc 5 54 0
 374 0095 488B45F8 		movq	-8(%rbp), %rax
 375 0099 488D9014 		leaq	1300(%rax), %rdx
 375      050000
 376 00a0 488B45E8 		movq	-24(%rbp), %rax
 377 00a4 4889C6   		movq	%rax, %rsi
 378 00a7 4889D7   		movq	%rdx, %rdi
 379 00aa E8000000 		call	strcpy@PLT
 379      00
  55:RecordingReporter.h ****     }
 380              		.loc 5 55 0
 381 00af 90       		nop
 382 00b0 C9       		leave
 383              		.cfi_def_cfa 7, 8
 384 00b1 C3       		ret
 385              		.cfi_endproc
 386              	.LFE1095:
 388              		.section	.text._ZN17RecordingReporter16ReportTestFinishERKN8UnitTest11TestDetailsEf,"axG",@progbit
 389              		.align 2
 390              		.weak	_ZN17RecordingReporter16ReportTestFinishERKN8UnitTest11TestDetailsEf
 392              	_ZN17RecordingReporter16ReportTestFinishERKN8UnitTest11TestDetailsEf:
 393              	.LFB1096:
  56:RecordingReporter.h **** 
  57:RecordingReporter.h ****     virtual void ReportTestFinish(UnitTest::TestDetails const& test, float testDuration)
 394              		.loc 5 57 0
 395              		.cfi_startproc
 396 0000 55       		pushq	%rbp
 397              		.cfi_def_cfa_offset 16
 398              		.cfi_offset 6, -16
 399 0001 4889E5   		movq	%rsp, %rbp
 400              		.cfi_def_cfa_register 6
 401 0004 4883EC20 		subq	$32, %rsp
 402 0008 48897DF8 		movq	%rdi, -8(%rbp)
 403 000c 488975F0 		movq	%rsi, -16(%rbp)
 404 0010 F30F1145 		movss	%xmm0, -20(%rbp)
 404      EC
  58:RecordingReporter.h ****     {
  59:RecordingReporter.h **** 		using namespace std;
  60:RecordingReporter.h **** 
  61:RecordingReporter.h **** 		++testFinishedCount;
 405              		.loc 5 61 0
 406 0015 488B45F8 		movq	-8(%rbp), %rax
 407 0019 8B801406 		movl	1556(%rax), %eax
 407      0000
 408 001f 8D5001   		leal	1(%rax), %edx
 409 0022 488B45F8 		movq	-8(%rbp), %rax
 410 0026 89901406 		movl	%edx, 1556(%rax)
 410      0000
  62:RecordingReporter.h ****         strcpy(lastFinishedSuite, test.suiteName);
 411              		.loc 5 62 0
 412 002c 488B45F0 		movq	-16(%rbp), %rax
 413 0030 488B00   		movq	(%rax), %rax
 414 0033 488B55F8 		movq	-8(%rbp), %rdx
 415 0037 4881C218 		addq	$1560, %rdx
 415      060000
 416 003e 4889C6   		movq	%rax, %rsi
 417 0041 4889D7   		movq	%rdx, %rdi
 418 0044 E8000000 		call	strcpy@PLT
 418      00
  63:RecordingReporter.h ****         strcpy(lastFinishedTest, test.testName);
 419              		.loc 5 63 0
 420 0049 488B45F0 		movq	-16(%rbp), %rax
 421 004d 488B4008 		movq	8(%rax), %rax
 422 0051 488B55F8 		movq	-8(%rbp), %rdx
 423 0055 4881C218 		addq	$1816, %rdx
 423      070000
 424 005c 4889C6   		movq	%rax, %rsi
 425 005f 4889D7   		movq	%rdx, %rdi
 426 0062 E8000000 		call	strcpy@PLT
 426      00
  64:RecordingReporter.h ****         lastFinishedTestTime = testDuration;
 427              		.loc 5 64 0
 428 0067 488B45F8 		movq	-8(%rbp), %rax
 429 006b F30F1045 		movss	-20(%rbp), %xmm0
 429      EC
 430 0070 F30F1180 		movss	%xmm0, 2072(%rax)
 430      18080000 
  65:RecordingReporter.h ****     }
 431              		.loc 5 65 0
 432 0078 90       		nop
 433 0079 C9       		leave
 434              		.cfi_def_cfa 7, 8
 435 007a C3       		ret
 436              		.cfi_endproc
 437              	.LFE1096:
 439              		.section	.text._ZN17RecordingReporter13ReportSummaryEiiif,"axG",@progbits,_ZN17RecordingReporter13
 440              		.align 2
 441              		.weak	_ZN17RecordingReporter13ReportSummaryEiiif
 443              	_ZN17RecordingReporter13ReportSummaryEiiif:
 444              	.LFB1097:
  66:RecordingReporter.h **** 
  67:RecordingReporter.h ****     virtual void ReportSummary(int totalTestCount, int failedTestCount, int failureCount, float sec
 445              		.loc 5 67 0
 446              		.cfi_startproc
 447 0000 55       		pushq	%rbp
 448              		.cfi_def_cfa_offset 16
 449              		.cfi_offset 6, -16
 450 0001 4889E5   		movq	%rsp, %rbp
 451              		.cfi_def_cfa_register 6
 452 0004 48897DF8 		movq	%rdi, -8(%rbp)
 453 0008 8975F4   		movl	%esi, -12(%rbp)
 454 000b 8955F0   		movl	%edx, -16(%rbp)
 455 000e 894DEC   		movl	%ecx, -20(%rbp)
 456 0011 F30F1145 		movss	%xmm0, -24(%rbp)
 456      E8
  68:RecordingReporter.h ****     {
  69:RecordingReporter.h ****         summaryTotalTestCount = totalTestCount;
 457              		.loc 5 69 0
 458 0016 488B45F8 		movq	-8(%rbp), %rax
 459 001a 8B55F4   		movl	-12(%rbp), %edx
 460 001d 89901C08 		movl	%edx, 2076(%rax)
 460      0000
  70:RecordingReporter.h ****         summaryFailedTestCount = failedTestCount;
 461              		.loc 5 70 0
 462 0023 488B45F8 		movq	-8(%rbp), %rax
 463 0027 8B55F0   		movl	-16(%rbp), %edx
 464 002a 89902008 		movl	%edx, 2080(%rax)
 464      0000
  71:RecordingReporter.h ****         summaryFailureCount = failureCount;
 465              		.loc 5 71 0
 466 0030 488B45F8 		movq	-8(%rbp), %rax
 467 0034 8B55EC   		movl	-20(%rbp), %edx
 468 0037 89902408 		movl	%edx, 2084(%rax)
 468      0000
  72:RecordingReporter.h ****         summarySecondsElapsed = secondsElapsed;
 469              		.loc 5 72 0
 470 003d 488B45F8 		movq	-8(%rbp), %rax
 471 0041 F30F1045 		movss	-24(%rbp), %xmm0
 471      E8
 472 0046 F30F1180 		movss	%xmm0, 2088(%rax)
 472      28080000 
  73:RecordingReporter.h ****     }
 473              		.loc 5 73 0
 474 004e 90       		nop
 475 004f 5D       		popq	%rbp
 476              		.cfi_def_cfa 7, 8
 477 0050 C3       		ret
 478              		.cfi_endproc
 479              	.LFE1097:
 481              		.section	.rodata
 482              	.LC2:
 483 000d 00       		.string	""
 484              		.text
 485              		.align 2
 487              	_ZN12_GLOBAL__N_18MockTestC2EPKcbbi:
 488              	.LFB1099:
 489              		.file 6 "TestTestRunner.cpp"
   1:TestTestRunner.cpp **** #include "../UnitTest++.h"
   2:TestTestRunner.cpp **** #include "RecordingReporter.h"
   3:TestTestRunner.cpp **** #include "../ReportAssert.h"
   4:TestTestRunner.cpp **** #include "../TestList.h"
   5:TestTestRunner.cpp **** #include "../TimeHelpers.h"
   6:TestTestRunner.cpp **** #include "../TimeConstraint.h"
   7:TestTestRunner.cpp **** 
   8:TestTestRunner.cpp **** using namespace UnitTest;
   9:TestTestRunner.cpp **** 
  10:TestTestRunner.cpp **** namespace
  11:TestTestRunner.cpp **** {
  12:TestTestRunner.cpp **** 
  13:TestTestRunner.cpp **** struct MockTest : public Test
  14:TestTestRunner.cpp **** {
  15:TestTestRunner.cpp ****     MockTest(char const* testName, bool const success_, bool const assert_, int const count_ = 1)
 490              		.loc 6 15 0
 491              		.cfi_startproc
 492 0000 55       		pushq	%rbp
 493              		.cfi_def_cfa_offset 16
 494              		.cfi_offset 6, -16
 495 0001 4889E5   		movq	%rsp, %rbp
 496              		.cfi_def_cfa_register 6
 497 0004 4883EC20 		subq	$32, %rsp
 498 0008 48897DF8 		movq	%rdi, -8(%rbp)
 499 000c 488975F0 		movq	%rsi, -16(%rbp)
 500 0010 89C8     		movl	%ecx, %eax
 501 0012 448945E4 		movl	%r8d, -28(%rbp)
 502 0016 8855EC   		movb	%dl, -20(%rbp)
 503 0019 8845E8   		movb	%al, -24(%rbp)
 504              	.LBB6:
  16:TestTestRunner.cpp ****         : Test(testName)
  17:TestTestRunner.cpp ****         , success(success_)
  18:TestTestRunner.cpp ****         , asserted(assert_)
  19:TestTestRunner.cpp ****         , count(count_)
 505              		.loc 6 19 0
 506 001c 488B45F8 		movq	-8(%rbp), %rax
 507 0020 488B75F0 		movq	-16(%rbp), %rsi
 508 0024 41B80000 		movl	$0, %r8d
 508      0000
 509 002a 488D0D00 		leaq	.LC2(%rip), %rcx
 509      000000
 510 0031 488D1500 		leaq	.LC0(%rip), %rdx
 510      000000
 511 0038 4889C7   		movq	%rax, %rdi
 512 003b E8000000 		call	_ZN8UnitTest4TestC2EPKcS2_S2_i@PLT
 512      00
 513 0040 488D1500 		leaq	16+_ZTVN12_GLOBAL__N_18MockTestE(%rip), %rdx
 513      000000
 514 0047 488B45F8 		movq	-8(%rbp), %rax
 515 004b 488910   		movq	%rdx, (%rax)
 516 004e 488B45F8 		movq	-8(%rbp), %rax
 517 0052 0FB655EC 		movzbl	-20(%rbp), %edx
 518 0056 885031   		movb	%dl, 49(%rax)
 519 0059 488B45F8 		movq	-8(%rbp), %rax
 520 005d 0FB655E8 		movzbl	-24(%rbp), %edx
 521 0061 885032   		movb	%dl, 50(%rax)
 522 0064 488B45F8 		movq	-8(%rbp), %rax
 523 0068 8B55E4   		movl	-28(%rbp), %edx
 524 006b 895034   		movl	%edx, 52(%rax)
 525              	.LBE6:
  20:TestTestRunner.cpp ****     {
  21:TestTestRunner.cpp ****     }
 526              		.loc 6 21 0
 527 006e 90       		nop
 528 006f C9       		leave
 529              		.cfi_def_cfa 7, 8
 530 0070 C3       		ret
 531              		.cfi_endproc
 532              	.LFE1099:
 534              		.set	_ZN12_GLOBAL__N_18MockTestC1EPKcbbi,_ZN12_GLOBAL__N_18MockTestC2EPKcbbi
 535              		.section	.rodata
 536              	.LC3:
 537 000e 66696C65 		.string	"file"
 537      00
 538              	.LC4:
 539 0013 64657363 		.string	"desc"
 539      00
 540              	.LC5:
 541 0018 6D657373 		.string	"message"
 541      61676500 
 542              		.text
 543 0071 90       		.align 2
 545              	_ZNK12_GLOBAL__N_18MockTest7RunImplEv:
 546              	.LFB1101:
  22:TestTestRunner.cpp **** 
  23:TestTestRunner.cpp ****     virtual void RunImpl() const
 547              		.loc 6 23 0
 548              		.cfi_startproc
 549 0072 55       		pushq	%rbp
 550              		.cfi_def_cfa_offset 16
 551              		.cfi_offset 6, -16
 552 0073 4889E5   		movq	%rsp, %rbp
 553              		.cfi_def_cfa_register 6
 554 0076 4883EC20 		subq	$32, %rsp
 555 007a 48897DE8 		movq	%rdi, -24(%rbp)
  24:TestTestRunner.cpp ****     {
  25:TestTestRunner.cpp **** 		TestResults& testResults_ = *CurrentTest::Results();
 556              		.loc 6 25 0
 557 007e E8000000 		call	_ZN8UnitTest11CurrentTest7ResultsEv@PLT
 557      00
 558 0083 488B00   		movq	(%rax), %rax
 559 0086 488945F8 		movq	%rax, -8(%rbp)
 560              	.LBB7:
  26:TestTestRunner.cpp ****         for (int i=0; i < count; ++i)
 561              		.loc 6 26 0
 562 008a C745F400 		movl	$0, -12(%rbp)
 562      000000
 563              	.L23:
 564              		.loc 6 26 0 is_stmt 0 discriminator 1
 565 0091 488B45E8 		movq	-24(%rbp), %rax
 566 0095 8B4034   		movl	52(%rax), %eax
 567 0098 3945F4   		cmpl	%eax, -12(%rbp)
 568 009b 7D59     		jge	.L24
  27:TestTestRunner.cpp ****         {
  28:TestTestRunner.cpp ****             if (asserted)
 569              		.loc 6 28 0 is_stmt 1
 570 009d 488B45E8 		movq	-24(%rbp), %rax
 571 00a1 0FB64032 		movzbl	50(%rax), %eax
 572 00a5 84C0     		testb	%al, %al
 573 00a7 741A     		je	.L21
  29:TestTestRunner.cpp ****                 ReportAssert("desc", "file", 0);
 574              		.loc 6 29 0
 575 00a9 BA000000 		movl	$0, %edx
 575      00
 576 00ae 488D3500 		leaq	.LC3(%rip), %rsi
 576      000000
 577 00b5 488D3D00 		leaq	.LC4(%rip), %rdi
 577      000000
 578 00bc E8000000 		call	_ZN8UnitTest12ReportAssertEPKcS1_i@PLT
 578      00
 579 00c1 EB2D     		jmp	.L22
 580              	.L21:
  30:TestTestRunner.cpp ****             else if (!success)
 581              		.loc 6 30 0
 582 00c3 488B45E8 		movq	-24(%rbp), %rax
 583 00c7 0FB64031 		movzbl	49(%rax), %eax
 584 00cb 83F001   		xorl	$1, %eax
 585 00ce 84C0     		testb	%al, %al
 586 00d0 741E     		je	.L22
  31:TestTestRunner.cpp ****                 testResults_.OnTestFailure(m_details, "message");
 587              		.loc 6 31 0
 588 00d2 488B45E8 		movq	-24(%rbp), %rax
 589 00d6 488D4808 		leaq	8(%rax), %rcx
 590 00da 488B45F8 		movq	-8(%rbp), %rax
 591 00de 488D1500 		leaq	.LC5(%rip), %rdx
 591      000000
 592 00e5 4889CE   		movq	%rcx, %rsi
 593 00e8 4889C7   		movq	%rax, %rdi
 594 00eb E8000000 		call	_ZN8UnitTest11TestResults13OnTestFailureERKNS_11TestDetailsEPKc@PLT
 594      00
 595              	.L22:
  26:TestTestRunner.cpp ****         {
 596              		.loc 6 26 0 discriminator 2
 597 00f0 8345F401 		addl	$1, -12(%rbp)
 598 00f4 EB9B     		jmp	.L23
 599              	.L24:
 600              	.LBE7:
  32:TestTestRunner.cpp ****         }
  33:TestTestRunner.cpp ****     }
 601              		.loc 6 33 0
 602 00f6 90       		nop
 603 00f7 C9       		leave
 604              		.cfi_def_cfa 7, 8
 605 00f8 C3       		ret
 606              		.cfi_endproc
 607              	.LFE1101:
 609 00f9 90       		.align 2
 611              	_ZN12_GLOBAL__N_111FixtureBaseC2Ev:
 612              	.LFB1103:
  34:TestTestRunner.cpp **** 
  35:TestTestRunner.cpp ****     bool const success;
  36:TestTestRunner.cpp ****     bool const asserted;
  37:TestTestRunner.cpp ****     int const count;
  38:TestTestRunner.cpp **** };
  39:TestTestRunner.cpp **** 
  40:TestTestRunner.cpp **** struct FixtureBase {
  41:TestTestRunner.cpp **** 	explicit FixtureBase() : runner(reporter) { }
 613              		.loc 6 41 0
 614              		.cfi_startproc
 615 00fa 55       		pushq	%rbp
 616              		.cfi_def_cfa_offset 16
 617              		.cfi_offset 6, -16
 618 00fb 4889E5   		movq	%rsp, %rbp
 619              		.cfi_def_cfa_register 6
 620 00fe 4883EC10 		subq	$16, %rsp
 621 0102 48897DF8 		movq	%rdi, -8(%rbp)
 622              	.LBB8:
 623              		.loc 6 41 0
 624 0106 488B45F8 		movq	-8(%rbp), %rax
 625 010a 488B55F8 		movq	-8(%rbp), %rdx
 626 010e 4883C218 		addq	$24, %rdx
 627 0112 4889D6   		movq	%rdx, %rsi
 628 0115 4889C7   		movq	%rax, %rdi
 629 0118 E8000000 		call	_ZN8UnitTest10TestRunnerC1ERNS_12TestReporterE@PLT
 629      00
 630 011d 488B45F8 		movq	-8(%rbp), %rax
 631 0121 4883C018 		addq	$24, %rax
 632 0125 4889C7   		movq	%rax, %rdi
 633 0128 E8000000 		call	_ZN17RecordingReporterC1Ev
 633      00
 634              	.LBE8:
 635 012d 90       		nop
 636 012e C9       		leave
 637              		.cfi_def_cfa 7, 8
 638 012f C3       		ret
 639              		.cfi_endproc
 640              	.LFE1103:
 642              		.align 2
 644              	_ZN12_GLOBAL__N_111FixtureBaseD2Ev:
 645              	.LFB1109:
  40:TestTestRunner.cpp **** 	explicit FixtureBase() : runner(reporter) { }
 646              		.loc 6 40 0
 647              		.cfi_startproc
 648              		.cfi_personality 0x9b,DW.ref.__gxx_personality_v0
 649              		.cfi_lsda 0x1b,.LLSDA1109
 650 0130 55       		pushq	%rbp
 651              		.cfi_def_cfa_offset 16
 652              		.cfi_offset 6, -16
 653 0131 4889E5   		movq	%rsp, %rbp
 654              		.cfi_def_cfa_register 6
 655 0134 53       		pushq	%rbx
 656 0135 4883EC18 		subq	$24, %rsp
 657              		.cfi_offset 3, -24
 658 0139 48897DE8 		movq	%rdi, -24(%rbp)
 659              	.LBB9:
  40:TestTestRunner.cpp **** 	explicit FixtureBase() : runner(reporter) { }
 660              		.loc 6 40 0
 661 013d 488B45E8 		movq	-24(%rbp), %rax
 662 0141 4883C018 		addq	$24, %rax
 663 0145 4889C7   		movq	%rax, %rdi
 664              	.LEHB4:
 665 0148 E8000000 		call	_ZN17RecordingReporterD1Ev
 665      00
 666              	.LEHE4:
  40:TestTestRunner.cpp **** 	explicit FixtureBase() : runner(reporter) { }
 667              		.loc 6 40 0 is_stmt 0 discriminator 2
 668 014d 488B45E8 		movq	-24(%rbp), %rax
 669 0151 4889C7   		movq	%rax, %rdi
 670              	.LEHB5:
 671 0154 E8000000 		call	_ZN8UnitTest10TestRunnerD1Ev@PLT
 671      00
 672              	.LEHE5:
 673              	.LBE9:
 674 0159 EB1A     		jmp	.L29
 675              	.L28:
 676 015b 4889C3   		movq	%rax, %rbx
 677              	.LBB10:
  40:TestTestRunner.cpp **** 	explicit FixtureBase() : runner(reporter) { }
 678              		.loc 6 40 0
 679 015e 488B45E8 		movq	-24(%rbp), %rax
 680 0162 4889C7   		movq	%rax, %rdi
 681 0165 E8000000 		call	_ZN8UnitTest10TestRunnerD1Ev@PLT
 681      00
 682 016a 4889D8   		movq	%rbx, %rax
 683 016d 4889C7   		movq	%rax, %rdi
 684              	.LEHB6:
 685 0170 E8000000 		call	_Unwind_Resume@PLT
 685      00
 686              	.LEHE6:
 687              	.L29:
 688              	.LBE10:
 689 0175 4883C418 		addq	$24, %rsp
 690 0179 5B       		popq	%rbx
 691 017a 5D       		popq	%rbp
 692              		.cfi_def_cfa 7, 8
 693 017b C3       		ret
 694              		.cfi_endproc
 695              	.LFE1109:
 696              		.section	.gcc_except_table,"a",@progbits
 697              	.LLSDA1109:
 698 0000 FF       		.byte	0xff
 699 0001 FF       		.byte	0xff
 700 0002 01       		.byte	0x1
 701 0003 0C       		.uleb128 .LLSDACSE1109-.LLSDACSB1109
 702              	.LLSDACSB1109:
 703 0004 18       		.uleb128 .LEHB4-.LFB1109
 704 0005 05       		.uleb128 .LEHE4-.LEHB4
 705 0006 2B       		.uleb128 .L28-.LFB1109
 706 0007 00       		.uleb128 0
 707 0008 24       		.uleb128 .LEHB5-.LFB1109
 708 0009 05       		.uleb128 .LEHE5-.LEHB5
 709 000a 00       		.uleb128 0
 710 000b 00       		.uleb128 0
 711 000c 40       		.uleb128 .LEHB6-.LFB1109
 712 000d 05       		.uleb128 .LEHE6-.LEHB6
 713 000e 00       		.uleb128 0
 714 000f 00       		.uleb128 0
 715              	.LLSDACSE1109:
 716              		.text
 718              		.align 2
 720              	_ZN12_GLOBAL__N_117TestRunnerFixtureC2Ev:
 721              	.LFB1111:
  42:TestTestRunner.cpp **** 	template <class Predicate>
  43:TestTestRunner.cpp **** 	int RunTestsIf(TestList const& list, char const* suiteName, 
  44:TestTestRunner.cpp **** 				   const Predicate& predicate, int maxTestTimeInMs)
  45:TestTestRunner.cpp **** 	{
  46:TestTestRunner.cpp **** 		TestResults* oldResults = CurrentTest::Results();
  47:TestTestRunner.cpp **** 		const TestDetails* oldDetails = CurrentTest::Details();
  48:TestTestRunner.cpp **** 		int result = runner.RunTestsIf(list, suiteName, predicate, maxTestTimeInMs);
  49:TestTestRunner.cpp **** 		CurrentTest::Results() = oldResults;
  50:TestTestRunner.cpp **** 		CurrentTest::Details() = oldDetails;
  51:TestTestRunner.cpp **** 		return result;
  52:TestTestRunner.cpp **** 	}
  53:TestTestRunner.cpp **** 	TestRunner runner;
  54:TestTestRunner.cpp ****     RecordingReporter reporter;
  55:TestTestRunner.cpp **** };
  56:TestTestRunner.cpp **** 
  57:TestTestRunner.cpp **** struct TestRunnerFixture : public FixtureBase
 722              		.loc 6 57 0 is_stmt 1
 723              		.cfi_startproc
 724              		.cfi_personality 0x9b,DW.ref.__gxx_personality_v0
 725              		.cfi_lsda 0x1b,.LLSDA1111
 726 017c 55       		pushq	%rbp
 727              		.cfi_def_cfa_offset 16
 728              		.cfi_offset 6, -16
 729 017d 4889E5   		movq	%rsp, %rbp
 730              		.cfi_def_cfa_register 6
 731 0180 53       		pushq	%rbx
 732 0181 4883EC18 		subq	$24, %rsp
 733              		.cfi_offset 3, -24
 734 0185 48897DE8 		movq	%rdi, -24(%rbp)
 735              	.LBB11:
 736              		.loc 6 57 0
 737 0189 488B45E8 		movq	-24(%rbp), %rax
 738 018d 4889C7   		movq	%rax, %rdi
 739              	.LEHB7:
 740 0190 E865FFFF 		call	_ZN12_GLOBAL__N_111FixtureBaseC2Ev
 740      FF
 741              	.LEHE7:
 742 0195 488B45E8 		movq	-24(%rbp), %rax
 743 0199 48054808 		addq	$2120, %rax
 743      0000
 744 019f 4889C7   		movq	%rax, %rdi
 745              	.LEHB8:
 746 01a2 E8000000 		call	_ZN8UnitTest8TestListC1Ev@PLT
 746      00
 747              	.LEHE8:
 748              	.LBE11:
 749 01a7 EB1A     		jmp	.L33
 750              	.L32:
 751 01a9 4889C3   		movq	%rax, %rbx
 752              	.LBB12:
 753 01ac 488B45E8 		movq	-24(%rbp), %rax
 754 01b0 4889C7   		movq	%rax, %rdi
 755 01b3 E878FFFF 		call	_ZN12_GLOBAL__N_111FixtureBaseD2Ev
 755      FF
 756 01b8 4889D8   		movq	%rbx, %rax
 757 01bb 4889C7   		movq	%rax, %rdi
 758              	.LEHB9:
 759 01be E8000000 		call	_Unwind_Resume@PLT
 759      00
 760              	.LEHE9:
 761              	.L33:
 762              	.LBE12:
 763 01c3 4883C418 		addq	$24, %rsp
 764 01c7 5B       		popq	%rbx
 765 01c8 5D       		popq	%rbp
 766              		.cfi_def_cfa 7, 8
 767 01c9 C3       		ret
 768              		.cfi_endproc
 769              	.LFE1111:
 770              		.section	.gcc_except_table
 771              	.LLSDA1111:
 772 0010 FF       		.byte	0xff
 773 0011 FF       		.byte	0xff
 774 0012 01       		.byte	0x1
 775 0013 0C       		.uleb128 .LLSDACSE1111-.LLSDACSB1111
 776              	.LLSDACSB1111:
 777 0014 14       		.uleb128 .LEHB7-.LFB1111
 778 0015 05       		.uleb128 .LEHE7-.LEHB7
 779 0016 00       		.uleb128 0
 780 0017 00       		.uleb128 0
 781 0018 26       		.uleb128 .LEHB8-.LFB1111
 782 0019 05       		.uleb128 .LEHE8-.LEHB8
 783 001a 2D       		.uleb128 .L32-.LFB1111
 784 001b 00       		.uleb128 0
 785 001c 42       		.uleb128 .LEHB9-.LFB1111
 786 001d 05       		.uleb128 .LEHE9-.LEHB9
 787 001e 00       		.uleb128 0
 788 001f 00       		.uleb128 0
 789              	.LLSDACSE1111:
 790              		.text
 792              		.align 2
 794              	_ZN12_GLOBAL__N_117TestRunnerFixtureD2Ev:
 795              	.LFB1114:
 796              		.loc 6 57 0
 797              		.cfi_startproc
 798 01ca 55       		pushq	%rbp
 799              		.cfi_def_cfa_offset 16
 800              		.cfi_offset 6, -16
 801 01cb 4889E5   		movq	%rsp, %rbp
 802              		.cfi_def_cfa_register 6
 803 01ce 4883EC10 		subq	$16, %rsp
 804 01d2 48897DF8 		movq	%rdi, -8(%rbp)
 805              	.LBB13:
 806              		.loc 6 57 0
 807 01d6 488B45F8 		movq	-8(%rbp), %rax
 808 01da 4889C7   		movq	%rax, %rdi
 809 01dd E84EFFFF 		call	_ZN12_GLOBAL__N_111FixtureBaseD2Ev
 809      FF
 810              	.LBE13:
 811 01e2 90       		nop
 812 01e3 C9       		leave
 813              		.cfi_def_cfa 7, 8
 814 01e4 C3       		ret
 815              		.cfi_endproc
 816              	.LFE1114:
 818 01e5 90       		.align 2
 820              	_ZN12_GLOBAL__N_151TestRunnerFixtureTestStartIsReportedCorrectlyHelperC2ERKN8UnitTest11TestDetailsE
 821              	.LFB1116:
  58:TestTestRunner.cpp **** {
  59:TestTestRunner.cpp ****     TestList list;
  60:TestTestRunner.cpp **** };
  61:TestTestRunner.cpp **** 
  62:TestTestRunner.cpp **** TEST_FIXTURE(TestRunnerFixture, TestStartIsReportedCorrectly)
 822              		.loc 6 62 0
 823              		.cfi_startproc
 824 01e6 55       		pushq	%rbp
 825              		.cfi_def_cfa_offset 16
 826              		.cfi_offset 6, -16
 827 01e7 4889E5   		movq	%rsp, %rbp
 828              		.cfi_def_cfa_register 6
 829 01ea 4883EC10 		subq	$16, %rsp
 830 01ee 48897DF8 		movq	%rdi, -8(%rbp)
 831 01f2 488975F0 		movq	%rsi, -16(%rbp)
 832              	.LBB14:
 833              		.loc 6 62 0
 834 01f6 488B45F8 		movq	-8(%rbp), %rax
 835 01fa 4889C7   		movq	%rax, %rdi
 836 01fd E87AFFFF 		call	_ZN12_GLOBAL__N_117TestRunnerFixtureC2Ev
 836      FF
 837 0202 488B45F8 		movq	-8(%rbp), %rax
 838 0206 488B55F0 		movq	-16(%rbp), %rdx
 839 020a 48899058 		movq	%rdx, 2136(%rax)
 839      080000
 840              	.LBE14:
 841 0211 90       		nop
 842 0212 C9       		leave
 843              		.cfi_def_cfa 7, 8
 844 0213 C3       		ret
 845              		.cfi_endproc
 846              	.LFE1116:
 848              		.set	_ZN12_GLOBAL__N_151TestRunnerFixtureTestStartIsReportedCorrectlyHelperC1ERKN8UnitTest11TestDe
 849              		.section	.rodata
 850              	.LC6:
 851 0020 54657374 		.string	"TestTestRunner.cpp"
 851      54657374 
 851      52756E6E 
 851      65722E63 
 851      707000
 852              	.LC7:
 853 0033 54657374 		.string	"TestStartIsReportedCorrectly"
 853      53746172 
 853      74497352 
 853      65706F72 
 853      74656443 
 854              		.text
 855              		.align 2
 857              	_ZN12_GLOBAL__N_149TestTestRunnerFixtureTestStartIsReportedCorrectlyC2Ev:
 858              	.LFB1119:
 859              		.loc 6 62 0
 860              		.cfi_startproc
 861 0214 55       		pushq	%rbp
 862              		.cfi_def_cfa_offset 16
 863              		.cfi_offset 6, -16
 864 0215 4889E5   		movq	%rsp, %rbp
 865              		.cfi_def_cfa_register 6
 866 0218 53       		pushq	%rbx
 867 0219 4883EC18 		subq	$24, %rsp
 868              		.cfi_offset 3, -24
 869 021d 48897DE8 		movq	%rdi, -24(%rbp)
 870              	.LBB15:
 871              		.loc 6 62 0
 872 0221 488B5DE8 		movq	-24(%rbp), %rbx
 873 0225 E8000000 		call	_ZN13UnitTestSuite12GetSuiteNameEv
 873      00
 874 022a 41B83E00 		movl	$62, %r8d
 874      0000
 875 0230 488D0D00 		leaq	.LC6(%rip), %rcx
 875      000000
 876 0237 4889C2   		movq	%rax, %rdx
 877 023a 488D3500 		leaq	.LC7(%rip), %rsi
 877      000000
 878 0241 4889DF   		movq	%rbx, %rdi
 879 0244 E8000000 		call	_ZN8UnitTest4TestC2EPKcS2_S2_i@PLT
 879      00
 880 0249 488D1500 		leaq	16+_ZTVN12_GLOBAL__N_149TestTestRunnerFixtureTestStartIsReportedCorrectlyE(%rip), %rdx
 880      000000
 881 0250 488B45E8 		movq	-24(%rbp), %rax
 882 0254 488910   		movq	%rdx, (%rax)
 883              	.LBE15:
 884 0257 90       		nop
 885 0258 4883C418 		addq	$24, %rsp
 886 025c 5B       		popq	%rbx
 887 025d 5D       		popq	%rbp
 888              		.cfi_def_cfa 7, 8
 889 025e C3       		ret
 890              		.cfi_endproc
 891              	.LFE1119:
 893              		.set	_ZN12_GLOBAL__N_149TestTestRunnerFixtureTestStartIsReportedCorrectlyC1Ev,_ZN12_GLOBAL__N_149T
 894              		.local	_ZN12_GLOBAL__N_157testTestRunnerFixtureTestStartIsReportedCorrectlyInstanceE
 895              		.comm	_ZN12_GLOBAL__N_157testTestRunnerFixtureTestStartIsReportedCorrectlyInstanceE,56,32
 896              		.local	_ZN12_GLOBAL__N_150adderTestRunnerFixtureTestStartIsReportedCorrectlyE
 897              		.comm	_ZN12_GLOBAL__N_150adderTestRunnerFixtureTestStartIsReportedCorrectlyE,1,1
 898 025f 90       		.align 2
 900              	_ZN12_GLOBAL__N_151TestRunnerFixtureTestStartIsReportedCorrectlyHelperD2Ev:
 901              	.LFB1123:
 902              		.loc 6 62 0
 903              		.cfi_startproc
 904 0260 55       		pushq	%rbp
 905              		.cfi_def_cfa_offset 16
 906              		.cfi_offset 6, -16
 907 0261 4889E5   		movq	%rsp, %rbp
 908              		.cfi_def_cfa_register 6
 909 0264 4883EC10 		subq	$16, %rsp
 910 0268 48897DF8 		movq	%rdi, -8(%rbp)
 911              	.LBB16:
 912              		.loc 6 62 0
 913 026c 488B45F8 		movq	-8(%rbp), %rax
 914 0270 4889C7   		movq	%rax, %rdi
 915 0273 E852FFFF 		call	_ZN12_GLOBAL__N_117TestRunnerFixtureD2Ev
 915      FF
 916              	.LBE16:
 917 0278 90       		nop
 918 0279 C9       		leave
 919              		.cfi_def_cfa 7, 8
 920 027a C3       		ret
 921              		.cfi_endproc
 922              	.LFE1123:
 924              		.set	_ZN12_GLOBAL__N_151TestRunnerFixtureTestStartIsReportedCorrectlyHelperD1Ev,_ZN12_GLOBAL__N_15
 925              		.section	.rodata
 926              	.LC8:
 927 0050 556E6861 		.string	"Unhandled exception: "
 927      6E646C65 
 927      64206578 
 927      63657074 
 927      696F6E3A 
 928 0066 0000     		.align 8
 929              	.LC9:
 930 0068 556E6861 		.string	"Unhandled exception while destroying fixture TestRunnerFixture"
 930      6E646C65 
 930      64206578 
 930      63657074 
 930      696F6E20 
 931 00a7 00       		.align 8
 932              	.LC10:
 933 00a8 556E6861 		.string	"Unhandled exception while constructing fixture TestRunnerFixture"
 933      6E646C65 
 933      64206578 
 933      63657074 
 933      696F6E20 
 934              		.text
 935 027b 90       		.align 2
 937              	_ZNK12_GLOBAL__N_149TestTestRunnerFixtureTestStartIsReportedCorrectly7RunImplEv:
 938              	.LFB1121:
 939              		.loc 6 62 0
 940              		.cfi_startproc
 941              		.cfi_personality 0x9b,DW.ref.__gxx_personality_v0
 942              		.cfi_lsda 0x1b,.LLSDA1121
 943 027c 55       		pushq	%rbp
 944              		.cfi_def_cfa_offset 16
 945              		.cfi_offset 6, -16
 946 027d 4889E5   		movq	%rsp, %rbp
 947              		.cfi_def_cfa_register 6
 948 0280 4155     		pushq	%r13
 949 0282 4154     		pushq	%r12
 950 0284 53       		pushq	%rbx
 951 0285 4881ECC8 		subq	$2248, %rsp
 951      080000
 952              		.cfi_offset 13, -24
 953              		.cfi_offset 12, -32
 954              		.cfi_offset 3, -40
 955 028c 4889BD28 		movq	%rdi, -2264(%rbp)
 955      F7FFFF
 956              		.loc 6 62 0
 957 0293 64488B04 		movq	%fs:40, %rax
 957      25280000 
 957      00
 958 029c 488945D8 		movq	%rax, -40(%rbp)
 959 02a0 31C0     		xorl	%eax, %eax
 960 02a2 C6853FF7 		movb	$0, -2241(%rbp)
 960      FFFF00
 961              	.LBB17:
 962 02a9 488B8528 		movq	-2264(%rbp), %rax
 962      F7FFFF
 963 02b0 488D5008 		leaq	8(%rax), %rdx
 964 02b4 488D8570 		leaq	-2192(%rbp), %rax
 964      F7FFFF
 965 02bb 4889D6   		movq	%rdx, %rsi
 966 02be 4889C7   		movq	%rax, %rdi
 967              	.LEHB10:
 968 02c1 E820FFFF 		call	_ZN12_GLOBAL__N_151TestRunnerFixtureTestStartIsReportedCorrectlyHelperC1ERKN8UnitTest11TestDe
 968      FF
 969              	.LEHE10:
 970              		.loc 6 62 0 is_stmt 0 discriminator 1
 971 02c6 C6853FF7 		movb	$1, -2241(%rbp)
 971      FFFF01
 972 02cd 488B8528 		movq	-2264(%rbp), %rax
 972      F7FFFF
 973 02d4 488D5008 		leaq	8(%rax), %rdx
 974 02d8 488D8570 		leaq	-2192(%rbp), %rax
 974      F7FFFF
 975 02df 4889D6   		movq	%rdx, %rsi
 976 02e2 4889C7   		movq	%rax, %rdi
 977              	.LEHB11:
 978 02e5 E8156900 		call	_ZN8UnitTest11ExecuteTestIN12_GLOBAL__N_151TestRunnerFixtureTestStartIsReportedCorrectlyHelpe
 978      00
 979              	.LEHE11:
 980              		.loc 6 62 0 discriminator 3
 981 02ea 488D8570 		leaq	-2192(%rbp), %rax
 981      F7FFFF
 982 02f1 4889C7   		movq	%rax, %rdi
 983              	.LEHB12:
 984 02f4 E867FFFF 		call	_ZN12_GLOBAL__N_151TestRunnerFixtureTestStartIsReportedCorrectlyHelperD1Ev
 984      FF
 985              	.LEHE12:
 986              	.LBE17:
 987              		.loc 6 62 0
 988 02f9 E9690200 		jmp	.L38
 988      00
 989              	.L53:
 990 02fe 4989C4   		movq	%rax, %r12
 991 0301 4889D3   		movq	%rdx, %rbx
 992              	.LBB18:
 993 0304 488D8570 		leaq	-2192(%rbp), %rax
 993      F7FFFF
 994 030b 4889C7   		movq	%rax, %rdi
 995 030e E84DFFFF 		call	_ZN12_GLOBAL__N_151TestRunnerFixtureTestStartIsReportedCorrectlyHelperD1Ev
 995      FF
 996 0313 4C89E0   		movq	%r12, %rax
 997 0316 4889DA   		movq	%rbx, %rdx
 998 0319 EB00     		jmp	.L40
 999              	.L52:
 1000              	.L40:
 1001 031b 4883FA01 		cmpq	$1, %rdx
 1002 031f 740F     		je	.L42
 1003 0321 4883FA02 		cmpq	$2, %rdx
 1004 0325 0F84A700 		je	.L43
 1004      0000
 1005 032b E94A0100 		jmp	.L58
 1005      00
 1006              	.L42:
 1007              	.LBE18:
 1008              	.LBB19:
 1009 0330 4889C7   		movq	%rax, %rdi
 1010 0333 E8000000 		call	__cxa_begin_catch@PLT
 1010      00
 1011 0338 48898548 		movq	%rax, -2232(%rbp)
 1011      F7FFFF
 1012              	.LEHB13:
 1013 033f E8000000 		call	_ZN8UnitTest11CurrentTest7ResultsEv@PLT
 1013      00
 1014 0344 488B18   		movq	(%rax), %rbx
 1015 0347 488B8548 		movq	-2232(%rbp), %rax
 1015      F7FFFF
 1016 034e 488B00   		movq	(%rax), %rax
 1017 0351 4883C010 		addq	$16, %rax
 1018 0355 488B00   		movq	(%rax), %rax
 1019 0358 488B9548 		movq	-2232(%rbp), %rdx
 1019      F7FFFF
 1020 035f 4889D7   		movq	%rdx, %rdi
 1021 0362 FFD0     		call	*%rax
 1022              	.LVL0:
 1023 0364 4989C4   		movq	%rax, %r12
 1024 0367 488B8548 		movq	-2232(%rbp), %rax
 1024      F7FFFF
 1025 036e 4889C7   		movq	%rax, %rdi
 1026 0371 E8000000 		call	_ZNK8UnitTest15AssertException10LineNumberEv@PLT
 1026      00
 1027              		.loc 6 62 0 discriminator 5
 1028 0376 4189C5   		movl	%eax, %r13d
 1029 0379 488B8548 		movq	-2232(%rbp), %rax
 1029      F7FFFF
 1030 0380 4889C7   		movq	%rax, %rdi
 1031 0383 E8000000 		call	_ZNK8UnitTest15AssertException8FilenameEv@PLT
 1031      00
 1032              		.loc 6 62 0 discriminator 7
 1033 0388 4889C1   		movq	%rax, %rcx
 1034 038b 488B8528 		movq	-2264(%rbp), %rax
 1034      F7FFFF
 1035 0392 488B5008 		movq	8(%rax), %rdx
 1036 0396 488B8528 		movq	-2264(%rbp), %rax
 1036      F7FFFF
 1037 039d 488B7010 		movq	16(%rax), %rsi
 1038 03a1 488D8550 		leaq	-2224(%rbp), %rax
 1038      F7FFFF
 1039 03a8 4589E8   		movl	%r13d, %r8d
 1040 03ab 4889C7   		movq	%rax, %rdi
 1041 03ae E8000000 		call	_ZN8UnitTest11TestDetailsC1EPKcS2_S2_i@PLT
 1041      00
 1042              		.loc 6 62 0 discriminator 11
 1043 03b3 488D8550 		leaq	-2224(%rbp), %rax
 1043      F7FFFF
 1044 03ba 4C89E2   		movq	%r12, %rdx
 1045 03bd 4889C6   		movq	%rax, %rsi
 1046 03c0 4889DF   		movq	%rbx, %rdi
 1047 03c3 E8000000 		call	_ZN8UnitTest11TestResults13OnTestFailureERKNS_11TestDetailsEPKc@PLT
 1047      00
 1048              	.LEHE13:
 1049              		.loc 6 62 0 discriminator 13
 1050 03c8 E8000000 		call	__cxa_end_catch@PLT
 1050      00
 1051              	.LBE19:
 1052 03cd E9950100 		jmp	.L38
 1052      00
 1053              	.L43:
 1054              	.LBB20:
 1055              		.loc 6 62 0
 1056 03d2 4889C7   		movq	%rax, %rdi
 1057 03d5 E8000000 		call	__cxa_begin_catch@PLT
 1057      00
 1058 03da 48898540 		movq	%rax, -2240(%rbp)
 1058      F7FFFF
 1059              	.LBB21:
 1060 03e1 488D8570 		leaq	-2192(%rbp), %rax
 1060      F7FFFF
 1061 03e8 4889C7   		movq	%rax, %rdi
 1062              	.LEHB14:
 1063 03eb E8000000 		call	_ZN8UnitTest15MemoryOutStreamC1Ev
 1063      00
 1064              	.LEHE14:
 1065              		.loc 6 62 0 discriminator 15
 1066 03f0 488D8570 		leaq	-2192(%rbp), %rax
 1066      F7FFFF
 1067 03f7 488D3500 		leaq	.LC8(%rip), %rsi
 1067      000000
 1068 03fe 4889C7   		movq	%rax, %rdi
 1069              	.LEHB15:
 1070 0401 E8000000 		call	_ZStlsISt11char_traitsIcEERSt13basic_ostreamIcT_ES5_PKc@PLT
 1070      00
 1071 0406 4889C3   		movq	%rax, %rbx
 1072 0409 488B8540 		movq	-2240(%rbp), %rax
 1072      F7FFFF
 1073 0410 488B00   		movq	(%rax), %rax
 1074 0413 4883C010 		addq	$16, %rax
 1075 0417 488B00   		movq	(%rax), %rax
 1076 041a 488B9540 		movq	-2240(%rbp), %rdx
 1076      F7FFFF
 1077 0421 4889D7   		movq	%rdx, %rdi
 1078 0424 FFD0     		call	*%rax
 1079              	.LVL1:
 1080 0426 4889C6   		movq	%rax, %rsi
 1081 0429 4889DF   		movq	%rbx, %rdi
 1082 042c E8000000 		call	_ZStlsISt11char_traitsIcEERSt13basic_ostreamIcT_ES5_PKc@PLT
 1082      00
 1083              		.loc 6 62 0 discriminator 19
 1084 0431 E8000000 		call	_ZN8UnitTest11CurrentTest7ResultsEv@PLT
 1084      00
 1085 0436 488B18   		movq	(%rax), %rbx
 1086 0439 488D8570 		leaq	-2192(%rbp), %rax
 1086      F7FFFF
 1087 0440 4889C7   		movq	%rax, %rdi
 1088 0443 E8000000 		call	_ZNK8UnitTest15MemoryOutStream7GetTextEv@PLT
 1088      00
 1089              		.loc 6 62 0 discriminator 21
 1090 0448 4889C2   		movq	%rax, %rdx
 1091 044b 488B8528 		movq	-2264(%rbp), %rax
 1091      F7FFFF
 1092 0452 4883C008 		addq	$8, %rax
 1093 0456 4889C6   		movq	%rax, %rsi
 1094 0459 4889DF   		movq	%rbx, %rdi
 1095 045c E8000000 		call	_ZN8UnitTest11TestResults13OnTestFailureERKNS_11TestDetailsEPKc@PLT
 1095      00
 1096              	.LEHE15:
 1097              		.loc 6 62 0 discriminator 25
 1098 0461 488D8570 		leaq	-2192(%rbp), %rax
 1098      F7FFFF
 1099 0468 4889C7   		movq	%rax, %rdi
 1100              	.LEHB16:
 1101 046b E8000000 		call	_ZN8UnitTest15MemoryOutStreamD1Ev
 1101      00
 1102              	.LEHE16:
 1103              	.LBE21:
 1104              		.loc 6 62 0 discriminator 26
 1105 0470 E8000000 		call	__cxa_end_catch@PLT
 1105      00
 1106              	.LBE20:
 1107 0475 E9ED0000 		jmp	.L38
 1107      00
 1108              	.L58:
 1109              		.loc 6 62 0
 1110 047a 4889C7   		movq	%rax, %rdi
 1111 047d E8000000 		call	__cxa_begin_catch@PLT
 1111      00
 1112 0482 80BD3FF7 		cmpb	$0, -2241(%rbp)
 1112      FFFF00
 1113 0489 7445     		je	.L45
 1114              	.LEHB17:
 1115              		.loc 6 62 0 discriminator 28
 1116 048b E8000000 		call	_ZN8UnitTest11CurrentTest7ResultsEv@PLT
 1116      00
 1117 0490 488B18   		movq	(%rax), %rbx
 1118 0493 488B8528 		movq	-2264(%rbp), %rax
 1118      F7FFFF
 1119 049a 488D4808 		leaq	8(%rax), %rcx
 1120 049e 488D8550 		leaq	-2224(%rbp), %rax
 1120      F7FFFF
 1121 04a5 BA3E0000 		movl	$62, %edx
 1121      00
 1122 04aa 4889CE   		movq	%rcx, %rsi
 1123 04ad 4889C7   		movq	%rax, %rdi
 1124 04b0 E8000000 		call	_ZN8UnitTest11TestDetailsC1ERKS0_i@PLT
 1124      00
 1125              		.loc 6 62 0 discriminator 33
 1126 04b5 488D8550 		leaq	-2224(%rbp), %rax
 1126      F7FFFF
 1127 04bc 488D1500 		leaq	.LC9(%rip), %rdx
 1127      000000
 1128 04c3 4889C6   		movq	%rax, %rsi
 1129 04c6 4889DF   		movq	%rbx, %rdi
 1130 04c9 E8000000 		call	_ZN8UnitTest11TestResults13OnTestFailureERKNS_11TestDetailsEPKc@PLT
 1130      00
 1131 04ce EB43     		jmp	.L46
 1132              	.L45:
 1133              		.loc 6 62 0 discriminator 29
 1134 04d0 E8000000 		call	_ZN8UnitTest11CurrentTest7ResultsEv@PLT
 1134      00
 1135 04d5 488B18   		movq	(%rax), %rbx
 1136 04d8 488B8528 		movq	-2264(%rbp), %rax
 1136      F7FFFF
 1137 04df 488D4808 		leaq	8(%rax), %rcx
 1138 04e3 488D8550 		leaq	-2224(%rbp), %rax
 1138      F7FFFF
 1139 04ea BA3E0000 		movl	$62, %edx
 1139      00
 1140 04ef 4889CE   		movq	%rcx, %rsi
 1141 04f2 4889C7   		movq	%rax, %rdi
 1142 04f5 E8000000 		call	_ZN8UnitTest11TestDetailsC1ERKS0_i@PLT
 1142      00
 1143              		.loc 6 62 0 discriminator 40
 1144 04fa 488D8550 		leaq	-2224(%rbp), %rax
 1144      F7FFFF
 1145 0501 488D1500 		leaq	.LC10(%rip), %rdx
 1145      000000
 1146 0508 4889C6   		movq	%rax, %rsi
 1147 050b 4889DF   		movq	%rbx, %rdi
 1148 050e E8000000 		call	_ZN8UnitTest11TestResults13OnTestFailureERKNS_11TestDetailsEPKc@PLT
 1148      00
 1149              	.LEHE17:
 1150              	.L46:
 1151              	.LEHB18:
 1152              		.loc 6 62 0 discriminator 43
 1153 0513 E8000000 		call	__cxa_end_catch@PLT
 1153      00
 1154 0518 EB4D     		jmp	.L38
 1155              	.L54:
 1156 051a 4889C3   		movq	%rax, %rbx
 1157              	.LBB23:
 1158              		.loc 6 62 0
 1159 051d E8000000 		call	__cxa_end_catch@PLT
 1159      00
 1160 0522 4889D8   		movq	%rbx, %rax
 1161 0525 4889C7   		movq	%rax, %rdi
 1162 0528 E8000000 		call	_Unwind_Resume@PLT
 1162      00
 1163              	.LEHE18:
 1164              	.L56:
 1165 052d 4889C3   		movq	%rax, %rbx
 1166              	.LBE23:
 1167              	.LBB24:
 1168              	.LBB22:
 1169 0530 488D8570 		leaq	-2192(%rbp), %rax
 1169      F7FFFF
 1170 0537 4889C7   		movq	%rax, %rdi
 1171 053a E8000000 		call	_ZN8UnitTest15MemoryOutStreamD1Ev
 1171      00
 1172 053f EB03     		jmp	.L49
 1173              	.L55:
 1174 0541 4889C3   		movq	%rax, %rbx
 1175              	.L49:
 1176              	.LBE22:
 1177 0544 E8000000 		call	__cxa_end_catch@PLT
 1177      00
 1178 0549 4889D8   		movq	%rbx, %rax
 1179 054c 4889C7   		movq	%rax, %rdi
 1180              	.LEHB19:
 1181 054f E8000000 		call	_Unwind_Resume@PLT
 1181      00
 1182              	.LEHE19:
 1183              	.L57:
 1184 0554 4889C3   		movq	%rax, %rbx
 1185              	.LBE24:
 1186 0557 E8000000 		call	__cxa_end_catch@PLT
 1186      00
 1187 055c 4889D8   		movq	%rbx, %rax
 1188 055f 4889C7   		movq	%rax, %rdi
 1189              	.LEHB20:
 1190 0562 E8000000 		call	_Unwind_Resume@PLT
 1190      00
 1191              	.LEHE20:
 1192              	.L38:
 1193 0567 488B45D8 		movq	-40(%rbp), %rax
 1194 056b 64483304 		xorq	%fs:40, %rax
 1194      25280000 
 1194      00
 1195 0574 7405     		je	.L51
 1196 0576 E8000000 		call	__stack_chk_fail@PLT
 1196      00
 1197              	.L51:
 1198 057b 4881C4C8 		addq	$2248, %rsp
 1198      080000
 1199 0582 5B       		popq	%rbx
 1200 0583 415C     		popq	%r12
 1201 0585 415D     		popq	%r13
 1202 0587 5D       		popq	%rbp
 1203              		.cfi_def_cfa 7, 8
 1204 0588 C3       		ret
 1205              		.cfi_endproc
 1206              	.LFE1121:
 1207              		.section	.gcc_except_table
 1208              		.align 4
 1209              	.LLSDA1121:
 1210 0020 FF       		.byte	0xff
 1211 0021 9B       		.byte	0x9b
 1212 0022 55       		.uleb128 .LLSDATT1121-.LLSDATTD1121
 1213              	.LLSDATTD1121:
 1214 0023 01       		.byte	0x1
 1215 0024 3E       		.uleb128 .LLSDACSE1121-.LLSDACSB1121
 1216              	.LLSDACSB1121:
 1217 0025 45       		.uleb128 .LEHB10-.LFB1121
 1218 0026 05       		.uleb128 .LEHE10-.LEHB10
 1219 0027 9F01     		.uleb128 .L52-.LFB1121
 1220 0029 05       		.uleb128 0x5
 1221 002a 69       		.uleb128 .LEHB11-.LFB1121
 1222 002b 05       		.uleb128 .LEHE11-.LEHB11
 1223 002c 8201     		.uleb128 .L53-.LFB1121
 1224 002e 07       		.uleb128 0x7
 1225 002f 78       		.uleb128 .LEHB12-.LFB1121
 1226 0030 05       		.uleb128 .LEHE12-.LEHB12
 1227 0031 9F01     		.uleb128 .L52-.LFB1121
 1228 0033 05       		.uleb128 0x5
 1229 0034 C301     		.uleb128 .LEHB13-.LFB1121
 1230 0036 8901     		.uleb128 .LEHE13-.LEHB13
 1231 0038 9E05     		.uleb128 .L54-.LFB1121
 1232 003a 00       		.uleb128 0
 1233 003b EF02     		.uleb128 .LEHB14-.LFB1121
 1234 003d 05       		.uleb128 .LEHE14-.LEHB14
 1235 003e C505     		.uleb128 .L55-.LFB1121
 1236 0040 00       		.uleb128 0
 1237 0041 8503     		.uleb128 .LEHB15-.LFB1121
 1238 0043 60       		.uleb128 .LEHE15-.LEHB15
 1239 0044 B105     		.uleb128 .L56-.LFB1121
 1240 0046 00       		.uleb128 0
 1241 0047 EF03     		.uleb128 .LEHB16-.LFB1121
 1242 0049 05       		.uleb128 .LEHE16-.LEHB16
 1243 004a C505     		.uleb128 .L55-.LFB1121
 1244 004c 00       		.uleb128 0
 1245 004d 8F04     		.uleb128 .LEHB17-.LFB1121
 1246 004f 8801     		.uleb128 .LEHE17-.LEHB17
 1247 0051 D805     		.uleb128 .L57-.LFB1121
 1248 0053 00       		.uleb128 0
 1249 0054 9705     		.uleb128 .LEHB18-.LFB1121
 1250 0056 1A       		.uleb128 .LEHE18-.LEHB18
 1251 0057 00       		.uleb128 0
 1252 0058 00       		.uleb128 0
 1253 0059 D305     		.uleb128 .LEHB19-.LFB1121
 1254 005b 05       		.uleb128 .LEHE19-.LEHB19
 1255 005c 00       		.uleb128 0
 1256 005d 00       		.uleb128 0
 1257 005e E605     		.uleb128 .LEHB20-.LFB1121
 1258 0060 05       		.uleb128 .LEHE20-.LEHB20
 1259 0061 00       		.uleb128 0
 1260 0062 00       		.uleb128 0
 1261              	.LLSDACSE1121:
 1262 0063 03       		.byte	0x3
 1263 0064 00       		.byte	0
 1264 0065 02       		.byte	0x2
 1265 0066 7D       		.byte	0x7d
 1266 0067 01       		.byte	0x1
 1267 0068 7D       		.byte	0x7d
 1268 0069 00       		.byte	0
 1269 006a 7D       		.byte	0x7d
 1270 006b 00       		.align 4
 1271 006c 00000000 		.long	0
 1272              	
 1273 0070 00000000 		.long	DW.ref._ZTISt9exception-.
 1274 0074 00000000 		.long	DW.ref._ZTIN8UnitTest15AssertExceptionE-.
 1275              	.LLSDATT1121:
 1276              		.text
 1278              		.section	.rodata
 1279              	.LC11:
 1280 00e9 676F6F64 		.string	"goodtest"
 1280      74657374 
 1280      00
 1281 00f2 00000000 		.align 8
 1281      0000
 1282              	.LC12:
 1283 00f8 556E6861 		.string	"Unhandled exception in CHECK_EQUAL(1, reporter.testRunCount)"
 1283      6E646C65 
 1283      64206578 
 1283      63657074 
 1283      696F6E20 
 1284 0135 000000   		.align 8
 1285              	.LC13:
 1286 0138 556E6861 		.string	"Unhandled exception in CHECK_EQUAL(\"goodtest\", reporter.lastStartedTest)"
 1286      6E646C65 
 1286      64206578 
 1286      63657074 
 1286      696F6E20 
 1287              		.text
 1288 0589 90       		.align 2
 1290              	_ZN12_GLOBAL__N_151TestRunnerFixtureTestStartIsReportedCorrectlyHelper7RunImplEv:
 1291              	.LFB1125:
  63:TestTestRunner.cpp **** {
 1292              		.loc 6 63 0 is_stmt 1
 1293              		.cfi_startproc
 1294              		.cfi_personality 0x9b,DW.ref.__gxx_personality_v0
 1295              		.cfi_lsda 0x1b,.LLSDA1125
 1296 058a 55       		pushq	%rbp
 1297              		.cfi_def_cfa_offset 16
 1298              		.cfi_offset 6, -16
 1299 058b 4889E5   		movq	%rsp, %rbp
 1300              		.cfi_def_cfa_register 6
 1301 058e 53       		pushq	%rbx
 1302 058f 4881EC88 		subq	$136, %rsp
 1302      000000
 1303              		.cfi_offset 3, -24
 1304 0596 4889BD78 		movq	%rdi, -136(%rbp)
 1304      FFFFFF
 1305              		.loc 6 63 0
 1306 059d 64488B04 		movq	%fs:40, %rax
 1306      25280000 
 1306      00
 1307 05a6 488945E8 		movq	%rax, -24(%rbp)
 1308 05aa 31C0     		xorl	%eax, %eax
  64:TestTestRunner.cpp ****     MockTest test("goodtest", true, false);
 1309              		.loc 6 64 0
 1310 05ac 488D45B0 		leaq	-80(%rbp), %rax
 1311 05b0 41B80100 		movl	$1, %r8d
 1311      0000
 1312 05b6 B9000000 		movl	$0, %ecx
 1312      00
 1313 05bb BA010000 		movl	$1, %edx
 1313      00
 1314 05c0 488D3500 		leaq	.LC11(%rip), %rsi
 1314      000000
 1315 05c7 4889C7   		movq	%rax, %rdi
 1316              	.LEHB21:
 1317 05ca E831FAFF 		call	_ZN12_GLOBAL__N_18MockTestC1EPKcbbi
 1317      FF
 1318              	.LEHE21:
  65:TestTestRunner.cpp ****     list.Add(&test);
 1319              		.loc 6 65 0
 1320 05cf 488B8578 		movq	-136(%rbp), %rax
 1320      FFFFFF
 1321 05d6 488D9048 		leaq	2120(%rax), %rdx
 1321      080000
 1322 05dd 488D45B0 		leaq	-80(%rbp), %rax
 1323 05e1 4889C6   		movq	%rax, %rsi
 1324 05e4 4889D7   		movq	%rdx, %rdi
 1325              	.LEHB22:
 1326 05e7 E8000000 		call	_ZN8UnitTest8TestList3AddEPNS_4TestE@PLT
 1326      00
  66:TestTestRunner.cpp **** 
  67:TestTestRunner.cpp **** 	RunTestsIf(list, NULL, True(), 0);
 1327              		.loc 6 67 0
 1328 05ec 488B8578 		movq	-136(%rbp), %rax
 1328      FFFFFF
 1329 05f3 488B9578 		movq	-136(%rbp), %rdx
 1329      FFFFFF
 1330 05fa 488DB248 		leaq	2120(%rdx), %rsi
 1330      080000
 1331 0601 488D5590 		leaq	-112(%rbp), %rdx
 1332 0605 41B80000 		movl	$0, %r8d
 1332      0000
 1333 060b 4889D1   		movq	%rdx, %rcx
 1334 060e BA000000 		movl	$0, %edx
 1334      00
 1335 0613 4889C7   		movq	%rax, %rdi
 1336 0616 E8AD6800 		call	_ZN12_GLOBAL__N_111FixtureBase10RunTestsIfIN8UnitTest4TrueEEEiRKNS2_8TestListEPKcRKT_i
 1336      00
 1337              	.LEHE22:
 1338              	.LEHB23:
  68:TestTestRunner.cpp ****     CHECK_EQUAL(1, reporter.testRunCount);
 1339              		.loc 6 68 0 discriminator 2
 1340 061b E8000000 		call	_ZN8UnitTest11CurrentTest7DetailsEv@PLT
 1340      00
 1341 0620 488B08   		movq	(%rax), %rcx
 1342 0623 488D4590 		leaq	-112(%rbp), %rax
 1343 0627 BA440000 		movl	$68, %edx
 1343      00
 1344 062c 4889CE   		movq	%rcx, %rsi
 1345 062f 4889C7   		movq	%rax, %rdi
 1346 0632 E8000000 		call	_ZN8UnitTest11TestDetailsC1ERKS0_i@PLT
 1346      00
 1347              	.LEHE23:
 1348 0637 488B8578 		movq	-136(%rbp), %rax
 1348      FFFFFF
 1349 063e 488D5820 		leaq	32(%rax), %rbx
 1350 0642 C7458C01 		movl	$1, -116(%rbp)
 1350      000000
 1351              	.LEHB24:
 1352 0649 E8000000 		call	_ZN8UnitTest11CurrentTest7ResultsEv@PLT
 1352      00
 1353 064e 488B00   		movq	(%rax), %rax
 1354 0651 488D5590 		leaq	-112(%rbp), %rdx
 1355 0655 488D758C 		leaq	-116(%rbp), %rsi
 1356 0659 4889D1   		movq	%rdx, %rcx
 1357 065c 4889DA   		movq	%rbx, %rdx
 1358 065f 4889C7   		movq	%rax, %rdi
 1359 0662 E8000000 		call	_ZN8UnitTest10CheckEqualIiiEEvRNS_11TestResultsERKT_RKT0_RKNS_11TestDetailsE
 1359      00
 1360              	.LEHE24:
 1361              	.L62:
 1362              	.LEHB25:
  69:TestTestRunner.cpp ****     CHECK_EQUAL("goodtest", reporter.lastStartedTest);
 1363              		.loc 6 69 0
 1364 0667 E8000000 		call	_ZN8UnitTest11CurrentTest7DetailsEv@PLT
 1364      00
 1365 066c 488B08   		movq	(%rax), %rcx
 1366 066f 488D4590 		leaq	-112(%rbp), %rax
 1367 0673 BA450000 		movl	$69, %edx
 1367      00
 1368 0678 4889CE   		movq	%rcx, %rsi
 1369 067b 4889C7   		movq	%rax, %rdi
 1370 067e E8000000 		call	_ZN8UnitTest11TestDetailsC1ERKS0_i@PLT
 1370      00
 1371              		.loc 6 69 0 is_stmt 0 discriminator 2
 1372 0683 488B8578 		movq	-136(%rbp), %rax
 1372      FFFFFF
 1373 068a 488D9824 		leaq	292(%rax), %rbx
 1373      010000
 1374 0691 E8000000 		call	_ZN8UnitTest11CurrentTest7ResultsEv@PLT
 1374      00
 1375 0696 488B00   		movq	(%rax), %rax
 1376 0699 488D5590 		leaq	-112(%rbp), %rdx
 1377 069d 4889D1   		movq	%rdx, %rcx
 1378 06a0 4889DA   		movq	%rbx, %rdx
 1379 06a3 488D3500 		leaq	.LC11(%rip), %rsi
 1379      000000
 1380 06aa 4889C7   		movq	%rax, %rdi
 1381 06ad E8000000 		call	_ZN8UnitTest10CheckEqualERNS_11TestResultsEPKcPcRKNS_11TestDetailsE@PLT
 1381      00
 1382              	.LEHE25:
 1383              	.L66:
  64:TestTestRunner.cpp ****     list.Add(&test);
 1384              		.loc 6 64 0 is_stmt 1
 1385 06b2 488D45B0 		leaq	-80(%rbp), %rax
 1386 06b6 4889C7   		movq	%rax, %rdi
 1387              	.LEHB26:
 1388 06b9 E8209F00 		call	_ZN12_GLOBAL__N_18MockTestD1Ev
 1388      00
 1389              	.LEHE26:
  70:TestTestRunner.cpp **** }
 1390              		.loc 6 70 0
 1391 06be 90       		nop
 1392 06bf 488B45E8 		movq	-24(%rbp), %rax
 1393 06c3 64483304 		xorq	%fs:40, %rax
 1393      25280000 
 1393      00
 1394 06cc 0F84D200 		je	.L68
 1394      0000
 1395 06d2 E9C80000 		jmp	.L75
 1395      00
 1396              	.L71:
 1397 06d7 EB00     		jmp	.L61
 1398              	.L70:
 1399              	.L61:
  68:TestTestRunner.cpp ****     CHECK_EQUAL("goodtest", reporter.lastStartedTest);
 1400              		.loc 6 68 0
 1401 06d9 4889C7   		movq	%rax, %rdi
 1402 06dc E8000000 		call	__cxa_begin_catch@PLT
 1402      00
 1403              	.LEHB27:
 1404 06e1 E8000000 		call	_ZN8UnitTest11CurrentTest7ResultsEv@PLT
 1404      00
 1405 06e6 488B18   		movq	(%rax), %rbx
 1406 06e9 E8000000 		call	_ZN8UnitTest11CurrentTest7DetailsEv@PLT
 1406      00
  68:TestTestRunner.cpp ****     CHECK_EQUAL("goodtest", reporter.lastStartedTest);
 1407              		.loc 6 68 0 is_stmt 0 discriminator 8
 1408 06ee 488B08   		movq	(%rax), %rcx
 1409 06f1 488D4590 		leaq	-112(%rbp), %rax
 1410 06f5 BA440000 		movl	$68, %edx
 1410      00
 1411 06fa 4889CE   		movq	%rcx, %rsi
 1412 06fd 4889C7   		movq	%rax, %rdi
 1413 0700 E8000000 		call	_ZN8UnitTest11TestDetailsC1ERKS0_i@PLT
 1413      00
  68:TestTestRunner.cpp ****     CHECK_EQUAL("goodtest", reporter.lastStartedTest);
 1414              		.loc 6 68 0 discriminator 12
 1415 0705 488D4590 		leaq	-112(%rbp), %rax
 1416 0709 488D1500 		leaq	.LC12(%rip), %rdx
 1416      000000
 1417 0710 4889C6   		movq	%rax, %rsi
 1418 0713 4889DF   		movq	%rbx, %rdi
 1419 0716 E8000000 		call	_ZN8UnitTest11TestResults13OnTestFailureERKNS_11TestDetailsEPKc@PLT
 1419      00
 1420              	.LEHE27:
 1421              	.LEHB28:
  68:TestTestRunner.cpp ****     CHECK_EQUAL("goodtest", reporter.lastStartedTest);
 1422              		.loc 6 68 0 discriminator 14
 1423 071b E8000000 		call	__cxa_end_catch@PLT
 1423      00
 1424              	.LEHE28:
  68:TestTestRunner.cpp ****     CHECK_EQUAL("goodtest", reporter.lastStartedTest);
 1425              		.loc 6 68 0
 1426 0720 E942FFFF 		jmp	.L62
 1426      FF
 1427              	.L72:
 1428 0725 4889C3   		movq	%rax, %rbx
 1429 0728 E8000000 		call	__cxa_end_catch@PLT
 1429      00
 1430 072d EB59     		jmp	.L64
 1431              	.L73:
  69:TestTestRunner.cpp **** }
 1432              		.loc 6 69 0 is_stmt 1
 1433 072f 4889C7   		movq	%rax, %rdi
 1434 0732 E8000000 		call	__cxa_begin_catch@PLT
 1434      00
 1435              	.LEHB29:
 1436 0737 E8000000 		call	_ZN8UnitTest11CurrentTest7ResultsEv@PLT
 1436      00
 1437 073c 488B18   		movq	(%rax), %rbx
 1438 073f E8000000 		call	_ZN8UnitTest11CurrentTest7DetailsEv@PLT
 1438      00
  69:TestTestRunner.cpp **** }
 1439              		.loc 6 69 0 is_stmt 0 discriminator 8
 1440 0744 488B08   		movq	(%rax), %rcx
 1441 0747 488D4590 		leaq	-112(%rbp), %rax
 1442 074b BA450000 		movl	$69, %edx
 1442      00
 1443 0750 4889CE   		movq	%rcx, %rsi
 1444 0753 4889C7   		movq	%rax, %rdi
 1445 0756 E8000000 		call	_ZN8UnitTest11TestDetailsC1ERKS0_i@PLT
 1445      00
  69:TestTestRunner.cpp **** }
 1446              		.loc 6 69 0 discriminator 12
 1447 075b 488D4590 		leaq	-112(%rbp), %rax
 1448 075f 488D1500 		leaq	.LC13(%rip), %rdx
 1448      000000
 1449 0766 4889C6   		movq	%rax, %rsi
 1450 0769 4889DF   		movq	%rbx, %rdi
 1451 076c E8000000 		call	_ZN8UnitTest11TestResults13OnTestFailureERKNS_11TestDetailsEPKc@PLT
 1451      00
 1452              	.LEHE29:
 1453              	.LEHB30:
  69:TestTestRunner.cpp **** }
 1454              		.loc 6 69 0 discriminator 14
 1455 0771 E8000000 		call	__cxa_end_catch@PLT
 1455      00
 1456              	.LEHE30:
  69:TestTestRunner.cpp **** }
 1457              		.loc 6 69 0
 1458 0776 E937FFFF 		jmp	.L66
 1458      FF
 1459              	.L74:
 1460 077b 4889C3   		movq	%rax, %rbx
 1461 077e E8000000 		call	__cxa_end_catch@PLT
 1461      00
 1462 0783 EB03     		jmp	.L64
 1463              	.L69:
 1464 0785 4889C3   		movq	%rax, %rbx
 1465              	.L64:
  64:TestTestRunner.cpp ****     list.Add(&test);
 1466              		.loc 6 64 0 is_stmt 1
 1467 0788 488D45B0 		leaq	-80(%rbp), %rax
 1468 078c 4889C7   		movq	%rax, %rdi
 1469 078f E84A9E00 		call	_ZN12_GLOBAL__N_18MockTestD1Ev
 1469      00
 1470 0794 4889D8   		movq	%rbx, %rax
 1471 0797 4889C7   		movq	%rax, %rdi
 1472              	.LEHB31:
 1473 079a E8000000 		call	_Unwind_Resume@PLT
 1473      00
 1474              	.LEHE31:
 1475              	.L75:
 1476              		.loc 6 70 0
 1477 079f E8000000 		call	__stack_chk_fail@PLT
 1477      00
 1478              	.L68:
 1479 07a4 4881C488 		addq	$136, %rsp
 1479      000000
 1480 07ab 5B       		popq	%rbx
 1481 07ac 5D       		popq	%rbp
 1482              		.cfi_def_cfa 7, 8
 1483 07ad C3       		ret
 1484              		.cfi_endproc
 1485              	.LFE1125:
 1486              		.section	.gcc_except_table
 1487              		.align 4
 1488              	.LLSDA1125:
 1489 0078 FF       		.byte	0xff
 1490 0079 9B       		.byte	0x9b
 1491 007a 45       		.uleb128 .LLSDATT1125-.LLSDATTD1125
 1492              	.LLSDATTD1125:
 1493 007b 01       		.byte	0x1
 1494 007c 3D       		.uleb128 .LLSDACSE1125-.LLSDACSB1125
 1495              	.LLSDACSB1125:
 1496 007d 40       		.uleb128 .LEHB21-.LFB1125
 1497 007e 05       		.uleb128 .LEHE21-.LEHB21
 1498 007f 00       		.uleb128 0
 1499 0080 00       		.uleb128 0
 1500 0081 5D       		.uleb128 .LEHB22-.LFB1125
 1501 0082 34       		.uleb128 .LEHE22-.LEHB22
 1502 0083 FB03     		.uleb128 .L69-.LFB1125
 1503 0085 00       		.uleb128 0
 1504 0086 9101     		.uleb128 .LEHB23-.LFB1125
 1505 0088 1C       		.uleb128 .LEHE23-.LEHB23
 1506 0089 CF02     		.uleb128 .L70-.LFB1125
 1507 008b 01       		.uleb128 0x1
 1508 008c BF01     		.uleb128 .LEHB24-.LFB1125
 1509 008e 1E       		.uleb128 .LEHE24-.LEHB24
 1510 008f CD02     		.uleb128 .L71-.LFB1125
 1511 0091 01       		.uleb128 0x1
 1512 0092 DD01     		.uleb128 .LEHB25-.LFB1125
 1513 0094 4B       		.uleb128 .LEHE25-.LEHB25
 1514 0095 A503     		.uleb128 .L73-.LFB1125
 1515 0097 01       		.uleb128 0x1
 1516 0098 AF02     		.uleb128 .LEHB26-.LFB1125
 1517 009a 05       		.uleb128 .LEHE26-.LEHB26
 1518 009b 00       		.uleb128 0
 1519 009c 00       		.uleb128 0
 1520 009d D702     		.uleb128 .LEHB27-.LFB1125
 1521 009f 3A       		.uleb128 .LEHE27-.LEHB27
 1522 00a0 9B03     		.uleb128 .L72-.LFB1125
 1523 00a2 00       		.uleb128 0
 1524 00a3 9103     		.uleb128 .LEHB28-.LFB1125
 1525 00a5 05       		.uleb128 .LEHE28-.LEHB28
 1526 00a6 FB03     		.uleb128 .L69-.LFB1125
 1527 00a8 00       		.uleb128 0
 1528 00a9 AD03     		.uleb128 .LEHB29-.LFB1125
 1529 00ab 3A       		.uleb128 .LEHE29-.LEHB29
 1530 00ac F103     		.uleb128 .L74-.LFB1125
 1531 00ae 00       		.uleb128 0
 1532 00af E703     		.uleb128 .LEHB30-.LFB1125
 1533 00b1 05       		.uleb128 .LEHE30-.LEHB30
 1534 00b2 FB03     		.uleb128 .L69-.LFB1125
 1535 00b4 00       		.uleb128 0
 1536 00b5 9004     		.uleb128 .LEHB31-.LFB1125
 1537 00b7 05       		.uleb128 .LEHE31-.LEHB31
 1538 00b8 00       		.uleb128 0
 1539 00b9 00       		.uleb128 0
 1540              	.LLSDACSE1125:
 1541 00ba 01       		.byte	0x1
 1542 00bb 00       		.byte	0
 1543              		.align 4
 1544 00bc 00000000 		.long	0
 1545              	
 1546              	.LLSDATT1125:
 1547              		.text
 1549              		.align 2
 1551              	_ZN12_GLOBAL__N_152TestRunnerFixtureTestFinishIsReportedCorrectlyHelperC2ERKN8UnitTest11TestDetails
 1552              	.LFB1127:
  71:TestTestRunner.cpp **** 
  72:TestTestRunner.cpp **** TEST_FIXTURE(TestRunnerFixture, TestFinishIsReportedCorrectly)
 1553              		.loc 6 72 0
 1554              		.cfi_startproc
 1555 07ae 55       		pushq	%rbp
 1556              		.cfi_def_cfa_offset 16
 1557              		.cfi_offset 6, -16
 1558 07af 4889E5   		movq	%rsp, %rbp
 1559              		.cfi_def_cfa_register 6
 1560 07b2 4883EC10 		subq	$16, %rsp
 1561 07b6 48897DF8 		movq	%rdi, -8(%rbp)
 1562 07ba 488975F0 		movq	%rsi, -16(%rbp)
 1563              	.LBB25:
 1564              		.loc 6 72 0
 1565 07be 488B45F8 		movq	-8(%rbp), %rax
 1566 07c2 4889C7   		movq	%rax, %rdi
 1567 07c5 E8B2F9FF 		call	_ZN12_GLOBAL__N_117TestRunnerFixtureC2Ev
 1567      FF
 1568 07ca 488B45F8 		movq	-8(%rbp), %rax
 1569 07ce 488B55F0 		movq	-16(%rbp), %rdx
 1570 07d2 48899058 		movq	%rdx, 2136(%rax)
 1570      080000
 1571              	.LBE25:
 1572 07d9 90       		nop
 1573 07da C9       		leave
 1574              		.cfi_def_cfa 7, 8
 1575 07db C3       		ret
 1576              		.cfi_endproc
 1577              	.LFE1127:
 1579              		.set	_ZN12_GLOBAL__N_152TestRunnerFixtureTestFinishIsReportedCorrectlyHelperC1ERKN8UnitTest11TestD
 1580              		.section	.rodata
 1581              	.LC14:
 1582 0181 54657374 		.string	"TestFinishIsReportedCorrectly"
 1582      46696E69 
 1582      73684973 
 1582      5265706F 
 1582      72746564 
 1583              		.text
 1584              		.align 2
 1586              	_ZN12_GLOBAL__N_150TestTestRunnerFixtureTestFinishIsReportedCorrectlyC2Ev:
 1587              	.LFB1130:
 1588              		.loc 6 72 0
 1589              		.cfi_startproc
 1590 07dc 55       		pushq	%rbp
 1591              		.cfi_def_cfa_offset 16
 1592              		.cfi_offset 6, -16
 1593 07dd 4889E5   		movq	%rsp, %rbp
 1594              		.cfi_def_cfa_register 6
 1595 07e0 53       		pushq	%rbx
 1596 07e1 4883EC18 		subq	$24, %rsp
 1597              		.cfi_offset 3, -24
 1598 07e5 48897DE8 		movq	%rdi, -24(%rbp)
 1599              	.LBB26:
 1600              		.loc 6 72 0
 1601 07e9 488B5DE8 		movq	-24(%rbp), %rbx
 1602 07ed E8000000 		call	_ZN13UnitTestSuite12GetSuiteNameEv
 1602      00
 1603 07f2 41B84800 		movl	$72, %r8d
 1603      0000
 1604 07f8 488D0D00 		leaq	.LC6(%rip), %rcx
 1604      000000
 1605 07ff 4889C2   		movq	%rax, %rdx
 1606 0802 488D3500 		leaq	.LC14(%rip), %rsi
 1606      000000
 1607 0809 4889DF   		movq	%rbx, %rdi
 1608 080c E8000000 		call	_ZN8UnitTest4TestC2EPKcS2_S2_i@PLT
 1608      00
 1609 0811 488D1500 		leaq	16+_ZTVN12_GLOBAL__N_150TestTestRunnerFixtureTestFinishIsReportedCorrectlyE(%rip), %rdx
 1609      000000
 1610 0818 488B45E8 		movq	-24(%rbp), %rax
 1611 081c 488910   		movq	%rdx, (%rax)
 1612              	.LBE26:
 1613 081f 90       		nop
 1614 0820 4883C418 		addq	$24, %rsp
 1615 0824 5B       		popq	%rbx
 1616 0825 5D       		popq	%rbp
 1617              		.cfi_def_cfa 7, 8
 1618 0826 C3       		ret
 1619              		.cfi_endproc
 1620              	.LFE1130:
 1622              		.set	_ZN12_GLOBAL__N_150TestTestRunnerFixtureTestFinishIsReportedCorrectlyC1Ev,_ZN12_GLOBAL__N_150
 1623              		.local	_ZN12_GLOBAL__N_158testTestRunnerFixtureTestFinishIsReportedCorrectlyInstanceE
 1624              		.comm	_ZN12_GLOBAL__N_158testTestRunnerFixtureTestFinishIsReportedCorrectlyInstanceE,56,32
 1625              		.local	_ZN12_GLOBAL__N_151adderTestRunnerFixtureTestFinishIsReportedCorrectlyE
 1626              		.comm	_ZN12_GLOBAL__N_151adderTestRunnerFixtureTestFinishIsReportedCorrectlyE,1,1
 1627 0827 90       		.align 2
 1629              	_ZN12_GLOBAL__N_152TestRunnerFixtureTestFinishIsReportedCorrectlyHelperD2Ev:
 1630              	.LFB1134:
 1631              		.loc 6 72 0
 1632              		.cfi_startproc
 1633 0828 55       		pushq	%rbp
 1634              		.cfi_def_cfa_offset 16
 1635              		.cfi_offset 6, -16
 1636 0829 4889E5   		movq	%rsp, %rbp
 1637              		.cfi_def_cfa_register 6
 1638 082c 4883EC10 		subq	$16, %rsp
 1639 0830 48897DF8 		movq	%rdi, -8(%rbp)
 1640              	.LBB27:
 1641              		.loc 6 72 0
 1642 0834 488B45F8 		movq	-8(%rbp), %rax
 1643 0838 4889C7   		movq	%rax, %rdi
 1644 083b E88AF9FF 		call	_ZN12_GLOBAL__N_117TestRunnerFixtureD2Ev
 1644      FF
 1645              	.LBE27:
 1646 0840 90       		nop
 1647 0841 C9       		leave
 1648              		.cfi_def_cfa 7, 8
 1649 0842 C3       		ret
 1650              		.cfi_endproc
 1651              	.LFE1134:
 1653              		.set	_ZN12_GLOBAL__N_152TestRunnerFixtureTestFinishIsReportedCorrectlyHelperD1Ev,_ZN12_GLOBAL__N_1
 1654 0843 90       		.align 2
 1656              	_ZNK12_GLOBAL__N_150TestTestRunnerFixtureTestFinishIsReportedCorrectly7RunImplEv:
 1657              	.LFB1132:
 1658              		.loc 6 72 0
 1659              		.cfi_startproc
 1660              		.cfi_personality 0x9b,DW.ref.__gxx_personality_v0
 1661              		.cfi_lsda 0x1b,.LLSDA1132
 1662 0844 55       		pushq	%rbp
 1663              		.cfi_def_cfa_offset 16
 1664              		.cfi_offset 6, -16
 1665 0845 4889E5   		movq	%rsp, %rbp
 1666              		.cfi_def_cfa_register 6
 1667 0848 4155     		pushq	%r13
 1668 084a 4154     		pushq	%r12
 1669 084c 53       		pushq	%rbx
 1670 084d 4881ECC8 		subq	$2248, %rsp
 1670      080000
 1671              		.cfi_offset 13, -24
 1672              		.cfi_offset 12, -32
 1673              		.cfi_offset 3, -40
 1674 0854 4889BD28 		movq	%rdi, -2264(%rbp)
 1674      F7FFFF
 1675              		.loc 6 72 0
 1676 085b 64488B04 		movq	%fs:40, %rax
 1676      25280000 
 1676      00
 1677 0864 488945D8 		movq	%rax, -40(%rbp)
 1678 0868 31C0     		xorl	%eax, %eax
 1679 086a C6853FF7 		movb	$0, -2241(%rbp)
 1679      FFFF00
 1680              	.LBB28:
 1681 0871 488B8528 		movq	-2264(%rbp), %rax
 1681      F7FFFF
 1682 0878 488D5008 		leaq	8(%rax), %rdx
 1683 087c 488D8570 		leaq	-2192(%rbp), %rax
 1683      F7FFFF
 1684 0883 4889D6   		movq	%rdx, %rsi
 1685 0886 4889C7   		movq	%rax, %rdi
 1686              	.LEHB32:
 1687 0889 E820FFFF 		call	_ZN12_GLOBAL__N_152TestRunnerFixtureTestFinishIsReportedCorrectlyHelperC1ERKN8UnitTest11TestD
 1687      FF
 1688              	.LEHE32:
 1689              		.loc 6 72 0 is_stmt 0 discriminator 1
 1690 088e C6853FF7 		movb	$1, -2241(%rbp)
 1690      FFFF01
 1691 0895 488B8528 		movq	-2264(%rbp), %rax
 1691      F7FFFF
 1692 089c 488D5008 		leaq	8(%rax), %rdx
 1693 08a0 488D8570 		leaq	-2192(%rbp), %rax
 1693      F7FFFF
 1694 08a7 4889D6   		movq	%rdx, %rsi
 1695 08aa 4889C7   		movq	%rax, %rdi
 1696              	.LEHB33:
 1697 08ad E88E6600 		call	_ZN8UnitTest11ExecuteTestIN12_GLOBAL__N_152TestRunnerFixtureTestFinishIsReportedCorrectlyHelp
 1697      00
 1698              	.LEHE33:
 1699              		.loc 6 72 0 discriminator 3
 1700 08b2 488D8570 		leaq	-2192(%rbp), %rax
 1700      F7FFFF
 1701 08b9 4889C7   		movq	%rax, %rdi
 1702              	.LEHB34:
 1703 08bc E867FFFF 		call	_ZN12_GLOBAL__N_152TestRunnerFixtureTestFinishIsReportedCorrectlyHelperD1Ev
 1703      FF
 1704              	.LEHE34:
 1705              	.LBE28:
 1706              		.loc 6 72 0
 1707 08c1 E9690200 		jmp	.L79
 1707      00
 1708              	.L94:
 1709 08c6 4989C4   		movq	%rax, %r12
 1710 08c9 4889D3   		movq	%rdx, %rbx
 1711              	.LBB29:
 1712 08cc 488D8570 		leaq	-2192(%rbp), %rax
 1712      F7FFFF
 1713 08d3 4889C7   		movq	%rax, %rdi
 1714 08d6 E84DFFFF 		call	_ZN12_GLOBAL__N_152TestRunnerFixtureTestFinishIsReportedCorrectlyHelperD1Ev
 1714      FF
 1715 08db 4C89E0   		movq	%r12, %rax
 1716 08de 4889DA   		movq	%rbx, %rdx
 1717 08e1 EB00     		jmp	.L81
 1718              	.L93:
 1719              	.L81:
 1720 08e3 4883FA01 		cmpq	$1, %rdx
 1721 08e7 740F     		je	.L83
 1722 08e9 4883FA02 		cmpq	$2, %rdx
 1723 08ed 0F84A700 		je	.L84
 1723      0000
 1724 08f3 E94A0100 		jmp	.L99
 1724      00
 1725              	.L83:
 1726              	.LBE29:
 1727              	.LBB30:
 1728 08f8 4889C7   		movq	%rax, %rdi
 1729 08fb E8000000 		call	__cxa_begin_catch@PLT
 1729      00
 1730 0900 48898548 		movq	%rax, -2232(%rbp)
 1730      F7FFFF
 1731              	.LEHB35:
 1732 0907 E8000000 		call	_ZN8UnitTest11CurrentTest7ResultsEv@PLT
 1732      00
 1733 090c 488B18   		movq	(%rax), %rbx
 1734 090f 488B8548 		movq	-2232(%rbp), %rax
 1734      F7FFFF
 1735 0916 488B00   		movq	(%rax), %rax
 1736 0919 4883C010 		addq	$16, %rax
 1737 091d 488B00   		movq	(%rax), %rax
 1738 0920 488B9548 		movq	-2232(%rbp), %rdx
 1738      F7FFFF
 1739 0927 4889D7   		movq	%rdx, %rdi
 1740 092a FFD0     		call	*%rax
 1741              	.LVL2:
 1742 092c 4989C4   		movq	%rax, %r12
 1743 092f 488B8548 		movq	-2232(%rbp), %rax
 1743      F7FFFF
 1744 0936 4889C7   		movq	%rax, %rdi
 1745 0939 E8000000 		call	_ZNK8UnitTest15AssertException10LineNumberEv@PLT
 1745      00
 1746              		.loc 6 72 0 discriminator 5
 1747 093e 4189C5   		movl	%eax, %r13d
 1748 0941 488B8548 		movq	-2232(%rbp), %rax
 1748      F7FFFF
 1749 0948 4889C7   		movq	%rax, %rdi
 1750 094b E8000000 		call	_ZNK8UnitTest15AssertException8FilenameEv@PLT
 1750      00
 1751              		.loc 6 72 0 discriminator 7
 1752 0950 4889C1   		movq	%rax, %rcx
 1753 0953 488B8528 		movq	-2264(%rbp), %rax
 1753      F7FFFF
 1754 095a 488B5008 		movq	8(%rax), %rdx
 1755 095e 488B8528 		movq	-2264(%rbp), %rax
 1755      F7FFFF
 1756 0965 488B7010 		movq	16(%rax), %rsi
 1757 0969 488D8550 		leaq	-2224(%rbp), %rax
 1757      F7FFFF
 1758 0970 4589E8   		movl	%r13d, %r8d
 1759 0973 4889C7   		movq	%rax, %rdi
 1760 0976 E8000000 		call	_ZN8UnitTest11TestDetailsC1EPKcS2_S2_i@PLT
 1760      00
 1761              		.loc 6 72 0 discriminator 11
 1762 097b 488D8550 		leaq	-2224(%rbp), %rax
 1762      F7FFFF
 1763 0982 4C89E2   		movq	%r12, %rdx
 1764 0985 4889C6   		movq	%rax, %rsi
 1765 0988 4889DF   		movq	%rbx, %rdi
 1766 098b E8000000 		call	_ZN8UnitTest11TestResults13OnTestFailureERKNS_11TestDetailsEPKc@PLT
 1766      00
 1767              	.LEHE35:
 1768              		.loc 6 72 0 discriminator 13
 1769 0990 E8000000 		call	__cxa_end_catch@PLT
 1769      00
 1770              	.LBE30:
 1771 0995 E9950100 		jmp	.L79
 1771      00
 1772              	.L84:
 1773              	.LBB31:
 1774              		.loc 6 72 0
 1775 099a 4889C7   		movq	%rax, %rdi
 1776 099d E8000000 		call	__cxa_begin_catch@PLT
 1776      00
 1777 09a2 48898540 		movq	%rax, -2240(%rbp)
 1777      F7FFFF
 1778              	.LBB32:
 1779 09a9 488D8570 		leaq	-2192(%rbp), %rax
 1779      F7FFFF
 1780 09b0 4889C7   		movq	%rax, %rdi
 1781              	.LEHB36:
 1782 09b3 E8000000 		call	_ZN8UnitTest15MemoryOutStreamC1Ev
 1782      00
 1783              	.LEHE36:
 1784              		.loc 6 72 0 discriminator 15
 1785 09b8 488D8570 		leaq	-2192(%rbp), %rax
 1785      F7FFFF
 1786 09bf 488D3500 		leaq	.LC8(%rip), %rsi
 1786      000000
 1787 09c6 4889C7   		movq	%rax, %rdi
 1788              	.LEHB37:
 1789 09c9 E8000000 		call	_ZStlsISt11char_traitsIcEERSt13basic_ostreamIcT_ES5_PKc@PLT
 1789      00
 1790 09ce 4889C3   		movq	%rax, %rbx
 1791 09d1 488B8540 		movq	-2240(%rbp), %rax
 1791      F7FFFF
 1792 09d8 488B00   		movq	(%rax), %rax
 1793 09db 4883C010 		addq	$16, %rax
 1794 09df 488B00   		movq	(%rax), %rax
 1795 09e2 488B9540 		movq	-2240(%rbp), %rdx
 1795      F7FFFF
 1796 09e9 4889D7   		movq	%rdx, %rdi
 1797 09ec FFD0     		call	*%rax
 1798              	.LVL3:
 1799 09ee 4889C6   		movq	%rax, %rsi
 1800 09f1 4889DF   		movq	%rbx, %rdi
 1801 09f4 E8000000 		call	_ZStlsISt11char_traitsIcEERSt13basic_ostreamIcT_ES5_PKc@PLT
 1801      00
 1802              		.loc 6 72 0 discriminator 19
 1803 09f9 E8000000 		call	_ZN8UnitTest11CurrentTest7ResultsEv@PLT
 1803      00
 1804 09fe 488B18   		movq	(%rax), %rbx
 1805 0a01 488D8570 		leaq	-2192(%rbp), %rax
 1805      F7FFFF
 1806 0a08 4889C7   		movq	%rax, %rdi
 1807 0a0b E8000000 		call	_ZNK8UnitTest15MemoryOutStream7GetTextEv@PLT
 1807      00
 1808              		.loc 6 72 0 discriminator 21
 1809 0a10 4889C2   		movq	%rax, %rdx
 1810 0a13 488B8528 		movq	-2264(%rbp), %rax
 1810      F7FFFF
 1811 0a1a 4883C008 		addq	$8, %rax
 1812 0a1e 4889C6   		movq	%rax, %rsi
 1813 0a21 4889DF   		movq	%rbx, %rdi
 1814 0a24 E8000000 		call	_ZN8UnitTest11TestResults13OnTestFailureERKNS_11TestDetailsEPKc@PLT
 1814      00
 1815              	.LEHE37:
 1816              		.loc 6 72 0 discriminator 25
 1817 0a29 488D8570 		leaq	-2192(%rbp), %rax
 1817      F7FFFF
 1818 0a30 4889C7   		movq	%rax, %rdi
 1819              	.LEHB38:
 1820 0a33 E8000000 		call	_ZN8UnitTest15MemoryOutStreamD1Ev
 1820      00
 1821              	.LEHE38:
 1822              	.LBE32:
 1823              		.loc 6 72 0 discriminator 26
 1824 0a38 E8000000 		call	__cxa_end_catch@PLT
 1824      00
 1825              	.LBE31:
 1826 0a3d E9ED0000 		jmp	.L79
 1826      00
 1827              	.L99:
 1828              		.loc 6 72 0
 1829 0a42 4889C7   		movq	%rax, %rdi
 1830 0a45 E8000000 		call	__cxa_begin_catch@PLT
 1830      00
 1831 0a4a 80BD3FF7 		cmpb	$0, -2241(%rbp)
 1831      FFFF00
 1832 0a51 7445     		je	.L86
 1833              	.LEHB39:
 1834              		.loc 6 72 0 discriminator 28
 1835 0a53 E8000000 		call	_ZN8UnitTest11CurrentTest7ResultsEv@PLT
 1835      00
 1836 0a58 488B18   		movq	(%rax), %rbx
 1837 0a5b 488B8528 		movq	-2264(%rbp), %rax
 1837      F7FFFF
 1838 0a62 488D4808 		leaq	8(%rax), %rcx
 1839 0a66 488D8550 		leaq	-2224(%rbp), %rax
 1839      F7FFFF
 1840 0a6d BA480000 		movl	$72, %edx
 1840      00
 1841 0a72 4889CE   		movq	%rcx, %rsi
 1842 0a75 4889C7   		movq	%rax, %rdi
 1843 0a78 E8000000 		call	_ZN8UnitTest11TestDetailsC1ERKS0_i@PLT
 1843      00
 1844              		.loc 6 72 0 discriminator 33
 1845 0a7d 488D8550 		leaq	-2224(%rbp), %rax
 1845      F7FFFF
 1846 0a84 488D1500 		leaq	.LC9(%rip), %rdx
 1846      000000
 1847 0a8b 4889C6   		movq	%rax, %rsi
 1848 0a8e 4889DF   		movq	%rbx, %rdi
 1849 0a91 E8000000 		call	_ZN8UnitTest11TestResults13OnTestFailureERKNS_11TestDetailsEPKc@PLT
 1849      00
 1850 0a96 EB43     		jmp	.L87
 1851              	.L86:
 1852              		.loc 6 72 0 discriminator 29
 1853 0a98 E8000000 		call	_ZN8UnitTest11CurrentTest7ResultsEv@PLT
 1853      00
 1854 0a9d 488B18   		movq	(%rax), %rbx
 1855 0aa0 488B8528 		movq	-2264(%rbp), %rax
 1855      F7FFFF
 1856 0aa7 488D4808 		leaq	8(%rax), %rcx
 1857 0aab 488D8550 		leaq	-2224(%rbp), %rax
 1857      F7FFFF
 1858 0ab2 BA480000 		movl	$72, %edx
 1858      00
 1859 0ab7 4889CE   		movq	%rcx, %rsi
 1860 0aba 4889C7   		movq	%rax, %rdi
 1861 0abd E8000000 		call	_ZN8UnitTest11TestDetailsC1ERKS0_i@PLT
 1861      00
 1862              		.loc 6 72 0 discriminator 40
 1863 0ac2 488D8550 		leaq	-2224(%rbp), %rax
 1863      F7FFFF
 1864 0ac9 488D1500 		leaq	.LC10(%rip), %rdx
 1864      000000
 1865 0ad0 4889C6   		movq	%rax, %rsi
 1866 0ad3 4889DF   		movq	%rbx, %rdi
 1867 0ad6 E8000000 		call	_ZN8UnitTest11TestResults13OnTestFailureERKNS_11TestDetailsEPKc@PLT
 1867      00
 1868              	.LEHE39:
 1869              	.L87:
 1870              	.LEHB40:
 1871              		.loc 6 72 0 discriminator 43
 1872 0adb E8000000 		call	__cxa_end_catch@PLT
 1872      00
 1873 0ae0 EB4D     		jmp	.L79
 1874              	.L95:
 1875 0ae2 4889C3   		movq	%rax, %rbx
 1876              	.LBB34:
 1877              		.loc 6 72 0
 1878 0ae5 E8000000 		call	__cxa_end_catch@PLT
 1878      00
 1879 0aea 4889D8   		movq	%rbx, %rax
 1880 0aed 4889C7   		movq	%rax, %rdi
 1881 0af0 E8000000 		call	_Unwind_Resume@PLT
 1881      00
 1882              	.LEHE40:
 1883              	.L97:
 1884 0af5 4889C3   		movq	%rax, %rbx
 1885              	.LBE34:
 1886              	.LBB35:
 1887              	.LBB33:
 1888 0af8 488D8570 		leaq	-2192(%rbp), %rax
 1888      F7FFFF
 1889 0aff 4889C7   		movq	%rax, %rdi
 1890 0b02 E8000000 		call	_ZN8UnitTest15MemoryOutStreamD1Ev
 1890      00
 1891 0b07 EB03     		jmp	.L90
 1892              	.L96:
 1893 0b09 4889C3   		movq	%rax, %rbx
 1894              	.L90:
 1895              	.LBE33:
 1896 0b0c E8000000 		call	__cxa_end_catch@PLT
 1896      00
 1897 0b11 4889D8   		movq	%rbx, %rax
 1898 0b14 4889C7   		movq	%rax, %rdi
 1899              	.LEHB41:
 1900 0b17 E8000000 		call	_Unwind_Resume@PLT
 1900      00
 1901              	.LEHE41:
 1902              	.L98:
 1903 0b1c 4889C3   		movq	%rax, %rbx
 1904              	.LBE35:
 1905 0b1f E8000000 		call	__cxa_end_catch@PLT
 1905      00
 1906 0b24 4889D8   		movq	%rbx, %rax
 1907 0b27 4889C7   		movq	%rax, %rdi
 1908              	.LEHB42:
 1909 0b2a E8000000 		call	_Unwind_Resume@PLT
 1909      00
 1910              	.LEHE42:
 1911              	.L79:
 1912 0b2f 488B45D8 		movq	-40(%rbp), %rax
 1913 0b33 64483304 		xorq	%fs:40, %rax
 1913      25280000 
 1913      00
 1914 0b3c 7405     		je	.L92
 1915 0b3e E8000000 		call	__stack_chk_fail@PLT
 1915      00
 1916              	.L92:
 1917 0b43 4881C4C8 		addq	$2248, %rsp
 1917      080000
 1918 0b4a 5B       		popq	%rbx
 1919 0b4b 415C     		popq	%r12
 1920 0b4d 415D     		popq	%r13
 1921 0b4f 5D       		popq	%rbp
 1922              		.cfi_def_cfa 7, 8
 1923 0b50 C3       		ret
 1924              		.cfi_endproc
 1925              	.LFE1132:
 1926              		.section	.gcc_except_table
 1927              		.align 4
 1928              	.LLSDA1132:
 1929 00c0 FF       		.byte	0xff
 1930 00c1 9B       		.byte	0x9b
 1931 00c2 55       		.uleb128 .LLSDATT1132-.LLSDATTD1132
 1932              	.LLSDATTD1132:
 1933 00c3 01       		.byte	0x1
 1934 00c4 3E       		.uleb128 .LLSDACSE1132-.LLSDACSB1132
 1935              	.LLSDACSB1132:
 1936 00c5 45       		.uleb128 .LEHB32-.LFB1132
 1937 00c6 05       		.uleb128 .LEHE32-.LEHB32
 1938 00c7 9F01     		.uleb128 .L93-.LFB1132
 1939 00c9 05       		.uleb128 0x5
 1940 00ca 69       		.uleb128 .LEHB33-.LFB1132
 1941 00cb 05       		.uleb128 .LEHE33-.LEHB33
 1942 00cc 8201     		.uleb128 .L94-.LFB1132
 1943 00ce 07       		.uleb128 0x7
 1944 00cf 78       		.uleb128 .LEHB34-.LFB1132
 1945 00d0 05       		.uleb128 .LEHE34-.LEHB34
 1946 00d1 9F01     		.uleb128 .L93-.LFB1132
 1947 00d3 05       		.uleb128 0x5
 1948 00d4 C301     		.uleb128 .LEHB35-.LFB1132
 1949 00d6 8901     		.uleb128 .LEHE35-.LEHB35
 1950 00d8 9E05     		.uleb128 .L95-.LFB1132
 1951 00da 00       		.uleb128 0
 1952 00db EF02     		.uleb128 .LEHB36-.LFB1132
 1953 00dd 05       		.uleb128 .LEHE36-.LEHB36
 1954 00de C505     		.uleb128 .L96-.LFB1132
 1955 00e0 00       		.uleb128 0
 1956 00e1 8503     		.uleb128 .LEHB37-.LFB1132
 1957 00e3 60       		.uleb128 .LEHE37-.LEHB37
 1958 00e4 B105     		.uleb128 .L97-.LFB1132
 1959 00e6 00       		.uleb128 0
 1960 00e7 EF03     		.uleb128 .LEHB38-.LFB1132
 1961 00e9 05       		.uleb128 .LEHE38-.LEHB38
 1962 00ea C505     		.uleb128 .L96-.LFB1132
 1963 00ec 00       		.uleb128 0
 1964 00ed 8F04     		.uleb128 .LEHB39-.LFB1132
 1965 00ef 8801     		.uleb128 .LEHE39-.LEHB39
 1966 00f1 D805     		.uleb128 .L98-.LFB1132
 1967 00f3 00       		.uleb128 0
 1968 00f4 9705     		.uleb128 .LEHB40-.LFB1132
 1969 00f6 1A       		.uleb128 .LEHE40-.LEHB40
 1970 00f7 00       		.uleb128 0
 1971 00f8 00       		.uleb128 0
 1972 00f9 D305     		.uleb128 .LEHB41-.LFB1132
 1973 00fb 05       		.uleb128 .LEHE41-.LEHB41
 1974 00fc 00       		.uleb128 0
 1975 00fd 00       		.uleb128 0
 1976 00fe E605     		.uleb128 .LEHB42-.LFB1132
 1977 0100 05       		.uleb128 .LEHE42-.LEHB42
 1978 0101 00       		.uleb128 0
 1979 0102 00       		.uleb128 0
 1980              	.LLSDACSE1132:
 1981 0103 03       		.byte	0x3
 1982 0104 00       		.byte	0
 1983 0105 02       		.byte	0x2
 1984 0106 7D       		.byte	0x7d
 1985 0107 01       		.byte	0x1
 1986 0108 7D       		.byte	0x7d
 1987 0109 00       		.byte	0
 1988 010a 7D       		.byte	0x7d
 1989 010b 00       		.align 4
 1990 010c 00000000 		.long	0
 1991              	
 1992 0110 00000000 		.long	DW.ref._ZTISt9exception-.
 1993 0114 00000000 		.long	DW.ref._ZTIN8UnitTest15AssertExceptionE-.
 1994              	.LLSDATT1132:
 1995              		.text
 1997              		.section	.rodata
 1998 019f 00       		.align 8
 1999              	.LC15:
 2000 01a0 556E6861 		.string	"Unhandled exception in CHECK_EQUAL(1, reporter.testFinishedCount)"
 2000      6E646C65 
 2000      64206578 
 2000      63657074 
 2000      696F6E20 
 2001 01e2 00000000 		.align 8
 2001      0000
 2002              	.LC16:
 2003 01e8 556E6861 		.string	"Unhandled exception in CHECK_EQUAL(\"goodtest\", reporter.lastFinishedTest)"
 2003      6E646C65 
 2003      64206578 
 2003      63657074 
 2003      696F6E20 
 2004              		.text
 2005 0b51 90       		.align 2
 2007              	_ZN12_GLOBAL__N_152TestRunnerFixtureTestFinishIsReportedCorrectlyHelper7RunImplEv:
 2008              	.LFB1136:
  73:TestTestRunner.cpp **** {
 2009              		.loc 6 73 0 is_stmt 1
 2010              		.cfi_startproc
 2011              		.cfi_personality 0x9b,DW.ref.__gxx_personality_v0
 2012              		.cfi_lsda 0x1b,.LLSDA1136
 2013 0b52 55       		pushq	%rbp
 2014              		.cfi_def_cfa_offset 16
 2015              		.cfi_offset 6, -16
 2016 0b53 4889E5   		movq	%rsp, %rbp
 2017              		.cfi_def_cfa_register 6
 2018 0b56 53       		pushq	%rbx
 2019 0b57 4881EC88 		subq	$136, %rsp
 2019      000000
 2020              		.cfi_offset 3, -24
 2021 0b5e 4889BD78 		movq	%rdi, -136(%rbp)
 2021      FFFFFF
 2022              		.loc 6 73 0
 2023 0b65 64488B04 		movq	%fs:40, %rax
 2023      25280000 
 2023      00
 2024 0b6e 488945E8 		movq	%rax, -24(%rbp)
 2025 0b72 31C0     		xorl	%eax, %eax
  74:TestTestRunner.cpp ****     MockTest test("goodtest", true, false);
 2026              		.loc 6 74 0
 2027 0b74 488D45B0 		leaq	-80(%rbp), %rax
 2028 0b78 41B80100 		movl	$1, %r8d
 2028      0000
 2029 0b7e B9000000 		movl	$0, %ecx
 2029      00
 2030 0b83 BA010000 		movl	$1, %edx
 2030      00
 2031 0b88 488D3500 		leaq	.LC11(%rip), %rsi
 2031      000000
 2032 0b8f 4889C7   		movq	%rax, %rdi
 2033              	.LEHB43:
 2034 0b92 E869F4FF 		call	_ZN12_GLOBAL__N_18MockTestC1EPKcbbi
 2034      FF
 2035              	.LEHE43:
  75:TestTestRunner.cpp ****     list.Add(&test);
 2036              		.loc 6 75 0
 2037 0b97 488B8578 		movq	-136(%rbp), %rax
 2037      FFFFFF
 2038 0b9e 488D9048 		leaq	2120(%rax), %rdx
 2038      080000
 2039 0ba5 488D45B0 		leaq	-80(%rbp), %rax
 2040 0ba9 4889C6   		movq	%rax, %rsi
 2041 0bac 4889D7   		movq	%rdx, %rdi
 2042              	.LEHB44:
 2043 0baf E8000000 		call	_ZN8UnitTest8TestList3AddEPNS_4TestE@PLT
 2043      00
  76:TestTestRunner.cpp **** 
  77:TestTestRunner.cpp **** 	RunTestsIf(list, NULL, True(), 0);
 2044              		.loc 6 77 0
 2045 0bb4 488B8578 		movq	-136(%rbp), %rax
 2045      FFFFFF
 2046 0bbb 488B9578 		movq	-136(%rbp), %rdx
 2046      FFFFFF
 2047 0bc2 488DB248 		leaq	2120(%rdx), %rsi
 2047      080000
 2048 0bc9 488D5590 		leaq	-112(%rbp), %rdx
 2049 0bcd 41B80000 		movl	$0, %r8d
 2049      0000
 2050 0bd3 4889D1   		movq	%rdx, %rcx
 2051 0bd6 BA000000 		movl	$0, %edx
 2051      00
 2052 0bdb 4889C7   		movq	%rax, %rdi
 2053 0bde E8E56200 		call	_ZN12_GLOBAL__N_111FixtureBase10RunTestsIfIN8UnitTest4TrueEEEiRKNS2_8TestListEPKcRKT_i
 2053      00
 2054              	.LEHE44:
 2055              	.LEHB45:
  78:TestTestRunner.cpp ****     CHECK_EQUAL(1, reporter.testFinishedCount);
 2056              		.loc 6 78 0 discriminator 2
 2057 0be3 E8000000 		call	_ZN8UnitTest11CurrentTest7DetailsEv@PLT
 2057      00
 2058 0be8 488B08   		movq	(%rax), %rcx
 2059 0beb 488D4590 		leaq	-112(%rbp), %rax
 2060 0bef BA4E0000 		movl	$78, %edx
 2060      00
 2061 0bf4 4889CE   		movq	%rcx, %rsi
 2062 0bf7 4889C7   		movq	%rax, %rdi
 2063 0bfa E8000000 		call	_ZN8UnitTest11TestDetailsC1ERKS0_i@PLT
 2063      00
 2064              	.LEHE45:
 2065 0bff 488B8578 		movq	-136(%rbp), %rax
 2065      FFFFFF
 2066 0c06 488D982C 		leaq	1580(%rax), %rbx
 2066      060000
 2067 0c0d C7458C01 		movl	$1, -116(%rbp)
 2067      000000
 2068              	.LEHB46:
 2069 0c14 E8000000 		call	_ZN8UnitTest11CurrentTest7ResultsEv@PLT
 2069      00
 2070 0c19 488B00   		movq	(%rax), %rax
 2071 0c1c 488D5590 		leaq	-112(%rbp), %rdx
 2072 0c20 488D758C 		leaq	-116(%rbp), %rsi
 2073 0c24 4889D1   		movq	%rdx, %rcx
 2074 0c27 4889DA   		movq	%rbx, %rdx
 2075 0c2a 4889C7   		movq	%rax, %rdi
 2076 0c2d E8000000 		call	_ZN8UnitTest10CheckEqualIiiEEvRNS_11TestResultsERKT_RKT0_RKNS_11TestDetailsE
 2076      00
 2077              	.LEHE46:
 2078              	.L103:
 2079              	.LEHB47:
  79:TestTestRunner.cpp ****     CHECK_EQUAL("goodtest", reporter.lastFinishedTest);
 2080              		.loc 6 79 0
 2081 0c32 E8000000 		call	_ZN8UnitTest11CurrentTest7DetailsEv@PLT
 2081      00
 2082 0c37 488B08   		movq	(%rax), %rcx
 2083 0c3a 488D4590 		leaq	-112(%rbp), %rax
 2084 0c3e BA4F0000 		movl	$79, %edx
 2084      00
 2085 0c43 4889CE   		movq	%rcx, %rsi
 2086 0c46 4889C7   		movq	%rax, %rdi
 2087 0c49 E8000000 		call	_ZN8UnitTest11TestDetailsC1ERKS0_i@PLT
 2087      00
 2088              		.loc 6 79 0 is_stmt 0 discriminator 2
 2089 0c4e 488B8578 		movq	-136(%rbp), %rax
 2089      FFFFFF
 2090 0c55 488D9830 		leaq	1840(%rax), %rbx
 2090      070000
 2091 0c5c E8000000 		call	_ZN8UnitTest11CurrentTest7ResultsEv@PLT
 2091      00
 2092 0c61 488B00   		movq	(%rax), %rax
 2093 0c64 488D5590 		leaq	-112(%rbp), %rdx
 2094 0c68 4889D1   		movq	%rdx, %rcx
 2095 0c6b 4889DA   		movq	%rbx, %rdx
 2096 0c6e 488D3500 		leaq	.LC11(%rip), %rsi
 2096      000000
 2097 0c75 4889C7   		movq	%rax, %rdi
 2098 0c78 E8000000 		call	_ZN8UnitTest10CheckEqualERNS_11TestResultsEPKcPcRKNS_11TestDetailsE@PLT
 2098      00
 2099              	.LEHE47:
 2100              	.L107:
  74:TestTestRunner.cpp ****     list.Add(&test);
 2101              		.loc 6 74 0 is_stmt 1
 2102 0c7d 488D45B0 		leaq	-80(%rbp), %rax
 2103 0c81 4889C7   		movq	%rax, %rdi
 2104              	.LEHB48:
 2105 0c84 E8559900 		call	_ZN12_GLOBAL__N_18MockTestD1Ev
 2105      00
 2106              	.LEHE48:
  80:TestTestRunner.cpp **** }
 2107              		.loc 6 80 0
 2108 0c89 90       		nop
 2109 0c8a 488B45E8 		movq	-24(%rbp), %rax
 2110 0c8e 64483304 		xorq	%fs:40, %rax
 2110      25280000 
 2110      00
 2111 0c97 0F84D200 		je	.L109
 2111      0000
 2112 0c9d E9C80000 		jmp	.L116
 2112      00
 2113              	.L112:
 2114 0ca2 EB00     		jmp	.L102
 2115              	.L111:
 2116              	.L102:
  78:TestTestRunner.cpp ****     CHECK_EQUAL("goodtest", reporter.lastFinishedTest);
 2117              		.loc 6 78 0
 2118 0ca4 4889C7   		movq	%rax, %rdi
 2119 0ca7 E8000000 		call	__cxa_begin_catch@PLT
 2119      00
 2120              	.LEHB49:
 2121 0cac E8000000 		call	_ZN8UnitTest11CurrentTest7ResultsEv@PLT
 2121      00
 2122 0cb1 488B18   		movq	(%rax), %rbx
 2123 0cb4 E8000000 		call	_ZN8UnitTest11CurrentTest7DetailsEv@PLT
 2123      00
  78:TestTestRunner.cpp ****     CHECK_EQUAL("goodtest", reporter.lastFinishedTest);
 2124              		.loc 6 78 0 is_stmt 0 discriminator 8
 2125 0cb9 488B08   		movq	(%rax), %rcx
 2126 0cbc 488D4590 		leaq	-112(%rbp), %rax
 2127 0cc0 BA4E0000 		movl	$78, %edx
 2127      00
 2128 0cc5 4889CE   		movq	%rcx, %rsi
 2129 0cc8 4889C7   		movq	%rax, %rdi
 2130 0ccb E8000000 		call	_ZN8UnitTest11TestDetailsC1ERKS0_i@PLT
 2130      00
  78:TestTestRunner.cpp ****     CHECK_EQUAL("goodtest", reporter.lastFinishedTest);
 2131              		.loc 6 78 0 discriminator 12
 2132 0cd0 488D4590 		leaq	-112(%rbp), %rax
 2133 0cd4 488D1500 		leaq	.LC15(%rip), %rdx
 2133      000000
 2134 0cdb 4889C6   		movq	%rax, %rsi
 2135 0cde 4889DF   		movq	%rbx, %rdi
 2136 0ce1 E8000000 		call	_ZN8UnitTest11TestResults13OnTestFailureERKNS_11TestDetailsEPKc@PLT
 2136      00
 2137              	.LEHE49:
 2138              	.LEHB50:
  78:TestTestRunner.cpp ****     CHECK_EQUAL("goodtest", reporter.lastFinishedTest);
 2139              		.loc 6 78 0 discriminator 14
 2140 0ce6 E8000000 		call	__cxa_end_catch@PLT
 2140      00
 2141              	.LEHE50:
  78:TestTestRunner.cpp ****     CHECK_EQUAL("goodtest", reporter.lastFinishedTest);
 2142              		.loc 6 78 0
 2143 0ceb E942FFFF 		jmp	.L103
 2143      FF
 2144              	.L113:
 2145 0cf0 4889C3   		movq	%rax, %rbx
 2146 0cf3 E8000000 		call	__cxa_end_catch@PLT
 2146      00
 2147 0cf8 EB59     		jmp	.L105
 2148              	.L114:
  79:TestTestRunner.cpp **** }
 2149              		.loc 6 79 0 is_stmt 1
 2150 0cfa 4889C7   		movq	%rax, %rdi
 2151 0cfd E8000000 		call	__cxa_begin_catch@PLT
 2151      00
 2152              	.LEHB51:
 2153 0d02 E8000000 		call	_ZN8UnitTest11CurrentTest7ResultsEv@PLT
 2153      00
 2154 0d07 488B18   		movq	(%rax), %rbx
 2155 0d0a E8000000 		call	_ZN8UnitTest11CurrentTest7DetailsEv@PLT
 2155      00
  79:TestTestRunner.cpp **** }
 2156              		.loc 6 79 0 is_stmt 0 discriminator 8
 2157 0d0f 488B08   		movq	(%rax), %rcx
 2158 0d12 488D4590 		leaq	-112(%rbp), %rax
 2159 0d16 BA4F0000 		movl	$79, %edx
 2159      00
 2160 0d1b 4889CE   		movq	%rcx, %rsi
 2161 0d1e 4889C7   		movq	%rax, %rdi
 2162 0d21 E8000000 		call	_ZN8UnitTest11TestDetailsC1ERKS0_i@PLT
 2162      00
  79:TestTestRunner.cpp **** }
 2163              		.loc 6 79 0 discriminator 12
 2164 0d26 488D4590 		leaq	-112(%rbp), %rax
 2165 0d2a 488D1500 		leaq	.LC16(%rip), %rdx
 2165      000000
 2166 0d31 4889C6   		movq	%rax, %rsi
 2167 0d34 4889DF   		movq	%rbx, %rdi
 2168 0d37 E8000000 		call	_ZN8UnitTest11TestResults13OnTestFailureERKNS_11TestDetailsEPKc@PLT
 2168      00
 2169              	.LEHE51:
 2170              	.LEHB52:
  79:TestTestRunner.cpp **** }
 2171              		.loc 6 79 0 discriminator 14
 2172 0d3c E8000000 		call	__cxa_end_catch@PLT
 2172      00
 2173              	.LEHE52:
  79:TestTestRunner.cpp **** }
 2174              		.loc 6 79 0
 2175 0d41 E937FFFF 		jmp	.L107
 2175      FF
 2176              	.L115:
 2177 0d46 4889C3   		movq	%rax, %rbx
 2178 0d49 E8000000 		call	__cxa_end_catch@PLT
 2178      00
 2179 0d4e EB03     		jmp	.L105
 2180              	.L110:
 2181 0d50 4889C3   		movq	%rax, %rbx
 2182              	.L105:
  74:TestTestRunner.cpp ****     list.Add(&test);
 2183              		.loc 6 74 0 is_stmt 1
 2184 0d53 488D45B0 		leaq	-80(%rbp), %rax
 2185 0d57 4889C7   		movq	%rax, %rdi
 2186 0d5a E87F9800 		call	_ZN12_GLOBAL__N_18MockTestD1Ev
 2186      00
 2187 0d5f 4889D8   		movq	%rbx, %rax
 2188 0d62 4889C7   		movq	%rax, %rdi
 2189              	.LEHB53:
 2190 0d65 E8000000 		call	_Unwind_Resume@PLT
 2190      00
 2191              	.LEHE53:
 2192              	.L116:
 2193              		.loc 6 80 0
 2194 0d6a E8000000 		call	__stack_chk_fail@PLT
 2194      00
 2195              	.L109:
 2196 0d6f 4881C488 		addq	$136, %rsp
 2196      000000
 2197 0d76 5B       		popq	%rbx
 2198 0d77 5D       		popq	%rbp
 2199              		.cfi_def_cfa 7, 8
 2200 0d78 C3       		ret
 2201              		.cfi_endproc
 2202              	.LFE1136:
 2203              		.section	.gcc_except_table
 2204              		.align 4
 2205              	.LLSDA1136:
 2206 0118 FF       		.byte	0xff
 2207 0119 9B       		.byte	0x9b
 2208 011a 45       		.uleb128 .LLSDATT1136-.LLSDATTD1136
 2209              	.LLSDATTD1136:
 2210 011b 01       		.byte	0x1
 2211 011c 3D       		.uleb128 .LLSDACSE1136-.LLSDACSB1136
 2212              	.LLSDACSB1136:
 2213 011d 40       		.uleb128 .LEHB43-.LFB1136
 2214 011e 05       		.uleb128 .LEHE43-.LEHB43
 2215 011f 00       		.uleb128 0
 2216 0120 00       		.uleb128 0
 2217 0121 5D       		.uleb128 .LEHB44-.LFB1136
 2218 0122 34       		.uleb128 .LEHE44-.LEHB44
 2219 0123 FE03     		.uleb128 .L110-.LFB1136
 2220 0125 00       		.uleb128 0
 2221 0126 9101     		.uleb128 .LEHB45-.LFB1136
 2222 0128 1C       		.uleb128 .LEHE45-.LEHB45
 2223 0129 D202     		.uleb128 .L111-.LFB1136
 2224 012b 01       		.uleb128 0x1
 2225 012c C201     		.uleb128 .LEHB46-.LFB1136
 2226 012e 1E       		.uleb128 .LEHE46-.LEHB46
 2227 012f D002     		.uleb128 .L112-.LFB1136
 2228 0131 01       		.uleb128 0x1
 2229 0132 E001     		.uleb128 .LEHB47-.LFB1136
 2230 0134 4B       		.uleb128 .LEHE47-.LEHB47
 2231 0135 A803     		.uleb128 .L114-.LFB1136
 2232 0137 01       		.uleb128 0x1
 2233 0138 B202     		.uleb128 .LEHB48-.LFB1136
 2234 013a 05       		.uleb128 .LEHE48-.LEHB48
 2235 013b 00       		.uleb128 0
 2236 013c 00       		.uleb128 0
 2237 013d DA02     		.uleb128 .LEHB49-.LFB1136
 2238 013f 3A       		.uleb128 .LEHE49-.LEHB49
 2239 0140 9E03     		.uleb128 .L113-.LFB1136
 2240 0142 00       		.uleb128 0
 2241 0143 9403     		.uleb128 .LEHB50-.LFB1136
 2242 0145 05       		.uleb128 .LEHE50-.LEHB50
 2243 0146 FE03     		.uleb128 .L110-.LFB1136
 2244 0148 00       		.uleb128 0
 2245 0149 B003     		.uleb128 .LEHB51-.LFB1136
 2246 014b 3A       		.uleb128 .LEHE51-.LEHB51
 2247 014c F403     		.uleb128 .L115-.LFB1136
 2248 014e 00       		.uleb128 0
 2249 014f EA03     		.uleb128 .LEHB52-.LFB1136
 2250 0151 05       		.uleb128 .LEHE52-.LEHB52
 2251 0152 FE03     		.uleb128 .L110-.LFB1136
 2252 0154 00       		.uleb128 0
 2253 0155 9304     		.uleb128 .LEHB53-.LFB1136
 2254 0157 05       		.uleb128 .LEHE53-.LEHB53
 2255 0158 00       		.uleb128 0
 2256 0159 00       		.uleb128 0
 2257              	.LLSDACSE1136:
 2258 015a 01       		.byte	0x1
 2259 015b 00       		.byte	0
 2260              		.align 4
 2261 015c 00000000 		.long	0
 2262              	
 2263              	.LLSDATT1136:
 2264              		.text
 2266              		.section	.rodata
 2267              	.LC17:
 2268 0232 66696C65 		.string	"filename"
 2268      6E616D65 
 2268      00
 2269              	.LC18:
 2270 023b 736F6D65 		.string	"somesuite"
 2270      73756974 
 2270      6500
 2271              	.LC19:
 2272 0245 736C6F77 		.string	"slow"
 2272      00
 2273              		.text
 2274 0d79 90       		.align 2
 2276              	_ZN12_GLOBAL__N_18SlowTestC2Ev:
 2277              	.LFB1138:
  81:TestTestRunner.cpp **** 
  82:TestTestRunner.cpp **** class SlowTest : public Test
  83:TestTestRunner.cpp **** {
  84:TestTestRunner.cpp **** public:
  85:TestTestRunner.cpp ****     SlowTest() : Test("slow", "somesuite", "filename", 123) {}
 2278              		.loc 6 85 0
 2279              		.cfi_startproc
 2280 0d7a 55       		pushq	%rbp
 2281              		.cfi_def_cfa_offset 16
 2282              		.cfi_offset 6, -16
 2283 0d7b 4889E5   		movq	%rsp, %rbp
 2284              		.cfi_def_cfa_register 6
 2285 0d7e 4883EC10 		subq	$16, %rsp
 2286 0d82 48897DF8 		movq	%rdi, -8(%rbp)
 2287              	.LBB36:
 2288              		.loc 6 85 0
 2289 0d86 488B45F8 		movq	-8(%rbp), %rax
 2290 0d8a 41B87B00 		movl	$123, %r8d
 2290      0000
 2291 0d90 488D0D00 		leaq	.LC17(%rip), %rcx
 2291      000000
 2292 0d97 488D1500 		leaq	.LC18(%rip), %rdx
 2292      000000
 2293 0d9e 488D3500 		leaq	.LC19(%rip), %rsi
 2293      000000
 2294 0da5 4889C7   		movq	%rax, %rdi
 2295 0da8 E8000000 		call	_ZN8UnitTest4TestC2EPKcS2_S2_i@PLT
 2295      00
 2296 0dad 488D1500 		leaq	16+_ZTVN12_GLOBAL__N_18SlowTestE(%rip), %rdx
 2296      000000
 2297 0db4 488B45F8 		movq	-8(%rbp), %rax
 2298 0db8 488910   		movq	%rdx, (%rax)
 2299              	.LBE36:
 2300 0dbb 90       		nop
 2301 0dbc C9       		leave
 2302              		.cfi_def_cfa 7, 8
 2303 0dbd C3       		ret
 2304              		.cfi_endproc
 2305              	.LFE1138:
 2307              		.set	_ZN12_GLOBAL__N_18SlowTestC1Ev,_ZN12_GLOBAL__N_18SlowTestC2Ev
 2308              		.align 2
 2310              	_ZNK12_GLOBAL__N_18SlowTest7RunImplEv:
 2311              	.LFB1140:
  86:TestTestRunner.cpp ****     virtual void RunImpl() const
 2312              		.loc 6 86 0
 2313              		.cfi_startproc
 2314 0dbe 55       		pushq	%rbp
 2315              		.cfi_def_cfa_offset 16
 2316              		.cfi_offset 6, -16
 2317 0dbf 4889E5   		movq	%rsp, %rbp
 2318              		.cfi_def_cfa_register 6
 2319 0dc2 4883EC10 		subq	$16, %rsp
 2320 0dc6 48897DF8 		movq	%rdi, -8(%rbp)
  87:TestTestRunner.cpp ****     {
  88:TestTestRunner.cpp ****         TimeHelpers::SleepMs(20);
 2321              		.loc 6 88 0
 2322 0dca BF140000 		movl	$20, %edi
 2322      00
 2323 0dcf E8000000 		call	_ZN8UnitTest11TimeHelpers7SleepMsEi@PLT
 2323      00
  89:TestTestRunner.cpp ****     }
 2324              		.loc 6 89 0
 2325 0dd4 90       		nop
 2326 0dd5 C9       		leave
 2327              		.cfi_def_cfa 7, 8
 2328 0dd6 C3       		ret
 2329              		.cfi_endproc
 2330              	.LFE1140:
 2332 0dd7 90       		.align 2
 2334              	_ZN12_GLOBAL__N_156TestRunnerFixtureTestFinishIsCalledWithCorrectTimeHelperC2ERKN8UnitTest11TestDet
 2335              	.LFB1142:
  90:TestTestRunner.cpp **** };
  91:TestTestRunner.cpp **** 
  92:TestTestRunner.cpp **** TEST_FIXTURE(TestRunnerFixture, TestFinishIsCalledWithCorrectTime)
 2336              		.loc 6 92 0
 2337              		.cfi_startproc
 2338 0dd8 55       		pushq	%rbp
 2339              		.cfi_def_cfa_offset 16
 2340              		.cfi_offset 6, -16
 2341 0dd9 4889E5   		movq	%rsp, %rbp
 2342              		.cfi_def_cfa_register 6
 2343 0ddc 4883EC10 		subq	$16, %rsp
 2344 0de0 48897DF8 		movq	%rdi, -8(%rbp)
 2345 0de4 488975F0 		movq	%rsi, -16(%rbp)
 2346              	.LBB37:
 2347              		.loc 6 92 0
 2348 0de8 488B45F8 		movq	-8(%rbp), %rax
 2349 0dec 4889C7   		movq	%rax, %rdi
 2350 0def E888F3FF 		call	_ZN12_GLOBAL__N_117TestRunnerFixtureC2Ev
 2350      FF
 2351 0df4 488B45F8 		movq	-8(%rbp), %rax
 2352 0df8 488B55F0 		movq	-16(%rbp), %rdx
 2353 0dfc 48899058 		movq	%rdx, 2136(%rax)
 2353      080000
 2354              	.LBE37:
 2355 0e03 90       		nop
 2356 0e04 C9       		leave
 2357              		.cfi_def_cfa 7, 8
 2358 0e05 C3       		ret
 2359              		.cfi_endproc
 2360              	.LFE1142:
 2362              		.set	_ZN12_GLOBAL__N_156TestRunnerFixtureTestFinishIsCalledWithCorrectTimeHelperC1ERKN8UnitTest11T
 2363              		.section	.rodata
 2364 024a 00000000 		.align 8
 2364      0000
 2365              	.LC20:
 2366 0250 54657374 		.string	"TestFinishIsCalledWithCorrectTime"
 2366      46696E69 
 2366      73684973 
 2366      43616C6C 
 2366      65645769 
 2367              		.text
 2368              		.align 2
 2370              	_ZN12_GLOBAL__N_154TestTestRunnerFixtureTestFinishIsCalledWithCorrectTimeC2Ev:
 2371              	.LFB1145:
 2372              		.loc 6 92 0
 2373              		.cfi_startproc
 2374 0e06 55       		pushq	%rbp
 2375              		.cfi_def_cfa_offset 16
 2376              		.cfi_offset 6, -16
 2377 0e07 4889E5   		movq	%rsp, %rbp
 2378              		.cfi_def_cfa_register 6
 2379 0e0a 53       		pushq	%rbx
 2380 0e0b 4883EC18 		subq	$24, %rsp
 2381              		.cfi_offset 3, -24
 2382 0e0f 48897DE8 		movq	%rdi, -24(%rbp)
 2383              	.LBB38:
 2384              		.loc 6 92 0
 2385 0e13 488B5DE8 		movq	-24(%rbp), %rbx
 2386 0e17 E8000000 		call	_ZN13UnitTestSuite12GetSuiteNameEv
 2386      00
 2387 0e1c 41B85C00 		movl	$92, %r8d
 2387      0000
 2388 0e22 488D0D00 		leaq	.LC6(%rip), %rcx
 2388      000000
 2389 0e29 4889C2   		movq	%rax, %rdx
 2390 0e2c 488D3500 		leaq	.LC20(%rip), %rsi
 2390      000000
 2391 0e33 4889DF   		movq	%rbx, %rdi
 2392 0e36 E8000000 		call	_ZN8UnitTest4TestC2EPKcS2_S2_i@PLT
 2392      00
 2393 0e3b 488D1500 		leaq	16+_ZTVN12_GLOBAL__N_154TestTestRunnerFixtureTestFinishIsCalledWithCorrectTimeE(%rip), %rdx
 2393      000000
 2394 0e42 488B45E8 		movq	-24(%rbp), %rax
 2395 0e46 488910   		movq	%rdx, (%rax)
 2396              	.LBE38:
 2397 0e49 90       		nop
 2398 0e4a 4883C418 		addq	$24, %rsp
 2399 0e4e 5B       		popq	%rbx
 2400 0e4f 5D       		popq	%rbp
 2401              		.cfi_def_cfa 7, 8
 2402 0e50 C3       		ret
 2403              		.cfi_endproc
 2404              	.LFE1145:
 2406              		.set	_ZN12_GLOBAL__N_154TestTestRunnerFixtureTestFinishIsCalledWithCorrectTimeC1Ev,_ZN12_GLOBAL__N
 2407              		.local	_ZN12_GLOBAL__N_162testTestRunnerFixtureTestFinishIsCalledWithCorrectTimeInstanceE
 2408              		.comm	_ZN12_GLOBAL__N_162testTestRunnerFixtureTestFinishIsCalledWithCorrectTimeInstanceE,56,32
 2409              		.local	_ZN12_GLOBAL__N_155adderTestRunnerFixtureTestFinishIsCalledWithCorrectTimeE
 2410              		.comm	_ZN12_GLOBAL__N_155adderTestRunnerFixtureTestFinishIsCalledWithCorrectTimeE,1,1
 2411 0e51 90       		.align 2
 2413              	_ZN12_GLOBAL__N_156TestRunnerFixtureTestFinishIsCalledWithCorrectTimeHelperD2Ev:
 2414              	.LFB1149:
 2415              		.loc 6 92 0
 2416              		.cfi_startproc
 2417 0e52 55       		pushq	%rbp
 2418              		.cfi_def_cfa_offset 16
 2419              		.cfi_offset 6, -16
 2420 0e53 4889E5   		movq	%rsp, %rbp
 2421              		.cfi_def_cfa_register 6
 2422 0e56 4883EC10 		subq	$16, %rsp
 2423 0e5a 48897DF8 		movq	%rdi, -8(%rbp)
 2424              	.LBB39:
 2425              		.loc 6 92 0
 2426 0e5e 488B45F8 		movq	-8(%rbp), %rax
 2427 0e62 4889C7   		movq	%rax, %rdi
 2428 0e65 E860F3FF 		call	_ZN12_GLOBAL__N_117TestRunnerFixtureD2Ev
 2428      FF
 2429              	.LBE39:
 2430 0e6a 90       		nop
 2431 0e6b C9       		leave
 2432              		.cfi_def_cfa 7, 8
 2433 0e6c C3       		ret
 2434              		.cfi_endproc
 2435              	.LFE1149:
 2437              		.set	_ZN12_GLOBAL__N_156TestRunnerFixtureTestFinishIsCalledWithCorrectTimeHelperD1Ev,_ZN12_GLOBAL_
 2438 0e6d 90       		.align 2
 2440              	_ZNK12_GLOBAL__N_154TestTestRunnerFixtureTestFinishIsCalledWithCorrectTime7RunImplEv:
 2441              	.LFB1147:
 2442              		.loc 6 92 0
 2443              		.cfi_startproc
 2444              		.cfi_personality 0x9b,DW.ref.__gxx_personality_v0
 2445              		.cfi_lsda 0x1b,.LLSDA1147
 2446 0e6e 55       		pushq	%rbp
 2447              		.cfi_def_cfa_offset 16
 2448              		.cfi_offset 6, -16
 2449 0e6f 4889E5   		movq	%rsp, %rbp
 2450              		.cfi_def_cfa_register 6
 2451 0e72 4155     		pushq	%r13
 2452 0e74 4154     		pushq	%r12
 2453 0e76 53       		pushq	%rbx
 2454 0e77 4881ECC8 		subq	$2248, %rsp
 2454      080000
 2455              		.cfi_offset 13, -24
 2456              		.cfi_offset 12, -32
 2457              		.cfi_offset 3, -40
 2458 0e7e 4889BD28 		movq	%rdi, -2264(%rbp)
 2458      F7FFFF
 2459              		.loc 6 92 0
 2460 0e85 64488B04 		movq	%fs:40, %rax
 2460      25280000 
 2460      00
 2461 0e8e 488945D8 		movq	%rax, -40(%rbp)
 2462 0e92 31C0     		xorl	%eax, %eax
 2463 0e94 C6853FF7 		movb	$0, -2241(%rbp)
 2463      FFFF00
 2464              	.LBB40:
 2465 0e9b 488B8528 		movq	-2264(%rbp), %rax
 2465      F7FFFF
 2466 0ea2 488D5008 		leaq	8(%rax), %rdx
 2467 0ea6 488D8570 		leaq	-2192(%rbp), %rax
 2467      F7FFFF
 2468 0ead 4889D6   		movq	%rdx, %rsi
 2469 0eb0 4889C7   		movq	%rax, %rdi
 2470              	.LEHB54:
 2471 0eb3 E820FFFF 		call	_ZN12_GLOBAL__N_156TestRunnerFixtureTestFinishIsCalledWithCorrectTimeHelperC1ERKN8UnitTest11T
 2471      FF
 2472              	.LEHE54:
 2473              		.loc 6 92 0 is_stmt 0 discriminator 1
 2474 0eb8 C6853FF7 		movb	$1, -2241(%rbp)
 2474      FFFF01
 2475 0ebf 488B8528 		movq	-2264(%rbp), %rax
 2475      F7FFFF
 2476 0ec6 488D5008 		leaq	8(%rax), %rdx
 2477 0eca 488D8570 		leaq	-2192(%rbp), %rax
 2477      F7FFFF
 2478 0ed1 4889D6   		movq	%rdx, %rsi
 2479 0ed4 4889C7   		movq	%rax, %rdi
 2480              	.LEHB55:
 2481 0ed7 E82D6300 		call	_ZN8UnitTest11ExecuteTestIN12_GLOBAL__N_156TestRunnerFixtureTestFinishIsCalledWithCorrectTime
 2481      00
 2482              	.LEHE55:
 2483              		.loc 6 92 0 discriminator 3
 2484 0edc 488D8570 		leaq	-2192(%rbp), %rax
 2484      F7FFFF
 2485 0ee3 4889C7   		movq	%rax, %rdi
 2486              	.LEHB56:
 2487 0ee6 E867FFFF 		call	_ZN12_GLOBAL__N_156TestRunnerFixtureTestFinishIsCalledWithCorrectTimeHelperD1Ev
 2487      FF
 2488              	.LEHE56:
 2489              	.LBE40:
 2490              		.loc 6 92 0
 2491 0eeb E9690200 		jmp	.L122
 2491      00
 2492              	.L137:
 2493 0ef0 4989C4   		movq	%rax, %r12
 2494 0ef3 4889D3   		movq	%rdx, %rbx
 2495              	.LBB41:
 2496 0ef6 488D8570 		leaq	-2192(%rbp), %rax
 2496      F7FFFF
 2497 0efd 4889C7   		movq	%rax, %rdi
 2498 0f00 E84DFFFF 		call	_ZN12_GLOBAL__N_156TestRunnerFixtureTestFinishIsCalledWithCorrectTimeHelperD1Ev
 2498      FF
 2499 0f05 4C89E0   		movq	%r12, %rax
 2500 0f08 4889DA   		movq	%rbx, %rdx
 2501 0f0b EB00     		jmp	.L124
 2502              	.L136:
 2503              	.L124:
 2504 0f0d 4883FA01 		cmpq	$1, %rdx
 2505 0f11 740F     		je	.L126
 2506 0f13 4883FA02 		cmpq	$2, %rdx
 2507 0f17 0F84A700 		je	.L127
 2507      0000
 2508 0f1d E94A0100 		jmp	.L142
 2508      00
 2509              	.L126:
 2510              	.LBE41:
 2511              	.LBB42:
 2512 0f22 4889C7   		movq	%rax, %rdi
 2513 0f25 E8000000 		call	__cxa_begin_catch@PLT
 2513      00
 2514 0f2a 48898548 		movq	%rax, -2232(%rbp)
 2514      F7FFFF
 2515              	.LEHB57:
 2516 0f31 E8000000 		call	_ZN8UnitTest11CurrentTest7ResultsEv@PLT
 2516      00
 2517 0f36 488B18   		movq	(%rax), %rbx
 2518 0f39 488B8548 		movq	-2232(%rbp), %rax
 2518      F7FFFF
 2519 0f40 488B00   		movq	(%rax), %rax
 2520 0f43 4883C010 		addq	$16, %rax
 2521 0f47 488B00   		movq	(%rax), %rax
 2522 0f4a 488B9548 		movq	-2232(%rbp), %rdx
 2522      F7FFFF
 2523 0f51 4889D7   		movq	%rdx, %rdi
 2524 0f54 FFD0     		call	*%rax
 2525              	.LVL4:
 2526 0f56 4989C4   		movq	%rax, %r12
 2527 0f59 488B8548 		movq	-2232(%rbp), %rax
 2527      F7FFFF
 2528 0f60 4889C7   		movq	%rax, %rdi
 2529 0f63 E8000000 		call	_ZNK8UnitTest15AssertException10LineNumberEv@PLT
 2529      00
 2530              		.loc 6 92 0 discriminator 5
 2531 0f68 4189C5   		movl	%eax, %r13d
 2532 0f6b 488B8548 		movq	-2232(%rbp), %rax
 2532      F7FFFF
 2533 0f72 4889C7   		movq	%rax, %rdi
 2534 0f75 E8000000 		call	_ZNK8UnitTest15AssertException8FilenameEv@PLT
 2534      00
 2535              		.loc 6 92 0 discriminator 7
 2536 0f7a 4889C1   		movq	%rax, %rcx
 2537 0f7d 488B8528 		movq	-2264(%rbp), %rax
 2537      F7FFFF
 2538 0f84 488B5008 		movq	8(%rax), %rdx
 2539 0f88 488B8528 		movq	-2264(%rbp), %rax
 2539      F7FFFF
 2540 0f8f 488B7010 		movq	16(%rax), %rsi
 2541 0f93 488D8550 		leaq	-2224(%rbp), %rax
 2541      F7FFFF
 2542 0f9a 4589E8   		movl	%r13d, %r8d
 2543 0f9d 4889C7   		movq	%rax, %rdi
 2544 0fa0 E8000000 		call	_ZN8UnitTest11TestDetailsC1EPKcS2_S2_i@PLT
 2544      00
 2545              		.loc 6 92 0 discriminator 11
 2546 0fa5 488D8550 		leaq	-2224(%rbp), %rax
 2546      F7FFFF
 2547 0fac 4C89E2   		movq	%r12, %rdx
 2548 0faf 4889C6   		movq	%rax, %rsi
 2549 0fb2 4889DF   		movq	%rbx, %rdi
 2550 0fb5 E8000000 		call	_ZN8UnitTest11TestResults13OnTestFailureERKNS_11TestDetailsEPKc@PLT
 2550      00
 2551              	.LEHE57:
 2552              		.loc 6 92 0 discriminator 13
 2553 0fba E8000000 		call	__cxa_end_catch@PLT
 2553      00
 2554              	.LBE42:
 2555 0fbf E9950100 		jmp	.L122
 2555      00
 2556              	.L127:
 2557              	.LBB43:
 2558              		.loc 6 92 0
 2559 0fc4 4889C7   		movq	%rax, %rdi
 2560 0fc7 E8000000 		call	__cxa_begin_catch@PLT
 2560      00
 2561 0fcc 48898540 		movq	%rax, -2240(%rbp)
 2561      F7FFFF
 2562              	.LBB44:
 2563 0fd3 488D8570 		leaq	-2192(%rbp), %rax
 2563      F7FFFF
 2564 0fda 4889C7   		movq	%rax, %rdi
 2565              	.LEHB58:
 2566 0fdd E8000000 		call	_ZN8UnitTest15MemoryOutStreamC1Ev
 2566      00
 2567              	.LEHE58:
 2568              		.loc 6 92 0 discriminator 15
 2569 0fe2 488D8570 		leaq	-2192(%rbp), %rax
 2569      F7FFFF
 2570 0fe9 488D3500 		leaq	.LC8(%rip), %rsi
 2570      000000
 2571 0ff0 4889C7   		movq	%rax, %rdi
 2572              	.LEHB59:
 2573 0ff3 E8000000 		call	_ZStlsISt11char_traitsIcEERSt13basic_ostreamIcT_ES5_PKc@PLT
 2573      00
 2574 0ff8 4889C3   		movq	%rax, %rbx
 2575 0ffb 488B8540 		movq	-2240(%rbp), %rax
 2575      F7FFFF
 2576 1002 488B00   		movq	(%rax), %rax
 2577 1005 4883C010 		addq	$16, %rax
 2578 1009 488B00   		movq	(%rax), %rax
 2579 100c 488B9540 		movq	-2240(%rbp), %rdx
 2579      F7FFFF
 2580 1013 4889D7   		movq	%rdx, %rdi
 2581 1016 FFD0     		call	*%rax
 2582              	.LVL5:
 2583 1018 4889C6   		movq	%rax, %rsi
 2584 101b 4889DF   		movq	%rbx, %rdi
 2585 101e E8000000 		call	_ZStlsISt11char_traitsIcEERSt13basic_ostreamIcT_ES5_PKc@PLT
 2585      00
 2586              		.loc 6 92 0 discriminator 19
 2587 1023 E8000000 		call	_ZN8UnitTest11CurrentTest7ResultsEv@PLT
 2587      00
 2588 1028 488B18   		movq	(%rax), %rbx
 2589 102b 488D8570 		leaq	-2192(%rbp), %rax
 2589      F7FFFF
 2590 1032 4889C7   		movq	%rax, %rdi
 2591 1035 E8000000 		call	_ZNK8UnitTest15MemoryOutStream7GetTextEv@PLT
 2591      00
 2592              		.loc 6 92 0 discriminator 21
 2593 103a 4889C2   		movq	%rax, %rdx
 2594 103d 488B8528 		movq	-2264(%rbp), %rax
 2594      F7FFFF
 2595 1044 4883C008 		addq	$8, %rax
 2596 1048 4889C6   		movq	%rax, %rsi
 2597 104b 4889DF   		movq	%rbx, %rdi
 2598 104e E8000000 		call	_ZN8UnitTest11TestResults13OnTestFailureERKNS_11TestDetailsEPKc@PLT
 2598      00
 2599              	.LEHE59:
 2600              		.loc 6 92 0 discriminator 25
 2601 1053 488D8570 		leaq	-2192(%rbp), %rax
 2601      F7FFFF
 2602 105a 4889C7   		movq	%rax, %rdi
 2603              	.LEHB60:
 2604 105d E8000000 		call	_ZN8UnitTest15MemoryOutStreamD1Ev
 2604      00
 2605              	.LEHE60:
 2606              	.LBE44:
 2607              		.loc 6 92 0 discriminator 26
 2608 1062 E8000000 		call	__cxa_end_catch@PLT
 2608      00
 2609              	.LBE43:
 2610 1067 E9ED0000 		jmp	.L122
 2610      00
 2611              	.L142:
 2612              		.loc 6 92 0
 2613 106c 4889C7   		movq	%rax, %rdi
 2614 106f E8000000 		call	__cxa_begin_catch@PLT
 2614      00
 2615 1074 80BD3FF7 		cmpb	$0, -2241(%rbp)
 2615      FFFF00
 2616 107b 7445     		je	.L129
 2617              	.LEHB61:
 2618              		.loc 6 92 0 discriminator 28
 2619 107d E8000000 		call	_ZN8UnitTest11CurrentTest7ResultsEv@PLT
 2619      00
 2620 1082 488B18   		movq	(%rax), %rbx
 2621 1085 488B8528 		movq	-2264(%rbp), %rax
 2621      F7FFFF
 2622 108c 488D4808 		leaq	8(%rax), %rcx
 2623 1090 488D8550 		leaq	-2224(%rbp), %rax
 2623      F7FFFF
 2624 1097 BA5C0000 		movl	$92, %edx
 2624      00
 2625 109c 4889CE   		movq	%rcx, %rsi
 2626 109f 4889C7   		movq	%rax, %rdi
 2627 10a2 E8000000 		call	_ZN8UnitTest11TestDetailsC1ERKS0_i@PLT
 2627      00
 2628              		.loc 6 92 0 discriminator 33
 2629 10a7 488D8550 		leaq	-2224(%rbp), %rax
 2629      F7FFFF
 2630 10ae 488D1500 		leaq	.LC9(%rip), %rdx
 2630      000000
 2631 10b5 4889C6   		movq	%rax, %rsi
 2632 10b8 4889DF   		movq	%rbx, %rdi
 2633 10bb E8000000 		call	_ZN8UnitTest11TestResults13OnTestFailureERKNS_11TestDetailsEPKc@PLT
 2633      00
 2634 10c0 EB43     		jmp	.L130
 2635              	.L129:
 2636              		.loc 6 92 0 discriminator 29
 2637 10c2 E8000000 		call	_ZN8UnitTest11CurrentTest7ResultsEv@PLT
 2637      00
 2638 10c7 488B18   		movq	(%rax), %rbx
 2639 10ca 488B8528 		movq	-2264(%rbp), %rax
 2639      F7FFFF
 2640 10d1 488D4808 		leaq	8(%rax), %rcx
 2641 10d5 488D8550 		leaq	-2224(%rbp), %rax
 2641      F7FFFF
 2642 10dc BA5C0000 		movl	$92, %edx
 2642      00
 2643 10e1 4889CE   		movq	%rcx, %rsi
 2644 10e4 4889C7   		movq	%rax, %rdi
 2645 10e7 E8000000 		call	_ZN8UnitTest11TestDetailsC1ERKS0_i@PLT
 2645      00
 2646              		.loc 6 92 0 discriminator 40
 2647 10ec 488D8550 		leaq	-2224(%rbp), %rax
 2647      F7FFFF
 2648 10f3 488D1500 		leaq	.LC10(%rip), %rdx
 2648      000000
 2649 10fa 4889C6   		movq	%rax, %rsi
 2650 10fd 4889DF   		movq	%rbx, %rdi
 2651 1100 E8000000 		call	_ZN8UnitTest11TestResults13OnTestFailureERKNS_11TestDetailsEPKc@PLT
 2651      00
 2652              	.LEHE61:
 2653              	.L130:
 2654              	.LEHB62:
 2655              		.loc 6 92 0 discriminator 43
 2656 1105 E8000000 		call	__cxa_end_catch@PLT
 2656      00
 2657 110a EB4D     		jmp	.L122
 2658              	.L138:
 2659 110c 4889C3   		movq	%rax, %rbx
 2660              	.LBB46:
 2661              		.loc 6 92 0
 2662 110f E8000000 		call	__cxa_end_catch@PLT
 2662      00
 2663 1114 4889D8   		movq	%rbx, %rax
 2664 1117 4889C7   		movq	%rax, %rdi
 2665 111a E8000000 		call	_Unwind_Resume@PLT
 2665      00
 2666              	.LEHE62:
 2667              	.L140:
 2668 111f 4889C3   		movq	%rax, %rbx
 2669              	.LBE46:
 2670              	.LBB47:
 2671              	.LBB45:
 2672 1122 488D8570 		leaq	-2192(%rbp), %rax
 2672      F7FFFF
 2673 1129 4889C7   		movq	%rax, %rdi
 2674 112c E8000000 		call	_ZN8UnitTest15MemoryOutStreamD1Ev
 2674      00
 2675 1131 EB03     		jmp	.L133
 2676              	.L139:
 2677 1133 4889C3   		movq	%rax, %rbx
 2678              	.L133:
 2679              	.LBE45:
 2680 1136 E8000000 		call	__cxa_end_catch@PLT
 2680      00
 2681 113b 4889D8   		movq	%rbx, %rax
 2682 113e 4889C7   		movq	%rax, %rdi
 2683              	.LEHB63:
 2684 1141 E8000000 		call	_Unwind_Resume@PLT
 2684      00
 2685              	.LEHE63:
 2686              	.L141:
 2687 1146 4889C3   		movq	%rax, %rbx
 2688              	.LBE47:
 2689 1149 E8000000 		call	__cxa_end_catch@PLT
 2689      00
 2690 114e 4889D8   		movq	%rbx, %rax
 2691 1151 4889C7   		movq	%rax, %rdi
 2692              	.LEHB64:
 2693 1154 E8000000 		call	_Unwind_Resume@PLT
 2693      00
 2694              	.LEHE64:
 2695              	.L122:
 2696 1159 488B45D8 		movq	-40(%rbp), %rax
 2697 115d 64483304 		xorq	%fs:40, %rax
 2697      25280000 
 2697      00
 2698 1166 7405     		je	.L135
 2699 1168 E8000000 		call	__stack_chk_fail@PLT
 2699      00
 2700              	.L135:
 2701 116d 4881C4C8 		addq	$2248, %rsp
 2701      080000
 2702 1174 5B       		popq	%rbx
 2703 1175 415C     		popq	%r12
 2704 1177 415D     		popq	%r13
 2705 1179 5D       		popq	%rbp
 2706              		.cfi_def_cfa 7, 8
 2707 117a C3       		ret
 2708              		.cfi_endproc
 2709              	.LFE1147:
 2710              		.section	.gcc_except_table
 2711              		.align 4
 2712              	.LLSDA1147:
 2713 0160 FF       		.byte	0xff
 2714 0161 9B       		.byte	0x9b
 2715 0162 55       		.uleb128 .LLSDATT1147-.LLSDATTD1147
 2716              	.LLSDATTD1147:
 2717 0163 01       		.byte	0x1
 2718 0164 3E       		.uleb128 .LLSDACSE1147-.LLSDACSB1147
 2719              	.LLSDACSB1147:
 2720 0165 45       		.uleb128 .LEHB54-.LFB1147
 2721 0166 05       		.uleb128 .LEHE54-.LEHB54
 2722 0167 9F01     		.uleb128 .L136-.LFB1147
 2723 0169 05       		.uleb128 0x5
 2724 016a 69       		.uleb128 .LEHB55-.LFB1147
 2725 016b 05       		.uleb128 .LEHE55-.LEHB55
 2726 016c 8201     		.uleb128 .L137-.LFB1147
 2727 016e 07       		.uleb128 0x7
 2728 016f 78       		.uleb128 .LEHB56-.LFB1147
 2729 0170 05       		.uleb128 .LEHE56-.LEHB56
 2730 0171 9F01     		.uleb128 .L136-.LFB1147
 2731 0173 05       		.uleb128 0x5
 2732 0174 C301     		.uleb128 .LEHB57-.LFB1147
 2733 0176 8901     		.uleb128 .LEHE57-.LEHB57
 2734 0178 9E05     		.uleb128 .L138-.LFB1147
 2735 017a 00       		.uleb128 0
 2736 017b EF02     		.uleb128 .LEHB58-.LFB1147
 2737 017d 05       		.uleb128 .LEHE58-.LEHB58
 2738 017e C505     		.uleb128 .L139-.LFB1147
 2739 0180 00       		.uleb128 0
 2740 0181 8503     		.uleb128 .LEHB59-.LFB1147
 2741 0183 60       		.uleb128 .LEHE59-.LEHB59
 2742 0184 B105     		.uleb128 .L140-.LFB1147
 2743 0186 00       		.uleb128 0
 2744 0187 EF03     		.uleb128 .LEHB60-.LFB1147
 2745 0189 05       		.uleb128 .LEHE60-.LEHB60
 2746 018a C505     		.uleb128 .L139-.LFB1147
 2747 018c 00       		.uleb128 0
 2748 018d 8F04     		.uleb128 .LEHB61-.LFB1147
 2749 018f 8801     		.uleb128 .LEHE61-.LEHB61
 2750 0191 D805     		.uleb128 .L141-.LFB1147
 2751 0193 00       		.uleb128 0
 2752 0194 9705     		.uleb128 .LEHB62-.LFB1147
 2753 0196 1A       		.uleb128 .LEHE62-.LEHB62
 2754 0197 00       		.uleb128 0
 2755 0198 00       		.uleb128 0
 2756 0199 D305     		.uleb128 .LEHB63-.LFB1147
 2757 019b 05       		.uleb128 .LEHE63-.LEHB63
 2758 019c 00       		.uleb128 0
 2759 019d 00       		.uleb128 0
 2760 019e E605     		.uleb128 .LEHB64-.LFB1147
 2761 01a0 05       		.uleb128 .LEHE64-.LEHB64
 2762 01a1 00       		.uleb128 0
 2763 01a2 00       		.uleb128 0
 2764              	.LLSDACSE1147:
 2765 01a3 03       		.byte	0x3
 2766 01a4 00       		.byte	0
 2767 01a5 02       		.byte	0x2
 2768 01a6 7D       		.byte	0x7d
 2769 01a7 01       		.byte	0x1
 2770 01a8 7D       		.byte	0x7d
 2771 01a9 00       		.byte	0
 2772 01aa 7D       		.byte	0x7d
 2773 01ab 00       		.align 4
 2774 01ac 00000000 		.long	0
 2775              	
 2776 01b0 00000000 		.long	DW.ref._ZTISt9exception-.
 2777 01b4 00000000 		.long	DW.ref._ZTIN8UnitTest15AssertExceptionE-.
 2778              	.LLSDATT1147:
 2779              		.text
 2781              		.section	.rodata
 2782 0272 00000000 		.align 8
 2782      0000
 2783              	.LC23:
 2784 0278 7265706F 		.string	"reporter.lastFinishedTestTime >= 0.005f && reporter.lastFinishedTestTime <= 0.050f"
 2784      72746572 
 2784      2E6C6173 
 2784      7446696E 
 2784      69736865 
 2785 02cb 00000000 		.align 8
 2785      00
 2786              	.LC24:
 2787 02d0 556E6861 		.string	"Unhandled exception in CHECK(reporter.lastFinishedTestTime >= 0.005f && reporter.lastFini
 2787      6E646C65 
 2787      64206578 
 2787      63657074 
 2787      696F6E20 
 2788              		.text
 2789 117b 90       		.align 2
 2791              	_ZN12_GLOBAL__N_156TestRunnerFixtureTestFinishIsCalledWithCorrectTimeHelper7RunImplEv:
 2792              	.LFB1151:
  93:TestTestRunner.cpp **** {
 2793              		.loc 6 93 0 is_stmt 1
 2794              		.cfi_startproc
 2795              		.cfi_personality 0x9b,DW.ref.__gxx_personality_v0
 2796              		.cfi_lsda 0x1b,.LLSDA1151
 2797 117c 55       		pushq	%rbp
 2798              		.cfi_def_cfa_offset 16
 2799              		.cfi_offset 6, -16
 2800 117d 4889E5   		movq	%rsp, %rbp
 2801              		.cfi_def_cfa_register 6
 2802 1180 53       		pushq	%rbx
 2803 1181 4883EC78 		subq	$120, %rsp
 2804              		.cfi_offset 3, -24
 2805 1185 48897D88 		movq	%rdi, -120(%rbp)
 2806              		.loc 6 93 0
 2807 1189 64488B04 		movq	%fs:40, %rax
 2807      25280000 
 2807      00
 2808 1192 488945E8 		movq	%rax, -24(%rbp)
 2809 1196 31C0     		xorl	%eax, %eax
  94:TestTestRunner.cpp ****     SlowTest test;
 2810              		.loc 6 94 0
 2811 1198 488D45B0 		leaq	-80(%rbp), %rax
 2812 119c 4889C7   		movq	%rax, %rdi
 2813              	.LEHB65:
 2814 119f E8D6FBFF 		call	_ZN12_GLOBAL__N_18SlowTestC1Ev
 2814      FF
 2815              	.LEHE65:
  95:TestTestRunner.cpp ****     list.Add(&test);
 2816              		.loc 6 95 0
 2817 11a4 488B4588 		movq	-120(%rbp), %rax
 2818 11a8 488D9048 		leaq	2120(%rax), %rdx
 2818      080000
 2819 11af 488D45B0 		leaq	-80(%rbp), %rax
 2820 11b3 4889C6   		movq	%rax, %rsi
 2821 11b6 4889D7   		movq	%rdx, %rdi
 2822              	.LEHB66:
 2823 11b9 E8000000 		call	_ZN8UnitTest8TestList3AddEPNS_4TestE@PLT
 2823      00
  96:TestTestRunner.cpp **** 
  97:TestTestRunner.cpp **** 	RunTestsIf(list, NULL, True(), 0);
 2824              		.loc 6 97 0
 2825 11be 488B4588 		movq	-120(%rbp), %rax
 2826 11c2 488B5588 		movq	-120(%rbp), %rdx
 2827 11c6 488DB248 		leaq	2120(%rdx), %rsi
 2827      080000
 2828 11cd 488D5590 		leaq	-112(%rbp), %rdx
 2829 11d1 41B80000 		movl	$0, %r8d
 2829      0000
 2830 11d7 4889D1   		movq	%rdx, %rcx
 2831 11da BA000000 		movl	$0, %edx
 2831      00
 2832 11df 4889C7   		movq	%rax, %rdi
 2833 11e2 E8E15C00 		call	_ZN12_GLOBAL__N_111FixtureBase10RunTestsIfIN8UnitTest4TrueEEEiRKNS2_8TestListEPKcRKT_i
 2833      00
 2834              	.LEHE66:
  98:TestTestRunner.cpp ****     CHECK(reporter.lastFinishedTestTime >= 0.005f && reporter.lastFinishedTestTime <= 0.050f);
 2835              		.loc 6 98 0 discriminator 2
 2836 11e7 488B4588 		movq	-120(%rbp), %rax
 2837 11eb F30F1080 		movss	2096(%rax), %xmm0
 2837      30080000 
 2838 11f3 0F2E0500 		ucomiss	.LC21(%rip), %xmm0
 2838      000000
 2839 11fa 7220     		jb	.L144
 2840              		.loc 6 98 0 is_stmt 0 discriminator 1
 2841 11fc 488B4588 		movq	-120(%rbp), %rax
 2842 1200 F30F1088 		movss	2096(%rax), %xmm1
 2842      30080000 
 2843 1208 F30F1005 		movss	.LC22(%rip), %xmm0
 2843      00000000 
 2844 1210 0F2EC1   		ucomiss	%xmm1, %xmm0
 2845 1213 7207     		jb	.L144
 2846              		.loc 6 98 0 discriminator 3
 2847 1215 B8010000 		movl	$1, %eax
 2847      00
 2848 121a EB05     		jmp	.L147
 2849              	.L144:
 2850              		.loc 6 98 0 discriminator 4
 2851 121c B8000000 		movl	$0, %eax
 2851      00
 2852              	.L147:
 2853              		.loc 6 98 0 discriminator 6
 2854 1221 0FB6C0   		movzbl	%al, %eax
 2855 1224 89C7     		movl	%eax, %edi
 2856 1226 E8000000 		call	_ZN8UnitTest5CheckIbEEbT_
 2856      00
 2857 122b 83F001   		xorl	$1, %eax
 2858 122e 84C0     		testb	%al, %al
 2859 1230 743A     		je	.L148
 2860              	.LEHB67:
 2861              		.loc 6 98 0 discriminator 7
 2862 1232 E8000000 		call	_ZN8UnitTest11CurrentTest7ResultsEv@PLT
 2862      00
 2863 1237 488B18   		movq	(%rax), %rbx
 2864 123a E8000000 		call	_ZN8UnitTest11CurrentTest7DetailsEv@PLT
 2864      00
 2865              		.loc 6 98 0 discriminator 8
 2866 123f 488B08   		movq	(%rax), %rcx
 2867 1242 488D4590 		leaq	-112(%rbp), %rax
 2868 1246 BA620000 		movl	$98, %edx
 2868      00
 2869 124b 4889CE   		movq	%rcx, %rsi
 2870 124e 4889C7   		movq	%rax, %rdi
 2871 1251 E8000000 		call	_ZN8UnitTest11TestDetailsC1ERKS0_i@PLT
 2871      00
 2872              		.loc 6 98 0 discriminator 10
 2873 1256 488D4590 		leaq	-112(%rbp), %rax
 2874 125a 488D1500 		leaq	.LC23(%rip), %rdx
 2874      000000
 2875 1261 4889C6   		movq	%rax, %rsi
 2876 1264 4889DF   		movq	%rbx, %rdi
 2877 1267 E8000000 		call	_ZN8UnitTest11TestResults13OnTestFailureERKNS_11TestDetailsEPKc@PLT
 2877      00
 2878              	.LEHE67:
 2879              	.L148:
  94:TestTestRunner.cpp ****     list.Add(&test);
 2880              		.loc 6 94 0 is_stmt 1
 2881 126c 488D45B0 		leaq	-80(%rbp), %rax
 2882 1270 4889C7   		movq	%rax, %rdi
 2883              	.LEHB68:
 2884 1273 E8109200 		call	_ZN12_GLOBAL__N_18SlowTestD1Ev
 2884      00
 2885              	.LEHE68:
  99:TestTestRunner.cpp **** }
 2886              		.loc 6 99 0
 2887 1278 90       		nop
 2888 1279 488B45E8 		movq	-24(%rbp), %rax
 2889 127d 64483304 		xorq	%fs:40, %rax
 2889      25280000 
 2889      00
 2890 1286 7474     		je	.L152
 2891 1288 EB6D     		jmp	.L158
 2892              	.L154:
  98:TestTestRunner.cpp ****     CHECK(reporter.lastFinishedTestTime >= 0.005f && reporter.lastFinishedTestTime <= 0.050f);
 2893              		.loc 6 98 0
 2894 128a 4889C7   		movq	%rax, %rdi
 2895 128d E8000000 		call	__cxa_begin_catch@PLT
 2895      00
 2896              	.LEHB69:
 2897 1292 E8000000 		call	_ZN8UnitTest11CurrentTest7ResultsEv@PLT
 2897      00
 2898 1297 488B18   		movq	(%rax), %rbx
 2899 129a E8000000 		call	_ZN8UnitTest11CurrentTest7DetailsEv@PLT
 2899      00
  98:TestTestRunner.cpp ****     CHECK(reporter.lastFinishedTestTime >= 0.005f && reporter.lastFinishedTestTime <= 0.050f);
 2900              		.loc 6 98 0 is_stmt 0 discriminator 14
 2901 129f 488B08   		movq	(%rax), %rcx
 2902 12a2 488D4590 		leaq	-112(%rbp), %rax
 2903 12a6 BA620000 		movl	$98, %edx
 2903      00
 2904 12ab 4889CE   		movq	%rcx, %rsi
 2905 12ae 4889C7   		movq	%rax, %rdi
 2906 12b1 E8000000 		call	_ZN8UnitTest11TestDetailsC1ERKS0_i@PLT
 2906      00
  98:TestTestRunner.cpp ****     CHECK(reporter.lastFinishedTestTime >= 0.005f && reporter.lastFinishedTestTime <= 0.050f);
 2907              		.loc 6 98 0 discriminator 18
 2908 12b6 488D4590 		leaq	-112(%rbp), %rax
 2909 12ba 488D1500 		leaq	.LC24(%rip), %rdx
 2909      000000
 2910 12c1 4889C6   		movq	%rax, %rsi
 2911 12c4 4889DF   		movq	%rbx, %rdi
 2912 12c7 E8000000 		call	_ZN8UnitTest11TestResults13OnTestFailureERKNS_11TestDetailsEPKc@PLT
 2912      00
 2913              	.LEHE69:
 2914              	.LEHB70:
  98:TestTestRunner.cpp ****     CHECK(reporter.lastFinishedTestTime >= 0.005f && reporter.lastFinishedTestTime <= 0.050f);
 2915              		.loc 6 98 0 discriminator 20
 2916 12cc E8000000 		call	__cxa_end_catch@PLT
 2916      00
 2917              	.LEHE70:
  98:TestTestRunner.cpp ****     CHECK(reporter.lastFinishedTestTime >= 0.005f && reporter.lastFinishedTestTime <= 0.050f);
 2918              		.loc 6 98 0
 2919 12d1 EB99     		jmp	.L148
 2920              	.L155:
 2921 12d3 4889C3   		movq	%rax, %rbx
 2922 12d6 E8000000 		call	__cxa_end_catch@PLT
 2922      00
 2923 12db EB03     		jmp	.L151
 2924              	.L153:
 2925 12dd 4889C3   		movq	%rax, %rbx
 2926              	.L151:
  94:TestTestRunner.cpp ****     list.Add(&test);
 2927              		.loc 6 94 0 is_stmt 1
 2928 12e0 488D45B0 		leaq	-80(%rbp), %rax
 2929 12e4 4889C7   		movq	%rax, %rdi
 2930 12e7 E89C9100 		call	_ZN12_GLOBAL__N_18SlowTestD1Ev
 2930      00
 2931 12ec 4889D8   		movq	%rbx, %rax
 2932 12ef 4889C7   		movq	%rax, %rdi
 2933              	.LEHB71:
 2934 12f2 E8000000 		call	_Unwind_Resume@PLT
 2934      00
 2935              	.LEHE71:
 2936              	.L158:
 2937              		.loc 6 99 0
 2938 12f7 E8000000 		call	__stack_chk_fail@PLT
 2938      00
 2939              	.L152:
 2940 12fc 4883C478 		addq	$120, %rsp
 2941 1300 5B       		popq	%rbx
 2942 1301 5D       		popq	%rbp
 2943              		.cfi_def_cfa 7, 8
 2944 1302 C3       		ret
 2945              		.cfi_endproc
 2946              	.LFE1151:
 2947              		.section	.gcc_except_table
 2948              		.align 4
 2949              	.LLSDA1151:
 2950 01b8 FF       		.byte	0xff
 2951 01b9 9B       		.byte	0x9b
 2952 01ba 2D       		.uleb128 .LLSDATT1151-.LLSDATTD1151
 2953              	.LLSDATTD1151:
 2954 01bb 01       		.byte	0x1
 2955 01bc 25       		.uleb128 .LLSDACSE1151-.LLSDACSB1151
 2956              	.LLSDACSB1151:
 2957 01bd 23       		.uleb128 .LEHB65-.LFB1151
 2958 01be 05       		.uleb128 .LEHE65-.LEHB65
 2959 01bf 00       		.uleb128 0
 2960 01c0 00       		.uleb128 0
 2961 01c1 3D       		.uleb128 .LEHB66-.LFB1151
 2962 01c2 2E       		.uleb128 .LEHE66-.LEHB66
 2963 01c3 E102     		.uleb128 .L153-.LFB1151
 2964 01c5 00       		.uleb128 0
 2965 01c6 B601     		.uleb128 .LEHB67-.LFB1151
 2966 01c8 3A       		.uleb128 .LEHE67-.LEHB67
 2967 01c9 8E02     		.uleb128 .L154-.LFB1151
 2968 01cb 01       		.uleb128 0x1
 2969 01cc F701     		.uleb128 .LEHB68-.LFB1151
 2970 01ce 05       		.uleb128 .LEHE68-.LEHB68
 2971 01cf 00       		.uleb128 0
 2972 01d0 00       		.uleb128 0
 2973 01d1 9602     		.uleb128 .LEHB69-.LFB1151
 2974 01d3 3A       		.uleb128 .LEHE69-.LEHB69
 2975 01d4 D702     		.uleb128 .L155-.LFB1151
 2976 01d6 00       		.uleb128 0
 2977 01d7 D002     		.uleb128 .LEHB70-.LFB1151
 2978 01d9 05       		.uleb128 .LEHE70-.LEHB70
 2979 01da E102     		.uleb128 .L153-.LFB1151
 2980 01dc 00       		.uleb128 0
 2981 01dd F602     		.uleb128 .LEHB71-.LFB1151
 2982 01df 05       		.uleb128 .LEHE71-.LEHB71
 2983 01e0 00       		.uleb128 0
 2984 01e1 00       		.uleb128 0
 2985              	.LLSDACSE1151:
 2986 01e2 01       		.byte	0x1
 2987 01e3 00       		.byte	0
 2988              		.align 4
 2989 01e4 00000000 		.long	0
 2990              	
 2991              	.LLSDATT1151:
 2992              		.text
 2994 1303 90       		.align 2
 2996              	_ZN12_GLOBAL__N_158TestRunnerFixtureFailureCountIsZeroWhenNoTestsAreRunHelperC2ERKN8UnitTest11TestD
 2997              	.LFB1153:
 100:TestTestRunner.cpp **** 
 101:TestTestRunner.cpp **** TEST_FIXTURE(TestRunnerFixture, FailureCountIsZeroWhenNoTestsAreRun)
 2998              		.loc 6 101 0
 2999              		.cfi_startproc
 3000 1304 55       		pushq	%rbp
 3001              		.cfi_def_cfa_offset 16
 3002              		.cfi_offset 6, -16
 3003 1305 4889E5   		movq	%rsp, %rbp
 3004              		.cfi_def_cfa_register 6
 3005 1308 4883EC10 		subq	$16, %rsp
 3006 130c 48897DF8 		movq	%rdi, -8(%rbp)
 3007 1310 488975F0 		movq	%rsi, -16(%rbp)
 3008              	.LBB48:
 3009              		.loc 6 101 0
 3010 1314 488B45F8 		movq	-8(%rbp), %rax
 3011 1318 4889C7   		movq	%rax, %rdi
 3012 131b E85CEEFF 		call	_ZN12_GLOBAL__N_117TestRunnerFixtureC2Ev
 3012      FF
 3013 1320 488B45F8 		movq	-8(%rbp), %rax
 3014 1324 488B55F0 		movq	-16(%rbp), %rdx
 3015 1328 48899058 		movq	%rdx, 2136(%rax)
 3015      080000
 3016              	.LBE48:
 3017 132f 90       		nop
 3018 1330 C9       		leave
 3019              		.cfi_def_cfa 7, 8
 3020 1331 C3       		ret
 3021              		.cfi_endproc
 3022              	.LFE1153:
 3024              		.set	_ZN12_GLOBAL__N_158TestRunnerFixtureFailureCountIsZeroWhenNoTestsAreRunHelperC1ERKN8UnitTest1
 3025              		.section	.rodata
 3026 0341 00000000 		.align 8
 3026      000000
 3027              	.LC25:
 3028 0348 4661696C 		.string	"FailureCountIsZeroWhenNoTestsAreRun"
 3028      75726543 
 3028      6F756E74 
 3028      49735A65 
 3028      726F5768 
 3029              		.text
 3030              		.align 2
 3032              	_ZN12_GLOBAL__N_156TestTestRunnerFixtureFailureCountIsZeroWhenNoTestsAreRunC2Ev:
 3033              	.LFB1156:
 3034              		.loc 6 101 0
 3035              		.cfi_startproc
 3036 1332 55       		pushq	%rbp
 3037              		.cfi_def_cfa_offset 16
 3038              		.cfi_offset 6, -16
 3039 1333 4889E5   		movq	%rsp, %rbp
 3040              		.cfi_def_cfa_register 6
 3041 1336 53       		pushq	%rbx
 3042 1337 4883EC18 		subq	$24, %rsp
 3043              		.cfi_offset 3, -24
 3044 133b 48897DE8 		movq	%rdi, -24(%rbp)
 3045              	.LBB49:
 3046              		.loc 6 101 0
 3047 133f 488B5DE8 		movq	-24(%rbp), %rbx
 3048 1343 E8000000 		call	_ZN13UnitTestSuite12GetSuiteNameEv
 3048      00
 3049 1348 41B86500 		movl	$101, %r8d
 3049      0000
 3050 134e 488D0D00 		leaq	.LC6(%rip), %rcx
 3050      000000
 3051 1355 4889C2   		movq	%rax, %rdx
 3052 1358 488D3500 		leaq	.LC25(%rip), %rsi
 3052      000000
 3053 135f 4889DF   		movq	%rbx, %rdi
 3054 1362 E8000000 		call	_ZN8UnitTest4TestC2EPKcS2_S2_i@PLT
 3054      00
 3055 1367 488D1500 		leaq	16+_ZTVN12_GLOBAL__N_156TestTestRunnerFixtureFailureCountIsZeroWhenNoTestsAreRunE(%rip), %rdx
 3055      000000
 3056 136e 488B45E8 		movq	-24(%rbp), %rax
 3057 1372 488910   		movq	%rdx, (%rax)
 3058              	.LBE49:
 3059 1375 90       		nop
 3060 1376 4883C418 		addq	$24, %rsp
 3061 137a 5B       		popq	%rbx
 3062 137b 5D       		popq	%rbp
 3063              		.cfi_def_cfa 7, 8
 3064 137c C3       		ret
 3065              		.cfi_endproc
 3066              	.LFE1156:
 3068              		.set	_ZN12_GLOBAL__N_156TestTestRunnerFixtureFailureCountIsZeroWhenNoTestsAreRunC1Ev,_ZN12_GLOBAL_
 3069              		.local	_ZN12_GLOBAL__N_164testTestRunnerFixtureFailureCountIsZeroWhenNoTestsAreRunInstanceE
 3070              		.comm	_ZN12_GLOBAL__N_164testTestRunnerFixtureFailureCountIsZeroWhenNoTestsAreRunInstanceE,56,32
 3071              		.local	_ZN12_GLOBAL__N_157adderTestRunnerFixtureFailureCountIsZeroWhenNoTestsAreRunE
 3072              		.comm	_ZN12_GLOBAL__N_157adderTestRunnerFixtureFailureCountIsZeroWhenNoTestsAreRunE,1,1
 3073 137d 90       		.align 2
 3075              	_ZN12_GLOBAL__N_158TestRunnerFixtureFailureCountIsZeroWhenNoTestsAreRunHelperD2Ev:
 3076              	.LFB1160:
 3077              		.loc 6 101 0
 3078              		.cfi_startproc
 3079 137e 55       		pushq	%rbp
 3080              		.cfi_def_cfa_offset 16
 3081              		.cfi_offset 6, -16
 3082 137f 4889E5   		movq	%rsp, %rbp
 3083              		.cfi_def_cfa_register 6
 3084 1382 4883EC10 		subq	$16, %rsp
 3085 1386 48897DF8 		movq	%rdi, -8(%rbp)
 3086              	.LBB50:
 3087              		.loc 6 101 0
 3088 138a 488B45F8 		movq	-8(%rbp), %rax
 3089 138e 4889C7   		movq	%rax, %rdi
 3090 1391 E834EEFF 		call	_ZN12_GLOBAL__N_117TestRunnerFixtureD2Ev
 3090      FF
 3091              	.LBE50:
 3092 1396 90       		nop
 3093 1397 C9       		leave
 3094              		.cfi_def_cfa 7, 8
 3095 1398 C3       		ret
 3096              		.cfi_endproc
 3097              	.LFE1160:
 3099              		.set	_ZN12_GLOBAL__N_158TestRunnerFixtureFailureCountIsZeroWhenNoTestsAreRunHelperD1Ev,_ZN12_GLOBA
 3100 1399 90       		.align 2
 3102              	_ZNK12_GLOBAL__N_156TestTestRunnerFixtureFailureCountIsZeroWhenNoTestsAreRun7RunImplEv:
 3103              	.LFB1158:
 3104              		.loc 6 101 0
 3105              		.cfi_startproc
 3106              		.cfi_personality 0x9b,DW.ref.__gxx_personality_v0
 3107              		.cfi_lsda 0x1b,.LLSDA1158
 3108 139a 55       		pushq	%rbp
 3109              		.cfi_def_cfa_offset 16
 3110              		.cfi_offset 6, -16
 3111 139b 4889E5   		movq	%rsp, %rbp
 3112              		.cfi_def_cfa_register 6
 3113 139e 4155     		pushq	%r13
 3114 13a0 4154     		pushq	%r12
 3115 13a2 53       		pushq	%rbx
 3116 13a3 4881ECC8 		subq	$2248, %rsp
 3116      080000
 3117              		.cfi_offset 13, -24
 3118              		.cfi_offset 12, -32
 3119              		.cfi_offset 3, -40
 3120 13aa 4889BD28 		movq	%rdi, -2264(%rbp)
 3120      F7FFFF
 3121              		.loc 6 101 0
 3122 13b1 64488B04 		movq	%fs:40, %rax
 3122      25280000 
 3122      00
 3123 13ba 488945D8 		movq	%rax, -40(%rbp)
 3124 13be 31C0     		xorl	%eax, %eax
 3125 13c0 C6853FF7 		movb	$0, -2241(%rbp)
 3125      FFFF00
 3126              	.LBB51:
 3127 13c7 488B8528 		movq	-2264(%rbp), %rax
 3127      F7FFFF
 3128 13ce 488D5008 		leaq	8(%rax), %rdx
 3129 13d2 488D8570 		leaq	-2192(%rbp), %rax
 3129      F7FFFF
 3130 13d9 4889D6   		movq	%rdx, %rsi
 3131 13dc 4889C7   		movq	%rax, %rdi
 3132              	.LEHB72:
 3133 13df E820FFFF 		call	_ZN12_GLOBAL__N_158TestRunnerFixtureFailureCountIsZeroWhenNoTestsAreRunHelperC1ERKN8UnitTest1
 3133      FF
 3134              	.LEHE72:
 3135              		.loc 6 101 0 is_stmt 0 discriminator 1
 3136 13e4 C6853FF7 		movb	$1, -2241(%rbp)
 3136      FFFF01
 3137 13eb 488B8528 		movq	-2264(%rbp), %rax
 3137      F7FFFF
 3138 13f2 488D5008 		leaq	8(%rax), %rdx
 3139 13f6 488D8570 		leaq	-2192(%rbp), %rax
 3139      F7FFFF
 3140 13fd 4889D6   		movq	%rdx, %rsi
 3141 1400 4889C7   		movq	%rax, %rdi
 3142              	.LEHB73:
 3143 1403 E8CA6000 		call	_ZN8UnitTest11ExecuteTestIN12_GLOBAL__N_158TestRunnerFixtureFailureCountIsZeroWhenNoTestsAreR
 3143      00
 3144              	.LEHE73:
 3145              		.loc 6 101 0 discriminator 3
 3146 1408 488D8570 		leaq	-2192(%rbp), %rax
 3146      F7FFFF
 3147 140f 4889C7   		movq	%rax, %rdi
 3148              	.LEHB74:
 3149 1412 E867FFFF 		call	_ZN12_GLOBAL__N_158TestRunnerFixtureFailureCountIsZeroWhenNoTestsAreRunHelperD1Ev
 3149      FF
 3150              	.LEHE74:
 3151              	.LBE51:
 3152              		.loc 6 101 0
 3153 1417 E9690200 		jmp	.L162
 3153      00
 3154              	.L177:
 3155 141c 4989C4   		movq	%rax, %r12
 3156 141f 4889D3   		movq	%rdx, %rbx
 3157              	.LBB52:
 3158 1422 488D8570 		leaq	-2192(%rbp), %rax
 3158      F7FFFF
 3159 1429 4889C7   		movq	%rax, %rdi
 3160 142c E84DFFFF 		call	_ZN12_GLOBAL__N_158TestRunnerFixtureFailureCountIsZeroWhenNoTestsAreRunHelperD1Ev
 3160      FF
 3161 1431 4C89E0   		movq	%r12, %rax
 3162 1434 4889DA   		movq	%rbx, %rdx
 3163 1437 EB00     		jmp	.L164
 3164              	.L176:
 3165              	.L164:
 3166 1439 4883FA01 		cmpq	$1, %rdx
 3167 143d 740F     		je	.L166
 3168 143f 4883FA02 		cmpq	$2, %rdx
 3169 1443 0F84A700 		je	.L167
 3169      0000
 3170 1449 E94A0100 		jmp	.L182
 3170      00
 3171              	.L166:
 3172              	.LBE52:
 3173              	.LBB53:
 3174 144e 4889C7   		movq	%rax, %rdi
 3175 1451 E8000000 		call	__cxa_begin_catch@PLT
 3175      00
 3176 1456 48898548 		movq	%rax, -2232(%rbp)
 3176      F7FFFF
 3177              	.LEHB75:
 3178 145d E8000000 		call	_ZN8UnitTest11CurrentTest7ResultsEv@PLT
 3178      00
 3179 1462 488B18   		movq	(%rax), %rbx
 3180 1465 488B8548 		movq	-2232(%rbp), %rax
 3180      F7FFFF
 3181 146c 488B00   		movq	(%rax), %rax
 3182 146f 4883C010 		addq	$16, %rax
 3183 1473 488B00   		movq	(%rax), %rax
 3184 1476 488B9548 		movq	-2232(%rbp), %rdx
 3184      F7FFFF
 3185 147d 4889D7   		movq	%rdx, %rdi
 3186 1480 FFD0     		call	*%rax
 3187              	.LVL6:
 3188 1482 4989C4   		movq	%rax, %r12
 3189 1485 488B8548 		movq	-2232(%rbp), %rax
 3189      F7FFFF
 3190 148c 4889C7   		movq	%rax, %rdi
 3191 148f E8000000 		call	_ZNK8UnitTest15AssertException10LineNumberEv@PLT
 3191      00
 3192              		.loc 6 101 0 discriminator 5
 3193 1494 4189C5   		movl	%eax, %r13d
 3194 1497 488B8548 		movq	-2232(%rbp), %rax
 3194      F7FFFF
 3195 149e 4889C7   		movq	%rax, %rdi
 3196 14a1 E8000000 		call	_ZNK8UnitTest15AssertException8FilenameEv@PLT
 3196      00
 3197              		.loc 6 101 0 discriminator 7
 3198 14a6 4889C1   		movq	%rax, %rcx
 3199 14a9 488B8528 		movq	-2264(%rbp), %rax
 3199      F7FFFF
 3200 14b0 488B5008 		movq	8(%rax), %rdx
 3201 14b4 488B8528 		movq	-2264(%rbp), %rax
 3201      F7FFFF
 3202 14bb 488B7010 		movq	16(%rax), %rsi
 3203 14bf 488D8550 		leaq	-2224(%rbp), %rax
 3203      F7FFFF
 3204 14c6 4589E8   		movl	%r13d, %r8d
 3205 14c9 4889C7   		movq	%rax, %rdi
 3206 14cc E8000000 		call	_ZN8UnitTest11TestDetailsC1EPKcS2_S2_i@PLT
 3206      00
 3207              		.loc 6 101 0 discriminator 11
 3208 14d1 488D8550 		leaq	-2224(%rbp), %rax
 3208      F7FFFF
 3209 14d8 4C89E2   		movq	%r12, %rdx
 3210 14db 4889C6   		movq	%rax, %rsi
 3211 14de 4889DF   		movq	%rbx, %rdi
 3212 14e1 E8000000 		call	_ZN8UnitTest11TestResults13OnTestFailureERKNS_11TestDetailsEPKc@PLT
 3212      00
 3213              	.LEHE75:
 3214              		.loc 6 101 0 discriminator 13
 3215 14e6 E8000000 		call	__cxa_end_catch@PLT
 3215      00
 3216              	.LBE53:
 3217 14eb E9950100 		jmp	.L162
 3217      00
 3218              	.L167:
 3219              	.LBB54:
 3220              		.loc 6 101 0
 3221 14f0 4889C7   		movq	%rax, %rdi
 3222 14f3 E8000000 		call	__cxa_begin_catch@PLT
 3222      00
 3223 14f8 48898540 		movq	%rax, -2240(%rbp)
 3223      F7FFFF
 3224              	.LBB55:
 3225 14ff 488D8570 		leaq	-2192(%rbp), %rax
 3225      F7FFFF
 3226 1506 4889C7   		movq	%rax, %rdi
 3227              	.LEHB76:
 3228 1509 E8000000 		call	_ZN8UnitTest15MemoryOutStreamC1Ev
 3228      00
 3229              	.LEHE76:
 3230              		.loc 6 101 0 discriminator 15
 3231 150e 488D8570 		leaq	-2192(%rbp), %rax
 3231      F7FFFF
 3232 1515 488D3500 		leaq	.LC8(%rip), %rsi
 3232      000000
 3233 151c 4889C7   		movq	%rax, %rdi
 3234              	.LEHB77:
 3235 151f E8000000 		call	_ZStlsISt11char_traitsIcEERSt13basic_ostreamIcT_ES5_PKc@PLT
 3235      00
 3236 1524 4889C3   		movq	%rax, %rbx
 3237 1527 488B8540 		movq	-2240(%rbp), %rax
 3237      F7FFFF
 3238 152e 488B00   		movq	(%rax), %rax
 3239 1531 4883C010 		addq	$16, %rax
 3240 1535 488B00   		movq	(%rax), %rax
 3241 1538 488B9540 		movq	-2240(%rbp), %rdx
 3241      F7FFFF
 3242 153f 4889D7   		movq	%rdx, %rdi
 3243 1542 FFD0     		call	*%rax
 3244              	.LVL7:
 3245 1544 4889C6   		movq	%rax, %rsi
 3246 1547 4889DF   		movq	%rbx, %rdi
 3247 154a E8000000 		call	_ZStlsISt11char_traitsIcEERSt13basic_ostreamIcT_ES5_PKc@PLT
 3247      00
 3248              		.loc 6 101 0 discriminator 19
 3249 154f E8000000 		call	_ZN8UnitTest11CurrentTest7ResultsEv@PLT
 3249      00
 3250 1554 488B18   		movq	(%rax), %rbx
 3251 1557 488D8570 		leaq	-2192(%rbp), %rax
 3251      F7FFFF
 3252 155e 4889C7   		movq	%rax, %rdi
 3253 1561 E8000000 		call	_ZNK8UnitTest15MemoryOutStream7GetTextEv@PLT
 3253      00
 3254              		.loc 6 101 0 discriminator 21
 3255 1566 4889C2   		movq	%rax, %rdx
 3256 1569 488B8528 		movq	-2264(%rbp), %rax
 3256      F7FFFF
 3257 1570 4883C008 		addq	$8, %rax
 3258 1574 4889C6   		movq	%rax, %rsi
 3259 1577 4889DF   		movq	%rbx, %rdi
 3260 157a E8000000 		call	_ZN8UnitTest11TestResults13OnTestFailureERKNS_11TestDetailsEPKc@PLT
 3260      00
 3261              	.LEHE77:
 3262              		.loc 6 101 0 discriminator 25
 3263 157f 488D8570 		leaq	-2192(%rbp), %rax
 3263      F7FFFF
 3264 1586 4889C7   		movq	%rax, %rdi
 3265              	.LEHB78:
 3266 1589 E8000000 		call	_ZN8UnitTest15MemoryOutStreamD1Ev
 3266      00
 3267              	.LEHE78:
 3268              	.LBE55:
 3269              		.loc 6 101 0 discriminator 26
 3270 158e E8000000 		call	__cxa_end_catch@PLT
 3270      00
 3271              	.LBE54:
 3272 1593 E9ED0000 		jmp	.L162
 3272      00
 3273              	.L182:
 3274              		.loc 6 101 0
 3275 1598 4889C7   		movq	%rax, %rdi
 3276 159b E8000000 		call	__cxa_begin_catch@PLT
 3276      00
 3277 15a0 80BD3FF7 		cmpb	$0, -2241(%rbp)
 3277      FFFF00
 3278 15a7 7445     		je	.L169
 3279              	.LEHB79:
 3280              		.loc 6 101 0 discriminator 28
 3281 15a9 E8000000 		call	_ZN8UnitTest11CurrentTest7ResultsEv@PLT
 3281      00
 3282 15ae 488B18   		movq	(%rax), %rbx
 3283 15b1 488B8528 		movq	-2264(%rbp), %rax
 3283      F7FFFF
 3284 15b8 488D4808 		leaq	8(%rax), %rcx
 3285 15bc 488D8550 		leaq	-2224(%rbp), %rax
 3285      F7FFFF
 3286 15c3 BA650000 		movl	$101, %edx
 3286      00
 3287 15c8 4889CE   		movq	%rcx, %rsi
 3288 15cb 4889C7   		movq	%rax, %rdi
 3289 15ce E8000000 		call	_ZN8UnitTest11TestDetailsC1ERKS0_i@PLT
 3289      00
 3290              		.loc 6 101 0 discriminator 33
 3291 15d3 488D8550 		leaq	-2224(%rbp), %rax
 3291      F7FFFF
 3292 15da 488D1500 		leaq	.LC9(%rip), %rdx
 3292      000000
 3293 15e1 4889C6   		movq	%rax, %rsi
 3294 15e4 4889DF   		movq	%rbx, %rdi
 3295 15e7 E8000000 		call	_ZN8UnitTest11TestResults13OnTestFailureERKNS_11TestDetailsEPKc@PLT
 3295      00
 3296 15ec EB43     		jmp	.L170
 3297              	.L169:
 3298              		.loc 6 101 0 discriminator 29
 3299 15ee E8000000 		call	_ZN8UnitTest11CurrentTest7ResultsEv@PLT
 3299      00
 3300 15f3 488B18   		movq	(%rax), %rbx
 3301 15f6 488B8528 		movq	-2264(%rbp), %rax
 3301      F7FFFF
 3302 15fd 488D4808 		leaq	8(%rax), %rcx
 3303 1601 488D8550 		leaq	-2224(%rbp), %rax
 3303      F7FFFF
 3304 1608 BA650000 		movl	$101, %edx
 3304      00
 3305 160d 4889CE   		movq	%rcx, %rsi
 3306 1610 4889C7   		movq	%rax, %rdi
 3307 1613 E8000000 		call	_ZN8UnitTest11TestDetailsC1ERKS0_i@PLT
 3307      00
 3308              		.loc 6 101 0 discriminator 40
 3309 1618 488D8550 		leaq	-2224(%rbp), %rax
 3309      F7FFFF
 3310 161f 488D1500 		leaq	.LC10(%rip), %rdx
 3310      000000
 3311 1626 4889C6   		movq	%rax, %rsi
 3312 1629 4889DF   		movq	%rbx, %rdi
 3313 162c E8000000 		call	_ZN8UnitTest11TestResults13OnTestFailureERKNS_11TestDetailsEPKc@PLT
 3313      00
 3314              	.LEHE79:
 3315              	.L170:
 3316              	.LEHB80:
 3317              		.loc 6 101 0 discriminator 43
 3318 1631 E8000000 		call	__cxa_end_catch@PLT
 3318      00
 3319 1636 EB4D     		jmp	.L162
 3320              	.L178:
 3321 1638 4889C3   		movq	%rax, %rbx
 3322              	.LBB57:
 3323              		.loc 6 101 0
 3324 163b E8000000 		call	__cxa_end_catch@PLT
 3324      00
 3325 1640 4889D8   		movq	%rbx, %rax
 3326 1643 4889C7   		movq	%rax, %rdi
 3327 1646 E8000000 		call	_Unwind_Resume@PLT
 3327      00
 3328              	.LEHE80:
 3329              	.L180:
 3330 164b 4889C3   		movq	%rax, %rbx
 3331              	.LBE57:
 3332              	.LBB58:
 3333              	.LBB56:
 3334 164e 488D8570 		leaq	-2192(%rbp), %rax
 3334      F7FFFF
 3335 1655 4889C7   		movq	%rax, %rdi
 3336 1658 E8000000 		call	_ZN8UnitTest15MemoryOutStreamD1Ev
 3336      00
 3337 165d EB03     		jmp	.L173
 3338              	.L179:
 3339 165f 4889C3   		movq	%rax, %rbx
 3340              	.L173:
 3341              	.LBE56:
 3342 1662 E8000000 		call	__cxa_end_catch@PLT
 3342      00
 3343 1667 4889D8   		movq	%rbx, %rax
 3344 166a 4889C7   		movq	%rax, %rdi
 3345              	.LEHB81:
 3346 166d E8000000 		call	_Unwind_Resume@PLT
 3346      00
 3347              	.LEHE81:
 3348              	.L181:
 3349 1672 4889C3   		movq	%rax, %rbx
 3350              	.LBE58:
 3351 1675 E8000000 		call	__cxa_end_catch@PLT
 3351      00
 3352 167a 4889D8   		movq	%rbx, %rax
 3353 167d 4889C7   		movq	%rax, %rdi
 3354              	.LEHB82:
 3355 1680 E8000000 		call	_Unwind_Resume@PLT
 3355      00
 3356              	.LEHE82:
 3357              	.L162:
 3358 1685 488B45D8 		movq	-40(%rbp), %rax
 3359 1689 64483304 		xorq	%fs:40, %rax
 3359      25280000 
 3359      00
 3360 1692 7405     		je	.L175
 3361 1694 E8000000 		call	__stack_chk_fail@PLT
 3361      00
 3362              	.L175:
 3363 1699 4881C4C8 		addq	$2248, %rsp
 3363      080000
 3364 16a0 5B       		popq	%rbx
 3365 16a1 415C     		popq	%r12
 3366 16a3 415D     		popq	%r13
 3367 16a5 5D       		popq	%rbp
 3368              		.cfi_def_cfa 7, 8
 3369 16a6 C3       		ret
 3370              		.cfi_endproc
 3371              	.LFE1158:
 3372              		.section	.gcc_except_table
 3373              		.align 4
 3374              	.LLSDA1158:
 3375 01e8 FF       		.byte	0xff
 3376 01e9 9B       		.byte	0x9b
 3377 01ea 55       		.uleb128 .LLSDATT1158-.LLSDATTD1158
 3378              	.LLSDATTD1158:
 3379 01eb 01       		.byte	0x1
 3380 01ec 3E       		.uleb128 .LLSDACSE1158-.LLSDACSB1158
 3381              	.LLSDACSB1158:
 3382 01ed 45       		.uleb128 .LEHB72-.LFB1158
 3383 01ee 05       		.uleb128 .LEHE72-.LEHB72
 3384 01ef 9F01     		.uleb128 .L176-.LFB1158
 3385 01f1 05       		.uleb128 0x5
 3386 01f2 69       		.uleb128 .LEHB73-.LFB1158
 3387 01f3 05       		.uleb128 .LEHE73-.LEHB73
 3388 01f4 8201     		.uleb128 .L177-.LFB1158
 3389 01f6 07       		.uleb128 0x7
 3390 01f7 78       		.uleb128 .LEHB74-.LFB1158
 3391 01f8 05       		.uleb128 .LEHE74-.LEHB74
 3392 01f9 9F01     		.uleb128 .L176-.LFB1158
 3393 01fb 05       		.uleb128 0x5
 3394 01fc C301     		.uleb128 .LEHB75-.LFB1158
 3395 01fe 8901     		.uleb128 .LEHE75-.LEHB75
 3396 0200 9E05     		.uleb128 .L178-.LFB1158
 3397 0202 00       		.uleb128 0
 3398 0203 EF02     		.uleb128 .LEHB76-.LFB1158
 3399 0205 05       		.uleb128 .LEHE76-.LEHB76
 3400 0206 C505     		.uleb128 .L179-.LFB1158
 3401 0208 00       		.uleb128 0
 3402 0209 8503     		.uleb128 .LEHB77-.LFB1158
 3403 020b 60       		.uleb128 .LEHE77-.LEHB77
 3404 020c B105     		.uleb128 .L180-.LFB1158
 3405 020e 00       		.uleb128 0
 3406 020f EF03     		.uleb128 .LEHB78-.LFB1158
 3407 0211 05       		.uleb128 .LEHE78-.LEHB78
 3408 0212 C505     		.uleb128 .L179-.LFB1158
 3409 0214 00       		.uleb128 0
 3410 0215 8F04     		.uleb128 .LEHB79-.LFB1158
 3411 0217 8801     		.uleb128 .LEHE79-.LEHB79
 3412 0219 D805     		.uleb128 .L181-.LFB1158
 3413 021b 00       		.uleb128 0
 3414 021c 9705     		.uleb128 .LEHB80-.LFB1158
 3415 021e 1A       		.uleb128 .LEHE80-.LEHB80
 3416 021f 00       		.uleb128 0
 3417 0220 00       		.uleb128 0
 3418 0221 D305     		.uleb128 .LEHB81-.LFB1158
 3419 0223 05       		.uleb128 .LEHE81-.LEHB81
 3420 0224 00       		.uleb128 0
 3421 0225 00       		.uleb128 0
 3422 0226 E605     		.uleb128 .LEHB82-.LFB1158
 3423 0228 05       		.uleb128 .LEHE82-.LEHB82
 3424 0229 00       		.uleb128 0
 3425 022a 00       		.uleb128 0
 3426              	.LLSDACSE1158:
 3427 022b 03       		.byte	0x3
 3428 022c 00       		.byte	0
 3429 022d 02       		.byte	0x2
 3430 022e 7D       		.byte	0x7d
 3431 022f 01       		.byte	0x1
 3432 0230 7D       		.byte	0x7d
 3433 0231 00       		.byte	0
 3434 0232 7D       		.byte	0x7d
 3435 0233 00       		.align 4
 3436 0234 00000000 		.long	0
 3437              	
 3438 0238 00000000 		.long	DW.ref._ZTISt9exception-.
 3439 023c 00000000 		.long	DW.ref._ZTIN8UnitTest15AssertExceptionE-.
 3440              	.LLSDATT1158:
 3441              		.text
 3443              		.section	.rodata
 3444 036c 00000000 		.align 8
 3445              	.LC26:
 3446 0370 556E6861 		.string	"Unhandled exception in CHECK_EQUAL(0, RunTestsIf(list, NULL, True(), 0))"
 3446      6E646C65 
 3446      64206578 
 3446      63657074 
 3446      696F6E20 
 3447 03b9 00000000 		.align 8
 3447      000000
 3448              	.LC27:
 3449 03c0 556E6861 		.string	"Unhandled exception in CHECK_EQUAL(0, reporter.testRunCount)"
 3449      6E646C65 
 3449      64206578 
 3449      63657074 
 3449      696F6E20 
 3450 03fd 000000   		.align 8
 3451              	.LC28:
 3452 0400 556E6861 		.string	"Unhandled exception in CHECK_EQUAL(0, reporter.testFailedCount)"
 3452      6E646C65 
 3452      64206578 
 3452      63657074 
 3452      696F6E20 
 3453              		.text
 3454 16a7 90       		.align 2
 3456              	_ZN12_GLOBAL__N_158TestRunnerFixtureFailureCountIsZeroWhenNoTestsAreRunHelper7RunImplEv:
 3457              	.LFB1162:
 102:TestTestRunner.cpp **** {
 3458              		.loc 6 102 0 is_stmt 1
 3459              		.cfi_startproc
 3460              		.cfi_personality 0x9b,DW.ref.__gxx_personality_v0
 3461              		.cfi_lsda 0x1b,.LLSDA1162
 3462 16a8 55       		pushq	%rbp
 3463              		.cfi_def_cfa_offset 16
 3464              		.cfi_offset 6, -16
 3465 16a9 4889E5   		movq	%rsp, %rbp
 3466              		.cfi_def_cfa_register 6
 3467 16ac 53       		pushq	%rbx
 3468 16ad 4883EC58 		subq	$88, %rsp
 3469              		.cfi_offset 3, -24
 3470 16b1 48897DA8 		movq	%rdi, -88(%rbp)
 3471              		.loc 6 102 0
 3472 16b5 64488B04 		movq	%fs:40, %rax
 3472      25280000 
 3472      00
 3473 16be 488945E8 		movq	%rax, -24(%rbp)
 3474 16c2 31C0     		xorl	%eax, %eax
 3475              	.LEHB83:
 103:TestTestRunner.cpp **** 	CHECK_EQUAL(0, RunTestsIf(list, NULL, True(), 0));
 3476              		.loc 6 103 0
 3477 16c4 E8000000 		call	_ZN8UnitTest11CurrentTest7DetailsEv@PLT
 3477      00
 3478 16c9 488B08   		movq	(%rax), %rcx
 3479 16cc 488D45C0 		leaq	-64(%rbp), %rax
 3480 16d0 BA670000 		movl	$103, %edx
 3480      00
 3481 16d5 4889CE   		movq	%rcx, %rsi
 3482 16d8 4889C7   		movq	%rax, %rdi
 3483 16db E8000000 		call	_ZN8UnitTest11TestDetailsC1ERKS0_i@PLT
 3483      00
 3484              	.LEHE83:
 3485              		.loc 6 103 0 is_stmt 0 discriminator 2
 3486 16e0 488B45A8 		movq	-88(%rbp), %rax
 3487 16e4 488B55A8 		movq	-88(%rbp), %rdx
 3488 16e8 488DB248 		leaq	2120(%rdx), %rsi
 3488      080000
 3489 16ef 488D55B7 		leaq	-73(%rbp), %rdx
 3490 16f3 41B80000 		movl	$0, %r8d
 3490      0000
 3491 16f9 4889D1   		movq	%rdx, %rcx
 3492 16fc BA000000 		movl	$0, %edx
 3492      00
 3493 1701 4889C7   		movq	%rax, %rdi
 3494              	.LEHB84:
 3495 1704 E8BF5700 		call	_ZN12_GLOBAL__N_111FixtureBase10RunTestsIfIN8UnitTest4TrueEEEiRKNS2_8TestListEPKcRKT_i
 3495      00
 3496              	.LEHE84:
 3497 1709 8945BC   		movl	%eax, -68(%rbp)
 3498 170c C745B800 		movl	$0, -72(%rbp)
 3498      000000
 3499              	.LEHB85:
 3500 1713 E8000000 		call	_ZN8UnitTest11CurrentTest7ResultsEv@PLT
 3500      00
 3501              		.loc 6 103 0 discriminator 4
 3502 1718 488B00   		movq	(%rax), %rax
 3503 171b 488D4DC0 		leaq	-64(%rbp), %rcx
 3504 171f 488D55BC 		leaq	-68(%rbp), %rdx
 3505 1723 488D75B8 		leaq	-72(%rbp), %rsi
 3506 1727 4889C7   		movq	%rax, %rdi
 3507 172a E8000000 		call	_ZN8UnitTest10CheckEqualIiiEEvRNS_11TestResultsERKT_RKT0_RKNS_11TestDetailsE
 3507      00
 3508              	.LEHE85:
 3509              	.L187:
 3510              	.LEHB86:
 104:TestTestRunner.cpp ****     CHECK_EQUAL(0, reporter.testRunCount);
 3511              		.loc 6 104 0 is_stmt 1
 3512 172f E8000000 		call	_ZN8UnitTest11CurrentTest7DetailsEv@PLT
 3512      00
 3513 1734 488B08   		movq	(%rax), %rcx
 3514 1737 488D45C0 		leaq	-64(%rbp), %rax
 3515 173b BA680000 		movl	$104, %edx
 3515      00
 3516 1740 4889CE   		movq	%rcx, %rsi
 3517 1743 4889C7   		movq	%rax, %rdi
 3518 1746 E8000000 		call	_ZN8UnitTest11TestDetailsC1ERKS0_i@PLT
 3518      00
 3519              	.LEHE86:
 3520              		.loc 6 104 0 is_stmt 0 discriminator 2
 3521 174b 488B45A8 		movq	-88(%rbp), %rax
 3522 174f 488D5820 		leaq	32(%rax), %rbx
 3523 1753 C745BC00 		movl	$0, -68(%rbp)
 3523      000000
 3524              	.LEHB87:
 3525 175a E8000000 		call	_ZN8UnitTest11CurrentTest7ResultsEv@PLT
 3525      00
 3526 175f 488B00   		movq	(%rax), %rax
 3527 1762 488D55C0 		leaq	-64(%rbp), %rdx
 3528 1766 488D75BC 		leaq	-68(%rbp), %rsi
 3529 176a 4889D1   		movq	%rdx, %rcx
 3530 176d 4889DA   		movq	%rbx, %rdx
 3531 1770 4889C7   		movq	%rax, %rdi
 3532 1773 E8000000 		call	_ZN8UnitTest10CheckEqualIiiEEvRNS_11TestResultsERKT_RKT0_RKNS_11TestDetailsE
 3532      00
 3533              	.LEHE87:
 3534              	.L191:
 3535              	.LEHB88:
 105:TestTestRunner.cpp ****     CHECK_EQUAL(0, reporter.testFailedCount);
 3536              		.loc 6 105 0 is_stmt 1
 3537 1778 E8000000 		call	_ZN8UnitTest11CurrentTest7DetailsEv@PLT
 3537      00
 3538 177d 488B08   		movq	(%rax), %rcx
 3539 1780 488D45C0 		leaq	-64(%rbp), %rax
 3540 1784 BA690000 		movl	$105, %edx
 3540      00
 3541 1789 4889CE   		movq	%rcx, %rsi
 3542 178c 4889C7   		movq	%rax, %rdi
 3543 178f E8000000 		call	_ZN8UnitTest11TestDetailsC1ERKS0_i@PLT
 3543      00
 3544              	.LEHE88:
 3545              		.loc 6 105 0 is_stmt 0 discriminator 2
 3546 1794 488B45A8 		movq	-88(%rbp), %rax
 3547 1798 488D9824 		leaq	548(%rax), %rbx
 3547      020000
 3548 179f C745BC00 		movl	$0, -68(%rbp)
 3548      000000
 3549              	.LEHB89:
 3550 17a6 E8000000 		call	_ZN8UnitTest11CurrentTest7ResultsEv@PLT
 3550      00
 3551 17ab 488B00   		movq	(%rax), %rax
 3552 17ae 488D55C0 		leaq	-64(%rbp), %rdx
 3553 17b2 488D75BC 		leaq	-68(%rbp), %rsi
 3554 17b6 4889D1   		movq	%rdx, %rcx
 3555 17b9 4889DA   		movq	%rbx, %rdx
 3556 17bc 4889C7   		movq	%rax, %rdi
 3557 17bf E8000000 		call	_ZN8UnitTest10CheckEqualIiiEEvRNS_11TestResultsERKT_RKT0_RKNS_11TestDetailsE
 3557      00
 3558              	.LEHE89:
 106:TestTestRunner.cpp **** }
 3559              		.loc 6 106 0 is_stmt 1
 3560 17c4 E9220100 		jmp	.L183
 3560      00
 3561              	.L200:
 3562 17c9 EB02     		jmp	.L186
 3563              	.L199:
 3564 17cb EB00     		jmp	.L186
 3565              	.L198:
 3566              	.L186:
 103:TestTestRunner.cpp ****     CHECK_EQUAL(0, reporter.testRunCount);
 3567              		.loc 6 103 0
 3568 17cd 4889C7   		movq	%rax, %rdi
 3569 17d0 E8000000 		call	__cxa_begin_catch@PLT
 3569      00
 3570              	.LEHB90:
 3571 17d5 E8000000 		call	_ZN8UnitTest11CurrentTest7ResultsEv@PLT
 3571      00
 3572 17da 488B18   		movq	(%rax), %rbx
 3573 17dd E8000000 		call	_ZN8UnitTest11CurrentTest7DetailsEv@PLT
 3573      00
 103:TestTestRunner.cpp ****     CHECK_EQUAL(0, reporter.testRunCount);
 3574              		.loc 6 103 0 is_stmt 0 discriminator 10
 3575 17e2 488B08   		movq	(%rax), %rcx
 3576 17e5 488D45C0 		leaq	-64(%rbp), %rax
 3577 17e9 BA670000 		movl	$103, %edx
 3577      00
 3578 17ee 4889CE   		movq	%rcx, %rsi
 3579 17f1 4889C7   		movq	%rax, %rdi
 3580 17f4 E8000000 		call	_ZN8UnitTest11TestDetailsC1ERKS0_i@PLT
 3580      00
 103:TestTestRunner.cpp ****     CHECK_EQUAL(0, reporter.testRunCount);
 3581              		.loc 6 103 0 discriminator 14
 3582 17f9 488D45C0 		leaq	-64(%rbp), %rax
 3583 17fd 488D1500 		leaq	.LC26(%rip), %rdx
 3583      000000
 3584 1804 4889C6   		movq	%rax, %rsi
 3585 1807 4889DF   		movq	%rbx, %rdi
 3586 180a E8000000 		call	_ZN8UnitTest11TestResults13OnTestFailureERKNS_11TestDetailsEPKc@PLT
 3586      00
 3587              	.LEHE90:
 3588              	.LEHB91:
 103:TestTestRunner.cpp ****     CHECK_EQUAL(0, reporter.testRunCount);
 3589              		.loc 6 103 0 discriminator 16
 3590 180f E8000000 		call	__cxa_end_catch@PLT
 3590      00
 3591              	.LEHE91:
 3592 1814 E916FFFF 		jmp	.L187
 3592      FF
 3593              	.L201:
 3594 1819 4889C3   		movq	%rax, %rbx
 103:TestTestRunner.cpp ****     CHECK_EQUAL(0, reporter.testRunCount);
 3595              		.loc 6 103 0
 3596 181c E8000000 		call	__cxa_end_catch@PLT
 3596      00
 3597 1821 4889D8   		movq	%rbx, %rax
 3598 1824 4889C7   		movq	%rax, %rdi
 3599              	.LEHB92:
 3600 1827 E8000000 		call	_Unwind_Resume@PLT
 3600      00
 3601              	.LEHE92:
 3602              	.L203:
 3603 182c EB00     		jmp	.L190
 3604              	.L202:
 3605              	.L190:
 104:TestTestRunner.cpp ****     CHECK_EQUAL(0, reporter.testFailedCount);
 3606              		.loc 6 104 0 is_stmt 1
 3607 182e 4889C7   		movq	%rax, %rdi
 3608 1831 E8000000 		call	__cxa_begin_catch@PLT
 3608      00
 3609              	.LEHB93:
 3610 1836 E8000000 		call	_ZN8UnitTest11CurrentTest7ResultsEv@PLT
 3610      00
 3611 183b 488B18   		movq	(%rax), %rbx
 3612 183e E8000000 		call	_ZN8UnitTest11CurrentTest7DetailsEv@PLT
 3612      00
 104:TestTestRunner.cpp ****     CHECK_EQUAL(0, reporter.testFailedCount);
 3613              		.loc 6 104 0 is_stmt 0 discriminator 8
 3614 1843 488B08   		movq	(%rax), %rcx
 3615 1846 488D45C0 		leaq	-64(%rbp), %rax
 3616 184a BA680000 		movl	$104, %edx
 3616      00
 3617 184f 4889CE   		movq	%rcx, %rsi
 3618 1852 4889C7   		movq	%rax, %rdi
 3619 1855 E8000000 		call	_ZN8UnitTest11TestDetailsC1ERKS0_i@PLT
 3619      00
 104:TestTestRunner.cpp ****     CHECK_EQUAL(0, reporter.testFailedCount);
 3620              		.loc 6 104 0 discriminator 12
 3621 185a 488D45C0 		leaq	-64(%rbp), %rax
 3622 185e 488D1500 		leaq	.LC27(%rip), %rdx
 3622      000000
 3623 1865 4889C6   		movq	%rax, %rsi
 3624 1868 4889DF   		movq	%rbx, %rdi
 3625 186b E8000000 		call	_ZN8UnitTest11TestResults13OnTestFailureERKNS_11TestDetailsEPKc@PLT
 3625      00
 3626              	.LEHE93:
 3627              	.LEHB94:
 104:TestTestRunner.cpp ****     CHECK_EQUAL(0, reporter.testFailedCount);
 3628              		.loc 6 104 0 discriminator 14
 3629 1870 E8000000 		call	__cxa_end_catch@PLT
 3629      00
 3630              	.LEHE94:
 3631 1875 E9FEFEFF 		jmp	.L191
 3631      FF
 3632              	.L204:
 3633 187a 4889C3   		movq	%rax, %rbx
 104:TestTestRunner.cpp ****     CHECK_EQUAL(0, reporter.testFailedCount);
 3634              		.loc 6 104 0
 3635 187d E8000000 		call	__cxa_end_catch@PLT
 3635      00
 3636 1882 4889D8   		movq	%rbx, %rax
 3637 1885 4889C7   		movq	%rax, %rdi
 3638              	.LEHB95:
 3639 1888 E8000000 		call	_Unwind_Resume@PLT
 3639      00
 3640              	.LEHE95:
 3641              	.L206:
 3642 188d EB00     		jmp	.L194
 3643              	.L205:
 3644              	.L194:
 105:TestTestRunner.cpp **** }
 3645              		.loc 6 105 0 is_stmt 1
 3646 188f 4889C7   		movq	%rax, %rdi
 3647 1892 E8000000 		call	__cxa_begin_catch@PLT
 3647      00
 3648              	.LEHB96:
 3649 1897 E8000000 		call	_ZN8UnitTest11CurrentTest7ResultsEv@PLT
 3649      00
 3650 189c 488B18   		movq	(%rax), %rbx
 3651 189f E8000000 		call	_ZN8UnitTest11CurrentTest7DetailsEv@PLT
 3651      00
 105:TestTestRunner.cpp **** }
 3652              		.loc 6 105 0 is_stmt 0 discriminator 8
 3653 18a4 488B08   		movq	(%rax), %rcx
 3654 18a7 488D45C0 		leaq	-64(%rbp), %rax
 3655 18ab BA690000 		movl	$105, %edx
 3655      00
 3656 18b0 4889CE   		movq	%rcx, %rsi
 3657 18b3 4889C7   		movq	%rax, %rdi
 3658 18b6 E8000000 		call	_ZN8UnitTest11TestDetailsC1ERKS0_i@PLT
 3658      00
 105:TestTestRunner.cpp **** }
 3659              		.loc 6 105 0 discriminator 12
 3660 18bb 488D45C0 		leaq	-64(%rbp), %rax
 3661 18bf 488D1500 		leaq	.LC28(%rip), %rdx
 3661      000000
 3662 18c6 4889C6   		movq	%rax, %rsi
 3663 18c9 4889DF   		movq	%rbx, %rdi
 3664 18cc E8000000 		call	_ZN8UnitTest11TestResults13OnTestFailureERKNS_11TestDetailsEPKc@PLT
 3664      00
 3665              	.LEHE96:
 3666              	.LEHB97:
 105:TestTestRunner.cpp **** }
 3667              		.loc 6 105 0 discriminator 14
 3668 18d1 E8000000 		call	__cxa_end_catch@PLT
 3668      00
 3669              	.LEHE97:
 3670              		.loc 6 106 0 is_stmt 1 discriminator 14
 3671 18d6 EB13     		jmp	.L183
 3672              	.L207:
 3673 18d8 4889C3   		movq	%rax, %rbx
 105:TestTestRunner.cpp **** }
 3674              		.loc 6 105 0
 3675 18db E8000000 		call	__cxa_end_catch@PLT
 3675      00
 3676 18e0 4889D8   		movq	%rbx, %rax
 3677 18e3 4889C7   		movq	%rax, %rdi
 3678              	.LEHB98:
 3679 18e6 E8000000 		call	_Unwind_Resume@PLT
 3679      00
 3680              	.LEHE98:
 3681              	.L183:
 3682              		.loc 6 106 0
 3683 18eb 488B45E8 		movq	-24(%rbp), %rax
 3684 18ef 64483304 		xorq	%fs:40, %rax
 3684      25280000 
 3684      00
 3685 18f8 7405     		je	.L197
 3686 18fa E8000000 		call	__stack_chk_fail@PLT
 3686      00
 3687              	.L197:
 3688 18ff 4883C458 		addq	$88, %rsp
 3689 1903 5B       		popq	%rbx
 3690 1904 5D       		popq	%rbp
 3691              		.cfi_def_cfa 7, 8
 3692 1905 C3       		ret
 3693              		.cfi_endproc
 3694              	.LFE1162:
 3695              		.section	.gcc_except_table
 3696              		.align 4
 3697              	.LLSDA1162:
 3698 0240 FF       		.byte	0xff
 3699 0241 9B       		.byte	0x9b
 3700 0242 61       		.uleb128 .LLSDATT1162-.LLSDATTD1162
 3701              	.LLSDATTD1162:
 3702 0243 01       		.byte	0x1
 3703 0244 57       		.uleb128 .LLSDACSE1162-.LLSDACSB1162
 3704              	.LLSDACSB1162:
 3705 0245 1C       		.uleb128 .LEHB83-.LFB1162
 3706 0246 1C       		.uleb128 .LEHE83-.LEHB83
 3707 0247 A502     		.uleb128 .L198-.LFB1162
 3708 0249 01       		.uleb128 0x1
 3709 024a 5C       		.uleb128 .LEHB84-.LFB1162
 3710 024b 05       		.uleb128 .LEHE84-.LEHB84
 3711 024c A302     		.uleb128 .L199-.LFB1162
 3712 024e 03       		.uleb128 0x3
 3713 024f 6B       		.uleb128 .LEHB85-.LFB1162
 3714 0250 1C       		.uleb128 .LEHE85-.LEHB85
 3715 0251 A102     		.uleb128 .L200-.LFB1162
 3716 0253 03       		.uleb128 0x3
 3717 0254 8701     		.uleb128 .LEHB86-.LFB1162
 3718 0256 1C       		.uleb128 .LEHE86-.LEHB86
 3719 0257 8603     		.uleb128 .L202-.LFB1162
 3720 0259 01       		.uleb128 0x1
 3721 025a B201     		.uleb128 .LEHB87-.LFB1162
 3722 025c 1E       		.uleb128 .LEHE87-.LEHB87
 3723 025d 8403     		.uleb128 .L203-.LFB1162
 3724 025f 03       		.uleb128 0x3
 3725 0260 D001     		.uleb128 .LEHB88-.LFB1162
 3726 0262 1C       		.uleb128 .LEHE88-.LEHB88
 3727 0263 E703     		.uleb128 .L205-.LFB1162
 3728 0265 01       		.uleb128 0x1
 3729 0266 FE01     		.uleb128 .LEHB89-.LFB1162
 3730 0268 1E       		.uleb128 .LEHE89-.LEHB89
 3731 0269 E503     		.uleb128 .L206-.LFB1162
 3732 026b 03       		.uleb128 0x3
 3733 026c AD02     		.uleb128 .LEHB90-.LFB1162
 3734 026e 3A       		.uleb128 .LEHE90-.LEHB90
 3735 026f F102     		.uleb128 .L201-.LFB1162
 3736 0271 00       		.uleb128 0
 3737 0272 E702     		.uleb128 .LEHB91-.LFB1162
 3738 0274 05       		.uleb128 .LEHE91-.LEHB91
 3739 0275 00       		.uleb128 0
 3740 0276 00       		.uleb128 0
 3741 0277 FF02     		.uleb128 .LEHB92-.LFB1162
 3742 0279 05       		.uleb128 .LEHE92-.LEHB92
 3743 027a 00       		.uleb128 0
 3744 027b 00       		.uleb128 0
 3745 027c 8E03     		.uleb128 .LEHB93-.LFB1162
 3746 027e 3A       		.uleb128 .LEHE93-.LEHB93
 3747 027f D203     		.uleb128 .L204-.LFB1162
 3748 0281 00       		.uleb128 0
 3749 0282 C803     		.uleb128 .LEHB94-.LFB1162
 3750 0284 05       		.uleb128 .LEHE94-.LEHB94
 3751 0285 00       		.uleb128 0
 3752 0286 00       		.uleb128 0
 3753 0287 E003     		.uleb128 .LEHB95-.LFB1162
 3754 0289 05       		.uleb128 .LEHE95-.LEHB95
 3755 028a 00       		.uleb128 0
 3756 028b 00       		.uleb128 0
 3757 028c EF03     		.uleb128 .LEHB96-.LFB1162
 3758 028e 3A       		.uleb128 .LEHE96-.LEHB96
 3759 028f B004     		.uleb128 .L207-.LFB1162
 3760 0291 00       		.uleb128 0
 3761 0292 A904     		.uleb128 .LEHB97-.LFB1162
 3762 0294 05       		.uleb128 .LEHE97-.LEHB97
 3763 0295 00       		.uleb128 0
 3764 0296 00       		.uleb128 0
 3765 0297 BE04     		.uleb128 .LEHB98-.LFB1162
 3766 0299 05       		.uleb128 .LEHE98-.LEHB98
 3767 029a 00       		.uleb128 0
 3768 029b 00       		.uleb128 0
 3769              	.LLSDACSE1162:
 3770 029c 01       		.byte	0x1
 3771 029d 00       		.byte	0
 3772 029e 00       		.byte	0
 3773 029f 7D       		.byte	0x7d
 3774              		.align 4
 3775 02a0 00000000 		.long	0
 3776              	
 3777              	.LLSDATT1162:
 3778              		.text
 3780              		.align 2
 3782              	_ZN12_GLOBAL__N_159TestRunnerFixtureCallsReportFailureOncePerFailingTestHelperC2ERKN8UnitTest11Test
 3783              	.LFB1164:
 107:TestTestRunner.cpp **** 
 108:TestTestRunner.cpp **** TEST_FIXTURE(TestRunnerFixture, CallsReportFailureOncePerFailingTest)
 3784              		.loc 6 108 0
 3785              		.cfi_startproc
 3786 1906 55       		pushq	%rbp
 3787              		.cfi_def_cfa_offset 16
 3788              		.cfi_offset 6, -16
 3789 1907 4889E5   		movq	%rsp, %rbp
 3790              		.cfi_def_cfa_register 6
 3791 190a 4883EC10 		subq	$16, %rsp
 3792 190e 48897DF8 		movq	%rdi, -8(%rbp)
 3793 1912 488975F0 		movq	%rsi, -16(%rbp)
 3794              	.LBB59:
 3795              		.loc 6 108 0
 3796 1916 488B45F8 		movq	-8(%rbp), %rax
 3797 191a 4889C7   		movq	%rax, %rdi
 3798 191d E85AE8FF 		call	_ZN12_GLOBAL__N_117TestRunnerFixtureC2Ev
 3798      FF
 3799 1922 488B45F8 		movq	-8(%rbp), %rax
 3800 1926 488B55F0 		movq	-16(%rbp), %rdx
 3801 192a 48899058 		movq	%rdx, 2136(%rax)
 3801      080000
 3802              	.LBE59:
 3803 1931 90       		nop
 3804 1932 C9       		leave
 3805              		.cfi_def_cfa 7, 8
 3806 1933 C3       		ret
 3807              		.cfi_endproc
 3808              	.LFE1164:
 3810              		.set	_ZN12_GLOBAL__N_159TestRunnerFixtureCallsReportFailureOncePerFailingTestHelperC1ERKN8UnitTest
 3811              		.section	.rodata
 3812              		.align 8
 3813              	.LC29:
 3814 0440 43616C6C 		.string	"CallsReportFailureOncePerFailingTest"
 3814      73526570 
 3814      6F727446 
 3814      61696C75 
 3814      72654F6E 
 3815              		.text
 3816              		.align 2
 3818              	_ZN12_GLOBAL__N_157TestTestRunnerFixtureCallsReportFailureOncePerFailingTestC2Ev:
 3819              	.LFB1167:
 3820              		.loc 6 108 0
 3821              		.cfi_startproc
 3822 1934 55       		pushq	%rbp
 3823              		.cfi_def_cfa_offset 16
 3824              		.cfi_offset 6, -16
 3825 1935 4889E5   		movq	%rsp, %rbp
 3826              		.cfi_def_cfa_register 6
 3827 1938 53       		pushq	%rbx
 3828 1939 4883EC18 		subq	$24, %rsp
 3829              		.cfi_offset 3, -24
 3830 193d 48897DE8 		movq	%rdi, -24(%rbp)
 3831              	.LBB60:
 3832              		.loc 6 108 0
 3833 1941 488B5DE8 		movq	-24(%rbp), %rbx
 3834 1945 E8000000 		call	_ZN13UnitTestSuite12GetSuiteNameEv
 3834      00
 3835 194a 41B86C00 		movl	$108, %r8d
 3835      0000
 3836 1950 488D0D00 		leaq	.LC6(%rip), %rcx
 3836      000000
 3837 1957 4889C2   		movq	%rax, %rdx
 3838 195a 488D3500 		leaq	.LC29(%rip), %rsi
 3838      000000
 3839 1961 4889DF   		movq	%rbx, %rdi
 3840 1964 E8000000 		call	_ZN8UnitTest4TestC2EPKcS2_S2_i@PLT
 3840      00
 3841 1969 488D1500 		leaq	16+_ZTVN12_GLOBAL__N_157TestTestRunnerFixtureCallsReportFailureOncePerFailingTestE(%rip), %rd
 3841      000000
 3842 1970 488B45E8 		movq	-24(%rbp), %rax
 3843 1974 488910   		movq	%rdx, (%rax)
 3844              	.LBE60:
 3845 1977 90       		nop
 3846 1978 4883C418 		addq	$24, %rsp
 3847 197c 5B       		popq	%rbx
 3848 197d 5D       		popq	%rbp
 3849              		.cfi_def_cfa 7, 8
 3850 197e C3       		ret
 3851              		.cfi_endproc
 3852              	.LFE1167:
 3854              		.set	_ZN12_GLOBAL__N_157TestTestRunnerFixtureCallsReportFailureOncePerFailingTestC1Ev,_ZN12_GLOBAL
 3855              		.local	_ZN12_GLOBAL__N_165testTestRunnerFixtureCallsReportFailureOncePerFailingTestInstanceE
 3856              		.comm	_ZN12_GLOBAL__N_165testTestRunnerFixtureCallsReportFailureOncePerFailingTestInstanceE,56,32
 3857              		.local	_ZN12_GLOBAL__N_158adderTestRunnerFixtureCallsReportFailureOncePerFailingTestE
 3858              		.comm	_ZN12_GLOBAL__N_158adderTestRunnerFixtureCallsReportFailureOncePerFailingTestE,1,1
 3859 197f 90       		.align 2
 3861              	_ZN12_GLOBAL__N_159TestRunnerFixtureCallsReportFailureOncePerFailingTestHelperD2Ev:
 3862              	.LFB1171:
 3863              		.loc 6 108 0
 3864              		.cfi_startproc
 3865 1980 55       		pushq	%rbp
 3866              		.cfi_def_cfa_offset 16
 3867              		.cfi_offset 6, -16
 3868 1981 4889E5   		movq	%rsp, %rbp
 3869              		.cfi_def_cfa_register 6
 3870 1984 4883EC10 		subq	$16, %rsp
 3871 1988 48897DF8 		movq	%rdi, -8(%rbp)
 3872              	.LBB61:
 3873              		.loc 6 108 0
 3874 198c 488B45F8 		movq	-8(%rbp), %rax
 3875 1990 4889C7   		movq	%rax, %rdi
 3876 1993 E832E8FF 		call	_ZN12_GLOBAL__N_117TestRunnerFixtureD2Ev
 3876      FF
 3877              	.LBE61:
 3878 1998 90       		nop
 3879 1999 C9       		leave
 3880              		.cfi_def_cfa 7, 8
 3881 199a C3       		ret
 3882              		.cfi_endproc
 3883              	.LFE1171:
 3885              		.set	_ZN12_GLOBAL__N_159TestRunnerFixtureCallsReportFailureOncePerFailingTestHelperD1Ev,_ZN12_GLOB
 3886 199b 90       		.align 2
 3888              	_ZNK12_GLOBAL__N_157TestTestRunnerFixtureCallsReportFailureOncePerFailingTest7RunImplEv:
 3889              	.LFB1169:
 3890              		.loc 6 108 0
 3891              		.cfi_startproc
 3892              		.cfi_personality 0x9b,DW.ref.__gxx_personality_v0
 3893              		.cfi_lsda 0x1b,.LLSDA1169
 3894 199c 55       		pushq	%rbp
 3895              		.cfi_def_cfa_offset 16
 3896              		.cfi_offset 6, -16
 3897 199d 4889E5   		movq	%rsp, %rbp
 3898              		.cfi_def_cfa_register 6
 3899 19a0 4155     		pushq	%r13
 3900 19a2 4154     		pushq	%r12
 3901 19a4 53       		pushq	%rbx
 3902 19a5 4881ECC8 		subq	$2248, %rsp
 3902      080000
 3903              		.cfi_offset 13, -24
 3904              		.cfi_offset 12, -32
 3905              		.cfi_offset 3, -40
 3906 19ac 4889BD28 		movq	%rdi, -2264(%rbp)
 3906      F7FFFF
 3907              		.loc 6 108 0
 3908 19b3 64488B04 		movq	%fs:40, %rax
 3908      25280000 
 3908      00
 3909 19bc 488945D8 		movq	%rax, -40(%rbp)
 3910 19c0 31C0     		xorl	%eax, %eax
 3911 19c2 C6853FF7 		movb	$0, -2241(%rbp)
 3911      FFFF00
 3912              	.LBB62:
 3913 19c9 488B8528 		movq	-2264(%rbp), %rax
 3913      F7FFFF
 3914 19d0 488D5008 		leaq	8(%rax), %rdx
 3915 19d4 488D8570 		leaq	-2192(%rbp), %rax
 3915      F7FFFF
 3916 19db 4889D6   		movq	%rdx, %rsi
 3917 19de 4889C7   		movq	%rax, %rdi
 3918              	.LEHB99:
 3919 19e1 E820FFFF 		call	_ZN12_GLOBAL__N_159TestRunnerFixtureCallsReportFailureOncePerFailingTestHelperC1ERKN8UnitTest
 3919      FF
 3920              	.LEHE99:
 3921              		.loc 6 108 0 is_stmt 0 discriminator 1
 3922 19e6 C6853FF7 		movb	$1, -2241(%rbp)
 3922      FFFF01
 3923 19ed 488B8528 		movq	-2264(%rbp), %rax
 3923      F7FFFF
 3924 19f4 488D5008 		leaq	8(%rax), %rdx
 3925 19f8 488D8570 		leaq	-2192(%rbp), %rax
 3925      F7FFFF
 3926 19ff 4889D6   		movq	%rdx, %rsi
 3927 1a02 4889C7   		movq	%rax, %rdi
 3928              	.LEHB100:
 3929 1a05 E8915D00 		call	_ZN8UnitTest11ExecuteTestIN12_GLOBAL__N_159TestRunnerFixtureCallsReportFailureOncePerFailingT
 3929      00
 3930              	.LEHE100:
 3931              		.loc 6 108 0 discriminator 3
 3932 1a0a 488D8570 		leaq	-2192(%rbp), %rax
 3932      F7FFFF
 3933 1a11 4889C7   		movq	%rax, %rdi
 3934              	.LEHB101:
 3935 1a14 E867FFFF 		call	_ZN12_GLOBAL__N_159TestRunnerFixtureCallsReportFailureOncePerFailingTestHelperD1Ev
 3935      FF
 3936              	.LEHE101:
 3937              	.LBE62:
 3938              		.loc 6 108 0
 3939 1a19 E9690200 		jmp	.L211
 3939      00
 3940              	.L226:
 3941 1a1e 4989C4   		movq	%rax, %r12
 3942 1a21 4889D3   		movq	%rdx, %rbx
 3943              	.LBB63:
 3944 1a24 488D8570 		leaq	-2192(%rbp), %rax
 3944      F7FFFF
 3945 1a2b 4889C7   		movq	%rax, %rdi
 3946 1a2e E84DFFFF 		call	_ZN12_GLOBAL__N_159TestRunnerFixtureCallsReportFailureOncePerFailingTestHelperD1Ev
 3946      FF
 3947 1a33 4C89E0   		movq	%r12, %rax
 3948 1a36 4889DA   		movq	%rbx, %rdx
 3949 1a39 EB00     		jmp	.L213
 3950              	.L225:
 3951              	.L213:
 3952 1a3b 4883FA01 		cmpq	$1, %rdx
 3953 1a3f 740F     		je	.L215
 3954 1a41 4883FA02 		cmpq	$2, %rdx
 3955 1a45 0F84A700 		je	.L216
 3955      0000
 3956 1a4b E94A0100 		jmp	.L231
 3956      00
 3957              	.L215:
 3958              	.LBE63:
 3959              	.LBB64:
 3960 1a50 4889C7   		movq	%rax, %rdi
 3961 1a53 E8000000 		call	__cxa_begin_catch@PLT
 3961      00
 3962 1a58 48898548 		movq	%rax, -2232(%rbp)
 3962      F7FFFF
 3963              	.LEHB102:
 3964 1a5f E8000000 		call	_ZN8UnitTest11CurrentTest7ResultsEv@PLT
 3964      00
 3965 1a64 488B18   		movq	(%rax), %rbx
 3966 1a67 488B8548 		movq	-2232(%rbp), %rax
 3966      F7FFFF
 3967 1a6e 488B00   		movq	(%rax), %rax
 3968 1a71 4883C010 		addq	$16, %rax
 3969 1a75 488B00   		movq	(%rax), %rax
 3970 1a78 488B9548 		movq	-2232(%rbp), %rdx
 3970      F7FFFF
 3971 1a7f 4889D7   		movq	%rdx, %rdi
 3972 1a82 FFD0     		call	*%rax
 3973              	.LVL8:
 3974 1a84 4989C4   		movq	%rax, %r12
 3975 1a87 488B8548 		movq	-2232(%rbp), %rax
 3975      F7FFFF
 3976 1a8e 4889C7   		movq	%rax, %rdi
 3977 1a91 E8000000 		call	_ZNK8UnitTest15AssertException10LineNumberEv@PLT
 3977      00
 3978              		.loc 6 108 0 discriminator 5
 3979 1a96 4189C5   		movl	%eax, %r13d
 3980 1a99 488B8548 		movq	-2232(%rbp), %rax
 3980      F7FFFF
 3981 1aa0 4889C7   		movq	%rax, %rdi
 3982 1aa3 E8000000 		call	_ZNK8UnitTest15AssertException8FilenameEv@PLT
 3982      00
 3983              		.loc 6 108 0 discriminator 7
 3984 1aa8 4889C1   		movq	%rax, %rcx
 3985 1aab 488B8528 		movq	-2264(%rbp), %rax
 3985      F7FFFF
 3986 1ab2 488B5008 		movq	8(%rax), %rdx
 3987 1ab6 488B8528 		movq	-2264(%rbp), %rax
 3987      F7FFFF
 3988 1abd 488B7010 		movq	16(%rax), %rsi
 3989 1ac1 488D8550 		leaq	-2224(%rbp), %rax
 3989      F7FFFF
 3990 1ac8 4589E8   		movl	%r13d, %r8d
 3991 1acb 4889C7   		movq	%rax, %rdi
 3992 1ace E8000000 		call	_ZN8UnitTest11TestDetailsC1EPKcS2_S2_i@PLT
 3992      00
 3993              		.loc 6 108 0 discriminator 11
 3994 1ad3 488D8550 		leaq	-2224(%rbp), %rax
 3994      F7FFFF
 3995 1ada 4C89E2   		movq	%r12, %rdx
 3996 1add 4889C6   		movq	%rax, %rsi
 3997 1ae0 4889DF   		movq	%rbx, %rdi
 3998 1ae3 E8000000 		call	_ZN8UnitTest11TestResults13OnTestFailureERKNS_11TestDetailsEPKc@PLT
 3998      00
 3999              	.LEHE102:
 4000              		.loc 6 108 0 discriminator 13
 4001 1ae8 E8000000 		call	__cxa_end_catch@PLT
 4001      00
 4002              	.LBE64:
 4003 1aed E9950100 		jmp	.L211
 4003      00
 4004              	.L216:
 4005              	.LBB65:
 4006              		.loc 6 108 0
 4007 1af2 4889C7   		movq	%rax, %rdi
 4008 1af5 E8000000 		call	__cxa_begin_catch@PLT
 4008      00
 4009 1afa 48898540 		movq	%rax, -2240(%rbp)
 4009      F7FFFF
 4010              	.LBB66:
 4011 1b01 488D8570 		leaq	-2192(%rbp), %rax
 4011      F7FFFF
 4012 1b08 4889C7   		movq	%rax, %rdi
 4013              	.LEHB103:
 4014 1b0b E8000000 		call	_ZN8UnitTest15MemoryOutStreamC1Ev
 4014      00
 4015              	.LEHE103:
 4016              		.loc 6 108 0 discriminator 15
 4017 1b10 488D8570 		leaq	-2192(%rbp), %rax
 4017      F7FFFF
 4018 1b17 488D3500 		leaq	.LC8(%rip), %rsi
 4018      000000
 4019 1b1e 4889C7   		movq	%rax, %rdi
 4020              	.LEHB104:
 4021 1b21 E8000000 		call	_ZStlsISt11char_traitsIcEERSt13basic_ostreamIcT_ES5_PKc@PLT
 4021      00
 4022 1b26 4889C3   		movq	%rax, %rbx
 4023 1b29 488B8540 		movq	-2240(%rbp), %rax
 4023      F7FFFF
 4024 1b30 488B00   		movq	(%rax), %rax
 4025 1b33 4883C010 		addq	$16, %rax
 4026 1b37 488B00   		movq	(%rax), %rax
 4027 1b3a 488B9540 		movq	-2240(%rbp), %rdx
 4027      F7FFFF
 4028 1b41 4889D7   		movq	%rdx, %rdi
 4029 1b44 FFD0     		call	*%rax
 4030              	.LVL9:
 4031 1b46 4889C6   		movq	%rax, %rsi
 4032 1b49 4889DF   		movq	%rbx, %rdi
 4033 1b4c E8000000 		call	_ZStlsISt11char_traitsIcEERSt13basic_ostreamIcT_ES5_PKc@PLT
 4033      00
 4034              		.loc 6 108 0 discriminator 19
 4035 1b51 E8000000 		call	_ZN8UnitTest11CurrentTest7ResultsEv@PLT
 4035      00
 4036 1b56 488B18   		movq	(%rax), %rbx
 4037 1b59 488D8570 		leaq	-2192(%rbp), %rax
 4037      F7FFFF
 4038 1b60 4889C7   		movq	%rax, %rdi
 4039 1b63 E8000000 		call	_ZNK8UnitTest15MemoryOutStream7GetTextEv@PLT
 4039      00
 4040              		.loc 6 108 0 discriminator 21
 4041 1b68 4889C2   		movq	%rax, %rdx
 4042 1b6b 488B8528 		movq	-2264(%rbp), %rax
 4042      F7FFFF
 4043 1b72 4883C008 		addq	$8, %rax
 4044 1b76 4889C6   		movq	%rax, %rsi
 4045 1b79 4889DF   		movq	%rbx, %rdi
 4046 1b7c E8000000 		call	_ZN8UnitTest11TestResults13OnTestFailureERKNS_11TestDetailsEPKc@PLT
 4046      00
 4047              	.LEHE104:
 4048              		.loc 6 108 0 discriminator 25
 4049 1b81 488D8570 		leaq	-2192(%rbp), %rax
 4049      F7FFFF
 4050 1b88 4889C7   		movq	%rax, %rdi
 4051              	.LEHB105:
 4052 1b8b E8000000 		call	_ZN8UnitTest15MemoryOutStreamD1Ev
 4052      00
 4053              	.LEHE105:
 4054              	.LBE66:
 4055              		.loc 6 108 0 discriminator 26
 4056 1b90 E8000000 		call	__cxa_end_catch@PLT
 4056      00
 4057              	.LBE65:
 4058 1b95 E9ED0000 		jmp	.L211
 4058      00
 4059              	.L231:
 4060              		.loc 6 108 0
 4061 1b9a 4889C7   		movq	%rax, %rdi
 4062 1b9d E8000000 		call	__cxa_begin_catch@PLT
 4062      00
 4063 1ba2 80BD3FF7 		cmpb	$0, -2241(%rbp)
 4063      FFFF00
 4064 1ba9 7445     		je	.L218
 4065              	.LEHB106:
 4066              		.loc 6 108 0 discriminator 28
 4067 1bab E8000000 		call	_ZN8UnitTest11CurrentTest7ResultsEv@PLT
 4067      00
 4068 1bb0 488B18   		movq	(%rax), %rbx
 4069 1bb3 488B8528 		movq	-2264(%rbp), %rax
 4069      F7FFFF
 4070 1bba 488D4808 		leaq	8(%rax), %rcx
 4071 1bbe 488D8550 		leaq	-2224(%rbp), %rax
 4071      F7FFFF
 4072 1bc5 BA6C0000 		movl	$108, %edx
 4072      00
 4073 1bca 4889CE   		movq	%rcx, %rsi
 4074 1bcd 4889C7   		movq	%rax, %rdi
 4075 1bd0 E8000000 		call	_ZN8UnitTest11TestDetailsC1ERKS0_i@PLT
 4075      00
 4076              		.loc 6 108 0 discriminator 33
 4077 1bd5 488D8550 		leaq	-2224(%rbp), %rax
 4077      F7FFFF
 4078 1bdc 488D1500 		leaq	.LC9(%rip), %rdx
 4078      000000
 4079 1be3 4889C6   		movq	%rax, %rsi
 4080 1be6 4889DF   		movq	%rbx, %rdi
 4081 1be9 E8000000 		call	_ZN8UnitTest11TestResults13OnTestFailureERKNS_11TestDetailsEPKc@PLT
 4081      00
 4082 1bee EB43     		jmp	.L219
 4083              	.L218:
 4084              		.loc 6 108 0 discriminator 29
 4085 1bf0 E8000000 		call	_ZN8UnitTest11CurrentTest7ResultsEv@PLT
 4085      00
 4086 1bf5 488B18   		movq	(%rax), %rbx
 4087 1bf8 488B8528 		movq	-2264(%rbp), %rax
 4087      F7FFFF
 4088 1bff 488D4808 		leaq	8(%rax), %rcx
 4089 1c03 488D8550 		leaq	-2224(%rbp), %rax
 4089      F7FFFF
 4090 1c0a BA6C0000 		movl	$108, %edx
 4090      00
 4091 1c0f 4889CE   		movq	%rcx, %rsi
 4092 1c12 4889C7   		movq	%rax, %rdi
 4093 1c15 E8000000 		call	_ZN8UnitTest11TestDetailsC1ERKS0_i@PLT
 4093      00
 4094              		.loc 6 108 0 discriminator 40
 4095 1c1a 488D8550 		leaq	-2224(%rbp), %rax
 4095      F7FFFF
 4096 1c21 488D1500 		leaq	.LC10(%rip), %rdx
 4096      000000
 4097 1c28 4889C6   		movq	%rax, %rsi
 4098 1c2b 4889DF   		movq	%rbx, %rdi
 4099 1c2e E8000000 		call	_ZN8UnitTest11TestResults13OnTestFailureERKNS_11TestDetailsEPKc@PLT
 4099      00
 4100              	.LEHE106:
 4101              	.L219:
 4102              	.LEHB107:
 4103              		.loc 6 108 0 discriminator 43
 4104 1c33 E8000000 		call	__cxa_end_catch@PLT
 4104      00
 4105 1c38 EB4D     		jmp	.L211
 4106              	.L227:
 4107 1c3a 4889C3   		movq	%rax, %rbx
 4108              	.LBB68:
 4109              		.loc 6 108 0
 4110 1c3d E8000000 		call	__cxa_end_catch@PLT
 4110      00
 4111 1c42 4889D8   		movq	%rbx, %rax
 4112 1c45 4889C7   		movq	%rax, %rdi
 4113 1c48 E8000000 		call	_Unwind_Resume@PLT
 4113      00
 4114              	.LEHE107:
 4115              	.L229:
 4116 1c4d 4889C3   		movq	%rax, %rbx
 4117              	.LBE68:
 4118              	.LBB69:
 4119              	.LBB67:
 4120 1c50 488D8570 		leaq	-2192(%rbp), %rax
 4120      F7FFFF
 4121 1c57 4889C7   		movq	%rax, %rdi
 4122 1c5a E8000000 		call	_ZN8UnitTest15MemoryOutStreamD1Ev
 4122      00
 4123 1c5f EB03     		jmp	.L222
 4124              	.L228:
 4125 1c61 4889C3   		movq	%rax, %rbx
 4126              	.L222:
 4127              	.LBE67:
 4128 1c64 E8000000 		call	__cxa_end_catch@PLT
 4128      00
 4129 1c69 4889D8   		movq	%rbx, %rax
 4130 1c6c 4889C7   		movq	%rax, %rdi
 4131              	.LEHB108:
 4132 1c6f E8000000 		call	_Unwind_Resume@PLT
 4132      00
 4133              	.LEHE108:
 4134              	.L230:
 4135 1c74 4889C3   		movq	%rax, %rbx
 4136              	.LBE69:
 4137 1c77 E8000000 		call	__cxa_end_catch@PLT
 4137      00
 4138 1c7c 4889D8   		movq	%rbx, %rax
 4139 1c7f 4889C7   		movq	%rax, %rdi
 4140              	.LEHB109:
 4141 1c82 E8000000 		call	_Unwind_Resume@PLT
 4141      00
 4142              	.LEHE109:
 4143              	.L211:
 4144 1c87 488B45D8 		movq	-40(%rbp), %rax
 4145 1c8b 64483304 		xorq	%fs:40, %rax
 4145      25280000 
 4145      00
 4146 1c94 7405     		je	.L224
 4147 1c96 E8000000 		call	__stack_chk_fail@PLT
 4147      00
 4148              	.L224:
 4149 1c9b 4881C4C8 		addq	$2248, %rsp
 4149      080000
 4150 1ca2 5B       		popq	%rbx
 4151 1ca3 415C     		popq	%r12
 4152 1ca5 415D     		popq	%r13
 4153 1ca7 5D       		popq	%rbp
 4154              		.cfi_def_cfa 7, 8
 4155 1ca8 C3       		ret
 4156              		.cfi_endproc
 4157              	.LFE1169:
 4158              		.section	.gcc_except_table
 4159              		.align 4
 4160              	.LLSDA1169:
 4161 02a4 FF       		.byte	0xff
 4162 02a5 9B       		.byte	0x9b
 4163 02a6 55       		.uleb128 .LLSDATT1169-.LLSDATTD1169
 4164              	.LLSDATTD1169:
 4165 02a7 01       		.byte	0x1
 4166 02a8 3E       		.uleb128 .LLSDACSE1169-.LLSDACSB1169
 4167              	.LLSDACSB1169:
 4168 02a9 45       		.uleb128 .LEHB99-.LFB1169
 4169 02aa 05       		.uleb128 .LEHE99-.LEHB99
 4170 02ab 9F01     		.uleb128 .L225-.LFB1169
 4171 02ad 05       		.uleb128 0x5
 4172 02ae 69       		.uleb128 .LEHB100-.LFB1169
 4173 02af 05       		.uleb128 .LEHE100-.LEHB100
 4174 02b0 8201     		.uleb128 .L226-.LFB1169
 4175 02b2 07       		.uleb128 0x7
 4176 02b3 78       		.uleb128 .LEHB101-.LFB1169
 4177 02b4 05       		.uleb128 .LEHE101-.LEHB101
 4178 02b5 9F01     		.uleb128 .L225-.LFB1169
 4179 02b7 05       		.uleb128 0x5
 4180 02b8 C301     		.uleb128 .LEHB102-.LFB1169
 4181 02ba 8901     		.uleb128 .LEHE102-.LEHB102
 4182 02bc 9E05     		.uleb128 .L227-.LFB1169
 4183 02be 00       		.uleb128 0
 4184 02bf EF02     		.uleb128 .LEHB103-.LFB1169
 4185 02c1 05       		.uleb128 .LEHE103-.LEHB103
 4186 02c2 C505     		.uleb128 .L228-.LFB1169
 4187 02c4 00       		.uleb128 0
 4188 02c5 8503     		.uleb128 .LEHB104-.LFB1169
 4189 02c7 60       		.uleb128 .LEHE104-.LEHB104
 4190 02c8 B105     		.uleb128 .L229-.LFB1169
 4191 02ca 00       		.uleb128 0
 4192 02cb EF03     		.uleb128 .LEHB105-.LFB1169
 4193 02cd 05       		.uleb128 .LEHE105-.LEHB105
 4194 02ce C505     		.uleb128 .L228-.LFB1169
 4195 02d0 00       		.uleb128 0
 4196 02d1 8F04     		.uleb128 .LEHB106-.LFB1169
 4197 02d3 8801     		.uleb128 .LEHE106-.LEHB106
 4198 02d5 D805     		.uleb128 .L230-.LFB1169
 4199 02d7 00       		.uleb128 0
 4200 02d8 9705     		.uleb128 .LEHB107-.LFB1169
 4201 02da 1A       		.uleb128 .LEHE107-.LEHB107
 4202 02db 00       		.uleb128 0
 4203 02dc 00       		.uleb128 0
 4204 02dd D305     		.uleb128 .LEHB108-.LFB1169
 4205 02df 05       		.uleb128 .LEHE108-.LEHB108
 4206 02e0 00       		.uleb128 0
 4207 02e1 00       		.uleb128 0
 4208 02e2 E605     		.uleb128 .LEHB109-.LFB1169
 4209 02e4 05       		.uleb128 .LEHE109-.LEHB109
 4210 02e5 00       		.uleb128 0
 4211 02e6 00       		.uleb128 0
 4212              	.LLSDACSE1169:
 4213 02e7 03       		.byte	0x3
 4214 02e8 00       		.byte	0
 4215 02e9 02       		.byte	0x2
 4216 02ea 7D       		.byte	0x7d
 4217 02eb 01       		.byte	0x1
 4218 02ec 7D       		.byte	0x7d
 4219 02ed 00       		.byte	0
 4220 02ee 7D       		.byte	0x7d
 4221 02ef 00       		.align 4
 4222 02f0 00000000 		.long	0
 4223              	
 4224 02f4 00000000 		.long	DW.ref._ZTISt9exception-.
 4225 02f8 00000000 		.long	DW.ref._ZTIN8UnitTest15AssertExceptionE-.
 4226              	.LLSDATT1169:
 4227              		.text
 4229              		.section	.rodata
 4230              	.LC30:
 4231 0465 74657374 		.string	"test"
 4231      00
 4232 046a 00000000 		.align 8
 4232      0000
 4233              	.LC31:
 4234 0470 556E6861 		.string	"Unhandled exception in CHECK_EQUAL(2, RunTestsIf(list, NULL, True(), 0))"
 4234      6E646C65 
 4234      64206578 
 4234      63657074 
 4234      696F6E20 
 4235 04b9 00000000 		.align 8
 4235      000000
 4236              	.LC32:
 4237 04c0 556E6861 		.string	"Unhandled exception in CHECK_EQUAL(2, reporter.testFailedCount)"
 4237      6E646C65 
 4237      64206578 
 4237      63657074 
 4237      696F6E20 
 4238              		.text
 4239 1ca9 90       		.align 2
 4241              	_ZN12_GLOBAL__N_159TestRunnerFixtureCallsReportFailureOncePerFailingTestHelper7RunImplEv:
 4242              	.LFB1173:
 109:TestTestRunner.cpp **** {
 4243              		.loc 6 109 0 is_stmt 1
 4244              		.cfi_startproc
 4245              		.cfi_personality 0x9b,DW.ref.__gxx_personality_v0
 4246              		.cfi_lsda 0x1b,.LLSDA1173
 4247 1caa 55       		pushq	%rbp
 4248              		.cfi_def_cfa_offset 16
 4249              		.cfi_offset 6, -16
 4250 1cab 4889E5   		movq	%rsp, %rbp
 4251              		.cfi_def_cfa_register 6
 4252 1cae 53       		pushq	%rbx
 4253 1caf 4881EC08 		subq	$264, %rsp
 4253      010000
 4254              		.cfi_offset 3, -24
 4255 1cb6 4889BDF8 		movq	%rdi, -264(%rbp)
 4255      FEFFFF
 4256              		.loc 6 109 0
 4257 1cbd 64488B04 		movq	%fs:40, %rax
 4257      25280000 
 4257      00
 4258 1cc6 488945E8 		movq	%rax, -24(%rbp)
 4259 1cca 31C0     		xorl	%eax, %eax
 110:TestTestRunner.cpp ****     MockTest test1("test", false, false);
 4260              		.loc 6 110 0
 4261 1ccc 488D8530 		leaq	-208(%rbp), %rax
 4261      FFFFFF
 4262 1cd3 41B80100 		movl	$1, %r8d
 4262      0000
 4263 1cd9 B9000000 		movl	$0, %ecx
 4263      00
 4264 1cde BA000000 		movl	$0, %edx
 4264      00
 4265 1ce3 488D3500 		leaq	.LC30(%rip), %rsi
 4265      000000
 4266 1cea 4889C7   		movq	%rax, %rdi
 4267              	.LEHB110:
 4268 1ced E80EE3FF 		call	_ZN12_GLOBAL__N_18MockTestC1EPKcbbi
 4268      FF
 4269              	.LEHE110:
 111:TestTestRunner.cpp ****     list.Add(&test1);
 4270              		.loc 6 111 0
 4271 1cf2 488B85F8 		movq	-264(%rbp), %rax
 4271      FEFFFF
 4272 1cf9 488D9048 		leaq	2120(%rax), %rdx
 4272      080000
 4273 1d00 488D8530 		leaq	-208(%rbp), %rax
 4273      FFFFFF
 4274 1d07 4889C6   		movq	%rax, %rsi
 4275 1d0a 4889D7   		movq	%rdx, %rdi
 4276              	.LEHB111:
 4277 1d0d E8000000 		call	_ZN8UnitTest8TestList3AddEPNS_4TestE@PLT
 4277      00
 112:TestTestRunner.cpp ****     MockTest test2("test", true, false);
 4278              		.loc 6 112 0
 4279 1d12 488D8570 		leaq	-144(%rbp), %rax
 4279      FFFFFF
 4280 1d19 41B80100 		movl	$1, %r8d
 4280      0000
 4281 1d1f B9000000 		movl	$0, %ecx
 4281      00
 4282 1d24 BA010000 		movl	$1, %edx
 4282      00
 4283 1d29 488D3500 		leaq	.LC30(%rip), %rsi
 4283      000000
 4284 1d30 4889C7   		movq	%rax, %rdi
 4285 1d33 E8C8E2FF 		call	_ZN12_GLOBAL__N_18MockTestC1EPKcbbi
 4285      FF
 4286              	.LEHE111:
 113:TestTestRunner.cpp ****     list.Add(&test2);
 4287              		.loc 6 113 0
 4288 1d38 488B85F8 		movq	-264(%rbp), %rax
 4288      FEFFFF
 4289 1d3f 488D9048 		leaq	2120(%rax), %rdx
 4289      080000
 4290 1d46 488D8570 		leaq	-144(%rbp), %rax
 4290      FFFFFF
 4291 1d4d 4889C6   		movq	%rax, %rsi
 4292 1d50 4889D7   		movq	%rdx, %rdi
 4293              	.LEHB112:
 4294 1d53 E8000000 		call	_ZN8UnitTest8TestList3AddEPNS_4TestE@PLT
 4294      00
 114:TestTestRunner.cpp ****     MockTest test3("test", false, false);
 4295              		.loc 6 114 0
 4296 1d58 488D45B0 		leaq	-80(%rbp), %rax
 4297 1d5c 41B80100 		movl	$1, %r8d
 4297      0000
 4298 1d62 B9000000 		movl	$0, %ecx
 4298      00
 4299 1d67 BA000000 		movl	$0, %edx
 4299      00
 4300 1d6c 488D3500 		leaq	.LC30(%rip), %rsi
 4300      000000
 4301 1d73 4889C7   		movq	%rax, %rdi
 4302 1d76 E885E2FF 		call	_ZN12_GLOBAL__N_18MockTestC1EPKcbbi
 4302      FF
 4303              	.LEHE112:
 115:TestTestRunner.cpp ****     list.Add(&test3);
 4304              		.loc 6 115 0
 4305 1d7b 488B85F8 		movq	-264(%rbp), %rax
 4305      FEFFFF
 4306 1d82 488D9048 		leaq	2120(%rax), %rdx
 4306      080000
 4307 1d89 488D45B0 		leaq	-80(%rbp), %rax
 4308 1d8d 4889C6   		movq	%rax, %rsi
 4309 1d90 4889D7   		movq	%rdx, %rdi
 4310              	.LEHB113:
 4311 1d93 E8000000 		call	_ZN8UnitTest8TestList3AddEPNS_4TestE@PLT
 4311      00
 4312              	.LEHE113:
 4313              	.LEHB114:
 116:TestTestRunner.cpp **** 
 117:TestTestRunner.cpp **** 	CHECK_EQUAL(2, 	RunTestsIf(list, NULL, True(), 0));
 4314              		.loc 6 117 0
 4315 1d98 E8000000 		call	_ZN8UnitTest11CurrentTest7DetailsEv@PLT
 4315      00
 4316 1d9d 488B08   		movq	(%rax), %rcx
 4317 1da0 488D8510 		leaq	-240(%rbp), %rax
 4317      FFFFFF
 4318 1da7 BA750000 		movl	$117, %edx
 4318      00
 4319 1dac 4889CE   		movq	%rcx, %rsi
 4320 1daf 4889C7   		movq	%rax, %rdi
 4321 1db2 E8000000 		call	_ZN8UnitTest11TestDetailsC1ERKS0_i@PLT
 4321      00
 4322              	.LEHE114:
 4323              		.loc 6 117 0 is_stmt 0 discriminator 2
 4324 1db7 488B85F8 		movq	-264(%rbp), %rax
 4324      FEFFFF
 4325 1dbe 488B95F8 		movq	-264(%rbp), %rdx
 4325      FEFFFF
 4326 1dc5 488DB248 		leaq	2120(%rdx), %rsi
 4326      080000
 4327 1dcc 488D9507 		leaq	-249(%rbp), %rdx
 4327      FFFFFF
 4328 1dd3 41B80000 		movl	$0, %r8d
 4328      0000
 4329 1dd9 4889D1   		movq	%rdx, %rcx
 4330 1ddc BA000000 		movl	$0, %edx
 4330      00
 4331 1de1 4889C7   		movq	%rax, %rdi
 4332              	.LEHB115:
 4333 1de4 E8DF5000 		call	_ZN12_GLOBAL__N_111FixtureBase10RunTestsIfIN8UnitTest4TrueEEEiRKNS2_8TestListEPKcRKT_i
 4333      00
 4334              	.LEHE115:
 4335 1de9 89850CFF 		movl	%eax, -244(%rbp)
 4335      FFFF
 4336 1def C78508FF 		movl	$2, -248(%rbp)
 4336      FFFF0200 
 4336      0000
 4337              	.LEHB116:
 4338 1df9 E8000000 		call	_ZN8UnitTest11CurrentTest7ResultsEv@PLT
 4338      00
 4339              		.loc 6 117 0 discriminator 4
 4340 1dfe 488B00   		movq	(%rax), %rax
 4341 1e01 488D8D10 		leaq	-240(%rbp), %rcx
 4341      FFFFFF
 4342 1e08 488D950C 		leaq	-244(%rbp), %rdx
 4342      FFFFFF
 4343 1e0f 488DB508 		leaq	-248(%rbp), %rsi
 4343      FFFFFF
 4344 1e16 4889C7   		movq	%rax, %rdi
 4345 1e19 E8000000 		call	_ZN8UnitTest10CheckEqualIiiEEvRNS_11TestResultsERKT_RKT0_RKNS_11TestDetailsE
 4345      00
 4346              	.LEHE116:
 4347              	.L236:
 4348              	.LEHB117:
 118:TestTestRunner.cpp ****     CHECK_EQUAL(2, reporter.testFailedCount);
 4349              		.loc 6 118 0 is_stmt 1
 4350 1e1e E8000000 		call	_ZN8UnitTest11CurrentTest7DetailsEv@PLT
 4350      00
 4351 1e23 488B08   		movq	(%rax), %rcx
 4352 1e26 488D8510 		leaq	-240(%rbp), %rax
 4352      FFFFFF
 4353 1e2d BA760000 		movl	$118, %edx
 4353      00
 4354 1e32 4889CE   		movq	%rcx, %rsi
 4355 1e35 4889C7   		movq	%rax, %rdi
 4356 1e38 E8000000 		call	_ZN8UnitTest11TestDetailsC1ERKS0_i@PLT
 4356      00
 4357              	.LEHE117:
 4358              		.loc 6 118 0 is_stmt 0 discriminator 2
 4359 1e3d 488B85F8 		movq	-264(%rbp), %rax
 4359      FEFFFF
 4360 1e44 488D9824 		leaq	548(%rax), %rbx
 4360      020000
 4361 1e4b C7850CFF 		movl	$2, -244(%rbp)
 4361      FFFF0200 
 4361      0000
 4362              	.LEHB118:
 4363 1e55 E8000000 		call	_ZN8UnitTest11CurrentTest7ResultsEv@PLT
 4363      00
 4364 1e5a 488B00   		movq	(%rax), %rax
 4365 1e5d 488D9510 		leaq	-240(%rbp), %rdx
 4365      FFFFFF
 4366 1e64 488DB50C 		leaq	-244(%rbp), %rsi
 4366      FFFFFF
 4367 1e6b 4889D1   		movq	%rdx, %rcx
 4368 1e6e 4889DA   		movq	%rbx, %rdx
 4369 1e71 4889C7   		movq	%rax, %rdi
 4370 1e74 E8000000 		call	_ZN8UnitTest10CheckEqualIiiEEvRNS_11TestResultsERKT_RKT0_RKNS_11TestDetailsE
 4370      00
 4371              	.LEHE118:
 4372              	.L241:
 114:TestTestRunner.cpp ****     list.Add(&test3);
 4373              		.loc 6 114 0 is_stmt 1
 4374 1e79 488D45B0 		leaq	-80(%rbp), %rax
 4375 1e7d 4889C7   		movq	%rax, %rdi
 4376              	.LEHB119:
 4377 1e80 E8598700 		call	_ZN12_GLOBAL__N_18MockTestD1Ev
 4377      00
 4378              	.LEHE119:
 112:TestTestRunner.cpp ****     list.Add(&test2);
 4379              		.loc 6 112 0
 4380 1e85 488D8570 		leaq	-144(%rbp), %rax
 4380      FFFFFF
 4381 1e8c 4889C7   		movq	%rax, %rdi
 4382              	.LEHB120:
 4383 1e8f E84A8700 		call	_ZN12_GLOBAL__N_18MockTestD1Ev
 4383      00
 4384              	.LEHE120:
 110:TestTestRunner.cpp ****     list.Add(&test1);
 4385              		.loc 6 110 0
 4386 1e94 488D8530 		leaq	-208(%rbp), %rax
 4386      FFFFFF
 4387 1e9b 4889C7   		movq	%rax, %rdi
 4388              	.LEHB121:
 4389 1e9e E83B8700 		call	_ZN12_GLOBAL__N_18MockTestD1Ev
 4389      00
 4390              	.LEHE121:
 119:TestTestRunner.cpp **** }
 4391              		.loc 6 119 0
 4392 1ea3 90       		nop
 4393 1ea4 488B45E8 		movq	-24(%rbp), %rax
 4394 1ea8 64483304 		xorq	%fs:40, %rax
 4394      25280000 
 4394      00
 4395 1eb1 0F840A01 		je	.L245
 4395      0000
 4396 1eb7 E9000100 		jmp	.L256
 4396      00
 4397              	.L251:
 4398 1ebc EB02     		jmp	.L235
 4399              	.L250:
 4400 1ebe EB00     		jmp	.L235
 4401              	.L249:
 4402              	.L235:
 117:TestTestRunner.cpp ****     CHECK_EQUAL(2, reporter.testFailedCount);
 4403              		.loc 6 117 0
 4404 1ec0 4889C7   		movq	%rax, %rdi
 4405 1ec3 E8000000 		call	__cxa_begin_catch@PLT
 4405      00
 4406              	.LEHB122:
 4407 1ec8 E8000000 		call	_ZN8UnitTest11CurrentTest7ResultsEv@PLT
 4407      00
 4408 1ecd 488B18   		movq	(%rax), %rbx
 4409 1ed0 E8000000 		call	_ZN8UnitTest11CurrentTest7DetailsEv@PLT
 4409      00
 117:TestTestRunner.cpp ****     CHECK_EQUAL(2, reporter.testFailedCount);
 4410              		.loc 6 117 0 is_stmt 0 discriminator 10
 4411 1ed5 488B08   		movq	(%rax), %rcx
 4412 1ed8 488D8510 		leaq	-240(%rbp), %rax
 4412      FFFFFF
 4413 1edf BA750000 		movl	$117, %edx
 4413      00
 4414 1ee4 4889CE   		movq	%rcx, %rsi
 4415 1ee7 4889C7   		movq	%rax, %rdi
 4416 1eea E8000000 		call	_ZN8UnitTest11TestDetailsC1ERKS0_i@PLT
 4416      00
 117:TestTestRunner.cpp ****     CHECK_EQUAL(2, reporter.testFailedCount);
 4417              		.loc 6 117 0 discriminator 14
 4418 1eef 488D8510 		leaq	-240(%rbp), %rax
 4418      FFFFFF
 4419 1ef6 488D1500 		leaq	.LC31(%rip), %rdx
 4419      000000
 4420 1efd 4889C6   		movq	%rax, %rsi
 4421 1f00 4889DF   		movq	%rbx, %rdi
 4422 1f03 E8000000 		call	_ZN8UnitTest11TestResults13OnTestFailureERKNS_11TestDetailsEPKc@PLT
 4422      00
 4423              	.LEHE122:
 4424              	.LEHB123:
 117:TestTestRunner.cpp ****     CHECK_EQUAL(2, reporter.testFailedCount);
 4425              		.loc 6 117 0 discriminator 16
 4426 1f08 E8000000 		call	__cxa_end_catch@PLT
 4426      00
 4427              	.LEHE123:
 117:TestTestRunner.cpp ****     CHECK_EQUAL(2, reporter.testFailedCount);
 4428              		.loc 6 117 0
 4429 1f0d E90CFFFF 		jmp	.L236
 4429      FF
 4430              	.L252:
 4431 1f12 4889C3   		movq	%rax, %rbx
 4432 1f15 E8000000 		call	__cxa_end_catch@PLT
 4432      00
 4433 1f1a EB61     		jmp	.L238
 4434              	.L254:
 4435 1f1c EB00     		jmp	.L240
 4436              	.L253:
 4437              	.L240:
 118:TestTestRunner.cpp **** }
 4438              		.loc 6 118 0 is_stmt 1
 4439 1f1e 4889C7   		movq	%rax, %rdi
 4440 1f21 E8000000 		call	__cxa_begin_catch@PLT
 4440      00
 4441              	.LEHB124:
 4442 1f26 E8000000 		call	_ZN8UnitTest11CurrentTest7ResultsEv@PLT
 4442      00
 4443 1f2b 488B18   		movq	(%rax), %rbx
 4444 1f2e E8000000 		call	_ZN8UnitTest11CurrentTest7DetailsEv@PLT
 4444      00
 118:TestTestRunner.cpp **** }
 4445              		.loc 6 118 0 is_stmt 0 discriminator 8
 4446 1f33 488B08   		movq	(%rax), %rcx
 4447 1f36 488D8510 		leaq	-240(%rbp), %rax
 4447      FFFFFF
 4448 1f3d BA760000 		movl	$118, %edx
 4448      00
 4449 1f42 4889CE   		movq	%rcx, %rsi
 4450 1f45 4889C7   		movq	%rax, %rdi
 4451 1f48 E8000000 		call	_ZN8UnitTest11TestDetailsC1ERKS0_i@PLT
 4451      00
 118:TestTestRunner.cpp **** }
 4452              		.loc 6 118 0 discriminator 12
 4453 1f4d 488D8510 		leaq	-240(%rbp), %rax
 4453      FFFFFF
 4454 1f54 488D1500 		leaq	.LC32(%rip), %rdx
 4454      000000
 4455 1f5b 4889C6   		movq	%rax, %rsi
 4456 1f5e 4889DF   		movq	%rbx, %rdi
 4457 1f61 E8000000 		call	_ZN8UnitTest11TestResults13OnTestFailureERKNS_11TestDetailsEPKc@PLT
 4457      00
 4458              	.LEHE124:
 4459              	.LEHB125:
 118:TestTestRunner.cpp **** }
 4460              		.loc 6 118 0 discriminator 14
 4461 1f66 E8000000 		call	__cxa_end_catch@PLT
 4461      00
 4462              	.LEHE125:
 118:TestTestRunner.cpp **** }
 4463              		.loc 6 118 0
 4464 1f6b E909FFFF 		jmp	.L241
 4464      FF
 4465              	.L255:
 4466 1f70 4889C3   		movq	%rax, %rbx
 4467 1f73 E8000000 		call	__cxa_end_catch@PLT
 4467      00
 4468 1f78 EB03     		jmp	.L238
 4469              	.L248:
 4470 1f7a 4889C3   		movq	%rax, %rbx
 4471              	.L238:
 114:TestTestRunner.cpp ****     list.Add(&test3);
 4472              		.loc 6 114 0 is_stmt 1
 4473 1f7d 488D45B0 		leaq	-80(%rbp), %rax
 4474 1f81 4889C7   		movq	%rax, %rdi
 4475 1f84 E8558600 		call	_ZN12_GLOBAL__N_18MockTestD1Ev
 4475      00
 4476 1f89 EB03     		jmp	.L243
 4477              	.L247:
 4478 1f8b 4889C3   		movq	%rax, %rbx
 4479              	.L243:
 112:TestTestRunner.cpp ****     list.Add(&test2);
 4480              		.loc 6 112 0
 4481 1f8e 488D8570 		leaq	-144(%rbp), %rax
 4481      FFFFFF
 4482 1f95 4889C7   		movq	%rax, %rdi
 4483 1f98 E8418600 		call	_ZN12_GLOBAL__N_18MockTestD1Ev
 4483      00
 4484 1f9d EB03     		jmp	.L244
 4485              	.L246:
 4486 1f9f 4889C3   		movq	%rax, %rbx
 4487              	.L244:
 110:TestTestRunner.cpp ****     list.Add(&test1);
 4488              		.loc 6 110 0
 4489 1fa2 488D8530 		leaq	-208(%rbp), %rax
 4489      FFFFFF
 4490 1fa9 4889C7   		movq	%rax, %rdi
 4491 1fac E82D8600 		call	_ZN12_GLOBAL__N_18MockTestD1Ev
 4491      00
 4492 1fb1 4889D8   		movq	%rbx, %rax
 4493 1fb4 4889C7   		movq	%rax, %rdi
 4494              	.LEHB126:
 4495 1fb7 E8000000 		call	_Unwind_Resume@PLT
 4495      00
 4496              	.LEHE126:
 4497              	.L256:
 4498              		.loc 6 119 0
 4499 1fbc E8000000 		call	__stack_chk_fail@PLT
 4499      00
 4500              	.L245:
 4501 1fc1 4881C408 		addq	$264, %rsp
 4501      010000
 4502 1fc8 5B       		popq	%rbx
 4503 1fc9 5D       		popq	%rbp
 4504              		.cfi_def_cfa 7, 8
 4505 1fca C3       		ret
 4506              		.cfi_endproc
 4507              	.LFE1173:
 4508              		.section	.gcc_except_table
 4509              		.align 4
 4510              	.LLSDA1173:
 4511 02fc FF       		.byte	0xff
 4512 02fd 9B       		.byte	0x9b
 4513 02fe 69       		.uleb128 .LLSDATT1173-.LLSDATTD1173
 4514              	.LLSDATTD1173:
 4515 02ff 01       		.byte	0x1
 4516 0300 61       		.uleb128 .LLSDACSE1173-.LLSDACSB1173
 4517              	.LLSDACSB1173:
 4518 0301 43       		.uleb128 .LEHB110-.LFB1173
 4519 0302 05       		.uleb128 .LEHE110-.LEHB110
 4520 0303 00       		.uleb128 0
 4521 0304 00       		.uleb128 0
 4522 0305 63       		.uleb128 .LEHB111-.LFB1173
 4523 0306 2B       		.uleb128 .LEHE111-.LEHB111
 4524 0307 F505     		.uleb128 .L246-.LFB1173
 4525 0309 00       		.uleb128 0
 4526 030a A901     		.uleb128 .LEHB112-.LFB1173
 4527 030c 28       		.uleb128 .LEHE112-.LEHB112
 4528 030d E105     		.uleb128 .L247-.LFB1173
 4529 030f 00       		.uleb128 0
 4530 0310 E901     		.uleb128 .LEHB113-.LFB1173
 4531 0312 05       		.uleb128 .LEHE113-.LEHB113
 4532 0313 D005     		.uleb128 .L248-.LFB1173
 4533 0315 00       		.uleb128 0
 4534 0316 EE01     		.uleb128 .LEHB114-.LFB1173
 4535 0318 1F       		.uleb128 .LEHE114-.LEHB114
 4536 0319 9604     		.uleb128 .L249-.LFB1173
 4537 031b 01       		.uleb128 0x1
 4538 031c BA02     		.uleb128 .LEHB115-.LFB1173
 4539 031e 05       		.uleb128 .LEHE115-.LEHB115
 4540 031f 9404     		.uleb128 .L250-.LFB1173
 4541 0321 01       		.uleb128 0x1
 4542 0322 CF02     		.uleb128 .LEHB116-.LFB1173
 4543 0324 25       		.uleb128 .LEHE116-.LEHB116
 4544 0325 9204     		.uleb128 .L251-.LFB1173
 4545 0327 01       		.uleb128 0x1
 4546 0328 F402     		.uleb128 .LEHB117-.LFB1173
 4547 032a 1F       		.uleb128 .LEHE117-.LEHB117
 4548 032b F404     		.uleb128 .L253-.LFB1173
 4549 032d 01       		.uleb128 0x1
 4550 032e AB03     		.uleb128 .LEHB118-.LFB1173
 4551 0330 24       		.uleb128 .LEHE118-.LEHB118
 4552 0331 F204     		.uleb128 .L254-.LFB1173
 4553 0333 01       		.uleb128 0x1
 4554 0334 D603     		.uleb128 .LEHB119-.LFB1173
 4555 0336 05       		.uleb128 .LEHE119-.LEHB119
 4556 0337 E105     		.uleb128 .L247-.LFB1173
 4557 0339 00       		.uleb128 0
 4558 033a E503     		.uleb128 .LEHB120-.LFB1173
 4559 033c 05       		.uleb128 .LEHE120-.LEHB120
 4560 033d F505     		.uleb128 .L246-.LFB1173
 4561 033f 00       		.uleb128 0
 4562 0340 F403     		.uleb128 .LEHB121-.LFB1173
 4563 0342 05       		.uleb128 .LEHE121-.LEHB121
 4564 0343 00       		.uleb128 0
 4565 0344 00       		.uleb128 0
 4566 0345 9E04     		.uleb128 .LEHB122-.LFB1173
 4567 0347 40       		.uleb128 .LEHE122-.LEHB122
 4568 0348 E804     		.uleb128 .L252-.LFB1173
 4569 034a 00       		.uleb128 0
 4570 034b DE04     		.uleb128 .LEHB123-.LFB1173
 4571 034d 05       		.uleb128 .LEHE123-.LEHB123
 4572 034e D005     		.uleb128 .L248-.LFB1173
 4573 0350 00       		.uleb128 0
 4574 0351 FC04     		.uleb128 .LEHB124-.LFB1173
 4575 0353 40       		.uleb128 .LEHE124-.LEHB124
 4576 0354 C605     		.uleb128 .L255-.LFB1173
 4577 0356 00       		.uleb128 0
 4578 0357 BC05     		.uleb128 .LEHB125-.LFB1173
 4579 0359 05       		.uleb128 .LEHE125-.LEHB125
 4580 035a D005     		.uleb128 .L248-.LFB1173
 4581 035c 00       		.uleb128 0
 4582 035d 8D06     		.uleb128 .LEHB126-.LFB1173
 4583 035f 05       		.uleb128 .LEHE126-.LEHB126
 4584 0360 00       		.uleb128 0
 4585 0361 00       		.uleb128 0
 4586              	.LLSDACSE1173:
 4587 0362 01       		.byte	0x1
 4588 0363 00       		.byte	0
 4589              		.align 4
 4590 0364 00000000 		.long	0
 4591              	
 4592              	.LLSDATT1173:
 4593              		.text
 4595 1fcb 90       		.align 2
 4597              	_ZN12_GLOBAL__N_158TestRunnerFixtureTestsThatAssertAreReportedAsFailingHelperC2ERKN8UnitTest11TestD
 4598              	.LFB1175:
 120:TestTestRunner.cpp **** 
 121:TestTestRunner.cpp **** TEST_FIXTURE(TestRunnerFixture, TestsThatAssertAreReportedAsFailing)
 4599              		.loc 6 121 0
 4600              		.cfi_startproc
 4601 1fcc 55       		pushq	%rbp
 4602              		.cfi_def_cfa_offset 16
 4603              		.cfi_offset 6, -16
 4604 1fcd 4889E5   		movq	%rsp, %rbp
 4605              		.cfi_def_cfa_register 6
 4606 1fd0 4883EC10 		subq	$16, %rsp
 4607 1fd4 48897DF8 		movq	%rdi, -8(%rbp)
 4608 1fd8 488975F0 		movq	%rsi, -16(%rbp)
 4609              	.LBB70:
 4610              		.loc 6 121 0
 4611 1fdc 488B45F8 		movq	-8(%rbp), %rax
 4612 1fe0 4889C7   		movq	%rax, %rdi
 4613 1fe3 E894E1FF 		call	_ZN12_GLOBAL__N_117TestRunnerFixtureC2Ev
 4613      FF
 4614 1fe8 488B45F8 		movq	-8(%rbp), %rax
 4615 1fec 488B55F0 		movq	-16(%rbp), %rdx
 4616 1ff0 48899058 		movq	%rdx, 2136(%rax)
 4616      080000
 4617              	.LBE70:
 4618 1ff7 90       		nop
 4619 1ff8 C9       		leave
 4620              		.cfi_def_cfa 7, 8
 4621 1ff9 C3       		ret
 4622              		.cfi_endproc
 4623              	.LFE1175:
 4625              		.set	_ZN12_GLOBAL__N_158TestRunnerFixtureTestsThatAssertAreReportedAsFailingHelperC1ERKN8UnitTest1
 4626              		.section	.rodata
 4627              		.align 8
 4628              	.LC33:
 4629 0500 54657374 		.string	"TestsThatAssertAreReportedAsFailing"
 4629      73546861 
 4629      74417373 
 4629      65727441 
 4629      72655265 
 4630              		.text
 4631              		.align 2
 4633              	_ZN12_GLOBAL__N_156TestTestRunnerFixtureTestsThatAssertAreReportedAsFailingC2Ev:
 4634              	.LFB1178:
 4635              		.loc 6 121 0
 4636              		.cfi_startproc
 4637 1ffa 55       		pushq	%rbp
 4638              		.cfi_def_cfa_offset 16
 4639              		.cfi_offset 6, -16
 4640 1ffb 4889E5   		movq	%rsp, %rbp
 4641              		.cfi_def_cfa_register 6
 4642 1ffe 53       		pushq	%rbx
 4643 1fff 4883EC18 		subq	$24, %rsp
 4644              		.cfi_offset 3, -24
 4645 2003 48897DE8 		movq	%rdi, -24(%rbp)
 4646              	.LBB71:
 4647              		.loc 6 121 0
 4648 2007 488B5DE8 		movq	-24(%rbp), %rbx
 4649 200b E8000000 		call	_ZN13UnitTestSuite12GetSuiteNameEv
 4649      00
 4650 2010 41B87900 		movl	$121, %r8d
 4650      0000
 4651 2016 488D0D00 		leaq	.LC6(%rip), %rcx
 4651      000000
 4652 201d 4889C2   		movq	%rax, %rdx
 4653 2020 488D3500 		leaq	.LC33(%rip), %rsi
 4653      000000
 4654 2027 4889DF   		movq	%rbx, %rdi
 4655 202a E8000000 		call	_ZN8UnitTest4TestC2EPKcS2_S2_i@PLT
 4655      00
 4656 202f 488D1500 		leaq	16+_ZTVN12_GLOBAL__N_156TestTestRunnerFixtureTestsThatAssertAreReportedAsFailingE(%rip), %rdx
 4656      000000
 4657 2036 488B45E8 		movq	-24(%rbp), %rax
 4658 203a 488910   		movq	%rdx, (%rax)
 4659              	.LBE71:
 4660 203d 90       		nop
 4661 203e 4883C418 		addq	$24, %rsp
 4662 2042 5B       		popq	%rbx
 4663 2043 5D       		popq	%rbp
 4664              		.cfi_def_cfa 7, 8
 4665 2044 C3       		ret
 4666              		.cfi_endproc
 4667              	.LFE1178:
 4669              		.set	_ZN12_GLOBAL__N_156TestTestRunnerFixtureTestsThatAssertAreReportedAsFailingC1Ev,_ZN12_GLOBAL_
 4670              		.local	_ZN12_GLOBAL__N_164testTestRunnerFixtureTestsThatAssertAreReportedAsFailingInstanceE
 4671              		.comm	_ZN12_GLOBAL__N_164testTestRunnerFixtureTestsThatAssertAreReportedAsFailingInstanceE,56,32
 4672              		.local	_ZN12_GLOBAL__N_157adderTestRunnerFixtureTestsThatAssertAreReportedAsFailingE
 4673              		.comm	_ZN12_GLOBAL__N_157adderTestRunnerFixtureTestsThatAssertAreReportedAsFailingE,1,1
 4674 2045 90       		.align 2
 4676              	_ZN12_GLOBAL__N_158TestRunnerFixtureTestsThatAssertAreReportedAsFailingHelperD2Ev:
 4677              	.LFB1182:
 4678              		.loc 6 121 0
 4679              		.cfi_startproc
 4680 2046 55       		pushq	%rbp
 4681              		.cfi_def_cfa_offset 16
 4682              		.cfi_offset 6, -16
 4683 2047 4889E5   		movq	%rsp, %rbp
 4684              		.cfi_def_cfa_register 6
 4685 204a 4883EC10 		subq	$16, %rsp
 4686 204e 48897DF8 		movq	%rdi, -8(%rbp)
 4687              	.LBB72:
 4688              		.loc 6 121 0
 4689 2052 488B45F8 		movq	-8(%rbp), %rax
 4690 2056 4889C7   		movq	%rax, %rdi
 4691 2059 E86CE1FF 		call	_ZN12_GLOBAL__N_117TestRunnerFixtureD2Ev
 4691      FF
 4692              	.LBE72:
 4693 205e 90       		nop
 4694 205f C9       		leave
 4695              		.cfi_def_cfa 7, 8
 4696 2060 C3       		ret
 4697              		.cfi_endproc
 4698              	.LFE1182:
 4700              		.set	_ZN12_GLOBAL__N_158TestRunnerFixtureTestsThatAssertAreReportedAsFailingHelperD1Ev,_ZN12_GLOBA
 4701 2061 90       		.align 2
 4703              	_ZNK12_GLOBAL__N_156TestTestRunnerFixtureTestsThatAssertAreReportedAsFailing7RunImplEv:
 4704              	.LFB1180:
 4705              		.loc 6 121 0
 4706              		.cfi_startproc
 4707              		.cfi_personality 0x9b,DW.ref.__gxx_personality_v0
 4708              		.cfi_lsda 0x1b,.LLSDA1180
 4709 2062 55       		pushq	%rbp
 4710              		.cfi_def_cfa_offset 16
 4711              		.cfi_offset 6, -16
 4712 2063 4889E5   		movq	%rsp, %rbp
 4713              		.cfi_def_cfa_register 6
 4714 2066 4155     		pushq	%r13
 4715 2068 4154     		pushq	%r12
 4716 206a 53       		pushq	%rbx
 4717 206b 4881ECC8 		subq	$2248, %rsp
 4717      080000
 4718              		.cfi_offset 13, -24
 4719              		.cfi_offset 12, -32
 4720              		.cfi_offset 3, -40
 4721 2072 4889BD28 		movq	%rdi, -2264(%rbp)
 4721      F7FFFF
 4722              		.loc 6 121 0
 4723 2079 64488B04 		movq	%fs:40, %rax
 4723      25280000 
 4723      00
 4724 2082 488945D8 		movq	%rax, -40(%rbp)
 4725 2086 31C0     		xorl	%eax, %eax
 4726 2088 C6853FF7 		movb	$0, -2241(%rbp)
 4726      FFFF00
 4727              	.LBB73:
 4728 208f 488B8528 		movq	-2264(%rbp), %rax
 4728      F7FFFF
 4729 2096 488D5008 		leaq	8(%rax), %rdx
 4730 209a 488D8570 		leaq	-2192(%rbp), %rax
 4730      F7FFFF
 4731 20a1 4889D6   		movq	%rdx, %rsi
 4732 20a4 4889C7   		movq	%rax, %rdi
 4733              	.LEHB127:
 4734 20a7 E820FFFF 		call	_ZN12_GLOBAL__N_158TestRunnerFixtureTestsThatAssertAreReportedAsFailingHelperC1ERKN8UnitTest1
 4734      FF
 4735              	.LEHE127:
 4736              		.loc 6 121 0 is_stmt 0 discriminator 1
 4737 20ac C6853FF7 		movb	$1, -2241(%rbp)
 4737      FFFF01
 4738 20b3 488B8528 		movq	-2264(%rbp), %rax
 4738      F7FFFF
 4739 20ba 488D5008 		leaq	8(%rax), %rdx
 4740 20be 488D8570 		leaq	-2192(%rbp), %rax
 4740      F7FFFF
 4741 20c5 4889D6   		movq	%rdx, %rsi
 4742 20c8 4889C7   		movq	%rax, %rdi
 4743              	.LEHB128:
 4744 20cb E8945900 		call	_ZN8UnitTest11ExecuteTestIN12_GLOBAL__N_158TestRunnerFixtureTestsThatAssertAreReportedAsFaili
 4744      00
 4745              	.LEHE128:
 4746              		.loc 6 121 0 discriminator 3
 4747 20d0 488D8570 		leaq	-2192(%rbp), %rax
 4747      F7FFFF
 4748 20d7 4889C7   		movq	%rax, %rdi
 4749              	.LEHB129:
 4750 20da E867FFFF 		call	_ZN12_GLOBAL__N_158TestRunnerFixtureTestsThatAssertAreReportedAsFailingHelperD1Ev
 4750      FF
 4751              	.LEHE129:
 4752              	.LBE73:
 4753              		.loc 6 121 0
 4754 20df E9690200 		jmp	.L260
 4754      00
 4755              	.L275:
 4756 20e4 4989C4   		movq	%rax, %r12
 4757 20e7 4889D3   		movq	%rdx, %rbx
 4758              	.LBB74:
 4759 20ea 488D8570 		leaq	-2192(%rbp), %rax
 4759      F7FFFF
 4760 20f1 4889C7   		movq	%rax, %rdi
 4761 20f4 E84DFFFF 		call	_ZN12_GLOBAL__N_158TestRunnerFixtureTestsThatAssertAreReportedAsFailingHelperD1Ev
 4761      FF
 4762 20f9 4C89E0   		movq	%r12, %rax
 4763 20fc 4889DA   		movq	%rbx, %rdx
 4764 20ff EB00     		jmp	.L262
 4765              	.L274:
 4766              	.L262:
 4767 2101 4883FA01 		cmpq	$1, %rdx
 4768 2105 740F     		je	.L264
 4769 2107 4883FA02 		cmpq	$2, %rdx
 4770 210b 0F84A700 		je	.L265
 4770      0000
 4771 2111 E94A0100 		jmp	.L280
 4771      00
 4772              	.L264:
 4773              	.LBE74:
 4774              	.LBB75:
 4775 2116 4889C7   		movq	%rax, %rdi
 4776 2119 E8000000 		call	__cxa_begin_catch@PLT
 4776      00
 4777 211e 48898548 		movq	%rax, -2232(%rbp)
 4777      F7FFFF
 4778              	.LEHB130:
 4779 2125 E8000000 		call	_ZN8UnitTest11CurrentTest7ResultsEv@PLT
 4779      00
 4780 212a 488B18   		movq	(%rax), %rbx
 4781 212d 488B8548 		movq	-2232(%rbp), %rax
 4781      F7FFFF
 4782 2134 488B00   		movq	(%rax), %rax
 4783 2137 4883C010 		addq	$16, %rax
 4784 213b 488B00   		movq	(%rax), %rax
 4785 213e 488B9548 		movq	-2232(%rbp), %rdx
 4785      F7FFFF
 4786 2145 4889D7   		movq	%rdx, %rdi
 4787 2148 FFD0     		call	*%rax
 4788              	.LVL10:
 4789 214a 4989C4   		movq	%rax, %r12
 4790 214d 488B8548 		movq	-2232(%rbp), %rax
 4790      F7FFFF
 4791 2154 4889C7   		movq	%rax, %rdi
 4792 2157 E8000000 		call	_ZNK8UnitTest15AssertException10LineNumberEv@PLT
 4792      00
 4793              		.loc 6 121 0 discriminator 5
 4794 215c 4189C5   		movl	%eax, %r13d
 4795 215f 488B8548 		movq	-2232(%rbp), %rax
 4795      F7FFFF
 4796 2166 4889C7   		movq	%rax, %rdi
 4797 2169 E8000000 		call	_ZNK8UnitTest15AssertException8FilenameEv@PLT
 4797      00
 4798              		.loc 6 121 0 discriminator 7
 4799 216e 4889C1   		movq	%rax, %rcx
 4800 2171 488B8528 		movq	-2264(%rbp), %rax
 4800      F7FFFF
 4801 2178 488B5008 		movq	8(%rax), %rdx
 4802 217c 488B8528 		movq	-2264(%rbp), %rax
 4802      F7FFFF
 4803 2183 488B7010 		movq	16(%rax), %rsi
 4804 2187 488D8550 		leaq	-2224(%rbp), %rax
 4804      F7FFFF
 4805 218e 4589E8   		movl	%r13d, %r8d
 4806 2191 4889C7   		movq	%rax, %rdi
 4807 2194 E8000000 		call	_ZN8UnitTest11TestDetailsC1EPKcS2_S2_i@PLT
 4807      00
 4808              		.loc 6 121 0 discriminator 11
 4809 2199 488D8550 		leaq	-2224(%rbp), %rax
 4809      F7FFFF
 4810 21a0 4C89E2   		movq	%r12, %rdx
 4811 21a3 4889C6   		movq	%rax, %rsi
 4812 21a6 4889DF   		movq	%rbx, %rdi
 4813 21a9 E8000000 		call	_ZN8UnitTest11TestResults13OnTestFailureERKNS_11TestDetailsEPKc@PLT
 4813      00
 4814              	.LEHE130:
 4815              		.loc 6 121 0 discriminator 13
 4816 21ae E8000000 		call	__cxa_end_catch@PLT
 4816      00
 4817              	.LBE75:
 4818 21b3 E9950100 		jmp	.L260
 4818      00
 4819              	.L265:
 4820              	.LBB76:
 4821              		.loc 6 121 0
 4822 21b8 4889C7   		movq	%rax, %rdi
 4823 21bb E8000000 		call	__cxa_begin_catch@PLT
 4823      00
 4824 21c0 48898540 		movq	%rax, -2240(%rbp)
 4824      F7FFFF
 4825              	.LBB77:
 4826 21c7 488D8570 		leaq	-2192(%rbp), %rax
 4826      F7FFFF
 4827 21ce 4889C7   		movq	%rax, %rdi
 4828              	.LEHB131:
 4829 21d1 E8000000 		call	_ZN8UnitTest15MemoryOutStreamC1Ev
 4829      00
 4830              	.LEHE131:
 4831              		.loc 6 121 0 discriminator 15
 4832 21d6 488D8570 		leaq	-2192(%rbp), %rax
 4832      F7FFFF
 4833 21dd 488D3500 		leaq	.LC8(%rip), %rsi
 4833      000000
 4834 21e4 4889C7   		movq	%rax, %rdi
 4835              	.LEHB132:
 4836 21e7 E8000000 		call	_ZStlsISt11char_traitsIcEERSt13basic_ostreamIcT_ES5_PKc@PLT
 4836      00
 4837 21ec 4889C3   		movq	%rax, %rbx
 4838 21ef 488B8540 		movq	-2240(%rbp), %rax
 4838      F7FFFF
 4839 21f6 488B00   		movq	(%rax), %rax
 4840 21f9 4883C010 		addq	$16, %rax
 4841 21fd 488B00   		movq	(%rax), %rax
 4842 2200 488B9540 		movq	-2240(%rbp), %rdx
 4842      F7FFFF
 4843 2207 4889D7   		movq	%rdx, %rdi
 4844 220a FFD0     		call	*%rax
 4845              	.LVL11:
 4846 220c 4889C6   		movq	%rax, %rsi
 4847 220f 4889DF   		movq	%rbx, %rdi
 4848 2212 E8000000 		call	_ZStlsISt11char_traitsIcEERSt13basic_ostreamIcT_ES5_PKc@PLT
 4848      00
 4849              		.loc 6 121 0 discriminator 19
 4850 2217 E8000000 		call	_ZN8UnitTest11CurrentTest7ResultsEv@PLT
 4850      00
 4851 221c 488B18   		movq	(%rax), %rbx
 4852 221f 488D8570 		leaq	-2192(%rbp), %rax
 4852      F7FFFF
 4853 2226 4889C7   		movq	%rax, %rdi
 4854 2229 E8000000 		call	_ZNK8UnitTest15MemoryOutStream7GetTextEv@PLT
 4854      00
 4855              		.loc 6 121 0 discriminator 21
 4856 222e 4889C2   		movq	%rax, %rdx
 4857 2231 488B8528 		movq	-2264(%rbp), %rax
 4857      F7FFFF
 4858 2238 4883C008 		addq	$8, %rax
 4859 223c 4889C6   		movq	%rax, %rsi
 4860 223f 4889DF   		movq	%rbx, %rdi
 4861 2242 E8000000 		call	_ZN8UnitTest11TestResults13OnTestFailureERKNS_11TestDetailsEPKc@PLT
 4861      00
 4862              	.LEHE132:
 4863              		.loc 6 121 0 discriminator 25
 4864 2247 488D8570 		leaq	-2192(%rbp), %rax
 4864      F7FFFF
 4865 224e 4889C7   		movq	%rax, %rdi
 4866              	.LEHB133:
 4867 2251 E8000000 		call	_ZN8UnitTest15MemoryOutStreamD1Ev
 4867      00
 4868              	.LEHE133:
 4869              	.LBE77:
 4870              		.loc 6 121 0 discriminator 26
 4871 2256 E8000000 		call	__cxa_end_catch@PLT
 4871      00
 4872              	.LBE76:
 4873 225b E9ED0000 		jmp	.L260
 4873      00
 4874              	.L280:
 4875              		.loc 6 121 0
 4876 2260 4889C7   		movq	%rax, %rdi
 4877 2263 E8000000 		call	__cxa_begin_catch@PLT
 4877      00
 4878 2268 80BD3FF7 		cmpb	$0, -2241(%rbp)
 4878      FFFF00
 4879 226f 7445     		je	.L267
 4880              	.LEHB134:
 4881              		.loc 6 121 0 discriminator 28
 4882 2271 E8000000 		call	_ZN8UnitTest11CurrentTest7ResultsEv@PLT
 4882      00
 4883 2276 488B18   		movq	(%rax), %rbx
 4884 2279 488B8528 		movq	-2264(%rbp), %rax
 4884      F7FFFF
 4885 2280 488D4808 		leaq	8(%rax), %rcx
 4886 2284 488D8550 		leaq	-2224(%rbp), %rax
 4886      F7FFFF
 4887 228b BA790000 		movl	$121, %edx
 4887      00
 4888 2290 4889CE   		movq	%rcx, %rsi
 4889 2293 4889C7   		movq	%rax, %rdi
 4890 2296 E8000000 		call	_ZN8UnitTest11TestDetailsC1ERKS0_i@PLT
 4890      00
 4891              		.loc 6 121 0 discriminator 33
 4892 229b 488D8550 		leaq	-2224(%rbp), %rax
 4892      F7FFFF
 4893 22a2 488D1500 		leaq	.LC9(%rip), %rdx
 4893      000000
 4894 22a9 4889C6   		movq	%rax, %rsi
 4895 22ac 4889DF   		movq	%rbx, %rdi
 4896 22af E8000000 		call	_ZN8UnitTest11TestResults13OnTestFailureERKNS_11TestDetailsEPKc@PLT
 4896      00
 4897 22b4 EB43     		jmp	.L268
 4898              	.L267:
 4899              		.loc 6 121 0 discriminator 29
 4900 22b6 E8000000 		call	_ZN8UnitTest11CurrentTest7ResultsEv@PLT
 4900      00
 4901 22bb 488B18   		movq	(%rax), %rbx
 4902 22be 488B8528 		movq	-2264(%rbp), %rax
 4902      F7FFFF
 4903 22c5 488D4808 		leaq	8(%rax), %rcx
 4904 22c9 488D8550 		leaq	-2224(%rbp), %rax
 4904      F7FFFF
 4905 22d0 BA790000 		movl	$121, %edx
 4905      00
 4906 22d5 4889CE   		movq	%rcx, %rsi
 4907 22d8 4889C7   		movq	%rax, %rdi
 4908 22db E8000000 		call	_ZN8UnitTest11TestDetailsC1ERKS0_i@PLT
 4908      00
 4909              		.loc 6 121 0 discriminator 40
 4910 22e0 488D8550 		leaq	-2224(%rbp), %rax
 4910      F7FFFF
 4911 22e7 488D1500 		leaq	.LC10(%rip), %rdx
 4911      000000
 4912 22ee 4889C6   		movq	%rax, %rsi
 4913 22f1 4889DF   		movq	%rbx, %rdi
 4914 22f4 E8000000 		call	_ZN8UnitTest11TestResults13OnTestFailureERKNS_11TestDetailsEPKc@PLT
 4914      00
 4915              	.LEHE134:
 4916              	.L268:
 4917              	.LEHB135:
 4918              		.loc 6 121 0 discriminator 43
 4919 22f9 E8000000 		call	__cxa_end_catch@PLT
 4919      00
 4920 22fe EB4D     		jmp	.L260
 4921              	.L276:
 4922 2300 4889C3   		movq	%rax, %rbx
 4923              	.LBB79:
 4924              		.loc 6 121 0
 4925 2303 E8000000 		call	__cxa_end_catch@PLT
 4925      00
 4926 2308 4889D8   		movq	%rbx, %rax
 4927 230b 4889C7   		movq	%rax, %rdi
 4928 230e E8000000 		call	_Unwind_Resume@PLT
 4928      00
 4929              	.LEHE135:
 4930              	.L278:
 4931 2313 4889C3   		movq	%rax, %rbx
 4932              	.LBE79:
 4933              	.LBB80:
 4934              	.LBB78:
 4935 2316 488D8570 		leaq	-2192(%rbp), %rax
 4935      F7FFFF
 4936 231d 4889C7   		movq	%rax, %rdi
 4937 2320 E8000000 		call	_ZN8UnitTest15MemoryOutStreamD1Ev
 4937      00
 4938 2325 EB03     		jmp	.L271
 4939              	.L277:
 4940 2327 4889C3   		movq	%rax, %rbx
 4941              	.L271:
 4942              	.LBE78:
 4943 232a E8000000 		call	__cxa_end_catch@PLT
 4943      00
 4944 232f 4889D8   		movq	%rbx, %rax
 4945 2332 4889C7   		movq	%rax, %rdi
 4946              	.LEHB136:
 4947 2335 E8000000 		call	_Unwind_Resume@PLT
 4947      00
 4948              	.LEHE136:
 4949              	.L279:
 4950 233a 4889C3   		movq	%rax, %rbx
 4951              	.LBE80:
 4952 233d E8000000 		call	__cxa_end_catch@PLT
 4952      00
 4953 2342 4889D8   		movq	%rbx, %rax
 4954 2345 4889C7   		movq	%rax, %rdi
 4955              	.LEHB137:
 4956 2348 E8000000 		call	_Unwind_Resume@PLT
 4956      00
 4957              	.LEHE137:
 4958              	.L260:
 4959 234d 488B45D8 		movq	-40(%rbp), %rax
 4960 2351 64483304 		xorq	%fs:40, %rax
 4960      25280000 
 4960      00
 4961 235a 7405     		je	.L273
 4962 235c E8000000 		call	__stack_chk_fail@PLT
 4962      00
 4963              	.L273:
 4964 2361 4881C4C8 		addq	$2248, %rsp
 4964      080000
 4965 2368 5B       		popq	%rbx
 4966 2369 415C     		popq	%r12
 4967 236b 415D     		popq	%r13
 4968 236d 5D       		popq	%rbp
 4969              		.cfi_def_cfa 7, 8
 4970 236e C3       		ret
 4971              		.cfi_endproc
 4972              	.LFE1180:
 4973              		.section	.gcc_except_table
 4974              		.align 4
 4975              	.LLSDA1180:
 4976 0368 FF       		.byte	0xff
 4977 0369 9B       		.byte	0x9b
 4978 036a 55       		.uleb128 .LLSDATT1180-.LLSDATTD1180
 4979              	.LLSDATTD1180:
 4980 036b 01       		.byte	0x1
 4981 036c 3E       		.uleb128 .LLSDACSE1180-.LLSDACSB1180
 4982              	.LLSDACSB1180:
 4983 036d 45       		.uleb128 .LEHB127-.LFB1180
 4984 036e 05       		.uleb128 .LEHE127-.LEHB127
 4985 036f 9F01     		.uleb128 .L274-.LFB1180
 4986 0371 05       		.uleb128 0x5
 4987 0372 69       		.uleb128 .LEHB128-.LFB1180
 4988 0373 05       		.uleb128 .LEHE128-.LEHB128
 4989 0374 8201     		.uleb128 .L275-.LFB1180
 4990 0376 07       		.uleb128 0x7
 4991 0377 78       		.uleb128 .LEHB129-.LFB1180
 4992 0378 05       		.uleb128 .LEHE129-.LEHB129
 4993 0379 9F01     		.uleb128 .L274-.LFB1180
 4994 037b 05       		.uleb128 0x5
 4995 037c C301     		.uleb128 .LEHB130-.LFB1180
 4996 037e 8901     		.uleb128 .LEHE130-.LEHB130
 4997 0380 9E05     		.uleb128 .L276-.LFB1180
 4998 0382 00       		.uleb128 0
 4999 0383 EF02     		.uleb128 .LEHB131-.LFB1180
 5000 0385 05       		.uleb128 .LEHE131-.LEHB131
 5001 0386 C505     		.uleb128 .L277-.LFB1180
 5002 0388 00       		.uleb128 0
 5003 0389 8503     		.uleb128 .LEHB132-.LFB1180
 5004 038b 60       		.uleb128 .LEHE132-.LEHB132
 5005 038c B105     		.uleb128 .L278-.LFB1180
 5006 038e 00       		.uleb128 0
 5007 038f EF03     		.uleb128 .LEHB133-.LFB1180
 5008 0391 05       		.uleb128 .LEHE133-.LEHB133
 5009 0392 C505     		.uleb128 .L277-.LFB1180
 5010 0394 00       		.uleb128 0
 5011 0395 8F04     		.uleb128 .LEHB134-.LFB1180
 5012 0397 8801     		.uleb128 .LEHE134-.LEHB134
 5013 0399 D805     		.uleb128 .L279-.LFB1180
 5014 039b 00       		.uleb128 0
 5015 039c 9705     		.uleb128 .LEHB135-.LFB1180
 5016 039e 1A       		.uleb128 .LEHE135-.LEHB135
 5017 039f 00       		.uleb128 0
 5018 03a0 00       		.uleb128 0
 5019 03a1 D305     		.uleb128 .LEHB136-.LFB1180
 5020 03a3 05       		.uleb128 .LEHE136-.LEHB136
 5021 03a4 00       		.uleb128 0
 5022 03a5 00       		.uleb128 0
 5023 03a6 E605     		.uleb128 .LEHB137-.LFB1180
 5024 03a8 05       		.uleb128 .LEHE137-.LEHB137
 5025 03a9 00       		.uleb128 0
 5026 03aa 00       		.uleb128 0
 5027              	.LLSDACSE1180:
 5028 03ab 03       		.byte	0x3
 5029 03ac 00       		.byte	0
 5030 03ad 02       		.byte	0x2
 5031 03ae 7D       		.byte	0x7d
 5032 03af 01       		.byte	0x1
 5033 03b0 7D       		.byte	0x7d
 5034 03b1 00       		.byte	0
 5035 03b2 7D       		.byte	0x7d
 5036 03b3 00       		.align 4
 5037 03b4 00000000 		.long	0
 5038              	
 5039 03b8 00000000 		.long	DW.ref._ZTISt9exception-.
 5040 03bc 00000000 		.long	DW.ref._ZTIN8UnitTest15AssertExceptionE-.
 5041              	.LLSDATT1180:
 5042              		.text
 5044              		.section	.rodata
 5045 0524 00000000 		.align 8
 5046              	.LC34:
 5047 0528 556E6861 		.string	"Unhandled exception in CHECK_EQUAL(1, reporter.testFailedCount)"
 5047      6E646C65 
 5047      64206578 
 5047      63657074 
 5047      696F6E20 
 5048              		.text
 5049 236f 90       		.align 2
 5051              	_ZN12_GLOBAL__N_158TestRunnerFixtureTestsThatAssertAreReportedAsFailingHelper7RunImplEv:
 5052              	.LFB1184:
 122:TestTestRunner.cpp **** {
 5053              		.loc 6 122 0 is_stmt 1
 5054              		.cfi_startproc
 5055              		.cfi_personality 0x9b,DW.ref.__gxx_personality_v0
 5056              		.cfi_lsda 0x1b,.LLSDA1184
 5057 2370 55       		pushq	%rbp
 5058              		.cfi_def_cfa_offset 16
 5059              		.cfi_offset 6, -16
 5060 2371 4889E5   		movq	%rsp, %rbp
 5061              		.cfi_def_cfa_register 6
 5062 2374 53       		pushq	%rbx
 5063 2375 4881EC88 		subq	$136, %rsp
 5063      000000
 5064              		.cfi_offset 3, -24
 5065 237c 4889BD78 		movq	%rdi, -136(%rbp)
 5065      FFFFFF
 5066              		.loc 6 122 0
 5067 2383 64488B04 		movq	%fs:40, %rax
 5067      25280000 
 5067      00
 5068 238c 488945E8 		movq	%rax, -24(%rbp)
 5069 2390 31C0     		xorl	%eax, %eax
 123:TestTestRunner.cpp ****     MockTest test("test", true, true);
 5070              		.loc 6 123 0
 5071 2392 488D45B0 		leaq	-80(%rbp), %rax
 5072 2396 41B80100 		movl	$1, %r8d
 5072      0000
 5073 239c B9010000 		movl	$1, %ecx
 5073      00
 5074 23a1 BA010000 		movl	$1, %edx
 5074      00
 5075 23a6 488D3500 		leaq	.LC30(%rip), %rsi
 5075      000000
 5076 23ad 4889C7   		movq	%rax, %rdi
 5077              	.LEHB138:
 5078 23b0 E84BDCFF 		call	_ZN12_GLOBAL__N_18MockTestC1EPKcbbi
 5078      FF
 5079              	.LEHE138:
 124:TestTestRunner.cpp ****     list.Add(&test);
 5080              		.loc 6 124 0
 5081 23b5 488B8578 		movq	-136(%rbp), %rax
 5081      FFFFFF
 5082 23bc 488D9048 		leaq	2120(%rax), %rdx
 5082      080000
 5083 23c3 488D45B0 		leaq	-80(%rbp), %rax
 5084 23c7 4889C6   		movq	%rax, %rsi
 5085 23ca 4889D7   		movq	%rdx, %rdi
 5086              	.LEHB139:
 5087 23cd E8000000 		call	_ZN8UnitTest8TestList3AddEPNS_4TestE@PLT
 5087      00
 125:TestTestRunner.cpp **** 
 126:TestTestRunner.cpp **** 	RunTestsIf(list, NULL, True(), 0);
 5088              		.loc 6 126 0
 5089 23d2 488B8578 		movq	-136(%rbp), %rax
 5089      FFFFFF
 5090 23d9 488B9578 		movq	-136(%rbp), %rdx
 5090      FFFFFF
 5091 23e0 488DB248 		leaq	2120(%rdx), %rsi
 5091      080000
 5092 23e7 488D5590 		leaq	-112(%rbp), %rdx
 5093 23eb 41B80000 		movl	$0, %r8d
 5093      0000
 5094 23f1 4889D1   		movq	%rdx, %rcx
 5095 23f4 BA000000 		movl	$0, %edx
 5095      00
 5096 23f9 4889C7   		movq	%rax, %rdi
 5097 23fc E8C74A00 		call	_ZN12_GLOBAL__N_111FixtureBase10RunTestsIfIN8UnitTest4TrueEEEiRKNS2_8TestListEPKcRKT_i
 5097      00
 5098              	.LEHE139:
 5099              	.LEHB140:
 127:TestTestRunner.cpp ****     CHECK_EQUAL(1, reporter.testFailedCount);
 5100              		.loc 6 127 0 discriminator 2
 5101 2401 E8000000 		call	_ZN8UnitTest11CurrentTest7DetailsEv@PLT
 5101      00
 5102 2406 488B08   		movq	(%rax), %rcx
 5103 2409 488D4590 		leaq	-112(%rbp), %rax
 5104 240d BA7F0000 		movl	$127, %edx
 5104      00
 5105 2412 4889CE   		movq	%rcx, %rsi
 5106 2415 4889C7   		movq	%rax, %rdi
 5107 2418 E8000000 		call	_ZN8UnitTest11TestDetailsC1ERKS0_i@PLT
 5107      00
 5108              	.LEHE140:
 5109 241d 488B8578 		movq	-136(%rbp), %rax
 5109      FFFFFF
 5110 2424 488D9824 		leaq	548(%rax), %rbx
 5110      020000
 5111 242b C7458C01 		movl	$1, -116(%rbp)
 5111      000000
 5112              	.LEHB141:
 5113 2432 E8000000 		call	_ZN8UnitTest11CurrentTest7ResultsEv@PLT
 5113      00
 5114 2437 488B00   		movq	(%rax), %rax
 5115 243a 488D5590 		leaq	-112(%rbp), %rdx
 5116 243e 488D758C 		leaq	-116(%rbp), %rsi
 5117 2442 4889D1   		movq	%rdx, %rcx
 5118 2445 4889DA   		movq	%rbx, %rdx
 5119 2448 4889C7   		movq	%rax, %rdi
 5120 244b E8000000 		call	_ZN8UnitTest10CheckEqualIiiEEvRNS_11TestResultsERKT_RKT0_RKNS_11TestDetailsE
 5120      00
 5121              	.LEHE141:
 5122              	.L284:
 123:TestTestRunner.cpp ****     list.Add(&test);
 5123              		.loc 6 123 0
 5124 2450 488D45B0 		leaq	-80(%rbp), %rax
 5125 2454 4889C7   		movq	%rax, %rdi
 5126              	.LEHB142:
 5127 2457 E8828100 		call	_ZN12_GLOBAL__N_18MockTestD1Ev
 5127      00
 5128              	.LEHE142:
 128:TestTestRunner.cpp **** }
 5129              		.loc 6 128 0
 5130 245c 90       		nop
 5131 245d 488B45E8 		movq	-24(%rbp), %rax
 5132 2461 64483304 		xorq	%fs:40, %rax
 5132      25280000 
 5132      00
 5133 246a 7476     		je	.L287
 5134 246c EB6F     		jmp	.L292
 5135              	.L290:
 5136 246e EB00     		jmp	.L283
 5137              	.L289:
 5138              	.L283:
 127:TestTestRunner.cpp ****     CHECK_EQUAL(1, reporter.testFailedCount);
 5139              		.loc 6 127 0
 5140 2470 4889C7   		movq	%rax, %rdi
 5141 2473 E8000000 		call	__cxa_begin_catch@PLT
 5141      00
 5142              	.LEHB143:
 5143 2478 E8000000 		call	_ZN8UnitTest11CurrentTest7ResultsEv@PLT
 5143      00
 5144 247d 488B18   		movq	(%rax), %rbx
 5145 2480 E8000000 		call	_ZN8UnitTest11CurrentTest7DetailsEv@PLT
 5145      00
 127:TestTestRunner.cpp ****     CHECK_EQUAL(1, reporter.testFailedCount);
 5146              		.loc 6 127 0 is_stmt 0 discriminator 8
 5147 2485 488B08   		movq	(%rax), %rcx
 5148 2488 488D4590 		leaq	-112(%rbp), %rax
 5149 248c BA7F0000 		movl	$127, %edx
 5149      00
 5150 2491 4889CE   		movq	%rcx, %rsi
 5151 2494 4889C7   		movq	%rax, %rdi
 5152 2497 E8000000 		call	_ZN8UnitTest11TestDetailsC1ERKS0_i@PLT
 5152      00
 127:TestTestRunner.cpp ****     CHECK_EQUAL(1, reporter.testFailedCount);
 5153              		.loc 6 127 0 discriminator 12
 5154 249c 488D4590 		leaq	-112(%rbp), %rax
 5155 24a0 488D1500 		leaq	.LC34(%rip), %rdx
 5155      000000
 5156 24a7 4889C6   		movq	%rax, %rsi
 5157 24aa 4889DF   		movq	%rbx, %rdi
 5158 24ad E8000000 		call	_ZN8UnitTest11TestResults13OnTestFailureERKNS_11TestDetailsEPKc@PLT
 5158      00
 5159              	.LEHE143:
 5160              	.LEHB144:
 127:TestTestRunner.cpp ****     CHECK_EQUAL(1, reporter.testFailedCount);
 5161              		.loc 6 127 0 discriminator 14
 5162 24b2 E8000000 		call	__cxa_end_catch@PLT
 5162      00
 5163              	.LEHE144:
 127:TestTestRunner.cpp ****     CHECK_EQUAL(1, reporter.testFailedCount);
 5164              		.loc 6 127 0
 5165 24b7 EB97     		jmp	.L284
 5166              	.L291:
 5167 24b9 4889C3   		movq	%rax, %rbx
 5168 24bc E8000000 		call	__cxa_end_catch@PLT
 5168      00
 5169 24c1 EB03     		jmp	.L286
 5170              	.L288:
 5171 24c3 4889C3   		movq	%rax, %rbx
 5172              	.L286:
 123:TestTestRunner.cpp ****     list.Add(&test);
 5173              		.loc 6 123 0 is_stmt 1
 5174 24c6 488D45B0 		leaq	-80(%rbp), %rax
 5175 24ca 4889C7   		movq	%rax, %rdi
 5176 24cd E80C8100 		call	_ZN12_GLOBAL__N_18MockTestD1Ev
 5176      00
 5177 24d2 4889D8   		movq	%rbx, %rax
 5178 24d5 4889C7   		movq	%rax, %rdi
 5179              	.LEHB145:
 5180 24d8 E8000000 		call	_Unwind_Resume@PLT
 5180      00
 5181              	.LEHE145:
 5182              	.L292:
 5183              		.loc 6 128 0
 5184 24dd E8000000 		call	__stack_chk_fail@PLT
 5184      00
 5185              	.L287:
 5186 24e2 4881C488 		addq	$136, %rsp
 5186      000000
 5187 24e9 5B       		popq	%rbx
 5188 24ea 5D       		popq	%rbp
 5189              		.cfi_def_cfa 7, 8
 5190 24eb C3       		ret
 5191              		.cfi_endproc
 5192              	.LFE1184:
 5193              		.section	.gcc_except_table
 5194              		.align 4
 5195              	.LLSDA1184:
 5196 03c0 FF       		.byte	0xff
 5197 03c1 9B       		.byte	0x9b
 5198 03c2 35       		.uleb128 .LLSDATT1184-.LLSDATTD1184
 5199              	.LLSDATTD1184:
 5200 03c3 01       		.byte	0x1
 5201 03c4 2B       		.uleb128 .LLSDACSE1184-.LLSDACSB1184
 5202              	.LLSDACSB1184:
 5203 03c5 40       		.uleb128 .LEHB138-.LFB1184
 5204 03c6 05       		.uleb128 .LEHE138-.LEHB138
 5205 03c7 00       		.uleb128 0
 5206 03c8 00       		.uleb128 0
 5207 03c9 5D       		.uleb128 .LEHB139-.LFB1184
 5208 03ca 34       		.uleb128 .LEHE139-.LEHB139
