   1              		.file	"TestTestResults.cpp"
   2              		.text
   3              	.Ltext0:
   4              		.section	.rodata
   5              	.LC0:
   6 0000 44656661 		.string	"DefaultSuite"
   6      756C7453 
   6      75697465 
   6      00
   7              		.section	.text._ZN13UnitTestSuite12GetSuiteNameEv,"axG",@progbits,_ZN13UnitTestSuite12GetSuiteName
   8              		.weak	_ZN13UnitTestSuite12GetSuiteNameEv
  10              	_ZN13UnitTestSuite12GetSuiteNameEv:
  11              	.LFB0:
  12              		.file 1 "../TestSuite.h"
   1:../TestSuite.h **** #ifndef UNITTEST_TESTSUITE_H
   2:../TestSuite.h **** #define UNITTEST_TESTSUITE_H
   3:../TestSuite.h **** 
   4:../TestSuite.h **** namespace UnitTestSuite {
   5:../TestSuite.h **** 
   6:../TestSuite.h ****     inline char const* GetSuiteName ()
   7:../TestSuite.h ****     {
  13              		.loc 1 7 0
  14              		.cfi_startproc
  15 0000 55       		pushq	%rbp
  16              		.cfi_def_cfa_offset 16
  17              		.cfi_offset 6, -16
  18 0001 4889E5   		movq	%rsp, %rbp
  19              		.cfi_def_cfa_register 6
   8:../TestSuite.h ****         return "DefaultSuite";
  20              		.loc 1 8 0
  21 0004 488D0500 		leaq	.LC0(%rip), %rax
  21      000000
   9:../TestSuite.h ****     }
  22              		.loc 1 9 0
  23 000b 5D       		popq	%rbp
  24              		.cfi_def_cfa 7, 8
  25 000c C3       		ret
  26              		.cfi_endproc
  27              	.LFE0:
  29              		.section	.text._ZN8UnitTest15MemoryOutStreamC1Ev,"axG",@progbits,_ZN8UnitTest15MemoryOutStreamC1Ev
  30              		.align 2
  31              		.weak	_ZN8UnitTest15MemoryOutStreamC1Ev
  33              	_ZN8UnitTest15MemoryOutStreamC1Ev:
  34              	.LFB1076:
  35              		.file 2 "../MemoryOutStream.h"
   1:../MemoryOutStream.h **** #ifndef UNITTEST_MEMORYOUTSTREAM_H
   2:../MemoryOutStream.h **** #define UNITTEST_MEMORYOUTSTREAM_H
   3:../MemoryOutStream.h **** 
   4:../MemoryOutStream.h **** #include "Config.h"
   5:../MemoryOutStream.h **** 
   6:../MemoryOutStream.h **** #ifndef UNITTEST_USE_CUSTOM_STREAMS
   7:../MemoryOutStream.h **** 
   8:../MemoryOutStream.h **** #include <sstream>
   9:../MemoryOutStream.h **** 
  10:../MemoryOutStream.h **** namespace UnitTest
  11:../MemoryOutStream.h **** {
  12:../MemoryOutStream.h **** 
  13:../MemoryOutStream.h **** class MemoryOutStream : public std::ostringstream
  14:../MemoryOutStream.h **** {
  15:../MemoryOutStream.h **** public:
  16:../MemoryOutStream.h ****     MemoryOutStream() {}
  36              		.loc 2 16 0
  37              		.cfi_startproc
  38              		.cfi_personality 0x9b,DW.ref.__gxx_personality_v0
  39              		.cfi_lsda 0x1b,.LLSDA1076
  40 0000 55       		pushq	%rbp
  41              		.cfi_def_cfa_offset 16
  42              		.cfi_offset 6, -16
  43 0001 4889E5   		movq	%rsp, %rbp
  44              		.cfi_def_cfa_register 6
  45 0004 53       		pushq	%rbx
  46 0005 4883EC18 		subq	$24, %rsp
  47              		.cfi_offset 3, -24
  48 0009 48897DE8 		movq	%rdi, -24(%rbp)
  49              	.LBB2:
  50              		.loc 2 16 0
  51 000d 488B45E8 		movq	-24(%rbp), %rax
  52 0011 48059000 		addq	$144, %rax
  52      0000
  53 0017 4889C7   		movq	%rax, %rdi
  54              	.LEHB0:
  55 001a E8000000 		call	_ZNSt9basic_iosIcSt11char_traitsIcEEC2Ev@PLT
  55      00
  56              	.LEHE0:
  57 001f 488B45E8 		movq	-24(%rbp), %rax
  58 0023 488D0D00 		leaq	8+_ZTTN8UnitTest15MemoryOutStreamE(%rip), %rcx
  58      000000
  59 002a BA100000 		movl	$16, %edx
  59      00
  60 002f 4889CE   		movq	%rcx, %rsi
  61 0032 4889C7   		movq	%rax, %rdi
  62              	.LEHB1:
  63 0035 E8000000 		call	_ZNSt7__cxx1119basic_ostringstreamIcSt11char_traitsIcESaIcEEC2ESt13_Ios_Openmode@PLT
  63      00
  64              	.LEHE1:
  65              		.loc 2 16 0 is_stmt 0 discriminator 8
  66 003a 488D1500 		leaq	24+_ZTVN8UnitTest15MemoryOutStreamE(%rip), %rdx
  66      000000
  67 0041 488B45E8 		movq	-24(%rbp), %rax
  68 0045 488910   		movq	%rdx, (%rax)
  69 0048 488B45E8 		movq	-24(%rbp), %rax
  70 004c 488D9090 		leaq	144(%rax), %rdx
  70      000000
  71 0053 488D0500 		leaq	64+_ZTVN8UnitTest15MemoryOutStreamE(%rip), %rax
  71      000000
  72 005a 488902   		movq	%rax, (%rdx)
  73 005d 488B45E8 		movq	-24(%rbp), %rax
  74 0061 4883C070 		addq	$112, %rax
  75 0065 4889C7   		movq	%rax, %rdi
  76              	.LEHB2:
  77 0068 E8000000 		call	_ZNSt7__cxx1112basic_stringIcSt11char_traitsIcESaIcEEC1Ev@PLT
  77      00
  78              	.LEHE2:
  79              	.LBE2:
  80              		.loc 2 16 0
  81 006d EB3B     		jmp	.L9
  82              	.L7:
  83 006f 4889C3   		movq	%rax, %rbx
  84              	.LBB3:
  85 0072 488B45E8 		movq	-24(%rbp), %rax
  86 0076 488D1500 		leaq	8+_ZTTN8UnitTest15MemoryOutStreamE(%rip), %rdx
  86      000000
  87 007d 4889D6   		movq	%rdx, %rsi
  88 0080 4889C7   		movq	%rax, %rdi
  89 0083 E8000000 		call	_ZNSt7__cxx1119basic_ostringstreamIcSt11char_traitsIcESaIcEED2Ev@PLT
  89      00
  90 0088 EB03     		jmp	.L8
  91              	.L6:
  92 008a 4889C3   		movq	%rax, %rbx
  93              	.L8:
  94              		.loc 2 16 0 discriminator 11
  95 008d 488B45E8 		movq	-24(%rbp), %rax
  96 0091 48059000 		addq	$144, %rax
  96      0000
  97 0097 4889C7   		movq	%rax, %rdi
  98 009a E8000000 		call	_ZNSt9basic_iosIcSt11char_traitsIcEED2Ev@PLT
  98      00
  99 009f 4889D8   		movq	%rbx, %rax
 100 00a2 4889C7   		movq	%rax, %rdi
 101              	.LEHB3:
 102 00a5 E8000000 		call	_Unwind_Resume@PLT
 102      00
 103              	.LEHE3:
 104              	.L9:
 105              	.LBE3:
 106              		.loc 2 16 0
 107 00aa 4883C418 		addq	$24, %rsp
 108 00ae 5B       		popq	%rbx
 109 00af 5D       		popq	%rbp
 110              		.cfi_def_cfa 7, 8
 111 00b0 C3       		ret
 112              		.cfi_endproc
 113              	.LFE1076:
 114              		.globl	__gxx_personality_v0
 115              		.section	.gcc_except_table._ZN8UnitTest15MemoryOutStreamC1Ev,"aG",@progbits,_ZN8UnitTest15MemoryOu
 116              	.LLSDA1076:
 117 0000 FF       		.byte	0xff
 118 0001 FF       		.byte	0xff
 119 0002 01       		.byte	0x1
 120 0003 12       		.uleb128 .LLSDACSE1076-.LLSDACSB1076
 121              	.LLSDACSB1076:
 122 0004 1A       		.uleb128 .LEHB0-.LFB1076
 123 0005 05       		.uleb128 .LEHE0-.LEHB0
 124 0006 00       		.uleb128 0
 125 0007 00       		.uleb128 0
 126 0008 35       		.uleb128 .LEHB1-.LFB1076
 127 0009 05       		.uleb128 .LEHE1-.LEHB1
 128 000a 8A01     		.uleb128 .L6-.LFB1076
 129 000c 00       		.uleb128 0
 130 000d 68       		.uleb128 .LEHB2-.LFB1076
 131 000e 05       		.uleb128 .LEHE2-.LEHB2
 132 000f 6F       		.uleb128 .L7-.LFB1076
 133 0010 00       		.uleb128 0
 134 0011 A501     		.uleb128 .LEHB3-.LFB1076
 135 0013 05       		.uleb128 .LEHE3-.LEHB3
 136 0014 00       		.uleb128 0
 137 0015 00       		.uleb128 0
 138              	.LLSDACSE1076:
 139              		.section	.text._ZN8UnitTest15MemoryOutStreamC1Ev,"axG",@progbits,_ZN8UnitTest15MemoryOutStreamC1Ev
 141              		.section	.text._ZN8UnitTest12TestReporterC2Ev,"axG",@progbits,_ZN8UnitTest12TestReporterC5Ev,comda
 142              		.align 2
 143              		.weak	_ZN8UnitTest12TestReporterC2Ev
 145              	_ZN8UnitTest12TestReporterC2Ev:
 146              	.LFB1090:
 147              		.file 3 "../TestReporter.h"
   1:../TestReporter.h **** #ifndef UNITTEST_TESTREPORTER_H
   2:../TestReporter.h **** #define UNITTEST_TESTREPORTER_H
   3:../TestReporter.h **** 
   4:../TestReporter.h **** namespace UnitTest {
   5:../TestReporter.h **** 
   6:../TestReporter.h **** class TestDetails;
   7:../TestReporter.h **** 
   8:../TestReporter.h **** class TestReporter
 148              		.loc 3 8 0 is_stmt 1
 149              		.cfi_startproc
 150 0000 55       		pushq	%rbp
 151              		.cfi_def_cfa_offset 16
 152              		.cfi_offset 6, -16
 153 0001 4889E5   		movq	%rsp, %rbp
 154              		.cfi_def_cfa_register 6
 155 0004 48897DF8 		movq	%rdi, -8(%rbp)
 156              	.LBB4:
 157              		.loc 3 8 0
 158 0008 488D1500 		leaq	16+_ZTVN8UnitTest12TestReporterE(%rip), %rdx
 158      000000
 159 000f 488B45F8 		movq	-8(%rbp), %rax
 160 0013 488910   		movq	%rdx, (%rax)
 161              	.LBE4:
 162 0016 90       		nop
 163 0017 5D       		popq	%rbp
 164              		.cfi_def_cfa 7, 8
 165 0018 C3       		ret
 166              		.cfi_endproc
 167              	.LFE1090:
 169              		.weak	_ZN8UnitTest12TestReporterC1Ev
 170              		.set	_ZN8UnitTest12TestReporterC1Ev,_ZN8UnitTest12TestReporterC2Ev
 171              		.section	.text._ZN17RecordingReporterC2Ev,"axG",@progbits,_ZN17RecordingReporterC5Ev,comdat
 172              		.align 2
 173              		.weak	_ZN17RecordingReporterC2Ev
 175              	_ZN17RecordingReporterC2Ev:
 176              	.LFB1092:
 177              		.file 4 "RecordingReporter.h"
   1:RecordingReporter.h **** #ifndef UNITTEST_RECORDINGREPORTER_H
   2:RecordingReporter.h **** #define UNITTEST_RECORDINGREPORTER_H
   3:RecordingReporter.h **** 
   4:RecordingReporter.h **** #include "../TestReporter.h"
   5:RecordingReporter.h **** #include <cstring>
   6:RecordingReporter.h **** 
   7:RecordingReporter.h **** #include "../TestDetails.h"
   8:RecordingReporter.h **** 
   9:RecordingReporter.h **** struct RecordingReporter : public UnitTest::TestReporter
  10:RecordingReporter.h **** {
  11:RecordingReporter.h **** private:
  12:RecordingReporter.h ****     enum { kMaxStringLength = 256 };
  13:RecordingReporter.h **** 
  14:RecordingReporter.h **** public:
  15:RecordingReporter.h ****     RecordingReporter()
 178              		.loc 4 15 0
 179              		.cfi_startproc
 180 0000 55       		pushq	%rbp
 181              		.cfi_def_cfa_offset 16
 182              		.cfi_offset 6, -16
 183 0001 4889E5   		movq	%rsp, %rbp
 184              		.cfi_def_cfa_register 6
 185 0004 4883EC10 		subq	$16, %rsp
 186 0008 48897DF8 		movq	%rdi, -8(%rbp)
 187              	.LBB5:
  16:RecordingReporter.h ****         : testRunCount(0)
  17:RecordingReporter.h ****         , testFailedCount(0)
  18:RecordingReporter.h ****         , lastFailedLine(0)
  19:RecordingReporter.h ****         , testFinishedCount(0)
  20:RecordingReporter.h ****         , lastFinishedTestTime(0)
  21:RecordingReporter.h ****         , summaryTotalTestCount(0)
  22:RecordingReporter.h ****         , summaryFailedTestCount(0)
  23:RecordingReporter.h ****         , summaryFailureCount(0)
  24:RecordingReporter.h ****         , summarySecondsElapsed(0)
 188              		.loc 4 24 0
 189 000c 488B45F8 		movq	-8(%rbp), %rax
 190 0010 4889C7   		movq	%rax, %rdi
 191 0013 E8000000 		call	_ZN8UnitTest12TestReporterC2Ev
 191      00
 192 0018 488D1500 		leaq	16+_ZTV17RecordingReporter(%rip), %rdx
 192      000000
 193 001f 488B45F8 		movq	-8(%rbp), %rax
 194 0023 488910   		movq	%rdx, (%rax)
 195 0026 488B45F8 		movq	-8(%rbp), %rax
 196 002a C7400800 		movl	$0, 8(%rax)
 196      000000
 197 0031 488B45F8 		movq	-8(%rbp), %rax
 198 0035 C7800C02 		movl	$0, 524(%rax)
 198      00000000 
 198      0000
 199 003f 488B45F8 		movq	-8(%rbp), %rax
 200 0043 C7801003 		movl	$0, 784(%rax)
 200      00000000 
 200      0000
 201 004d 488B45F8 		movq	-8(%rbp), %rax
 202 0051 C7801406 		movl	$0, 1556(%rax)
 202      00000000 
 202      0000
 203 005b 488B45F8 		movq	-8(%rbp), %rax
 204 005f 660FEFC0 		pxor	%xmm0, %xmm0
 205 0063 F30F1180 		movss	%xmm0, 2072(%rax)
 205      18080000 
 206 006b 488B45F8 		movq	-8(%rbp), %rax
 207 006f C7801C08 		movl	$0, 2076(%rax)
 207      00000000 
 207      0000
 208 0079 488B45F8 		movq	-8(%rbp), %rax
 209 007d C7802008 		movl	$0, 2080(%rax)
 209      00000000 
 209      0000
 210 0087 488B45F8 		movq	-8(%rbp), %rax
 211 008b C7802408 		movl	$0, 2084(%rax)
 211      00000000 
 211      0000
 212 0095 488B45F8 		movq	-8(%rbp), %rax
 213 0099 660FEFC0 		pxor	%xmm0, %xmm0
 214 009d F30F1180 		movss	%xmm0, 2088(%rax)
 214      28080000 
  25:RecordingReporter.h ****     {
  26:RecordingReporter.h ****         lastStartedSuite[0] = '\0';
 215              		.loc 4 26 0
 216 00a5 488B45F8 		movq	-8(%rbp), %rax
 217 00a9 C6400C00 		movb	$0, 12(%rax)
  27:RecordingReporter.h ****         lastStartedTest[0] = '\0';
 218              		.loc 4 27 0
 219 00ad 488B45F8 		movq	-8(%rbp), %rax
 220 00b1 C6800C01 		movb	$0, 268(%rax)
 220      000000
  28:RecordingReporter.h ****         lastFailedFile[0] = '\0';
 221              		.loc 4 28 0
 222 00b8 488B45F8 		movq	-8(%rbp), %rax
 223 00bc C6801002 		movb	$0, 528(%rax)
 223      000000
  29:RecordingReporter.h ****         lastFailedSuite[0] = '\0';
 224              		.loc 4 29 0
 225 00c3 488B45F8 		movq	-8(%rbp), %rax
 226 00c7 C6801403 		movb	$0, 788(%rax)
 226      000000
  30:RecordingReporter.h ****         lastFailedTest[0] = '\0';
 227              		.loc 4 30 0
 228 00ce 488B45F8 		movq	-8(%rbp), %rax
 229 00d2 C6801404 		movb	$0, 1044(%rax)
 229      000000
  31:RecordingReporter.h ****         lastFailedMessage[0] = '\0';
 230              		.loc 4 31 0
 231 00d9 488B45F8 		movq	-8(%rbp), %rax
 232 00dd C6801405 		movb	$0, 1300(%rax)
 232      000000
  32:RecordingReporter.h ****         lastFinishedSuite[0] = '\0';
 233              		.loc 4 32 0
 234 00e4 488B45F8 		movq	-8(%rbp), %rax
 235 00e8 C6801806 		movb	$0, 1560(%rax)
 235      000000
  33:RecordingReporter.h ****         lastFinishedTest[0] = '\0';
 236              		.loc 4 33 0
 237 00ef 488B45F8 		movq	-8(%rbp), %rax
 238 00f3 C6801807 		movb	$0, 1816(%rax)
 238      000000
 239              	.LBE5:
  34:RecordingReporter.h ****     }
 240              		.loc 4 34 0
 241 00fa 90       		nop
 242 00fb C9       		leave
 243              		.cfi_def_cfa 7, 8
 244 00fc C3       		ret
 245              		.cfi_endproc
 246              	.LFE1092:
 248              		.weak	_ZN17RecordingReporterC1Ev
 249              		.set	_ZN17RecordingReporterC1Ev,_ZN17RecordingReporterC2Ev
 250              		.section	.text._ZN17RecordingReporter15ReportTestStartERKN8UnitTest11TestDetailsE,"axG",@progbits,
 251              		.align 2
 252              		.weak	_ZN17RecordingReporter15ReportTestStartERKN8UnitTest11TestDetailsE
 254              	_ZN17RecordingReporter15ReportTestStartERKN8UnitTest11TestDetailsE:
 255              	.LFB1094:
  35:RecordingReporter.h **** 
  36:RecordingReporter.h ****     virtual void ReportTestStart(UnitTest::TestDetails const& test)
 256              		.loc 4 36 0
 257              		.cfi_startproc
 258 0000 55       		pushq	%rbp
 259              		.cfi_def_cfa_offset 16
 260              		.cfi_offset 6, -16
 261 0001 4889E5   		movq	%rsp, %rbp
 262              		.cfi_def_cfa_register 6
 263 0004 4883EC10 		subq	$16, %rsp
 264 0008 48897DF8 		movq	%rdi, -8(%rbp)
 265 000c 488975F0 		movq	%rsi, -16(%rbp)
  37:RecordingReporter.h ****     {
  38:RecordingReporter.h **** 		using namespace std;
  39:RecordingReporter.h **** 
  40:RecordingReporter.h ****         ++testRunCount;
 266              		.loc 4 40 0
 267 0010 488B45F8 		movq	-8(%rbp), %rax
 268 0014 8B4008   		movl	8(%rax), %eax
 269 0017 8D5001   		leal	1(%rax), %edx
 270 001a 488B45F8 		movq	-8(%rbp), %rax
 271 001e 895008   		movl	%edx, 8(%rax)
  41:RecordingReporter.h ****         strcpy(lastStartedSuite, test.suiteName);
 272              		.loc 4 41 0
 273 0021 488B45F0 		movq	-16(%rbp), %rax
 274 0025 488B00   		movq	(%rax), %rax
 275 0028 488B55F8 		movq	-8(%rbp), %rdx
 276 002c 4883C20C 		addq	$12, %rdx
 277 0030 4889C6   		movq	%rax, %rsi
 278 0033 4889D7   		movq	%rdx, %rdi
 279 0036 E8000000 		call	strcpy@PLT
 279      00
  42:RecordingReporter.h ****         strcpy(lastStartedTest, test.testName);
 280              		.loc 4 42 0
 281 003b 488B45F0 		movq	-16(%rbp), %rax
 282 003f 488B4008 		movq	8(%rax), %rax
 283 0043 488B55F8 		movq	-8(%rbp), %rdx
 284 0047 4881C20C 		addq	$268, %rdx
 284      010000
 285 004e 4889C6   		movq	%rax, %rsi
 286 0051 4889D7   		movq	%rdx, %rdi
 287 0054 E8000000 		call	strcpy@PLT
 287      00
  43:RecordingReporter.h ****     }
 288              		.loc 4 43 0
 289 0059 90       		nop
 290 005a C9       		leave
 291              		.cfi_def_cfa 7, 8
 292 005b C3       		ret
 293              		.cfi_endproc
 294              	.LFE1094:
 296              		.section	.text._ZN17RecordingReporter13ReportFailureERKN8UnitTest11TestDetailsEPKc,"axG",@progbits
 297              		.align 2
 298              		.weak	_ZN17RecordingReporter13ReportFailureERKN8UnitTest11TestDetailsEPKc
 300              	_ZN17RecordingReporter13ReportFailureERKN8UnitTest11TestDetailsEPKc:
 301              	.LFB1095:
  44:RecordingReporter.h **** 
  45:RecordingReporter.h ****     virtual void ReportFailure(UnitTest::TestDetails const& test, char const* failure)
 302              		.loc 4 45 0
 303              		.cfi_startproc
 304 0000 55       		pushq	%rbp
 305              		.cfi_def_cfa_offset 16
 306              		.cfi_offset 6, -16
 307 0001 4889E5   		movq	%rsp, %rbp
 308              		.cfi_def_cfa_register 6
 309 0004 4883EC20 		subq	$32, %rsp
 310 0008 48897DF8 		movq	%rdi, -8(%rbp)
 311 000c 488975F0 		movq	%rsi, -16(%rbp)
 312 0010 488955E8 		movq	%rdx, -24(%rbp)
  46:RecordingReporter.h ****     {
  47:RecordingReporter.h **** 		using namespace std;
  48:RecordingReporter.h **** 
  49:RecordingReporter.h **** 		++testFailedCount;
 313              		.loc 4 49 0
 314 0014 488B45F8 		movq	-8(%rbp), %rax
 315 0018 8B800C02 		movl	524(%rax), %eax
 315      0000
 316 001e 8D5001   		leal	1(%rax), %edx
 317 0021 488B45F8 		movq	-8(%rbp), %rax
 318 0025 89900C02 		movl	%edx, 524(%rax)
 318      0000
  50:RecordingReporter.h ****         strcpy(lastFailedFile, test.filename);
 319              		.loc 4 50 0
 320 002b 488B45F0 		movq	-16(%rbp), %rax
 321 002f 488B4010 		movq	16(%rax), %rax
 322 0033 488B55F8 		movq	-8(%rbp), %rdx
 323 0037 4881C210 		addq	$528, %rdx
 323      020000
 324 003e 4889C6   		movq	%rax, %rsi
 325 0041 4889D7   		movq	%rdx, %rdi
 326 0044 E8000000 		call	strcpy@PLT
 326      00
  51:RecordingReporter.h ****         lastFailedLine = test.lineNumber;
 327              		.loc 4 51 0
 328 0049 488B45F0 		movq	-16(%rbp), %rax
 329 004d 8B5018   		movl	24(%rax), %edx
 330 0050 488B45F8 		movq	-8(%rbp), %rax
 331 0054 89901003 		movl	%edx, 784(%rax)
 331      0000
  52:RecordingReporter.h ****         strcpy(lastFailedSuite, test.suiteName);
 332              		.loc 4 52 0
 333 005a 488B45F0 		movq	-16(%rbp), %rax
 334 005e 488B00   		movq	(%rax), %rax
 335 0061 488B55F8 		movq	-8(%rbp), %rdx
 336 0065 4881C214 		addq	$788, %rdx
 336      030000
 337 006c 4889C6   		movq	%rax, %rsi
 338 006f 4889D7   		movq	%rdx, %rdi
 339 0072 E8000000 		call	strcpy@PLT
 339      00
  53:RecordingReporter.h ****         strcpy(lastFailedTest, test.testName);
 340              		.loc 4 53 0
 341 0077 488B45F0 		movq	-16(%rbp), %rax
 342 007b 488B4008 		movq	8(%rax), %rax
 343 007f 488B55F8 		movq	-8(%rbp), %rdx
 344 0083 4881C214 		addq	$1044, %rdx
 344      040000
 345 008a 4889C6   		movq	%rax, %rsi
 346 008d 4889D7   		movq	%rdx, %rdi
 347 0090 E8000000 		call	strcpy@PLT
 347      00
  54:RecordingReporter.h ****         strcpy(lastFailedMessage, failure);
 348              		.loc 4 54 0
 349 0095 488B45F8 		movq	-8(%rbp), %rax
 350 0099 488D9014 		leaq	1300(%rax), %rdx
 350      050000
 351 00a0 488B45E8 		movq	-24(%rbp), %rax
 352 00a4 4889C6   		movq	%rax, %rsi
 353 00a7 4889D7   		movq	%rdx, %rdi
 354 00aa E8000000 		call	strcpy@PLT
 354      00
  55:RecordingReporter.h ****     }
 355              		.loc 4 55 0
 356 00af 90       		nop
 357 00b0 C9       		leave
 358              		.cfi_def_cfa 7, 8
 359 00b1 C3       		ret
 360              		.cfi_endproc
 361              	.LFE1095:
 363              		.section	.text._ZN17RecordingReporter16ReportTestFinishERKN8UnitTest11TestDetailsEf,"axG",@progbit
 364              		.align 2
 365              		.weak	_ZN17RecordingReporter16ReportTestFinishERKN8UnitTest11TestDetailsEf
 367              	_ZN17RecordingReporter16ReportTestFinishERKN8UnitTest11TestDetailsEf:
 368              	.LFB1096:
  56:RecordingReporter.h **** 
  57:RecordingReporter.h ****     virtual void ReportTestFinish(UnitTest::TestDetails const& test, float testDuration)
 369              		.loc 4 57 0
 370              		.cfi_startproc
 371 0000 55       		pushq	%rbp
 372              		.cfi_def_cfa_offset 16
 373              		.cfi_offset 6, -16
 374 0001 4889E5   		movq	%rsp, %rbp
 375              		.cfi_def_cfa_register 6
 376 0004 4883EC20 		subq	$32, %rsp
 377 0008 48897DF8 		movq	%rdi, -8(%rbp)
 378 000c 488975F0 		movq	%rsi, -16(%rbp)
 379 0010 F30F1145 		movss	%xmm0, -20(%rbp)
 379      EC
  58:RecordingReporter.h ****     {
  59:RecordingReporter.h **** 		using namespace std;
  60:RecordingReporter.h **** 
  61:RecordingReporter.h **** 		++testFinishedCount;
 380              		.loc 4 61 0
 381 0015 488B45F8 		movq	-8(%rbp), %rax
 382 0019 8B801406 		movl	1556(%rax), %eax
 382      0000
 383 001f 8D5001   		leal	1(%rax), %edx
 384 0022 488B45F8 		movq	-8(%rbp), %rax
 385 0026 89901406 		movl	%edx, 1556(%rax)
 385      0000
  62:RecordingReporter.h ****         strcpy(lastFinishedSuite, test.suiteName);
 386              		.loc 4 62 0
 387 002c 488B45F0 		movq	-16(%rbp), %rax
 388 0030 488B00   		movq	(%rax), %rax
 389 0033 488B55F8 		movq	-8(%rbp), %rdx
 390 0037 4881C218 		addq	$1560, %rdx
 390      060000
 391 003e 4889C6   		movq	%rax, %rsi
 392 0041 4889D7   		movq	%rdx, %rdi
 393 0044 E8000000 		call	strcpy@PLT
 393      00
  63:RecordingReporter.h ****         strcpy(lastFinishedTest, test.testName);
 394              		.loc 4 63 0
 395 0049 488B45F0 		movq	-16(%rbp), %rax
 396 004d 488B4008 		movq	8(%rax), %rax
 397 0051 488B55F8 		movq	-8(%rbp), %rdx
 398 0055 4881C218 		addq	$1816, %rdx
 398      070000
 399 005c 4889C6   		movq	%rax, %rsi
 400 005f 4889D7   		movq	%rdx, %rdi
 401 0062 E8000000 		call	strcpy@PLT
 401      00
  64:RecordingReporter.h ****         lastFinishedTestTime = testDuration;
 402              		.loc 4 64 0
 403 0067 488B45F8 		movq	-8(%rbp), %rax
 404 006b F30F1045 		movss	-20(%rbp), %xmm0
 404      EC
 405 0070 F30F1180 		movss	%xmm0, 2072(%rax)
 405      18080000 
  65:RecordingReporter.h ****     }
 406              		.loc 4 65 0
 407 0078 90       		nop
 408 0079 C9       		leave
 409              		.cfi_def_cfa 7, 8
 410 007a C3       		ret
 411              		.cfi_endproc
 412              	.LFE1096:
 414              		.section	.text._ZN17RecordingReporter13ReportSummaryEiiif,"axG",@progbits,_ZN17RecordingReporter13
 415              		.align 2
 416              		.weak	_ZN17RecordingReporter13ReportSummaryEiiif
 418              	_ZN17RecordingReporter13ReportSummaryEiiif:
 419              	.LFB1097:
  66:RecordingReporter.h **** 
  67:RecordingReporter.h ****     virtual void ReportSummary(int totalTestCount, int failedTestCount, int failureCount, float sec
 420              		.loc 4 67 0
 421              		.cfi_startproc
 422 0000 55       		pushq	%rbp
 423              		.cfi_def_cfa_offset 16
 424              		.cfi_offset 6, -16
 425 0001 4889E5   		movq	%rsp, %rbp
 426              		.cfi_def_cfa_register 6
 427 0004 48897DF8 		movq	%rdi, -8(%rbp)
 428 0008 8975F4   		movl	%esi, -12(%rbp)
 429 000b 8955F0   		movl	%edx, -16(%rbp)
 430 000e 894DEC   		movl	%ecx, -20(%rbp)
 431 0011 F30F1145 		movss	%xmm0, -24(%rbp)
 431      E8
  68:RecordingReporter.h ****     {
  69:RecordingReporter.h ****         summaryTotalTestCount = totalTestCount;
 432              		.loc 4 69 0
 433 0016 488B45F8 		movq	-8(%rbp), %rax
 434 001a 8B55F4   		movl	-12(%rbp), %edx
 435 001d 89901C08 		movl	%edx, 2076(%rax)
 435      0000
  70:RecordingReporter.h ****         summaryFailedTestCount = failedTestCount;
 436              		.loc 4 70 0
 437 0023 488B45F8 		movq	-8(%rbp), %rax
 438 0027 8B55F0   		movl	-16(%rbp), %edx
 439 002a 89902008 		movl	%edx, 2080(%rax)
 439      0000
  71:RecordingReporter.h ****         summaryFailureCount = failureCount;
 440              		.loc 4 71 0
 441 0030 488B45F8 		movq	-8(%rbp), %rax
 442 0034 8B55EC   		movl	-20(%rbp), %edx
 443 0037 89902408 		movl	%edx, 2084(%rax)
 443      0000
  72:RecordingReporter.h ****         summarySecondsElapsed = secondsElapsed;
 444              		.loc 4 72 0
 445 003d 488B45F8 		movq	-8(%rbp), %rax
 446 0041 F30F1045 		movss	-24(%rbp), %xmm0
 446      E8
 447 0046 F30F1180 		movss	%xmm0, 2088(%rax)
 447      28080000 
  73:RecordingReporter.h ****     }
 448              		.loc 4 73 0
 449 004e 90       		nop
 450 004f 5D       		popq	%rbp
 451              		.cfi_def_cfa 7, 8
 452 0050 C3       		ret
 453              		.cfi_endproc
 454              	.LFE1097:
 456              		.local	_ZN12_GLOBAL__N_1L7detailsE
 457              		.comm	_ZN12_GLOBAL__N_1L7detailsE,32,32
 458              		.section	.rodata
 459              	.LC2:
 460 000d 54657374 		.string	"TestTestResults.cpp"
 460      54657374 
 460      52657375 
 460      6C74732E 
 460      63707000 
 461              	.LC3:
 462 0021 53746172 		.string	"StartsWithNoTestsRun"
 462      74735769 
 462      74684E6F 
 462      54657374 
 462      7352756E 
 463              		.text
 464              		.align 2
 466              	_ZN12_GLOBAL__N_124TestStartsWithNoTestsRunC2Ev:
 467              	.LFB1099:
 468              		.file 5 "TestTestResults.cpp"
   1:TestTestResults.cpp **** #include "../UnitTest++.h"
   2:TestTestResults.cpp **** #include "../TestResults.h"
   3:TestTestResults.cpp **** #include "RecordingReporter.h"
   4:TestTestResults.cpp **** 
   5:TestTestResults.cpp **** using namespace UnitTest;
   6:TestTestResults.cpp **** 
   7:TestTestResults.cpp **** namespace {
   8:TestTestResults.cpp **** 
   9:TestTestResults.cpp **** TestDetails const details("testname", "suitename", "filename", 123);
  10:TestTestResults.cpp **** 
  11:TestTestResults.cpp **** 
  12:TestTestResults.cpp **** TEST(StartsWithNoTestsRun)
 469              		.loc 5 12 0
 470              		.cfi_startproc
 471 0000 55       		pushq	%rbp
 472              		.cfi_def_cfa_offset 16
 473              		.cfi_offset 6, -16
 474 0001 4889E5   		movq	%rsp, %rbp
 475              		.cfi_def_cfa_register 6
 476 0004 53       		pushq	%rbx
 477 0005 4883EC18 		subq	$24, %rsp
 478              		.cfi_offset 3, -24
 479 0009 48897DE8 		movq	%rdi, -24(%rbp)
 480              	.LBB6:
 481              		.loc 5 12 0
 482 000d 488B5DE8 		movq	-24(%rbp), %rbx
 483 0011 E8000000 		call	_ZN13UnitTestSuite12GetSuiteNameEv
 483      00
 484 0016 41B80C00 		movl	$12, %r8d
 484      0000
 485 001c 488D0D00 		leaq	.LC2(%rip), %rcx
 485      000000
 486 0023 4889C2   		movq	%rax, %rdx
 487 0026 488D3500 		leaq	.LC3(%rip), %rsi
 487      000000
 488 002d 4889DF   		movq	%rbx, %rdi
 489 0030 E8000000 		call	_ZN8UnitTest4TestC2EPKcS2_S2_i@PLT
 489      00
 490 0035 488D1500 		leaq	16+_ZTVN12_GLOBAL__N_124TestStartsWithNoTestsRunE(%rip), %rdx
 490      000000
 491 003c 488B45E8 		movq	-24(%rbp), %rax
 492 0040 488910   		movq	%rdx, (%rax)
 493              	.LBE6:
 494 0043 90       		nop
 495 0044 4883C418 		addq	$24, %rsp
 496 0048 5B       		popq	%rbx
 497 0049 5D       		popq	%rbp
 498              		.cfi_def_cfa 7, 8
 499 004a C3       		ret
 500              		.cfi_endproc
 501              	.LFE1099:
 503              		.set	_ZN12_GLOBAL__N_124TestStartsWithNoTestsRunC1Ev,_ZN12_GLOBAL__N_124TestStartsWithNoTestsRunC2
 504              		.local	_ZN12_GLOBAL__N_132testStartsWithNoTestsRunInstanceE
 505              		.comm	_ZN12_GLOBAL__N_132testStartsWithNoTestsRunInstanceE,56,32
 506              		.local	_ZN12_GLOBAL__N_125adderStartsWithNoTestsRunE
 507              		.comm	_ZN12_GLOBAL__N_125adderStartsWithNoTestsRunE,1,1
 508              		.section	.rodata
 509 0036 0000     		.align 8
 510              	.LC4:
 511 0038 556E6861 		.string	"Unhandled exception in CHECK_EQUAL(0, results.GetTotalTestCount())"
 511      6E646C65 
 511      64206578 
 511      63657074 
 511      696F6E20 
 512              		.text
 513 004b 90       		.align 2
 515              	_ZNK12_GLOBAL__N_124TestStartsWithNoTestsRun7RunImplEv:
 516              	.LFB1101:
  13:TestTestResults.cpp **** {
 517              		.loc 5 13 0
 518              		.cfi_startproc
 519              		.cfi_personality 0x9b,DW.ref.__gxx_personality_v0
 520              		.cfi_lsda 0x1b,.LLSDA1101
 521 004c 55       		pushq	%rbp
 522              		.cfi_def_cfa_offset 16
 523              		.cfi_offset 6, -16
 524 004d 4889E5   		movq	%rsp, %rbp
 525              		.cfi_def_cfa_register 6
 526 0050 53       		pushq	%rbx
 527 0051 4883EC78 		subq	$120, %rsp
 528              		.cfi_offset 3, -24
 529 0055 48897D88 		movq	%rdi, -120(%rbp)
 530              		.loc 5 13 0
 531 0059 64488B04 		movq	%fs:40, %rax
 531      25280000 
 531      00
 532 0062 488945E8 		movq	%rax, -24(%rbp)
 533 0066 31C0     		xorl	%eax, %eax
  14:TestTestResults.cpp ****     TestResults results;
 534              		.loc 5 14 0
 535 0068 488D45A0 		leaq	-96(%rbp), %rax
 536 006c BE000000 		movl	$0, %esi
 536      00
 537 0071 4889C7   		movq	%rax, %rdi
 538              	.LEHB4:
 539 0074 E8000000 		call	_ZN8UnitTest11TestResultsC1EPNS_12TestReporterE@PLT
 539      00
 540              	.LEHE4:
 541              	.LEHB5:
  15:TestTestResults.cpp ****     CHECK_EQUAL (0, results.GetTotalTestCount());
 542              		.loc 5 15 0
 543 0079 E8000000 		call	_ZN8UnitTest11CurrentTest7DetailsEv@PLT
 543      00
 544 007e 488B08   		movq	(%rax), %rcx
 545 0081 488D45C0 		leaq	-64(%rbp), %rax
 546 0085 BA0F0000 		movl	$15, %edx
 546      00
 547 008a 4889CE   		movq	%rcx, %rsi
 548 008d 4889C7   		movq	%rax, %rdi
 549 0090 E8000000 		call	_ZN8UnitTest11TestDetailsC1ERKS0_i@PLT
 549      00
 550              		.loc 5 15 0 is_stmt 0 discriminator 2
 551 0095 488D45A0 		leaq	-96(%rbp), %rax
 552 0099 4889C7   		movq	%rax, %rdi
 553 009c E8000000 		call	_ZNK8UnitTest11TestResults17GetTotalTestCountEv@PLT
 553      00
 554              	.LEHE5:
 555 00a1 89459C   		movl	%eax, -100(%rbp)
 556 00a4 C7459800 		movl	$0, -104(%rbp)
 556      000000
 557              	.LEHB6:
 558 00ab E8000000 		call	_ZN8UnitTest11CurrentTest7ResultsEv@PLT
 558      00
 559              		.loc 5 15 0 discriminator 4
 560 00b0 488B00   		movq	(%rax), %rax
 561 00b3 488D4DC0 		leaq	-64(%rbp), %rcx
 562 00b7 488D559C 		leaq	-100(%rbp), %rdx
 563 00bb 488D7598 		leaq	-104(%rbp), %rsi
 564 00bf 4889C7   		movq	%rax, %rdi
 565 00c2 E8000000 		call	_ZN8UnitTest10CheckEqualIiiEEvRNS_11TestResultsERKT_RKT0_RKNS_11TestDetailsE
 565      00
 566              	.LEHE6:
  16:TestTestResults.cpp **** }
 567              		.loc 5 16 0 is_stmt 1
 568 00c7 EB5E     		jmp	.L17
 569              	.L24:
 570 00c9 EB00     		jmp	.L19
 571              	.L23:
 572              	.L19:
  15:TestTestResults.cpp ****     CHECK_EQUAL (0, results.GetTotalTestCount());
 573              		.loc 5 15 0
 574 00cb 4889C7   		movq	%rax, %rdi
 575 00ce E8000000 		call	__cxa_begin_catch@PLT
 575      00
 576              	.LEHB7:
 577 00d3 E8000000 		call	_ZN8UnitTest11CurrentTest7ResultsEv@PLT
 577      00
 578 00d8 488B18   		movq	(%rax), %rbx
 579 00db E8000000 		call	_ZN8UnitTest11CurrentTest7DetailsEv@PLT
 579      00
  15:TestTestResults.cpp ****     CHECK_EQUAL (0, results.GetTotalTestCount());
 580              		.loc 5 15 0 is_stmt 0 discriminator 10
 581 00e0 488B08   		movq	(%rax), %rcx
 582 00e3 488D45C0 		leaq	-64(%rbp), %rax
 583 00e7 BA0F0000 		movl	$15, %edx
 583      00
 584 00ec 4889CE   		movq	%rcx, %rsi
 585 00ef 4889C7   		movq	%rax, %rdi
 586 00f2 E8000000 		call	_ZN8UnitTest11TestDetailsC1ERKS0_i@PLT
 586      00
  15:TestTestResults.cpp ****     CHECK_EQUAL (0, results.GetTotalTestCount());
 587              		.loc 5 15 0 discriminator 14
 588 00f7 488D45C0 		leaq	-64(%rbp), %rax
 589 00fb 488D1500 		leaq	.LC4(%rip), %rdx
 589      000000
 590 0102 4889C6   		movq	%rax, %rsi
 591 0105 4889DF   		movq	%rbx, %rdi
 592 0108 E8000000 		call	_ZN8UnitTest11TestResults13OnTestFailureERKNS_11TestDetailsEPKc@PLT
 592      00
 593              	.LEHE7:
 594              	.LEHB8:
  15:TestTestResults.cpp ****     CHECK_EQUAL (0, results.GetTotalTestCount());
 595              		.loc 5 15 0 discriminator 16
 596 010d E8000000 		call	__cxa_end_catch@PLT
 596      00
 597              	.LEHE8:
 598              		.loc 5 16 0 is_stmt 1 discriminator 16
 599 0112 EB13     		jmp	.L17
 600              	.L25:
 601 0114 4889C3   		movq	%rax, %rbx
  15:TestTestResults.cpp ****     CHECK_EQUAL (0, results.GetTotalTestCount());
 602              		.loc 5 15 0
 603 0117 E8000000 		call	__cxa_end_catch@PLT
 603      00
 604 011c 4889D8   		movq	%rbx, %rax
 605 011f 4889C7   		movq	%rax, %rdi
 606              	.LEHB9:
 607 0122 E8000000 		call	_Unwind_Resume@PLT
 607      00
 608              	.LEHE9:
 609              	.L17:
 610              		.loc 5 16 0
 611 0127 488B45E8 		movq	-24(%rbp), %rax
 612 012b 64483304 		xorq	%fs:40, %rax
 612      25280000 
 612      00
 613 0134 7405     		je	.L22
 614 0136 E8000000 		call	__stack_chk_fail@PLT
 614      00
 615              	.L22:
 616 013b 4883C478 		addq	$120, %rsp
 617 013f 5B       		popq	%rbx
 618 0140 5D       		popq	%rbp
 619              		.cfi_def_cfa 7, 8
 620 0141 C3       		ret
 621              		.cfi_endproc
 622              	.LFE1101:
 623              		.section	.gcc_except_table,"a",@progbits
 624              		.align 4
 625              	.LLSDA1101:
 626 0000 FF       		.byte	0xff
 627 0001 9B       		.byte	0x9b
 628 0002 29       		.uleb128 .LLSDATT1101-.LLSDATTD1101
 629              	.LLSDATTD1101:
 630 0003 01       		.byte	0x1
 631 0004 1C       		.uleb128 .LLSDACSE1101-.LLSDACSB1101
 632              	.LLSDACSB1101:
 633 0005 28       		.uleb128 .LEHB4-.LFB1101
 634 0006 05       		.uleb128 .LEHE4-.LEHB4
 635 0007 00       		.uleb128 0
 636 0008 00       		.uleb128 0
 637 0009 2D       		.uleb128 .LEHB5-.LFB1101
 638 000a 28       		.uleb128 .LEHE5-.LEHB5
 639 000b 7F       		.uleb128 .L23-.LFB1101
 640 000c 01       		.uleb128 0x1
 641 000d 5F       		.uleb128 .LEHB6-.LFB1101
 642 000e 1C       		.uleb128 .LEHE6-.LEHB6
 643 000f 7D       		.uleb128 .L24-.LFB1101
 644 0010 03       		.uleb128 0x3
 645 0011 8701     		.uleb128 .LEHB7-.LFB1101
 646 0013 3A       		.uleb128 .LEHE7-.LEHB7
 647 0014 C801     		.uleb128 .L25-.LFB1101
 648 0016 00       		.uleb128 0
 649 0017 C101     		.uleb128 .LEHB8-.LFB1101
 650 0019 05       		.uleb128 .LEHE8-.LEHB8
 651 001a 00       		.uleb128 0
 652 001b 00       		.uleb128 0
 653 001c D601     		.uleb128 .LEHB9-.LFB1101
 654 001e 05       		.uleb128 .LEHE9-.LEHB9
 655 001f 00       		.uleb128 0
 656 0020 00       		.uleb128 0
 657              	.LLSDACSE1101:
 658 0021 01       		.byte	0x1
 659 0022 00       		.byte	0
 660 0023 00       		.byte	0
 661 0024 7D       		.byte	0x7d
 662 0025 000000   		.align 4
 663 0028 00000000 		.long	0
 664              	
 665              	.LLSDATT1101:
 666              		.text
 668              		.section	.rodata
 669              	.LC5:
 670 007b 5265636F 		.string	"RecordsNumbersOfTests"
 670      7264734E 
 670      756D6265 
 670      72734F66 
 670      54657374 
 671              		.text
 672              		.align 2
 674              	_ZN12_GLOBAL__N_125TestRecordsNumbersOfTestsC2Ev:
 675              	.LFB1103:
  17:TestTestResults.cpp **** 
  18:TestTestResults.cpp **** TEST(RecordsNumbersOfTests)
 676              		.loc 5 18 0
 677              		.cfi_startproc
 678 0142 55       		pushq	%rbp
 679              		.cfi_def_cfa_offset 16
 680              		.cfi_offset 6, -16
 681 0143 4889E5   		movq	%rsp, %rbp
 682              		.cfi_def_cfa_register 6
 683 0146 53       		pushq	%rbx
 684 0147 4883EC18 		subq	$24, %rsp
 685              		.cfi_offset 3, -24
 686 014b 48897DE8 		movq	%rdi, -24(%rbp)
 687              	.LBB7:
 688              		.loc 5 18 0
 689 014f 488B5DE8 		movq	-24(%rbp), %rbx
 690 0153 E8000000 		call	_ZN13UnitTestSuite12GetSuiteNameEv
 690      00
 691 0158 41B81200 		movl	$18, %r8d
 691      0000
 692 015e 488D0D00 		leaq	.LC2(%rip), %rcx
 692      000000
 693 0165 4889C2   		movq	%rax, %rdx
 694 0168 488D3500 		leaq	.LC5(%rip), %rsi
 694      000000
 695 016f 4889DF   		movq	%rbx, %rdi
 696 0172 E8000000 		call	_ZN8UnitTest4TestC2EPKcS2_S2_i@PLT
 696      00
 697 0177 488D1500 		leaq	16+_ZTVN12_GLOBAL__N_125TestRecordsNumbersOfTestsE(%rip), %rdx
 697      000000
 698 017e 488B45E8 		movq	-24(%rbp), %rax
 699 0182 488910   		movq	%rdx, (%rax)
 700              	.LBE7:
 701 0185 90       		nop
 702 0186 4883C418 		addq	$24, %rsp
 703 018a 5B       		popq	%rbx
 704 018b 5D       		popq	%rbp
 705              		.cfi_def_cfa 7, 8
 706 018c C3       		ret
 707              		.cfi_endproc
 708              	.LFE1103:
 710              		.set	_ZN12_GLOBAL__N_125TestRecordsNumbersOfTestsC1Ev,_ZN12_GLOBAL__N_125TestRecordsNumbersOfTests
 711              		.local	_ZN12_GLOBAL__N_133testRecordsNumbersOfTestsInstanceE
 712              		.comm	_ZN12_GLOBAL__N_133testRecordsNumbersOfTestsInstanceE,56,32
 713              		.local	_ZN12_GLOBAL__N_126adderRecordsNumbersOfTestsE
 714              		.comm	_ZN12_GLOBAL__N_126adderRecordsNumbersOfTestsE,1,1
 715              		.section	.rodata
 716 0091 00000000 		.align 8
 716      000000
 717              	.LC6:
 718 0098 556E6861 		.string	"Unhandled exception in CHECK_EQUAL(3, results.GetTotalTestCount())"
 718      6E646C65 
 718      64206578 
 718      63657074 
 718      696F6E20 
 719              		.text
 720 018d 90       		.align 2
 722              	_ZNK12_GLOBAL__N_125TestRecordsNumbersOfTests7RunImplEv:
 723              	.LFB1105:
  19:TestTestResults.cpp **** {
 724              		.loc 5 19 0
 725              		.cfi_startproc
 726              		.cfi_personality 0x9b,DW.ref.__gxx_personality_v0
 727              		.cfi_lsda 0x1b,.LLSDA1105
 728 018e 55       		pushq	%rbp
 729              		.cfi_def_cfa_offset 16
 730              		.cfi_offset 6, -16
 731 018f 4889E5   		movq	%rsp, %rbp
 732              		.cfi_def_cfa_register 6
 733 0192 53       		pushq	%rbx
 734 0193 4883EC78 		subq	$120, %rsp
 735              		.cfi_offset 3, -24
 736 0197 48897D88 		movq	%rdi, -120(%rbp)
 737              		.loc 5 19 0
 738 019b 64488B04 		movq	%fs:40, %rax
 738      25280000 
 738      00
 739 01a4 488945E8 		movq	%rax, -24(%rbp)
 740 01a8 31C0     		xorl	%eax, %eax
  20:TestTestResults.cpp ****     TestResults results;
 741              		.loc 5 20 0
 742 01aa 488D45A0 		leaq	-96(%rbp), %rax
 743 01ae BE000000 		movl	$0, %esi
 743      00
 744 01b3 4889C7   		movq	%rax, %rdi
 745              	.LEHB10:
 746 01b6 E8000000 		call	_ZN8UnitTest11TestResultsC1EPNS_12TestReporterE@PLT
 746      00
  21:TestTestResults.cpp ****     results.OnTestStart(details);
 747              		.loc 5 21 0
 748 01bb 488D45A0 		leaq	-96(%rbp), %rax
 749 01bf 488D3500 		leaq	_ZN12_GLOBAL__N_1L7detailsE(%rip), %rsi
 749      000000
 750 01c6 4889C7   		movq	%rax, %rdi
 751 01c9 E8000000 		call	_ZN8UnitTest11TestResults11OnTestStartERKNS_11TestDetailsE@PLT
 751      00
  22:TestTestResults.cpp ****     results.OnTestStart(details);
 752              		.loc 5 22 0
 753 01ce 488D45A0 		leaq	-96(%rbp), %rax
 754 01d2 488D3500 		leaq	_ZN12_GLOBAL__N_1L7detailsE(%rip), %rsi
 754      000000
 755 01d9 4889C7   		movq	%rax, %rdi
 756 01dc E8000000 		call	_ZN8UnitTest11TestResults11OnTestStartERKNS_11TestDetailsE@PLT
 756      00
  23:TestTestResults.cpp ****     results.OnTestStart(details);
 757              		.loc 5 23 0
 758 01e1 488D45A0 		leaq	-96(%rbp), %rax
 759 01e5 488D3500 		leaq	_ZN12_GLOBAL__N_1L7detailsE(%rip), %rsi
 759      000000
 760 01ec 4889C7   		movq	%rax, %rdi
 761 01ef E8000000 		call	_ZN8UnitTest11TestResults11OnTestStartERKNS_11TestDetailsE@PLT
 761      00
 762              	.LEHE10:
 763              	.LEHB11:
  24:TestTestResults.cpp ****     CHECK_EQUAL(3, results.GetTotalTestCount());
 764              		.loc 5 24 0
 765 01f4 E8000000 		call	_ZN8UnitTest11CurrentTest7DetailsEv@PLT
 765      00
 766 01f9 488B08   		movq	(%rax), %rcx
 767 01fc 488D45C0 		leaq	-64(%rbp), %rax
 768 0200 BA180000 		movl	$24, %edx
 768      00
 769 0205 4889CE   		movq	%rcx, %rsi
 770 0208 4889C7   		movq	%rax, %rdi
 771 020b E8000000 		call	_ZN8UnitTest11TestDetailsC1ERKS0_i@PLT
 771      00
 772              		.loc 5 24 0 is_stmt 0 discriminator 2
 773 0210 488D45A0 		leaq	-96(%rbp), %rax
 774 0214 4889C7   		movq	%rax, %rdi
 775 0217 E8000000 		call	_ZNK8UnitTest11TestResults17GetTotalTestCountEv@PLT
 775      00
 776              	.LEHE11:
 777 021c 89459C   		movl	%eax, -100(%rbp)
 778 021f C7459803 		movl	$3, -104(%rbp)
 778      000000
 779              	.LEHB12:
 780 0226 E8000000 		call	_ZN8UnitTest11CurrentTest7ResultsEv@PLT
 780      00
 781              		.loc 5 24 0 discriminator 4
 782 022b 488B00   		movq	(%rax), %rax
 783 022e 488D4DC0 		leaq	-64(%rbp), %rcx
 784 0232 488D559C 		leaq	-100(%rbp), %rdx
 785 0236 488D7598 		leaq	-104(%rbp), %rsi
 786 023a 4889C7   		movq	%rax, %rdi
 787 023d E8000000 		call	_ZN8UnitTest10CheckEqualIiiEEvRNS_11TestResultsERKT_RKT0_RKNS_11TestDetailsE
 787      00
 788              	.LEHE12:
  25:TestTestResults.cpp **** }
 789              		.loc 5 25 0 is_stmt 1
 790 0242 EB5E     		jmp	.L27
 791              	.L34:
 792 0244 EB00     		jmp	.L29
 793              	.L33:
 794              	.L29:
  24:TestTestResults.cpp ****     CHECK_EQUAL(3, results.GetTotalTestCount());
 795              		.loc 5 24 0
 796 0246 4889C7   		movq	%rax, %rdi
 797 0249 E8000000 		call	__cxa_begin_catch@PLT
 797      00
 798              	.LEHB13:
 799 024e E8000000 		call	_ZN8UnitTest11CurrentTest7ResultsEv@PLT
 799      00
 800 0253 488B18   		movq	(%rax), %rbx
 801 0256 E8000000 		call	_ZN8UnitTest11CurrentTest7DetailsEv@PLT
 801      00
  24:TestTestResults.cpp ****     CHECK_EQUAL(3, results.GetTotalTestCount());
 802              		.loc 5 24 0 is_stmt 0 discriminator 10
 803 025b 488B08   		movq	(%rax), %rcx
 804 025e 488D45C0 		leaq	-64(%rbp), %rax
 805 0262 BA180000 		movl	$24, %edx
 805      00
 806 0267 4889CE   		movq	%rcx, %rsi
 807 026a 4889C7   		movq	%rax, %rdi
 808 026d E8000000 		call	_ZN8UnitTest11TestDetailsC1ERKS0_i@PLT
 808      00
  24:TestTestResults.cpp ****     CHECK_EQUAL(3, results.GetTotalTestCount());
 809              		.loc 5 24 0 discriminator 14
 810 0272 488D45C0 		leaq	-64(%rbp), %rax
 811 0276 488D1500 		leaq	.LC6(%rip), %rdx
 811      000000
 812 027d 4889C6   		movq	%rax, %rsi
 813 0280 4889DF   		movq	%rbx, %rdi
 814 0283 E8000000 		call	_ZN8UnitTest11TestResults13OnTestFailureERKNS_11TestDetailsEPKc@PLT
 814      00
 815              	.LEHE13:
 816              	.LEHB14:
  24:TestTestResults.cpp ****     CHECK_EQUAL(3, results.GetTotalTestCount());
 817              		.loc 5 24 0 discriminator 16
 818 0288 E8000000 		call	__cxa_end_catch@PLT
 818      00
 819              	.LEHE14:
 820              		.loc 5 25 0 is_stmt 1 discriminator 16
 821 028d EB13     		jmp	.L27
 822              	.L35:
 823 028f 4889C3   		movq	%rax, %rbx
  24:TestTestResults.cpp ****     CHECK_EQUAL(3, results.GetTotalTestCount());
 824              		.loc 5 24 0
 825 0292 E8000000 		call	__cxa_end_catch@PLT
 825      00
 826 0297 4889D8   		movq	%rbx, %rax
 827 029a 4889C7   		movq	%rax, %rdi
 828              	.LEHB15:
 829 029d E8000000 		call	_Unwind_Resume@PLT
 829      00
 830              	.LEHE15:
 831              	.L27:
 832              		.loc 5 25 0
 833 02a2 488B45E8 		movq	-24(%rbp), %rax
 834 02a6 64483304 		xorq	%fs:40, %rax
 834      25280000 
 834      00
 835 02af 7405     		je	.L32
 836 02b1 E8000000 		call	__stack_chk_fail@PLT
 836      00
 837              	.L32:
 838 02b6 4883C478 		addq	$120, %rsp
 839 02ba 5B       		popq	%rbx
 840 02bb 5D       		popq	%rbp
 841              		.cfi_def_cfa 7, 8
 842 02bc C3       		ret
 843              		.cfi_endproc
 844              	.LFE1105:
 845              		.section	.gcc_except_table
 846              		.align 4
 847              	.LLSDA1105:
 848 002c FF       		.byte	0xff
 849 002d 9B       		.byte	0x9b
 850 002e 29       		.uleb128 .LLSDATT1105-.LLSDATTD1105
 851              	.LLSDATTD1105:
 852 002f 01       		.byte	0x1
 853 0030 1F       		.uleb128 .LLSDACSE1105-.LLSDACSB1105
 854              	.LLSDACSB1105:
 855 0031 28       		.uleb128 .LEHB10-.LFB1105
 856 0032 3E       		.uleb128 .LEHE10-.LEHB10
 857 0033 00       		.uleb128 0
 858 0034 00       		.uleb128 0
 859 0035 66       		.uleb128 .LEHB11-.LFB1105
 860 0036 28       		.uleb128 .LEHE11-.LEHB11
 861 0037 B801     		.uleb128 .L33-.LFB1105
 862 0039 01       		.uleb128 0x1
 863 003a 9801     		.uleb128 .LEHB12-.LFB1105
 864 003c 1C       		.uleb128 .LEHE12-.LEHB12
 865 003d B601     		.uleb128 .L34-.LFB1105
 866 003f 03       		.uleb128 0x3
 867 0040 C001     		.uleb128 .LEHB13-.LFB1105
 868 0042 3A       		.uleb128 .LEHE13-.LEHB13
 869 0043 8102     		.uleb128 .L35-.LFB1105
 870 0045 00       		.uleb128 0
 871 0046 FA01     		.uleb128 .LEHB14-.LFB1105
 872 0048 05       		.uleb128 .LEHE14-.LEHB14
 873 0049 00       		.uleb128 0
 874 004a 00       		.uleb128 0
 875 004b 8F02     		.uleb128 .LEHB15-.LFB1105
 876 004d 05       		.uleb128 .LEHE15-.LEHB15
 877 004e 00       		.uleb128 0
 878 004f 00       		.uleb128 0
 879              	.LLSDACSE1105:
 880 0050 01       		.byte	0x1
 881 0051 00       		.byte	0
 882 0052 00       		.byte	0
 883 0053 7D       		.byte	0x7d
 884              		.align 4
 885 0054 00000000 		.long	0
 886              	
 887              	.LLSDATT1105:
 888              		.text
 890              		.section	.rodata
 891              	.LC7:
 892 00db 53746172 		.string	"StartsWithNoTestsFailing"
 892      74735769 
 892      74684E6F 
 892      54657374 
 892      73466169 
 893              		.text
 894 02bd 90       		.align 2
 896              	_ZN12_GLOBAL__N_128TestStartsWithNoTestsFailingC2Ev:
 897              	.LFB1107:
  26:TestTestResults.cpp **** 
  27:TestTestResults.cpp **** TEST(StartsWithNoTestsFailing)
 898              		.loc 5 27 0
 899              		.cfi_startproc
 900 02be 55       		pushq	%rbp
 901              		.cfi_def_cfa_offset 16
 902              		.cfi_offset 6, -16
 903 02bf 4889E5   		movq	%rsp, %rbp
 904              		.cfi_def_cfa_register 6
 905 02c2 53       		pushq	%rbx
 906 02c3 4883EC18 		subq	$24, %rsp
 907              		.cfi_offset 3, -24
 908 02c7 48897DE8 		movq	%rdi, -24(%rbp)
 909              	.LBB8:
 910              		.loc 5 27 0
 911 02cb 488B5DE8 		movq	-24(%rbp), %rbx
 912 02cf E8000000 		call	_ZN13UnitTestSuite12GetSuiteNameEv
 912      00
 913 02d4 41B81B00 		movl	$27, %r8d
 913      0000
 914 02da 488D0D00 		leaq	.LC2(%rip), %rcx
 914      000000
 915 02e1 4889C2   		movq	%rax, %rdx
 916 02e4 488D3500 		leaq	.LC7(%rip), %rsi
 916      000000
 917 02eb 4889DF   		movq	%rbx, %rdi
 918 02ee E8000000 		call	_ZN8UnitTest4TestC2EPKcS2_S2_i@PLT
 918      00
 919 02f3 488D1500 		leaq	16+_ZTVN12_GLOBAL__N_128TestStartsWithNoTestsFailingE(%rip), %rdx
 919      000000
 920 02fa 488B45E8 		movq	-24(%rbp), %rax
 921 02fe 488910   		movq	%rdx, (%rax)
 922              	.LBE8:
 923 0301 90       		nop
 924 0302 4883C418 		addq	$24, %rsp
 925 0306 5B       		popq	%rbx
 926 0307 5D       		popq	%rbp
 927              		.cfi_def_cfa 7, 8
 928 0308 C3       		ret
 929              		.cfi_endproc
 930              	.LFE1107:
 932              		.set	_ZN12_GLOBAL__N_128TestStartsWithNoTestsFailingC1Ev,_ZN12_GLOBAL__N_128TestStartsWithNoTestsF
 933              		.local	_ZN12_GLOBAL__N_136testStartsWithNoTestsFailingInstanceE
 934              		.comm	_ZN12_GLOBAL__N_136testStartsWithNoTestsFailingInstanceE,56,32
 935              		.local	_ZN12_GLOBAL__N_129adderStartsWithNoTestsFailingE
 936              		.comm	_ZN12_GLOBAL__N_129adderStartsWithNoTestsFailingE,1,1
 937              		.section	.rodata
 938 00f4 00000000 		.align 8
 939              	.LC8:
 940 00f8 556E6861 		.string	"Unhandled exception in CHECK_EQUAL(0, results.GetFailureCount())"
 940      6E646C65 
 940      64206578 
 940      63657074 
 940      696F6E20 
 941              		.text
 942 0309 90       		.align 2
 944              	_ZNK12_GLOBAL__N_128TestStartsWithNoTestsFailing7RunImplEv:
 945              	.LFB1109:
  28:TestTestResults.cpp **** {
 946              		.loc 5 28 0
 947              		.cfi_startproc
 948              		.cfi_personality 0x9b,DW.ref.__gxx_personality_v0
 949              		.cfi_lsda 0x1b,.LLSDA1109
 950 030a 55       		pushq	%rbp
 951              		.cfi_def_cfa_offset 16
 952              		.cfi_offset 6, -16
 953 030b 4889E5   		movq	%rsp, %rbp
 954              		.cfi_def_cfa_register 6
 955 030e 53       		pushq	%rbx
 956 030f 4883EC78 		subq	$120, %rsp
 957              		.cfi_offset 3, -24
 958 0313 48897D88 		movq	%rdi, -120(%rbp)
 959              		.loc 5 28 0
 960 0317 64488B04 		movq	%fs:40, %rax
 960      25280000 
 960      00
 961 0320 488945E8 		movq	%rax, -24(%rbp)
 962 0324 31C0     		xorl	%eax, %eax
  29:TestTestResults.cpp ****     TestResults results;
 963              		.loc 5 29 0
 964 0326 488D45A0 		leaq	-96(%rbp), %rax
 965 032a BE000000 		movl	$0, %esi
 965      00
 966 032f 4889C7   		movq	%rax, %rdi
 967              	.LEHB16:
 968 0332 E8000000 		call	_ZN8UnitTest11TestResultsC1EPNS_12TestReporterE@PLT
 968      00
 969              	.LEHE16:
 970              	.LEHB17:
  30:TestTestResults.cpp ****     CHECK_EQUAL (0, results.GetFailureCount());
 971              		.loc 5 30 0
 972 0337 E8000000 		call	_ZN8UnitTest11CurrentTest7DetailsEv@PLT
 972      00
 973 033c 488B08   		movq	(%rax), %rcx
 974 033f 488D45C0 		leaq	-64(%rbp), %rax
 975 0343 BA1E0000 		movl	$30, %edx
 975      00
 976 0348 4889CE   		movq	%rcx, %rsi
 977 034b 4889C7   		movq	%rax, %rdi
 978 034e E8000000 		call	_ZN8UnitTest11TestDetailsC1ERKS0_i@PLT
 978      00
 979              		.loc 5 30 0 is_stmt 0 discriminator 2
 980 0353 488D45A0 		leaq	-96(%rbp), %rax
 981 0357 4889C7   		movq	%rax, %rdi
 982 035a E8000000 		call	_ZNK8UnitTest11TestResults15GetFailureCountEv@PLT
 982      00
 983              	.LEHE17:
 984 035f 89459C   		movl	%eax, -100(%rbp)
 985 0362 C7459800 		movl	$0, -104(%rbp)
 985      000000
 986              	.LEHB18:
 987 0369 E8000000 		call	_ZN8UnitTest11CurrentTest7ResultsEv@PLT
 987      00
 988              		.loc 5 30 0 discriminator 4
 989 036e 488B00   		movq	(%rax), %rax
 990 0371 488D4DC0 		leaq	-64(%rbp), %rcx
 991 0375 488D559C 		leaq	-100(%rbp), %rdx
 992 0379 488D7598 		leaq	-104(%rbp), %rsi
 993 037d 4889C7   		movq	%rax, %rdi
 994 0380 E8000000 		call	_ZN8UnitTest10CheckEqualIiiEEvRNS_11TestResultsERKT_RKT0_RKNS_11TestDetailsE
 994      00
 995              	.LEHE18:
  31:TestTestResults.cpp **** }
 996              		.loc 5 31 0 is_stmt 1
 997 0385 EB5E     		jmp	.L37
 998              	.L44:
 999 0387 EB00     		jmp	.L39
 1000              	.L43:
 1001              	.L39:
  30:TestTestResults.cpp ****     CHECK_EQUAL (0, results.GetFailureCount());
 1002              		.loc 5 30 0
 1003 0389 4889C7   		movq	%rax, %rdi
 1004 038c E8000000 		call	__cxa_begin_catch@PLT
 1004      00
 1005              	.LEHB19:
 1006 0391 E8000000 		call	_ZN8UnitTest11CurrentTest7ResultsEv@PLT
 1006      00
 1007 0396 488B18   		movq	(%rax), %rbx
 1008 0399 E8000000 		call	_ZN8UnitTest11CurrentTest7DetailsEv@PLT
 1008      00
  30:TestTestResults.cpp ****     CHECK_EQUAL (0, results.GetFailureCount());
 1009              		.loc 5 30 0 is_stmt 0 discriminator 10
 1010 039e 488B08   		movq	(%rax), %rcx
 1011 03a1 488D45C0 		leaq	-64(%rbp), %rax
 1012 03a5 BA1E0000 		movl	$30, %edx
 1012      00
 1013 03aa 4889CE   		movq	%rcx, %rsi
 1014 03ad 4889C7   		movq	%rax, %rdi
 1015 03b0 E8000000 		call	_ZN8UnitTest11TestDetailsC1ERKS0_i@PLT
 1015      00
  30:TestTestResults.cpp ****     CHECK_EQUAL (0, results.GetFailureCount());
 1016              		.loc 5 30 0 discriminator 14
 1017 03b5 488D45C0 		leaq	-64(%rbp), %rax
 1018 03b9 488D1500 		leaq	.LC8(%rip), %rdx
 1018      000000
 1019 03c0 4889C6   		movq	%rax, %rsi
 1020 03c3 4889DF   		movq	%rbx, %rdi
 1021 03c6 E8000000 		call	_ZN8UnitTest11TestResults13OnTestFailureERKNS_11TestDetailsEPKc@PLT
 1021      00
 1022              	.LEHE19:
 1023              	.LEHB20:
  30:TestTestResults.cpp ****     CHECK_EQUAL (0, results.GetFailureCount());
 1024              		.loc 5 30 0 discriminator 16
 1025 03cb E8000000 		call	__cxa_end_catch@PLT
 1025      00
 1026              	.LEHE20:
 1027              		.loc 5 31 0 is_stmt 1 discriminator 16
 1028 03d0 EB13     		jmp	.L37
 1029              	.L45:
 1030 03d2 4889C3   		movq	%rax, %rbx
  30:TestTestResults.cpp ****     CHECK_EQUAL (0, results.GetFailureCount());
 1031              		.loc 5 30 0
 1032 03d5 E8000000 		call	__cxa_end_catch@PLT
 1032      00
 1033 03da 4889D8   		movq	%rbx, %rax
 1034 03dd 4889C7   		movq	%rax, %rdi
 1035              	.LEHB21:
 1036 03e0 E8000000 		call	_Unwind_Resume@PLT
 1036      00
 1037              	.LEHE21:
 1038              	.L37:
 1039              		.loc 5 31 0
 1040 03e5 488B45E8 		movq	-24(%rbp), %rax
 1041 03e9 64483304 		xorq	%fs:40, %rax
 1041      25280000 
 1041      00
 1042 03f2 7405     		je	.L42
 1043 03f4 E8000000 		call	__stack_chk_fail@PLT
 1043      00
 1044              	.L42:
 1045 03f9 4883C478 		addq	$120, %rsp
 1046 03fd 5B       		popq	%rbx
 1047 03fe 5D       		popq	%rbp
 1048              		.cfi_def_cfa 7, 8
 1049 03ff C3       		ret
 1050              		.cfi_endproc
 1051              	.LFE1109:
 1052              		.section	.gcc_except_table
 1053              		.align 4
 1054              	.LLSDA1109:
 1055 0058 FF       		.byte	0xff
 1056 0059 9B       		.byte	0x9b
 1057 005a 29       		.uleb128 .LLSDATT1109-.LLSDATTD1109
 1058              	.LLSDATTD1109:
 1059 005b 01       		.byte	0x1
 1060 005c 1C       		.uleb128 .LLSDACSE1109-.LLSDACSB1109
 1061              	.LLSDACSB1109:
 1062 005d 28       		.uleb128 .LEHB16-.LFB1109
 1063 005e 05       		.uleb128 .LEHE16-.LEHB16
 1064 005f 00       		.uleb128 0
 1065 0060 00       		.uleb128 0
 1066 0061 2D       		.uleb128 .LEHB17-.LFB1109
 1067 0062 28       		.uleb128 .LEHE17-.LEHB17
 1068 0063 7F       		.uleb128 .L43-.LFB1109
 1069 0064 01       		.uleb128 0x1
 1070 0065 5F       		.uleb128 .LEHB18-.LFB1109
 1071 0066 1C       		.uleb128 .LEHE18-.LEHB18
 1072 0067 7D       		.uleb128 .L44-.LFB1109
 1073 0068 03       		.uleb128 0x3
 1074 0069 8701     		.uleb128 .LEHB19-.LFB1109
 1075 006b 3A       		.uleb128 .LEHE19-.LEHB19
 1076 006c C801     		.uleb128 .L45-.LFB1109
 1077 006e 00       		.uleb128 0
 1078 006f C101     		.uleb128 .LEHB20-.LFB1109
 1079 0071 05       		.uleb128 .LEHE20-.LEHB20
 1080 0072 00       		.uleb128 0
 1081 0073 00       		.uleb128 0
 1082 0074 D601     		.uleb128 .LEHB21-.LFB1109
 1083 0076 05       		.uleb128 .LEHE21-.LEHB21
 1084 0077 00       		.uleb128 0
 1085 0078 00       		.uleb128 0
 1086              	.LLSDACSE1109:
 1087 0079 01       		.byte	0x1
 1088 007a 00       		.byte	0
 1089 007b 00       		.byte	0
 1090 007c 7D       		.byte	0x7d
 1091 007d 000000   		.align 4
 1092 0080 00000000 		.long	0
 1093              	
 1094              	.LLSDATT1109:
 1095              		.text
 1097              		.section	.rodata
 1098              	.LC9:
 1099 0139 5265636F 		.string	"RecordsNumberOfFailures"
 1099      7264734E 
 1099      756D6265 
 1099      724F6646 
 1099      61696C75 
 1100              		.text
 1101              		.align 2
 1103              	_ZN12_GLOBAL__N_127TestRecordsNumberOfFailuresC2Ev:
 1104              	.LFB1111:
  32:TestTestResults.cpp **** 
  33:TestTestResults.cpp **** TEST(RecordsNumberOfFailures)
 1105              		.loc 5 33 0
 1106              		.cfi_startproc
 1107 0400 55       		pushq	%rbp
 1108              		.cfi_def_cfa_offset 16
 1109              		.cfi_offset 6, -16
 1110 0401 4889E5   		movq	%rsp, %rbp
 1111              		.cfi_def_cfa_register 6
 1112 0404 53       		pushq	%rbx
 1113 0405 4883EC18 		subq	$24, %rsp
 1114              		.cfi_offset 3, -24
 1115 0409 48897DE8 		movq	%rdi, -24(%rbp)
 1116              	.LBB9:
 1117              		.loc 5 33 0
 1118 040d 488B5DE8 		movq	-24(%rbp), %rbx
 1119 0411 E8000000 		call	_ZN13UnitTestSuite12GetSuiteNameEv
 1119      00
 1120 0416 41B82100 		movl	$33, %r8d
 1120      0000
 1121 041c 488D0D00 		leaq	.LC2(%rip), %rcx
 1121      000000
 1122 0423 4889C2   		movq	%rax, %rdx
 1123 0426 488D3500 		leaq	.LC9(%rip), %rsi
 1123      000000
 1124 042d 4889DF   		movq	%rbx, %rdi
 1125 0430 E8000000 		call	_ZN8UnitTest4TestC2EPKcS2_S2_i@PLT
 1125      00
 1126 0435 488D1500 		leaq	16+_ZTVN12_GLOBAL__N_127TestRecordsNumberOfFailuresE(%rip), %rdx
 1126      000000
 1127 043c 488B45E8 		movq	-24(%rbp), %rax
 1128 0440 488910   		movq	%rdx, (%rax)
 1129              	.LBE9:
 1130 0443 90       		nop
 1131 0444 4883C418 		addq	$24, %rsp
 1132 0448 5B       		popq	%rbx
 1133 0449 5D       		popq	%rbp
 1134              		.cfi_def_cfa 7, 8
 1135 044a C3       		ret
 1136              		.cfi_endproc
 1137              	.LFE1111:
 1139              		.set	_ZN12_GLOBAL__N_127TestRecordsNumberOfFailuresC1Ev,_ZN12_GLOBAL__N_127TestRecordsNumberOfFail
 1140              		.local	_ZN12_GLOBAL__N_135testRecordsNumberOfFailuresInstanceE
 1141              		.comm	_ZN12_GLOBAL__N_135testRecordsNumberOfFailuresInstanceE,56,32
 1142              		.local	_ZN12_GLOBAL__N_128adderRecordsNumberOfFailuresE
 1143              		.comm	_ZN12_GLOBAL__N_128adderRecordsNumberOfFailuresE,1,1
 1144              		.section	.rodata
 1145              	.LC10:
 1146 0151 00       		.string	""
 1147 0152 00000000 		.align 8
 1147      0000
 1148              	.LC11:
 1149 0158 556E6861 		.string	"Unhandled exception in CHECK_EQUAL(2, results.GetFailureCount())"
 1149      6E646C65 
 1149      64206578 
 1149      63657074 
 1149      696F6E20 
 1150              		.text
 1151 044b 90       		.align 2
 1153              	_ZNK12_GLOBAL__N_127TestRecordsNumberOfFailures7RunImplEv:
 1154              	.LFB1113:
  34:TestTestResults.cpp **** {
 1155              		.loc 5 34 0
 1156              		.cfi_startproc
 1157              		.cfi_personality 0x9b,DW.ref.__gxx_personality_v0
 1158              		.cfi_lsda 0x1b,.LLSDA1113
 1159 044c 55       		pushq	%rbp
 1160              		.cfi_def_cfa_offset 16
 1161              		.cfi_offset 6, -16
 1162 044d 4889E5   		movq	%rsp, %rbp
 1163              		.cfi_def_cfa_register 6
 1164 0450 53       		pushq	%rbx
 1165 0451 4883EC78 		subq	$120, %rsp
 1166              		.cfi_offset 3, -24
 1167 0455 48897D88 		movq	%rdi, -120(%rbp)
 1168              		.loc 5 34 0
 1169 0459 64488B04 		movq	%fs:40, %rax
 1169      25280000 
 1169      00
 1170 0462 488945E8 		movq	%rax, -24(%rbp)
 1171 0466 31C0     		xorl	%eax, %eax
  35:TestTestResults.cpp ****     TestResults results;
 1172              		.loc 5 35 0
 1173 0468 488D45A0 		leaq	-96(%rbp), %rax
 1174 046c BE000000 		movl	$0, %esi
 1174      00
 1175 0471 4889C7   		movq	%rax, %rdi
 1176              	.LEHB22:
 1177 0474 E8000000 		call	_ZN8UnitTest11TestResultsC1EPNS_12TestReporterE@PLT
 1177      00
  36:TestTestResults.cpp ****     results.OnTestFailure(details, "");
 1178              		.loc 5 36 0
 1179 0479 488D45A0 		leaq	-96(%rbp), %rax
 1180 047d 488D1500 		leaq	.LC10(%rip), %rdx
 1180      000000
 1181 0484 488D3500 		leaq	_ZN12_GLOBAL__N_1L7detailsE(%rip), %rsi
 1181      000000
 1182 048b 4889C7   		movq	%rax, %rdi
 1183 048e E8000000 		call	_ZN8UnitTest11TestResults13OnTestFailureERKNS_11TestDetailsEPKc@PLT
 1183      00
  37:TestTestResults.cpp ****     results.OnTestFailure(details, "");
 1184              		.loc 5 37 0
 1185 0493 488D45A0 		leaq	-96(%rbp), %rax
 1186 0497 488D1500 		leaq	.LC10(%rip), %rdx
 1186      000000
 1187 049e 488D3500 		leaq	_ZN12_GLOBAL__N_1L7detailsE(%rip), %rsi
 1187      000000
 1188 04a5 4889C7   		movq	%rax, %rdi
 1189 04a8 E8000000 		call	_ZN8UnitTest11TestResults13OnTestFailureERKNS_11TestDetailsEPKc@PLT
 1189      00
 1190              	.LEHE22:
 1191              	.LEHB23:
  38:TestTestResults.cpp ****     CHECK_EQUAL(2, results.GetFailureCount());
 1192              		.loc 5 38 0
 1193 04ad E8000000 		call	_ZN8UnitTest11CurrentTest7DetailsEv@PLT
 1193      00
 1194 04b2 488B08   		movq	(%rax), %rcx
 1195 04b5 488D45C0 		leaq	-64(%rbp), %rax
 1196 04b9 BA260000 		movl	$38, %edx
 1196      00
 1197 04be 4889CE   		movq	%rcx, %rsi
 1198 04c1 4889C7   		movq	%rax, %rdi
 1199 04c4 E8000000 		call	_ZN8UnitTest11TestDetailsC1ERKS0_i@PLT
 1199      00
 1200              		.loc 5 38 0 is_stmt 0 discriminator 2
 1201 04c9 488D45A0 		leaq	-96(%rbp), %rax
 1202 04cd 4889C7   		movq	%rax, %rdi
 1203 04d0 E8000000 		call	_ZNK8UnitTest11TestResults15GetFailureCountEv@PLT
 1203      00
 1204              	.LEHE23:
 1205 04d5 89459C   		movl	%eax, -100(%rbp)
 1206 04d8 C7459802 		movl	$2, -104(%rbp)
 1206      000000
 1207              	.LEHB24:
 1208 04df E8000000 		call	_ZN8UnitTest11CurrentTest7ResultsEv@PLT
 1208      00
 1209              		.loc 5 38 0 discriminator 4
 1210 04e4 488B00   		movq	(%rax), %rax
 1211 04e7 488D4DC0 		leaq	-64(%rbp), %rcx
 1212 04eb 488D559C 		leaq	-100(%rbp), %rdx
 1213 04ef 488D7598 		leaq	-104(%rbp), %rsi
 1214 04f3 4889C7   		movq	%rax, %rdi
 1215 04f6 E8000000 		call	_ZN8UnitTest10CheckEqualIiiEEvRNS_11TestResultsERKT_RKT0_RKNS_11TestDetailsE
 1215      00
 1216              	.LEHE24:
  39:TestTestResults.cpp **** }
 1217              		.loc 5 39 0 is_stmt 1
 1218 04fb EB5E     		jmp	.L47
 1219              	.L54:
 1220 04fd EB00     		jmp	.L49
 1221              	.L53:
 1222              	.L49:
  38:TestTestResults.cpp ****     CHECK_EQUAL(2, results.GetFailureCount());
 1223              		.loc 5 38 0
 1224 04ff 4889C7   		movq	%rax, %rdi
 1225 0502 E8000000 		call	__cxa_begin_catch@PLT
 1225      00
 1226              	.LEHB25:
 1227 0507 E8000000 		call	_ZN8UnitTest11CurrentTest7ResultsEv@PLT
 1227      00
 1228 050c 488B18   		movq	(%rax), %rbx
 1229 050f E8000000 		call	_ZN8UnitTest11CurrentTest7DetailsEv@PLT
 1229      00
  38:TestTestResults.cpp ****     CHECK_EQUAL(2, results.GetFailureCount());
 1230              		.loc 5 38 0 is_stmt 0 discriminator 10
 1231 0514 488B08   		movq	(%rax), %rcx
 1232 0517 488D45C0 		leaq	-64(%rbp), %rax
 1233 051b BA260000 		movl	$38, %edx
 1233      00
 1234 0520 4889CE   		movq	%rcx, %rsi
 1235 0523 4889C7   		movq	%rax, %rdi
 1236 0526 E8000000 		call	_ZN8UnitTest11TestDetailsC1ERKS0_i@PLT
 1236      00
  38:TestTestResults.cpp ****     CHECK_EQUAL(2, results.GetFailureCount());
 1237              		.loc 5 38 0 discriminator 14
 1238 052b 488D45C0 		leaq	-64(%rbp), %rax
 1239 052f 488D1500 		leaq	.LC11(%rip), %rdx
 1239      000000
 1240 0536 4889C6   		movq	%rax, %rsi
 1241 0539 4889DF   		movq	%rbx, %rdi
 1242 053c E8000000 		call	_ZN8UnitTest11TestResults13OnTestFailureERKNS_11TestDetailsEPKc@PLT
 1242      00
 1243              	.LEHE25:
 1244              	.LEHB26:
  38:TestTestResults.cpp ****     CHECK_EQUAL(2, results.GetFailureCount());
 1245              		.loc 5 38 0 discriminator 16
 1246 0541 E8000000 		call	__cxa_end_catch@PLT
 1246      00
 1247              	.LEHE26:
 1248              		.loc 5 39 0 is_stmt 1 discriminator 16
 1249 0546 EB13     		jmp	.L47
 1250              	.L55:
 1251 0548 4889C3   		movq	%rax, %rbx
  38:TestTestResults.cpp ****     CHECK_EQUAL(2, results.GetFailureCount());
 1252              		.loc 5 38 0
 1253 054b E8000000 		call	__cxa_end_catch@PLT
 1253      00
 1254 0550 4889D8   		movq	%rbx, %rax
 1255 0553 4889C7   		movq	%rax, %rdi
 1256              	.LEHB27:
 1257 0556 E8000000 		call	_Unwind_Resume@PLT
 1257      00
 1258              	.LEHE27:
 1259              	.L47:
 1260              		.loc 5 39 0
 1261 055b 488B45E8 		movq	-24(%rbp), %rax
 1262 055f 64483304 		xorq	%fs:40, %rax
 1262      25280000 
 1262      00
 1263 0568 7405     		je	.L52
 1264 056a E8000000 		call	__stack_chk_fail@PLT
 1264      00
 1265              	.L52:
 1266 056f 4883C478 		addq	$120, %rsp
 1267 0573 5B       		popq	%rbx
 1268 0574 5D       		popq	%rbp
 1269              		.cfi_def_cfa 7, 8
 1270 0575 C3       		ret
 1271              		.cfi_endproc
 1272              	.LFE1113:
 1273              		.section	.gcc_except_table
 1274              		.align 4
 1275              	.LLSDA1113:
 1276 0084 FF       		.byte	0xff
 1277 0085 9B       		.byte	0x9b
 1278 0086 29       		.uleb128 .LLSDATT1113-.LLSDATTD1113
 1279              	.LLSDATTD1113:
 1280 0087 01       		.byte	0x1
 1281 0088 1F       		.uleb128 .LLSDACSE1113-.LLSDACSB1113
 1282              	.LLSDACSB1113:
 1283 0089 28       		.uleb128 .LEHB22-.LFB1113
 1284 008a 39       		.uleb128 .LEHE22-.LEHB22
 1285 008b 00       		.uleb128 0
 1286 008c 00       		.uleb128 0
 1287 008d 61       		.uleb128 .LEHB23-.LFB1113
 1288 008e 28       		.uleb128 .LEHE23-.LEHB23
 1289 008f B301     		.uleb128 .L53-.LFB1113
 1290 0091 01       		.uleb128 0x1
 1291 0092 9301     		.uleb128 .LEHB24-.LFB1113
 1292 0094 1C       		.uleb128 .LEHE24-.LEHB24
 1293 0095 B101     		.uleb128 .L54-.LFB1113
 1294 0097 03       		.uleb128 0x3
 1295 0098 BB01     		.uleb128 .LEHB25-.LFB1113
 1296 009a 3A       		.uleb128 .LEHE25-.LEHB25
 1297 009b FC01     		.uleb128 .L55-.LFB1113
 1298 009d 00       		.uleb128 0
 1299 009e F501     		.uleb128 .LEHB26-.LFB1113
 1300 00a0 05       		.uleb128 .LEHE26-.LEHB26
 1301 00a1 00       		.uleb128 0
 1302 00a2 00       		.uleb128 0
 1303 00a3 8A02     		.uleb128 .LEHB27-.LFB1113
 1304 00a5 05       		.uleb128 .LEHE27-.LEHB27
 1305 00a6 00       		.uleb128 0
 1306 00a7 00       		.uleb128 0
 1307              	.LLSDACSE1113:
 1308 00a8 01       		.byte	0x1
 1309 00a9 00       		.byte	0
 1310 00aa 00       		.byte	0
 1311 00ab 7D       		.byte	0x7d
 1312              		.align 4
 1313 00ac 00000000 		.long	0
 1314              	
 1315              	.LLSDATT1113:
 1316              		.text
 1318              		.section	.rodata
 1319              	.LC12:
 1320 0199 5265636F 		.string	"RecordsNumberOfFailedTests"
 1320      7264734E 
 1320      756D6265 
 1320      724F6646 
 1320      61696C65 
 1321              		.text
 1322              		.align 2
 1324              	_ZN12_GLOBAL__N_130TestRecordsNumberOfFailedTestsC2Ev:
 1325              	.LFB1115:
  40:TestTestResults.cpp **** 
  41:TestTestResults.cpp **** TEST(RecordsNumberOfFailedTests)
 1326              		.loc 5 41 0
 1327              		.cfi_startproc
 1328 0576 55       		pushq	%rbp
 1329              		.cfi_def_cfa_offset 16
 1330              		.cfi_offset 6, -16
 1331 0577 4889E5   		movq	%rsp, %rbp
 1332              		.cfi_def_cfa_register 6
 1333 057a 53       		pushq	%rbx
 1334 057b 4883EC18 		subq	$24, %rsp
 1335              		.cfi_offset 3, -24
 1336 057f 48897DE8 		movq	%rdi, -24(%rbp)
 1337              	.LBB10:
 1338              		.loc 5 41 0
 1339 0583 488B5DE8 		movq	-24(%rbp), %rbx
 1340 0587 E8000000 		call	_ZN13UnitTestSuite12GetSuiteNameEv
 1340      00
 1341 058c 41B82900 		movl	$41, %r8d
 1341      0000
 1342 0592 488D0D00 		leaq	.LC2(%rip), %rcx
 1342      000000
 1343 0599 4889C2   		movq	%rax, %rdx
 1344 059c 488D3500 		leaq	.LC12(%rip), %rsi
 1344      000000
 1345 05a3 4889DF   		movq	%rbx, %rdi
 1346 05a6 E8000000 		call	_ZN8UnitTest4TestC2EPKcS2_S2_i@PLT
 1346      00
 1347 05ab 488D1500 		leaq	16+_ZTVN12_GLOBAL__N_130TestRecordsNumberOfFailedTestsE(%rip), %rdx
 1347      000000
 1348 05b2 488B45E8 		movq	-24(%rbp), %rax
 1349 05b6 488910   		movq	%rdx, (%rax)
 1350              	.LBE10:
 1351 05b9 90       		nop
 1352 05ba 4883C418 		addq	$24, %rsp
 1353 05be 5B       		popq	%rbx
 1354 05bf 5D       		popq	%rbp
 1355              		.cfi_def_cfa 7, 8
 1356 05c0 C3       		ret
 1357              		.cfi_endproc
 1358              	.LFE1115:
 1360              		.set	_ZN12_GLOBAL__N_130TestRecordsNumberOfFailedTestsC1Ev,_ZN12_GLOBAL__N_130TestRecordsNumberOfF
 1361              		.local	_ZN12_GLOBAL__N_138testRecordsNumberOfFailedTestsInstanceE
 1362              		.comm	_ZN12_GLOBAL__N_138testRecordsNumberOfFailedTestsInstanceE,56,32
 1363              		.local	_ZN12_GLOBAL__N_131adderRecordsNumberOfFailedTestsE
 1364              		.comm	_ZN12_GLOBAL__N_131adderRecordsNumberOfFailedTestsE,1,1
 1365              		.section	.rodata
 1366 01b4 00000000 		.align 8
 1367              	.LC13:
 1368 01b8 556E6861 		.string	"Unhandled exception in CHECK_EQUAL(2, results.GetFailedTestCount())"
 1368      6E646C65 
 1368      64206578 
 1368      63657074 
 1368      696F6E20 
 1369              		.text
 1370 05c1 90       		.align 2
 1372              	_ZNK12_GLOBAL__N_130TestRecordsNumberOfFailedTests7RunImplEv:
 1373              	.LFB1117:
  42:TestTestResults.cpp **** {
 1374              		.loc 5 42 0
 1375              		.cfi_startproc
 1376              		.cfi_personality 0x9b,DW.ref.__gxx_personality_v0
 1377              		.cfi_lsda 0x1b,.LLSDA1117
 1378 05c2 55       		pushq	%rbp
 1379              		.cfi_def_cfa_offset 16
 1380              		.cfi_offset 6, -16
 1381 05c3 4889E5   		movq	%rsp, %rbp
 1382              		.cfi_def_cfa_register 6
 1383 05c6 53       		pushq	%rbx
 1384 05c7 4883EC78 		subq	$120, %rsp
 1385              		.cfi_offset 3, -24
 1386 05cb 48897D88 		movq	%rdi, -120(%rbp)
 1387              		.loc 5 42 0
 1388 05cf 64488B04 		movq	%fs:40, %rax
 1388      25280000 
 1388      00
 1389 05d8 488945E8 		movq	%rax, -24(%rbp)
 1390 05dc 31C0     		xorl	%eax, %eax
  43:TestTestResults.cpp ****     TestResults results;
 1391              		.loc 5 43 0
 1392 05de 488D45A0 		leaq	-96(%rbp), %rax
 1393 05e2 BE000000 		movl	$0, %esi
 1393      00
 1394 05e7 4889C7   		movq	%rax, %rdi
 1395              	.LEHB28:
 1396 05ea E8000000 		call	_ZN8UnitTest11TestResultsC1EPNS_12TestReporterE@PLT
 1396      00
  44:TestTestResults.cpp **** 
  45:TestTestResults.cpp ****     results.OnTestStart(details);
 1397              		.loc 5 45 0
 1398 05ef 488D45A0 		leaq	-96(%rbp), %rax
 1399 05f3 488D3500 		leaq	_ZN12_GLOBAL__N_1L7detailsE(%rip), %rsi
 1399      000000
 1400 05fa 4889C7   		movq	%rax, %rdi
 1401 05fd E8000000 		call	_ZN8UnitTest11TestResults11OnTestStartERKNS_11TestDetailsE@PLT
 1401      00
  46:TestTestResults.cpp ****     results.OnTestFailure(details, "");
 1402              		.loc 5 46 0
 1403 0602 488D45A0 		leaq	-96(%rbp), %rax
 1404 0606 488D1500 		leaq	.LC10(%rip), %rdx
 1404      000000
 1405 060d 488D3500 		leaq	_ZN12_GLOBAL__N_1L7detailsE(%rip), %rsi
 1405      000000
 1406 0614 4889C7   		movq	%rax, %rdi
 1407 0617 E8000000 		call	_ZN8UnitTest11TestResults13OnTestFailureERKNS_11TestDetailsEPKc@PLT
 1407      00
  47:TestTestResults.cpp ****     results.OnTestFinish(details, 0);
 1408              		.loc 5 47 0
 1409 061c 488D45A0 		leaq	-96(%rbp), %rax
 1410 0620 660FEFC0 		pxor	%xmm0, %xmm0
 1411 0624 488D3500 		leaq	_ZN12_GLOBAL__N_1L7detailsE(%rip), %rsi
 1411      000000
 1412 062b 4889C7   		movq	%rax, %rdi
 1413 062e E8000000 		call	_ZN8UnitTest11TestResults12OnTestFinishERKNS_11TestDetailsEf@PLT
 1413      00
  48:TestTestResults.cpp **** 
  49:TestTestResults.cpp ****     results.OnTestStart(details);
 1414              		.loc 5 49 0
 1415 0633 488D45A0 		leaq	-96(%rbp), %rax
 1416 0637 488D3500 		leaq	_ZN12_GLOBAL__N_1L7detailsE(%rip), %rsi
 1416      000000
 1417 063e 4889C7   		movq	%rax, %rdi
 1418 0641 E8000000 		call	_ZN8UnitTest11TestResults11OnTestStartERKNS_11TestDetailsE@PLT
 1418      00
  50:TestTestResults.cpp ****     results.OnTestFailure(details, "");
 1419              		.loc 5 50 0
 1420 0646 488D45A0 		leaq	-96(%rbp), %rax
 1421 064a 488D1500 		leaq	.LC10(%rip), %rdx
 1421      000000
 1422 0651 488D3500 		leaq	_ZN12_GLOBAL__N_1L7detailsE(%rip), %rsi
 1422      000000
 1423 0658 4889C7   		movq	%rax, %rdi
 1424 065b E8000000 		call	_ZN8UnitTest11TestResults13OnTestFailureERKNS_11TestDetailsEPKc@PLT
 1424      00
  51:TestTestResults.cpp ****     results.OnTestFailure(details, "");
 1425              		.loc 5 51 0
 1426 0660 488D45A0 		leaq	-96(%rbp), %rax
 1427 0664 488D1500 		leaq	.LC10(%rip), %rdx
 1427      000000
 1428 066b 488D3500 		leaq	_ZN12_GLOBAL__N_1L7detailsE(%rip), %rsi
 1428      000000
 1429 0672 4889C7   		movq	%rax, %rdi
 1430 0675 E8000000 		call	_ZN8UnitTest11TestResults13OnTestFailureERKNS_11TestDetailsEPKc@PLT
 1430      00
  52:TestTestResults.cpp ****     results.OnTestFailure(details, "");
 1431              		.loc 5 52 0
 1432 067a 488D45A0 		leaq	-96(%rbp), %rax
 1433 067e 488D1500 		leaq	.LC10(%rip), %rdx
 1433      000000
 1434 0685 488D3500 		leaq	_ZN12_GLOBAL__N_1L7detailsE(%rip), %rsi
 1434      000000
 1435 068c 4889C7   		movq	%rax, %rdi
 1436 068f E8000000 		call	_ZN8UnitTest11TestResults13OnTestFailureERKNS_11TestDetailsEPKc@PLT
 1436      00
  53:TestTestResults.cpp ****     results.OnTestFinish(details, 0);
 1437              		.loc 5 53 0
 1438 0694 488D45A0 		leaq	-96(%rbp), %rax
 1439 0698 660FEFC0 		pxor	%xmm0, %xmm0
 1440 069c 488D3500 		leaq	_ZN12_GLOBAL__N_1L7detailsE(%rip), %rsi
 1440      000000
 1441 06a3 4889C7   		movq	%rax, %rdi
 1442 06a6 E8000000 		call	_ZN8UnitTest11TestResults12OnTestFinishERKNS_11TestDetailsEf@PLT
 1442      00
 1443              	.LEHE28:
 1444              	.LEHB29:
  54:TestTestResults.cpp **** 
  55:TestTestResults.cpp ****     CHECK_EQUAL (2, results.GetFailedTestCount());
 1445              		.loc 5 55 0
 1446 06ab E8000000 		call	_ZN8UnitTest11CurrentTest7DetailsEv@PLT
 1446      00
 1447 06b0 488B08   		movq	(%rax), %rcx
 1448 06b3 488D45C0 		leaq	-64(%rbp), %rax
 1449 06b7 BA370000 		movl	$55, %edx
 1449      00
 1450 06bc 4889CE   		movq	%rcx, %rsi
 1451 06bf 4889C7   		movq	%rax, %rdi
 1452 06c2 E8000000 		call	_ZN8UnitTest11TestDetailsC1ERKS0_i@PLT
 1452      00
 1453              		.loc 5 55 0 is_stmt 0 discriminator 2
 1454 06c7 488D45A0 		leaq	-96(%rbp), %rax
 1455 06cb 4889C7   		movq	%rax, %rdi
 1456 06ce E8000000 		call	_ZNK8UnitTest11TestResults18GetFailedTestCountEv@PLT
 1456      00
 1457              	.LEHE29:
 1458 06d3 89459C   		movl	%eax, -100(%rbp)
 1459 06d6 C7459802 		movl	$2, -104(%rbp)
 1459      000000
 1460              	.LEHB30:
 1461 06dd E8000000 		call	_ZN8UnitTest11CurrentTest7ResultsEv@PLT
 1461      00
 1462              		.loc 5 55 0 discriminator 4
 1463 06e2 488B00   		movq	(%rax), %rax
 1464 06e5 488D4DC0 		leaq	-64(%rbp), %rcx
 1465 06e9 488D559C 		leaq	-100(%rbp), %rdx
 1466 06ed 488D7598 		leaq	-104(%rbp), %rsi
 1467 06f1 4889C7   		movq	%rax, %rdi
 1468 06f4 E8000000 		call	_ZN8UnitTest10CheckEqualIiiEEvRNS_11TestResultsERKT_RKT0_RKNS_11TestDetailsE
 1468      00
 1469              	.LEHE30:
  56:TestTestResults.cpp **** }
 1470              		.loc 5 56 0 is_stmt 1
 1471 06f9 EB5E     		jmp	.L57
 1472              	.L64:
 1473 06fb EB00     		jmp	.L59
 1474              	.L63:
 1475              	.L59:
  55:TestTestResults.cpp **** }
 1476              		.loc 5 55 0
 1477 06fd 4889C7   		movq	%rax, %rdi
 1478 0700 E8000000 		call	__cxa_begin_catch@PLT
 1478      00
 1479              	.LEHB31:
 1480 0705 E8000000 		call	_ZN8UnitTest11CurrentTest7ResultsEv@PLT
 1480      00
 1481 070a 488B18   		movq	(%rax), %rbx
 1482 070d E8000000 		call	_ZN8UnitTest11CurrentTest7DetailsEv@PLT
 1482      00
  55:TestTestResults.cpp **** }
 1483              		.loc 5 55 0 is_stmt 0 discriminator 10
 1484 0712 488B08   		movq	(%rax), %rcx
 1485 0715 488D45C0 		leaq	-64(%rbp), %rax
 1486 0719 BA370000 		movl	$55, %edx
 1486      00
 1487 071e 4889CE   		movq	%rcx, %rsi
 1488 0721 4889C7   		movq	%rax, %rdi
 1489 0724 E8000000 		call	_ZN8UnitTest11TestDetailsC1ERKS0_i@PLT
 1489      00
  55:TestTestResults.cpp **** }
 1490              		.loc 5 55 0 discriminator 14
 1491 0729 488D45C0 		leaq	-64(%rbp), %rax
 1492 072d 488D1500 		leaq	.LC13(%rip), %rdx
 1492      000000
 1493 0734 4889C6   		movq	%rax, %rsi
 1494 0737 4889DF   		movq	%rbx, %rdi
 1495 073a E8000000 		call	_ZN8UnitTest11TestResults13OnTestFailureERKNS_11TestDetailsEPKc@PLT
 1495      00
 1496              	.LEHE31:
 1497              	.LEHB32:
  55:TestTestResults.cpp **** }
 1498              		.loc 5 55 0 discriminator 16
 1499 073f E8000000 		call	__cxa_end_catch@PLT
 1499      00
 1500              	.LEHE32:
 1501              		.loc 5 56 0 is_stmt 1 discriminator 16
 1502 0744 EB13     		jmp	.L57
 1503              	.L65:
 1504 0746 4889C3   		movq	%rax, %rbx
  55:TestTestResults.cpp **** }
 1505              		.loc 5 55 0
 1506 0749 E8000000 		call	__cxa_end_catch@PLT
 1506      00
 1507 074e 4889D8   		movq	%rbx, %rax
 1508 0751 4889C7   		movq	%rax, %rdi
 1509              	.LEHB33:
 1510 0754 E8000000 		call	_Unwind_Resume@PLT
 1510      00
 1511              	.LEHE33:
 1512              	.L57:
 1513              		.loc 5 56 0
 1514 0759 488B45E8 		movq	-24(%rbp), %rax
 1515 075d 64483304 		xorq	%fs:40, %rax
 1515      25280000 
 1515      00
 1516 0766 7405     		je	.L62
 1517 0768 E8000000 		call	__stack_chk_fail@PLT
 1517      00
 1518              	.L62:
 1519 076d 4883C478 		addq	$120, %rsp
 1520 0771 5B       		popq	%rbx
 1521 0772 5D       		popq	%rbp
 1522              		.cfi_def_cfa 7, 8
 1523 0773 C3       		ret
 1524              		.cfi_endproc
 1525              	.LFE1117:
 1526              		.section	.gcc_except_table
 1527              		.align 4
 1528              	.LLSDA1117:
 1529 00b0 FF       		.byte	0xff
 1530 00b1 9B       		.byte	0x9b
 1531 00b2 2D       		.uleb128 .LLSDATT1117-.LLSDATTD1117
 1532              	.LLSDATTD1117:
 1533 00b3 01       		.byte	0x1
 1534 00b4 21       		.uleb128 .LLSDACSE1117-.LLSDACSB1117
 1535              	.LLSDACSB1117:
 1536 00b5 28       		.uleb128 .LEHB28-.LFB1117
 1537 00b6 C101     		.uleb128 .LEHE28-.LEHB28
 1538 00b8 00       		.uleb128 0
 1539 00b9 00       		.uleb128 0
 1540 00ba E901     		.uleb128 .LEHB29-.LFB1117
 1541 00bc 28       		.uleb128 .LEHE29-.LEHB29
 1542 00bd BB02     		.uleb128 .L63-.LFB1117
 1543 00bf 01       		.uleb128 0x1
 1544 00c0 9B02     		.uleb128 .LEHB30-.LFB1117
 1545 00c2 1C       		.uleb128 .LEHE30-.LEHB30
 1546 00c3 B902     		.uleb128 .L64-.LFB1117
 1547 00c5 03       		.uleb128 0x3
 1548 00c6 C302     		.uleb128 .LEHB31-.LFB1117
 1549 00c8 3A       		.uleb128 .LEHE31-.LEHB31
 1550 00c9 8403     		.uleb128 .L65-.LFB1117
 1551 00cb 00       		.uleb128 0
 1552 00cc FD02     		.uleb128 .LEHB32-.LFB1117
 1553 00ce 05       		.uleb128 .LEHE32-.LEHB32
 1554 00cf 00       		.uleb128 0
 1555 00d0 00       		.uleb128 0
 1556 00d1 9203     		.uleb128 .LEHB33-.LFB1117
 1557 00d3 05       		.uleb128 .LEHE33-.LEHB33
 1558 00d4 00       		.uleb128 0
 1559 00d5 00       		.uleb128 0
 1560              	.LLSDACSE1117:
 1561 00d6 01       		.byte	0x1
 1562 00d7 00       		.byte	0
 1563 00d8 00       		.byte	0
 1564 00d9 7D       		.byte	0x7d
 1565 00da 0000     		.align 4
 1566 00dc 00000000 		.long	0
 1567              	
 1568              	.LLSDATT1117:
 1569              		.text
 1571              		.section	.rodata
 1572 01fc 00000000 		.align 8
 1573              	.LC14:
 1574 0200 4E6F7469 		.string	"NotifiesReporterOfTestStartWithCorrectInfo"
 1574      66696573 
 1574      5265706F 
 1574      72746572 
 1574      4F665465 
 1575              		.text
 1576              		.align 2
 1578              	_ZN12_GLOBAL__N_146TestNotifiesReporterOfTestStartWithCorrectInfoC2Ev:
 1579              	.LFB1119:
  57:TestTestResults.cpp **** 
  58:TestTestResults.cpp **** TEST(NotifiesReporterOfTestStartWithCorrectInfo)
 1580              		.loc 5 58 0
 1581              		.cfi_startproc
 1582 0774 55       		pushq	%rbp
 1583              		.cfi_def_cfa_offset 16
 1584              		.cfi_offset 6, -16
 1585 0775 4889E5   		movq	%rsp, %rbp
 1586              		.cfi_def_cfa_register 6
 1587 0778 53       		pushq	%rbx
 1588 0779 4883EC18 		subq	$24, %rsp
 1589              		.cfi_offset 3, -24
 1590 077d 48897DE8 		movq	%rdi, -24(%rbp)
 1591              	.LBB11:
 1592              		.loc 5 58 0
 1593 0781 488B5DE8 		movq	-24(%rbp), %rbx
 1594 0785 E8000000 		call	_ZN13UnitTestSuite12GetSuiteNameEv
 1594      00
 1595 078a 41B83A00 		movl	$58, %r8d
 1595      0000
 1596 0790 488D0D00 		leaq	.LC2(%rip), %rcx
 1596      000000
 1597 0797 4889C2   		movq	%rax, %rdx
 1598 079a 488D3500 		leaq	.LC14(%rip), %rsi
 1598      000000
 1599 07a1 4889DF   		movq	%rbx, %rdi
 1600 07a4 E8000000 		call	_ZN8UnitTest4TestC2EPKcS2_S2_i@PLT
 1600      00
 1601 07a9 488D1500 		leaq	16+_ZTVN12_GLOBAL__N_146TestNotifiesReporterOfTestStartWithCorrectInfoE(%rip), %rdx
 1601      000000
 1602 07b0 488B45E8 		movq	-24(%rbp), %rax
 1603 07b4 488910   		movq	%rdx, (%rax)
 1604              	.LBE11:
 1605 07b7 90       		nop
 1606 07b8 4883C418 		addq	$24, %rsp
 1607 07bc 5B       		popq	%rbx
 1608 07bd 5D       		popq	%rbp
 1609              		.cfi_def_cfa 7, 8
 1610 07be C3       		ret
 1611              		.cfi_endproc
 1612              	.LFE1119:
 1614              		.set	_ZN12_GLOBAL__N_146TestNotifiesReporterOfTestStartWithCorrectInfoC1Ev,_ZN12_GLOBAL__N_146Test
 1615              		.local	_ZN12_GLOBAL__N_154testNotifiesReporterOfTestStartWithCorrectInfoInstanceE
 1616              		.comm	_ZN12_GLOBAL__N_154testNotifiesReporterOfTestStartWithCorrectInfoInstanceE,56,32
 1617              		.local	_ZN12_GLOBAL__N_147adderNotifiesReporterOfTestStartWithCorrectInfoE
 1618              		.comm	_ZN12_GLOBAL__N_147adderNotifiesReporterOfTestStartWithCorrectInfoE,1,1
 1619              		.section	.rodata
 1620              	.LC15:
 1621 022b 73756974 		.string	"suitename"
 1621      656E616D 
 1621      6500
 1622              	.LC16:
 1623 0235 74657374 		.string	"testname"
 1623      6E616D65 
 1623      00
 1624 023e 0000     		.align 8
 1625              	.LC17:
 1626 0240 556E6861 		.string	"Unhandled exception in CHECK_EQUAL(1, reporter.testRunCount)"
 1626      6E646C65 
 1626      64206578 
 1626      63657074 
 1626      696F6E20 
 1627 027d 000000   		.align 8
 1628              	.LC18:
 1629 0280 556E6861 		.string	"Unhandled exception in CHECK_EQUAL(\"suitename\", reporter.lastStartedSuite)"
 1629      6E646C65 
 1629      64206578 
 1629      63657074 
 1629      696F6E20 
 1630 02cb 00000000 		.align 8
 1630      00
 1631              	.LC19:
 1632 02d0 556E6861 		.string	"Unhandled exception in CHECK_EQUAL(\"testname\", reporter.lastStartedTest)"
 1632      6E646C65 
 1632      64206578 
 1632      63657074 
 1632      696F6E20 
 1633              		.text
 1634 07bf 90       		.align 2
 1636              	_ZNK12_GLOBAL__N_146TestNotifiesReporterOfTestStartWithCorrectInfo7RunImplEv:
 1637              	.LFB1121:
  59:TestTestResults.cpp **** {
 1638              		.loc 5 59 0
 1639              		.cfi_startproc
 1640              		.cfi_personality 0x9b,DW.ref.__gxx_personality_v0
 1641              		.cfi_lsda 0x1b,.LLSDA1121
 1642 07c0 55       		pushq	%rbp
 1643              		.cfi_def_cfa_offset 16
 1644              		.cfi_offset 6, -16
 1645 07c1 4889E5   		movq	%rsp, %rbp
 1646              		.cfi_def_cfa_register 6
 1647 07c4 53       		pushq	%rbx
 1648 07c5 4881ECA8 		subq	$2216, %rsp
 1648      080000
 1649              		.cfi_offset 3, -24
 1650 07cc 4889BD58 		movq	%rdi, -2216(%rbp)
 1650      F7FFFF
 1651              		.loc 5 59 0
 1652 07d3 64488B04 		movq	%fs:40, %rax
 1652      25280000 
 1652      00
 1653 07dc 488945E8 		movq	%rax, -24(%rbp)
 1654 07e0 31C0     		xorl	%eax, %eax
  60:TestTestResults.cpp ****     RecordingReporter reporter;
 1655              		.loc 5 60 0
 1656 07e2 488D85B0 		leaq	-2128(%rbp), %rax
 1656      F7FFFF
 1657 07e9 4889C7   		movq	%rax, %rdi
 1658 07ec E8000000 		call	_ZN17RecordingReporterC1Ev
 1658      00
  61:TestTestResults.cpp ****     TestResults results(&reporter);
 1659              		.loc 5 61 0
 1660 07f1 488D95B0 		leaq	-2128(%rbp), %rdx
 1660      F7FFFF
 1661 07f8 488D8570 		leaq	-2192(%rbp), %rax
 1661      F7FFFF
 1662 07ff 4889D6   		movq	%rdx, %rsi
 1663 0802 4889C7   		movq	%rax, %rdi
 1664              	.LEHB34:
 1665 0805 E8000000 		call	_ZN8UnitTest11TestResultsC1EPNS_12TestReporterE@PLT
 1665      00
  62:TestTestResults.cpp ****     results.OnTestStart(details);
 1666              		.loc 5 62 0
 1667 080a 488D8570 		leaq	-2192(%rbp), %rax
 1667      F7FFFF
 1668 0811 488D3500 		leaq	_ZN12_GLOBAL__N_1L7detailsE(%rip), %rsi
 1668      000000
 1669 0818 4889C7   		movq	%rax, %rdi
 1670 081b E8000000 		call	_ZN8UnitTest11TestResults11OnTestStartERKNS_11TestDetailsE@PLT
 1670      00
 1671              	.LEHE34:
 1672              	.LEHB35:
  63:TestTestResults.cpp **** 
  64:TestTestResults.cpp ****     CHECK_EQUAL (1, reporter.testRunCount);
 1673              		.loc 5 64 0
 1674 0820 E8000000 		call	_ZN8UnitTest11CurrentTest7DetailsEv@PLT
 1674      00
 1675 0825 488B08   		movq	(%rax), %rcx
 1676 0828 488D8590 		leaq	-2160(%rbp), %rax
 1676      F7FFFF
 1677 082f BA400000 		movl	$64, %edx
 1677      00
 1678 0834 4889CE   		movq	%rcx, %rsi
 1679 0837 4889C7   		movq	%rax, %rdi
 1680 083a E8000000 		call	_ZN8UnitTest11TestDetailsC1ERKS0_i@PLT
 1680      00
 1681              	.LEHE35:
 1682              		.loc 5 64 0 is_stmt 0 discriminator 2
 1683 083f C7856CF7 		movl	$1, -2196(%rbp)
 1683      FFFF0100 
 1683      0000
 1684              	.LEHB36:
 1685 0849 E8000000 		call	_ZN8UnitTest11CurrentTest7ResultsEv@PLT
 1685      00
 1686 084e 488B00   		movq	(%rax), %rax
 1687 0851 488D9590 		leaq	-2160(%rbp), %rdx
 1687      F7FFFF
 1688 0858 488D8DB0 		leaq	-2128(%rbp), %rcx
 1688      F7FFFF
 1689 085f 488D7908 		leaq	8(%rcx), %rdi
 1690 0863 488DB56C 		leaq	-2196(%rbp), %rsi
 1690      F7FFFF
 1691 086a 4889D1   		movq	%rdx, %rcx
 1692 086d 4889FA   		movq	%rdi, %rdx
 1693 0870 4889C7   		movq	%rax, %rdi
 1694 0873 E8000000 		call	_ZN8UnitTest10CheckEqualIiiEEvRNS_11TestResultsERKT_RKT0_RKNS_11TestDetailsE
 1694      00
 1695              	.LEHE36:
 1696              	.L70:
 1697              	.LEHB37:
  65:TestTestResults.cpp ****     CHECK_EQUAL ("suitename", reporter.lastStartedSuite);
 1698              		.loc 5 65 0 is_stmt 1
 1699 0878 E8000000 		call	_ZN8UnitTest11CurrentTest7DetailsEv@PLT
 1699      00
 1700 087d 488B08   		movq	(%rax), %rcx
 1701 0880 488D8590 		leaq	-2160(%rbp), %rax
 1701      F7FFFF
 1702 0887 BA410000 		movl	$65, %edx
 1702      00
 1703 088c 4889CE   		movq	%rcx, %rsi
 1704 088f 4889C7   		movq	%rax, %rdi
 1705 0892 E8000000 		call	_ZN8UnitTest11TestDetailsC1ERKS0_i@PLT
 1705      00
 1706              		.loc 5 65 0 is_stmt 0 discriminator 2
 1707 0897 E8000000 		call	_ZN8UnitTest11CurrentTest7ResultsEv@PLT
 1707      00
 1708 089c 488B00   		movq	(%rax), %rax
 1709 089f 488D9590 		leaq	-2160(%rbp), %rdx
 1709      F7FFFF
 1710 08a6 488D8DB0 		leaq	-2128(%rbp), %rcx
 1710      F7FFFF
 1711 08ad 488D710C 		leaq	12(%rcx), %rsi
 1712 08b1 4889D1   		movq	%rdx, %rcx
 1713 08b4 4889F2   		movq	%rsi, %rdx
 1714 08b7 488D3500 		leaq	.LC15(%rip), %rsi
 1714      000000
 1715 08be 4889C7   		movq	%rax, %rdi
 1716 08c1 E8000000 		call	_ZN8UnitTest10CheckEqualERNS_11TestResultsEPKcPcRKNS_11TestDetailsE@PLT
 1716      00
 1717              	.LEHE37:
 1718              	.L74:
 1719              	.LEHB38:
  66:TestTestResults.cpp ****     CHECK_EQUAL ("testname", reporter.lastStartedTest);
 1720              		.loc 5 66 0 is_stmt 1
 1721 08c6 E8000000 		call	_ZN8UnitTest11CurrentTest7DetailsEv@PLT
 1721      00
 1722 08cb 488B08   		movq	(%rax), %rcx
 1723 08ce 488D8590 		leaq	-2160(%rbp), %rax
 1723      F7FFFF
 1724 08d5 BA420000 		movl	$66, %edx
 1724      00
 1725 08da 4889CE   		movq	%rcx, %rsi
 1726 08dd 4889C7   		movq	%rax, %rdi
 1727 08e0 E8000000 		call	_ZN8UnitTest11TestDetailsC1ERKS0_i@PLT
 1727      00
 1728              		.loc 5 66 0 is_stmt 0 discriminator 2
 1729 08e5 E8000000 		call	_ZN8UnitTest11CurrentTest7ResultsEv@PLT
 1729      00
 1730 08ea 488B00   		movq	(%rax), %rax
 1731 08ed 488D9590 		leaq	-2160(%rbp), %rdx
 1731      F7FFFF
 1732 08f4 488D8DB0 		leaq	-2128(%rbp), %rcx
 1732      F7FFFF
 1733 08fb 488DB10C 		leaq	268(%rcx), %rsi
 1733      010000
 1734 0902 4889D1   		movq	%rdx, %rcx
 1735 0905 4889F2   		movq	%rsi, %rdx
 1736 0908 488D3500 		leaq	.LC16(%rip), %rsi
 1736      000000
 1737 090f 4889C7   		movq	%rax, %rdi
 1738 0912 E8000000 		call	_ZN8UnitTest10CheckEqualERNS_11TestResultsEPKcPcRKNS_11TestDetailsE@PLT
 1738      00
 1739              	.LEHE38:
 1740              	.L77:
  60:TestTestResults.cpp ****     TestResults results(&reporter);
 1741              		.loc 5 60 0 is_stmt 1
 1742 0917 488D85B0 		leaq	-2128(%rbp), %rax
 1742      F7FFFF
 1743 091e 4889C7   		movq	%rax, %rdi
 1744              	.LEHB39:
 1745 0921 E8000000 		call	_ZN17RecordingReporterD1Ev
 1745      00
 1746              	.LEHE39:
  67:TestTestResults.cpp **** }
 1747              		.loc 5 67 0
 1748 0926 90       		nop
 1749 0927 488B45E8 		movq	-24(%rbp), %rax
 1750 092b 64483304 		xorq	%fs:40, %rax
 1750      25280000 
 1750      00
 1751 0934 0F844001 		je	.L79
 1751      0000
 1752 093a E9360100 		jmp	.L88
 1752      00
 1753              	.L82:
 1754 093f EB00     		jmp	.L69
 1755              	.L81:
 1756              	.L69:
  64:TestTestResults.cpp ****     CHECK_EQUAL ("suitename", reporter.lastStartedSuite);
 1757              		.loc 5 64 0
 1758 0941 4889C7   		movq	%rax, %rdi
 1759 0944 E8000000 		call	__cxa_begin_catch@PLT
 1759      00
 1760              	.LEHB40:
 1761 0949 E8000000 		call	_ZN8UnitTest11CurrentTest7ResultsEv@PLT
 1761      00
 1762 094e 488B18   		movq	(%rax), %rbx
 1763 0951 E8000000 		call	_ZN8UnitTest11CurrentTest7DetailsEv@PLT
 1763      00
  64:TestTestResults.cpp ****     CHECK_EQUAL ("suitename", reporter.lastStartedSuite);
 1764              		.loc 5 64 0 is_stmt 0 discriminator 8
 1765 0956 488B08   		movq	(%rax), %rcx
 1766 0959 488D8590 		leaq	-2160(%rbp), %rax
 1766      F7FFFF
 1767 0960 BA400000 		movl	$64, %edx
 1767      00
 1768 0965 4889CE   		movq	%rcx, %rsi
 1769 0968 4889C7   		movq	%rax, %rdi
 1770 096b E8000000 		call	_ZN8UnitTest11TestDetailsC1ERKS0_i@PLT
 1770      00
  64:TestTestResults.cpp ****     CHECK_EQUAL ("suitename", reporter.lastStartedSuite);
 1771              		.loc 5 64 0 discriminator 12
 1772 0970 488D8590 		leaq	-2160(%rbp), %rax
 1772      F7FFFF
 1773 0977 488D1500 		leaq	.LC17(%rip), %rdx
 1773      000000
 1774 097e 4889C6   		movq	%rax, %rsi
 1775 0981 4889DF   		movq	%rbx, %rdi
 1776 0984 E8000000 		call	_ZN8UnitTest11TestResults13OnTestFailureERKNS_11TestDetailsEPKc@PLT
 1776      00
 1777              	.LEHE40:
 1778              	.LEHB41:
  64:TestTestResults.cpp ****     CHECK_EQUAL ("suitename", reporter.lastStartedSuite);
 1779              		.loc 5 64 0 discriminator 14
 1780 0989 E8000000 		call	__cxa_end_catch@PLT
 1780      00
 1781              	.LEHE41:
  64:TestTestResults.cpp ****     CHECK_EQUAL ("suitename", reporter.lastStartedSuite);
 1782              		.loc 5 64 0
 1783 098e E9E5FEFF 		jmp	.L70
 1783      FF
 1784              	.L83:
 1785 0993 4889C3   		movq	%rax, %rbx
 1786 0996 E8000000 		call	__cxa_end_catch@PLT
 1786      00
 1787 099b E9BB0000 		jmp	.L72
 1787      00
 1788              	.L84:
  65:TestTestResults.cpp ****     CHECK_EQUAL ("testname", reporter.lastStartedTest);
 1789              		.loc 5 65 0 is_stmt 1
 1790 09a0 4889C7   		movq	%rax, %rdi
 1791 09a3 E8000000 		call	__cxa_begin_catch@PLT
 1791      00
 1792              	.LEHB42:
 1793 09a8 E8000000 		call	_ZN8UnitTest11CurrentTest7ResultsEv@PLT
 1793      00
 1794 09ad 488B18   		movq	(%rax), %rbx
 1795 09b0 E8000000 		call	_ZN8UnitTest11CurrentTest7DetailsEv@PLT
 1795      00
  65:TestTestResults.cpp ****     CHECK_EQUAL ("testname", reporter.lastStartedTest);
 1796              		.loc 5 65 0 is_stmt 0 discriminator 8
 1797 09b5 488B08   		movq	(%rax), %rcx
 1798 09b8 488D8590 		leaq	-2160(%rbp), %rax
 1798      F7FFFF
 1799 09bf BA410000 		movl	$65, %edx
 1799      00
 1800 09c4 4889CE   		movq	%rcx, %rsi
 1801 09c7 4889C7   		movq	%rax, %rdi
 1802 09ca E8000000 		call	_ZN8UnitTest11TestDetailsC1ERKS0_i@PLT
 1802      00
  65:TestTestResults.cpp ****     CHECK_EQUAL ("testname", reporter.lastStartedTest);
 1803              		.loc 5 65 0 discriminator 12
 1804 09cf 488D8590 		leaq	-2160(%rbp), %rax
 1804      F7FFFF
 1805 09d6 488D1500 		leaq	.LC18(%rip), %rdx
 1805      000000
 1806 09dd 4889C6   		movq	%rax, %rsi
 1807 09e0 4889DF   		movq	%rbx, %rdi
 1808 09e3 E8000000 		call	_ZN8UnitTest11TestResults13OnTestFailureERKNS_11TestDetailsEPKc@PLT
 1808      00
 1809              	.LEHE42:
 1810              	.LEHB43:
  65:TestTestResults.cpp ****     CHECK_EQUAL ("testname", reporter.lastStartedTest);
 1811              		.loc 5 65 0 discriminator 14
 1812 09e8 E8000000 		call	__cxa_end_catch@PLT
 1812      00
 1813              	.LEHE43:
  65:TestTestResults.cpp ****     CHECK_EQUAL ("testname", reporter.lastStartedTest);
 1814              		.loc 5 65 0
 1815 09ed E9D4FEFF 		jmp	.L74
 1815      FF
 1816              	.L85:
 1817 09f2 4889C3   		movq	%rax, %rbx
 1818 09f5 E8000000 		call	__cxa_end_catch@PLT
 1818      00
 1819 09fa EB5F     		jmp	.L72
 1820              	.L86:
  66:TestTestResults.cpp **** }
 1821              		.loc 5 66 0 is_stmt 1
 1822 09fc 4889C7   		movq	%rax, %rdi
 1823 09ff E8000000 		call	__cxa_begin_catch@PLT
 1823      00
 1824              	.LEHB44:
 1825 0a04 E8000000 		call	_ZN8UnitTest11CurrentTest7ResultsEv@PLT
 1825      00
 1826 0a09 488B18   		movq	(%rax), %rbx
 1827 0a0c E8000000 		call	_ZN8UnitTest11CurrentTest7DetailsEv@PLT
 1827      00
  66:TestTestResults.cpp **** }
 1828              		.loc 5 66 0 is_stmt 0 discriminator 8
 1829 0a11 488B08   		movq	(%rax), %rcx
 1830 0a14 488D8590 		leaq	-2160(%rbp), %rax
 1830      F7FFFF
 1831 0a1b BA420000 		movl	$66, %edx
 1831      00
 1832 0a20 4889CE   		movq	%rcx, %rsi
 1833 0a23 4889C7   		movq	%rax, %rdi
 1834 0a26 E8000000 		call	_ZN8UnitTest11TestDetailsC1ERKS0_i@PLT
 1834      00
  66:TestTestResults.cpp **** }
 1835              		.loc 5 66 0 discriminator 12
 1836 0a2b 488D8590 		leaq	-2160(%rbp), %rax
 1836      F7FFFF
 1837 0a32 488D1500 		leaq	.LC19(%rip), %rdx
 1837      000000
 1838 0a39 4889C6   		movq	%rax, %rsi
 1839 0a3c 4889DF   		movq	%rbx, %rdi
 1840 0a3f E8000000 		call	_ZN8UnitTest11TestResults13OnTestFailureERKNS_11TestDetailsEPKc@PLT
 1840      00
 1841              	.LEHE44:
 1842              	.LEHB45:
  66:TestTestResults.cpp **** }
 1843              		.loc 5 66 0 discriminator 14
 1844 0a44 E8000000 		call	__cxa_end_catch@PLT
 1844      00
 1845              	.LEHE45:
  66:TestTestResults.cpp **** }
 1846              		.loc 5 66 0
 1847 0a49 E9C9FEFF 		jmp	.L77
 1847      FF
 1848              	.L87:
 1849 0a4e 4889C3   		movq	%rax, %rbx
 1850 0a51 E8000000 		call	__cxa_end_catch@PLT
 1850      00
 1851 0a56 EB03     		jmp	.L72
 1852              	.L80:
 1853 0a58 4889C3   		movq	%rax, %rbx
 1854              	.L72:
  60:TestTestResults.cpp ****     TestResults results(&reporter);
 1855              		.loc 5 60 0 is_stmt 1
 1856 0a5b 488D85B0 		leaq	-2128(%rbp), %rax
 1856      F7FFFF
 1857 0a62 4889C7   		movq	%rax, %rdi
 1858 0a65 E8000000 		call	_ZN17RecordingReporterD1Ev
 1858      00
 1859 0a6a 4889D8   		movq	%rbx, %rax
 1860 0a6d 4889C7   		movq	%rax, %rdi
 1861              	.LEHB46:
 1862 0a70 E8000000 		call	_Unwind_Resume@PLT
 1862      00
 1863              	.LEHE46:
 1864              	.L88:
 1865              		.loc 5 67 0
 1866 0a75 E8000000 		call	__stack_chk_fail@PLT
 1866      00
 1867              	.L79:
 1868 0a7a 4881C4A8 		addq	$2216, %rsp
 1868      080000
 1869 0a81 5B       		popq	%rbx
 1870 0a82 5D       		popq	%rbp
 1871              		.cfi_def_cfa 7, 8
 1872 0a83 C3       		ret
 1873              		.cfi_endproc
 1874              	.LFE1121:
 1875              		.section	.gcc_except_table
 1876              		.align 4
 1877              	.LLSDA1121:
 1878 00e0 FF       		.byte	0xff
 1879 00e1 9B       		.byte	0x9b
 1880 00e2 55       		.uleb128 .LLSDATT1121-.LLSDATTD1121
 1881              	.LLSDATTD1121:
 1882 00e3 01       		.byte	0x1
 1883 00e4 4A       		.uleb128 .LLSDACSE1121-.LLSDACSB1121
 1884              	.LLSDACSB1121:
 1885 00e5 45       		.uleb128 .LEHB34-.LFB1121
 1886 00e6 1B       		.uleb128 .LEHE34-.LEHB34
 1887 00e7 9805     		.uleb128 .L80-.LFB1121
 1888 00e9 00       		.uleb128 0
 1889 00ea 60       		.uleb128 .LEHB35-.LFB1121
 1890 00eb 1F       		.uleb128 .LEHE35-.LEHB35
 1891 00ec 8103     		.uleb128 .L81-.LFB1121
 1892 00ee 01       		.uleb128 0x1
 1893 00ef 8901     		.uleb128 .LEHB36-.LFB1121
 1894 00f1 2F       		.uleb128 .LEHE36-.LEHB36
 1895 00f2 FF02     		.uleb128 .L82-.LFB1121
 1896 00f4 01       		.uleb128 0x1
 1897 00f5 B801     		.uleb128 .LEHB37-.LFB1121
 1898 00f7 4E       		.uleb128 .LEHE37-.LEHB37
 1899 00f8 E003     		.uleb128 .L84-.LFB1121
 1900 00fa 01       		.uleb128 0x1
 1901 00fb 8602     		.uleb128 .LEHB38-.LFB1121
 1902 00fd 51       		.uleb128 .LEHE38-.LEHB38
 1903 00fe BC04     		.uleb128 .L86-.LFB1121
 1904 0100 01       		.uleb128 0x1
 1905 0101 E102     		.uleb128 .LEHB39-.LFB1121
 1906 0103 05       		.uleb128 .LEHE39-.LEHB39
 1907 0104 00       		.uleb128 0
 1908 0105 00       		.uleb128 0
 1909 0106 8903     		.uleb128 .LEHB40-.LFB1121
 1910 0108 40       		.uleb128 .LEHE40-.LEHB40
 1911 0109 D303     		.uleb128 .L83-.LFB1121
 1912 010b 00       		.uleb128 0
 1913 010c C903     		.uleb128 .LEHB41-.LFB1121
 1914 010e 05       		.uleb128 .LEHE41-.LEHB41
 1915 010f 9805     		.uleb128 .L80-.LFB1121
 1916 0111 00       		.uleb128 0
 1917 0112 E803     		.uleb128 .LEHB42-.LFB1121
 1918 0114 40       		.uleb128 .LEHE42-.LEHB42
 1919 0115 B204     		.uleb128 .L85-.LFB1121
 1920 0117 00       		.uleb128 0
 1921 0118 A804     		.uleb128 .LEHB43-.LFB1121
 1922 011a 05       		.uleb128 .LEHE43-.LEHB43
 1923 011b 9805     		.uleb128 .L80-.LFB1121
 1924 011d 00       		.uleb128 0
 1925 011e C404     		.uleb128 .LEHB44-.LFB1121
 1926 0120 40       		.uleb128 .LEHE44-.LEHB44
 1927 0121 8E05     		.uleb128 .L87-.LFB1121
 1928 0123 00       		.uleb128 0
 1929 0124 8405     		.uleb128 .LEHB45-.LFB1121
 1930 0126 05       		.uleb128 .LEHE45-.LEHB45
 1931 0127 9805     		.uleb128 .L80-.LFB1121
 1932 0129 00       		.uleb128 0
 1933 012a B005     		.uleb128 .LEHB46-.LFB1121
 1934 012c 05       		.uleb128 .LEHE46-.LEHB46
 1935 012d 00       		.uleb128 0
 1936 012e 00       		.uleb128 0
 1937              	.LLSDACSE1121:
 1938 012f 01       		.byte	0x1
 1939 0130 00       		.byte	0
 1940 0131 000000   		.align 4
 1941 0134 00000000 		.long	0
 1942              	
 1943              	.LLSDATT1121:
 1944              		.text
 1946              		.section	.rodata
 1947 0319 00000000 		.align 8
 1947      000000
 1948              	.LC20:
 1949 0320 4E6F7469 		.string	"NotifiesReporterOfTestFailureWithCorrectInfo"
 1949      66696573 
 1949      5265706F 
 1949      72746572 
 1949      4F665465 
 1950              		.text
 1951              		.align 2
 1953              	_ZN12_GLOBAL__N_148TestNotifiesReporterOfTestFailureWithCorrectInfoC2Ev:
 1954              	.LFB1123:
  68:TestTestResults.cpp **** 
  69:TestTestResults.cpp **** TEST(NotifiesReporterOfTestFailureWithCorrectInfo)
 1955              		.loc 5 69 0
 1956              		.cfi_startproc
 1957 0a84 55       		pushq	%rbp
 1958              		.cfi_def_cfa_offset 16
 1959              		.cfi_offset 6, -16
 1960 0a85 4889E5   		movq	%rsp, %rbp
 1961              		.cfi_def_cfa_register 6
 1962 0a88 53       		pushq	%rbx
 1963 0a89 4883EC18 		subq	$24, %rsp
 1964              		.cfi_offset 3, -24
 1965 0a8d 48897DE8 		movq	%rdi, -24(%rbp)
 1966              	.LBB12:
 1967              		.loc 5 69 0
 1968 0a91 488B5DE8 		movq	-24(%rbp), %rbx
 1969 0a95 E8000000 		call	_ZN13UnitTestSuite12GetSuiteNameEv
 1969      00
 1970 0a9a 41B84500 		movl	$69, %r8d
 1970      0000
 1971 0aa0 488D0D00 		leaq	.LC2(%rip), %rcx
 1971      000000
 1972 0aa7 4889C2   		movq	%rax, %rdx
 1973 0aaa 488D3500 		leaq	.LC20(%rip), %rsi
 1973      000000
 1974 0ab1 4889DF   		movq	%rbx, %rdi
 1975 0ab4 E8000000 		call	_ZN8UnitTest4TestC2EPKcS2_S2_i@PLT
 1975      00
 1976 0ab9 488D1500 		leaq	16+_ZTVN12_GLOBAL__N_148TestNotifiesReporterOfTestFailureWithCorrectInfoE(%rip), %rdx
 1976      000000
 1977 0ac0 488B45E8 		movq	-24(%rbp), %rax
 1978 0ac4 488910   		movq	%rdx, (%rax)
 1979              	.LBE12:
 1980 0ac7 90       		nop
 1981 0ac8 4883C418 		addq	$24, %rsp
 1982 0acc 5B       		popq	%rbx
 1983 0acd 5D       		popq	%rbp
 1984              		.cfi_def_cfa 7, 8
 1985 0ace C3       		ret
 1986              		.cfi_endproc
 1987              	.LFE1123:
 1989              		.set	_ZN12_GLOBAL__N_148TestNotifiesReporterOfTestFailureWithCorrectInfoC1Ev,_ZN12_GLOBAL__N_148Te
 1990              		.local	_ZN12_GLOBAL__N_156testNotifiesReporterOfTestFailureWithCorrectInfoInstanceE
 1991              		.comm	_ZN12_GLOBAL__N_156testNotifiesReporterOfTestFailureWithCorrectInfoInstanceE,56,32
 1992              		.local	_ZN12_GLOBAL__N_149adderNotifiesReporterOfTestFailureWithCorrectInfoE
 1993              		.comm	_ZN12_GLOBAL__N_149adderNotifiesReporterOfTestFailureWithCorrectInfoE,1,1
 1994              		.section	.rodata
 1995              	.LC21:
 1996 034d 6661696C 		.string	"failurestring"
 1996      75726573 
 1996      7472696E 
 1996      6700
 1997              	.LC22:
 1998 035b 66696C65 		.string	"filename"
 1998      6E616D65 
 1998      00
 1999 0364 00000000 		.align 8
 2000              	.LC23:
 2001 0368 556E6861 		.string	"Unhandled exception in CHECK_EQUAL(1, reporter.testFailedCount)"
 2001      6E646C65 
 2001      64206578 
 2001      63657074 
 2001      696F6E20 
 2002              		.align 8
 2003              	.LC24:
 2004 03a8 556E6861 		.string	"Unhandled exception in CHECK_EQUAL(\"filename\", reporter.lastFailedFile)"
 2004      6E646C65 
 2004      64206578 
 2004      63657074 
 2004      696F6E20 
 2005              		.align 8
 2006              	.LC25:
 2007 03f0 556E6861 		.string	"Unhandled exception in CHECK_EQUAL(123, reporter.lastFailedLine)"
 2007      6E646C65 
 2007      64206578 
 2007      63657074 
 2007      696F6E20 
 2008 0431 00000000 		.align 8
 2008      000000
 2009              	.LC26:
 2010 0438 556E6861 		.string	"Unhandled exception in CHECK_EQUAL(\"suitename\", reporter.lastFailedSuite)"
 2010      6E646C65 
 2010      64206578 
 2010      63657074 
 2010      696F6E20 
 2011 0482 00000000 		.align 8
 2011      0000
 2012              	.LC27:
 2013 0488 556E6861 		.string	"Unhandled exception in CHECK_EQUAL(\"testname\", reporter.lastFailedTest)"
 2013      6E646C65 
 2013      64206578 
 2013      63657074 
 2013      696F6E20 
 2014              		.align 8
 2015              	.LC28:
 2016 04d0 556E6861 		.string	"Unhandled exception in CHECK_EQUAL(\"failurestring\", reporter.lastFailedMessage)"
 2016      6E646C65 
 2016      64206578 
 2016      63657074 
 2016      696F6E20 
 2017              		.text
 2018 0acf 90       		.align 2
 2020              	_ZNK12_GLOBAL__N_148TestNotifiesReporterOfTestFailureWithCorrectInfo7RunImplEv:
 2021              	.LFB1125:
  70:TestTestResults.cpp **** {
 2022              		.loc 5 70 0
 2023              		.cfi_startproc
 2024              		.cfi_personality 0x9b,DW.ref.__gxx_personality_v0
 2025              		.cfi_lsda 0x1b,.LLSDA1125
 2026 0ad0 55       		pushq	%rbp
 2027              		.cfi_def_cfa_offset 16
 2028              		.cfi_offset 6, -16
 2029 0ad1 4889E5   		movq	%rsp, %rbp
 2030              		.cfi_def_cfa_register 6
 2031 0ad4 53       		pushq	%rbx
 2032 0ad5 4881ECA8 		subq	$2216, %rsp
 2032      080000
 2033              		.cfi_offset 3, -24
 2034 0adc 4889BD58 		movq	%rdi, -2216(%rbp)
 2034      F7FFFF
 2035              		.loc 5 70 0
 2036 0ae3 64488B04 		movq	%fs:40, %rax
 2036      25280000 
 2036      00
 2037 0aec 488945E8 		movq	%rax, -24(%rbp)
 2038 0af0 31C0     		xorl	%eax, %eax
  71:TestTestResults.cpp ****     RecordingReporter reporter;
 2039              		.loc 5 71 0
 2040 0af2 488D85B0 		leaq	-2128(%rbp), %rax
 2040      F7FFFF
 2041 0af9 4889C7   		movq	%rax, %rdi
 2042 0afc E8000000 		call	_ZN17RecordingReporterC1Ev
 2042      00
  72:TestTestResults.cpp ****     TestResults results(&reporter);
 2043              		.loc 5 72 0
 2044 0b01 488D95B0 		leaq	-2128(%rbp), %rdx
 2044      F7FFFF
 2045 0b08 488D8570 		leaq	-2192(%rbp), %rax
 2045      F7FFFF
 2046 0b0f 4889D6   		movq	%rdx, %rsi
 2047 0b12 4889C7   		movq	%rax, %rdi
 2048              	.LEHB47:
 2049 0b15 E8000000 		call	_ZN8UnitTest11TestResultsC1EPNS_12TestReporterE@PLT
 2049      00
  73:TestTestResults.cpp **** 
  74:TestTestResults.cpp ****     results.OnTestFailure(details, "failurestring");
 2050              		.loc 5 74 0
 2051 0b1a 488D8570 		leaq	-2192(%rbp), %rax
 2051      F7FFFF
 2052 0b21 488D1500 		leaq	.LC21(%rip), %rdx
 2052      000000
 2053 0b28 488D3500 		leaq	_ZN12_GLOBAL__N_1L7detailsE(%rip), %rsi
 2053      000000
 2054 0b2f 4889C7   		movq	%rax, %rdi
 2055 0b32 E8000000 		call	_ZN8UnitTest11TestResults13OnTestFailureERKNS_11TestDetailsEPKc@PLT
 2055      00
 2056              	.LEHE47:
 2057              	.LEHB48:
  75:TestTestResults.cpp ****     CHECK_EQUAL (1, reporter.testFailedCount);
 2058              		.loc 5 75 0
 2059 0b37 E8000000 		call	_ZN8UnitTest11CurrentTest7DetailsEv@PLT
 2059      00
 2060 0b3c 488B08   		movq	(%rax), %rcx
 2061 0b3f 488D8590 		leaq	-2160(%rbp), %rax
 2061      F7FFFF
 2062 0b46 BA4B0000 		movl	$75, %edx
 2062      00
 2063 0b4b 4889CE   		movq	%rcx, %rsi
 2064 0b4e 4889C7   		movq	%rax, %rdi
 2065 0b51 E8000000 		call	_ZN8UnitTest11TestDetailsC1ERKS0_i@PLT
 2065      00
 2066              	.LEHE48:
 2067              		.loc 5 75 0 is_stmt 0 discriminator 2
 2068 0b56 C7856CF7 		movl	$1, -2196(%rbp)
 2068      FFFF0100 
 2068      0000
 2069              	.LEHB49:
 2070 0b60 E8000000 		call	_ZN8UnitTest11CurrentTest7ResultsEv@PLT
 2070      00
 2071 0b65 488B00   		movq	(%rax), %rax
 2072 0b68 488D9590 		leaq	-2160(%rbp), %rdx
 2072      F7FFFF
 2073 0b6f 488D8DB0 		leaq	-2128(%rbp), %rcx
 2073      F7FFFF
 2074 0b76 488DB90C 		leaq	524(%rcx), %rdi
 2074      020000
 2075 0b7d 488DB56C 		leaq	-2196(%rbp), %rsi
 2075      F7FFFF
 2076 0b84 4889D1   		movq	%rdx, %rcx
 2077 0b87 4889FA   		movq	%rdi, %rdx
 2078 0b8a 4889C7   		movq	%rax, %rdi
 2079 0b8d E8000000 		call	_ZN8UnitTest10CheckEqualIiiEEvRNS_11TestResultsERKT_RKT0_RKNS_11TestDetailsE
 2079      00
 2080              	.LEHE49:
 2081              	.L93:
 2082              	.LEHB50:
  76:TestTestResults.cpp ****     CHECK_EQUAL ("filename", reporter.lastFailedFile);
 2083              		.loc 5 76 0 is_stmt 1
 2084 0b92 E8000000 		call	_ZN8UnitTest11CurrentTest7DetailsEv@PLT
 2084      00
 2085 0b97 488B08   		movq	(%rax), %rcx
 2086 0b9a 488D8590 		leaq	-2160(%rbp), %rax
 2086      F7FFFF
 2087 0ba1 BA4C0000 		movl	$76, %edx
 2087      00
 2088 0ba6 4889CE   		movq	%rcx, %rsi
 2089 0ba9 4889C7   		movq	%rax, %rdi
 2090 0bac E8000000 		call	_ZN8UnitTest11TestDetailsC1ERKS0_i@PLT
 2090      00
 2091              		.loc 5 76 0 is_stmt 0 discriminator 2
 2092 0bb1 E8000000 		call	_ZN8UnitTest11CurrentTest7ResultsEv@PLT
 2092      00
 2093 0bb6 488B00   		movq	(%rax), %rax
 2094 0bb9 488D9590 		leaq	-2160(%rbp), %rdx
 2094      F7FFFF
 2095 0bc0 488D8DB0 		leaq	-2128(%rbp), %rcx
 2095      F7FFFF
 2096 0bc7 488DB110 		leaq	528(%rcx), %rsi
 2096      020000
 2097 0bce 4889D1   		movq	%rdx, %rcx
 2098 0bd1 4889F2   		movq	%rsi, %rdx
 2099 0bd4 488D3500 		leaq	.LC22(%rip), %rsi
 2099      000000
 2100 0bdb 4889C7   		movq	%rax, %rdi
 2101 0bde E8000000 		call	_ZN8UnitTest10CheckEqualERNS_11TestResultsEPKcPcRKNS_11TestDetailsE@PLT
 2101      00
 2102              	.LEHE50:
 2103              	.L97:
 2104              	.LEHB51:
  77:TestTestResults.cpp ****     CHECK_EQUAL (123, reporter.lastFailedLine);
 2105              		.loc 5 77 0 is_stmt 1
 2106 0be3 E8000000 		call	_ZN8UnitTest11CurrentTest7DetailsEv@PLT
 2106      00
 2107 0be8 488B08   		movq	(%rax), %rcx
 2108 0beb 488D8590 		leaq	-2160(%rbp), %rax
 2108      F7FFFF
 2109 0bf2 BA4D0000 		movl	$77, %edx
 2109      00
 2110 0bf7 4889CE   		movq	%rcx, %rsi
 2111 0bfa 4889C7   		movq	%rax, %rdi
 2112 0bfd E8000000 		call	_ZN8UnitTest11TestDetailsC1ERKS0_i@PLT
 2112      00
 2113              	.LEHE51:
 2114              		.loc 5 77 0 is_stmt 0 discriminator 2
 2115 0c02 C7856CF7 		movl	$123, -2196(%rbp)
 2115      FFFF7B00 
 2115      0000
 2116              	.LEHB52:
 2117 0c0c E8000000 		call	_ZN8UnitTest11CurrentTest7ResultsEv@PLT
 2117      00
 2118 0c11 488B00   		movq	(%rax), %rax
 2119 0c14 488D9590 		leaq	-2160(%rbp), %rdx
 2119      F7FFFF
 2120 0c1b 488D8DB0 		leaq	-2128(%rbp), %rcx
 2120      F7FFFF
 2121 0c22 488DB910 		leaq	784(%rcx), %rdi
 2121      030000
 2122 0c29 488DB56C 		leaq	-2196(%rbp), %rsi
 2122      F7FFFF
 2123 0c30 4889D1   		movq	%rdx, %rcx
 2124 0c33 4889FA   		movq	%rdi, %rdx
 2125 0c36 4889C7   		movq	%rax, %rdi
 2126 0c39 E8000000 		call	_ZN8UnitTest10CheckEqualIiiEEvRNS_11TestResultsERKT_RKT0_RKNS_11TestDetailsE
 2126      00
 2127              	.LEHE52:
 2128              	.L101:
 2129              	.LEHB53:
  78:TestTestResults.cpp ****     CHECK_EQUAL ("suitename", reporter.lastFailedSuite);
 2130              		.loc 5 78 0 is_stmt 1
 2131 0c3e E8000000 		call	_ZN8UnitTest11CurrentTest7DetailsEv@PLT
 2131      00
 2132 0c43 488B08   		movq	(%rax), %rcx
 2133 0c46 488D8590 		leaq	-2160(%rbp), %rax
 2133      F7FFFF
 2134 0c4d BA4E0000 		movl	$78, %edx
 2134      00
 2135 0c52 4889CE   		movq	%rcx, %rsi
 2136 0c55 4889C7   		movq	%rax, %rdi
 2137 0c58 E8000000 		call	_ZN8UnitTest11TestDetailsC1ERKS0_i@PLT
 2137      00
 2138              		.loc 5 78 0 is_stmt 0 discriminator 2
 2139 0c5d E8000000 		call	_ZN8UnitTest11CurrentTest7ResultsEv@PLT
 2139      00
 2140 0c62 488B00   		movq	(%rax), %rax
 2141 0c65 488D9590 		leaq	-2160(%rbp), %rdx
 2141      F7FFFF
 2142 0c6c 488D8DB0 		leaq	-2128(%rbp), %rcx
 2142      F7FFFF
 2143 0c73 488DB114 		leaq	788(%rcx), %rsi
 2143      030000
 2144 0c7a 4889D1   		movq	%rdx, %rcx
 2145 0c7d 4889F2   		movq	%rsi, %rdx
 2146 0c80 488D3500 		leaq	.LC15(%rip), %rsi
 2146      000000
 2147 0c87 4889C7   		movq	%rax, %rdi
 2148 0c8a E8000000 		call	_ZN8UnitTest10CheckEqualERNS_11TestResultsEPKcPcRKNS_11TestDetailsE@PLT
 2148      00
 2149              	.LEHE53:
 2150              	.L104:
 2151              	.LEHB54:
  79:TestTestResults.cpp ****     CHECK_EQUAL ("testname", reporter.lastFailedTest);
 2152              		.loc 5 79 0 is_stmt 1
 2153 0c8f E8000000 		call	_ZN8UnitTest11CurrentTest7DetailsEv@PLT
 2153      00
 2154 0c94 488B08   		movq	(%rax), %rcx
 2155 0c97 488D8590 		leaq	-2160(%rbp), %rax
 2155      F7FFFF
 2156 0c9e BA4F0000 		movl	$79, %edx
 2156      00
 2157 0ca3 4889CE   		movq	%rcx, %rsi
 2158 0ca6 4889C7   		movq	%rax, %rdi
 2159 0ca9 E8000000 		call	_ZN8UnitTest11TestDetailsC1ERKS0_i@PLT
 2159      00
 2160              		.loc 5 79 0 is_stmt 0 discriminator 2
 2161 0cae E8000000 		call	_ZN8UnitTest11CurrentTest7ResultsEv@PLT
 2161      00
 2162 0cb3 488B00   		movq	(%rax), %rax
 2163 0cb6 488D9590 		leaq	-2160(%rbp), %rdx
 2163      F7FFFF
 2164 0cbd 488D8DB0 		leaq	-2128(%rbp), %rcx
 2164      F7FFFF
 2165 0cc4 488DB114 		leaq	1044(%rcx), %rsi
 2165      040000
 2166 0ccb 4889D1   		movq	%rdx, %rcx
 2167 0cce 4889F2   		movq	%rsi, %rdx
 2168 0cd1 488D3500 		leaq	.LC16(%rip), %rsi
 2168      000000
 2169 0cd8 4889C7   		movq	%rax, %rdi
 2170 0cdb E8000000 		call	_ZN8UnitTest10CheckEqualERNS_11TestResultsEPKcPcRKNS_11TestDetailsE@PLT
 2170      00
 2171              	.LEHE54:
 2172              	.L107:
 2173              	.LEHB55:
  80:TestTestResults.cpp ****     CHECK_EQUAL ("failurestring", reporter.lastFailedMessage);
 2174              		.loc 5 80 0 is_stmt 1
 2175 0ce0 E8000000 		call	_ZN8UnitTest11CurrentTest7DetailsEv@PLT
 2175      00
 2176 0ce5 488B08   		movq	(%rax), %rcx
 2177 0ce8 488D8590 		leaq	-2160(%rbp), %rax
 2177      F7FFFF
 2178 0cef BA500000 		movl	$80, %edx
 2178      00
 2179 0cf4 4889CE   		movq	%rcx, %rsi
 2180 0cf7 4889C7   		movq	%rax, %rdi
 2181 0cfa E8000000 		call	_ZN8UnitTest11TestDetailsC1ERKS0_i@PLT
 2181      00
 2182              		.loc 5 80 0 is_stmt 0 discriminator 2
 2183 0cff E8000000 		call	_ZN8UnitTest11CurrentTest7ResultsEv@PLT
 2183      00
 2184 0d04 488B00   		movq	(%rax), %rax
 2185 0d07 488D9590 		leaq	-2160(%rbp), %rdx
 2185      F7FFFF
 2186 0d0e 488D8DB0 		leaq	-2128(%rbp), %rcx
 2186      F7FFFF
 2187 0d15 488DB114 		leaq	1300(%rcx), %rsi
 2187      050000
 2188 0d1c 4889D1   		movq	%rdx, %rcx
 2189 0d1f 4889F2   		movq	%rsi, %rdx
 2190 0d22 488D3500 		leaq	.LC21(%rip), %rsi
 2190      000000
 2191 0d29 4889C7   		movq	%rax, %rdi
 2192 0d2c E8000000 		call	_ZN8UnitTest10CheckEqualERNS_11TestResultsEPKcPcRKNS_11TestDetailsE@PLT
 2192      00
 2193              	.LEHE55:
 2194              	.L110:
  71:TestTestResults.cpp ****     TestResults results(&reporter);
 2195              		.loc 5 71 0 is_stmt 1
 2196 0d31 488D85B0 		leaq	-2128(%rbp), %rax
 2196      F7FFFF
 2197 0d38 4889C7   		movq	%rax, %rdi
 2198              	.LEHB56:
 2199 0d3b E8000000 		call	_ZN17RecordingReporterD1Ev
 2199      00
 2200              	.LEHE56:
  81:TestTestResults.cpp **** }
 2201              		.loc 5 81 0
 2202 0d40 90       		nop
 2203 0d41 488B45E8 		movq	-24(%rbp), %rax
 2204 0d45 64483304 		xorq	%fs:40, %rax
 2204      25280000 
 2204      00
 2205 0d4e 0F845F02 		je	.L112
 2205      0000
 2206 0d54 E9550200 		jmp	.L128
 2206      00
 2207              	.L115:
 2208 0d59 EB00     		jmp	.L92
 2209              	.L114:
 2210              	.L92:
  75:TestTestResults.cpp ****     CHECK_EQUAL ("filename", reporter.lastFailedFile);
 2211              		.loc 5 75 0
 2212 0d5b 4889C7   		movq	%rax, %rdi
 2213 0d5e E8000000 		call	__cxa_begin_catch@PLT
 2213      00
 2214              	.LEHB57:
 2215 0d63 E8000000 		call	_ZN8UnitTest11CurrentTest7ResultsEv@PLT
 2215      00
 2216 0d68 488B18   		movq	(%rax), %rbx
 2217 0d6b E8000000 		call	_ZN8UnitTest11CurrentTest7DetailsEv@PLT
 2217      00
  75:TestTestResults.cpp ****     CHECK_EQUAL ("filename", reporter.lastFailedFile);
 2218              		.loc 5 75 0 is_stmt 0 discriminator 8
 2219 0d70 488B08   		movq	(%rax), %rcx
 2220 0d73 488D8590 		leaq	-2160(%rbp), %rax
 2220      F7FFFF
 2221 0d7a BA4B0000 		movl	$75, %edx
 2221      00
 2222 0d7f 4889CE   		movq	%rcx, %rsi
 2223 0d82 4889C7   		movq	%rax, %rdi
 2224 0d85 E8000000 		call	_ZN8UnitTest11TestDetailsC1ERKS0_i@PLT
 2224      00
  75:TestTestResults.cpp ****     CHECK_EQUAL ("filename", reporter.lastFailedFile);
 2225              		.loc 5 75 0 discriminator 12
 2226 0d8a 488D8590 		leaq	-2160(%rbp), %rax
 2226      F7FFFF
 2227 0d91 488D1500 		leaq	.LC23(%rip), %rdx
 2227      000000
 2228 0d98 4889C6   		movq	%rax, %rsi
 2229 0d9b 4889DF   		movq	%rbx, %rdi
 2230 0d9e E8000000 		call	_ZN8UnitTest11TestResults13OnTestFailureERKNS_11TestDetailsEPKc@PLT
 2230      00
 2231              	.LEHE57:
 2232              	.LEHB58:
  75:TestTestResults.cpp ****     CHECK_EQUAL ("filename", reporter.lastFailedFile);
 2233              		.loc 5 75 0 discriminator 14
 2234 0da3 E8000000 		call	__cxa_end_catch@PLT
 2234      00
 2235              	.LEHE58:
  75:TestTestResults.cpp ****     CHECK_EQUAL ("filename", reporter.lastFailedFile);
 2236              		.loc 5 75 0
 2237 0da8 E9E5FDFF 		jmp	.L93
 2237      FF
 2238              	.L116:
 2239 0dad 4889C3   		movq	%rax, %rbx
 2240 0db0 E8000000 		call	__cxa_end_catch@PLT
 2240      00
 2241 0db5 E9DA0100 		jmp	.L95
 2241      00
 2242              	.L117:
  76:TestTestResults.cpp ****     CHECK_EQUAL (123, reporter.lastFailedLine);
 2243              		.loc 5 76 0 is_stmt 1
 2244 0dba 4889C7   		movq	%rax, %rdi
 2245 0dbd E8000000 		call	__cxa_begin_catch@PLT
 2245      00
 2246              	.LEHB59:
 2247 0dc2 E8000000 		call	_ZN8UnitTest11CurrentTest7ResultsEv@PLT
 2247      00
 2248 0dc7 488B18   		movq	(%rax), %rbx
 2249 0dca E8000000 		call	_ZN8UnitTest11CurrentTest7DetailsEv@PLT
 2249      00
  76:TestTestResults.cpp ****     CHECK_EQUAL (123, reporter.lastFailedLine);
 2250              		.loc 5 76 0 is_stmt 0 discriminator 8
 2251 0dcf 488B08   		movq	(%rax), %rcx
 2252 0dd2 488D8590 		leaq	-2160(%rbp), %rax
 2252      F7FFFF
 2253 0dd9 BA4C0000 		movl	$76, %edx
 2253      00
 2254 0dde 4889CE   		movq	%rcx, %rsi
 2255 0de1 4889C7   		movq	%rax, %rdi
 2256 0de4 E8000000 		call	_ZN8UnitTest11TestDetailsC1ERKS0_i@PLT
 2256      00
  76:TestTestResults.cpp ****     CHECK_EQUAL (123, reporter.lastFailedLine);
 2257              		.loc 5 76 0 discriminator 12
 2258 0de9 488D8590 		leaq	-2160(%rbp), %rax
 2258      F7FFFF
 2259 0df0 488D1500 		leaq	.LC24(%rip), %rdx
 2259      000000
 2260 0df7 4889C6   		movq	%rax, %rsi
 2261 0dfa 4889DF   		movq	%rbx, %rdi
 2262 0dfd E8000000 		call	_ZN8UnitTest11TestResults13OnTestFailureERKNS_11TestDetailsEPKc@PLT
 2262      00
 2263              	.LEHE59:
 2264              	.LEHB60:
  76:TestTestResults.cpp ****     CHECK_EQUAL (123, reporter.lastFailedLine);
 2265              		.loc 5 76 0 discriminator 14
 2266 0e02 E8000000 		call	__cxa_end_catch@PLT
 2266      00
 2267              	.LEHE60:
  76:TestTestResults.cpp ****     CHECK_EQUAL (123, reporter.lastFailedLine);
 2268              		.loc 5 76 0
 2269 0e07 E9D7FDFF 		jmp	.L97
 2269      FF
 2270              	.L118:
 2271 0e0c 4889C3   		movq	%rax, %rbx
 2272 0e0f E8000000 		call	__cxa_end_catch@PLT
 2272      00
 2273 0e14 E97B0100 		jmp	.L95
 2273      00
 2274              	.L120:
 2275 0e19 EB00     		jmp	.L100
 2276              	.L119:
 2277              	.L100:
  77:TestTestResults.cpp ****     CHECK_EQUAL ("suitename", reporter.lastFailedSuite);
 2278              		.loc 5 77 0 is_stmt 1
 2279 0e1b 4889C7   		movq	%rax, %rdi
 2280 0e1e E8000000 		call	__cxa_begin_catch@PLT
 2280      00
 2281              	.LEHB61:
 2282 0e23 E8000000 		call	_ZN8UnitTest11CurrentTest7ResultsEv@PLT
 2282      00
 2283 0e28 488B18   		movq	(%rax), %rbx
 2284 0e2b E8000000 		call	_ZN8UnitTest11CurrentTest7DetailsEv@PLT
 2284      00
  77:TestTestResults.cpp ****     CHECK_EQUAL ("suitename", reporter.lastFailedSuite);
 2285              		.loc 5 77 0 is_stmt 0 discriminator 8
 2286 0e30 488B08   		movq	(%rax), %rcx
 2287 0e33 488D8590 		leaq	-2160(%rbp), %rax
 2287      F7FFFF
 2288 0e3a BA4D0000 		movl	$77, %edx
 2288      00
 2289 0e3f 4889CE   		movq	%rcx, %rsi
 2290 0e42 4889C7   		movq	%rax, %rdi
 2291 0e45 E8000000 		call	_ZN8UnitTest11TestDetailsC1ERKS0_i@PLT
 2291      00
  77:TestTestResults.cpp ****     CHECK_EQUAL ("suitename", reporter.lastFailedSuite);
 2292              		.loc 5 77 0 discriminator 12
 2293 0e4a 488D8590 		leaq	-2160(%rbp), %rax
 2293      F7FFFF
 2294 0e51 488D1500 		leaq	.LC25(%rip), %rdx
 2294      000000
 2295 0e58 4889C6   		movq	%rax, %rsi
 2296 0e5b 4889DF   		movq	%rbx, %rdi
 2297 0e5e E8000000 		call	_ZN8UnitTest11TestResults13OnTestFailureERKNS_11TestDetailsEPKc@PLT
 2297      00
 2298              	.LEHE61:
 2299              	.LEHB62:
  77:TestTestResults.cpp ****     CHECK_EQUAL ("suitename", reporter.lastFailedSuite);
 2300              		.loc 5 77 0 discriminator 14
 2301 0e63 E8000000 		call	__cxa_end_catch@PLT
 2301      00
 2302              	.LEHE62:
  77:TestTestResults.cpp ****     CHECK_EQUAL ("suitename", reporter.lastFailedSuite);
 2303              		.loc 5 77 0
 2304 0e68 E9D1FDFF 		jmp	.L101
 2304      FF
 2305              	.L121:
 2306 0e6d 4889C3   		movq	%rax, %rbx
 2307 0e70 E8000000 		call	__cxa_end_catch@PLT
 2307      00
 2308 0e75 E91A0100 		jmp	.L95
 2308      00
 2309              	.L122:
  78:TestTestResults.cpp ****     CHECK_EQUAL ("testname", reporter.lastFailedTest);
 2310              		.loc 5 78 0 is_stmt 1
 2311 0e7a 4889C7   		movq	%rax, %rdi
 2312 0e7d E8000000 		call	__cxa_begin_catch@PLT
 2312      00
 2313              	.LEHB63:
 2314 0e82 E8000000 		call	_ZN8UnitTest11CurrentTest7ResultsEv@PLT
 2314      00
 2315 0e87 488B18   		movq	(%rax), %rbx
 2316 0e8a E8000000 		call	_ZN8UnitTest11CurrentTest7DetailsEv@PLT
 2316      00
  78:TestTestResults.cpp ****     CHECK_EQUAL ("testname", reporter.lastFailedTest);
 2317              		.loc 5 78 0 is_stmt 0 discriminator 8
 2318 0e8f 488B08   		movq	(%rax), %rcx
 2319 0e92 488D8590 		leaq	-2160(%rbp), %rax
 2319      F7FFFF
 2320 0e99 BA4E0000 		movl	$78, %edx
 2320      00
 2321 0e9e 4889CE   		movq	%rcx, %rsi
 2322 0ea1 4889C7   		movq	%rax, %rdi
 2323 0ea4 E8000000 		call	_ZN8UnitTest11TestDetailsC1ERKS0_i@PLT
 2323      00
  78:TestTestResults.cpp ****     CHECK_EQUAL ("testname", reporter.lastFailedTest);
 2324              		.loc 5 78 0 discriminator 12
 2325 0ea9 488D8590 		leaq	-2160(%rbp), %rax
 2325      F7FFFF
 2326 0eb0 488D1500 		leaq	.LC26(%rip), %rdx
 2326      000000
 2327 0eb7 4889C6   		movq	%rax, %rsi
 2328 0eba 4889DF   		movq	%rbx, %rdi
 2329 0ebd E8000000 		call	_ZN8UnitTest11TestResults13OnTestFailureERKNS_11TestDetailsEPKc@PLT
 2329      00
 2330              	.LEHE63:
 2331              	.LEHB64:
  78:TestTestResults.cpp ****     CHECK_EQUAL ("testname", reporter.lastFailedTest);
 2332              		.loc 5 78 0 discriminator 14
 2333 0ec2 E8000000 		call	__cxa_end_catch@PLT
 2333      00
 2334              	.LEHE64:
  78:TestTestResults.cpp ****     CHECK_EQUAL ("testname", reporter.lastFailedTest);
 2335              		.loc 5 78 0
 2336 0ec7 E9C3FDFF 		jmp	.L104
 2336      FF
 2337              	.L123:
 2338 0ecc 4889C3   		movq	%rax, %rbx
 2339 0ecf E8000000 		call	__cxa_end_catch@PLT
 2339      00
 2340 0ed4 E9BB0000 		jmp	.L95
 2340      00
 2341              	.L124:
  79:TestTestResults.cpp ****     CHECK_EQUAL ("failurestring", reporter.lastFailedMessage);
 2342              		.loc 5 79 0 is_stmt 1
 2343 0ed9 4889C7   		movq	%rax, %rdi
 2344 0edc E8000000 		call	__cxa_begin_catch@PLT
 2344      00
 2345              	.LEHB65:
 2346 0ee1 E8000000 		call	_ZN8UnitTest11CurrentTest7ResultsEv@PLT
 2346      00
 2347 0ee6 488B18   		movq	(%rax), %rbx
 2348 0ee9 E8000000 		call	_ZN8UnitTest11CurrentTest7DetailsEv@PLT
 2348      00
  79:TestTestResults.cpp ****     CHECK_EQUAL ("failurestring", reporter.lastFailedMessage);
 2349              		.loc 5 79 0 is_stmt 0 discriminator 8
 2350 0eee 488B08   		movq	(%rax), %rcx
 2351 0ef1 488D8590 		leaq	-2160(%rbp), %rax
 2351      F7FFFF
 2352 0ef8 BA4F0000 		movl	$79, %edx
 2352      00
 2353 0efd 4889CE   		movq	%rcx, %rsi
 2354 0f00 4889C7   		movq	%rax, %rdi
 2355 0f03 E8000000 		call	_ZN8UnitTest11TestDetailsC1ERKS0_i@PLT
 2355      00
  79:TestTestResults.cpp ****     CHECK_EQUAL ("failurestring", reporter.lastFailedMessage);
 2356              		.loc 5 79 0 discriminator 12
 2357 0f08 488D8590 		leaq	-2160(%rbp), %rax
 2357      F7FFFF
 2358 0f0f 488D1500 		leaq	.LC27(%rip), %rdx
 2358      000000
 2359 0f16 4889C6   		movq	%rax, %rsi
 2360 0f19 4889DF   		movq	%rbx, %rdi
 2361 0f1c E8000000 		call	_ZN8UnitTest11TestResults13OnTestFailureERKNS_11TestDetailsEPKc@PLT
 2361      00
 2362              	.LEHE65:
 2363              	.LEHB66:
  79:TestTestResults.cpp ****     CHECK_EQUAL ("failurestring", reporter.lastFailedMessage);
 2364              		.loc 5 79 0 discriminator 14
 2365 0f21 E8000000 		call	__cxa_end_catch@PLT
 2365      00
 2366              	.LEHE66:
  79:TestTestResults.cpp ****     CHECK_EQUAL ("failurestring", reporter.lastFailedMessage);
 2367              		.loc 5 79 0
 2368 0f26 E9B5FDFF 		jmp	.L107
 2368      FF
 2369              	.L125:
 2370 0f2b 4889C3   		movq	%rax, %rbx
 2371 0f2e E8000000 		call	__cxa_end_catch@PLT
 2371      00
 2372 0f33 EB5F     		jmp	.L95
 2373              	.L126:
  80:TestTestResults.cpp **** }
 2374              		.loc 5 80 0 is_stmt 1
 2375 0f35 4889C7   		movq	%rax, %rdi
 2376 0f38 E8000000 		call	__cxa_begin_catch@PLT
 2376      00
 2377              	.LEHB67:
 2378 0f3d E8000000 		call	_ZN8UnitTest11CurrentTest7ResultsEv@PLT
 2378      00
 2379 0f42 488B18   		movq	(%rax), %rbx
 2380 0f45 E8000000 		call	_ZN8UnitTest11CurrentTest7DetailsEv@PLT
 2380      00
  80:TestTestResults.cpp **** }
 2381              		.loc 5 80 0 is_stmt 0 discriminator 8
 2382 0f4a 488B08   		movq	(%rax), %rcx
 2383 0f4d 488D8590 		leaq	-2160(%rbp), %rax
 2383      F7FFFF
 2384 0f54 BA500000 		movl	$80, %edx
 2384      00
 2385 0f59 4889CE   		movq	%rcx, %rsi
 2386 0f5c 4889C7   		movq	%rax, %rdi
 2387 0f5f E8000000 		call	_ZN8UnitTest11TestDetailsC1ERKS0_i@PLT
 2387      00
  80:TestTestResults.cpp **** }
 2388              		.loc 5 80 0 discriminator 12
 2389 0f64 488D8590 		leaq	-2160(%rbp), %rax
 2389      F7FFFF
 2390 0f6b 488D1500 		leaq	.LC28(%rip), %rdx
 2390      000000
 2391 0f72 4889C6   		movq	%rax, %rsi
 2392 0f75 4889DF   		movq	%rbx, %rdi
 2393 0f78 E8000000 		call	_ZN8UnitTest11TestResults13OnTestFailureERKNS_11TestDetailsEPKc@PLT
 2393      00
 2394              	.LEHE67:
 2395              	.LEHB68:
  80:TestTestResults.cpp **** }
 2396              		.loc 5 80 0 discriminator 14
 2397 0f7d E8000000 		call	__cxa_end_catch@PLT
 2397      00
 2398              	.LEHE68:
  80:TestTestResults.cpp **** }
 2399              		.loc 5 80 0
 2400 0f82 E9AAFDFF 		jmp	.L110
 2400      FF
 2401              	.L127:
 2402 0f87 4889C3   		movq	%rax, %rbx
 2403 0f8a E8000000 		call	__cxa_end_catch@PLT
 2403      00
 2404 0f8f EB03     		jmp	.L95
 2405              	.L113:
 2406 0f91 4889C3   		movq	%rax, %rbx
 2407              	.L95:
  71:TestTestResults.cpp ****     TestResults results(&reporter);
 2408              		.loc 5 71 0 is_stmt 1
 2409 0f94 488D85B0 		leaq	-2128(%rbp), %rax
 2409      F7FFFF
 2410 0f9b 4889C7   		movq	%rax, %rdi
 2411 0f9e E8000000 		call	_ZN17RecordingReporterD1Ev
 2411      00
 2412 0fa3 4889D8   		movq	%rbx, %rax
 2413 0fa6 4889C7   		movq	%rax, %rdi
 2414              	.LEHB69:
 2415 0fa9 E8000000 		call	_Unwind_Resume@PLT
 2415      00
 2416              	.LEHE69:
 2417              	.L128:
 2418              		.loc 5 81 0
 2419 0fae E8000000 		call	__stack_chk_fail@PLT
 2419      00
 2420              	.L112:
 2421 0fb3 4881C4A8 		addq	$2216, %rsp
 2421      080000
 2422 0fba 5B       		popq	%rbx
 2423 0fbb 5D       		popq	%rbp
 2424              		.cfi_def_cfa 7, 8
 2425 0fbc C3       		ret
 2426              		.cfi_endproc
 2427              	.LFE1125:
 2428              		.section	.gcc_except_table
 2429              		.align 4
 2430              	.LLSDA1125:
 2431 0138 FF       		.byte	0xff
 2432 0139 9B       		.byte	0x9b
 2433 013a 9001     		.uleb128 .LLSDATT1125-.LLSDATTD1125
 2434              	.LLSDATTD1125:
 2435 013c 01       		.byte	0x1
 2436 013d 8601     		.uleb128 .LLSDACSE1125-.LLSDACSB1125
 2437              	.LLSDACSB1125:
 2438 013f 45       		.uleb128 .LEHB47-.LFB1125
 2439 0140 22       		.uleb128 .LEHE47-.LEHB47
 2440 0141 C109     		.uleb128 .L113-.LFB1125
 2441 0143 00       		.uleb128 0
 2442 0144 67       		.uleb128 .LEHB48-.LFB1125
 2443 0145 1F       		.uleb128 .LEHE48-.LEHB48
 2444 0146 8B05     		.uleb128 .L114-.LFB1125
 2445 0148 01       		.uleb128 0x1
 2446 0149 9001     		.uleb128 .LEHB49-.LFB1125
 2447 014b 32       		.uleb128 .LEHE49-.LEHB49
 2448 014c 8905     		.uleb128 .L115-.LFB1125
 2449 014e 01       		.uleb128 0x1
 2450 014f C201     		.uleb128 .LEHB50-.LFB1125
 2451 0151 51       		.uleb128 .LEHE50-.LEHB50
 2452 0152 EA05     		.uleb128 .L117-.LFB1125
 2453 0154 01       		.uleb128 0x1
 2454 0155 9302     		.uleb128 .LEHB51-.LFB1125
 2455 0157 1F       		.uleb128 .LEHE51-.LEHB51
 2456 0158 CB06     		.uleb128 .L119-.LFB1125
 2457 015a 01       		.uleb128 0x1
 2458 015b BC02     		.uleb128 .LEHB52-.LFB1125
 2459 015d 32       		.uleb128 .LEHE52-.LEHB52
 2460 015e C906     		.uleb128 .L120-.LFB1125
 2461 0160 01       		.uleb128 0x1
 2462 0161 EE02     		.uleb128 .LEHB53-.LFB1125
 2463 0163 51       		.uleb128 .LEHE53-.LEHB53
 2464 0164 AA07     		.uleb128 .L122-.LFB1125
 2465 0166 01       		.uleb128 0x1
 2466 0167 BF03     		.uleb128 .LEHB54-.LFB1125
 2467 0169 51       		.uleb128 .LEHE54-.LEHB54
 2468 016a 8908     		.uleb128 .L124-.LFB1125
 2469 016c 01       		.uleb128 0x1
 2470 016d 9004     		.uleb128 .LEHB55-.LFB1125
 2471 016f 51       		.uleb128 .LEHE55-.LEHB55
 2472 0170 E508     		.uleb128 .L126-.LFB1125
 2473 0172 01       		.uleb128 0x1
 2474 0173 EB04     		.uleb128 .LEHB56-.LFB1125
 2475 0175 05       		.uleb128 .LEHE56-.LEHB56
 2476 0176 00       		.uleb128 0
 2477 0177 00       		.uleb128 0
 2478 0178 9305     		.uleb128 .LEHB57-.LFB1125
 2479 017a 40       		.uleb128 .LEHE57-.LEHB57
 2480 017b DD05     		.uleb128 .L116-.LFB1125
 2481 017d 00       		.uleb128 0
 2482 017e D305     		.uleb128 .LEHB58-.LFB1125
 2483 0180 05       		.uleb128 .LEHE58-.LEHB58
 2484 0181 C109     		.uleb128 .L113-.LFB1125
 2485 0183 00       		.uleb128 0
 2486 0184 F205     		.uleb128 .LEHB59-.LFB1125
 2487 0186 40       		.uleb128 .LEHE59-.LEHB59
 2488 0187 BC06     		.uleb128 .L118-.LFB1125
 2489 0189 00       		.uleb128 0
 2490 018a B206     		.uleb128 .LEHB60-.LFB1125
 2491 018c 05       		.uleb128 .LEHE60-.LEHB60
 2492 018d C109     		.uleb128 .L113-.LFB1125
 2493 018f 00       		.uleb128 0
 2494 0190 D306     		.uleb128 .LEHB61-.LFB1125
 2495 0192 40       		.uleb128 .LEHE61-.LEHB61
 2496 0193 9D07     		.uleb128 .L121-.LFB1125
 2497 0195 00       		.uleb128 0
 2498 0196 9307     		.uleb128 .LEHB62-.LFB1125
 2499 0198 05       		.uleb128 .LEHE62-.LEHB62
 2500 0199 C109     		.uleb128 .L113-.LFB1125
 2501 019b 00       		.uleb128 0
 2502 019c B207     		.uleb128 .LEHB63-.LFB1125
 2503 019e 40       		.uleb128 .LEHE63-.LEHB63
 2504 019f FC07     		.uleb128 .L123-.LFB1125
 2505 01a1 00       		.uleb128 0
 2506 01a2 F207     		.uleb128 .LEHB64-.LFB1125
 2507 01a4 05       		.uleb128 .LEHE64-.LEHB64
 2508 01a5 C109     		.uleb128 .L113-.LFB1125
 2509 01a7 00       		.uleb128 0
 2510 01a8 9108     		.uleb128 .LEHB65-.LFB1125
 2511 01aa 40       		.uleb128 .LEHE65-.LEHB65
 2512 01ab DB08     		.uleb128 .L125-.LFB1125
 2513 01ad 00       		.uleb128 0
 2514 01ae D108     		.uleb128 .LEHB66-.LFB1125
 2515 01b0 05       		.uleb128 .LEHE66-.LEHB66
 2516 01b1 C109     		.uleb128 .L113-.LFB1125
 2517 01b3 00       		.uleb128 0
 2518 01b4 ED08     		.uleb128 .LEHB67-.LFB1125
 2519 01b6 40       		.uleb128 .LEHE67-.LEHB67
 2520 01b7 B709     		.uleb128 .L127-.LFB1125
 2521 01b9 00       		.uleb128 0
 2522 01ba AD09     		.uleb128 .LEHB68-.LFB1125
 2523 01bc 05       		.uleb128 .LEHE68-.LEHB68
 2524 01bd C109     		.uleb128 .L113-.LFB1125
 2525 01bf 00       		.uleb128 0
 2526 01c0 D909     		.uleb128 .LEHB69-.LFB1125
 2527 01c2 05       		.uleb128 .LEHE69-.LEHB69
 2528 01c3 00       		.uleb128 0
 2529 01c4 00       		.uleb128 0
 2530              	.LLSDACSE1125:
 2531 01c5 01       		.byte	0x1
 2532 01c6 00       		.byte	0
 2533 01c7 00       		.align 4
 2534 01c8 00000000 		.long	0
 2535              	
 2536              	.LLSDATT1125:
 2537              		.text
 2539              		.section	.rodata
 2540              		.align 8
 2541              	.LC29:
 2542 0520 4E6F7469 		.string	"NotifiesReporterOfCheckFailureWithCorrectInfo"
 2542      66696573 
 2542      5265706F 
 2542      72746572 
 2542      4F664368 
 2543              		.text
 2544 0fbd 90       		.align 2
 2546              	_ZN12_GLOBAL__N_149TestNotifiesReporterOfCheckFailureWithCorrectInfoC2Ev:
 2547              	.LFB1127:
  82:TestTestResults.cpp **** 
  83:TestTestResults.cpp **** TEST(NotifiesReporterOfCheckFailureWithCorrectInfo)
 2548              		.loc 5 83 0
 2549              		.cfi_startproc
 2550 0fbe 55       		pushq	%rbp
 2551              		.cfi_def_cfa_offset 16
 2552              		.cfi_offset 6, -16
 2553 0fbf 4889E5   		movq	%rsp, %rbp
 2554              		.cfi_def_cfa_register 6
 2555 0fc2 53       		pushq	%rbx
 2556 0fc3 4883EC18 		subq	$24, %rsp
 2557              		.cfi_offset 3, -24
 2558 0fc7 48897DE8 		movq	%rdi, -24(%rbp)
 2559              	.LBB13:
 2560              		.loc 5 83 0
 2561 0fcb 488B5DE8 		movq	-24(%rbp), %rbx
 2562 0fcf E8000000 		call	_ZN13UnitTestSuite12GetSuiteNameEv
 2562      00
 2563 0fd4 41B85300 		movl	$83, %r8d
 2563      0000
 2564 0fda 488D0D00 		leaq	.LC2(%rip), %rcx
 2564      000000
 2565 0fe1 4889C2   		movq	%rax, %rdx
 2566 0fe4 488D3500 		leaq	.LC29(%rip), %rsi
 2566      000000
 2567 0feb 4889DF   		movq	%rbx, %rdi
 2568 0fee E8000000 		call	_ZN8UnitTest4TestC2EPKcS2_S2_i@PLT
 2568      00
 2569 0ff3 488D1500 		leaq	16+_ZTVN12_GLOBAL__N_149TestNotifiesReporterOfCheckFailureWithCorrectInfoE(%rip), %rdx
 2569      000000
 2570 0ffa 488B45E8 		movq	-24(%rbp), %rax
 2571 0ffe 488910   		movq	%rdx, (%rax)
 2572              	.LBE13:
 2573 1001 90       		nop
 2574 1002 4883C418 		addq	$24, %rsp
 2575 1006 5B       		popq	%rbx
 2576 1007 5D       		popq	%rbp
 2577              		.cfi_def_cfa 7, 8
 2578 1008 C3       		ret
 2579              		.cfi_endproc
 2580              	.LFE1127:
 2582              		.set	_ZN12_GLOBAL__N_149TestNotifiesReporterOfCheckFailureWithCorrectInfoC1Ev,_ZN12_GLOBAL__N_149T
 2583              		.local	_ZN12_GLOBAL__N_157testNotifiesReporterOfCheckFailureWithCorrectInfoInstanceE
 2584              		.comm	_ZN12_GLOBAL__N_157testNotifiesReporterOfCheckFailureWithCorrectInfoInstanceE,56,32
 2585              		.local	_ZN12_GLOBAL__N_150adderNotifiesReporterOfCheckFailureWithCorrectInfoE
 2586              		.comm	_ZN12_GLOBAL__N_150adderNotifiesReporterOfCheckFailureWithCorrectInfoE,1,1
 2587 1009 90       		.align 2
 2589              	_ZNK12_GLOBAL__N_149TestNotifiesReporterOfCheckFailureWithCorrectInfo7RunImplEv:
 2590              	.LFB1129:
  84:TestTestResults.cpp **** {
 2591              		.loc 5 84 0
 2592              		.cfi_startproc
 2593              		.cfi_personality 0x9b,DW.ref.__gxx_personality_v0
 2594              		.cfi_lsda 0x1b,.LLSDA1129
 2595 100a 55       		pushq	%rbp
 2596              		.cfi_def_cfa_offset 16
 2597              		.cfi_offset 6, -16
 2598 100b 4889E5   		movq	%rsp, %rbp
 2599              		.cfi_def_cfa_register 6
 2600 100e 53       		pushq	%rbx
 2601 100f 4881ECA8 		subq	$2216, %rsp
 2601      080000
 2602              		.cfi_offset 3, -24
 2603 1016 4889BD58 		movq	%rdi, -2216(%rbp)
 2603      F7FFFF
 2604              		.loc 5 84 0
 2605 101d 64488B04 		movq	%fs:40, %rax
 2605      25280000 
 2605      00
 2606 1026 488945E8 		movq	%rax, -24(%rbp)
 2607 102a 31C0     		xorl	%eax, %eax
  85:TestTestResults.cpp ****     RecordingReporter reporter;
 2608              		.loc 5 85 0
 2609 102c 488D85B0 		leaq	-2128(%rbp), %rax
 2609      F7FFFF
 2610 1033 4889C7   		movq	%rax, %rdi
 2611 1036 E8000000 		call	_ZN17RecordingReporterC1Ev
 2611      00
  86:TestTestResults.cpp ****     TestResults results(&reporter);
 2612              		.loc 5 86 0
 2613 103b 488D95B0 		leaq	-2128(%rbp), %rdx
 2613      F7FFFF
 2614 1042 488D8570 		leaq	-2192(%rbp), %rax
 2614      F7FFFF
 2615 1049 4889D6   		movq	%rdx, %rsi
 2616 104c 4889C7   		movq	%rax, %rdi
 2617              	.LEHB70:
 2618 104f E8000000 		call	_ZN8UnitTest11TestResultsC1EPNS_12TestReporterE@PLT
 2618      00
  87:TestTestResults.cpp **** 
  88:TestTestResults.cpp ****     results.OnTestFailure(details, "failurestring");
 2619              		.loc 5 88 0
 2620 1054 488D8570 		leaq	-2192(%rbp), %rax
 2620      F7FFFF
 2621 105b 488D1500 		leaq	.LC21(%rip), %rdx
 2621      000000
 2622 1062 488D3500 		leaq	_ZN12_GLOBAL__N_1L7detailsE(%rip), %rsi
 2622      000000
 2623 1069 4889C7   		movq	%rax, %rdi
 2624 106c E8000000 		call	_ZN8UnitTest11TestResults13OnTestFailureERKNS_11TestDetailsEPKc@PLT
 2624      00
 2625              	.LEHE70:
 2626              	.LEHB71:
  89:TestTestResults.cpp ****     CHECK_EQUAL (1, reporter.testFailedCount);
 2627              		.loc 5 89 0
 2628 1071 E8000000 		call	_ZN8UnitTest11CurrentTest7DetailsEv@PLT
 2628      00
 2629 1076 488B08   		movq	(%rax), %rcx
 2630 1079 488D8590 		leaq	-2160(%rbp), %rax
 2630      F7FFFF
 2631 1080 BA590000 		movl	$89, %edx
 2631      00
 2632 1085 4889CE   		movq	%rcx, %rsi
 2633 1088 4889C7   		movq	%rax, %rdi
 2634 108b E8000000 		call	_ZN8UnitTest11TestDetailsC1ERKS0_i@PLT
 2634      00
 2635              	.LEHE71:
 2636              		.loc 5 89 0 is_stmt 0 discriminator 2
 2637 1090 C7856CF7 		movl	$1, -2196(%rbp)
 2637      FFFF0100 
 2637      0000
 2638              	.LEHB72:
 2639 109a E8000000 		call	_ZN8UnitTest11CurrentTest7ResultsEv@PLT
 2639      00
 2640 109f 488B00   		movq	(%rax), %rax
 2641 10a2 488D9590 		leaq	-2160(%rbp), %rdx
 2641      F7FFFF
 2642 10a9 488D8DB0 		leaq	-2128(%rbp), %rcx
 2642      F7FFFF
 2643 10b0 488DB90C 		leaq	524(%rcx), %rdi
 2643      020000
 2644 10b7 488DB56C 		leaq	-2196(%rbp), %rsi
 2644      F7FFFF
 2645 10be 4889D1   		movq	%rdx, %rcx
 2646 10c1 4889FA   		movq	%rdi, %rdx
 2647 10c4 4889C7   		movq	%rax, %rdi
 2648 10c7 E8000000 		call	_ZN8UnitTest10CheckEqualIiiEEvRNS_11TestResultsERKT_RKT0_RKNS_11TestDetailsE
 2648      00
 2649              	.LEHE72:
 2650              	.L133:
 2651              	.LEHB73:
  90:TestTestResults.cpp **** 
  91:TestTestResults.cpp ****     CHECK_EQUAL ("filename", reporter.lastFailedFile);
 2652              		.loc 5 91 0 is_stmt 1
 2653 10cc E8000000 		call	_ZN8UnitTest11CurrentTest7DetailsEv@PLT
 2653      00
 2654 10d1 488B08   		movq	(%rax), %rcx
 2655 10d4 488D8590 		leaq	-2160(%rbp), %rax
 2655      F7FFFF
 2656 10db BA5B0000 		movl	$91, %edx
 2656      00
 2657 10e0 4889CE   		movq	%rcx, %rsi
 2658 10e3 4889C7   		movq	%rax, %rdi
 2659 10e6 E8000000 		call	_ZN8UnitTest11TestDetailsC1ERKS0_i@PLT
 2659      00
 2660              		.loc 5 91 0 is_stmt 0 discriminator 2
 2661 10eb E8000000 		call	_ZN8UnitTest11CurrentTest7ResultsEv@PLT
 2661      00
 2662 10f0 488B00   		movq	(%rax), %rax
 2663 10f3 488D9590 		leaq	-2160(%rbp), %rdx
 2663      F7FFFF
 2664 10fa 488D8DB0 		leaq	-2128(%rbp), %rcx
 2664      F7FFFF
 2665 1101 488DB110 		leaq	528(%rcx), %rsi
 2665      020000
 2666 1108 4889D1   		movq	%rdx, %rcx
 2667 110b 4889F2   		movq	%rsi, %rdx
 2668 110e 488D3500 		leaq	.LC22(%rip), %rsi
 2668      000000
 2669 1115 4889C7   		movq	%rax, %rdi
 2670 1118 E8000000 		call	_ZN8UnitTest10CheckEqualERNS_11TestResultsEPKcPcRKNS_11TestDetailsE@PLT
 2670      00
 2671              	.LEHE73:
 2672              	.L137:
 2673              	.LEHB74:
  92:TestTestResults.cpp ****     CHECK_EQUAL (123, reporter.lastFailedLine);
 2674              		.loc 5 92 0 is_stmt 1
 2675 111d E8000000 		call	_ZN8UnitTest11CurrentTest7DetailsEv@PLT
 2675      00
 2676 1122 488B08   		movq	(%rax), %rcx
 2677 1125 488D8590 		leaq	-2160(%rbp), %rax
 2677      F7FFFF
 2678 112c BA5C0000 		movl	$92, %edx
 2678      00
 2679 1131 4889CE   		movq	%rcx, %rsi
 2680 1134 4889C7   		movq	%rax, %rdi
 2681 1137 E8000000 		call	_ZN8UnitTest11TestDetailsC1ERKS0_i@PLT
 2681      00
 2682              	.LEHE74:
 2683              		.loc 5 92 0 is_stmt 0 discriminator 2
 2684 113c C7856CF7 		movl	$123, -2196(%rbp)
 2684      FFFF7B00 
 2684      0000
 2685              	.LEHB75:
 2686 1146 E8000000 		call	_ZN8UnitTest11CurrentTest7ResultsEv@PLT
 2686      00
 2687 114b 488B00   		movq	(%rax), %rax
 2688 114e 488D9590 		leaq	-2160(%rbp), %rdx
 2688      F7FFFF
 2689 1155 488D8DB0 		leaq	-2128(%rbp), %rcx
 2689      F7FFFF
 2690 115c 488DB910 		leaq	784(%rcx), %rdi
 2690      030000
 2691 1163 488DB56C 		leaq	-2196(%rbp), %rsi
 2691      F7FFFF
 2692 116a 4889D1   		movq	%rdx, %rcx
 2693 116d 4889FA   		movq	%rdi, %rdx
 2694 1170 4889C7   		movq	%rax, %rdi
 2695 1173 E8000000 		call	_ZN8UnitTest10CheckEqualIiiEEvRNS_11TestResultsERKT_RKT0_RKNS_11TestDetailsE
 2695      00
 2696              	.LEHE75:
 2697              	.L141:
 2698              	.LEHB76:
  93:TestTestResults.cpp ****     CHECK_EQUAL ("testname", reporter.lastFailedTest);
 2699              		.loc 5 93 0 is_stmt 1
 2700 1178 E8000000 		call	_ZN8UnitTest11CurrentTest7DetailsEv@PLT
 2700      00
 2701 117d 488B08   		movq	(%rax), %rcx
 2702 1180 488D8590 		leaq	-2160(%rbp), %rax
 2702      F7FFFF
 2703 1187 BA5D0000 		movl	$93, %edx
 2703      00
 2704 118c 4889CE   		movq	%rcx, %rsi
 2705 118f 4889C7   		movq	%rax, %rdi
 2706 1192 E8000000 		call	_ZN8UnitTest11TestDetailsC1ERKS0_i@PLT
 2706      00
 2707              		.loc 5 93 0 is_stmt 0 discriminator 2
 2708 1197 E8000000 		call	_ZN8UnitTest11CurrentTest7ResultsEv@PLT
 2708      00
 2709 119c 488B00   		movq	(%rax), %rax
 2710 119f 488D9590 		leaq	-2160(%rbp), %rdx
 2710      F7FFFF
 2711 11a6 488D8DB0 		leaq	-2128(%rbp), %rcx
 2711      F7FFFF
 2712 11ad 488DB114 		leaq	1044(%rcx), %rsi
 2712      040000
 2713 11b4 4889D1   		movq	%rdx, %rcx
 2714 11b7 4889F2   		movq	%rsi, %rdx
 2715 11ba 488D3500 		leaq	.LC16(%rip), %rsi
 2715      000000
 2716 11c1 4889C7   		movq	%rax, %rdi
 2717 11c4 E8000000 		call	_ZN8UnitTest10CheckEqualERNS_11TestResultsEPKcPcRKNS_11TestDetailsE@PLT
 2717      00
 2718              	.LEHE76:
 2719              	.L144:
 2720              	.LEHB77:
  94:TestTestResults.cpp ****     CHECK_EQUAL ("suitename", reporter.lastFailedSuite);
 2721              		.loc 5 94 0 is_stmt 1
 2722 11c9 E8000000 		call	_ZN8UnitTest11CurrentTest7DetailsEv@PLT
 2722      00
 2723 11ce 488B08   		movq	(%rax), %rcx
 2724 11d1 488D8590 		leaq	-2160(%rbp), %rax
 2724      F7FFFF
 2725 11d8 BA5E0000 		movl	$94, %edx
 2725      00
 2726 11dd 4889CE   		movq	%rcx, %rsi
 2727 11e0 4889C7   		movq	%rax, %rdi
 2728 11e3 E8000000 		call	_ZN8UnitTest11TestDetailsC1ERKS0_i@PLT
 2728      00
 2729              		.loc 5 94 0 is_stmt 0 discriminator 2
 2730 11e8 E8000000 		call	_ZN8UnitTest11CurrentTest7ResultsEv@PLT
 2730      00
 2731 11ed 488B00   		movq	(%rax), %rax
 2732 11f0 488D9590 		leaq	-2160(%rbp), %rdx
 2732      F7FFFF
 2733 11f7 488D8DB0 		leaq	-2128(%rbp), %rcx
 2733      F7FFFF
 2734 11fe 488DB114 		leaq	788(%rcx), %rsi
 2734      030000
 2735 1205 4889D1   		movq	%rdx, %rcx
 2736 1208 4889F2   		movq	%rsi, %rdx
 2737 120b 488D3500 		leaq	.LC15(%rip), %rsi
 2737      000000
 2738 1212 4889C7   		movq	%rax, %rdi
 2739 1215 E8000000 		call	_ZN8UnitTest10CheckEqualERNS_11TestResultsEPKcPcRKNS_11TestDetailsE@PLT
 2739      00
 2740              	.LEHE77:
 2741              	.L147:
 2742              	.LEHB78:
  95:TestTestResults.cpp ****     CHECK_EQUAL ("failurestring", reporter.lastFailedMessage);
 2743              		.loc 5 95 0 is_stmt 1
 2744 121a E8000000 		call	_ZN8UnitTest11CurrentTest7DetailsEv@PLT
 2744      00
 2745 121f 488B08   		movq	(%rax), %rcx
 2746 1222 488D8590 		leaq	-2160(%rbp), %rax
 2746      F7FFFF
 2747 1229 BA5F0000 		movl	$95, %edx
 2747      00
 2748 122e 4889CE   		movq	%rcx, %rsi
 2749 1231 4889C7   		movq	%rax, %rdi
 2750 1234 E8000000 		call	_ZN8UnitTest11TestDetailsC1ERKS0_i@PLT
 2750      00
 2751              		.loc 5 95 0 is_stmt 0 discriminator 2
 2752 1239 E8000000 		call	_ZN8UnitTest11CurrentTest7ResultsEv@PLT
 2752      00
 2753 123e 488B00   		movq	(%rax), %rax
 2754 1241 488D9590 		leaq	-2160(%rbp), %rdx
 2754      F7FFFF
 2755 1248 488D8DB0 		leaq	-2128(%rbp), %rcx
 2755      F7FFFF
 2756 124f 488DB114 		leaq	1300(%rcx), %rsi
 2756      050000
 2757 1256 4889D1   		movq	%rdx, %rcx
 2758 1259 4889F2   		movq	%rsi, %rdx
 2759 125c 488D3500 		leaq	.LC21(%rip), %rsi
 2759      000000
 2760 1263 4889C7   		movq	%rax, %rdi
 2761 1266 E8000000 		call	_ZN8UnitTest10CheckEqualERNS_11TestResultsEPKcPcRKNS_11TestDetailsE@PLT
 2761      00
 2762              	.LEHE78:
 2763              	.L150:
  85:TestTestResults.cpp ****     TestResults results(&reporter);
 2764              		.loc 5 85 0 is_stmt 1
 2765 126b 488D85B0 		leaq	-2128(%rbp), %rax
 2765      F7FFFF
 2766 1272 4889C7   		movq	%rax, %rdi
 2767              	.LEHB79:
 2768 1275 E8000000 		call	_ZN17RecordingReporterD1Ev
 2768      00
 2769              	.LEHE79:
  96:TestTestResults.cpp **** }
 2770              		.loc 5 96 0
 2771 127a 90       		nop
 2772 127b 488B45E8 		movq	-24(%rbp), %rax
 2773 127f 64483304 		xorq	%fs:40, %rax
 2773      25280000 
 2773      00
 2774 1288 0F845F02 		je	.L152
 2774      0000
 2775 128e E9550200 		jmp	.L168
 2775      00
 2776              	.L155:
 2777 1293 EB00     		jmp	.L132
 2778              	.L154:
 2779              	.L132:
  89:TestTestResults.cpp **** 
 2780              		.loc 5 89 0
 2781 1295 4889C7   		movq	%rax, %rdi
 2782 1298 E8000000 		call	__cxa_begin_catch@PLT
 2782      00
 2783              	.LEHB80:
 2784 129d E8000000 		call	_ZN8UnitTest11CurrentTest7ResultsEv@PLT
 2784      00
 2785 12a2 488B18   		movq	(%rax), %rbx
 2786 12a5 E8000000 		call	_ZN8UnitTest11CurrentTest7DetailsEv@PLT
 2786      00
  89:TestTestResults.cpp **** 
 2787              		.loc 5 89 0 is_stmt 0 discriminator 8
 2788 12aa 488B08   		movq	(%rax), %rcx
 2789 12ad 488D8590 		leaq	-2160(%rbp), %rax
 2789      F7FFFF
 2790 12b4 BA590000 		movl	$89, %edx
 2790      00
 2791 12b9 4889CE   		movq	%rcx, %rsi
 2792 12bc 4889C7   		movq	%rax, %rdi
 2793 12bf E8000000 		call	_ZN8UnitTest11TestDetailsC1ERKS0_i@PLT
 2793      00
  89:TestTestResults.cpp **** 
 2794              		.loc 5 89 0 discriminator 12
 2795 12c4 488D8590 		leaq	-2160(%rbp), %rax
 2795      F7FFFF
 2796 12cb 488D1500 		leaq	.LC23(%rip), %rdx
 2796      000000
 2797 12d2 4889C6   		movq	%rax, %rsi
 2798 12d5 4889DF   		movq	%rbx, %rdi
 2799 12d8 E8000000 		call	_ZN8UnitTest11TestResults13OnTestFailureERKNS_11TestDetailsEPKc@PLT
 2799      00
 2800              	.LEHE80:
 2801              	.LEHB81:
  89:TestTestResults.cpp **** 
 2802              		.loc 5 89 0 discriminator 14
 2803 12dd E8000000 		call	__cxa_end_catch@PLT
 2803      00
 2804              	.LEHE81:
  89:TestTestResults.cpp **** 
 2805              		.loc 5 89 0
 2806 12e2 E9E5FDFF 		jmp	.L133
 2806      FF
 2807              	.L156:
 2808 12e7 4889C3   		movq	%rax, %rbx
 2809 12ea E8000000 		call	__cxa_end_catch@PLT
 2809      00
 2810 12ef E9DA0100 		jmp	.L135
 2810      00
 2811              	.L157:
  91:TestTestResults.cpp ****     CHECK_EQUAL (123, reporter.lastFailedLine);
 2812              		.loc 5 91 0 is_stmt 1
 2813 12f4 4889C7   		movq	%rax, %rdi
 2814 12f7 E8000000 		call	__cxa_begin_catch@PLT
 2814      00
 2815              	.LEHB82:
 2816 12fc E8000000 		call	_ZN8UnitTest11CurrentTest7ResultsEv@PLT
 2816      00
 2817 1301 488B18   		movq	(%rax), %rbx
 2818 1304 E8000000 		call	_ZN8UnitTest11CurrentTest7DetailsEv@PLT
 2818      00
  91:TestTestResults.cpp ****     CHECK_EQUAL (123, reporter.lastFailedLine);
 2819              		.loc 5 91 0 is_stmt 0 discriminator 8
 2820 1309 488B08   		movq	(%rax), %rcx
 2821 130c 488D8590 		leaq	-2160(%rbp), %rax
 2821      F7FFFF
 2822 1313 BA5B0000 		movl	$91, %edx
 2822      00
 2823 1318 4889CE   		movq	%rcx, %rsi
 2824 131b 4889C7   		movq	%rax, %rdi
 2825 131e E8000000 		call	_ZN8UnitTest11TestDetailsC1ERKS0_i@PLT
 2825      00
  91:TestTestResults.cpp ****     CHECK_EQUAL (123, reporter.lastFailedLine);
 2826              		.loc 5 91 0 discriminator 12
 2827 1323 488D8590 		leaq	-2160(%rbp), %rax
 2827      F7FFFF
 2828 132a 488D1500 		leaq	.LC24(%rip), %rdx
 2828      000000
 2829 1331 4889C6   		movq	%rax, %rsi
 2830 1334 4889DF   		movq	%rbx, %rdi
 2831 1337 E8000000 		call	_ZN8UnitTest11TestResults13OnTestFailureERKNS_11TestDetailsEPKc@PLT
 2831      00
 2832              	.LEHE82:
 2833              	.LEHB83:
  91:TestTestResults.cpp ****     CHECK_EQUAL (123, reporter.lastFailedLine);
 2834              		.loc 5 91 0 discriminator 14
 2835 133c E8000000 		call	__cxa_end_catch@PLT
 2835      00
 2836              	.LEHE83:
  91:TestTestResults.cpp ****     CHECK_EQUAL (123, reporter.lastFailedLine);
 2837              		.loc 5 91 0
 2838 1341 E9D7FDFF 		jmp	.L137
 2838      FF
 2839              	.L158:
 2840 1346 4889C3   		movq	%rax, %rbx
 2841 1349 E8000000 		call	__cxa_end_catch@PLT
 2841      00
 2842 134e E97B0100 		jmp	.L135
 2842      00
 2843              	.L160:
 2844 1353 EB00     		jmp	.L140
 2845              	.L159:
 2846              	.L140:
  92:TestTestResults.cpp ****     CHECK_EQUAL ("testname", reporter.lastFailedTest);
 2847              		.loc 5 92 0 is_stmt 1
 2848 1355 4889C7   		movq	%rax, %rdi
 2849 1358 E8000000 		call	__cxa_begin_catch@PLT
 2849      00
 2850              	.LEHB84:
 2851 135d E8000000 		call	_ZN8UnitTest11CurrentTest7ResultsEv@PLT
 2851      00
 2852 1362 488B18   		movq	(%rax), %rbx
 2853 1365 E8000000 		call	_ZN8UnitTest11CurrentTest7DetailsEv@PLT
 2853      00
  92:TestTestResults.cpp ****     CHECK_EQUAL ("testname", reporter.lastFailedTest);
 2854              		.loc 5 92 0 is_stmt 0 discriminator 8
 2855 136a 488B08   		movq	(%rax), %rcx
 2856 136d 488D8590 		leaq	-2160(%rbp), %rax
 2856      F7FFFF
 2857 1374 BA5C0000 		movl	$92, %edx
 2857      00
 2858 1379 4889CE   		movq	%rcx, %rsi
 2859 137c 4889C7   		movq	%rax, %rdi
 2860 137f E8000000 		call	_ZN8UnitTest11TestDetailsC1ERKS0_i@PLT
 2860      00
  92:TestTestResults.cpp ****     CHECK_EQUAL ("testname", reporter.lastFailedTest);
 2861              		.loc 5 92 0 discriminator 12
 2862 1384 488D8590 		leaq	-2160(%rbp), %rax
 2862      F7FFFF
 2863 138b 488D1500 		leaq	.LC25(%rip), %rdx
 2863      000000
 2864 1392 4889C6   		movq	%rax, %rsi
 2865 1395 4889DF   		movq	%rbx, %rdi
 2866 1398 E8000000 		call	_ZN8UnitTest11TestResults13OnTestFailureERKNS_11TestDetailsEPKc@PLT
 2866      00
 2867              	.LEHE84:
 2868              	.LEHB85:
  92:TestTestResults.cpp ****     CHECK_EQUAL ("testname", reporter.lastFailedTest);
 2869              		.loc 5 92 0 discriminator 14
 2870 139d E8000000 		call	__cxa_end_catch@PLT
 2870      00
 2871              	.LEHE85:
  92:TestTestResults.cpp ****     CHECK_EQUAL ("testname", reporter.lastFailedTest);
 2872              		.loc 5 92 0
 2873 13a2 E9D1FDFF 		jmp	.L141
 2873      FF
 2874              	.L161:
 2875 13a7 4889C3   		movq	%rax, %rbx
 2876 13aa E8000000 		call	__cxa_end_catch@PLT
 2876      00
 2877 13af E91A0100 		jmp	.L135
 2877      00
 2878              	.L162:
  93:TestTestResults.cpp ****     CHECK_EQUAL ("suitename", reporter.lastFailedSuite);
 2879              		.loc 5 93 0 is_stmt 1
 2880 13b4 4889C7   		movq	%rax, %rdi
 2881 13b7 E8000000 		call	__cxa_begin_catch@PLT
 2881      00
 2882              	.LEHB86:
 2883 13bc E8000000 		call	_ZN8UnitTest11CurrentTest7ResultsEv@PLT
 2883      00
 2884 13c1 488B18   		movq	(%rax), %rbx
 2885 13c4 E8000000 		call	_ZN8UnitTest11CurrentTest7DetailsEv@PLT
 2885      00
  93:TestTestResults.cpp ****     CHECK_EQUAL ("suitename", reporter.lastFailedSuite);
 2886              		.loc 5 93 0 is_stmt 0 discriminator 8
 2887 13c9 488B08   		movq	(%rax), %rcx
 2888 13cc 488D8590 		leaq	-2160(%rbp), %rax
 2888      F7FFFF
 2889 13d3 BA5D0000 		movl	$93, %edx
 2889      00
 2890 13d8 4889CE   		movq	%rcx, %rsi
 2891 13db 4889C7   		movq	%rax, %rdi
 2892 13de E8000000 		call	_ZN8UnitTest11TestDetailsC1ERKS0_i@PLT
 2892      00
  93:TestTestResults.cpp ****     CHECK_EQUAL ("suitename", reporter.lastFailedSuite);
 2893              		.loc 5 93 0 discriminator 12
 2894 13e3 488D8590 		leaq	-2160(%rbp), %rax
 2894      F7FFFF
 2895 13ea 488D1500 		leaq	.LC27(%rip), %rdx
 2895      000000
 2896 13f1 4889C6   		movq	%rax, %rsi
 2897 13f4 4889DF   		movq	%rbx, %rdi
 2898 13f7 E8000000 		call	_ZN8UnitTest11TestResults13OnTestFailureERKNS_11TestDetailsEPKc@PLT
 2898      00
 2899              	.LEHE86:
 2900              	.LEHB87:
  93:TestTestResults.cpp ****     CHECK_EQUAL ("suitename", reporter.lastFailedSuite);
 2901              		.loc 5 93 0 discriminator 14
 2902 13fc E8000000 		call	__cxa_end_catch@PLT
 2902      00
 2903              	.LEHE87:
  93:TestTestResults.cpp ****     CHECK_EQUAL ("suitename", reporter.lastFailedSuite);
 2904              		.loc 5 93 0
 2905 1401 E9C3FDFF 		jmp	.L144
 2905      FF
 2906              	.L163:
 2907 1406 4889C3   		movq	%rax, %rbx
 2908 1409 E8000000 		call	__cxa_end_catch@PLT
 2908      00
 2909 140e E9BB0000 		jmp	.L135
 2909      00
 2910              	.L164:
  94:TestTestResults.cpp ****     CHECK_EQUAL ("failurestring", reporter.lastFailedMessage);
 2911              		.loc 5 94 0 is_stmt 1
 2912 1413 4889C7   		movq	%rax, %rdi
 2913 1416 E8000000 		call	__cxa_begin_catch@PLT
 2913      00
 2914              	.LEHB88:
 2915 141b E8000000 		call	_ZN8UnitTest11CurrentTest7ResultsEv@PLT
 2915      00
 2916 1420 488B18   		movq	(%rax), %rbx
 2917 1423 E8000000 		call	_ZN8UnitTest11CurrentTest7DetailsEv@PLT
 2917      00
  94:TestTestResults.cpp ****     CHECK_EQUAL ("failurestring", reporter.lastFailedMessage);
 2918              		.loc 5 94 0 is_stmt 0 discriminator 8
 2919 1428 488B08   		movq	(%rax), %rcx
 2920 142b 488D8590 		leaq	-2160(%rbp), %rax
 2920      F7FFFF
 2921 1432 BA5E0000 		movl	$94, %edx
 2921      00
 2922 1437 4889CE   		movq	%rcx, %rsi
 2923 143a 4889C7   		movq	%rax, %rdi
 2924 143d E8000000 		call	_ZN8UnitTest11TestDetailsC1ERKS0_i@PLT
 2924      00
  94:TestTestResults.cpp ****     CHECK_EQUAL ("failurestring", reporter.lastFailedMessage);
 2925              		.loc 5 94 0 discriminator 12
 2926 1442 488D8590 		leaq	-2160(%rbp), %rax
 2926      F7FFFF
 2927 1449 488D1500 		leaq	.LC26(%rip), %rdx
 2927      000000
 2928 1450 4889C6   		movq	%rax, %rsi
 2929 1453 4889DF   		movq	%rbx, %rdi
 2930 1456 E8000000 		call	_ZN8UnitTest11TestResults13OnTestFailureERKNS_11TestDetailsEPKc@PLT
 2930      00
 2931              	.LEHE88:
 2932              	.LEHB89:
  94:TestTestResults.cpp ****     CHECK_EQUAL ("failurestring", reporter.lastFailedMessage);
 2933              		.loc 5 94 0 discriminator 14
 2934 145b E8000000 		call	__cxa_end_catch@PLT
 2934      00
 2935              	.LEHE89:
  94:TestTestResults.cpp ****     CHECK_EQUAL ("failurestring", reporter.lastFailedMessage);
 2936              		.loc 5 94 0
 2937 1460 E9B5FDFF 		jmp	.L147
 2937      FF
 2938              	.L165:
 2939 1465 4889C3   		movq	%rax, %rbx
 2940 1468 E8000000 		call	__cxa_end_catch@PLT
 2940      00
 2941 146d EB5F     		jmp	.L135
 2942              	.L166:
  95:TestTestResults.cpp **** }
 2943              		.loc 5 95 0 is_stmt 1
 2944 146f 4889C7   		movq	%rax, %rdi
 2945 1472 E8000000 		call	__cxa_begin_catch@PLT
 2945      00
 2946              	.LEHB90:
 2947 1477 E8000000 		call	_ZN8UnitTest11CurrentTest7ResultsEv@PLT
 2947      00
 2948 147c 488B18   		movq	(%rax), %rbx
 2949 147f E8000000 		call	_ZN8UnitTest11CurrentTest7DetailsEv@PLT
 2949      00
  95:TestTestResults.cpp **** }
 2950              		.loc 5 95 0 is_stmt 0 discriminator 8
 2951 1484 488B08   		movq	(%rax), %rcx
 2952 1487 488D8590 		leaq	-2160(%rbp), %rax
 2952      F7FFFF
 2953 148e BA5F0000 		movl	$95, %edx
 2953      00
 2954 1493 4889CE   		movq	%rcx, %rsi
 2955 1496 4889C7   		movq	%rax, %rdi
 2956 1499 E8000000 		call	_ZN8UnitTest11TestDetailsC1ERKS0_i@PLT
 2956      00
  95:TestTestResults.cpp **** }
 2957              		.loc 5 95 0 discriminator 12
 2958 149e 488D8590 		leaq	-2160(%rbp), %rax
 2958      F7FFFF
 2959 14a5 488D1500 		leaq	.LC28(%rip), %rdx
 2959      000000
 2960 14ac 4889C6   		movq	%rax, %rsi
 2961 14af 4889DF   		movq	%rbx, %rdi
 2962 14b2 E8000000 		call	_ZN8UnitTest11TestResults13OnTestFailureERKNS_11TestDetailsEPKc@PLT
 2962      00
 2963              	.LEHE90:
 2964              	.LEHB91:
  95:TestTestResults.cpp **** }
 2965              		.loc 5 95 0 discriminator 14
 2966 14b7 E8000000 		call	__cxa_end_catch@PLT
 2966      00
 2967              	.LEHE91:
  95:TestTestResults.cpp **** }
 2968              		.loc 5 95 0
 2969 14bc E9AAFDFF 		jmp	.L150
 2969      FF
 2970              	.L167:
 2971 14c1 4889C3   		movq	%rax, %rbx
 2972 14c4 E8000000 		call	__cxa_end_catch@PLT
 2972      00
 2973 14c9 EB03     		jmp	.L135
 2974              	.L153:
 2975 14cb 4889C3   		movq	%rax, %rbx
 2976              	.L135:
  85:TestTestResults.cpp ****     TestResults results(&reporter);
 2977              		.loc 5 85 0 is_stmt 1
 2978 14ce 488D85B0 		leaq	-2128(%rbp), %rax
 2978      F7FFFF
 2979 14d5 4889C7   		movq	%rax, %rdi
 2980 14d8 E8000000 		call	_ZN17RecordingReporterD1Ev
 2980      00
 2981 14dd 4889D8   		movq	%rbx, %rax
 2982 14e0 4889C7   		movq	%rax, %rdi
 2983              	.LEHB92:
 2984 14e3 E8000000 		call	_Unwind_Resume@PLT
 2984      00
 2985              	.LEHE92:
 2986              	.L168:
 2987              		.loc 5 96 0
 2988 14e8 E8000000 		call	__stack_chk_fail@PLT
 2988      00
 2989              	.L152:
 2990 14ed 4881C4A8 		addq	$2216, %rsp
 2990      080000
 2991 14f4 5B       		popq	%rbx
 2992 14f5 5D       		popq	%rbp
 2993              		.cfi_def_cfa 7, 8
 2994 14f6 C3       		ret
 2995              		.cfi_endproc
 2996              	.LFE1129:
 2997              		.section	.gcc_except_table
 2998              		.align 4
 2999              	.LLSDA1129:
 3000 01cc FF       		.byte	0xff
 3001 01cd 9B       		.byte	0x9b
 3002 01ce 9001     		.uleb128 .LLSDATT1129-.LLSDATTD1129
 3003              	.LLSDATTD1129:
 3004 01d0 01       		.byte	0x1
 3005 01d1 8601     		.uleb128 .LLSDACSE1129-.LLSDACSB1129
 3006              	.LLSDACSB1129:
 3007 01d3 45       		.uleb128 .LEHB70-.LFB1129
 3008 01d4 22       		.uleb128 .LEHE70-.LEHB70
 3009 01d5 C109     		.uleb128 .L153-.LFB1129
 3010 01d7 00       		.uleb128 0
 3011 01d8 67       		.uleb128 .LEHB71-.LFB1129
 3012 01d9 1F       		.uleb128 .LEHE71-.LEHB71
 3013 01da 8B05     		.uleb128 .L154-.LFB1129
 3014 01dc 01       		.uleb128 0x1
 3015 01dd 9001     		.uleb128 .LEHB72-.LFB1129
 3016 01df 32       		.uleb128 .LEHE72-.LEHB72
 3017 01e0 8905     		.uleb128 .L155-.LFB1129
 3018 01e2 01       		.uleb128 0x1
 3019 01e3 C201     		.uleb128 .LEHB73-.LFB1129
 3020 01e5 51       		.uleb128 .LEHE73-.LEHB73
 3021 01e6 EA05     		.uleb128 .L157-.LFB1129
 3022 01e8 01       		.uleb128 0x1
 3023 01e9 9302     		.uleb128 .LEHB74-.LFB1129
 3024 01eb 1F       		.uleb128 .LEHE74-.LEHB74
 3025 01ec CB06     		.uleb128 .L159-.LFB1129
 3026 01ee 01       		.uleb128 0x1
 3027 01ef BC02     		.uleb128 .LEHB75-.LFB1129
 3028 01f1 32       		.uleb128 .LEHE75-.LEHB75
 3029 01f2 C906     		.uleb128 .L160-.LFB1129
 3030 01f4 01       		.uleb128 0x1
 3031 01f5 EE02     		.uleb128 .LEHB76-.LFB1129
 3032 01f7 51       		.uleb128 .LEHE76-.LEHB76
 3033 01f8 AA07     		.uleb128 .L162-.LFB1129
 3034 01fa 01       		.uleb128 0x1
 3035 01fb BF03     		.uleb128 .LEHB77-.LFB1129
 3036 01fd 51       		.uleb128 .LEHE77-.LEHB77
 3037 01fe 8908     		.uleb128 .L164-.LFB1129
 3038 0200 01       		.uleb128 0x1
 3039 0201 9004     		.uleb128 .LEHB78-.LFB1129
 3040 0203 51       		.uleb128 .LEHE78-.LEHB78
 3041 0204 E508     		.uleb128 .L166-.LFB1129
 3042 0206 01       		.uleb128 0x1
 3043 0207 EB04     		.uleb128 .LEHB79-.LFB1129
 3044 0209 05       		.uleb128 .LEHE79-.LEHB79
 3045 020a 00       		.uleb128 0
 3046 020b 00       		.uleb128 0
 3047 020c 9305     		.uleb128 .LEHB80-.LFB1129
 3048 020e 40       		.uleb128 .LEHE80-.LEHB80
 3049 020f DD05     		.uleb128 .L156-.LFB1129
 3050 0211 00       		.uleb128 0
 3051 0212 D305     		.uleb128 .LEHB81-.LFB1129
 3052 0214 05       		.uleb128 .LEHE81-.LEHB81
 3053 0215 C109     		.uleb128 .L153-.LFB1129
 3054 0217 00       		.uleb128 0
 3055 0218 F205     		.uleb128 .LEHB82-.LFB1129
 3056 021a 40       		.uleb128 .LEHE82-.LEHB82
 3057 021b BC06     		.uleb128 .L158-.LFB1129
 3058 021d 00       		.uleb128 0
 3059 021e B206     		.uleb128 .LEHB83-.LFB1129
 3060 0220 05       		.uleb128 .LEHE83-.LEHB83
 3061 0221 C109     		.uleb128 .L153-.LFB1129
 3062 0223 00       		.uleb128 0
 3063 0224 D306     		.uleb128 .LEHB84-.LFB1129
 3064 0226 40       		.uleb128 .LEHE84-.LEHB84
 3065 0227 9D07     		.uleb128 .L161-.LFB1129
 3066 0229 00       		.uleb128 0
 3067 022a 9307     		.uleb128 .LEHB85-.LFB1129
 3068 022c 05       		.uleb128 .LEHE85-.LEHB85
 3069 022d C109     		.uleb128 .L153-.LFB1129
 3070 022f 00       		.uleb128 0
 3071 0230 B207     		.uleb128 .LEHB86-.LFB1129
 3072 0232 40       		.uleb128 .LEHE86-.LEHB86
 3073 0233 FC07     		.uleb128 .L163-.LFB1129
 3074 0235 00       		.uleb128 0
 3075 0236 F207     		.uleb128 .LEHB87-.LFB1129
 3076 0238 05       		.uleb128 .LEHE87-.LEHB87
 3077 0239 C109     		.uleb128 .L153-.LFB1129
 3078 023b 00       		.uleb128 0
 3079 023c 9108     		.uleb128 .LEHB88-.LFB1129
 3080 023e 40       		.uleb128 .LEHE88-.LEHB88
 3081 023f DB08     		.uleb128 .L165-.LFB1129
 3082 0241 00       		.uleb128 0
 3083 0242 D108     		.uleb128 .LEHB89-.LFB1129
 3084 0244 05       		.uleb128 .LEHE89-.LEHB89
 3085 0245 C109     		.uleb128 .L153-.LFB1129
 3086 0247 00       		.uleb128 0
 3087 0248 ED08     		.uleb128 .LEHB90-.LFB1129
 3088 024a 40       		.uleb128 .LEHE90-.LEHB90
 3089 024b B709     		.uleb128 .L167-.LFB1129
 3090 024d 00       		.uleb128 0
 3091 024e AD09     		.uleb128 .LEHB91-.LFB1129
 3092 0250 05       		.uleb128 .LEHE91-.LEHB91
 3093 0251 C109     		.uleb128 .L153-.LFB1129
 3094 0253 00       		.uleb128 0
 3095 0254 D909     		.uleb128 .LEHB92-.LFB1129
 3096 0256 05       		.uleb128 .LEHE92-.LEHB92
 3097 0257 00       		.uleb128 0
 3098 0258 00       		.uleb128 0
 3099              	.LLSDACSE1129:
 3100 0259 01       		.byte	0x1
 3101 025a 00       		.byte	0
 3102 025b 00       		.align 4
 3103 025c 00000000 		.long	0
 3104              	
 3105              	.LLSDATT1129:
 3106              		.text
 3108              		.section	.rodata
 3109              	.LC30:
 3110 054e 4E6F7469 		.string	"NotifiesReporterOfTestEnd"
 3110      66696573 
 3110      5265706F 
 3110      72746572 
 3110      4F665465 
 3111              		.text
 3112 14f7 90       		.align 2
 3114              	_ZN12_GLOBAL__N_129TestNotifiesReporterOfTestEndC2Ev:
 3115              	.LFB1131:
  97:TestTestResults.cpp **** 
  98:TestTestResults.cpp **** TEST(NotifiesReporterOfTestEnd)
 3116              		.loc 5 98 0
 3117              		.cfi_startproc
 3118 14f8 55       		pushq	%rbp
 3119              		.cfi_def_cfa_offset 16
 3120              		.cfi_offset 6, -16
 3121 14f9 4889E5   		movq	%rsp, %rbp
 3122              		.cfi_def_cfa_register 6
 3123 14fc 53       		pushq	%rbx
 3124 14fd 4883EC18 		subq	$24, %rsp
 3125              		.cfi_offset 3, -24
 3126 1501 48897DE8 		movq	%rdi, -24(%rbp)
 3127              	.LBB14:
 3128              		.loc 5 98 0
 3129 1505 488B5DE8 		movq	-24(%rbp), %rbx
 3130 1509 E8000000 		call	_ZN13UnitTestSuite12GetSuiteNameEv
 3130      00
 3131 150e 41B86200 		movl	$98, %r8d
 3131      0000
 3132 1514 488D0D00 		leaq	.LC2(%rip), %rcx
 3132      000000
 3133 151b 4889C2   		movq	%rax, %rdx
 3134 151e 488D3500 		leaq	.LC30(%rip), %rsi
 3134      000000
 3135 1525 4889DF   		movq	%rbx, %rdi
 3136 1528 E8000000 		call	_ZN8UnitTest4TestC2EPKcS2_S2_i@PLT
 3136      00
 3137 152d 488D1500 		leaq	16+_ZTVN12_GLOBAL__N_129TestNotifiesReporterOfTestEndE(%rip), %rdx
 3137      000000
 3138 1534 488B45E8 		movq	-24(%rbp), %rax
 3139 1538 488910   		movq	%rdx, (%rax)
 3140              	.LBE14:
 3141 153b 90       		nop
 3142 153c 4883C418 		addq	$24, %rsp
 3143 1540 5B       		popq	%rbx
 3144 1541 5D       		popq	%rbp
 3145              		.cfi_def_cfa 7, 8
 3146 1542 C3       		ret
 3147              		.cfi_endproc
 3148              	.LFE1131:
 3150              		.set	_ZN12_GLOBAL__N_129TestNotifiesReporterOfTestEndC1Ev,_ZN12_GLOBAL__N_129TestNotifiesReporterO
 3151              		.local	_ZN12_GLOBAL__N_137testNotifiesReporterOfTestEndInstanceE
 3152              		.comm	_ZN12_GLOBAL__N_137testNotifiesReporterOfTestEndInstanceE,56,32
 3153              		.local	_ZN12_GLOBAL__N_130adderNotifiesReporterOfTestEndE
 3154              		.comm	_ZN12_GLOBAL__N_130adderNotifiesReporterOfTestEndE,1,1
 3155              		.section	.rodata
 3156              		.align 8
 3157              	.LC33:
 3158 0568 556E6861 		.string	"Unhandled exception in CHECK_EQUAL(1, reporter.testFinishedCount)"
 3158      6E646C65 
 3158      64206578 
 3158      63657074 
 3158      696F6E20 
 3159 05aa 00000000 		.align 8
 3159      0000
 3160              	.LC34:
 3161 05b0 556E6861 		.string	"Unhandled exception in CHECK_EQUAL(\"testname\", reporter.lastFinishedTest)"
 3161      6E646C65 
 3161      64206578 
 3161      63657074 
 3161      696F6E20 
 3162 05fa 00000000 		.align 8
 3162      0000
 3163              	.LC35:
 3164 0600 556E6861 		.string	"Unhandled exception in CHECK_EQUAL(\"suitename\", reporter.lastFinishedSuite)"
 3164      6E646C65 
 3164      64206578 
 3164      63657074 
 3164      696F6E20 
 3165 064c 00000000 		.align 8
 3166              	.LC36:
 3167 0650 556E6861 		.string	"Unhandled exception in CHECK_CLOSE(0.1234f, reporter.lastFinishedTestTime)"
 3167      6E646C65 
 3167      64206578 
 3167      63657074 
 3167      696F6E20 
 3168              		.text
 3169 1543 90       		.align 2
 3171              	_ZNK12_GLOBAL__N_129TestNotifiesReporterOfTestEnd7RunImplEv:
 3172              	.LFB1133:
  99:TestTestResults.cpp **** {
 3173              		.loc 5 99 0
 3174              		.cfi_startproc
 3175              		.cfi_personality 0x9b,DW.ref.__gxx_personality_v0
 3176              		.cfi_lsda 0x1b,.LLSDA1133
 3177 1544 55       		pushq	%rbp
 3178              		.cfi_def_cfa_offset 16
 3179              		.cfi_offset 6, -16
 3180 1545 4889E5   		movq	%rsp, %rbp
 3181              		.cfi_def_cfa_register 6
 3182 1548 53       		pushq	%rbx
 3183 1549 4881ECA8 		subq	$2216, %rsp
 3183      080000
 3184              		.cfi_offset 3, -24
 3185 1550 4889BD58 		movq	%rdi, -2216(%rbp)
 3185      F7FFFF
 3186              		.loc 5 99 0
 3187 1557 64488B04 		movq	%fs:40, %rax
 3187      25280000 
 3187      00
 3188 1560 488945E8 		movq	%rax, -24(%rbp)
 3189 1564 31C0     		xorl	%eax, %eax
 100:TestTestResults.cpp ****     RecordingReporter reporter;
 3190              		.loc 5 100 0
 3191 1566 488D85B0 		leaq	-2128(%rbp), %rax
 3191      F7FFFF
 3192 156d 4889C7   		movq	%rax, %rdi
 3193 1570 E8000000 		call	_ZN17RecordingReporterC1Ev
 3193      00
 101:TestTestResults.cpp ****     TestResults results(&reporter);
 3194              		.loc 5 101 0
 3195 1575 488D95B0 		leaq	-2128(%rbp), %rdx
 3195      F7FFFF
 3196 157c 488D8570 		leaq	-2192(%rbp), %rax
 3196      F7FFFF
 3197 1583 4889D6   		movq	%rdx, %rsi
 3198 1586 4889C7   		movq	%rax, %rdi
 3199              	.LEHB93:
 3200 1589 E8000000 		call	_ZN8UnitTest11TestResultsC1EPNS_12TestReporterE@PLT
 3200      00
 102:TestTestResults.cpp **** 
 103:TestTestResults.cpp ****     results.OnTestFinish(details, 0.1234f);
 3201              		.loc 5 103 0
 3202 158e 488D8570 		leaq	-2192(%rbp), %rax
 3202      F7FFFF
 3203 1595 F30F1005 		movss	.LC31(%rip), %xmm0
 3203      00000000 
 3204 159d 488D3500 		leaq	_ZN12_GLOBAL__N_1L7detailsE(%rip), %rsi
 3204      000000
 3205 15a4 4889C7   		movq	%rax, %rdi
 3206 15a7 E8000000 		call	_ZN8UnitTest11TestResults12OnTestFinishERKNS_11TestDetailsEf@PLT
 3206      00
 3207              	.LEHE93:
 3208              	.LEHB94:
 104:TestTestResults.cpp ****     CHECK_EQUAL (1, reporter.testFinishedCount);
 3209              		.loc 5 104 0
 3210 15ac E8000000 		call	_ZN8UnitTest11CurrentTest7DetailsEv@PLT
 3210      00
 3211 15b1 488B08   		movq	(%rax), %rcx
 3212 15b4 488D8590 		leaq	-2160(%rbp), %rax
 3212      F7FFFF
 3213 15bb BA680000 		movl	$104, %edx
 3213      00
 3214 15c0 4889CE   		movq	%rcx, %rsi
 3215 15c3 4889C7   		movq	%rax, %rdi
 3216 15c6 E8000000 		call	_ZN8UnitTest11TestDetailsC1ERKS0_i@PLT
 3216      00
 3217              	.LEHE94:
 3218              		.loc 5 104 0 is_stmt 0 discriminator 2
 3219 15cb C7856CF7 		movl	$1, -2196(%rbp)
 3219      FFFF0100 
 3219      0000
 3220              	.LEHB95:
 3221 15d5 E8000000 		call	_ZN8UnitTest11CurrentTest7ResultsEv@PLT
 3221      00
 3222 15da 488B00   		movq	(%rax), %rax
 3223 15dd 488D9590 		leaq	-2160(%rbp), %rdx
 3223      F7FFFF
 3224 15e4 488D8DB0 		leaq	-2128(%rbp), %rcx
 3224      F7FFFF
 3225 15eb 488DB914 		leaq	1556(%rcx), %rdi
 3225      060000
 3226 15f2 488DB56C 		leaq	-2196(%rbp), %rsi
 3226      F7FFFF
 3227 15f9 4889D1   		movq	%rdx, %rcx
 3228 15fc 4889FA   		movq	%rdi, %rdx
 3229 15ff 4889C7   		movq	%rax, %rdi
 3230 1602 E8000000 		call	_ZN8UnitTest10CheckEqualIiiEEvRNS_11TestResultsERKT_RKT0_RKNS_11TestDetailsE
 3230      00
 3231              	.LEHE95:
 3232              	.L173:
 3233              	.LEHB96:
 105:TestTestResults.cpp ****     CHECK_EQUAL ("testname", reporter.lastFinishedTest);
 3234              		.loc 5 105 0 is_stmt 1
 3235 1607 E8000000 		call	_ZN8UnitTest11CurrentTest7DetailsEv@PLT
 3235      00
 3236 160c 488B08   		movq	(%rax), %rcx
 3237 160f 488D8590 		leaq	-2160(%rbp), %rax
 3237      F7FFFF
 3238 1616 BA690000 		movl	$105, %edx
 3238      00
 3239 161b 4889CE   		movq	%rcx, %rsi
 3240 161e 4889C7   		movq	%rax, %rdi
 3241 1621 E8000000 		call	_ZN8UnitTest11TestDetailsC1ERKS0_i@PLT
 3241      00
 3242              		.loc 5 105 0 is_stmt 0 discriminator 2
 3243 1626 E8000000 		call	_ZN8UnitTest11CurrentTest7ResultsEv@PLT
 3243      00
 3244 162b 488B00   		movq	(%rax), %rax
 3245 162e 488D9590 		leaq	-2160(%rbp), %rdx
 3245      F7FFFF
 3246 1635 488D8DB0 		leaq	-2128(%rbp), %rcx
 3246      F7FFFF
 3247 163c 488DB118 		leaq	1816(%rcx), %rsi
 3247      070000
 3248 1643 4889D1   		movq	%rdx, %rcx
 3249 1646 4889F2   		movq	%rsi, %rdx
 3250 1649 488D3500 		leaq	.LC16(%rip), %rsi
 3250      000000
 3251 1650 4889C7   		movq	%rax, %rdi
 3252 1653 E8000000 		call	_ZN8UnitTest10CheckEqualERNS_11TestResultsEPKcPcRKNS_11TestDetailsE@PLT
 3252      00
 3253              	.LEHE96:
 3254              	.L177:
 3255              	.LEHB97:
 106:TestTestResults.cpp ****     CHECK_EQUAL ("suitename", reporter.lastFinishedSuite);
 3256              		.loc 5 106 0 is_stmt 1
 3257 1658 E8000000 		call	_ZN8UnitTest11CurrentTest7DetailsEv@PLT
 3257      00
 3258 165d 488B08   		movq	(%rax), %rcx
 3259 1660 488D8590 		leaq	-2160(%rbp), %rax
 3259      F7FFFF
 3260 1667 BA6A0000 		movl	$106, %edx
 3260      00
 3261 166c 4889CE   		movq	%rcx, %rsi
 3262 166f 4889C7   		movq	%rax, %rdi
 3263 1672 E8000000 		call	_ZN8UnitTest11TestDetailsC1ERKS0_i@PLT
 3263      00
 3264              		.loc 5 106 0 is_stmt 0 discriminator 2
 3265 1677 E8000000 		call	_ZN8UnitTest11CurrentTest7ResultsEv@PLT
 3265      00
 3266 167c 488B00   		movq	(%rax), %rax
 3267 167f 488D9590 		leaq	-2160(%rbp), %rdx
 3267      F7FFFF
 3268 1686 488D8DB0 		leaq	-2128(%rbp), %rcx
 3268      F7FFFF
 3269 168d 488DB118 		leaq	1560(%rcx), %rsi
 3269      060000
 3270 1694 4889D1   		movq	%rdx, %rcx
 3271 1697 4889F2   		movq	%rsi, %rdx
 3272 169a 488D3500 		leaq	.LC15(%rip), %rsi
 3272      000000
 3273 16a1 4889C7   		movq	%rax, %rdi
 3274 16a4 E8000000 		call	_ZN8UnitTest10CheckEqualERNS_11TestResultsEPKcPcRKNS_11TestDetailsE@PLT
 3274      00
 3275              	.LEHE97:
 3276              	.L180:
 3277              	.LEHB98:
 107:TestTestResults.cpp ****     CHECK_CLOSE (0.1234f, reporter.lastFinishedTestTime, 0.0001f);
 3278              		.loc 5 107 0 is_stmt 1
 3279 16a9 E8000000 		call	_ZN8UnitTest11CurrentTest7DetailsEv@PLT
 3279      00
 3280 16ae 488B08   		movq	(%rax), %rcx
 3281 16b1 488D8590 		leaq	-2160(%rbp), %rax
 3281      F7FFFF
 3282 16b8 BA6B0000 		movl	$107, %edx
 3282      00
 3283 16bd 4889CE   		movq	%rcx, %rsi
 3284 16c0 4889C7   		movq	%rax, %rdi
 3285 16c3 E8000000 		call	_ZN8UnitTest11TestDetailsC1ERKS0_i@PLT
 3285      00
 3286              	.LEHE98:
 3287              		.loc 5 107 0 is_stmt 0 discriminator 2
 3288 16c8 F30F1005 		movss	.LC32(%rip), %xmm0
 3288      00000000 
 3289 16d0 F30F1185 		movss	%xmm0, -2196(%rbp)
 3289      6CF7FFFF 
 3290 16d8 F30F1005 		movss	.LC31(%rip), %xmm0
 3290      00000000 
 3291 16e0 F30F1185 		movss	%xmm0, -2200(%rbp)
 3291      68F7FFFF 
 3292              	.LEHB99:
 3293 16e8 E8000000 		call	_ZN8UnitTest11CurrentTest7ResultsEv@PLT
 3293      00
 3294 16ed 488B00   		movq	(%rax), %rax
 3295 16f0 488D8D90 		leaq	-2160(%rbp), %rcx
 3295      F7FFFF
 3296 16f7 488D956C 		leaq	-2196(%rbp), %rdx
 3296      F7FFFF
 3297 16fe 488DB5B0 		leaq	-2128(%rbp), %rsi
 3297      F7FFFF
 3298 1705 488DBE18 		leaq	2072(%rsi), %rdi
 3298      080000
 3299 170c 488DB568 		leaq	-2200(%rbp), %rsi
 3299      F7FFFF
 3300 1713 4989C8   		movq	%rcx, %r8
 3301 1716 4889D1   		movq	%rdx, %rcx
 3302 1719 4889FA   		movq	%rdi, %rdx
 3303 171c 4889C7   		movq	%rax, %rdi
 3304 171f E8000000 		call	_ZN8UnitTest10CheckCloseIfffEEvRNS_11TestResultsERKT_RKT0_RKT1_RKNS_11TestDetailsE
 3304      00
 3305              	.LEHE99:
 3306              	.L184:
 100:TestTestResults.cpp ****     TestResults results(&reporter);
 3307              		.loc 5 100 0 is_stmt 1
 3308 1724 488D85B0 		leaq	-2128(%rbp), %rax
 3308      F7FFFF
 3309 172b 4889C7   		movq	%rax, %rdi
 3310              	.LEHB100:
 3311 172e E8000000 		call	_ZN17RecordingReporterD1Ev
 3311      00
 3312              	.LEHE100:
 108:TestTestResults.cpp **** }
 3313              		.loc 5 108 0
 3314 1733 90       		nop
 3315 1734 488B45E8 		movq	-24(%rbp), %rax
 3316 1738 64483304 		xorq	%fs:40, %rax
 3316      25280000 
 3316      00
 3317 1741 0F84A101 		je	.L186
 3317      0000
 3318 1747 E9970100 		jmp	.L198
 3318      00
 3319              	.L189:
 3320 174c EB00     		jmp	.L172
 3321              	.L188:
 3322              	.L172:
 104:TestTestResults.cpp ****     CHECK_EQUAL ("testname", reporter.lastFinishedTest);
 3323              		.loc 5 104 0
 3324 174e 4889C7   		movq	%rax, %rdi
 3325 1751 E8000000 		call	__cxa_begin_catch@PLT
 3325      00
 3326              	.LEHB101:
 3327 1756 E8000000 		call	_ZN8UnitTest11CurrentTest7ResultsEv@PLT
 3327      00
 3328 175b 488B18   		movq	(%rax), %rbx
 3329 175e E8000000 		call	_ZN8UnitTest11CurrentTest7DetailsEv@PLT
 3329      00
 104:TestTestResults.cpp ****     CHECK_EQUAL ("testname", reporter.lastFinishedTest);
 3330              		.loc 5 104 0 is_stmt 0 discriminator 8
 3331 1763 488B08   		movq	(%rax), %rcx
 3332 1766 488D8590 		leaq	-2160(%rbp), %rax
 3332      F7FFFF
 3333 176d BA680000 		movl	$104, %edx
 3333      00
 3334 1772 4889CE   		movq	%rcx, %rsi
 3335 1775 4889C7   		movq	%rax, %rdi
 3336 1778 E8000000 		call	_ZN8UnitTest11TestDetailsC1ERKS0_i@PLT
 3336      00
 104:TestTestResults.cpp ****     CHECK_EQUAL ("testname", reporter.lastFinishedTest);
 3337              		.loc 5 104 0 discriminator 12
 3338 177d 488D8590 		leaq	-2160(%rbp), %rax
 3338      F7FFFF
 3339 1784 488D1500 		leaq	.LC33(%rip), %rdx
 3339      000000
 3340 178b 4889C6   		movq	%rax, %rsi
 3341 178e 4889DF   		movq	%rbx, %rdi
 3342 1791 E8000000 		call	_ZN8UnitTest11TestResults13OnTestFailureERKNS_11TestDetailsEPKc@PLT
 3342      00
 3343              	.LEHE101:
 3344              	.LEHB102:
 104:TestTestResults.cpp ****     CHECK_EQUAL ("testname", reporter.lastFinishedTest);
 3345              		.loc 5 104 0 discriminator 14
 3346 1796 E8000000 		call	__cxa_end_catch@PLT
 3346      00
 3347              	.LEHE102:
 104:TestTestResults.cpp ****     CHECK_EQUAL ("testname", reporter.lastFinishedTest);
 3348              		.loc 5 104 0
 3349 179b E967FEFF 		jmp	.L173
 3349      FF
 3350              	.L190:
 3351 17a0 4889C3   		movq	%rax, %rbx
 3352 17a3 E8000000 		call	__cxa_end_catch@PLT
 3352      00
 3353 17a8 E91C0100 		jmp	.L175
 3353      00
 3354              	.L191:
 105:TestTestResults.cpp ****     CHECK_EQUAL ("suitename", reporter.lastFinishedSuite);
 3355              		.loc 5 105 0 is_stmt 1
 3356 17ad 4889C7   		movq	%rax, %rdi
 3357 17b0 E8000000 		call	__cxa_begin_catch@PLT
 3357      00
 3358              	.LEHB103:
 3359 17b5 E8000000 		call	_ZN8UnitTest11CurrentTest7ResultsEv@PLT
 3359      00
 3360 17ba 488B18   		movq	(%rax), %rbx
 3361 17bd E8000000 		call	_ZN8UnitTest11CurrentTest7DetailsEv@PLT
 3361      00
 105:TestTestResults.cpp ****     CHECK_EQUAL ("suitename", reporter.lastFinishedSuite);
 3362              		.loc 5 105 0 is_stmt 0 discriminator 8
 3363 17c2 488B08   		movq	(%rax), %rcx
 3364 17c5 488D8590 		leaq	-2160(%rbp), %rax
 3364      F7FFFF
 3365 17cc BA690000 		movl	$105, %edx
 3365      00
 3366 17d1 4889CE   		movq	%rcx, %rsi
 3367 17d4 4889C7   		movq	%rax, %rdi
 3368 17d7 E8000000 		call	_ZN8UnitTest11TestDetailsC1ERKS0_i@PLT
 3368      00
 105:TestTestResults.cpp ****     CHECK_EQUAL ("suitename", reporter.lastFinishedSuite);
 3369              		.loc 5 105 0 discriminator 12
 3370 17dc 488D8590 		leaq	-2160(%rbp), %rax
 3370      F7FFFF
 3371 17e3 488D1500 		leaq	.LC34(%rip), %rdx
 3371      000000
 3372 17ea 4889C6   		movq	%rax, %rsi
 3373 17ed 4889DF   		movq	%rbx, %rdi
 3374 17f0 E8000000 		call	_ZN8UnitTest11TestResults13OnTestFailureERKNS_11TestDetailsEPKc@PLT
 3374      00
 3375              	.LEHE103:
 3376              	.LEHB104:
 105:TestTestResults.cpp ****     CHECK_EQUAL ("suitename", reporter.lastFinishedSuite);
 3377              		.loc 5 105 0 discriminator 14
 3378 17f5 E8000000 		call	__cxa_end_catch@PLT
 3378      00
 3379              	.LEHE104:
 105:TestTestResults.cpp ****     CHECK_EQUAL ("suitename", reporter.lastFinishedSuite);
 3380              		.loc 5 105 0
 3381 17fa E959FEFF 		jmp	.L177
 3381      FF
 3382              	.L192:
 3383 17ff 4889C3   		movq	%rax, %rbx
 3384 1802 E8000000 		call	__cxa_end_catch@PLT
 3384      00
 3385 1807 E9BD0000 		jmp	.L175
 3385      00
 3386              	.L193:
 106:TestTestResults.cpp ****     CHECK_CLOSE (0.1234f, reporter.lastFinishedTestTime, 0.0001f);
 3387              		.loc 5 106 0 is_stmt 1
 3388 180c 4889C7   		movq	%rax, %rdi
 3389 180f E8000000 		call	__cxa_begin_catch@PLT
 3389      00
 3390              	.LEHB105:
 3391 1814 E8000000 		call	_ZN8UnitTest11CurrentTest7ResultsEv@PLT
 3391      00
 3392 1819 488B18   		movq	(%rax), %rbx
 3393 181c E8000000 		call	_ZN8UnitTest11CurrentTest7DetailsEv@PLT
 3393      00
 106:TestTestResults.cpp ****     CHECK_CLOSE (0.1234f, reporter.lastFinishedTestTime, 0.0001f);
 3394              		.loc 5 106 0 is_stmt 0 discriminator 8
 3395 1821 488B08   		movq	(%rax), %rcx
 3396 1824 488D8590 		leaq	-2160(%rbp), %rax
 3396      F7FFFF
 3397 182b BA6A0000 		movl	$106, %edx
 3397      00
 3398 1830 4889CE   		movq	%rcx, %rsi
 3399 1833 4889C7   		movq	%rax, %rdi
 3400 1836 E8000000 		call	_ZN8UnitTest11TestDetailsC1ERKS0_i@PLT
 3400      00
 106:TestTestResults.cpp ****     CHECK_CLOSE (0.1234f, reporter.lastFinishedTestTime, 0.0001f);
 3401              		.loc 5 106 0 discriminator 12
 3402 183b 488D8590 		leaq	-2160(%rbp), %rax
 3402      F7FFFF
 3403 1842 488D1500 		leaq	.LC35(%rip), %rdx
 3403      000000
 3404 1849 4889C6   		movq	%rax, %rsi
 3405 184c 4889DF   		movq	%rbx, %rdi
 3406 184f E8000000 		call	_ZN8UnitTest11TestResults13OnTestFailureERKNS_11TestDetailsEPKc@PLT
 3406      00
 3407              	.LEHE105:
 3408              	.LEHB106:
 106:TestTestResults.cpp ****     CHECK_CLOSE (0.1234f, reporter.lastFinishedTestTime, 0.0001f);
 3409              		.loc 5 106 0 discriminator 14
 3410 1854 E8000000 		call	__cxa_end_catch@PLT
 3410      00
 3411              	.LEHE106:
 106:TestTestResults.cpp ****     CHECK_CLOSE (0.1234f, reporter.lastFinishedTestTime, 0.0001f);
 3412              		.loc 5 106 0
 3413 1859 E94BFEFF 		jmp	.L180
 3413      FF
 3414              	.L194:
 3415 185e 4889C3   		movq	%rax, %rbx
 3416 1861 E8000000 		call	__cxa_end_catch@PLT
 3416      00
 3417 1866 EB61     		jmp	.L175
 3418              	.L196:
 3419 1868 EB00     		jmp	.L183
 3420              	.L195:
 3421              	.L183:
 107:TestTestResults.cpp **** }
 3422              		.loc 5 107 0 is_stmt 1
 3423 186a 4889C7   		movq	%rax, %rdi
 3424 186d E8000000 		call	__cxa_begin_catch@PLT
 3424      00
 3425              	.LEHB107:
 3426 1872 E8000000 		call	_ZN8UnitTest11CurrentTest7ResultsEv@PLT
 3426      00
 3427 1877 488B18   		movq	(%rax), %rbx
 3428 187a E8000000 		call	_ZN8UnitTest11CurrentTest7DetailsEv@PLT
 3428      00
 107:TestTestResults.cpp **** }
 3429              		.loc 5 107 0 is_stmt 0 discriminator 8
 3430 187f 488B08   		movq	(%rax), %rcx
 3431 1882 488D8590 		leaq	-2160(%rbp), %rax
 3431      F7FFFF
 3432 1889 BA6B0000 		movl	$107, %edx
 3432      00
 3433 188e 4889CE   		movq	%rcx, %rsi
 3434 1891 4889C7   		movq	%rax, %rdi
 3435 1894 E8000000 		call	_ZN8UnitTest11TestDetailsC1ERKS0_i@PLT
 3435      00
 107:TestTestResults.cpp **** }
 3436              		.loc 5 107 0 discriminator 12
 3437 1899 488D8590 		leaq	-2160(%rbp), %rax
 3437      F7FFFF
 3438 18a0 488D1500 		leaq	.LC36(%rip), %rdx
 3438      000000
 3439 18a7 4889C6   		movq	%rax, %rsi
 3440 18aa 4889DF   		movq	%rbx, %rdi
 3441 18ad E8000000 		call	_ZN8UnitTest11TestResults13OnTestFailureERKNS_11TestDetailsEPKc@PLT
 3441      00
 3442              	.LEHE107:
 3443              	.LEHB108:
 107:TestTestResults.cpp **** }
 3444              		.loc 5 107 0 discriminator 14
 3445 18b2 E8000000 		call	__cxa_end_catch@PLT
 3445      00
 3446              	.LEHE108:
 107:TestTestResults.cpp **** }
 3447              		.loc 5 107 0
 3448 18b7 E968FEFF 		jmp	.L184
 3448      FF
 3449              	.L197:
 3450 18bc 4889C3   		movq	%rax, %rbx
 3451 18bf E8000000 		call	__cxa_end_catch@PLT
 3451      00
 3452 18c4 EB03     		jmp	.L175
 3453              	.L187:
 3454 18c6 4889C3   		movq	%rax, %rbx
 3455              	.L175:
 100:TestTestResults.cpp ****     TestResults results(&reporter);
 3456              		.loc 5 100 0 is_stmt 1
 3457 18c9 488D85B0 		leaq	-2128(%rbp), %rax
 3457      F7FFFF
 3458 18d0 4889C7   		movq	%rax, %rdi
 3459 18d3 E8000000 		call	_ZN17RecordingReporterD1Ev
 3459      00
 3460 18d8 4889D8   		movq	%rbx, %rax
 3461 18db 4889C7   		movq	%rax, %rdi
 3462              	.LEHB109:
 3463 18de E8000000 		call	_Unwind_Resume@PLT
 3463      00
 3464              	.LEHE109:
 3465              	.L198:
 3466              		.loc 5 108 0
 3467 18e3 E8000000 		call	__stack_chk_fail@PLT
 3467      00
 3468              	.L186:
 3469 18e8 4881C4A8 		addq	$2216, %rsp
 3469      080000
 3470 18ef 5B       		popq	%rbx
 3471 18f0 5D       		popq	%rbp
 3472              		.cfi_def_cfa 7, 8
 3473 18f1 C3       		ret
 3474              		.cfi_endproc
 3475              	.LFE1133:
 3476              		.section	.gcc_except_table
 3477              		.align 4
 3478              	.LLSDA1133:
 3479 0260 FF       		.byte	0xff
 3480 0261 9B       		.byte	0x9b
 3481 0262 6D       		.uleb128 .LLSDATT1133-.LLSDATTD1133
 3482              	.LLSDATTD1133:
 3483 0263 01       		.byte	0x1
 3484 0264 62       		.uleb128 .LLSDACSE1133-.LLSDACSB1133
 3485              	.LLSDACSB1133:
 3486 0265 45       		.uleb128 .LEHB93-.LFB1133
 3487 0266 23       		.uleb128 .LEHE93-.LEHB93
 3488 0267 8207     		.uleb128 .L187-.LFB1133
 3489 0269 00       		.uleb128 0
 3490 026a 68       		.uleb128 .LEHB94-.LFB1133
 3491 026b 1F       		.uleb128 .LEHE94-.LEHB94
 3492 026c 8A04     		.uleb128 .L188-.LFB1133
 3493 026e 01       		.uleb128 0x1
 3494 026f 9101     		.uleb128 .LEHB95-.LFB1133
 3495 0271 32       		.uleb128 .LEHE95-.LEHB95
 3496 0272 8804     		.uleb128 .L189-.LFB1133
 3497 0274 01       		.uleb128 0x1
 3498 0275 C301     		.uleb128 .LEHB96-.LFB1133
 3499 0277 51       		.uleb128 .LEHE96-.LEHB96
 3500 0278 E904     		.uleb128 .L191-.LFB1133
 3501 027a 01       		.uleb128 0x1
 3502 027b 9402     		.uleb128 .LEHB97-.LFB1133
 3503 027d 51       		.uleb128 .LEHE97-.LEHB97
 3504 027e C805     		.uleb128 .L193-.LFB1133
 3505 0280 01       		.uleb128 0x1
 3506 0281 E502     		.uleb128 .LEHB98-.LFB1133
 3507 0283 1F       		.uleb128 .LEHE98-.LEHB98
 3508 0284 A606     		.uleb128 .L195-.LFB1133
 3509 0286 01       		.uleb128 0x1
 3510 0287 A403     		.uleb128 .LEHB99-.LFB1133
 3511 0289 3C       		.uleb128 .LEHE99-.LEHB99
 3512 028a A406     		.uleb128 .L196-.LFB1133
 3513 028c 01       		.uleb128 0x1
 3514 028d EA03     		.uleb128 .LEHB100-.LFB1133
 3515 028f 05       		.uleb128 .LEHE100-.LEHB100
 3516 0290 00       		.uleb128 0
 3517 0291 00       		.uleb128 0
 3518 0292 9204     		.uleb128 .LEHB101-.LFB1133
 3519 0294 40       		.uleb128 .LEHE101-.LEHB101
 3520 0295 DC04     		.uleb128 .L190-.LFB1133
 3521 0297 00       		.uleb128 0
 3522 0298 D204     		.uleb128 .LEHB102-.LFB1133
 3523 029a 05       		.uleb128 .LEHE102-.LEHB102
 3524 029b 8207     		.uleb128 .L187-.LFB1133
 3525 029d 00       		.uleb128 0
 3526 029e F104     		.uleb128 .LEHB103-.LFB1133
 3527 02a0 40       		.uleb128 .LEHE103-.LEHB103
 3528 02a1 BB05     		.uleb128 .L192-.LFB1133
 3529 02a3 00       		.uleb128 0
 3530 02a4 B105     		.uleb128 .LEHB104-.LFB1133
 3531 02a6 05       		.uleb128 .LEHE104-.LEHB104
 3532 02a7 8207     		.uleb128 .L187-.LFB1133
 3533 02a9 00       		.uleb128 0
 3534 02aa D005     		.uleb128 .LEHB105-.LFB1133
 3535 02ac 40       		.uleb128 .LEHE105-.LEHB105
 3536 02ad 9A06     		.uleb128 .L194-.LFB1133
 3537 02af 00       		.uleb128 0
 3538 02b0 9006     		.uleb128 .LEHB106-.LFB1133
 3539 02b2 05       		.uleb128 .LEHE106-.LEHB106
 3540 02b3 8207     		.uleb128 .L187-.LFB1133
 3541 02b5 00       		.uleb128 0
 3542 02b6 AE06     		.uleb128 .LEHB107-.LFB1133
 3543 02b8 40       		.uleb128 .LEHE107-.LEHB107
 3544 02b9 F806     		.uleb128 .L197-.LFB1133
 3545 02bb 00       		.uleb128 0
 3546 02bc EE06     		.uleb128 .LEHB108-.LFB1133
 3547 02be 05       		.uleb128 .LEHE108-.LEHB108
 3548 02bf 8207     		.uleb128 .L187-.LFB1133
 3549 02c1 00       		.uleb128 0
 3550 02c2 9A07     		.uleb128 .LEHB109-.LFB1133
 3551 02c4 05       		.uleb128 .LEHE109-.LEHB109
 3552 02c5 00       		.uleb128 0
 3553 02c6 00       		.uleb128 0
 3554              	.LLSDACSE1133:
 3555 02c7 01       		.byte	0x1
 3556 02c8 00       		.byte	0
 3557 02c9 000000   		.align 4
 3558 02cc 00000000 		.long	0
 3559              	
 3560              	.LLSDATT1133:
 3561              		.text
 3563              		.section	.text._ZN8UnitTest15MemoryOutStreamD1Ev,"axG",@progbits,_ZN8UnitTest15MemoryOutStreamD1Ev
 3564              		.align 2
 3565              		.weak	_ZN8UnitTest15MemoryOutStreamD1Ev
 3567              	_ZN8UnitTest15MemoryOutStreamD1Ev:
 3568              	.LFB1164:
  13:../MemoryOutStream.h **** {
 3569              		.loc 2 13 0
 3570              		.cfi_startproc
 3571              		.cfi_personality 0x9b,DW.ref.__gxx_personality_v0
 3572              		.cfi_lsda 0x1b,.LLSDA1164
 3573 0000 55       		pushq	%rbp
 3574              		.cfi_def_cfa_offset 16
 3575              		.cfi_offset 6, -16
 3576 0001 4889E5   		movq	%rsp, %rbp
 3577              		.cfi_def_cfa_register 6
 3578 0004 53       		pushq	%rbx
 3579 0005 4883EC18 		subq	$24, %rsp
 3580              		.cfi_offset 3, -24
 3581 0009 48897DE8 		movq	%rdi, -24(%rbp)
 3582              	.LBB15:
  13:../MemoryOutStream.h **** {
 3583              		.loc 2 13 0
 3584 000d 488D1500 		leaq	24+_ZTVN8UnitTest15MemoryOutStreamE(%rip), %rdx
 3584      000000
 3585 0014 488B45E8 		movq	-24(%rbp), %rax
 3586 0018 488910   		movq	%rdx, (%rax)
 3587 001b 488B45E8 		movq	-24(%rbp), %rax
 3588 001f 488D9090 		leaq	144(%rax), %rdx
 3588      000000
 3589 0026 488D0500 		leaq	64+_ZTVN8UnitTest15MemoryOutStreamE(%rip), %rax
 3589      000000
 3590 002d 488902   		movq	%rax, (%rdx)
 3591 0030 488B45E8 		movq	-24(%rbp), %rax
 3592 0034 4883C070 		addq	$112, %rax
 3593 0038 4889C7   		movq	%rax, %rdi
 3594              	.LEHB110:
 3595 003b E8000000 		call	_ZNSt7__cxx1112basic_stringIcSt11char_traitsIcESaIcEED1Ev@PLT
 3595      00
 3596              	.LEHE110:
  13:../MemoryOutStream.h **** {
 3597              		.loc 2 13 0 is_stmt 0 discriminator 2
 3598 0040 488B45E8 		movq	-24(%rbp), %rax
 3599 0044 488D1500 		leaq	8+_ZTTN8UnitTest15MemoryOutStreamE(%rip), %rdx
 3599      000000
 3600 004b 4889D6   		movq	%rdx, %rsi
 3601 004e 4889C7   		movq	%rax, %rdi
 3602              	.LEHB111:
 3603 0051 E8000000 		call	_ZNSt7__cxx1119basic_ostringstreamIcSt11char_traitsIcESaIcEED2Ev@PLT
 3603      00
 3604              	.LEHE111:
  13:../MemoryOutStream.h **** {
 3605              		.loc 2 13 0 discriminator 4
 3606 0056 488B45E8 		movq	-24(%rbp), %rax
 3607 005a 48059000 		addq	$144, %rax
 3607      0000
 3608 0060 4889C7   		movq	%rax, %rdi
 3609              	.LEHB112:
 3610 0063 E8000000 		call	_ZNSt9basic_iosIcSt11char_traitsIcEED2Ev@PLT
 3610      00
 3611              	.LEHE112:
 3612              	.LBE15:
 3613 0068 EB3B     		jmp	.L204
 3614              	.L202:
 3615 006a 4889C3   		movq	%rax, %rbx
 3616              	.LBB16:
  13:../MemoryOutStream.h **** {
 3617              		.loc 2 13 0
 3618 006d 488B45E8 		movq	-24(%rbp), %rax
 3619 0071 488D1500 		leaq	8+_ZTTN8UnitTest15MemoryOutStreamE(%rip), %rdx
 3619      000000
 3620 0078 4889D6   		movq	%rdx, %rsi
 3621 007b 4889C7   		movq	%rax, %rdi
 3622 007e E8000000 		call	_ZNSt7__cxx1119basic_ostringstreamIcSt11char_traitsIcESaIcEED2Ev@PLT
 3622      00
 3623 0083 EB03     		jmp	.L201
 3624              	.L203:
 3625 0085 4889C3   		movq	%rax, %rbx
 3626              	.L201:
  13:../MemoryOutStream.h **** {
 3627              		.loc 2 13 0 discriminator 3
 3628 0088 488B45E8 		movq	-24(%rbp), %rax
 3629 008c 48059000 		addq	$144, %rax
 3629      0000
 3630 0092 4889C7   		movq	%rax, %rdi
 3631 0095 E8000000 		call	_ZNSt9basic_iosIcSt11char_traitsIcEED2Ev@PLT
 3631      00
 3632 009a 4889D8   		movq	%rbx, %rax
 3633 009d 4889C7   		movq	%rax, %rdi
 3634              	.LEHB113:
 3635 00a0 E8000000 		call	_Unwind_Resume@PLT
 3635      00
 3636              	.LEHE113:
 3637              	.L204:
 3638              	.LBE16:
  13:../MemoryOutStream.h **** {
 3639              		.loc 2 13 0
 3640 00a5 4883C418 		addq	$24, %rsp
 3641 00a9 5B       		popq	%rbx
 3642 00aa 5D       		popq	%rbp
 3643              		.cfi_def_cfa 7, 8
 3644 00ab C3       		ret
 3645              		.cfi_endproc
 3646              	.LFE1164:
 3647              		.section	.gcc_except_table
 3648              	.LLSDA1164:
 3649 02d0 FF       		.byte	0xff
 3650 02d1 FF       		.byte	0xff
 3651 02d2 01       		.byte	0x1
 3652 02d3 12       		.uleb128 .LLSDACSE1164-.LLSDACSB1164
 3653              	.LLSDACSB1164:
 3654 02d4 3B       		.uleb128 .LEHB110-.LFB1164
 3655 02d5 05       		.uleb128 .LEHE110-.LEHB110
 3656 02d6 6A       		.uleb128 .L202-.LFB1164
 3657 02d7 00       		.uleb128 0
 3658 02d8 51       		.uleb128 .LEHB111-.LFB1164
 3659 02d9 05       		.uleb128 .LEHE111-.LEHB111
 3660 02da 8501     		.uleb128 .L203-.LFB1164
 3661 02dc 00       		.uleb128 0
 3662 02dd 63       		.uleb128 .LEHB112-.LFB1164
 3663 02de 05       		.uleb128 .LEHE112-.LEHB112
 3664 02df 00       		.uleb128 0
 3665 02e0 00       		.uleb128 0
 3666 02e1 A001     		.uleb128 .LEHB113-.LFB1164
 3667 02e3 05       		.uleb128 .LEHE113-.LEHB113
 3668 02e4 00       		.uleb128 0
 3669 02e5 00       		.uleb128 0
 3670              	.LLSDACSE1164:
 3671              		.section	.text._ZN8UnitTest15MemoryOutStreamD1Ev,"axG",@progbits,_ZN8UnitTest15MemoryOutStreamD1Ev
 3673              		.set	.LTHUNK0,_ZN8UnitTest15MemoryOutStreamD1Ev
 3674              		.weak	_ZTv0_n24_N8UnitTest15MemoryOutStreamD1Ev
 3676              	_ZTv0_n24_N8UnitTest15MemoryOutStreamD1Ev:
 3677              	.LFB1263:
  13:../MemoryOutStream.h **** {
 3678              		.loc 2 13 0 is_stmt 1
 3679              		.cfi_startproc
 3680 00ac 4C8B17   		movq	(%rdi), %r10
 3681 00af 49037AE8 		addq	-24(%r10), %rdi
 3682 00b3 E948FFFF 		jmp	.LTHUNK0
 3682      FF
 3683              		.cfi_endproc
 3684              	.LFE1263:
 3686              		.section	.text._ZN8UnitTest15MemoryOutStreamD0Ev,"axG",@progbits,_ZN8UnitTest15MemoryOutStreamD0Ev
 3687              		.align 2
 3688              		.weak	_ZN8UnitTest15MemoryOutStreamD0Ev
 3690              	_ZN8UnitTest15MemoryOutStreamD0Ev:
 3691              	.LFB1165:
  13:../MemoryOutStream.h **** {
 3692              		.loc 2 13 0
 3693              		.cfi_startproc
 3694              		.cfi_personality 0x9b,DW.ref.__gxx_personality_v0
 3695              		.cfi_lsda 0x1b,.LLSDA1165
 3696 0000 55       		pushq	%rbp
 3697              		.cfi_def_cfa_offset 16
 3698              		.cfi_offset 6, -16
 3699 0001 4889E5   		movq	%rsp, %rbp
 3700              		.cfi_def_cfa_register 6
 3701 0004 53       		pushq	%rbx
 3702 0005 4883EC18 		subq	$24, %rsp
 3703              		.cfi_offset 3, -24
 3704 0009 48897DE8 		movq	%rdi, -24(%rbp)
  13:../MemoryOutStream.h **** {
 3705              		.loc 2 13 0
 3706 000d 488B45E8 		movq	-24(%rbp), %rax
 3707 0011 4889C7   		movq	%rax, %rdi
 3708              	.LEHB114:
 3709 0014 E8000000 		call	_ZN8UnitTest15MemoryOutStreamD1Ev
 3709      00
 3710              	.LEHE114:
  13:../MemoryOutStream.h **** {
 3711              		.loc 2 13 0 is_stmt 0 discriminator 2
 3712 0019 488B45E8 		movq	-24(%rbp), %rax
 3713 001d 4889C7   		movq	%rax, %rdi
 3714 0020 E8000000 		call	_ZdlPv@PLT
 3714      00
 3715 0025 EB1A     		jmp	.L208
 3716              	.L207:
 3717 0027 4889C3   		movq	%rax, %rbx
  13:../MemoryOutStream.h **** {
 3718              		.loc 2 13 0
 3719 002a 488B45E8 		movq	-24(%rbp), %rax
 3720 002e 4889C7   		movq	%rax, %rdi
 3721 0031 E8000000 		call	_ZdlPv@PLT
 3721      00
 3722 0036 4889D8   		movq	%rbx, %rax
 3723 0039 4889C7   		movq	%rax, %rdi
 3724              	.LEHB115:
 3725 003c E8000000 		call	_Unwind_Resume@PLT
 3725      00
 3726              	.LEHE115:
 3727              	.L208:
 3728 0041 4883C418 		addq	$24, %rsp
 3729 0045 5B       		popq	%rbx
 3730 0046 5D       		popq	%rbp
 3731              		.cfi_def_cfa 7, 8
 3732 0047 C3       		ret
 3733              		.cfi_endproc
 3734              	.LFE1165:
 3735              		.section	.gcc_except_table
 3736              	.LLSDA1165:
 3737 02e6 FF       		.byte	0xff
 3738 02e7 FF       		.byte	0xff
 3739 02e8 01       		.byte	0x1
 3740 02e9 08       		.uleb128 .LLSDACSE1165-.LLSDACSB1165
 3741              	.LLSDACSB1165:
 3742 02ea 14       		.uleb128 .LEHB114-.LFB1165
 3743 02eb 05       		.uleb128 .LEHE114-.LEHB114
 3744 02ec 27       		.uleb128 .L207-.LFB1165
 3745 02ed 00       		.uleb128 0
 3746 02ee 3C       		.uleb128 .LEHB115-.LFB1165
 3747 02ef 05       		.uleb128 .LEHE115-.LEHB115
 3748 02f0 00       		.uleb128 0
 3749 02f1 00       		.uleb128 0
 3750              	.LLSDACSE1165:
 3751              		.section	.text._ZN8UnitTest15MemoryOutStreamD0Ev,"axG",@progbits,_ZN8UnitTest15MemoryOutStreamD0Ev
 3753              		.set	.LTHUNK1,_ZN8UnitTest15MemoryOutStreamD0Ev
 3754              		.weak	_ZTv0_n24_N8UnitTest15MemoryOutStreamD0Ev
 3756              	_ZTv0_n24_N8UnitTest15MemoryOutStreamD0Ev:
 3757              	.LFB1264:
  13:../MemoryOutStream.h **** {
 3758              		.loc 2 13 0 is_stmt 1
 3759              		.cfi_startproc
 3760 0048 4C8B17   		movq	(%rdi), %r10
 3761 004b 49037AE8 		addq	-24(%r10), %rdi
 3762 004f EBAF     		jmp	.LTHUNK1
 3763              		.cfi_endproc
 3764              	.LFE1264:
 3766              		.section	.rodata
 3767              	.LC37:
 3768 069b 45787065 		.string	"Expected "
 3768      63746564 
 3768      2000
 3769              	.LC38:
 3770 06a5 20627574 		.string	" but was "
 3770      20776173 
 3770      2000
 3771              		.section	.text._ZN8UnitTest10CheckEqualIiiEEvRNS_11TestResultsERKT_RKT0_RKNS_11TestDetailsE,"axG",
 3772              		.weak	_ZN8UnitTest10CheckEqualIiiEEvRNS_11TestResultsERKT_RKT0_RKNS_11TestDetailsE
 3774              	_ZN8UnitTest10CheckEqualIiiEEvRNS_11TestResultsERKT_RKT0_RKNS_11TestDetailsE:
 3775              	.LFB1161:
 3776              		.file 6 "../Checks.h"
   1:../Checks.h   **** #ifndef UNITTEST_CHECKS_H
   2:../Checks.h   **** #define UNITTEST_CHECKS_H
   3:../Checks.h   **** 
   4:../Checks.h   **** #include "Config.h"
   5:../Checks.h   **** #include "TestResults.h"
   6:../Checks.h   **** #include "MemoryOutStream.h"
   7:../Checks.h   **** 
   8:../Checks.h   **** namespace UnitTest {
   9:../Checks.h   **** 
  10:../Checks.h   **** 
  11:../Checks.h   **** template< typename Value >
  12:../Checks.h   **** bool Check(Value const value)
  13:../Checks.h   **** {
  14:../Checks.h   ****     return !!value; // doing double negative to avoid silly VS warnings
  15:../Checks.h   **** }
  16:../Checks.h   **** 
  17:../Checks.h   **** 
  18:../Checks.h   **** template< typename Expected, typename Actual >
  19:../Checks.h   **** void CheckEqual(TestResults& results, Expected const& expected, Actual const& actual, TestDetails c
 3777              		.loc 6 19 0
 3778              		.cfi_startproc
 3779              		.cfi_personality 0x9b,DW.ref.__gxx_personality_v0
 3780              		.cfi_lsda 0x1b,.LLSDA1161
 3781 0000 55       		pushq	%rbp
 3782              		.cfi_def_cfa_offset 16
 3783              		.cfi_offset 6, -16
 3784 0001 4889E5   		movq	%rsp, %rbp
 3785              		.cfi_def_cfa_register 6
 3786 0004 53       		pushq	%rbx
 3787 0005 4881ECC8 		subq	$456, %rsp
 3787      010000
 3788              		.cfi_offset 3, -24
 3789 000c 4889BD48 		movq	%rdi, -440(%rbp)
 3789      FEFFFF
 3790 0013 4889B540 		movq	%rsi, -448(%rbp)
 3790      FEFFFF
 3791 001a 48899538 		movq	%rdx, -456(%rbp)
 3791      FEFFFF
 3792 0021 48898D30 		movq	%rcx, -464(%rbp)
 3792      FEFFFF
 3793              		.loc 6 19 0
 3794 0028 64488B04 		movq	%fs:40, %rax
 3794      25280000 
 3794      00
 3795 0031 488945E8 		movq	%rax, -24(%rbp)
 3796 0035 31C0     		xorl	%eax, %eax
 3797              	.LBB17:
  20:../Checks.h   **** {
  21:../Checks.h   ****     if (!(expected == actual))
 3798              		.loc 6 21 0
 3799 0037 488B8540 		movq	-448(%rbp), %rax
 3799      FEFFFF
 3800 003e 8B10     		movl	(%rax), %edx
 3801 0040 488B8538 		movq	-456(%rbp), %rax
 3801      FEFFFF
 3802 0047 8B00     		movl	(%rax), %eax
 3803 0049 39C2     		cmpl	%eax, %edx
 3804 004b 0F84B900 		je	.L214
 3804      0000
 3805              	.LBB18:
  22:../Checks.h   ****     {
  23:../Checks.h   ****         UnitTest::MemoryOutStream stream;
 3806              		.loc 6 23 0
 3807 0051 488D8550 		leaq	-432(%rbp), %rax
 3807      FEFFFF
 3808 0058 4889C7   		movq	%rax, %rdi
 3809              	.LEHB116:
 3810 005b E8000000 		call	_ZN8UnitTest15MemoryOutStreamC1Ev
 3810      00
 3811              	.LEHE116:
  24:../Checks.h   ****         stream << "Expected " << expected << " but was " << actual;
 3812              		.loc 6 24 0
 3813 0060 488D8550 		leaq	-432(%rbp), %rax
 3813      FEFFFF
 3814 0067 488D3500 		leaq	.LC37(%rip), %rsi
 3814      000000
 3815 006e 4889C7   		movq	%rax, %rdi
 3816              	.LEHB117:
 3817 0071 E8000000 		call	_ZStlsISt11char_traitsIcEERSt13basic_ostreamIcT_ES5_PKc@PLT
 3817      00
 3818 0076 4889C2   		movq	%rax, %rdx
 3819 0079 488B8540 		movq	-448(%rbp), %rax
 3819      FEFFFF
 3820 0080 8B00     		movl	(%rax), %eax
 3821 0082 89C6     		movl	%eax, %esi
 3822 0084 4889D7   		movq	%rdx, %rdi
 3823 0087 E8000000 		call	_ZNSolsEi@PLT
 3823      00
 3824              		.loc 6 24 0 is_stmt 0 discriminator 1
 3825 008c 488D3500 		leaq	.LC38(%rip), %rsi
 3825      000000
 3826 0093 4889C7   		movq	%rax, %rdi
 3827 0096 E8000000 		call	_ZStlsISt11char_traitsIcEERSt13basic_ostreamIcT_ES5_PKc@PLT
 3827      00
 3828              		.loc 6 24 0 discriminator 2
 3829 009b 4889C2   		movq	%rax, %rdx
 3830 009e 488B8538 		movq	-456(%rbp), %rax
 3830      FEFFFF
 3831 00a5 8B00     		movl	(%rax), %eax
 3832 00a7 89C6     		movl	%eax, %esi
 3833 00a9 4889D7   		movq	%rdx, %rdi
 3834 00ac E8000000 		call	_ZNSolsEi@PLT
 3834      00
  25:../Checks.h   **** 
  26:../Checks.h   ****         results.OnTestFailure(details, stream.GetText());
 3835              		.loc 6 26 0 is_stmt 1
 3836 00b1 488D8550 		leaq	-432(%rbp), %rax
 3836      FEFFFF
 3837 00b8 4889C7   		movq	%rax, %rdi
 3838 00bb E8000000 		call	_ZNK8UnitTest15MemoryOutStream7GetTextEv@PLT
 3838      00
 3839 00c0 4889C2   		movq	%rax, %rdx
 3840 00c3 488B8D30 		movq	-464(%rbp), %rcx
 3840      FEFFFF
 3841 00ca 488B8548 		movq	-440(%rbp), %rax
 3841      FEFFFF
 3842 00d1 4889CE   		movq	%rcx, %rsi
 3843 00d4 4889C7   		movq	%rax, %rdi
 3844 00d7 E8000000 		call	_ZN8UnitTest11TestResults13OnTestFailureERKNS_11TestDetailsEPKc@PLT
 3844      00
 3845              	.LEHE117:
  23:../Checks.h   ****         stream << "Expected " << expected << " but was " << actual;
 3846              		.loc 6 23 0
 3847 00dc 488D8550 		leaq	-432(%rbp), %rax
 3847      FEFFFF
 3848 00e3 4889C7   		movq	%rax, %rdi
 3849              	.LEHB118:
 3850 00e6 E8000000 		call	_ZN8UnitTest15MemoryOutStreamD1Ev
 3850      00
 3851              	.LEHE118:
 3852              	.LBE18:
 3853              	.LBE17:
  27:../Checks.h   ****     }
  28:../Checks.h   **** }
 3854              		.loc 6 28 0
 3855 00eb EB1D     		jmp	.L214
 3856              	.L213:
 3857 00ed 4889C3   		movq	%rax, %rbx
 3858              	.LBB20:
 3859              	.LBB19:
  23:../Checks.h   ****         stream << "Expected " << expected << " but was " << actual;
 3860              		.loc 6 23 0
 3861 00f0 488D8550 		leaq	-432(%rbp), %rax
 3861      FEFFFF
 3862 00f7 4889C7   		movq	%rax, %rdi
 3863 00fa E8000000 		call	_ZN8UnitTest15MemoryOutStreamD1Ev
 3863      00
 3864 00ff 4889D8   		movq	%rbx, %rax
 3865 0102 4889C7   		movq	%rax, %rdi
 3866              	.LEHB119:
 3867 0105 E8000000 		call	_Unwind_Resume@PLT
 3867      00
 3868              	.LEHE119:
 3869              	.L214:
 3870              	.LBE19:
 3871              	.LBE20:
 3872              		.loc 6 28 0
 3873 010a 90       		nop
 3874 010b 488B45E8 		movq	-24(%rbp), %rax
 3875 010f 64483304 		xorq	%fs:40, %rax
 3875      25280000 
 3875      00
 3876 0118 7405     		je	.L212
 3877 011a E8000000 		call	__stack_chk_fail@PLT
 3877      00
 3878              	.L212:
 3879 011f 4881C4C8 		addq	$456, %rsp
 3879      010000
 3880 0126 5B       		popq	%rbx
 3881 0127 5D       		popq	%rbp
 3882              		.cfi_def_cfa 7, 8
 3883 0128 C3       		ret
 3884              		.cfi_endproc
 3885              	.LFE1161:
 3886              		.section	.gcc_except_table
 3887              	.LLSDA1161:
 3888 02f2 FF       		.byte	0xff
 3889 02f3 FF       		.byte	0xff
 3890 02f4 01       		.byte	0x1
 3891 02f5 13       		.uleb128 .LLSDACSE1161-.LLSDACSB1161
 3892              	.LLSDACSB1161:
 3893 02f6 5B       		.uleb128 .LEHB116-.LFB1161
 3894 02f7 05       		.uleb128 .LEHE116-.LEHB116
 3895 02f8 00       		.uleb128 0
 3896 02f9 00       		.uleb128 0
 3897 02fa 71       		.uleb128 .LEHB117-.LFB1161
 3898 02fb 6B       		.uleb128 .LEHE117-.LEHB117
 3899 02fc ED01     		.uleb128 .L213-.LFB1161
 3900 02fe 00       		.uleb128 0
 3901 02ff E601     		.uleb128 .LEHB118-.LFB1161
 3902 0301 05       		.uleb128 .LEHE118-.LEHB118
 3903 0302 00       		.uleb128 0
 3904 0303 00       		.uleb128 0
 3905 0304 8502     		.uleb128 .LEHB119-.LFB1161
 3906 0306 05       		.uleb128 .LEHE119-.LEHB119
 3907 0307 00       		.uleb128 0
 3908 0308 00       		.uleb128 0
 3909              	.LLSDACSE1161:
 3910              		.section	.text._ZN8UnitTest10CheckEqualIiiEEvRNS_11TestResultsERKT_RKT0_RKNS_11TestDetailsE,"axG",
 3912              		.section	.rodata
 3913              	.LC39:
 3914 06af 202B2F2D 		.string	" +/- "
 3914      2000
 3915              		.section	.text._ZN8UnitTest10CheckCloseIfffEEvRNS_11TestResultsERKT_RKT0_RKT1_RKNS_11TestDetailsE,
 3916              		.weak	_ZN8UnitTest10CheckCloseIfffEEvRNS_11TestResultsERKT_RKT0_RKT1_RKNS_11TestDetailsE
 3918              	_ZN8UnitTest10CheckCloseIfffEEvRNS_11TestResultsERKT_RKT0_RKT1_RKNS_11TestDetailsE:
 3919              	.LFB1166:
  29:../Checks.h   **** 
  30:../Checks.h   **** void CheckEqual(TestResults& results, char const* expected, char const* actual, TestDetails const& 
  31:../Checks.h   **** 
  32:../Checks.h   **** void CheckEqual(TestResults& results, char* expected, char* actual, TestDetails const& details);
  33:../Checks.h   **** 
  34:../Checks.h   **** void CheckEqual(TestResults& results, char* expected, char const* actual, TestDetails const& detail
  35:../Checks.h   **** 
  36:../Checks.h   **** void CheckEqual(TestResults& results, char const* expected, char* actual, TestDetails const& detail
  37:../Checks.h   **** 
  38:../Checks.h   **** template< typename Expected, typename Actual, typename Tolerance >
  39:../Checks.h   **** bool AreClose(Expected const& expected, Actual const& actual, Tolerance const& tolerance)
  40:../Checks.h   **** {
  41:../Checks.h   ****     return (actual >= (expected - tolerance)) && (actual <= (expected + tolerance));
  42:../Checks.h   **** }
  43:../Checks.h   **** 
  44:../Checks.h   **** template< typename Expected, typename Actual, typename Tolerance >
  45:../Checks.h   **** void CheckClose(TestResults& results, Expected const& expected, Actual const& actual, Tolerance con
 3920              		.loc 6 45 0
 3921              		.cfi_startproc
 3922              		.cfi_personality 0x9b,DW.ref.__gxx_personality_v0
 3923              		.cfi_lsda 0x1b,.LLSDA1166
 3924 0000 55       		pushq	%rbp
 3925              		.cfi_def_cfa_offset 16
 3926              		.cfi_offset 6, -16
 3927 0001 4889E5   		movq	%rsp, %rbp
 3928              		.cfi_def_cfa_register 6
 3929 0004 53       		pushq	%rbx
 3930 0005 4881ECD8 		subq	$472, %rsp
 3930      010000
 3931              		.cfi_offset 3, -24
 3932 000c 4889BD48 		movq	%rdi, -440(%rbp)
 3932      FEFFFF
 3933 0013 4889B540 		movq	%rsi, -448(%rbp)
 3933      FEFFFF
 3934 001a 48899538 		movq	%rdx, -456(%rbp)
 3934      FEFFFF
 3935 0021 48898D30 		movq	%rcx, -464(%rbp)
 3935      FEFFFF
 3936 0028 4C898528 		movq	%r8, -472(%rbp)
 3936      FEFFFF
 3937              		.loc 6 45 0
 3938 002f 64488B04 		movq	%fs:40, %rax
 3938      25280000 
 3938      00
 3939 0038 488945E8 		movq	%rax, -24(%rbp)
 3940 003c 31C0     		xorl	%eax, %eax
 3941              	.LBB21:
  46:../Checks.h   ****                 TestDetails const& details)
  47:../Checks.h   **** {
  48:../Checks.h   ****     if (!AreClose(expected, actual, tolerance))
 3942              		.loc 6 48 0
 3943 003e 488B9530 		movq	-464(%rbp), %rdx
 3943      FEFFFF
 3944 0045 488B8D38 		movq	-456(%rbp), %rcx
 3944      FEFFFF
 3945 004c 488B8540 		movq	-448(%rbp), %rax
 3945      FEFFFF
 3946 0053 4889CE   		movq	%rcx, %rsi
 3947 0056 4889C7   		movq	%rax, %rdi
 3948 0059 E8000000 		call	_ZN8UnitTest8AreCloseIfffEEbRKT_RKT0_RKT1_
 3948      00
 3949 005e 83F001   		xorl	$1, %eax
 3950 0061 84C0     		testb	%al, %al
 3951 0063 0F840201 		je	.L220
 3951      0000
 3952              	.LBB22:
  49:../Checks.h   ****     { 
  50:../Checks.h   ****         UnitTest::MemoryOutStream stream;
 3953              		.loc 6 50 0
 3954 0069 488D8550 		leaq	-432(%rbp), %rax
 3954      FEFFFF
 3955 0070 4889C7   		movq	%rax, %rdi
 3956              	.LEHB120:
 3957 0073 E8000000 		call	_ZN8UnitTest15MemoryOutStreamC1Ev
 3957      00
 3958              	.LEHE120:
  51:../Checks.h   ****         stream << "Expected " << expected << " +/- " << tolerance << " but was " << actual;
 3959              		.loc 6 51 0
 3960 0078 488D8550 		leaq	-432(%rbp), %rax
 3960      FEFFFF
 3961 007f 488D3500 		leaq	.LC37(%rip), %rsi
 3961      000000
 3962 0086 4889C7   		movq	%rax, %rdi
 3963              	.LEHB121:
 3964 0089 E8000000 		call	_ZStlsISt11char_traitsIcEERSt13basic_ostreamIcT_ES5_PKc@PLT
 3964      00
 3965 008e 4889C2   		movq	%rax, %rdx
 3966 0091 488B8540 		movq	-448(%rbp), %rax
 3966      FEFFFF
 3967 0098 8B00     		movl	(%rax), %eax
 3968 009a 898524FE 		movl	%eax, -476(%rbp)
 3968      FFFF
 3969 00a0 F30F1085 		movss	-476(%rbp), %xmm0
 3969      24FEFFFF 
 3970 00a8 4889D7   		movq	%rdx, %rdi
 3971 00ab E8000000 		call	_ZNSolsEf@PLT
 3971      00
 3972              		.loc 6 51 0 is_stmt 0 discriminator 1
 3973 00b0 488D3500 		leaq	.LC39(%rip), %rsi
 3973      000000
 3974 00b7 4889C7   		movq	%rax, %rdi
 3975 00ba E8000000 		call	_ZStlsISt11char_traitsIcEERSt13basic_ostreamIcT_ES5_PKc@PLT
 3975      00
 3976              		.loc 6 51 0 discriminator 2
 3977 00bf 4889C2   		movq	%rax, %rdx
 3978 00c2 488B8530 		movq	-464(%rbp), %rax
 3978      FEFFFF
 3979 00c9 8B00     		movl	(%rax), %eax
 3980 00cb 898524FE 		movl	%eax, -476(%rbp)
 3980      FFFF
 3981 00d1 F30F1085 		movss	-476(%rbp), %xmm0
 3981      24FEFFFF 
 3982 00d9 4889D7   		movq	%rdx, %rdi
 3983 00dc E8000000 		call	_ZNSolsEf@PLT
 3983      00
 3984              		.loc 6 51 0 discriminator 3
 3985 00e1 488D3500 		leaq	.LC38(%rip), %rsi
 3985      000000
 3986 00e8 4889C7   		movq	%rax, %rdi
 3987 00eb E8000000 		call	_ZStlsISt11char_traitsIcEERSt13basic_ostreamIcT_ES5_PKc@PLT
 3987      00
 3988              		.loc 6 51 0 discriminator 4
 3989 00f0 4889C2   		movq	%rax, %rdx
 3990 00f3 488B8538 		movq	-456(%rbp), %rax
 3990      FEFFFF
 3991 00fa 8B00     		movl	(%rax), %eax
 3992 00fc 898524FE 		movl	%eax, -476(%rbp)
 3992      FFFF
 3993 0102 F30F1085 		movss	-476(%rbp), %xmm0
 3993      24FEFFFF 
 3994 010a 4889D7   		movq	%rdx, %rdi
 3995 010d E8000000 		call	_ZNSolsEf@PLT
 3995      00
  52:../Checks.h   **** 
  53:../Checks.h   ****         results.OnTestFailure(details, stream.GetText());
 3996              		.loc 6 53 0 is_stmt 1
 3997 0112 488D8550 		leaq	-432(%rbp), %rax
 3997      FEFFFF
 3998 0119 4889C7   		movq	%rax, %rdi
 3999 011c E8000000 		call	_ZNK8UnitTest15MemoryOutStream7GetTextEv@PLT
 3999      00
 4000 0121 4889C2   		movq	%rax, %rdx
 4001 0124 488B8D28 		movq	-472(%rbp), %rcx
 4001      FEFFFF
 4002 012b 488B8548 		movq	-440(%rbp), %rax
 4002      FEFFFF
 4003 0132 4889CE   		movq	%rcx, %rsi
 4004 0135 4889C7   		movq	%rax, %rdi
 4005 0138 E8000000 		call	_ZN8UnitTest11TestResults13OnTestFailureERKNS_11TestDetailsEPKc@PLT
 4005      00
 4006              	.LEHE121:
  50:../Checks.h   ****         stream << "Expected " << expected << " +/- " << tolerance << " but was " << actual;
 4007              		.loc 6 50 0
 4008 013d 488D8550 		leaq	-432(%rbp), %rax
 4008      FEFFFF
 4009 0144 4889C7   		movq	%rax, %rdi
 4010              	.LEHB122:
 4011 0147 E8000000 		call	_ZN8UnitTest15MemoryOutStreamD1Ev
 4011      00
 4012              	.LEHE122:
 4013              	.LBE22:
 4014              	.LBE21:
  54:../Checks.h   ****     }
  55:../Checks.h   **** }
 4015              		.loc 6 55 0
 4016 014c EB1D     		jmp	.L220
 4017              	.L219:
 4018 014e 4889C3   		movq	%rax, %rbx
 4019              	.LBB24:
 4020              	.LBB23:
  50:../Checks.h   ****         stream << "Expected " << expected << " +/- " << tolerance << " but was " << actual;
 4021              		.loc 6 50 0
 4022 0151 488D8550 		leaq	-432(%rbp), %rax
 4022      FEFFFF
 4023 0158 4889C7   		movq	%rax, %rdi
 4024 015b E8000000 		call	_ZN8UnitTest15MemoryOutStreamD1Ev
 4024      00
 4025 0160 4889D8   		movq	%rbx, %rax
 4026 0163 4889C7   		movq	%rax, %rdi
 4027              	.LEHB123:
 4028 0166 E8000000 		call	_Unwind_Resume@PLT
 4028      00
 4029              	.LEHE123:
 4030              	.L220:
 4031              	.LBE23:
 4032              	.LBE24:
 4033              		.loc 6 55 0
 4034 016b 90       		nop
 4035 016c 488B45E8 		movq	-24(%rbp), %rax
 4036 0170 64483304 		xorq	%fs:40, %rax
 4036      25280000 
 4036      00
 4037 0179 7405     		je	.L218
 4038 017b E8000000 		call	__stack_chk_fail@PLT
 4038      00
 4039              	.L218:
 4040 0180 4881C4D8 		addq	$472, %rsp
 4040      010000
 4041 0187 5B       		popq	%rbx
 4042 0188 5D       		popq	%rbp
 4043              		.cfi_def_cfa 7, 8
 4044 0189 C3       		ret
 4045              		.cfi_endproc
 4046              	.LFE1166:
 4047              		.section	.gcc_except_table
 4048              	.LLSDA1166:
 4049 0309 FF       		.byte	0xff
 4050 030a FF       		.byte	0xff
 4051 030b 01       		.byte	0x1
 4052 030c 15       		.uleb128 .LLSDACSE1166-.LLSDACSB1166
 4053              	.LLSDACSB1166:
 4054 030d 73       		.uleb128 .LEHB120-.LFB1166
 4055 030e 05       		.uleb128 .LEHE120-.LEHB120
 4056 030f 00       		.uleb128 0
 4057 0310 00       		.uleb128 0
 4058 0311 8901     		.uleb128 .LEHB121-.LFB1166
 4059 0313 B401     		.uleb128 .LEHE121-.LEHB121
 4060 0315 CE02     		.uleb128 .L219-.LFB1166
 4061 0317 00       		.uleb128 0
 4062 0318 C702     		.uleb128 .LEHB122-.LFB1166
 4063 031a 05       		.uleb128 .LEHE122-.LEHB122
 4064 031b 00       		.uleb128 0
 4065 031c 00       		.uleb128 0
 4066 031d E602     		.uleb128 .LEHB123-.LFB1166
 4067 031f 05       		.uleb128 .LEHE123-.LEHB123
 4068 0320 00       		.uleb128 0
 4069 0321 00       		.uleb128 0
 4070              	.LLSDACSE1166:
 4071              		.section	.text._ZN8UnitTest10CheckCloseIfffEEvRNS_11TestResultsERKT_RKT0_RKT1_RKNS_11TestDetailsE,
 4073              		.section	.text._ZN8UnitTest8AreCloseIfffEEbRKT_RKT0_RKT1_,"axG",@progbits,_ZN8UnitTest8AreCloseIff
 4074              		.weak	_ZN8UnitTest8AreCloseIfffEEbRKT_RKT0_RKT1_
 4076              	_ZN8UnitTest8AreCloseIfffEEbRKT_RKT0_RKT1_:
 4077              	.LFB1194:
  39:../Checks.h   **** {
 4078              		.loc 6 39 0
 4079              		.cfi_startproc
 4080 0000 55       		pushq	%rbp
 4081              		.cfi_def_cfa_offset 16
 4082              		.cfi_offset 6, -16
 4083 0001 4889E5   		movq	%rsp, %rbp
 4084              		.cfi_def_cfa_register 6
 4085 0004 48897DF8 		movq	%rdi, -8(%rbp)
 4086 0008 488975F0 		movq	%rsi, -16(%rbp)
 4087 000c 488955E8 		movq	%rdx, -24(%rbp)
  41:../Checks.h   **** }
 4088              		.loc 6 41 0
 4089 0010 488B45F0 		movq	-16(%rbp), %rax
 4090 0014 F30F1008 		movss	(%rax), %xmm1
 4091 0018 488B45F8 		movq	-8(%rbp), %rax
 4092 001c F30F1000 		movss	(%rax), %xmm0
 4093 0020 488B45E8 		movq	-24(%rbp), %rax
 4094 0024 F30F1010 		movss	(%rax), %xmm2
 4095 0028 F30F5CC2 		subss	%xmm2, %xmm0
 4096 002c 0F2EC8   		ucomiss	%xmm0, %xmm1
 4097 002f 7228     		jb	.L222
  41:../Checks.h   **** }
 4098              		.loc 6 41 0 is_stmt 0 discriminator 1
 4099 0031 488B45F0 		movq	-16(%rbp), %rax
 4100 0035 F30F1008 		movss	(%rax), %xmm1
 4101 0039 488B45F8 		movq	-8(%rbp), %rax
 4102 003d F30F1010 		movss	(%rax), %xmm2
 4103 0041 488B45E8 		movq	-24(%rbp), %rax
 4104 0045 F30F1000 		movss	(%rax), %xmm0
 4105 0049 F30F58C2 		addss	%xmm2, %xmm0
 4106 004d 0F2EC1   		ucomiss	%xmm1, %xmm0
 4107 0050 7207     		jb	.L222
  41:../Checks.h   **** }
 4108              		.loc 6 41 0 discriminator 3
 4109 0052 B8010000 		movl	$1, %eax
 4109      00
 4110 0057 EB05     		jmp	.L225
 4111              	.L222:
  41:../Checks.h   **** }
 4112              		.loc 6 41 0 discriminator 4
 4113 0059 B8000000 		movl	$0, %eax
 4113      00
 4114              	.L225:
  42:../Checks.h   **** 
 4115              		.loc 6 42 0 is_stmt 1 discriminator 6
 4116 005e 5D       		popq	%rbp
 4117              		.cfi_def_cfa 7, 8
 4118 005f C3       		ret
 4119              		.cfi_endproc
 4120              	.LFE1194:
 4122              		.section	.data.rel.ro.local,"aw",@progbits
 4123              		.align 8
 4126              	_ZTVN12_GLOBAL__N_129TestNotifiesReporterOfTestEndE:
 4127 0000 00000000 		.quad	0
 4127      00000000 
 4128 0008 00000000 		.quad	_ZTIN12_GLOBAL__N_129TestNotifiesReporterOfTestEndE
 4128      00000000 
 4129 0010 00000000 		.quad	_ZN12_GLOBAL__N_129TestNotifiesReporterOfTestEndD1Ev
 4129      00000000 
 4130 0018 00000000 		.quad	_ZN12_GLOBAL__N_129TestNotifiesReporterOfTestEndD0Ev
 4130      00000000 
 4131 0020 00000000 		.quad	_ZNK12_GLOBAL__N_129TestNotifiesReporterOfTestEnd7RunImplEv
 4131      00000000 
 4132              		.text
 4133              		.align 2
 4135              	_ZN12_GLOBAL__N_129TestNotifiesReporterOfTestEndD2Ev:
 4136              	.LFB1222:
  98:TestTestResults.cpp **** {
 4137              		.loc 5 98 0
 4138              		.cfi_startproc
 4139 18f2 55       		pushq	%rbp
 4140              		.cfi_def_cfa_offset 16
 4141              		.cfi_offset 6, -16
 4142 18f3 4889E5   		movq	%rsp, %rbp
 4143              		.cfi_def_cfa_register 6
 4144 18f6 4883EC10 		subq	$16, %rsp
 4145 18fa 48897DF8 		movq	%rdi, -8(%rbp)
 4146              	.LBB25:
  98:TestTestResults.cpp **** {
 4147              		.loc 5 98 0
 4148 18fe 488D1500 		leaq	16+_ZTVN12_GLOBAL__N_129TestNotifiesReporterOfTestEndE(%rip), %rdx
 4148      000000
 4149 1905 488B45F8 		movq	-8(%rbp), %rax
 4150 1909 488910   		movq	%rdx, (%rax)
 4151 190c 488B45F8 		movq	-8(%rbp), %rax
 4152 1910 4889C7   		movq	%rax, %rdi
 4153 1913 E8000000 		call	_ZN8UnitTest4TestD2Ev@PLT
 4153      00
 4154              	.LBE25:
 4155 1918 90       		nop
 4156 1919 C9       		leave
 4157              		.cfi_def_cfa 7, 8
 4158 191a C3       		ret
 4159              		.cfi_endproc
 4160              	.LFE1222:
 4162              		.set	_ZN12_GLOBAL__N_129TestNotifiesReporterOfTestEndD1Ev,_ZN12_GLOBAL__N_129TestNotifiesReporterO
 4163 191b 90       		.align 2
 4165              	_ZN12_GLOBAL__N_129TestNotifiesReporterOfTestEndD0Ev:
 4166              	.LFB1224:
  98:TestTestResults.cpp **** {
 4167              		.loc 5 98 0
 4168              		.cfi_startproc
 4169              		.cfi_personality 0x9b,DW.ref.__gxx_personality_v0
 4170              		.cfi_lsda 0x1b,.LLSDA1224
 4171 191c 55       		pushq	%rbp
 4172              		.cfi_def_cfa_offset 16
 4173              		.cfi_offset 6, -16
 4174 191d 4889E5   		movq	%rsp, %rbp
 4175              		.cfi_def_cfa_register 6
 4176 1920 53       		pushq	%rbx
 4177 1921 4883EC18 		subq	$24, %rsp
 4178              		.cfi_offset 3, -24
 4179 1925 48897DE8 		movq	%rdi, -24(%rbp)
  98:TestTestResults.cpp **** {
 4180              		.loc 5 98 0
 4181 1929 488B45E8 		movq	-24(%rbp), %rax
 4182 192d 4889C7   		movq	%rax, %rdi
 4183              	.LEHB124:
 4184 1930 E8BDFFFF 		call	_ZN12_GLOBAL__N_129TestNotifiesReporterOfTestEndD1Ev
 4184      FF
 4185              	.LEHE124:
  98:TestTestResults.cpp **** {
 4186              		.loc 5 98 0 is_stmt 0 discriminator 2
 4187 1935 488B45E8 		movq	-24(%rbp), %rax
 4188 1939 4889C7   		movq	%rax, %rdi
 4189 193c E8000000 		call	_ZdlPv@PLT
 4189      00
 4190 1941 EB1A     		jmp	.L233
 4191              	.L232:
 4192 1943 4889C3   		movq	%rax, %rbx
  98:TestTestResults.cpp **** {
 4193              		.loc 5 98 0
 4194 1946 488B45E8 		movq	-24(%rbp), %rax
 4195 194a 4889C7   		movq	%rax, %rdi
 4196 194d E8000000 		call	_ZdlPv@PLT
 4196      00
 4197 1952 4889D8   		movq	%rbx, %rax
 4198 1955 4889C7   		movq	%rax, %rdi
 4199              	.LEHB125:
 4200 1958 E8000000 		call	_Unwind_Resume@PLT
 4200      00
 4201              	.LEHE125:
 4202              	.L233:
 4203 195d 4883C418 		addq	$24, %rsp
 4204 1961 5B       		popq	%rbx
 4205 1962 5D       		popq	%rbp
 4206              		.cfi_def_cfa 7, 8
 4207 1963 C3       		ret
 4208              		.cfi_endproc
 4209              	.LFE1224:
 4210              		.section	.gcc_except_table
 4211              	.LLSDA1224:
 4212 0322 FF       		.byte	0xff
 4213 0323 FF       		.byte	0xff
 4214 0324 01       		.byte	0x1
 4215 0325 08       		.uleb128 .LLSDACSE1224-.LLSDACSB1224
 4216              	.LLSDACSB1224:
 4217 0326 14       		.uleb128 .LEHB124-.LFB1224
 4218 0327 05       		.uleb128 .LEHE124-.LEHB124
 4219 0328 27       		.uleb128 .L232-.LFB1224
 4220 0329 00       		.uleb128 0
 4221 032a 3C       		.uleb128 .LEHB125-.LFB1224
 4222 032b 05       		.uleb128 .LEHE125-.LEHB125
 4223 032c 00       		.uleb128 0
 4224 032d 00       		.uleb128 0
 4225              	.LLSDACSE1224:
 4226              		.text
 4228              		.section	.data.rel.ro.local
 4229              		.align 8
 4232              	_ZTVN12_GLOBAL__N_149TestNotifiesReporterOfCheckFailureWithCorrectInfoE:
 4233 0028 00000000 		.quad	0
 4233      00000000 
 4234 0030 00000000 		.quad	_ZTIN12_GLOBAL__N_149TestNotifiesReporterOfCheckFailureWithCorrectInfoE
 4234      00000000 
 4235 0038 00000000 		.quad	_ZN12_GLOBAL__N_149TestNotifiesReporterOfCheckFailureWithCorrectInfoD1Ev
 4235      00000000 
 4236 0040 00000000 		.quad	_ZN12_GLOBAL__N_149TestNotifiesReporterOfCheckFailureWithCorrectInfoD0Ev
 4236      00000000 
 4237 0048 00000000 		.quad	_ZNK12_GLOBAL__N_149TestNotifiesReporterOfCheckFailureWithCorrectInfo7RunImplEv
 4237      00000000 
 4238              		.text
 4239              		.align 2
 4241              	_ZN12_GLOBAL__N_149TestNotifiesReporterOfCheckFailureWithCorrectInfoD2Ev:
 4242              	.LFB1226:
  83:TestTestResults.cpp **** {
 4243              		.loc 5 83 0 is_stmt 1
 4244              		.cfi_startproc
 4245 1964 55       		pushq	%rbp
 4246              		.cfi_def_cfa_offset 16
 4247              		.cfi_offset 6, -16
 4248 1965 4889E5   		movq	%rsp, %rbp
 4249              		.cfi_def_cfa_register 6
 4250 1968 4883EC10 		subq	$16, %rsp
 4251 196c 48897DF8 		movq	%rdi, -8(%rbp)
 4252              	.LBB26:
  83:TestTestResults.cpp **** {
 4253              		.loc 5 83 0
 4254 1970 488D1500 		leaq	16+_ZTVN12_GLOBAL__N_149TestNotifiesReporterOfCheckFailureWithCorrectInfoE(%rip), %rdx
 4254      000000
 4255 1977 488B45F8 		movq	-8(%rbp), %rax
 4256 197b 488910   		movq	%rdx, (%rax)
 4257 197e 488B45F8 		movq	-8(%rbp), %rax
 4258 1982 4889C7   		movq	%rax, %rdi
 4259 1985 E8000000 		call	_ZN8UnitTest4TestD2Ev@PLT
 4259      00
 4260              	.LBE26:
 4261 198a 90       		nop
 4262 198b C9       		leave
 4263              		.cfi_def_cfa 7, 8
 4264 198c C3       		ret
 4265              		.cfi_endproc
 4266              	.LFE1226:
 4268              		.set	_ZN12_GLOBAL__N_149TestNotifiesReporterOfCheckFailureWithCorrectInfoD1Ev,_ZN12_GLOBAL__N_149T
 4269 198d 90       		.align 2
 4271              	_ZN12_GLOBAL__N_149TestNotifiesReporterOfCheckFailureWithCorrectInfoD0Ev:
 4272              	.LFB1228:
  83:TestTestResults.cpp **** {
 4273              		.loc 5 83 0
 4274              		.cfi_startproc
 4275              		.cfi_personality 0x9b,DW.ref.__gxx_personality_v0
 4276              		.cfi_lsda 0x1b,.LLSDA1228
 4277 198e 55       		pushq	%rbp
 4278              		.cfi_def_cfa_offset 16
 4279              		.cfi_offset 6, -16
 4280 198f 4889E5   		movq	%rsp, %rbp
 4281              		.cfi_def_cfa_register 6
 4282 1992 53       		pushq	%rbx
 4283 1993 4883EC18 		subq	$24, %rsp
 4284              		.cfi_offset 3, -24
 4285 1997 48897DE8 		movq	%rdi, -24(%rbp)
  83:TestTestResults.cpp **** {
 4286              		.loc 5 83 0
 4287 199b 488B45E8 		movq	-24(%rbp), %rax
 4288 199f 4889C7   		movq	%rax, %rdi
 4289              	.LEHB126:
 4290 19a2 E8BDFFFF 		call	_ZN12_GLOBAL__N_149TestNotifiesReporterOfCheckFailureWithCorrectInfoD1Ev
 4290      FF
 4291              	.LEHE126:
  83:TestTestResults.cpp **** {
 4292              		.loc 5 83 0 is_stmt 0 discriminator 2
 4293 19a7 488B45E8 		movq	-24(%rbp), %rax
 4294 19ab 4889C7   		movq	%rax, %rdi
 4295 19ae E8000000 		call	_ZdlPv@PLT
 4295      00
 4296 19b3 EB1A     		jmp	.L238
 4297              	.L237:
 4298 19b5 4889C3   		movq	%rax, %rbx
  83:TestTestResults.cpp **** {
 4299              		.loc 5 83 0
 4300 19b8 488B45E8 		movq	-24(%rbp), %rax
 4301 19bc 4889C7   		movq	%rax, %rdi
 4302 19bf E8000000 		call	_ZdlPv@PLT
 4302      00
 4303 19c4 4889D8   		movq	%rbx, %rax
 4304 19c7 4889C7   		movq	%rax, %rdi
 4305              	.LEHB127:
 4306 19ca E8000000 		call	_Unwind_Resume@PLT
 4306      00
 4307              	.LEHE127:
 4308              	.L238:
 4309 19cf 4883C418 		addq	$24, %rsp
 4310 19d3 5B       		popq	%rbx
 4311 19d4 5D       		popq	%rbp
 4312              		.cfi_def_cfa 7, 8
 4313 19d5 C3       		ret
 4314              		.cfi_endproc
 4315              	.LFE1228:
 4316              		.section	.gcc_except_table
 4317              	.LLSDA1228:
 4318 032e FF       		.byte	0xff
 4319 032f FF       		.byte	0xff
 4320 0330 01       		.byte	0x1
 4321 0331 08       		.uleb128 .LLSDACSE1228-.LLSDACSB1228
 4322              	.LLSDACSB1228:
 4323 0332 14       		.uleb128 .LEHB126-.LFB1228
 4324 0333 05       		.uleb128 .LEHE126-.LEHB126
 4325 0334 27       		.uleb128 .L237-.LFB1228
 4326 0335 00       		.uleb128 0
 4327 0336 3C       		.uleb128 .LEHB127-.LFB1228
 4328 0337 05       		.uleb128 .LEHE127-.LEHB127
 4329 0338 00       		.uleb128 0
 4330 0339 00       		.uleb128 0
 4331              	.LLSDACSE1228:
 4332              		.text
 4334              		.section	.data.rel.ro.local
 4335              		.align 8
 4338              	_ZTVN12_GLOBAL__N_148TestNotifiesReporterOfTestFailureWithCorrectInfoE:
 4339 0050 00000000 		.quad	0
 4339      00000000 
 4340 0058 00000000 		.quad	_ZTIN12_GLOBAL__N_148TestNotifiesReporterOfTestFailureWithCorrectInfoE
 4340      00000000 
 4341 0060 00000000 		.quad	_ZN12_GLOBAL__N_148TestNotifiesReporterOfTestFailureWithCorrectInfoD1Ev
 4341      00000000 
 4342 0068 00000000 		.quad	_ZN12_GLOBAL__N_148TestNotifiesReporterOfTestFailureWithCorrectInfoD0Ev
 4342      00000000 
 4343 0070 00000000 		.quad	_ZNK12_GLOBAL__N_148TestNotifiesReporterOfTestFailureWithCorrectInfo7RunImplEv
 4343      00000000 
 4344              		.text
 4345              		.align 2
 4347              	_ZN12_GLOBAL__N_148TestNotifiesReporterOfTestFailureWithCorrectInfoD2Ev:
 4348              	.LFB1230:
  69:TestTestResults.cpp **** {
 4349              		.loc 5 69 0 is_stmt 1
 4350              		.cfi_startproc
 4351 19d6 55       		pushq	%rbp
 4352              		.cfi_def_cfa_offset 16
 4353              		.cfi_offset 6, -16
 4354 19d7 4889E5   		movq	%rsp, %rbp
 4355              		.cfi_def_cfa_register 6
 4356 19da 4883EC10 		subq	$16, %rsp
 4357 19de 48897DF8 		movq	%rdi, -8(%rbp)
 4358              	.LBB27:
  69:TestTestResults.cpp **** {
 4359              		.loc 5 69 0
 4360 19e2 488D1500 		leaq	16+_ZTVN12_GLOBAL__N_148TestNotifiesReporterOfTestFailureWithCorrectInfoE(%rip), %rdx
 4360      000000
 4361 19e9 488B45F8 		movq	-8(%rbp), %rax
 4362 19ed 488910   		movq	%rdx, (%rax)
 4363 19f0 488B45F8 		movq	-8(%rbp), %rax
 4364 19f4 4889C7   		movq	%rax, %rdi
 4365 19f7 E8000000 		call	_ZN8UnitTest4TestD2Ev@PLT
 4365      00
 4366              	.LBE27:
 4367 19fc 90       		nop
 4368 19fd C9       		leave
 4369              		.cfi_def_cfa 7, 8
 4370 19fe C3       		ret
 4371              		.cfi_endproc
 4372              	.LFE1230:
 4374              		.set	_ZN12_GLOBAL__N_148TestNotifiesReporterOfTestFailureWithCorrectInfoD1Ev,_ZN12_GLOBAL__N_148Te
 4375 19ff 90       		.align 2
 4377              	_ZN12_GLOBAL__N_148TestNotifiesReporterOfTestFailureWithCorrectInfoD0Ev:
 4378              	.LFB1232:
  69:TestTestResults.cpp **** {
 4379              		.loc 5 69 0
 4380              		.cfi_startproc
 4381              		.cfi_personality 0x9b,DW.ref.__gxx_personality_v0
 4382              		.cfi_lsda 0x1b,.LLSDA1232
 4383 1a00 55       		pushq	%rbp
 4384              		.cfi_def_cfa_offset 16
 4385              		.cfi_offset 6, -16
 4386 1a01 4889E5   		movq	%rsp, %rbp
 4387              		.cfi_def_cfa_register 6
 4388 1a04 53       		pushq	%rbx
 4389 1a05 4883EC18 		subq	$24, %rsp
 4390              		.cfi_offset 3, -24
 4391 1a09 48897DE8 		movq	%rdi, -24(%rbp)
  69:TestTestResults.cpp **** {
 4392              		.loc 5 69 0
 4393 1a0d 488B45E8 		movq	-24(%rbp), %rax
 4394 1a11 4889C7   		movq	%rax, %rdi
 4395              	.LEHB128:
 4396 1a14 E8BDFFFF 		call	_ZN12_GLOBAL__N_148TestNotifiesReporterOfTestFailureWithCorrectInfoD1Ev
 4396      FF
 4397              	.LEHE128:
  69:TestTestResults.cpp **** {
 4398              		.loc 5 69 0 is_stmt 0 discriminator 2
 4399 1a19 488B45E8 		movq	-24(%rbp), %rax
 4400 1a1d 4889C7   		movq	%rax, %rdi
 4401 1a20 E8000000 		call	_ZdlPv@PLT
 4401      00
 4402 1a25 EB1A     		jmp	.L243
 4403              	.L242:
 4404 1a27 4889C3   		movq	%rax, %rbx
  69:TestTestResults.cpp **** {
 4405              		.loc 5 69 0
 4406 1a2a 488B45E8 		movq	-24(%rbp), %rax
 4407 1a2e 4889C7   		movq	%rax, %rdi
 4408 1a31 E8000000 		call	_ZdlPv@PLT
 4408      00
 4409 1a36 4889D8   		movq	%rbx, %rax
 4410 1a39 4889C7   		movq	%rax, %rdi
 4411              	.LEHB129:
 4412 1a3c E8000000 		call	_Unwind_Resume@PLT
 4412      00
 4413              	.LEHE129:
 4414              	.L243:
 4415 1a41 4883C418 		addq	$24, %rsp
 4416 1a45 5B       		popq	%rbx
 4417 1a46 5D       		popq	%rbp
 4418              		.cfi_def_cfa 7, 8
 4419 1a47 C3       		ret
 4420              		.cfi_endproc
 4421              	.LFE1232:
 4422              		.section	.gcc_except_table
 4423              	.LLSDA1232:
 4424 033a FF       		.byte	0xff
 4425 033b FF       		.byte	0xff
 4426 033c 01       		.byte	0x1
 4427 033d 08       		.uleb128 .LLSDACSE1232-.LLSDACSB1232
 4428              	.LLSDACSB1232:
 4429 033e 14       		.uleb128 .LEHB128-.LFB1232
 4430 033f 05       		.uleb128 .LEHE128-.LEHB128
 4431 0340 27       		.uleb128 .L242-.LFB1232
 4432 0341 00       		.uleb128 0
 4433 0342 3C       		.uleb128 .LEHB129-.LFB1232
 4434 0343 05       		.uleb128 .LEHE129-.LEHB129
 4435 0344 00       		.uleb128 0
 4436 0345 00       		.uleb128 0
 4437              	.LLSDACSE1232:
 4438              		.text
 4440              		.section	.data.rel.ro.local
 4441              		.align 8
 4444              	_ZTVN12_GLOBAL__N_146TestNotifiesReporterOfTestStartWithCorrectInfoE:
 4445 0078 00000000 		.quad	0
 4445      00000000 
 4446 0080 00000000 		.quad	_ZTIN12_GLOBAL__N_146TestNotifiesReporterOfTestStartWithCorrectInfoE
 4446      00000000 
 4447 0088 00000000 		.quad	_ZN12_GLOBAL__N_146TestNotifiesReporterOfTestStartWithCorrectInfoD1Ev
 4447      00000000 
 4448 0090 00000000 		.quad	_ZN12_GLOBAL__N_146TestNotifiesReporterOfTestStartWithCorrectInfoD0Ev
 4448      00000000 
 4449 0098 00000000 		.quad	_ZNK12_GLOBAL__N_146TestNotifiesReporterOfTestStartWithCorrectInfo7RunImplEv
 4449      00000000 
 4450              		.text
 4451              		.align 2
 4453              	_ZN12_GLOBAL__N_146TestNotifiesReporterOfTestStartWithCorrectInfoD2Ev:
 4454              	.LFB1234:
  58:TestTestResults.cpp **** {
 4455              		.loc 5 58 0 is_stmt 1
 4456              		.cfi_startproc
 4457 1a48 55       		pushq	%rbp
 4458              		.cfi_def_cfa_offset 16
 4459              		.cfi_offset 6, -16
 4460 1a49 4889E5   		movq	%rsp, %rbp
 4461              		.cfi_def_cfa_register 6
 4462 1a4c 4883EC10 		subq	$16, %rsp
 4463 1a50 48897DF8 		movq	%rdi, -8(%rbp)
 4464              	.LBB28:
  58:TestTestResults.cpp **** {
 4465              		.loc 5 58 0
 4466 1a54 488D1500 		leaq	16+_ZTVN12_GLOBAL__N_146TestNotifiesReporterOfTestStartWithCorrectInfoE(%rip), %rdx
 4466      000000
 4467 1a5b 488B45F8 		movq	-8(%rbp), %rax
 4468 1a5f 488910   		movq	%rdx, (%rax)
 4469 1a62 488B45F8 		movq	-8(%rbp), %rax
 4470 1a66 4889C7   		movq	%rax, %rdi
 4471 1a69 E8000000 		call	_ZN8UnitTest4TestD2Ev@PLT
 4471      00
 4472              	.LBE28:
 4473 1a6e 90       		nop
 4474 1a6f C9       		leave
 4475              		.cfi_def_cfa 7, 8
 4476 1a70 C3       		ret
 4477              		.cfi_endproc
 4478              	.LFE1234:
 4480              		.set	_ZN12_GLOBAL__N_146TestNotifiesReporterOfTestStartWithCorrectInfoD1Ev,_ZN12_GLOBAL__N_146Test
 4481 1a71 90       		.align 2
 4483              	_ZN12_GLOBAL__N_146TestNotifiesReporterOfTestStartWithCorrectInfoD0Ev:
 4484              	.LFB1236:
  58:TestTestResults.cpp **** {
 4485              		.loc 5 58 0
 4486              		.cfi_startproc
 4487              		.cfi_personality 0x9b,DW.ref.__gxx_personality_v0
 4488              		.cfi_lsda 0x1b,.LLSDA1236
 4489 1a72 55       		pushq	%rbp
 4490              		.cfi_def_cfa_offset 16
 4491              		.cfi_offset 6, -16
 4492 1a73 4889E5   		movq	%rsp, %rbp
 4493              		.cfi_def_cfa_register 6
 4494 1a76 53       		pushq	%rbx
 4495 1a77 4883EC18 		subq	$24, %rsp
 4496              		.cfi_offset 3, -24
 4497 1a7b 48897DE8 		movq	%rdi, -24(%rbp)
  58:TestTestResults.cpp **** {
 4498              		.loc 5 58 0
 4499 1a7f 488B45E8 		movq	-24(%rbp), %rax
 4500 1a83 4889C7   		movq	%rax, %rdi
 4501              	.LEHB130:
 4502 1a86 E8BDFFFF 		call	_ZN12_GLOBAL__N_146TestNotifiesReporterOfTestStartWithCorrectInfoD1Ev
 4502      FF
 4503              	.LEHE130:
  58:TestTestResults.cpp **** {
 4504              		.loc 5 58 0 is_stmt 0 discriminator 2
 4505 1a8b 488B45E8 		movq	-24(%rbp), %rax
 4506 1a8f 4889C7   		movq	%rax, %rdi
 4507 1a92 E8000000 		call	_ZdlPv@PLT
 4507      00
 4508 1a97 EB1A     		jmp	.L248
 4509              	.L247:
 4510 1a99 4889C3   		movq	%rax, %rbx
  58:TestTestResults.cpp **** {
 4511              		.loc 5 58 0
 4512 1a9c 488B45E8 		movq	-24(%rbp), %rax
 4513 1aa0 4889C7   		movq	%rax, %rdi
 4514 1aa3 E8000000 		call	_ZdlPv@PLT
 4514      00
 4515 1aa8 4889D8   		movq	%rbx, %rax
 4516 1aab 4889C7   		movq	%rax, %rdi
 4517              	.LEHB131:
 4518 1aae E8000000 		call	_Unwind_Resume@PLT
 4518      00
 4519              	.LEHE131:
 4520              	.L248:
 4521 1ab3 4883C418 		addq	$24, %rsp
 4522 1ab7 5B       		popq	%rbx
 4523 1ab8 5D       		popq	%rbp
 4524              		.cfi_def_cfa 7, 8
 4525 1ab9 C3       		ret
 4526              		.cfi_endproc
 4527              	.LFE1236:
 4528              		.section	.gcc_except_table
 4529              	.LLSDA1236:
 4530 0346 FF       		.byte	0xff
 4531 0347 FF       		.byte	0xff
 4532 0348 01       		.byte	0x1
 4533 0349 08       		.uleb128 .LLSDACSE1236-.LLSDACSB1236
 4534              	.LLSDACSB1236:
 4535 034a 14       		.uleb128 .LEHB130-.LFB1236
 4536 034b 05       		.uleb128 .LEHE130-.LEHB130
 4537 034c 27       		.uleb128 .L247-.LFB1236
 4538 034d 00       		.uleb128 0
 4539 034e 3C       		.uleb128 .LEHB131-.LFB1236
 4540 034f 05       		.uleb128 .LEHE131-.LEHB131
 4541 0350 00       		.uleb128 0
 4542 0351 00       		.uleb128 0
 4543              	.LLSDACSE1236:
 4544              		.text
 4546              		.section	.data.rel.ro.local
 4547              		.align 8
 4550              	_ZTVN12_GLOBAL__N_130TestRecordsNumberOfFailedTestsE:
 4551 00a0 00000000 		.quad	0
 4551      00000000 
 4552 00a8 00000000 		.quad	_ZTIN12_GLOBAL__N_130TestRecordsNumberOfFailedTestsE
 4552      00000000 
 4553 00b0 00000000 		.quad	_ZN12_GLOBAL__N_130TestRecordsNumberOfFailedTestsD1Ev
 4553      00000000 
 4554 00b8 00000000 		.quad	_ZN12_GLOBAL__N_130TestRecordsNumberOfFailedTestsD0Ev
 4554      00000000 
 4555 00c0 00000000 		.quad	_ZNK12_GLOBAL__N_130TestRecordsNumberOfFailedTests7RunImplEv
 4555      00000000 
 4556              		.text
 4557              		.align 2
 4559              	_ZN12_GLOBAL__N_130TestRecordsNumberOfFailedTestsD2Ev:
 4560              	.LFB1238:
  41:TestTestResults.cpp **** {
 4561              		.loc 5 41 0 is_stmt 1
 4562              		.cfi_startproc
 4563 1aba 55       		pushq	%rbp
 4564              		.cfi_def_cfa_offset 16
 4565              		.cfi_offset 6, -16
 4566 1abb 4889E5   		movq	%rsp, %rbp
 4567              		.cfi_def_cfa_register 6
 4568 1abe 4883EC10 		subq	$16, %rsp
 4569 1ac2 48897DF8 		movq	%rdi, -8(%rbp)
 4570              	.LBB29:
  41:TestTestResults.cpp **** {
 4571              		.loc 5 41 0
 4572 1ac6 488D1500 		leaq	16+_ZTVN12_GLOBAL__N_130TestRecordsNumberOfFailedTestsE(%rip), %rdx
 4572      000000
 4573 1acd 488B45F8 		movq	-8(%rbp), %rax
 4574 1ad1 488910   		movq	%rdx, (%rax)
 4575 1ad4 488B45F8 		movq	-8(%rbp), %rax
 4576 1ad8 4889C7   		movq	%rax, %rdi
 4577 1adb E8000000 		call	_ZN8UnitTest4TestD2Ev@PLT
 4577      00
 4578              	.LBE29:
 4579 1ae0 90       		nop
 4580 1ae1 C9       		leave
 4581              		.cfi_def_cfa 7, 8
 4582 1ae2 C3       		ret
 4583              		.cfi_endproc
 4584              	.LFE1238:
 4586              		.set	_ZN12_GLOBAL__N_130TestRecordsNumberOfFailedTestsD1Ev,_ZN12_GLOBAL__N_130TestRecordsNumberOfF
 4587 1ae3 90       		.align 2
 4589              	_ZN12_GLOBAL__N_130TestRecordsNumberOfFailedTestsD0Ev:
 4590              	.LFB1240:
  41:TestTestResults.cpp **** {
 4591              		.loc 5 41 0
 4592              		.cfi_startproc
 4593              		.cfi_personality 0x9b,DW.ref.__gxx_personality_v0
 4594              		.cfi_lsda 0x1b,.LLSDA1240
 4595 1ae4 55       		pushq	%rbp
 4596              		.cfi_def_cfa_offset 16
 4597              		.cfi_offset 6, -16
 4598 1ae5 4889E5   		movq	%rsp, %rbp
 4599              		.cfi_def_cfa_register 6
 4600 1ae8 53       		pushq	%rbx
 4601 1ae9 4883EC18 		subq	$24, %rsp
 4602              		.cfi_offset 3, -24
 4603 1aed 48897DE8 		movq	%rdi, -24(%rbp)
  41:TestTestResults.cpp **** {
 4604              		.loc 5 41 0
 4605 1af1 488B45E8 		movq	-24(%rbp), %rax
 4606 1af5 4889C7   		movq	%rax, %rdi
 4607              	.LEHB132:
 4608 1af8 E8BDFFFF 		call	_ZN12_GLOBAL__N_130TestRecordsNumberOfFailedTestsD1Ev
 4608      FF
 4609              	.LEHE132:
  41:TestTestResults.cpp **** {
 4610              		.loc 5 41 0 is_stmt 0 discriminator 2
 4611 1afd 488B45E8 		movq	-24(%rbp), %rax
 4612 1b01 4889C7   		movq	%rax, %rdi
 4613 1b04 E8000000 		call	_ZdlPv@PLT
 4613      00
 4614 1b09 EB1A     		jmp	.L253
 4615              	.L252:
 4616 1b0b 4889C3   		movq	%rax, %rbx
  41:TestTestResults.cpp **** {
 4617              		.loc 5 41 0
 4618 1b0e 488B45E8 		movq	-24(%rbp), %rax
 4619 1b12 4889C7   		movq	%rax, %rdi
 4620 1b15 E8000000 		call	_ZdlPv@PLT
 4620      00
 4621 1b1a 4889D8   		movq	%rbx, %rax
 4622 1b1d 4889C7   		movq	%rax, %rdi
 4623              	.LEHB133:
 4624 1b20 E8000000 		call	_Unwind_Resume@PLT
 4624      00
 4625              	.LEHE133:
 4626              	.L253:
 4627 1b25 4883C418 		addq	$24, %rsp
 4628 1b29 5B       		popq	%rbx
 4629 1b2a 5D       		popq	%rbp
 4630              		.cfi_def_cfa 7, 8
 4631 1b2b C3       		ret
 4632              		.cfi_endproc
 4633              	.LFE1240:
 4634              		.section	.gcc_except_table
 4635              	.LLSDA1240:
 4636 0352 FF       		.byte	0xff
 4637 0353 FF       		.byte	0xff
 4638 0354 01       		.byte	0x1
 4639 0355 08       		.uleb128 .LLSDACSE1240-.LLSDACSB1240
 4640              	.LLSDACSB1240:
 4641 0356 14       		.uleb128 .LEHB132-.LFB1240
 4642 0357 05       		.uleb128 .LEHE132-.LEHB132
 4643 0358 27       		.uleb128 .L252-.LFB1240
 4644 0359 00       		.uleb128 0
 4645 035a 3C       		.uleb128 .LEHB133-.LFB1240
 4646 035b 05       		.uleb128 .LEHE133-.LEHB133
 4647 035c 00       		.uleb128 0
 4648 035d 00       		.uleb128 0
 4649              	.LLSDACSE1240:
 4650              		.text
 4652              		.section	.data.rel.ro.local
 4653              		.align 8
 4656              	_ZTVN12_GLOBAL__N_127TestRecordsNumberOfFailuresE:
 4657 00c8 00000000 		.quad	0
 4657      00000000 
 4658 00d0 00000000 		.quad	_ZTIN12_GLOBAL__N_127TestRecordsNumberOfFailuresE
 4658      00000000 
 4659 00d8 00000000 		.quad	_ZN12_GLOBAL__N_127TestRecordsNumberOfFailuresD1Ev
 4659      00000000 
 4660 00e0 00000000 		.quad	_ZN12_GLOBAL__N_127TestRecordsNumberOfFailuresD0Ev
 4660      00000000 
 4661 00e8 00000000 		.quad	_ZNK12_GLOBAL__N_127TestRecordsNumberOfFailures7RunImplEv
 4661      00000000 
 4662              		.text
 4663              		.align 2
 4665              	_ZN12_GLOBAL__N_127TestRecordsNumberOfFailuresD2Ev:
 4666              	.LFB1242:
  33:TestTestResults.cpp **** {
 4667              		.loc 5 33 0 is_stmt 1
 4668              		.cfi_startproc
 4669 1b2c 55       		pushq	%rbp
 4670              		.cfi_def_cfa_offset 16
 4671              		.cfi_offset 6, -16
 4672 1b2d 4889E5   		movq	%rsp, %rbp
 4673              		.cfi_def_cfa_register 6
 4674 1b30 4883EC10 		subq	$16, %rsp
 4675 1b34 48897DF8 		movq	%rdi, -8(%rbp)
 4676              	.LBB30:
  33:TestTestResults.cpp **** {
 4677              		.loc 5 33 0
 4678 1b38 488D1500 		leaq	16+_ZTVN12_GLOBAL__N_127TestRecordsNumberOfFailuresE(%rip), %rdx
 4678      000000
 4679 1b3f 488B45F8 		movq	-8(%rbp), %rax
 4680 1b43 488910   		movq	%rdx, (%rax)
 4681 1b46 488B45F8 		movq	-8(%rbp), %rax
 4682 1b4a 4889C7   		movq	%rax, %rdi
 4683 1b4d E8000000 		call	_ZN8UnitTest4TestD2Ev@PLT
 4683      00
 4684              	.LBE30:
 4685 1b52 90       		nop
 4686 1b53 C9       		leave
 4687              		.cfi_def_cfa 7, 8
 4688 1b54 C3       		ret
 4689              		.cfi_endproc
 4690              	.LFE1242:
 4692              		.set	_ZN12_GLOBAL__N_127TestRecordsNumberOfFailuresD1Ev,_ZN12_GLOBAL__N_127TestRecordsNumberOfFail
 4693 1b55 90       		.align 2
 4695              	_ZN12_GLOBAL__N_127TestRecordsNumberOfFailuresD0Ev:
 4696              	.LFB1244:
  33:TestTestResults.cpp **** {
 4697              		.loc 5 33 0
 4698              		.cfi_startproc
 4699              		.cfi_personality 0x9b,DW.ref.__gxx_personality_v0
 4700              		.cfi_lsda 0x1b,.LLSDA1244
 4701 1b56 55       		pushq	%rbp
 4702              		.cfi_def_cfa_offset 16
 4703              		.cfi_offset 6, -16
 4704 1b57 4889E5   		movq	%rsp, %rbp
 4705              		.cfi_def_cfa_register 6
 4706 1b5a 53       		pushq	%rbx
 4707 1b5b 4883EC18 		subq	$24, %rsp
 4708              		.cfi_offset 3, -24
 4709 1b5f 48897DE8 		movq	%rdi, -24(%rbp)
  33:TestTestResults.cpp **** {
 4710              		.loc 5 33 0
 4711 1b63 488B45E8 		movq	-24(%rbp), %rax
 4712 1b67 4889C7   		movq	%rax, %rdi
 4713              	.LEHB134:
 4714 1b6a E8BDFFFF 		call	_ZN12_GLOBAL__N_127TestRecordsNumberOfFailuresD1Ev
 4714      FF
 4715              	.LEHE134:
  33:TestTestResults.cpp **** {
 4716              		.loc 5 33 0 is_stmt 0 discriminator 2
 4717 1b6f 488B45E8 		movq	-24(%rbp), %rax
 4718 1b73 4889C7   		movq	%rax, %rdi
 4719 1b76 E8000000 		call	_ZdlPv@PLT
 4719      00
 4720 1b7b EB1A     		jmp	.L258
 4721              	.L257:
 4722 1b7d 4889C3   		movq	%rax, %rbx
  33:TestTestResults.cpp **** {
 4723              		.loc 5 33 0
 4724 1b80 488B45E8 		movq	-24(%rbp), %rax
 4725 1b84 4889C7   		movq	%rax, %rdi
 4726 1b87 E8000000 		call	_ZdlPv@PLT
 4726      00
 4727 1b8c 4889D8   		movq	%rbx, %rax
 4728 1b8f 4889C7   		movq	%rax, %rdi
 4729              	.LEHB135:
 4730 1b92 E8000000 		call	_Unwind_Resume@PLT
 4730      00
 4731              	.LEHE135:
 4732              	.L258:
 4733 1b97 4883C418 		addq	$24, %rsp
 4734 1b9b 5B       		popq	%rbx
 4735 1b9c 5D       		popq	%rbp
 4736              		.cfi_def_cfa 7, 8
 4737 1b9d C3       		ret
 4738              		.cfi_endproc
 4739              	.LFE1244:
 4740              		.section	.gcc_except_table
 4741              	.LLSDA1244:
 4742 035e FF       		.byte	0xff
 4743 035f FF       		.byte	0xff
 4744 0360 01       		.byte	0x1
 4745 0361 08       		.uleb128 .LLSDACSE1244-.LLSDACSB1244
 4746              	.LLSDACSB1244:
 4747 0362 14       		.uleb128 .LEHB134-.LFB1244
 4748 0363 05       		.uleb128 .LEHE134-.LEHB134
 4749 0364 27       		.uleb128 .L257-.LFB1244
 4750 0365 00       		.uleb128 0
 4751 0366 3C       		.uleb128 .LEHB135-.LFB1244
 4752 0367 05       		.uleb128 .LEHE135-.LEHB135
 4753 0368 00       		.uleb128 0
 4754 0369 00       		.uleb128 0
 4755              	.LLSDACSE1244:
 4756              		.text
 4758              		.section	.data.rel.ro.local
 4759              		.align 8
 4762              	_ZTVN12_GLOBAL__N_128TestStartsWithNoTestsFailingE:
 4763 00f0 00000000 		.quad	0
 4763      00000000 
 4764 00f8 00000000 		.quad	_ZTIN12_GLOBAL__N_128TestStartsWithNoTestsFailingE
 4764      00000000 
 4765 0100 00000000 		.quad	_ZN12_GLOBAL__N_128TestStartsWithNoTestsFailingD1Ev
 4765      00000000 
 4766 0108 00000000 		.quad	_ZN12_GLOBAL__N_128TestStartsWithNoTestsFailingD0Ev
 4766      00000000 
 4767 0110 00000000 		.quad	_ZNK12_GLOBAL__N_128TestStartsWithNoTestsFailing7RunImplEv
 4767      00000000 
 4768              		.text
 4769              		.align 2
 4771              	_ZN12_GLOBAL__N_128TestStartsWithNoTestsFailingD2Ev:
 4772              	.LFB1246:
  27:TestTestResults.cpp **** {
 4773              		.loc 5 27 0 is_stmt 1
 4774              		.cfi_startproc
 4775 1b9e 55       		pushq	%rbp
 4776              		.cfi_def_cfa_offset 16
 4777              		.cfi_offset 6, -16
 4778 1b9f 4889E5   		movq	%rsp, %rbp
 4779              		.cfi_def_cfa_register 6
 4780 1ba2 4883EC10 		subq	$16, %rsp
 4781 1ba6 48897DF8 		movq	%rdi, -8(%rbp)
 4782              	.LBB31:
  27:TestTestResults.cpp **** {
 4783              		.loc 5 27 0
 4784 1baa 488D1500 		leaq	16+_ZTVN12_GLOBAL__N_128TestStartsWithNoTestsFailingE(%rip), %rdx
 4784      000000
 4785 1bb1 488B45F8 		movq	-8(%rbp), %rax
 4786 1bb5 488910   		movq	%rdx, (%rax)
 4787 1bb8 488B45F8 		movq	-8(%rbp), %rax
 4788 1bbc 4889C7   		movq	%rax, %rdi
 4789 1bbf E8000000 		call	_ZN8UnitTest4TestD2Ev@PLT
 4789      00
 4790              	.LBE31:
 4791 1bc4 90       		nop
 4792 1bc5 C9       		leave
 4793              		.cfi_def_cfa 7, 8
 4794 1bc6 C3       		ret
 4795              		.cfi_endproc
 4796              	.LFE1246:
 4798              		.set	_ZN12_GLOBAL__N_128TestStartsWithNoTestsFailingD1Ev,_ZN12_GLOBAL__N_128TestStartsWithNoTestsF
 4799 1bc7 90       		.align 2
 4801              	_ZN12_GLOBAL__N_128TestStartsWithNoTestsFailingD0Ev:
 4802              	.LFB1248:
  27:TestTestResults.cpp **** {
 4803              		.loc 5 27 0
 4804              		.cfi_startproc
 4805              		.cfi_personality 0x9b,DW.ref.__gxx_personality_v0
 4806              		.cfi_lsda 0x1b,.LLSDA1248
 4807 1bc8 55       		pushq	%rbp
 4808              		.cfi_def_cfa_offset 16
 4809              		.cfi_offset 6, -16
 4810 1bc9 4889E5   		movq	%rsp, %rbp
 4811              		.cfi_def_cfa_register 6
 4812 1bcc 53       		pushq	%rbx
 4813 1bcd 4883EC18 		subq	$24, %rsp
 4814              		.cfi_offset 3, -24
 4815 1bd1 48897DE8 		movq	%rdi, -24(%rbp)
  27:TestTestResults.cpp **** {
 4816              		.loc 5 27 0
 4817 1bd5 488B45E8 		movq	-24(%rbp), %rax
 4818 1bd9 4889C7   		movq	%rax, %rdi
 4819              	.LEHB136:
 4820 1bdc E8BDFFFF 		call	_ZN12_GLOBAL__N_128TestStartsWithNoTestsFailingD1Ev
 4820      FF
 4821              	.LEHE136:
  27:TestTestResults.cpp **** {
 4822              		.loc 5 27 0 is_stmt 0 discriminator 2
 4823 1be1 488B45E8 		movq	-24(%rbp), %rax
 4824 1be5 4889C7   		movq	%rax, %rdi
 4825 1be8 E8000000 		call	_ZdlPv@PLT
 4825      00
 4826 1bed EB1A     		jmp	.L263
 4827              	.L262:
 4828 1bef 4889C3   		movq	%rax, %rbx
  27:TestTestResults.cpp **** {
 4829              		.loc 5 27 0
 4830 1bf2 488B45E8 		movq	-24(%rbp), %rax
 4831 1bf6 4889C7   		movq	%rax, %rdi
 4832 1bf9 E8000000 		call	_ZdlPv@PLT
 4832      00
 4833 1bfe 4889D8   		movq	%rbx, %rax
 4834 1c01 4889C7   		movq	%rax, %rdi
 4835              	.LEHB137:
 4836 1c04 E8000000 		call	_Unwind_Resume@PLT
 4836      00
 4837              	.LEHE137:
 4838              	.L263:
 4839 1c09 4883C418 		addq	$24, %rsp
 4840 1c0d 5B       		popq	%rbx
 4841 1c0e 5D       		popq	%rbp
 4842              		.cfi_def_cfa 7, 8
 4843 1c0f C3       		ret
 4844              		.cfi_endproc
 4845              	.LFE1248:
 4846              		.section	.gcc_except_table
 4847              	.LLSDA1248:
 4848 036a FF       		.byte	0xff
 4849 036b FF       		.byte	0xff
 4850 036c 01       		.byte	0x1
 4851 036d 08       		.uleb128 .LLSDACSE1248-.LLSDACSB1248
 4852              	.LLSDACSB1248:
 4853 036e 14       		.uleb128 .LEHB136-.LFB1248
 4854 036f 05       		.uleb128 .LEHE136-.LEHB136
 4855 0370 27       		.uleb128 .L262-.LFB1248
 4856 0371 00       		.uleb128 0
 4857 0372 3C       		.uleb128 .LEHB137-.LFB1248
 4858 0373 05       		.uleb128 .LEHE137-.LEHB137
 4859 0374 00       		.uleb128 0
 4860 0375 00       		.uleb128 0
 4861              	.LLSDACSE1248:
 4862              		.text
 4864              		.section	.data.rel.ro.local
 4865              		.align 8
 4868              	_ZTVN12_GLOBAL__N_125TestRecordsNumbersOfTestsE:
 4869 0118 00000000 		.quad	0
 4869      00000000 
 4870 0120 00000000 		.quad	_ZTIN12_GLOBAL__N_125TestRecordsNumbersOfTestsE
 4870      00000000 
 4871 0128 00000000 		.quad	_ZN12_GLOBAL__N_125TestRecordsNumbersOfTestsD1Ev
 4871      00000000 
 4872 0130 00000000 		.quad	_ZN12_GLOBAL__N_125TestRecordsNumbersOfTestsD0Ev
 4872      00000000 
 4873 0138 00000000 		.quad	_ZNK12_GLOBAL__N_125TestRecordsNumbersOfTests7RunImplEv
 4873      00000000 
 4874              		.text
 4875              		.align 2
 4877              	_ZN12_GLOBAL__N_125TestRecordsNumbersOfTestsD2Ev:
 4878              	.LFB1250:
  18:TestTestResults.cpp **** {
 4879              		.loc 5 18 0 is_stmt 1
 4880              		.cfi_startproc
 4881 1c10 55       		pushq	%rbp
 4882              		.cfi_def_cfa_offset 16
 4883              		.cfi_offset 6, -16
 4884 1c11 4889E5   		movq	%rsp, %rbp
 4885              		.cfi_def_cfa_register 6
 4886 1c14 4883EC10 		subq	$16, %rsp
 4887 1c18 48897DF8 		movq	%rdi, -8(%rbp)
 4888              	.LBB32:
  18:TestTestResults.cpp **** {
 4889              		.loc 5 18 0
 4890 1c1c 488D1500 		leaq	16+_ZTVN12_GLOBAL__N_125TestRecordsNumbersOfTestsE(%rip), %rdx
 4890      000000
 4891 1c23 488B45F8 		movq	-8(%rbp), %rax
 4892 1c27 488910   		movq	%rdx, (%rax)
 4893 1c2a 488B45F8 		movq	-8(%rbp), %rax
 4894 1c2e 4889C7   		movq	%rax, %rdi
 4895 1c31 E8000000 		call	_ZN8UnitTest4TestD2Ev@PLT
 4895      00
 4896              	.LBE32:
 4897 1c36 90       		nop
 4898 1c37 C9       		leave
 4899              		.cfi_def_cfa 7, 8
 4900 1c38 C3       		ret
 4901              		.cfi_endproc
 4902              	.LFE1250:
