   1              		.file	"TestMemoryOutStream.cpp"
   2              		.text
   3              	.Ltext0:
   4              		.section	.rodata
   5              	.LC0:
   6 0000 44656661 		.string	"DefaultSuite"
   6      756C7453 
   6      75697465 
   6      00
   7              		.section	.text._ZN13UnitTestSuite12GetSuiteNameEv,"axG",@progbits,_ZN13UnitTestSuite12GetSuiteName
   8              		.weak	_ZN13UnitTestSuite12GetSuiteNameEv
  10              	_ZN13UnitTestSuite12GetSuiteNameEv:
  11              	.LFB0:
  12              		.file 1 "../TestSuite.h"
   1:../TestSuite.h **** #ifndef UNITTEST_TESTSUITE_H
   2:../TestSuite.h **** #define UNITTEST_TESTSUITE_H
   3:../TestSuite.h **** 
   4:../TestSuite.h **** namespace UnitTestSuite {
   5:../TestSuite.h **** 
   6:../TestSuite.h ****     inline char const* GetSuiteName ()
   7:../TestSuite.h ****     {
  13              		.loc 1 7 0
  14              		.cfi_startproc
  15 0000 55       		pushq	%rbp
  16              		.cfi_def_cfa_offset 16
  17              		.cfi_offset 6, -16
  18 0001 4889E5   		movq	%rsp, %rbp
  19              		.cfi_def_cfa_register 6
   8:../TestSuite.h ****         return "DefaultSuite";
  20              		.loc 1 8 0
  21 0004 488D0500 		leaq	.LC0(%rip), %rax
  21      000000
   9:../TestSuite.h ****     }
  22              		.loc 1 9 0
  23 000b 5D       		popq	%rbp
  24              		.cfi_def_cfa 7, 8
  25 000c C3       		ret
  26              		.cfi_endproc
  27              	.LFE0:
  29              		.section	.text._ZN8UnitTest15MemoryOutStreamC1Ev,"axG",@progbits,_ZN8UnitTest15MemoryOutStreamC1Ev
  30              		.align 2
  31              		.weak	_ZN8UnitTest15MemoryOutStreamC1Ev
  33              	_ZN8UnitTest15MemoryOutStreamC1Ev:
  34              	.LFB1076:
  35              		.file 2 "../MemoryOutStream.h"
   1:../MemoryOutStream.h **** #ifndef UNITTEST_MEMORYOUTSTREAM_H
   2:../MemoryOutStream.h **** #define UNITTEST_MEMORYOUTSTREAM_H
   3:../MemoryOutStream.h **** 
   4:../MemoryOutStream.h **** #include "Config.h"
   5:../MemoryOutStream.h **** 
   6:../MemoryOutStream.h **** #ifndef UNITTEST_USE_CUSTOM_STREAMS
   7:../MemoryOutStream.h **** 
   8:../MemoryOutStream.h **** #include <sstream>
   9:../MemoryOutStream.h **** 
  10:../MemoryOutStream.h **** namespace UnitTest
  11:../MemoryOutStream.h **** {
  12:../MemoryOutStream.h **** 
  13:../MemoryOutStream.h **** class MemoryOutStream : public std::ostringstream
  14:../MemoryOutStream.h **** {
  15:../MemoryOutStream.h **** public:
  16:../MemoryOutStream.h ****     MemoryOutStream() {}
  36              		.loc 2 16 0
  37              		.cfi_startproc
  38              		.cfi_personality 0x9b,DW.ref.__gxx_personality_v0
  39              		.cfi_lsda 0x1b,.LLSDA1076
  40 0000 55       		pushq	%rbp
  41              		.cfi_def_cfa_offset 16
  42              		.cfi_offset 6, -16
  43 0001 4889E5   		movq	%rsp, %rbp
  44              		.cfi_def_cfa_register 6
  45 0004 53       		pushq	%rbx
  46 0005 4883EC18 		subq	$24, %rsp
  47              		.cfi_offset 3, -24
  48 0009 48897DE8 		movq	%rdi, -24(%rbp)
  49              	.LBB2:
  50              		.loc 2 16 0
  51 000d 488B45E8 		movq	-24(%rbp), %rax
  52 0011 48059000 		addq	$144, %rax
  52      0000
  53 0017 4889C7   		movq	%rax, %rdi
  54              	.LEHB0:
  55 001a E8000000 		call	_ZNSt9basic_iosIcSt11char_traitsIcEEC2Ev@PLT
  55      00
  56              	.LEHE0:
  57 001f 488B45E8 		movq	-24(%rbp), %rax
  58 0023 488D0D00 		leaq	8+_ZTTN8UnitTest15MemoryOutStreamE(%rip), %rcx
  58      000000
  59 002a BA100000 		movl	$16, %edx
  59      00
  60 002f 4889CE   		movq	%rcx, %rsi
  61 0032 4889C7   		movq	%rax, %rdi
  62              	.LEHB1:
  63 0035 E8000000 		call	_ZNSt7__cxx1119basic_ostringstreamIcSt11char_traitsIcESaIcEEC2ESt13_Ios_Openmode@PLT
  63      00
  64              	.LEHE1:
  65              		.loc 2 16 0 is_stmt 0 discriminator 8
  66 003a 488D1500 		leaq	24+_ZTVN8UnitTest15MemoryOutStreamE(%rip), %rdx
  66      000000
  67 0041 488B45E8 		movq	-24(%rbp), %rax
  68 0045 488910   		movq	%rdx, (%rax)
  69 0048 488B45E8 		movq	-24(%rbp), %rax
  70 004c 488D9090 		leaq	144(%rax), %rdx
  70      000000
  71 0053 488D0500 		leaq	64+_ZTVN8UnitTest15MemoryOutStreamE(%rip), %rax
  71      000000
  72 005a 488902   		movq	%rax, (%rdx)
  73 005d 488B45E8 		movq	-24(%rbp), %rax
  74 0061 4883C070 		addq	$112, %rax
  75 0065 4889C7   		movq	%rax, %rdi
  76              	.LEHB2:
  77 0068 E8000000 		call	_ZNSt7__cxx1112basic_stringIcSt11char_traitsIcESaIcEEC1Ev@PLT
  77      00
  78              	.LEHE2:
  79              	.LBE2:
  80              		.loc 2 16 0
  81 006d EB3B     		jmp	.L9
  82              	.L7:
  83 006f 4889C3   		movq	%rax, %rbx
  84              	.LBB3:
  85 0072 488B45E8 		movq	-24(%rbp), %rax
  86 0076 488D1500 		leaq	8+_ZTTN8UnitTest15MemoryOutStreamE(%rip), %rdx
  86      000000
  87 007d 4889D6   		movq	%rdx, %rsi
  88 0080 4889C7   		movq	%rax, %rdi
  89 0083 E8000000 		call	_ZNSt7__cxx1119basic_ostringstreamIcSt11char_traitsIcESaIcEED2Ev@PLT
  89      00
  90 0088 EB03     		jmp	.L8
  91              	.L6:
  92 008a 4889C3   		movq	%rax, %rbx
  93              	.L8:
  94              		.loc 2 16 0 discriminator 11
  95 008d 488B45E8 		movq	-24(%rbp), %rax
  96 0091 48059000 		addq	$144, %rax
  96      0000
  97 0097 4889C7   		movq	%rax, %rdi
  98 009a E8000000 		call	_ZNSt9basic_iosIcSt11char_traitsIcEED2Ev@PLT
  98      00
  99 009f 4889D8   		movq	%rbx, %rax
 100 00a2 4889C7   		movq	%rax, %rdi
 101              	.LEHB3:
 102 00a5 E8000000 		call	_Unwind_Resume@PLT
 102      00
 103              	.LEHE3:
 104              	.L9:
 105              	.LBE3:
 106              		.loc 2 16 0
 107 00aa 4883C418 		addq	$24, %rsp
 108 00ae 5B       		popq	%rbx
 109 00af 5D       		popq	%rbp
 110              		.cfi_def_cfa 7, 8
 111 00b0 C3       		ret
 112              		.cfi_endproc
 113              	.LFE1076:
 114              		.globl	__gxx_personality_v0
 115              		.section	.gcc_except_table._ZN8UnitTest15MemoryOutStreamC1Ev,"aG",@progbits,_ZN8UnitTest15MemoryOu
 116              	.LLSDA1076:
 117 0000 FF       		.byte	0xff
 118 0001 FF       		.byte	0xff
 119 0002 01       		.byte	0x1
 120 0003 12       		.uleb128 .LLSDACSE1076-.LLSDACSB1076
 121              	.LLSDACSB1076:
 122 0004 1A       		.uleb128 .LEHB0-.LFB1076
 123 0005 05       		.uleb128 .LEHE0-.LEHB0
 124 0006 00       		.uleb128 0
 125 0007 00       		.uleb128 0
 126 0008 35       		.uleb128 .LEHB1-.LFB1076
 127 0009 05       		.uleb128 .LEHE1-.LEHB1
 128 000a 8A01     		.uleb128 .L6-.LFB1076
 129 000c 00       		.uleb128 0
 130 000d 68       		.uleb128 .LEHB2-.LFB1076
 131 000e 05       		.uleb128 .LEHE2-.LEHB2
 132 000f 6F       		.uleb128 .L7-.LFB1076
 133 0010 00       		.uleb128 0
 134 0011 A501     		.uleb128 .LEHB3-.LFB1076
 135 0013 05       		.uleb128 .LEHE3-.LEHB3
 136 0014 00       		.uleb128 0
 137 0015 00       		.uleb128 0
 138              	.LLSDACSE1076:
 139              		.section	.text._ZN8UnitTest15MemoryOutStreamC1Ev,"axG",@progbits,_ZN8UnitTest15MemoryOutStreamC1Ev
 141              		.section	.rodata
 142              	.LC1:
 143 000d 54657374 		.string	"TestMemoryOutStream.cpp"
 143      4D656D6F 
 143      72794F75 
 143      74537472 
 143      65616D2E 
 144              	.LC2:
 145 0025 44656661 		.string	"DefaultIsEmptyString"
 145      756C7449 
 145      73456D70 
 145      74795374 
 145      72696E67 
 146              		.text
 147              		.align 2
 149              	_ZN12_GLOBAL__N_124TestDefaultIsEmptyStringC2Ev:
 150              	.LFB1089:
 151              		.file 3 "TestMemoryOutStream.cpp"
   1:TestMemoryOutStream.cpp **** #include "../UnitTest++.h"
   2:TestMemoryOutStream.cpp **** 
   3:TestMemoryOutStream.cpp **** #include "../MemoryOutStream.h"
   4:TestMemoryOutStream.cpp **** #include <cstring>
   5:TestMemoryOutStream.cpp **** 
   6:TestMemoryOutStream.cpp **** using namespace UnitTest;
   7:TestMemoryOutStream.cpp **** using namespace std;
   8:TestMemoryOutStream.cpp **** 
   9:TestMemoryOutStream.cpp **** namespace {
  10:TestMemoryOutStream.cpp **** 
  11:TestMemoryOutStream.cpp **** TEST(DefaultIsEmptyString)
 152              		.loc 3 11 0 is_stmt 1
 153              		.cfi_startproc
 154 0000 55       		pushq	%rbp
 155              		.cfi_def_cfa_offset 16
 156              		.cfi_offset 6, -16
 157 0001 4889E5   		movq	%rsp, %rbp
 158              		.cfi_def_cfa_register 6
 159 0004 53       		pushq	%rbx
 160 0005 4883EC18 		subq	$24, %rsp
 161              		.cfi_offset 3, -24
 162 0009 48897DE8 		movq	%rdi, -24(%rbp)
 163              	.LBB4:
 164              		.loc 3 11 0
 165 000d 488B5DE8 		movq	-24(%rbp), %rbx
 166 0011 E8000000 		call	_ZN13UnitTestSuite12GetSuiteNameEv
 166      00
 167 0016 41B80B00 		movl	$11, %r8d
 167      0000
 168 001c 488D0D00 		leaq	.LC1(%rip), %rcx
 168      000000
 169 0023 4889C2   		movq	%rax, %rdx
 170 0026 488D3500 		leaq	.LC2(%rip), %rsi
 170      000000
 171 002d 4889DF   		movq	%rbx, %rdi
 172 0030 E8000000 		call	_ZN8UnitTest4TestC2EPKcS2_S2_i@PLT
 172      00
 173 0035 488D1500 		leaq	16+_ZTVN12_GLOBAL__N_124TestDefaultIsEmptyStringE(%rip), %rdx
 173      000000
 174 003c 488B45E8 		movq	-24(%rbp), %rax
 175 0040 488910   		movq	%rdx, (%rax)
 176              	.LBE4:
 177 0043 90       		nop
 178 0044 4883C418 		addq	$24, %rsp
 179 0048 5B       		popq	%rbx
 180 0049 5D       		popq	%rbp
 181              		.cfi_def_cfa 7, 8
 182 004a C3       		ret
 183              		.cfi_endproc
 184              	.LFE1089:
 186              		.set	_ZN12_GLOBAL__N_124TestDefaultIsEmptyStringC1Ev,_ZN12_GLOBAL__N_124TestDefaultIsEmptyStringC2
 187              		.local	_ZN12_GLOBAL__N_132testDefaultIsEmptyStringInstanceE
 188              		.comm	_ZN12_GLOBAL__N_132testDefaultIsEmptyStringInstanceE,56,32
 189              		.local	_ZN12_GLOBAL__N_125adderDefaultIsEmptyStringE
 190              		.comm	_ZN12_GLOBAL__N_125adderDefaultIsEmptyStringE,1,1
 191              		.section	.rodata
 192              	.LC3:
 193 003a 73747265 		.string	"stream.GetText() != 0"
 193      616D2E47 
 193      65745465 
 193      78742829 
 193      20213D20 
 194              	.LC4:
 195 0050 00       		.string	""
 196 0051 00000000 		.align 8
 196      000000
 197              	.LC5:
 198 0058 556E6861 		.string	"Unhandled exception in CHECK(stream.GetText() != 0)"
 198      6E646C65 
 198      64206578 
 198      63657074 
 198      696F6E20 
 199 008c 00000000 		.align 8
 200              	.LC6:
 201 0090 556E6861 		.string	"Unhandled exception in CHECK_EQUAL(\"\", stream.GetText())"
 201      6E646C65 
 201      64206578 
 201      63657074 
 201      696F6E20 
 202              		.text
 203 004b 90       		.align 2
 205              	_ZNK12_GLOBAL__N_124TestDefaultIsEmptyString7RunImplEv:
 206              	.LFB1091:
  12:TestMemoryOutStream.cpp **** {
 207              		.loc 3 12 0
 208              		.cfi_startproc
 209              		.cfi_personality 0x9b,DW.ref.__gxx_personality_v0
 210              		.cfi_lsda 0x1b,.LLSDA1091
 211 004c 55       		pushq	%rbp
 212              		.cfi_def_cfa_offset 16
 213              		.cfi_offset 6, -16
 214 004d 4889E5   		movq	%rsp, %rbp
 215              		.cfi_def_cfa_register 6
 216 0050 53       		pushq	%rbx
 217 0051 4881ECD8 		subq	$472, %rsp
 217      010000
 218              		.cfi_offset 3, -24
 219 0058 4889BD28 		movq	%rdi, -472(%rbp)
 219      FEFFFF
 220              		.loc 3 12 0
 221 005f 64488B04 		movq	%fs:40, %rax
 221      25280000 
 221      00
 222 0068 488945E8 		movq	%rax, -24(%rbp)
 223 006c 31C0     		xorl	%eax, %eax
  13:TestMemoryOutStream.cpp ****     MemoryOutStream const stream;
 224              		.loc 3 13 0
 225 006e 488D8550 		leaq	-432(%rbp), %rax
 225      FEFFFF
 226 0075 4889C7   		movq	%rax, %rdi
 227              	.LEHB4:
 228 0078 E8000000 		call	_ZN8UnitTest15MemoryOutStreamC1Ev
 228      00
 229              	.LEHE4:
  14:TestMemoryOutStream.cpp ****     CHECK(stream.GetText() != 0);
 230              		.loc 3 14 0
 231 007d 488D8550 		leaq	-432(%rbp), %rax
 231      FEFFFF
 232 0084 4889C7   		movq	%rax, %rdi
 233              	.LEHB5:
 234 0087 E8000000 		call	_ZNK8UnitTest15MemoryOutStream7GetTextEv@PLT
 234      00
 235 008c 4885C0   		testq	%rax, %rax
 236 008f 0F95C0   		setne	%al
 237 0092 0FB6C0   		movzbl	%al, %eax
 238 0095 89C7     		movl	%eax, %edi
 239 0097 E8000000 		call	_ZN8UnitTest5CheckIbEEbT_
 239      00
 240 009c 83F001   		xorl	$1, %eax
 241 009f 84C0     		testb	%al, %al
 242 00a1 7440     		je	.L12
 243              		.loc 3 14 0 is_stmt 0 discriminator 2
 244 00a3 E8000000 		call	_ZN8UnitTest11CurrentTest7ResultsEv@PLT
 244      00
 245 00a8 488B18   		movq	(%rax), %rbx
 246 00ab E8000000 		call	_ZN8UnitTest11CurrentTest7DetailsEv@PLT
 246      00
 247              		.loc 3 14 0 discriminator 3
 248 00b0 488B08   		movq	(%rax), %rcx
 249 00b3 488D8530 		leaq	-464(%rbp), %rax
 249      FEFFFF
 250 00ba BA0E0000 		movl	$14, %edx
 250      00
 251 00bf 4889CE   		movq	%rcx, %rsi
 252 00c2 4889C7   		movq	%rax, %rdi
 253 00c5 E8000000 		call	_ZN8UnitTest11TestDetailsC1ERKS0_i@PLT
 253      00
 254              		.loc 3 14 0 discriminator 5
 255 00ca 488D8530 		leaq	-464(%rbp), %rax
 255      FEFFFF
 256 00d1 488D1500 		leaq	.LC3(%rip), %rdx
 256      000000
 257 00d8 4889C6   		movq	%rax, %rsi
 258 00db 4889DF   		movq	%rbx, %rdi
 259 00de E8000000 		call	_ZN8UnitTest11TestResults13OnTestFailureERKNS_11TestDetailsEPKc@PLT
 259      00
 260              	.LEHE5:
 261              	.L12:
 262              	.LEHB6:
  15:TestMemoryOutStream.cpp ****     CHECK_EQUAL("", stream.GetText());
 263              		.loc 3 15 0 is_stmt 1
 264 00e3 E8000000 		call	_ZN8UnitTest11CurrentTest7DetailsEv@PLT
 264      00
 265 00e8 488B08   		movq	(%rax), %rcx
 266 00eb 488D8530 		leaq	-464(%rbp), %rax
 266      FEFFFF
 267 00f2 BA0F0000 		movl	$15, %edx
 267      00
 268 00f7 4889CE   		movq	%rcx, %rsi
 269 00fa 4889C7   		movq	%rax, %rdi
 270 00fd E8000000 		call	_ZN8UnitTest11TestDetailsC1ERKS0_i@PLT
 270      00
 271              		.loc 3 15 0 is_stmt 0 discriminator 2
 272 0102 488D8550 		leaq	-432(%rbp), %rax
 272      FEFFFF
 273 0109 4889C7   		movq	%rax, %rdi
 274 010c E8000000 		call	_ZNK8UnitTest15MemoryOutStream7GetTextEv@PLT
 274      00
 275 0111 4889C3   		movq	%rax, %rbx
 276 0114 E8000000 		call	_ZN8UnitTest11CurrentTest7ResultsEv@PLT
 276      00
 277              		.loc 3 15 0 discriminator 4
 278 0119 488B00   		movq	(%rax), %rax
 279 011c 488D9530 		leaq	-464(%rbp), %rdx
 279      FEFFFF
 280 0123 4889D1   		movq	%rdx, %rcx
 281 0126 4889DA   		movq	%rbx, %rdx
 282 0129 488D3500 		leaq	.LC4(%rip), %rsi
 282      000000
 283 0130 4889C7   		movq	%rax, %rdi
 284 0133 E8000000 		call	_ZN8UnitTest10CheckEqualERNS_11TestResultsEPKcS3_RKNS_11TestDetailsE@PLT
 284      00
 285              	.LEHE6:
 286              	.L17:
  13:TestMemoryOutStream.cpp ****     MemoryOutStream const stream;
 287              		.loc 3 13 0 is_stmt 1
 288 0138 488D8550 		leaq	-432(%rbp), %rax
 288      FEFFFF
 289 013f 4889C7   		movq	%rax, %rdi
 290              	.LEHB7:
 291 0142 E8000000 		call	_ZN8UnitTest15MemoryOutStreamD1Ev
 291      00
 292              	.LEHE7:
  16:TestMemoryOutStream.cpp **** }
 293              		.loc 3 16 0
 294 0147 90       		nop
 295 0148 488B45E8 		movq	-24(%rbp), %rax
 296 014c 64483304 		xorq	%fs:40, %rax
 296      25280000 
 296      00
 297 0155 0F84DF00 		je	.L19
 297      0000
 298 015b E9D50000 		jmp	.L25
 298      00
 299              	.L20:
  14:TestMemoryOutStream.cpp ****     CHECK(stream.GetText() != 0);
 300              		.loc 3 14 0
 301 0160 4889C7   		movq	%rax, %rdi
 302 0163 E8000000 		call	__cxa_begin_catch@PLT
 302      00
 303              	.LEHB8:
 304 0168 E8000000 		call	_ZN8UnitTest11CurrentTest7ResultsEv@PLT
 304      00
 305 016d 488B18   		movq	(%rax), %rbx
 306 0170 E8000000 		call	_ZN8UnitTest11CurrentTest7DetailsEv@PLT
 306      00
  14:TestMemoryOutStream.cpp ****     CHECK(stream.GetText() != 0);
 307              		.loc 3 14 0 is_stmt 0 discriminator 9
 308 0175 488B08   		movq	(%rax), %rcx
 309 0178 488D8530 		leaq	-464(%rbp), %rax
 309      FEFFFF
 310 017f BA0E0000 		movl	$14, %edx
 310      00
 311 0184 4889CE   		movq	%rcx, %rsi
 312 0187 4889C7   		movq	%rax, %rdi
 313 018a E8000000 		call	_ZN8UnitTest11TestDetailsC1ERKS0_i@PLT
 313      00
  14:TestMemoryOutStream.cpp ****     CHECK(stream.GetText() != 0);
 314              		.loc 3 14 0 discriminator 13
 315 018f 488D8530 		leaq	-464(%rbp), %rax
 315      FEFFFF
 316 0196 488D1500 		leaq	.LC5(%rip), %rdx
 316      000000
 317 019d 4889C6   		movq	%rax, %rsi
 318 01a0 4889DF   		movq	%rbx, %rdi
 319 01a3 E8000000 		call	_ZN8UnitTest11TestResults13OnTestFailureERKNS_11TestDetailsEPKc@PLT
 319      00
 320              	.LEHE8:
 321              	.LEHB9:
  14:TestMemoryOutStream.cpp ****     CHECK(stream.GetText() != 0);
 322              		.loc 3 14 0 discriminator 15
 323 01a8 E8000000 		call	__cxa_end_catch@PLT
 323      00
 324              	.LEHE9:
  14:TestMemoryOutStream.cpp ****     CHECK(stream.GetText() != 0);
 325              		.loc 3 14 0
 326 01ad E931FFFF 		jmp	.L12
 326      FF
 327              	.L22:
 328 01b2 4889C3   		movq	%rax, %rbx
 329 01b5 E8000000 		call	__cxa_end_catch@PLT
 329      00
 330 01ba EB5F     		jmp	.L15
 331              	.L23:
  15:TestMemoryOutStream.cpp ****     CHECK_EQUAL("", stream.GetText());
 332              		.loc 3 15 0 is_stmt 1
 333 01bc 4889C7   		movq	%rax, %rdi
 334 01bf E8000000 		call	__cxa_begin_catch@PLT
 334      00
 335              	.LEHB10:
 336 01c4 E8000000 		call	_ZN8UnitTest11CurrentTest7ResultsEv@PLT
 336      00
 337 01c9 488B18   		movq	(%rax), %rbx
 338 01cc E8000000 		call	_ZN8UnitTest11CurrentTest7DetailsEv@PLT
 338      00
  15:TestMemoryOutStream.cpp ****     CHECK_EQUAL("", stream.GetText());
 339              		.loc 3 15 0 is_stmt 0 discriminator 10
 340 01d1 488B08   		movq	(%rax), %rcx
 341 01d4 488D8530 		leaq	-464(%rbp), %rax
 341      FEFFFF
 342 01db BA0F0000 		movl	$15, %edx
 342      00
 343 01e0 4889CE   		movq	%rcx, %rsi
 344 01e3 4889C7   		movq	%rax, %rdi
 345 01e6 E8000000 		call	_ZN8UnitTest11TestDetailsC1ERKS0_i@PLT
 345      00
  15:TestMemoryOutStream.cpp ****     CHECK_EQUAL("", stream.GetText());
 346              		.loc 3 15 0 discriminator 14
 347 01eb 488D8530 		leaq	-464(%rbp), %rax
 347      FEFFFF
 348 01f2 488D1500 		leaq	.LC6(%rip), %rdx
 348      000000
 349 01f9 4889C6   		movq	%rax, %rsi
 350 01fc 4889DF   		movq	%rbx, %rdi
 351 01ff E8000000 		call	_ZN8UnitTest11TestResults13OnTestFailureERKNS_11TestDetailsEPKc@PLT
 351      00
 352              	.LEHE10:
 353              	.LEHB11:
  15:TestMemoryOutStream.cpp ****     CHECK_EQUAL("", stream.GetText());
 354              		.loc 3 15 0 discriminator 16
 355 0204 E8000000 		call	__cxa_end_catch@PLT
 355      00
 356              	.LEHE11:
  15:TestMemoryOutStream.cpp ****     CHECK_EQUAL("", stream.GetText());
 357              		.loc 3 15 0
 358 0209 E92AFFFF 		jmp	.L17
 358      FF
 359              	.L24:
 360 020e 4889C3   		movq	%rax, %rbx
 361 0211 E8000000 		call	__cxa_end_catch@PLT
 361      00
 362 0216 EB03     		jmp	.L15
 363              	.L21:
 364 0218 4889C3   		movq	%rax, %rbx
 365              	.L15:
  13:TestMemoryOutStream.cpp ****     CHECK(stream.GetText() != 0);
 366              		.loc 3 13 0 is_stmt 1
 367 021b 488D8550 		leaq	-432(%rbp), %rax
 367      FEFFFF
 368 0222 4889C7   		movq	%rax, %rdi
 369 0225 E8000000 		call	_ZN8UnitTest15MemoryOutStreamD1Ev
 369      00
 370 022a 4889D8   		movq	%rbx, %rax
 371 022d 4889C7   		movq	%rax, %rdi
 372              	.LEHB12:
 373 0230 E8000000 		call	_Unwind_Resume@PLT
 373      00
 374              	.LEHE12:
 375              	.L25:
 376              		.loc 3 16 0
 377 0235 E8000000 		call	__stack_chk_fail@PLT
 377      00
 378              	.L19:
 379 023a 4881C4D8 		addq	$472, %rsp
 379      010000
 380 0241 5B       		popq	%rbx
 381 0242 5D       		popq	%rbp
 382              		.cfi_def_cfa 7, 8
 383 0243 C3       		ret
 384              		.cfi_endproc
 385              	.LFE1091:
 386              		.section	.gcc_except_table,"a",@progbits
 387              		.align 4
 388              	.LLSDA1091:
 389 0000 FF       		.byte	0xff
 390 0001 9B       		.byte	0x9b
 391 0002 39       		.uleb128 .LLSDATT1091-.LLSDATTD1091
 392              	.LLSDATTD1091:
 393 0003 01       		.byte	0x1
 394 0004 31       		.uleb128 .LLSDACSE1091-.LLSDACSB1091
 395              	.LLSDACSB1091:
 396 0005 2C       		.uleb128 .LEHB4-.LFB1091
 397 0006 05       		.uleb128 .LEHE4-.LEHB4
 398 0007 00       		.uleb128 0
 399 0008 00       		.uleb128 0
 400 0009 3B       		.uleb128 .LEHB5-.LFB1091
 401 000a 5C       		.uleb128 .LEHE5-.LEHB5
 402 000b 9402     		.uleb128 .L20-.LFB1091
 403 000d 01       		.uleb128 0x1
 404 000e 9701     		.uleb128 .LEHB6-.LFB1091
 405 0010 55       		.uleb128 .LEHE6-.LEHB6
 406 0011 F002     		.uleb128 .L23-.LFB1091
 407 0013 01       		.uleb128 0x1
 408 0014 F601     		.uleb128 .LEHB7-.LFB1091
 409 0016 05       		.uleb128 .LEHE7-.LEHB7
 410 0017 00       		.uleb128 0
 411 0018 00       		.uleb128 0
 412 0019 9C02     		.uleb128 .LEHB8-.LFB1091
 413 001b 40       		.uleb128 .LEHE8-.LEHB8
 414 001c E602     		.uleb128 .L22-.LFB1091
 415 001e 00       		.uleb128 0
 416 001f DC02     		.uleb128 .LEHB9-.LFB1091
 417 0021 05       		.uleb128 .LEHE9-.LEHB9
 418 0022 CC03     		.uleb128 .L21-.LFB1091
 419 0024 00       		.uleb128 0
 420 0025 F802     		.uleb128 .LEHB10-.LFB1091
 421 0027 40       		.uleb128 .LEHE10-.LEHB10
 422 0028 C203     		.uleb128 .L24-.LFB1091
 423 002a 00       		.uleb128 0
 424 002b B803     		.uleb128 .LEHB11-.LFB1091
 425 002d 05       		.uleb128 .LEHE11-.LEHB11
 426 002e CC03     		.uleb128 .L21-.LFB1091
 427 0030 00       		.uleb128 0
 428 0031 E403     		.uleb128 .LEHB12-.LFB1091
 429 0033 05       		.uleb128 .LEHE12-.LEHB12
 430 0034 00       		.uleb128 0
 431 0035 00       		.uleb128 0
 432              	.LLSDACSE1091:
 433 0036 01       		.byte	0x1
 434 0037 00       		.byte	0
 435              		.align 4
 436 0038 00000000 		.long	0
 437              	
 438              	.LLSDATT1091:
 439              		.text
 441              		.section	.rodata
 442              	.LC7:
 443 00c9 53747265 		.string	"StreamingTextCopiesCharacters"
 443      616D696E 
 443      67546578 
 443      74436F70 
 443      69657343 
 444              		.text
 445              		.align 2
 447              	_ZN12_GLOBAL__N_133TestStreamingTextCopiesCharactersC2Ev:
 448              	.LFB1093:
  17:TestMemoryOutStream.cpp **** 
  18:TestMemoryOutStream.cpp **** TEST(StreamingTextCopiesCharacters)
 449              		.loc 3 18 0
 450              		.cfi_startproc
 451 0244 55       		pushq	%rbp
 452              		.cfi_def_cfa_offset 16
 453              		.cfi_offset 6, -16
 454 0245 4889E5   		movq	%rsp, %rbp
 455              		.cfi_def_cfa_register 6
 456 0248 53       		pushq	%rbx
 457 0249 4883EC18 		subq	$24, %rsp
 458              		.cfi_offset 3, -24
 459 024d 48897DE8 		movq	%rdi, -24(%rbp)
 460              	.LBB5:
 461              		.loc 3 18 0
 462 0251 488B5DE8 		movq	-24(%rbp), %rbx
 463 0255 E8000000 		call	_ZN13UnitTestSuite12GetSuiteNameEv
 463      00
 464 025a 41B81200 		movl	$18, %r8d
 464      0000
 465 0260 488D0D00 		leaq	.LC1(%rip), %rcx
 465      000000
 466 0267 4889C2   		movq	%rax, %rdx
 467 026a 488D3500 		leaq	.LC7(%rip), %rsi
 467      000000
 468 0271 4889DF   		movq	%rbx, %rdi
 469 0274 E8000000 		call	_ZN8UnitTest4TestC2EPKcS2_S2_i@PLT
 469      00
 470 0279 488D1500 		leaq	16+_ZTVN12_GLOBAL__N_133TestStreamingTextCopiesCharactersE(%rip), %rdx
 470      000000
 471 0280 488B45E8 		movq	-24(%rbp), %rax
 472 0284 488910   		movq	%rdx, (%rax)
 473              	.LBE5:
 474 0287 90       		nop
 475 0288 4883C418 		addq	$24, %rsp
 476 028c 5B       		popq	%rbx
 477 028d 5D       		popq	%rbp
 478              		.cfi_def_cfa 7, 8
 479 028e C3       		ret
 480              		.cfi_endproc
 481              	.LFE1093:
 483              		.set	_ZN12_GLOBAL__N_133TestStreamingTextCopiesCharactersC1Ev,_ZN12_GLOBAL__N_133TestStreamingText
 484              		.local	_ZN12_GLOBAL__N_141testStreamingTextCopiesCharactersInstanceE
 485              		.comm	_ZN12_GLOBAL__N_141testStreamingTextCopiesCharactersInstanceE,56,32
 486              		.local	_ZN12_GLOBAL__N_134adderStreamingTextCopiesCharactersE
 487              		.comm	_ZN12_GLOBAL__N_134adderStreamingTextCopiesCharactersE,1,1
 488              		.section	.rodata
 489              	.LC8:
 490 00e7 4C616C61 		.string	"Lalala"
 490      6C6100
 491 00ee 0000     		.align 8
 492              	.LC9:
 493 00f0 556E6861 		.string	"Unhandled exception in CHECK_EQUAL(\"Lalala\", stream.GetText())"
 493      6E646C65 
 493      64206578 
 493      63657074 
 493      696F6E20 
 494              		.text
 495 028f 90       		.align 2
 497              	_ZNK12_GLOBAL__N_133TestStreamingTextCopiesCharacters7RunImplEv:
 498              	.LFB1095:
  19:TestMemoryOutStream.cpp **** {
 499              		.loc 3 19 0
 500              		.cfi_startproc
 501              		.cfi_personality 0x9b,DW.ref.__gxx_personality_v0
 502              		.cfi_lsda 0x1b,.LLSDA1095
 503 0290 55       		pushq	%rbp
 504              		.cfi_def_cfa_offset 16
 505              		.cfi_offset 6, -16
 506 0291 4889E5   		movq	%rsp, %rbp
 507              		.cfi_def_cfa_register 6
 508 0294 53       		pushq	%rbx
 509 0295 4881ECD8 		subq	$472, %rsp
 509      010000
 510              		.cfi_offset 3, -24
 511 029c 4889BD28 		movq	%rdi, -472(%rbp)
 511      FEFFFF
 512              		.loc 3 19 0
 513 02a3 64488B04 		movq	%fs:40, %rax
 513      25280000 
 513      00
 514 02ac 488945E8 		movq	%rax, -24(%rbp)
 515 02b0 31C0     		xorl	%eax, %eax
  20:TestMemoryOutStream.cpp ****     MemoryOutStream stream;
 516              		.loc 3 20 0
 517 02b2 488D8550 		leaq	-432(%rbp), %rax
 517      FEFFFF
 518 02b9 4889C7   		movq	%rax, %rdi
 519              	.LEHB13:
 520 02bc E8000000 		call	_ZN8UnitTest15MemoryOutStreamC1Ev
 520      00
 521              	.LEHE13:
  21:TestMemoryOutStream.cpp ****     stream << "Lalala";
 522              		.loc 3 21 0
 523 02c1 488D8550 		leaq	-432(%rbp), %rax
 523      FEFFFF
 524 02c8 488D3500 		leaq	.LC8(%rip), %rsi
 524      000000
 525 02cf 4889C7   		movq	%rax, %rdi
 526              	.LEHB14:
 527 02d2 E8000000 		call	_ZStlsISt11char_traitsIcEERSt13basic_ostreamIcT_ES5_PKc@PLT
 527      00
 528              	.LEHE14:
 529              	.LEHB15:
  22:TestMemoryOutStream.cpp ****     CHECK_EQUAL("Lalala", stream.GetText());
 530              		.loc 3 22 0
 531 02d7 E8000000 		call	_ZN8UnitTest11CurrentTest7DetailsEv@PLT
 531      00
 532 02dc 488B08   		movq	(%rax), %rcx
 533 02df 488D8530 		leaq	-464(%rbp), %rax
 533      FEFFFF
 534 02e6 BA160000 		movl	$22, %edx
 534      00
 535 02eb 4889CE   		movq	%rcx, %rsi
 536 02ee 4889C7   		movq	%rax, %rdi
 537 02f1 E8000000 		call	_ZN8UnitTest11TestDetailsC1ERKS0_i@PLT
 537      00
 538              		.loc 3 22 0 is_stmt 0 discriminator 2
 539 02f6 488D8550 		leaq	-432(%rbp), %rax
 539      FEFFFF
 540 02fd 4889C7   		movq	%rax, %rdi
 541 0300 E8000000 		call	_ZNK8UnitTest15MemoryOutStream7GetTextEv@PLT
 541      00
 542 0305 4889C3   		movq	%rax, %rbx
 543 0308 E8000000 		call	_ZN8UnitTest11CurrentTest7ResultsEv@PLT
 543      00
 544              		.loc 3 22 0 discriminator 4
 545 030d 488B00   		movq	(%rax), %rax
 546 0310 488D9530 		leaq	-464(%rbp), %rdx
 546      FEFFFF
 547 0317 4889D1   		movq	%rdx, %rcx
 548 031a 4889DA   		movq	%rbx, %rdx
 549 031d 488D3500 		leaq	.LC8(%rip), %rsi
 549      000000
 550 0324 4889C7   		movq	%rax, %rdi
 551 0327 E8000000 		call	_ZN8UnitTest10CheckEqualERNS_11TestResultsEPKcS3_RKNS_11TestDetailsE@PLT
 551      00
 552              	.LEHE15:
 553              	.L29:
  20:TestMemoryOutStream.cpp ****     MemoryOutStream stream;
 554              		.loc 3 20 0 is_stmt 1
 555 032c 488D8550 		leaq	-432(%rbp), %rax
 555      FEFFFF
 556 0333 4889C7   		movq	%rax, %rdi
 557              	.LEHB16:
 558 0336 E8000000 		call	_ZN8UnitTest15MemoryOutStreamD1Ev
 558      00
 559              	.LEHE16:
  23:TestMemoryOutStream.cpp **** }
 560              		.loc 3 23 0
 561 033b 90       		nop
 562 033c 488B45E8 		movq	-24(%rbp), %rax
 563 0340 64483304 		xorq	%fs:40, %rax
 563      25280000 
 563      00
 564 0349 747D     		je	.L32
 565 034b EB76     		jmp	.L36
 566              	.L34:
  22:TestMemoryOutStream.cpp ****     CHECK_EQUAL("Lalala", stream.GetText());
 567              		.loc 3 22 0
 568 034d 4889C7   		movq	%rax, %rdi
 569 0350 E8000000 		call	__cxa_begin_catch@PLT
 569      00
 570              	.LEHB17:
 571 0355 E8000000 		call	_ZN8UnitTest11CurrentTest7ResultsEv@PLT
 571      00
 572 035a 488B18   		movq	(%rax), %rbx
 573 035d E8000000 		call	_ZN8UnitTest11CurrentTest7DetailsEv@PLT
 573      00
  22:TestMemoryOutStream.cpp ****     CHECK_EQUAL("Lalala", stream.GetText());
 574              		.loc 3 22 0 is_stmt 0 discriminator 10
 575 0362 488B08   		movq	(%rax), %rcx
 576 0365 488D8530 		leaq	-464(%rbp), %rax
 576      FEFFFF
 577 036c BA160000 		movl	$22, %edx
 577      00
 578 0371 4889CE   		movq	%rcx, %rsi
 579 0374 4889C7   		movq	%rax, %rdi
 580 0377 E8000000 		call	_ZN8UnitTest11TestDetailsC1ERKS0_i@PLT
 580      00
  22:TestMemoryOutStream.cpp ****     CHECK_EQUAL("Lalala", stream.GetText());
 581              		.loc 3 22 0 discriminator 14
 582 037c 488D8530 		leaq	-464(%rbp), %rax
 582      FEFFFF
 583 0383 488D1500 		leaq	.LC9(%rip), %rdx
 583      000000
 584 038a 4889C6   		movq	%rax, %rsi
 585 038d 4889DF   		movq	%rbx, %rdi
 586 0390 E8000000 		call	_ZN8UnitTest11TestResults13OnTestFailureERKNS_11TestDetailsEPKc@PLT
 586      00
 587              	.LEHE17:
 588              	.LEHB18:
  22:TestMemoryOutStream.cpp ****     CHECK_EQUAL("Lalala", stream.GetText());
 589              		.loc 3 22 0 discriminator 16
 590 0395 E8000000 		call	__cxa_end_catch@PLT
 590      00
 591              	.LEHE18:
  22:TestMemoryOutStream.cpp ****     CHECK_EQUAL("Lalala", stream.GetText());
 592              		.loc 3 22 0
 593 039a EB90     		jmp	.L29
 594              	.L35:
 595 039c 4889C3   		movq	%rax, %rbx
 596 039f E8000000 		call	__cxa_end_catch@PLT
 596      00
 597 03a4 EB03     		jmp	.L31
 598              	.L33:
 599 03a6 4889C3   		movq	%rax, %rbx
 600              	.L31:
  20:TestMemoryOutStream.cpp ****     stream << "Lalala";
 601              		.loc 3 20 0 is_stmt 1
 602 03a9 488D8550 		leaq	-432(%rbp), %rax
 602      FEFFFF
 603 03b0 4889C7   		movq	%rax, %rdi
 604 03b3 E8000000 		call	_ZN8UnitTest15MemoryOutStreamD1Ev
 604      00
 605 03b8 4889D8   		movq	%rbx, %rax
 606 03bb 4889C7   		movq	%rax, %rdi
 607              	.LEHB19:
 608 03be E8000000 		call	_Unwind_Resume@PLT
 608      00
 609              	.LEHE19:
 610              	.L36:
 611              		.loc 3 23 0
 612 03c3 E8000000 		call	__stack_chk_fail@PLT
 612      00
 613              	.L32:
 614 03c8 4881C4D8 		addq	$472, %rsp
 614      010000
 615 03cf 5B       		popq	%rbx
 616 03d0 5D       		popq	%rbp
 617              		.cfi_def_cfa 7, 8
 618 03d1 C3       		ret
 619              		.cfi_endproc
 620              	.LFE1095:
 621              		.section	.gcc_except_table
 622              		.align 4
 623              	.LLSDA1095:
 624 003c FF       		.byte	0xff
 625 003d 9B       		.byte	0x9b
 626 003e 2D       		.uleb128 .LLSDATT1095-.LLSDATTD1095
 627              	.LLSDATTD1095:
 628 003f 01       		.byte	0x1
 629 0040 24       		.uleb128 .LLSDACSE1095-.LLSDACSB1095
 630              	.LLSDACSB1095:
 631 0041 2C       		.uleb128 .LEHB13-.LFB1095
 632 0042 05       		.uleb128 .LEHE13-.LEHB13
 633 0043 00       		.uleb128 0
 634 0044 00       		.uleb128 0
 635 0045 42       		.uleb128 .LEHB14-.LFB1095
 636 0046 05       		.uleb128 .LEHE14-.LEHB14
 637 0047 9602     		.uleb128 .L33-.LFB1095
 638 0049 00       		.uleb128 0
 639 004a 47       		.uleb128 .LEHB15-.LFB1095
 640 004b 55       		.uleb128 .LEHE15-.LEHB15
 641 004c BD01     		.uleb128 .L34-.LFB1095
 642 004e 01       		.uleb128 0x1
 643 004f A601     		.uleb128 .LEHB16-.LFB1095
 644 0051 05       		.uleb128 .LEHE16-.LEHB16
 645 0052 00       		.uleb128 0
 646 0053 00       		.uleb128 0
 647 0054 C501     		.uleb128 .LEHB17-.LFB1095
 648 0056 40       		.uleb128 .LEHE17-.LEHB17
 649 0057 8C02     		.uleb128 .L35-.LFB1095
 650 0059 00       		.uleb128 0
 651 005a 8502     		.uleb128 .LEHB18-.LFB1095
 652 005c 05       		.uleb128 .LEHE18-.LEHB18
 653 005d 9602     		.uleb128 .L33-.LFB1095
 654 005f 00       		.uleb128 0
 655 0060 AE02     		.uleb128 .LEHB19-.LFB1095
 656 0062 05       		.uleb128 .LEHE19-.LEHB19
 657 0063 00       		.uleb128 0
 658 0064 00       		.uleb128 0
 659              	.LLSDACSE1095:
 660 0065 01       		.byte	0x1
 661 0066 00       		.byte	0
 662 0067 00       		.align 4
 663 0068 00000000 		.long	0
 664              	
 665              	.LLSDATT1095:
 666              		.text
 668              		.section	.rodata
 669 012f 00       		.align 8
 670              	.LC10:
 671 0130 53747265 		.string	"StreamingMultipleTimesConcatenatesResult"
 671      616D696E 
 671      674D756C 
 671      7469706C 
 671      6554696D 
 672              		.text
 673              		.align 2
 675              	_ZN12_GLOBAL__N_144TestStreamingMultipleTimesConcatenatesResultC2Ev:
 676              	.LFB1097:
  24:TestMemoryOutStream.cpp **** 
  25:TestMemoryOutStream.cpp **** TEST(StreamingMultipleTimesConcatenatesResult)
 677              		.loc 3 25 0
 678              		.cfi_startproc
 679 03d2 55       		pushq	%rbp
 680              		.cfi_def_cfa_offset 16
 681              		.cfi_offset 6, -16
 682 03d3 4889E5   		movq	%rsp, %rbp
 683              		.cfi_def_cfa_register 6
 684 03d6 53       		pushq	%rbx
 685 03d7 4883EC18 		subq	$24, %rsp
 686              		.cfi_offset 3, -24
 687 03db 48897DE8 		movq	%rdi, -24(%rbp)
 688              	.LBB6:
 689              		.loc 3 25 0
 690 03df 488B5DE8 		movq	-24(%rbp), %rbx
 691 03e3 E8000000 		call	_ZN13UnitTestSuite12GetSuiteNameEv
 691      00
 692 03e8 41B81900 		movl	$25, %r8d
 692      0000
 693 03ee 488D0D00 		leaq	.LC1(%rip), %rcx
 693      000000
 694 03f5 4889C2   		movq	%rax, %rdx
 695 03f8 488D3500 		leaq	.LC10(%rip), %rsi
 695      000000
 696 03ff 4889DF   		movq	%rbx, %rdi
 697 0402 E8000000 		call	_ZN8UnitTest4TestC2EPKcS2_S2_i@PLT
 697      00
 698 0407 488D1500 		leaq	16+_ZTVN12_GLOBAL__N_144TestStreamingMultipleTimesConcatenatesResultE(%rip), %rdx
 698      000000
 699 040e 488B45E8 		movq	-24(%rbp), %rax
 700 0412 488910   		movq	%rdx, (%rax)
 701              	.LBE6:
 702 0415 90       		nop
 703 0416 4883C418 		addq	$24, %rsp
 704 041a 5B       		popq	%rbx
 705 041b 5D       		popq	%rbp
 706              		.cfi_def_cfa 7, 8
 707 041c C3       		ret
 708              		.cfi_endproc
 709              	.LFE1097:
 711              		.set	_ZN12_GLOBAL__N_144TestStreamingMultipleTimesConcatenatesResultC1Ev,_ZN12_GLOBAL__N_144TestSt
 712              		.local	_ZN12_GLOBAL__N_152testStreamingMultipleTimesConcatenatesResultInstanceE
 713              		.comm	_ZN12_GLOBAL__N_152testStreamingMultipleTimesConcatenatesResultInstanceE,56,32
 714              		.local	_ZN12_GLOBAL__N_145adderStreamingMultipleTimesConcatenatesResultE
 715              		.comm	_ZN12_GLOBAL__N_145adderStreamingMultipleTimesConcatenatesResultE,1,1
 716              		.section	.rodata
 717              	.LC11:
 718 0159 426F726B 		.string	"Bork"
 718      00
 719              	.LC12:
 720 015e 466F6F00 		.string	"Foo"
 721              	.LC13:
 722 0162 42617200 		.string	"Bar"
 723              	.LC14:
 724 0166 426F726B 		.string	"BorkFooBar"
 724      466F6F42 
 724      617200
 725 0171 00000000 		.align 8
 725      000000
 726              	.LC15:
 727 0178 556E6861 		.string	"Unhandled exception in CHECK_EQUAL(\"BorkFooBar\", stream.GetText())"
 727      6E646C65 
 727      64206578 
 727      63657074 
 727      696F6E20 
 728              		.text
 729 041d 90       		.align 2
 731              	_ZNK12_GLOBAL__N_144TestStreamingMultipleTimesConcatenatesResult7RunImplEv:
 732              	.LFB1099:
  26:TestMemoryOutStream.cpp **** {
 733              		.loc 3 26 0
 734              		.cfi_startproc
 735              		.cfi_personality 0x9b,DW.ref.__gxx_personality_v0
 736              		.cfi_lsda 0x1b,.LLSDA1099
 737 041e 55       		pushq	%rbp
 738              		.cfi_def_cfa_offset 16
 739              		.cfi_offset 6, -16
 740 041f 4889E5   		movq	%rsp, %rbp
 741              		.cfi_def_cfa_register 6
 742 0422 53       		pushq	%rbx
 743 0423 4881ECD8 		subq	$472, %rsp
 743      010000
 744              		.cfi_offset 3, -24
 745 042a 4889BD28 		movq	%rdi, -472(%rbp)
 745      FEFFFF
 746              		.loc 3 26 0
 747 0431 64488B04 		movq	%fs:40, %rax
 747      25280000 
 747      00
 748 043a 488945E8 		movq	%rax, -24(%rbp)
 749 043e 31C0     		xorl	%eax, %eax
  27:TestMemoryOutStream.cpp ****     MemoryOutStream stream;
 750              		.loc 3 27 0
 751 0440 488D8550 		leaq	-432(%rbp), %rax
 751      FEFFFF
 752 0447 4889C7   		movq	%rax, %rdi
 753              	.LEHB20:
 754 044a E8000000 		call	_ZN8UnitTest15MemoryOutStreamC1Ev
 754      00
 755              	.LEHE20:
  28:TestMemoryOutStream.cpp ****     stream << "Bork" << "Foo" << "Bar";
 756              		.loc 3 28 0
 757 044f 488D8550 		leaq	-432(%rbp), %rax
 757      FEFFFF
 758 0456 488D3500 		leaq	.LC11(%rip), %rsi
 758      000000
 759 045d 4889C7   		movq	%rax, %rdi
 760              	.LEHB21:
 761 0460 E8000000 		call	_ZStlsISt11char_traitsIcEERSt13basic_ostreamIcT_ES5_PKc@PLT
 761      00
 762 0465 488D3500 		leaq	.LC12(%rip), %rsi
 762      000000
 763 046c 4889C7   		movq	%rax, %rdi
 764 046f E8000000 		call	_ZStlsISt11char_traitsIcEERSt13basic_ostreamIcT_ES5_PKc@PLT
 764      00
 765              		.loc 3 28 0 is_stmt 0 discriminator 1
 766 0474 488D3500 		leaq	.LC13(%rip), %rsi
 766      000000
 767 047b 4889C7   		movq	%rax, %rdi
 768 047e E8000000 		call	_ZStlsISt11char_traitsIcEERSt13basic_ostreamIcT_ES5_PKc@PLT
 768      00
 769              	.LEHE21:
 770              	.LEHB22:
  29:TestMemoryOutStream.cpp ****     CHECK_EQUAL("BorkFooBar", stream.GetText());
 771              		.loc 3 29 0 is_stmt 1
 772 0483 E8000000 		call	_ZN8UnitTest11CurrentTest7DetailsEv@PLT
 772      00
 773 0488 488B08   		movq	(%rax), %rcx
 774 048b 488D8530 		leaq	-464(%rbp), %rax
 774      FEFFFF
 775 0492 BA1D0000 		movl	$29, %edx
 775      00
 776 0497 4889CE   		movq	%rcx, %rsi
 777 049a 4889C7   		movq	%rax, %rdi
 778 049d E8000000 		call	_ZN8UnitTest11TestDetailsC1ERKS0_i@PLT
 778      00
 779              		.loc 3 29 0 is_stmt 0 discriminator 2
 780 04a2 488D8550 		leaq	-432(%rbp), %rax
 780      FEFFFF
 781 04a9 4889C7   		movq	%rax, %rdi
 782 04ac E8000000 		call	_ZNK8UnitTest15MemoryOutStream7GetTextEv@PLT
 782      00
 783 04b1 4889C3   		movq	%rax, %rbx
 784 04b4 E8000000 		call	_ZN8UnitTest11CurrentTest7ResultsEv@PLT
 784      00
 785              		.loc 3 29 0 discriminator 4
 786 04b9 488B00   		movq	(%rax), %rax
 787 04bc 488D9530 		leaq	-464(%rbp), %rdx
 787      FEFFFF
 788 04c3 4889D1   		movq	%rdx, %rcx
 789 04c6 4889DA   		movq	%rbx, %rdx
 790 04c9 488D3500 		leaq	.LC14(%rip), %rsi
 790      000000
 791 04d0 4889C7   		movq	%rax, %rdi
 792 04d3 E8000000 		call	_ZN8UnitTest10CheckEqualERNS_11TestResultsEPKcS3_RKNS_11TestDetailsE@PLT
 792      00
 793              	.LEHE22:
 794              	.L40:
  27:TestMemoryOutStream.cpp ****     MemoryOutStream stream;
 795              		.loc 3 27 0 is_stmt 1
 796 04d8 488D8550 		leaq	-432(%rbp), %rax
 796      FEFFFF
 797 04df 4889C7   		movq	%rax, %rdi
 798              	.LEHB23:
 799 04e2 E8000000 		call	_ZN8UnitTest15MemoryOutStreamD1Ev
 799      00
 800              	.LEHE23:
  30:TestMemoryOutStream.cpp **** }
 801              		.loc 3 30 0
 802 04e7 90       		nop
 803 04e8 488B45E8 		movq	-24(%rbp), %rax
 804 04ec 64483304 		xorq	%fs:40, %rax
 804      25280000 
 804      00
 805 04f5 747D     		je	.L43
 806 04f7 EB76     		jmp	.L47
 807              	.L45:
  29:TestMemoryOutStream.cpp ****     CHECK_EQUAL("BorkFooBar", stream.GetText());
 808              		.loc 3 29 0
 809 04f9 4889C7   		movq	%rax, %rdi
 810 04fc E8000000 		call	__cxa_begin_catch@PLT
 810      00
 811              	.LEHB24:
 812 0501 E8000000 		call	_ZN8UnitTest11CurrentTest7ResultsEv@PLT
 812      00
 813 0506 488B18   		movq	(%rax), %rbx
 814 0509 E8000000 		call	_ZN8UnitTest11CurrentTest7DetailsEv@PLT
 814      00
  29:TestMemoryOutStream.cpp ****     CHECK_EQUAL("BorkFooBar", stream.GetText());
 815              		.loc 3 29 0 is_stmt 0 discriminator 10
 816 050e 488B08   		movq	(%rax), %rcx
 817 0511 488D8530 		leaq	-464(%rbp), %rax
 817      FEFFFF
 818 0518 BA1D0000 		movl	$29, %edx
 818      00
 819 051d 4889CE   		movq	%rcx, %rsi
 820 0520 4889C7   		movq	%rax, %rdi
 821 0523 E8000000 		call	_ZN8UnitTest11TestDetailsC1ERKS0_i@PLT
 821      00
  29:TestMemoryOutStream.cpp ****     CHECK_EQUAL("BorkFooBar", stream.GetText());
 822              		.loc 3 29 0 discriminator 14
 823 0528 488D8530 		leaq	-464(%rbp), %rax
 823      FEFFFF
 824 052f 488D1500 		leaq	.LC15(%rip), %rdx
 824      000000
 825 0536 4889C6   		movq	%rax, %rsi
 826 0539 4889DF   		movq	%rbx, %rdi
 827 053c E8000000 		call	_ZN8UnitTest11TestResults13OnTestFailureERKNS_11TestDetailsEPKc@PLT
 827      00
 828              	.LEHE24:
 829              	.LEHB25:
  29:TestMemoryOutStream.cpp ****     CHECK_EQUAL("BorkFooBar", stream.GetText());
 830              		.loc 3 29 0 discriminator 16
 831 0541 E8000000 		call	__cxa_end_catch@PLT
 831      00
 832              	.LEHE25:
  29:TestMemoryOutStream.cpp ****     CHECK_EQUAL("BorkFooBar", stream.GetText());
 833              		.loc 3 29 0
 834 0546 EB90     		jmp	.L40
 835              	.L46:
 836 0548 4889C3   		movq	%rax, %rbx
 837 054b E8000000 		call	__cxa_end_catch@PLT
 837      00
 838 0550 EB03     		jmp	.L42
 839              	.L44:
 840 0552 4889C3   		movq	%rax, %rbx
 841              	.L42:
  27:TestMemoryOutStream.cpp ****     stream << "Bork" << "Foo" << "Bar";
 842              		.loc 3 27 0 is_stmt 1
 843 0555 488D8550 		leaq	-432(%rbp), %rax
 843      FEFFFF
 844 055c 4889C7   		movq	%rax, %rdi
 845 055f E8000000 		call	_ZN8UnitTest15MemoryOutStreamD1Ev
 845      00
 846 0564 4889D8   		movq	%rbx, %rax
 847 0567 4889C7   		movq	%rax, %rdi
 848              	.LEHB26:
 849 056a E8000000 		call	_Unwind_Resume@PLT
 849      00
 850              	.LEHE26:
 851              	.L47:
 852              		.loc 3 30 0
 853 056f E8000000 		call	__stack_chk_fail@PLT
 853      00
 854              	.L43:
 855 0574 4881C4D8 		addq	$472, %rsp
 855      010000
 856 057b 5B       		popq	%rbx
 857 057c 5D       		popq	%rbp
 858              		.cfi_def_cfa 7, 8
 859 057d C3       		ret
 860              		.cfi_endproc
 861              	.LFE1099:
 862              		.section	.gcc_except_table
 863              		.align 4
 864              	.LLSDA1099:
 865 006c FF       		.byte	0xff
 866 006d 9B       		.byte	0x9b
 867 006e 2D       		.uleb128 .LLSDATT1099-.LLSDATTD1099
 868              	.LLSDATTD1099:
 869 006f 01       		.byte	0x1
 870 0070 24       		.uleb128 .LLSDACSE1099-.LLSDACSB1099
 871              	.LLSDACSB1099:
 872 0071 2C       		.uleb128 .LEHB20-.LFB1099
 873 0072 05       		.uleb128 .LEHE20-.LEHB20
 874 0073 00       		.uleb128 0
 875 0074 00       		.uleb128 0
 876 0075 42       		.uleb128 .LEHB21-.LFB1099
 877 0076 23       		.uleb128 .LEHE21-.LEHB21
 878 0077 B402     		.uleb128 .L44-.LFB1099
 879 0079 00       		.uleb128 0
 880 007a 65       		.uleb128 .LEHB22-.LFB1099
 881 007b 55       		.uleb128 .LEHE22-.LEHB22
 882 007c DB01     		.uleb128 .L45-.LFB1099
 883 007e 01       		.uleb128 0x1
 884 007f C401     		.uleb128 .LEHB23-.LFB1099
 885 0081 05       		.uleb128 .LEHE23-.LEHB23
 886 0082 00       		.uleb128 0
 887 0083 00       		.uleb128 0
 888 0084 E301     		.uleb128 .LEHB24-.LFB1099
 889 0086 40       		.uleb128 .LEHE24-.LEHB24
 890 0087 AA02     		.uleb128 .L46-.LFB1099
 891 0089 00       		.uleb128 0
 892 008a A302     		.uleb128 .LEHB25-.LFB1099
 893 008c 05       		.uleb128 .LEHE25-.LEHB25
 894 008d B402     		.uleb128 .L44-.LFB1099
 895 008f 00       		.uleb128 0
 896 0090 CC02     		.uleb128 .LEHB26-.LFB1099
 897 0092 05       		.uleb128 .LEHE26-.LEHB26
 898 0093 00       		.uleb128 0
 899 0094 00       		.uleb128 0
 900              	.LLSDACSE1099:
 901 0095 01       		.byte	0x1
 902 0096 00       		.byte	0
 903 0097 00       		.align 4
 904 0098 00000000 		.long	0
 905              	
 906              	.LLSDATT1099:
 907              		.text
 909              		.section	.rodata
 910 01bb 00000000 		.align 8
 910      00
 911              	.LC16:
 912 01c0 53747265 		.string	"StreamingIntWritesCorrectCharacters"
 912      616D696E 
 912      67496E74 
 912      57726974 
 912      6573436F 
 913              		.text
 914              		.align 2
 916              	_ZN12_GLOBAL__N_139TestStreamingIntWritesCorrectCharactersC2Ev:
 917              	.LFB1101:
  31:TestMemoryOutStream.cpp **** 
  32:TestMemoryOutStream.cpp **** TEST(StreamingIntWritesCorrectCharacters)
 918              		.loc 3 32 0
 919              		.cfi_startproc
 920 057e 55       		pushq	%rbp
 921              		.cfi_def_cfa_offset 16
 922              		.cfi_offset 6, -16
 923 057f 4889E5   		movq	%rsp, %rbp
 924              		.cfi_def_cfa_register 6
 925 0582 53       		pushq	%rbx
 926 0583 4883EC18 		subq	$24, %rsp
 927              		.cfi_offset 3, -24
 928 0587 48897DE8 		movq	%rdi, -24(%rbp)
 929              	.LBB7:
 930              		.loc 3 32 0
 931 058b 488B5DE8 		movq	-24(%rbp), %rbx
 932 058f E8000000 		call	_ZN13UnitTestSuite12GetSuiteNameEv
 932      00
 933 0594 41B82000 		movl	$32, %r8d
 933      0000
 934 059a 488D0D00 		leaq	.LC1(%rip), %rcx
 934      000000
 935 05a1 4889C2   		movq	%rax, %rdx
 936 05a4 488D3500 		leaq	.LC16(%rip), %rsi
 936      000000
 937 05ab 4889DF   		movq	%rbx, %rdi
 938 05ae E8000000 		call	_ZN8UnitTest4TestC2EPKcS2_S2_i@PLT
 938      00
 939 05b3 488D1500 		leaq	16+_ZTVN12_GLOBAL__N_139TestStreamingIntWritesCorrectCharactersE(%rip), %rdx
 939      000000
 940 05ba 488B45E8 		movq	-24(%rbp), %rax
 941 05be 488910   		movq	%rdx, (%rax)
 942              	.LBE7:
 943 05c1 90       		nop
 944 05c2 4883C418 		addq	$24, %rsp
 945 05c6 5B       		popq	%rbx
 946 05c7 5D       		popq	%rbp
 947              		.cfi_def_cfa 7, 8
 948 05c8 C3       		ret
 949              		.cfi_endproc
 950              	.LFE1101:
 952              		.set	_ZN12_GLOBAL__N_139TestStreamingIntWritesCorrectCharactersC1Ev,_ZN12_GLOBAL__N_139TestStreami
 953              		.local	_ZN12_GLOBAL__N_147testStreamingIntWritesCorrectCharactersInstanceE
 954              		.comm	_ZN12_GLOBAL__N_147testStreamingIntWritesCorrectCharactersInstanceE,56,32
 955              		.local	_ZN12_GLOBAL__N_140adderStreamingIntWritesCorrectCharactersE
 956              		.comm	_ZN12_GLOBAL__N_140adderStreamingIntWritesCorrectCharactersE,1,1
 957              		.section	.rodata
 958              	.LC17:
 959 01e4 31323300 		.string	"123"
 960              		.align 8
 961              	.LC18:
 962 01e8 556E6861 		.string	"Unhandled exception in CHECK_EQUAL(\"123\", stream.GetText())"
 962      6E646C65 
 962      64206578 
 962      63657074 
 962      696F6E20 
 963              		.text
 964 05c9 90       		.align 2
 966              	_ZNK12_GLOBAL__N_139TestStreamingIntWritesCorrectCharacters7RunImplEv:
 967              	.LFB1103:
  33:TestMemoryOutStream.cpp **** {
 968              		.loc 3 33 0
 969              		.cfi_startproc
 970              		.cfi_personality 0x9b,DW.ref.__gxx_personality_v0
 971              		.cfi_lsda 0x1b,.LLSDA1103
 972 05ca 55       		pushq	%rbp
 973              		.cfi_def_cfa_offset 16
 974              		.cfi_offset 6, -16
 975 05cb 4889E5   		movq	%rsp, %rbp
 976              		.cfi_def_cfa_register 6
 977 05ce 53       		pushq	%rbx
 978 05cf 4881ECD8 		subq	$472, %rsp
 978      010000
 979              		.cfi_offset 3, -24
 980 05d6 4889BD28 		movq	%rdi, -472(%rbp)
 980      FEFFFF
 981              		.loc 3 33 0
 982 05dd 64488B04 		movq	%fs:40, %rax
 982      25280000 
 982      00
 983 05e6 488945E8 		movq	%rax, -24(%rbp)
 984 05ea 31C0     		xorl	%eax, %eax
  34:TestMemoryOutStream.cpp ****     MemoryOutStream stream;
 985              		.loc 3 34 0
 986 05ec 488D8550 		leaq	-432(%rbp), %rax
 986      FEFFFF
 987 05f3 4889C7   		movq	%rax, %rdi
 988              	.LEHB27:
 989 05f6 E8000000 		call	_ZN8UnitTest15MemoryOutStreamC1Ev
 989      00
 990              	.LEHE27:
  35:TestMemoryOutStream.cpp ****     stream << (int)123;
 991              		.loc 3 35 0
 992 05fb 488D8550 		leaq	-432(%rbp), %rax
 992      FEFFFF
 993 0602 BE7B0000 		movl	$123, %esi
 993      00
 994 0607 4889C7   		movq	%rax, %rdi
 995              	.LEHB28:
 996 060a E8000000 		call	_ZNSolsEi@PLT
 996      00
 997              	.LEHE28:
 998              	.LEHB29:
  36:TestMemoryOutStream.cpp ****     CHECK_EQUAL("123", stream.GetText());
 999              		.loc 3 36 0
 1000 060f E8000000 		call	_ZN8UnitTest11CurrentTest7DetailsEv@PLT
 1000      00
 1001 0614 488B08   		movq	(%rax), %rcx
 1002 0617 488D8530 		leaq	-464(%rbp), %rax
 1002      FEFFFF
 1003 061e BA240000 		movl	$36, %edx
 1003      00
 1004 0623 4889CE   		movq	%rcx, %rsi
 1005 0626 4889C7   		movq	%rax, %rdi
 1006 0629 E8000000 		call	_ZN8UnitTest11TestDetailsC1ERKS0_i@PLT
 1006      00
 1007              		.loc 3 36 0 is_stmt 0 discriminator 2
 1008 062e 488D8550 		leaq	-432(%rbp), %rax
 1008      FEFFFF
 1009 0635 4889C7   		movq	%rax, %rdi
 1010 0638 E8000000 		call	_ZNK8UnitTest15MemoryOutStream7GetTextEv@PLT
 1010      00
 1011 063d 4889C3   		movq	%rax, %rbx
 1012 0640 E8000000 		call	_ZN8UnitTest11CurrentTest7ResultsEv@PLT
 1012      00
 1013              		.loc 3 36 0 discriminator 4
 1014 0645 488B00   		movq	(%rax), %rax
 1015 0648 488D9530 		leaq	-464(%rbp), %rdx
 1015      FEFFFF
 1016 064f 4889D1   		movq	%rdx, %rcx
 1017 0652 4889DA   		movq	%rbx, %rdx
 1018 0655 488D3500 		leaq	.LC17(%rip), %rsi
 1018      000000
 1019 065c 4889C7   		movq	%rax, %rdi
 1020 065f E8000000 		call	_ZN8UnitTest10CheckEqualERNS_11TestResultsEPKcS3_RKNS_11TestDetailsE@PLT
 1020      00
 1021              	.LEHE29:
 1022              	.L51:
  34:TestMemoryOutStream.cpp ****     MemoryOutStream stream;
 1023              		.loc 3 34 0 is_stmt 1
 1024 0664 488D8550 		leaq	-432(%rbp), %rax
 1024      FEFFFF
 1025 066b 4889C7   		movq	%rax, %rdi
 1026              	.LEHB30:
 1027 066e E8000000 		call	_ZN8UnitTest15MemoryOutStreamD1Ev
 1027      00
 1028              	.LEHE30:
  37:TestMemoryOutStream.cpp **** }
 1029              		.loc 3 37 0
 1030 0673 90       		nop
 1031 0674 488B45E8 		movq	-24(%rbp), %rax
 1032 0678 64483304 		xorq	%fs:40, %rax
 1032      25280000 
 1032      00
 1033 0681 747D     		je	.L54
 1034 0683 EB76     		jmp	.L58
 1035              	.L56:
  36:TestMemoryOutStream.cpp ****     CHECK_EQUAL("123", stream.GetText());
 1036              		.loc 3 36 0
 1037 0685 4889C7   		movq	%rax, %rdi
 1038 0688 E8000000 		call	__cxa_begin_catch@PLT
 1038      00
 1039              	.LEHB31:
 1040 068d E8000000 		call	_ZN8UnitTest11CurrentTest7ResultsEv@PLT
 1040      00
 1041 0692 488B18   		movq	(%rax), %rbx
 1042 0695 E8000000 		call	_ZN8UnitTest11CurrentTest7DetailsEv@PLT
 1042      00
  36:TestMemoryOutStream.cpp ****     CHECK_EQUAL("123", stream.GetText());
 1043              		.loc 3 36 0 is_stmt 0 discriminator 10
 1044 069a 488B08   		movq	(%rax), %rcx
 1045 069d 488D8530 		leaq	-464(%rbp), %rax
 1045      FEFFFF
 1046 06a4 BA240000 		movl	$36, %edx
 1046      00
 1047 06a9 4889CE   		movq	%rcx, %rsi
 1048 06ac 4889C7   		movq	%rax, %rdi
 1049 06af E8000000 		call	_ZN8UnitTest11TestDetailsC1ERKS0_i@PLT
 1049      00
  36:TestMemoryOutStream.cpp ****     CHECK_EQUAL("123", stream.GetText());
 1050              		.loc 3 36 0 discriminator 14
 1051 06b4 488D8530 		leaq	-464(%rbp), %rax
 1051      FEFFFF
 1052 06bb 488D1500 		leaq	.LC18(%rip), %rdx
 1052      000000
 1053 06c2 4889C6   		movq	%rax, %rsi
 1054 06c5 4889DF   		movq	%rbx, %rdi
 1055 06c8 E8000000 		call	_ZN8UnitTest11TestResults13OnTestFailureERKNS_11TestDetailsEPKc@PLT
 1055      00
 1056              	.LEHE31:
 1057              	.LEHB32:
  36:TestMemoryOutStream.cpp ****     CHECK_EQUAL("123", stream.GetText());
 1058              		.loc 3 36 0 discriminator 16
 1059 06cd E8000000 		call	__cxa_end_catch@PLT
 1059      00
 1060              	.LEHE32:
  36:TestMemoryOutStream.cpp ****     CHECK_EQUAL("123", stream.GetText());
 1061              		.loc 3 36 0
 1062 06d2 EB90     		jmp	.L51
 1063              	.L57:
 1064 06d4 4889C3   		movq	%rax, %rbx
 1065 06d7 E8000000 		call	__cxa_end_catch@PLT
 1065      00
 1066 06dc EB03     		jmp	.L53
 1067              	.L55:
 1068 06de 4889C3   		movq	%rax, %rbx
 1069              	.L53:
  34:TestMemoryOutStream.cpp ****     stream << (int)123;
 1070              		.loc 3 34 0 is_stmt 1
 1071 06e1 488D8550 		leaq	-432(%rbp), %rax
 1071      FEFFFF
 1072 06e8 4889C7   		movq	%rax, %rdi
 1073 06eb E8000000 		call	_ZN8UnitTest15MemoryOutStreamD1Ev
 1073      00
 1074 06f0 4889D8   		movq	%rbx, %rax
 1075 06f3 4889C7   		movq	%rax, %rdi
 1076              	.LEHB33:
 1077 06f6 E8000000 		call	_Unwind_Resume@PLT
 1077      00
 1078              	.LEHE33:
 1079              	.L58:
 1080              		.loc 3 37 0
 1081 06fb E8000000 		call	__stack_chk_fail@PLT
 1081      00
 1082              	.L54:
 1083 0700 4881C4D8 		addq	$472, %rsp
 1083      010000
 1084 0707 5B       		popq	%rbx
 1085 0708 5D       		popq	%rbp
 1086              		.cfi_def_cfa 7, 8
 1087 0709 C3       		ret
 1088              		.cfi_endproc
 1089              	.LFE1103:
 1090              		.section	.gcc_except_table
 1091              		.align 4
 1092              	.LLSDA1103:
 1093 009c FF       		.byte	0xff
 1094 009d 9B       		.byte	0x9b
 1095 009e 2D       		.uleb128 .LLSDATT1103-.LLSDATTD1103
 1096              	.LLSDATTD1103:
 1097 009f 01       		.byte	0x1
 1098 00a0 24       		.uleb128 .LLSDACSE1103-.LLSDACSB1103
 1099              	.LLSDACSB1103:
 1100 00a1 2C       		.uleb128 .LEHB27-.LFB1103
 1101 00a2 05       		.uleb128 .LEHE27-.LEHB27
 1102 00a3 00       		.uleb128 0
 1103 00a4 00       		.uleb128 0
 1104 00a5 40       		.uleb128 .LEHB28-.LFB1103
 1105 00a6 05       		.uleb128 .LEHE28-.LEHB28
 1106 00a7 9402     		.uleb128 .L55-.LFB1103
 1107 00a9 00       		.uleb128 0
 1108 00aa 45       		.uleb128 .LEHB29-.LFB1103
 1109 00ab 55       		.uleb128 .LEHE29-.LEHB29
 1110 00ac BB01     		.uleb128 .L56-.LFB1103
 1111 00ae 01       		.uleb128 0x1
 1112 00af A401     		.uleb128 .LEHB30-.LFB1103
 1113 00b1 05       		.uleb128 .LEHE30-.LEHB30
 1114 00b2 00       		.uleb128 0
 1115 00b3 00       		.uleb128 0
 1116 00b4 C301     		.uleb128 .LEHB31-.LFB1103
 1117 00b6 40       		.uleb128 .LEHE31-.LEHB31
 1118 00b7 8A02     		.uleb128 .L57-.LFB1103
 1119 00b9 00       		.uleb128 0
 1120 00ba 8302     		.uleb128 .LEHB32-.LFB1103
 1121 00bc 05       		.uleb128 .LEHE32-.LEHB32
 1122 00bd 9402     		.uleb128 .L55-.LFB1103
 1123 00bf 00       		.uleb128 0
 1124 00c0 AC02     		.uleb128 .LEHB33-.LFB1103
 1125 00c2 05       		.uleb128 .LEHE33-.LEHB33
 1126 00c3 00       		.uleb128 0
 1127 00c4 00       		.uleb128 0
 1128              	.LLSDACSE1103:
 1129 00c5 01       		.byte	0x1
 1130 00c6 00       		.byte	0
 1131 00c7 00       		.align 4
 1132 00c8 00000000 		.long	0
 1133              	
 1134              	.LLSDATT1103:
 1135              		.text
 1137              		.section	.rodata
 1138 0224 00000000 		.align 8
 1139              	.LC19:
 1140 0228 53747265 		.string	"StreamingUnsignedIntWritesCorrectCharacters"
 1140      616D696E 
 1140      67556E73 
 1140      69676E65 
 1140      64496E74 
 1141              		.text
 1142              		.align 2
 1144              	_ZN12_GLOBAL__N_147TestStreamingUnsignedIntWritesCorrectCharactersC2Ev:
 1145              	.LFB1105:
  38:TestMemoryOutStream.cpp **** 
  39:TestMemoryOutStream.cpp **** TEST(StreamingUnsignedIntWritesCorrectCharacters)
 1146              		.loc 3 39 0
 1147              		.cfi_startproc
 1148 070a 55       		pushq	%rbp
 1149              		.cfi_def_cfa_offset 16
 1150              		.cfi_offset 6, -16
 1151 070b 4889E5   		movq	%rsp, %rbp
 1152              		.cfi_def_cfa_register 6
 1153 070e 53       		pushq	%rbx
 1154 070f 4883EC18 		subq	$24, %rsp
 1155              		.cfi_offset 3, -24
 1156 0713 48897DE8 		movq	%rdi, -24(%rbp)
 1157              	.LBB8:
 1158              		.loc 3 39 0
 1159 0717 488B5DE8 		movq	-24(%rbp), %rbx
 1160 071b E8000000 		call	_ZN13UnitTestSuite12GetSuiteNameEv
 1160      00
 1161 0720 41B82700 		movl	$39, %r8d
 1161      0000
 1162 0726 488D0D00 		leaq	.LC1(%rip), %rcx
 1162      000000
 1163 072d 4889C2   		movq	%rax, %rdx
 1164 0730 488D3500 		leaq	.LC19(%rip), %rsi
 1164      000000
 1165 0737 4889DF   		movq	%rbx, %rdi
 1166 073a E8000000 		call	_ZN8UnitTest4TestC2EPKcS2_S2_i@PLT
 1166      00
 1167 073f 488D1500 		leaq	16+_ZTVN12_GLOBAL__N_147TestStreamingUnsignedIntWritesCorrectCharactersE(%rip), %rdx
 1167      000000
 1168 0746 488B45E8 		movq	-24(%rbp), %rax
 1169 074a 488910   		movq	%rdx, (%rax)
 1170              	.LBE8:
 1171 074d 90       		nop
 1172 074e 4883C418 		addq	$24, %rsp
 1173 0752 5B       		popq	%rbx
 1174 0753 5D       		popq	%rbp
 1175              		.cfi_def_cfa 7, 8
 1176 0754 C3       		ret
 1177              		.cfi_endproc
 1178              	.LFE1105:
 1180              		.set	_ZN12_GLOBAL__N_147TestStreamingUnsignedIntWritesCorrectCharactersC1Ev,_ZN12_GLOBAL__N_147Tes
 1181              		.local	_ZN12_GLOBAL__N_155testStreamingUnsignedIntWritesCorrectCharactersInstanceE
 1182              		.comm	_ZN12_GLOBAL__N_155testStreamingUnsignedIntWritesCorrectCharactersInstanceE,56,32
 1183              		.local	_ZN12_GLOBAL__N_148adderStreamingUnsignedIntWritesCorrectCharactersE
 1184              		.comm	_ZN12_GLOBAL__N_148adderStreamingUnsignedIntWritesCorrectCharactersE,1,1
 1185 0755 90       		.align 2
 1187              	_ZNK12_GLOBAL__N_147TestStreamingUnsignedIntWritesCorrectCharacters7RunImplEv:
 1188              	.LFB1107:
  40:TestMemoryOutStream.cpp **** {
 1189              		.loc 3 40 0
 1190              		.cfi_startproc
 1191              		.cfi_personality 0x9b,DW.ref.__gxx_personality_v0
 1192              		.cfi_lsda 0x1b,.LLSDA1107
 1193 0756 55       		pushq	%rbp
 1194              		.cfi_def_cfa_offset 16
 1195              		.cfi_offset 6, -16
 1196 0757 4889E5   		movq	%rsp, %rbp
 1197              		.cfi_def_cfa_register 6
 1198 075a 53       		pushq	%rbx
 1199 075b 4881ECD8 		subq	$472, %rsp
 1199      010000
 1200              		.cfi_offset 3, -24
 1201 0762 4889BD28 		movq	%rdi, -472(%rbp)
 1201      FEFFFF
 1202              		.loc 3 40 0
 1203 0769 64488B04 		movq	%fs:40, %rax
 1203      25280000 
 1203      00
 1204 0772 488945E8 		movq	%rax, -24(%rbp)
 1205 0776 31C0     		xorl	%eax, %eax
  41:TestMemoryOutStream.cpp ****     MemoryOutStream stream;
 1206              		.loc 3 41 0
 1207 0778 488D8550 		leaq	-432(%rbp), %rax
 1207      FEFFFF
 1208 077f 4889C7   		movq	%rax, %rdi
 1209              	.LEHB34:
 1210 0782 E8000000 		call	_ZN8UnitTest15MemoryOutStreamC1Ev
 1210      00
 1211              	.LEHE34:
  42:TestMemoryOutStream.cpp ****     stream << (unsigned int)123;
 1212              		.loc 3 42 0
 1213 0787 488D8550 		leaq	-432(%rbp), %rax
 1213      FEFFFF
 1214 078e BE7B0000 		movl	$123, %esi
 1214      00
 1215 0793 4889C7   		movq	%rax, %rdi
 1216              	.LEHB35:
 1217 0796 E8000000 		call	_ZNSolsEj@PLT
 1217      00
 1218              	.LEHE35:
 1219              	.LEHB36:
  43:TestMemoryOutStream.cpp ****     CHECK_EQUAL("123", stream.GetText());
 1220              		.loc 3 43 0
 1221 079b E8000000 		call	_ZN8UnitTest11CurrentTest7DetailsEv@PLT
 1221      00
 1222 07a0 488B08   		movq	(%rax), %rcx
 1223 07a3 488D8530 		leaq	-464(%rbp), %rax
 1223      FEFFFF
 1224 07aa BA2B0000 		movl	$43, %edx
 1224      00
 1225 07af 4889CE   		movq	%rcx, %rsi
 1226 07b2 4889C7   		movq	%rax, %rdi
 1227 07b5 E8000000 		call	_ZN8UnitTest11TestDetailsC1ERKS0_i@PLT
 1227      00
 1228              		.loc 3 43 0 is_stmt 0 discriminator 2
 1229 07ba 488D8550 		leaq	-432(%rbp), %rax
 1229      FEFFFF
 1230 07c1 4889C7   		movq	%rax, %rdi
 1231 07c4 E8000000 		call	_ZNK8UnitTest15MemoryOutStream7GetTextEv@PLT
 1231      00
 1232 07c9 4889C3   		movq	%rax, %rbx
 1233 07cc E8000000 		call	_ZN8UnitTest11CurrentTest7ResultsEv@PLT
 1233      00
 1234              		.loc 3 43 0 discriminator 4
 1235 07d1 488B00   		movq	(%rax), %rax
 1236 07d4 488D9530 		leaq	-464(%rbp), %rdx
 1236      FEFFFF
 1237 07db 4889D1   		movq	%rdx, %rcx
 1238 07de 4889DA   		movq	%rbx, %rdx
 1239 07e1 488D3500 		leaq	.LC17(%rip), %rsi
 1239      000000
 1240 07e8 4889C7   		movq	%rax, %rdi
 1241 07eb E8000000 		call	_ZN8UnitTest10CheckEqualERNS_11TestResultsEPKcS3_RKNS_11TestDetailsE@PLT
 1241      00
 1242              	.LEHE36:
 1243              	.L62:
  41:TestMemoryOutStream.cpp ****     MemoryOutStream stream;
 1244              		.loc 3 41 0 is_stmt 1
 1245 07f0 488D8550 		leaq	-432(%rbp), %rax
 1245      FEFFFF
 1246 07f7 4889C7   		movq	%rax, %rdi
 1247              	.LEHB37:
 1248 07fa E8000000 		call	_ZN8UnitTest15MemoryOutStreamD1Ev
 1248      00
 1249              	.LEHE37:
  44:TestMemoryOutStream.cpp **** }
 1250              		.loc 3 44 0
 1251 07ff 90       		nop
 1252 0800 488B45E8 		movq	-24(%rbp), %rax
 1253 0804 64483304 		xorq	%fs:40, %rax
 1253      25280000 
 1253      00
 1254 080d 747D     		je	.L65
 1255 080f EB76     		jmp	.L69
 1256              	.L67:
  43:TestMemoryOutStream.cpp ****     CHECK_EQUAL("123", stream.GetText());
 1257              		.loc 3 43 0
 1258 0811 4889C7   		movq	%rax, %rdi
 1259 0814 E8000000 		call	__cxa_begin_catch@PLT
 1259      00
 1260              	.LEHB38:
 1261 0819 E8000000 		call	_ZN8UnitTest11CurrentTest7ResultsEv@PLT
 1261      00
 1262 081e 488B18   		movq	(%rax), %rbx
 1263 0821 E8000000 		call	_ZN8UnitTest11CurrentTest7DetailsEv@PLT
 1263      00
  43:TestMemoryOutStream.cpp ****     CHECK_EQUAL("123", stream.GetText());
 1264              		.loc 3 43 0 is_stmt 0 discriminator 10
 1265 0826 488B08   		movq	(%rax), %rcx
 1266 0829 488D8530 		leaq	-464(%rbp), %rax
 1266      FEFFFF
 1267 0830 BA2B0000 		movl	$43, %edx
 1267      00
 1268 0835 4889CE   		movq	%rcx, %rsi
 1269 0838 4889C7   		movq	%rax, %rdi
 1270 083b E8000000 		call	_ZN8UnitTest11TestDetailsC1ERKS0_i@PLT
 1270      00
  43:TestMemoryOutStream.cpp ****     CHECK_EQUAL("123", stream.GetText());
 1271              		.loc 3 43 0 discriminator 14
 1272 0840 488D8530 		leaq	-464(%rbp), %rax
 1272      FEFFFF
 1273 0847 488D1500 		leaq	.LC18(%rip), %rdx
 1273      000000
 1274 084e 4889C6   		movq	%rax, %rsi
 1275 0851 4889DF   		movq	%rbx, %rdi
 1276 0854 E8000000 		call	_ZN8UnitTest11TestResults13OnTestFailureERKNS_11TestDetailsEPKc@PLT
 1276      00
 1277              	.LEHE38:
 1278              	.LEHB39:
  43:TestMemoryOutStream.cpp ****     CHECK_EQUAL("123", stream.GetText());
 1279              		.loc 3 43 0 discriminator 16
 1280 0859 E8000000 		call	__cxa_end_catch@PLT
 1280      00
 1281              	.LEHE39:
  43:TestMemoryOutStream.cpp ****     CHECK_EQUAL("123", stream.GetText());
 1282              		.loc 3 43 0
 1283 085e EB90     		jmp	.L62
 1284              	.L68:
 1285 0860 4889C3   		movq	%rax, %rbx
 1286 0863 E8000000 		call	__cxa_end_catch@PLT
 1286      00
 1287 0868 EB03     		jmp	.L64
 1288              	.L66:
 1289 086a 4889C3   		movq	%rax, %rbx
 1290              	.L64:
  41:TestMemoryOutStream.cpp ****     stream << (unsigned int)123;
 1291              		.loc 3 41 0 is_stmt 1
 1292 086d 488D8550 		leaq	-432(%rbp), %rax
 1292      FEFFFF
 1293 0874 4889C7   		movq	%rax, %rdi
 1294 0877 E8000000 		call	_ZN8UnitTest15MemoryOutStreamD1Ev
 1294      00
 1295 087c 4889D8   		movq	%rbx, %rax
 1296 087f 4889C7   		movq	%rax, %rdi
 1297              	.LEHB40:
 1298 0882 E8000000 		call	_Unwind_Resume@PLT
 1298      00
 1299              	.LEHE40:
 1300              	.L69:
 1301              		.loc 3 44 0
 1302 0887 E8000000 		call	__stack_chk_fail@PLT
 1302      00
 1303              	.L65:
 1304 088c 4881C4D8 		addq	$472, %rsp
 1304      010000
 1305 0893 5B       		popq	%rbx
 1306 0894 5D       		popq	%rbp
 1307              		.cfi_def_cfa 7, 8
 1308 0895 C3       		ret
 1309              		.cfi_endproc
 1310              	.LFE1107:
 1311              		.section	.gcc_except_table
 1312              		.align 4
 1313              	.LLSDA1107:
 1314 00cc FF       		.byte	0xff
 1315 00cd 9B       		.byte	0x9b
 1316 00ce 2D       		.uleb128 .LLSDATT1107-.LLSDATTD1107
 1317              	.LLSDATTD1107:
 1318 00cf 01       		.byte	0x1
 1319 00d0 24       		.uleb128 .LLSDACSE1107-.LLSDACSB1107
 1320              	.LLSDACSB1107:
 1321 00d1 2C       		.uleb128 .LEHB34-.LFB1107
 1322 00d2 05       		.uleb128 .LEHE34-.LEHB34
 1323 00d3 00       		.uleb128 0
 1324 00d4 00       		.uleb128 0
 1325 00d5 40       		.uleb128 .LEHB35-.LFB1107
 1326 00d6 05       		.uleb128 .LEHE35-.LEHB35
 1327 00d7 9402     		.uleb128 .L66-.LFB1107
 1328 00d9 00       		.uleb128 0
 1329 00da 45       		.uleb128 .LEHB36-.LFB1107
 1330 00db 55       		.uleb128 .LEHE36-.LEHB36
 1331 00dc BB01     		.uleb128 .L67-.LFB1107
 1332 00de 01       		.uleb128 0x1
 1333 00df A401     		.uleb128 .LEHB37-.LFB1107
 1334 00e1 05       		.uleb128 .LEHE37-.LEHB37
 1335 00e2 00       		.uleb128 0
 1336 00e3 00       		.uleb128 0
 1337 00e4 C301     		.uleb128 .LEHB38-.LFB1107
 1338 00e6 40       		.uleb128 .LEHE38-.LEHB38
 1339 00e7 8A02     		.uleb128 .L68-.LFB1107
 1340 00e9 00       		.uleb128 0
 1341 00ea 8302     		.uleb128 .LEHB39-.LFB1107
 1342 00ec 05       		.uleb128 .LEHE39-.LEHB39
 1343 00ed 9402     		.uleb128 .L66-.LFB1107
 1344 00ef 00       		.uleb128 0
 1345 00f0 AC02     		.uleb128 .LEHB40-.LFB1107
 1346 00f2 05       		.uleb128 .LEHE40-.LEHB40
 1347 00f3 00       		.uleb128 0
 1348 00f4 00       		.uleb128 0
 1349              	.LLSDACSE1107:
 1350 00f5 01       		.byte	0x1
 1351 00f6 00       		.byte	0
 1352 00f7 00       		.align 4
 1353 00f8 00000000 		.long	0
 1354              	
 1355              	.LLSDATT1107:
 1356              		.text
 1358              		.section	.rodata
 1359 0254 00000000 		.align 8
 1360              	.LC20:
 1361 0258 53747265 		.string	"StreamingLongWritesCorrectCharacters"
 1361      616D696E 
 1361      674C6F6E 
 1361      67577269 
 1361      74657343 
 1362              		.text
 1363              		.align 2
 1365              	_ZN12_GLOBAL__N_140TestStreamingLongWritesCorrectCharactersC2Ev:
 1366              	.LFB1109:
  45:TestMemoryOutStream.cpp **** 
  46:TestMemoryOutStream.cpp **** TEST(StreamingLongWritesCorrectCharacters)
 1367              		.loc 3 46 0
 1368              		.cfi_startproc
 1369 0896 55       		pushq	%rbp
 1370              		.cfi_def_cfa_offset 16
 1371              		.cfi_offset 6, -16
 1372 0897 4889E5   		movq	%rsp, %rbp
 1373              		.cfi_def_cfa_register 6
 1374 089a 53       		pushq	%rbx
 1375 089b 4883EC18 		subq	$24, %rsp
 1376              		.cfi_offset 3, -24
 1377 089f 48897DE8 		movq	%rdi, -24(%rbp)
 1378              	.LBB9:
 1379              		.loc 3 46 0
 1380 08a3 488B5DE8 		movq	-24(%rbp), %rbx
 1381 08a7 E8000000 		call	_ZN13UnitTestSuite12GetSuiteNameEv
 1381      00
 1382 08ac 41B82E00 		movl	$46, %r8d
 1382      0000
 1383 08b2 488D0D00 		leaq	.LC1(%rip), %rcx
 1383      000000
 1384 08b9 4889C2   		movq	%rax, %rdx
 1385 08bc 488D3500 		leaq	.LC20(%rip), %rsi
 1385      000000
 1386 08c3 4889DF   		movq	%rbx, %rdi
 1387 08c6 E8000000 		call	_ZN8UnitTest4TestC2EPKcS2_S2_i@PLT
 1387      00
 1388 08cb 488D1500 		leaq	16+_ZTVN12_GLOBAL__N_140TestStreamingLongWritesCorrectCharactersE(%rip), %rdx
 1388      000000
 1389 08d2 488B45E8 		movq	-24(%rbp), %rax
 1390 08d6 488910   		movq	%rdx, (%rax)
 1391              	.LBE9:
 1392 08d9 90       		nop
 1393 08da 4883C418 		addq	$24, %rsp
 1394 08de 5B       		popq	%rbx
 1395 08df 5D       		popq	%rbp
 1396              		.cfi_def_cfa 7, 8
 1397 08e0 C3       		ret
 1398              		.cfi_endproc
 1399              	.LFE1109:
 1401              		.set	_ZN12_GLOBAL__N_140TestStreamingLongWritesCorrectCharactersC1Ev,_ZN12_GLOBAL__N_140TestStream
 1402              		.local	_ZN12_GLOBAL__N_148testStreamingLongWritesCorrectCharactersInstanceE
 1403              		.comm	_ZN12_GLOBAL__N_148testStreamingLongWritesCorrectCharactersInstanceE,56,32
 1404              		.local	_ZN12_GLOBAL__N_141adderStreamingLongWritesCorrectCharactersE
 1405              		.comm	_ZN12_GLOBAL__N_141adderStreamingLongWritesCorrectCharactersE,1,1
 1406              		.section	.rodata
 1407              	.LC21:
 1408 027d 2D313233 		.string	"-123"
 1408      00
 1409 0282 00000000 		.align 8
 1409      0000
 1410              	.LC22:
 1411 0288 556E6861 		.string	"Unhandled exception in CHECK_EQUAL(\"-123\", stream.GetText())"
 1411      6E646C65 
 1411      64206578 
 1411      63657074 
 1411      696F6E20 
 1412              		.text
 1413 08e1 90       		.align 2
 1415              	_ZNK12_GLOBAL__N_140TestStreamingLongWritesCorrectCharacters7RunImplEv:
 1416              	.LFB1111:
  47:TestMemoryOutStream.cpp **** {
 1417              		.loc 3 47 0
 1418              		.cfi_startproc
 1419              		.cfi_personality 0x9b,DW.ref.__gxx_personality_v0
 1420              		.cfi_lsda 0x1b,.LLSDA1111
 1421 08e2 55       		pushq	%rbp
 1422              		.cfi_def_cfa_offset 16
 1423              		.cfi_offset 6, -16
 1424 08e3 4889E5   		movq	%rsp, %rbp
 1425              		.cfi_def_cfa_register 6
 1426 08e6 53       		pushq	%rbx
 1427 08e7 4881ECD8 		subq	$472, %rsp
 1427      010000
 1428              		.cfi_offset 3, -24
 1429 08ee 4889BD28 		movq	%rdi, -472(%rbp)
 1429      FEFFFF
 1430              		.loc 3 47 0
 1431 08f5 64488B04 		movq	%fs:40, %rax
 1431      25280000 
 1431      00
 1432 08fe 488945E8 		movq	%rax, -24(%rbp)
 1433 0902 31C0     		xorl	%eax, %eax
  48:TestMemoryOutStream.cpp ****     MemoryOutStream stream;
 1434              		.loc 3 48 0
 1435 0904 488D8550 		leaq	-432(%rbp), %rax
 1435      FEFFFF
 1436 090b 4889C7   		movq	%rax, %rdi
 1437              	.LEHB41:
 1438 090e E8000000 		call	_ZN8UnitTest15MemoryOutStreamC1Ev
 1438      00
 1439              	.LEHE41:
  49:TestMemoryOutStream.cpp ****     stream << (long)(-123);
 1440              		.loc 3 49 0
 1441 0913 488D8550 		leaq	-432(%rbp), %rax
 1441      FEFFFF
 1442 091a 48C7C685 		movq	$-123, %rsi
 1442      FFFFFF
 1443 0921 4889C7   		movq	%rax, %rdi
 1444              	.LEHB42:
 1445 0924 E8000000 		call	_ZNSolsEl@PLT
 1445      00
 1446              	.LEHE42:
 1447              	.LEHB43:
  50:TestMemoryOutStream.cpp ****     CHECK_EQUAL("-123", stream.GetText());
 1448              		.loc 3 50 0
 1449 0929 E8000000 		call	_ZN8UnitTest11CurrentTest7DetailsEv@PLT
 1449      00
 1450 092e 488B08   		movq	(%rax), %rcx
 1451 0931 488D8530 		leaq	-464(%rbp), %rax
 1451      FEFFFF
 1452 0938 BA320000 		movl	$50, %edx
 1452      00
 1453 093d 4889CE   		movq	%rcx, %rsi
 1454 0940 4889C7   		movq	%rax, %rdi
 1455 0943 E8000000 		call	_ZN8UnitTest11TestDetailsC1ERKS0_i@PLT
 1455      00
 1456              		.loc 3 50 0 is_stmt 0 discriminator 2
 1457 0948 488D8550 		leaq	-432(%rbp), %rax
 1457      FEFFFF
 1458 094f 4889C7   		movq	%rax, %rdi
 1459 0952 E8000000 		call	_ZNK8UnitTest15MemoryOutStream7GetTextEv@PLT
 1459      00
 1460 0957 4889C3   		movq	%rax, %rbx
 1461 095a E8000000 		call	_ZN8UnitTest11CurrentTest7ResultsEv@PLT
 1461      00
 1462              		.loc 3 50 0 discriminator 4
 1463 095f 488B00   		movq	(%rax), %rax
 1464 0962 488D9530 		leaq	-464(%rbp), %rdx
 1464      FEFFFF
 1465 0969 4889D1   		movq	%rdx, %rcx
 1466 096c 4889DA   		movq	%rbx, %rdx
 1467 096f 488D3500 		leaq	.LC21(%rip), %rsi
 1467      000000
 1468 0976 4889C7   		movq	%rax, %rdi
 1469 0979 E8000000 		call	_ZN8UnitTest10CheckEqualERNS_11TestResultsEPKcS3_RKNS_11TestDetailsE@PLT
 1469      00
 1470              	.LEHE43:
 1471              	.L73:
  48:TestMemoryOutStream.cpp ****     MemoryOutStream stream;
 1472              		.loc 3 48 0 is_stmt 1
 1473 097e 488D8550 		leaq	-432(%rbp), %rax
 1473      FEFFFF
 1474 0985 4889C7   		movq	%rax, %rdi
 1475              	.LEHB44:
 1476 0988 E8000000 		call	_ZN8UnitTest15MemoryOutStreamD1Ev
 1476      00
 1477              	.LEHE44:
  51:TestMemoryOutStream.cpp **** }
 1478              		.loc 3 51 0
 1479 098d 90       		nop
 1480 098e 488B45E8 		movq	-24(%rbp), %rax
 1481 0992 64483304 		xorq	%fs:40, %rax
 1481      25280000 
 1481      00
 1482 099b 747D     		je	.L76
 1483 099d EB76     		jmp	.L80
 1484              	.L78:
  50:TestMemoryOutStream.cpp ****     CHECK_EQUAL("-123", stream.GetText());
 1485              		.loc 3 50 0
 1486 099f 4889C7   		movq	%rax, %rdi
 1487 09a2 E8000000 		call	__cxa_begin_catch@PLT
 1487      00
 1488              	.LEHB45:
 1489 09a7 E8000000 		call	_ZN8UnitTest11CurrentTest7ResultsEv@PLT
 1489      00
 1490 09ac 488B18   		movq	(%rax), %rbx
 1491 09af E8000000 		call	_ZN8UnitTest11CurrentTest7DetailsEv@PLT
 1491      00
  50:TestMemoryOutStream.cpp ****     CHECK_EQUAL("-123", stream.GetText());
 1492              		.loc 3 50 0 is_stmt 0 discriminator 10
 1493 09b4 488B08   		movq	(%rax), %rcx
 1494 09b7 488D8530 		leaq	-464(%rbp), %rax
 1494      FEFFFF
 1495 09be BA320000 		movl	$50, %edx
 1495      00
 1496 09c3 4889CE   		movq	%rcx, %rsi
 1497 09c6 4889C7   		movq	%rax, %rdi
 1498 09c9 E8000000 		call	_ZN8UnitTest11TestDetailsC1ERKS0_i@PLT
 1498      00
  50:TestMemoryOutStream.cpp ****     CHECK_EQUAL("-123", stream.GetText());
 1499              		.loc 3 50 0 discriminator 14
 1500 09ce 488D8530 		leaq	-464(%rbp), %rax
 1500      FEFFFF
 1501 09d5 488D1500 		leaq	.LC22(%rip), %rdx
 1501      000000
 1502 09dc 4889C6   		movq	%rax, %rsi
 1503 09df 4889DF   		movq	%rbx, %rdi
 1504 09e2 E8000000 		call	_ZN8UnitTest11TestResults13OnTestFailureERKNS_11TestDetailsEPKc@PLT
 1504      00
 1505              	.LEHE45:
 1506              	.LEHB46:
  50:TestMemoryOutStream.cpp ****     CHECK_EQUAL("-123", stream.GetText());
 1507              		.loc 3 50 0 discriminator 16
 1508 09e7 E8000000 		call	__cxa_end_catch@PLT
 1508      00
 1509              	.LEHE46:
  50:TestMemoryOutStream.cpp ****     CHECK_EQUAL("-123", stream.GetText());
 1510              		.loc 3 50 0
 1511 09ec EB90     		jmp	.L73
 1512              	.L79:
 1513 09ee 4889C3   		movq	%rax, %rbx
 1514 09f1 E8000000 		call	__cxa_end_catch@PLT
 1514      00
 1515 09f6 EB03     		jmp	.L75
 1516              	.L77:
 1517 09f8 4889C3   		movq	%rax, %rbx
 1518              	.L75:
  48:TestMemoryOutStream.cpp ****     stream << (long)(-123);
 1519              		.loc 3 48 0 is_stmt 1
 1520 09fb 488D8550 		leaq	-432(%rbp), %rax
 1520      FEFFFF
 1521 0a02 4889C7   		movq	%rax, %rdi
 1522 0a05 E8000000 		call	_ZN8UnitTest15MemoryOutStreamD1Ev
 1522      00
 1523 0a0a 4889D8   		movq	%rbx, %rax
 1524 0a0d 4889C7   		movq	%rax, %rdi
 1525              	.LEHB47:
 1526 0a10 E8000000 		call	_Unwind_Resume@PLT
 1526      00
 1527              	.LEHE47:
 1528              	.L80:
 1529              		.loc 3 51 0
 1530 0a15 E8000000 		call	__stack_chk_fail@PLT
 1530      00
 1531              	.L76:
 1532 0a1a 4881C4D8 		addq	$472, %rsp
 1532      010000
 1533 0a21 5B       		popq	%rbx
 1534 0a22 5D       		popq	%rbp
 1535              		.cfi_def_cfa 7, 8
 1536 0a23 C3       		ret
 1537              		.cfi_endproc
 1538              	.LFE1111:
 1539              		.section	.gcc_except_table
 1540              		.align 4
 1541              	.LLSDA1111:
 1542 00fc FF       		.byte	0xff
 1543 00fd 9B       		.byte	0x9b
 1544 00fe 2D       		.uleb128 .LLSDATT1111-.LLSDATTD1111
 1545              	.LLSDATTD1111:
 1546 00ff 01       		.byte	0x1
 1547 0100 24       		.uleb128 .LLSDACSE1111-.LLSDACSB1111
 1548              	.LLSDACSB1111:
 1549 0101 2C       		.uleb128 .LEHB41-.LFB1111
 1550 0102 05       		.uleb128 .LEHE41-.LEHB41
 1551 0103 00       		.uleb128 0
 1552 0104 00       		.uleb128 0
 1553 0105 42       		.uleb128 .LEHB42-.LFB1111
 1554 0106 05       		.uleb128 .LEHE42-.LEHB42
 1555 0107 9602     		.uleb128 .L77-.LFB1111
 1556 0109 00       		.uleb128 0
 1557 010a 47       		.uleb128 .LEHB43-.LFB1111
 1558 010b 55       		.uleb128 .LEHE43-.LEHB43
 1559 010c BD01     		.uleb128 .L78-.LFB1111
 1560 010e 01       		.uleb128 0x1
 1561 010f A601     		.uleb128 .LEHB44-.LFB1111
 1562 0111 05       		.uleb128 .LEHE44-.LEHB44
 1563 0112 00       		.uleb128 0
 1564 0113 00       		.uleb128 0
 1565 0114 C501     		.uleb128 .LEHB45-.LFB1111
 1566 0116 40       		.uleb128 .LEHE45-.LEHB45
 1567 0117 8C02     		.uleb128 .L79-.LFB1111
 1568 0119 00       		.uleb128 0
 1569 011a 8502     		.uleb128 .LEHB46-.LFB1111
 1570 011c 05       		.uleb128 .LEHE46-.LEHB46
 1571 011d 9602     		.uleb128 .L77-.LFB1111
 1572 011f 00       		.uleb128 0
 1573 0120 AE02     		.uleb128 .LEHB47-.LFB1111
 1574 0122 05       		.uleb128 .LEHE47-.LEHB47
 1575 0123 00       		.uleb128 0
 1576 0124 00       		.uleb128 0
 1577              	.LLSDACSE1111:
 1578 0125 01       		.byte	0x1
 1579 0126 00       		.byte	0
 1580 0127 00       		.align 4
 1581 0128 00000000 		.long	0
 1582              	
 1583              	.LLSDATT1111:
 1584              		.text
 1586              		.section	.rodata
 1587 02c5 000000   		.align 8
 1588              	.LC23:
 1589 02c8 53747265 		.string	"StreamingUnsignedLongWritesCorrectCharacters"
 1589      616D696E 
 1589      67556E73 
 1589      69676E65 
 1589      644C6F6E 
 1590              		.text
 1591              		.align 2
 1593              	_ZN12_GLOBAL__N_148TestStreamingUnsignedLongWritesCorrectCharactersC2Ev:
 1594              	.LFB1113:
  52:TestMemoryOutStream.cpp **** 
  53:TestMemoryOutStream.cpp **** TEST(StreamingUnsignedLongWritesCorrectCharacters)
 1595              		.loc 3 53 0
 1596              		.cfi_startproc
 1597 0a24 55       		pushq	%rbp
 1598              		.cfi_def_cfa_offset 16
 1599              		.cfi_offset 6, -16
 1600 0a25 4889E5   		movq	%rsp, %rbp
 1601              		.cfi_def_cfa_register 6
 1602 0a28 53       		pushq	%rbx
 1603 0a29 4883EC18 		subq	$24, %rsp
 1604              		.cfi_offset 3, -24
 1605 0a2d 48897DE8 		movq	%rdi, -24(%rbp)
 1606              	.LBB10:
 1607              		.loc 3 53 0
 1608 0a31 488B5DE8 		movq	-24(%rbp), %rbx
 1609 0a35 E8000000 		call	_ZN13UnitTestSuite12GetSuiteNameEv
 1609      00
 1610 0a3a 41B83500 		movl	$53, %r8d
 1610      0000
 1611 0a40 488D0D00 		leaq	.LC1(%rip), %rcx
 1611      000000
 1612 0a47 4889C2   		movq	%rax, %rdx
 1613 0a4a 488D3500 		leaq	.LC23(%rip), %rsi
 1613      000000
 1614 0a51 4889DF   		movq	%rbx, %rdi
 1615 0a54 E8000000 		call	_ZN8UnitTest4TestC2EPKcS2_S2_i@PLT
 1615      00
 1616 0a59 488D1500 		leaq	16+_ZTVN12_GLOBAL__N_148TestStreamingUnsignedLongWritesCorrectCharactersE(%rip), %rdx
 1616      000000
 1617 0a60 488B45E8 		movq	-24(%rbp), %rax
 1618 0a64 488910   		movq	%rdx, (%rax)
 1619              	.LBE10:
 1620 0a67 90       		nop
 1621 0a68 4883C418 		addq	$24, %rsp
 1622 0a6c 5B       		popq	%rbx
 1623 0a6d 5D       		popq	%rbp
 1624              		.cfi_def_cfa 7, 8
 1625 0a6e C3       		ret
 1626              		.cfi_endproc
 1627              	.LFE1113:
 1629              		.set	_ZN12_GLOBAL__N_148TestStreamingUnsignedLongWritesCorrectCharactersC1Ev,_ZN12_GLOBAL__N_148Te
 1630              		.local	_ZN12_GLOBAL__N_156testStreamingUnsignedLongWritesCorrectCharactersInstanceE
 1631              		.comm	_ZN12_GLOBAL__N_156testStreamingUnsignedLongWritesCorrectCharactersInstanceE,56,32
 1632              		.local	_ZN12_GLOBAL__N_149adderStreamingUnsignedLongWritesCorrectCharactersE
 1633              		.comm	_ZN12_GLOBAL__N_149adderStreamingUnsignedLongWritesCorrectCharactersE,1,1
 1634 0a6f 90       		.align 2
 1636              	_ZNK12_GLOBAL__N_148TestStreamingUnsignedLongWritesCorrectCharacters7RunImplEv:
 1637              	.LFB1115:
  54:TestMemoryOutStream.cpp **** {
 1638              		.loc 3 54 0
 1639              		.cfi_startproc
 1640              		.cfi_personality 0x9b,DW.ref.__gxx_personality_v0
 1641              		.cfi_lsda 0x1b,.LLSDA1115
 1642 0a70 55       		pushq	%rbp
 1643              		.cfi_def_cfa_offset 16
 1644              		.cfi_offset 6, -16
 1645 0a71 4889E5   		movq	%rsp, %rbp
 1646              		.cfi_def_cfa_register 6
 1647 0a74 53       		pushq	%rbx
 1648 0a75 4881ECD8 		subq	$472, %rsp
 1648      010000
 1649              		.cfi_offset 3, -24
 1650 0a7c 4889BD28 		movq	%rdi, -472(%rbp)
 1650      FEFFFF
 1651              		.loc 3 54 0
 1652 0a83 64488B04 		movq	%fs:40, %rax
 1652      25280000 
 1652      00
 1653 0a8c 488945E8 		movq	%rax, -24(%rbp)
 1654 0a90 31C0     		xorl	%eax, %eax
  55:TestMemoryOutStream.cpp ****     MemoryOutStream stream;
 1655              		.loc 3 55 0
 1656 0a92 488D8550 		leaq	-432(%rbp), %rax
 1656      FEFFFF
 1657 0a99 4889C7   		movq	%rax, %rdi
 1658              	.LEHB48:
 1659 0a9c E8000000 		call	_ZN8UnitTest15MemoryOutStreamC1Ev
 1659      00
 1660              	.LEHE48:
  56:TestMemoryOutStream.cpp ****     stream << (unsigned long)123;
 1661              		.loc 3 56 0
 1662 0aa1 488D8550 		leaq	-432(%rbp), %rax
 1662      FEFFFF
 1663 0aa8 BE7B0000 		movl	$123, %esi
 1663      00
 1664 0aad 4889C7   		movq	%rax, %rdi
 1665              	.LEHB49:
 1666 0ab0 E8000000 		call	_ZNSolsEm@PLT
 1666      00
 1667              	.LEHE49:
 1668              	.LEHB50:
  57:TestMemoryOutStream.cpp ****     CHECK_EQUAL("123", stream.GetText());
 1669              		.loc 3 57 0
 1670 0ab5 E8000000 		call	_ZN8UnitTest11CurrentTest7DetailsEv@PLT
 1670      00
 1671 0aba 488B08   		movq	(%rax), %rcx
 1672 0abd 488D8530 		leaq	-464(%rbp), %rax
 1672      FEFFFF
 1673 0ac4 BA390000 		movl	$57, %edx
 1673      00
 1674 0ac9 4889CE   		movq	%rcx, %rsi
 1675 0acc 4889C7   		movq	%rax, %rdi
 1676 0acf E8000000 		call	_ZN8UnitTest11TestDetailsC1ERKS0_i@PLT
 1676      00
 1677              		.loc 3 57 0 is_stmt 0 discriminator 2
 1678 0ad4 488D8550 		leaq	-432(%rbp), %rax
 1678      FEFFFF
 1679 0adb 4889C7   		movq	%rax, %rdi
 1680 0ade E8000000 		call	_ZNK8UnitTest15MemoryOutStream7GetTextEv@PLT
 1680      00
 1681 0ae3 4889C3   		movq	%rax, %rbx
 1682 0ae6 E8000000 		call	_ZN8UnitTest11CurrentTest7ResultsEv@PLT
 1682      00
 1683              		.loc 3 57 0 discriminator 4
 1684 0aeb 488B00   		movq	(%rax), %rax
 1685 0aee 488D9530 		leaq	-464(%rbp), %rdx
 1685      FEFFFF
 1686 0af5 4889D1   		movq	%rdx, %rcx
 1687 0af8 4889DA   		movq	%rbx, %rdx
 1688 0afb 488D3500 		leaq	.LC17(%rip), %rsi
 1688      000000
 1689 0b02 4889C7   		movq	%rax, %rdi
 1690 0b05 E8000000 		call	_ZN8UnitTest10CheckEqualERNS_11TestResultsEPKcS3_RKNS_11TestDetailsE@PLT
 1690      00
 1691              	.LEHE50:
 1692              	.L84:
  55:TestMemoryOutStream.cpp ****     MemoryOutStream stream;
 1693              		.loc 3 55 0 is_stmt 1
 1694 0b0a 488D8550 		leaq	-432(%rbp), %rax
 1694      FEFFFF
 1695 0b11 4889C7   		movq	%rax, %rdi
 1696              	.LEHB51:
 1697 0b14 E8000000 		call	_ZN8UnitTest15MemoryOutStreamD1Ev
 1697      00
 1698              	.LEHE51:
  58:TestMemoryOutStream.cpp **** }
 1699              		.loc 3 58 0
 1700 0b19 90       		nop
 1701 0b1a 488B45E8 		movq	-24(%rbp), %rax
 1702 0b1e 64483304 		xorq	%fs:40, %rax
 1702      25280000 
 1702      00
 1703 0b27 747D     		je	.L87
 1704 0b29 EB76     		jmp	.L91
 1705              	.L89:
  57:TestMemoryOutStream.cpp ****     CHECK_EQUAL("123", stream.GetText());
 1706              		.loc 3 57 0
 1707 0b2b 4889C7   		movq	%rax, %rdi
 1708 0b2e E8000000 		call	__cxa_begin_catch@PLT
 1708      00
 1709              	.LEHB52:
 1710 0b33 E8000000 		call	_ZN8UnitTest11CurrentTest7ResultsEv@PLT
 1710      00
 1711 0b38 488B18   		movq	(%rax), %rbx
 1712 0b3b E8000000 		call	_ZN8UnitTest11CurrentTest7DetailsEv@PLT
 1712      00
  57:TestMemoryOutStream.cpp ****     CHECK_EQUAL("123", stream.GetText());
 1713              		.loc 3 57 0 is_stmt 0 discriminator 10
 1714 0b40 488B08   		movq	(%rax), %rcx
 1715 0b43 488D8530 		leaq	-464(%rbp), %rax
 1715      FEFFFF
 1716 0b4a BA390000 		movl	$57, %edx
 1716      00
 1717 0b4f 4889CE   		movq	%rcx, %rsi
 1718 0b52 4889C7   		movq	%rax, %rdi
 1719 0b55 E8000000 		call	_ZN8UnitTest11TestDetailsC1ERKS0_i@PLT
 1719      00
  57:TestMemoryOutStream.cpp ****     CHECK_EQUAL("123", stream.GetText());
 1720              		.loc 3 57 0 discriminator 14
 1721 0b5a 488D8530 		leaq	-464(%rbp), %rax
 1721      FEFFFF
 1722 0b61 488D1500 		leaq	.LC18(%rip), %rdx
 1722      000000
 1723 0b68 4889C6   		movq	%rax, %rsi
 1724 0b6b 4889DF   		movq	%rbx, %rdi
 1725 0b6e E8000000 		call	_ZN8UnitTest11TestResults13OnTestFailureERKNS_11TestDetailsEPKc@PLT
 1725      00
 1726              	.LEHE52:
 1727              	.LEHB53:
  57:TestMemoryOutStream.cpp ****     CHECK_EQUAL("123", stream.GetText());
 1728              		.loc 3 57 0 discriminator 16
 1729 0b73 E8000000 		call	__cxa_end_catch@PLT
 1729      00
 1730              	.LEHE53:
  57:TestMemoryOutStream.cpp ****     CHECK_EQUAL("123", stream.GetText());
 1731              		.loc 3 57 0
 1732 0b78 EB90     		jmp	.L84
 1733              	.L90:
 1734 0b7a 4889C3   		movq	%rax, %rbx
 1735 0b7d E8000000 		call	__cxa_end_catch@PLT
 1735      00
 1736 0b82 EB03     		jmp	.L86
 1737              	.L88:
 1738 0b84 4889C3   		movq	%rax, %rbx
 1739              	.L86:
  55:TestMemoryOutStream.cpp ****     stream << (unsigned long)123;
 1740              		.loc 3 55 0 is_stmt 1
 1741 0b87 488D8550 		leaq	-432(%rbp), %rax
 1741      FEFFFF
 1742 0b8e 4889C7   		movq	%rax, %rdi
 1743 0b91 E8000000 		call	_ZN8UnitTest15MemoryOutStreamD1Ev
 1743      00
 1744 0b96 4889D8   		movq	%rbx, %rax
 1745 0b99 4889C7   		movq	%rax, %rdi
 1746              	.LEHB54:
 1747 0b9c E8000000 		call	_Unwind_Resume@PLT
 1747      00
 1748              	.LEHE54:
 1749              	.L91:
 1750              		.loc 3 58 0
 1751 0ba1 E8000000 		call	__stack_chk_fail@PLT
 1751      00
 1752              	.L87:
 1753 0ba6 4881C4D8 		addq	$472, %rsp
 1753      010000
 1754 0bad 5B       		popq	%rbx
 1755 0bae 5D       		popq	%rbp
 1756              		.cfi_def_cfa 7, 8
 1757 0baf C3       		ret
 1758              		.cfi_endproc
 1759              	.LFE1115:
 1760              		.section	.gcc_except_table
 1761              		.align 4
 1762              	.LLSDA1115:
 1763 012c FF       		.byte	0xff
 1764 012d 9B       		.byte	0x9b
 1765 012e 2D       		.uleb128 .LLSDATT1115-.LLSDATTD1115
 1766              	.LLSDATTD1115:
 1767 012f 01       		.byte	0x1
 1768 0130 24       		.uleb128 .LLSDACSE1115-.LLSDACSB1115
 1769              	.LLSDACSB1115:
 1770 0131 2C       		.uleb128 .LEHB48-.LFB1115
 1771 0132 05       		.uleb128 .LEHE48-.LEHB48
 1772 0133 00       		.uleb128 0
 1773 0134 00       		.uleb128 0
 1774 0135 40       		.uleb128 .LEHB49-.LFB1115
 1775 0136 05       		.uleb128 .LEHE49-.LEHB49
 1776 0137 9402     		.uleb128 .L88-.LFB1115
 1777 0139 00       		.uleb128 0
 1778 013a 45       		.uleb128 .LEHB50-.LFB1115
 1779 013b 55       		.uleb128 .LEHE50-.LEHB50
 1780 013c BB01     		.uleb128 .L89-.LFB1115
 1781 013e 01       		.uleb128 0x1
 1782 013f A401     		.uleb128 .LEHB51-.LFB1115
 1783 0141 05       		.uleb128 .LEHE51-.LEHB51
 1784 0142 00       		.uleb128 0
 1785 0143 00       		.uleb128 0
 1786 0144 C301     		.uleb128 .LEHB52-.LFB1115
 1787 0146 40       		.uleb128 .LEHE52-.LEHB52
 1788 0147 8A02     		.uleb128 .L90-.LFB1115
 1789 0149 00       		.uleb128 0
 1790 014a 8302     		.uleb128 .LEHB53-.LFB1115
 1791 014c 05       		.uleb128 .LEHE53-.LEHB53
 1792 014d 9402     		.uleb128 .L88-.LFB1115
 1793 014f 00       		.uleb128 0
 1794 0150 AC02     		.uleb128 .LEHB54-.LFB1115
 1795 0152 05       		.uleb128 .LEHE54-.LEHB54
 1796 0153 00       		.uleb128 0
 1797 0154 00       		.uleb128 0
 1798              	.LLSDACSE1115:
 1799 0155 01       		.byte	0x1
 1800 0156 00       		.byte	0
 1801 0157 00       		.align 4
 1802 0158 00000000 		.long	0
 1803              	
 1804              	.LLSDATT1115:
 1805              		.text
 1807              		.section	.rodata
 1808 02f5 000000   		.align 8
 1809              	.LC24:
 1810 02f8 53747265 		.string	"StreamingFloatWritesCorrectCharacters"
 1810      616D696E 
 1810      67466C6F 
 1810      61745772 
 1810      69746573 
 1811              		.text
 1812              		.align 2
 1814              	_ZN12_GLOBAL__N_141TestStreamingFloatWritesCorrectCharactersC2Ev:
 1815              	.LFB1117:
  59:TestMemoryOutStream.cpp **** 
  60:TestMemoryOutStream.cpp **** TEST(StreamingFloatWritesCorrectCharacters)
 1816              		.loc 3 60 0
 1817              		.cfi_startproc
 1818 0bb0 55       		pushq	%rbp
 1819              		.cfi_def_cfa_offset 16
 1820              		.cfi_offset 6, -16
 1821 0bb1 4889E5   		movq	%rsp, %rbp
 1822              		.cfi_def_cfa_register 6
 1823 0bb4 53       		pushq	%rbx
 1824 0bb5 4883EC18 		subq	$24, %rsp
 1825              		.cfi_offset 3, -24
 1826 0bb9 48897DE8 		movq	%rdi, -24(%rbp)
 1827              	.LBB11:
 1828              		.loc 3 60 0
 1829 0bbd 488B5DE8 		movq	-24(%rbp), %rbx
 1830 0bc1 E8000000 		call	_ZN13UnitTestSuite12GetSuiteNameEv
 1830      00
 1831 0bc6 41B83C00 		movl	$60, %r8d
 1831      0000
 1832 0bcc 488D0D00 		leaq	.LC1(%rip), %rcx
 1832      000000
 1833 0bd3 4889C2   		movq	%rax, %rdx
 1834 0bd6 488D3500 		leaq	.LC24(%rip), %rsi
 1834      000000
 1835 0bdd 4889DF   		movq	%rbx, %rdi
 1836 0be0 E8000000 		call	_ZN8UnitTest4TestC2EPKcS2_S2_i@PLT
 1836      00
 1837 0be5 488D1500 		leaq	16+_ZTVN12_GLOBAL__N_141TestStreamingFloatWritesCorrectCharactersE(%rip), %rdx
 1837      000000
 1838 0bec 488B45E8 		movq	-24(%rbp), %rax
 1839 0bf0 488910   		movq	%rdx, (%rax)
 1840              	.LBE11:
 1841 0bf3 90       		nop
 1842 0bf4 4883C418 		addq	$24, %rsp
 1843 0bf8 5B       		popq	%rbx
 1844 0bf9 5D       		popq	%rbp
 1845              		.cfi_def_cfa 7, 8
 1846 0bfa C3       		ret
 1847              		.cfi_endproc
 1848              	.LFE1117:
 1850              		.set	_ZN12_GLOBAL__N_141TestStreamingFloatWritesCorrectCharactersC1Ev,_ZN12_GLOBAL__N_141TestStrea
 1851              		.local	_ZN12_GLOBAL__N_149testStreamingFloatWritesCorrectCharactersInstanceE
 1852              		.comm	_ZN12_GLOBAL__N_149testStreamingFloatWritesCorrectCharactersInstanceE,56,32
 1853              		.local	_ZN12_GLOBAL__N_142adderStreamingFloatWritesCorrectCharactersE
 1854              		.comm	_ZN12_GLOBAL__N_142adderStreamingFloatWritesCorrectCharactersE,1,1
 1855              		.section	.rodata
 1856              	.LC26:
 1857 031e 332E3134 		.string	"3.1415"
 1857      313500
 1858 0325 000000   		.align 8
 1859              	.LC27:
 1860 0328 73747273 		.string	"strstr(stream.GetText(), \"3.1415\")"
 1860      74722873 
 1860      74726561 
 1860      6D2E4765 
 1860      74546578 
 1861 034b 00000000 		.align 8
 1861      00
 1862              	.LC28:
 1863 0350 556E6861 		.string	"Unhandled exception in CHECK(strstr(stream.GetText(), \"3.1415\"))"
 1863      6E646C65 
 1863      64206578 
 1863      63657074 
 1863      696F6E20 
 1864              		.text
 1865 0bfb 90       		.align 2
 1867              	_ZNK12_GLOBAL__N_141TestStreamingFloatWritesCorrectCharacters7RunImplEv:
 1868              	.LFB1119:
  61:TestMemoryOutStream.cpp **** {
 1869              		.loc 3 61 0
 1870              		.cfi_startproc
 1871              		.cfi_personality 0x9b,DW.ref.__gxx_personality_v0
 1872              		.cfi_lsda 0x1b,.LLSDA1119
 1873 0bfc 55       		pushq	%rbp
 1874              		.cfi_def_cfa_offset 16
 1875              		.cfi_offset 6, -16
 1876 0bfd 4889E5   		movq	%rsp, %rbp
 1877              		.cfi_def_cfa_register 6
 1878 0c00 53       		pushq	%rbx
 1879 0c01 4881ECD8 		subq	$472, %rsp
 1879      010000
 1880              		.cfi_offset 3, -24
 1881 0c08 4889BD28 		movq	%rdi, -472(%rbp)
 1881      FEFFFF
 1882              		.loc 3 61 0
 1883 0c0f 64488B04 		movq	%fs:40, %rax
 1883      25280000 
 1883      00
 1884 0c18 488945E8 		movq	%rax, -24(%rbp)
 1885 0c1c 31C0     		xorl	%eax, %eax
  62:TestMemoryOutStream.cpp ****     MemoryOutStream stream;
 1886              		.loc 3 62 0
 1887 0c1e 488D8550 		leaq	-432(%rbp), %rax
 1887      FEFFFF
 1888 0c25 4889C7   		movq	%rax, %rdi
 1889              	.LEHB55:
 1890 0c28 E8000000 		call	_ZN8UnitTest15MemoryOutStreamC1Ev
 1890      00
 1891              	.LEHE55:
  63:TestMemoryOutStream.cpp ****     stream << 3.1415f;
 1892              		.loc 3 63 0
 1893 0c2d 488D8550 		leaq	-432(%rbp), %rax
 1893      FEFFFF
 1894 0c34 F30F1005 		movss	.LC25(%rip), %xmm0
 1894      00000000 
 1895 0c3c 4889C7   		movq	%rax, %rdi
 1896              	.LEHB56:
 1897 0c3f E8000000 		call	_ZNSolsEf@PLT
 1897      00
 1898              	.LEHE56:
  64:TestMemoryOutStream.cpp **** 	CHECK(strstr(stream.GetText(), "3.1415"));
 1899              		.loc 3 64 0
 1900 0c44 488D8550 		leaq	-432(%rbp), %rax
 1900      FEFFFF
 1901 0c4b 4889C7   		movq	%rax, %rdi
 1902              	.LEHB57:
 1903 0c4e E8000000 		call	_ZNK8UnitTest15MemoryOutStream7GetTextEv@PLT
 1903      00
 1904 0c53 488D3500 		leaq	.LC26(%rip), %rsi
 1904      000000
 1905 0c5a 4889C7   		movq	%rax, %rdi
 1906 0c5d E8000000 		call	strstr@PLT
 1906      00
 1907 0c62 4889C7   		movq	%rax, %rdi
 1908 0c65 E8000000 		call	_ZN8UnitTest5CheckIPKcEEbT_
 1908      00
 1909 0c6a 83F001   		xorl	$1, %eax
 1910 0c6d 84C0     		testb	%al, %al
 1911 0c6f 7440     		je	.L94
 1912              		.loc 3 64 0 is_stmt 0 discriminator 2
 1913 0c71 E8000000 		call	_ZN8UnitTest11CurrentTest7ResultsEv@PLT
 1913      00
 1914 0c76 488B18   		movq	(%rax), %rbx
 1915 0c79 E8000000 		call	_ZN8UnitTest11CurrentTest7DetailsEv@PLT
 1915      00
 1916              		.loc 3 64 0 discriminator 3
 1917 0c7e 488B08   		movq	(%rax), %rcx
 1918 0c81 488D8530 		leaq	-464(%rbp), %rax
 1918      FEFFFF
 1919 0c88 BA400000 		movl	$64, %edx
 1919      00
 1920 0c8d 4889CE   		movq	%rcx, %rsi
 1921 0c90 4889C7   		movq	%rax, %rdi
 1922 0c93 E8000000 		call	_ZN8UnitTest11TestDetailsC1ERKS0_i@PLT
 1922      00
 1923              		.loc 3 64 0 discriminator 5
 1924 0c98 488D8530 		leaq	-464(%rbp), %rax
 1924      FEFFFF
 1925 0c9f 488D1500 		leaq	.LC27(%rip), %rdx
 1925      000000
 1926 0ca6 4889C6   		movq	%rax, %rsi
 1927 0ca9 4889DF   		movq	%rbx, %rdi
 1928 0cac E8000000 		call	_ZN8UnitTest11TestResults13OnTestFailureERKNS_11TestDetailsEPKc@PLT
 1928      00
 1929              	.LEHE57:
 1930              	.L94:
  62:TestMemoryOutStream.cpp ****     MemoryOutStream stream;
 1931              		.loc 3 62 0 is_stmt 1
 1932 0cb1 488D8550 		leaq	-432(%rbp), %rax
 1932      FEFFFF
 1933 0cb8 4889C7   		movq	%rax, %rdi
 1934              	.LEHB58:
 1935 0cbb E8000000 		call	_ZN8UnitTest15MemoryOutStreamD1Ev
 1935      00
 1936              	.LEHE58:
  65:TestMemoryOutStream.cpp **** }
 1937              		.loc 3 65 0
 1938 0cc0 90       		nop
 1939 0cc1 488B45E8 		movq	-24(%rbp), %rax
 1940 0cc5 64483304 		xorq	%fs:40, %rax
 1940      25280000 
 1940      00
 1941 0cce 747D     		je	.L98
 1942 0cd0 EB76     		jmp	.L102
 1943              	.L100:
  64:TestMemoryOutStream.cpp **** 	CHECK(strstr(stream.GetText(), "3.1415"));
 1944              		.loc 3 64 0
 1945 0cd2 4889C7   		movq	%rax, %rdi
 1946 0cd5 E8000000 		call	__cxa_begin_catch@PLT
 1946      00
 1947              	.LEHB59:
 1948 0cda E8000000 		call	_ZN8UnitTest11CurrentTest7ResultsEv@PLT
 1948      00
 1949 0cdf 488B18   		movq	(%rax), %rbx
 1950 0ce2 E8000000 		call	_ZN8UnitTest11CurrentTest7DetailsEv@PLT
 1950      00
  64:TestMemoryOutStream.cpp **** 	CHECK(strstr(stream.GetText(), "3.1415"));
 1951              		.loc 3 64 0 is_stmt 0 discriminator 9
 1952 0ce7 488B08   		movq	(%rax), %rcx
 1953 0cea 488D8530 		leaq	-464(%rbp), %rax
 1953      FEFFFF
 1954 0cf1 BA400000 		movl	$64, %edx
 1954      00
 1955 0cf6 4889CE   		movq	%rcx, %rsi
 1956 0cf9 4889C7   		movq	%rax, %rdi
 1957 0cfc E8000000 		call	_ZN8UnitTest11TestDetailsC1ERKS0_i@PLT
 1957      00
  64:TestMemoryOutStream.cpp **** 	CHECK(strstr(stream.GetText(), "3.1415"));
 1958              		.loc 3 64 0 discriminator 13
 1959 0d01 488D8530 		leaq	-464(%rbp), %rax
 1959      FEFFFF
 1960 0d08 488D1500 		leaq	.LC28(%rip), %rdx
 1960      000000
 1961 0d0f 4889C6   		movq	%rax, %rsi
 1962 0d12 4889DF   		movq	%rbx, %rdi
 1963 0d15 E8000000 		call	_ZN8UnitTest11TestResults13OnTestFailureERKNS_11TestDetailsEPKc@PLT
 1963      00
 1964              	.LEHE59:
 1965              	.LEHB60:
  64:TestMemoryOutStream.cpp **** 	CHECK(strstr(stream.GetText(), "3.1415"));
 1966              		.loc 3 64 0 discriminator 15
 1967 0d1a E8000000 		call	__cxa_end_catch@PLT
 1967      00
 1968              	.LEHE60:
  64:TestMemoryOutStream.cpp **** 	CHECK(strstr(stream.GetText(), "3.1415"));
 1969              		.loc 3 64 0
 1970 0d1f EB90     		jmp	.L94
 1971              	.L101:
 1972 0d21 4889C3   		movq	%rax, %rbx
 1973 0d24 E8000000 		call	__cxa_end_catch@PLT
 1973      00
 1974 0d29 EB03     		jmp	.L97
 1975              	.L99:
 1976 0d2b 4889C3   		movq	%rax, %rbx
 1977              	.L97:
  62:TestMemoryOutStream.cpp ****     stream << 3.1415f;
 1978              		.loc 3 62 0 is_stmt 1
 1979 0d2e 488D8550 		leaq	-432(%rbp), %rax
 1979      FEFFFF
 1980 0d35 4889C7   		movq	%rax, %rdi
 1981 0d38 E8000000 		call	_ZN8UnitTest15MemoryOutStreamD1Ev
 1981      00
 1982 0d3d 4889D8   		movq	%rbx, %rax
 1983 0d40 4889C7   		movq	%rax, %rdi
 1984              	.LEHB61:
 1985 0d43 E8000000 		call	_Unwind_Resume@PLT
 1985      00
 1986              	.LEHE61:
 1987              	.L102:
 1988              		.loc 3 65 0
 1989 0d48 E8000000 		call	__stack_chk_fail@PLT
 1989      00
 1990              	.L98:
 1991 0d4d 4881C4D8 		addq	$472, %rsp
 1991      010000
 1992 0d54 5B       		popq	%rbx
 1993 0d55 5D       		popq	%rbp
 1994              		.cfi_def_cfa 7, 8
 1995 0d56 C3       		ret
 1996              		.cfi_endproc
 1997              	.LFE1119:
 1998              		.section	.gcc_except_table
 1999              		.align 4
 2000              	.LLSDA1119:
 2001 015c FF       		.byte	0xff
 2002 015d 9B       		.byte	0x9b
 2003 015e 2D       		.uleb128 .LLSDATT1119-.LLSDATTD1119
 2004              	.LLSDATTD1119:
 2005 015f 01       		.byte	0x1
 2006 0160 24       		.uleb128 .LLSDACSE1119-.LLSDACSB1119
 2007              	.LLSDACSB1119:
 2008 0161 2C       		.uleb128 .LEHB55-.LFB1119
 2009 0162 05       		.uleb128 .LEHE55-.LEHB55
 2010 0163 00       		.uleb128 0
 2011 0164 00       		.uleb128 0
 2012 0165 43       		.uleb128 .LEHB56-.LFB1119
 2013 0166 05       		.uleb128 .LEHE56-.LEHB56
 2014 0167 AF02     		.uleb128 .L99-.LFB1119
 2015 0169 00       		.uleb128 0
 2016 016a 52       		.uleb128 .LEHB57-.LFB1119
 2017 016b 63       		.uleb128 .LEHE57-.LEHB57
 2018 016c D601     		.uleb128 .L100-.LFB1119
 2019 016e 01       		.uleb128 0x1
 2020 016f BF01     		.uleb128 .LEHB58-.LFB1119
 2021 0171 05       		.uleb128 .LEHE58-.LEHB58
 2022 0172 00       		.uleb128 0
 2023 0173 00       		.uleb128 0
 2024 0174 DE01     		.uleb128 .LEHB59-.LFB1119
 2025 0176 40       		.uleb128 .LEHE59-.LEHB59
 2026 0177 A502     		.uleb128 .L101-.LFB1119
 2027 0179 00       		.uleb128 0
 2028 017a 9E02     		.uleb128 .LEHB60-.LFB1119
 2029 017c 05       		.uleb128 .LEHE60-.LEHB60
 2030 017d AF02     		.uleb128 .L99-.LFB1119
 2031 017f 00       		.uleb128 0
 2032 0180 C702     		.uleb128 .LEHB61-.LFB1119
 2033 0182 05       		.uleb128 .LEHE61-.LEHB61
 2034 0183 00       		.uleb128 0
 2035 0184 00       		.uleb128 0
 2036              	.LLSDACSE1119:
 2037 0185 01       		.byte	0x1
 2038 0186 00       		.byte	0
 2039 0187 00       		.align 4
 2040 0188 00000000 		.long	0
 2041              	
 2042              	.LLSDATT1119:
 2043              		.text
 2045              		.section	.rodata
 2046 0391 00000000 		.align 8
 2046      000000
 2047              	.LC29:
 2048 0398 53747265 		.string	"StreamingDoubleWritesCorrectCharacters"
 2048      616D696E 
 2048      67446F75 
 2048      626C6557 
 2048      72697465 
 2049              		.text
 2050 0d57 90       		.align 2
 2052              	_ZN12_GLOBAL__N_142TestStreamingDoubleWritesCorrectCharactersC2Ev:
 2053              	.LFB1121:
  66:TestMemoryOutStream.cpp **** 
  67:TestMemoryOutStream.cpp **** TEST(StreamingDoubleWritesCorrectCharacters)
 2054              		.loc 3 67 0
 2055              		.cfi_startproc
 2056 0d58 55       		pushq	%rbp
 2057              		.cfi_def_cfa_offset 16
 2058              		.cfi_offset 6, -16
 2059 0d59 4889E5   		movq	%rsp, %rbp
 2060              		.cfi_def_cfa_register 6
 2061 0d5c 53       		pushq	%rbx
 2062 0d5d 4883EC18 		subq	$24, %rsp
 2063              		.cfi_offset 3, -24
 2064 0d61 48897DE8 		movq	%rdi, -24(%rbp)
 2065              	.LBB12:
 2066              		.loc 3 67 0
 2067 0d65 488B5DE8 		movq	-24(%rbp), %rbx
 2068 0d69 E8000000 		call	_ZN13UnitTestSuite12GetSuiteNameEv
 2068      00
 2069 0d6e 41B84300 		movl	$67, %r8d
 2069      0000
 2070 0d74 488D0D00 		leaq	.LC1(%rip), %rcx
 2070      000000
 2071 0d7b 4889C2   		movq	%rax, %rdx
 2072 0d7e 488D3500 		leaq	.LC29(%rip), %rsi
 2072      000000
 2073 0d85 4889DF   		movq	%rbx, %rdi
 2074 0d88 E8000000 		call	_ZN8UnitTest4TestC2EPKcS2_S2_i@PLT
 2074      00
 2075 0d8d 488D1500 		leaq	16+_ZTVN12_GLOBAL__N_142TestStreamingDoubleWritesCorrectCharactersE(%rip), %rdx
 2075      000000
 2076 0d94 488B45E8 		movq	-24(%rbp), %rax
 2077 0d98 488910   		movq	%rdx, (%rax)
 2078              	.LBE12:
 2079 0d9b 90       		nop
 2080 0d9c 4883C418 		addq	$24, %rsp
 2081 0da0 5B       		popq	%rbx
 2082 0da1 5D       		popq	%rbp
 2083              		.cfi_def_cfa 7, 8
 2084 0da2 C3       		ret
 2085              		.cfi_endproc
 2086              	.LFE1121:
 2088              		.set	_ZN12_GLOBAL__N_142TestStreamingDoubleWritesCorrectCharactersC1Ev,_ZN12_GLOBAL__N_142TestStre
 2089              		.local	_ZN12_GLOBAL__N_150testStreamingDoubleWritesCorrectCharactersInstanceE
 2090              		.comm	_ZN12_GLOBAL__N_150testStreamingDoubleWritesCorrectCharactersInstanceE,56,32
 2091              		.local	_ZN12_GLOBAL__N_143adderStreamingDoubleWritesCorrectCharactersE
 2092              		.comm	_ZN12_GLOBAL__N_143adderStreamingDoubleWritesCorrectCharactersE,1,1
 2093 0da3 90       		.align 2
 2095              	_ZNK12_GLOBAL__N_142TestStreamingDoubleWritesCorrectCharacters7RunImplEv:
 2096              	.LFB1123:
  68:TestMemoryOutStream.cpp **** {
 2097              		.loc 3 68 0
 2098              		.cfi_startproc
 2099              		.cfi_personality 0x9b,DW.ref.__gxx_personality_v0
 2100              		.cfi_lsda 0x1b,.LLSDA1123
 2101 0da4 55       		pushq	%rbp
 2102              		.cfi_def_cfa_offset 16
 2103              		.cfi_offset 6, -16
 2104 0da5 4889E5   		movq	%rsp, %rbp
 2105              		.cfi_def_cfa_register 6
 2106 0da8 53       		pushq	%rbx
 2107 0da9 4881ECD8 		subq	$472, %rsp
 2107      010000
 2108              		.cfi_offset 3, -24
 2109 0db0 4889BD28 		movq	%rdi, -472(%rbp)
 2109      FEFFFF
 2110              		.loc 3 68 0
 2111 0db7 64488B04 		movq	%fs:40, %rax
 2111      25280000 
 2111      00
 2112 0dc0 488945E8 		movq	%rax, -24(%rbp)
 2113 0dc4 31C0     		xorl	%eax, %eax
  69:TestMemoryOutStream.cpp **** 	MemoryOutStream stream;
 2114              		.loc 3 69 0
 2115 0dc6 488D8550 		leaq	-432(%rbp), %rax
 2115      FEFFFF
 2116 0dcd 4889C7   		movq	%rax, %rdi
 2117              	.LEHB62:
 2118 0dd0 E8000000 		call	_ZN8UnitTest15MemoryOutStreamC1Ev
 2118      00
 2119              	.LEHE62:
  70:TestMemoryOutStream.cpp **** 	stream << 3.1415;
 2120              		.loc 3 70 0
 2121 0dd5 488B1500 		movq	.LC30(%rip), %rdx
 2121      000000
 2122 0ddc 488D8550 		leaq	-432(%rbp), %rax
 2122      FEFFFF
 2123 0de3 48899520 		movq	%rdx, -480(%rbp)
 2123      FEFFFF
 2124 0dea F20F1085 		movsd	-480(%rbp), %xmm0
 2124      20FEFFFF 
 2125 0df2 4889C7   		movq	%rax, %rdi
 2126              	.LEHB63:
 2127 0df5 E8000000 		call	_ZNSolsEd@PLT
 2127      00
 2128              	.LEHE63:
  71:TestMemoryOutStream.cpp **** 	CHECK(strstr(stream.GetText(), "3.1415"));
 2129              		.loc 3 71 0
 2130 0dfa 488D8550 		leaq	-432(%rbp), %rax
 2130      FEFFFF
 2131 0e01 4889C7   		movq	%rax, %rdi
 2132              	.LEHB64:
 2133 0e04 E8000000 		call	_ZNK8UnitTest15MemoryOutStream7GetTextEv@PLT
 2133      00
 2134 0e09 488D3500 		leaq	.LC26(%rip), %rsi
 2134      000000
 2135 0e10 4889C7   		movq	%rax, %rdi
 2136 0e13 E8000000 		call	strstr@PLT
 2136      00
 2137 0e18 4889C7   		movq	%rax, %rdi
 2138 0e1b E8000000 		call	_ZN8UnitTest5CheckIPKcEEbT_
 2138      00
 2139 0e20 83F001   		xorl	$1, %eax
 2140 0e23 84C0     		testb	%al, %al
 2141 0e25 7440     		je	.L105
 2142              		.loc 3 71 0 is_stmt 0 discriminator 2
 2143 0e27 E8000000 		call	_ZN8UnitTest11CurrentTest7ResultsEv@PLT
 2143      00
 2144 0e2c 488B18   		movq	(%rax), %rbx
 2145 0e2f E8000000 		call	_ZN8UnitTest11CurrentTest7DetailsEv@PLT
 2145      00
 2146              		.loc 3 71 0 discriminator 3
 2147 0e34 488B08   		movq	(%rax), %rcx
 2148 0e37 488D8530 		leaq	-464(%rbp), %rax
 2148      FEFFFF
 2149 0e3e BA470000 		movl	$71, %edx
 2149      00
 2150 0e43 4889CE   		movq	%rcx, %rsi
 2151 0e46 4889C7   		movq	%rax, %rdi
 2152 0e49 E8000000 		call	_ZN8UnitTest11TestDetailsC1ERKS0_i@PLT
 2152      00
 2153              		.loc 3 71 0 discriminator 5
 2154 0e4e 488D8530 		leaq	-464(%rbp), %rax
 2154      FEFFFF
 2155 0e55 488D1500 		leaq	.LC27(%rip), %rdx
 2155      000000
 2156 0e5c 4889C6   		movq	%rax, %rsi
 2157 0e5f 4889DF   		movq	%rbx, %rdi
 2158 0e62 E8000000 		call	_ZN8UnitTest11TestResults13OnTestFailureERKNS_11TestDetailsEPKc@PLT
 2158      00
 2159              	.LEHE64:
 2160              	.L105:
  69:TestMemoryOutStream.cpp **** 	MemoryOutStream stream;
 2161              		.loc 3 69 0 is_stmt 1
 2162 0e67 488D8550 		leaq	-432(%rbp), %rax
 2162      FEFFFF
 2163 0e6e 4889C7   		movq	%rax, %rdi
 2164              	.LEHB65:
 2165 0e71 E8000000 		call	_ZN8UnitTest15MemoryOutStreamD1Ev
 2165      00
 2166              	.LEHE65:
  72:TestMemoryOutStream.cpp **** }
 2167              		.loc 3 72 0
 2168 0e76 90       		nop
 2169 0e77 488B45E8 		movq	-24(%rbp), %rax
 2170 0e7b 64483304 		xorq	%fs:40, %rax
 2170      25280000 
 2170      00
 2171 0e84 747D     		je	.L109
 2172 0e86 EB76     		jmp	.L113
 2173              	.L111:
  71:TestMemoryOutStream.cpp **** 	CHECK(strstr(stream.GetText(), "3.1415"));
 2174              		.loc 3 71 0
 2175 0e88 4889C7   		movq	%rax, %rdi
 2176 0e8b E8000000 		call	__cxa_begin_catch@PLT
 2176      00
 2177              	.LEHB66:
 2178 0e90 E8000000 		call	_ZN8UnitTest11CurrentTest7ResultsEv@PLT
 2178      00
 2179 0e95 488B18   		movq	(%rax), %rbx
 2180 0e98 E8000000 		call	_ZN8UnitTest11CurrentTest7DetailsEv@PLT
 2180      00
  71:TestMemoryOutStream.cpp **** 	CHECK(strstr(stream.GetText(), "3.1415"));
 2181              		.loc 3 71 0 is_stmt 0 discriminator 9
 2182 0e9d 488B08   		movq	(%rax), %rcx
 2183 0ea0 488D8530 		leaq	-464(%rbp), %rax
 2183      FEFFFF
 2184 0ea7 BA470000 		movl	$71, %edx
 2184      00
 2185 0eac 4889CE   		movq	%rcx, %rsi
 2186 0eaf 4889C7   		movq	%rax, %rdi
 2187 0eb2 E8000000 		call	_ZN8UnitTest11TestDetailsC1ERKS0_i@PLT
 2187      00
  71:TestMemoryOutStream.cpp **** 	CHECK(strstr(stream.GetText(), "3.1415"));
 2188              		.loc 3 71 0 discriminator 13
 2189 0eb7 488D8530 		leaq	-464(%rbp), %rax
 2189      FEFFFF
 2190 0ebe 488D1500 		leaq	.LC28(%rip), %rdx
 2190      000000
 2191 0ec5 4889C6   		movq	%rax, %rsi
 2192 0ec8 4889DF   		movq	%rbx, %rdi
 2193 0ecb E8000000 		call	_ZN8UnitTest11TestResults13OnTestFailureERKNS_11TestDetailsEPKc@PLT
 2193      00
 2194              	.LEHE66:
 2195              	.LEHB67:
  71:TestMemoryOutStream.cpp **** 	CHECK(strstr(stream.GetText(), "3.1415"));
 2196              		.loc 3 71 0 discriminator 15
 2197 0ed0 E8000000 		call	__cxa_end_catch@PLT
 2197      00
 2198              	.LEHE67:
  71:TestMemoryOutStream.cpp **** 	CHECK(strstr(stream.GetText(), "3.1415"));
 2199              		.loc 3 71 0
 2200 0ed5 EB90     		jmp	.L105
 2201              	.L112:
 2202 0ed7 4889C3   		movq	%rax, %rbx
 2203 0eda E8000000 		call	__cxa_end_catch@PLT
 2203      00
 2204 0edf EB03     		jmp	.L108
 2205              	.L110:
 2206 0ee1 4889C3   		movq	%rax, %rbx
 2207              	.L108:
  69:TestMemoryOutStream.cpp **** 	stream << 3.1415;
 2208              		.loc 3 69 0 is_stmt 1
 2209 0ee4 488D8550 		leaq	-432(%rbp), %rax
 2209      FEFFFF
 2210 0eeb 4889C7   		movq	%rax, %rdi
 2211 0eee E8000000 		call	_ZN8UnitTest15MemoryOutStreamD1Ev
 2211      00
 2212 0ef3 4889D8   		movq	%rbx, %rax
 2213 0ef6 4889C7   		movq	%rax, %rdi
 2214              	.LEHB68:
 2215 0ef9 E8000000 		call	_Unwind_Resume@PLT
 2215      00
 2216              	.LEHE68:
 2217              	.L113:
 2218              		.loc 3 72 0
 2219 0efe E8000000 		call	__stack_chk_fail@PLT
 2219      00
 2220              	.L109:
 2221 0f03 4881C4D8 		addq	$472, %rsp
 2221      010000
 2222 0f0a 5B       		popq	%rbx
 2223 0f0b 5D       		popq	%rbp
 2224              		.cfi_def_cfa 7, 8
 2225 0f0c C3       		ret
 2226              		.cfi_endproc
 2227              	.LFE1123:
 2228              		.section	.gcc_except_table
 2229              		.align 4
 2230              	.LLSDA1123:
 2231 018c FF       		.byte	0xff
 2232 018d 9B       		.byte	0x9b
 2233 018e 2D       		.uleb128 .LLSDATT1123-.LLSDATTD1123
 2234              	.LLSDATTD1123:
 2235 018f 01       		.byte	0x1
 2236 0190 24       		.uleb128 .LLSDACSE1123-.LLSDACSB1123
 2237              	.LLSDACSB1123:
 2238 0191 2C       		.uleb128 .LEHB62-.LFB1123
 2239 0192 05       		.uleb128 .LEHE62-.LEHB62
 2240 0193 00       		.uleb128 0
 2241 0194 00       		.uleb128 0
 2242 0195 51       		.uleb128 .LEHB63-.LFB1123
 2243 0196 05       		.uleb128 .LEHE63-.LEHB63
 2244 0197 BD02     		.uleb128 .L110-.LFB1123
 2245 0199 00       		.uleb128 0
 2246 019a 60       		.uleb128 .LEHB64-.LFB1123
 2247 019b 63       		.uleb128 .LEHE64-.LEHB64
 2248 019c E401     		.uleb128 .L111-.LFB1123
 2249 019e 01       		.uleb128 0x1
 2250 019f CD01     		.uleb128 .LEHB65-.LFB1123
 2251 01a1 05       		.uleb128 .LEHE65-.LEHB65
 2252 01a2 00       		.uleb128 0
 2253 01a3 00       		.uleb128 0
 2254 01a4 EC01     		.uleb128 .LEHB66-.LFB1123
 2255 01a6 40       		.uleb128 .LEHE66-.LEHB66
 2256 01a7 B302     		.uleb128 .L112-.LFB1123
 2257 01a9 00       		.uleb128 0
 2258 01aa AC02     		.uleb128 .LEHB67-.LFB1123
 2259 01ac 05       		.uleb128 .LEHE67-.LEHB67
 2260 01ad BD02     		.uleb128 .L110-.LFB1123
 2261 01af 00       		.uleb128 0
 2262 01b0 D502     		.uleb128 .LEHB68-.LFB1123
 2263 01b2 05       		.uleb128 .LEHE68-.LEHB68
 2264 01b3 00       		.uleb128 0
 2265 01b4 00       		.uleb128 0
 2266              	.LLSDACSE1123:
 2267 01b5 01       		.byte	0x1
 2268 01b6 00       		.byte	0
 2269 01b7 00       		.align 4
 2270 01b8 00000000 		.long	0
 2271              	
 2272              	.LLSDATT1123:
 2273              		.text
 2275              		.section	.rodata
 2276 03bf 00       		.align 8
 2277              	.LC31:
 2278 03c0 53747265 		.string	"StreamingPointerWritesCorrectCharacters"
 2278      616D696E 
 2278      67506F69 
 2278      6E746572 
 2278      57726974 
 2279              		.text
 2280 0f0d 90       		.align 2
 2282              	_ZN12_GLOBAL__N_143TestStreamingPointerWritesCorrectCharactersC2Ev:
 2283              	.LFB1125:
  73:TestMemoryOutStream.cpp **** 
  74:TestMemoryOutStream.cpp **** TEST(StreamingPointerWritesCorrectCharacters)
 2284              		.loc 3 74 0
 2285              		.cfi_startproc
 2286 0f0e 55       		pushq	%rbp
 2287              		.cfi_def_cfa_offset 16
 2288              		.cfi_offset 6, -16
 2289 0f0f 4889E5   		movq	%rsp, %rbp
 2290              		.cfi_def_cfa_register 6
 2291 0f12 53       		pushq	%rbx
 2292 0f13 4883EC18 		subq	$24, %rsp
 2293              		.cfi_offset 3, -24
 2294 0f17 48897DE8 		movq	%rdi, -24(%rbp)
 2295              	.LBB13:
 2296              		.loc 3 74 0
 2297 0f1b 488B5DE8 		movq	-24(%rbp), %rbx
 2298 0f1f E8000000 		call	_ZN13UnitTestSuite12GetSuiteNameEv
 2298      00
 2299 0f24 41B84A00 		movl	$74, %r8d
 2299      0000
 2300 0f2a 488D0D00 		leaq	.LC1(%rip), %rcx
 2300      000000
 2301 0f31 4889C2   		movq	%rax, %rdx
 2302 0f34 488D3500 		leaq	.LC31(%rip), %rsi
 2302      000000
 2303 0f3b 4889DF   		movq	%rbx, %rdi
 2304 0f3e E8000000 		call	_ZN8UnitTest4TestC2EPKcS2_S2_i@PLT
 2304      00
 2305 0f43 488D1500 		leaq	16+_ZTVN12_GLOBAL__N_143TestStreamingPointerWritesCorrectCharactersE(%rip), %rdx
 2305      000000
 2306 0f4a 488B45E8 		movq	-24(%rbp), %rax
 2307 0f4e 488910   		movq	%rdx, (%rax)
 2308              	.LBE13:
 2309 0f51 90       		nop
 2310 0f52 4883C418 		addq	$24, %rsp
 2311 0f56 5B       		popq	%rbx
 2312 0f57 5D       		popq	%rbp
 2313              		.cfi_def_cfa 7, 8
 2314 0f58 C3       		ret
 2315              		.cfi_endproc
 2316              	.LFE1125:
 2318              		.set	_ZN12_GLOBAL__N_143TestStreamingPointerWritesCorrectCharactersC1Ev,_ZN12_GLOBAL__N_143TestStr
 2319              		.local	_ZN12_GLOBAL__N_151testStreamingPointerWritesCorrectCharactersInstanceE
 2320              		.comm	_ZN12_GLOBAL__N_151testStreamingPointerWritesCorrectCharactersInstanceE,56,32
 2321              		.local	_ZN12_GLOBAL__N_144adderStreamingPointerWritesCorrectCharactersE
 2322              		.comm	_ZN12_GLOBAL__N_144adderStreamingPointerWritesCorrectCharactersE,1,1
 2323              		.section	.rodata
 2324              	.LC32:
 2325 03e8 31323334 		.string	"1234"
 2325      00
 2326 03ed 000000   		.align 8
 2327              	.LC33:
 2328 03f0 73747273 		.string	"strstr(stream.GetText(), \"1234\")"
 2328      74722873 
 2328      74726561 
 2328      6D2E4765 
 2328      74546578 
 2329 0411 00000000 		.align 8
 2329      000000
 2330              	.LC34:
 2331 0418 556E6861 		.string	"Unhandled exception in CHECK(strstr(stream.GetText(), \"1234\"))"
 2331      6E646C65 
 2331      64206578 
 2331      63657074 
 2331      696F6E20 
 2332              		.text
 2333 0f59 90       		.align 2
 2335              	_ZNK12_GLOBAL__N_143TestStreamingPointerWritesCorrectCharacters7RunImplEv:
 2336              	.LFB1127:
  75:TestMemoryOutStream.cpp **** {
 2337              		.loc 3 75 0
 2338              		.cfi_startproc
 2339              		.cfi_personality 0x9b,DW.ref.__gxx_personality_v0
 2340              		.cfi_lsda 0x1b,.LLSDA1127
 2341 0f5a 55       		pushq	%rbp
 2342              		.cfi_def_cfa_offset 16
 2343              		.cfi_offset 6, -16
 2344 0f5b 4889E5   		movq	%rsp, %rbp
 2345              		.cfi_def_cfa_register 6
 2346 0f5e 53       		pushq	%rbx
 2347 0f5f 4881ECE8 		subq	$488, %rsp
 2347      010000
 2348              		.cfi_offset 3, -24
 2349 0f66 4889BD18 		movq	%rdi, -488(%rbp)
 2349      FEFFFF
 2350              		.loc 3 75 0
 2351 0f6d 64488B04 		movq	%fs:40, %rax
 2351      25280000 
 2351      00
 2352 0f76 488945E8 		movq	%rax, -24(%rbp)
 2353 0f7a 31C0     		xorl	%eax, %eax
  76:TestMemoryOutStream.cpp ****     MemoryOutStream stream;
 2354              		.loc 3 76 0
 2355 0f7c 488D8550 		leaq	-432(%rbp), %rax
 2355      FEFFFF
 2356 0f83 4889C7   		movq	%rax, %rdi
 2357              	.LEHB69:
 2358 0f86 E8000000 		call	_ZN8UnitTest15MemoryOutStreamC1Ev
 2358      00
 2359              	.LEHE69:
  77:TestMemoryOutStream.cpp ****     int* p = (int*)0x1234;
 2360              		.loc 3 77 0
 2361 0f8b 48C78528 		movq	$4660, -472(%rbp)
 2361      FEFFFF34 
 2361      120000
  78:TestMemoryOutStream.cpp ****     stream << p;
 2362              		.loc 3 78 0
 2363 0f96 488B9528 		movq	-472(%rbp), %rdx
 2363      FEFFFF
 2364 0f9d 488D8550 		leaq	-432(%rbp), %rax
 2364      FEFFFF
 2365 0fa4 4889D6   		movq	%rdx, %rsi
 2366 0fa7 4889C7   		movq	%rax, %rdi
 2367              	.LEHB70:
 2368 0faa E8000000 		call	_ZNSolsEPKv@PLT
 2368      00
 2369              	.LEHE70:
  79:TestMemoryOutStream.cpp ****     CHECK(strstr(stream.GetText(), "1234"));
 2370              		.loc 3 79 0
 2371 0faf 488D8550 		leaq	-432(%rbp), %rax
 2371      FEFFFF
 2372 0fb6 4889C7   		movq	%rax, %rdi
 2373              	.LEHB71:
 2374 0fb9 E8000000 		call	_ZNK8UnitTest15MemoryOutStream7GetTextEv@PLT
 2374      00
 2375 0fbe 488D3500 		leaq	.LC32(%rip), %rsi
 2375      000000
 2376 0fc5 4889C7   		movq	%rax, %rdi
 2377 0fc8 E8000000 		call	strstr@PLT
 2377      00
 2378 0fcd 4889C7   		movq	%rax, %rdi
 2379 0fd0 E8000000 		call	_ZN8UnitTest5CheckIPKcEEbT_
 2379      00
 2380 0fd5 83F001   		xorl	$1, %eax
 2381 0fd8 84C0     		testb	%al, %al
 2382 0fda 7440     		je	.L116
 2383              		.loc 3 79 0 is_stmt 0 discriminator 2
 2384 0fdc E8000000 		call	_ZN8UnitTest11CurrentTest7ResultsEv@PLT
 2384      00
 2385 0fe1 488B18   		movq	(%rax), %rbx
 2386 0fe4 E8000000 		call	_ZN8UnitTest11CurrentTest7DetailsEv@PLT
 2386      00
 2387              		.loc 3 79 0 discriminator 3
 2388 0fe9 488B08   		movq	(%rax), %rcx
 2389 0fec 488D8530 		leaq	-464(%rbp), %rax
 2389      FEFFFF
 2390 0ff3 BA4F0000 		movl	$79, %edx
 2390      00
 2391 0ff8 4889CE   		movq	%rcx, %rsi
 2392 0ffb 4889C7   		movq	%rax, %rdi
 2393 0ffe E8000000 		call	_ZN8UnitTest11TestDetailsC1ERKS0_i@PLT
 2393      00
 2394              		.loc 3 79 0 discriminator 5
 2395 1003 488D8530 		leaq	-464(%rbp), %rax
 2395      FEFFFF
 2396 100a 488D1500 		leaq	.LC33(%rip), %rdx
 2396      000000
 2397 1011 4889C6   		movq	%rax, %rsi
 2398 1014 4889DF   		movq	%rbx, %rdi
 2399 1017 E8000000 		call	_ZN8UnitTest11TestResults13OnTestFailureERKNS_11TestDetailsEPKc@PLT
 2399      00
 2400              	.LEHE71:
 2401              	.L116:
  76:TestMemoryOutStream.cpp ****     int* p = (int*)0x1234;
 2402              		.loc 3 76 0 is_stmt 1
 2403 101c 488D8550 		leaq	-432(%rbp), %rax
 2403      FEFFFF
 2404 1023 4889C7   		movq	%rax, %rdi
 2405              	.LEHB72:
 2406 1026 E8000000 		call	_ZN8UnitTest15MemoryOutStreamD1Ev
 2406      00
 2407              	.LEHE72:
  80:TestMemoryOutStream.cpp **** }
 2408              		.loc 3 80 0
 2409 102b 90       		nop
 2410 102c 488B45E8 		movq	-24(%rbp), %rax
 2411 1030 64483304 		xorq	%fs:40, %rax
 2411      25280000 
 2411      00
 2412 1039 747D     		je	.L120
 2413 103b EB76     		jmp	.L124
 2414              	.L122:
  79:TestMemoryOutStream.cpp ****     CHECK(strstr(stream.GetText(), "1234"));
 2415              		.loc 3 79 0
 2416 103d 4889C7   		movq	%rax, %rdi
 2417 1040 E8000000 		call	__cxa_begin_catch@PLT
 2417      00
 2418              	.LEHB73:
 2419 1045 E8000000 		call	_ZN8UnitTest11CurrentTest7ResultsEv@PLT
 2419      00
 2420 104a 488B18   		movq	(%rax), %rbx
 2421 104d E8000000 		call	_ZN8UnitTest11CurrentTest7DetailsEv@PLT
 2421      00
  79:TestMemoryOutStream.cpp ****     CHECK(strstr(stream.GetText(), "1234"));
 2422              		.loc 3 79 0 is_stmt 0 discriminator 9
 2423 1052 488B08   		movq	(%rax), %rcx
 2424 1055 488D8530 		leaq	-464(%rbp), %rax
 2424      FEFFFF
 2425 105c BA4F0000 		movl	$79, %edx
 2425      00
 2426 1061 4889CE   		movq	%rcx, %rsi
 2427 1064 4889C7   		movq	%rax, %rdi
 2428 1067 E8000000 		call	_ZN8UnitTest11TestDetailsC1ERKS0_i@PLT
 2428      00
  79:TestMemoryOutStream.cpp ****     CHECK(strstr(stream.GetText(), "1234"));
 2429              		.loc 3 79 0 discriminator 13
 2430 106c 488D8530 		leaq	-464(%rbp), %rax
 2430      FEFFFF
 2431 1073 488D1500 		leaq	.LC34(%rip), %rdx
 2431      000000
 2432 107a 4889C6   		movq	%rax, %rsi
 2433 107d 4889DF   		movq	%rbx, %rdi
 2434 1080 E8000000 		call	_ZN8UnitTest11TestResults13OnTestFailureERKNS_11TestDetailsEPKc@PLT
 2434      00
 2435              	.LEHE73:
 2436              	.LEHB74:
  79:TestMemoryOutStream.cpp ****     CHECK(strstr(stream.GetText(), "1234"));
 2437              		.loc 3 79 0 discriminator 15
 2438 1085 E8000000 		call	__cxa_end_catch@PLT
 2438      00
 2439              	.LEHE74:
  79:TestMemoryOutStream.cpp ****     CHECK(strstr(stream.GetText(), "1234"));
 2440              		.loc 3 79 0
 2441 108a EB90     		jmp	.L116
 2442              	.L123:
 2443 108c 4889C3   		movq	%rax, %rbx
 2444 108f E8000000 		call	__cxa_end_catch@PLT
 2444      00
 2445 1094 EB03     		jmp	.L119
 2446              	.L121:
 2447 1096 4889C3   		movq	%rax, %rbx
 2448              	.L119:
  76:TestMemoryOutStream.cpp ****     int* p = (int*)0x1234;
 2449              		.loc 3 76 0 is_stmt 1
 2450 1099 488D8550 		leaq	-432(%rbp), %rax
 2450      FEFFFF
 2451 10a0 4889C7   		movq	%rax, %rdi
 2452 10a3 E8000000 		call	_ZN8UnitTest15MemoryOutStreamD1Ev
 2452      00
 2453 10a8 4889D8   		movq	%rbx, %rax
 2454 10ab 4889C7   		movq	%rax, %rdi
 2455              	.LEHB75:
 2456 10ae E8000000 		call	_Unwind_Resume@PLT
 2456      00
 2457              	.LEHE75:
 2458              	.L124:
 2459              		.loc 3 80 0
 2460 10b3 E8000000 		call	__stack_chk_fail@PLT
 2460      00
 2461              	.L120:
 2462 10b8 4881C4E8 		addq	$488, %rsp
 2462      010000
 2463 10bf 5B       		popq	%rbx
 2464 10c0 5D       		popq	%rbp
 2465              		.cfi_def_cfa 7, 8
 2466 10c1 C3       		ret
 2467              		.cfi_endproc
 2468              	.LFE1127:
 2469              		.section	.gcc_except_table
 2470              		.align 4
 2471              	.LLSDA1127:
 2472 01bc FF       		.byte	0xff
 2473 01bd 9B       		.byte	0x9b
 2474 01be 2D       		.uleb128 .LLSDATT1127-.LLSDATTD1127
 2475              	.LLSDATTD1127:
 2476 01bf 01       		.byte	0x1
 2477 01c0 24       		.uleb128 .LLSDACSE1127-.LLSDACSB1127
 2478              	.LLSDACSB1127:
 2479 01c1 2C       		.uleb128 .LEHB69-.LFB1127
 2480 01c2 05       		.uleb128 .LEHE69-.LEHB69
 2481 01c3 00       		.uleb128 0
 2482 01c4 00       		.uleb128 0
 2483 01c5 50       		.uleb128 .LEHB70-.LFB1127
 2484 01c6 05       		.uleb128 .LEHE70-.LEHB70
 2485 01c7 BC02     		.uleb128 .L121-.LFB1127
 2486 01c9 00       		.uleb128 0
 2487 01ca 5F       		.uleb128 .LEHB71-.LFB1127
 2488 01cb 63       		.uleb128 .LEHE71-.LEHB71
 2489 01cc E301     		.uleb128 .L122-.LFB1127
 2490 01ce 01       		.uleb128 0x1
 2491 01cf CC01     		.uleb128 .LEHB72-.LFB1127
 2492 01d1 05       		.uleb128 .LEHE72-.LEHB72
 2493 01d2 00       		.uleb128 0
 2494 01d3 00       		.uleb128 0
 2495 01d4 EB01     		.uleb128 .LEHB73-.LFB1127
 2496 01d6 40       		.uleb128 .LEHE73-.LEHB73
 2497 01d7 B202     		.uleb128 .L123-.LFB1127
 2498 01d9 00       		.uleb128 0
 2499 01da AB02     		.uleb128 .LEHB74-.LFB1127
 2500 01dc 05       		.uleb128 .LEHE74-.LEHB74
 2501 01dd BC02     		.uleb128 .L121-.LFB1127
 2502 01df 00       		.uleb128 0
 2503 01e0 D402     		.uleb128 .LEHB75-.LFB1127
 2504 01e2 05       		.uleb128 .LEHE75-.LEHB75
 2505 01e3 00       		.uleb128 0
 2506 01e4 00       		.uleb128 0
 2507              	.LLSDACSE1127:
 2508 01e5 01       		.byte	0x1
 2509 01e6 00       		.byte	0
 2510 01e7 00       		.align 4
 2511 01e8 00000000 		.long	0
 2512              	
 2513              	.LLSDATT1127:
 2514              		.text
 2516              		.section	.rodata
 2517 0457 00       		.align 8
 2518              	.LC35:
 2519 0458 53747265 		.string	"StreamingSizeTWritesCorrectCharacters"
 2519      616D696E 
 2519      6753697A 
 2519      65545772 
 2519      69746573 
 2520              		.text
 2521              		.align 2
 2523              	_ZN12_GLOBAL__N_141TestStreamingSizeTWritesCorrectCharactersC2Ev:
 2524              	.LFB1129:
  81:TestMemoryOutStream.cpp **** 
  82:TestMemoryOutStream.cpp **** TEST(StreamingSizeTWritesCorrectCharacters)
 2525              		.loc 3 82 0
 2526              		.cfi_startproc
 2527 10c2 55       		pushq	%rbp
 2528              		.cfi_def_cfa_offset 16
 2529              		.cfi_offset 6, -16
 2530 10c3 4889E5   		movq	%rsp, %rbp
 2531              		.cfi_def_cfa_register 6
 2532 10c6 53       		pushq	%rbx
 2533 10c7 4883EC18 		subq	$24, %rsp
 2534              		.cfi_offset 3, -24
 2535 10cb 48897DE8 		movq	%rdi, -24(%rbp)
 2536              	.LBB14:
 2537              		.loc 3 82 0
 2538 10cf 488B5DE8 		movq	-24(%rbp), %rbx
 2539 10d3 E8000000 		call	_ZN13UnitTestSuite12GetSuiteNameEv
 2539      00
 2540 10d8 41B85200 		movl	$82, %r8d
 2540      0000
 2541 10de 488D0D00 		leaq	.LC1(%rip), %rcx
 2541      000000
 2542 10e5 4889C2   		movq	%rax, %rdx
 2543 10e8 488D3500 		leaq	.LC35(%rip), %rsi
 2543      000000
 2544 10ef 4889DF   		movq	%rbx, %rdi
 2545 10f2 E8000000 		call	_ZN8UnitTest4TestC2EPKcS2_S2_i@PLT
 2545      00
 2546 10f7 488D1500 		leaq	16+_ZTVN12_GLOBAL__N_141TestStreamingSizeTWritesCorrectCharactersE(%rip), %rdx
 2546      000000
 2547 10fe 488B45E8 		movq	-24(%rbp), %rax
 2548 1102 488910   		movq	%rdx, (%rax)
 2549              	.LBE14:
 2550 1105 90       		nop
 2551 1106 4883C418 		addq	$24, %rsp
 2552 110a 5B       		popq	%rbx
 2553 110b 5D       		popq	%rbp
 2554              		.cfi_def_cfa 7, 8
 2555 110c C3       		ret
 2556              		.cfi_endproc
 2557              	.LFE1129:
 2559              		.set	_ZN12_GLOBAL__N_141TestStreamingSizeTWritesCorrectCharactersC1Ev,_ZN12_GLOBAL__N_141TestStrea
 2560              		.local	_ZN12_GLOBAL__N_149testStreamingSizeTWritesCorrectCharactersInstanceE
 2561              		.comm	_ZN12_GLOBAL__N_149testStreamingSizeTWritesCorrectCharactersInstanceE,56,32
 2562              		.local	_ZN12_GLOBAL__N_142adderStreamingSizeTWritesCorrectCharactersE
 2563              		.comm	_ZN12_GLOBAL__N_142adderStreamingSizeTWritesCorrectCharactersE,1,1
 2564              		.section	.rodata
 2565              	.LC36:
 2566 047e 35333132 		.string	"53124"
 2566      3400
 2567 0484 00000000 		.align 8
 2568              	.LC37:
 2569 0488 556E6861 		.string	"Unhandled exception in CHECK_EQUAL(\"53124\", stream.GetText())"
 2569      6E646C65 
 2569      64206578 
 2569      63657074 
 2569      696F6E20 
 2570              		.text
 2571 110d 90       		.align 2
 2573              	_ZNK12_GLOBAL__N_141TestStreamingSizeTWritesCorrectCharacters7RunImplEv:
 2574              	.LFB1131:
  83:TestMemoryOutStream.cpp **** {
 2575              		.loc 3 83 0
 2576              		.cfi_startproc
 2577              		.cfi_personality 0x9b,DW.ref.__gxx_personality_v0
 2578              		.cfi_lsda 0x1b,.LLSDA1131
 2579 110e 55       		pushq	%rbp
 2580              		.cfi_def_cfa_offset 16
 2581              		.cfi_offset 6, -16
 2582 110f 4889E5   		movq	%rsp, %rbp
 2583              		.cfi_def_cfa_register 6
 2584 1112 53       		pushq	%rbx
 2585 1113 4881ECE8 		subq	$488, %rsp
 2585      010000
 2586              		.cfi_offset 3, -24
 2587 111a 4889BD18 		movq	%rdi, -488(%rbp)
 2587      FEFFFF
 2588              		.loc 3 83 0
 2589 1121 64488B04 		movq	%fs:40, %rax
 2589      25280000 
 2589      00
 2590 112a 488945E8 		movq	%rax, -24(%rbp)
 2591 112e 31C0     		xorl	%eax, %eax
  84:TestMemoryOutStream.cpp ****     MemoryOutStream stream;
 2592              		.loc 3 84 0
 2593 1130 488D8550 		leaq	-432(%rbp), %rax
 2593      FEFFFF
 2594 1137 4889C7   		movq	%rax, %rdi
 2595              	.LEHB76:
 2596 113a E8000000 		call	_ZN8UnitTest15MemoryOutStreamC1Ev
 2596      00
 2597              	.LEHE76:
  85:TestMemoryOutStream.cpp ****     size_t const s = 53124;
 2598              		.loc 3 85 0
 2599 113f 48C78528 		movq	$53124, -472(%rbp)
 2599      FEFFFF84 
 2599      CF0000
  86:TestMemoryOutStream.cpp ****     stream << s;
 2600              		.loc 3 86 0
 2601 114a 488D8550 		leaq	-432(%rbp), %rax
 2601      FEFFFF
 2602 1151 BE84CF00 		movl	$53124, %esi
 2602      00
 2603 1156 4889C7   		movq	%rax, %rdi
 2604              	.LEHB77:
 2605 1159 E8000000 		call	_ZNSolsEm@PLT
 2605      00
 2606              	.LEHE77:
 2607              	.LEHB78:
  87:TestMemoryOutStream.cpp ****     CHECK_EQUAL("53124", stream.GetText());
 2608              		.loc 3 87 0
 2609 115e E8000000 		call	_ZN8UnitTest11CurrentTest7DetailsEv@PLT
 2609      00
 2610 1163 488B08   		movq	(%rax), %rcx
 2611 1166 488D8530 		leaq	-464(%rbp), %rax
 2611      FEFFFF
 2612 116d BA570000 		movl	$87, %edx
 2612      00
 2613 1172 4889CE   		movq	%rcx, %rsi
 2614 1175 4889C7   		movq	%rax, %rdi
 2615 1178 E8000000 		call	_ZN8UnitTest11TestDetailsC1ERKS0_i@PLT
 2615      00
 2616              		.loc 3 87 0 is_stmt 0 discriminator 2
 2617 117d 488D8550 		leaq	-432(%rbp), %rax
 2617      FEFFFF
 2618 1184 4889C7   		movq	%rax, %rdi
 2619 1187 E8000000 		call	_ZNK8UnitTest15MemoryOutStream7GetTextEv@PLT
 2619      00
 2620 118c 4889C3   		movq	%rax, %rbx
 2621 118f E8000000 		call	_ZN8UnitTest11CurrentTest7ResultsEv@PLT
 2621      00
 2622              		.loc 3 87 0 discriminator 4
 2623 1194 488B00   		movq	(%rax), %rax
 2624 1197 488D9530 		leaq	-464(%rbp), %rdx
 2624      FEFFFF
 2625 119e 4889D1   		movq	%rdx, %rcx
 2626 11a1 4889DA   		movq	%rbx, %rdx
 2627 11a4 488D3500 		leaq	.LC36(%rip), %rsi
 2627      000000
 2628 11ab 4889C7   		movq	%rax, %rdi
 2629 11ae E8000000 		call	_ZN8UnitTest10CheckEqualERNS_11TestResultsEPKcS3_RKNS_11TestDetailsE@PLT
 2629      00
 2630              	.LEHE78:
 2631              	.L128:
  84:TestMemoryOutStream.cpp ****     size_t const s = 53124;
 2632              		.loc 3 84 0 is_stmt 1
 2633 11b3 488D8550 		leaq	-432(%rbp), %rax
 2633      FEFFFF
 2634 11ba 4889C7   		movq	%rax, %rdi
 2635              	.LEHB79:
 2636 11bd E8000000 		call	_ZN8UnitTest15MemoryOutStreamD1Ev
 2636      00
 2637              	.LEHE79:
  88:TestMemoryOutStream.cpp **** }
 2638              		.loc 3 88 0
 2639 11c2 90       		nop
 2640 11c3 488B45E8 		movq	-24(%rbp), %rax
 2641 11c7 64483304 		xorq	%fs:40, %rax
 2641      25280000 
 2641      00
 2642 11d0 747D     		je	.L131
 2643 11d2 EB76     		jmp	.L135
 2644              	.L133:
  87:TestMemoryOutStream.cpp ****     CHECK_EQUAL("53124", stream.GetText());
 2645              		.loc 3 87 0
 2646 11d4 4889C7   		movq	%rax, %rdi
 2647 11d7 E8000000 		call	__cxa_begin_catch@PLT
 2647      00
 2648              	.LEHB80:
 2649 11dc E8000000 		call	_ZN8UnitTest11CurrentTest7ResultsEv@PLT
 2649      00
 2650 11e1 488B18   		movq	(%rax), %rbx
 2651 11e4 E8000000 		call	_ZN8UnitTest11CurrentTest7DetailsEv@PLT
 2651      00
  87:TestMemoryOutStream.cpp ****     CHECK_EQUAL("53124", stream.GetText());
 2652              		.loc 3 87 0 is_stmt 0 discriminator 10
 2653 11e9 488B08   		movq	(%rax), %rcx
 2654 11ec 488D8530 		leaq	-464(%rbp), %rax
 2654      FEFFFF
 2655 11f3 BA570000 		movl	$87, %edx
 2655      00
 2656 11f8 4889CE   		movq	%rcx, %rsi
 2657 11fb 4889C7   		movq	%rax, %rdi
 2658 11fe E8000000 		call	_ZN8UnitTest11TestDetailsC1ERKS0_i@PLT
 2658      00
  87:TestMemoryOutStream.cpp ****     CHECK_EQUAL("53124", stream.GetText());
 2659              		.loc 3 87 0 discriminator 14
 2660 1203 488D8530 		leaq	-464(%rbp), %rax
 2660      FEFFFF
 2661 120a 488D1500 		leaq	.LC37(%rip), %rdx
 2661      000000
 2662 1211 4889C6   		movq	%rax, %rsi
 2663 1214 4889DF   		movq	%rbx, %rdi
 2664 1217 E8000000 		call	_ZN8UnitTest11TestResults13OnTestFailureERKNS_11TestDetailsEPKc@PLT
 2664      00
 2665              	.LEHE80:
 2666              	.LEHB81:
  87:TestMemoryOutStream.cpp ****     CHECK_EQUAL("53124", stream.GetText());
 2667              		.loc 3 87 0 discriminator 16
 2668 121c E8000000 		call	__cxa_end_catch@PLT
 2668      00
 2669              	.LEHE81:
  87:TestMemoryOutStream.cpp ****     CHECK_EQUAL("53124", stream.GetText());
 2670              		.loc 3 87 0
 2671 1221 EB90     		jmp	.L128
 2672              	.L134:
 2673 1223 4889C3   		movq	%rax, %rbx
 2674 1226 E8000000 		call	__cxa_end_catch@PLT
 2674      00
 2675 122b EB03     		jmp	.L130
 2676              	.L132:
 2677 122d 4889C3   		movq	%rax, %rbx
 2678              	.L130:
  84:TestMemoryOutStream.cpp ****     size_t const s = 53124;
 2679              		.loc 3 84 0 is_stmt 1
 2680 1230 488D8550 		leaq	-432(%rbp), %rax
 2680      FEFFFF
 2681 1237 4889C7   		movq	%rax, %rdi
 2682 123a E8000000 		call	_ZN8UnitTest15MemoryOutStreamD1Ev
 2682      00
 2683 123f 4889D8   		movq	%rbx, %rax
 2684 1242 4889C7   		movq	%rax, %rdi
 2685              	.LEHB82:
 2686 1245 E8000000 		call	_Unwind_Resume@PLT
 2686      00
 2687              	.LEHE82:
 2688              	.L135:
 2689              		.loc 3 88 0
 2690 124a E8000000 		call	__stack_chk_fail@PLT
 2690      00
 2691              	.L131:
 2692 124f 4881C4E8 		addq	$488, %rsp
 2692      010000
 2693 1256 5B       		popq	%rbx
 2694 1257 5D       		popq	%rbp
 2695              		.cfi_def_cfa 7, 8
 2696 1258 C3       		ret
 2697              		.cfi_endproc
 2698              	.LFE1131:
 2699              		.section	.gcc_except_table
 2700              		.align 4
 2701              	.LLSDA1131:
 2702 01ec FF       		.byte	0xff
 2703 01ed 9B       		.byte	0x9b
 2704 01ee 2D       		.uleb128 .LLSDATT1131-.LLSDATTD1131
 2705              	.LLSDATTD1131:
 2706 01ef 01       		.byte	0x1
 2707 01f0 24       		.uleb128 .LLSDACSE1131-.LLSDACSB1131
 2708              	.LLSDACSB1131:
 2709 01f1 2C       		.uleb128 .LEHB76-.LFB1131
 2710 01f2 05       		.uleb128 .LEHE76-.LEHB76
 2711 01f3 00       		.uleb128 0
 2712 01f4 00       		.uleb128 0
 2713 01f5 4B       		.uleb128 .LEHB77-.LFB1131
 2714 01f6 05       		.uleb128 .LEHE77-.LEHB77
 2715 01f7 9F02     		.uleb128 .L132-.LFB1131
 2716 01f9 00       		.uleb128 0
 2717 01fa 50       		.uleb128 .LEHB78-.LFB1131
 2718 01fb 55       		.uleb128 .LEHE78-.LEHB78
 2719 01fc C601     		.uleb128 .L133-.LFB1131
 2720 01fe 01       		.uleb128 0x1
 2721 01ff AF01     		.uleb128 .LEHB79-.LFB1131
 2722 0201 05       		.uleb128 .LEHE79-.LEHB79
 2723 0202 00       		.uleb128 0
 2724 0203 00       		.uleb128 0
 2725 0204 CE01     		.uleb128 .LEHB80-.LFB1131
 2726 0206 40       		.uleb128 .LEHE80-.LEHB80
 2727 0207 9502     		.uleb128 .L134-.LFB1131
 2728 0209 00       		.uleb128 0
 2729 020a 8E02     		.uleb128 .LEHB81-.LFB1131
 2730 020c 05       		.uleb128 .LEHE81-.LEHB81
 2731 020d 9F02     		.uleb128 .L132-.LFB1131
 2732 020f 00       		.uleb128 0
 2733 0210 B702     		.uleb128 .LEHB82-.LFB1131
 2734 0212 05       		.uleb128 .LEHE82-.LEHB82
 2735 0213 00       		.uleb128 0
 2736 0214 00       		.uleb128 0
 2737              	.LLSDACSE1131:
 2738 0215 01       		.byte	0x1
 2739 0216 00       		.byte	0
 2740 0217 00       		.align 4
 2741 0218 00000000 		.long	0
 2742              	
 2743              	.LLSDATT1131:
 2744              		.text
 2746              		.section	.text._ZN8UnitTest5CheckIbEEbT_,"axG",@progbits,_ZN8UnitTest5CheckIbEEbT_,comdat
 2747              		.weak	_ZN8UnitTest5CheckIbEEbT_
 2749              	_ZN8UnitTest5CheckIbEEbT_:
 2750              	.LFB1159:
 2751              		.file 4 "../Checks.h"
   1:../Checks.h   **** #ifndef UNITTEST_CHECKS_H
   2:../Checks.h   **** #define UNITTEST_CHECKS_H
   3:../Checks.h   **** 
   4:../Checks.h   **** #include "Config.h"
   5:../Checks.h   **** #include "TestResults.h"
   6:../Checks.h   **** #include "MemoryOutStream.h"
   7:../Checks.h   **** 
   8:../Checks.h   **** namespace UnitTest {
   9:../Checks.h   **** 
  10:../Checks.h   **** 
  11:../Checks.h   **** template< typename Value >
  12:../Checks.h   **** bool Check(Value const value)
 2752              		.loc 4 12 0
 2753              		.cfi_startproc
 2754 0000 55       		pushq	%rbp
 2755              		.cfi_def_cfa_offset 16
 2756              		.cfi_offset 6, -16
 2757 0001 4889E5   		movq	%rsp, %rbp
 2758              		.cfi_def_cfa_register 6
 2759 0004 89F8     		movl	%edi, %eax
 2760 0006 8845FC   		movb	%al, -4(%rbp)
  13:../Checks.h   **** {
  14:../Checks.h   ****     return !!value; // doing double negative to avoid silly VS warnings
 2761              		.loc 4 14 0
 2762 0009 0FB645FC 		movzbl	-4(%rbp), %eax
  15:../Checks.h   **** }
 2763              		.loc 4 15 0
 2764 000d 5D       		popq	%rbp
 2765              		.cfi_def_cfa 7, 8
 2766 000e C3       		ret
 2767              		.cfi_endproc
 2768              	.LFE1159:
 2770              		.section	.text._ZN8UnitTest5CheckIPKcEEbT_,"axG",@progbits,_ZN8UnitTest5CheckIPKcEEbT_,comdat
 2771              		.weak	_ZN8UnitTest5CheckIPKcEEbT_
 2773              	_ZN8UnitTest5CheckIPKcEEbT_:
 2774              	.LFB1165:
  12:../Checks.h   **** {
 2775              		.loc 4 12 0
 2776              		.cfi_startproc
 2777 0000 55       		pushq	%rbp
 2778              		.cfi_def_cfa_offset 16
 2779              		.cfi_offset 6, -16
 2780 0001 4889E5   		movq	%rsp, %rbp
 2781              		.cfi_def_cfa_register 6
 2782 0004 48897DF8 		movq	%rdi, -8(%rbp)
  14:../Checks.h   **** }
 2783              		.loc 4 14 0
 2784 0008 48837DF8 		cmpq	$0, -8(%rbp)
 2784      00
 2785 000d 0F95C0   		setne	%al
 2786              		.loc 4 15 0
 2787 0010 5D       		popq	%rbp
 2788              		.cfi_def_cfa 7, 8
 2789 0011 C3       		ret
 2790              		.cfi_endproc
 2791              	.LFE1165:
 2793              		.section	.data.rel.ro.local,"aw",@progbits
 2794              		.align 8
 2797              	_ZTVN12_GLOBAL__N_141TestStreamingSizeTWritesCorrectCharactersE:
 2798 0000 00000000 		.quad	0
 2798      00000000 
 2799 0008 00000000 		.quad	_ZTIN12_GLOBAL__N_141TestStreamingSizeTWritesCorrectCharactersE
 2799      00000000 
 2800 0010 00000000 		.quad	_ZN12_GLOBAL__N_141TestStreamingSizeTWritesCorrectCharactersD1Ev
 2800      00000000 
 2801 0018 00000000 		.quad	_ZN12_GLOBAL__N_141TestStreamingSizeTWritesCorrectCharactersD0Ev
 2801      00000000 
 2802 0020 00000000 		.quad	_ZNK12_GLOBAL__N_141TestStreamingSizeTWritesCorrectCharacters7RunImplEv
 2802      00000000 
 2803              		.text
 2804 1259 90       		.align 2
 2806              	_ZN12_GLOBAL__N_141TestStreamingSizeTWritesCorrectCharactersD2Ev:
 2807              	.LFB1220:
  82:TestMemoryOutStream.cpp **** {
 2808              		.loc 3 82 0
 2809              		.cfi_startproc
 2810 125a 55       		pushq	%rbp
 2811              		.cfi_def_cfa_offset 16
 2812              		.cfi_offset 6, -16
 2813 125b 4889E5   		movq	%rsp, %rbp
 2814              		.cfi_def_cfa_register 6
 2815 125e 4883EC10 		subq	$16, %rsp
 2816 1262 48897DF8 		movq	%rdi, -8(%rbp)
 2817              	.LBB15:
  82:TestMemoryOutStream.cpp **** {
 2818              		.loc 3 82 0
 2819 1266 488D1500 		leaq	16+_ZTVN12_GLOBAL__N_141TestStreamingSizeTWritesCorrectCharactersE(%rip), %rdx
 2819      000000
 2820 126d 488B45F8 		movq	-8(%rbp), %rax
 2821 1271 488910   		movq	%rdx, (%rax)
 2822 1274 488B45F8 		movq	-8(%rbp), %rax
 2823 1278 4889C7   		movq	%rax, %rdi
 2824 127b E8000000 		call	_ZN8UnitTest4TestD2Ev@PLT
 2824      00
 2825              	.LBE15:
 2826 1280 90       		nop
 2827 1281 C9       		leave
 2828              		.cfi_def_cfa 7, 8
 2829 1282 C3       		ret
 2830              		.cfi_endproc
 2831              	.LFE1220:
 2833              		.set	_ZN12_GLOBAL__N_141TestStreamingSizeTWritesCorrectCharactersD1Ev,_ZN12_GLOBAL__N_141TestStrea
 2834 1283 90       		.align 2
 2836              	_ZN12_GLOBAL__N_141TestStreamingSizeTWritesCorrectCharactersD0Ev:
 2837              	.LFB1222:
  82:TestMemoryOutStream.cpp **** {
 2838              		.loc 3 82 0
 2839              		.cfi_startproc
 2840              		.cfi_personality 0x9b,DW.ref.__gxx_personality_v0
 2841              		.cfi_lsda 0x1b,.LLSDA1222
 2842 1284 55       		pushq	%rbp
 2843              		.cfi_def_cfa_offset 16
 2844              		.cfi_offset 6, -16
 2845 1285 4889E5   		movq	%rsp, %rbp
 2846              		.cfi_def_cfa_register 6
 2847 1288 53       		pushq	%rbx
 2848 1289 4883EC18 		subq	$24, %rsp
 2849              		.cfi_offset 3, -24
 2850 128d 48897DE8 		movq	%rdi, -24(%rbp)
  82:TestMemoryOutStream.cpp **** {
 2851              		.loc 3 82 0
 2852 1291 488B45E8 		movq	-24(%rbp), %rax
 2853 1295 4889C7   		movq	%rax, %rdi
 2854              	.LEHB83:
 2855 1298 E8BDFFFF 		call	_ZN12_GLOBAL__N_141TestStreamingSizeTWritesCorrectCharactersD1Ev
 2855      FF
 2856              	.LEHE83:
  82:TestMemoryOutStream.cpp **** {
 2857              		.loc 3 82 0 is_stmt 0 discriminator 2
 2858 129d 488B45E8 		movq	-24(%rbp), %rax
 2859 12a1 4889C7   		movq	%rax, %rdi
 2860 12a4 E8000000 		call	_ZdlPv@PLT
 2860      00
 2861 12a9 EB1A     		jmp	.L144
 2862              	.L143:
 2863 12ab 4889C3   		movq	%rax, %rbx
  82:TestMemoryOutStream.cpp **** {
 2864              		.loc 3 82 0
 2865 12ae 488B45E8 		movq	-24(%rbp), %rax
 2866 12b2 4889C7   		movq	%rax, %rdi
 2867 12b5 E8000000 		call	_ZdlPv@PLT
 2867      00
 2868 12ba 4889D8   		movq	%rbx, %rax
 2869 12bd 4889C7   		movq	%rax, %rdi
 2870              	.LEHB84:
 2871 12c0 E8000000 		call	_Unwind_Resume@PLT
 2871      00
 2872              	.LEHE84:
 2873              	.L144:
 2874 12c5 4883C418 		addq	$24, %rsp
 2875 12c9 5B       		popq	%rbx
 2876 12ca 5D       		popq	%rbp
 2877              		.cfi_def_cfa 7, 8
 2878 12cb C3       		ret
 2879              		.cfi_endproc
 2880              	.LFE1222:
 2881              		.section	.gcc_except_table
 2882              	.LLSDA1222:
 2883 021c FF       		.byte	0xff
 2884 021d FF       		.byte	0xff
 2885 021e 01       		.byte	0x1
 2886 021f 08       		.uleb128 .LLSDACSE1222-.LLSDACSB1222
 2887              	.LLSDACSB1222:
 2888 0220 14       		.uleb128 .LEHB83-.LFB1222
 2889 0221 05       		.uleb128 .LEHE83-.LEHB83
 2890 0222 27       		.uleb128 .L143-.LFB1222
 2891 0223 00       		.uleb128 0
 2892 0224 3C       		.uleb128 .LEHB84-.LFB1222
 2893 0225 05       		.uleb128 .LEHE84-.LEHB84
 2894 0226 00       		.uleb128 0
 2895 0227 00       		.uleb128 0
 2896              	.LLSDACSE1222:
 2897              		.text
 2899              		.section	.data.rel.ro.local
 2900              		.align 8
 2903              	_ZTVN12_GLOBAL__N_143TestStreamingPointerWritesCorrectCharactersE:
 2904 0028 00000000 		.quad	0
 2904      00000000 
 2905 0030 00000000 		.quad	_ZTIN12_GLOBAL__N_143TestStreamingPointerWritesCorrectCharactersE
 2905      00000000 
 2906 0038 00000000 		.quad	_ZN12_GLOBAL__N_143TestStreamingPointerWritesCorrectCharactersD1Ev
 2906      00000000 
 2907 0040 00000000 		.quad	_ZN12_GLOBAL__N_143TestStreamingPointerWritesCorrectCharactersD0Ev
 2907      00000000 
 2908 0048 00000000 		.quad	_ZNK12_GLOBAL__N_143TestStreamingPointerWritesCorrectCharacters7RunImplEv
 2908      00000000 
 2909              		.text
 2910              		.align 2
 2912              	_ZN12_GLOBAL__N_143TestStreamingPointerWritesCorrectCharactersD2Ev:
 2913              	.LFB1224:
  74:TestMemoryOutStream.cpp **** {
 2914              		.loc 3 74 0 is_stmt 1
 2915              		.cfi_startproc
 2916 12cc 55       		pushq	%rbp
 2917              		.cfi_def_cfa_offset 16
 2918              		.cfi_offset 6, -16
 2919 12cd 4889E5   		movq	%rsp, %rbp
 2920              		.cfi_def_cfa_register 6
 2921 12d0 4883EC10 		subq	$16, %rsp
 2922 12d4 48897DF8 		movq	%rdi, -8(%rbp)
 2923              	.LBB16:
  74:TestMemoryOutStream.cpp **** {
 2924              		.loc 3 74 0
 2925 12d8 488D1500 		leaq	16+_ZTVN12_GLOBAL__N_143TestStreamingPointerWritesCorrectCharactersE(%rip), %rdx
 2925      000000
 2926 12df 488B45F8 		movq	-8(%rbp), %rax
 2927 12e3 488910   		movq	%rdx, (%rax)
 2928 12e6 488B45F8 		movq	-8(%rbp), %rax
 2929 12ea 4889C7   		movq	%rax, %rdi
 2930 12ed E8000000 		call	_ZN8UnitTest4TestD2Ev@PLT
 2930      00
 2931              	.LBE16:
 2932 12f2 90       		nop
 2933 12f3 C9       		leave
 2934              		.cfi_def_cfa 7, 8
 2935 12f4 C3       		ret
 2936              		.cfi_endproc
 2937              	.LFE1224:
 2939              		.set	_ZN12_GLOBAL__N_143TestStreamingPointerWritesCorrectCharactersD1Ev,_ZN12_GLOBAL__N_143TestStr
 2940 12f5 90       		.align 2
 2942              	_ZN12_GLOBAL__N_143TestStreamingPointerWritesCorrectCharactersD0Ev:
 2943              	.LFB1226:
  74:TestMemoryOutStream.cpp **** {
 2944              		.loc 3 74 0
 2945              		.cfi_startproc
 2946              		.cfi_personality 0x9b,DW.ref.__gxx_personality_v0
 2947              		.cfi_lsda 0x1b,.LLSDA1226
 2948 12f6 55       		pushq	%rbp
 2949              		.cfi_def_cfa_offset 16
 2950              		.cfi_offset 6, -16
 2951 12f7 4889E5   		movq	%rsp, %rbp
 2952              		.cfi_def_cfa_register 6
 2953 12fa 53       		pushq	%rbx
 2954 12fb 4883EC18 		subq	$24, %rsp
 2955              		.cfi_offset 3, -24
 2956 12ff 48897DE8 		movq	%rdi, -24(%rbp)
  74:TestMemoryOutStream.cpp **** {
 2957              		.loc 3 74 0
 2958 1303 488B45E8 		movq	-24(%rbp), %rax
 2959 1307 4889C7   		movq	%rax, %rdi
 2960              	.LEHB85:
 2961 130a E8BDFFFF 		call	_ZN12_GLOBAL__N_143TestStreamingPointerWritesCorrectCharactersD1Ev
 2961      FF
 2962              	.LEHE85:
  74:TestMemoryOutStream.cpp **** {
 2963              		.loc 3 74 0 is_stmt 0 discriminator 2
 2964 130f 488B45E8 		movq	-24(%rbp), %rax
 2965 1313 4889C7   		movq	%rax, %rdi
 2966 1316 E8000000 		call	_ZdlPv@PLT
 2966      00
 2967 131b EB1A     		jmp	.L149
 2968              	.L148:
 2969 131d 4889C3   		movq	%rax, %rbx
  74:TestMemoryOutStream.cpp **** {
 2970              		.loc 3 74 0
 2971 1320 488B45E8 		movq	-24(%rbp), %rax
 2972 1324 4889C7   		movq	%rax, %rdi
 2973 1327 E8000000 		call	_ZdlPv@PLT
 2973      00
 2974 132c 4889D8   		movq	%rbx, %rax
 2975 132f 4889C7   		movq	%rax, %rdi
 2976              	.LEHB86:
 2977 1332 E8000000 		call	_Unwind_Resume@PLT
 2977      00
 2978              	.LEHE86:
 2979              	.L149:
 2980 1337 4883C418 		addq	$24, %rsp
 2981 133b 5B       		popq	%rbx
 2982 133c 5D       		popq	%rbp
 2983              		.cfi_def_cfa 7, 8
 2984 133d C3       		ret
 2985              		.cfi_endproc
 2986              	.LFE1226:
 2987              		.section	.gcc_except_table
 2988              	.LLSDA1226:
 2989 0228 FF       		.byte	0xff
 2990 0229 FF       		.byte	0xff
 2991 022a 01       		.byte	0x1
 2992 022b 08       		.uleb128 .LLSDACSE1226-.LLSDACSB1226
 2993              	.LLSDACSB1226:
 2994 022c 14       		.uleb128 .LEHB85-.LFB1226
 2995 022d 05       		.uleb128 .LEHE85-.LEHB85
 2996 022e 27       		.uleb128 .L148-.LFB1226
 2997 022f 00       		.uleb128 0
 2998 0230 3C       		.uleb128 .LEHB86-.LFB1226
 2999 0231 05       		.uleb128 .LEHE86-.LEHB86
 3000 0232 00       		.uleb128 0
 3001 0233 00       		.uleb128 0
 3002              	.LLSDACSE1226:
 3003              		.text
 3005              		.section	.data.rel.ro.local
 3006              		.align 8
 3009              	_ZTVN12_GLOBAL__N_142TestStreamingDoubleWritesCorrectCharactersE:
 3010 0050 00000000 		.quad	0
 3010      00000000 
 3011 0058 00000000 		.quad	_ZTIN12_GLOBAL__N_142TestStreamingDoubleWritesCorrectCharactersE
 3011      00000000 
 3012 0060 00000000 		.quad	_ZN12_GLOBAL__N_142TestStreamingDoubleWritesCorrectCharactersD1Ev
 3012      00000000 
 3013 0068 00000000 		.quad	_ZN12_GLOBAL__N_142TestStreamingDoubleWritesCorrectCharactersD0Ev
 3013      00000000 
 3014 0070 00000000 		.quad	_ZNK12_GLOBAL__N_142TestStreamingDoubleWritesCorrectCharacters7RunImplEv
 3014      00000000 
 3015              		.text
 3016              		.align 2
 3018              	_ZN12_GLOBAL__N_142TestStreamingDoubleWritesCorrectCharactersD2Ev:
 3019              	.LFB1228:
  67:TestMemoryOutStream.cpp **** {
 3020              		.loc 3 67 0 is_stmt 1
 3021              		.cfi_startproc
 3022 133e 55       		pushq	%rbp
 3023              		.cfi_def_cfa_offset 16
 3024              		.cfi_offset 6, -16
 3025 133f 4889E5   		movq	%rsp, %rbp
 3026              		.cfi_def_cfa_register 6
 3027 1342 4883EC10 		subq	$16, %rsp
 3028 1346 48897DF8 		movq	%rdi, -8(%rbp)
 3029              	.LBB17:
  67:TestMemoryOutStream.cpp **** {
 3030              		.loc 3 67 0
 3031 134a 488D1500 		leaq	16+_ZTVN12_GLOBAL__N_142TestStreamingDoubleWritesCorrectCharactersE(%rip), %rdx
 3031      000000
 3032 1351 488B45F8 		movq	-8(%rbp), %rax
 3033 1355 488910   		movq	%rdx, (%rax)
 3034 1358 488B45F8 		movq	-8(%rbp), %rax
 3035 135c 4889C7   		movq	%rax, %rdi
 3036 135f E8000000 		call	_ZN8UnitTest4TestD2Ev@PLT
 3036      00
 3037              	.LBE17:
 3038 1364 90       		nop
 3039 1365 C9       		leave
 3040              		.cfi_def_cfa 7, 8
 3041 1366 C3       		ret
 3042              		.cfi_endproc
 3043              	.LFE1228:
 3045              		.set	_ZN12_GLOBAL__N_142TestStreamingDoubleWritesCorrectCharactersD1Ev,_ZN12_GLOBAL__N_142TestStre
 3046 1367 90       		.align 2
 3048              	_ZN12_GLOBAL__N_142TestStreamingDoubleWritesCorrectCharactersD0Ev:
 3049              	.LFB1230:
  67:TestMemoryOutStream.cpp **** {
 3050              		.loc 3 67 0
 3051              		.cfi_startproc
 3052              		.cfi_personality 0x9b,DW.ref.__gxx_personality_v0
 3053              		.cfi_lsda 0x1b,.LLSDA1230
 3054 1368 55       		pushq	%rbp
 3055              		.cfi_def_cfa_offset 16
 3056              		.cfi_offset 6, -16
 3057 1369 4889E5   		movq	%rsp, %rbp
 3058              		.cfi_def_cfa_register 6
 3059 136c 53       		pushq	%rbx
 3060 136d 4883EC18 		subq	$24, %rsp
 3061              		.cfi_offset 3, -24
 3062 1371 48897DE8 		movq	%rdi, -24(%rbp)
  67:TestMemoryOutStream.cpp **** {
 3063              		.loc 3 67 0
 3064 1375 488B45E8 		movq	-24(%rbp), %rax
 3065 1379 4889C7   		movq	%rax, %rdi
 3066              	.LEHB87:
 3067 137c E8BDFFFF 		call	_ZN12_GLOBAL__N_142TestStreamingDoubleWritesCorrectCharactersD1Ev
 3067      FF
 3068              	.LEHE87:
  67:TestMemoryOutStream.cpp **** {
 3069              		.loc 3 67 0 is_stmt 0 discriminator 2
 3070 1381 488B45E8 		movq	-24(%rbp), %rax
 3071 1385 4889C7   		movq	%rax, %rdi
 3072 1388 E8000000 		call	_ZdlPv@PLT
 3072      00
 3073 138d EB1A     		jmp	.L154
 3074              	.L153:
 3075 138f 4889C3   		movq	%rax, %rbx
  67:TestMemoryOutStream.cpp **** {
 3076              		.loc 3 67 0
 3077 1392 488B45E8 		movq	-24(%rbp), %rax
 3078 1396 4889C7   		movq	%rax, %rdi
 3079 1399 E8000000 		call	_ZdlPv@PLT
 3079      00
 3080 139e 4889D8   		movq	%rbx, %rax
 3081 13a1 4889C7   		movq	%rax, %rdi
 3082              	.LEHB88:
 3083 13a4 E8000000 		call	_Unwind_Resume@PLT
 3083      00
 3084              	.LEHE88:
 3085              	.L154:
 3086 13a9 4883C418 		addq	$24, %rsp
 3087 13ad 5B       		popq	%rbx
 3088 13ae 5D       		popq	%rbp
 3089              		.cfi_def_cfa 7, 8
 3090 13af C3       		ret
 3091              		.cfi_endproc
 3092              	.LFE1230:
 3093              		.section	.gcc_except_table
 3094              	.LLSDA1230:
 3095 0234 FF       		.byte	0xff
 3096 0235 FF       		.byte	0xff
 3097 0236 01       		.byte	0x1
 3098 0237 08       		.uleb128 .LLSDACSE1230-.LLSDACSB1230
 3099              	.LLSDACSB1230:
 3100 0238 14       		.uleb128 .LEHB87-.LFB1230
 3101 0239 05       		.uleb128 .LEHE87-.LEHB87
 3102 023a 27       		.uleb128 .L153-.LFB1230
 3103 023b 00       		.uleb128 0
 3104 023c 3C       		.uleb128 .LEHB88-.LFB1230
 3105 023d 05       		.uleb128 .LEHE88-.LEHB88
 3106 023e 00       		.uleb128 0
 3107 023f 00       		.uleb128 0
 3108              	.LLSDACSE1230:
 3109              		.text
 3111              		.section	.data.rel.ro.local
 3112              		.align 8
 3115              	_ZTVN12_GLOBAL__N_141TestStreamingFloatWritesCorrectCharactersE:
 3116 0078 00000000 		.quad	0
 3116      00000000 
 3117 0080 00000000 		.quad	_ZTIN12_GLOBAL__N_141TestStreamingFloatWritesCorrectCharactersE
 3117      00000000 
 3118 0088 00000000 		.quad	_ZN12_GLOBAL__N_141TestStreamingFloatWritesCorrectCharactersD1Ev
 3118      00000000 
 3119 0090 00000000 		.quad	_ZN12_GLOBAL__N_141TestStreamingFloatWritesCorrectCharactersD0Ev
 3119      00000000 
 3120 0098 00000000 		.quad	_ZNK12_GLOBAL__N_141TestStreamingFloatWritesCorrectCharacters7RunImplEv
 3120      00000000 
 3121              		.text
 3122              		.align 2
 3124              	_ZN12_GLOBAL__N_141TestStreamingFloatWritesCorrectCharactersD2Ev:
 3125              	.LFB1232:
  60:TestMemoryOutStream.cpp **** {
 3126              		.loc 3 60 0 is_stmt 1
 3127              		.cfi_startproc
 3128 13b0 55       		pushq	%rbp
 3129              		.cfi_def_cfa_offset 16
 3130              		.cfi_offset 6, -16
 3131 13b1 4889E5   		movq	%rsp, %rbp
 3132              		.cfi_def_cfa_register 6
 3133 13b4 4883EC10 		subq	$16, %rsp
 3134 13b8 48897DF8 		movq	%rdi, -8(%rbp)
 3135              	.LBB18:
  60:TestMemoryOutStream.cpp **** {
 3136              		.loc 3 60 0
 3137 13bc 488D1500 		leaq	16+_ZTVN12_GLOBAL__N_141TestStreamingFloatWritesCorrectCharactersE(%rip), %rdx
 3137      000000
 3138 13c3 488B45F8 		movq	-8(%rbp), %rax
 3139 13c7 488910   		movq	%rdx, (%rax)
 3140 13ca 488B45F8 		movq	-8(%rbp), %rax
 3141 13ce 4889C7   		movq	%rax, %rdi
 3142 13d1 E8000000 		call	_ZN8UnitTest4TestD2Ev@PLT
 3142      00
 3143              	.LBE18:
 3144 13d6 90       		nop
 3145 13d7 C9       		leave
 3146              		.cfi_def_cfa 7, 8
 3147 13d8 C3       		ret
 3148              		.cfi_endproc
 3149              	.LFE1232:
 3151              		.set	_ZN12_GLOBAL__N_141TestStreamingFloatWritesCorrectCharactersD1Ev,_ZN12_GLOBAL__N_141TestStrea
 3152 13d9 90       		.align 2
 3154              	_ZN12_GLOBAL__N_141TestStreamingFloatWritesCorrectCharactersD0Ev:
 3155              	.LFB1234:
  60:TestMemoryOutStream.cpp **** {
 3156              		.loc 3 60 0
 3157              		.cfi_startproc
 3158              		.cfi_personality 0x9b,DW.ref.__gxx_personality_v0
 3159              		.cfi_lsda 0x1b,.LLSDA1234
 3160 13da 55       		pushq	%rbp
 3161              		.cfi_def_cfa_offset 16
 3162              		.cfi_offset 6, -16
 3163 13db 4889E5   		movq	%rsp, %rbp
 3164              		.cfi_def_cfa_register 6
 3165 13de 53       		pushq	%rbx
 3166 13df 4883EC18 		subq	$24, %rsp
 3167              		.cfi_offset 3, -24
 3168 13e3 48897DE8 		movq	%rdi, -24(%rbp)
  60:TestMemoryOutStream.cpp **** {
 3169              		.loc 3 60 0
 3170 13e7 488B45E8 		movq	-24(%rbp), %rax
 3171 13eb 4889C7   		movq	%rax, %rdi
 3172              	.LEHB89:
 3173 13ee E8BDFFFF 		call	_ZN12_GLOBAL__N_141TestStreamingFloatWritesCorrectCharactersD1Ev
 3173      FF
 3174              	.LEHE89:
  60:TestMemoryOutStream.cpp **** {
 3175              		.loc 3 60 0 is_stmt 0 discriminator 2
 3176 13f3 488B45E8 		movq	-24(%rbp), %rax
 3177 13f7 4889C7   		movq	%rax, %rdi
 3178 13fa E8000000 		call	_ZdlPv@PLT
 3178      00
 3179 13ff EB1A     		jmp	.L159
 3180              	.L158:
 3181 1401 4889C3   		movq	%rax, %rbx
  60:TestMemoryOutStream.cpp **** {
 3182              		.loc 3 60 0
 3183 1404 488B45E8 		movq	-24(%rbp), %rax
 3184 1408 4889C7   		movq	%rax, %rdi
 3185 140b E8000000 		call	_ZdlPv@PLT
 3185      00
 3186 1410 4889D8   		movq	%rbx, %rax
 3187 1413 4889C7   		movq	%rax, %rdi
 3188              	.LEHB90:
 3189 1416 E8000000 		call	_Unwind_Resume@PLT
 3189      00
 3190              	.LEHE90:
 3191              	.L159:
 3192 141b 4883C418 		addq	$24, %rsp
 3193 141f 5B       		popq	%rbx
 3194 1420 5D       		popq	%rbp
 3195              		.cfi_def_cfa 7, 8
 3196 1421 C3       		ret
 3197              		.cfi_endproc
 3198              	.LFE1234:
 3199              		.section	.gcc_except_table
 3200              	.LLSDA1234:
 3201 0240 FF       		.byte	0xff
 3202 0241 FF       		.byte	0xff
 3203 0242 01       		.byte	0x1
 3204 0243 08       		.uleb128 .LLSDACSE1234-.LLSDACSB1234
 3205              	.LLSDACSB1234:
 3206 0244 14       		.uleb128 .LEHB89-.LFB1234
 3207 0245 05       		.uleb128 .LEHE89-.LEHB89
 3208 0246 27       		.uleb128 .L158-.LFB1234
 3209 0247 00       		.uleb128 0
 3210 0248 3C       		.uleb128 .LEHB90-.LFB1234
 3211 0249 05       		.uleb128 .LEHE90-.LEHB90
 3212 024a 00       		.uleb128 0
 3213 024b 00       		.uleb128 0
 3214              	.LLSDACSE1234:
 3215              		.text
 3217              		.section	.data.rel.ro.local
 3218              		.align 8
 3221              	_ZTVN12_GLOBAL__N_148TestStreamingUnsignedLongWritesCorrectCharactersE:
 3222 00a0 00000000 		.quad	0
 3222      00000000 
 3223 00a8 00000000 		.quad	_ZTIN12_GLOBAL__N_148TestStreamingUnsignedLongWritesCorrectCharactersE
 3223      00000000 
 3224 00b0 00000000 		.quad	_ZN12_GLOBAL__N_148TestStreamingUnsignedLongWritesCorrectCharactersD1Ev
 3224      00000000 
 3225 00b8 00000000 		.quad	_ZN12_GLOBAL__N_148TestStreamingUnsignedLongWritesCorrectCharactersD0Ev
 3225      00000000 
 3226 00c0 00000000 		.quad	_ZNK12_GLOBAL__N_148TestStreamingUnsignedLongWritesCorrectCharacters7RunImplEv
 3226      00000000 
 3227              		.text
 3228              		.align 2
 3230              	_ZN12_GLOBAL__N_148TestStreamingUnsignedLongWritesCorrectCharactersD2Ev:
 3231              	.LFB1236:
  53:TestMemoryOutStream.cpp **** {
 3232              		.loc 3 53 0 is_stmt 1
 3233              		.cfi_startproc
 3234 1422 55       		pushq	%rbp
 3235              		.cfi_def_cfa_offset 16
 3236              		.cfi_offset 6, -16
 3237 1423 4889E5   		movq	%rsp, %rbp
 3238              		.cfi_def_cfa_register 6
 3239 1426 4883EC10 		subq	$16, %rsp
 3240 142a 48897DF8 		movq	%rdi, -8(%rbp)
 3241              	.LBB19:
  53:TestMemoryOutStream.cpp **** {
 3242              		.loc 3 53 0
 3243 142e 488D1500 		leaq	16+_ZTVN12_GLOBAL__N_148TestStreamingUnsignedLongWritesCorrectCharactersE(%rip), %rdx
 3243      000000
 3244 1435 488B45F8 		movq	-8(%rbp), %rax
 3245 1439 488910   		movq	%rdx, (%rax)
 3246 143c 488B45F8 		movq	-8(%rbp), %rax
 3247 1440 4889C7   		movq	%rax, %rdi
 3248 1443 E8000000 		call	_ZN8UnitTest4TestD2Ev@PLT
 3248      00
 3249              	.LBE19:
 3250 1448 90       		nop
 3251 1449 C9       		leave
 3252              		.cfi_def_cfa 7, 8
 3253 144a C3       		ret
 3254              		.cfi_endproc
 3255              	.LFE1236:
 3257              		.set	_ZN12_GLOBAL__N_148TestStreamingUnsignedLongWritesCorrectCharactersD1Ev,_ZN12_GLOBAL__N_148Te
 3258 144b 90       		.align 2
 3260              	_ZN12_GLOBAL__N_148TestStreamingUnsignedLongWritesCorrectCharactersD0Ev:
 3261              	.LFB1238:
  53:TestMemoryOutStream.cpp **** {
 3262              		.loc 3 53 0
 3263              		.cfi_startproc
 3264              		.cfi_personality 0x9b,DW.ref.__gxx_personality_v0
 3265              		.cfi_lsda 0x1b,.LLSDA1238
 3266 144c 55       		pushq	%rbp
 3267              		.cfi_def_cfa_offset 16
 3268              		.cfi_offset 6, -16
 3269 144d 4889E5   		movq	%rsp, %rbp
 3270              		.cfi_def_cfa_register 6
 3271 1450 53       		pushq	%rbx
 3272 1451 4883EC18 		subq	$24, %rsp
 3273              		.cfi_offset 3, -24
 3274 1455 48897DE8 		movq	%rdi, -24(%rbp)
  53:TestMemoryOutStream.cpp **** {
 3275              		.loc 3 53 0
 3276 1459 488B45E8 		movq	-24(%rbp), %rax
 3277 145d 4889C7   		movq	%rax, %rdi
 3278              	.LEHB91:
 3279 1460 E8BDFFFF 		call	_ZN12_GLOBAL__N_148TestStreamingUnsignedLongWritesCorrectCharactersD1Ev
 3279      FF
 3280              	.LEHE91:
  53:TestMemoryOutStream.cpp **** {
 3281              		.loc 3 53 0 is_stmt 0 discriminator 2
 3282 1465 488B45E8 		movq	-24(%rbp), %rax
 3283 1469 4889C7   		movq	%rax, %rdi
 3284 146c E8000000 		call	_ZdlPv@PLT
 3284      00
 3285 1471 EB1A     		jmp	.L164
 3286              	.L163:
 3287 1473 4889C3   		movq	%rax, %rbx
  53:TestMemoryOutStream.cpp **** {
 3288              		.loc 3 53 0
 3289 1476 488B45E8 		movq	-24(%rbp), %rax
 3290 147a 4889C7   		movq	%rax, %rdi
 3291 147d E8000000 		call	_ZdlPv@PLT
 3291      00
 3292 1482 4889D8   		movq	%rbx, %rax
 3293 1485 4889C7   		movq	%rax, %rdi
 3294              	.LEHB92:
 3295 1488 E8000000 		call	_Unwind_Resume@PLT
 3295      00
 3296              	.LEHE92:
 3297              	.L164:
 3298 148d 4883C418 		addq	$24, %rsp
 3299 1491 5B       		popq	%rbx
 3300 1492 5D       		popq	%rbp
 3301              		.cfi_def_cfa 7, 8
 3302 1493 C3       		ret
 3303              		.cfi_endproc
 3304              	.LFE1238:
 3305              		.section	.gcc_except_table
 3306              	.LLSDA1238:
 3307 024c FF       		.byte	0xff
 3308 024d FF       		.byte	0xff
 3309 024e 01       		.byte	0x1
 3310 024f 08       		.uleb128 .LLSDACSE1238-.LLSDACSB1238
 3311              	.LLSDACSB1238:
 3312 0250 14       		.uleb128 .LEHB91-.LFB1238
 3313 0251 05       		.uleb128 .LEHE91-.LEHB91
 3314 0252 27       		.uleb128 .L163-.LFB1238
 3315 0253 00       		.uleb128 0
 3316 0254 3C       		.uleb128 .LEHB92-.LFB1238
 3317 0255 05       		.uleb128 .LEHE92-.LEHB92
 3318 0256 00       		.uleb128 0
 3319 0257 00       		.uleb128 0
 3320              	.LLSDACSE1238:
 3321              		.text
 3323              		.section	.data.rel.ro.local
 3324              		.align 8
 3327              	_ZTVN12_GLOBAL__N_140TestStreamingLongWritesCorrectCharactersE:
 3328 00c8 00000000 		.quad	0
 3328      00000000 
 3329 00d0 00000000 		.quad	_ZTIN12_GLOBAL__N_140TestStreamingLongWritesCorrectCharactersE
 3329      00000000 
 3330 00d8 00000000 		.quad	_ZN12_GLOBAL__N_140TestStreamingLongWritesCorrectCharactersD1Ev
 3330      00000000 
 3331 00e0 00000000 		.quad	_ZN12_GLOBAL__N_140TestStreamingLongWritesCorrectCharactersD0Ev
 3331      00000000 
 3332 00e8 00000000 		.quad	_ZNK12_GLOBAL__N_140TestStreamingLongWritesCorrectCharacters7RunImplEv
 3332      00000000 
 3333              		.text
 3334              		.align 2
 3336              	_ZN12_GLOBAL__N_140TestStreamingLongWritesCorrectCharactersD2Ev:
 3337              	.LFB1240:
  46:TestMemoryOutStream.cpp **** {
 3338              		.loc 3 46 0 is_stmt 1
 3339              		.cfi_startproc
 3340 1494 55       		pushq	%rbp
 3341              		.cfi_def_cfa_offset 16
 3342              		.cfi_offset 6, -16
 3343 1495 4889E5   		movq	%rsp, %rbp
 3344              		.cfi_def_cfa_register 6
 3345 1498 4883EC10 		subq	$16, %rsp
 3346 149c 48897DF8 		movq	%rdi, -8(%rbp)
 3347              	.LBB20:
  46:TestMemoryOutStream.cpp **** {
 3348              		.loc 3 46 0
 3349 14a0 488D1500 		leaq	16+_ZTVN12_GLOBAL__N_140TestStreamingLongWritesCorrectCharactersE(%rip), %rdx
 3349      000000
 3350 14a7 488B45F8 		movq	-8(%rbp), %rax
 3351 14ab 488910   		movq	%rdx, (%rax)
 3352 14ae 488B45F8 		movq	-8(%rbp), %rax
 3353 14b2 4889C7   		movq	%rax, %rdi
 3354 14b5 E8000000 		call	_ZN8UnitTest4TestD2Ev@PLT
 3354      00
 3355              	.LBE20:
 3356 14ba 90       		nop
 3357 14bb C9       		leave
 3358              		.cfi_def_cfa 7, 8
 3359 14bc C3       		ret
 3360              		.cfi_endproc
 3361              	.LFE1240:
 3363              		.set	_ZN12_GLOBAL__N_140TestStreamingLongWritesCorrectCharactersD1Ev,_ZN12_GLOBAL__N_140TestStream
 3364 14bd 90       		.align 2
 3366              	_ZN12_GLOBAL__N_140TestStreamingLongWritesCorrectCharactersD0Ev:
 3367              	.LFB1242:
  46:TestMemoryOutStream.cpp **** {
 3368              		.loc 3 46 0
 3369              		.cfi_startproc
 3370              		.cfi_personality 0x9b,DW.ref.__gxx_personality_v0
 3371              		.cfi_lsda 0x1b,.LLSDA1242
 3372 14be 55       		pushq	%rbp
 3373              		.cfi_def_cfa_offset 16
 3374              		.cfi_offset 6, -16
 3375 14bf 4889E5   		movq	%rsp, %rbp
 3376              		.cfi_def_cfa_register 6
 3377 14c2 53       		pushq	%rbx
 3378 14c3 4883EC18 		subq	$24, %rsp
 3379              		.cfi_offset 3, -24
 3380 14c7 48897DE8 		movq	%rdi, -24(%rbp)
  46:TestMemoryOutStream.cpp **** {
 3381              		.loc 3 46 0
 3382 14cb 488B45E8 		movq	-24(%rbp), %rax
 3383 14cf 4889C7   		movq	%rax, %rdi
 3384              	.LEHB93:
 3385 14d2 E8BDFFFF 		call	_ZN12_GLOBAL__N_140TestStreamingLongWritesCorrectCharactersD1Ev
 3385      FF
 3386              	.LEHE93:
  46:TestMemoryOutStream.cpp **** {
 3387              		.loc 3 46 0 is_stmt 0 discriminator 2
 3388 14d7 488B45E8 		movq	-24(%rbp), %rax
 3389 14db 4889C7   		movq	%rax, %rdi
 3390 14de E8000000 		call	_ZdlPv@PLT
 3390      00
 3391 14e3 EB1A     		jmp	.L169
 3392              	.L168:
 3393 14e5 4889C3   		movq	%rax, %rbx
  46:TestMemoryOutStream.cpp **** {
 3394              		.loc 3 46 0
 3395 14e8 488B45E8 		movq	-24(%rbp), %rax
 3396 14ec 4889C7   		movq	%rax, %rdi
 3397 14ef E8000000 		call	_ZdlPv@PLT
 3397      00
 3398 14f4 4889D8   		movq	%rbx, %rax
 3399 14f7 4889C7   		movq	%rax, %rdi
 3400              	.LEHB94:
 3401 14fa E8000000 		call	_Unwind_Resume@PLT
 3401      00
 3402              	.LEHE94:
 3403              	.L169:
 3404 14ff 4883C418 		addq	$24, %rsp
 3405 1503 5B       		popq	%rbx
 3406 1504 5D       		popq	%rbp
 3407              		.cfi_def_cfa 7, 8
 3408 1505 C3       		ret
 3409              		.cfi_endproc
 3410              	.LFE1242:
 3411              		.section	.gcc_except_table
 3412              	.LLSDA1242:
 3413 0258 FF       		.byte	0xff
 3414 0259 FF       		.byte	0xff
 3415 025a 01       		.byte	0x1
 3416 025b 08       		.uleb128 .LLSDACSE1242-.LLSDACSB1242
 3417              	.LLSDACSB1242:
 3418 025c 14       		.uleb128 .LEHB93-.LFB1242
 3419 025d 05       		.uleb128 .LEHE93-.LEHB93
 3420 025e 27       		.uleb128 .L168-.LFB1242
 3421 025f 00       		.uleb128 0
 3422 0260 3C       		.uleb128 .LEHB94-.LFB1242
 3423 0261 05       		.uleb128 .LEHE94-.LEHB94
 3424 0262 00       		.uleb128 0
 3425 0263 00       		.uleb128 0
 3426              	.LLSDACSE1242:
 3427              		.text
 3429              		.section	.data.rel.ro.local
 3430              		.align 8
 3433              	_ZTVN12_GLOBAL__N_147TestStreamingUnsignedIntWritesCorrectCharactersE:
 3434 00f0 00000000 		.quad	0
 3434      00000000 
 3435 00f8 00000000 		.quad	_ZTIN12_GLOBAL__N_147TestStreamingUnsignedIntWritesCorrectCharactersE
 3435      00000000 
 3436 0100 00000000 		.quad	_ZN12_GLOBAL__N_147TestStreamingUnsignedIntWritesCorrectCharactersD1Ev
 3436      00000000 
 3437 0108 00000000 		.quad	_ZN12_GLOBAL__N_147TestStreamingUnsignedIntWritesCorrectCharactersD0Ev
 3437      00000000 
 3438 0110 00000000 		.quad	_ZNK12_GLOBAL__N_147TestStreamingUnsignedIntWritesCorrectCharacters7RunImplEv
 3438      00000000 
 3439              		.text
 3440              		.align 2
 3442              	_ZN12_GLOBAL__N_147TestStreamingUnsignedIntWritesCorrectCharactersD2Ev:
 3443              	.LFB1244:
  39:TestMemoryOutStream.cpp **** {
 3444              		.loc 3 39 0 is_stmt 1
 3445              		.cfi_startproc
 3446 1506 55       		pushq	%rbp
 3447              		.cfi_def_cfa_offset 16
 3448              		.cfi_offset 6, -16
 3449 1507 4889E5   		movq	%rsp, %rbp
 3450              		.cfi_def_cfa_register 6
 3451 150a 4883EC10 		subq	$16, %rsp
 3452 150e 48897DF8 		movq	%rdi, -8(%rbp)
 3453              	.LBB21:
  39:TestMemoryOutStream.cpp **** {
 3454              		.loc 3 39 0
 3455 1512 488D1500 		leaq	16+_ZTVN12_GLOBAL__N_147TestStreamingUnsignedIntWritesCorrectCharactersE(%rip), %rdx
 3455      000000
 3456 1519 488B45F8 		movq	-8(%rbp), %rax
 3457 151d 488910   		movq	%rdx, (%rax)
 3458 1520 488B45F8 		movq	-8(%rbp), %rax
 3459 1524 4889C7   		movq	%rax, %rdi
 3460 1527 E8000000 		call	_ZN8UnitTest4TestD2Ev@PLT
 3460      00
 3461              	.LBE21:
 3462 152c 90       		nop
 3463 152d C9       		leave
 3464              		.cfi_def_cfa 7, 8
 3465 152e C3       		ret
 3466              		.cfi_endproc
 3467              	.LFE1244:
 3469              		.set	_ZN12_GLOBAL__N_147TestStreamingUnsignedIntWritesCorrectCharactersD1Ev,_ZN12_GLOBAL__N_147Tes
 3470 152f 90       		.align 2
 3472              	_ZN12_GLOBAL__N_147TestStreamingUnsignedIntWritesCorrectCharactersD0Ev:
 3473              	.LFB1246:
  39:TestMemoryOutStream.cpp **** {
 3474              		.loc 3 39 0
 3475              		.cfi_startproc
 3476              		.cfi_personality 0x9b,DW.ref.__gxx_personality_v0
 3477              		.cfi_lsda 0x1b,.LLSDA1246
 3478 1530 55       		pushq	%rbp
 3479              		.cfi_def_cfa_offset 16
 3480              		.cfi_offset 6, -16
 3481 1531 4889E5   		movq	%rsp, %rbp
 3482              		.cfi_def_cfa_register 6
 3483 1534 53       		pushq	%rbx
 3484 1535 4883EC18 		subq	$24, %rsp
 3485              		.cfi_offset 3, -24
 3486 1539 48897DE8 		movq	%rdi, -24(%rbp)
  39:TestMemoryOutStream.cpp **** {
 3487              		.loc 3 39 0
 3488 153d 488B45E8 		movq	-24(%rbp), %rax
 3489 1541 4889C7   		movq	%rax, %rdi
 3490              	.LEHB95:
 3491 1544 E8BDFFFF 		call	_ZN12_GLOBAL__N_147TestStreamingUnsignedIntWritesCorrectCharactersD1Ev
 3491      FF
 3492              	.LEHE95:
  39:TestMemoryOutStream.cpp **** {
 3493              		.loc 3 39 0 is_stmt 0 discriminator 2
 3494 1549 488B45E8 		movq	-24(%rbp), %rax
 3495 154d 4889C7   		movq	%rax, %rdi
 3496 1550 E8000000 		call	_ZdlPv@PLT
 3496      00
 3497 1555 EB1A     		jmp	.L174
 3498              	.L173:
 3499 1557 4889C3   		movq	%rax, %rbx
  39:TestMemoryOutStream.cpp **** {
 3500              		.loc 3 39 0
 3501 155a 488B45E8 		movq	-24(%rbp), %rax
 3502 155e 4889C7   		movq	%rax, %rdi
 3503 1561 E8000000 		call	_ZdlPv@PLT
 3503      00
 3504 1566 4889D8   		movq	%rbx, %rax
 3505 1569 4889C7   		movq	%rax, %rdi
 3506              	.LEHB96:
 3507 156c E8000000 		call	_Unwind_Resume@PLT
 3507      00
 3508              	.LEHE96:
 3509              	.L174:
 3510 1571 4883C418 		addq	$24, %rsp
 3511 1575 5B       		popq	%rbx
 3512 1576 5D       		popq	%rbp
 3513              		.cfi_def_cfa 7, 8
 3514 1577 C3       		ret
 3515              		.cfi_endproc
 3516              	.LFE1246:
 3517              		.section	.gcc_except_table
 3518              	.LLSDA1246:
 3519 0264 FF       		.byte	0xff
 3520 0265 FF       		.byte	0xff
 3521 0266 01       		.byte	0x1
 3522 0267 08       		.uleb128 .LLSDACSE1246-.LLSDACSB1246
 3523              	.LLSDACSB1246:
 3524 0268 14       		.uleb128 .LEHB95-.LFB1246
 3525 0269 05       		.uleb128 .LEHE95-.LEHB95
 3526 026a 27       		.uleb128 .L173-.LFB1246
 3527 026b 00       		.uleb128 0
 3528 026c 3C       		.uleb128 .LEHB96-.LFB1246
 3529 026d 05       		.uleb128 .LEHE96-.LEHB96
 3530 026e 00       		.uleb128 0
 3531 026f 00       		.uleb128 0
 3532              	.LLSDACSE1246:
 3533              		.text
 3535              		.section	.data.rel.ro.local
 3536              		.align 8
 3539              	_ZTVN12_GLOBAL__N_139TestStreamingIntWritesCorrectCharactersE:
 3540 0118 00000000 		.quad	0
 3540      00000000 
 3541 0120 00000000 		.quad	_ZTIN12_GLOBAL__N_139TestStreamingIntWritesCorrectCharactersE
 3541      00000000 
 3542 0128 00000000 		.quad	_ZN12_GLOBAL__N_139TestStreamingIntWritesCorrectCharactersD1Ev
 3542      00000000 
 3543 0130 00000000 		.quad	_ZN12_GLOBAL__N_139TestStreamingIntWritesCorrectCharactersD0Ev
 3543      00000000 
 3544 0138 00000000 		.quad	_ZNK12_GLOBAL__N_139TestStreamingIntWritesCorrectCharacters7RunImplEv
 3544      00000000 
 3545              		.text
 3546              		.align 2
 3548              	_ZN12_GLOBAL__N_139TestStreamingIntWritesCorrectCharactersD2Ev:
 3549              	.LFB1248:
  32:TestMemoryOutStream.cpp **** {
 3550              		.loc 3 32 0 is_stmt 1
 3551              		.cfi_startproc
 3552 1578 55       		pushq	%rbp
 3553              		.cfi_def_cfa_offset 16
 3554              		.cfi_offset 6, -16
 3555 1579 4889E5   		movq	%rsp, %rbp
 3556              		.cfi_def_cfa_register 6
 3557 157c 4883EC10 		subq	$16, %rsp
 3558 1580 48897DF8 		movq	%rdi, -8(%rbp)
 3559              	.LBB22:
  32:TestMemoryOutStream.cpp **** {
 3560              		.loc 3 32 0
 3561 1584 488D1500 		leaq	16+_ZTVN12_GLOBAL__N_139TestStreamingIntWritesCorrectCharactersE(%rip), %rdx
 3561      000000
 3562 158b 488B45F8 		movq	-8(%rbp), %rax
 3563 158f 488910   		movq	%rdx, (%rax)
 3564 1592 488B45F8 		movq	-8(%rbp), %rax
 3565 1596 4889C7   		movq	%rax, %rdi
 3566 1599 E8000000 		call	_ZN8UnitTest4TestD2Ev@PLT
 3566      00
 3567              	.LBE22:
 3568 159e 90       		nop
 3569 159f C9       		leave
 3570              		.cfi_def_cfa 7, 8
 3571 15a0 C3       		ret
 3572              		.cfi_endproc
 3573              	.LFE1248:
 3575              		.set	_ZN12_GLOBAL__N_139TestStreamingIntWritesCorrectCharactersD1Ev,_ZN12_GLOBAL__N_139TestStreami
 3576 15a1 90       		.align 2
 3578              	_ZN12_GLOBAL__N_139TestStreamingIntWritesCorrectCharactersD0Ev:
 3579              	.LFB1250:
  32:TestMemoryOutStream.cpp **** {
 3580              		.loc 3 32 0
 3581              		.cfi_startproc
 3582              		.cfi_personality 0x9b,DW.ref.__gxx_personality_v0
 3583              		.cfi_lsda 0x1b,.LLSDA1250
 3584 15a2 55       		pushq	%rbp
 3585              		.cfi_def_cfa_offset 16
 3586              		.cfi_offset 6, -16
 3587 15a3 4889E5   		movq	%rsp, %rbp
 3588              		.cfi_def_cfa_register 6
 3589 15a6 53       		pushq	%rbx
 3590 15a7 4883EC18 		subq	$24, %rsp
 3591              		.cfi_offset 3, -24
 3592 15ab 48897DE8 		movq	%rdi, -24(%rbp)
  32:TestMemoryOutStream.cpp **** {
 3593              		.loc 3 32 0
 3594 15af 488B45E8 		movq	-24(%rbp), %rax
 3595 15b3 4889C7   		movq	%rax, %rdi
 3596              	.LEHB97:
 3597 15b6 E8BDFFFF 		call	_ZN12_GLOBAL__N_139TestStreamingIntWritesCorrectCharactersD1Ev
 3597      FF
 3598              	.LEHE97:
  32:TestMemoryOutStream.cpp **** {
 3599              		.loc 3 32 0 is_stmt 0 discriminator 2
 3600 15bb 488B45E8 		movq	-24(%rbp), %rax
 3601 15bf 4889C7   		movq	%rax, %rdi
 3602 15c2 E8000000 		call	_ZdlPv@PLT
 3602      00
 3603 15c7 EB1A     		jmp	.L179
 3604              	.L178:
 3605 15c9 4889C3   		movq	%rax, %rbx
  32:TestMemoryOutStream.cpp **** {
 3606              		.loc 3 32 0
 3607 15cc 488B45E8 		movq	-24(%rbp), %rax
 3608 15d0 4889C7   		movq	%rax, %rdi
 3609 15d3 E8000000 		call	_ZdlPv@PLT
 3609      00
 3610 15d8 4889D8   		movq	%rbx, %rax
 3611 15db 4889C7   		movq	%rax, %rdi
 3612              	.LEHB98:
 3613 15de E8000000 		call	_Unwind_Resume@PLT
 3613      00
 3614              	.LEHE98:
 3615              	.L179:
 3616 15e3 4883C418 		addq	$24, %rsp
 3617 15e7 5B       		popq	%rbx
 3618 15e8 5D       		popq	%rbp
 3619              		.cfi_def_cfa 7, 8
 3620 15e9 C3       		ret
 3621              		.cfi_endproc
 3622              	.LFE1250:
 3623              		.section	.gcc_except_table
 3624              	.LLSDA1250:
 3625 0270 FF       		.byte	0xff
 3626 0271 FF       		.byte	0xff
 3627 0272 01       		.byte	0x1
 3628 0273 08       		.uleb128 .LLSDACSE1250-.LLSDACSB1250
 3629              	.LLSDACSB1250:
 3630 0274 14       		.uleb128 .LEHB97-.LFB1250
 3631 0275 05       		.uleb128 .LEHE97-.LEHB97
 3632 0276 27       		.uleb128 .L178-.LFB1250
 3633 0277 00       		.uleb128 0
 3634 0278 3C       		.uleb128 .LEHB98-.LFB1250
 3635 0279 05       		.uleb128 .LEHE98-.LEHB98
 3636 027a 00       		.uleb128 0
 3637 027b 00       		.uleb128 0
 3638              	.LLSDACSE1250:
 3639              		.text
 3641              		.section	.data.rel.ro.local
 3642              		.align 8
 3645              	_ZTVN12_GLOBAL__N_144TestStreamingMultipleTimesConcatenatesResultE:
 3646 0140 00000000 		.quad	0
 3646      00000000 
 3647 0148 00000000 		.quad	_ZTIN12_GLOBAL__N_144TestStreamingMultipleTimesConcatenatesResultE
 3647      00000000 
 3648 0150 00000000 		.quad	_ZN12_GLOBAL__N_144TestStreamingMultipleTimesConcatenatesResultD1Ev
 3648      00000000 
 3649 0158 00000000 		.quad	_ZN12_GLOBAL__N_144TestStreamingMultipleTimesConcatenatesResultD0Ev
 3649      00000000 
 3650 0160 00000000 		.quad	_ZNK12_GLOBAL__N_144TestStreamingMultipleTimesConcatenatesResult7RunImplEv
 3650      00000000 
 3651              		.text
 3652              		.align 2
 3654              	_ZN12_GLOBAL__N_144TestStreamingMultipleTimesConcatenatesResultD2Ev:
 3655              	.LFB1252:
  25:TestMemoryOutStream.cpp **** {
 3656              		.loc 3 25 0 is_stmt 1
 3657              		.cfi_startproc
 3658 15ea 55       		pushq	%rbp
 3659              		.cfi_def_cfa_offset 16
 3660              		.cfi_offset 6, -16
 3661 15eb 4889E5   		movq	%rsp, %rbp
 3662              		.cfi_def_cfa_register 6
 3663 15ee 4883EC10 		subq	$16, %rsp
 3664 15f2 48897DF8 		movq	%rdi, -8(%rbp)
 3665              	.LBB23:
  25:TestMemoryOutStream.cpp **** {
 3666              		.loc 3 25 0
 3667 15f6 488D1500 		leaq	16+_ZTVN12_GLOBAL__N_144TestStreamingMultipleTimesConcatenatesResultE(%rip), %rdx
 3667      000000
 3668 15fd 488B45F8 		movq	-8(%rbp), %rax
 3669 1601 488910   		movq	%rdx, (%rax)
 3670 1604 488B45F8 		movq	-8(%rbp), %rax
 3671 1608 4889C7   		movq	%rax, %rdi
 3672 160b E8000000 		call	_ZN8UnitTest4TestD2Ev@PLT
 3672      00
 3673              	.LBE23:
 3674 1610 90       		nop
 3675 1611 C9       		leave
 3676              		.cfi_def_cfa 7, 8
 3677 1612 C3       		ret
 3678              		.cfi_endproc
 3679              	.LFE1252:
 3681              		.set	_ZN12_GLOBAL__N_144TestStreamingMultipleTimesConcatenatesResultD1Ev,_ZN12_GLOBAL__N_144TestSt
 3682 1613 90       		.align 2
 3684              	_ZN12_GLOBAL__N_144TestStreamingMultipleTimesConcatenatesResultD0Ev:
 3685              	.LFB1254:
  25:TestMemoryOutStream.cpp **** {
 3686              		.loc 3 25 0
 3687              		.cfi_startproc
 3688              		.cfi_personality 0x9b,DW.ref.__gxx_personality_v0
 3689              		.cfi_lsda 0x1b,.LLSDA1254
 3690 1614 55       		pushq	%rbp
 3691              		.cfi_def_cfa_offset 16
 3692              		.cfi_offset 6, -16
 3693 1615 4889E5   		movq	%rsp, %rbp
 3694              		.cfi_def_cfa_register 6
 3695 1618 53       		pushq	%rbx
 3696 1619 4883EC18 		subq	$24, %rsp
 3697              		.cfi_offset 3, -24
 3698 161d 48897DE8 		movq	%rdi, -24(%rbp)
  25:TestMemoryOutStream.cpp **** {
 3699              		.loc 3 25 0
 3700 1621 488B45E8 		movq	-24(%rbp), %rax
 3701 1625 4889C7   		movq	%rax, %rdi
 3702              	.LEHB99:
 3703 1628 E8BDFFFF 		call	_ZN12_GLOBAL__N_144TestStreamingMultipleTimesConcatenatesResultD1Ev
 3703      FF
 3704              	.LEHE99:
  25:TestMemoryOutStream.cpp **** {
 3705              		.loc 3 25 0 is_stmt 0 discriminator 2
 3706 162d 488B45E8 		movq	-24(%rbp), %rax
 3707 1631 4889C7   		movq	%rax, %rdi
 3708 1634 E8000000 		call	_ZdlPv@PLT
 3708      00
 3709 1639 EB1A     		jmp	.L184
 3710              	.L183:
 3711 163b 4889C3   		movq	%rax, %rbx
  25:TestMemoryOutStream.cpp **** {
 3712              		.loc 3 25 0
 3713 163e 488B45E8 		movq	-24(%rbp), %rax
 3714 1642 4889C7   		movq	%rax, %rdi
 3715 1645 E8000000 		call	_ZdlPv@PLT
 3715      00
 3716 164a 4889D8   		movq	%rbx, %rax
 3717 164d 4889C7   		movq	%rax, %rdi
 3718              	.LEHB100:
 3719 1650 E8000000 		call	_Unwind_Resume@PLT
 3719      00
 3720              	.LEHE100:
 3721              	.L184:
 3722 1655 4883C418 		addq	$24, %rsp
 3723 1659 5B       		popq	%rbx
 3724 165a 5D       		popq	%rbp
 3725              		.cfi_def_cfa 7, 8
 3726 165b C3       		ret
 3727              		.cfi_endproc
 3728              	.LFE1254:
 3729              		.section	.gcc_except_table
 3730              	.LLSDA1254:
 3731 027c FF       		.byte	0xff
 3732 027d FF       		.byte	0xff
 3733 027e 01       		.byte	0x1
 3734 027f 08       		.uleb128 .LLSDACSE1254-.LLSDACSB1254
 3735              	.LLSDACSB1254:
 3736 0280 14       		.uleb128 .LEHB99-.LFB1254
 3737 0281 05       		.uleb128 .LEHE99-.LEHB99
 3738 0282 27       		.uleb128 .L183-.LFB1254
 3739 0283 00       		.uleb128 0
 3740 0284 3C       		.uleb128 .LEHB100-.LFB1254
 3741 0285 05       		.uleb128 .LEHE100-.LEHB100
 3742 0286 00       		.uleb128 0
 3743 0287 00       		.uleb128 0
 3744              	.LLSDACSE1254:
 3745              		.text
 3747              		.section	.data.rel.ro.local
 3748              		.align 8
 3751              	_ZTVN12_GLOBAL__N_133TestStreamingTextCopiesCharactersE:
 3752 0168 00000000 		.quad	0
 3752      00000000 
 3753 0170 00000000 		.quad	_ZTIN12_GLOBAL__N_133TestStreamingTextCopiesCharactersE
 3753      00000000 
 3754 0178 00000000 		.quad	_ZN12_GLOBAL__N_133TestStreamingTextCopiesCharactersD1Ev
 3754      00000000 
 3755 0180 00000000 		.quad	_ZN12_GLOBAL__N_133TestStreamingTextCopiesCharactersD0Ev
 3755      00000000 
 3756 0188 00000000 		.quad	_ZNK12_GLOBAL__N_133TestStreamingTextCopiesCharacters7RunImplEv
 3756      00000000 
 3757              		.text
 3758              		.align 2
 3760              	_ZN12_GLOBAL__N_133TestStreamingTextCopiesCharactersD2Ev:
 3761              	.LFB1256:
  18:TestMemoryOutStream.cpp **** {
 3762              		.loc 3 18 0 is_stmt 1
 3763              		.cfi_startproc
 3764 165c 55       		pushq	%rbp
 3765              		.cfi_def_cfa_offset 16
 3766              		.cfi_offset 6, -16
 3767 165d 4889E5   		movq	%rsp, %rbp
 3768              		.cfi_def_cfa_register 6
 3769 1660 4883EC10 		subq	$16, %rsp
 3770 1664 48897DF8 		movq	%rdi, -8(%rbp)
 3771              	.LBB24:
  18:TestMemoryOutStream.cpp **** {
 3772              		.loc 3 18 0
 3773 1668 488D1500 		leaq	16+_ZTVN12_GLOBAL__N_133TestStreamingTextCopiesCharactersE(%rip), %rdx
 3773      000000
 3774 166f 488B45F8 		movq	-8(%rbp), %rax
 3775 1673 488910   		movq	%rdx, (%rax)
 3776 1676 488B45F8 		movq	-8(%rbp), %rax
 3777 167a 4889C7   		movq	%rax, %rdi
 3778 167d E8000000 		call	_ZN8UnitTest4TestD2Ev@PLT
 3778      00
 3779              	.LBE24:
 3780 1682 90       		nop
 3781 1683 C9       		leave
 3782              		.cfi_def_cfa 7, 8
 3783 1684 C3       		ret
 3784              		.cfi_endproc
 3785              	.LFE1256:
 3787              		.set	_ZN12_GLOBAL__N_133TestStreamingTextCopiesCharactersD1Ev,_ZN12_GLOBAL__N_133TestStreamingText
 3788 1685 90       		.align 2
 3790              	_ZN12_GLOBAL__N_133TestStreamingTextCopiesCharactersD0Ev:
 3791              	.LFB1258:
  18:TestMemoryOutStream.cpp **** {
 3792              		.loc 3 18 0
 3793              		.cfi_startproc
 3794              		.cfi_personality 0x9b,DW.ref.__gxx_personality_v0
 3795              		.cfi_lsda 0x1b,.LLSDA1258
 3796 1686 55       		pushq	%rbp
 3797              		.cfi_def_cfa_offset 16
 3798              		.cfi_offset 6, -16
 3799 1687 4889E5   		movq	%rsp, %rbp
 3800              		.cfi_def_cfa_register 6
 3801 168a 53       		pushq	%rbx
 3802 168b 4883EC18 		subq	$24, %rsp
 3803              		.cfi_offset 3, -24
 3804 168f 48897DE8 		movq	%rdi, -24(%rbp)
  18:TestMemoryOutStream.cpp **** {
 3805              		.loc 3 18 0
 3806 1693 488B45E8 		movq	-24(%rbp), %rax
 3807 1697 4889C7   		movq	%rax, %rdi
 3808              	.LEHB101:
 3809 169a E8BDFFFF 		call	_ZN12_GLOBAL__N_133TestStreamingTextCopiesCharactersD1Ev
 3809      FF
 3810              	.LEHE101:
  18:TestMemoryOutStream.cpp **** {
 3811              		.loc 3 18 0 is_stmt 0 discriminator 2
 3812 169f 488B45E8 		movq	-24(%rbp), %rax
 3813 16a3 4889C7   		movq	%rax, %rdi
 3814 16a6 E8000000 		call	_ZdlPv@PLT
 3814      00
 3815 16ab EB1A     		jmp	.L189
 3816              	.L188:
 3817 16ad 4889C3   		movq	%rax, %rbx
  18:TestMemoryOutStream.cpp **** {
 3818              		.loc 3 18 0
 3819 16b0 488B45E8 		movq	-24(%rbp), %rax
 3820 16b4 4889C7   		movq	%rax, %rdi
 3821 16b7 E8000000 		call	_ZdlPv@PLT
 3821      00
 3822 16bc 4889D8   		movq	%rbx, %rax
 3823 16bf 4889C7   		movq	%rax, %rdi
 3824              	.LEHB102:
 3825 16c2 E8000000 		call	_Unwind_Resume@PLT
 3825      00
 3826              	.LEHE102:
 3827              	.L189:
 3828 16c7 4883C418 		addq	$24, %rsp
 3829 16cb 5B       		popq	%rbx
 3830 16cc 5D       		popq	%rbp
 3831              		.cfi_def_cfa 7, 8
 3832 16cd C3       		ret
 3833              		.cfi_endproc
 3834              	.LFE1258:
 3835              		.section	.gcc_except_table
 3836              	.LLSDA1258:
 3837 0288 FF       		.byte	0xff
 3838 0289 FF       		.byte	0xff
 3839 028a 01       		.byte	0x1
 3840 028b 08       		.uleb128 .LLSDACSE1258-.LLSDACSB1258
 3841              	.LLSDACSB1258:
 3842 028c 14       		.uleb128 .LEHB101-.LFB1258
 3843 028d 05       		.uleb128 .LEHE101-.LEHB101
 3844 028e 27       		.uleb128 .L188-.LFB1258
 3845 028f 00       		.uleb128 0
 3846 0290 3C       		.uleb128 .LEHB102-.LFB1258
 3847 0291 05       		.uleb128 .LEHE102-.LEHB102
 3848 0292 00       		.uleb128 0
 3849 0293 00       		.uleb128 0
 3850              	.LLSDACSE1258:
 3851              		.text
 3853              		.section	.data.rel.ro.local
 3854              		.align 8
 3857              	_ZTVN12_GLOBAL__N_124TestDefaultIsEmptyStringE:
 3858 0190 00000000 		.quad	0
 3858      00000000 
 3859 0198 00000000 		.quad	_ZTIN12_GLOBAL__N_124TestDefaultIsEmptyStringE
 3859      00000000 
 3860 01a0 00000000 		.quad	_ZN12_GLOBAL__N_124TestDefaultIsEmptyStringD1Ev
 3860      00000000 
 3861 01a8 00000000 		.quad	_ZN12_GLOBAL__N_124TestDefaultIsEmptyStringD0Ev
 3861      00000000 
 3862 01b0 00000000 		.quad	_ZNK12_GLOBAL__N_124TestDefaultIsEmptyString7RunImplEv
 3862      00000000 
 3863              		.text
 3864              		.align 2
 3866              	_ZN12_GLOBAL__N_124TestDefaultIsEmptyStringD2Ev:
 3867              	.LFB1260:
  11:TestMemoryOutStream.cpp **** {
 3868              		.loc 3 11 0 is_stmt 1
 3869              		.cfi_startproc
 3870 16ce 55       		pushq	%rbp
 3871              		.cfi_def_cfa_offset 16
 3872              		.cfi_offset 6, -16
 3873 16cf 4889E5   		movq	%rsp, %rbp
 3874              		.cfi_def_cfa_register 6
 3875 16d2 4883EC10 		subq	$16, %rsp
 3876 16d6 48897DF8 		movq	%rdi, -8(%rbp)
 3877              	.LBB25:
  11:TestMemoryOutStream.cpp **** {
 3878              		.loc 3 11 0
 3879 16da 488D1500 		leaq	16+_ZTVN12_GLOBAL__N_124TestDefaultIsEmptyStringE(%rip), %rdx
 3879      000000
 3880 16e1 488B45F8 		movq	-8(%rbp), %rax
 3881 16e5 488910   		movq	%rdx, (%rax)
 3882 16e8 488B45F8 		movq	-8(%rbp), %rax
 3883 16ec 4889C7   		movq	%rax, %rdi
 3884 16ef E8000000 		call	_ZN8UnitTest4TestD2Ev@PLT
 3884      00
 3885              	.LBE25:
 3886 16f4 90       		nop
 3887 16f5 C9       		leave
 3888              		.cfi_def_cfa 7, 8
 3889 16f6 C3       		ret
 3890              		.cfi_endproc
 3891              	.LFE1260:
 3893              		.set	_ZN12_GLOBAL__N_124TestDefaultIsEmptyStringD1Ev,_ZN12_GLOBAL__N_124TestDefaultIsEmptyStringD2
 3894 16f7 90       		.align 2
 3896              	_ZN12_GLOBAL__N_124TestDefaultIsEmptyStringD0Ev:
 3897              	.LFB1262:
  11:TestMemoryOutStream.cpp **** {
 3898              		.loc 3 11 0
 3899              		.cfi_startproc
 3900              		.cfi_personality 0x9b,DW.ref.__gxx_personality_v0
 3901              		.cfi_lsda 0x1b,.LLSDA1262
 3902 16f8 55       		pushq	%rbp
 3903              		.cfi_def_cfa_offset 16
 3904              		.cfi_offset 6, -16
 3905 16f9 4889E5   		movq	%rsp, %rbp
 3906              		.cfi_def_cfa_register 6
 3907 16fc 53       		pushq	%rbx
 3908 16fd 4883EC18 		subq	$24, %rsp
 3909              		.cfi_offset 3, -24
 3910 1701 48897DE8 		movq	%rdi, -24(%rbp)
  11:TestMemoryOutStream.cpp **** {
 3911              		.loc 3 11 0
 3912 1705 488B45E8 		movq	-24(%rbp), %rax
 3913 1709 4889C7   		movq	%rax, %rdi
 3914              	.LEHB103:
 3915 170c E8BDFFFF 		call	_ZN12_GLOBAL__N_124TestDefaultIsEmptyStringD1Ev
 3915      FF
 3916              	.LEHE103:
  11:TestMemoryOutStream.cpp **** {
 3917              		.loc 3 11 0 is_stmt 0 discriminator 2
 3918 1711 488B45E8 		movq	-24(%rbp), %rax
 3919 1715 4889C7   		movq	%rax, %rdi
 3920 1718 E8000000 		call	_ZdlPv@PLT
 3920      00
 3921 171d EB1A     		jmp	.L194
 3922              	.L193:
 3923 171f 4889C3   		movq	%rax, %rbx
  11:TestMemoryOutStream.cpp **** {
 3924              		.loc 3 11 0
 3925 1722 488B45E8 		movq	-24(%rbp), %rax
 3926 1726 4889C7   		movq	%rax, %rdi
 3927 1729 E8000000 		call	_ZdlPv@PLT
 3927      00
 3928 172e 4889D8   		movq	%rbx, %rax
 3929 1731 4889C7   		movq	%rax, %rdi
 3930              	.LEHB104:
 3931 1734 E8000000 		call	_Unwind_Resume@PLT
 3931      00
 3932              	.LEHE104:
 3933              	.L194:
 3934 1739 4883C418 		addq	$24, %rsp
 3935 173d 5B       		popq	%rbx
 3936 173e 5D       		popq	%rbp
 3937              		.cfi_def_cfa 7, 8
 3938 173f C3       		ret
 3939              		.cfi_endproc
 3940              	.LFE1262:
 3941              		.section	.gcc_except_table
 3942              	.LLSDA1262:
 3943 0294 FF       		.byte	0xff
 3944 0295 FF       		.byte	0xff
 3945 0296 01       		.byte	0x1
 3946 0297 08       		.uleb128 .LLSDACSE1262-.LLSDACSB1262
 3947              	.LLSDACSB1262:
 3948 0298 14       		.uleb128 .LEHB103-.LFB1262
 3949 0299 05       		.uleb128 .LEHE103-.LEHB103
 3950 029a 27       		.uleb128 .L193-.LFB1262
 3951 029b 00       		.uleb128 0
 3952 029c 3C       		.uleb128 .LEHB104-.LFB1262
 3953 029d 05       		.uleb128 .LEHE104-.LEHB104
 3954 029e 00       		.uleb128 0
 3955 029f 00       		.uleb128 0
 3956              	.LLSDACSE1262:
 3957              		.text
 3959              		.weak	_ZTVN8UnitTest15MemoryOutStreamE
 3960              		.section	.data.rel.ro.local._ZTVN8UnitTest15MemoryOutStreamE,"awG",@progbits,_ZTVN8UnitTest15Memor
 3961              		.align 8
 3964              	_ZTVN8UnitTest15MemoryOutStreamE:
 3965 0000 90000000 		.quad	144
 3965      00000000 
 3966 0008 00000000 		.quad	0
 3966      00000000 
 3967 0010 00000000 		.quad	_ZTIN8UnitTest15MemoryOutStreamE
 3967      00000000 
 3968 0018 00000000 		.quad	_ZN8UnitTest15MemoryOutStreamD1Ev
 3968      00000000 
 3969 0020 00000000 		.quad	_ZN8UnitTest15MemoryOutStreamD0Ev
 3969      00000000 
 3970 0028 70FFFFFF 		.quad	-144
 3970      FFFFFFFF 
 3971 0030 70FFFFFF 		.quad	-144
 3971      FFFFFFFF 
 3972 0038 00000000 		.quad	_ZTIN8UnitTest15MemoryOutStreamE
 3972      00000000 
 3973 0040 00000000 		.quad	_ZTv0_n24_N8UnitTest15MemoryOutStreamD1Ev
 3973      00000000 
 3974 0048 00000000 		.quad	_ZTv0_n24_N8UnitTest15MemoryOutStreamD0Ev
 3974      00000000 
 3975              		.weak	_ZTTN8UnitTest15MemoryOutStreamE
 3976              		.section	.data.rel.ro.local._ZTTN8UnitTest15MemoryOutStreamE,"awG",@progbits,_ZTVN8UnitTest15Memor
 3977              		.align 8
 3980              	_ZTTN8UnitTest15MemoryOutStreamE:
 3981 0000 00000000 		.quad	_ZTVN8UnitTest15MemoryOutStreamE+24
 3981      00000000 
 3982 0008 00000000 		.quad	_ZTCN8UnitTest15MemoryOutStreamE0_NSt7__cxx1119basic_ostringstreamIcSt11char_traitsIcESaIcEE
 3982      00000000 
 3983 0010 00000000 		.quad	_ZTCN8UnitTest15MemoryOutStreamE0_So+24
 3983      00000000 
 3984 0018 00000000 		.quad	_ZTCN8UnitTest15MemoryOutStreamE0_So+64
 3984      00000000 
 3985 0020 00000000 		.quad	_ZTCN8UnitTest15MemoryOutStreamE0_NSt7__cxx1119basic_ostringstreamIcSt11char_traitsIcESaIcEE
 3985      00000000 
 3986 0028 00000000 		.quad	_ZTVN8UnitTest15MemoryOutStreamE+64
 3986      00000000 
 3987              		.hidden	_ZTCN8UnitTest15MemoryOutStreamE0_NSt7__cxx1119basic_ostringstreamIcSt11char_traitsIcESaIc
 3988              		.weak	_ZTCN8UnitTest15MemoryOutStreamE0_NSt7__cxx1119basic_ostringstreamIcSt11char_traitsIcESaIcEE
 3989              		.section	.data.rel.ro._ZTCN8UnitTest15MemoryOutStreamE0_NSt7__cxx1119basic_ostringstreamIcSt11char
 3990              		.align 8
 3993              	_ZTCN8UnitTest15MemoryOutStreamE0_NSt7__cxx1119basic_ostringstreamIcSt11char_traitsIcESaIcEEE:
 3994 0000 90000000 		.quad	144
 3994      00000000 
 3995 0008 00000000 		.quad	0
 3995      00000000 
 3996 0010 00000000 		.quad	_ZTINSt7__cxx1119basic_ostringstreamIcSt11char_traitsIcESaIcEEE
 3996      00000000 
 3997 0018 00000000 		.quad	0
 3997      00000000 
 3998 0020 00000000 		.quad	0
 3998      00000000 
 3999 0028 70FFFFFF 		.quad	-144
 3999      FFFFFFFF 
 4000 0030 70FFFFFF 		.quad	-144
 4000      FFFFFFFF 
 4001 0038 00000000 		.quad	_ZTINSt7__cxx1119basic_ostringstreamIcSt11char_traitsIcESaIcEEE
 4001      00000000 
 4002 0040 00000000 		.quad	0
 4002      00000000 
 4003 0048 00000000 		.quad	0
 4003      00000000 
 4004              		.hidden	_ZTCN8UnitTest15MemoryOutStreamE0_So
 4005              		.weak	_ZTCN8UnitTest15MemoryOutStreamE0_So
 4006              		.section	.data.rel.ro._ZTCN8UnitTest15MemoryOutStreamE0_So,"awG",@progbits,_ZTVN8UnitTest15MemoryO
 4007              		.align 8
 4010              	_ZTCN8UnitTest15MemoryOutStreamE0_So:
 4011 0000 90000000 		.quad	144
 4011      00000000 
 4012 0008 00000000 		.quad	0
 4012      00000000 
 4013 0010 00000000 		.quad	_ZTISo
 4013      00000000 
 4014 0018 00000000 		.quad	0
 4014      00000000 
 4015 0020 00000000 		.quad	0
 4015      00000000 
 4016 0028 70FFFFFF 		.quad	-144
 4016      FFFFFFFF 
 4017 0030 70FFFFFF 		.quad	-144
 4017      FFFFFFFF 
 4018 0038 00000000 		.quad	_ZTISo
 4018      00000000 
 4019 0040 00000000 		.quad	0
 4019      00000000 
 4020 0048 00000000 		.quad	0
 4020      00000000 
 4021              		.section	.text._ZN8UnitTest15MemoryOutStreamD1Ev,"axG",@progbits,_ZN8UnitTest15MemoryOutStreamD1Ev
 4022              		.align 2
 4023              		.weak	_ZN8UnitTest15MemoryOutStreamD1Ev
 4025              	_ZN8UnitTest15MemoryOutStreamD1Ev:
 4026              	.LFB1265:
  13:../MemoryOutStream.h **** {
 4027              		.loc 2 13 0 is_stmt 1
 4028              		.cfi_startproc
 4029              		.cfi_personality 0x9b,DW.ref.__gxx_personality_v0
 4030              		.cfi_lsda 0x1b,.LLSDA1265
 4031 0000 55       		pushq	%rbp
 4032              		.cfi_def_cfa_offset 16
 4033              		.cfi_offset 6, -16
 4034 0001 4889E5   		movq	%rsp, %rbp
 4035              		.cfi_def_cfa_register 6
 4036 0004 53       		pushq	%rbx
 4037 0005 4883EC18 		subq	$24, %rsp
 4038              		.cfi_offset 3, -24
 4039 0009 48897DE8 		movq	%rdi, -24(%rbp)
 4040              	.LBB26:
  13:../MemoryOutStream.h **** {
 4041              		.loc 2 13 0
 4042 000d 488D1500 		leaq	24+_ZTVN8UnitTest15MemoryOutStreamE(%rip), %rdx
 4042      000000
 4043 0014 488B45E8 		movq	-24(%rbp), %rax
 4044 0018 488910   		movq	%rdx, (%rax)
 4045 001b 488B45E8 		movq	-24(%rbp), %rax
 4046 001f 488D9090 		leaq	144(%rax), %rdx
 4046      000000
 4047 0026 488D0500 		leaq	64+_ZTVN8UnitTest15MemoryOutStreamE(%rip), %rax
 4047      000000
 4048 002d 488902   		movq	%rax, (%rdx)
 4049 0030 488B45E8 		movq	-24(%rbp), %rax
 4050 0034 4883C070 		addq	$112, %rax
 4051 0038 4889C7   		movq	%rax, %rdi
 4052              	.LEHB105:
 4053 003b E8000000 		call	_ZNSt7__cxx1112basic_stringIcSt11char_traitsIcESaIcEED1Ev@PLT
 4053      00
 4054              	.LEHE105:
  13:../MemoryOutStream.h **** {
 4055              		.loc 2 13 0 is_stmt 0 discriminator 2
 4056 0040 488B45E8 		movq	-24(%rbp), %rax
 4057 0044 488D1500 		leaq	8+_ZTTN8UnitTest15MemoryOutStreamE(%rip), %rdx
 4057      000000
 4058 004b 4889D6   		movq	%rdx, %rsi
 4059 004e 4889C7   		movq	%rax, %rdi
 4060              	.LEHB106:
 4061 0051 E8000000 		call	_ZNSt7__cxx1119basic_ostringstreamIcSt11char_traitsIcESaIcEED2Ev@PLT
 4061      00
 4062              	.LEHE106:
  13:../MemoryOutStream.h **** {
 4063              		.loc 2 13 0 discriminator 4
 4064 0056 488B45E8 		movq	-24(%rbp), %rax
 4065 005a 48059000 		addq	$144, %rax
 4065      0000
 4066 0060 4889C7   		movq	%rax, %rdi
 4067              	.LEHB107:
 4068 0063 E8000000 		call	_ZNSt9basic_iosIcSt11char_traitsIcEED2Ev@PLT
 4068      00
 4069              	.LEHE107:
 4070              	.LBE26:
 4071 0068 EB3B     		jmp	.L200
 4072              	.L198:
 4073 006a 4889C3   		movq	%rax, %rbx
 4074              	.LBB27:
  13:../MemoryOutStream.h **** {
 4075              		.loc 2 13 0
 4076 006d 488B45E8 		movq	-24(%rbp), %rax
 4077 0071 488D1500 		leaq	8+_ZTTN8UnitTest15MemoryOutStreamE(%rip), %rdx
 4077      000000
 4078 0078 4889D6   		movq	%rdx, %rsi
 4079 007b 4889C7   		movq	%rax, %rdi
 4080 007e E8000000 		call	_ZNSt7__cxx1119basic_ostringstreamIcSt11char_traitsIcESaIcEED2Ev@PLT
 4080      00
 4081 0083 EB03     		jmp	.L197
 4082              	.L199:
 4083 0085 4889C3   		movq	%rax, %rbx
 4084              	.L197:
  13:../MemoryOutStream.h **** {
 4085              		.loc 2 13 0 discriminator 3
 4086 0088 488B45E8 		movq	-24(%rbp), %rax
 4087 008c 48059000 		addq	$144, %rax
 4087      0000
 4088 0092 4889C7   		movq	%rax, %rdi
 4089 0095 E8000000 		call	_ZNSt9basic_iosIcSt11char_traitsIcEED2Ev@PLT
 4089      00
 4090 009a 4889D8   		movq	%rbx, %rax
 4091 009d 4889C7   		movq	%rax, %rdi
 4092              	.LEHB108:
 4093 00a0 E8000000 		call	_Unwind_Resume@PLT
 4093      00
 4094              	.LEHE108:
 4095              	.L200:
 4096              	.LBE27:
  13:../MemoryOutStream.h **** {
 4097              		.loc 2 13 0
 4098 00a5 4883C418 		addq	$24, %rsp
 4099 00a9 5B       		popq	%rbx
 4100 00aa 5D       		popq	%rbp
 4101              		.cfi_def_cfa 7, 8
 4102 00ab C3       		ret
 4103              		.cfi_endproc
 4104              	.LFE1265:
 4105              		.section	.gcc_except_table
 4106              	.LLSDA1265:
 4107 02a0 FF       		.byte	0xff
 4108 02a1 FF       		.byte	0xff
 4109 02a2 01       		.byte	0x1
 4110 02a3 12       		.uleb128 .LLSDACSE1265-.LLSDACSB1265
 4111              	.LLSDACSB1265:
 4112 02a4 3B       		.uleb128 .LEHB105-.LFB1265
 4113 02a5 05       		.uleb128 .LEHE105-.LEHB105
 4114 02a6 6A       		.uleb128 .L198-.LFB1265
 4115 02a7 00       		.uleb128 0
 4116 02a8 51       		.uleb128 .LEHB106-.LFB1265
 4117 02a9 05       		.uleb128 .LEHE106-.LEHB106
 4118 02aa 8501     		.uleb128 .L199-.LFB1265
 4119 02ac 00       		.uleb128 0
 4120 02ad 63       		.uleb128 .LEHB107-.LFB1265
 4121 02ae 05       		.uleb128 .LEHE107-.LEHB107
 4122 02af 00       		.uleb128 0
 4123 02b0 00       		.uleb128 0
 4124 02b1 A001     		.uleb128 .LEHB108-.LFB1265
 4125 02b3 05       		.uleb128 .LEHE108-.LEHB108
 4126 02b4 00       		.uleb128 0
 4127 02b5 00       		.uleb128 0
 4128              	.LLSDACSE1265:
 4129              		.section	.text._ZN8UnitTest15MemoryOutStreamD1Ev,"axG",@progbits,_ZN8UnitTest15MemoryOutStreamD1Ev
 4131              		.set	.LTHUNK0,_ZN8UnitTest15MemoryOutStreamD1Ev
 4132              		.weak	_ZTv0_n24_N8UnitTest15MemoryOutStreamD1Ev
 4134              	_ZTv0_n24_N8UnitTest15MemoryOutStreamD1Ev:
 4135              	.LFB1269:
  13:../MemoryOutStream.h **** {
 4136              		.loc 2 13 0 is_stmt 1
 4137              		.cfi_startproc
 4138 00ac 4C8B17   		movq	(%rdi), %r10
 4139 00af 49037AE8 		addq	-24(%r10), %rdi
 4140 00b3 E948FFFF 		jmp	.LTHUNK0
 4140      FF
 4141              		.cfi_endproc
 4142              	.LFE1269:
 4144              		.section	.text._ZN8UnitTest15MemoryOutStreamD0Ev,"axG",@progbits,_ZN8UnitTest15MemoryOutStreamD0Ev
 4145              		.align 2
 4146              		.weak	_ZN8UnitTest15MemoryOutStreamD0Ev
 4148              	_ZN8UnitTest15MemoryOutStreamD0Ev:
 4149              	.LFB1266:
  13:../MemoryOutStream.h **** {
 4150              		.loc 2 13 0
 4151              		.cfi_startproc
 4152              		.cfi_personality 0x9b,DW.ref.__gxx_personality_v0
 4153              		.cfi_lsda 0x1b,.LLSDA1266
 4154 0000 55       		pushq	%rbp
 4155              		.cfi_def_cfa_offset 16
 4156              		.cfi_offset 6, -16
 4157 0001 4889E5   		movq	%rsp, %rbp
 4158              		.cfi_def_cfa_register 6
 4159 0004 53       		pushq	%rbx
 4160 0005 4883EC18 		subq	$24, %rsp
 4161              		.cfi_offset 3, -24
 4162 0009 48897DE8 		movq	%rdi, -24(%rbp)
  13:../MemoryOutStream.h **** {
 4163              		.loc 2 13 0
 4164 000d 488B45E8 		movq	-24(%rbp), %rax
 4165 0011 4889C7   		movq	%rax, %rdi
 4166              	.LEHB109:
 4167 0014 E8000000 		call	_ZN8UnitTest15MemoryOutStreamD1Ev
 4167      00
 4168              	.LEHE109:
  13:../MemoryOutStream.h **** {
 4169              		.loc 2 13 0 is_stmt 0 discriminator 2
 4170 0019 488B45E8 		movq	-24(%rbp), %rax
 4171 001d 4889C7   		movq	%rax, %rdi
 4172 0020 E8000000 		call	_ZdlPv@PLT
 4172      00
 4173 0025 EB1A     		jmp	.L204
 4174              	.L203:
 4175 0027 4889C3   		movq	%rax, %rbx
  13:../MemoryOutStream.h **** {
 4176              		.loc 2 13 0
 4177 002a 488B45E8 		movq	-24(%rbp), %rax
 4178 002e 4889C7   		movq	%rax, %rdi
 4179 0031 E8000000 		call	_ZdlPv@PLT
 4179      00
 4180 0036 4889D8   		movq	%rbx, %rax
 4181 0039 4889C7   		movq	%rax, %rdi
 4182              	.LEHB110:
 4183 003c E8000000 		call	_Unwind_Resume@PLT
 4183      00
 4184              	.LEHE110:
 4185              	.L204:
 4186 0041 4883C418 		addq	$24, %rsp
 4187 0045 5B       		popq	%rbx
 4188 0046 5D       		popq	%rbp
 4189              		.cfi_def_cfa 7, 8
 4190 0047 C3       		ret
 4191              		.cfi_endproc
 4192              	.LFE1266:
 4193              		.section	.gcc_except_table
 4194              	.LLSDA1266:
 4195 02b6 FF       		.byte	0xff
 4196 02b7 FF       		.byte	0xff
 4197 02b8 01       		.byte	0x1
 4198 02b9 08       		.uleb128 .LLSDACSE1266-.LLSDACSB1266
 4199              	.LLSDACSB1266:
 4200 02ba 14       		.uleb128 .LEHB109-.LFB1266
 4201 02bb 05       		.uleb128 .LEHE109-.LEHB109
 4202 02bc 27       		.uleb128 .L203-.LFB1266
 4203 02bd 00       		.uleb128 0
 4204 02be 3C       		.uleb128 .LEHB110-.LFB1266
 4205 02bf 05       		.uleb128 .LEHE110-.LEHB110
 4206 02c0 00       		.uleb128 0
 4207 02c1 00       		.uleb128 0
 4208              	.LLSDACSE1266:
 4209              		.section	.text._ZN8UnitTest15MemoryOutStreamD0Ev,"axG",@progbits,_ZN8UnitTest15MemoryOutStreamD0Ev
 4211              		.set	.LTHUNK1,_ZN8UnitTest15MemoryOutStreamD0Ev
 4212              		.weak	_ZTv0_n24_N8UnitTest15MemoryOutStreamD0Ev
 4214              	_ZTv0_n24_N8UnitTest15MemoryOutStreamD0Ev:
 4215              	.LFB1270:
  13:../MemoryOutStream.h **** {
 4216              		.loc 2 13 0 is_stmt 1
 4217              		.cfi_startproc
 4218 0048 4C8B17   		movq	(%rdi), %r10
 4219 004b 49037AE8 		addq	-24(%r10), %rdi
 4220 004f EBAF     		jmp	.LTHUNK1
 4221              		.cfi_endproc
 4222              	.LFE1270:
 4224              		.section	.rodata
 4225 04c6 00000000 		.align 32
 4225      00000000 
 4225      00000000 
 4225      00000000 
 4225      00000000 
 4228              	_ZTSN12_GLOBAL__N_141TestStreamingSizeTWritesCorrectCharactersE:
 4229 04e0 2A4E3132 		.string	"*N12_GLOBAL__N_141TestStreamingSizeTWritesCorrectCharactersE"
 4229      5F474C4F 
 4229      42414C5F 
 4229      5F4E5F31 
 4229      34315465 
 4230              		.section	.data.rel.ro,"aw",@progbits
 4231              		.align 8
 4234              	_ZTIN12_GLOBAL__N_141TestStreamingSizeTWritesCorrectCharactersE:
 4235 0000 00000000 		.quad	_ZTVN10__cxxabiv120__si_class_type_infoE+16
 4235      00000000 
 4236 0008 00000000 		.quad	_ZTSN12_GLOBAL__N_141TestStreamingSizeTWritesCorrectCharactersE
 4236      00000000 
 4237 0010 00000000 		.quad	_ZTIN8UnitTest4TestE
 4237      00000000 
 4238              		.section	.rodata
 4239 051d 000000   		.align 32
 4242              	_ZTSN12_GLOBAL__N_143TestStreamingPointerWritesCorrectCharactersE:
 4243 0520 2A4E3132 		.string	"*N12_GLOBAL__N_143TestStreamingPointerWritesCorrectCharactersE"
 4243      5F474C4F 
 4243      42414C5F 
 4243      5F4E5F31 
 4243      34335465 
 4244              		.section	.data.rel.ro
 4245              		.align 8
 4248              	_ZTIN12_GLOBAL__N_143TestStreamingPointerWritesCorrectCharactersE:
 4249 0018 00000000 		.quad	_ZTVN10__cxxabiv120__si_class_type_infoE+16
 4249      00000000 
 4250 0020 00000000 		.quad	_ZTSN12_GLOBAL__N_143TestStreamingPointerWritesCorrectCharactersE
 4250      00000000 
 4251 0028 00000000 		.quad	_ZTIN8UnitTest4TestE
 4251      00000000 
 4252              		.section	.rodata
 4253 055f 00       		.align 32
 4256              	_ZTSN12_GLOBAL__N_142TestStreamingDoubleWritesCorrectCharactersE:
 4257 0560 2A4E3132 		.string	"*N12_GLOBAL__N_142TestStreamingDoubleWritesCorrectCharactersE"
 4257      5F474C4F 
 4257      42414C5F 
 4257      5F4E5F31 
 4257      34325465 
 4258              		.section	.data.rel.ro
 4259              		.align 8
 4262              	_ZTIN12_GLOBAL__N_142TestStreamingDoubleWritesCorrectCharactersE:
 4263 0030 00000000 		.quad	_ZTVN10__cxxabiv120__si_class_type_infoE+16
 4263      00000000 
 4264 0038 00000000 		.quad	_ZTSN12_GLOBAL__N_142TestStreamingDoubleWritesCorrectCharactersE
 4264      00000000 
 4265 0040 00000000 		.quad	_ZTIN8UnitTest4TestE
 4265      00000000 
 4266              		.section	.rodata
 4267 059e 0000     		.align 32
 4270              	_ZTSN12_GLOBAL__N_141TestStreamingFloatWritesCorrectCharactersE:
 4271 05a0 2A4E3132 		.string	"*N12_GLOBAL__N_141TestStreamingFloatWritesCorrectCharactersE"
 4271      5F474C4F 
 4271      42414C5F 
 4271      5F4E5F31 
 4271      34315465 
 4272              		.section	.data.rel.ro
 4273              		.align 8
 4276              	_ZTIN12_GLOBAL__N_141TestStreamingFloatWritesCorrectCharactersE:
 4277 0048 00000000 		.quad	_ZTVN10__cxxabiv120__si_class_type_infoE+16
 4277      00000000 
 4278 0050 00000000 		.quad	_ZTSN12_GLOBAL__N_141TestStreamingFloatWritesCorrectCharactersE
 4278      00000000 
 4279 0058 00000000 		.quad	_ZTIN8UnitTest4TestE
 4279      00000000 
 4280              		.section	.rodata
 4281 05dd 000000   		.align 32
 4284              	_ZTSN12_GLOBAL__N_148TestStreamingUnsignedLongWritesCorrectCharactersE:
 4285 05e0 2A4E3132 		.string	"*N12_GLOBAL__N_148TestStreamingUnsignedLongWritesCorrectCharactersE"
 4285      5F474C4F 
 4285      42414C5F 
 4285      5F4E5F31 
 4285      34385465 
 4286              		.section	.data.rel.ro
 4287              		.align 8
 4290              	_ZTIN12_GLOBAL__N_148TestStreamingUnsignedLongWritesCorrectCharactersE:
 4291 0060 00000000 		.quad	_ZTVN10__cxxabiv120__si_class_type_infoE+16
 4291      00000000 
 4292 0068 00000000 		.quad	_ZTSN12_GLOBAL__N_148TestStreamingUnsignedLongWritesCorrectCharactersE
 4292      00000000 
 4293 0070 00000000 		.quad	_ZTIN8UnitTest4TestE
 4293      00000000 
 4294              		.section	.rodata
 4295 0624 00000000 		.align 32
 4295      00000000 
 4295      00000000 
 4295      00000000 
 4295      00000000 
 4298              	_ZTSN12_GLOBAL__N_140TestStreamingLongWritesCorrectCharactersE:
 4299 0640 2A4E3132 		.string	"*N12_GLOBAL__N_140TestStreamingLongWritesCorrectCharactersE"
 4299      5F474C4F 
 4299      42414C5F 
 4299      5F4E5F31 
 4299      34305465 
 4300              		.section	.data.rel.ro
 4301              		.align 8
 4304              	_ZTIN12_GLOBAL__N_140TestStreamingLongWritesCorrectCharactersE:
 4305 0078 00000000 		.quad	_ZTVN10__cxxabiv120__si_class_type_infoE+16
 4305      00000000 
 4306 0080 00000000 		.quad	_ZTSN12_GLOBAL__N_140TestStreamingLongWritesCorrectCharactersE
 4306      00000000 
 4307 0088 00000000 		.quad	_ZTIN8UnitTest4TestE
 4307      00000000 
 4308              		.section	.rodata
 4309 067c 00000000 		.align 32
 4312              	_ZTSN12_GLOBAL__N_147TestStreamingUnsignedIntWritesCorrectCharactersE:
 4313 0680 2A4E3132 		.string	"*N12_GLOBAL__N_147TestStreamingUnsignedIntWritesCorrectCharactersE"
 4313      5F474C4F 
 4313      42414C5F 
 4313      5F4E5F31 
 4313      34375465 
 4314              		.section	.data.rel.ro
 4315              		.align 8
 4318              	_ZTIN12_GLOBAL__N_147TestStreamingUnsignedIntWritesCorrectCharactersE:
 4319 0090 00000000 		.quad	_ZTVN10__cxxabiv120__si_class_type_infoE+16
 4319      00000000 
 4320 0098 00000000 		.quad	_ZTSN12_GLOBAL__N_147TestStreamingUnsignedIntWritesCorrectCharactersE
 4320      00000000 
 4321 00a0 00000000 		.quad	_ZTIN8UnitTest4TestE
 4321      00000000 
 4322              		.section	.rodata
 4323 06c3 00000000 		.align 32
 4323      00000000 
 4323      00000000 
 4323      00000000 
 4323      00000000 
 4326              	_ZTSN12_GLOBAL__N_139TestStreamingIntWritesCorrectCharactersE:
 4327 06e0 2A4E3132 		.string	"*N12_GLOBAL__N_139TestStreamingIntWritesCorrectCharactersE"
 4327      5F474C4F 
 4327      42414C5F 
 4327      5F4E5F31 
 4327      33395465 
 4328              		.section	.data.rel.ro
 4329              		.align 8
 4332              	_ZTIN12_GLOBAL__N_139TestStreamingIntWritesCorrectCharactersE:
 4333 00a8 00000000 		.quad	_ZTVN10__cxxabiv120__si_class_type_infoE+16
 4333      00000000 
 4334 00b0 00000000 		.quad	_ZTSN12_GLOBAL__N_139TestStreamingIntWritesCorrectCharactersE
 4334      00000000 
 4335 00b8 00000000 		.quad	_ZTIN8UnitTest4TestE
 4335      00000000 
 4336              		.section	.rodata
 4337 071b 00000000 		.align 32
 4337      00
 4340              	_ZTSN12_GLOBAL__N_144TestStreamingMultipleTimesConcatenatesResultE:
 4341 0720 2A4E3132 		.string	"*N12_GLOBAL__N_144TestStreamingMultipleTimesConcatenatesResultE"
 4341      5F474C4F 
 4341      42414C5F 
 4341      5F4E5F31 
 4341      34345465 
 4342              		.section	.data.rel.ro
 4343              		.align 8
 4346              	_ZTIN12_GLOBAL__N_144TestStreamingMultipleTimesConcatenatesResultE:
 4347 00c0 00000000 		.quad	_ZTVN10__cxxabiv120__si_class_type_infoE+16
 4347      00000000 
 4348 00c8 00000000 		.quad	_ZTSN12_GLOBAL__N_144TestStreamingMultipleTimesConcatenatesResultE
 4348      00000000 
 4349 00d0 00000000 		.quad	_ZTIN8UnitTest4TestE
 4349      00000000 
 4350              		.section	.rodata
 4351              		.align 32
 4354              	_ZTSN12_GLOBAL__N_133TestStreamingTextCopiesCharactersE:
 4355 0760 2A4E3132 		.string	"*N12_GLOBAL__N_133TestStreamingTextCopiesCharactersE"
 4355      5F474C4F 
 4355      42414C5F 
 4355      5F4E5F31 
 4355      33335465 
 4356              		.section	.data.rel.ro
 4357              		.align 8
 4360              	_ZTIN12_GLOBAL__N_133TestStreamingTextCopiesCharactersE:
 4361 00d8 00000000 		.quad	_ZTVN10__cxxabiv120__si_class_type_infoE+16
 4361      00000000 
 4362 00e0 00000000 		.quad	_ZTSN12_GLOBAL__N_133TestStreamingTextCopiesCharactersE
 4362      00000000 
 4363 00e8 00000000 		.quad	_ZTIN8UnitTest4TestE
 4363      00000000 
 4364              		.section	.rodata
 4365 0795 00000000 		.align 32
 4365      00000000 
 4365      000000
 4368              	_ZTSN12_GLOBAL__N_124TestDefaultIsEmptyStringE:
 4369 07a0 2A4E3132 		.string	"*N12_GLOBAL__N_124TestDefaultIsEmptyStringE"
 4369      5F474C4F 
 4369      42414C5F 
 4369      5F4E5F31 
 4369      32345465 
 4370              		.section	.data.rel.ro
 4371              		.align 8
 4374              	_ZTIN12_GLOBAL__N_124TestDefaultIsEmptyStringE:
 4375 00f0 00000000 		.quad	_ZTVN10__cxxabiv120__si_class_type_infoE+16
 4375      00000000 
 4376 00f8 00000000 		.quad	_ZTSN12_GLOBAL__N_124TestDefaultIsEmptyStringE
 4376      00000000 
 4377 0100 00000000 		.quad	_ZTIN8UnitTest4TestE
 4377      00000000 
 4378              		.weak	_ZTIN8UnitTest15MemoryOutStreamE
 4379              		.section	.data.rel.ro._ZTIN8UnitTest15MemoryOutStreamE,"awG",@progbits,_ZTIN8UnitTest15MemoryOutSt
 4380              		.align 8
 4383              	_ZTIN8UnitTest15MemoryOutStreamE:
 4384 0000 00000000 		.quad	_ZTVN10__cxxabiv120__si_class_type_infoE+16
 4384      00000000 
 4385 0008 00000000 		.quad	_ZTSN8UnitTest15MemoryOutStreamE
 4385      00000000 
 4386 0010 00000000 		.quad	_ZTINSt7__cxx1119basic_ostringstreamIcSt11char_traitsIcESaIcEEE
 4386      00000000 
 4387              		.weak	_ZTSN8UnitTest15MemoryOutStreamE
 4388              		.section	.rodata._ZTSN8UnitTest15MemoryOutStreamE,"aG",@progbits,_ZTSN8UnitTest15MemoryOutStreamE,
 4389              		.align 16
 4392              	_ZTSN8UnitTest15MemoryOutStreamE:
 4393 0000 4E38556E 		.string	"N8UnitTest15MemoryOutStreamE"
 4393      69745465 
 4393      73743135 
 4393      4D656D6F 
 4393      72794F75 
 4394              		.text
 4396              	_Z41__static_initialization_and_destruction_0ii:
 4397              	.LFB1267:
  89:TestMemoryOutStream.cpp **** 
  90:TestMemoryOutStream.cpp **** #ifdef UNITTEST_USE_CUSTOM_STREAMS
  91:TestMemoryOutStream.cpp **** 
  92:TestMemoryOutStream.cpp **** TEST(StreamInitialCapacityIsCorrect)
  93:TestMemoryOutStream.cpp **** {
  94:TestMemoryOutStream.cpp ****     MemoryOutStream stream(MemoryOutStream::GROW_CHUNK_SIZE);
  95:TestMemoryOutStream.cpp ****     CHECK_EQUAL((int)MemoryOutStream::GROW_CHUNK_SIZE, stream.GetCapacity());
  96:TestMemoryOutStream.cpp **** }
  97:TestMemoryOutStream.cpp **** 
  98:TestMemoryOutStream.cpp **** TEST(StreamInitialCapacityIsMultipleOfGrowChunkSize)
  99:TestMemoryOutStream.cpp **** {
 100:TestMemoryOutStream.cpp ****     MemoryOutStream stream(MemoryOutStream::GROW_CHUNK_SIZE + 1);
 101:TestMemoryOutStream.cpp ****     CHECK_EQUAL((int)MemoryOutStream::GROW_CHUNK_SIZE * 2, stream.GetCapacity());
 102:TestMemoryOutStream.cpp **** }
 103:TestMemoryOutStream.cpp **** 
 104:TestMemoryOutStream.cpp **** 
 105:TestMemoryOutStream.cpp **** TEST(ExceedingCapacityGrowsBuffer)
 106:TestMemoryOutStream.cpp **** {
 107:TestMemoryOutStream.cpp ****     MemoryOutStream stream(MemoryOutStream::GROW_CHUNK_SIZE);
 108:TestMemoryOutStream.cpp ****     stream << "012345678901234567890123456789";
 109:TestMemoryOutStream.cpp ****     char const* const oldBuffer = stream.GetText();
 110:TestMemoryOutStream.cpp ****     stream << "0123456789";
 111:TestMemoryOutStream.cpp ****     CHECK(oldBuffer != stream.GetText());
 112:TestMemoryOutStream.cpp **** }
 113:TestMemoryOutStream.cpp **** 
 114:TestMemoryOutStream.cpp **** TEST(ExceedingCapacityGrowsBufferByGrowChunk)
 115:TestMemoryOutStream.cpp **** {
 116:TestMemoryOutStream.cpp ****     MemoryOutStream stream(MemoryOutStream::GROW_CHUNK_SIZE);
 117:TestMemoryOutStream.cpp ****     stream << "0123456789012345678901234567890123456789";
 118:TestMemoryOutStream.cpp ****     CHECK_EQUAL(MemoryOutStream::GROW_CHUNK_SIZE * 2, stream.GetCapacity());
 119:TestMemoryOutStream.cpp **** }
 120:TestMemoryOutStream.cpp **** 
 121:TestMemoryOutStream.cpp **** TEST(WritingStringLongerThanCapacityFitsInNewBuffer)
 122:TestMemoryOutStream.cpp **** {
 123:TestMemoryOutStream.cpp ****     MemoryOutStream stream(8);
 124:TestMemoryOutStream.cpp ****     stream << "0123456789ABCDEF";
 125:TestMemoryOutStream.cpp ****     CHECK_EQUAL("0123456789ABCDEF", stream.GetText());
 126:TestMemoryOutStream.cpp **** }
 127:TestMemoryOutStream.cpp **** 
 128:TestMemoryOutStream.cpp **** TEST(WritingIntLongerThanCapacityFitsInNewBuffer)
 129:TestMemoryOutStream.cpp **** {
 130:TestMemoryOutStream.cpp ****     MemoryOutStream stream(8);
 131:TestMemoryOutStream.cpp ****     stream << "aaaa" << 123456;;
 132:TestMemoryOutStream.cpp ****     CHECK_EQUAL("aaaa123456", stream.GetText());
 133:TestMemoryOutStream.cpp **** }
 134:TestMemoryOutStream.cpp **** 
 135:TestMemoryOutStream.cpp **** TEST(WritingFloatLongerThanCapacityFitsInNewBuffer)
 136:TestMemoryOutStream.cpp **** {
 137:TestMemoryOutStream.cpp ****     MemoryOutStream stream(8);
 138:TestMemoryOutStream.cpp ****     stream << "aaaa" << 123456.0f;;
 139:TestMemoryOutStream.cpp ****     CHECK_EQUAL("aaaa123456.000000f", stream.GetText());
 140:TestMemoryOutStream.cpp **** }
 141:TestMemoryOutStream.cpp **** 
 142:TestMemoryOutStream.cpp **** TEST(WritingSizeTLongerThanCapacityFitsInNewBuffer)
 143:TestMemoryOutStream.cpp **** {
 144:TestMemoryOutStream.cpp ****     MemoryOutStream stream(8);
 145:TestMemoryOutStream.cpp ****     stream << "aaaa" << size_t(32145);
 146:TestMemoryOutStream.cpp ****     CHECK_EQUAL("aaaa32145", stream.GetText());
 147:TestMemoryOutStream.cpp **** }
 148:TestMemoryOutStream.cpp **** 
 149:TestMemoryOutStream.cpp **** #endif
 150:TestMemoryOutStream.cpp **** 
 151:TestMemoryOutStream.cpp **** }
 4398              		.loc 3 151 0
 4399              		.cfi_startproc
 4400 1740 55       		pushq	%rbp
 4401              		.cfi_def_cfa_offset 16
 4402              		.cfi_offset 6, -16
 4403 1741 4889E5   		movq	%rsp, %rbp
 4404              		.cfi_def_cfa_register 6
 4405 1744 4883EC10 		subq	$16, %rsp
 4406 1748 897DFC   		movl	%edi, -4(%rbp)
 4407 174b 8975F8   		movl	%esi, -8(%rbp)
 4408              		.loc 3 151 0
 4409 174e 837DFC01 		cmpl	$1, -4(%rbp)
 4410 1752 0F85D802 		jne	.L207
 4410      0000
 4411              		.loc 3 151 0 is_stmt 0 discriminator 1
 4412 1758 817DF8FF 		cmpl	$65535, -8(%rbp)
 4412      FF0000
 4413 175f 0F85CB02 		jne	.L207
 4413      0000
  11:TestMemoryOutStream.cpp **** {
 4414              		.loc 3 11 0 is_stmt 1
 4415 1765 488D3D00 		leaq	_ZN12_GLOBAL__N_132testDefaultIsEmptyStringInstanceE(%rip), %rdi
 4415      000000
 4416 176c E88FE8FF 		call	_ZN12_GLOBAL__N_124TestDefaultIsEmptyStringC1Ev
 4416      FF
 4417 1771 488D1500 		leaq	__dso_handle(%rip), %rdx
 4417      000000
 4418 1778 488D3500 		leaq	_ZN12_GLOBAL__N_132testDefaultIsEmptyStringInstanceE(%rip), %rsi
 4418      000000
 4419 177f 488D3D48 		leaq	_ZN12_GLOBAL__N_124TestDefaultIsEmptyStringD1Ev(%rip), %rdi
 4419      FFFFFF
 4420 1786 E8000000 		call	__cxa_atexit@PLT
 4420      00
 4421 178b E8000000 		call	_ZN8UnitTest4Test11GetTestListEv@PLT
 4421      00
 4422 1790 488D1500 		leaq	_ZN12_GLOBAL__N_132testDefaultIsEmptyStringInstanceE(%rip), %rdx
 4422      000000
 4423 1797 4889C6   		movq	%rax, %rsi
 4424 179a 488D3D00 		leaq	_ZN12_GLOBAL__N_125adderDefaultIsEmptyStringE(%rip), %rdi
 4424      000000
 4425 17a1 E8000000 		call	_ZN8UnitTest9ListAdderC1ERNS_8TestListEPNS_4TestE@PLT
 4425      00
  18:TestMemoryOutStream.cpp **** {
 4426              		.loc 3 18 0
 4427 17a6 488D3D00 		leaq	_ZN12_GLOBAL__N_141testStreamingTextCopiesCharactersInstanceE(%rip), %rdi
 4427      000000
 4428 17ad E892EAFF 		call	_ZN12_GLOBAL__N_133TestStreamingTextCopiesCharactersC1Ev
 4428      FF
 4429 17b2 488D1500 		leaq	__dso_handle(%rip), %rdx
 4429      000000
 4430 17b9 488D3500 		leaq	_ZN12_GLOBAL__N_141testStreamingTextCopiesCharactersInstanceE(%rip), %rsi
 4430      000000
 4431 17c0 488D3D95 		leaq	_ZN12_GLOBAL__N_133TestStreamingTextCopiesCharactersD1Ev(%rip), %rdi
 4431      FEFFFF
 4432 17c7 E8000000 		call	__cxa_atexit@PLT
 4432      00
 4433 17cc E8000000 		call	_ZN8UnitTest4Test11GetTestListEv@PLT
 4433      00
 4434 17d1 488D1500 		leaq	_ZN12_GLOBAL__N_141testStreamingTextCopiesCharactersInstanceE(%rip), %rdx
 4434      000000
 4435 17d8 4889C6   		movq	%rax, %rsi
 4436 17db 488D3D00 		leaq	_ZN12_GLOBAL__N_134adderStreamingTextCopiesCharactersE(%rip), %rdi
 4436      000000
 4437 17e2 E8000000 		call	_ZN8UnitTest9ListAdderC1ERNS_8TestListEPNS_4TestE@PLT
 4437      00
  25:TestMemoryOutStream.cpp **** {
 4438              		.loc 3 25 0
 4439 17e7 488D3D00 		leaq	_ZN12_GLOBAL__N_152testStreamingMultipleTimesConcatenatesResultInstanceE(%rip), %rdi
 4439      000000
 4440 17ee E8DFEBFF 		call	_ZN12_GLOBAL__N_144TestStreamingMultipleTimesConcatenatesResultC1Ev
 4440      FF
 4441 17f3 488D1500 		leaq	__dso_handle(%rip), %rdx
 4441      000000
 4442 17fa 488D3500 		leaq	_ZN12_GLOBAL__N_152testStreamingMultipleTimesConcatenatesResultInstanceE(%rip), %rsi
 4442      000000
 4443 1801 488D3DE2 		leaq	_ZN12_GLOBAL__N_144TestStreamingMultipleTimesConcatenatesResultD1Ev(%rip), %rdi
 4443      FDFFFF
 4444 1808 E8000000 		call	__cxa_atexit@PLT
 4444      00
 4445 180d E8000000 		call	_ZN8UnitTest4Test11GetTestListEv@PLT
 4445      00
 4446 1812 488D1500 		leaq	_ZN12_GLOBAL__N_152testStreamingMultipleTimesConcatenatesResultInstanceE(%rip), %rdx
 4446      000000
 4447 1819 4889C6   		movq	%rax, %rsi
 4448 181c 488D3D00 		leaq	_ZN12_GLOBAL__N_145adderStreamingMultipleTimesConcatenatesResultE(%rip), %rdi
 4448      000000
 4449 1823 E8000000 		call	_ZN8UnitTest9ListAdderC1ERNS_8TestListEPNS_4TestE@PLT
 4449      00
  32:TestMemoryOutStream.cpp **** {
 4450              		.loc 3 32 0
 4451 1828 488D3D00 		leaq	_ZN12_GLOBAL__N_147testStreamingIntWritesCorrectCharactersInstanceE(%rip), %rdi
 4451      000000
 4452 182f E84AEDFF 		call	_ZN12_GLOBAL__N_139TestStreamingIntWritesCorrectCharactersC1Ev
 4452      FF
 4453 1834 488D1500 		leaq	__dso_handle(%rip), %rdx
 4453      000000
 4454 183b 488D3500 		leaq	_ZN12_GLOBAL__N_147testStreamingIntWritesCorrectCharactersInstanceE(%rip), %rsi
 4454      000000
 4455 1842 488D3D2F 		leaq	_ZN12_GLOBAL__N_139TestStreamingIntWritesCorrectCharactersD1Ev(%rip), %rdi
 4455      FDFFFF
 4456 1849 E8000000 		call	__cxa_atexit@PLT
 4456      00
 4457 184e E8000000 		call	_ZN8UnitTest4Test11GetTestListEv@PLT
 4457      00
 4458 1853 488D1500 		leaq	_ZN12_GLOBAL__N_147testStreamingIntWritesCorrectCharactersInstanceE(%rip), %rdx
 4458      000000
 4459 185a 4889C6   		movq	%rax, %rsi
 4460 185d 488D3D00 		leaq	_ZN12_GLOBAL__N_140adderStreamingIntWritesCorrectCharactersE(%rip), %rdi
 4460      000000
 4461 1864 E8000000 		call	_ZN8UnitTest9ListAdderC1ERNS_8TestListEPNS_4TestE@PLT
 4461      00
  39:TestMemoryOutStream.cpp **** {
 4462              		.loc 3 39 0
 4463 1869 488D3D00 		leaq	_ZN12_GLOBAL__N_155testStreamingUnsignedIntWritesCorrectCharactersInstanceE(%rip), %rdi
 4463      000000
 4464 1870 E895EEFF 		call	_ZN12_GLOBAL__N_147TestStreamingUnsignedIntWritesCorrectCharactersC1Ev
 4464      FF
 4465 1875 488D1500 		leaq	__dso_handle(%rip), %rdx
 4465      000000
 4466 187c 488D3500 		leaq	_ZN12_GLOBAL__N_155testStreamingUnsignedIntWritesCorrectCharactersInstanceE(%rip), %rsi
 4466      000000
 4467 1883 488D3D7C 		leaq	_ZN12_GLOBAL__N_147TestStreamingUnsignedIntWritesCorrectCharactersD1Ev(%rip), %rdi
 4467      FCFFFF
 4468 188a E8000000 		call	__cxa_atexit@PLT
 4468      00
 4469 188f E8000000 		call	_ZN8UnitTest4Test11GetTestListEv@PLT
 4469      00
 4470 1894 488D1500 		leaq	_ZN12_GLOBAL__N_155testStreamingUnsignedIntWritesCorrectCharactersInstanceE(%rip), %rdx
 4470      000000
 4471 189b 4889C6   		movq	%rax, %rsi
 4472 189e 488D3D00 		leaq	_ZN12_GLOBAL__N_148adderStreamingUnsignedIntWritesCorrectCharactersE(%rip), %rdi
 4472      000000
 4473 18a5 E8000000 		call	_ZN8UnitTest9ListAdderC1ERNS_8TestListEPNS_4TestE@PLT
 4473      00
  46:TestMemoryOutStream.cpp **** {
 4474              		.loc 3 46 0
 4475 18aa 488D3D00 		leaq	_ZN12_GLOBAL__N_148testStreamingLongWritesCorrectCharactersInstanceE(%rip), %rdi
 4475      000000
 4476 18b1 E8E0EFFF 		call	_ZN12_GLOBAL__N_140TestStreamingLongWritesCorrectCharactersC1Ev
 4476      FF
 4477 18b6 488D1500 		leaq	__dso_handle(%rip), %rdx
 4477      000000
 4478 18bd 488D3500 		leaq	_ZN12_GLOBAL__N_148testStreamingLongWritesCorrectCharactersInstanceE(%rip), %rsi
 4478      000000
 4479 18c4 488D3DC9 		leaq	_ZN12_GLOBAL__N_140TestStreamingLongWritesCorrectCharactersD1Ev(%rip), %rdi
 4479      FBFFFF
 4480 18cb E8000000 		call	__cxa_atexit@PLT
 4480      00
 4481 18d0 E8000000 		call	_ZN8UnitTest4Test11GetTestListEv@PLT
 4481      00
 4482 18d5 488D1500 		leaq	_ZN12_GLOBAL__N_148testStreamingLongWritesCorrectCharactersInstanceE(%rip), %rdx
 4482      000000
 4483 18dc 4889C6   		movq	%rax, %rsi
 4484 18df 488D3D00 		leaq	_ZN12_GLOBAL__N_141adderStreamingLongWritesCorrectCharactersE(%rip), %rdi
 4484      000000
 4485 18e6 E8000000 		call	_ZN8UnitTest9ListAdderC1ERNS_8TestListEPNS_4TestE@PLT
 4485      00
  53:TestMemoryOutStream.cpp **** {
 4486              		.loc 3 53 0
 4487 18eb 488D3D00 		leaq	_ZN12_GLOBAL__N_156testStreamingUnsignedLongWritesCorrectCharactersInstanceE(%rip), %rdi
 4487      000000
 4488 18f2 E82DF1FF 		call	_ZN12_GLOBAL__N_148TestStreamingUnsignedLongWritesCorrectCharactersC1Ev
 4488      FF
 4489 18f7 488D1500 		leaq	__dso_handle(%rip), %rdx
 4489      000000
 4490 18fe 488D3500 		leaq	_ZN12_GLOBAL__N_156testStreamingUnsignedLongWritesCorrectCharactersInstanceE(%rip), %rsi
 4490      000000
 4491 1905 488D3D16 		leaq	_ZN12_GLOBAL__N_148TestStreamingUnsignedLongWritesCorrectCharactersD1Ev(%rip), %rdi
 4491      FBFFFF
 4492 190c E8000000 		call	__cxa_atexit@PLT
 4492      00
 4493 1911 E8000000 		call	_ZN8UnitTest4Test11GetTestListEv@PLT
 4493      00
 4494 1916 488D1500 		leaq	_ZN12_GLOBAL__N_156testStreamingUnsignedLongWritesCorrectCharactersInstanceE(%rip), %rdx
 4494      000000
 4495 191d 4889C6   		movq	%rax, %rsi
 4496 1920 488D3D00 		leaq	_ZN12_GLOBAL__N_149adderStreamingUnsignedLongWritesCorrectCharactersE(%rip), %rdi
 4496      000000
 4497 1927 E8000000 		call	_ZN8UnitTest9ListAdderC1ERNS_8TestListEPNS_4TestE@PLT
 4497      00
  60:TestMemoryOutStream.cpp **** {
 4498              		.loc 3 60 0
 4499 192c 488D3D00 		leaq	_ZN12_GLOBAL__N_149testStreamingFloatWritesCorrectCharactersInstanceE(%rip), %rdi
 4499      000000
 4500 1933 E878F2FF 		call	_ZN12_GLOBAL__N_141TestStreamingFloatWritesCorrectCharactersC1Ev
 4500      FF
 4501 1938 488D1500 		leaq	__dso_handle(%rip), %rdx
 4501      000000
 4502 193f 488D3500 		leaq	_ZN12_GLOBAL__N_149testStreamingFloatWritesCorrectCharactersInstanceE(%rip), %rsi
 4502      000000
 4503 1946 488D3D63 		leaq	_ZN12_GLOBAL__N_141TestStreamingFloatWritesCorrectCharactersD1Ev(%rip), %rdi
 4503      FAFFFF
 4504 194d E8000000 		call	__cxa_atexit@PLT
 4504      00
 4505 1952 E8000000 		call	_ZN8UnitTest4Test11GetTestListEv@PLT
 4505      00
 4506 1957 488D1500 		leaq	_ZN12_GLOBAL__N_149testStreamingFloatWritesCorrectCharactersInstanceE(%rip), %rdx
 4506      000000
 4507 195e 4889C6   		movq	%rax, %rsi
 4508 1961 488D3D00 		leaq	_ZN12_GLOBAL__N_142adderStreamingFloatWritesCorrectCharactersE(%rip), %rdi
 4508      000000
 4509 1968 E8000000 		call	_ZN8UnitTest9ListAdderC1ERNS_8TestListEPNS_4TestE@PLT
 4509      00
  67:TestMemoryOutStream.cpp **** {
 4510              		.loc 3 67 0
 4511 196d 488D3D00 		leaq	_ZN12_GLOBAL__N_150testStreamingDoubleWritesCorrectCharactersInstanceE(%rip), %rdi
 4511      000000
 4512 1974 E8DFF3FF 		call	_ZN12_GLOBAL__N_142TestStreamingDoubleWritesCorrectCharactersC1Ev
 4512      FF
 4513 1979 488D1500 		leaq	__dso_handle(%rip), %rdx
 4513      000000
 4514 1980 488D3500 		leaq	_ZN12_GLOBAL__N_150testStreamingDoubleWritesCorrectCharactersInstanceE(%rip), %rsi
 4514      000000
 4515 1987 488D3DB0 		leaq	_ZN12_GLOBAL__N_142TestStreamingDoubleWritesCorrectCharactersD1Ev(%rip), %rdi
 4515      F9FFFF
 4516 198e E8000000 		call	__cxa_atexit@PLT
 4516      00
 4517 1993 E8000000 		call	_ZN8UnitTest4Test11GetTestListEv@PLT
 4517      00
 4518 1998 488D1500 		leaq	_ZN12_GLOBAL__N_150testStreamingDoubleWritesCorrectCharactersInstanceE(%rip), %rdx
 4518      000000
 4519 199f 4889C6   		movq	%rax, %rsi
 4520 19a2 488D3D00 		leaq	_ZN12_GLOBAL__N_143adderStreamingDoubleWritesCorrectCharactersE(%rip), %rdi
 4520      000000
 4521 19a9 E8000000 		call	_ZN8UnitTest9ListAdderC1ERNS_8TestListEPNS_4TestE@PLT
 4521      00
  74:TestMemoryOutStream.cpp **** {
 4522              		.loc 3 74 0
 4523 19ae 488D3D00 		leaq	_ZN12_GLOBAL__N_151testStreamingPointerWritesCorrectCharactersInstanceE(%rip), %rdi
 4523      000000
 4524 19b5 E854F5FF 		call	_ZN12_GLOBAL__N_143TestStreamingPointerWritesCorrectCharactersC1Ev
 4524      FF
 4525 19ba 488D1500 		leaq	__dso_handle(%rip), %rdx
 4525      000000
 4526 19c1 488D3500 		leaq	_ZN12_GLOBAL__N_151testStreamingPointerWritesCorrectCharactersInstanceE(%rip), %rsi
 4526      000000
 4527 19c8 488D3DFD 		leaq	_ZN12_GLOBAL__N_143TestStreamingPointerWritesCorrectCharactersD1Ev(%rip), %rdi
 4527      F8FFFF
 4528 19cf E8000000 		call	__cxa_atexit@PLT
 4528      00
 4529 19d4 E8000000 		call	_ZN8UnitTest4Test11GetTestListEv@PLT
 4529      00
 4530 19d9 488D1500 		leaq	_ZN12_GLOBAL__N_151testStreamingPointerWritesCorrectCharactersInstanceE(%rip), %rdx
 4530      000000
 4531 19e0 4889C6   		movq	%rax, %rsi
 4532 19e3 488D3D00 		leaq	_ZN12_GLOBAL__N_144adderStreamingPointerWritesCorrectCharactersE(%rip), %rdi
 4532      000000
 4533 19ea E8000000 		call	_ZN8UnitTest9ListAdderC1ERNS_8TestListEPNS_4TestE@PLT
 4533      00
  82:TestMemoryOutStream.cpp **** {
 4534              		.loc 3 82 0
 4535 19ef 488D3D00 		leaq	_ZN12_GLOBAL__N_149testStreamingSizeTWritesCorrectCharactersInstanceE(%rip), %rdi
 4535      000000
 4536 19f6 E8C7F6FF 		call	_ZN12_GLOBAL__N_141TestStreamingSizeTWritesCorrectCharactersC1Ev
 4536      FF
 4537 19fb 488D1500 		leaq	__dso_handle(%rip), %rdx
 4537      000000
 4538 1a02 488D3500 		leaq	_ZN12_GLOBAL__N_149testStreamingSizeTWritesCorrectCharactersInstanceE(%rip), %rsi
 4538      000000
 4539 1a09 488D3D4A 		leaq	_ZN12_GLOBAL__N_141TestStreamingSizeTWritesCorrectCharactersD1Ev(%rip), %rdi
 4539      F8FFFF
 4540 1a10 E8000000 		call	__cxa_atexit@PLT
 4540      00
 4541 1a15 E8000000 		call	_ZN8UnitTest4Test11GetTestListEv@PLT
 4541      00
 4542 1a1a 488D1500 		leaq	_ZN12_GLOBAL__N_149testStreamingSizeTWritesCorrectCharactersInstanceE(%rip), %rdx
 4542      000000
 4543 1a21 4889C6   		movq	%rax, %rsi
 4544 1a24 488D3D00 		leaq	_ZN12_GLOBAL__N_142adderStreamingSizeTWritesCorrectCharactersE(%rip), %rdi
 4544      000000
 4545 1a2b E8000000 		call	_ZN8UnitTest9ListAdderC1ERNS_8TestListEPNS_4TestE@PLT
 4545      00
 4546              	.L207:
 4547              		.loc 3 151 0
 4548 1a30 90       		nop
 4549 1a31 C9       		leave
 4550              		.cfi_def_cfa 7, 8
 4551 1a32 C3       		ret
 4552              		.cfi_endproc
 4553              	.LFE1267:
 4556              	_GLOBAL__sub_I_TestMemoryOutStream.cpp:
 4557              	.LFB1268:
 4558              		.loc 3 151 0
 4559              		.cfi_startproc
 4560 1a33 55       		pushq	%rbp
 4561              		.cfi_def_cfa_offset 16
 4562              		.cfi_offset 6, -16
 4563 1a34 4889E5   		movq	%rsp, %rbp
 4564              		.cfi_def_cfa_register 6
 4565              		.loc 3 151 0
 4566 1a37 BEFFFF00 		movl	$65535, %esi
 4566      00
 4567 1a3c BF010000 		movl	$1, %edi
 4567      00
 4568 1a41 E8FAFCFF 		call	_Z41__static_initialization_and_destruction_0ii
 4568      FF
 4569 1a46 5D       		popq	%rbp
 4570              		.cfi_def_cfa 7, 8
 4571 1a47 C3       		ret
 4572              		.cfi_endproc
 4573              	.LFE1268:
 4575              		.section	.init_array,"aw"
 4576              		.align 8
 4577 0000 00000000 		.quad	_GLOBAL__sub_I_TestMemoryOutStream.cpp
 4577      00000000 
 4578              		.section	.rodata
 4579              		.align 4
 4580              	.LC25:
 4581 07cc 560E4940 		.long	1078529622
 4582              		.align 8
 4583              	.LC30:
 4584 07d0 6F1283C0 		.long	3229815407
 4585 07d4 CA210940 		.long	1074340298
 4586              		.text
 4587              	.Letext0:
 4588              		.file 5 "../TestList.h"
 4589              		.file 6 "../TestDetails.h"
 4590              		.file 7 "/usr/include/x86_64-linux-gnu/c++/7/bits/c++config.h"
 4591              		.file 8 "/usr/include/c++/7/bits/basic_string.h"
 4592              		.file 9 "/usr/include/c++/7/bits/basic_string.tcc"
 4593              		.file 10 "/usr/include/c++/7/bits/stringfwd.h"
 4594              		.file 11 "/usr/include/c++/7/cwchar"
 4595              		.file 12 "/usr/include/c++/7/bits/char_traits.h"
 4596              		.file 13 "/usr/include/c++/7/clocale"
 4597              		.file 14 "/usr/include/c++/7/bits/allocator.h"
 4598              		.file 15 "/usr/include/c++/7/cwctype"
 4599              		.file 16 "/usr/include/c++/7/cstring"
 4600              		.file 17 "/usr/include/c++/7/debug/debug.h"
 4601              		.file 18 "/usr/include/c++/7/bits/predefined_ops.h"
 4602              		.file 19 "/usr/include/c++/7/ext/new_allocator.h"
 4603              		.file 20 "/usr/include/c++/7/ext/numeric_traits.h"
 4604              		.file 21 "/usr/include/c++/7/ext/alloc_traits.h"
 4605              		.file 22 "/usr/lib/gcc/x86_64-linux-gnu/7/include/stddef.h"
 4606              		.file 23 "<built-in>"
 4607              		.file 24 "/usr/include/x86_64-linux-gnu/bits/types/wint_t.h"
 4608              		.file 25 "/usr/include/x86_64-linux-gnu/bits/types/__mbstate_t.h"
 4609              		.file 26 "/usr/include/x86_64-linux-gnu/bits/types/mbstate_t.h"
 4610              		.file 27 "/usr/include/x86_64-linux-gnu/bits/types/__FILE.h"
 4611              		.file 28 "/usr/include/wchar.h"
 4612              		.file 29 "/usr/include/x86_64-linux-gnu/bits/types/struct_tm.h"
 4613              		.file 30 "/usr/include/locale.h"
 4614              		.file 31 "/usr/include/x86_64-linux-gnu/bits/types.h"
 4615              		.file 32 "/usr/include/time.h"
 4616              		.file 33 "/usr/include/x86_64-linux-gnu/bits/wctype-wchar.h"
 4617              		.file 34 "/usr/include/wctype.h"
 4618              		.file 35 "/usr/include/signal.h"
 4619              		.file 36 "/usr/include/x86_64-linux-gnu/sys/time.h"
 4620              		.file 37 "/usr/include/string.h"
 4621              		.file 38 "/usr/include/c++/7/new"
 15353              		.align 8
 15356              	DW.ref.__gxx_personality_v0:
 15357 0000 00000000 		.quad	__gxx_personality_v0
 15357      00000000 
 15358              		.hidden	__dso_handle
 15359              		.ident	"GCC: (Ubuntu 7.2.0-8ubuntu3.2) 7.2.0"
 15360              		.section	.note.GNU-stack,"",@progbits
DEFINED SYMBOLS
                            *ABS*:0000000000000000 TestMemoryOutStream.cpp
     /tmp/ccZH858j.s:10     .text._ZN13UnitTestSuite12GetSuiteNameEv:0000000000000000 _ZN13UnitTestSuite12GetSuiteNameEv
     /tmp/ccZH858j.s:33     .text._ZN8UnitTest15MemoryOutStreamC1Ev:0000000000000000 _ZN8UnitTest15MemoryOutStreamC1Ev
     /tmp/ccZH858j.s:15356  .data.DW.ref.__gxx_personality_v0:0000000000000000 DW.ref.__gxx_personality_v0
     /tmp/ccZH858j.s:3980   .data.rel.ro.local._ZTTN8UnitTest15MemoryOutStreamE:0000000000000000 _ZTTN8UnitTest15MemoryOutStreamE
     /tmp/ccZH858j.s:3964   .data.rel.ro.local._ZTVN8UnitTest15MemoryOutStreamE:0000000000000000 _ZTVN8UnitTest15MemoryOutStreamE
     /tmp/ccZH858j.s:149    .text:0000000000000000 _ZN12_GLOBAL__N_124TestDefaultIsEmptyStringC2Ev
     /tmp/ccZH858j.s:3857   .data.rel.ro.local:0000000000000190 _ZTVN12_GLOBAL__N_124TestDefaultIsEmptyStringE
     /tmp/ccZH858j.s:149    .text:0000000000000000 _ZN12_GLOBAL__N_124TestDefaultIsEmptyStringC1Ev
     /tmp/ccZH858j.s:188    .bss:0000000000000000 _ZN12_GLOBAL__N_132testDefaultIsEmptyStringInstanceE
     /tmp/ccZH858j.s:188    .bss:0000000000000038 _ZN12_GLOBAL__N_125adderDefaultIsEmptyStringE
     /tmp/ccZH858j.s:205    .text:000000000000004c _ZNK12_GLOBAL__N_124TestDefaultIsEmptyString7RunImplEv
     /tmp/ccZH858j.s:2749   .text._ZN8UnitTest5CheckIbEEbT_:0000000000000000 _ZN8UnitTest5CheckIbEEbT_
     /tmp/ccZH858j.s:4025   .text._ZN8UnitTest15MemoryOutStreamD1Ev:0000000000000000 _ZN8UnitTest15MemoryOutStreamD1Ev
     /tmp/ccZH858j.s:447    .text:0000000000000244 _ZN12_GLOBAL__N_133TestStreamingTextCopiesCharactersC2Ev
     /tmp/ccZH858j.s:3751   .data.rel.ro.local:0000000000000168 _ZTVN12_GLOBAL__N_133TestStreamingTextCopiesCharactersE
     /tmp/ccZH858j.s:447    .text:0000000000000244 _ZN12_GLOBAL__N_133TestStreamingTextCopiesCharactersC1Ev
     /tmp/ccZH858j.s:485    .bss:0000000000000040 _ZN12_GLOBAL__N_141testStreamingTextCopiesCharactersInstanceE
     /tmp/ccZH858j.s:485    .bss:0000000000000078 _ZN12_GLOBAL__N_134adderStreamingTextCopiesCharactersE
     /tmp/ccZH858j.s:497    .text:0000000000000290 _ZNK12_GLOBAL__N_133TestStreamingTextCopiesCharacters7RunImplEv
     /tmp/ccZH858j.s:675    .text:00000000000003d2 _ZN12_GLOBAL__N_144TestStreamingMultipleTimesConcatenatesResultC2Ev
     /tmp/ccZH858j.s:3645   .data.rel.ro.local:0000000000000140 _ZTVN12_GLOBAL__N_144TestStreamingMultipleTimesConcatenatesResultE
     /tmp/ccZH858j.s:675    .text:00000000000003d2 _ZN12_GLOBAL__N_144TestStreamingMultipleTimesConcatenatesResultC1Ev
     /tmp/ccZH858j.s:713    .bss:0000000000000080 _ZN12_GLOBAL__N_152testStreamingMultipleTimesConcatenatesResultInstanceE
     /tmp/ccZH858j.s:713    .bss:00000000000000b8 _ZN12_GLOBAL__N_145adderStreamingMultipleTimesConcatenatesResultE
     /tmp/ccZH858j.s:731    .text:000000000000041e _ZNK12_GLOBAL__N_144TestStreamingMultipleTimesConcatenatesResult7RunImplEv
     /tmp/ccZH858j.s:916    .text:000000000000057e _ZN12_GLOBAL__N_139TestStreamingIntWritesCorrectCharactersC2Ev
     /tmp/ccZH858j.s:3539   .data.rel.ro.local:0000000000000118 _ZTVN12_GLOBAL__N_139TestStreamingIntWritesCorrectCharactersE
     /tmp/ccZH858j.s:916    .text:000000000000057e _ZN12_GLOBAL__N_139TestStreamingIntWritesCorrectCharactersC1Ev
     /tmp/ccZH858j.s:954    .bss:00000000000000c0 _ZN12_GLOBAL__N_147testStreamingIntWritesCorrectCharactersInstanceE
     /tmp/ccZH858j.s:954    .bss:00000000000000f8 _ZN12_GLOBAL__N_140adderStreamingIntWritesCorrectCharactersE
     /tmp/ccZH858j.s:966    .text:00000000000005ca _ZNK12_GLOBAL__N_139TestStreamingIntWritesCorrectCharacters7RunImplEv
     /tmp/ccZH858j.s:1144   .text:000000000000070a _ZN12_GLOBAL__N_147TestStreamingUnsignedIntWritesCorrectCharactersC2Ev
     /tmp/ccZH858j.s:3433   .data.rel.ro.local:00000000000000f0 _ZTVN12_GLOBAL__N_147TestStreamingUnsignedIntWritesCorrectCharactersE
     /tmp/ccZH858j.s:1144   .text:000000000000070a _ZN12_GLOBAL__N_147TestStreamingUnsignedIntWritesCorrectCharactersC1Ev
     /tmp/ccZH858j.s:1182   .bss:0000000000000100 _ZN12_GLOBAL__N_155testStreamingUnsignedIntWritesCorrectCharactersInstanceE
     /tmp/ccZH858j.s:1182   .bss:0000000000000138 _ZN12_GLOBAL__N_148adderStreamingUnsignedIntWritesCorrectCharactersE
     /tmp/ccZH858j.s:1187   .text:0000000000000756 _ZNK12_GLOBAL__N_147TestStreamingUnsignedIntWritesCorrectCharacters7RunImplEv
     /tmp/ccZH858j.s:1365   .text:0000000000000896 _ZN12_GLOBAL__N_140TestStreamingLongWritesCorrectCharactersC2Ev
     /tmp/ccZH858j.s:3327   .data.rel.ro.local:00000000000000c8 _ZTVN12_GLOBAL__N_140TestStreamingLongWritesCorrectCharactersE
     /tmp/ccZH858j.s:1365   .text:0000000000000896 _ZN12_GLOBAL__N_140TestStreamingLongWritesCorrectCharactersC1Ev
     /tmp/ccZH858j.s:1403   .bss:0000000000000140 _ZN12_GLOBAL__N_148testStreamingLongWritesCorrectCharactersInstanceE
     /tmp/ccZH858j.s:1403   .bss:0000000000000178 _ZN12_GLOBAL__N_141adderStreamingLongWritesCorrectCharactersE
     /tmp/ccZH858j.s:1415   .text:00000000000008e2 _ZNK12_GLOBAL__N_140TestStreamingLongWritesCorrectCharacters7RunImplEv
     /tmp/ccZH858j.s:1593   .text:0000000000000a24 _ZN12_GLOBAL__N_148TestStreamingUnsignedLongWritesCorrectCharactersC2Ev
     /tmp/ccZH858j.s:3221   .data.rel.ro.local:00000000000000a0 _ZTVN12_GLOBAL__N_148TestStreamingUnsignedLongWritesCorrectCharactersE
     /tmp/ccZH858j.s:1593   .text:0000000000000a24 _ZN12_GLOBAL__N_148TestStreamingUnsignedLongWritesCorrectCharactersC1Ev
     /tmp/ccZH858j.s:1631   .bss:0000000000000180 _ZN12_GLOBAL__N_156testStreamingUnsignedLongWritesCorrectCharactersInstanceE
     /tmp/ccZH858j.s:1631   .bss:00000000000001b8 _ZN12_GLOBAL__N_149adderStreamingUnsignedLongWritesCorrectCharactersE
     /tmp/ccZH858j.s:1636   .text:0000000000000a70 _ZNK12_GLOBAL__N_148TestStreamingUnsignedLongWritesCorrectCharacters7RunImplEv
     /tmp/ccZH858j.s:1814   .text:0000000000000bb0 _ZN12_GLOBAL__N_141TestStreamingFloatWritesCorrectCharactersC2Ev
     /tmp/ccZH858j.s:3115   .data.rel.ro.local:0000000000000078 _ZTVN12_GLOBAL__N_141TestStreamingFloatWritesCorrectCharactersE
     /tmp/ccZH858j.s:1814   .text:0000000000000bb0 _ZN12_GLOBAL__N_141TestStreamingFloatWritesCorrectCharactersC1Ev
     /tmp/ccZH858j.s:1852   .bss:00000000000001c0 _ZN12_GLOBAL__N_149testStreamingFloatWritesCorrectCharactersInstanceE
     /tmp/ccZH858j.s:1852   .bss:00000000000001f8 _ZN12_GLOBAL__N_142adderStreamingFloatWritesCorrectCharactersE
     /tmp/ccZH858j.s:1867   .text:0000000000000bfc _ZNK12_GLOBAL__N_141TestStreamingFloatWritesCorrectCharacters7RunImplEv
     /tmp/ccZH858j.s:2773   .text._ZN8UnitTest5CheckIPKcEEbT_:0000000000000000 _ZN8UnitTest5CheckIPKcEEbT_
     /tmp/ccZH858j.s:2052   .text:0000000000000d58 _ZN12_GLOBAL__N_142TestStreamingDoubleWritesCorrectCharactersC2Ev
     /tmp/ccZH858j.s:3009   .data.rel.ro.local:0000000000000050 _ZTVN12_GLOBAL__N_142TestStreamingDoubleWritesCorrectCharactersE
     /tmp/ccZH858j.s:2052   .text:0000000000000d58 _ZN12_GLOBAL__N_142TestStreamingDoubleWritesCorrectCharactersC1Ev
     /tmp/ccZH858j.s:2090   .bss:0000000000000200 _ZN12_GLOBAL__N_150testStreamingDoubleWritesCorrectCharactersInstanceE
     /tmp/ccZH858j.s:2090   .bss:0000000000000238 _ZN12_GLOBAL__N_143adderStreamingDoubleWritesCorrectCharactersE
     /tmp/ccZH858j.s:2095   .text:0000000000000da4 _ZNK12_GLOBAL__N_142TestStreamingDoubleWritesCorrectCharacters7RunImplEv
     /tmp/ccZH858j.s:2282   .text:0000000000000f0e _ZN12_GLOBAL__N_143TestStreamingPointerWritesCorrectCharactersC2Ev
     /tmp/ccZH858j.s:2903   .data.rel.ro.local:0000000000000028 _ZTVN12_GLOBAL__N_143TestStreamingPointerWritesCorrectCharactersE
     /tmp/ccZH858j.s:2282   .text:0000000000000f0e _ZN12_GLOBAL__N_143TestStreamingPointerWritesCorrectCharactersC1Ev
     /tmp/ccZH858j.s:2320   .bss:0000000000000240 _ZN12_GLOBAL__N_151testStreamingPointerWritesCorrectCharactersInstanceE
     /tmp/ccZH858j.s:2320   .bss:0000000000000278 _ZN12_GLOBAL__N_144adderStreamingPointerWritesCorrectCharactersE
     /tmp/ccZH858j.s:2335   .text:0000000000000f5a _ZNK12_GLOBAL__N_143TestStreamingPointerWritesCorrectCharacters7RunImplEv
     /tmp/ccZH858j.s:2523   .text:00000000000010c2 _ZN12_GLOBAL__N_141TestStreamingSizeTWritesCorrectCharactersC2Ev
     /tmp/ccZH858j.s:2797   .data.rel.ro.local:0000000000000000 _ZTVN12_GLOBAL__N_141TestStreamingSizeTWritesCorrectCharactersE
     /tmp/ccZH858j.s:2523   .text:00000000000010c2 _ZN12_GLOBAL__N_141TestStreamingSizeTWritesCorrectCharactersC1Ev
     /tmp/ccZH858j.s:2561   .bss:0000000000000280 _ZN12_GLOBAL__N_149testStreamingSizeTWritesCorrectCharactersInstanceE
     /tmp/ccZH858j.s:2561   .bss:00000000000002b8 _ZN12_GLOBAL__N_142adderStreamingSizeTWritesCorrectCharactersE
     /tmp/ccZH858j.s:2573   .text:000000000000110e _ZNK12_GLOBAL__N_141TestStreamingSizeTWritesCorrectCharacters7RunImplEv
     /tmp/ccZH858j.s:4234   .data.rel.ro:0000000000000000 _ZTIN12_GLOBAL__N_141TestStreamingSizeTWritesCorrectCharactersE
     /tmp/ccZH858j.s:2806   .text:000000000000125a _ZN12_GLOBAL__N_141TestStreamingSizeTWritesCorrectCharactersD1Ev
     /tmp/ccZH858j.s:2836   .text:0000000000001284 _ZN12_GLOBAL__N_141TestStreamingSizeTWritesCorrectCharactersD0Ev
     /tmp/ccZH858j.s:2806   .text:000000000000125a _ZN12_GLOBAL__N_141TestStreamingSizeTWritesCorrectCharactersD2Ev
     /tmp/ccZH858j.s:4248   .data.rel.ro:0000000000000018 _ZTIN12_GLOBAL__N_143TestStreamingPointerWritesCorrectCharactersE
     /tmp/ccZH858j.s:2912   .text:00000000000012cc _ZN12_GLOBAL__N_143TestStreamingPointerWritesCorrectCharactersD1Ev
     /tmp/ccZH858j.s:2942   .text:00000000000012f6 _ZN12_GLOBAL__N_143TestStreamingPointerWritesCorrectCharactersD0Ev
     /tmp/ccZH858j.s:2912   .text:00000000000012cc _ZN12_GLOBAL__N_143TestStreamingPointerWritesCorrectCharactersD2Ev
     /tmp/ccZH858j.s:4262   .data.rel.ro:0000000000000030 _ZTIN12_GLOBAL__N_142TestStreamingDoubleWritesCorrectCharactersE
     /tmp/ccZH858j.s:3018   .text:000000000000133e _ZN12_GLOBAL__N_142TestStreamingDoubleWritesCorrectCharactersD1Ev
     /tmp/ccZH858j.s:3048   .text:0000000000001368 _ZN12_GLOBAL__N_142TestStreamingDoubleWritesCorrectCharactersD0Ev
     /tmp/ccZH858j.s:3018   .text:000000000000133e _ZN12_GLOBAL__N_142TestStreamingDoubleWritesCorrectCharactersD2Ev
     /tmp/ccZH858j.s:4276   .data.rel.ro:0000000000000048 _ZTIN12_GLOBAL__N_141TestStreamingFloatWritesCorrectCharactersE
     /tmp/ccZH858j.s:3124   .text:00000000000013b0 _ZN12_GLOBAL__N_141TestStreamingFloatWritesCorrectCharactersD1Ev
     /tmp/ccZH858j.s:3154   .text:00000000000013da _ZN12_GLOBAL__N_141TestStreamingFloatWritesCorrectCharactersD0Ev
     /tmp/ccZH858j.s:3124   .text:00000000000013b0 _ZN12_GLOBAL__N_141TestStreamingFloatWritesCorrectCharactersD2Ev
     /tmp/ccZH858j.s:4290   .data.rel.ro:0000000000000060 _ZTIN12_GLOBAL__N_148TestStreamingUnsignedLongWritesCorrectCharactersE
     /tmp/ccZH858j.s:3230   .text:0000000000001422 _ZN12_GLOBAL__N_148TestStreamingUnsignedLongWritesCorrectCharactersD1Ev
     /tmp/ccZH858j.s:3260   .text:000000000000144c _ZN12_GLOBAL__N_148TestStreamingUnsignedLongWritesCorrectCharactersD0Ev
     /tmp/ccZH858j.s:3230   .text:0000000000001422 _ZN12_GLOBAL__N_148TestStreamingUnsignedLongWritesCorrectCharactersD2Ev
     /tmp/ccZH858j.s:4304   .data.rel.ro:0000000000000078 _ZTIN12_GLOBAL__N_140TestStreamingLongWritesCorrectCharactersE
     /tmp/ccZH858j.s:3336   .text:0000000000001494 _ZN12_GLOBAL__N_140TestStreamingLongWritesCorrectCharactersD1Ev
     /tmp/ccZH858j.s:3366   .text:00000000000014be _ZN12_GLOBAL__N_140TestStreamingLongWritesCorrectCharactersD0Ev
     /tmp/ccZH858j.s:3336   .text:0000000000001494 _ZN12_GLOBAL__N_140TestStreamingLongWritesCorrectCharactersD2Ev
     /tmp/ccZH858j.s:4318   .data.rel.ro:0000000000000090 _ZTIN12_GLOBAL__N_147TestStreamingUnsignedIntWritesCorrectCharactersE
     /tmp/ccZH858j.s:3442   .text:0000000000001506 _ZN12_GLOBAL__N_147TestStreamingUnsignedIntWritesCorrectCharactersD1Ev
     /tmp/ccZH858j.s:3472   .text:0000000000001530 _ZN12_GLOBAL__N_147TestStreamingUnsignedIntWritesCorrectCharactersD0Ev
     /tmp/ccZH858j.s:3442   .text:0000000000001506 _ZN12_GLOBAL__N_147TestStreamingUnsignedIntWritesCorrectCharactersD2Ev
     /tmp/ccZH858j.s:4332   .data.rel.ro:00000000000000a8 _ZTIN12_GLOBAL__N_139TestStreamingIntWritesCorrectCharactersE
     /tmp/ccZH858j.s:3548   .text:0000000000001578 _ZN12_GLOBAL__N_139TestStreamingIntWritesCorrectCharactersD1Ev
     /tmp/ccZH858j.s:3578   .text:00000000000015a2 _ZN12_GLOBAL__N_139TestStreamingIntWritesCorrectCharactersD0Ev
     /tmp/ccZH858j.s:3548   .text:0000000000001578 _ZN12_GLOBAL__N_139TestStreamingIntWritesCorrectCharactersD2Ev
     /tmp/ccZH858j.s:4346   .data.rel.ro:00000000000000c0 _ZTIN12_GLOBAL__N_144TestStreamingMultipleTimesConcatenatesResultE
     /tmp/ccZH858j.s:3654   .text:00000000000015ea _ZN12_GLOBAL__N_144TestStreamingMultipleTimesConcatenatesResultD1Ev
     /tmp/ccZH858j.s:3684   .text:0000000000001614 _ZN12_GLOBAL__N_144TestStreamingMultipleTimesConcatenatesResultD0Ev
     /tmp/ccZH858j.s:3654   .text:00000000000015ea _ZN12_GLOBAL__N_144TestStreamingMultipleTimesConcatenatesResultD2Ev
     /tmp/ccZH858j.s:4360   .data.rel.ro:00000000000000d8 _ZTIN12_GLOBAL__N_133TestStreamingTextCopiesCharactersE
     /tmp/ccZH858j.s:3760   .text:000000000000165c _ZN12_GLOBAL__N_133TestStreamingTextCopiesCharactersD1Ev
     /tmp/ccZH858j.s:3790   .text:0000000000001686 _ZN12_GLOBAL__N_133TestStreamingTextCopiesCharactersD0Ev
     /tmp/ccZH858j.s:3760   .text:000000000000165c _ZN12_GLOBAL__N_133TestStreamingTextCopiesCharactersD2Ev
     /tmp/ccZH858j.s:4374   .data.rel.ro:00000000000000f0 _ZTIN12_GLOBAL__N_124TestDefaultIsEmptyStringE
     /tmp/ccZH858j.s:3866   .text:00000000000016ce _ZN12_GLOBAL__N_124TestDefaultIsEmptyStringD1Ev
     /tmp/ccZH858j.s:3896   .text:00000000000016f8 _ZN12_GLOBAL__N_124TestDefaultIsEmptyStringD0Ev
     /tmp/ccZH858j.s:3866   .text:00000000000016ce _ZN12_GLOBAL__N_124TestDefaultIsEmptyStringD2Ev
     /tmp/ccZH858j.s:4383   .data.rel.ro._ZTIN8UnitTest15MemoryOutStreamE:0000000000000000 _ZTIN8UnitTest15MemoryOutStreamE
     /tmp/ccZH858j.s:4148   .text._ZN8UnitTest15MemoryOutStreamD0Ev:0000000000000000 _ZN8UnitTest15MemoryOutStreamD0Ev
     /tmp/ccZH858j.s:4134   .text._ZN8UnitTest15MemoryOutStreamD1Ev:00000000000000ac _ZTv0_n24_N8UnitTest15MemoryOutStreamD1Ev
     /tmp/ccZH858j.s:4214   .text._ZN8UnitTest15MemoryOutStreamD0Ev:0000000000000048 _ZTv0_n24_N8UnitTest15MemoryOutStreamD0Ev
     /tmp/ccZH858j.s:3993   .data.rel.ro._ZTCN8UnitTest15MemoryOutStreamE0_NSt7__cxx1119basic_ostringstreamIcSt11char_traitsIcESaIcEEE:0000000000000000 _ZTCN8UnitTest15MemoryOutStreamE0_NSt7__cxx1119basic_ostringstreamIcSt11char_traitsIcESaIcEEE
     /tmp/ccZH858j.s:4010   .data.rel.ro._ZTCN8UnitTest15MemoryOutStreamE0_So:0000000000000000 _ZTCN8UnitTest15MemoryOutStreamE0_So
     /tmp/ccZH858j.s:4228   .rodata:00000000000004e0 _ZTSN12_GLOBAL__N_141TestStreamingSizeTWritesCorrectCharactersE
     /tmp/ccZH858j.s:4242   .rodata:0000000000000520 _ZTSN12_GLOBAL__N_143TestStreamingPointerWritesCorrectCharactersE
     /tmp/ccZH858j.s:4256   .rodata:0000000000000560 _ZTSN12_GLOBAL__N_142TestStreamingDoubleWritesCorrectCharactersE
     /tmp/ccZH858j.s:4270   .rodata:00000000000005a0 _ZTSN12_GLOBAL__N_141TestStreamingFloatWritesCorrectCharactersE
     /tmp/ccZH858j.s:4284   .rodata:00000000000005e0 _ZTSN12_GLOBAL__N_148TestStreamingUnsignedLongWritesCorrectCharactersE
     /tmp/ccZH858j.s:4298   .rodata:0000000000000640 _ZTSN12_GLOBAL__N_140TestStreamingLongWritesCorrectCharactersE
     /tmp/ccZH858j.s:4312   .rodata:0000000000000680 _ZTSN12_GLOBAL__N_147TestStreamingUnsignedIntWritesCorrectCharactersE
     /tmp/ccZH858j.s:4326   .rodata:00000000000006e0 _ZTSN12_GLOBAL__N_139TestStreamingIntWritesCorrectCharactersE
     /tmp/ccZH858j.s:4340   .rodata:0000000000000720 _ZTSN12_GLOBAL__N_144TestStreamingMultipleTimesConcatenatesResultE
     /tmp/ccZH858j.s:4354   .rodata:0000000000000760 _ZTSN12_GLOBAL__N_133TestStreamingTextCopiesCharactersE
     /tmp/ccZH858j.s:4368   .rodata:00000000000007a0 _ZTSN12_GLOBAL__N_124TestDefaultIsEmptyStringE
     /tmp/ccZH858j.s:4392   .rodata._ZTSN8UnitTest15MemoryOutStreamE:0000000000000000 _ZTSN8UnitTest15MemoryOutStreamE
     /tmp/ccZH858j.s:4396   .text:0000000000001740 _Z41__static_initialization_and_destruction_0ii
     /tmp/ccZH858j.s:4556   .text:0000000000001a33 _GLOBAL__sub_I_TestMemoryOutStream.cpp

UNDEFINED SYMBOLS
_GLOBAL_OFFSET_TABLE_
_ZNSt9basic_iosIcSt11char_traitsIcEEC2Ev
_ZNSt7__cxx1119basic_ostringstreamIcSt11char_traitsIcESaIcEEC2ESt13_Ios_Openmode
_ZNSt7__cxx1112basic_stringIcSt11char_traitsIcESaIcEEC1Ev
_ZNSt7__cxx1119basic_ostringstreamIcSt11char_traitsIcESaIcEED2Ev
_ZNSt9basic_iosIcSt11char_traitsIcEED2Ev
_Unwind_Resume
__gxx_personality_v0
_ZN8UnitTest4TestC2EPKcS2_S2_i
_ZNK8UnitTest15MemoryOutStream7GetTextEv
_ZN8UnitTest11CurrentTest7ResultsEv
_ZN8UnitTest11CurrentTest7DetailsEv
_ZN8UnitTest11TestDetailsC1ERKS0_i
_ZN8UnitTest11TestResults13OnTestFailureERKNS_11TestDetailsEPKc
_ZN8UnitTest10CheckEqualERNS_11TestResultsEPKcS3_RKNS_11TestDetailsE
__cxa_begin_catch
__cxa_end_catch
__stack_chk_fail
_ZStlsISt11char_traitsIcEERSt13basic_ostreamIcT_ES5_PKc
_ZNSolsEi
_ZNSolsEj
_ZNSolsEl
_ZNSolsEm
_ZNSolsEf
strstr
_ZNSolsEd
_ZNSolsEPKv
_ZN8UnitTest4TestD2Ev
_ZdlPv
_ZTINSt7__cxx1119basic_ostringstreamIcSt11char_traitsIcESaIcEEE
_ZTISo
_ZNSt7__cxx1112basic_stringIcSt11char_traitsIcESaIcEED1Ev
_ZTVN10__cxxabiv120__si_class_type_infoE
_ZTIN8UnitTest4TestE
__dso_handle
__cxa_atexit
_ZN8UnitTest4Test11GetTestListEv
_ZN8UnitTest9ListAdderC1ERNS_8TestListEPNS_4TestE
