   1              		.file	"TestChecks.cpp"
   2              		.text
   3              	.Ltext0:
   4              		.section	.rodata
   5              	.LC0:
   6 0000 44656661 		.string	"DefaultSuite"
   6      756C7453 
   6      75697465 
   6      00
   7              		.section	.text._ZN13UnitTestSuite12GetSuiteNameEv,"axG",@progbits,_ZN13UnitTestSuite12GetSuiteName
   8              		.weak	_ZN13UnitTestSuite12GetSuiteNameEv
  10              	_ZN13UnitTestSuite12GetSuiteNameEv:
  11              	.LFB0:
  12              		.file 1 "../TestSuite.h"
   1:../TestSuite.h **** #ifndef UNITTEST_TESTSUITE_H
   2:../TestSuite.h **** #define UNITTEST_TESTSUITE_H
   3:../TestSuite.h **** 
   4:../TestSuite.h **** namespace UnitTestSuite {
   5:../TestSuite.h **** 
   6:../TestSuite.h ****     inline char const* GetSuiteName ()
   7:../TestSuite.h ****     {
  13              		.loc 1 7 0
  14              		.cfi_startproc
  15 0000 55       		pushq	%rbp
  16              		.cfi_def_cfa_offset 16
  17              		.cfi_offset 6, -16
  18 0001 4889E5   		movq	%rsp, %rbp
  19              		.cfi_def_cfa_register 6
   8:../TestSuite.h ****         return "DefaultSuite";
  20              		.loc 1 8 0
  21 0004 488D0500 		leaq	.LC0(%rip), %rax
  21      000000
   9:../TestSuite.h ****     }
  22              		.loc 1 9 0
  23 000b 5D       		popq	%rbp
  24              		.cfi_def_cfa 7, 8
  25 000c C3       		ret
  26              		.cfi_endproc
  27              	.LFE0:
  29              		.section	.text._ZN8UnitTest15MemoryOutStreamC1Ev,"axG",@progbits,_ZN8UnitTest15MemoryOutStreamC1Ev
  30              		.align 2
  31              		.weak	_ZN8UnitTest15MemoryOutStreamC1Ev
  33              	_ZN8UnitTest15MemoryOutStreamC1Ev:
  34              	.LFB1076:
  35              		.file 2 "../MemoryOutStream.h"
   1:../MemoryOutStream.h **** #ifndef UNITTEST_MEMORYOUTSTREAM_H
   2:../MemoryOutStream.h **** #define UNITTEST_MEMORYOUTSTREAM_H
   3:../MemoryOutStream.h **** 
   4:../MemoryOutStream.h **** #include "Config.h"
   5:../MemoryOutStream.h **** 
   6:../MemoryOutStream.h **** #ifndef UNITTEST_USE_CUSTOM_STREAMS
   7:../MemoryOutStream.h **** 
   8:../MemoryOutStream.h **** #include <sstream>
   9:../MemoryOutStream.h **** 
  10:../MemoryOutStream.h **** namespace UnitTest
  11:../MemoryOutStream.h **** {
  12:../MemoryOutStream.h **** 
  13:../MemoryOutStream.h **** class MemoryOutStream : public std::ostringstream
  14:../MemoryOutStream.h **** {
  15:../MemoryOutStream.h **** public:
  16:../MemoryOutStream.h ****     MemoryOutStream() {}
  36              		.loc 2 16 0
  37              		.cfi_startproc
  38              		.cfi_personality 0x9b,DW.ref.__gxx_personality_v0
  39              		.cfi_lsda 0x1b,.LLSDA1076
  40 0000 55       		pushq	%rbp
  41              		.cfi_def_cfa_offset 16
  42              		.cfi_offset 6, -16
  43 0001 4889E5   		movq	%rsp, %rbp
  44              		.cfi_def_cfa_register 6
  45 0004 53       		pushq	%rbx
  46 0005 4883EC18 		subq	$24, %rsp
  47              		.cfi_offset 3, -24
  48 0009 48897DE8 		movq	%rdi, -24(%rbp)
  49              	.LBB2:
  50              		.loc 2 16 0
  51 000d 488B45E8 		movq	-24(%rbp), %rax
  52 0011 48059000 		addq	$144, %rax
  52      0000
  53 0017 4889C7   		movq	%rax, %rdi
  54              	.LEHB0:
  55 001a E8000000 		call	_ZNSt9basic_iosIcSt11char_traitsIcEEC2Ev@PLT
  55      00
  56              	.LEHE0:
  57 001f 488B45E8 		movq	-24(%rbp), %rax
  58 0023 488D0D00 		leaq	8+_ZTTN8UnitTest15MemoryOutStreamE(%rip), %rcx
  58      000000
  59 002a BA100000 		movl	$16, %edx
  59      00
  60 002f 4889CE   		movq	%rcx, %rsi
  61 0032 4889C7   		movq	%rax, %rdi
  62              	.LEHB1:
  63 0035 E8000000 		call	_ZNSt7__cxx1119basic_ostringstreamIcSt11char_traitsIcESaIcEEC2ESt13_Ios_Openmode@PLT
  63      00
  64              	.LEHE1:
  65              		.loc 2 16 0 is_stmt 0 discriminator 8
  66 003a 488D1500 		leaq	24+_ZTVN8UnitTest15MemoryOutStreamE(%rip), %rdx
  66      000000
  67 0041 488B45E8 		movq	-24(%rbp), %rax
  68 0045 488910   		movq	%rdx, (%rax)
  69 0048 488B45E8 		movq	-24(%rbp), %rax
  70 004c 488D9090 		leaq	144(%rax), %rdx
  70      000000
  71 0053 488D0500 		leaq	64+_ZTVN8UnitTest15MemoryOutStreamE(%rip), %rax
  71      000000
  72 005a 488902   		movq	%rax, (%rdx)
  73 005d 488B45E8 		movq	-24(%rbp), %rax
  74 0061 4883C070 		addq	$112, %rax
  75 0065 4889C7   		movq	%rax, %rdi
  76              	.LEHB2:
  77 0068 E8000000 		call	_ZNSt7__cxx1112basic_stringIcSt11char_traitsIcESaIcEEC1Ev@PLT
  77      00
  78              	.LEHE2:
  79              	.LBE2:
  80              		.loc 2 16 0
  81 006d EB3B     		jmp	.L9
  82              	.L7:
  83 006f 4889C3   		movq	%rax, %rbx
  84              	.LBB3:
  85 0072 488B45E8 		movq	-24(%rbp), %rax
  86 0076 488D1500 		leaq	8+_ZTTN8UnitTest15MemoryOutStreamE(%rip), %rdx
  86      000000
  87 007d 4889D6   		movq	%rdx, %rsi
  88 0080 4889C7   		movq	%rax, %rdi
  89 0083 E8000000 		call	_ZNSt7__cxx1119basic_ostringstreamIcSt11char_traitsIcESaIcEED2Ev@PLT
  89      00
  90 0088 EB03     		jmp	.L8
  91              	.L6:
  92 008a 4889C3   		movq	%rax, %rbx
  93              	.L8:
  94              		.loc 2 16 0 discriminator 11
  95 008d 488B45E8 		movq	-24(%rbp), %rax
  96 0091 48059000 		addq	$144, %rax
  96      0000
  97 0097 4889C7   		movq	%rax, %rdi
  98 009a E8000000 		call	_ZNSt9basic_iosIcSt11char_traitsIcEED2Ev@PLT
  98      00
  99 009f 4889D8   		movq	%rbx, %rax
 100 00a2 4889C7   		movq	%rax, %rdi
 101              	.LEHB3:
 102 00a5 E8000000 		call	_Unwind_Resume@PLT
 102      00
 103              	.LEHE3:
 104              	.L9:
 105              	.LBE3:
 106              		.loc 2 16 0
 107 00aa 4883C418 		addq	$24, %rsp
 108 00ae 5B       		popq	%rbx
 109 00af 5D       		popq	%rbp
 110              		.cfi_def_cfa 7, 8
 111 00b0 C3       		ret
 112              		.cfi_endproc
 113              	.LFE1076:
 114              		.globl	__gxx_personality_v0
 115              		.section	.gcc_except_table._ZN8UnitTest15MemoryOutStreamC1Ev,"aG",@progbits,_ZN8UnitTest15MemoryOu
 116              	.LLSDA1076:
 117 0000 FF       		.byte	0xff
 118 0001 FF       		.byte	0xff
 119 0002 01       		.byte	0x1
 120 0003 12       		.uleb128 .LLSDACSE1076-.LLSDACSB1076
 121              	.LLSDACSB1076:
 122 0004 1A       		.uleb128 .LEHB0-.LFB1076
 123 0005 05       		.uleb128 .LEHE0-.LEHB0
 124 0006 00       		.uleb128 0
 125 0007 00       		.uleb128 0
 126 0008 35       		.uleb128 .LEHB1-.LFB1076
 127 0009 05       		.uleb128 .LEHE1-.LEHB1
 128 000a 8A01     		.uleb128 .L6-.LFB1076
 129 000c 00       		.uleb128 0
 130 000d 68       		.uleb128 .LEHB2-.LFB1076
 131 000e 05       		.uleb128 .LEHE2-.LEHB2
 132 000f 6F       		.uleb128 .L7-.LFB1076
 133 0010 00       		.uleb128 0
 134 0011 A501     		.uleb128 .LEHB3-.LFB1076
 135 0013 05       		.uleb128 .LEHE3-.LEHB3
 136 0014 00       		.uleb128 0
 137 0015 00       		.uleb128 0
 138              	.LLSDACSE1076:
 139              		.section	.text._ZN8UnitTest15MemoryOutStreamC1Ev,"axG",@progbits,_ZN8UnitTest15MemoryOutStreamC1Ev
 141              		.section	.text._ZN8UnitTest12TestReporterC2Ev,"axG",@progbits,_ZN8UnitTest12TestReporterC5Ev,comda
 142              		.align 2
 143              		.weak	_ZN8UnitTest12TestReporterC2Ev
 145              	_ZN8UnitTest12TestReporterC2Ev:
 146              	.LFB1090:
 147              		.file 3 "../TestReporter.h"
   1:../TestReporter.h **** #ifndef UNITTEST_TESTREPORTER_H
   2:../TestReporter.h **** #define UNITTEST_TESTREPORTER_H
   3:../TestReporter.h **** 
   4:../TestReporter.h **** namespace UnitTest {
   5:../TestReporter.h **** 
   6:../TestReporter.h **** class TestDetails;
   7:../TestReporter.h **** 
   8:../TestReporter.h **** class TestReporter
 148              		.loc 3 8 0 is_stmt 1
 149              		.cfi_startproc
 150 0000 55       		pushq	%rbp
 151              		.cfi_def_cfa_offset 16
 152              		.cfi_offset 6, -16
 153 0001 4889E5   		movq	%rsp, %rbp
 154              		.cfi_def_cfa_register 6
 155 0004 48897DF8 		movq	%rdi, -8(%rbp)
 156              	.LBB4:
 157              		.loc 3 8 0
 158 0008 488D1500 		leaq	16+_ZTVN8UnitTest12TestReporterE(%rip), %rdx
 158      000000
 159 000f 488B45F8 		movq	-8(%rbp), %rax
 160 0013 488910   		movq	%rdx, (%rax)
 161              	.LBE4:
 162 0016 90       		nop
 163 0017 5D       		popq	%rbp
 164              		.cfi_def_cfa 7, 8
 165 0018 C3       		ret
 166              		.cfi_endproc
 167              	.LFE1090:
 169              		.weak	_ZN8UnitTest12TestReporterC1Ev
 170              		.set	_ZN8UnitTest12TestReporterC1Ev,_ZN8UnitTest12TestReporterC2Ev
 171              		.section	.text._ZN17RecordingReporterC2Ev,"axG",@progbits,_ZN17RecordingReporterC5Ev,comdat
 172              		.align 2
 173              		.weak	_ZN17RecordingReporterC2Ev
 175              	_ZN17RecordingReporterC2Ev:
 176              	.LFB1092:
 177              		.file 4 "RecordingReporter.h"
   1:RecordingReporter.h **** #ifndef UNITTEST_RECORDINGREPORTER_H
   2:RecordingReporter.h **** #define UNITTEST_RECORDINGREPORTER_H
   3:RecordingReporter.h **** 
   4:RecordingReporter.h **** #include "../TestReporter.h"
   5:RecordingReporter.h **** #include <cstring>
   6:RecordingReporter.h **** 
   7:RecordingReporter.h **** #include "../TestDetails.h"
   8:RecordingReporter.h **** 
   9:RecordingReporter.h **** struct RecordingReporter : public UnitTest::TestReporter
  10:RecordingReporter.h **** {
  11:RecordingReporter.h **** private:
  12:RecordingReporter.h ****     enum { kMaxStringLength = 256 };
  13:RecordingReporter.h **** 
  14:RecordingReporter.h **** public:
  15:RecordingReporter.h ****     RecordingReporter()
 178              		.loc 4 15 0
 179              		.cfi_startproc
 180 0000 55       		pushq	%rbp
 181              		.cfi_def_cfa_offset 16
 182              		.cfi_offset 6, -16
 183 0001 4889E5   		movq	%rsp, %rbp
 184              		.cfi_def_cfa_register 6
 185 0004 4883EC10 		subq	$16, %rsp
 186 0008 48897DF8 		movq	%rdi, -8(%rbp)
 187              	.LBB5:
  16:RecordingReporter.h ****         : testRunCount(0)
  17:RecordingReporter.h ****         , testFailedCount(0)
  18:RecordingReporter.h ****         , lastFailedLine(0)
  19:RecordingReporter.h ****         , testFinishedCount(0)
  20:RecordingReporter.h ****         , lastFinishedTestTime(0)
  21:RecordingReporter.h ****         , summaryTotalTestCount(0)
  22:RecordingReporter.h ****         , summaryFailedTestCount(0)
  23:RecordingReporter.h ****         , summaryFailureCount(0)
  24:RecordingReporter.h ****         , summarySecondsElapsed(0)
 188              		.loc 4 24 0
 189 000c 488B45F8 		movq	-8(%rbp), %rax
 190 0010 4889C7   		movq	%rax, %rdi
 191 0013 E8000000 		call	_ZN8UnitTest12TestReporterC2Ev
 191      00
 192 0018 488D1500 		leaq	16+_ZTV17RecordingReporter(%rip), %rdx
 192      000000
 193 001f 488B45F8 		movq	-8(%rbp), %rax
 194 0023 488910   		movq	%rdx, (%rax)
 195 0026 488B45F8 		movq	-8(%rbp), %rax
 196 002a C7400800 		movl	$0, 8(%rax)
 196      000000
 197 0031 488B45F8 		movq	-8(%rbp), %rax
 198 0035 C7800C02 		movl	$0, 524(%rax)
 198      00000000 
 198      0000
 199 003f 488B45F8 		movq	-8(%rbp), %rax
 200 0043 C7801003 		movl	$0, 784(%rax)
 200      00000000 
 200      0000
 201 004d 488B45F8 		movq	-8(%rbp), %rax
 202 0051 C7801406 		movl	$0, 1556(%rax)
 202      00000000 
 202      0000
 203 005b 488B45F8 		movq	-8(%rbp), %rax
 204 005f 660FEFC0 		pxor	%xmm0, %xmm0
 205 0063 F30F1180 		movss	%xmm0, 2072(%rax)
 205      18080000 
 206 006b 488B45F8 		movq	-8(%rbp), %rax
 207 006f C7801C08 		movl	$0, 2076(%rax)
 207      00000000 
 207      0000
 208 0079 488B45F8 		movq	-8(%rbp), %rax
 209 007d C7802008 		movl	$0, 2080(%rax)
 209      00000000 
 209      0000
 210 0087 488B45F8 		movq	-8(%rbp), %rax
 211 008b C7802408 		movl	$0, 2084(%rax)
 211      00000000 
 211      0000
 212 0095 488B45F8 		movq	-8(%rbp), %rax
 213 0099 660FEFC0 		pxor	%xmm0, %xmm0
 214 009d F30F1180 		movss	%xmm0, 2088(%rax)
 214      28080000 
  25:RecordingReporter.h ****     {
  26:RecordingReporter.h ****         lastStartedSuite[0] = '\0';
 215              		.loc 4 26 0
 216 00a5 488B45F8 		movq	-8(%rbp), %rax
 217 00a9 C6400C00 		movb	$0, 12(%rax)
  27:RecordingReporter.h ****         lastStartedTest[0] = '\0';
 218              		.loc 4 27 0
 219 00ad 488B45F8 		movq	-8(%rbp), %rax
 220 00b1 C6800C01 		movb	$0, 268(%rax)
 220      000000
  28:RecordingReporter.h ****         lastFailedFile[0] = '\0';
 221              		.loc 4 28 0
 222 00b8 488B45F8 		movq	-8(%rbp), %rax
 223 00bc C6801002 		movb	$0, 528(%rax)
 223      000000
  29:RecordingReporter.h ****         lastFailedSuite[0] = '\0';
 224              		.loc 4 29 0
 225 00c3 488B45F8 		movq	-8(%rbp), %rax
 226 00c7 C6801403 		movb	$0, 788(%rax)
 226      000000
  30:RecordingReporter.h ****         lastFailedTest[0] = '\0';
 227              		.loc 4 30 0
 228 00ce 488B45F8 		movq	-8(%rbp), %rax
 229 00d2 C6801404 		movb	$0, 1044(%rax)
 229      000000
  31:RecordingReporter.h ****         lastFailedMessage[0] = '\0';
 230              		.loc 4 31 0
 231 00d9 488B45F8 		movq	-8(%rbp), %rax
 232 00dd C6801405 		movb	$0, 1300(%rax)
 232      000000
  32:RecordingReporter.h ****         lastFinishedSuite[0] = '\0';
 233              		.loc 4 32 0
 234 00e4 488B45F8 		movq	-8(%rbp), %rax
 235 00e8 C6801806 		movb	$0, 1560(%rax)
 235      000000
  33:RecordingReporter.h ****         lastFinishedTest[0] = '\0';
 236              		.loc 4 33 0
 237 00ef 488B45F8 		movq	-8(%rbp), %rax
 238 00f3 C6801807 		movb	$0, 1816(%rax)
 238      000000
 239              	.LBE5:
  34:RecordingReporter.h ****     }
 240              		.loc 4 34 0
 241 00fa 90       		nop
 242 00fb C9       		leave
 243              		.cfi_def_cfa 7, 8
 244 00fc C3       		ret
 245              		.cfi_endproc
 246              	.LFE1092:
 248              		.weak	_ZN17RecordingReporterC1Ev
 249              		.set	_ZN17RecordingReporterC1Ev,_ZN17RecordingReporterC2Ev
 250              		.section	.text._ZN17RecordingReporter15ReportTestStartERKN8UnitTest11TestDetailsE,"axG",@progbits,
 251              		.align 2
 252              		.weak	_ZN17RecordingReporter15ReportTestStartERKN8UnitTest11TestDetailsE
 254              	_ZN17RecordingReporter15ReportTestStartERKN8UnitTest11TestDetailsE:
 255              	.LFB1094:
  35:RecordingReporter.h **** 
  36:RecordingReporter.h ****     virtual void ReportTestStart(UnitTest::TestDetails const& test)
 256              		.loc 4 36 0
 257              		.cfi_startproc
 258 0000 55       		pushq	%rbp
 259              		.cfi_def_cfa_offset 16
 260              		.cfi_offset 6, -16
 261 0001 4889E5   		movq	%rsp, %rbp
 262              		.cfi_def_cfa_register 6
 263 0004 4883EC10 		subq	$16, %rsp
 264 0008 48897DF8 		movq	%rdi, -8(%rbp)
 265 000c 488975F0 		movq	%rsi, -16(%rbp)
  37:RecordingReporter.h ****     {
  38:RecordingReporter.h **** 		using namespace std;
  39:RecordingReporter.h **** 
  40:RecordingReporter.h ****         ++testRunCount;
 266              		.loc 4 40 0
 267 0010 488B45F8 		movq	-8(%rbp), %rax
 268 0014 8B4008   		movl	8(%rax), %eax
 269 0017 8D5001   		leal	1(%rax), %edx
 270 001a 488B45F8 		movq	-8(%rbp), %rax
 271 001e 895008   		movl	%edx, 8(%rax)
  41:RecordingReporter.h ****         strcpy(lastStartedSuite, test.suiteName);
 272              		.loc 4 41 0
 273 0021 488B45F0 		movq	-16(%rbp), %rax
 274 0025 488B00   		movq	(%rax), %rax
 275 0028 488B55F8 		movq	-8(%rbp), %rdx
 276 002c 4883C20C 		addq	$12, %rdx
 277 0030 4889C6   		movq	%rax, %rsi
 278 0033 4889D7   		movq	%rdx, %rdi
 279 0036 E8000000 		call	strcpy@PLT
 279      00
  42:RecordingReporter.h ****         strcpy(lastStartedTest, test.testName);
 280              		.loc 4 42 0
 281 003b 488B45F0 		movq	-16(%rbp), %rax
 282 003f 488B4008 		movq	8(%rax), %rax
 283 0043 488B55F8 		movq	-8(%rbp), %rdx
 284 0047 4881C20C 		addq	$268, %rdx
 284      010000
 285 004e 4889C6   		movq	%rax, %rsi
 286 0051 4889D7   		movq	%rdx, %rdi
 287 0054 E8000000 		call	strcpy@PLT
 287      00
  43:RecordingReporter.h ****     }
 288              		.loc 4 43 0
 289 0059 90       		nop
 290 005a C9       		leave
 291              		.cfi_def_cfa 7, 8
 292 005b C3       		ret
 293              		.cfi_endproc
 294              	.LFE1094:
 296              		.section	.text._ZN17RecordingReporter13ReportFailureERKN8UnitTest11TestDetailsEPKc,"axG",@progbits
 297              		.align 2
 298              		.weak	_ZN17RecordingReporter13ReportFailureERKN8UnitTest11TestDetailsEPKc
 300              	_ZN17RecordingReporter13ReportFailureERKN8UnitTest11TestDetailsEPKc:
 301              	.LFB1095:
  44:RecordingReporter.h **** 
  45:RecordingReporter.h ****     virtual void ReportFailure(UnitTest::TestDetails const& test, char const* failure)
 302              		.loc 4 45 0
 303              		.cfi_startproc
 304 0000 55       		pushq	%rbp
 305              		.cfi_def_cfa_offset 16
 306              		.cfi_offset 6, -16
 307 0001 4889E5   		movq	%rsp, %rbp
 308              		.cfi_def_cfa_register 6
 309 0004 4883EC20 		subq	$32, %rsp
 310 0008 48897DF8 		movq	%rdi, -8(%rbp)
 311 000c 488975F0 		movq	%rsi, -16(%rbp)
 312 0010 488955E8 		movq	%rdx, -24(%rbp)
  46:RecordingReporter.h ****     {
  47:RecordingReporter.h **** 		using namespace std;
  48:RecordingReporter.h **** 
  49:RecordingReporter.h **** 		++testFailedCount;
 313              		.loc 4 49 0
 314 0014 488B45F8 		movq	-8(%rbp), %rax
 315 0018 8B800C02 		movl	524(%rax), %eax
 315      0000
 316 001e 8D5001   		leal	1(%rax), %edx
 317 0021 488B45F8 		movq	-8(%rbp), %rax
 318 0025 89900C02 		movl	%edx, 524(%rax)
 318      0000
  50:RecordingReporter.h ****         strcpy(lastFailedFile, test.filename);
 319              		.loc 4 50 0
 320 002b 488B45F0 		movq	-16(%rbp), %rax
 321 002f 488B4010 		movq	16(%rax), %rax
 322 0033 488B55F8 		movq	-8(%rbp), %rdx
 323 0037 4881C210 		addq	$528, %rdx
 323      020000
 324 003e 4889C6   		movq	%rax, %rsi
 325 0041 4889D7   		movq	%rdx, %rdi
 326 0044 E8000000 		call	strcpy@PLT
 326      00
  51:RecordingReporter.h ****         lastFailedLine = test.lineNumber;
 327              		.loc 4 51 0
 328 0049 488B45F0 		movq	-16(%rbp), %rax
 329 004d 8B5018   		movl	24(%rax), %edx
 330 0050 488B45F8 		movq	-8(%rbp), %rax
 331 0054 89901003 		movl	%edx, 784(%rax)
 331      0000
  52:RecordingReporter.h ****         strcpy(lastFailedSuite, test.suiteName);
 332              		.loc 4 52 0
 333 005a 488B45F0 		movq	-16(%rbp), %rax
 334 005e 488B00   		movq	(%rax), %rax
 335 0061 488B55F8 		movq	-8(%rbp), %rdx
 336 0065 4881C214 		addq	$788, %rdx
 336      030000
 337 006c 4889C6   		movq	%rax, %rsi
 338 006f 4889D7   		movq	%rdx, %rdi
 339 0072 E8000000 		call	strcpy@PLT
 339      00
  53:RecordingReporter.h ****         strcpy(lastFailedTest, test.testName);
 340              		.loc 4 53 0
 341 0077 488B45F0 		movq	-16(%rbp), %rax
 342 007b 488B4008 		movq	8(%rax), %rax
 343 007f 488B55F8 		movq	-8(%rbp), %rdx
 344 0083 4881C214 		addq	$1044, %rdx
 344      040000
 345 008a 4889C6   		movq	%rax, %rsi
 346 008d 4889D7   		movq	%rdx, %rdi
 347 0090 E8000000 		call	strcpy@PLT
 347      00
  54:RecordingReporter.h ****         strcpy(lastFailedMessage, failure);
 348              		.loc 4 54 0
 349 0095 488B45F8 		movq	-8(%rbp), %rax
 350 0099 488D9014 		leaq	1300(%rax), %rdx
 350      050000
 351 00a0 488B45E8 		movq	-24(%rbp), %rax
 352 00a4 4889C6   		movq	%rax, %rsi
 353 00a7 4889D7   		movq	%rdx, %rdi
 354 00aa E8000000 		call	strcpy@PLT
 354      00
  55:RecordingReporter.h ****     }
 355              		.loc 4 55 0
 356 00af 90       		nop
 357 00b0 C9       		leave
 358              		.cfi_def_cfa 7, 8
 359 00b1 C3       		ret
 360              		.cfi_endproc
 361              	.LFE1095:
 363              		.section	.text._ZN17RecordingReporter16ReportTestFinishERKN8UnitTest11TestDetailsEf,"axG",@progbit
 364              		.align 2
 365              		.weak	_ZN17RecordingReporter16ReportTestFinishERKN8UnitTest11TestDetailsEf
 367              	_ZN17RecordingReporter16ReportTestFinishERKN8UnitTest11TestDetailsEf:
 368              	.LFB1096:
  56:RecordingReporter.h **** 
  57:RecordingReporter.h ****     virtual void ReportTestFinish(UnitTest::TestDetails const& test, float testDuration)
 369              		.loc 4 57 0
 370              		.cfi_startproc
 371 0000 55       		pushq	%rbp
 372              		.cfi_def_cfa_offset 16
 373              		.cfi_offset 6, -16
 374 0001 4889E5   		movq	%rsp, %rbp
 375              		.cfi_def_cfa_register 6
 376 0004 4883EC20 		subq	$32, %rsp
 377 0008 48897DF8 		movq	%rdi, -8(%rbp)
 378 000c 488975F0 		movq	%rsi, -16(%rbp)
 379 0010 F30F1145 		movss	%xmm0, -20(%rbp)
 379      EC
  58:RecordingReporter.h ****     {
  59:RecordingReporter.h **** 		using namespace std;
  60:RecordingReporter.h **** 
  61:RecordingReporter.h **** 		++testFinishedCount;
 380              		.loc 4 61 0
 381 0015 488B45F8 		movq	-8(%rbp), %rax
 382 0019 8B801406 		movl	1556(%rax), %eax
 382      0000
 383 001f 8D5001   		leal	1(%rax), %edx
 384 0022 488B45F8 		movq	-8(%rbp), %rax
 385 0026 89901406 		movl	%edx, 1556(%rax)
 385      0000
  62:RecordingReporter.h ****         strcpy(lastFinishedSuite, test.suiteName);
 386              		.loc 4 62 0
 387 002c 488B45F0 		movq	-16(%rbp), %rax
 388 0030 488B00   		movq	(%rax), %rax
 389 0033 488B55F8 		movq	-8(%rbp), %rdx
 390 0037 4881C218 		addq	$1560, %rdx
 390      060000
 391 003e 4889C6   		movq	%rax, %rsi
 392 0041 4889D7   		movq	%rdx, %rdi
 393 0044 E8000000 		call	strcpy@PLT
 393      00
  63:RecordingReporter.h ****         strcpy(lastFinishedTest, test.testName);
 394              		.loc 4 63 0
 395 0049 488B45F0 		movq	-16(%rbp), %rax
 396 004d 488B4008 		movq	8(%rax), %rax
 397 0051 488B55F8 		movq	-8(%rbp), %rdx
 398 0055 4881C218 		addq	$1816, %rdx
 398      070000
 399 005c 4889C6   		movq	%rax, %rsi
 400 005f 4889D7   		movq	%rdx, %rdi
 401 0062 E8000000 		call	strcpy@PLT
 401      00
  64:RecordingReporter.h ****         lastFinishedTestTime = testDuration;
 402              		.loc 4 64 0
 403 0067 488B45F8 		movq	-8(%rbp), %rax
 404 006b F30F1045 		movss	-20(%rbp), %xmm0
 404      EC
 405 0070 F30F1180 		movss	%xmm0, 2072(%rax)
 405      18080000 
  65:RecordingReporter.h ****     }
 406              		.loc 4 65 0
 407 0078 90       		nop
 408 0079 C9       		leave
 409              		.cfi_def_cfa 7, 8
 410 007a C3       		ret
 411              		.cfi_endproc
 412              	.LFE1096:
 414              		.section	.text._ZN17RecordingReporter13ReportSummaryEiiif,"axG",@progbits,_ZN17RecordingReporter13
 415              		.align 2
 416              		.weak	_ZN17RecordingReporter13ReportSummaryEiiif
 418              	_ZN17RecordingReporter13ReportSummaryEiiif:
 419              	.LFB1097:
  66:RecordingReporter.h **** 
  67:RecordingReporter.h ****     virtual void ReportSummary(int totalTestCount, int failedTestCount, int failureCount, float sec
 420              		.loc 4 67 0
 421              		.cfi_startproc
 422 0000 55       		pushq	%rbp
 423              		.cfi_def_cfa_offset 16
 424              		.cfi_offset 6, -16
 425 0001 4889E5   		movq	%rsp, %rbp
 426              		.cfi_def_cfa_register 6
 427 0004 48897DF8 		movq	%rdi, -8(%rbp)
 428 0008 8975F4   		movl	%esi, -12(%rbp)
 429 000b 8955F0   		movl	%edx, -16(%rbp)
 430 000e 894DEC   		movl	%ecx, -20(%rbp)
 431 0011 F30F1145 		movss	%xmm0, -24(%rbp)
 431      E8
  68:RecordingReporter.h ****     {
  69:RecordingReporter.h ****         summaryTotalTestCount = totalTestCount;
 432              		.loc 4 69 0
 433 0016 488B45F8 		movq	-8(%rbp), %rax
 434 001a 8B55F4   		movl	-12(%rbp), %edx
 435 001d 89901C08 		movl	%edx, 2076(%rax)
 435      0000
  70:RecordingReporter.h ****         summaryFailedTestCount = failedTestCount;
 436              		.loc 4 70 0
 437 0023 488B45F8 		movq	-8(%rbp), %rax
 438 0027 8B55F0   		movl	-16(%rbp), %edx
 439 002a 89902008 		movl	%edx, 2080(%rax)
 439      0000
  71:RecordingReporter.h ****         summaryFailureCount = failureCount;
 440              		.loc 4 71 0
 441 0030 488B45F8 		movq	-8(%rbp), %rax
 442 0034 8B55EC   		movl	-20(%rbp), %edx
 443 0037 89902408 		movl	%edx, 2084(%rax)
 443      0000
  72:RecordingReporter.h ****         summarySecondsElapsed = secondsElapsed;
 444              		.loc 4 72 0
 445 003d 488B45F8 		movq	-8(%rbp), %rax
 446 0041 F30F1045 		movss	-24(%rbp), %xmm0
 446      E8
 447 0046 F30F1180 		movss	%xmm0, 2088(%rax)
 447      28080000 
  73:RecordingReporter.h ****     }
 448              		.loc 4 73 0
 449 004e 90       		nop
 450 004f 5D       		popq	%rbp
 451              		.cfi_def_cfa 7, 8
 452 0050 C3       		ret
 453              		.cfi_endproc
 454              	.LFE1097:
 456              		.section	.rodata
 457              	.LC2:
 458 000d 54657374 		.string	"TestChecks.cpp"
 458      43686563 
 458      6B732E63 
 458      707000
 459              	.LC3:
 460 001c 43686563 		.string	"CheckEqualWithUnsignedLong"
 460      6B457175 
 460      616C5769 
 460      7468556E 
 460      7369676E 
 461              		.text
 462              		.align 2
 464              	_ZN12_GLOBAL__N_130TestCheckEqualWithUnsignedLongC2Ev:
 465              	.LFB1099:
 466              		.file 5 "TestChecks.cpp"
   1:TestChecks.cpp **** #include "../UnitTest++.h"
   2:TestChecks.cpp **** #include "RecordingReporter.h"
   3:TestChecks.cpp **** 
   4:TestChecks.cpp **** using namespace UnitTest;
   5:TestChecks.cpp **** 
   6:TestChecks.cpp **** 
   7:TestChecks.cpp **** namespace {
   8:TestChecks.cpp **** 
   9:TestChecks.cpp **** 
  10:TestChecks.cpp **** TEST(CheckEqualWithUnsignedLong)
 467              		.loc 5 10 0
 468              		.cfi_startproc
 469 0000 55       		pushq	%rbp
 470              		.cfi_def_cfa_offset 16
 471              		.cfi_offset 6, -16
 472 0001 4889E5   		movq	%rsp, %rbp
 473              		.cfi_def_cfa_register 6
 474 0004 53       		pushq	%rbx
 475 0005 4883EC18 		subq	$24, %rsp
 476              		.cfi_offset 3, -24
 477 0009 48897DE8 		movq	%rdi, -24(%rbp)
 478              	.LBB6:
 479              		.loc 5 10 0
 480 000d 488B5DE8 		movq	-24(%rbp), %rbx
 481 0011 E8000000 		call	_ZN13UnitTestSuite12GetSuiteNameEv
 481      00
 482 0016 41B80A00 		movl	$10, %r8d
 482      0000
 483 001c 488D0D00 		leaq	.LC2(%rip), %rcx
 483      000000
 484 0023 4889C2   		movq	%rax, %rdx
 485 0026 488D3500 		leaq	.LC3(%rip), %rsi
 485      000000
 486 002d 4889DF   		movq	%rbx, %rdi
 487 0030 E8000000 		call	_ZN8UnitTest4TestC2EPKcS2_S2_i@PLT
 487      00
 488 0035 488D1500 		leaq	16+_ZTVN12_GLOBAL__N_130TestCheckEqualWithUnsignedLongE(%rip), %rdx
 488      000000
 489 003c 488B45E8 		movq	-24(%rbp), %rax
 490 0040 488910   		movq	%rdx, (%rax)
 491              	.LBE6:
 492 0043 90       		nop
 493 0044 4883C418 		addq	$24, %rsp
 494 0048 5B       		popq	%rbx
 495 0049 5D       		popq	%rbp
 496              		.cfi_def_cfa 7, 8
 497 004a C3       		ret
 498              		.cfi_endproc
 499              	.LFE1099:
 501              		.set	_ZN12_GLOBAL__N_130TestCheckEqualWithUnsignedLongC1Ev,_ZN12_GLOBAL__N_130TestCheckEqualWithUn
 502              		.local	_ZN12_GLOBAL__N_138testCheckEqualWithUnsignedLongInstanceE
 503              		.comm	_ZN12_GLOBAL__N_138testCheckEqualWithUnsignedLongInstanceE,56,32
 504              		.local	_ZN12_GLOBAL__N_131adderCheckEqualWithUnsignedLongE
 505              		.comm	_ZN12_GLOBAL__N_131adderCheckEqualWithUnsignedLongE,1,1
 506              		.section	.rodata
 507 0037 00       		.align 8
 508              	.LC4:
 509 0038 556E6861 		.string	"Unhandled exception in CHECK_EQUAL(something, something)"
 509      6E646C65 
 509      64206578 
 509      63657074 
 509      696F6E20 
 510              		.text
 511 004b 90       		.align 2
 513              	_ZNK12_GLOBAL__N_130TestCheckEqualWithUnsignedLong7RunImplEv:
 514              	.LFB1101:
  11:TestChecks.cpp **** {
 515              		.loc 5 11 0
 516              		.cfi_startproc
 517              		.cfi_personality 0x9b,DW.ref.__gxx_personality_v0
 518              		.cfi_lsda 0x1b,.LLSDA1101
 519 004c 55       		pushq	%rbp
 520              		.cfi_def_cfa_offset 16
 521              		.cfi_offset 6, -16
 522 004d 4889E5   		movq	%rsp, %rbp
 523              		.cfi_def_cfa_register 6
 524 0050 53       		pushq	%rbx
 525 0051 4883EC78 		subq	$120, %rsp
 526              		.cfi_offset 3, -24
 527 0055 48897D88 		movq	%rdi, -120(%rbp)
 528              		.loc 5 11 0
 529 0059 64488B04 		movq	%fs:40, %rax
 529      25280000 
 529      00
 530 0062 488945E8 		movq	%rax, -24(%rbp)
 531 0066 31C0     		xorl	%eax, %eax
  12:TestChecks.cpp ****     TestResults results;
 532              		.loc 5 12 0
 533 0068 488D45A0 		leaq	-96(%rbp), %rax
 534 006c BE000000 		movl	$0, %esi
 534      00
 535 0071 4889C7   		movq	%rax, %rdi
 536              	.LEHB4:
 537 0074 E8000000 		call	_ZN8UnitTest11TestResultsC1EPNS_12TestReporterE@PLT
 537      00
 538              	.LEHE4:
  13:TestChecks.cpp ****     unsigned long something = 2;
 539              		.loc 5 13 0
 540 0079 48C74598 		movq	$2, -104(%rbp)
 540      02000000 
 541              	.LEHB5:
  14:TestChecks.cpp ****     CHECK_EQUAL(something, something);
 542              		.loc 5 14 0
 543 0081 E8000000 		call	_ZN8UnitTest11CurrentTest7DetailsEv@PLT
 543      00
 544 0086 488B08   		movq	(%rax), %rcx
 545 0089 488D45C0 		leaq	-64(%rbp), %rax
 546 008d BA0E0000 		movl	$14, %edx
 546      00
 547 0092 4889CE   		movq	%rcx, %rsi
 548 0095 4889C7   		movq	%rax, %rdi
 549 0098 E8000000 		call	_ZN8UnitTest11TestDetailsC1ERKS0_i@PLT
 549      00
 550              		.loc 5 14 0 is_stmt 0 discriminator 2
 551 009d E8000000 		call	_ZN8UnitTest11CurrentTest7ResultsEv@PLT
 551      00
 552 00a2 488B00   		movq	(%rax), %rax
 553 00a5 488D4DC0 		leaq	-64(%rbp), %rcx
 554 00a9 488D5598 		leaq	-104(%rbp), %rdx
 555 00ad 488D7598 		leaq	-104(%rbp), %rsi
 556 00b1 4889C7   		movq	%rax, %rdi
 557 00b4 E8000000 		call	_ZN8UnitTest10CheckEqualImmEEvRNS_11TestResultsERKT_RKT0_RKNS_11TestDetailsE
 557      00
 558              	.LEHE5:
  15:TestChecks.cpp **** }
 559              		.loc 5 15 0 is_stmt 1
 560 00b9 EB5C     		jmp	.L17
 561              	.L22:
  14:TestChecks.cpp ****     CHECK_EQUAL(something, something);
 562              		.loc 5 14 0
 563 00bb 4889C7   		movq	%rax, %rdi
 564 00be E8000000 		call	__cxa_begin_catch@PLT
 564      00
 565              	.LEHB6:
 566 00c3 E8000000 		call	_ZN8UnitTest11CurrentTest7ResultsEv@PLT
 566      00
 567 00c8 488B18   		movq	(%rax), %rbx
 568 00cb E8000000 		call	_ZN8UnitTest11CurrentTest7DetailsEv@PLT
 568      00
  14:TestChecks.cpp ****     CHECK_EQUAL(something, something);
 569              		.loc 5 14 0 is_stmt 0 discriminator 8
 570 00d0 488B08   		movq	(%rax), %rcx
 571 00d3 488D45C0 		leaq	-64(%rbp), %rax
 572 00d7 BA0E0000 		movl	$14, %edx
 572      00
 573 00dc 4889CE   		movq	%rcx, %rsi
 574 00df 4889C7   		movq	%rax, %rdi
 575 00e2 E8000000 		call	_ZN8UnitTest11TestDetailsC1ERKS0_i@PLT
 575      00
  14:TestChecks.cpp ****     CHECK_EQUAL(something, something);
 576              		.loc 5 14 0 discriminator 12
 577 00e7 488D45C0 		leaq	-64(%rbp), %rax
 578 00eb 488D1500 		leaq	.LC4(%rip), %rdx
 578      000000
 579 00f2 4889C6   		movq	%rax, %rsi
 580 00f5 4889DF   		movq	%rbx, %rdi
 581 00f8 E8000000 		call	_ZN8UnitTest11TestResults13OnTestFailureERKNS_11TestDetailsEPKc@PLT
 581      00
 582              	.LEHE6:
 583              	.LEHB7:
  14:TestChecks.cpp ****     CHECK_EQUAL(something, something);
 584              		.loc 5 14 0 discriminator 14
 585 00fd E8000000 		call	__cxa_end_catch@PLT
 585      00
 586              	.LEHE7:
 587              		.loc 5 15 0 is_stmt 1 discriminator 14
 588 0102 EB13     		jmp	.L17
 589              	.L23:
 590 0104 4889C3   		movq	%rax, %rbx
  14:TestChecks.cpp ****     CHECK_EQUAL(something, something);
 591              		.loc 5 14 0
 592 0107 E8000000 		call	__cxa_end_catch@PLT
 592      00
 593 010c 4889D8   		movq	%rbx, %rax
 594 010f 4889C7   		movq	%rax, %rdi
 595              	.LEHB8:
 596 0112 E8000000 		call	_Unwind_Resume@PLT
 596      00
 597              	.LEHE8:
 598              	.L17:
 599              		.loc 5 15 0
 600 0117 488B45E8 		movq	-24(%rbp), %rax
 601 011b 64483304 		xorq	%fs:40, %rax
 601      25280000 
 601      00
 602 0124 7405     		je	.L21
 603 0126 E8000000 		call	__stack_chk_fail@PLT
 603      00
 604              	.L21:
 605 012b 4883C478 		addq	$120, %rsp
 606 012f 5B       		popq	%rbx
 607 0130 5D       		popq	%rbp
 608              		.cfi_def_cfa 7, 8
 609 0131 C3       		ret
 610              		.cfi_endproc
 611              	.LFE1101:
 612              		.section	.gcc_except_table,"a",@progbits
 613              		.align 4
 614              	.LLSDA1101:
 615 0000 FF       		.byte	0xff
 616 0001 9B       		.byte	0x9b
 617 0002 21       		.uleb128 .LLSDATT1101-.LLSDATTD1101
 618              	.LLSDATTD1101:
 619 0003 01       		.byte	0x1
 620 0004 17       		.uleb128 .LLSDACSE1101-.LLSDACSB1101
 621              	.LLSDACSB1101:
 622 0005 28       		.uleb128 .LEHB4-.LFB1101
 623 0006 05       		.uleb128 .LEHE4-.LEHB4
 624 0007 00       		.uleb128 0
 625 0008 00       		.uleb128 0
 626 0009 35       		.uleb128 .LEHB5-.LFB1101
 627 000a 38       		.uleb128 .LEHE5-.LEHB5
 628 000b 6F       		.uleb128 .L22-.LFB1101
 629 000c 01       		.uleb128 0x1
 630 000d 77       		.uleb128 .LEHB6-.LFB1101
 631 000e 3A       		.uleb128 .LEHE6-.LEHB6
 632 000f B801     		.uleb128 .L23-.LFB1101
 633 0011 00       		.uleb128 0
 634 0012 B101     		.uleb128 .LEHB7-.LFB1101
 635 0014 05       		.uleb128 .LEHE7-.LEHB7
 636 0015 00       		.uleb128 0
 637 0016 00       		.uleb128 0
 638 0017 C601     		.uleb128 .LEHB8-.LFB1101
 639 0019 05       		.uleb128 .LEHE8-.LEHB8
 640 001a 00       		.uleb128 0
 641 001b 00       		.uleb128 0
 642              	.LLSDACSE1101:
 643 001c 01       		.byte	0x1
 644 001d 00       		.byte	0
 645 001e 0000     		.align 4
 646 0020 00000000 		.long	0
 647              	
 648              	.LLSDATT1101:
 649              		.text
 651              		.section	.rodata
 652 0071 00000000 		.align 8
 652      000000
 653              	.LC5:
 654 0078 43686563 		.string	"CheckEqualsWithStringsFailsOnDifferentStrings"
 654      6B457175 
 654      616C7357 
 654      69746853 
 654      7472696E 
 655              		.text
 656              		.align 2
 658              	_ZN12_GLOBAL__N_149TestCheckEqualsWithStringsFailsOnDifferentStringsC2Ev:
 659              	.LFB1103:
  16:TestChecks.cpp **** 
  17:TestChecks.cpp **** TEST(CheckEqualsWithStringsFailsOnDifferentStrings)
 660              		.loc 5 17 0
 661              		.cfi_startproc
 662 0132 55       		pushq	%rbp
 663              		.cfi_def_cfa_offset 16
 664              		.cfi_offset 6, -16
 665 0133 4889E5   		movq	%rsp, %rbp
 666              		.cfi_def_cfa_register 6
 667 0136 53       		pushq	%rbx
 668 0137 4883EC18 		subq	$24, %rsp
 669              		.cfi_offset 3, -24
 670 013b 48897DE8 		movq	%rdi, -24(%rbp)
 671              	.LBB7:
 672              		.loc 5 17 0
 673 013f 488B5DE8 		movq	-24(%rbp), %rbx
 674 0143 E8000000 		call	_ZN13UnitTestSuite12GetSuiteNameEv
 674      00
 675 0148 41B81100 		movl	$17, %r8d
 675      0000
 676 014e 488D0D00 		leaq	.LC2(%rip), %rcx
 676      000000
 677 0155 4889C2   		movq	%rax, %rdx
 678 0158 488D3500 		leaq	.LC5(%rip), %rsi
 678      000000
 679 015f 4889DF   		movq	%rbx, %rdi
 680 0162 E8000000 		call	_ZN8UnitTest4TestC2EPKcS2_S2_i@PLT
 680      00
 681 0167 488D1500 		leaq	16+_ZTVN12_GLOBAL__N_149TestCheckEqualsWithStringsFailsOnDifferentStringsE(%rip), %rdx
 681      000000
 682 016e 488B45E8 		movq	-24(%rbp), %rax
 683 0172 488910   		movq	%rdx, (%rax)
 684              	.LBE7:
 685 0175 90       		nop
 686 0176 4883C418 		addq	$24, %rsp
 687 017a 5B       		popq	%rbx
 688 017b 5D       		popq	%rbp
 689              		.cfi_def_cfa 7, 8
 690 017c C3       		ret
 691              		.cfi_endproc
 692              	.LFE1103:
 694              		.set	_ZN12_GLOBAL__N_149TestCheckEqualsWithStringsFailsOnDifferentStringsC1Ev,_ZN12_GLOBAL__N_149T
 695              		.local	_ZN12_GLOBAL__N_157testCheckEqualsWithStringsFailsOnDifferentStringsInstanceE
 696              		.comm	_ZN12_GLOBAL__N_157testCheckEqualsWithStringsFailsOnDifferentStringsInstanceE,56,32
 697              		.local	_ZN12_GLOBAL__N_150adderCheckEqualsWithStringsFailsOnDifferentStringsE
 698              		.comm	_ZN12_GLOBAL__N_150adderCheckEqualsWithStringsFailsOnDifferentStringsE,1,1
 699              		.section	.rodata
 700              	.LC6:
 701 00a6 00       		.string	""
 702 00a7 00       		.align 8
 703              	.LC7:
 704 00a8 556E6861 		.string	"Unhandled exception in CHECK_EQUAL(1, results.GetFailureCount())"
 704      6E646C65 
 704      64206578 
 704      63657074 
 704      696F6E20 
 705              		.text
 706 017d 90       		.align 2
 708              	_ZNK12_GLOBAL__N_149TestCheckEqualsWithStringsFailsOnDifferentStrings7RunImplEv:
 709              	.LFB1105:
  18:TestChecks.cpp **** {
 710              		.loc 5 18 0
 711              		.cfi_startproc
 712              		.cfi_personality 0x9b,DW.ref.__gxx_personality_v0
 713              		.cfi_lsda 0x1b,.LLSDA1105
 714 017e 55       		pushq	%rbp
 715              		.cfi_def_cfa_offset 16
 716              		.cfi_offset 6, -16
 717 017f 4889E5   		movq	%rsp, %rbp
 718              		.cfi_def_cfa_register 6
 719 0182 53       		pushq	%rbx
 720 0183 4881EC88 		subq	$136, %rsp
 720      000000
 721              		.cfi_offset 3, -24
 722 018a 4889BD78 		movq	%rdi, -136(%rbp)
 722      FFFFFF
 723              		.loc 5 18 0
 724 0191 64488B04 		movq	%fs:40, %rax
 724      25280000 
 724      00
 725 019a 488945E8 		movq	%rax, -24(%rbp)
 726 019e 31C0     		xorl	%eax, %eax
  19:TestChecks.cpp ****     char txt1[] = "Hello";
 727              		.loc 5 19 0
 728 01a0 C745DC48 		movl	$1819043144, -36(%rbp)
 728      656C6C
 729 01a7 66C745E0 		movw	$111, -32(%rbp)
 729      6F00
  20:TestChecks.cpp ****     char txt2[] = "Hallo";
 730              		.loc 5 20 0
 731 01ad C745E248 		movl	$1819042120, -30(%rbp)
 731      616C6C
 732 01b4 66C745E6 		movw	$111, -26(%rbp)
 732      6F00
  21:TestChecks.cpp ****     TestResults results;
 733              		.loc 5 21 0
 734 01ba 488D4590 		leaq	-112(%rbp), %rax
 735 01be BE000000 		movl	$0, %esi
 735      00
 736 01c3 4889C7   		movq	%rax, %rdi
 737              	.LEHB9:
 738 01c6 E8000000 		call	_ZN8UnitTest11TestResultsC1EPNS_12TestReporterE@PLT
 738      00
  22:TestChecks.cpp ****     CheckEqual(results, txt1, txt2, TestDetails("", "", "", 0));
 739              		.loc 5 22 0
 740 01cb 488D45B0 		leaq	-80(%rbp), %rax
 741 01cf 41B80000 		movl	$0, %r8d
 741      0000
 742 01d5 488D0D00 		leaq	.LC6(%rip), %rcx
 742      000000
 743 01dc 488D1500 		leaq	.LC6(%rip), %rdx
 743      000000
 744 01e3 488D3500 		leaq	.LC6(%rip), %rsi
 744      000000
 745 01ea 4889C7   		movq	%rax, %rdi
 746 01ed E8000000 		call	_ZN8UnitTest11TestDetailsC1EPKcS2_S2_i@PLT
 746      00
 747 01f2 488D4DB0 		leaq	-80(%rbp), %rcx
 748 01f6 488D55E2 		leaq	-30(%rbp), %rdx
 749 01fa 488D75DC 		leaq	-36(%rbp), %rsi
 750 01fe 488D4590 		leaq	-112(%rbp), %rax
 751 0202 4889C7   		movq	%rax, %rdi
 752 0205 E8000000 		call	_ZN8UnitTest10CheckEqualERNS_11TestResultsEPcS2_RKNS_11TestDetailsE@PLT
 752      00
 753              	.LEHE9:
 754              	.LEHB10:
  23:TestChecks.cpp ****     CHECK_EQUAL(1, results.GetFailureCount());
 755              		.loc 5 23 0
 756 020a E8000000 		call	_ZN8UnitTest11CurrentTest7DetailsEv@PLT
 756      00
 757 020f 488B08   		movq	(%rax), %rcx
 758 0212 488D45B0 		leaq	-80(%rbp), %rax
 759 0216 BA170000 		movl	$23, %edx
 759      00
 760 021b 4889CE   		movq	%rcx, %rsi
 761 021e 4889C7   		movq	%rax, %rdi
 762 0221 E8000000 		call	_ZN8UnitTest11TestDetailsC1ERKS0_i@PLT
 762      00
 763              		.loc 5 23 0 is_stmt 0 discriminator 2
 764 0226 488D4590 		leaq	-112(%rbp), %rax
 765 022a 4889C7   		movq	%rax, %rdi
 766 022d E8000000 		call	_ZNK8UnitTest11TestResults15GetFailureCountEv@PLT
 766      00
 767              	.LEHE10:
 768 0232 89458C   		movl	%eax, -116(%rbp)
 769 0235 C7458801 		movl	$1, -120(%rbp)
 769      000000
 770              	.LEHB11:
 771 023c E8000000 		call	_ZN8UnitTest11CurrentTest7ResultsEv@PLT
 771      00
 772              		.loc 5 23 0 discriminator 4
 773 0241 488B00   		movq	(%rax), %rax
 774 0244 488D4DB0 		leaq	-80(%rbp), %rcx
 775 0248 488D558C 		leaq	-116(%rbp), %rdx
 776 024c 488D7588 		leaq	-120(%rbp), %rsi
 777 0250 4889C7   		movq	%rax, %rdi
 778 0253 E8000000 		call	_ZN8UnitTest10CheckEqualIiiEEvRNS_11TestResultsERKT_RKT0_RKNS_11TestDetailsE
 778      00
 779              	.LEHE11:
  24:TestChecks.cpp **** }
 780              		.loc 5 24 0 is_stmt 1
 781 0258 EB5E     		jmp	.L25
 782              	.L32:
 783 025a EB00     		jmp	.L27
 784              	.L31:
 785              	.L27:
  23:TestChecks.cpp ****     CHECK_EQUAL(1, results.GetFailureCount());
 786              		.loc 5 23 0
 787 025c 4889C7   		movq	%rax, %rdi
 788 025f E8000000 		call	__cxa_begin_catch@PLT
 788      00
 789              	.LEHB12:
 790 0264 E8000000 		call	_ZN8UnitTest11CurrentTest7ResultsEv@PLT
 790      00
 791 0269 488B18   		movq	(%rax), %rbx
 792 026c E8000000 		call	_ZN8UnitTest11CurrentTest7DetailsEv@PLT
 792      00
  23:TestChecks.cpp ****     CHECK_EQUAL(1, results.GetFailureCount());
 793              		.loc 5 23 0 is_stmt 0 discriminator 10
 794 0271 488B08   		movq	(%rax), %rcx
 795 0274 488D45B0 		leaq	-80(%rbp), %rax
 796 0278 BA170000 		movl	$23, %edx
 796      00
 797 027d 4889CE   		movq	%rcx, %rsi
 798 0280 4889C7   		movq	%rax, %rdi
 799 0283 E8000000 		call	_ZN8UnitTest11TestDetailsC1ERKS0_i@PLT
 799      00
  23:TestChecks.cpp ****     CHECK_EQUAL(1, results.GetFailureCount());
 800              		.loc 5 23 0 discriminator 14
 801 0288 488D45B0 		leaq	-80(%rbp), %rax
 802 028c 488D1500 		leaq	.LC7(%rip), %rdx
 802      000000
 803 0293 4889C6   		movq	%rax, %rsi
 804 0296 4889DF   		movq	%rbx, %rdi
 805 0299 E8000000 		call	_ZN8UnitTest11TestResults13OnTestFailureERKNS_11TestDetailsEPKc@PLT
 805      00
 806              	.LEHE12:
 807              	.LEHB13:
  23:TestChecks.cpp ****     CHECK_EQUAL(1, results.GetFailureCount());
 808              		.loc 5 23 0 discriminator 16
 809 029e E8000000 		call	__cxa_end_catch@PLT
 809      00
 810              	.LEHE13:
 811              		.loc 5 24 0 is_stmt 1 discriminator 16
 812 02a3 EB13     		jmp	.L25
 813              	.L33:
 814 02a5 4889C3   		movq	%rax, %rbx
  23:TestChecks.cpp ****     CHECK_EQUAL(1, results.GetFailureCount());
 815              		.loc 5 23 0
 816 02a8 E8000000 		call	__cxa_end_catch@PLT
 816      00
 817 02ad 4889D8   		movq	%rbx, %rax
 818 02b0 4889C7   		movq	%rax, %rdi
 819              	.LEHB14:
 820 02b3 E8000000 		call	_Unwind_Resume@PLT
 820      00
 821              	.LEHE14:
 822              	.L25:
 823              		.loc 5 24 0
 824 02b8 488B45E8 		movq	-24(%rbp), %rax
 825 02bc 64483304 		xorq	%fs:40, %rax
 825      25280000 
 825      00
 826 02c5 7405     		je	.L30
 827 02c7 E8000000 		call	__stack_chk_fail@PLT
 827      00
 828              	.L30:
 829 02cc 4881C488 		addq	$136, %rsp
 829      000000
 830 02d3 5B       		popq	%rbx
 831 02d4 5D       		popq	%rbp
 832              		.cfi_def_cfa 7, 8
 833 02d5 C3       		ret
 834              		.cfi_endproc
 835              	.LFE1105:
 836              		.section	.gcc_except_table
 837              		.align 4
 838              	.LLSDA1105:
 839 0024 FF       		.byte	0xff
 840 0025 9B       		.byte	0x9b
 841 0026 2D       		.uleb128 .LLSDATT1105-.LLSDATTD1105
 842              	.LLSDATTD1105:
 843 0027 01       		.byte	0x1
 844 0028 20       		.uleb128 .LLSDACSE1105-.LLSDACSB1105
 845              	.LLSDACSB1105:
 846 0029 48       		.uleb128 .LEHB9-.LFB1105
 847 002a 44       		.uleb128 .LEHE9-.LEHB9
 848 002b 00       		.uleb128 0
 849 002c 00       		.uleb128 0
 850 002d 8C01     		.uleb128 .LEHB10-.LFB1105
 851 002f 28       		.uleb128 .LEHE10-.LEHB10
 852 0030 DE01     		.uleb128 .L31-.LFB1105
 853 0032 01       		.uleb128 0x1
 854 0033 BE01     		.uleb128 .LEHB11-.LFB1105
 855 0035 1C       		.uleb128 .LEHE11-.LEHB11
 856 0036 DC01     		.uleb128 .L32-.LFB1105
 857 0038 03       		.uleb128 0x3
 858 0039 E601     		.uleb128 .LEHB12-.LFB1105
 859 003b 3A       		.uleb128 .LEHE12-.LEHB12
 860 003c A702     		.uleb128 .L33-.LFB1105
 861 003e 00       		.uleb128 0
 862 003f A002     		.uleb128 .LEHB13-.LFB1105
 863 0041 05       		.uleb128 .LEHE13-.LEHB13
 864 0042 00       		.uleb128 0
 865 0043 00       		.uleb128 0
 866 0044 B502     		.uleb128 .LEHB14-.LFB1105
 867 0046 05       		.uleb128 .LEHE14-.LEHB14
 868 0047 00       		.uleb128 0
 869 0048 00       		.uleb128 0
 870              	.LLSDACSE1105:
 871 0049 01       		.byte	0x1
 872 004a 00       		.byte	0
 873 004b 00       		.byte	0
 874 004c 7D       		.byte	0x7d
 875 004d 000000   		.align 4
 876 0050 00000000 		.long	0
 877              	
 878              	.LLSDATT1105:
 879              		.text
 881              		.data
 884              	_ZN12_GLOBAL__N_14txt1E:
 885 0000 48656C6C 		.string	"Hello"
 885      6F00
 888              	_ZN12_GLOBAL__N_14txt2E:
 889 0006 48656C6C 		.string	"Hello"
 889      6F00
 890              		.section	.rodata
 891 00e9 00000000 		.align 8
 891      000000
 892              	.LC8:
 893 00f0 43686563 		.string	"CheckEqualsWithStringsWorksOnContentsNonConstNonConst"
 893      6B457175 
 893      616C7357 
 893      69746853 
 893      7472696E 
 894              		.text
 895              		.align 2
 897              	_ZN12_GLOBAL__N_157TestCheckEqualsWithStringsWorksOnContentsNonConstNonConstC2Ev:
 898              	.LFB1107:
  25:TestChecks.cpp **** 
  26:TestChecks.cpp **** char txt1[] = "Hello"; // non-const on purpose so no folding of duplicate data
  27:TestChecks.cpp **** char txt2[] = "Hello";
  28:TestChecks.cpp **** 
  29:TestChecks.cpp **** TEST(CheckEqualsWithStringsWorksOnContentsNonConstNonConst)
 899              		.loc 5 29 0
 900              		.cfi_startproc
 901 02d6 55       		pushq	%rbp
 902              		.cfi_def_cfa_offset 16
 903              		.cfi_offset 6, -16
 904 02d7 4889E5   		movq	%rsp, %rbp
 905              		.cfi_def_cfa_register 6
 906 02da 53       		pushq	%rbx
 907 02db 4883EC18 		subq	$24, %rsp
 908              		.cfi_offset 3, -24
 909 02df 48897DE8 		movq	%rdi, -24(%rbp)
 910              	.LBB8:
 911              		.loc 5 29 0
 912 02e3 488B5DE8 		movq	-24(%rbp), %rbx
 913 02e7 E8000000 		call	_ZN13UnitTestSuite12GetSuiteNameEv
 913      00
 914 02ec 41B81D00 		movl	$29, %r8d
 914      0000
 915 02f2 488D0D00 		leaq	.LC2(%rip), %rcx
 915      000000
 916 02f9 4889C2   		movq	%rax, %rdx
 917 02fc 488D3500 		leaq	.LC8(%rip), %rsi
 917      000000
 918 0303 4889DF   		movq	%rbx, %rdi
 919 0306 E8000000 		call	_ZN8UnitTest4TestC2EPKcS2_S2_i@PLT
 919      00
 920 030b 488D1500 		leaq	16+_ZTVN12_GLOBAL__N_157TestCheckEqualsWithStringsWorksOnContentsNonConstNonConstE(%rip), %rd
 920      000000
 921 0312 488B45E8 		movq	-24(%rbp), %rax
 922 0316 488910   		movq	%rdx, (%rax)
 923              	.LBE8:
 924 0319 90       		nop
 925 031a 4883C418 		addq	$24, %rsp
 926 031e 5B       		popq	%rbx
 927 031f 5D       		popq	%rbp
 928              		.cfi_def_cfa 7, 8
 929 0320 C3       		ret
 930              		.cfi_endproc
 931              	.LFE1107:
 933              		.set	_ZN12_GLOBAL__N_157TestCheckEqualsWithStringsWorksOnContentsNonConstNonConstC1Ev,_ZN12_GLOBAL
 934              		.local	_ZN12_GLOBAL__N_165testCheckEqualsWithStringsWorksOnContentsNonConstNonConstInstanceE
 935              		.comm	_ZN12_GLOBAL__N_165testCheckEqualsWithStringsWorksOnContentsNonConstNonConstInstanceE,56,32
 936              		.local	_ZN12_GLOBAL__N_158adderCheckEqualsWithStringsWorksOnContentsNonConstNonConstE
 937              		.comm	_ZN12_GLOBAL__N_158adderCheckEqualsWithStringsWorksOnContentsNonConstNonConstE,1,1
 938              		.section	.rodata
 939 0126 0000     		.align 8
 940              	.LC9:
 941 0128 556E6861 		.string	"Unhandled exception in CHECK_EQUAL(0, results.GetFailureCount())"
 941      6E646C65 
 941      64206578 
 941      63657074 
 941      696F6E20 
 942              		.text
 943 0321 90       		.align 2
 945              	_ZNK12_GLOBAL__N_157TestCheckEqualsWithStringsWorksOnContentsNonConstNonConst7RunImplEv:
 946              	.LFB1109:
  30:TestChecks.cpp **** {
 947              		.loc 5 30 0
 948              		.cfi_startproc
 949              		.cfi_personality 0x9b,DW.ref.__gxx_personality_v0
 950              		.cfi_lsda 0x1b,.LLSDA1109
 951 0322 55       		pushq	%rbp
 952              		.cfi_def_cfa_offset 16
 953              		.cfi_offset 6, -16
 954 0323 4889E5   		movq	%rsp, %rbp
 955              		.cfi_def_cfa_register 6
 956 0326 53       		pushq	%rbx
 957 0327 4881EC88 		subq	$136, %rsp
 957      000000
 958              		.cfi_offset 3, -24
 959 032e 4889BD78 		movq	%rdi, -136(%rbp)
 959      FFFFFF
 960              		.loc 5 30 0
 961 0335 64488B04 		movq	%fs:40, %rax
 961      25280000 
 961      00
 962 033e 488945E8 		movq	%rax, -24(%rbp)
 963 0342 31C0     		xorl	%eax, %eax
  31:TestChecks.cpp ****     char const* const p1 = txt1;
 964              		.loc 5 31 0
 965 0344 488D0500 		leaq	_ZN12_GLOBAL__N_14txt1E(%rip), %rax
 965      000000
 966 034b 48894590 		movq	%rax, -112(%rbp)
  32:TestChecks.cpp ****     char const* const p2 = txt2;
 967              		.loc 5 32 0
 968 034f 488D0500 		leaq	_ZN12_GLOBAL__N_14txt2E(%rip), %rax
 968      000000
 969 0356 48894598 		movq	%rax, -104(%rbp)
  33:TestChecks.cpp ****     TestResults results;
 970              		.loc 5 33 0
 971 035a 488D45A0 		leaq	-96(%rbp), %rax
 972 035e BE000000 		movl	$0, %esi
 972      00
 973 0363 4889C7   		movq	%rax, %rdi
 974              	.LEHB15:
 975 0366 E8000000 		call	_ZN8UnitTest11TestResultsC1EPNS_12TestReporterE@PLT
 975      00
  34:TestChecks.cpp ****     CheckEqual(results, p1, p2, TestDetails("", "", "", 0));
 976              		.loc 5 34 0
 977 036b 488D45C0 		leaq	-64(%rbp), %rax
 978 036f 41B80000 		movl	$0, %r8d
 978      0000
 979 0375 488D0D00 		leaq	.LC6(%rip), %rcx
 979      000000
 980 037c 488D1500 		leaq	.LC6(%rip), %rdx
 980      000000
 981 0383 488D3500 		leaq	.LC6(%rip), %rsi
 981      000000
 982 038a 4889C7   		movq	%rax, %rdi
 983 038d E8000000 		call	_ZN8UnitTest11TestDetailsC1EPKcS2_S2_i@PLT
 983      00
 984 0392 488D55C0 		leaq	-64(%rbp), %rdx
 985 0396 488D45A0 		leaq	-96(%rbp), %rax
 986 039a 4889D1   		movq	%rdx, %rcx
 987 039d 488D1500 		leaq	_ZN12_GLOBAL__N_14txt2E(%rip), %rdx
 987      000000
 988 03a4 488D3500 		leaq	_ZN12_GLOBAL__N_14txt1E(%rip), %rsi
 988      000000
 989 03ab 4889C7   		movq	%rax, %rdi
 990 03ae E8000000 		call	_ZN8UnitTest10CheckEqualERNS_11TestResultsEPKcS3_RKNS_11TestDetailsE@PLT
 990      00
 991              	.LEHE15:
 992              	.LEHB16:
  35:TestChecks.cpp ****     CHECK_EQUAL(0, results.GetFailureCount());
 993              		.loc 5 35 0
 994 03b3 E8000000 		call	_ZN8UnitTest11CurrentTest7DetailsEv@PLT
 994      00
 995 03b8 488B08   		movq	(%rax), %rcx
 996 03bb 488D45C0 		leaq	-64(%rbp), %rax
 997 03bf BA230000 		movl	$35, %edx
 997      00
 998 03c4 4889CE   		movq	%rcx, %rsi
 999 03c7 4889C7   		movq	%rax, %rdi
 1000 03ca E8000000 		call	_ZN8UnitTest11TestDetailsC1ERKS0_i@PLT
 1000      00
 1001              		.loc 5 35 0 is_stmt 0 discriminator 2
 1002 03cf 488D45A0 		leaq	-96(%rbp), %rax
 1003 03d3 4889C7   		movq	%rax, %rdi
 1004 03d6 E8000000 		call	_ZNK8UnitTest11TestResults15GetFailureCountEv@PLT
 1004      00
 1005              	.LEHE16:
 1006 03db 89458C   		movl	%eax, -116(%rbp)
 1007 03de C7458800 		movl	$0, -120(%rbp)
 1007      000000
 1008              	.LEHB17:
 1009 03e5 E8000000 		call	_ZN8UnitTest11CurrentTest7ResultsEv@PLT
 1009      00
 1010              		.loc 5 35 0 discriminator 4
 1011 03ea 488B00   		movq	(%rax), %rax
 1012 03ed 488D4DC0 		leaq	-64(%rbp), %rcx
 1013 03f1 488D558C 		leaq	-116(%rbp), %rdx
 1014 03f5 488D7588 		leaq	-120(%rbp), %rsi
 1015 03f9 4889C7   		movq	%rax, %rdi
 1016 03fc E8000000 		call	_ZN8UnitTest10CheckEqualIiiEEvRNS_11TestResultsERKT_RKT0_RKNS_11TestDetailsE
 1016      00
 1017              	.LEHE17:
  36:TestChecks.cpp **** }
 1018              		.loc 5 36 0 is_stmt 1
 1019 0401 EB5E     		jmp	.L35
 1020              	.L42:
 1021 0403 EB00     		jmp	.L37
 1022              	.L41:
 1023              	.L37:
  35:TestChecks.cpp ****     CHECK_EQUAL(0, results.GetFailureCount());
 1024              		.loc 5 35 0
 1025 0405 4889C7   		movq	%rax, %rdi
 1026 0408 E8000000 		call	__cxa_begin_catch@PLT
 1026      00
 1027              	.LEHB18:
 1028 040d E8000000 		call	_ZN8UnitTest11CurrentTest7ResultsEv@PLT
 1028      00
 1029 0412 488B18   		movq	(%rax), %rbx
 1030 0415 E8000000 		call	_ZN8UnitTest11CurrentTest7DetailsEv@PLT
 1030      00
  35:TestChecks.cpp ****     CHECK_EQUAL(0, results.GetFailureCount());
 1031              		.loc 5 35 0 is_stmt 0 discriminator 10
 1032 041a 488B08   		movq	(%rax), %rcx
 1033 041d 488D45C0 		leaq	-64(%rbp), %rax
 1034 0421 BA230000 		movl	$35, %edx
 1034      00
 1035 0426 4889CE   		movq	%rcx, %rsi
 1036 0429 4889C7   		movq	%rax, %rdi
 1037 042c E8000000 		call	_ZN8UnitTest11TestDetailsC1ERKS0_i@PLT
 1037      00
  35:TestChecks.cpp ****     CHECK_EQUAL(0, results.GetFailureCount());
 1038              		.loc 5 35 0 discriminator 14
 1039 0431 488D45C0 		leaq	-64(%rbp), %rax
 1040 0435 488D1500 		leaq	.LC9(%rip), %rdx
 1040      000000
 1041 043c 4889C6   		movq	%rax, %rsi
 1042 043f 4889DF   		movq	%rbx, %rdi
 1043 0442 E8000000 		call	_ZN8UnitTest11TestResults13OnTestFailureERKNS_11TestDetailsEPKc@PLT
 1043      00
 1044              	.LEHE18:
 1045              	.LEHB19:
  35:TestChecks.cpp ****     CHECK_EQUAL(0, results.GetFailureCount());
 1046              		.loc 5 35 0 discriminator 16
 1047 0447 E8000000 		call	__cxa_end_catch@PLT
 1047      00
 1048              	.LEHE19:
 1049              		.loc 5 36 0 is_stmt 1 discriminator 16
 1050 044c EB13     		jmp	.L35
 1051              	.L43:
 1052 044e 4889C3   		movq	%rax, %rbx
  35:TestChecks.cpp ****     CHECK_EQUAL(0, results.GetFailureCount());
 1053              		.loc 5 35 0
 1054 0451 E8000000 		call	__cxa_end_catch@PLT
 1054      00
 1055 0456 4889D8   		movq	%rbx, %rax
 1056 0459 4889C7   		movq	%rax, %rdi
 1057              	.LEHB20:
 1058 045c E8000000 		call	_Unwind_Resume@PLT
 1058      00
 1059              	.LEHE20:
 1060              	.L35:
 1061              		.loc 5 36 0
 1062 0461 488B45E8 		movq	-24(%rbp), %rax
 1063 0465 64483304 		xorq	%fs:40, %rax
 1063      25280000 
 1063      00
 1064 046e 7405     		je	.L40
 1065 0470 E8000000 		call	__stack_chk_fail@PLT
 1065      00
 1066              	.L40:
 1067 0475 4881C488 		addq	$136, %rsp
 1067      000000
 1068 047c 5B       		popq	%rbx
 1069 047d 5D       		popq	%rbp
 1070              		.cfi_def_cfa 7, 8
 1071 047e C3       		ret
 1072              		.cfi_endproc
 1073              	.LFE1109:
 1074              		.section	.gcc_except_table
 1075              		.align 4
 1076              	.LLSDA1109:
 1077 0054 FF       		.byte	0xff
 1078 0055 9B       		.byte	0x9b
 1079 0056 2D       		.uleb128 .LLSDATT1109-.LLSDATTD1109
 1080              	.LLSDATTD1109:
 1081 0057 01       		.byte	0x1
 1082 0058 20       		.uleb128 .LLSDACSE1109-.LLSDACSB1109
 1083              	.LLSDACSB1109:
 1084 0059 44       		.uleb128 .LEHB15-.LFB1109
 1085 005a 4D       		.uleb128 .LEHE15-.LEHB15
 1086 005b 00       		.uleb128 0
 1087 005c 00       		.uleb128 0
 1088 005d 9101     		.uleb128 .LEHB16-.LFB1109
 1089 005f 28       		.uleb128 .LEHE16-.LEHB16
 1090 0060 E301     		.uleb128 .L41-.LFB1109
 1091 0062 01       		.uleb128 0x1
 1092 0063 C301     		.uleb128 .LEHB17-.LFB1109
 1093 0065 1C       		.uleb128 .LEHE17-.LEHB17
 1094 0066 E101     		.uleb128 .L42-.LFB1109
 1095 0068 03       		.uleb128 0x3
 1096 0069 EB01     		.uleb128 .LEHB18-.LFB1109
 1097 006b 3A       		.uleb128 .LEHE18-.LEHB18
 1098 006c AC02     		.uleb128 .L43-.LFB1109
 1099 006e 00       		.uleb128 0
 1100 006f A502     		.uleb128 .LEHB19-.LFB1109
 1101 0071 05       		.uleb128 .LEHE19-.LEHB19
 1102 0072 00       		.uleb128 0
 1103 0073 00       		.uleb128 0
 1104 0074 BA02     		.uleb128 .LEHB20-.LFB1109
 1105 0076 05       		.uleb128 .LEHE20-.LEHB20
 1106 0077 00       		.uleb128 0
 1107 0078 00       		.uleb128 0
 1108              	.LLSDACSE1109:
 1109 0079 01       		.byte	0x1
 1110 007a 00       		.byte	0
 1111 007b 00       		.byte	0
 1112 007c 7D       		.byte	0x7d
 1113 007d 000000   		.align 4
 1114 0080 00000000 		.long	0
 1115              	
 1116              	.LLSDATT1109:
 1117              		.text
 1119              		.section	.rodata
 1120 0169 00000000 		.align 8
 1120      000000
 1121              	.LC10:
 1122 0170 43686563 		.string	"CheckEqualsWithStringsWorksOnContentsConstConst"
 1122      6B457175 
 1122      616C7357 
 1122      69746853 
 1122      7472696E 
 1123              		.text
 1124 047f 90       		.align 2
 1126              	_ZN12_GLOBAL__N_151TestCheckEqualsWithStringsWorksOnContentsConstConstC2Ev:
 1127              	.LFB1111:
  37:TestChecks.cpp **** 
  38:TestChecks.cpp **** TEST(CheckEqualsWithStringsWorksOnContentsConstConst)
 1128              		.loc 5 38 0
 1129              		.cfi_startproc
 1130 0480 55       		pushq	%rbp
 1131              		.cfi_def_cfa_offset 16
 1132              		.cfi_offset 6, -16
 1133 0481 4889E5   		movq	%rsp, %rbp
 1134              		.cfi_def_cfa_register 6
 1135 0484 53       		pushq	%rbx
 1136 0485 4883EC18 		subq	$24, %rsp
 1137              		.cfi_offset 3, -24
 1138 0489 48897DE8 		movq	%rdi, -24(%rbp)
 1139              	.LBB9:
 1140              		.loc 5 38 0
 1141 048d 488B5DE8 		movq	-24(%rbp), %rbx
 1142 0491 E8000000 		call	_ZN13UnitTestSuite12GetSuiteNameEv
 1142      00
 1143 0496 41B82600 		movl	$38, %r8d
 1143      0000
 1144 049c 488D0D00 		leaq	.LC2(%rip), %rcx
 1144      000000
 1145 04a3 4889C2   		movq	%rax, %rdx
 1146 04a6 488D3500 		leaq	.LC10(%rip), %rsi
 1146      000000
 1147 04ad 4889DF   		movq	%rbx, %rdi
 1148 04b0 E8000000 		call	_ZN8UnitTest4TestC2EPKcS2_S2_i@PLT
 1148      00
 1149 04b5 488D1500 		leaq	16+_ZTVN12_GLOBAL__N_151TestCheckEqualsWithStringsWorksOnContentsConstConstE(%rip), %rdx
 1149      000000
 1150 04bc 488B45E8 		movq	-24(%rbp), %rax
 1151 04c0 488910   		movq	%rdx, (%rax)
 1152              	.LBE9:
 1153 04c3 90       		nop
 1154 04c4 4883C418 		addq	$24, %rsp
 1155 04c8 5B       		popq	%rbx
 1156 04c9 5D       		popq	%rbp
 1157              		.cfi_def_cfa 7, 8
 1158 04ca C3       		ret
 1159              		.cfi_endproc
 1160              	.LFE1111:
 1162              		.set	_ZN12_GLOBAL__N_151TestCheckEqualsWithStringsWorksOnContentsConstConstC1Ev,_ZN12_GLOBAL__N_15
 1163              		.local	_ZN12_GLOBAL__N_159testCheckEqualsWithStringsWorksOnContentsConstConstInstanceE
 1164              		.comm	_ZN12_GLOBAL__N_159testCheckEqualsWithStringsWorksOnContentsConstConstInstanceE,56,32
 1165              		.local	_ZN12_GLOBAL__N_152adderCheckEqualsWithStringsWorksOnContentsConstConstE
 1166              		.comm	_ZN12_GLOBAL__N_152adderCheckEqualsWithStringsWorksOnContentsConstConstE,1,1
 1167 04cb 90       		.align 2
 1169              	_ZNK12_GLOBAL__N_151TestCheckEqualsWithStringsWorksOnContentsConstConst7RunImplEv:
 1170              	.LFB1113:
  39:TestChecks.cpp **** {
 1171              		.loc 5 39 0
 1172              		.cfi_startproc
 1173              		.cfi_personality 0x9b,DW.ref.__gxx_personality_v0
 1174              		.cfi_lsda 0x1b,.LLSDA1113
 1175 04cc 55       		pushq	%rbp
 1176              		.cfi_def_cfa_offset 16
 1177              		.cfi_offset 6, -16
 1178 04cd 4889E5   		movq	%rsp, %rbp
 1179              		.cfi_def_cfa_register 6
 1180 04d0 53       		pushq	%rbx
 1181 04d1 4881EC88 		subq	$136, %rsp
 1181      000000
 1182              		.cfi_offset 3, -24
 1183 04d8 4889BD78 		movq	%rdi, -136(%rbp)
 1183      FFFFFF
 1184              		.loc 5 39 0
 1185 04df 64488B04 		movq	%fs:40, %rax
 1185      25280000 
 1185      00
 1186 04e8 488945E8 		movq	%rax, -24(%rbp)
 1187 04ec 31C0     		xorl	%eax, %eax
  40:TestChecks.cpp ****     char* const p1 = txt1;
 1188              		.loc 5 40 0
 1189 04ee 488D0500 		leaq	_ZN12_GLOBAL__N_14txt1E(%rip), %rax
 1189      000000
 1190 04f5 48894590 		movq	%rax, -112(%rbp)
  41:TestChecks.cpp ****     char* const p2 = txt2;
 1191              		.loc 5 41 0
 1192 04f9 488D0500 		leaq	_ZN12_GLOBAL__N_14txt2E(%rip), %rax
 1192      000000
 1193 0500 48894598 		movq	%rax, -104(%rbp)
  42:TestChecks.cpp ****     TestResults results;
 1194              		.loc 5 42 0
 1195 0504 488D45A0 		leaq	-96(%rbp), %rax
 1196 0508 BE000000 		movl	$0, %esi
 1196      00
 1197 050d 4889C7   		movq	%rax, %rdi
 1198              	.LEHB21:
 1199 0510 E8000000 		call	_ZN8UnitTest11TestResultsC1EPNS_12TestReporterE@PLT
 1199      00
  43:TestChecks.cpp ****     CheckEqual(results, p1, p2, TestDetails("", "", "", 0));
 1200              		.loc 5 43 0
 1201 0515 488D45C0 		leaq	-64(%rbp), %rax
 1202 0519 41B80000 		movl	$0, %r8d
 1202      0000
 1203 051f 488D0D00 		leaq	.LC6(%rip), %rcx
 1203      000000
 1204 0526 488D1500 		leaq	.LC6(%rip), %rdx
 1204      000000
 1205 052d 488D3500 		leaq	.LC6(%rip), %rsi
 1205      000000
 1206 0534 4889C7   		movq	%rax, %rdi
 1207 0537 E8000000 		call	_ZN8UnitTest11TestDetailsC1EPKcS2_S2_i@PLT
 1207      00
 1208 053c 488D55C0 		leaq	-64(%rbp), %rdx
 1209 0540 488D45A0 		leaq	-96(%rbp), %rax
 1210 0544 4889D1   		movq	%rdx, %rcx
 1211 0547 488D1500 		leaq	_ZN12_GLOBAL__N_14txt2E(%rip), %rdx
 1211      000000
 1212 054e 488D3500 		leaq	_ZN12_GLOBAL__N_14txt1E(%rip), %rsi
 1212      000000
 1213 0555 4889C7   		movq	%rax, %rdi
 1214 0558 E8000000 		call	_ZN8UnitTest10CheckEqualERNS_11TestResultsEPcS2_RKNS_11TestDetailsE@PLT
 1214      00
 1215              	.LEHE21:
 1216              	.LEHB22:
  44:TestChecks.cpp ****     CHECK_EQUAL(0, results.GetFailureCount());
 1217              		.loc 5 44 0
 1218 055d E8000000 		call	_ZN8UnitTest11CurrentTest7DetailsEv@PLT
 1218      00
 1219 0562 488B08   		movq	(%rax), %rcx
 1220 0565 488D45C0 		leaq	-64(%rbp), %rax
 1221 0569 BA2C0000 		movl	$44, %edx
 1221      00
 1222 056e 4889CE   		movq	%rcx, %rsi
 1223 0571 4889C7   		movq	%rax, %rdi
 1224 0574 E8000000 		call	_ZN8UnitTest11TestDetailsC1ERKS0_i@PLT
 1224      00
 1225              		.loc 5 44 0 is_stmt 0 discriminator 2
 1226 0579 488D45A0 		leaq	-96(%rbp), %rax
 1227 057d 4889C7   		movq	%rax, %rdi
 1228 0580 E8000000 		call	_ZNK8UnitTest11TestResults15GetFailureCountEv@PLT
 1228      00
 1229              	.LEHE22:
 1230 0585 89458C   		movl	%eax, -116(%rbp)
 1231 0588 C7458800 		movl	$0, -120(%rbp)
 1231      000000
 1232              	.LEHB23:
 1233 058f E8000000 		call	_ZN8UnitTest11CurrentTest7ResultsEv@PLT
 1233      00
 1234              		.loc 5 44 0 discriminator 4
 1235 0594 488B00   		movq	(%rax), %rax
 1236 0597 488D4DC0 		leaq	-64(%rbp), %rcx
 1237 059b 488D558C 		leaq	-116(%rbp), %rdx
 1238 059f 488D7588 		leaq	-120(%rbp), %rsi
 1239 05a3 4889C7   		movq	%rax, %rdi
 1240 05a6 E8000000 		call	_ZN8UnitTest10CheckEqualIiiEEvRNS_11TestResultsERKT_RKT0_RKNS_11TestDetailsE
 1240      00
 1241              	.LEHE23:
  45:TestChecks.cpp **** }
 1242              		.loc 5 45 0 is_stmt 1
 1243 05ab EB5E     		jmp	.L45
 1244              	.L52:
 1245 05ad EB00     		jmp	.L47
 1246              	.L51:
 1247              	.L47:
  44:TestChecks.cpp ****     CHECK_EQUAL(0, results.GetFailureCount());
 1248              		.loc 5 44 0
 1249 05af 4889C7   		movq	%rax, %rdi
 1250 05b2 E8000000 		call	__cxa_begin_catch@PLT
 1250      00
 1251              	.LEHB24:
 1252 05b7 E8000000 		call	_ZN8UnitTest11CurrentTest7ResultsEv@PLT
 1252      00
 1253 05bc 488B18   		movq	(%rax), %rbx
 1254 05bf E8000000 		call	_ZN8UnitTest11CurrentTest7DetailsEv@PLT
 1254      00
  44:TestChecks.cpp ****     CHECK_EQUAL(0, results.GetFailureCount());
 1255              		.loc 5 44 0 is_stmt 0 discriminator 10
 1256 05c4 488B08   		movq	(%rax), %rcx
 1257 05c7 488D45C0 		leaq	-64(%rbp), %rax
 1258 05cb BA2C0000 		movl	$44, %edx
 1258      00
 1259 05d0 4889CE   		movq	%rcx, %rsi
 1260 05d3 4889C7   		movq	%rax, %rdi
 1261 05d6 E8000000 		call	_ZN8UnitTest11TestDetailsC1ERKS0_i@PLT
 1261      00
  44:TestChecks.cpp ****     CHECK_EQUAL(0, results.GetFailureCount());
 1262              		.loc 5 44 0 discriminator 14
 1263 05db 488D45C0 		leaq	-64(%rbp), %rax
 1264 05df 488D1500 		leaq	.LC9(%rip), %rdx
 1264      000000
 1265 05e6 4889C6   		movq	%rax, %rsi
 1266 05e9 4889DF   		movq	%rbx, %rdi
 1267 05ec E8000000 		call	_ZN8UnitTest11TestResults13OnTestFailureERKNS_11TestDetailsEPKc@PLT
 1267      00
 1268              	.LEHE24:
 1269              	.LEHB25:
  44:TestChecks.cpp ****     CHECK_EQUAL(0, results.GetFailureCount());
 1270              		.loc 5 44 0 discriminator 16
 1271 05f1 E8000000 		call	__cxa_end_catch@PLT
 1271      00
 1272              	.LEHE25:
 1273              		.loc 5 45 0 is_stmt 1 discriminator 16
 1274 05f6 EB13     		jmp	.L45
 1275              	.L53:
 1276 05f8 4889C3   		movq	%rax, %rbx
  44:TestChecks.cpp ****     CHECK_EQUAL(0, results.GetFailureCount());
 1277              		.loc 5 44 0
 1278 05fb E8000000 		call	__cxa_end_catch@PLT
 1278      00
 1279 0600 4889D8   		movq	%rbx, %rax
 1280 0603 4889C7   		movq	%rax, %rdi
 1281              	.LEHB26:
 1282 0606 E8000000 		call	_Unwind_Resume@PLT
 1282      00
 1283              	.LEHE26:
 1284              	.L45:
 1285              		.loc 5 45 0
 1286 060b 488B45E8 		movq	-24(%rbp), %rax
 1287 060f 64483304 		xorq	%fs:40, %rax
 1287      25280000 
 1287      00
 1288 0618 7405     		je	.L50
 1289 061a E8000000 		call	__stack_chk_fail@PLT
 1289      00
 1290              	.L50:
 1291 061f 4881C488 		addq	$136, %rsp
 1291      000000
 1292 0626 5B       		popq	%rbx
 1293 0627 5D       		popq	%rbp
 1294              		.cfi_def_cfa 7, 8
 1295 0628 C3       		ret
 1296              		.cfi_endproc
 1297              	.LFE1113:
 1298              		.section	.gcc_except_table
 1299              		.align 4
 1300              	.LLSDA1113:
 1301 0084 FF       		.byte	0xff
 1302 0085 9B       		.byte	0x9b
 1303 0086 2D       		.uleb128 .LLSDATT1113-.LLSDATTD1113
 1304              	.LLSDATTD1113:
 1305 0087 01       		.byte	0x1
 1306 0088 20       		.uleb128 .LLSDACSE1113-.LLSDACSB1113
 1307              	.LLSDACSB1113:
 1308 0089 44       		.uleb128 .LEHB21-.LFB1113
 1309 008a 4D       		.uleb128 .LEHE21-.LEHB21
 1310 008b 00       		.uleb128 0
 1311 008c 00       		.uleb128 0
 1312 008d 9101     		.uleb128 .LEHB22-.LFB1113
 1313 008f 28       		.uleb128 .LEHE22-.LEHB22
 1314 0090 E301     		.uleb128 .L51-.LFB1113
 1315 0092 01       		.uleb128 0x1
 1316 0093 C301     		.uleb128 .LEHB23-.LFB1113
 1317 0095 1C       		.uleb128 .LEHE23-.LEHB23
 1318 0096 E101     		.uleb128 .L52-.LFB1113
 1319 0098 03       		.uleb128 0x3
 1320 0099 EB01     		.uleb128 .LEHB24-.LFB1113
 1321 009b 3A       		.uleb128 .LEHE24-.LEHB24
 1322 009c AC02     		.uleb128 .L53-.LFB1113
 1323 009e 00       		.uleb128 0
 1324 009f A502     		.uleb128 .LEHB25-.LFB1113
 1325 00a1 05       		.uleb128 .LEHE25-.LEHB25
 1326 00a2 00       		.uleb128 0
 1327 00a3 00       		.uleb128 0
 1328 00a4 BA02     		.uleb128 .LEHB26-.LFB1113
 1329 00a6 05       		.uleb128 .LEHE26-.LEHB26
 1330 00a7 00       		.uleb128 0
 1331 00a8 00       		.uleb128 0
 1332              	.LLSDACSE1113:
 1333 00a9 01       		.byte	0x1
 1334 00aa 00       		.byte	0
 1335 00ab 00       		.byte	0
 1336 00ac 7D       		.byte	0x7d
 1337 00ad 000000   		.align 4
 1338 00b0 00000000 		.long	0
 1339              	
 1340              	.LLSDATT1113:
 1341              		.text
 1343              		.section	.rodata
 1344              		.align 8
 1345              	.LC11:
 1346 01a0 43686563 		.string	"CheckEqualsWithStringsWorksOnContentsNonConstConst"
 1346      6B457175 
 1346      616C7357 
 1346      69746853 
 1346      7472696E 
 1347              		.text
 1348 0629 90       		.align 2
 1350              	_ZN12_GLOBAL__N_154TestCheckEqualsWithStringsWorksOnContentsNonConstConstC2Ev:
 1351              	.LFB1115:
  46:TestChecks.cpp **** 
  47:TestChecks.cpp **** TEST(CheckEqualsWithStringsWorksOnContentsNonConstConst)
 1352              		.loc 5 47 0
 1353              		.cfi_startproc
 1354 062a 55       		pushq	%rbp
 1355              		.cfi_def_cfa_offset 16
 1356              		.cfi_offset 6, -16
 1357 062b 4889E5   		movq	%rsp, %rbp
 1358              		.cfi_def_cfa_register 6
 1359 062e 53       		pushq	%rbx
 1360 062f 4883EC18 		subq	$24, %rsp
 1361              		.cfi_offset 3, -24
 1362 0633 48897DE8 		movq	%rdi, -24(%rbp)
 1363              	.LBB10:
 1364              		.loc 5 47 0
 1365 0637 488B5DE8 		movq	-24(%rbp), %rbx
 1366 063b E8000000 		call	_ZN13UnitTestSuite12GetSuiteNameEv
 1366      00
 1367 0640 41B82F00 		movl	$47, %r8d
 1367      0000
 1368 0646 488D0D00 		leaq	.LC2(%rip), %rcx
 1368      000000
 1369 064d 4889C2   		movq	%rax, %rdx
 1370 0650 488D3500 		leaq	.LC11(%rip), %rsi
 1370      000000
 1371 0657 4889DF   		movq	%rbx, %rdi
 1372 065a E8000000 		call	_ZN8UnitTest4TestC2EPKcS2_S2_i@PLT
 1372      00
 1373 065f 488D1500 		leaq	16+_ZTVN12_GLOBAL__N_154TestCheckEqualsWithStringsWorksOnContentsNonConstConstE(%rip), %rdx
 1373      000000
 1374 0666 488B45E8 		movq	-24(%rbp), %rax
 1375 066a 488910   		movq	%rdx, (%rax)
 1376              	.LBE10:
 1377 066d 90       		nop
 1378 066e 4883C418 		addq	$24, %rsp
 1379 0672 5B       		popq	%rbx
 1380 0673 5D       		popq	%rbp
 1381              		.cfi_def_cfa 7, 8
 1382 0674 C3       		ret
 1383              		.cfi_endproc
 1384              	.LFE1115:
 1386              		.set	_ZN12_GLOBAL__N_154TestCheckEqualsWithStringsWorksOnContentsNonConstConstC1Ev,_ZN12_GLOBAL__N
 1387              		.local	_ZN12_GLOBAL__N_162testCheckEqualsWithStringsWorksOnContentsNonConstConstInstanceE
 1388              		.comm	_ZN12_GLOBAL__N_162testCheckEqualsWithStringsWorksOnContentsNonConstConstInstanceE,56,32
 1389              		.local	_ZN12_GLOBAL__N_155adderCheckEqualsWithStringsWorksOnContentsNonConstConstE
 1390              		.comm	_ZN12_GLOBAL__N_155adderCheckEqualsWithStringsWorksOnContentsNonConstConstE,1,1
 1391 0675 90       		.align 2
 1393              	_ZNK12_GLOBAL__N_154TestCheckEqualsWithStringsWorksOnContentsNonConstConst7RunImplEv:
 1394              	.LFB1117:
  48:TestChecks.cpp **** {
 1395              		.loc 5 48 0
 1396              		.cfi_startproc
 1397              		.cfi_personality 0x9b,DW.ref.__gxx_personality_v0
 1398              		.cfi_lsda 0x1b,.LLSDA1117
 1399 0676 55       		pushq	%rbp
 1400              		.cfi_def_cfa_offset 16
 1401              		.cfi_offset 6, -16
 1402 0677 4889E5   		movq	%rsp, %rbp
 1403              		.cfi_def_cfa_register 6
 1404 067a 53       		pushq	%rbx
 1405 067b 4881EC88 		subq	$136, %rsp
 1405      000000
 1406              		.cfi_offset 3, -24
 1407 0682 4889BD78 		movq	%rdi, -136(%rbp)
 1407      FFFFFF
 1408              		.loc 5 48 0
 1409 0689 64488B04 		movq	%fs:40, %rax
 1409      25280000 
 1409      00
 1410 0692 488945E8 		movq	%rax, -24(%rbp)
 1411 0696 31C0     		xorl	%eax, %eax
  49:TestChecks.cpp ****     char* const p1 = txt1;
 1412              		.loc 5 49 0
 1413 0698 488D0500 		leaq	_ZN12_GLOBAL__N_14txt1E(%rip), %rax
 1413      000000
 1414 069f 48894590 		movq	%rax, -112(%rbp)
  50:TestChecks.cpp ****     char const* const p2 = txt2;
 1415              		.loc 5 50 0
 1416 06a3 488D0500 		leaq	_ZN12_GLOBAL__N_14txt2E(%rip), %rax
 1416      000000
 1417 06aa 48894598 		movq	%rax, -104(%rbp)
  51:TestChecks.cpp ****     TestResults results;
 1418              		.loc 5 51 0
 1419 06ae 488D45A0 		leaq	-96(%rbp), %rax
 1420 06b2 BE000000 		movl	$0, %esi
 1420      00
 1421 06b7 4889C7   		movq	%rax, %rdi
 1422              	.LEHB27:
 1423 06ba E8000000 		call	_ZN8UnitTest11TestResultsC1EPNS_12TestReporterE@PLT
 1423      00
  52:TestChecks.cpp ****     CheckEqual(results, p1, p2, TestDetails("", "", "", 0));
 1424              		.loc 5 52 0
 1425 06bf 488D45C0 		leaq	-64(%rbp), %rax
 1426 06c3 41B80000 		movl	$0, %r8d
 1426      0000
 1427 06c9 488D0D00 		leaq	.LC6(%rip), %rcx
 1427      000000
 1428 06d0 488D1500 		leaq	.LC6(%rip), %rdx
 1428      000000
 1429 06d7 488D3500 		leaq	.LC6(%rip), %rsi
 1429      000000
 1430 06de 4889C7   		movq	%rax, %rdi
 1431 06e1 E8000000 		call	_ZN8UnitTest11TestDetailsC1EPKcS2_S2_i@PLT
 1431      00
 1432 06e6 488D55C0 		leaq	-64(%rbp), %rdx
 1433 06ea 488D45A0 		leaq	-96(%rbp), %rax
 1434 06ee 4889D1   		movq	%rdx, %rcx
 1435 06f1 488D1500 		leaq	_ZN12_GLOBAL__N_14txt2E(%rip), %rdx
 1435      000000
 1436 06f8 488D3500 		leaq	_ZN12_GLOBAL__N_14txt1E(%rip), %rsi
 1436      000000
 1437 06ff 4889C7   		movq	%rax, %rdi
 1438 0702 E8000000 		call	_ZN8UnitTest10CheckEqualERNS_11TestResultsEPcPKcRKNS_11TestDetailsE@PLT
 1438      00
 1439              	.LEHE27:
 1440              	.LEHB28:
  53:TestChecks.cpp ****     CHECK_EQUAL(0, results.GetFailureCount());
 1441              		.loc 5 53 0
 1442 0707 E8000000 		call	_ZN8UnitTest11CurrentTest7DetailsEv@PLT
 1442      00
 1443 070c 488B08   		movq	(%rax), %rcx
 1444 070f 488D45C0 		leaq	-64(%rbp), %rax
 1445 0713 BA350000 		movl	$53, %edx
 1445      00
 1446 0718 4889CE   		movq	%rcx, %rsi
 1447 071b 4889C7   		movq	%rax, %rdi
 1448 071e E8000000 		call	_ZN8UnitTest11TestDetailsC1ERKS0_i@PLT
 1448      00
 1449              		.loc 5 53 0 is_stmt 0 discriminator 2
 1450 0723 488D45A0 		leaq	-96(%rbp), %rax
 1451 0727 4889C7   		movq	%rax, %rdi
 1452 072a E8000000 		call	_ZNK8UnitTest11TestResults15GetFailureCountEv@PLT
 1452      00
 1453              	.LEHE28:
 1454 072f 89458C   		movl	%eax, -116(%rbp)
 1455 0732 C7458800 		movl	$0, -120(%rbp)
 1455      000000
 1456              	.LEHB29:
 1457 0739 E8000000 		call	_ZN8UnitTest11CurrentTest7ResultsEv@PLT
 1457      00
 1458              		.loc 5 53 0 discriminator 4
 1459 073e 488B00   		movq	(%rax), %rax
 1460 0741 488D4DC0 		leaq	-64(%rbp), %rcx
 1461 0745 488D558C 		leaq	-116(%rbp), %rdx
 1462 0749 488D7588 		leaq	-120(%rbp), %rsi
 1463 074d 4889C7   		movq	%rax, %rdi
 1464 0750 E8000000 		call	_ZN8UnitTest10CheckEqualIiiEEvRNS_11TestResultsERKT_RKT0_RKNS_11TestDetailsE
 1464      00
 1465              	.LEHE29:
  54:TestChecks.cpp **** }
 1466              		.loc 5 54 0 is_stmt 1
 1467 0755 EB5E     		jmp	.L55
 1468              	.L62:
 1469 0757 EB00     		jmp	.L57
 1470              	.L61:
 1471              	.L57:
  53:TestChecks.cpp ****     CHECK_EQUAL(0, results.GetFailureCount());
 1472              		.loc 5 53 0
 1473 0759 4889C7   		movq	%rax, %rdi
 1474 075c E8000000 		call	__cxa_begin_catch@PLT
 1474      00
 1475              	.LEHB30:
 1476 0761 E8000000 		call	_ZN8UnitTest11CurrentTest7ResultsEv@PLT
 1476      00
 1477 0766 488B18   		movq	(%rax), %rbx
 1478 0769 E8000000 		call	_ZN8UnitTest11CurrentTest7DetailsEv@PLT
 1478      00
  53:TestChecks.cpp ****     CHECK_EQUAL(0, results.GetFailureCount());
 1479              		.loc 5 53 0 is_stmt 0 discriminator 10
 1480 076e 488B08   		movq	(%rax), %rcx
 1481 0771 488D45C0 		leaq	-64(%rbp), %rax
 1482 0775 BA350000 		movl	$53, %edx
 1482      00
 1483 077a 4889CE   		movq	%rcx, %rsi
 1484 077d 4889C7   		movq	%rax, %rdi
 1485 0780 E8000000 		call	_ZN8UnitTest11TestDetailsC1ERKS0_i@PLT
 1485      00
  53:TestChecks.cpp ****     CHECK_EQUAL(0, results.GetFailureCount());
 1486              		.loc 5 53 0 discriminator 14
 1487 0785 488D45C0 		leaq	-64(%rbp), %rax
 1488 0789 488D1500 		leaq	.LC9(%rip), %rdx
 1488      000000
 1489 0790 4889C6   		movq	%rax, %rsi
 1490 0793 4889DF   		movq	%rbx, %rdi
 1491 0796 E8000000 		call	_ZN8UnitTest11TestResults13OnTestFailureERKNS_11TestDetailsEPKc@PLT
 1491      00
 1492              	.LEHE30:
 1493              	.LEHB31:
  53:TestChecks.cpp ****     CHECK_EQUAL(0, results.GetFailureCount());
 1494              		.loc 5 53 0 discriminator 16
 1495 079b E8000000 		call	__cxa_end_catch@PLT
 1495      00
 1496              	.LEHE31:
 1497              		.loc 5 54 0 is_stmt 1 discriminator 16
 1498 07a0 EB13     		jmp	.L55
 1499              	.L63:
 1500 07a2 4889C3   		movq	%rax, %rbx
  53:TestChecks.cpp ****     CHECK_EQUAL(0, results.GetFailureCount());
 1501              		.loc 5 53 0
 1502 07a5 E8000000 		call	__cxa_end_catch@PLT
 1502      00
 1503 07aa 4889D8   		movq	%rbx, %rax
 1504 07ad 4889C7   		movq	%rax, %rdi
 1505              	.LEHB32:
 1506 07b0 E8000000 		call	_Unwind_Resume@PLT
 1506      00
 1507              	.LEHE32:
 1508              	.L55:
 1509              		.loc 5 54 0
 1510 07b5 488B45E8 		movq	-24(%rbp), %rax
 1511 07b9 64483304 		xorq	%fs:40, %rax
 1511      25280000 
 1511      00
 1512 07c2 7405     		je	.L60
 1513 07c4 E8000000 		call	__stack_chk_fail@PLT
 1513      00
 1514              	.L60:
 1515 07c9 4881C488 		addq	$136, %rsp
 1515      000000
 1516 07d0 5B       		popq	%rbx
 1517 07d1 5D       		popq	%rbp
 1518              		.cfi_def_cfa 7, 8
 1519 07d2 C3       		ret
 1520              		.cfi_endproc
 1521              	.LFE1117:
 1522              		.section	.gcc_except_table
 1523              		.align 4
 1524              	.LLSDA1117:
 1525 00b4 FF       		.byte	0xff
 1526 00b5 9B       		.byte	0x9b
 1527 00b6 2D       		.uleb128 .LLSDATT1117-.LLSDATTD1117
 1528              	.LLSDATTD1117:
 1529 00b7 01       		.byte	0x1
 1530 00b8 20       		.uleb128 .LLSDACSE1117-.LLSDACSB1117
 1531              	.LLSDACSB1117:
 1532 00b9 44       		.uleb128 .LEHB27-.LFB1117
 1533 00ba 4D       		.uleb128 .LEHE27-.LEHB27
 1534 00bb 00       		.uleb128 0
 1535 00bc 00       		.uleb128 0
 1536 00bd 9101     		.uleb128 .LEHB28-.LFB1117
 1537 00bf 28       		.uleb128 .LEHE28-.LEHB28
 1538 00c0 E301     		.uleb128 .L61-.LFB1117
 1539 00c2 01       		.uleb128 0x1
 1540 00c3 C301     		.uleb128 .LEHB29-.LFB1117
 1541 00c5 1C       		.uleb128 .LEHE29-.LEHB29
 1542 00c6 E101     		.uleb128 .L62-.LFB1117
 1543 00c8 03       		.uleb128 0x3
 1544 00c9 EB01     		.uleb128 .LEHB30-.LFB1117
 1545 00cb 3A       		.uleb128 .LEHE30-.LEHB30
 1546 00cc AC02     		.uleb128 .L63-.LFB1117
 1547 00ce 00       		.uleb128 0
 1548 00cf A502     		.uleb128 .LEHB31-.LFB1117
 1549 00d1 05       		.uleb128 .LEHE31-.LEHB31
 1550 00d2 00       		.uleb128 0
 1551 00d3 00       		.uleb128 0
 1552 00d4 BA02     		.uleb128 .LEHB32-.LFB1117
 1553 00d6 05       		.uleb128 .LEHE32-.LEHB32
 1554 00d7 00       		.uleb128 0
 1555 00d8 00       		.uleb128 0
 1556              	.LLSDACSE1117:
 1557 00d9 01       		.byte	0x1
 1558 00da 00       		.byte	0
 1559 00db 00       		.byte	0
 1560 00dc 7D       		.byte	0x7d
 1561 00dd 000000   		.align 4
 1562 00e0 00000000 		.long	0
 1563              	
 1564              	.LLSDATT1117:
 1565              		.text
 1567              		.section	.rodata
 1568 01d3 00000000 		.align 8
 1568      00
 1569              	.LC12:
 1570 01d8 43686563 		.string	"CheckEqualsWithStringsWorksOnContentsConstNonConst"
 1570      6B457175 
 1570      616C7357 
 1570      69746853 
 1570      7472696E 
 1571              		.text
 1572 07d3 90       		.align 2
 1574              	_ZN12_GLOBAL__N_154TestCheckEqualsWithStringsWorksOnContentsConstNonConstC2Ev:
 1575              	.LFB1119:
  55:TestChecks.cpp **** 
  56:TestChecks.cpp **** TEST(CheckEqualsWithStringsWorksOnContentsConstNonConst)
 1576              		.loc 5 56 0
 1577              		.cfi_startproc
 1578 07d4 55       		pushq	%rbp
 1579              		.cfi_def_cfa_offset 16
 1580              		.cfi_offset 6, -16
 1581 07d5 4889E5   		movq	%rsp, %rbp
 1582              		.cfi_def_cfa_register 6
 1583 07d8 53       		pushq	%rbx
 1584 07d9 4883EC18 		subq	$24, %rsp
 1585              		.cfi_offset 3, -24
 1586 07dd 48897DE8 		movq	%rdi, -24(%rbp)
 1587              	.LBB11:
 1588              		.loc 5 56 0
 1589 07e1 488B5DE8 		movq	-24(%rbp), %rbx
 1590 07e5 E8000000 		call	_ZN13UnitTestSuite12GetSuiteNameEv
 1590      00
 1591 07ea 41B83800 		movl	$56, %r8d
 1591      0000
 1592 07f0 488D0D00 		leaq	.LC2(%rip), %rcx
 1592      000000
 1593 07f7 4889C2   		movq	%rax, %rdx
 1594 07fa 488D3500 		leaq	.LC12(%rip), %rsi
 1594      000000
 1595 0801 4889DF   		movq	%rbx, %rdi
 1596 0804 E8000000 		call	_ZN8UnitTest4TestC2EPKcS2_S2_i@PLT
 1596      00
 1597 0809 488D1500 		leaq	16+_ZTVN12_GLOBAL__N_154TestCheckEqualsWithStringsWorksOnContentsConstNonConstE(%rip), %rdx
 1597      000000
 1598 0810 488B45E8 		movq	-24(%rbp), %rax
 1599 0814 488910   		movq	%rdx, (%rax)
 1600              	.LBE11:
 1601 0817 90       		nop
 1602 0818 4883C418 		addq	$24, %rsp
 1603 081c 5B       		popq	%rbx
 1604 081d 5D       		popq	%rbp
 1605              		.cfi_def_cfa 7, 8
 1606 081e C3       		ret
 1607              		.cfi_endproc
 1608              	.LFE1119:
 1610              		.set	_ZN12_GLOBAL__N_154TestCheckEqualsWithStringsWorksOnContentsConstNonConstC1Ev,_ZN12_GLOBAL__N
 1611              		.local	_ZN12_GLOBAL__N_162testCheckEqualsWithStringsWorksOnContentsConstNonConstInstanceE
 1612              		.comm	_ZN12_GLOBAL__N_162testCheckEqualsWithStringsWorksOnContentsConstNonConstInstanceE,56,32
 1613              		.local	_ZN12_GLOBAL__N_155adderCheckEqualsWithStringsWorksOnContentsConstNonConstE
 1614              		.comm	_ZN12_GLOBAL__N_155adderCheckEqualsWithStringsWorksOnContentsConstNonConstE,1,1
 1615 081f 90       		.align 2
 1617              	_ZNK12_GLOBAL__N_154TestCheckEqualsWithStringsWorksOnContentsConstNonConst7RunImplEv:
 1618              	.LFB1121:
  57:TestChecks.cpp **** {
 1619              		.loc 5 57 0
 1620              		.cfi_startproc
 1621              		.cfi_personality 0x9b,DW.ref.__gxx_personality_v0
 1622              		.cfi_lsda 0x1b,.LLSDA1121
 1623 0820 55       		pushq	%rbp
 1624              		.cfi_def_cfa_offset 16
 1625              		.cfi_offset 6, -16
 1626 0821 4889E5   		movq	%rsp, %rbp
 1627              		.cfi_def_cfa_register 6
 1628 0824 53       		pushq	%rbx
 1629 0825 4881EC88 		subq	$136, %rsp
 1629      000000
 1630              		.cfi_offset 3, -24
 1631 082c 4889BD78 		movq	%rdi, -136(%rbp)
 1631      FFFFFF
 1632              		.loc 5 57 0
 1633 0833 64488B04 		movq	%fs:40, %rax
 1633      25280000 
 1633      00
 1634 083c 488945E8 		movq	%rax, -24(%rbp)
 1635 0840 31C0     		xorl	%eax, %eax
  58:TestChecks.cpp ****     char const* const p1 = txt1;
 1636              		.loc 5 58 0
 1637 0842 488D0500 		leaq	_ZN12_GLOBAL__N_14txt1E(%rip), %rax
 1637      000000
 1638 0849 48894590 		movq	%rax, -112(%rbp)
  59:TestChecks.cpp ****     char* const p2 = txt2;
 1639              		.loc 5 59 0
 1640 084d 488D0500 		leaq	_ZN12_GLOBAL__N_14txt2E(%rip), %rax
 1640      000000
 1641 0854 48894598 		movq	%rax, -104(%rbp)
  60:TestChecks.cpp ****     TestResults results;
 1642              		.loc 5 60 0
 1643 0858 488D45A0 		leaq	-96(%rbp), %rax
 1644 085c BE000000 		movl	$0, %esi
 1644      00
 1645 0861 4889C7   		movq	%rax, %rdi
 1646              	.LEHB33:
 1647 0864 E8000000 		call	_ZN8UnitTest11TestResultsC1EPNS_12TestReporterE@PLT
 1647      00
  61:TestChecks.cpp ****     CheckEqual(results, p1, p2, TestDetails("", "", "", 0));
 1648              		.loc 5 61 0
 1649 0869 488D45C0 		leaq	-64(%rbp), %rax
 1650 086d 41B80000 		movl	$0, %r8d
 1650      0000
 1651 0873 488D0D00 		leaq	.LC6(%rip), %rcx
 1651      000000
 1652 087a 488D1500 		leaq	.LC6(%rip), %rdx
 1652      000000
 1653 0881 488D3500 		leaq	.LC6(%rip), %rsi
 1653      000000
 1654 0888 4889C7   		movq	%rax, %rdi
 1655 088b E8000000 		call	_ZN8UnitTest11TestDetailsC1EPKcS2_S2_i@PLT
 1655      00
 1656 0890 488D55C0 		leaq	-64(%rbp), %rdx
 1657 0894 488D45A0 		leaq	-96(%rbp), %rax
 1658 0898 4889D1   		movq	%rdx, %rcx
 1659 089b 488D1500 		leaq	_ZN12_GLOBAL__N_14txt2E(%rip), %rdx
 1659      000000
 1660 08a2 488D3500 		leaq	_ZN12_GLOBAL__N_14txt1E(%rip), %rsi
 1660      000000
 1661 08a9 4889C7   		movq	%rax, %rdi
 1662 08ac E8000000 		call	_ZN8UnitTest10CheckEqualERNS_11TestResultsEPKcPcRKNS_11TestDetailsE@PLT
 1662      00
 1663              	.LEHE33:
 1664              	.LEHB34:
  62:TestChecks.cpp ****     CHECK_EQUAL(0, results.GetFailureCount());
 1665              		.loc 5 62 0
 1666 08b1 E8000000 		call	_ZN8UnitTest11CurrentTest7DetailsEv@PLT
 1666      00
 1667 08b6 488B08   		movq	(%rax), %rcx
 1668 08b9 488D45C0 		leaq	-64(%rbp), %rax
 1669 08bd BA3E0000 		movl	$62, %edx
 1669      00
 1670 08c2 4889CE   		movq	%rcx, %rsi
 1671 08c5 4889C7   		movq	%rax, %rdi
 1672 08c8 E8000000 		call	_ZN8UnitTest11TestDetailsC1ERKS0_i@PLT
 1672      00
 1673              		.loc 5 62 0 is_stmt 0 discriminator 2
 1674 08cd 488D45A0 		leaq	-96(%rbp), %rax
 1675 08d1 4889C7   		movq	%rax, %rdi
 1676 08d4 E8000000 		call	_ZNK8UnitTest11TestResults15GetFailureCountEv@PLT
 1676      00
 1677              	.LEHE34:
 1678 08d9 89458C   		movl	%eax, -116(%rbp)
 1679 08dc C7458800 		movl	$0, -120(%rbp)
 1679      000000
 1680              	.LEHB35:
 1681 08e3 E8000000 		call	_ZN8UnitTest11CurrentTest7ResultsEv@PLT
 1681      00
 1682              		.loc 5 62 0 discriminator 4
 1683 08e8 488B00   		movq	(%rax), %rax
 1684 08eb 488D4DC0 		leaq	-64(%rbp), %rcx
 1685 08ef 488D558C 		leaq	-116(%rbp), %rdx
 1686 08f3 488D7588 		leaq	-120(%rbp), %rsi
 1687 08f7 4889C7   		movq	%rax, %rdi
 1688 08fa E8000000 		call	_ZN8UnitTest10CheckEqualIiiEEvRNS_11TestResultsERKT_RKT0_RKNS_11TestDetailsE
 1688      00
 1689              	.LEHE35:
  63:TestChecks.cpp **** }
 1690              		.loc 5 63 0 is_stmt 1
 1691 08ff EB5E     		jmp	.L65
 1692              	.L72:
 1693 0901 EB00     		jmp	.L67
 1694              	.L71:
 1695              	.L67:
  62:TestChecks.cpp ****     CHECK_EQUAL(0, results.GetFailureCount());
 1696              		.loc 5 62 0
 1697 0903 4889C7   		movq	%rax, %rdi
 1698 0906 E8000000 		call	__cxa_begin_catch@PLT
 1698      00
 1699              	.LEHB36:
 1700 090b E8000000 		call	_ZN8UnitTest11CurrentTest7ResultsEv@PLT
 1700      00
 1701 0910 488B18   		movq	(%rax), %rbx
 1702 0913 E8000000 		call	_ZN8UnitTest11CurrentTest7DetailsEv@PLT
 1702      00
  62:TestChecks.cpp ****     CHECK_EQUAL(0, results.GetFailureCount());
 1703              		.loc 5 62 0 is_stmt 0 discriminator 10
 1704 0918 488B08   		movq	(%rax), %rcx
 1705 091b 488D45C0 		leaq	-64(%rbp), %rax
 1706 091f BA3E0000 		movl	$62, %edx
 1706      00
 1707 0924 4889CE   		movq	%rcx, %rsi
 1708 0927 4889C7   		movq	%rax, %rdi
 1709 092a E8000000 		call	_ZN8UnitTest11TestDetailsC1ERKS0_i@PLT
 1709      00
  62:TestChecks.cpp ****     CHECK_EQUAL(0, results.GetFailureCount());
 1710              		.loc 5 62 0 discriminator 14
 1711 092f 488D45C0 		leaq	-64(%rbp), %rax
 1712 0933 488D1500 		leaq	.LC9(%rip), %rdx
 1712      000000
 1713 093a 4889C6   		movq	%rax, %rsi
 1714 093d 4889DF   		movq	%rbx, %rdi
 1715 0940 E8000000 		call	_ZN8UnitTest11TestResults13OnTestFailureERKNS_11TestDetailsEPKc@PLT
 1715      00
 1716              	.LEHE36:
 1717              	.LEHB37:
  62:TestChecks.cpp ****     CHECK_EQUAL(0, results.GetFailureCount());
 1718              		.loc 5 62 0 discriminator 16
 1719 0945 E8000000 		call	__cxa_end_catch@PLT
 1719      00
 1720              	.LEHE37:
 1721              		.loc 5 63 0 is_stmt 1 discriminator 16
 1722 094a EB13     		jmp	.L65
 1723              	.L73:
 1724 094c 4889C3   		movq	%rax, %rbx
  62:TestChecks.cpp ****     CHECK_EQUAL(0, results.GetFailureCount());
 1725              		.loc 5 62 0
 1726 094f E8000000 		call	__cxa_end_catch@PLT
 1726      00
 1727 0954 4889D8   		movq	%rbx, %rax
 1728 0957 4889C7   		movq	%rax, %rdi
 1729              	.LEHB38:
 1730 095a E8000000 		call	_Unwind_Resume@PLT
 1730      00
 1731              	.LEHE38:
 1732              	.L65:
 1733              		.loc 5 63 0
 1734 095f 488B45E8 		movq	-24(%rbp), %rax
 1735 0963 64483304 		xorq	%fs:40, %rax
 1735      25280000 
 1735      00
 1736 096c 7405     		je	.L70
 1737 096e E8000000 		call	__stack_chk_fail@PLT
 1737      00
 1738              	.L70:
 1739 0973 4881C488 		addq	$136, %rsp
 1739      000000
 1740 097a 5B       		popq	%rbx
 1741 097b 5D       		popq	%rbp
 1742              		.cfi_def_cfa 7, 8
 1743 097c C3       		ret
 1744              		.cfi_endproc
 1745              	.LFE1121:
 1746              		.section	.gcc_except_table
 1747              		.align 4
 1748              	.LLSDA1121:
 1749 00e4 FF       		.byte	0xff
 1750 00e5 9B       		.byte	0x9b
 1751 00e6 2D       		.uleb128 .LLSDATT1121-.LLSDATTD1121
 1752              	.LLSDATTD1121:
 1753 00e7 01       		.byte	0x1
 1754 00e8 20       		.uleb128 .LLSDACSE1121-.LLSDACSB1121
 1755              	.LLSDACSB1121:
 1756 00e9 44       		.uleb128 .LEHB33-.LFB1121
 1757 00ea 4D       		.uleb128 .LEHE33-.LEHB33
 1758 00eb 00       		.uleb128 0
 1759 00ec 00       		.uleb128 0
 1760 00ed 9101     		.uleb128 .LEHB34-.LFB1121
 1761 00ef 28       		.uleb128 .LEHE34-.LEHB34
 1762 00f0 E301     		.uleb128 .L71-.LFB1121
 1763 00f2 01       		.uleb128 0x1
 1764 00f3 C301     		.uleb128 .LEHB35-.LFB1121
 1765 00f5 1C       		.uleb128 .LEHE35-.LEHB35
 1766 00f6 E101     		.uleb128 .L72-.LFB1121
 1767 00f8 03       		.uleb128 0x3
 1768 00f9 EB01     		.uleb128 .LEHB36-.LFB1121
 1769 00fb 3A       		.uleb128 .LEHE36-.LEHB36
 1770 00fc AC02     		.uleb128 .L73-.LFB1121
 1771 00fe 00       		.uleb128 0
 1772 00ff A502     		.uleb128 .LEHB37-.LFB1121
 1773 0101 05       		.uleb128 .LEHE37-.LEHB37
 1774 0102 00       		.uleb128 0
 1775 0103 00       		.uleb128 0
 1776 0104 BA02     		.uleb128 .LEHB38-.LFB1121
 1777 0106 05       		.uleb128 .LEHE38-.LEHB38
 1778 0107 00       		.uleb128 0
 1779 0108 00       		.uleb128 0
 1780              	.LLSDACSE1121:
 1781 0109 01       		.byte	0x1
 1782 010a 00       		.byte	0
 1783 010b 00       		.byte	0
 1784 010c 7D       		.byte	0x7d
 1785 010d 000000   		.align 4
 1786 0110 00000000 		.long	0
 1787              	
 1788              	.LLSDATT1121:
 1789              		.text
 1791              		.section	.rodata
 1792 020b 00000000 		.align 8
 1792      00
 1793              	.LC13:
 1794 0210 43686563 		.string	"CheckEqualsWithStringsWorksOnContentsWithALiteral"
 1794      6B457175 
 1794      616C7357 
 1794      69746853 
 1794      7472696E 
 1795              		.text
 1796 097d 90       		.align 2
 1798              	_ZN12_GLOBAL__N_153TestCheckEqualsWithStringsWorksOnContentsWithALiteralC2Ev:
 1799              	.LFB1123:
  64:TestChecks.cpp **** 
  65:TestChecks.cpp **** TEST(CheckEqualsWithStringsWorksOnContentsWithALiteral)
 1800              		.loc 5 65 0
 1801              		.cfi_startproc
 1802 097e 55       		pushq	%rbp
 1803              		.cfi_def_cfa_offset 16
 1804              		.cfi_offset 6, -16
 1805 097f 4889E5   		movq	%rsp, %rbp
 1806              		.cfi_def_cfa_register 6
 1807 0982 53       		pushq	%rbx
 1808 0983 4883EC18 		subq	$24, %rsp
 1809              		.cfi_offset 3, -24
 1810 0987 48897DE8 		movq	%rdi, -24(%rbp)
 1811              	.LBB12:
 1812              		.loc 5 65 0
 1813 098b 488B5DE8 		movq	-24(%rbp), %rbx
 1814 098f E8000000 		call	_ZN13UnitTestSuite12GetSuiteNameEv
 1814      00
 1815 0994 41B84100 		movl	$65, %r8d
 1815      0000
 1816 099a 488D0D00 		leaq	.LC2(%rip), %rcx
 1816      000000
 1817 09a1 4889C2   		movq	%rax, %rdx
 1818 09a4 488D3500 		leaq	.LC13(%rip), %rsi
 1818      000000
 1819 09ab 4889DF   		movq	%rbx, %rdi
 1820 09ae E8000000 		call	_ZN8UnitTest4TestC2EPKcS2_S2_i@PLT
 1820      00
 1821 09b3 488D1500 		leaq	16+_ZTVN12_GLOBAL__N_153TestCheckEqualsWithStringsWorksOnContentsWithALiteralE(%rip), %rdx
 1821      000000
 1822 09ba 488B45E8 		movq	-24(%rbp), %rax
 1823 09be 488910   		movq	%rdx, (%rax)
 1824              	.LBE12:
 1825 09c1 90       		nop
 1826 09c2 4883C418 		addq	$24, %rsp
 1827 09c6 5B       		popq	%rbx
 1828 09c7 5D       		popq	%rbp
 1829              		.cfi_def_cfa 7, 8
 1830 09c8 C3       		ret
 1831              		.cfi_endproc
 1832              	.LFE1123:
 1834              		.set	_ZN12_GLOBAL__N_153TestCheckEqualsWithStringsWorksOnContentsWithALiteralC1Ev,_ZN12_GLOBAL__N_
 1835              		.local	_ZN12_GLOBAL__N_161testCheckEqualsWithStringsWorksOnContentsWithALiteralInstanceE
 1836              		.comm	_ZN12_GLOBAL__N_161testCheckEqualsWithStringsWorksOnContentsWithALiteralInstanceE,56,32
 1837              		.local	_ZN12_GLOBAL__N_154adderCheckEqualsWithStringsWorksOnContentsWithALiteralE
 1838              		.comm	_ZN12_GLOBAL__N_154adderCheckEqualsWithStringsWorksOnContentsWithALiteralE,1,1
 1839              		.section	.rodata
 1840              	.LC14:
 1841 0242 48656C6C 		.string	"Hello"
 1841      6F00
 1842              		.text
 1843 09c9 90       		.align 2
 1845              	_ZNK12_GLOBAL__N_153TestCheckEqualsWithStringsWorksOnContentsWithALiteral7RunImplEv:
 1846              	.LFB1125:
  66:TestChecks.cpp **** {
 1847              		.loc 5 66 0
 1848              		.cfi_startproc
 1849              		.cfi_personality 0x9b,DW.ref.__gxx_personality_v0
 1850              		.cfi_lsda 0x1b,.LLSDA1125
 1851 09ca 55       		pushq	%rbp
 1852              		.cfi_def_cfa_offset 16
 1853              		.cfi_offset 6, -16
 1854 09cb 4889E5   		movq	%rsp, %rbp
 1855              		.cfi_def_cfa_register 6
 1856 09ce 53       		pushq	%rbx
 1857 09cf 4883EC78 		subq	$120, %rsp
 1858              		.cfi_offset 3, -24
 1859 09d3 48897D88 		movq	%rdi, -120(%rbp)
 1860              		.loc 5 66 0
 1861 09d7 64488B04 		movq	%fs:40, %rax
 1861      25280000 
 1861      00
 1862 09e0 488945E8 		movq	%rax, -24(%rbp)
 1863 09e4 31C0     		xorl	%eax, %eax
  67:TestChecks.cpp ****     char const* const p1 = txt1;
 1864              		.loc 5 67 0
 1865 09e6 488D0500 		leaq	_ZN12_GLOBAL__N_14txt1E(%rip), %rax
 1865      000000
 1866 09ed 48894598 		movq	%rax, -104(%rbp)
  68:TestChecks.cpp ****     TestResults results;
 1867              		.loc 5 68 0
 1868 09f1 488D45A0 		leaq	-96(%rbp), %rax
 1869 09f5 BE000000 		movl	$0, %esi
 1869      00
 1870 09fa 4889C7   		movq	%rax, %rdi
 1871              	.LEHB39:
 1872 09fd E8000000 		call	_ZN8UnitTest11TestResultsC1EPNS_12TestReporterE@PLT
 1872      00
  69:TestChecks.cpp ****     CheckEqual(results, "Hello", p1, TestDetails("", "", "", 0));
 1873              		.loc 5 69 0
 1874 0a02 488D45C0 		leaq	-64(%rbp), %rax
 1875 0a06 41B80000 		movl	$0, %r8d
 1875      0000
 1876 0a0c 488D0D00 		leaq	.LC6(%rip), %rcx
 1876      000000
 1877 0a13 488D1500 		leaq	.LC6(%rip), %rdx
 1877      000000
 1878 0a1a 488D3500 		leaq	.LC6(%rip), %rsi
 1878      000000
 1879 0a21 4889C7   		movq	%rax, %rdi
 1880 0a24 E8000000 		call	_ZN8UnitTest11TestDetailsC1EPKcS2_S2_i@PLT
 1880      00
 1881 0a29 488D55C0 		leaq	-64(%rbp), %rdx
 1882 0a2d 488D45A0 		leaq	-96(%rbp), %rax
 1883 0a31 4889D1   		movq	%rdx, %rcx
 1884 0a34 488D1500 		leaq	_ZN12_GLOBAL__N_14txt1E(%rip), %rdx
 1884      000000
 1885 0a3b 488D3500 		leaq	.LC14(%rip), %rsi
 1885      000000
 1886 0a42 4889C7   		movq	%rax, %rdi
 1887 0a45 E8000000 		call	_ZN8UnitTest10CheckEqualERNS_11TestResultsEPKcS3_RKNS_11TestDetailsE@PLT
 1887      00
 1888              	.LEHE39:
 1889              	.LEHB40:
  70:TestChecks.cpp ****     CHECK_EQUAL(0, results.GetFailureCount());
 1890              		.loc 5 70 0
 1891 0a4a E8000000 		call	_ZN8UnitTest11CurrentTest7DetailsEv@PLT
 1891      00
 1892 0a4f 488B08   		movq	(%rax), %rcx
 1893 0a52 488D45C0 		leaq	-64(%rbp), %rax
 1894 0a56 BA460000 		movl	$70, %edx
 1894      00
 1895 0a5b 4889CE   		movq	%rcx, %rsi
 1896 0a5e 4889C7   		movq	%rax, %rdi
 1897 0a61 E8000000 		call	_ZN8UnitTest11TestDetailsC1ERKS0_i@PLT
 1897      00
 1898              		.loc 5 70 0 is_stmt 0 discriminator 2
 1899 0a66 488D45A0 		leaq	-96(%rbp), %rax
 1900 0a6a 4889C7   		movq	%rax, %rdi
 1901 0a6d E8000000 		call	_ZNK8UnitTest11TestResults15GetFailureCountEv@PLT
 1901      00
 1902              	.LEHE40:
 1903 0a72 894594   		movl	%eax, -108(%rbp)
 1904 0a75 C7459000 		movl	$0, -112(%rbp)
 1904      000000
 1905              	.LEHB41:
 1906 0a7c E8000000 		call	_ZN8UnitTest11CurrentTest7ResultsEv@PLT
 1906      00
 1907              		.loc 5 70 0 discriminator 4
 1908 0a81 488B00   		movq	(%rax), %rax
 1909 0a84 488D4DC0 		leaq	-64(%rbp), %rcx
 1910 0a88 488D5594 		leaq	-108(%rbp), %rdx
 1911 0a8c 488D7590 		leaq	-112(%rbp), %rsi
 1912 0a90 4889C7   		movq	%rax, %rdi
 1913 0a93 E8000000 		call	_ZN8UnitTest10CheckEqualIiiEEvRNS_11TestResultsERKT_RKT0_RKNS_11TestDetailsE
 1913      00
 1914              	.LEHE41:
  71:TestChecks.cpp **** }
 1915              		.loc 5 71 0 is_stmt 1
 1916 0a98 EB5E     		jmp	.L75
 1917              	.L82:
 1918 0a9a EB00     		jmp	.L77
 1919              	.L81:
 1920              	.L77:
  70:TestChecks.cpp ****     CHECK_EQUAL(0, results.GetFailureCount());
 1921              		.loc 5 70 0
 1922 0a9c 4889C7   		movq	%rax, %rdi
 1923 0a9f E8000000 		call	__cxa_begin_catch@PLT
 1923      00
 1924              	.LEHB42:
 1925 0aa4 E8000000 		call	_ZN8UnitTest11CurrentTest7ResultsEv@PLT
 1925      00
 1926 0aa9 488B18   		movq	(%rax), %rbx
 1927 0aac E8000000 		call	_ZN8UnitTest11CurrentTest7DetailsEv@PLT
 1927      00
  70:TestChecks.cpp ****     CHECK_EQUAL(0, results.GetFailureCount());
 1928              		.loc 5 70 0 is_stmt 0 discriminator 10
 1929 0ab1 488B08   		movq	(%rax), %rcx
 1930 0ab4 488D45C0 		leaq	-64(%rbp), %rax
 1931 0ab8 BA460000 		movl	$70, %edx
 1931      00
 1932 0abd 4889CE   		movq	%rcx, %rsi
 1933 0ac0 4889C7   		movq	%rax, %rdi
 1934 0ac3 E8000000 		call	_ZN8UnitTest11TestDetailsC1ERKS0_i@PLT
 1934      00
  70:TestChecks.cpp ****     CHECK_EQUAL(0, results.GetFailureCount());
 1935              		.loc 5 70 0 discriminator 14
 1936 0ac8 488D45C0 		leaq	-64(%rbp), %rax
 1937 0acc 488D1500 		leaq	.LC9(%rip), %rdx
 1937      000000
 1938 0ad3 4889C6   		movq	%rax, %rsi
 1939 0ad6 4889DF   		movq	%rbx, %rdi
 1940 0ad9 E8000000 		call	_ZN8UnitTest11TestResults13OnTestFailureERKNS_11TestDetailsEPKc@PLT
 1940      00
 1941              	.LEHE42:
 1942              	.LEHB43:
  70:TestChecks.cpp ****     CHECK_EQUAL(0, results.GetFailureCount());
 1943              		.loc 5 70 0 discriminator 16
 1944 0ade E8000000 		call	__cxa_end_catch@PLT
 1944      00
 1945              	.LEHE43:
 1946              		.loc 5 71 0 is_stmt 1 discriminator 16
 1947 0ae3 EB13     		jmp	.L75
 1948              	.L83:
 1949 0ae5 4889C3   		movq	%rax, %rbx
  70:TestChecks.cpp ****     CHECK_EQUAL(0, results.GetFailureCount());
 1950              		.loc 5 70 0
 1951 0ae8 E8000000 		call	__cxa_end_catch@PLT
 1951      00
 1952 0aed 4889D8   		movq	%rbx, %rax
 1953 0af0 4889C7   		movq	%rax, %rdi
 1954              	.LEHB44:
 1955 0af3 E8000000 		call	_Unwind_Resume@PLT
 1955      00
 1956              	.LEHE44:
 1957              	.L75:
 1958              		.loc 5 71 0
 1959 0af8 488B45E8 		movq	-24(%rbp), %rax
 1960 0afc 64483304 		xorq	%fs:40, %rax
 1960      25280000 
 1960      00
 1961 0b05 7405     		je	.L80
 1962 0b07 E8000000 		call	__stack_chk_fail@PLT
 1962      00
 1963              	.L80:
 1964 0b0c 4883C478 		addq	$120, %rsp
 1965 0b10 5B       		popq	%rbx
 1966 0b11 5D       		popq	%rbp
 1967              		.cfi_def_cfa 7, 8
 1968 0b12 C3       		ret
 1969              		.cfi_endproc
 1970              	.LFE1125:
 1971              		.section	.gcc_except_table
 1972              		.align 4
 1973              	.LLSDA1125:
 1974 0114 FF       		.byte	0xff
 1975 0115 9B       		.byte	0x9b
 1976 0116 2D       		.uleb128 .LLSDATT1125-.LLSDATTD1125
 1977              	.LLSDATTD1125:
 1978 0117 01       		.byte	0x1
 1979 0118 20       		.uleb128 .LLSDACSE1125-.LLSDACSB1125
 1980              	.LLSDACSB1125:
 1981 0119 33       		.uleb128 .LEHB39-.LFB1125
 1982 011a 4D       		.uleb128 .LEHE39-.LEHB39
 1983 011b 00       		.uleb128 0
 1984 011c 00       		.uleb128 0
 1985 011d 8001     		.uleb128 .LEHB40-.LFB1125
 1986 011f 28       		.uleb128 .LEHE40-.LEHB40
 1987 0120 D201     		.uleb128 .L81-.LFB1125
 1988 0122 01       		.uleb128 0x1
 1989 0123 B201     		.uleb128 .LEHB41-.LFB1125
 1990 0125 1C       		.uleb128 .LEHE41-.LEHB41
 1991 0126 D001     		.uleb128 .L82-.LFB1125
 1992 0128 03       		.uleb128 0x3
 1993 0129 DA01     		.uleb128 .LEHB42-.LFB1125
 1994 012b 3A       		.uleb128 .LEHE42-.LEHB42
 1995 012c 9B02     		.uleb128 .L83-.LFB1125
 1996 012e 00       		.uleb128 0
 1997 012f 9402     		.uleb128 .LEHB43-.LFB1125
 1998 0131 05       		.uleb128 .LEHE43-.LEHB43
 1999 0132 00       		.uleb128 0
 2000 0133 00       		.uleb128 0
 2001 0134 A902     		.uleb128 .LEHB44-.LFB1125
 2002 0136 05       		.uleb128 .LEHE44-.LEHB44
 2003 0137 00       		.uleb128 0
 2004 0138 00       		.uleb128 0
 2005              	.LLSDACSE1125:
 2006 0139 01       		.byte	0x1
 2007 013a 00       		.byte	0
 2008 013b 00       		.byte	0
 2009 013c 7D       		.byte	0x7d
 2010 013d 000000   		.align 4
 2011 0140 00000000 		.long	0
 2012              	
 2013              	.LLSDATT1125:
 2014              		.text
 2016              		.section	.rodata
 2017              		.align 8
 2018              	.LC15:
 2019 0248 43686563 		.string	"CheckEqualFailureIncludesCheckExpectedAndActual"
 2019      6B457175 
 2019      616C4661 
 2019      696C7572 
 2019      65496E63 
 2020              		.text
 2021 0b13 90       		.align 2
 2023              	_ZN12_GLOBAL__N_151TestCheckEqualFailureIncludesCheckExpectedAndActualC2Ev:
 2024              	.LFB1127:
  72:TestChecks.cpp **** 
  73:TestChecks.cpp **** TEST(CheckEqualFailureIncludesCheckExpectedAndActual)
 2025              		.loc 5 73 0
 2026              		.cfi_startproc
 2027 0b14 55       		pushq	%rbp
 2028              		.cfi_def_cfa_offset 16
 2029              		.cfi_offset 6, -16
 2030 0b15 4889E5   		movq	%rsp, %rbp
 2031              		.cfi_def_cfa_register 6
 2032 0b18 53       		pushq	%rbx
 2033 0b19 4883EC18 		subq	$24, %rsp
 2034              		.cfi_offset 3, -24
 2035 0b1d 48897DE8 		movq	%rdi, -24(%rbp)
 2036              	.LBB13:
 2037              		.loc 5 73 0
 2038 0b21 488B5DE8 		movq	-24(%rbp), %rbx
 2039 0b25 E8000000 		call	_ZN13UnitTestSuite12GetSuiteNameEv
 2039      00
 2040 0b2a 41B84900 		movl	$73, %r8d
 2040      0000
 2041 0b30 488D0D00 		leaq	.LC2(%rip), %rcx
 2041      000000
 2042 0b37 4889C2   		movq	%rax, %rdx
 2043 0b3a 488D3500 		leaq	.LC15(%rip), %rsi
 2043      000000
 2044 0b41 4889DF   		movq	%rbx, %rdi
 2045 0b44 E8000000 		call	_ZN8UnitTest4TestC2EPKcS2_S2_i@PLT
 2045      00
 2046 0b49 488D1500 		leaq	16+_ZTVN12_GLOBAL__N_151TestCheckEqualFailureIncludesCheckExpectedAndActualE(%rip), %rdx
 2046      000000
 2047 0b50 488B45E8 		movq	-24(%rbp), %rax
 2048 0b54 488910   		movq	%rdx, (%rax)
 2049              	.LBE13:
 2050 0b57 90       		nop
 2051 0b58 4883C418 		addq	$24, %rsp
 2052 0b5c 5B       		popq	%rbx
 2053 0b5d 5D       		popq	%rbp
 2054              		.cfi_def_cfa 7, 8
 2055 0b5e C3       		ret
 2056              		.cfi_endproc
 2057              	.LFE1127:
 2059              		.set	_ZN12_GLOBAL__N_151TestCheckEqualFailureIncludesCheckExpectedAndActualC1Ev,_ZN12_GLOBAL__N_15
 2060              		.local	_ZN12_GLOBAL__N_159testCheckEqualFailureIncludesCheckExpectedAndActualInstanceE
 2061              		.comm	_ZN12_GLOBAL__N_159testCheckEqualFailureIncludesCheckExpectedAndActualInstanceE,56,32
 2062              		.local	_ZN12_GLOBAL__N_152adderCheckEqualFailureIncludesCheckExpectedAndActualE
 2063              		.comm	_ZN12_GLOBAL__N_152adderCheckEqualFailureIncludesCheckExpectedAndActualE,1,1
 2064              		.section	.rodata
 2065              	.LC16:
 2066 0278 78706563 		.string	"xpected 1"
 2066      74656420 
 2066      3100
 2067 0282 00000000 		.align 8
 2067      0000
 2068              	.LC17:
 2069 0288 73747273 		.string	"strstr(reporter.lastFailedMessage, \"xpected 1\")"
 2069      74722872 
 2069      65706F72 
 2069      7465722E 
 2069      6C617374 
 2070              	.LC18:
 2071 02b8 77617320 		.string	"was 2"
 2071      3200
 2072 02be 0000     		.align 8
 2073              	.LC19:
 2074 02c0 73747273 		.string	"strstr(reporter.lastFailedMessage, \"was 2\")"
 2074      74722872 
 2074      65706F72 
 2074      7465722E 
 2074      6C617374 
 2075 02ec 00000000 		.align 8
 2076              	.LC20:
 2077 02f0 556E6861 		.string	"Unhandled exception in CHECK(strstr(reporter.lastFailedMessage, \"xpected 1\"))"
 2077      6E646C65 
 2077      64206578 
 2077      63657074 
 2077      696F6E20 
 2078 033e 0000     		.align 8
 2079              	.LC21:
 2080 0340 556E6861 		.string	"Unhandled exception in CHECK(strstr(reporter.lastFailedMessage, \"was 2\"))"
 2080      6E646C65 
 2080      64206578 
 2080      63657074 
 2080      696F6E20 
 2081              		.text
 2082 0b5f 90       		.align 2
 2084              	_ZNK12_GLOBAL__N_151TestCheckEqualFailureIncludesCheckExpectedAndActual7RunImplEv:
 2085              	.LFB1129:
  74:TestChecks.cpp **** {
 2086              		.loc 5 74 0
 2087              		.cfi_startproc
 2088              		.cfi_personality 0x9b,DW.ref.__gxx_personality_v0
 2089              		.cfi_lsda 0x1b,.LLSDA1129
 2090 0b60 55       		pushq	%rbp
 2091              		.cfi_def_cfa_offset 16
 2092              		.cfi_offset 6, -16
 2093 0b61 4889E5   		movq	%rsp, %rbp
 2094              		.cfi_def_cfa_register 6
 2095 0b64 53       		pushq	%rbx
 2096 0b65 4881ECA8 		subq	$2216, %rsp
 2096      080000
 2097              		.cfi_offset 3, -24
 2098 0b6c 4889BD58 		movq	%rdi, -2216(%rbp)
 2098      F7FFFF
 2099              		.loc 5 74 0
 2100 0b73 64488B04 		movq	%fs:40, %rax
 2100      25280000 
 2100      00
 2101 0b7c 488945E8 		movq	%rax, -24(%rbp)
 2102 0b80 31C0     		xorl	%eax, %eax
  75:TestChecks.cpp ****     RecordingReporter reporter;
 2103              		.loc 5 75 0
 2104 0b82 488D85B0 		leaq	-2128(%rbp), %rax
 2104      F7FFFF
 2105 0b89 4889C7   		movq	%rax, %rdi
 2106 0b8c E8000000 		call	_ZN17RecordingReporterC1Ev
 2106      00
  76:TestChecks.cpp ****     TestResults results(&reporter);
 2107              		.loc 5 76 0
 2108 0b91 488D95B0 		leaq	-2128(%rbp), %rdx
 2108      F7FFFF
 2109 0b98 488D8570 		leaq	-2192(%rbp), %rax
 2109      F7FFFF
 2110 0b9f 4889D6   		movq	%rdx, %rsi
 2111 0ba2 4889C7   		movq	%rax, %rdi
 2112              	.LEHB45:
 2113 0ba5 E8000000 		call	_ZN8UnitTest11TestResultsC1EPNS_12TestReporterE@PLT
 2113      00
  77:TestChecks.cpp ****     const int something = 2;
 2114              		.loc 5 77 0
 2115 0baa C78568F7 		movl	$2, -2200(%rbp)
 2115      FFFF0200 
 2115      0000
  78:TestChecks.cpp ****     CheckEqual(results, 1, something, TestDetails("", "", "", 0));
 2116              		.loc 5 78 0
 2117 0bb4 488D8590 		leaq	-2160(%rbp), %rax
 2117      F7FFFF
 2118 0bbb 41B80000 		movl	$0, %r8d
 2118      0000
 2119 0bc1 488D0D00 		leaq	.LC6(%rip), %rcx
 2119      000000
 2120 0bc8 488D1500 		leaq	.LC6(%rip), %rdx
 2120      000000
 2121 0bcf 488D3500 		leaq	.LC6(%rip), %rsi
 2121      000000
 2122 0bd6 4889C7   		movq	%rax, %rdi
 2123 0bd9 E8000000 		call	_ZN8UnitTest11TestDetailsC1EPKcS2_S2_i@PLT
 2123      00
 2124              		.loc 5 78 0 is_stmt 0 discriminator 1
 2125 0bde C7856CF7 		movl	$1, -2196(%rbp)
 2125      FFFF0100 
 2125      0000
 2126 0be8 488D8D90 		leaq	-2160(%rbp), %rcx
 2126      F7FFFF
 2127 0bef 488D9568 		leaq	-2200(%rbp), %rdx
 2127      F7FFFF
 2128 0bf6 488DB56C 		leaq	-2196(%rbp), %rsi
 2128      F7FFFF
 2129 0bfd 488D8570 		leaq	-2192(%rbp), %rax
 2129      F7FFFF
 2130 0c04 4889C7   		movq	%rax, %rdi
 2131 0c07 E8000000 		call	_ZN8UnitTest10CheckEqualIiiEEvRNS_11TestResultsERKT_RKT0_RKNS_11TestDetailsE
 2131      00
 2132              	.LEHE45:
  79:TestChecks.cpp **** 
  80:TestChecks.cpp **** 	using namespace std;
  81:TestChecks.cpp ****     CHECK(strstr(reporter.lastFailedMessage, "xpected 1"));
 2133              		.loc 5 81 0 is_stmt 1 discriminator 3
 2134 0c0c 488D85B0 		leaq	-2128(%rbp), %rax
 2134      F7FFFF
 2135 0c13 48051405 		addq	$1300, %rax
 2135      0000
 2136 0c19 488D3500 		leaq	.LC16(%rip), %rsi
 2136      000000
 2137 0c20 4889C7   		movq	%rax, %rdi
 2138 0c23 E8000000 		call	strstr@PLT
 2138      00
 2139 0c28 4889C7   		movq	%rax, %rdi
 2140 0c2b E8000000 		call	_ZN8UnitTest5CheckIPcEEbT_
 2140      00
 2141 0c30 83F001   		xorl	$1, %eax
 2142 0c33 84C0     		testb	%al, %al
 2143 0c35 7440     		je	.L86
 2144              	.LEHB46:
 2145              		.loc 5 81 0 is_stmt 0 discriminator 1
 2146 0c37 E8000000 		call	_ZN8UnitTest11CurrentTest7ResultsEv@PLT
 2146      00
 2147 0c3c 488B18   		movq	(%rax), %rbx
 2148 0c3f E8000000 		call	_ZN8UnitTest11CurrentTest7DetailsEv@PLT
 2148      00
 2149              		.loc 5 81 0 discriminator 2
 2150 0c44 488B08   		movq	(%rax), %rcx
 2151 0c47 488D8590 		leaq	-2160(%rbp), %rax
 2151      F7FFFF
 2152 0c4e BA510000 		movl	$81, %edx
 2152      00
 2153 0c53 4889CE   		movq	%rcx, %rsi
 2154 0c56 4889C7   		movq	%rax, %rdi
 2155 0c59 E8000000 		call	_ZN8UnitTest11TestDetailsC1ERKS0_i@PLT
 2155      00
 2156              		.loc 5 81 0 discriminator 4
 2157 0c5e 488D8590 		leaq	-2160(%rbp), %rax
 2157      F7FFFF
 2158 0c65 488D1500 		leaq	.LC17(%rip), %rdx
 2158      000000
 2159 0c6c 4889C6   		movq	%rax, %rsi
 2160 0c6f 4889DF   		movq	%rbx, %rdi
 2161 0c72 E8000000 		call	_ZN8UnitTest11TestResults13OnTestFailureERKNS_11TestDetailsEPKc@PLT
 2161      00
 2162              	.LEHE46:
 2163              	.L86:
  82:TestChecks.cpp ****     CHECK(strstr(reporter.lastFailedMessage, "was 2"));
 2164              		.loc 5 82 0 is_stmt 1
 2165 0c77 488D85B0 		leaq	-2128(%rbp), %rax
 2165      F7FFFF
 2166 0c7e 48051405 		addq	$1300, %rax
 2166      0000
 2167 0c84 488D3500 		leaq	.LC18(%rip), %rsi
 2167      000000
 2168 0c8b 4889C7   		movq	%rax, %rdi
 2169 0c8e E8000000 		call	strstr@PLT
 2169      00
 2170 0c93 4889C7   		movq	%rax, %rdi
 2171 0c96 E8000000 		call	_ZN8UnitTest5CheckIPcEEbT_
 2171      00
 2172 0c9b 83F001   		xorl	$1, %eax
 2173 0c9e 84C0     		testb	%al, %al
 2174 0ca0 7440     		je	.L87
 2175              	.LEHB47:
 2176              		.loc 5 82 0 is_stmt 0 discriminator 1
 2177 0ca2 E8000000 		call	_ZN8UnitTest11CurrentTest7ResultsEv@PLT
 2177      00
 2178 0ca7 488B18   		movq	(%rax), %rbx
 2179 0caa E8000000 		call	_ZN8UnitTest11CurrentTest7DetailsEv@PLT
 2179      00
 2180              		.loc 5 82 0 discriminator 2
 2181 0caf 488B08   		movq	(%rax), %rcx
 2182 0cb2 488D8590 		leaq	-2160(%rbp), %rax
 2182      F7FFFF
 2183 0cb9 BA520000 		movl	$82, %edx
 2183      00
 2184 0cbe 4889CE   		movq	%rcx, %rsi
 2185 0cc1 4889C7   		movq	%rax, %rdi
 2186 0cc4 E8000000 		call	_ZN8UnitTest11TestDetailsC1ERKS0_i@PLT
 2186      00
 2187              		.loc 5 82 0 discriminator 4
 2188 0cc9 488D8590 		leaq	-2160(%rbp), %rax
 2188      F7FFFF
 2189 0cd0 488D1500 		leaq	.LC19(%rip), %rdx
 2189      000000
 2190 0cd7 4889C6   		movq	%rax, %rsi
 2191 0cda 4889DF   		movq	%rbx, %rdi
 2192 0cdd E8000000 		call	_ZN8UnitTest11TestResults13OnTestFailureERKNS_11TestDetailsEPKc@PLT
 2192      00
 2193              	.LEHE47:
 2194              	.L87:
  75:TestChecks.cpp ****     TestResults results(&reporter);
 2195              		.loc 5 75 0 is_stmt 1
 2196 0ce2 488D85B0 		leaq	-2128(%rbp), %rax
 2196      F7FFFF
 2197 0ce9 4889C7   		movq	%rax, %rdi
 2198              	.LEHB48:
 2199 0cec E8000000 		call	_ZN17RecordingReporterD1Ev
 2199      00
 2200              	.LEHE48:
  83:TestChecks.cpp **** }
 2201              		.loc 5 83 0
 2202 0cf1 90       		nop
 2203 0cf2 488B45E8 		movq	-24(%rbp), %rax
 2204 0cf6 64483304 		xorq	%fs:40, %rax
 2204      25280000 
 2204      00
 2205 0cff 0F84DF00 		je	.L93
 2205      0000
 2206 0d05 E9D50000 		jmp	.L99
 2206      00
 2207              	.L95:
  81:TestChecks.cpp ****     CHECK(strstr(reporter.lastFailedMessage, "was 2"));
 2208              		.loc 5 81 0
 2209 0d0a 4889C7   		movq	%rax, %rdi
 2210 0d0d E8000000 		call	__cxa_begin_catch@PLT
 2210      00
 2211              	.LEHB49:
 2212 0d12 E8000000 		call	_ZN8UnitTest11CurrentTest7ResultsEv@PLT
 2212      00
 2213 0d17 488B18   		movq	(%rax), %rbx
 2214 0d1a E8000000 		call	_ZN8UnitTest11CurrentTest7DetailsEv@PLT
 2214      00
  81:TestChecks.cpp ****     CHECK(strstr(reporter.lastFailedMessage, "was 2"));
 2215              		.loc 5 81 0 is_stmt 0 discriminator 8
 2216 0d1f 488B08   		movq	(%rax), %rcx
 2217 0d22 488D8590 		leaq	-2160(%rbp), %rax
 2217      F7FFFF
 2218 0d29 BA510000 		movl	$81, %edx
 2218      00
 2219 0d2e 4889CE   		movq	%rcx, %rsi
 2220 0d31 4889C7   		movq	%rax, %rdi
 2221 0d34 E8000000 		call	_ZN8UnitTest11TestDetailsC1ERKS0_i@PLT
 2221      00
  81:TestChecks.cpp ****     CHECK(strstr(reporter.lastFailedMessage, "was 2"));
 2222              		.loc 5 81 0 discriminator 12
 2223 0d39 488D8590 		leaq	-2160(%rbp), %rax
 2223      F7FFFF
 2224 0d40 488D1500 		leaq	.LC20(%rip), %rdx
 2224      000000
 2225 0d47 4889C6   		movq	%rax, %rsi
 2226 0d4a 4889DF   		movq	%rbx, %rdi
 2227 0d4d E8000000 		call	_ZN8UnitTest11TestResults13OnTestFailureERKNS_11TestDetailsEPKc@PLT
 2227      00
 2228              	.LEHE49:
 2229              	.LEHB50:
  81:TestChecks.cpp ****     CHECK(strstr(reporter.lastFailedMessage, "was 2"));
 2230              		.loc 5 81 0 discriminator 14
 2231 0d52 E8000000 		call	__cxa_end_catch@PLT
 2231      00
 2232              	.LEHE50:
  81:TestChecks.cpp ****     CHECK(strstr(reporter.lastFailedMessage, "was 2"));
 2233              		.loc 5 81 0
 2234 0d57 E91BFFFF 		jmp	.L86
 2234      FF
 2235              	.L96:
 2236 0d5c 4889C3   		movq	%rax, %rbx
 2237 0d5f E8000000 		call	__cxa_end_catch@PLT
 2237      00
 2238 0d64 EB5F     		jmp	.L90
 2239              	.L97:
  82:TestChecks.cpp **** }
 2240              		.loc 5 82 0 is_stmt 1
 2241 0d66 4889C7   		movq	%rax, %rdi
 2242 0d69 E8000000 		call	__cxa_begin_catch@PLT
 2242      00
 2243              	.LEHB51:
 2244 0d6e E8000000 		call	_ZN8UnitTest11CurrentTest7ResultsEv@PLT
 2244      00
 2245 0d73 488B18   		movq	(%rax), %rbx
 2246 0d76 E8000000 		call	_ZN8UnitTest11CurrentTest7DetailsEv@PLT
 2246      00
  82:TestChecks.cpp **** }
 2247              		.loc 5 82 0 is_stmt 0 discriminator 8
 2248 0d7b 488B08   		movq	(%rax), %rcx
 2249 0d7e 488D8590 		leaq	-2160(%rbp), %rax
 2249      F7FFFF
 2250 0d85 BA520000 		movl	$82, %edx
 2250      00
 2251 0d8a 4889CE   		movq	%rcx, %rsi
 2252 0d8d 4889C7   		movq	%rax, %rdi
 2253 0d90 E8000000 		call	_ZN8UnitTest11TestDetailsC1ERKS0_i@PLT
 2253      00
  82:TestChecks.cpp **** }
 2254              		.loc 5 82 0 discriminator 12
 2255 0d95 488D8590 		leaq	-2160(%rbp), %rax
 2255      F7FFFF
 2256 0d9c 488D1500 		leaq	.LC21(%rip), %rdx
 2256      000000
 2257 0da3 4889C6   		movq	%rax, %rsi
 2258 0da6 4889DF   		movq	%rbx, %rdi
 2259 0da9 E8000000 		call	_ZN8UnitTest11TestResults13OnTestFailureERKNS_11TestDetailsEPKc@PLT
 2259      00
 2260              	.LEHE51:
 2261              	.LEHB52:
  82:TestChecks.cpp **** }
 2262              		.loc 5 82 0 discriminator 14
 2263 0dae E8000000 		call	__cxa_end_catch@PLT
 2263      00
 2264              	.LEHE52:
  82:TestChecks.cpp **** }
 2265              		.loc 5 82 0
 2266 0db3 E92AFFFF 		jmp	.L87
 2266      FF
 2267              	.L98:
 2268 0db8 4889C3   		movq	%rax, %rbx
 2269 0dbb E8000000 		call	__cxa_end_catch@PLT
 2269      00
 2270 0dc0 EB03     		jmp	.L90
 2271              	.L94:
 2272 0dc2 4889C3   		movq	%rax, %rbx
 2273              	.L90:
  75:TestChecks.cpp ****     TestResults results(&reporter);
 2274              		.loc 5 75 0 is_stmt 1
 2275 0dc5 488D85B0 		leaq	-2128(%rbp), %rax
 2275      F7FFFF
 2276 0dcc 4889C7   		movq	%rax, %rdi
 2277 0dcf E8000000 		call	_ZN17RecordingReporterD1Ev
 2277      00
 2278 0dd4 4889D8   		movq	%rbx, %rax
 2279 0dd7 4889C7   		movq	%rax, %rdi
 2280              	.LEHB53:
 2281 0dda E8000000 		call	_Unwind_Resume@PLT
 2281      00
 2282              	.LEHE53:
 2283              	.L99:
 2284              		.loc 5 83 0
 2285 0ddf E8000000 		call	__stack_chk_fail@PLT
 2285      00
 2286              	.L93:
 2287 0de4 4881C4A8 		addq	$2216, %rsp
 2287      080000
 2288 0deb 5B       		popq	%rbx
 2289 0dec 5D       		popq	%rbp
 2290              		.cfi_def_cfa 7, 8
 2291 0ded C3       		ret
 2292              		.cfi_endproc
 2293              	.LFE1129:
 2294              		.section	.gcc_except_table
 2295              		.align 4
 2296              	.LLSDA1129:
 2297 0144 FF       		.byte	0xff
 2298 0145 9B       		.byte	0x9b
 2299 0146 3D       		.uleb128 .LLSDATT1129-.LLSDATTD1129
 2300              	.LLSDATTD1129:
 2301 0147 01       		.byte	0x1
 2302 0148 33       		.uleb128 .LLSDACSE1129-.LLSDACSB1129
 2303              	.LLSDACSB1129:
 2304 0149 45       		.uleb128 .LEHB45-.LFB1129
 2305 014a 67       		.uleb128 .LEHE45-.LEHB45
 2306 014b E204     		.uleb128 .L94-.LFB1129
 2307 014d 00       		.uleb128 0
 2308 014e D701     		.uleb128 .LEHB46-.LFB1129
 2309 0150 40       		.uleb128 .LEHE46-.LEHB46
 2310 0151 AA03     		.uleb128 .L95-.LFB1129
 2311 0153 01       		.uleb128 0x1
 2312 0154 C202     		.uleb128 .LEHB47-.LFB1129
 2313 0156 40       		.uleb128 .LEHE47-.LEHB47
 2314 0157 8604     		.uleb128 .L97-.LFB1129
 2315 0159 01       		.uleb128 0x1
 2316 015a 8C03     		.uleb128 .LEHB48-.LFB1129
 2317 015c 05       		.uleb128 .LEHE48-.LEHB48
 2318 015d 00       		.uleb128 0
 2319 015e 00       		.uleb128 0
 2320 015f B203     		.uleb128 .LEHB49-.LFB1129
 2321 0161 40       		.uleb128 .LEHE49-.LEHB49
 2322 0162 FC03     		.uleb128 .L96-.LFB1129
 2323 0164 00       		.uleb128 0
 2324 0165 F203     		.uleb128 .LEHB50-.LFB1129
 2325 0167 05       		.uleb128 .LEHE50-.LEHB50
 2326 0168 E204     		.uleb128 .L94-.LFB1129
 2327 016a 00       		.uleb128 0
 2328 016b 8E04     		.uleb128 .LEHB51-.LFB1129
 2329 016d 40       		.uleb128 .LEHE51-.LEHB51
 2330 016e D804     		.uleb128 .L98-.LFB1129
 2331 0170 00       		.uleb128 0
 2332 0171 CE04     		.uleb128 .LEHB52-.LFB1129
 2333 0173 05       		.uleb128 .LEHE52-.LEHB52
 2334 0174 E204     		.uleb128 .L94-.LFB1129
 2335 0176 00       		.uleb128 0
 2336 0177 FA04     		.uleb128 .LEHB53-.LFB1129
 2337 0179 05       		.uleb128 .LEHE53-.LEHB53
 2338 017a 00       		.uleb128 0
 2339 017b 00       		.uleb128 0
 2340              	.LLSDACSE1129:
 2341 017c 01       		.byte	0x1
 2342 017d 00       		.byte	0
 2343 017e 0000     		.align 4
 2344 0180 00000000 		.long	0
 2345              	
 2346              	.LLSDATT1129:
 2347              		.text
 2349              		.section	.rodata
 2350 038a 00000000 		.align 8
 2350      0000
 2351              	.LC22:
 2352 0390 43686563 		.string	"CheckEqualFailureIncludesDetails"
 2352      6B457175 
 2352      616C4661 
 2352      696C7572 
 2352      65496E63 
 2353              		.text
 2354              		.align 2
 2356              	_ZN12_GLOBAL__N_136TestCheckEqualFailureIncludesDetailsC2Ev:
 2357              	.LFB1131:
  84:TestChecks.cpp **** 
  85:TestChecks.cpp **** TEST(CheckEqualFailureIncludesDetails)
 2358              		.loc 5 85 0
 2359              		.cfi_startproc
 2360 0dee 55       		pushq	%rbp
 2361              		.cfi_def_cfa_offset 16
 2362              		.cfi_offset 6, -16
 2363 0def 4889E5   		movq	%rsp, %rbp
 2364              		.cfi_def_cfa_register 6
 2365 0df2 53       		pushq	%rbx
 2366 0df3 4883EC18 		subq	$24, %rsp
 2367              		.cfi_offset 3, -24
 2368 0df7 48897DE8 		movq	%rdi, -24(%rbp)
 2369              	.LBB14:
 2370              		.loc 5 85 0
 2371 0dfb 488B5DE8 		movq	-24(%rbp), %rbx
 2372 0dff E8000000 		call	_ZN13UnitTestSuite12GetSuiteNameEv
 2372      00
 2373 0e04 41B85500 		movl	$85, %r8d
 2373      0000
 2374 0e0a 488D0D00 		leaq	.LC2(%rip), %rcx
 2374      000000
 2375 0e11 4889C2   		movq	%rax, %rdx
 2376 0e14 488D3500 		leaq	.LC22(%rip), %rsi
 2376      000000
 2377 0e1b 4889DF   		movq	%rbx, %rdi
 2378 0e1e E8000000 		call	_ZN8UnitTest4TestC2EPKcS2_S2_i@PLT
 2378      00
 2379 0e23 488D1500 		leaq	16+_ZTVN12_GLOBAL__N_136TestCheckEqualFailureIncludesDetailsE(%rip), %rdx
 2379      000000
 2380 0e2a 488B45E8 		movq	-24(%rbp), %rax
 2381 0e2e 488910   		movq	%rdx, (%rax)
 2382              	.LBE14:
 2383 0e31 90       		nop
 2384 0e32 4883C418 		addq	$24, %rsp
 2385 0e36 5B       		popq	%rbx
 2386 0e37 5D       		popq	%rbp
 2387              		.cfi_def_cfa 7, 8
 2388 0e38 C3       		ret
 2389              		.cfi_endproc
 2390              	.LFE1131:
 2392              		.set	_ZN12_GLOBAL__N_136TestCheckEqualFailureIncludesDetailsC1Ev,_ZN12_GLOBAL__N_136TestCheckEqual
 2393              		.local	_ZN12_GLOBAL__N_144testCheckEqualFailureIncludesDetailsInstanceE
 2394              		.comm	_ZN12_GLOBAL__N_144testCheckEqualFailureIncludesDetailsInstanceE,56,32
 2395              		.local	_ZN12_GLOBAL__N_137adderCheckEqualFailureIncludesDetailsE
 2396              		.comm	_ZN12_GLOBAL__N_137adderCheckEqualFailureIncludesDetailsE,1,1
 2397              		.section	.rodata
 2398              	.LC23:
 2399 03b1 66696C65 		.string	"file.h"
 2399      2E6800
 2400              	.LC24:
 2401 03b8 6D797375 		.string	"mysuite"
 2401      69746500 
 2402              	.LC25:
 2403 03c0 6D797465 		.string	"mytest"
 2403      737400
 2404 03c7 00       		.align 8
 2405              	.LC26:
 2406 03c8 556E6861 		.string	"Unhandled exception in CHECK_EQUAL(\"mytest\", reporter.lastFailedTest)"
 2406      6E646C65 
 2406      64206578 
 2406      63657074 
 2406      696F6E20 
 2407 040e 0000     		.align 8
 2408              	.LC27:
 2409 0410 556E6861 		.string	"Unhandled exception in CHECK_EQUAL(\"mysuite\", reporter.lastFailedSuite)"
 2409      6E646C65 
 2409      64206578 
 2409      63657074 
 2409      696F6E20 
 2410              		.align 8
 2411              	.LC28:
 2412 0458 556E6861 		.string	"Unhandled exception in CHECK_EQUAL(\"file.h\", reporter.lastFailedFile)"
 2412      6E646C65 
 2412      64206578 
 2412      63657074 
 2412      696F6E20 
 2413 049e 0000     		.align 8
 2414              	.LC29:
 2415 04a0 556E6861 		.string	"Unhandled exception in CHECK_EQUAL(101, reporter.lastFailedLine)"
 2415      6E646C65 
 2415      64206578 
 2415      63657074 
 2415      696F6E20 
 2416              		.text
 2417 0e39 90       		.align 2
 2419              	_ZNK12_GLOBAL__N_136TestCheckEqualFailureIncludesDetails7RunImplEv:
 2420              	.LFB1133:
  86:TestChecks.cpp **** {
 2421              		.loc 5 86 0
 2422              		.cfi_startproc
 2423              		.cfi_personality 0x9b,DW.ref.__gxx_personality_v0
 2424              		.cfi_lsda 0x1b,.LLSDA1133
 2425 0e3a 55       		pushq	%rbp
 2426              		.cfi_def_cfa_offset 16
 2427              		.cfi_offset 6, -16
 2428 0e3b 4889E5   		movq	%rsp, %rbp
 2429              		.cfi_def_cfa_register 6
 2430 0e3e 53       		pushq	%rbx
 2431 0e3f 4881ECC8 		subq	$2248, %rsp
 2431      080000
 2432              		.cfi_offset 3, -24
 2433 0e46 4889BD38 		movq	%rdi, -2248(%rbp)
 2433      F7FFFF
 2434              		.loc 5 86 0
 2435 0e4d 64488B04 		movq	%fs:40, %rax
 2435      25280000 
 2435      00
 2436 0e56 488945E8 		movq	%rax, -24(%rbp)
 2437 0e5a 31C0     		xorl	%eax, %eax
  87:TestChecks.cpp ****     RecordingReporter reporter;
 2438              		.loc 5 87 0
 2439 0e5c 488D85B0 		leaq	-2128(%rbp), %rax
 2439      F7FFFF
 2440 0e63 4889C7   		movq	%rax, %rdi
 2441 0e66 E8000000 		call	_ZN17RecordingReporterC1Ev
 2441      00
  88:TestChecks.cpp ****     TestResults results(&reporter);
 2442              		.loc 5 88 0
 2443 0e6b 488D95B0 		leaq	-2128(%rbp), %rdx
 2443      F7FFFF
 2444 0e72 488D8550 		leaq	-2224(%rbp), %rax
 2444      F7FFFF
 2445 0e79 4889D6   		movq	%rdx, %rsi
 2446 0e7c 4889C7   		movq	%rax, %rdi
 2447              	.LEHB54:
 2448 0e7f E8000000 		call	_ZN8UnitTest11TestResultsC1EPNS_12TestReporterE@PLT
 2448      00
  89:TestChecks.cpp ****     TestDetails const details("mytest", "mysuite", "file.h", 101);
 2449              		.loc 5 89 0
 2450 0e84 488D8570 		leaq	-2192(%rbp), %rax
 2450      F7FFFF
 2451 0e8b 41B86500 		movl	$101, %r8d
 2451      0000
 2452 0e91 488D0D00 		leaq	.LC23(%rip), %rcx
 2452      000000
 2453 0e98 488D1500 		leaq	.LC24(%rip), %rdx
 2453      000000
 2454 0e9f 488D3500 		leaq	.LC25(%rip), %rsi
 2454      000000
 2455 0ea6 4889C7   		movq	%rax, %rdi
 2456 0ea9 E8000000 		call	_ZN8UnitTest11TestDetailsC1EPKcS2_S2_i@PLT
 2456      00
  90:TestChecks.cpp **** 
  91:TestChecks.cpp ****     CheckEqual(results, 1, 2, details);
 2457              		.loc 5 91 0
 2458 0eae C78590F7 		movl	$2, -2160(%rbp)
 2458      FFFF0200 
 2458      0000
 2459 0eb8 C7854CF7 		movl	$1, -2228(%rbp)
 2459      FFFF0100 
 2459      0000
 2460 0ec2 488D8D70 		leaq	-2192(%rbp), %rcx
 2460      F7FFFF
 2461 0ec9 488D9590 		leaq	-2160(%rbp), %rdx
 2461      F7FFFF
 2462 0ed0 488DB54C 		leaq	-2228(%rbp), %rsi
 2462      F7FFFF
 2463 0ed7 488D8550 		leaq	-2224(%rbp), %rax
 2463      F7FFFF
 2464 0ede 4889C7   		movq	%rax, %rdi
 2465 0ee1 E8000000 		call	_ZN8UnitTest10CheckEqualIiiEEvRNS_11TestResultsERKT_RKT0_RKNS_11TestDetailsE
 2465      00
 2466              	.LEHE54:
 2467              	.LEHB55:
  92:TestChecks.cpp **** 
  93:TestChecks.cpp ****     CHECK_EQUAL("mytest", reporter.lastFailedTest);
 2468              		.loc 5 93 0 discriminator 2
 2469 0ee6 E8000000 		call	_ZN8UnitTest11CurrentTest7DetailsEv@PLT
 2469      00
 2470 0eeb 488B08   		movq	(%rax), %rcx
 2471 0eee 488D8590 		leaq	-2160(%rbp), %rax
 2471      F7FFFF
 2472 0ef5 BA5D0000 		movl	$93, %edx
 2472      00
 2473 0efa 4889CE   		movq	%rcx, %rsi
 2474 0efd 4889C7   		movq	%rax, %rdi
 2475 0f00 E8000000 		call	_ZN8UnitTest11TestDetailsC1ERKS0_i@PLT
 2475      00
 2476 0f05 E8000000 		call	_ZN8UnitTest11CurrentTest7ResultsEv@PLT
 2476      00
 2477 0f0a 488B00   		movq	(%rax), %rax
 2478 0f0d 488D9590 		leaq	-2160(%rbp), %rdx
 2478      F7FFFF
 2479 0f14 488D8DB0 		leaq	-2128(%rbp), %rcx
 2479      F7FFFF
 2480 0f1b 488DB114 		leaq	1044(%rcx), %rsi
 2480      040000
 2481 0f22 4889D1   		movq	%rdx, %rcx
 2482 0f25 4889F2   		movq	%rsi, %rdx
 2483 0f28 488D3500 		leaq	.LC25(%rip), %rsi
 2483      000000
 2484 0f2f 4889C7   		movq	%rax, %rdi
 2485 0f32 E8000000 		call	_ZN8UnitTest10CheckEqualERNS_11TestResultsEPKcPcRKNS_11TestDetailsE@PLT
 2485      00
 2486              	.LEHE55:
 2487              	.L103:
 2488              	.LEHB56:
  94:TestChecks.cpp ****     CHECK_EQUAL("mysuite", reporter.lastFailedSuite);
 2489              		.loc 5 94 0
 2490 0f37 E8000000 		call	_ZN8UnitTest11CurrentTest7DetailsEv@PLT
 2490      00
 2491 0f3c 488B08   		movq	(%rax), %rcx
 2492 0f3f 488D8590 		leaq	-2160(%rbp), %rax
 2492      F7FFFF
 2493 0f46 BA5E0000 		movl	$94, %edx
 2493      00
 2494 0f4b 4889CE   		movq	%rcx, %rsi
 2495 0f4e 4889C7   		movq	%rax, %rdi
 2496 0f51 E8000000 		call	_ZN8UnitTest11TestDetailsC1ERKS0_i@PLT
 2496      00
 2497              		.loc 5 94 0 is_stmt 0 discriminator 2
 2498 0f56 E8000000 		call	_ZN8UnitTest11CurrentTest7ResultsEv@PLT
 2498      00
 2499 0f5b 488B00   		movq	(%rax), %rax
 2500 0f5e 488D9590 		leaq	-2160(%rbp), %rdx
 2500      F7FFFF
 2501 0f65 488D8DB0 		leaq	-2128(%rbp), %rcx
 2501      F7FFFF
 2502 0f6c 488DB114 		leaq	788(%rcx), %rsi
 2502      030000
 2503 0f73 4889D1   		movq	%rdx, %rcx
 2504 0f76 4889F2   		movq	%rsi, %rdx
 2505 0f79 488D3500 		leaq	.LC24(%rip), %rsi
 2505      000000
 2506 0f80 4889C7   		movq	%rax, %rdi
 2507 0f83 E8000000 		call	_ZN8UnitTest10CheckEqualERNS_11TestResultsEPKcPcRKNS_11TestDetailsE@PLT
 2507      00
 2508              	.LEHE56:
 2509              	.L107:
 2510              	.LEHB57:
  95:TestChecks.cpp ****     CHECK_EQUAL("file.h", reporter.lastFailedFile);
 2511              		.loc 5 95 0 is_stmt 1
 2512 0f88 E8000000 		call	_ZN8UnitTest11CurrentTest7DetailsEv@PLT
 2512      00
 2513 0f8d 488B08   		movq	(%rax), %rcx
 2514 0f90 488D8590 		leaq	-2160(%rbp), %rax
 2514      F7FFFF
 2515 0f97 BA5F0000 		movl	$95, %edx
 2515      00
 2516 0f9c 4889CE   		movq	%rcx, %rsi
 2517 0f9f 4889C7   		movq	%rax, %rdi
 2518 0fa2 E8000000 		call	_ZN8UnitTest11TestDetailsC1ERKS0_i@PLT
 2518      00
 2519              		.loc 5 95 0 is_stmt 0 discriminator 2
 2520 0fa7 E8000000 		call	_ZN8UnitTest11CurrentTest7ResultsEv@PLT
 2520      00
 2521 0fac 488B00   		movq	(%rax), %rax
 2522 0faf 488D9590 		leaq	-2160(%rbp), %rdx
 2522      F7FFFF
 2523 0fb6 488D8DB0 		leaq	-2128(%rbp), %rcx
 2523      F7FFFF
 2524 0fbd 488DB110 		leaq	528(%rcx), %rsi
 2524      020000
 2525 0fc4 4889D1   		movq	%rdx, %rcx
 2526 0fc7 4889F2   		movq	%rsi, %rdx
 2527 0fca 488D3500 		leaq	.LC23(%rip), %rsi
 2527      000000
 2528 0fd1 4889C7   		movq	%rax, %rdi
 2529 0fd4 E8000000 		call	_ZN8UnitTest10CheckEqualERNS_11TestResultsEPKcPcRKNS_11TestDetailsE@PLT
 2529      00
 2530              	.LEHE57:
 2531              	.L110:
 2532              	.LEHB58:
  96:TestChecks.cpp ****     CHECK_EQUAL(101, reporter.lastFailedLine);
 2533              		.loc 5 96 0 is_stmt 1
 2534 0fd9 E8000000 		call	_ZN8UnitTest11CurrentTest7DetailsEv@PLT
 2534      00
 2535 0fde 488B08   		movq	(%rax), %rcx
 2536 0fe1 488D8590 		leaq	-2160(%rbp), %rax
 2536      F7FFFF
 2537 0fe8 BA600000 		movl	$96, %edx
 2537      00
 2538 0fed 4889CE   		movq	%rcx, %rsi
 2539 0ff0 4889C7   		movq	%rax, %rdi
 2540 0ff3 E8000000 		call	_ZN8UnitTest11TestDetailsC1ERKS0_i@PLT
 2540      00
 2541              	.LEHE58:
 2542              		.loc 5 96 0 is_stmt 0 discriminator 2
 2543 0ff8 C7854CF7 		movl	$101, -2228(%rbp)
 2543      FFFF6500 
 2543      0000
 2544              	.LEHB59:
 2545 1002 E8000000 		call	_ZN8UnitTest11CurrentTest7ResultsEv@PLT
 2545      00
 2546 1007 488B00   		movq	(%rax), %rax
 2547 100a 488D9590 		leaq	-2160(%rbp), %rdx
 2547      F7FFFF
 2548 1011 488D8DB0 		leaq	-2128(%rbp), %rcx
 2548      F7FFFF
 2549 1018 488DB910 		leaq	784(%rcx), %rdi
 2549      030000
 2550 101f 488DB54C 		leaq	-2228(%rbp), %rsi
 2550      F7FFFF
 2551 1026 4889D1   		movq	%rdx, %rcx
 2552 1029 4889FA   		movq	%rdi, %rdx
 2553 102c 4889C7   		movq	%rax, %rdi
 2554 102f E8000000 		call	_ZN8UnitTest10CheckEqualIiiEEvRNS_11TestResultsERKT_RKT0_RKNS_11TestDetailsE
 2554      00
 2555              	.LEHE59:
 2556              	.L114:
  87:TestChecks.cpp ****     TestResults results(&reporter);
 2557              		.loc 5 87 0 is_stmt 1
 2558 1034 488D85B0 		leaq	-2128(%rbp), %rax
 2558      F7FFFF
 2559 103b 4889C7   		movq	%rax, %rdi
 2560              	.LEHB60:
 2561 103e E8000000 		call	_ZN17RecordingReporterD1Ev
 2561      00
 2562              	.LEHE60:
  97:TestChecks.cpp **** }
 2563              		.loc 5 97 0
 2564 1043 90       		nop
 2565 1044 488B45E8 		movq	-24(%rbp), %rax
 2566 1048 64483304 		xorq	%fs:40, %rax
 2566      25280000 
 2566      00
 2567 1051 0F849F01 		je	.L116
 2567      0000
 2568 1057 E9950100 		jmp	.L127
 2568      00
 2569              	.L118:
  93:TestChecks.cpp ****     CHECK_EQUAL("mysuite", reporter.lastFailedSuite);
 2570              		.loc 5 93 0
 2571 105c 4889C7   		movq	%rax, %rdi
 2572 105f E8000000 		call	__cxa_begin_catch@PLT
 2572      00
 2573              	.LEHB61:
 2574 1064 E8000000 		call	_ZN8UnitTest11CurrentTest7ResultsEv@PLT
 2574      00
 2575 1069 488B18   		movq	(%rax), %rbx
 2576 106c E8000000 		call	_ZN8UnitTest11CurrentTest7DetailsEv@PLT
 2576      00
  93:TestChecks.cpp ****     CHECK_EQUAL("mysuite", reporter.lastFailedSuite);
 2577              		.loc 5 93 0 is_stmt 0 discriminator 8
 2578 1071 488B08   		movq	(%rax), %rcx
 2579 1074 488D8590 		leaq	-2160(%rbp), %rax
 2579      F7FFFF
 2580 107b BA5D0000 		movl	$93, %edx
 2580      00
 2581 1080 4889CE   		movq	%rcx, %rsi
 2582 1083 4889C7   		movq	%rax, %rdi
 2583 1086 E8000000 		call	_ZN8UnitTest11TestDetailsC1ERKS0_i@PLT
 2583      00
  93:TestChecks.cpp ****     CHECK_EQUAL("mysuite", reporter.lastFailedSuite);
 2584              		.loc 5 93 0 discriminator 12
 2585 108b 488D8590 		leaq	-2160(%rbp), %rax
 2585      F7FFFF
 2586 1092 488D1500 		leaq	.LC26(%rip), %rdx
 2586      000000
 2587 1099 4889C6   		movq	%rax, %rsi
 2588 109c 4889DF   		movq	%rbx, %rdi
 2589 109f E8000000 		call	_ZN8UnitTest11TestResults13OnTestFailureERKNS_11TestDetailsEPKc@PLT
 2589      00
 2590              	.LEHE61:
 2591              	.LEHB62:
  93:TestChecks.cpp ****     CHECK_EQUAL("mysuite", reporter.lastFailedSuite);
 2592              		.loc 5 93 0 discriminator 14
 2593 10a4 E8000000 		call	__cxa_end_catch@PLT
 2593      00
 2594              	.LEHE62:
  93:TestChecks.cpp ****     CHECK_EQUAL("mysuite", reporter.lastFailedSuite);
 2595              		.loc 5 93 0
 2596 10a9 E989FEFF 		jmp	.L103
 2596      FF
 2597              	.L119:
 2598 10ae 4889C3   		movq	%rax, %rbx
 2599 10b1 E8000000 		call	__cxa_end_catch@PLT
 2599      00
 2600 10b6 E91C0100 		jmp	.L105
 2600      00
 2601              	.L120:
  94:TestChecks.cpp ****     CHECK_EQUAL("file.h", reporter.lastFailedFile);
 2602              		.loc 5 94 0 is_stmt 1
 2603 10bb 4889C7   		movq	%rax, %rdi
 2604 10be E8000000 		call	__cxa_begin_catch@PLT
 2604      00
 2605              	.LEHB63:
 2606 10c3 E8000000 		call	_ZN8UnitTest11CurrentTest7ResultsEv@PLT
 2606      00
 2607 10c8 488B18   		movq	(%rax), %rbx
 2608 10cb E8000000 		call	_ZN8UnitTest11CurrentTest7DetailsEv@PLT
 2608      00
  94:TestChecks.cpp ****     CHECK_EQUAL("file.h", reporter.lastFailedFile);
 2609              		.loc 5 94 0 is_stmt 0 discriminator 8
 2610 10d0 488B08   		movq	(%rax), %rcx
 2611 10d3 488D8590 		leaq	-2160(%rbp), %rax
 2611      F7FFFF
 2612 10da BA5E0000 		movl	$94, %edx
 2612      00
 2613 10df 4889CE   		movq	%rcx, %rsi
 2614 10e2 4889C7   		movq	%rax, %rdi
 2615 10e5 E8000000 		call	_ZN8UnitTest11TestDetailsC1ERKS0_i@PLT
 2615      00
  94:TestChecks.cpp ****     CHECK_EQUAL("file.h", reporter.lastFailedFile);
 2616              		.loc 5 94 0 discriminator 12
 2617 10ea 488D8590 		leaq	-2160(%rbp), %rax
 2617      F7FFFF
 2618 10f1 488D1500 		leaq	.LC27(%rip), %rdx
 2618      000000
 2619 10f8 4889C6   		movq	%rax, %rsi
 2620 10fb 4889DF   		movq	%rbx, %rdi
 2621 10fe E8000000 		call	_ZN8UnitTest11TestResults13OnTestFailureERKNS_11TestDetailsEPKc@PLT
 2621      00
 2622              	.LEHE63:
 2623              	.LEHB64:
  94:TestChecks.cpp ****     CHECK_EQUAL("file.h", reporter.lastFailedFile);
 2624              		.loc 5 94 0 discriminator 14
 2625 1103 E8000000 		call	__cxa_end_catch@PLT
 2625      00
 2626              	.LEHE64:
  94:TestChecks.cpp ****     CHECK_EQUAL("file.h", reporter.lastFailedFile);
 2627              		.loc 5 94 0
 2628 1108 E97BFEFF 		jmp	.L107
 2628      FF
 2629              	.L121:
 2630 110d 4889C3   		movq	%rax, %rbx
 2631 1110 E8000000 		call	__cxa_end_catch@PLT
 2631      00
 2632 1115 E9BD0000 		jmp	.L105
 2632      00
 2633              	.L122:
  95:TestChecks.cpp ****     CHECK_EQUAL(101, reporter.lastFailedLine);
 2634              		.loc 5 95 0 is_stmt 1
 2635 111a 4889C7   		movq	%rax, %rdi
 2636 111d E8000000 		call	__cxa_begin_catch@PLT
 2636      00
 2637              	.LEHB65:
 2638 1122 E8000000 		call	_ZN8UnitTest11CurrentTest7ResultsEv@PLT
 2638      00
 2639 1127 488B18   		movq	(%rax), %rbx
 2640 112a E8000000 		call	_ZN8UnitTest11CurrentTest7DetailsEv@PLT
 2640      00
  95:TestChecks.cpp ****     CHECK_EQUAL(101, reporter.lastFailedLine);
 2641              		.loc 5 95 0 is_stmt 0 discriminator 8
 2642 112f 488B08   		movq	(%rax), %rcx
 2643 1132 488D8590 		leaq	-2160(%rbp), %rax
 2643      F7FFFF
 2644 1139 BA5F0000 		movl	$95, %edx
 2644      00
 2645 113e 4889CE   		movq	%rcx, %rsi
 2646 1141 4889C7   		movq	%rax, %rdi
 2647 1144 E8000000 		call	_ZN8UnitTest11TestDetailsC1ERKS0_i@PLT
 2647      00
  95:TestChecks.cpp ****     CHECK_EQUAL(101, reporter.lastFailedLine);
 2648              		.loc 5 95 0 discriminator 12
 2649 1149 488D8590 		leaq	-2160(%rbp), %rax
 2649      F7FFFF
 2650 1150 488D1500 		leaq	.LC28(%rip), %rdx
 2650      000000
 2651 1157 4889C6   		movq	%rax, %rsi
 2652 115a 4889DF   		movq	%rbx, %rdi
 2653 115d E8000000 		call	_ZN8UnitTest11TestResults13OnTestFailureERKNS_11TestDetailsEPKc@PLT
 2653      00
 2654              	.LEHE65:
 2655              	.LEHB66:
  95:TestChecks.cpp ****     CHECK_EQUAL(101, reporter.lastFailedLine);
 2656              		.loc 5 95 0 discriminator 14
 2657 1162 E8000000 		call	__cxa_end_catch@PLT
 2657      00
 2658              	.LEHE66:
  95:TestChecks.cpp ****     CHECK_EQUAL(101, reporter.lastFailedLine);
 2659              		.loc 5 95 0
 2660 1167 E96DFEFF 		jmp	.L110
 2660      FF
 2661              	.L123:
 2662 116c 4889C3   		movq	%rax, %rbx
 2663 116f E8000000 		call	__cxa_end_catch@PLT
 2663      00
 2664 1174 EB61     		jmp	.L105
 2665              	.L125:
 2666 1176 EB00     		jmp	.L113
 2667              	.L124:
 2668              	.L113:
  96:TestChecks.cpp **** }
 2669              		.loc 5 96 0 is_stmt 1
 2670 1178 4889C7   		movq	%rax, %rdi
 2671 117b E8000000 		call	__cxa_begin_catch@PLT
 2671      00
 2672              	.LEHB67:
 2673 1180 E8000000 		call	_ZN8UnitTest11CurrentTest7ResultsEv@PLT
 2673      00
 2674 1185 488B18   		movq	(%rax), %rbx
 2675 1188 E8000000 		call	_ZN8UnitTest11CurrentTest7DetailsEv@PLT
 2675      00
  96:TestChecks.cpp **** }
 2676              		.loc 5 96 0 is_stmt 0 discriminator 8
 2677 118d 488B08   		movq	(%rax), %rcx
 2678 1190 488D8590 		leaq	-2160(%rbp), %rax
 2678      F7FFFF
 2679 1197 BA600000 		movl	$96, %edx
 2679      00
 2680 119c 4889CE   		movq	%rcx, %rsi
 2681 119f 4889C7   		movq	%rax, %rdi
 2682 11a2 E8000000 		call	_ZN8UnitTest11TestDetailsC1ERKS0_i@PLT
 2682      00
  96:TestChecks.cpp **** }
 2683              		.loc 5 96 0 discriminator 12
 2684 11a7 488D8590 		leaq	-2160(%rbp), %rax
 2684      F7FFFF
 2685 11ae 488D1500 		leaq	.LC29(%rip), %rdx
 2685      000000
 2686 11b5 4889C6   		movq	%rax, %rsi
 2687 11b8 4889DF   		movq	%rbx, %rdi
 2688 11bb E8000000 		call	_ZN8UnitTest11TestResults13OnTestFailureERKNS_11TestDetailsEPKc@PLT
 2688      00
 2689              	.LEHE67:
 2690              	.LEHB68:
  96:TestChecks.cpp **** }
 2691              		.loc 5 96 0 discriminator 14
 2692 11c0 E8000000 		call	__cxa_end_catch@PLT
 2692      00
 2693              	.LEHE68:
  96:TestChecks.cpp **** }
 2694              		.loc 5 96 0
 2695 11c5 E96AFEFF 		jmp	.L114
 2695      FF
 2696              	.L126:
 2697 11ca 4889C3   		movq	%rax, %rbx
 2698 11cd E8000000 		call	__cxa_end_catch@PLT
 2698      00
 2699 11d2 EB03     		jmp	.L105
 2700              	.L117:
 2701 11d4 4889C3   		movq	%rax, %rbx
 2702              	.L105:
  87:TestChecks.cpp ****     TestResults results(&reporter);
 2703              		.loc 5 87 0 is_stmt 1
 2704 11d7 488D85B0 		leaq	-2128(%rbp), %rax
 2704      F7FFFF
 2705 11de 4889C7   		movq	%rax, %rdi
 2706 11e1 E8000000 		call	_ZN17RecordingReporterD1Ev
 2706      00
 2707 11e6 4889D8   		movq	%rbx, %rax
 2708 11e9 4889C7   		movq	%rax, %rdi
 2709              	.LEHB69:
 2710 11ec E8000000 		call	_Unwind_Resume@PLT
 2710      00
 2711              	.LEHE69:
 2712              	.L127:
 2713              		.loc 5 97 0
 2714 11f1 E8000000 		call	__stack_chk_fail@PLT
 2714      00
 2715              	.L116:
 2716 11f6 4881C4C8 		addq	$2248, %rsp
 2716      080000
 2717 11fd 5B       		popq	%rbx
 2718 11fe 5D       		popq	%rbp
 2719              		.cfi_def_cfa 7, 8
 2720 11ff C3       		ret
 2721              		.cfi_endproc
 2722              	.LFE1133:
 2723              		.section	.gcc_except_table
 2724              		.align 4
 2725              	.LLSDA1133:
 2726 0184 FF       		.byte	0xff
 2727 0185 9B       		.byte	0x9b
 2728 0186 65       		.uleb128 .LLSDATT1133-.LLSDATTD1133
 2729              	.LLSDATTD1133:
 2730 0187 01       		.byte	0x1
 2731 0188 5D       		.uleb128 .LLSDACSE1133-.LLSDACSB1133
 2732              	.LLSDACSB1133:
 2733 0189 45       		.uleb128 .LEHB54-.LFB1133
 2734 018a 67       		.uleb128 .LEHE54-.LEHB54
 2735 018b 9A07     		.uleb128 .L117-.LFB1133
 2736 018d 00       		.uleb128 0
 2737 018e AC01     		.uleb128 .LEHB55-.LFB1133
 2738 0190 51       		.uleb128 .LEHE55-.LEHB55
 2739 0191 A204     		.uleb128 .L118-.LFB1133
 2740 0193 01       		.uleb128 0x1
 2741 0194 FD01     		.uleb128 .LEHB56-.LFB1133
 2742 0196 51       		.uleb128 .LEHE56-.LEHB56
 2743 0197 8105     		.uleb128 .L120-.LFB1133
 2744 0199 01       		.uleb128 0x1
 2745 019a CE02     		.uleb128 .LEHB57-.LFB1133
 2746 019c 51       		.uleb128 .LEHE57-.LEHB57
 2747 019d E005     		.uleb128 .L122-.LFB1133
 2748 019f 01       		.uleb128 0x1
 2749 01a0 9F03     		.uleb128 .LEHB58-.LFB1133
 2750 01a2 1F       		.uleb128 .LEHE58-.LEHB58
 2751 01a3 BE06     		.uleb128 .L124-.LFB1133
 2752 01a5 01       		.uleb128 0x1
 2753 01a6 C803     		.uleb128 .LEHB59-.LFB1133
 2754 01a8 32       		.uleb128 .LEHE59-.LEHB59
 2755 01a9 BC06     		.uleb128 .L125-.LFB1133
 2756 01ab 01       		.uleb128 0x1
 2757 01ac 8404     		.uleb128 .LEHB60-.LFB1133
 2758 01ae 05       		.uleb128 .LEHE60-.LEHB60
 2759 01af 00       		.uleb128 0
 2760 01b0 00       		.uleb128 0
 2761 01b1 AA04     		.uleb128 .LEHB61-.LFB1133
 2762 01b3 40       		.uleb128 .LEHE61-.LEHB61
 2763 01b4 F404     		.uleb128 .L119-.LFB1133
 2764 01b6 00       		.uleb128 0
 2765 01b7 EA04     		.uleb128 .LEHB62-.LFB1133
 2766 01b9 05       		.uleb128 .LEHE62-.LEHB62
 2767 01ba 9A07     		.uleb128 .L117-.LFB1133
 2768 01bc 00       		.uleb128 0
 2769 01bd 8905     		.uleb128 .LEHB63-.LFB1133
 2770 01bf 40       		.uleb128 .LEHE63-.LEHB63
 2771 01c0 D305     		.uleb128 .L121-.LFB1133
 2772 01c2 00       		.uleb128 0
 2773 01c3 C905     		.uleb128 .LEHB64-.LFB1133
 2774 01c5 05       		.uleb128 .LEHE64-.LEHB64
 2775 01c6 9A07     		.uleb128 .L117-.LFB1133
 2776 01c8 00       		.uleb128 0
 2777 01c9 E805     		.uleb128 .LEHB65-.LFB1133
 2778 01cb 40       		.uleb128 .LEHE65-.LEHB65
 2779 01cc B206     		.uleb128 .L123-.LFB1133
 2780 01ce 00       		.uleb128 0
 2781 01cf A806     		.uleb128 .LEHB66-.LFB1133
 2782 01d1 05       		.uleb128 .LEHE66-.LEHB66
 2783 01d2 9A07     		.uleb128 .L117-.LFB1133
 2784 01d4 00       		.uleb128 0
 2785 01d5 C606     		.uleb128 .LEHB67-.LFB1133
 2786 01d7 40       		.uleb128 .LEHE67-.LEHB67
 2787 01d8 9007     		.uleb128 .L126-.LFB1133
 2788 01da 00       		.uleb128 0
 2789 01db 8607     		.uleb128 .LEHB68-.LFB1133
 2790 01dd 05       		.uleb128 .LEHE68-.LEHB68
 2791 01de 9A07     		.uleb128 .L117-.LFB1133
 2792 01e0 00       		.uleb128 0
 2793 01e1 B207     		.uleb128 .LEHB69-.LFB1133
 2794 01e3 05       		.uleb128 .LEHE69-.LEHB69
 2795 01e4 00       		.uleb128 0
 2796 01e5 00       		.uleb128 0
 2797              	.LLSDACSE1133:
 2798 01e6 01       		.byte	0x1
 2799 01e7 00       		.byte	0
 2800              		.align 4
 2801 01e8 00000000 		.long	0
 2802              	
 2803              	.LLSDATT1133:
 2804              		.text
 2806              		.section	.rodata
 2807              	.LC30:
 2808 04e1 43686563 		.string	"CheckCloseTrue"
 2808      6B436C6F 
 2808      73655472 
 2808      756500
 2809              		.text
 2810              		.align 2
 2812              	_ZN12_GLOBAL__N_118TestCheckCloseTrueC2Ev:
 2813              	.LFB1135:
  98:TestChecks.cpp **** 
  99:TestChecks.cpp **** TEST(CheckCloseTrue)
 2814              		.loc 5 99 0
 2815              		.cfi_startproc
 2816 1200 55       		pushq	%rbp
 2817              		.cfi_def_cfa_offset 16
 2818              		.cfi_offset 6, -16
 2819 1201 4889E5   		movq	%rsp, %rbp
 2820              		.cfi_def_cfa_register 6
 2821 1204 53       		pushq	%rbx
 2822 1205 4883EC18 		subq	$24, %rsp
 2823              		.cfi_offset 3, -24
 2824 1209 48897DE8 		movq	%rdi, -24(%rbp)
 2825              	.LBB15:
 2826              		.loc 5 99 0
 2827 120d 488B5DE8 		movq	-24(%rbp), %rbx
 2828 1211 E8000000 		call	_ZN13UnitTestSuite12GetSuiteNameEv
 2828      00
 2829 1216 41B86300 		movl	$99, %r8d
 2829      0000
 2830 121c 488D0D00 		leaq	.LC2(%rip), %rcx
 2830      000000
 2831 1223 4889C2   		movq	%rax, %rdx
 2832 1226 488D3500 		leaq	.LC30(%rip), %rsi
 2832      000000
 2833 122d 4889DF   		movq	%rbx, %rdi
 2834 1230 E8000000 		call	_ZN8UnitTest4TestC2EPKcS2_S2_i@PLT
 2834      00
 2835 1235 488D1500 		leaq	16+_ZTVN12_GLOBAL__N_118TestCheckCloseTrueE(%rip), %rdx
 2835      000000
 2836 123c 488B45E8 		movq	-24(%rbp), %rax
 2837 1240 488910   		movq	%rdx, (%rax)
 2838              	.LBE15:
 2839 1243 90       		nop
 2840 1244 4883C418 		addq	$24, %rsp
 2841 1248 5B       		popq	%rbx
 2842 1249 5D       		popq	%rbp
 2843              		.cfi_def_cfa 7, 8
 2844 124a C3       		ret
 2845              		.cfi_endproc
 2846              	.LFE1135:
 2848              		.set	_ZN12_GLOBAL__N_118TestCheckCloseTrueC1Ev,_ZN12_GLOBAL__N_118TestCheckCloseTrueC2Ev
 2849              		.local	_ZN12_GLOBAL__N_126testCheckCloseTrueInstanceE
 2850              		.comm	_ZN12_GLOBAL__N_126testCheckCloseTrueInstanceE,56,32
 2851              		.local	_ZN12_GLOBAL__N_119adderCheckCloseTrueE
 2852              		.comm	_ZN12_GLOBAL__N_119adderCheckCloseTrueE,1,1
 2853 124b 90       		.align 2
 2855              	_ZNK12_GLOBAL__N_118TestCheckCloseTrue7RunImplEv:
 2856              	.LFB1137:
 100:TestChecks.cpp **** {
 2857              		.loc 5 100 0
 2858              		.cfi_startproc
 2859              		.cfi_personality 0x9b,DW.ref.__gxx_personality_v0
 2860              		.cfi_lsda 0x1b,.LLSDA1137
 2861 124c 55       		pushq	%rbp
 2862              		.cfi_def_cfa_offset 16
 2863              		.cfi_offset 6, -16
 2864 124d 4889E5   		movq	%rsp, %rbp
 2865              		.cfi_def_cfa_register 6
 2866 1250 53       		pushq	%rbx
 2867 1251 4883EC78 		subq	$120, %rsp
 2868              		.cfi_offset 3, -24
 2869 1255 48897D88 		movq	%rdi, -120(%rbp)
 2870              		.loc 5 100 0
 2871 1259 64488B04 		movq	%fs:40, %rax
 2871      25280000 
 2871      00
 2872 1262 488945E8 		movq	%rax, -24(%rbp)
 2873 1266 31C0     		xorl	%eax, %eax
 101:TestChecks.cpp ****     TestResults results;
 2874              		.loc 5 101 0
 2875 1268 488D45A0 		leaq	-96(%rbp), %rax
 2876 126c BE000000 		movl	$0, %esi
 2876      00
 2877 1271 4889C7   		movq	%rax, %rdi
 2878              	.LEHB70:
 2879 1274 E8000000 		call	_ZN8UnitTest11TestResultsC1EPNS_12TestReporterE@PLT
 2879      00
 102:TestChecks.cpp ****     CheckClose(results, 3.001f, 3.0f, 0.1f, TestDetails("", "", "", 0));
 2880              		.loc 5 102 0
 2881 1279 488D45C0 		leaq	-64(%rbp), %rax
 2882 127d 41B80000 		movl	$0, %r8d
 2882      0000
 2883 1283 488D0D00 		leaq	.LC6(%rip), %rcx
 2883      000000
 2884 128a 488D1500 		leaq	.LC6(%rip), %rdx
 2884      000000
 2885 1291 488D3500 		leaq	.LC6(%rip), %rsi
 2885      000000
 2886 1298 4889C7   		movq	%rax, %rdi
 2887 129b E8000000 		call	_ZN8UnitTest11TestDetailsC1EPKcS2_S2_i@PLT
 2887      00
 2888 12a0 F30F1005 		movss	.LC31(%rip), %xmm0
 2888      00000000 
 2889 12a8 F30F1145 		movss	%xmm0, -100(%rbp)
 2889      9C
 2890 12ad F30F1005 		movss	.LC32(%rip), %xmm0
 2890      00000000 
 2891 12b5 F30F1145 		movss	%xmm0, -104(%rbp)
 2891      98
 2892 12ba F30F1005 		movss	.LC33(%rip), %xmm0
 2892      00000000 
 2893 12c2 F30F1145 		movss	%xmm0, -108(%rbp)
 2893      94
 2894 12c7 488D7DC0 		leaq	-64(%rbp), %rdi
 2895 12cb 488D4D9C 		leaq	-100(%rbp), %rcx
 2896 12cf 488D5598 		leaq	-104(%rbp), %rdx
 2897 12d3 488D7594 		leaq	-108(%rbp), %rsi
 2898 12d7 488D45A0 		leaq	-96(%rbp), %rax
 2899 12db 4989F8   		movq	%rdi, %r8
 2900 12de 4889C7   		movq	%rax, %rdi
 2901 12e1 E8000000 		call	_ZN8UnitTest10CheckCloseIfffEEvRNS_11TestResultsERKT_RKT0_RKT1_RKNS_11TestDetailsE
 2901      00
 2902              	.LEHE70:
 2903              	.LEHB71:
 103:TestChecks.cpp ****     CHECK_EQUAL(0, results.GetFailureCount());
 2904              		.loc 5 103 0
 2905 12e6 E8000000 		call	_ZN8UnitTest11CurrentTest7DetailsEv@PLT
 2905      00
 2906 12eb 488B08   		movq	(%rax), %rcx
 2907 12ee 488D45C0 		leaq	-64(%rbp), %rax
 2908 12f2 BA670000 		movl	$103, %edx
 2908      00
 2909 12f7 4889CE   		movq	%rcx, %rsi
 2910 12fa 4889C7   		movq	%rax, %rdi
 2911 12fd E8000000 		call	_ZN8UnitTest11TestDetailsC1ERKS0_i@PLT
 2911      00
 2912              		.loc 5 103 0 is_stmt 0 discriminator 2
 2913 1302 488D45A0 		leaq	-96(%rbp), %rax
 2914 1306 4889C7   		movq	%rax, %rdi
 2915 1309 E8000000 		call	_ZNK8UnitTest11TestResults15GetFailureCountEv@PLT
 2915      00
 2916              	.LEHE71:
 2917 130e 89459C   		movl	%eax, -100(%rbp)
 2918 1311 C7459800 		movl	$0, -104(%rbp)
 2918      000000
 2919              	.LEHB72:
 2920 1318 E8000000 		call	_ZN8UnitTest11CurrentTest7ResultsEv@PLT
 2920      00
 2921              		.loc 5 103 0 discriminator 4
 2922 131d 488B00   		movq	(%rax), %rax
 2923 1320 488D4DC0 		leaq	-64(%rbp), %rcx
 2924 1324 488D559C 		leaq	-100(%rbp), %rdx
 2925 1328 488D7598 		leaq	-104(%rbp), %rsi
 2926 132c 4889C7   		movq	%rax, %rdi
 2927 132f E8000000 		call	_ZN8UnitTest10CheckEqualIiiEEvRNS_11TestResultsERKT_RKT0_RKNS_11TestDetailsE
 2927      00
 2928              	.LEHE72:
 104:TestChecks.cpp **** }
 2929              		.loc 5 104 0 is_stmt 1
 2930 1334 EB5E     		jmp	.L129
 2931              	.L136:
 2932 1336 EB00     		jmp	.L131
 2933              	.L135:
 2934              	.L131:
 103:TestChecks.cpp ****     CHECK_EQUAL(0, results.GetFailureCount());
 2935              		.loc 5 103 0
 2936 1338 4889C7   		movq	%rax, %rdi
 2937 133b E8000000 		call	__cxa_begin_catch@PLT
 2937      00
 2938              	.LEHB73:
 2939 1340 E8000000 		call	_ZN8UnitTest11CurrentTest7ResultsEv@PLT
 2939      00
 2940 1345 488B18   		movq	(%rax), %rbx
 2941 1348 E8000000 		call	_ZN8UnitTest11CurrentTest7DetailsEv@PLT
 2941      00
 103:TestChecks.cpp ****     CHECK_EQUAL(0, results.GetFailureCount());
 2942              		.loc 5 103 0 is_stmt 0 discriminator 10
 2943 134d 488B08   		movq	(%rax), %rcx
 2944 1350 488D45C0 		leaq	-64(%rbp), %rax
 2945 1354 BA670000 		movl	$103, %edx
 2945      00
 2946 1359 4889CE   		movq	%rcx, %rsi
 2947 135c 4889C7   		movq	%rax, %rdi
 2948 135f E8000000 		call	_ZN8UnitTest11TestDetailsC1ERKS0_i@PLT
 2948      00
 103:TestChecks.cpp ****     CHECK_EQUAL(0, results.GetFailureCount());
 2949              		.loc 5 103 0 discriminator 14
 2950 1364 488D45C0 		leaq	-64(%rbp), %rax
 2951 1368 488D1500 		leaq	.LC9(%rip), %rdx
 2951      000000
 2952 136f 4889C6   		movq	%rax, %rsi
 2953 1372 4889DF   		movq	%rbx, %rdi
 2954 1375 E8000000 		call	_ZN8UnitTest11TestResults13OnTestFailureERKNS_11TestDetailsEPKc@PLT
 2954      00
 2955              	.LEHE73:
 2956              	.LEHB74:
 103:TestChecks.cpp ****     CHECK_EQUAL(0, results.GetFailureCount());
 2957              		.loc 5 103 0 discriminator 16
 2958 137a E8000000 		call	__cxa_end_catch@PLT
 2958      00
 2959              	.LEHE74:
 2960              		.loc 5 104 0 is_stmt 1 discriminator 16
 2961 137f EB13     		jmp	.L129
 2962              	.L137:
 2963 1381 4889C3   		movq	%rax, %rbx
 103:TestChecks.cpp ****     CHECK_EQUAL(0, results.GetFailureCount());
 2964              		.loc 5 103 0
 2965 1384 E8000000 		call	__cxa_end_catch@PLT
 2965      00
 2966 1389 4889D8   		movq	%rbx, %rax
 2967 138c 4889C7   		movq	%rax, %rdi
 2968              	.LEHB75:
 2969 138f E8000000 		call	_Unwind_Resume@PLT
 2969      00
 2970              	.LEHE75:
 2971              	.L129:
 2972              		.loc 5 104 0
 2973 1394 488B45E8 		movq	-24(%rbp), %rax
 2974 1398 64483304 		xorq	%fs:40, %rax
 2974      25280000 
 2974      00
 2975 13a1 7405     		je	.L134
 2976 13a3 E8000000 		call	__stack_chk_fail@PLT
 2976      00
 2977              	.L134:
 2978 13a8 4883C478 		addq	$120, %rsp
 2979 13ac 5B       		popq	%rbx
 2980 13ad 5D       		popq	%rbp
 2981              		.cfi_def_cfa 7, 8
 2982 13ae C3       		ret
 2983              		.cfi_endproc
 2984              	.LFE1137:
 2985              		.section	.gcc_except_table
 2986              		.align 4
 2987              	.LLSDA1137:
 2988 01ec FF       		.byte	0xff
 2989 01ed 9B       		.byte	0x9b
 2990 01ee 2D       		.uleb128 .LLSDATT1137-.LLSDATTD1137
 2991              	.LLSDATTD1137:
 2992 01ef 01       		.byte	0x1
 2993 01f0 20       		.uleb128 .LLSDACSE1137-.LLSDACSB1137
 2994              	.LLSDACSB1137:
 2995 01f1 28       		.uleb128 .LEHB70-.LFB1137
 2996 01f2 72       		.uleb128 .LEHE70-.LEHB70
 2997 01f3 00       		.uleb128 0
 2998 01f4 00       		.uleb128 0
 2999 01f5 9A01     		.uleb128 .LEHB71-.LFB1137
 3000 01f7 28       		.uleb128 .LEHE71-.LEHB71
 3001 01f8 EC01     		.uleb128 .L135-.LFB1137
 3002 01fa 01       		.uleb128 0x1
 3003 01fb CC01     		.uleb128 .LEHB72-.LFB1137
 3004 01fd 1C       		.uleb128 .LEHE72-.LEHB72
 3005 01fe EA01     		.uleb128 .L136-.LFB1137
 3006 0200 03       		.uleb128 0x3
 3007 0201 F401     		.uleb128 .LEHB73-.LFB1137
 3008 0203 3A       		.uleb128 .LEHE73-.LEHB73
 3009 0204 B502     		.uleb128 .L137-.LFB1137
 3010 0206 00       		.uleb128 0
 3011 0207 AE02     		.uleb128 .LEHB74-.LFB1137
 3012 0209 05       		.uleb128 .LEHE74-.LEHB74
 3013 020a 00       		.uleb128 0
 3014 020b 00       		.uleb128 0
 3015 020c C302     		.uleb128 .LEHB75-.LFB1137
 3016 020e 05       		.uleb128 .LEHE75-.LEHB75
 3017 020f 00       		.uleb128 0
 3018 0210 00       		.uleb128 0
 3019              	.LLSDACSE1137:
 3020 0211 01       		.byte	0x1
 3021 0212 00       		.byte	0
 3022 0213 00       		.byte	0
 3023 0214 7D       		.byte	0x7d
 3024 0215 000000   		.align 4
 3025 0218 00000000 		.long	0
 3026              	
 3027              	.LLSDATT1137:
 3028              		.text
 3030              		.section	.rodata
 3031              	.LC34:
 3032 04f0 43686563 		.string	"CheckCloseFalse"
 3032      6B436C6F 
 3032      73654661 
 3032      6C736500 
 3033              		.text
 3034 13af 90       		.align 2
 3036              	_ZN12_GLOBAL__N_119TestCheckCloseFalseC2Ev:
 3037              	.LFB1139:
 105:TestChecks.cpp **** 
 106:TestChecks.cpp **** TEST(CheckCloseFalse)
 3038              		.loc 5 106 0
 3039              		.cfi_startproc
 3040 13b0 55       		pushq	%rbp
 3041              		.cfi_def_cfa_offset 16
 3042              		.cfi_offset 6, -16
 3043 13b1 4889E5   		movq	%rsp, %rbp
 3044              		.cfi_def_cfa_register 6
 3045 13b4 53       		pushq	%rbx
 3046 13b5 4883EC18 		subq	$24, %rsp
 3047              		.cfi_offset 3, -24
 3048 13b9 48897DE8 		movq	%rdi, -24(%rbp)
 3049              	.LBB16:
 3050              		.loc 5 106 0
 3051 13bd 488B5DE8 		movq	-24(%rbp), %rbx
 3052 13c1 E8000000 		call	_ZN13UnitTestSuite12GetSuiteNameEv
 3052      00
 3053 13c6 41B86A00 		movl	$106, %r8d
 3053      0000
 3054 13cc 488D0D00 		leaq	.LC2(%rip), %rcx
 3054      000000
 3055 13d3 4889C2   		movq	%rax, %rdx
 3056 13d6 488D3500 		leaq	.LC34(%rip), %rsi
 3056      000000
 3057 13dd 4889DF   		movq	%rbx, %rdi
 3058 13e0 E8000000 		call	_ZN8UnitTest4TestC2EPKcS2_S2_i@PLT
 3058      00
 3059 13e5 488D1500 		leaq	16+_ZTVN12_GLOBAL__N_119TestCheckCloseFalseE(%rip), %rdx
 3059      000000
 3060 13ec 488B45E8 		movq	-24(%rbp), %rax
 3061 13f0 488910   		movq	%rdx, (%rax)
 3062              	.LBE16:
 3063 13f3 90       		nop
 3064 13f4 4883C418 		addq	$24, %rsp
 3065 13f8 5B       		popq	%rbx
 3066 13f9 5D       		popq	%rbp
 3067              		.cfi_def_cfa 7, 8
 3068 13fa C3       		ret
 3069              		.cfi_endproc
 3070              	.LFE1139:
 3072              		.set	_ZN12_GLOBAL__N_119TestCheckCloseFalseC1Ev,_ZN12_GLOBAL__N_119TestCheckCloseFalseC2Ev
 3073              		.local	_ZN12_GLOBAL__N_127testCheckCloseFalseInstanceE
 3074              		.comm	_ZN12_GLOBAL__N_127testCheckCloseFalseInstanceE,56,32
 3075              		.local	_ZN12_GLOBAL__N_120adderCheckCloseFalseE
 3076              		.comm	_ZN12_GLOBAL__N_120adderCheckCloseFalseE,1,1
 3077 13fb 90       		.align 2
 3079              	_ZNK12_GLOBAL__N_119TestCheckCloseFalse7RunImplEv:
 3080              	.LFB1141:
 107:TestChecks.cpp **** {
 3081              		.loc 5 107 0
 3082              		.cfi_startproc
 3083              		.cfi_personality 0x9b,DW.ref.__gxx_personality_v0
 3084              		.cfi_lsda 0x1b,.LLSDA1141
 3085 13fc 55       		pushq	%rbp
 3086              		.cfi_def_cfa_offset 16
 3087              		.cfi_offset 6, -16
 3088 13fd 4889E5   		movq	%rsp, %rbp
 3089              		.cfi_def_cfa_register 6
 3090 1400 53       		pushq	%rbx
 3091 1401 4883EC78 		subq	$120, %rsp
 3092              		.cfi_offset 3, -24
 3093 1405 48897D88 		movq	%rdi, -120(%rbp)
 3094              		.loc 5 107 0
 3095 1409 64488B04 		movq	%fs:40, %rax
 3095      25280000 
 3095      00
 3096 1412 488945E8 		movq	%rax, -24(%rbp)
 3097 1416 31C0     		xorl	%eax, %eax
 108:TestChecks.cpp ****     TestResults results;
 3098              		.loc 5 108 0
 3099 1418 488D45A0 		leaq	-96(%rbp), %rax
 3100 141c BE000000 		movl	$0, %esi
 3100      00
 3101 1421 4889C7   		movq	%rax, %rdi
 3102              	.LEHB76:
 3103 1424 E8000000 		call	_ZN8UnitTest11TestResultsC1EPNS_12TestReporterE@PLT
 3103      00
 109:TestChecks.cpp ****     CheckClose(results, 3.12f, 3.0f, 0.1f, TestDetails("", "", "", 0));
 3104              		.loc 5 109 0
 3105 1429 488D45C0 		leaq	-64(%rbp), %rax
 3106 142d 41B80000 		movl	$0, %r8d
 3106      0000
 3107 1433 488D0D00 		leaq	.LC6(%rip), %rcx
 3107      000000
 3108 143a 488D1500 		leaq	.LC6(%rip), %rdx
 3108      000000
 3109 1441 488D3500 		leaq	.LC6(%rip), %rsi
 3109      000000
 3110 1448 4889C7   		movq	%rax, %rdi
 3111 144b E8000000 		call	_ZN8UnitTest11TestDetailsC1EPKcS2_S2_i@PLT
 3111      00
 3112 1450 F30F1005 		movss	.LC31(%rip), %xmm0
 3112      00000000 
 3113 1458 F30F1145 		movss	%xmm0, -100(%rbp)
 3113      9C
 3114 145d F30F1005 		movss	.LC32(%rip), %xmm0
 3114      00000000 
 3115 1465 F30F1145 		movss	%xmm0, -104(%rbp)
 3115      98
 3116 146a F30F1005 		movss	.LC35(%rip), %xmm0
 3116      00000000 
 3117 1472 F30F1145 		movss	%xmm0, -108(%rbp)
 3117      94
 3118 1477 488D7DC0 		leaq	-64(%rbp), %rdi
 3119 147b 488D4D9C 		leaq	-100(%rbp), %rcx
 3120 147f 488D5598 		leaq	-104(%rbp), %rdx
 3121 1483 488D7594 		leaq	-108(%rbp), %rsi
 3122 1487 488D45A0 		leaq	-96(%rbp), %rax
 3123 148b 4989F8   		movq	%rdi, %r8
 3124 148e 4889C7   		movq	%rax, %rdi
 3125 1491 E8000000 		call	_ZN8UnitTest10CheckCloseIfffEEvRNS_11TestResultsERKT_RKT0_RKT1_RKNS_11TestDetailsE
 3125      00
 3126              	.LEHE76:
 3127              	.LEHB77:
 110:TestChecks.cpp ****     CHECK_EQUAL(1, results.GetFailureCount());
 3128              		.loc 5 110 0
 3129 1496 E8000000 		call	_ZN8UnitTest11CurrentTest7DetailsEv@PLT
 3129      00
 3130 149b 488B08   		movq	(%rax), %rcx
 3131 149e 488D45C0 		leaq	-64(%rbp), %rax
 3132 14a2 BA6E0000 		movl	$110, %edx
 3132      00
 3133 14a7 4889CE   		movq	%rcx, %rsi
 3134 14aa 4889C7   		movq	%rax, %rdi
 3135 14ad E8000000 		call	_ZN8UnitTest11TestDetailsC1ERKS0_i@PLT
 3135      00
 3136              		.loc 5 110 0 is_stmt 0 discriminator 2
 3137 14b2 488D45A0 		leaq	-96(%rbp), %rax
 3138 14b6 4889C7   		movq	%rax, %rdi
 3139 14b9 E8000000 		call	_ZNK8UnitTest11TestResults15GetFailureCountEv@PLT
 3139      00
 3140              	.LEHE77:
 3141 14be 89459C   		movl	%eax, -100(%rbp)
 3142 14c1 C7459801 		movl	$1, -104(%rbp)
 3142      000000
 3143              	.LEHB78:
 3144 14c8 E8000000 		call	_ZN8UnitTest11CurrentTest7ResultsEv@PLT
 3144      00
 3145              		.loc 5 110 0 discriminator 4
 3146 14cd 488B00   		movq	(%rax), %rax
 3147 14d0 488D4DC0 		leaq	-64(%rbp), %rcx
 3148 14d4 488D559C 		leaq	-100(%rbp), %rdx
 3149 14d8 488D7598 		leaq	-104(%rbp), %rsi
 3150 14dc 4889C7   		movq	%rax, %rdi
 3151 14df E8000000 		call	_ZN8UnitTest10CheckEqualIiiEEvRNS_11TestResultsERKT_RKT0_RKNS_11TestDetailsE
 3151      00
 3152              	.LEHE78:
 111:TestChecks.cpp **** }
 3153              		.loc 5 111 0 is_stmt 1
 3154 14e4 EB5E     		jmp	.L139
 3155              	.L146:
 3156 14e6 EB00     		jmp	.L141
 3157              	.L145:
 3158              	.L141:
 110:TestChecks.cpp ****     CHECK_EQUAL(1, results.GetFailureCount());
 3159              		.loc 5 110 0
 3160 14e8 4889C7   		movq	%rax, %rdi
 3161 14eb E8000000 		call	__cxa_begin_catch@PLT
 3161      00
 3162              	.LEHB79:
 3163 14f0 E8000000 		call	_ZN8UnitTest11CurrentTest7ResultsEv@PLT
 3163      00
 3164 14f5 488B18   		movq	(%rax), %rbx
 3165 14f8 E8000000 		call	_ZN8UnitTest11CurrentTest7DetailsEv@PLT
 3165      00
 110:TestChecks.cpp ****     CHECK_EQUAL(1, results.GetFailureCount());
 3166              		.loc 5 110 0 is_stmt 0 discriminator 10
 3167 14fd 488B08   		movq	(%rax), %rcx
 3168 1500 488D45C0 		leaq	-64(%rbp), %rax
 3169 1504 BA6E0000 		movl	$110, %edx
 3169      00
 3170 1509 4889CE   		movq	%rcx, %rsi
 3171 150c 4889C7   		movq	%rax, %rdi
 3172 150f E8000000 		call	_ZN8UnitTest11TestDetailsC1ERKS0_i@PLT
 3172      00
 110:TestChecks.cpp ****     CHECK_EQUAL(1, results.GetFailureCount());
 3173              		.loc 5 110 0 discriminator 14
 3174 1514 488D45C0 		leaq	-64(%rbp), %rax
 3175 1518 488D1500 		leaq	.LC7(%rip), %rdx
 3175      000000
 3176 151f 4889C6   		movq	%rax, %rsi
 3177 1522 4889DF   		movq	%rbx, %rdi
 3178 1525 E8000000 		call	_ZN8UnitTest11TestResults13OnTestFailureERKNS_11TestDetailsEPKc@PLT
 3178      00
 3179              	.LEHE79:
 3180              	.LEHB80:
 110:TestChecks.cpp ****     CHECK_EQUAL(1, results.GetFailureCount());
 3181              		.loc 5 110 0 discriminator 16
 3182 152a E8000000 		call	__cxa_end_catch@PLT
 3182      00
 3183              	.LEHE80:
 3184              		.loc 5 111 0 is_stmt 1 discriminator 16
 3185 152f EB13     		jmp	.L139
 3186              	.L147:
 3187 1531 4889C3   		movq	%rax, %rbx
 110:TestChecks.cpp ****     CHECK_EQUAL(1, results.GetFailureCount());
 3188              		.loc 5 110 0
 3189 1534 E8000000 		call	__cxa_end_catch@PLT
 3189      00
 3190 1539 4889D8   		movq	%rbx, %rax
 3191 153c 4889C7   		movq	%rax, %rdi
 3192              	.LEHB81:
 3193 153f E8000000 		call	_Unwind_Resume@PLT
 3193      00
 3194              	.LEHE81:
 3195              	.L139:
 3196              		.loc 5 111 0
 3197 1544 488B45E8 		movq	-24(%rbp), %rax
 3198 1548 64483304 		xorq	%fs:40, %rax
 3198      25280000 
 3198      00
 3199 1551 7405     		je	.L144
 3200 1553 E8000000 		call	__stack_chk_fail@PLT
 3200      00
 3201              	.L144:
 3202 1558 4883C478 		addq	$120, %rsp
 3203 155c 5B       		popq	%rbx
 3204 155d 5D       		popq	%rbp
 3205              		.cfi_def_cfa 7, 8
 3206 155e C3       		ret
 3207              		.cfi_endproc
 3208              	.LFE1141:
 3209              		.section	.gcc_except_table
 3210              		.align 4
 3211              	.LLSDA1141:
 3212 021c FF       		.byte	0xff
 3213 021d 9B       		.byte	0x9b
 3214 021e 2D       		.uleb128 .LLSDATT1141-.LLSDATTD1141
 3215              	.LLSDATTD1141:
 3216 021f 01       		.byte	0x1
 3217 0220 20       		.uleb128 .LLSDACSE1141-.LLSDACSB1141
 3218              	.LLSDACSB1141:
 3219 0221 28       		.uleb128 .LEHB76-.LFB1141
 3220 0222 72       		.uleb128 .LEHE76-.LEHB76
 3221 0223 00       		.uleb128 0
 3222 0224 00       		.uleb128 0
 3223 0225 9A01     		.uleb128 .LEHB77-.LFB1141
 3224 0227 28       		.uleb128 .LEHE77-.LEHB77
 3225 0228 EC01     		.uleb128 .L145-.LFB1141
 3226 022a 01       		.uleb128 0x1
 3227 022b CC01     		.uleb128 .LEHB78-.LFB1141
 3228 022d 1C       		.uleb128 .LEHE78-.LEHB78
 3229 022e EA01     		.uleb128 .L146-.LFB1141
 3230 0230 03       		.uleb128 0x3
 3231 0231 F401     		.uleb128 .LEHB79-.LFB1141
 3232 0233 3A       		.uleb128 .LEHE79-.LEHB79
 3233 0234 B502     		.uleb128 .L147-.LFB1141
 3234 0236 00       		.uleb128 0
 3235 0237 AE02     		.uleb128 .LEHB80-.LFB1141
 3236 0239 05       		.uleb128 .LEHE80-.LEHB80
 3237 023a 00       		.uleb128 0
 3238 023b 00       		.uleb128 0
 3239 023c C302     		.uleb128 .LEHB81-.LFB1141
 3240 023e 05       		.uleb128 .LEHE81-.LEHB81
 3241 023f 00       		.uleb128 0
 3242 0240 00       		.uleb128 0
 3243              	.LLSDACSE1141:
 3244 0241 01       		.byte	0x1
 3245 0242 00       		.byte	0
 3246 0243 00       		.byte	0
 3247 0244 7D       		.byte	0x7d
 3248 0245 000000   		.align 4
 3249 0248 00000000 		.long	0
 3250              	
 3251              	.LLSDATT1141:
 3252              		.text
 3254              		.section	.rodata
 3255              		.align 8
 3256              	.LC36:
 3257 0500 43686563 		.string	"CheckCloseWithZeroEpsilonWorksForSameNumber"
 3257      6B436C6F 
 3257      73655769 
 3257      74685A65 
 3257      726F4570 
 3258              		.text
 3259 155f 90       		.align 2
 3261              	_ZN12_GLOBAL__N_147TestCheckCloseWithZeroEpsilonWorksForSameNumberC2Ev:
 3262              	.LFB1143:
 112:TestChecks.cpp **** 
 113:TestChecks.cpp **** TEST(CheckCloseWithZeroEpsilonWorksForSameNumber)
 3263              		.loc 5 113 0
 3264              		.cfi_startproc
 3265 1560 55       		pushq	%rbp
 3266              		.cfi_def_cfa_offset 16
 3267              		.cfi_offset 6, -16
 3268 1561 4889E5   		movq	%rsp, %rbp
 3269              		.cfi_def_cfa_register 6
 3270 1564 53       		pushq	%rbx
 3271 1565 4883EC18 		subq	$24, %rsp
 3272              		.cfi_offset 3, -24
 3273 1569 48897DE8 		movq	%rdi, -24(%rbp)
 3274              	.LBB17:
 3275              		.loc 5 113 0
 3276 156d 488B5DE8 		movq	-24(%rbp), %rbx
 3277 1571 E8000000 		call	_ZN13UnitTestSuite12GetSuiteNameEv
 3277      00
 3278 1576 41B87100 		movl	$113, %r8d
 3278      0000
 3279 157c 488D0D00 		leaq	.LC2(%rip), %rcx
 3279      000000
 3280 1583 4889C2   		movq	%rax, %rdx
 3281 1586 488D3500 		leaq	.LC36(%rip), %rsi
 3281      000000
 3282 158d 4889DF   		movq	%rbx, %rdi
 3283 1590 E8000000 		call	_ZN8UnitTest4TestC2EPKcS2_S2_i@PLT
 3283      00
 3284 1595 488D1500 		leaq	16+_ZTVN12_GLOBAL__N_147TestCheckCloseWithZeroEpsilonWorksForSameNumberE(%rip), %rdx
 3284      000000
 3285 159c 488B45E8 		movq	-24(%rbp), %rax
 3286 15a0 488910   		movq	%rdx, (%rax)
 3287              	.LBE17:
 3288 15a3 90       		nop
 3289 15a4 4883C418 		addq	$24, %rsp
 3290 15a8 5B       		popq	%rbx
 3291 15a9 5D       		popq	%rbp
 3292              		.cfi_def_cfa 7, 8
 3293 15aa C3       		ret
 3294              		.cfi_endproc
 3295              	.LFE1143:
 3297              		.set	_ZN12_GLOBAL__N_147TestCheckCloseWithZeroEpsilonWorksForSameNumberC1Ev,_ZN12_GLOBAL__N_147Tes
 3298              		.local	_ZN12_GLOBAL__N_155testCheckCloseWithZeroEpsilonWorksForSameNumberInstanceE
 3299              		.comm	_ZN12_GLOBAL__N_155testCheckCloseWithZeroEpsilonWorksForSameNumberInstanceE,56,32
 3300              		.local	_ZN12_GLOBAL__N_148adderCheckCloseWithZeroEpsilonWorksForSameNumberE
 3301              		.comm	_ZN12_GLOBAL__N_148adderCheckCloseWithZeroEpsilonWorksForSameNumberE,1,1
 3302 15ab 90       		.align 2
 3304              	_ZNK12_GLOBAL__N_147TestCheckCloseWithZeroEpsilonWorksForSameNumber7RunImplEv:
 3305              	.LFB1145:
 114:TestChecks.cpp **** {
 3306              		.loc 5 114 0
 3307              		.cfi_startproc
 3308              		.cfi_personality 0x9b,DW.ref.__gxx_personality_v0
 3309              		.cfi_lsda 0x1b,.LLSDA1145
 3310 15ac 55       		pushq	%rbp
 3311              		.cfi_def_cfa_offset 16
 3312              		.cfi_offset 6, -16
 3313 15ad 4889E5   		movq	%rsp, %rbp
 3314              		.cfi_def_cfa_register 6
 3315 15b0 53       		pushq	%rbx
 3316 15b1 4883EC78 		subq	$120, %rsp
 3317              		.cfi_offset 3, -24
 3318 15b5 48897D88 		movq	%rdi, -120(%rbp)
 3319              		.loc 5 114 0
 3320 15b9 64488B04 		movq	%fs:40, %rax
 3320      25280000 
 3320      00
 3321 15c2 488945E8 		movq	%rax, -24(%rbp)
 3322 15c6 31C0     		xorl	%eax, %eax
 115:TestChecks.cpp ****     TestResults results;
 3323              		.loc 5 115 0
 3324 15c8 488D45A0 		leaq	-96(%rbp), %rax
 3325 15cc BE000000 		movl	$0, %esi
 3325      00
 3326 15d1 4889C7   		movq	%rax, %rdi
 3327              	.LEHB82:
 3328 15d4 E8000000 		call	_ZN8UnitTest11TestResultsC1EPNS_12TestReporterE@PLT
 3328      00
 116:TestChecks.cpp ****     CheckClose(results, 0.1f, 0.1f, 0, TestDetails("", "", "", 0));
 3329              		.loc 5 116 0
 3330 15d9 488D45C0 		leaq	-64(%rbp), %rax
 3331 15dd 41B80000 		movl	$0, %r8d
 3331      0000
 3332 15e3 488D0D00 		leaq	.LC6(%rip), %rcx
 3332      000000
 3333 15ea 488D1500 		leaq	.LC6(%rip), %rdx
 3333      000000
 3334 15f1 488D3500 		leaq	.LC6(%rip), %rsi
 3334      000000
 3335 15f8 4889C7   		movq	%rax, %rdi
 3336 15fb E8000000 		call	_ZN8UnitTest11TestDetailsC1EPKcS2_S2_i@PLT
 3336      00
 3337 1600 C7459C00 		movl	$0, -100(%rbp)
 3337      000000
 3338 1607 F30F1005 		movss	.LC31(%rip), %xmm0
 3338      00000000 
 3339 160f F30F1145 		movss	%xmm0, -104(%rbp)
 3339      98
 3340 1614 F30F1005 		movss	.LC31(%rip), %xmm0
 3340      00000000 
 3341 161c F30F1145 		movss	%xmm0, -108(%rbp)
 3341      94
 3342 1621 488D7DC0 		leaq	-64(%rbp), %rdi
 3343 1625 488D4D9C 		leaq	-100(%rbp), %rcx
 3344 1629 488D5598 		leaq	-104(%rbp), %rdx
 3345 162d 488D7594 		leaq	-108(%rbp), %rsi
 3346 1631 488D45A0 		leaq	-96(%rbp), %rax
 3347 1635 4989F8   		movq	%rdi, %r8
 3348 1638 4889C7   		movq	%rax, %rdi
 3349 163b E8000000 		call	_ZN8UnitTest10CheckCloseIffiEEvRNS_11TestResultsERKT_RKT0_RKT1_RKNS_11TestDetailsE
 3349      00
 3350              	.LEHE82:
 3351              	.LEHB83:
 117:TestChecks.cpp ****     CHECK_EQUAL(0, results.GetFailureCount());
 3352              		.loc 5 117 0
 3353 1640 E8000000 		call	_ZN8UnitTest11CurrentTest7DetailsEv@PLT
 3353      00
 3354 1645 488B08   		movq	(%rax), %rcx
 3355 1648 488D45C0 		leaq	-64(%rbp), %rax
 3356 164c BA750000 		movl	$117, %edx
 3356      00
 3357 1651 4889CE   		movq	%rcx, %rsi
 3358 1654 4889C7   		movq	%rax, %rdi
 3359 1657 E8000000 		call	_ZN8UnitTest11TestDetailsC1ERKS0_i@PLT
 3359      00
 3360              		.loc 5 117 0 is_stmt 0 discriminator 2
 3361 165c 488D45A0 		leaq	-96(%rbp), %rax
 3362 1660 4889C7   		movq	%rax, %rdi
 3363 1663 E8000000 		call	_ZNK8UnitTest11TestResults15GetFailureCountEv@PLT
 3363      00
 3364              	.LEHE83:
 3365 1668 89459C   		movl	%eax, -100(%rbp)
 3366 166b C7459800 		movl	$0, -104(%rbp)
 3366      000000
 3367              	.LEHB84:
 3368 1672 E8000000 		call	_ZN8UnitTest11CurrentTest7ResultsEv@PLT
 3368      00
 3369              		.loc 5 117 0 discriminator 4
 3370 1677 488B00   		movq	(%rax), %rax
 3371 167a 488D4DC0 		leaq	-64(%rbp), %rcx
 3372 167e 488D559C 		leaq	-100(%rbp), %rdx
 3373 1682 488D7598 		leaq	-104(%rbp), %rsi
 3374 1686 4889C7   		movq	%rax, %rdi
 3375 1689 E8000000 		call	_ZN8UnitTest10CheckEqualIiiEEvRNS_11TestResultsERKT_RKT0_RKNS_11TestDetailsE
 3375      00
 3376              	.LEHE84:
 118:TestChecks.cpp **** }
 3377              		.loc 5 118 0 is_stmt 1
 3378 168e EB5E     		jmp	.L149
 3379              	.L156:
 3380 1690 EB00     		jmp	.L151
 3381              	.L155:
 3382              	.L151:
 117:TestChecks.cpp ****     CHECK_EQUAL(0, results.GetFailureCount());
 3383              		.loc 5 117 0
 3384 1692 4889C7   		movq	%rax, %rdi
 3385 1695 E8000000 		call	__cxa_begin_catch@PLT
 3385      00
 3386              	.LEHB85:
 3387 169a E8000000 		call	_ZN8UnitTest11CurrentTest7ResultsEv@PLT
 3387      00
 3388 169f 488B18   		movq	(%rax), %rbx
 3389 16a2 E8000000 		call	_ZN8UnitTest11CurrentTest7DetailsEv@PLT
 3389      00
 117:TestChecks.cpp ****     CHECK_EQUAL(0, results.GetFailureCount());
 3390              		.loc 5 117 0 is_stmt 0 discriminator 10
 3391 16a7 488B08   		movq	(%rax), %rcx
 3392 16aa 488D45C0 		leaq	-64(%rbp), %rax
 3393 16ae BA750000 		movl	$117, %edx
 3393      00
 3394 16b3 4889CE   		movq	%rcx, %rsi
 3395 16b6 4889C7   		movq	%rax, %rdi
 3396 16b9 E8000000 		call	_ZN8UnitTest11TestDetailsC1ERKS0_i@PLT
 3396      00
 117:TestChecks.cpp ****     CHECK_EQUAL(0, results.GetFailureCount());
 3397              		.loc 5 117 0 discriminator 14
 3398 16be 488D45C0 		leaq	-64(%rbp), %rax
 3399 16c2 488D1500 		leaq	.LC9(%rip), %rdx
 3399      000000
 3400 16c9 4889C6   		movq	%rax, %rsi
 3401 16cc 4889DF   		movq	%rbx, %rdi
 3402 16cf E8000000 		call	_ZN8UnitTest11TestResults13OnTestFailureERKNS_11TestDetailsEPKc@PLT
 3402      00
 3403              	.LEHE85:
 3404              	.LEHB86:
 117:TestChecks.cpp ****     CHECK_EQUAL(0, results.GetFailureCount());
 3405              		.loc 5 117 0 discriminator 16
 3406 16d4 E8000000 		call	__cxa_end_catch@PLT
 3406      00
 3407              	.LEHE86:
 3408              		.loc 5 118 0 is_stmt 1 discriminator 16
 3409 16d9 EB13     		jmp	.L149
 3410              	.L157:
 3411 16db 4889C3   		movq	%rax, %rbx
 117:TestChecks.cpp ****     CHECK_EQUAL(0, results.GetFailureCount());
 3412              		.loc 5 117 0
 3413 16de E8000000 		call	__cxa_end_catch@PLT
 3413      00
 3414 16e3 4889D8   		movq	%rbx, %rax
 3415 16e6 4889C7   		movq	%rax, %rdi
 3416              	.LEHB87:
 3417 16e9 E8000000 		call	_Unwind_Resume@PLT
 3417      00
 3418              	.LEHE87:
 3419              	.L149:
 3420              		.loc 5 118 0
 3421 16ee 488B45E8 		movq	-24(%rbp), %rax
 3422 16f2 64483304 		xorq	%fs:40, %rax
 3422      25280000 
 3422      00
 3423 16fb 7405     		je	.L154
 3424 16fd E8000000 		call	__stack_chk_fail@PLT
 3424      00
 3425              	.L154:
 3426 1702 4883C478 		addq	$120, %rsp
 3427 1706 5B       		popq	%rbx
 3428 1707 5D       		popq	%rbp
 3429              		.cfi_def_cfa 7, 8
 3430 1708 C3       		ret
 3431              		.cfi_endproc
 3432              	.LFE1145:
 3433              		.section	.gcc_except_table
 3434              		.align 4
 3435              	.LLSDA1145:
 3436 024c FF       		.byte	0xff
 3437 024d 9B       		.byte	0x9b
 3438 024e 2D       		.uleb128 .LLSDATT1145-.LLSDATTD1145
 3439              	.LLSDATTD1145:
 3440 024f 01       		.byte	0x1
 3441 0250 20       		.uleb128 .LLSDACSE1145-.LLSDACSB1145
 3442              	.LLSDACSB1145:
 3443 0251 28       		.uleb128 .LEHB82-.LFB1145
 3444 0252 6C       		.uleb128 .LEHE82-.LEHB82
 3445 0253 00       		.uleb128 0
 3446 0254 00       		.uleb128 0
 3447 0255 9401     		.uleb128 .LEHB83-.LFB1145
 3448 0257 28       		.uleb128 .LEHE83-.LEHB83
 3449 0258 E601     		.uleb128 .L155-.LFB1145
 3450 025a 01       		.uleb128 0x1
 3451 025b C601     		.uleb128 .LEHB84-.LFB1145
 3452 025d 1C       		.uleb128 .LEHE84-.LEHB84
 3453 025e E401     		.uleb128 .L156-.LFB1145
 3454 0260 03       		.uleb128 0x3
 3455 0261 EE01     		.uleb128 .LEHB85-.LFB1145
 3456 0263 3A       		.uleb128 .LEHE85-.LEHB85
 3457 0264 AF02     		.uleb128 .L157-.LFB1145
 3458 0266 00       		.uleb128 0
 3459 0267 A802     		.uleb128 .LEHB86-.LFB1145
 3460 0269 05       		.uleb128 .LEHE86-.LEHB86
 3461 026a 00       		.uleb128 0
 3462 026b 00       		.uleb128 0
 3463 026c BD02     		.uleb128 .LEHB87-.LFB1145
 3464 026e 05       		.uleb128 .LEHE87-.LEHB87
 3465 026f 00       		.uleb128 0
 3466 0270 00       		.uleb128 0
 3467              	.LLSDACSE1145:
 3468 0271 01       		.byte	0x1
 3469 0272 00       		.byte	0
 3470 0273 00       		.byte	0
 3471 0274 7D       		.byte	0x7d
 3472 0275 000000   		.align 4
 3473 0278 00000000 		.long	0
 3474              	
 3475              	.LLSDATT1145:
 3476              		.text
 3478              		.section	.rodata
 3479              	.LC37:
 3480 052c 43686563 		.string	"CheckCloseWithNaNFails"
 3480      6B436C6F 
 3480      73655769 
 3480      74684E61 
 3480      4E466169 
 3481              		.text
 3482 1709 90       		.align 2
 3484              	_ZN12_GLOBAL__N_126TestCheckCloseWithNaNFailsC2Ev:
 3485              	.LFB1147:
 119:TestChecks.cpp **** 
 120:TestChecks.cpp **** TEST(CheckCloseWithNaNFails)
 3486              		.loc 5 120 0
 3487              		.cfi_startproc
 3488 170a 55       		pushq	%rbp
 3489              		.cfi_def_cfa_offset 16
 3490              		.cfi_offset 6, -16
 3491 170b 4889E5   		movq	%rsp, %rbp
 3492              		.cfi_def_cfa_register 6
 3493 170e 53       		pushq	%rbx
 3494 170f 4883EC18 		subq	$24, %rsp
 3495              		.cfi_offset 3, -24
 3496 1713 48897DE8 		movq	%rdi, -24(%rbp)
 3497              	.LBB18:
 3498              		.loc 5 120 0
 3499 1717 488B5DE8 		movq	-24(%rbp), %rbx
 3500 171b E8000000 		call	_ZN13UnitTestSuite12GetSuiteNameEv
 3500      00
 3501 1720 41B87800 		movl	$120, %r8d
 3501      0000
 3502 1726 488D0D00 		leaq	.LC2(%rip), %rcx
 3502      000000
 3503 172d 4889C2   		movq	%rax, %rdx
 3504 1730 488D3500 		leaq	.LC37(%rip), %rsi
 3504      000000
 3505 1737 4889DF   		movq	%rbx, %rdi
 3506 173a E8000000 		call	_ZN8UnitTest4TestC2EPKcS2_S2_i@PLT
 3506      00
 3507 173f 488D1500 		leaq	16+_ZTVN12_GLOBAL__N_126TestCheckCloseWithNaNFailsE(%rip), %rdx
 3507      000000
 3508 1746 488B45E8 		movq	-24(%rbp), %rax
 3509 174a 488910   		movq	%rdx, (%rax)
 3510              	.LBE18:
 3511 174d 90       		nop
 3512 174e 4883C418 		addq	$24, %rsp
 3513 1752 5B       		popq	%rbx
 3514 1753 5D       		popq	%rbp
 3515              		.cfi_def_cfa 7, 8
 3516 1754 C3       		ret
 3517              		.cfi_endproc
 3518              	.LFE1147:
 3520              		.set	_ZN12_GLOBAL__N_126TestCheckCloseWithNaNFailsC1Ev,_ZN12_GLOBAL__N_126TestCheckCloseWithNaNFai
 3521              		.local	_ZN12_GLOBAL__N_134testCheckCloseWithNaNFailsInstanceE
 3522              		.comm	_ZN12_GLOBAL__N_134testCheckCloseWithNaNFailsInstanceE,56,32
 3523              		.local	_ZN12_GLOBAL__N_127adderCheckCloseWithNaNFailsE
 3524              		.comm	_ZN12_GLOBAL__N_127adderCheckCloseWithNaNFailsE,1,1
 3525 1755 90       		.align 2
 3527              	_ZNK12_GLOBAL__N_126TestCheckCloseWithNaNFails7RunImplEv:
 3528              	.LFB1149:
 121:TestChecks.cpp **** {
 3529              		.loc 5 121 0
 3530              		.cfi_startproc
 3531              		.cfi_personality 0x9b,DW.ref.__gxx_personality_v0
 3532              		.cfi_lsda 0x1b,.LLSDA1149
 3533 1756 55       		pushq	%rbp
 3534              		.cfi_def_cfa_offset 16
 3535              		.cfi_offset 6, -16
 3536 1757 4889E5   		movq	%rsp, %rbp
 3537              		.cfi_def_cfa_register 6
 3538 175a 53       		pushq	%rbx
 3539 175b 4883EC78 		subq	$120, %rsp
 3540              		.cfi_offset 3, -24
 3541 175f 48897D88 		movq	%rdi, -120(%rbp)
 3542              		.loc 5 121 0
 3543 1763 64488B04 		movq	%fs:40, %rax
 3543      25280000 
 3543      00
 3544 176c 488945E8 		movq	%rax, -24(%rbp)
 3545 1770 31C0     		xorl	%eax, %eax
 122:TestChecks.cpp ****     union
 123:TestChecks.cpp ****     {
 124:TestChecks.cpp ****         unsigned int bitpattern;
 125:TestChecks.cpp ****         float nan;
 126:TestChecks.cpp ****     };
 127:TestChecks.cpp ****     bitpattern = 0xFFFFFFFF;
 3546              		.loc 5 127 0
 3547 1772 C74594FF 		movl	$-1, -108(%rbp)
 3547      FFFFFF
 128:TestChecks.cpp ****     TestResults results;
 3548              		.loc 5 128 0
 3549 1779 488D45A0 		leaq	-96(%rbp), %rax
 3550 177d BE000000 		movl	$0, %esi
 3550      00
 3551 1782 4889C7   		movq	%rax, %rdi
 3552              	.LEHB88:
 3553 1785 E8000000 		call	_ZN8UnitTest11TestResultsC1EPNS_12TestReporterE@PLT
 3553      00
 129:TestChecks.cpp ****     CheckClose(results, 3.0f, nan, 0.1f, TestDetails("", "", "", 0));
 3554              		.loc 5 129 0
 3555 178a 488D45C0 		leaq	-64(%rbp), %rax
 3556 178e 41B80000 		movl	$0, %r8d
 3556      0000
 3557 1794 488D0D00 		leaq	.LC6(%rip), %rcx
 3557      000000
 3558 179b 488D1500 		leaq	.LC6(%rip), %rdx
 3558      000000
 3559 17a2 488D3500 		leaq	.LC6(%rip), %rsi
 3559      000000
 3560 17a9 4889C7   		movq	%rax, %rdi
 3561 17ac E8000000 		call	_ZN8UnitTest11TestDetailsC1EPKcS2_S2_i@PLT
 3561      00
 3562 17b1 F30F1005 		movss	.LC31(%rip), %xmm0
 3562      00000000 
 3563 17b9 F30F1145 		movss	%xmm0, -100(%rbp)
 3563      9C
 3564 17be F30F1005 		movss	.LC32(%rip), %xmm0
 3564      00000000 
 3565 17c6 F30F1145 		movss	%xmm0, -104(%rbp)
 3565      98
 3566 17cb 488D7DC0 		leaq	-64(%rbp), %rdi
 3567 17cf 488D4D9C 		leaq	-100(%rbp), %rcx
 3568 17d3 488D5594 		leaq	-108(%rbp), %rdx
 3569 17d7 488D7598 		leaq	-104(%rbp), %rsi
 3570 17db 488D45A0 		leaq	-96(%rbp), %rax
 3571 17df 4989F8   		movq	%rdi, %r8
 3572 17e2 4889C7   		movq	%rax, %rdi
 3573 17e5 E8000000 		call	_ZN8UnitTest10CheckCloseIfffEEvRNS_11TestResultsERKT_RKT0_RKT1_RKNS_11TestDetailsE
 3573      00
 3574              	.LEHE88:
 3575              	.LEHB89:
 130:TestChecks.cpp ****     CHECK_EQUAL(1, results.GetFailureCount());
 3576              		.loc 5 130 0
 3577 17ea E8000000 		call	_ZN8UnitTest11CurrentTest7DetailsEv@PLT
 3577      00
 3578 17ef 488B08   		movq	(%rax), %rcx
 3579 17f2 488D45C0 		leaq	-64(%rbp), %rax
 3580 17f6 BA820000 		movl	$130, %edx
 3580      00
 3581 17fb 4889CE   		movq	%rcx, %rsi
 3582 17fe 4889C7   		movq	%rax, %rdi
 3583 1801 E8000000 		call	_ZN8UnitTest11TestDetailsC1ERKS0_i@PLT
 3583      00
 3584              		.loc 5 130 0 is_stmt 0 discriminator 2
 3585 1806 488D45A0 		leaq	-96(%rbp), %rax
 3586 180a 4889C7   		movq	%rax, %rdi
 3587 180d E8000000 		call	_ZNK8UnitTest11TestResults15GetFailureCountEv@PLT
 3587      00
 3588              	.LEHE89:
 3589 1812 89459C   		movl	%eax, -100(%rbp)
 3590 1815 C7459801 		movl	$1, -104(%rbp)
 3590      000000
 3591              	.LEHB90:
 3592 181c E8000000 		call	_ZN8UnitTest11CurrentTest7ResultsEv@PLT
 3592      00
 3593              		.loc 5 130 0 discriminator 4
 3594 1821 488B00   		movq	(%rax), %rax
 3595 1824 488D4DC0 		leaq	-64(%rbp), %rcx
 3596 1828 488D559C 		leaq	-100(%rbp), %rdx
 3597 182c 488D7598 		leaq	-104(%rbp), %rsi
 3598 1830 4889C7   		movq	%rax, %rdi
 3599 1833 E8000000 		call	_ZN8UnitTest10CheckEqualIiiEEvRNS_11TestResultsERKT_RKT0_RKNS_11TestDetailsE
 3599      00
 3600              	.LEHE90:
 131:TestChecks.cpp **** }
 3601              		.loc 5 131 0 is_stmt 1
 3602 1838 EB5E     		jmp	.L159
 3603              	.L166:
 3604 183a EB00     		jmp	.L161
 3605              	.L165:
 3606              	.L161:
 130:TestChecks.cpp ****     CHECK_EQUAL(1, results.GetFailureCount());
 3607              		.loc 5 130 0
 3608 183c 4889C7   		movq	%rax, %rdi
 3609 183f E8000000 		call	__cxa_begin_catch@PLT
 3609      00
 3610              	.LEHB91:
 3611 1844 E8000000 		call	_ZN8UnitTest11CurrentTest7ResultsEv@PLT
 3611      00
 3612 1849 488B18   		movq	(%rax), %rbx
 3613 184c E8000000 		call	_ZN8UnitTest11CurrentTest7DetailsEv@PLT
 3613      00
 130:TestChecks.cpp ****     CHECK_EQUAL(1, results.GetFailureCount());
 3614              		.loc 5 130 0 is_stmt 0 discriminator 10
 3615 1851 488B08   		movq	(%rax), %rcx
 3616 1854 488D45C0 		leaq	-64(%rbp), %rax
 3617 1858 BA820000 		movl	$130, %edx
 3617      00
 3618 185d 4889CE   		movq	%rcx, %rsi
 3619 1860 4889C7   		movq	%rax, %rdi
 3620 1863 E8000000 		call	_ZN8UnitTest11TestDetailsC1ERKS0_i@PLT
 3620      00
 130:TestChecks.cpp ****     CHECK_EQUAL(1, results.GetFailureCount());
 3621              		.loc 5 130 0 discriminator 14
 3622 1868 488D45C0 		leaq	-64(%rbp), %rax
 3623 186c 488D1500 		leaq	.LC7(%rip), %rdx
 3623      000000
 3624 1873 4889C6   		movq	%rax, %rsi
 3625 1876 4889DF   		movq	%rbx, %rdi
 3626 1879 E8000000 		call	_ZN8UnitTest11TestResults13OnTestFailureERKNS_11TestDetailsEPKc@PLT
 3626      00
 3627              	.LEHE91:
 3628              	.LEHB92:
 130:TestChecks.cpp ****     CHECK_EQUAL(1, results.GetFailureCount());
 3629              		.loc 5 130 0 discriminator 16
 3630 187e E8000000 		call	__cxa_end_catch@PLT
 3630      00
 3631              	.LEHE92:
 3632              		.loc 5 131 0 is_stmt 1 discriminator 16
 3633 1883 EB13     		jmp	.L159
 3634              	.L167:
 3635 1885 4889C3   		movq	%rax, %rbx
 130:TestChecks.cpp ****     CHECK_EQUAL(1, results.GetFailureCount());
 3636              		.loc 5 130 0
 3637 1888 E8000000 		call	__cxa_end_catch@PLT
 3637      00
 3638 188d 4889D8   		movq	%rbx, %rax
 3639 1890 4889C7   		movq	%rax, %rdi
 3640              	.LEHB93:
 3641 1893 E8000000 		call	_Unwind_Resume@PLT
 3641      00
 3642              	.LEHE93:
 3643              	.L159:
 3644              		.loc 5 131 0
 3645 1898 488B45E8 		movq	-24(%rbp), %rax
 3646 189c 64483304 		xorq	%fs:40, %rax
 3646      25280000 
 3646      00
 3647 18a5 7405     		je	.L164
 3648 18a7 E8000000 		call	__stack_chk_fail@PLT
 3648      00
 3649              	.L164:
 3650 18ac 4883C478 		addq	$120, %rsp
 3651 18b0 5B       		popq	%rbx
 3652 18b1 5D       		popq	%rbp
 3653              		.cfi_def_cfa 7, 8
 3654 18b2 C3       		ret
 3655              		.cfi_endproc
 3656              	.LFE1149:
 3657              		.section	.gcc_except_table
 3658              		.align 4
 3659              	.LLSDA1149:
 3660 027c FF       		.byte	0xff
 3661 027d 9B       		.byte	0x9b
 3662 027e 2D       		.uleb128 .LLSDATT1149-.LLSDATTD1149
 3663              	.LLSDATTD1149:
 3664 027f 01       		.byte	0x1
 3665 0280 20       		.uleb128 .LLSDACSE1149-.LLSDACSB1149
 3666              	.LLSDACSB1149:
 3667 0281 2F       		.uleb128 .LEHB88-.LFB1149
 3668 0282 65       		.uleb128 .LEHE88-.LEHB88
 3669 0283 00       		.uleb128 0
 3670 0284 00       		.uleb128 0
 3671 0285 9401     		.uleb128 .LEHB89-.LFB1149
 3672 0287 28       		.uleb128 .LEHE89-.LEHB89
 3673 0288 E601     		.uleb128 .L165-.LFB1149
 3674 028a 01       		.uleb128 0x1
 3675 028b C601     		.uleb128 .LEHB90-.LFB1149
 3676 028d 1C       		.uleb128 .LEHE90-.LEHB90
 3677 028e E401     		.uleb128 .L166-.LFB1149
 3678 0290 03       		.uleb128 0x3
 3679 0291 EE01     		.uleb128 .LEHB91-.LFB1149
 3680 0293 3A       		.uleb128 .LEHE91-.LEHB91
 3681 0294 AF02     		.uleb128 .L167-.LFB1149
 3682 0296 00       		.uleb128 0
 3683 0297 A802     		.uleb128 .LEHB92-.LFB1149
 3684 0299 05       		.uleb128 .LEHE92-.LEHB92
 3685 029a 00       		.uleb128 0
 3686 029b 00       		.uleb128 0
 3687 029c BD02     		.uleb128 .LEHB93-.LFB1149
 3688 029e 05       		.uleb128 .LEHE93-.LEHB93
 3689 029f 00       		.uleb128 0
 3690 02a0 00       		.uleb128 0
 3691              	.LLSDACSE1149:
 3692 02a1 01       		.byte	0x1
 3693 02a2 00       		.byte	0
 3694 02a3 00       		.byte	0
 3695 02a4 7D       		.byte	0x7d
 3696 02a5 000000   		.align 4
 3697 02a8 00000000 		.long	0
 3698              	
 3699              	.LLSDATT1149:
 3700              		.text
 3702              		.section	.rodata
 3703 0543 00000000 		.align 8
 3703      00
 3704              	.LC38:
 3705 0548 43686563 		.string	"CheckCloseWithNaNAgainstItselfFails"
 3705      6B436C6F 
 3705      73655769 
 3705      74684E61 
 3705      4E416761 
 3706              		.text
 3707 18b3 90       		.align 2
 3709              	_ZN12_GLOBAL__N_139TestCheckCloseWithNaNAgainstItselfFailsC2Ev:
 3710              	.LFB1151:
 132:TestChecks.cpp **** 
 133:TestChecks.cpp **** TEST(CheckCloseWithNaNAgainstItselfFails)
 3711              		.loc 5 133 0
 3712              		.cfi_startproc
 3713 18b4 55       		pushq	%rbp
 3714              		.cfi_def_cfa_offset 16
 3715              		.cfi_offset 6, -16
 3716 18b5 4889E5   		movq	%rsp, %rbp
 3717              		.cfi_def_cfa_register 6
 3718 18b8 53       		pushq	%rbx
 3719 18b9 4883EC18 		subq	$24, %rsp
 3720              		.cfi_offset 3, -24
 3721 18bd 48897DE8 		movq	%rdi, -24(%rbp)
 3722              	.LBB19:
 3723              		.loc 5 133 0
 3724 18c1 488B5DE8 		movq	-24(%rbp), %rbx
 3725 18c5 E8000000 		call	_ZN13UnitTestSuite12GetSuiteNameEv
 3725      00
 3726 18ca 41B88500 		movl	$133, %r8d
 3726      0000
 3727 18d0 488D0D00 		leaq	.LC2(%rip), %rcx
 3727      000000
 3728 18d7 4889C2   		movq	%rax, %rdx
 3729 18da 488D3500 		leaq	.LC38(%rip), %rsi
 3729      000000
 3730 18e1 4889DF   		movq	%rbx, %rdi
 3731 18e4 E8000000 		call	_ZN8UnitTest4TestC2EPKcS2_S2_i@PLT
 3731      00
 3732 18e9 488D1500 		leaq	16+_ZTVN12_GLOBAL__N_139TestCheckCloseWithNaNAgainstItselfFailsE(%rip), %rdx
 3732      000000
 3733 18f0 488B45E8 		movq	-24(%rbp), %rax
 3734 18f4 488910   		movq	%rdx, (%rax)
 3735              	.LBE19:
 3736 18f7 90       		nop
 3737 18f8 4883C418 		addq	$24, %rsp
 3738 18fc 5B       		popq	%rbx
 3739 18fd 5D       		popq	%rbp
 3740              		.cfi_def_cfa 7, 8
 3741 18fe C3       		ret
 3742              		.cfi_endproc
 3743              	.LFE1151:
 3745              		.set	_ZN12_GLOBAL__N_139TestCheckCloseWithNaNAgainstItselfFailsC1Ev,_ZN12_GLOBAL__N_139TestCheckCl
 3746              		.local	_ZN12_GLOBAL__N_147testCheckCloseWithNaNAgainstItselfFailsInstanceE
 3747              		.comm	_ZN12_GLOBAL__N_147testCheckCloseWithNaNAgainstItselfFailsInstanceE,56,32
 3748              		.local	_ZN12_GLOBAL__N_140adderCheckCloseWithNaNAgainstItselfFailsE
 3749              		.comm	_ZN12_GLOBAL__N_140adderCheckCloseWithNaNAgainstItselfFailsE,1,1
 3750 18ff 90       		.align 2
 3752              	_ZNK12_GLOBAL__N_139TestCheckCloseWithNaNAgainstItselfFails7RunImplEv:
 3753              	.LFB1153:
 134:TestChecks.cpp **** {
 3754              		.loc 5 134 0
 3755              		.cfi_startproc
 3756              		.cfi_personality 0x9b,DW.ref.__gxx_personality_v0
 3757              		.cfi_lsda 0x1b,.LLSDA1153
 3758 1900 55       		pushq	%rbp
 3759              		.cfi_def_cfa_offset 16
 3760              		.cfi_offset 6, -16
 3761 1901 4889E5   		movq	%rsp, %rbp
 3762              		.cfi_def_cfa_register 6
 3763 1904 53       		pushq	%rbx
 3764 1905 4883EC78 		subq	$120, %rsp
 3765              		.cfi_offset 3, -24
 3766 1909 48897D88 		movq	%rdi, -120(%rbp)
 3767              		.loc 5 134 0
 3768 190d 64488B04 		movq	%fs:40, %rax
 3768      25280000 
 3768      00
 3769 1916 488945E8 		movq	%rax, -24(%rbp)
 3770 191a 31C0     		xorl	%eax, %eax
 135:TestChecks.cpp ****     union
 136:TestChecks.cpp ****     {
 137:TestChecks.cpp ****         unsigned int bitpattern;
 138:TestChecks.cpp ****         float nan;
 139:TestChecks.cpp ****     };
 140:TestChecks.cpp ****     bitpattern = 0xFFFFFFFF;
 3771              		.loc 5 140 0
 3772 191c C74594FF 		movl	$-1, -108(%rbp)
 3772      FFFFFF
 141:TestChecks.cpp ****     TestResults results;
 3773              		.loc 5 141 0
 3774 1923 488D45A0 		leaq	-96(%rbp), %rax
 3775 1927 BE000000 		movl	$0, %esi
 3775      00
 3776 192c 4889C7   		movq	%rax, %rdi
 3777              	.LEHB94:
 3778 192f E8000000 		call	_ZN8UnitTest11TestResultsC1EPNS_12TestReporterE@PLT
 3778      00
 142:TestChecks.cpp ****     CheckClose(results, nan, nan, 0.1f, TestDetails("", "", "", 0));
 3779              		.loc 5 142 0
 3780 1934 488D45C0 		leaq	-64(%rbp), %rax
 3781 1938 41B80000 		movl	$0, %r8d
 3781      0000
 3782 193e 488D0D00 		leaq	.LC6(%rip), %rcx
 3782      000000
 3783 1945 488D1500 		leaq	.LC6(%rip), %rdx
 3783      000000
 3784 194c 488D3500 		leaq	.LC6(%rip), %rsi
 3784      000000
 3785 1953 4889C7   		movq	%rax, %rdi
 3786 1956 E8000000 		call	_ZN8UnitTest11TestDetailsC1EPKcS2_S2_i@PLT
 3786      00
 3787 195b F30F1005 		movss	.LC31(%rip), %xmm0
 3787      00000000 
 3788 1963 F30F1145 		movss	%xmm0, -100(%rbp)
 3788      9C
 3789 1968 488D7DC0 		leaq	-64(%rbp), %rdi
 3790 196c 488D4D9C 		leaq	-100(%rbp), %rcx
 3791 1970 488D5594 		leaq	-108(%rbp), %rdx
 3792 1974 488D7594 		leaq	-108(%rbp), %rsi
 3793 1978 488D45A0 		leaq	-96(%rbp), %rax
 3794 197c 4989F8   		movq	%rdi, %r8
 3795 197f 4889C7   		movq	%rax, %rdi
 3796 1982 E8000000 		call	_ZN8UnitTest10CheckCloseIfffEEvRNS_11TestResultsERKT_RKT0_RKT1_RKNS_11TestDetailsE
 3796      00
 3797              	.LEHE94:
 3798              	.LEHB95:
 143:TestChecks.cpp ****     CHECK_EQUAL(1, results.GetFailureCount());
 3799              		.loc 5 143 0
 3800 1987 E8000000 		call	_ZN8UnitTest11CurrentTest7DetailsEv@PLT
 3800      00
 3801 198c 488B08   		movq	(%rax), %rcx
 3802 198f 488D45C0 		leaq	-64(%rbp), %rax
 3803 1993 BA8F0000 		movl	$143, %edx
 3803      00
 3804 1998 4889CE   		movq	%rcx, %rsi
 3805 199b 4889C7   		movq	%rax, %rdi
 3806 199e E8000000 		call	_ZN8UnitTest11TestDetailsC1ERKS0_i@PLT
 3806      00
 3807              		.loc 5 143 0 is_stmt 0 discriminator 2
 3808 19a3 488D45A0 		leaq	-96(%rbp), %rax
 3809 19a7 4889C7   		movq	%rax, %rdi
 3810 19aa E8000000 		call	_ZNK8UnitTest11TestResults15GetFailureCountEv@PLT
 3810      00
 3811              	.LEHE95:
 3812 19af 89459C   		movl	%eax, -100(%rbp)
 3813 19b2 C7459801 		movl	$1, -104(%rbp)
 3813      000000
 3814              	.LEHB96:
 3815 19b9 E8000000 		call	_ZN8UnitTest11CurrentTest7ResultsEv@PLT
 3815      00
 3816              		.loc 5 143 0 discriminator 4
 3817 19be 488B00   		movq	(%rax), %rax
 3818 19c1 488D4DC0 		leaq	-64(%rbp), %rcx
 3819 19c5 488D559C 		leaq	-100(%rbp), %rdx
 3820 19c9 488D7598 		leaq	-104(%rbp), %rsi
 3821 19cd 4889C7   		movq	%rax, %rdi
 3822 19d0 E8000000 		call	_ZN8UnitTest10CheckEqualIiiEEvRNS_11TestResultsERKT_RKT0_RKNS_11TestDetailsE
 3822      00
 3823              	.LEHE96:
 144:TestChecks.cpp **** }
 3824              		.loc 5 144 0 is_stmt 1
 3825 19d5 EB5E     		jmp	.L169
 3826              	.L176:
 3827 19d7 EB00     		jmp	.L171
 3828              	.L175:
 3829              	.L171:
 143:TestChecks.cpp ****     CHECK_EQUAL(1, results.GetFailureCount());
 3830              		.loc 5 143 0
 3831 19d9 4889C7   		movq	%rax, %rdi
 3832 19dc E8000000 		call	__cxa_begin_catch@PLT
 3832      00
 3833              	.LEHB97:
 3834 19e1 E8000000 		call	_ZN8UnitTest11CurrentTest7ResultsEv@PLT
 3834      00
 3835 19e6 488B18   		movq	(%rax), %rbx
 3836 19e9 E8000000 		call	_ZN8UnitTest11CurrentTest7DetailsEv@PLT
 3836      00
 143:TestChecks.cpp ****     CHECK_EQUAL(1, results.GetFailureCount());
 3837              		.loc 5 143 0 is_stmt 0 discriminator 10
 3838 19ee 488B08   		movq	(%rax), %rcx
 3839 19f1 488D45C0 		leaq	-64(%rbp), %rax
 3840 19f5 BA8F0000 		movl	$143, %edx
 3840      00
 3841 19fa 4889CE   		movq	%rcx, %rsi
 3842 19fd 4889C7   		movq	%rax, %rdi
 3843 1a00 E8000000 		call	_ZN8UnitTest11TestDetailsC1ERKS0_i@PLT
 3843      00
 143:TestChecks.cpp ****     CHECK_EQUAL(1, results.GetFailureCount());
 3844              		.loc 5 143 0 discriminator 14
 3845 1a05 488D45C0 		leaq	-64(%rbp), %rax
 3846 1a09 488D1500 		leaq	.LC7(%rip), %rdx
 3846      000000
 3847 1a10 4889C6   		movq	%rax, %rsi
 3848 1a13 4889DF   		movq	%rbx, %rdi
 3849 1a16 E8000000 		call	_ZN8UnitTest11TestResults13OnTestFailureERKNS_11TestDetailsEPKc@PLT
 3849      00
 3850              	.LEHE97:
 3851              	.LEHB98:
 143:TestChecks.cpp ****     CHECK_EQUAL(1, results.GetFailureCount());
 3852              		.loc 5 143 0 discriminator 16
 3853 1a1b E8000000 		call	__cxa_end_catch@PLT
 3853      00
 3854              	.LEHE98:
 3855              		.loc 5 144 0 is_stmt 1 discriminator 16
 3856 1a20 EB13     		jmp	.L169
 3857              	.L177:
 3858 1a22 4889C3   		movq	%rax, %rbx
 143:TestChecks.cpp ****     CHECK_EQUAL(1, results.GetFailureCount());
 3859              		.loc 5 143 0
 3860 1a25 E8000000 		call	__cxa_end_catch@PLT
 3860      00
 3861 1a2a 4889D8   		movq	%rbx, %rax
 3862 1a2d 4889C7   		movq	%rax, %rdi
 3863              	.LEHB99:
 3864 1a30 E8000000 		call	_Unwind_Resume@PLT
 3864      00
 3865              	.LEHE99:
 3866              	.L169:
 3867              		.loc 5 144 0
 3868 1a35 488B45E8 		movq	-24(%rbp), %rax
 3869 1a39 64483304 		xorq	%fs:40, %rax
 3869      25280000 
 3869      00
 3870 1a42 7405     		je	.L174
 3871 1a44 E8000000 		call	__stack_chk_fail@PLT
 3871      00
 3872              	.L174:
 3873 1a49 4883C478 		addq	$120, %rsp
 3874 1a4d 5B       		popq	%rbx
 3875 1a4e 5D       		popq	%rbp
 3876              		.cfi_def_cfa 7, 8
 3877 1a4f C3       		ret
 3878              		.cfi_endproc
 3879              	.LFE1153:
 3880              		.section	.gcc_except_table
 3881              		.align 4
 3882              	.LLSDA1153:
 3883 02ac FF       		.byte	0xff
 3884 02ad 9B       		.byte	0x9b
 3885 02ae 2D       		.uleb128 .LLSDATT1153-.LLSDATTD1153
 3886              	.LLSDATTD1153:
 3887 02af 01       		.byte	0x1
 3888 02b0 20       		.uleb128 .LLSDACSE1153-.LLSDACSB1153
 3889              	.LLSDACSB1153:
 3890 02b1 2F       		.uleb128 .LEHB94-.LFB1153
 3891 02b2 58       		.uleb128 .LEHE94-.LEHB94
 3892 02b3 00       		.uleb128 0
 3893 02b4 00       		.uleb128 0
 3894 02b5 8701     		.uleb128 .LEHB95-.LFB1153
 3895 02b7 28       		.uleb128 .LEHE95-.LEHB95
 3896 02b8 D901     		.uleb128 .L175-.LFB1153
 3897 02ba 01       		.uleb128 0x1
 3898 02bb B901     		.uleb128 .LEHB96-.LFB1153
 3899 02bd 1C       		.uleb128 .LEHE96-.LEHB96
 3900 02be D701     		.uleb128 .L176-.LFB1153
 3901 02c0 03       		.uleb128 0x3
 3902 02c1 E101     		.uleb128 .LEHB97-.LFB1153
 3903 02c3 3A       		.uleb128 .LEHE97-.LEHB97
 3904 02c4 A202     		.uleb128 .L177-.LFB1153
 3905 02c6 00       		.uleb128 0
 3906 02c7 9B02     		.uleb128 .LEHB98-.LFB1153
 3907 02c9 05       		.uleb128 .LEHE98-.LEHB98
 3908 02ca 00       		.uleb128 0
 3909 02cb 00       		.uleb128 0
 3910 02cc B002     		.uleb128 .LEHB99-.LFB1153
 3911 02ce 05       		.uleb128 .LEHE99-.LEHB99
 3912 02cf 00       		.uleb128 0
 3913 02d0 00       		.uleb128 0
 3914              	.LLSDACSE1153:
 3915 02d1 01       		.byte	0x1
 3916 02d2 00       		.byte	0
 3917 02d3 00       		.byte	0
 3918 02d4 7D       		.byte	0x7d
 3919 02d5 000000   		.align 4
 3920 02d8 00000000 		.long	0
 3921              	
 3922              	.LLSDATT1153:
 3923              		.text
 3925              		.section	.rodata
 3926 056c 00000000 		.align 8
 3927              	.LC39:
 3928 0570 43686563 		.string	"CheckCloseFailureIncludesCheckExpectedAndActual"
 3928      6B436C6F 
 3928      73654661 
 3928      696C7572 
 3928      65496E63 
 3929              		.text
 3930              		.align 2
 3932              	_ZN12_GLOBAL__N_151TestCheckCloseFailureIncludesCheckExpectedAndActualC2Ev:
 3933              	.LFB1155:
 145:TestChecks.cpp **** 
 146:TestChecks.cpp **** TEST(CheckCloseFailureIncludesCheckExpectedAndActual)
 3934              		.loc 5 146 0
 3935              		.cfi_startproc
 3936 1a50 55       		pushq	%rbp
 3937              		.cfi_def_cfa_offset 16
 3938              		.cfi_offset 6, -16
 3939 1a51 4889E5   		movq	%rsp, %rbp
 3940              		.cfi_def_cfa_register 6
 3941 1a54 53       		pushq	%rbx
 3942 1a55 4883EC18 		subq	$24, %rsp
 3943              		.cfi_offset 3, -24
 3944 1a59 48897DE8 		movq	%rdi, -24(%rbp)
 3945              	.LBB20:
 3946              		.loc 5 146 0
 3947 1a5d 488B5DE8 		movq	-24(%rbp), %rbx
 3948 1a61 E8000000 		call	_ZN13UnitTestSuite12GetSuiteNameEv
 3948      00
 3949 1a66 41B89200 		movl	$146, %r8d
 3949      0000
 3950 1a6c 488D0D00 		leaq	.LC2(%rip), %rcx
 3950      000000
 3951 1a73 4889C2   		movq	%rax, %rdx
 3952 1a76 488D3500 		leaq	.LC39(%rip), %rsi
 3952      000000
 3953 1a7d 4889DF   		movq	%rbx, %rdi
 3954 1a80 E8000000 		call	_ZN8UnitTest4TestC2EPKcS2_S2_i@PLT
 3954      00
 3955 1a85 488D1500 		leaq	16+_ZTVN12_GLOBAL__N_151TestCheckCloseFailureIncludesCheckExpectedAndActualE(%rip), %rdx
 3955      000000
 3956 1a8c 488B45E8 		movq	-24(%rbp), %rax
 3957 1a90 488910   		movq	%rdx, (%rax)
 3958              	.LBE20:
 3959 1a93 90       		nop
 3960 1a94 4883C418 		addq	$24, %rsp
 3961 1a98 5B       		popq	%rbx
 3962 1a99 5D       		popq	%rbp
 3963              		.cfi_def_cfa 7, 8
 3964 1a9a C3       		ret
 3965              		.cfi_endproc
 3966              	.LFE1155:
 3968              		.set	_ZN12_GLOBAL__N_151TestCheckCloseFailureIncludesCheckExpectedAndActualC1Ev,_ZN12_GLOBAL__N_15
 3969              		.local	_ZN12_GLOBAL__N_159testCheckCloseFailureIncludesCheckExpectedAndActualInstanceE
 3970              		.comm	_ZN12_GLOBAL__N_159testCheckCloseFailureIncludesCheckExpectedAndActualInstanceE,56,32
 3971              		.local	_ZN12_GLOBAL__N_152adderCheckCloseFailureIncludesCheckExpectedAndActualE
 3972              		.comm	_ZN12_GLOBAL__N_152adderCheckCloseFailureIncludesCheckExpectedAndActualE,1,1
 3973              		.section	.rodata
 3974              	.LC43:
 3975 05a0 78706563 		.string	"xpected 0.9"
 3975      74656420 
 3975      302E3900 
 3976 05ac 00000000 		.align 8
 3977              	.LC44:
 3978 05b0 73747273 		.string	"strstr(reporter.lastFailedMessage, \"xpected 0.9\")"
 3978      74722872 
 3978      65706F72 
 3978      7465722E 
 3978      6C617374 
 3979              	.LC45:
 3980 05e2 77617320 		.string	"was 1.1"
 3980      312E3100 
 3981 05ea 00000000 		.align 8
 3981      0000
 3982              	.LC46:
 3983 05f0 73747273 		.string	"strstr(reporter.lastFailedMessage, \"was 1.1\")"
 3983      74722872 
 3983      65706F72 
 3983      7465722E 
 3983      6C617374 
 3984 061e 0000     		.align 8
 3985              	.LC47:
 3986 0620 556E6861 		.string	"Unhandled exception in CHECK(strstr(reporter.lastFailedMessage, \"xpected 0.9\"))"
 3986      6E646C65 
 3986      64206578 
 3986      63657074 
 3986      696F6E20 
 3987              		.align 8
 3988              	.LC48:
 3989 0670 556E6861 		.string	"Unhandled exception in CHECK(strstr(reporter.lastFailedMessage, \"was 1.1\"))"
 3989      6E646C65 
 3989      64206578 
 3989      63657074 
 3989      696F6E20 
 3990              		.text
 3991 1a9b 90       		.align 2
 3993              	_ZNK12_GLOBAL__N_151TestCheckCloseFailureIncludesCheckExpectedAndActual7RunImplEv:
 3994              	.LFB1157:
 147:TestChecks.cpp **** {
 3995              		.loc 5 147 0
 3996              		.cfi_startproc
 3997              		.cfi_personality 0x9b,DW.ref.__gxx_personality_v0
 3998              		.cfi_lsda 0x1b,.LLSDA1157
 3999 1a9c 55       		pushq	%rbp
 4000              		.cfi_def_cfa_offset 16
 4001              		.cfi_offset 6, -16
 4002 1a9d 4889E5   		movq	%rsp, %rbp
 4003              		.cfi_def_cfa_register 6
 4004 1aa0 53       		pushq	%rbx
 4005 1aa1 4881ECA8 		subq	$2216, %rsp
 4005      080000
 4006              		.cfi_offset 3, -24
 4007 1aa8 4889BD58 		movq	%rdi, -2216(%rbp)
 4007      F7FFFF
 4008              		.loc 5 147 0
 4009 1aaf 64488B04 		movq	%fs:40, %rax
 4009      25280000 
 4009      00
 4010 1ab8 488945E8 		movq	%rax, -24(%rbp)
 4011 1abc 31C0     		xorl	%eax, %eax
 148:TestChecks.cpp ****     RecordingReporter reporter;
 4012              		.loc 5 148 0
 4013 1abe 488D85B0 		leaq	-2128(%rbp), %rax
 4013      F7FFFF
 4014 1ac5 4889C7   		movq	%rax, %rdi
 4015 1ac8 E8000000 		call	_ZN17RecordingReporterC1Ev
 4015      00
 149:TestChecks.cpp ****     TestResults results(&reporter);
 4016              		.loc 5 149 0
 4017 1acd 488D95B0 		leaq	-2128(%rbp), %rdx
 4017      F7FFFF
 4018 1ad4 488D8570 		leaq	-2192(%rbp), %rax
 4018      F7FFFF
 4019 1adb 4889D6   		movq	%rdx, %rsi
 4020 1ade 4889C7   		movq	%rax, %rdi
 4021              	.LEHB100:
 4022 1ae1 E8000000 		call	_ZN8UnitTest11TestResultsC1EPNS_12TestReporterE@PLT
 4022      00
 150:TestChecks.cpp ****     const float expected = 0.9f;
 4023              		.loc 5 150 0
 4024 1ae6 F30F1005 		movss	.LC40(%rip), %xmm0
 4024      00000000 
 4025 1aee F30F1185 		movss	%xmm0, -2204(%rbp)
 4025      64F7FFFF 
 151:TestChecks.cpp ****     const float actual = 1.1f;
 4026              		.loc 5 151 0
 4027 1af6 F30F1005 		movss	.LC41(%rip), %xmm0
 4027      00000000 
 4028 1afe F30F1185 		movss	%xmm0, -2200(%rbp)
 4028      68F7FFFF 
 152:TestChecks.cpp ****     CheckClose(results, expected, actual, 0.01f, TestDetails("", "", "", 0));
 4029              		.loc 5 152 0
 4030 1b06 488D8590 		leaq	-2160(%rbp), %rax
 4030      F7FFFF
 4031 1b0d 41B80000 		movl	$0, %r8d
 4031      0000
 4032 1b13 488D0D00 		leaq	.LC6(%rip), %rcx
 4032      000000
 4033 1b1a 488D1500 		leaq	.LC6(%rip), %rdx
 4033      000000
 4034 1b21 488D3500 		leaq	.LC6(%rip), %rsi
 4034      000000
 4035 1b28 4889C7   		movq	%rax, %rdi
 4036 1b2b E8000000 		call	_ZN8UnitTest11TestDetailsC1EPKcS2_S2_i@PLT
 4036      00
 4037              		.loc 5 152 0 is_stmt 0 discriminator 1
 4038 1b30 F30F1005 		movss	.LC42(%rip), %xmm0
 4038      00000000 
 4039 1b38 F30F1185 		movss	%xmm0, -2196(%rbp)
 4039      6CF7FFFF 
 4040 1b40 488DBD90 		leaq	-2160(%rbp), %rdi
 4040      F7FFFF
 4041 1b47 488D8D6C 		leaq	-2196(%rbp), %rcx
 4041      F7FFFF
 4042 1b4e 488D9568 		leaq	-2200(%rbp), %rdx
 4042      F7FFFF
 4043 1b55 488DB564 		leaq	-2204(%rbp), %rsi
 4043      F7FFFF
 4044 1b5c 488D8570 		leaq	-2192(%rbp), %rax
 4044      F7FFFF
 4045 1b63 4989F8   		movq	%rdi, %r8
 4046 1b66 4889C7   		movq	%rax, %rdi
 4047 1b69 E8000000 		call	_ZN8UnitTest10CheckCloseIfffEEvRNS_11TestResultsERKT_RKT0_RKT1_RKNS_11TestDetailsE
 4047      00
 4048              	.LEHE100:
 153:TestChecks.cpp **** 
 154:TestChecks.cpp **** 	using namespace std;
 155:TestChecks.cpp ****     CHECK(strstr(reporter.lastFailedMessage, "xpected 0.9"));
 4049              		.loc 5 155 0 is_stmt 1 discriminator 3
 4050 1b6e 488D85B0 		leaq	-2128(%rbp), %rax
 4050      F7FFFF
 4051 1b75 48051405 		addq	$1300, %rax
 4051      0000
 4052 1b7b 488D3500 		leaq	.LC43(%rip), %rsi
 4052      000000
 4053 1b82 4889C7   		movq	%rax, %rdi
 4054 1b85 E8000000 		call	strstr@PLT
 4054      00
 4055 1b8a 4889C7   		movq	%rax, %rdi
 4056 1b8d E8000000 		call	_ZN8UnitTest5CheckIPcEEbT_
 4056      00
 4057 1b92 83F001   		xorl	$1, %eax
 4058 1b95 84C0     		testb	%al, %al
 4059 1b97 7440     		je	.L180
 4060              	.LEHB101:
 4061              		.loc 5 155 0 is_stmt 0 discriminator 1
 4062 1b99 E8000000 		call	_ZN8UnitTest11CurrentTest7ResultsEv@PLT
 4062      00
 4063 1b9e 488B18   		movq	(%rax), %rbx
 4064 1ba1 E8000000 		call	_ZN8UnitTest11CurrentTest7DetailsEv@PLT
 4064      00
 4065              		.loc 5 155 0 discriminator 2
 4066 1ba6 488B08   		movq	(%rax), %rcx
 4067 1ba9 488D8590 		leaq	-2160(%rbp), %rax
 4067      F7FFFF
 4068 1bb0 BA9B0000 		movl	$155, %edx
 4068      00
 4069 1bb5 4889CE   		movq	%rcx, %rsi
 4070 1bb8 4889C7   		movq	%rax, %rdi
 4071 1bbb E8000000 		call	_ZN8UnitTest11TestDetailsC1ERKS0_i@PLT
 4071      00
 4072              		.loc 5 155 0 discriminator 4
 4073 1bc0 488D8590 		leaq	-2160(%rbp), %rax
 4073      F7FFFF
 4074 1bc7 488D1500 		leaq	.LC44(%rip), %rdx
 4074      000000
 4075 1bce 4889C6   		movq	%rax, %rsi
 4076 1bd1 4889DF   		movq	%rbx, %rdi
 4077 1bd4 E8000000 		call	_ZN8UnitTest11TestResults13OnTestFailureERKNS_11TestDetailsEPKc@PLT
 4077      00
 4078              	.LEHE101:
 4079              	.L180:
 156:TestChecks.cpp ****     CHECK(strstr(reporter.lastFailedMessage, "was 1.1"));
 4080              		.loc 5 156 0 is_stmt 1
 4081 1bd9 488D85B0 		leaq	-2128(%rbp), %rax
 4081      F7FFFF
 4082 1be0 48051405 		addq	$1300, %rax
 4082      0000
 4083 1be6 488D3500 		leaq	.LC45(%rip), %rsi
 4083      000000
 4084 1bed 4889C7   		movq	%rax, %rdi
 4085 1bf0 E8000000 		call	strstr@PLT
 4085      00
 4086 1bf5 4889C7   		movq	%rax, %rdi
 4087 1bf8 E8000000 		call	_ZN8UnitTest5CheckIPcEEbT_
 4087      00
 4088 1bfd 83F001   		xorl	$1, %eax
 4089 1c00 84C0     		testb	%al, %al
 4090 1c02 7440     		je	.L181
 4091              	.LEHB102:
 4092              		.loc 5 156 0 is_stmt 0 discriminator 1
 4093 1c04 E8000000 		call	_ZN8UnitTest11CurrentTest7ResultsEv@PLT
 4093      00
 4094 1c09 488B18   		movq	(%rax), %rbx
 4095 1c0c E8000000 		call	_ZN8UnitTest11CurrentTest7DetailsEv@PLT
 4095      00
 4096              		.loc 5 156 0 discriminator 2
 4097 1c11 488B08   		movq	(%rax), %rcx
 4098 1c14 488D8590 		leaq	-2160(%rbp), %rax
 4098      F7FFFF
 4099 1c1b BA9C0000 		movl	$156, %edx
 4099      00
 4100 1c20 4889CE   		movq	%rcx, %rsi
 4101 1c23 4889C7   		movq	%rax, %rdi
 4102 1c26 E8000000 		call	_ZN8UnitTest11TestDetailsC1ERKS0_i@PLT
 4102      00
 4103              		.loc 5 156 0 discriminator 4
 4104 1c2b 488D8590 		leaq	-2160(%rbp), %rax
 4104      F7FFFF
 4105 1c32 488D1500 		leaq	.LC46(%rip), %rdx
 4105      000000
 4106 1c39 4889C6   		movq	%rax, %rsi
 4107 1c3c 4889DF   		movq	%rbx, %rdi
 4108 1c3f E8000000 		call	_ZN8UnitTest11TestResults13OnTestFailureERKNS_11TestDetailsEPKc@PLT
 4108      00
 4109              	.LEHE102:
 4110              	.L181:
 148:TestChecks.cpp ****     TestResults results(&reporter);
 4111              		.loc 5 148 0 is_stmt 1
 4112 1c44 488D85B0 		leaq	-2128(%rbp), %rax
 4112      F7FFFF
 4113 1c4b 4889C7   		movq	%rax, %rdi
 4114              	.LEHB103:
 4115 1c4e E8000000 		call	_ZN17RecordingReporterD1Ev
 4115      00
 4116              	.LEHE103:
 157:TestChecks.cpp **** }
 4117              		.loc 5 157 0
 4118 1c53 90       		nop
 4119 1c54 488B45E8 		movq	-24(%rbp), %rax
 4120 1c58 64483304 		xorq	%fs:40, %rax
 4120      25280000 
 4120      00
 4121 1c61 0F84DF00 		je	.L187
 4121      0000
 4122 1c67 E9D50000 		jmp	.L193
 4122      00
 4123              	.L189:
 155:TestChecks.cpp ****     CHECK(strstr(reporter.lastFailedMessage, "was 1.1"));
 4124              		.loc 5 155 0
 4125 1c6c 4889C7   		movq	%rax, %rdi
 4126 1c6f E8000000 		call	__cxa_begin_catch@PLT
 4126      00
 4127              	.LEHB104:
 4128 1c74 E8000000 		call	_ZN8UnitTest11CurrentTest7ResultsEv@PLT
 4128      00
 4129 1c79 488B18   		movq	(%rax), %rbx
 4130 1c7c E8000000 		call	_ZN8UnitTest11CurrentTest7DetailsEv@PLT
 4130      00
 155:TestChecks.cpp ****     CHECK(strstr(reporter.lastFailedMessage, "was 1.1"));
 4131              		.loc 5 155 0 is_stmt 0 discriminator 8
 4132 1c81 488B08   		movq	(%rax), %rcx
 4133 1c84 488D8590 		leaq	-2160(%rbp), %rax
 4133      F7FFFF
 4134 1c8b BA9B0000 		movl	$155, %edx
 4134      00
 4135 1c90 4889CE   		movq	%rcx, %rsi
 4136 1c93 4889C7   		movq	%rax, %rdi
 4137 1c96 E8000000 		call	_ZN8UnitTest11TestDetailsC1ERKS0_i@PLT
 4137      00
 155:TestChecks.cpp ****     CHECK(strstr(reporter.lastFailedMessage, "was 1.1"));
 4138              		.loc 5 155 0 discriminator 12
 4139 1c9b 488D8590 		leaq	-2160(%rbp), %rax
 4139      F7FFFF
 4140 1ca2 488D1500 		leaq	.LC47(%rip), %rdx
 4140      000000
 4141 1ca9 4889C6   		movq	%rax, %rsi
 4142 1cac 4889DF   		movq	%rbx, %rdi
 4143 1caf E8000000 		call	_ZN8UnitTest11TestResults13OnTestFailureERKNS_11TestDetailsEPKc@PLT
 4143      00
 4144              	.LEHE104:
 4145              	.LEHB105:
 155:TestChecks.cpp ****     CHECK(strstr(reporter.lastFailedMessage, "was 1.1"));
 4146              		.loc 5 155 0 discriminator 14
 4147 1cb4 E8000000 		call	__cxa_end_catch@PLT
 4147      00
 4148              	.LEHE105:
 155:TestChecks.cpp ****     CHECK(strstr(reporter.lastFailedMessage, "was 1.1"));
 4149              		.loc 5 155 0
 4150 1cb9 E91BFFFF 		jmp	.L180
 4150      FF
 4151              	.L190:
 4152 1cbe 4889C3   		movq	%rax, %rbx
 4153 1cc1 E8000000 		call	__cxa_end_catch@PLT
 4153      00
 4154 1cc6 EB5F     		jmp	.L184
 4155              	.L191:
 156:TestChecks.cpp **** }
 4156              		.loc 5 156 0 is_stmt 1
 4157 1cc8 4889C7   		movq	%rax, %rdi
 4158 1ccb E8000000 		call	__cxa_begin_catch@PLT
 4158      00
 4159              	.LEHB106:
 4160 1cd0 E8000000 		call	_ZN8UnitTest11CurrentTest7ResultsEv@PLT
 4160      00
 4161 1cd5 488B18   		movq	(%rax), %rbx
 4162 1cd8 E8000000 		call	_ZN8UnitTest11CurrentTest7DetailsEv@PLT
 4162      00
 156:TestChecks.cpp **** }
 4163              		.loc 5 156 0 is_stmt 0 discriminator 8
 4164 1cdd 488B08   		movq	(%rax), %rcx
 4165 1ce0 488D8590 		leaq	-2160(%rbp), %rax
 4165      F7FFFF
 4166 1ce7 BA9C0000 		movl	$156, %edx
 4166      00
 4167 1cec 4889CE   		movq	%rcx, %rsi
 4168 1cef 4889C7   		movq	%rax, %rdi
 4169 1cf2 E8000000 		call	_ZN8UnitTest11TestDetailsC1ERKS0_i@PLT
 4169      00
 156:TestChecks.cpp **** }
 4170              		.loc 5 156 0 discriminator 12
 4171 1cf7 488D8590 		leaq	-2160(%rbp), %rax
 4171      F7FFFF
 4172 1cfe 488D1500 		leaq	.LC48(%rip), %rdx
 4172      000000
 4173 1d05 4889C6   		movq	%rax, %rsi
 4174 1d08 4889DF   		movq	%rbx, %rdi
 4175 1d0b E8000000 		call	_ZN8UnitTest11TestResults13OnTestFailureERKNS_11TestDetailsEPKc@PLT
 4175      00
 4176              	.LEHE106:
 4177              	.LEHB107:
 156:TestChecks.cpp **** }
 4178              		.loc 5 156 0 discriminator 14
 4179 1d10 E8000000 		call	__cxa_end_catch@PLT
 4179      00
 4180              	.LEHE107:
 156:TestChecks.cpp **** }
 4181              		.loc 5 156 0
 4182 1d15 E92AFFFF 		jmp	.L181
 4182      FF
 4183              	.L192:
 4184 1d1a 4889C3   		movq	%rax, %rbx
 4185 1d1d E8000000 		call	__cxa_end_catch@PLT
 4185      00
 4186 1d22 EB03     		jmp	.L184
 4187              	.L188:
 4188 1d24 4889C3   		movq	%rax, %rbx
 4189              	.L184:
 148:TestChecks.cpp ****     TestResults results(&reporter);
 4190              		.loc 5 148 0 is_stmt 1
 4191 1d27 488D85B0 		leaq	-2128(%rbp), %rax
 4191      F7FFFF
 4192 1d2e 4889C7   		movq	%rax, %rdi
 4193 1d31 E8000000 		call	_ZN17RecordingReporterD1Ev
 4193      00
 4194 1d36 4889D8   		movq	%rbx, %rax
 4195 1d39 4889C7   		movq	%rax, %rdi
 4196              	.LEHB108:
 4197 1d3c E8000000 		call	_Unwind_Resume@PLT
 4197      00
 4198              	.LEHE108:
 4199              	.L193:
 4200              		.loc 5 157 0
 4201 1d41 E8000000 		call	__stack_chk_fail@PLT
 4201      00
 4202              	.L187:
 4203 1d46 4881C4A8 		addq	$2216, %rsp
 4203      080000
 4204 1d4d 5B       		popq	%rbx
 4205 1d4e 5D       		popq	%rbp
 4206              		.cfi_def_cfa 7, 8
 4207 1d4f C3       		ret
 4208              		.cfi_endproc
 4209              	.LFE1157:
 4210              		.section	.gcc_except_table
 4211              		.align 4
 4212              	.LLSDA1157:
 4213 02dc FF       		.byte	0xff
 4214 02dd 9B       		.byte	0x9b
 4215 02de 3D       		.uleb128 .LLSDATT1157-.LLSDATTD1157
 4216              	.LLSDATTD1157:
 4217 02df 01       		.byte	0x1
 4218 02e0 34       		.uleb128 .LLSDACSE1157-.LLSDACSB1157
 4219              	.LLSDACSB1157:
 4220 02e1 45       		.uleb128 .LEHB100-.LFB1157
 4221 02e2 8D01     		.uleb128 .LEHE100-.LEHB100
 4222 02e4 8805     		.uleb128 .L188-.LFB1157
 4223 02e6 00       		.uleb128 0
 4224 02e7 FD01     		.uleb128 .LEHB101-.LFB1157
 4225 02e9 40       		.uleb128 .LEHE101-.LEHB101
 4226 02ea D003     		.uleb128 .L189-.LFB1157
 4227 02ec 01       		.uleb128 0x1
 4228 02ed E802     		.uleb128 .LEHB102-.LFB1157
 4229 02ef 40       		.uleb128 .LEHE102-.LEHB102
 4230 02f0 AC04     		.uleb128 .L191-.LFB1157
 4231 02f2 01       		.uleb128 0x1
 4232 02f3 B203     		.uleb128 .LEHB103-.LFB1157
 4233 02f5 05       		.uleb128 .LEHE103-.LEHB103
 4234 02f6 00       		.uleb128 0
 4235 02f7 00       		.uleb128 0
 4236 02f8 D803     		.uleb128 .LEHB104-.LFB1157
 4237 02fa 40       		.uleb128 .LEHE104-.LEHB104
 4238 02fb A204     		.uleb128 .L190-.LFB1157
 4239 02fd 00       		.uleb128 0
 4240 02fe 9804     		.uleb128 .LEHB105-.LFB1157
 4241 0300 05       		.uleb128 .LEHE105-.LEHB105
 4242 0301 8805     		.uleb128 .L188-.LFB1157
 4243 0303 00       		.uleb128 0
 4244 0304 B404     		.uleb128 .LEHB106-.LFB1157
 4245 0306 40       		.uleb128 .LEHE106-.LEHB106
 4246 0307 FE04     		.uleb128 .L192-.LFB1157
 4247 0309 00       		.uleb128 0
 4248 030a F404     		.uleb128 .LEHB107-.LFB1157
 4249 030c 05       		.uleb128 .LEHE107-.LEHB107
 4250 030d 8805     		.uleb128 .L188-.LFB1157
 4251 030f 00       		.uleb128 0
 4252 0310 A005     		.uleb128 .LEHB108-.LFB1157
 4253 0312 05       		.uleb128 .LEHE108-.LEHB108
 4254 0313 00       		.uleb128 0
 4255 0314 00       		.uleb128 0
 4256              	.LLSDACSE1157:
 4257 0315 01       		.byte	0x1
 4258 0316 00       		.byte	0
 4259 0317 00       		.align 4
 4260 0318 00000000 		.long	0
 4261              	
 4262              	.LLSDATT1157:
 4263              		.text
 4265              		.section	.rodata
 4266 06bc 00000000 		.align 8
 4267              	.LC49:
 4268 06c0 43686563 		.string	"CheckCloseFailureIncludesTolerance"
 4268      6B436C6F 
 4268      73654661 
 4268      696C7572 
 4268      65496E63 
 4269              		.text
 4270              		.align 2
 4272              	_ZN12_GLOBAL__N_138TestCheckCloseFailureIncludesToleranceC2Ev:
 4273              	.LFB1159:
 158:TestChecks.cpp **** 
 159:TestChecks.cpp **** TEST(CheckCloseFailureIncludesTolerance)
 4274              		.loc 5 159 0
 4275              		.cfi_startproc
 4276 1d50 55       		pushq	%rbp
 4277              		.cfi_def_cfa_offset 16
 4278              		.cfi_offset 6, -16
 4279 1d51 4889E5   		movq	%rsp, %rbp
 4280              		.cfi_def_cfa_register 6
 4281 1d54 53       		pushq	%rbx
 4282 1d55 4883EC18 		subq	$24, %rsp
 4283              		.cfi_offset 3, -24
 4284 1d59 48897DE8 		movq	%rdi, -24(%rbp)
 4285              	.LBB21:
 4286              		.loc 5 159 0
 4287 1d5d 488B5DE8 		movq	-24(%rbp), %rbx
 4288 1d61 E8000000 		call	_ZN13UnitTestSuite12GetSuiteNameEv
 4288      00
 4289 1d66 41B89F00 		movl	$159, %r8d
 4289      0000
 4290 1d6c 488D0D00 		leaq	.LC2(%rip), %rcx
 4290      000000
 4291 1d73 4889C2   		movq	%rax, %rdx
 4292 1d76 488D3500 		leaq	.LC49(%rip), %rsi
 4292      000000
 4293 1d7d 4889DF   		movq	%rbx, %rdi
 4294 1d80 E8000000 		call	_ZN8UnitTest4TestC2EPKcS2_S2_i@PLT
 4294      00
 4295 1d85 488D1500 		leaq	16+_ZTVN12_GLOBAL__N_138TestCheckCloseFailureIncludesToleranceE(%rip), %rdx
 4295      000000
 4296 1d8c 488B45E8 		movq	-24(%rbp), %rax
 4297 1d90 488910   		movq	%rdx, (%rax)
 4298              	.LBE21:
 4299 1d93 90       		nop
 4300 1d94 4883C418 		addq	$24, %rsp
 4301 1d98 5B       		popq	%rbx
 4302 1d99 5D       		popq	%rbp
 4303              		.cfi_def_cfa 7, 8
 4304 1d9a C3       		ret
 4305              		.cfi_endproc
 4306              	.LFE1159:
 4308              		.set	_ZN12_GLOBAL__N_138TestCheckCloseFailureIncludesToleranceC1Ev,_ZN12_GLOBAL__N_138TestCheckClo
 4309              		.local	_ZN12_GLOBAL__N_146testCheckCloseFailureIncludesToleranceInstanceE
 4310              		.comm	_ZN12_GLOBAL__N_146testCheckCloseFailureIncludesToleranceInstanceE,56,32
 4311              		.local	_ZN12_GLOBAL__N_139adderCheckCloseFailureIncludesToleranceE
 4312              		.comm	_ZN12_GLOBAL__N_139adderCheckCloseFailureIncludesToleranceE,1,1
 4313              		.section	.rodata
 4314              	.LC50:
 4315 06e3 302E3031 		.string	"0.01"
 4315      00
 4316              		.align 8
 4317              	.LC51:
 4318 06e8 73747273 		.string	"strstr(reporter.lastFailedMessage, \"0.01\")"
 4318      74722872 
 4318      65706F72 
 4318      7465722E 
 4318      6C617374 
 4319 0713 00000000 		.align 8
 4319      00
 4320              	.LC52:
 4321 0718 556E6861 		.string	"Unhandled exception in CHECK(strstr(reporter.lastFailedMessage, \"0.01\"))"
 4321      6E646C65 
 4321      64206578 
 4321      63657074 
 4321      696F6E20 
 4322              		.text
 4323 1d9b 90       		.align 2
 4325              	_ZNK12_GLOBAL__N_138TestCheckCloseFailureIncludesTolerance7RunImplEv:
 4326              	.LFB1161:
 160:TestChecks.cpp **** {
 4327              		.loc 5 160 0
 4328              		.cfi_startproc
 4329              		.cfi_personality 0x9b,DW.ref.__gxx_personality_v0
 4330              		.cfi_lsda 0x1b,.LLSDA1161
 4331 1d9c 55       		pushq	%rbp
 4332              		.cfi_def_cfa_offset 16
 4333              		.cfi_offset 6, -16
 4334 1d9d 4889E5   		movq	%rsp, %rbp
 4335              		.cfi_def_cfa_register 6
 4336 1da0 53       		pushq	%rbx
 4337 1da1 4881ECA8 		subq	$2216, %rsp
 4337      080000
 4338              		.cfi_offset 3, -24
 4339 1da8 4889BD58 		movq	%rdi, -2216(%rbp)
 4339      F7FFFF
 4340              		.loc 5 160 0
 4341 1daf 64488B04 		movq	%fs:40, %rax
 4341      25280000 
 4341      00
 4342 1db8 488945E8 		movq	%rax, -24(%rbp)
 4343 1dbc 31C0     		xorl	%eax, %eax
 161:TestChecks.cpp ****     RecordingReporter reporter;
 4344              		.loc 5 161 0
 4345 1dbe 488D85B0 		leaq	-2128(%rbp), %rax
 4345      F7FFFF
 4346 1dc5 4889C7   		movq	%rax, %rdi
 4347 1dc8 E8000000 		call	_ZN17RecordingReporterC1Ev
 4347      00
 162:TestChecks.cpp ****     TestResults results(&reporter);
 4348              		.loc 5 162 0
 4349 1dcd 488D95B0 		leaq	-2128(%rbp), %rdx
 4349      F7FFFF
 4350 1dd4 488D8570 		leaq	-2192(%rbp), %rax
 4350      F7FFFF
 4351 1ddb 4889D6   		movq	%rdx, %rsi
 4352 1dde 4889C7   		movq	%rax, %rdi
 4353              	.LEHB109:
 4354 1de1 E8000000 		call	_ZN8UnitTest11TestResultsC1EPNS_12TestReporterE@PLT
 4354      00
 163:TestChecks.cpp ****     CheckClose(results, 2, 3, 0.01f, TestDetails("", "", "", 0));
 4355              		.loc 5 163 0
 4356 1de6 488D8590 		leaq	-2160(%rbp), %rax
 4356      F7FFFF
 4357 1ded 41B80000 		movl	$0, %r8d
 4357      0000
 4358 1df3 488D0D00 		leaq	.LC6(%rip), %rcx
 4358      000000
 4359 1dfa 488D1500 		leaq	.LC6(%rip), %rdx
 4359      000000
 4360 1e01 488D3500 		leaq	.LC6(%rip), %rsi
 4360      000000
 4361 1e08 4889C7   		movq	%rax, %rdi
 4362 1e0b E8000000 		call	_ZN8UnitTest11TestDetailsC1EPKcS2_S2_i@PLT
 4362      00
 4363              		.loc 5 163 0 is_stmt 0 discriminator 1
 4364 1e10 F30F1005 		movss	.LC42(%rip), %xmm0
 4364      00000000 
 4365 1e18 F30F1185 		movss	%xmm0, -2196(%rbp)
 4365      6CF7FFFF 
 4366 1e20 C78568F7 		movl	$3, -2200(%rbp)
 4366      FFFF0300 
 4366      0000
 4367 1e2a C78564F7 		movl	$2, -2204(%rbp)
 4367      FFFF0200 
 4367      0000
 4368 1e34 488DBD90 		leaq	-2160(%rbp), %rdi
 4368      F7FFFF
 4369 1e3b 488D8D6C 		leaq	-2196(%rbp), %rcx
 4369      F7FFFF
 4370 1e42 488D9568 		leaq	-2200(%rbp), %rdx
 4370      F7FFFF
 4371 1e49 488DB564 		leaq	-2204(%rbp), %rsi
 4371      F7FFFF
 4372 1e50 488D8570 		leaq	-2192(%rbp), %rax
 4372      F7FFFF
 4373 1e57 4989F8   		movq	%rdi, %r8
 4374 1e5a 4889C7   		movq	%rax, %rdi
 4375 1e5d E8000000 		call	_ZN8UnitTest10CheckCloseIiifEEvRNS_11TestResultsERKT_RKT0_RKT1_RKNS_11TestDetailsE
 4375      00
 4376              	.LEHE109:
 164:TestChecks.cpp **** 
 165:TestChecks.cpp **** 	using namespace std;
 166:TestChecks.cpp ****     CHECK(strstr(reporter.lastFailedMessage, "0.01"));
 4377              		.loc 5 166 0 is_stmt 1 discriminator 3
 4378 1e62 488D85B0 		leaq	-2128(%rbp), %rax
 4378      F7FFFF
 4379 1e69 48051405 		addq	$1300, %rax
 4379      0000
 4380 1e6f 488D3500 		leaq	.LC50(%rip), %rsi
 4380      000000
 4381 1e76 4889C7   		movq	%rax, %rdi
 4382 1e79 E8000000 		call	strstr@PLT
 4382      00
 4383 1e7e 4889C7   		movq	%rax, %rdi
 4384 1e81 E8000000 		call	_ZN8UnitTest5CheckIPcEEbT_
 4384      00
 4385 1e86 83F001   		xorl	$1, %eax
 4386 1e89 84C0     		testb	%al, %al
 4387 1e8b 7440     		je	.L196
 4388              	.LEHB110:
 4389              		.loc 5 166 0 is_stmt 0 discriminator 1
 4390 1e8d E8000000 		call	_ZN8UnitTest11CurrentTest7ResultsEv@PLT
 4390      00
 4391 1e92 488B18   		movq	(%rax), %rbx
 4392 1e95 E8000000 		call	_ZN8UnitTest11CurrentTest7DetailsEv@PLT
 4392      00
 4393              		.loc 5 166 0 discriminator 2
 4394 1e9a 488B08   		movq	(%rax), %rcx
 4395 1e9d 488D8590 		leaq	-2160(%rbp), %rax
 4395      F7FFFF
 4396 1ea4 BAA60000 		movl	$166, %edx
 4396      00
 4397 1ea9 4889CE   		movq	%rcx, %rsi
 4398 1eac 4889C7   		movq	%rax, %rdi
 4399 1eaf E8000000 		call	_ZN8UnitTest11TestDetailsC1ERKS0_i@PLT
 4399      00
 4400              		.loc 5 166 0 discriminator 4
 4401 1eb4 488D8590 		leaq	-2160(%rbp), %rax
 4401      F7FFFF
 4402 1ebb 488D1500 		leaq	.LC51(%rip), %rdx
 4402      000000
 4403 1ec2 4889C6   		movq	%rax, %rsi
 4404 1ec5 4889DF   		movq	%rbx, %rdi
 4405 1ec8 E8000000 		call	_ZN8UnitTest11TestResults13OnTestFailureERKNS_11TestDetailsEPKc@PLT
 4405      00
 4406              	.LEHE110:
 4407              	.L196:
 161:TestChecks.cpp ****     TestResults results(&reporter);
 4408              		.loc 5 161 0 is_stmt 1
 4409 1ecd 488D85B0 		leaq	-2128(%rbp), %rax
 4409      F7FFFF
 4410 1ed4 4889C7   		movq	%rax, %rdi
 4411              	.LEHB111:
 4412 1ed7 E8000000 		call	_ZN17RecordingReporterD1Ev
 4412      00
 4413              	.LEHE111:
 167:TestChecks.cpp **** }
 4414              		.loc 5 167 0
 4415 1edc 90       		nop
 4416 1edd 488B45E8 		movq	-24(%rbp), %rax
 4417 1ee1 64483304 		xorq	%fs:40, %rax
 4417      25280000 
 4417      00
 4418 1eea 747D     		je	.L200
 4419 1eec EB76     		jmp	.L204
 4420              	.L202:
 166:TestChecks.cpp **** }
 4421              		.loc 5 166 0
 4422 1eee 4889C7   		movq	%rax, %rdi
 4423 1ef1 E8000000 		call	__cxa_begin_catch@PLT
 4423      00
 4424              	.LEHB112:
 4425 1ef6 E8000000 		call	_ZN8UnitTest11CurrentTest7ResultsEv@PLT
 4425      00
 4426 1efb 488B18   		movq	(%rax), %rbx
 4427 1efe E8000000 		call	_ZN8UnitTest11CurrentTest7DetailsEv@PLT
 4427      00
 166:TestChecks.cpp **** }
 4428              		.loc 5 166 0 is_stmt 0 discriminator 8
 4429 1f03 488B08   		movq	(%rax), %rcx
 4430 1f06 488D8590 		leaq	-2160(%rbp), %rax
 4430      F7FFFF
 4431 1f0d BAA60000 		movl	$166, %edx
 4431      00
 4432 1f12 4889CE   		movq	%rcx, %rsi
 4433 1f15 4889C7   		movq	%rax, %rdi
 4434 1f18 E8000000 		call	_ZN8UnitTest11TestDetailsC1ERKS0_i@PLT
 4434      00
 166:TestChecks.cpp **** }
 4435              		.loc 5 166 0 discriminator 12
 4436 1f1d 488D8590 		leaq	-2160(%rbp), %rax
 4436      F7FFFF
 4437 1f24 488D1500 		leaq	.LC52(%rip), %rdx
 4437      000000
 4438 1f2b 4889C6   		movq	%rax, %rsi
 4439 1f2e 4889DF   		movq	%rbx, %rdi
 4440 1f31 E8000000 		call	_ZN8UnitTest11TestResults13OnTestFailureERKNS_11TestDetailsEPKc@PLT
 4440      00
 4441              	.LEHE112:
 4442              	.LEHB113:
 166:TestChecks.cpp **** }
 4443              		.loc 5 166 0 discriminator 14
 4444 1f36 E8000000 		call	__cxa_end_catch@PLT
 4444      00
 4445              	.LEHE113:
 166:TestChecks.cpp **** }
 4446              		.loc 5 166 0
 4447 1f3b EB90     		jmp	.L196
 4448              	.L203:
 4449 1f3d 4889C3   		movq	%rax, %rbx
 4450 1f40 E8000000 		call	__cxa_end_catch@PLT
 4450      00
 4451 1f45 EB03     		jmp	.L199
 4452              	.L201:
 4453 1f47 4889C3   		movq	%rax, %rbx
 4454              	.L199:
 161:TestChecks.cpp ****     TestResults results(&reporter);
 4455              		.loc 5 161 0 is_stmt 1
 4456 1f4a 488D85B0 		leaq	-2128(%rbp), %rax
 4456      F7FFFF
 4457 1f51 4889C7   		movq	%rax, %rdi
 4458 1f54 E8000000 		call	_ZN17RecordingReporterD1Ev
 4458      00
 4459 1f59 4889D8   		movq	%rbx, %rax
 4460 1f5c 4889C7   		movq	%rax, %rdi
 4461              	.LEHB114:
 4462 1f5f E8000000 		call	_Unwind_Resume@PLT
 4462      00
 4463              	.LEHE114:
 4464              	.L204:
 4465              		.loc 5 167 0
 4466 1f64 E8000000 		call	__stack_chk_fail@PLT
 4466      00
 4467              	.L200:
 4468 1f69 4881C4A8 		addq	$2216, %rsp
 4468      080000
 4469 1f70 5B       		popq	%rbx
 4470 1f71 5D       		popq	%rbp
 4471              		.cfi_def_cfa 7, 8
 4472 1f72 C3       		ret
 4473              		.cfi_endproc
 4474              	.LFE1161:
 4475              		.section	.gcc_except_table
 4476              		.align 4
 4477              	.LLSDA1161:
 4478 031c FF       		.byte	0xff
 4479 031d 9B       		.byte	0x9b
 4480 031e 2D       		.uleb128 .LLSDATT1161-.LLSDATTD1161
 4481              	.LLSDATTD1161:
 4482 031f 01       		.byte	0x1
 4483 0320 22       		.uleb128 .LLSDACSE1161-.LLSDACSB1161
 4484              	.LLSDACSB1161:
 4485 0321 45       		.uleb128 .LEHB109-.LFB1161
 4486 0322 8101     		.uleb128 .LEHE109-.LEHB109
 4487 0324 AB03     		.uleb128 .L201-.LFB1161
 4488 0326 00       		.uleb128 0
 4489 0327 F101     		.uleb128 .LEHB110-.LFB1161
 4490 0329 40       		.uleb128 .LEHE110-.LEHB110
 4491 032a D202     		.uleb128 .L202-.LFB1161
 4492 032c 01       		.uleb128 0x1
 4493 032d BB02     		.uleb128 .LEHB111-.LFB1161
 4494 032f 05       		.uleb128 .LEHE111-.LEHB111
 4495 0330 00       		.uleb128 0
 4496 0331 00       		.uleb128 0
 4497 0332 DA02     		.uleb128 .LEHB112-.LFB1161
 4498 0334 40       		.uleb128 .LEHE112-.LEHB112
 4499 0335 A103     		.uleb128 .L203-.LFB1161
 4500 0337 00       		.uleb128 0
 4501 0338 9A03     		.uleb128 .LEHB113-.LFB1161
 4502 033a 05       		.uleb128 .LEHE113-.LEHB113
 4503 033b AB03     		.uleb128 .L201-.LFB1161
 4504 033d 00       		.uleb128 0
 4505 033e C303     		.uleb128 .LEHB114-.LFB1161
 4506 0340 05       		.uleb128 .LEHE114-.LEHB114
 4507 0341 00       		.uleb128 0
 4508 0342 00       		.uleb128 0
 4509              	.LLSDACSE1161:
 4510 0343 01       		.byte	0x1
 4511 0344 00       		.byte	0
 4512 0345 000000   		.align 4
 4513 0348 00000000 		.long	0
 4514              	
 4515              	.LLSDATT1161:
 4516              		.text
 4518              		.section	.rodata
 4519 0761 00000000 		.align 8
 4519      000000
 4520              	.LC53:
 4521 0768 43686563 		.string	"CheckCloseFailureIncludesDetails"
 4521      6B436C6F 
 4521      73654661 
 4521      696C7572 
 4521      65496E63 
 4522              		.text
 4523 1f73 90       		.align 2
 4525              	_ZN12_GLOBAL__N_136TestCheckCloseFailureIncludesDetailsC2Ev:
 4526              	.LFB1163:
 168:TestChecks.cpp **** 
 169:TestChecks.cpp **** TEST(CheckCloseFailureIncludesDetails)
 4527              		.loc 5 169 0
 4528              		.cfi_startproc
 4529 1f74 55       		pushq	%rbp
 4530              		.cfi_def_cfa_offset 16
 4531              		.cfi_offset 6, -16
 4532 1f75 4889E5   		movq	%rsp, %rbp
 4533              		.cfi_def_cfa_register 6
 4534 1f78 53       		pushq	%rbx
 4535 1f79 4883EC18 		subq	$24, %rsp
 4536              		.cfi_offset 3, -24
 4537 1f7d 48897DE8 		movq	%rdi, -24(%rbp)
 4538              	.LBB22:
 4539              		.loc 5 169 0
 4540 1f81 488B5DE8 		movq	-24(%rbp), %rbx
 4541 1f85 E8000000 		call	_ZN13UnitTestSuite12GetSuiteNameEv
 4541      00
 4542 1f8a 41B8A900 		movl	$169, %r8d
 4542      0000
 4543 1f90 488D0D00 		leaq	.LC2(%rip), %rcx
 4543      000000
 4544 1f97 4889C2   		movq	%rax, %rdx
 4545 1f9a 488D3500 		leaq	.LC53(%rip), %rsi
 4545      000000
 4546 1fa1 4889DF   		movq	%rbx, %rdi
 4547 1fa4 E8000000 		call	_ZN8UnitTest4TestC2EPKcS2_S2_i@PLT
 4547      00
 4548 1fa9 488D1500 		leaq	16+_ZTVN12_GLOBAL__N_136TestCheckCloseFailureIncludesDetailsE(%rip), %rdx
 4548      000000
 4549 1fb0 488B45E8 		movq	-24(%rbp), %rax
 4550 1fb4 488910   		movq	%rdx, (%rax)
 4551              	.LBE22:
 4552 1fb7 90       		nop
 4553 1fb8 4883C418 		addq	$24, %rsp
 4554 1fbc 5B       		popq	%rbx
 4555 1fbd 5D       		popq	%rbp
 4556              		.cfi_def_cfa 7, 8
 4557 1fbe C3       		ret
 4558              		.cfi_endproc
 4559              	.LFE1163:
 4561              		.set	_ZN12_GLOBAL__N_136TestCheckCloseFailureIncludesDetailsC1Ev,_ZN12_GLOBAL__N_136TestCheckClose
 4562              		.local	_ZN12_GLOBAL__N_144testCheckCloseFailureIncludesDetailsInstanceE
 4563              		.comm	_ZN12_GLOBAL__N_144testCheckCloseFailureIncludesDetailsInstanceE,56,32
 4564              		.local	_ZN12_GLOBAL__N_137adderCheckCloseFailureIncludesDetailsE
 4565              		.comm	_ZN12_GLOBAL__N_137adderCheckCloseFailureIncludesDetailsE,1,1
 4566              		.section	.rodata
 4567              	.LC54:
 4568 0789 68656164 		.string	"header.h"
 4568      65722E68 
 4568      00
 4569 0792 00000000 		.align 8
 4569      0000
 4570              	.LC55:
 4571 0798 556E6861 		.string	"Unhandled exception in CHECK_EQUAL(\"header.h\", reporter.lastFailedFile)"
 4571      6E646C65 
 4571      64206578 
 4571      63657074 
 4571      696F6E20 
 4572              		.align 8
 4573              	.LC56:
 4574 07e0 556E6861 		.string	"Unhandled exception in CHECK_EQUAL(10, reporter.lastFailedLine)"
 4574      6E646C65 
 4574      64206578 
 4574      63657074 
 4574      696F6E20 
 4575              		.text
 4576 1fbf 90       		.align 2
 4578              	_ZNK12_GLOBAL__N_136TestCheckCloseFailureIncludesDetails7RunImplEv:
 4579              	.LFB1165:
 170:TestChecks.cpp **** {
 4580              		.loc 5 170 0
 4581              		.cfi_startproc
 4582              		.cfi_personality 0x9b,DW.ref.__gxx_personality_v0
 4583              		.cfi_lsda 0x1b,.LLSDA1165
 4584 1fc0 55       		pushq	%rbp
 4585              		.cfi_def_cfa_offset 16
 4586              		.cfi_offset 6, -16
 4587 1fc1 4889E5   		movq	%rsp, %rbp
 4588              		.cfi_def_cfa_register 6
 4589 1fc4 53       		pushq	%rbx
 4590 1fc5 4881ECC8 		subq	$2248, %rsp
 4590      080000
 4591              		.cfi_offset 3, -24
 4592 1fcc 4889BD38 		movq	%rdi, -2248(%rbp)
 4592      F7FFFF
 4593              		.loc 5 170 0
 4594 1fd3 64488B04 		movq	%fs:40, %rax
 4594      25280000 
 4594      00
 4595 1fdc 488945E8 		movq	%rax, -24(%rbp)
 4596 1fe0 31C0     		xorl	%eax, %eax
 171:TestChecks.cpp ****     RecordingReporter reporter;
 4597              		.loc 5 171 0
 4598 1fe2 488D85B0 		leaq	-2128(%rbp), %rax
 4598      F7FFFF
 4599 1fe9 4889C7   		movq	%rax, %rdi
 4600 1fec E8000000 		call	_ZN17RecordingReporterC1Ev
 4600      00
 172:TestChecks.cpp ****     TestResults results(&reporter);
 4601              		.loc 5 172 0
 4602 1ff1 488D95B0 		leaq	-2128(%rbp), %rdx
 4602      F7FFFF
 4603 1ff8 488D8550 		leaq	-2224(%rbp), %rax
 4603      F7FFFF
 4604 1fff 4889D6   		movq	%rdx, %rsi
 4605 2002 4889C7   		movq	%rax, %rdi
 4606              	.LEHB115:
 4607 2005 E8000000 		call	_ZN8UnitTest11TestResultsC1EPNS_12TestReporterE@PLT
 4607      00
 173:TestChecks.cpp ****     TestDetails const details("mytest", "mysuite", "header.h", 10);
 4608              		.loc 5 173 0
 4609 200a 488D8570 		leaq	-2192(%rbp), %rax
 4609      F7FFFF
 4610 2011 41B80A00 		movl	$10, %r8d
 4610      0000
 4611 2017 488D0D00 		leaq	.LC54(%rip), %rcx
 4611      000000
 4612 201e 488D1500 		leaq	.LC24(%rip), %rdx
 4612      000000
 4613 2025 488D3500 		leaq	.LC25(%rip), %rsi
 4613      000000
 4614 202c 4889C7   		movq	%rax, %rdi
 4615 202f E8000000 		call	_ZN8UnitTest11TestDetailsC1EPKcS2_S2_i@PLT
 4615      00
 174:TestChecks.cpp **** 
 175:TestChecks.cpp ****     CheckClose(results, 2, 3, 0.01f, details);
 4616              		.loc 5 175 0
 4617 2034 F30F1005 		movss	.LC42(%rip), %xmm0
 4617      00000000 
 4618 203c F30F1185 		movss	%xmm0, -2160(%rbp)
 4618      90F7FFFF 
 4619 2044 C7854CF7 		movl	$3, -2228(%rbp)
 4619      FFFF0300 
 4619      0000
 4620 204e C78548F7 		movl	$2, -2232(%rbp)
 4620      FFFF0200 
 4620      0000
 4621 2058 488DBD70 		leaq	-2192(%rbp), %rdi
 4621      F7FFFF
 4622 205f 488D8D90 		leaq	-2160(%rbp), %rcx
 4622      F7FFFF
 4623 2066 488D954C 		leaq	-2228(%rbp), %rdx
 4623      F7FFFF
 4624 206d 488DB548 		leaq	-2232(%rbp), %rsi
 4624      F7FFFF
 4625 2074 488D8550 		leaq	-2224(%rbp), %rax
 4625      F7FFFF
 4626 207b 4989F8   		movq	%rdi, %r8
 4627 207e 4889C7   		movq	%rax, %rdi
 4628 2081 E8000000 		call	_ZN8UnitTest10CheckCloseIiifEEvRNS_11TestResultsERKT_RKT0_RKT1_RKNS_11TestDetailsE
 4628      00
 4629              	.LEHE115:
 4630              	.LEHB116:
 176:TestChecks.cpp **** 
 177:TestChecks.cpp ****     CHECK_EQUAL("mytest", reporter.lastFailedTest);
 4631              		.loc 5 177 0 discriminator 2
 4632 2086 E8000000 		call	_ZN8UnitTest11CurrentTest7DetailsEv@PLT
 4632      00
 4633 208b 488B08   		movq	(%rax), %rcx
 4634 208e 488D8590 		leaq	-2160(%rbp), %rax
 4634      F7FFFF
 4635 2095 BAB10000 		movl	$177, %edx
 4635      00
 4636 209a 4889CE   		movq	%rcx, %rsi
 4637 209d 4889C7   		movq	%rax, %rdi
 4638 20a0 E8000000 		call	_ZN8UnitTest11TestDetailsC1ERKS0_i@PLT
 4638      00
 4639 20a5 E8000000 		call	_ZN8UnitTest11CurrentTest7ResultsEv@PLT
 4639      00
 4640 20aa 488B00   		movq	(%rax), %rax
 4641 20ad 488D9590 		leaq	-2160(%rbp), %rdx
 4641      F7FFFF
 4642 20b4 488D8DB0 		leaq	-2128(%rbp), %rcx
 4642      F7FFFF
 4643 20bb 488DB114 		leaq	1044(%rcx), %rsi
 4643      040000
 4644 20c2 4889D1   		movq	%rdx, %rcx
 4645 20c5 4889F2   		movq	%rsi, %rdx
 4646 20c8 488D3500 		leaq	.LC25(%rip), %rsi
 4646      000000
 4647 20cf 4889C7   		movq	%rax, %rdi
 4648 20d2 E8000000 		call	_ZN8UnitTest10CheckEqualERNS_11TestResultsEPKcPcRKNS_11TestDetailsE@PLT
 4648      00
 4649              	.LEHE116:
 4650              	.L208:
 4651              	.LEHB117:
 178:TestChecks.cpp ****     CHECK_EQUAL("mysuite", reporter.lastFailedSuite);
 4652              		.loc 5 178 0
 4653 20d7 E8000000 		call	_ZN8UnitTest11CurrentTest7DetailsEv@PLT
 4653      00
 4654 20dc 488B08   		movq	(%rax), %rcx
 4655 20df 488D8590 		leaq	-2160(%rbp), %rax
 4655      F7FFFF
 4656 20e6 BAB20000 		movl	$178, %edx
 4656      00
 4657 20eb 4889CE   		movq	%rcx, %rsi
 4658 20ee 4889C7   		movq	%rax, %rdi
 4659 20f1 E8000000 		call	_ZN8UnitTest11TestDetailsC1ERKS0_i@PLT
 4659      00
 4660              		.loc 5 178 0 is_stmt 0 discriminator 2
 4661 20f6 E8000000 		call	_ZN8UnitTest11CurrentTest7ResultsEv@PLT
 4661      00
 4662 20fb 488B00   		movq	(%rax), %rax
 4663 20fe 488D9590 		leaq	-2160(%rbp), %rdx
 4663      F7FFFF
 4664 2105 488D8DB0 		leaq	-2128(%rbp), %rcx
 4664      F7FFFF
 4665 210c 488DB114 		leaq	788(%rcx), %rsi
 4665      030000
 4666 2113 4889D1   		movq	%rdx, %rcx
 4667 2116 4889F2   		movq	%rsi, %rdx
 4668 2119 488D3500 		leaq	.LC24(%rip), %rsi
 4668      000000
 4669 2120 4889C7   		movq	%rax, %rdi
 4670 2123 E8000000 		call	_ZN8UnitTest10CheckEqualERNS_11TestResultsEPKcPcRKNS_11TestDetailsE@PLT
 4670      00
 4671              	.LEHE117:
 4672              	.L212:
 4673              	.LEHB118:
 179:TestChecks.cpp ****     CHECK_EQUAL("header.h", reporter.lastFailedFile);
 4674              		.loc 5 179 0 is_stmt 1
 4675 2128 E8000000 		call	_ZN8UnitTest11CurrentTest7DetailsEv@PLT
 4675      00
 4676 212d 488B08   		movq	(%rax), %rcx
 4677 2130 488D8590 		leaq	-2160(%rbp), %rax
 4677      F7FFFF
 4678 2137 BAB30000 		movl	$179, %edx
 4678      00
 4679 213c 4889CE   		movq	%rcx, %rsi
 4680 213f 4889C7   		movq	%rax, %rdi
 4681 2142 E8000000 		call	_ZN8UnitTest11TestDetailsC1ERKS0_i@PLT
 4681      00
 4682              		.loc 5 179 0 is_stmt 0 discriminator 2
 4683 2147 E8000000 		call	_ZN8UnitTest11CurrentTest7ResultsEv@PLT
 4683      00
 4684 214c 488B00   		movq	(%rax), %rax
 4685 214f 488D9590 		leaq	-2160(%rbp), %rdx
 4685      F7FFFF
 4686 2156 488D8DB0 		leaq	-2128(%rbp), %rcx
 4686      F7FFFF
 4687 215d 488DB110 		leaq	528(%rcx), %rsi
 4687      020000
 4688 2164 4889D1   		movq	%rdx, %rcx
 4689 2167 4889F2   		movq	%rsi, %rdx
 4690 216a 488D3500 		leaq	.LC54(%rip), %rsi
 4690      000000
 4691 2171 4889C7   		movq	%rax, %rdi
 4692 2174 E8000000 		call	_ZN8UnitTest10CheckEqualERNS_11TestResultsEPKcPcRKNS_11TestDetailsE@PLT
 4692      00
 4693              	.LEHE118:
 4694              	.L215:
 4695              	.LEHB119:
 180:TestChecks.cpp ****     CHECK_EQUAL(10, reporter.lastFailedLine);
 4696              		.loc 5 180 0 is_stmt 1
 4697 2179 E8000000 		call	_ZN8UnitTest11CurrentTest7DetailsEv@PLT
 4697      00
 4698 217e 488B08   		movq	(%rax), %rcx
 4699 2181 488D8590 		leaq	-2160(%rbp), %rax
 4699      F7FFFF
 4700 2188 BAB40000 		movl	$180, %edx
 4700      00
 4701 218d 4889CE   		movq	%rcx, %rsi
 4702 2190 4889C7   		movq	%rax, %rdi
 4703 2193 E8000000 		call	_ZN8UnitTest11TestDetailsC1ERKS0_i@PLT
 4703      00
 4704              	.LEHE119:
 4705              		.loc 5 180 0 is_stmt 0 discriminator 2
 4706 2198 C7854CF7 		movl	$10, -2228(%rbp)
 4706      FFFF0A00 
 4706      0000
 4707              	.LEHB120:
 4708 21a2 E8000000 		call	_ZN8UnitTest11CurrentTest7ResultsEv@PLT
 4708      00
 4709 21a7 488B00   		movq	(%rax), %rax
 4710 21aa 488D9590 		leaq	-2160(%rbp), %rdx
 4710      F7FFFF
 4711 21b1 488D8DB0 		leaq	-2128(%rbp), %rcx
 4711      F7FFFF
 4712 21b8 488DB910 		leaq	784(%rcx), %rdi
 4712      030000
 4713 21bf 488DB54C 		leaq	-2228(%rbp), %rsi
 4713      F7FFFF
 4714 21c6 4889D1   		movq	%rdx, %rcx
 4715 21c9 4889FA   		movq	%rdi, %rdx
 4716 21cc 4889C7   		movq	%rax, %rdi
 4717 21cf E8000000 		call	_ZN8UnitTest10CheckEqualIiiEEvRNS_11TestResultsERKT_RKT0_RKNS_11TestDetailsE
 4717      00
 4718              	.LEHE120:
 4719              	.L219:
 171:TestChecks.cpp ****     TestResults results(&reporter);
 4720              		.loc 5 171 0 is_stmt 1
 4721 21d4 488D85B0 		leaq	-2128(%rbp), %rax
 4721      F7FFFF
 4722 21db 4889C7   		movq	%rax, %rdi
 4723              	.LEHB121:
 4724 21de E8000000 		call	_ZN17RecordingReporterD1Ev
 4724      00
 4725              	.LEHE121:
 181:TestChecks.cpp **** }
 4726              		.loc 5 181 0
 4727 21e3 90       		nop
 4728 21e4 488B45E8 		movq	-24(%rbp), %rax
 4729 21e8 64483304 		xorq	%fs:40, %rax
 4729      25280000 
 4729      00
 4730 21f1 0F849F01 		je	.L221
 4730      0000
 4731 21f7 E9950100 		jmp	.L232
 4731      00
 4732              	.L223:
 177:TestChecks.cpp ****     CHECK_EQUAL("mysuite", reporter.lastFailedSuite);
 4733              		.loc 5 177 0
 4734 21fc 4889C7   		movq	%rax, %rdi
 4735 21ff E8000000 		call	__cxa_begin_catch@PLT
 4735      00
 4736              	.LEHB122:
 4737 2204 E8000000 		call	_ZN8UnitTest11CurrentTest7ResultsEv@PLT
 4737      00
 4738 2209 488B18   		movq	(%rax), %rbx
 4739 220c E8000000 		call	_ZN8UnitTest11CurrentTest7DetailsEv@PLT
 4739      00
 177:TestChecks.cpp ****     CHECK_EQUAL("mysuite", reporter.lastFailedSuite);
 4740              		.loc 5 177 0 is_stmt 0 discriminator 8
 4741 2211 488B08   		movq	(%rax), %rcx
 4742 2214 488D8590 		leaq	-2160(%rbp), %rax
 4742      F7FFFF
 4743 221b BAB10000 		movl	$177, %edx
 4743      00
 4744 2220 4889CE   		movq	%rcx, %rsi
 4745 2223 4889C7   		movq	%rax, %rdi
 4746 2226 E8000000 		call	_ZN8UnitTest11TestDetailsC1ERKS0_i@PLT
 4746      00
 177:TestChecks.cpp ****     CHECK_EQUAL("mysuite", reporter.lastFailedSuite);
 4747              		.loc 5 177 0 discriminator 12
 4748 222b 488D8590 		leaq	-2160(%rbp), %rax
 4748      F7FFFF
 4749 2232 488D1500 		leaq	.LC26(%rip), %rdx
 4749      000000
 4750 2239 4889C6   		movq	%rax, %rsi
 4751 223c 4889DF   		movq	%rbx, %rdi
 4752 223f E8000000 		call	_ZN8UnitTest11TestResults13OnTestFailureERKNS_11TestDetailsEPKc@PLT
 4752      00
 4753              	.LEHE122:
 4754              	.LEHB123:
 177:TestChecks.cpp ****     CHECK_EQUAL("mysuite", reporter.lastFailedSuite);
 4755              		.loc 5 177 0 discriminator 14
 4756 2244 E8000000 		call	__cxa_end_catch@PLT
 4756      00
 4757              	.LEHE123:
 177:TestChecks.cpp ****     CHECK_EQUAL("mysuite", reporter.lastFailedSuite);
 4758              		.loc 5 177 0
 4759 2249 E989FEFF 		jmp	.L208
 4759      FF
 4760              	.L224:
 4761 224e 4889C3   		movq	%rax, %rbx
 4762 2251 E8000000 		call	__cxa_end_catch@PLT
 4762      00
 4763 2256 E91C0100 		jmp	.L210
 4763      00
 4764              	.L225:
 178:TestChecks.cpp ****     CHECK_EQUAL("header.h", reporter.lastFailedFile);
 4765              		.loc 5 178 0 is_stmt 1
 4766 225b 4889C7   		movq	%rax, %rdi
 4767 225e E8000000 		call	__cxa_begin_catch@PLT
 4767      00
 4768              	.LEHB124:
 4769 2263 E8000000 		call	_ZN8UnitTest11CurrentTest7ResultsEv@PLT
 4769      00
 4770 2268 488B18   		movq	(%rax), %rbx
 4771 226b E8000000 		call	_ZN8UnitTest11CurrentTest7DetailsEv@PLT
 4771      00
 178:TestChecks.cpp ****     CHECK_EQUAL("header.h", reporter.lastFailedFile);
 4772              		.loc 5 178 0 is_stmt 0 discriminator 8
 4773 2270 488B08   		movq	(%rax), %rcx
 4774 2273 488D8590 		leaq	-2160(%rbp), %rax
 4774      F7FFFF
 4775 227a BAB20000 		movl	$178, %edx
 4775      00
 4776 227f 4889CE   		movq	%rcx, %rsi
 4777 2282 4889C7   		movq	%rax, %rdi
 4778 2285 E8000000 		call	_ZN8UnitTest11TestDetailsC1ERKS0_i@PLT
 4778      00
 178:TestChecks.cpp ****     CHECK_EQUAL("header.h", reporter.lastFailedFile);
 4779              		.loc 5 178 0 discriminator 12
 4780 228a 488D8590 		leaq	-2160(%rbp), %rax
 4780      F7FFFF
 4781 2291 488D1500 		leaq	.LC27(%rip), %rdx
 4781      000000
 4782 2298 4889C6   		movq	%rax, %rsi
 4783 229b 4889DF   		movq	%rbx, %rdi
 4784 229e E8000000 		call	_ZN8UnitTest11TestResults13OnTestFailureERKNS_11TestDetailsEPKc@PLT
 4784      00
 4785              	.LEHE124:
 4786              	.LEHB125:
 178:TestChecks.cpp ****     CHECK_EQUAL("header.h", reporter.lastFailedFile);
 4787              		.loc 5 178 0 discriminator 14
 4788 22a3 E8000000 		call	__cxa_end_catch@PLT
 4788      00
 4789              	.LEHE125:
 178:TestChecks.cpp ****     CHECK_EQUAL("header.h", reporter.lastFailedFile);
 4790              		.loc 5 178 0
 4791 22a8 E97BFEFF 		jmp	.L212
 4791      FF
 4792              	.L226:
 4793 22ad 4889C3   		movq	%rax, %rbx
 4794 22b0 E8000000 		call	__cxa_end_catch@PLT
 4794      00
 4795 22b5 E9BD0000 		jmp	.L210
 4795      00
 4796              	.L227:
 179:TestChecks.cpp ****     CHECK_EQUAL(10, reporter.lastFailedLine);
 4797              		.loc 5 179 0 is_stmt 1
 4798 22ba 4889C7   		movq	%rax, %rdi
 4799 22bd E8000000 		call	__cxa_begin_catch@PLT
 4799      00
 4800              	.LEHB126:
 4801 22c2 E8000000 		call	_ZN8UnitTest11CurrentTest7ResultsEv@PLT
 4801      00
 4802 22c7 488B18   		movq	(%rax), %rbx
 4803 22ca E8000000 		call	_ZN8UnitTest11CurrentTest7DetailsEv@PLT
 4803      00
 179:TestChecks.cpp ****     CHECK_EQUAL(10, reporter.lastFailedLine);
 4804              		.loc 5 179 0 is_stmt 0 discriminator 8
 4805 22cf 488B08   		movq	(%rax), %rcx
 4806 22d2 488D8590 		leaq	-2160(%rbp), %rax
 4806      F7FFFF
 4807 22d9 BAB30000 		movl	$179, %edx
 4807      00
 4808 22de 4889CE   		movq	%rcx, %rsi
 4809 22e1 4889C7   		movq	%rax, %rdi
 4810 22e4 E8000000 		call	_ZN8UnitTest11TestDetailsC1ERKS0_i@PLT
 4810      00
 179:TestChecks.cpp ****     CHECK_EQUAL(10, reporter.lastFailedLine);
 4811              		.loc 5 179 0 discriminator 12
 4812 22e9 488D8590 		leaq	-2160(%rbp), %rax
 4812      F7FFFF
 4813 22f0 488D1500 		leaq	.LC55(%rip), %rdx
 4813      000000
 4814 22f7 4889C6   		movq	%rax, %rsi
 4815 22fa 4889DF   		movq	%rbx, %rdi
 4816 22fd E8000000 		call	_ZN8UnitTest11TestResults13OnTestFailureERKNS_11TestDetailsEPKc@PLT
 4816      00
 4817              	.LEHE126:
 4818              	.LEHB127:
 179:TestChecks.cpp ****     CHECK_EQUAL(10, reporter.lastFailedLine);
 4819              		.loc 5 179 0 discriminator 14
 4820 2302 E8000000 		call	__cxa_end_catch@PLT
 4820      00
 4821              	.LEHE127:
 179:TestChecks.cpp ****     CHECK_EQUAL(10, reporter.lastFailedLine);
 4822              		.loc 5 179 0
 4823 2307 E96DFEFF 		jmp	.L215
 4823      FF
 4824              	.L228:
 4825 230c 4889C3   		movq	%rax, %rbx
 4826 230f E8000000 		call	__cxa_end_catch@PLT
 4826      00
 4827 2314 EB61     		jmp	.L210
 4828              	.L230:
 4829 2316 EB00     		jmp	.L218
 4830              	.L229:
 4831              	.L218:
 180:TestChecks.cpp **** }
 4832              		.loc 5 180 0 is_stmt 1
 4833 2318 4889C7   		movq	%rax, %rdi
 4834 231b E8000000 		call	__cxa_begin_catch@PLT
 4834      00
 4835              	.LEHB128:
 4836 2320 E8000000 		call	_ZN8UnitTest11CurrentTest7ResultsEv@PLT
 4836      00
 4837 2325 488B18   		movq	(%rax), %rbx
 4838 2328 E8000000 		call	_ZN8UnitTest11CurrentTest7DetailsEv@PLT
 4838      00
 180:TestChecks.cpp **** }
 4839              		.loc 5 180 0 is_stmt 0 discriminator 8
 4840 232d 488B08   		movq	(%rax), %rcx
 4841 2330 488D8590 		leaq	-2160(%rbp), %rax
 4841      F7FFFF
 4842 2337 BAB40000 		movl	$180, %edx
 4842      00
 4843 233c 4889CE   		movq	%rcx, %rsi
 4844 233f 4889C7   		movq	%rax, %rdi
 4845 2342 E8000000 		call	_ZN8UnitTest11TestDetailsC1ERKS0_i@PLT
 4845      00
 180:TestChecks.cpp **** }
 4846              		.loc 5 180 0 discriminator 12
 4847 2347 488D8590 		leaq	-2160(%rbp), %rax
 4847      F7FFFF
 4848 234e 488D1500 		leaq	.LC56(%rip), %rdx
 4848      000000
 4849 2355 4889C6   		movq	%rax, %rsi
 4850 2358 4889DF   		movq	%rbx, %rdi
 4851 235b E8000000 		call	_ZN8UnitTest11TestResults13OnTestFailureERKNS_11TestDetailsEPKc@PLT
 4851      00
 4852              	.LEHE128:
 4853              	.LEHB129:
 180:TestChecks.cpp **** }
 4854              		.loc 5 180 0 discriminator 14
 4855 2360 E8000000 		call	__cxa_end_catch@PLT
 4855      00
 4856              	.LEHE129:
 180:TestChecks.cpp **** }
 4857              		.loc 5 180 0
 4858 2365 E96AFEFF 		jmp	.L219
 4858      FF
 4859              	.L231:
 4860 236a 4889C3   		movq	%rax, %rbx
 4861 236d E8000000 		call	__cxa_end_catch@PLT
 4861      00
 4862 2372 EB03     		jmp	.L210
 4863              	.L222:
 4864 2374 4889C3   		movq	%rax, %rbx
 4865              	.L210:
 171:TestChecks.cpp ****     TestResults results(&reporter);
 4866              		.loc 5 171 0 is_stmt 1
 4867 2377 488D85B0 		leaq	-2128(%rbp), %rax
 4867      F7FFFF
 4868 237e 4889C7   		movq	%rax, %rdi
 4869 2381 E8000000 		call	_ZN17RecordingReporterD1Ev
 4869      00
 4870 2386 4889D8   		movq	%rbx, %rax
 4871 2389 4889C7   		movq	%rax, %rdi
 4872              	.LEHB130:
 4873 238c E8000000 		call	_Unwind_Resume@PLT
 4873      00
 4874              	.LEHE130:
 4875              	.L232:
 4876              		.loc 5 181 0
 4877 2391 E8000000 		call	__stack_chk_fail@PLT
 4877      00
 4878              	.L221:
 4879 2396 4881C4C8 		addq	$2248, %rsp
 4879      080000
 4880 239d 5B       		popq	%rbx
 4881 239e 5D       		popq	%rbp
 4882              		.cfi_def_cfa 7, 8
 4883 239f C3       		ret
 4884              		.cfi_endproc
 4885              	.LFE1165:
 4886              		.section	.gcc_except_table
 4887              		.align 4
 4888              	.LLSDA1165:
 4889 034c FF       		.byte	0xff
 4890 034d 9B       		.byte	0x9b
 4891 034e 69       		.uleb128 .LLSDATT1165-.LLSDATTD1165
 4892              	.LLSDATTD1165:
 4893 034f 01       		.byte	0x1
 4894 0350 5E       		.uleb128 .LLSDACSE1165-.LLSDACSB1165
 4895              	.LLSDACSB1165:
 4896 0351 45       		.uleb128 .LEHB115-.LFB1165
 4897 0352 8101     		.uleb128 .LEHE115-.LEHB115
 4898 0354 B407     		.uleb128 .L222-.LFB1165
 4899 0356 00       		.uleb128 0
 4900 0357 C601     		.uleb128 .LEHB116-.LFB1165
 4901 0359 51       		.uleb128 .LEHE116-.LEHB116
 4902 035a BC04     		.uleb128 .L223-.LFB1165
 4903 035c 01       		.uleb128 0x1
 4904 035d 9702     		.uleb128 .LEHB117-.LFB1165
 4905 035f 51       		.uleb128 .LEHE117-.LEHB117
 4906 0360 9B05     		.uleb128 .L225-.LFB1165
 4907 0362 01       		.uleb128 0x1
 4908 0363 E802     		.uleb128 .LEHB118-.LFB1165
 4909 0365 51       		.uleb128 .LEHE118-.LEHB118
 4910 0366 FA05     		.uleb128 .L227-.LFB1165
 4911 0368 01       		.uleb128 0x1
 4912 0369 B903     		.uleb128 .LEHB119-.LFB1165
 4913 036b 1F       		.uleb128 .LEHE119-.LEHB119
 4914 036c D806     		.uleb128 .L229-.LFB1165
 4915 036e 01       		.uleb128 0x1
 4916 036f E203     		.uleb128 .LEHB120-.LFB1165
 4917 0371 32       		.uleb128 .LEHE120-.LEHB120
 4918 0372 D606     		.uleb128 .L230-.LFB1165
 4919 0374 01       		.uleb128 0x1
 4920 0375 9E04     		.uleb128 .LEHB121-.LFB1165
 4921 0377 05       		.uleb128 .LEHE121-.LEHB121
 4922 0378 00       		.uleb128 0
 4923 0379 00       		.uleb128 0
 4924 037a C404     		.uleb128 .LEHB122-.LFB1165
 4925 037c 40       		.uleb128 .LEHE122-.LEHB122
 4926 037d 8E05     		.uleb128 .L224-.LFB1165
 4927 037f 00       		.uleb128 0
 4928 0380 8405     		.uleb128 .LEHB123-.LFB1165
 4929 0382 05       		.uleb128 .LEHE123-.LEHB123
 4930 0383 B407     		.uleb128 .L222-.LFB1165
 4931 0385 00       		.uleb128 0
 4932 0386 A305     		.uleb128 .LEHB124-.LFB1165
 4933 0388 40       		.uleb128 .LEHE124-.LEHB124
 4934 0389 ED05     		.uleb128 .L226-.LFB1165
 4935 038b 00       		.uleb128 0
 4936 038c E305     		.uleb128 .LEHB125-.LFB1165
 4937 038e 05       		.uleb128 .LEHE125-.LEHB125
 4938 038f B407     		.uleb128 .L222-.LFB1165
 4939 0391 00       		.uleb128 0
 4940 0392 8206     		.uleb128 .LEHB126-.LFB1165
 4941 0394 40       		.uleb128 .LEHE126-.LEHB126
 4942 0395 CC06     		.uleb128 .L228-.LFB1165
 4943 0397 00       		.uleb128 0
 4944 0398 C206     		.uleb128 .LEHB127-.LFB1165
 4945 039a 05       		.uleb128 .LEHE127-.LEHB127
 4946 039b B407     		.uleb128 .L222-.LFB1165
 4947 039d 00       		.uleb128 0
 4948 039e E006     		.uleb128 .LEHB128-.LFB1165
 4949 03a0 40       		.uleb128 .LEHE128-.LEHB128
 4950 03a1 AA07     		.uleb128 .L231-.LFB1165
 4951 03a3 00       		.uleb128 0
 4952 03a4 A007     		.uleb128 .LEHB129-.LFB1165
 4953 03a6 05       		.uleb128 .LEHE129-.LEHB129
 4954 03a7 B407     		.uleb128 .L222-.LFB1165
 4955 03a9 00       		.uleb128 0
 4956 03aa CC07     		.uleb128 .LEHB130-.LFB1165
 4957 03ac 05       		.uleb128 .LEHE130-.LEHB130
 4958 03ad 00       		.uleb128 0
 4959 03ae 00       		.uleb128 0
 4960              	.LLSDACSE1165:
 4961 03af 01       		.byte	0x1
 4962 03b0 00       		.byte	0
 4963 03b1 000000   		.align 4
 4964 03b4 00000000 		.long	0
 4965              	
 4966              	.LLSDATT1165:
 4967              		.text
 4969              		.section	.rodata
 4970              	.LC57:
 4971 0820 43686563 		.string	"CheckArrayEqualTrue"
 4971      6B417272 
 4971      61794571 
 4971      75616C54 
 4971      72756500 
 4972              		.text
 4973              		.align 2
 4975              	_ZN12_GLOBAL__N_123TestCheckArrayEqualTrueC2Ev:
 4976              	.LFB1167:
 182:TestChecks.cpp **** 
 183:TestChecks.cpp **** 
 184:TestChecks.cpp **** TEST(CheckArrayEqualTrue)
 4977              		.loc 5 184 0
 4978              		.cfi_startproc
 4979 23a0 55       		pushq	%rbp
 4980              		.cfi_def_cfa_offset 16
 4981              		.cfi_offset 6, -16
 4982 23a1 4889E5   		movq	%rsp, %rbp
 4983              		.cfi_def_cfa_register 6
 4984 23a4 53       		pushq	%rbx
 4985 23a5 4883EC18 		subq	$24, %rsp
 4986              		.cfi_offset 3, -24
 4987 23a9 48897DE8 		movq	%rdi, -24(%rbp)
 4988              	.LBB23:
 4989              		.loc 5 184 0
 4990 23ad 488B5DE8 		movq	-24(%rbp), %rbx
 4991 23b1 E8000000 		call	_ZN13UnitTestSuite12GetSuiteNameEv
 4991      00
 4992 23b6 41B8B800 		movl	$184, %r8d
 4992      0000
 4993 23bc 488D0D00 		leaq	.LC2(%rip), %rcx
 4993      000000
 4994 23c3 4889C2   		movq	%rax, %rdx
 4995 23c6 488D3500 		leaq	.LC57(%rip), %rsi
 4995      000000
 4996 23cd 4889DF   		movq	%rbx, %rdi
 4997 23d0 E8000000 		call	_ZN8UnitTest4TestC2EPKcS2_S2_i@PLT
 4997      00
 4998 23d5 488D1500 		leaq	16+_ZTVN12_GLOBAL__N_123TestCheckArrayEqualTrueE(%rip), %rdx
 4998      000000
 4999 23dc 488B45E8 		movq	-24(%rbp), %rax
 5000 23e0 488910   		movq	%rdx, (%rax)
 5001              	.LBE23:
 5002 23e3 90       		nop
 5003 23e4 4883C418 		addq	$24, %rsp
 5004 23e8 5B       		popq	%rbx
 5005 23e9 5D       		popq	%rbp
 5006              		.cfi_def_cfa 7, 8
 5007 23ea C3       		ret
 5008              		.cfi_endproc
 5009              	.LFE1167:
 5011              		.set	_ZN12_GLOBAL__N_123TestCheckArrayEqualTrueC1Ev,_ZN12_GLOBAL__N_123TestCheckArrayEqualTrueC2Ev
 5012              		.local	_ZN12_GLOBAL__N_131testCheckArrayEqualTrueInstanceE
 5013              		.comm	_ZN12_GLOBAL__N_131testCheckArrayEqualTrueInstanceE,56,32
 5014              		.local	_ZN12_GLOBAL__N_124adderCheckArrayEqualTrueE
 5015              		.comm	_ZN12_GLOBAL__N_124adderCheckArrayEqualTrueE,1,1
 5016 23eb 90       		.align 2
 5018              	_ZNK12_GLOBAL__N_123TestCheckArrayEqualTrue7RunImplEv:
 5019              	.LFB1169:
 185:TestChecks.cpp **** {
 5020              		.loc 5 185 0
 5021              		.cfi_startproc
 5022              		.cfi_personality 0x9b,DW.ref.__gxx_personality_v0
 5023              		.cfi_lsda 0x1b,.LLSDA1169
 5024 23ec 55       		pushq	%rbp
 5025              		.cfi_def_cfa_offset 16
 5026              		.cfi_offset 6, -16
 5027 23ed 4889E5   		movq	%rsp, %rbp
 5028              		.cfi_def_cfa_register 6
 5029 23f0 53       		pushq	%rbx
 5030 23f1 4881EC88 		subq	$136, %rsp
 5030      000000
 5031              		.cfi_offset 3, -24
 5032 23f8 4889BD78 		movq	%rdi, -136(%rbp)
 5032      FFFFFF
 5033              		.loc 5 185 0
 5034 23ff 64488B04 		movq	%fs:40, %rax
 5034      25280000 
 5034      00
 5035 2408 488945E8 		movq	%rax, -24(%rbp)
 5036 240c 31C0     		xorl	%eax, %eax
 186:TestChecks.cpp ****     TestResults results;
 5037              		.loc 5 186 0
 5038 240e 488D4590 		leaq	-112(%rbp), %rax
 5039 2412 BE000000 		movl	$0, %esi
 5039      00
 5040 2417 4889C7   		movq	%rax, %rdi
 5041              	.LEHB131:
 5042 241a E8000000 		call	_ZN8UnitTest11TestResultsC1EPNS_12TestReporterE@PLT
 5042      00
 187:TestChecks.cpp **** 
 188:TestChecks.cpp ****     int const array[3] = { 1, 2, 3 };
 5043              		.loc 5 188 0
 5044 241f C745DC01 		movl	$1, -36(%rbp)
 5044      000000
 5045 2426 C745E002 		movl	$2, -32(%rbp)
 5045      000000
 5046 242d C745E403 		movl	$3, -28(%rbp)
 5046      000000
 189:TestChecks.cpp ****     CheckArrayEqual(results, array, array, 3, TestDetails("", "", "", 0));
 5047              		.loc 5 189 0
 5048 2434 488D45B0 		leaq	-80(%rbp), %rax
 5049 2438 41B80000 		movl	$0, %r8d
 5049      0000
 5050 243e 488D0D00 		leaq	.LC6(%rip), %rcx
 5050      000000
 5051 2445 488D1500 		leaq	.LC6(%rip), %rdx
 5051      000000
 5052 244c 488D3500 		leaq	.LC6(%rip), %rsi
 5052      000000
 5053 2453 4889C7   		movq	%rax, %rdi
 5054 2456 E8000000 		call	_ZN8UnitTest11TestDetailsC1EPKcS2_S2_i@PLT
 5054      00
 5055 245b 488D4DB0 		leaq	-80(%rbp), %rcx
 5056 245f 488D55DC 		leaq	-36(%rbp), %rdx
 5057 2463 488D75DC 		leaq	-36(%rbp), %rsi
 5058 2467 488D4590 		leaq	-112(%rbp), %rax
 5059 246b 4989C8   		movq	%rcx, %r8
 5060 246e B9030000 		movl	$3, %ecx
 5060      00
 5061 2473 4889C7   		movq	%rax, %rdi
 5062 2476 E8000000 		call	_ZN8UnitTest15CheckArrayEqualIA3_iS1_EEvRNS_11TestResultsERKT_RKT0_iRKNS_11TestDetailsE
 5062      00
 5063              	.LEHE131:
 5064              	.LEHB132:
 190:TestChecks.cpp ****     CHECK_EQUAL(0, results.GetFailureCount());
 5065              		.loc 5 190 0
 5066 247b E8000000 		call	_ZN8UnitTest11CurrentTest7DetailsEv@PLT
 5066      00
 5067 2480 488B08   		movq	(%rax), %rcx
 5068 2483 488D45B0 		leaq	-80(%rbp), %rax
 5069 2487 BABE0000 		movl	$190, %edx
 5069      00
 5070 248c 4889CE   		movq	%rcx, %rsi
 5071 248f 4889C7   		movq	%rax, %rdi
 5072 2492 E8000000 		call	_ZN8UnitTest11TestDetailsC1ERKS0_i@PLT
 5072      00
 5073              		.loc 5 190 0 is_stmt 0 discriminator 2
 5074 2497 488D4590 		leaq	-112(%rbp), %rax
 5075 249b 4889C7   		movq	%rax, %rdi
 5076 249e E8000000 		call	_ZNK8UnitTest11TestResults15GetFailureCountEv@PLT
 5076      00
 5077              	.LEHE132:
 5078 24a3 89458C   		movl	%eax, -116(%rbp)
 5079 24a6 C7458800 		movl	$0, -120(%rbp)
 5079      000000
 5080              	.LEHB133:
 5081 24ad E8000000 		call	_ZN8UnitTest11CurrentTest7ResultsEv@PLT
 5081      00
 5082              		.loc 5 190 0 discriminator 4
 5083 24b2 488B00   		movq	(%rax), %rax
 5084 24b5 488D4DB0 		leaq	-80(%rbp), %rcx
 5085 24b9 488D558C 		leaq	-116(%rbp), %rdx
 5086 24bd 488D7588 		leaq	-120(%rbp), %rsi
 5087 24c1 4889C7   		movq	%rax, %rdi
 5088 24c4 E8000000 		call	_ZN8UnitTest10CheckEqualIiiEEvRNS_11TestResultsERKT_RKT0_RKNS_11TestDetailsE
 5088      00
 5089              	.LEHE133:
 191:TestChecks.cpp **** }
 5090              		.loc 5 191 0 is_stmt 1
 5091 24c9 EB5E     		jmp	.L234
 5092              	.L241:
 5093 24cb EB00     		jmp	.L236
 5094              	.L240:
 5095              	.L236:
 190:TestChecks.cpp ****     CHECK_EQUAL(0, results.GetFailureCount());
 5096              		.loc 5 190 0
 5097 24cd 4889C7   		movq	%rax, %rdi
 5098 24d0 E8000000 		call	__cxa_begin_catch@PLT
 5098      00
 5099              	.LEHB134:
 5100 24d5 E8000000 		call	_ZN8UnitTest11CurrentTest7ResultsEv@PLT
 5100      00
 5101 24da 488B18   		movq	(%rax), %rbx
 5102 24dd E8000000 		call	_ZN8UnitTest11CurrentTest7DetailsEv@PLT
 5102      00
 190:TestChecks.cpp ****     CHECK_EQUAL(0, results.GetFailureCount());
 5103              		.loc 5 190 0 is_stmt 0 discriminator 10
 5104 24e2 488B08   		movq	(%rax), %rcx
 5105 24e5 488D45B0 		leaq	-80(%rbp), %rax
 5106 24e9 BABE0000 		movl	$190, %edx
 5106      00
 5107 24ee 4889CE   		movq	%rcx, %rsi
 5108 24f1 4889C7   		movq	%rax, %rdi
 5109 24f4 E8000000 		call	_ZN8UnitTest11TestDetailsC1ERKS0_i@PLT
 5109      00
 190:TestChecks.cpp ****     CHECK_EQUAL(0, results.GetFailureCount());
 5110              		.loc 5 190 0 discriminator 14
 5111 24f9 488D45B0 		leaq	-80(%rbp), %rax
 5112 24fd 488D1500 		leaq	.LC9(%rip), %rdx
 5112      000000
 5113 2504 4889C6   		movq	%rax, %rsi
 5114 2507 4889DF   		movq	%rbx, %rdi
 5115 250a E8000000 		call	_ZN8UnitTest11TestResults13OnTestFailureERKNS_11TestDetailsEPKc@PLT
 5115      00
 5116              	.LEHE134:
 5117              	.LEHB135:
 190:TestChecks.cpp ****     CHECK_EQUAL(0, results.GetFailureCount());
 5118              		.loc 5 190 0 discriminator 16
 5119 250f E8000000 		call	__cxa_end_catch@PLT
 5119      00
 5120              	.LEHE135:
 5121              		.loc 5 191 0 is_stmt 1 discriminator 16
 5122 2514 EB13     		jmp	.L234
 5123              	.L242:
 5124 2516 4889C3   		movq	%rax, %rbx
 190:TestChecks.cpp ****     CHECK_EQUAL(0, results.GetFailureCount());
 5125              		.loc 5 190 0
 5126 2519 E8000000 		call	__cxa_end_catch@PLT
 5126      00
 5127 251e 4889D8   		movq	%rbx, %rax
 5128 2521 4889C7   		movq	%rax, %rdi
 5129              	.LEHB136:
 5130 2524 E8000000 		call	_Unwind_Resume@PLT
 5130      00
 5131              	.LEHE136:
 5132              	.L234:
 5133              		.loc 5 191 0
 5134 2529 488B45E8 		movq	-24(%rbp), %rax
 5135 252d 64483304 		xorq	%fs:40, %rax
 5135      25280000 
 5135      00
 5136 2536 7405     		je	.L239
 5137 2538 E8000000 		call	__stack_chk_fail@PLT
 5137      00
 5138              	.L239:
 5139 253d 4881C488 		addq	$136, %rsp
 5139      000000
 5140 2544 5B       		popq	%rbx
 5141 2545 5D       		popq	%rbp
 5142              		.cfi_def_cfa 7, 8
 5143 2546 C3       		ret
 5144              		.cfi_endproc
 5145              	.LFE1169:
 5146              		.section	.gcc_except_table
 5147              		.align 4
 5148              	.LLSDA1169:
 5149 03b8 FF       		.byte	0xff
 5150 03b9 9B       		.byte	0x9b
 5151 03ba 2D       		.uleb128 .LLSDATT1169-.LLSDATTD1169
 5152              	.LLSDATTD1169:
 5153 03bb 01       		.byte	0x1
 5154 03bc 20       		.uleb128 .LLSDACSE1169-.LLSDACSB1169
 5155              	.LLSDACSB1169:
 5156 03bd 2E       		.uleb128 .LEHB131-.LFB1169
 5157 03be 61       		.uleb128 .LEHE131-.LEHB131
 5158 03bf 00       		.uleb128 0
 5159 03c0 00       		.uleb128 0
 5160 03c1 8F01     		.uleb128 .LEHB132-.LFB1169
 5161 03c3 28       		.uleb128 .LEHE132-.LEHB132
 5162 03c4 E101     		.uleb128 .L240-.LFB1169
 5163 03c6 01       		.uleb128 0x1
 5164 03c7 C101     		.uleb128 .LEHB133-.LFB1169
 5165 03c9 1C       		.uleb128 .LEHE133-.LEHB133
 5166 03ca DF01     		.uleb128 .L241-.LFB1169
 5167 03cc 03       		.uleb128 0x3
 5168 03cd E901     		.uleb128 .LEHB134-.LFB1169
 5169 03cf 3A       		.uleb128 .LEHE134-.LEHB134
 5170 03d0 AA02     		.uleb128 .L242-.LFB1169
 5171 03d2 00       		.uleb128 0
 5172 03d3 A302     		.uleb128 .LEHB135-.LFB1169
 5173 03d5 05       		.uleb128 .LEHE135-.LEHB135
 5174 03d6 00       		.uleb128 0
 5175 03d7 00       		.uleb128 0
 5176 03d8 B802     		.uleb128 .LEHB136-.LFB1169
 5177 03da 05       		.uleb128 .LEHE136-.LEHB136
 5178 03db 00       		.uleb128 0
 5179 03dc 00       		.uleb128 0
 5180              	.LLSDACSE1169:
 5181 03dd 01       		.byte	0x1
 5182 03de 00       		.byte	0
 5183 03df 00       		.byte	0
 5184 03e0 7D       		.byte	0x7d
 5185 03e1 000000   		.align 4
 5186 03e4 00000000 		.long	0
 5187              	
 5188              	.LLSDATT1169:
 5189              		.text
 5191              		.section	.rodata
 5192              	.LC58:
 5193 0834 43686563 		.string	"CheckArrayEqualFalse"
 5193      6B417272 
 5193      61794571 
 5193      75616C46 
 5193      616C7365 
 5194              		.text
 5195 2547 90       		.align 2
 5197              	_ZN12_GLOBAL__N_124TestCheckArrayEqualFalseC2Ev:
 5198              	.LFB1171:
 192:TestChecks.cpp **** 
 193:TestChecks.cpp **** TEST(CheckArrayEqualFalse)
 5199              		.loc 5 193 0
 5200              		.cfi_startproc
 5201 2548 55       		pushq	%rbp
 5202              		.cfi_def_cfa_offset 16
 5203              		.cfi_offset 6, -16
 5204 2549 4889E5   		movq	%rsp, %rbp
 5205              		.cfi_def_cfa_register 6
 5206 254c 53       		pushq	%rbx
 5207 254d 4883EC18 		subq	$24, %rsp
 5208              		.cfi_offset 3, -24
 5209 2551 48897DE8 		movq	%rdi, -24(%rbp)
 5210              	.LBB24:
 5211              		.loc 5 193 0
 5212 2555 488B5DE8 		movq	-24(%rbp), %rbx
 5213 2559 E8000000 		call	_ZN13UnitTestSuite12GetSuiteNameEv
 5213      00
 5214 255e 41B8C100 		movl	$193, %r8d
 5214      0000
 5215 2564 488D0D00 		leaq	.LC2(%rip), %rcx
 5215      000000
 5216 256b 4889C2   		movq	%rax, %rdx
 5217 256e 488D3500 		leaq	.LC58(%rip), %rsi
 5217      000000
 5218 2575 4889DF   		movq	%rbx, %rdi
 5219 2578 E8000000 		call	_ZN8UnitTest4TestC2EPKcS2_S2_i@PLT
 5219      00
 5220 257d 488D1500 		leaq	16+_ZTVN12_GLOBAL__N_124TestCheckArrayEqualFalseE(%rip), %rdx
 5220      000000
 5221 2584 488B45E8 		movq	-24(%rbp), %rax
 5222 2588 488910   		movq	%rdx, (%rax)
 5223              	.LBE24:
 5224 258b 90       		nop
 5225 258c 4883C418 		addq	$24, %rsp
 5226 2590 5B       		popq	%rbx
 5227 2591 5D       		popq	%rbp
 5228              		.cfi_def_cfa 7, 8
 5229 2592 C3       		ret
 5230              		.cfi_endproc
 5231              	.LFE1171:
 5233              		.set	_ZN12_GLOBAL__N_124TestCheckArrayEqualFalseC1Ev,_ZN12_GLOBAL__N_124TestCheckArrayEqualFalseC2
 5234              		.local	_ZN12_GLOBAL__N_132testCheckArrayEqualFalseInstanceE
 5235              		.comm	_ZN12_GLOBAL__N_132testCheckArrayEqualFalseInstanceE,56,32
 5236              		.local	_ZN12_GLOBAL__N_125adderCheckArrayEqualFalseE
 5237              		.comm	_ZN12_GLOBAL__N_125adderCheckArrayEqualFalseE,1,1
 5238 2593 90       		.align 2
 5240              	_ZNK12_GLOBAL__N_124TestCheckArrayEqualFalse7RunImplEv:
 5241              	.LFB1173:
 194:TestChecks.cpp **** {
 5242              		.loc 5 194 0
 5243              		.cfi_startproc
 5244              		.cfi_personality 0x9b,DW.ref.__gxx_personality_v0
 5245              		.cfi_lsda 0x1b,.LLSDA1173
 5246 2594 55       		pushq	%rbp
 5247              		.cfi_def_cfa_offset 16
 5248              		.cfi_offset 6, -16
 5249 2595 4889E5   		movq	%rsp, %rbp
 5250              		.cfi_def_cfa_register 6
 5251 2598 53       		pushq	%rbx
 5252 2599 4881EC88 		subq	$136, %rsp
 5252      000000
 5253              		.cfi_offset 3, -24
 5254 25a0 4889BD78 		movq	%rdi, -136(%rbp)
 5254      FFFFFF
 5255              		.loc 5 194 0
 5256 25a7 64488B04 		movq	%fs:40, %rax
 5256      25280000 
 5256      00
 5257 25b0 488945E8 		movq	%rax, -24(%rbp)
 5258 25b4 31C0     		xorl	%eax, %eax
 195:TestChecks.cpp ****     TestResults results;
 5259              		.loc 5 195 0
 5260 25b6 488D4590 		leaq	-112(%rbp), %rax
 5261 25ba BE000000 		movl	$0, %esi
 5261      00
 5262 25bf 4889C7   		movq	%rax, %rdi
 5263              	.LEHB137:
 5264 25c2 E8000000 		call	_ZN8UnitTest11TestResultsC1EPNS_12TestReporterE@PLT
 5264      00
 196:TestChecks.cpp **** 
 197:TestChecks.cpp ****     int const array1[3] = { 1, 2, 3 };
 5265              		.loc 5 197 0
 5266 25c7 C745D001 		movl	$1, -48(%rbp)
 5266      000000
 5267 25ce C745D402 		movl	$2, -44(%rbp)
 5267      000000
 5268 25d5 C745D803 		movl	$3, -40(%rbp)
 5268      000000
 198:TestChecks.cpp ****     int const array2[3] = { 1, 2, 2 };
 5269              		.loc 5 198 0
 5270 25dc C745DC01 		movl	$1, -36(%rbp)
 5270      000000
 5271 25e3 C745E002 		movl	$2, -32(%rbp)
 5271      000000
 5272 25ea C745E402 		movl	$2, -28(%rbp)
 5272      000000
 199:TestChecks.cpp ****     CheckArrayEqual(results, array1, array2, 3, TestDetails("", "", "", 0));
 5273              		.loc 5 199 0
 5274 25f1 488D45B0 		leaq	-80(%rbp), %rax
 5275 25f5 41B80000 		movl	$0, %r8d
 5275      0000
 5276 25fb 488D0D00 		leaq	.LC6(%rip), %rcx
 5276      000000
 5277 2602 488D1500 		leaq	.LC6(%rip), %rdx
 5277      000000
 5278 2609 488D3500 		leaq	.LC6(%rip), %rsi
 5278      000000
 5279 2610 4889C7   		movq	%rax, %rdi
 5280 2613 E8000000 		call	_ZN8UnitTest11TestDetailsC1EPKcS2_S2_i@PLT
 5280      00
 5281 2618 488D4DB0 		leaq	-80(%rbp), %rcx
 5282 261c 488D55DC 		leaq	-36(%rbp), %rdx
 5283 2620 488D75D0 		leaq	-48(%rbp), %rsi
 5284 2624 488D4590 		leaq	-112(%rbp), %rax
 5285 2628 4989C8   		movq	%rcx, %r8
 5286 262b B9030000 		movl	$3, %ecx
 5286      00
 5287 2630 4889C7   		movq	%rax, %rdi
 5288 2633 E8000000 		call	_ZN8UnitTest15CheckArrayEqualIA3_iS1_EEvRNS_11TestResultsERKT_RKT0_iRKNS_11TestDetailsE
 5288      00
 5289              	.LEHE137:
 5290              	.LEHB138:
 200:TestChecks.cpp ****     CHECK_EQUAL(1, results.GetFailureCount());
 5291              		.loc 5 200 0
 5292 2638 E8000000 		call	_ZN8UnitTest11CurrentTest7DetailsEv@PLT
 5292      00
 5293 263d 488B08   		movq	(%rax), %rcx
 5294 2640 488D45B0 		leaq	-80(%rbp), %rax
 5295 2644 BAC80000 		movl	$200, %edx
 5295      00
 5296 2649 4889CE   		movq	%rcx, %rsi
 5297 264c 4889C7   		movq	%rax, %rdi
 5298 264f E8000000 		call	_ZN8UnitTest11TestDetailsC1ERKS0_i@PLT
 5298      00
 5299              		.loc 5 200 0 is_stmt 0 discriminator 2
 5300 2654 488D4590 		leaq	-112(%rbp), %rax
 5301 2658 4889C7   		movq	%rax, %rdi
 5302 265b E8000000 		call	_ZNK8UnitTest11TestResults15GetFailureCountEv@PLT
 5302      00
 5303              	.LEHE138:
 5304 2660 89458C   		movl	%eax, -116(%rbp)
 5305 2663 C7458801 		movl	$1, -120(%rbp)
 5305      000000
 5306              	.LEHB139:
 5307 266a E8000000 		call	_ZN8UnitTest11CurrentTest7ResultsEv@PLT
 5307      00
 5308              		.loc 5 200 0 discriminator 4
 5309 266f 488B00   		movq	(%rax), %rax
 5310 2672 488D4DB0 		leaq	-80(%rbp), %rcx
 5311 2676 488D558C 		leaq	-116(%rbp), %rdx
 5312 267a 488D7588 		leaq	-120(%rbp), %rsi
 5313 267e 4889C7   		movq	%rax, %rdi
 5314 2681 E8000000 		call	_ZN8UnitTest10CheckEqualIiiEEvRNS_11TestResultsERKT_RKT0_RKNS_11TestDetailsE
 5314      00
 5315              	.LEHE139:
 201:TestChecks.cpp **** }
 5316              		.loc 5 201 0 is_stmt 1
 5317 2686 EB5E     		jmp	.L244
 5318              	.L251:
 5319 2688 EB00     		jmp	.L246
 5320              	.L250:
 5321              	.L246:
 200:TestChecks.cpp ****     CHECK_EQUAL(1, results.GetFailureCount());
 5322              		.loc 5 200 0
 5323 268a 4889C7   		movq	%rax, %rdi
 5324 268d E8000000 		call	__cxa_begin_catch@PLT
 5324      00
 5325              	.LEHB140:
 5326 2692 E8000000 		call	_ZN8UnitTest11CurrentTest7ResultsEv@PLT
 5326      00
 5327 2697 488B18   		movq	(%rax), %rbx
 5328 269a E8000000 		call	_ZN8UnitTest11CurrentTest7DetailsEv@PLT
 5328      00
 200:TestChecks.cpp ****     CHECK_EQUAL(1, results.GetFailureCount());
 5329              		.loc 5 200 0 is_stmt 0 discriminator 10
 5330 269f 488B08   		movq	(%rax), %rcx
 5331 26a2 488D45B0 		leaq	-80(%rbp), %rax
 5332 26a6 BAC80000 		movl	$200, %edx
 5332      00
 5333 26ab 4889CE   		movq	%rcx, %rsi
 5334 26ae 4889C7   		movq	%rax, %rdi
 5335 26b1 E8000000 		call	_ZN8UnitTest11TestDetailsC1ERKS0_i@PLT
 5335      00
 200:TestChecks.cpp ****     CHECK_EQUAL(1, results.GetFailureCount());
 5336              		.loc 5 200 0 discriminator 14
 5337 26b6 488D45B0 		leaq	-80(%rbp), %rax
 5338 26ba 488D1500 		leaq	.LC7(%rip), %rdx
 5338      000000
 5339 26c1 4889C6   		movq	%rax, %rsi
 5340 26c4 4889DF   		movq	%rbx, %rdi
 5341 26c7 E8000000 		call	_ZN8UnitTest11TestResults13OnTestFailureERKNS_11TestDetailsEPKc@PLT
 5341      00
 5342              	.LEHE140:
 5343              	.LEHB141:
 200:TestChecks.cpp ****     CHECK_EQUAL(1, results.GetFailureCount());
 5344              		.loc 5 200 0 discriminator 16
 5345 26cc E8000000 		call	__cxa_end_catch@PLT
 5345      00
 5346              	.LEHE141:
 5347              		.loc 5 201 0 is_stmt 1 discriminator 16
 5348 26d1 EB13     		jmp	.L244
 5349              	.L252:
 5350 26d3 4889C3   		movq	%rax, %rbx
 200:TestChecks.cpp ****     CHECK_EQUAL(1, results.GetFailureCount());
 5351              		.loc 5 200 0
 5352 26d6 E8000000 		call	__cxa_end_catch@PLT
 5352      00
 5353 26db 4889D8   		movq	%rbx, %rax
 5354 26de 4889C7   		movq	%rax, %rdi
 5355              	.LEHB142:
 5356 26e1 E8000000 		call	_Unwind_Resume@PLT
 5356      00
 5357              	.LEHE142:
 5358              	.L244:
 5359              		.loc 5 201 0
 5360 26e6 488B45E8 		movq	-24(%rbp), %rax
 5361 26ea 64483304 		xorq	%fs:40, %rax
 5361      25280000 
 5361      00
 5362 26f3 7405     		je	.L249
 5363 26f5 E8000000 		call	__stack_chk_fail@PLT
 5363      00
 5364              	.L249:
 5365 26fa 4881C488 		addq	$136, %rsp
 5365      000000
 5366 2701 5B       		popq	%rbx
 5367 2702 5D       		popq	%rbp
 5368              		.cfi_def_cfa 7, 8
 5369 2703 C3       		ret
 5370              		.cfi_endproc
 5371              	.LFE1173:
 5372              		.section	.gcc_except_table
 5373              		.align 4
 5374              	.LLSDA1173:
 5375 03e8 FF       		.byte	0xff
 5376 03e9 9B       		.byte	0x9b
 5377 03ea 2D       		.uleb128 .LLSDATT1173-.LLSDATTD1173
 5378              	.LLSDATTD1173:
 5379 03eb 01       		.byte	0x1
 5380 03ec 20       		.uleb128 .LLSDACSE1173-.LLSDACSB1173
 5381              	.LLSDACSB1173:
 5382 03ed 2E       		.uleb128 .LEHB137-.LFB1173
 5383 03ee 76       		.uleb128 .LEHE137-.LEHB137
 5384 03ef 00       		.uleb128 0
 5385 03f0 00       		.uleb128 0
 5386 03f1 A401     		.uleb128 .LEHB138-.LFB1173
 5387 03f3 28       		.uleb128 .LEHE138-.LEHB138
 5388 03f4 F601     		.uleb128 .L250-.LFB1173
 5389 03f6 01       		.uleb128 0x1
 5390 03f7 D601     		.uleb128 .LEHB139-.LFB1173
 5391 03f9 1C       		.uleb128 .LEHE139-.LEHB139
 5392 03fa F401     		.uleb128 .L251-.LFB1173
 5393 03fc 03       		.uleb128 0x3
 5394 03fd FE01     		.uleb128 .LEHB140-.LFB1173
 5395 03ff 3A       		.uleb128 .LEHE140-.LEHB140
 5396 0400 BF02     		.uleb128 .L252-.LFB1173
 5397 0402 00       		.uleb128 0
 5398 0403 B802     		.uleb128 .LEHB141-.LFB1173
 5399 0405 05       		.uleb128 .LEHE141-.LEHB141
 5400 0406 00       		.uleb128 0
 5401 0407 00       		.uleb128 0
 5402 0408 CD02     		.uleb128 .LEHB142-.LFB1173
 5403 040a 05       		.uleb128 .LEHE142-.LEHB142
 5404 040b 00       		.uleb128 0
 5405 040c 00       		.uleb128 0
 5406              	.LLSDACSE1173:
 5407 040d 01       		.byte	0x1
 5408 040e 00       		.byte	0
 5409 040f 00       		.byte	0
 5410 0410 7D       		.byte	0x7d
 5411 0411 000000   		.align 4
 5412 0414 00000000 		.long	0
 5413              	
 5414              	.LLSDATT1173:
 5415              		.text
 5417              		.section	.rodata
 5418              	.LC59:
 5419 0849 43686563 		.string	"CheckArrayCloseTrue"
 5419      6B417272 
 5419      6179436C 
 5419      6F736554 
 5419      72756500 
 5420              		.text
 5421              		.align 2
 5423              	_ZN12_GLOBAL__N_123TestCheckArrayCloseTrueC2Ev:
 5424              	.LFB1175:
 202:TestChecks.cpp **** 
 203:TestChecks.cpp **** TEST(CheckArrayCloseTrue)
 5425              		.loc 5 203 0
 5426              		.cfi_startproc
 5427 2704 55       		pushq	%rbp
 5428              		.cfi_def_cfa_offset 16
 5429              		.cfi_offset 6, -16
 5430 2705 4889E5   		movq	%rsp, %rbp
 5431              		.cfi_def_cfa_register 6
 5432 2708 53       		pushq	%rbx
 5433 2709 4883EC18 		subq	$24, %rsp
 5434              		.cfi_offset 3, -24
 5435 270d 48897DE8 		movq	%rdi, -24(%rbp)
 5436              	.LBB25:
 5437              		.loc 5 203 0
 5438 2711 488B5DE8 		movq	-24(%rbp), %rbx
 5439 2715 E8000000 		call	_ZN13UnitTestSuite12GetSuiteNameEv
 5439      00
 5440 271a 41B8CB00 		movl	$203, %r8d
 5440      0000
 5441 2720 488D0D00 		leaq	.LC2(%rip), %rcx
 5441      000000
 5442 2727 4889C2   		movq	%rax, %rdx
 5443 272a 488D3500 		leaq	.LC59(%rip), %rsi
 5443      000000
 5444 2731 4889DF   		movq	%rbx, %rdi
 5445 2734 E8000000 		call	_ZN8UnitTest4TestC2EPKcS2_S2_i@PLT
 5445      00
 5446 2739 488D1500 		leaq	16+_ZTVN12_GLOBAL__N_123TestCheckArrayCloseTrueE(%rip), %rdx
 5446      000000
 5447 2740 488B45E8 		movq	-24(%rbp), %rax
 5448 2744 488910   		movq	%rdx, (%rax)
 5449              	.LBE25:
 5450 2747 90       		nop
 5451 2748 4883C418 		addq	$24, %rsp
 5452 274c 5B       		popq	%rbx
 5453 274d 5D       		popq	%rbp
 5454              		.cfi_def_cfa 7, 8
 5455 274e C3       		ret
 5456              		.cfi_endproc
 5457              	.LFE1175:
 5459              		.set	_ZN12_GLOBAL__N_123TestCheckArrayCloseTrueC1Ev,_ZN12_GLOBAL__N_123TestCheckArrayCloseTrueC2Ev
 5460              		.local	_ZN12_GLOBAL__N_131testCheckArrayCloseTrueInstanceE
 5461              		.comm	_ZN12_GLOBAL__N_131testCheckArrayCloseTrueInstanceE,56,32
 5462              		.local	_ZN12_GLOBAL__N_124adderCheckArrayCloseTrueE
 5463              		.comm	_ZN12_GLOBAL__N_124adderCheckArrayCloseTrueE,1,1
 5464 274f 90       		.align 2
 5466              	_ZNK12_GLOBAL__N_123TestCheckArrayCloseTrue7RunImplEv:
 5467              	.LFB1177:
 204:TestChecks.cpp **** {
 5468              		.loc 5 204 0
 5469              		.cfi_startproc
 5470              		.cfi_personality 0x9b,DW.ref.__gxx_personality_v0
 5471              		.cfi_lsda 0x1b,.LLSDA1177
 5472 2750 55       		pushq	%rbp
 5473              		.cfi_def_cfa_offset 16
 5474              		.cfi_offset 6, -16
 5475 2751 4889E5   		movq	%rsp, %rbp
 5476              		.cfi_def_cfa_register 6
 5477 2754 53       		pushq	%rbx
 5478 2755 4881EC88 		subq	$136, %rsp
 5478      000000
 5479              		.cfi_offset 3, -24
 5480 275c 4889BD78 		movq	%rdi, -136(%rbp)
 5480      FFFFFF
 5481              		.loc 5 204 0
 5482 2763 64488B04 		movq	%fs:40, %rax
 5482      25280000 
 5482      00
 5483 276c 488945E8 		movq	%rax, -24(%rbp)
 5484 2770 31C0     		xorl	%eax, %eax
 205:TestChecks.cpp ****     TestResults results;
 5485              		.loc 5 205 0
 5486 2772 488D4590 		leaq	-112(%rbp), %rax
 5487 2776 BE000000 		movl	$0, %esi
 5487      00
 5488 277b 4889C7   		movq	%rax, %rdi
 5489              	.LEHB143:
 5490 277e E8000000 		call	_ZN8UnitTest11TestResultsC1EPNS_12TestReporterE@PLT
 5490      00
 206:TestChecks.cpp **** 
 207:TestChecks.cpp ****     float const array1[3] = { 1.0f, 1.5f, 2.0f };
 5491              		.loc 5 207 0
 5492 2783 F30F1005 		movss	.LC60(%rip), %xmm0
 5492      00000000 
 5493 278b F30F1145 		movss	%xmm0, -48(%rbp)
 5493      D0
 5494 2790 F30F1005 		movss	.LC61(%rip), %xmm0
 5494      00000000 
 5495 2798 F30F1145 		movss	%xmm0, -44(%rbp)
 5495      D4
 5496 279d F30F1005 		movss	.LC62(%rip), %xmm0
 5496      00000000 
 5497 27a5 F30F1145 		movss	%xmm0, -40(%rbp)
 5497      D8
 208:TestChecks.cpp ****     float const array2[3] = { 1.01f, 1.51f, 2.01f };
 5498              		.loc 5 208 0
 5499 27aa F30F1005 		movss	.LC63(%rip), %xmm0
 5499      00000000 
 5500 27b2 F30F1145 		movss	%xmm0, -36(%rbp)
 5500      DC
 5501 27b7 F30F1005 		movss	.LC64(%rip), %xmm0
 5501      00000000 
 5502 27bf F30F1145 		movss	%xmm0, -32(%rbp)
 5502      E0
 5503 27c4 F30F1005 		movss	.LC65(%rip), %xmm0
 5503      00000000 
 5504 27cc F30F1145 		movss	%xmm0, -28(%rbp)
 5504      E4
 209:TestChecks.cpp ****     CheckArrayClose(results, array1, array2, 3, 0.02f, TestDetails("", "", "", 0));
 5505              		.loc 5 209 0
 5506 27d1 488D45B0 		leaq	-80(%rbp), %rax
 5507 27d5 41B80000 		movl	$0, %r8d
 5507      0000
 5508 27db 488D0D00 		leaq	.LC6(%rip), %rcx
 5508      000000
 5509 27e2 488D1500 		leaq	.LC6(%rip), %rdx
 5509      000000
 5510 27e9 488D3500 		leaq	.LC6(%rip), %rsi
 5510      000000
 5511 27f0 4889C7   		movq	%rax, %rdi
 5512 27f3 E8000000 		call	_ZN8UnitTest11TestDetailsC1EPKcS2_S2_i@PLT
 5512      00
 5513 27f8 F30F1005 		movss	.LC66(%rip), %xmm0
 5513      00000000 
 5514 2800 F30F1145 		movss	%xmm0, -116(%rbp)
 5514      8C
 5515 2805 488D7DB0 		leaq	-80(%rbp), %rdi
 5516 2809 488D4D8C 		leaq	-116(%rbp), %rcx
 5517 280d 488D55DC 		leaq	-36(%rbp), %rdx
 5518 2811 488D75D0 		leaq	-48(%rbp), %rsi
 5519 2815 488D4590 		leaq	-112(%rbp), %rax
 5520 2819 4989F9   		movq	%rdi, %r9
 5521 281c 4989C8   		movq	%rcx, %r8
 5522 281f B9030000 		movl	$3, %ecx
 5522      00
 5523 2824 4889C7   		movq	%rax, %rdi
 5524 2827 E8000000 		call	_ZN8UnitTest15CheckArrayCloseIA3_fS1_fEEvRNS_11TestResultsERKT_RKT0_iRKT1_RKNS_11TestDetailsE
 5524      00
 5525              	.LEHE143:
 5526              	.LEHB144:
 210:TestChecks.cpp ****     CHECK_EQUAL(0, results.GetFailureCount());
 5527              		.loc 5 210 0
 5528 282c E8000000 		call	_ZN8UnitTest11CurrentTest7DetailsEv@PLT
 5528      00
 5529 2831 488B08   		movq	(%rax), %rcx
 5530 2834 488D45B0 		leaq	-80(%rbp), %rax
 5531 2838 BAD20000 		movl	$210, %edx
 5531      00
 5532 283d 4889CE   		movq	%rcx, %rsi
 5533 2840 4889C7   		movq	%rax, %rdi
 5534 2843 E8000000 		call	_ZN8UnitTest11TestDetailsC1ERKS0_i@PLT
 5534      00
 5535              		.loc 5 210 0 is_stmt 0 discriminator 2
 5536 2848 488D4590 		leaq	-112(%rbp), %rax
 5537 284c 4889C7   		movq	%rax, %rdi
 5538 284f E8000000 		call	_ZNK8UnitTest11TestResults15GetFailureCountEv@PLT
 5538      00
 5539              	.LEHE144:
 5540 2854 89458C   		movl	%eax, -116(%rbp)
 5541 2857 C7458800 		movl	$0, -120(%rbp)
 5541      000000
 5542              	.LEHB145:
 5543 285e E8000000 		call	_ZN8UnitTest11CurrentTest7ResultsEv@PLT
 5543      00
 5544              		.loc 5 210 0 discriminator 4
 5545 2863 488B00   		movq	(%rax), %rax
 5546 2866 488D4DB0 		leaq	-80(%rbp), %rcx
 5547 286a 488D558C 		leaq	-116(%rbp), %rdx
 5548 286e 488D7588 		leaq	-120(%rbp), %rsi
 5549 2872 4889C7   		movq	%rax, %rdi
 5550 2875 E8000000 		call	_ZN8UnitTest10CheckEqualIiiEEvRNS_11TestResultsERKT_RKT0_RKNS_11TestDetailsE
 5550      00
 5551              	.LEHE145:
 211:TestChecks.cpp **** }
 5552              		.loc 5 211 0 is_stmt 1
 5553 287a EB5E     		jmp	.L254
 5554              	.L261:
 5555 287c EB00     		jmp	.L256
 5556              	.L260:
 5557              	.L256:
 210:TestChecks.cpp ****     CHECK_EQUAL(0, results.GetFailureCount());
 5558              		.loc 5 210 0
 5559 287e 4889C7   		movq	%rax, %rdi
 5560 2881 E8000000 		call	__cxa_begin_catch@PLT
 5560      00
 5561              	.LEHB146:
 5562 2886 E8000000 		call	_ZN8UnitTest11CurrentTest7ResultsEv@PLT
 5562      00
 5563 288b 488B18   		movq	(%rax), %rbx
 5564 288e E8000000 		call	_ZN8UnitTest11CurrentTest7DetailsEv@PLT
 5564      00
 210:TestChecks.cpp ****     CHECK_EQUAL(0, results.GetFailureCount());
 5565              		.loc 5 210 0 is_stmt 0 discriminator 10
 5566 2893 488B08   		movq	(%rax), %rcx
 5567 2896 488D45B0 		leaq	-80(%rbp), %rax
 5568 289a BAD20000 		movl	$210, %edx
 5568      00
 5569 289f 4889CE   		movq	%rcx, %rsi
 5570 28a2 4889C7   		movq	%rax, %rdi
 5571 28a5 E8000000 		call	_ZN8UnitTest11TestDetailsC1ERKS0_i@PLT
 5571      00
 210:TestChecks.cpp ****     CHECK_EQUAL(0, results.GetFailureCount());
 5572              		.loc 5 210 0 discriminator 14
 5573 28aa 488D45B0 		leaq	-80(%rbp), %rax
 5574 28ae 488D1500 		leaq	.LC9(%rip), %rdx
 5574      000000
 5575 28b5 4889C6   		movq	%rax, %rsi
 5576 28b8 4889DF   		movq	%rbx, %rdi
 5577 28bb E8000000 		call	_ZN8UnitTest11TestResults13OnTestFailureERKNS_11TestDetailsEPKc@PLT
 5577      00
 5578              	.LEHE146:
 5579              	.LEHB147:
 210:TestChecks.cpp ****     CHECK_EQUAL(0, results.GetFailureCount());
 5580              		.loc 5 210 0 discriminator 16
 5581 28c0 E8000000 		call	__cxa_end_catch@PLT
 5581      00
 5582              	.LEHE147:
 5583              		.loc 5 211 0 is_stmt 1 discriminator 16
 5584 28c5 EB13     		jmp	.L254
 5585              	.L262:
 5586 28c7 4889C3   		movq	%rax, %rbx
 210:TestChecks.cpp ****     CHECK_EQUAL(0, results.GetFailureCount());
 5587              		.loc 5 210 0
 5588 28ca E8000000 		call	__cxa_end_catch@PLT
 5588      00
 5589 28cf 4889D8   		movq	%rbx, %rax
 5590 28d2 4889C7   		movq	%rax, %rdi
 5591              	.LEHB148:
 5592 28d5 E8000000 		call	_Unwind_Resume@PLT
 5592      00
 5593              	.LEHE148:
 5594              	.L254:
 5595              		.loc 5 211 0
 5596 28da 488B45E8 		movq	-24(%rbp), %rax
 5597 28de 64483304 		xorq	%fs:40, %rax
 5597      25280000 
 5597      00
 5598 28e7 7405     		je	.L259
 5599 28e9 E8000000 		call	__stack_chk_fail@PLT
 5599      00
 5600              	.L259:
 5601 28ee 4881C488 		addq	$136, %rsp
 5601      000000
 5602 28f5 5B       		popq	%rbx
 5603 28f6 5D       		popq	%rbp
 5604              		.cfi_def_cfa 7, 8
 5605 28f7 C3       		ret
 5606              		.cfi_endproc
 5607              	.LFE1177:
 5608              		.section	.gcc_except_table
 5609              		.align 4
 5610              	.LLSDA1177:
 5611 0418 FF       		.byte	0xff
 5612 0419 9B       		.byte	0x9b
 5613 041a 2D       		.uleb128 .LLSDATT1177-.LLSDATTD1177
 5614              	.LLSDATTD1177:
 5615 041b 01       		.byte	0x1
 5616 041c 21       		.uleb128 .LLSDACSE1177-.LLSDACSB1177
 5617              	.LLSDACSB1177:
 5618 041d 2E       		.uleb128 .LEHB143-.LFB1177
 5619 041e AE01     		.uleb128 .LEHE143-.LEHB143
 5620 0420 00       		.uleb128 0
 5621 0421 00       		.uleb128 0
 5622 0422 DC01     		.uleb128 .LEHB144-.LFB1177
 5623 0424 28       		.uleb128 .LEHE144-.LEHB144
 5624 0425 AE02     		.uleb128 .L260-.LFB1177
 5625 0427 01       		.uleb128 0x1
 5626 0428 8E02     		.uleb128 .LEHB145-.LFB1177
 5627 042a 1C       		.uleb128 .LEHE145-.LEHB145
 5628 042b AC02     		.uleb128 .L261-.LFB1177
 5629 042d 03       		.uleb128 0x3
 5630 042e B602     		.uleb128 .LEHB146-.LFB1177
 5631 0430 3A       		.uleb128 .LEHE146-.LEHB146
 5632 0431 F702     		.uleb128 .L262-.LFB1177
 5633 0433 00       		.uleb128 0
 5634 0434 F002     		.uleb128 .LEHB147-.LFB1177
 5635 0436 05       		.uleb128 .LEHE147-.LEHB147
 5636 0437 00       		.uleb128 0
 5637 0438 00       		.uleb128 0
 5638 0439 8503     		.uleb128 .LEHB148-.LFB1177
 5639 043b 05       		.uleb128 .LEHE148-.LEHB148
 5640 043c 00       		.uleb128 0
 5641 043d 00       		.uleb128 0
 5642              	.LLSDACSE1177:
 5643 043e 01       		.byte	0x1
 5644 043f 00       		.byte	0
 5645 0440 00       		.byte	0
 5646 0441 7D       		.byte	0x7d
 5647 0442 0000     		.align 4
 5648 0444 00000000 		.long	0
 5649              	
 5650              	.LLSDATT1177:
 5651              		.text
 5653              		.section	.rodata
 5654              	.LC67:
 5655 085d 43686563 		.string	"CheckArrayCloseFalse"
 5655      6B417272 
 5655      6179436C 
 5655      6F736546 
 5655      616C7365 
 5656              		.text
 5657              		.align 2
 5659              	_ZN12_GLOBAL__N_124TestCheckArrayCloseFalseC2Ev:
 5660              	.LFB1179:
 212:TestChecks.cpp **** 
 213:TestChecks.cpp **** TEST(CheckArrayCloseFalse)
 5661              		.loc 5 213 0
 5662              		.cfi_startproc
 5663 28f8 55       		pushq	%rbp
 5664              		.cfi_def_cfa_offset 16
 5665              		.cfi_offset 6, -16
 5666 28f9 4889E5   		movq	%rsp, %rbp
 5667              		.cfi_def_cfa_register 6
 5668 28fc 53       		pushq	%rbx
 5669 28fd 4883EC18 		subq	$24, %rsp
 5670              		.cfi_offset 3, -24
 5671 2901 48897DE8 		movq	%rdi, -24(%rbp)
 5672              	.LBB26:
 5673              		.loc 5 213 0
 5674 2905 488B5DE8 		movq	-24(%rbp), %rbx
 5675 2909 E8000000 		call	_ZN13UnitTestSuite12GetSuiteNameEv
 5675      00
 5676 290e 41B8D500 		movl	$213, %r8d
 5676      0000
 5677 2914 488D0D00 		leaq	.LC2(%rip), %rcx
 5677      000000
 5678 291b 4889C2   		movq	%rax, %rdx
 5679 291e 488D3500 		leaq	.LC67(%rip), %rsi
 5679      000000
 5680 2925 4889DF   		movq	%rbx, %rdi
 5681 2928 E8000000 		call	_ZN8UnitTest4TestC2EPKcS2_S2_i@PLT
 5681      00
 5682 292d 488D1500 		leaq	16+_ZTVN12_GLOBAL__N_124TestCheckArrayCloseFalseE(%rip), %rdx
 5682      000000
 5683 2934 488B45E8 		movq	-24(%rbp), %rax
 5684 2938 488910   		movq	%rdx, (%rax)
 5685              	.LBE26:
 5686 293b 90       		nop
 5687 293c 4883C418 		addq	$24, %rsp
 5688 2940 5B       		popq	%rbx
 5689 2941 5D       		popq	%rbp
 5690              		.cfi_def_cfa 7, 8
 5691 2942 C3       		ret
 5692              		.cfi_endproc
 5693              	.LFE1179:
 5695              		.set	_ZN12_GLOBAL__N_124TestCheckArrayCloseFalseC1Ev,_ZN12_GLOBAL__N_124TestCheckArrayCloseFalseC2
 5696              		.local	_ZN12_GLOBAL__N_132testCheckArrayCloseFalseInstanceE
 5697              		.comm	_ZN12_GLOBAL__N_132testCheckArrayCloseFalseInstanceE,56,32
 5698              		.local	_ZN12_GLOBAL__N_125adderCheckArrayCloseFalseE
 5699              		.comm	_ZN12_GLOBAL__N_125adderCheckArrayCloseFalseE,1,1
 5700 2943 90       		.align 2
 5702              	_ZNK12_GLOBAL__N_124TestCheckArrayCloseFalse7RunImplEv:
 5703              	.LFB1181:
 214:TestChecks.cpp **** {
 5704              		.loc 5 214 0
 5705              		.cfi_startproc
 5706              		.cfi_personality 0x9b,DW.ref.__gxx_personality_v0
 5707              		.cfi_lsda 0x1b,.LLSDA1181
 5708 2944 55       		pushq	%rbp
 5709              		.cfi_def_cfa_offset 16
 5710              		.cfi_offset 6, -16
 5711 2945 4889E5   		movq	%rsp, %rbp
 5712              		.cfi_def_cfa_register 6
 5713 2948 53       		pushq	%rbx
 5714 2949 4881EC88 		subq	$136, %rsp
 5714      000000
 5715              		.cfi_offset 3, -24
 5716 2950 4889BD78 		movq	%rdi, -136(%rbp)
 5716      FFFFFF
 5717              		.loc 5 214 0
 5718 2957 64488B04 		movq	%fs:40, %rax
 5718      25280000 
 5718      00
 5719 2960 488945E8 		movq	%rax, -24(%rbp)
 5720 2964 31C0     		xorl	%eax, %eax
 215:TestChecks.cpp ****     TestResults results;
 5721              		.loc 5 215 0
 5722 2966 488D4590 		leaq	-112(%rbp), %rax
 5723 296a BE000000 		movl	$0, %esi
 5723      00
 5724 296f 4889C7   		movq	%rax, %rdi
 5725              	.LEHB149:
 5726 2972 E8000000 		call	_ZN8UnitTest11TestResultsC1EPNS_12TestReporterE@PLT
 5726      00
 216:TestChecks.cpp **** 
 217:TestChecks.cpp ****     float const array1[3] = { 1.0f, 1.5f, 2.0f };
 5727              		.loc 5 217 0
 5728 2977 F30F1005 		movss	.LC60(%rip), %xmm0
 5728      00000000 
 5729 297f F30F1145 		movss	%xmm0, -48(%rbp)
 5729      D0
 5730 2984 F30F1005 		movss	.LC61(%rip), %xmm0
 5730      00000000 
 5731 298c F30F1145 		movss	%xmm0, -44(%rbp)
 5731      D4
 5732 2991 F30F1005 		movss	.LC62(%rip), %xmm0
 5732      00000000 
 5733 2999 F30F1145 		movss	%xmm0, -40(%rbp)
 5733      D8
 218:TestChecks.cpp ****     float const array2[3] = { 1.01f, 1.51f, 2.01f };
 5734              		.loc 5 218 0
 5735 299e F30F1005 		movss	.LC63(%rip), %xmm0
 5735      00000000 
 5736 29a6 F30F1145 		movss	%xmm0, -36(%rbp)
 5736      DC
 5737 29ab F30F1005 		movss	.LC64(%rip), %xmm0
 5737      00000000 
 5738 29b3 F30F1145 		movss	%xmm0, -32(%rbp)
 5738      E0
 5739 29b8 F30F1005 		movss	.LC65(%rip), %xmm0
 5739      00000000 
 5740 29c0 F30F1145 		movss	%xmm0, -28(%rbp)
 5740      E4
 219:TestChecks.cpp ****     CheckArrayClose(results, array1, array2, 3, 0.001f, TestDetails("", "", "", 0));
 5741              		.loc 5 219 0
 5742 29c5 488D45B0 		leaq	-80(%rbp), %rax
 5743 29c9 41B80000 		movl	$0, %r8d
 5743      0000
 5744 29cf 488D0D00 		leaq	.LC6(%rip), %rcx
 5744      000000
 5745 29d6 488D1500 		leaq	.LC6(%rip), %rdx
 5745      000000
 5746 29dd 488D3500 		leaq	.LC6(%rip), %rsi
 5746      000000
 5747 29e4 4889C7   		movq	%rax, %rdi
 5748 29e7 E8000000 		call	_ZN8UnitTest11TestDetailsC1EPKcS2_S2_i@PLT
 5748      00
 5749 29ec F30F1005 		movss	.LC68(%rip), %xmm0
 5749      00000000 
 5750 29f4 F30F1145 		movss	%xmm0, -116(%rbp)
 5750      8C
 5751 29f9 488D7DB0 		leaq	-80(%rbp), %rdi
 5752 29fd 488D4D8C 		leaq	-116(%rbp), %rcx
 5753 2a01 488D55DC 		leaq	-36(%rbp), %rdx
 5754 2a05 488D75D0 		leaq	-48(%rbp), %rsi
 5755 2a09 488D4590 		leaq	-112(%rbp), %rax
 5756 2a0d 4989F9   		movq	%rdi, %r9
 5757 2a10 4989C8   		movq	%rcx, %r8
 5758 2a13 B9030000 		movl	$3, %ecx
 5758      00
 5759 2a18 4889C7   		movq	%rax, %rdi
 5760 2a1b E8000000 		call	_ZN8UnitTest15CheckArrayCloseIA3_fS1_fEEvRNS_11TestResultsERKT_RKT0_iRKT1_RKNS_11TestDetailsE
 5760      00
 5761              	.LEHE149:
 5762              	.LEHB150:
 220:TestChecks.cpp ****     CHECK_EQUAL(1, results.GetFailureCount());
 5763              		.loc 5 220 0
 5764 2a20 E8000000 		call	_ZN8UnitTest11CurrentTest7DetailsEv@PLT
 5764      00
 5765 2a25 488B08   		movq	(%rax), %rcx
 5766 2a28 488D45B0 		leaq	-80(%rbp), %rax
 5767 2a2c BADC0000 		movl	$220, %edx
 5767      00
 5768 2a31 4889CE   		movq	%rcx, %rsi
 5769 2a34 4889C7   		movq	%rax, %rdi
 5770 2a37 E8000000 		call	_ZN8UnitTest11TestDetailsC1ERKS0_i@PLT
 5770      00
 5771              		.loc 5 220 0 is_stmt 0 discriminator 2
 5772 2a3c 488D4590 		leaq	-112(%rbp), %rax
 5773 2a40 4889C7   		movq	%rax, %rdi
 5774 2a43 E8000000 		call	_ZNK8UnitTest11TestResults15GetFailureCountEv@PLT
 5774      00
 5775              	.LEHE150:
 5776 2a48 89458C   		movl	%eax, -116(%rbp)
 5777 2a4b C7458801 		movl	$1, -120(%rbp)
 5777      000000
 5778              	.LEHB151:
 5779 2a52 E8000000 		call	_ZN8UnitTest11CurrentTest7ResultsEv@PLT
 5779      00
 5780              		.loc 5 220 0 discriminator 4
 5781 2a57 488B00   		movq	(%rax), %rax
 5782 2a5a 488D4DB0 		leaq	-80(%rbp), %rcx
 5783 2a5e 488D558C 		leaq	-116(%rbp), %rdx
 5784 2a62 488D7588 		leaq	-120(%rbp), %rsi
 5785 2a66 4889C7   		movq	%rax, %rdi
 5786 2a69 E8000000 		call	_ZN8UnitTest10CheckEqualIiiEEvRNS_11TestResultsERKT_RKT0_RKNS_11TestDetailsE
 5786      00
 5787              	.LEHE151:
 221:TestChecks.cpp **** }
 5788              		.loc 5 221 0 is_stmt 1
 5789 2a6e EB5E     		jmp	.L264
 5790              	.L271:
 5791 2a70 EB00     		jmp	.L266
 5792              	.L270:
 5793              	.L266:
 220:TestChecks.cpp ****     CHECK_EQUAL(1, results.GetFailureCount());
 5794              		.loc 5 220 0
 5795 2a72 4889C7   		movq	%rax, %rdi
 5796 2a75 E8000000 		call	__cxa_begin_catch@PLT
 5796      00
 5797              	.LEHB152:
 5798 2a7a E8000000 		call	_ZN8UnitTest11CurrentTest7ResultsEv@PLT
 5798      00
 5799 2a7f 488B18   		movq	(%rax), %rbx
 5800 2a82 E8000000 		call	_ZN8UnitTest11CurrentTest7DetailsEv@PLT
 5800      00
 220:TestChecks.cpp ****     CHECK_EQUAL(1, results.GetFailureCount());
 5801              		.loc 5 220 0 is_stmt 0 discriminator 10
 5802 2a87 488B08   		movq	(%rax), %rcx
 5803 2a8a 488D45B0 		leaq	-80(%rbp), %rax
 5804 2a8e BADC0000 		movl	$220, %edx
 5804      00
 5805 2a93 4889CE   		movq	%rcx, %rsi
 5806 2a96 4889C7   		movq	%rax, %rdi
 5807 2a99 E8000000 		call	_ZN8UnitTest11TestDetailsC1ERKS0_i@PLT
 5807      00
 220:TestChecks.cpp ****     CHECK_EQUAL(1, results.GetFailureCount());
 5808              		.loc 5 220 0 discriminator 14
 5809 2a9e 488D45B0 		leaq	-80(%rbp), %rax
 5810 2aa2 488D1500 		leaq	.LC7(%rip), %rdx
 5810      000000
 5811 2aa9 4889C6   		movq	%rax, %rsi
 5812 2aac 4889DF   		movq	%rbx, %rdi
 5813 2aaf E8000000 		call	_ZN8UnitTest11TestResults13OnTestFailureERKNS_11TestDetailsEPKc@PLT
 5813      00
 5814              	.LEHE152:
 5815              	.LEHB153:
 220:TestChecks.cpp ****     CHECK_EQUAL(1, results.GetFailureCount());
 5816              		.loc 5 220 0 discriminator 16
 5817 2ab4 E8000000 		call	__cxa_end_catch@PLT
 5817      00
 5818              	.LEHE153:
 5819              		.loc 5 221 0 is_stmt 1 discriminator 16
 5820 2ab9 EB13     		jmp	.L264
 5821              	.L272:
 5822 2abb 4889C3   		movq	%rax, %rbx
 220:TestChecks.cpp ****     CHECK_EQUAL(1, results.GetFailureCount());
 5823              		.loc 5 220 0
 5824 2abe E8000000 		call	__cxa_end_catch@PLT
 5824      00
 5825 2ac3 4889D8   		movq	%rbx, %rax
 5826 2ac6 4889C7   		movq	%rax, %rdi
 5827              	.LEHB154:
 5828 2ac9 E8000000 		call	_Unwind_Resume@PLT
 5828      00
 5829              	.LEHE154:
 5830              	.L264:
 5831              		.loc 5 221 0
 5832 2ace 488B45E8 		movq	-24(%rbp), %rax
 5833 2ad2 64483304 		xorq	%fs:40, %rax
 5833      25280000 
 5833      00
 5834 2adb 7405     		je	.L269
 5835 2add E8000000 		call	__stack_chk_fail@PLT
 5835      00
 5836              	.L269:
 5837 2ae2 4881C488 		addq	$136, %rsp
 5837      000000
 5838 2ae9 5B       		popq	%rbx
 5839 2aea 5D       		popq	%rbp
 5840              		.cfi_def_cfa 7, 8
 5841 2aeb C3       		ret
 5842              		.cfi_endproc
 5843              	.LFE1181:
 5844              		.section	.gcc_except_table
 5845              		.align 4
 5846              	.LLSDA1181:
 5847 0448 FF       		.byte	0xff
 5848 0449 9B       		.byte	0x9b
 5849 044a 2D       		.uleb128 .LLSDATT1181-.LLSDATTD1181
 5850              	.LLSDATTD1181:
 5851 044b 01       		.byte	0x1
 5852 044c 21       		.uleb128 .LLSDACSE1181-.LLSDACSB1181
 5853              	.LLSDACSB1181:
 5854 044d 2E       		.uleb128 .LEHB149-.LFB1181
 5855 044e AE01     		.uleb128 .LEHE149-.LEHB149
 5856 0450 00       		.uleb128 0
 5857 0451 00       		.uleb128 0
 5858 0452 DC01     		.uleb128 .LEHB150-.LFB1181
 5859 0454 28       		.uleb128 .LEHE150-.LEHB150
 5860 0455 AE02     		.uleb128 .L270-.LFB1181
 5861 0457 01       		.uleb128 0x1
 5862 0458 8E02     		.uleb128 .LEHB151-.LFB1181
 5863 045a 1C       		.uleb128 .LEHE151-.LEHB151
 5864 045b AC02     		.uleb128 .L271-.LFB1181
 5865 045d 03       		.uleb128 0x3
 5866 045e B602     		.uleb128 .LEHB152-.LFB1181
 5867 0460 3A       		.uleb128 .LEHE152-.LEHB152
 5868 0461 F702     		.uleb128 .L272-.LFB1181
 5869 0463 00       		.uleb128 0
 5870 0464 F002     		.uleb128 .LEHB153-.LFB1181
 5871 0466 05       		.uleb128 .LEHE153-.LEHB153
 5872 0467 00       		.uleb128 0
 5873 0468 00       		.uleb128 0
 5874 0469 8503     		.uleb128 .LEHB154-.LFB1181
 5875 046b 05       		.uleb128 .LEHE154-.LEHB154
 5876 046c 00       		.uleb128 0
 5877 046d 00       		.uleb128 0
 5878              	.LLSDACSE1181:
 5879 046e 01       		.byte	0x1
 5880 046f 00       		.byte	0
 5881 0470 00       		.byte	0
 5882 0471 7D       		.byte	0x7d
 5883 0472 0000     		.align 4
 5884 0474 00000000 		.long	0
 5885              	
 5886              	.LLSDATT1181:
 5887              		.text
 5889              		.section	.rodata
 5890 0872 00000000 		.align 8
 5890      0000
 5891              	.LC69:
 5892 0878 43686563 		.string	"CheckArrayCloseFailureIncludesDetails"
 5892      6B417272 
 5892      6179436C 
 5892      6F736546 
 5892      61696C75 
 5893              		.text
 5894              		.align 2
 5896              	_ZN12_GLOBAL__N_141TestCheckArrayCloseFailureIncludesDetailsC2Ev:
 5897              	.LFB1183:
 222:TestChecks.cpp **** 
 223:TestChecks.cpp **** TEST(CheckArrayCloseFailureIncludesDetails)
 5898              		.loc 5 223 0
 5899              		.cfi_startproc
 5900 2aec 55       		pushq	%rbp
 5901              		.cfi_def_cfa_offset 16
 5902              		.cfi_offset 6, -16
 5903 2aed 4889E5   		movq	%rsp, %rbp
 5904              		.cfi_def_cfa_register 6
 5905 2af0 53       		pushq	%rbx
 5906 2af1 4883EC18 		subq	$24, %rsp
 5907              		.cfi_offset 3, -24
 5908 2af5 48897DE8 		movq	%rdi, -24(%rbp)
 5909              	.LBB27:
 5910              		.loc 5 223 0
 5911 2af9 488B5DE8 		movq	-24(%rbp), %rbx
 5912 2afd E8000000 		call	_ZN13UnitTestSuite12GetSuiteNameEv
 5912      00
 5913 2b02 41B8DF00 		movl	$223, %r8d
 5913      0000
 5914 2b08 488D0D00 		leaq	.LC2(%rip), %rcx
 5914      000000
 5915 2b0f 4889C2   		movq	%rax, %rdx
 5916 2b12 488D3500 		leaq	.LC69(%rip), %rsi
 5916      000000
 5917 2b19 4889DF   		movq	%rbx, %rdi
 5918 2b1c E8000000 		call	_ZN8UnitTest4TestC2EPKcS2_S2_i@PLT
 5918      00
 5919 2b21 488D1500 		leaq	16+_ZTVN12_GLOBAL__N_141TestCheckArrayCloseFailureIncludesDetailsE(%rip), %rdx
 5919      000000
 5920 2b28 488B45E8 		movq	-24(%rbp), %rax
 5921 2b2c 488910   		movq	%rdx, (%rax)
 5922              	.LBE27:
 5923 2b2f 90       		nop
 5924 2b30 4883C418 		addq	$24, %rsp
 5925 2b34 5B       		popq	%rbx
 5926 2b35 5D       		popq	%rbp
 5927              		.cfi_def_cfa 7, 8
 5928 2b36 C3       		ret
 5929              		.cfi_endproc
 5930              	.LFE1183:
 5932              		.set	_ZN12_GLOBAL__N_141TestCheckArrayCloseFailureIncludesDetailsC1Ev,_ZN12_GLOBAL__N_141TestCheck
 5933              		.local	_ZN12_GLOBAL__N_149testCheckArrayCloseFailureIncludesDetailsInstanceE
 5934              		.comm	_ZN12_GLOBAL__N_149testCheckArrayCloseFailureIncludesDetailsInstanceE,56,32
 5935              		.local	_ZN12_GLOBAL__N_142adderCheckArrayCloseFailureIncludesDetailsE
 5936              		.comm	_ZN12_GLOBAL__N_142adderCheckArrayCloseFailureIncludesDetailsE,1,1
 5937              		.section	.rodata
 5938              	.LC70:
 5939 089e 66696C65 		.string	"file"
 5939      00
 5940              	.LC71:
 5941 08a3 61727261 		.string	"arrayCloseSuite"
 5941      79436C6F 
 5941      73655375 
 5941      69746500 
 5942              	.LC72:
 5943 08b3 61727261 		.string	"arrayCloseTest"
 5943      79436C6F 
 5943      73655465 
 5943      737400
 5944 08c2 00000000 		.align 8
 5944      0000
 5945              	.LC73:
 5946 08c8 556E6861 		.string	"Unhandled exception in CHECK_EQUAL(\"arrayCloseTest\", reporter.lastFailedTest)"
 5946      6E646C65 
 5946      64206578 
 5946      63657074 
 5946      696F6E20 
 5947 0916 0000     		.align 8
 5948              	.LC74:
 5949 0918 556E6861 		.string	"Unhandled exception in CHECK_EQUAL(\"arrayCloseSuite\", reporter.lastFailedSuite)"
 5949      6E646C65 
 5949      64206578 
 5949      63657074 
 5949      696F6E20 
 5950              		.align 8
 5951              	.LC75:
 5952 0968 556E6861 		.string	"Unhandled exception in CHECK_EQUAL(\"file\", reporter.lastFailedFile)"
 5952      6E646C65 
 5952      64206578 
 5952      63657074 
 5952      696F6E20 
 5953 09ac 00000000 		.align 8
 5954              	.LC76:
 5955 09b0 556E6861 		.string	"Unhandled exception in CHECK_EQUAL(1337, reporter.lastFailedLine)"
 5955      6E646C65 
 5955      64206578 
 5955      63657074 
 5955      696F6E20 
 5956              		.text
 5957 2b37 90       		.align 2
 5959              	_ZNK12_GLOBAL__N_141TestCheckArrayCloseFailureIncludesDetails7RunImplEv:
 5960              	.LFB1185:
 224:TestChecks.cpp **** {
 5961              		.loc 5 224 0
 5962              		.cfi_startproc
 5963              		.cfi_personality 0x9b,DW.ref.__gxx_personality_v0
 5964              		.cfi_lsda 0x1b,.LLSDA1185
 5965 2b38 55       		pushq	%rbp
 5966              		.cfi_def_cfa_offset 16
 5967              		.cfi_offset 6, -16
 5968 2b39 4889E5   		movq	%rsp, %rbp
 5969              		.cfi_def_cfa_register 6
 5970 2b3c 53       		pushq	%rbx
 5971 2b3d 4881ECE8 		subq	$2280, %rsp
 5971      080000
 5972              		.cfi_offset 3, -24
 5973 2b44 4889BD18 		movq	%rdi, -2280(%rbp)
 5973      F7FFFF
 5974              		.loc 5 224 0
 5975 2b4b 64488B04 		movq	%fs:40, %rax
 5975      25280000 
 5975      00
 5976 2b54 488945E8 		movq	%rax, -24(%rbp)
 5977 2b58 31C0     		xorl	%eax, %eax
 225:TestChecks.cpp ****     RecordingReporter reporter;
 5978              		.loc 5 225 0
 5979 2b5a 488D85B0 		leaq	-2128(%rbp), %rax
 5979      F7FFFF
 5980 2b61 4889C7   		movq	%rax, %rdi
 5981 2b64 E8000000 		call	_ZN17RecordingReporterC1Ev
 5981      00
 226:TestChecks.cpp ****     TestResults results(&reporter);
 5982              		.loc 5 226 0
 5983 2b69 488D95B0 		leaq	-2128(%rbp), %rdx
 5983      F7FFFF
 5984 2b70 488D8530 		leaq	-2256(%rbp), %rax
 5984      F7FFFF
 5985 2b77 4889D6   		movq	%rdx, %rsi
 5986 2b7a 4889C7   		movq	%rax, %rdi
 5987              	.LEHB155:
 5988 2b7d E8000000 		call	_ZN8UnitTest11TestResultsC1EPNS_12TestReporterE@PLT
 5988      00
 227:TestChecks.cpp ****     TestDetails const details("arrayCloseTest", "arrayCloseSuite", "file", 1337);
 5989              		.loc 5 227 0
 5990 2b82 488D8550 		leaq	-2224(%rbp), %rax
 5990      F7FFFF
 5991 2b89 41B83905 		movl	$1337, %r8d
 5991      0000
 5992 2b8f 488D0D00 		leaq	.LC70(%rip), %rcx
 5992      000000
 5993 2b96 488D1500 		leaq	.LC71(%rip), %rdx
 5993      000000
 5994 2b9d 488D3500 		leaq	.LC72(%rip), %rsi
 5994      000000
 5995 2ba4 4889C7   		movq	%rax, %rdi
 5996 2ba7 E8000000 		call	_ZN8UnitTest11TestDetailsC1EPKcS2_S2_i@PLT
 5996      00
 228:TestChecks.cpp **** 
 229:TestChecks.cpp ****     float const array1[3] = { 1.0f, 1.5f, 2.0f };
 5997              		.loc 5 229 0
 5998 2bac F30F1005 		movss	.LC60(%rip), %xmm0
 5998      00000000 
 5999 2bb4 F30F1185 		movss	%xmm0, -2152(%rbp)
 5999      98F7FFFF 
 6000 2bbc F30F1005 		movss	.LC61(%rip), %xmm0
 6000      00000000 
 6001 2bc4 F30F1185 		movss	%xmm0, -2148(%rbp)
 6001      9CF7FFFF 
 6002 2bcc F30F1005 		movss	.LC62(%rip), %xmm0
 6002      00000000 
 6003 2bd4 F30F1185 		movss	%xmm0, -2144(%rbp)
 6003      A0F7FFFF 
 230:TestChecks.cpp ****     float const array2[3] = { 1.01f, 1.51f, 2.01f };
 6004              		.loc 5 230 0
 6005 2bdc F30F1005 		movss	.LC63(%rip), %xmm0
 6005      00000000 
 6006 2be4 F30F1185 		movss	%xmm0, -2140(%rbp)
 6006      A4F7FFFF 
 6007 2bec F30F1005 		movss	.LC64(%rip), %xmm0
 6007      00000000 
 6008 2bf4 F30F1185 		movss	%xmm0, -2136(%rbp)
 6008      A8F7FFFF 
 6009 2bfc F30F1005 		movss	.LC65(%rip), %xmm0
 6009      00000000 
 6010 2c04 F30F1185 		movss	%xmm0, -2132(%rbp)
 6010      ACF7FFFF 
 231:TestChecks.cpp ****     CheckArrayClose(results, array1, array2, 3, 0.001f, details);
 6011              		.loc 5 231 0
 6012 2c0c F30F1005 		movss	.LC68(%rip), %xmm0
 6012      00000000 
 6013 2c14 F30F1185 		movss	%xmm0, -2192(%rbp)
 6013      70F7FFFF 
 6014 2c1c 488DBD50 		leaq	-2224(%rbp), %rdi
 6014      F7FFFF
 6015 2c23 488D8D70 		leaq	-2192(%rbp), %rcx
 6015      F7FFFF
 6016 2c2a 488D95A4 		leaq	-2140(%rbp), %rdx
 6016      F7FFFF
 6017 2c31 488DB598 		leaq	-2152(%rbp), %rsi
 6017      F7FFFF
 6018 2c38 488D8530 		leaq	-2256(%rbp), %rax
 6018      F7FFFF
 6019 2c3f 4989F9   		movq	%rdi, %r9
 6020 2c42 4989C8   		movq	%rcx, %r8
 6021 2c45 B9030000 		movl	$3, %ecx
 6021      00
 6022 2c4a 4889C7   		movq	%rax, %rdi
 6023 2c4d E8000000 		call	_ZN8UnitTest15CheckArrayCloseIA3_fS1_fEEvRNS_11TestResultsERKT_RKT0_iRKT1_RKNS_11TestDetailsE
 6023      00
 6024              	.LEHE155:
 6025              	.LEHB156:
 232:TestChecks.cpp **** 
 233:TestChecks.cpp ****     CHECK_EQUAL("arrayCloseTest", reporter.lastFailedTest);
 6026              		.loc 5 233 0 discriminator 2
 6027 2c52 E8000000 		call	_ZN8UnitTest11CurrentTest7DetailsEv@PLT
 6027      00
 6028 2c57 488B08   		movq	(%rax), %rcx
 6029 2c5a 488D8570 		leaq	-2192(%rbp), %rax
 6029      F7FFFF
 6030 2c61 BAE90000 		movl	$233, %edx
 6030      00
 6031 2c66 4889CE   		movq	%rcx, %rsi
 6032 2c69 4889C7   		movq	%rax, %rdi
 6033 2c6c E8000000 		call	_ZN8UnitTest11TestDetailsC1ERKS0_i@PLT
 6033      00
 6034 2c71 E8000000 		call	_ZN8UnitTest11CurrentTest7ResultsEv@PLT
 6034      00
 6035 2c76 488B00   		movq	(%rax), %rax
 6036 2c79 488D9570 		leaq	-2192(%rbp), %rdx
 6036      F7FFFF
 6037 2c80 488D8DB0 		leaq	-2128(%rbp), %rcx
 6037      F7FFFF
 6038 2c87 488DB114 		leaq	1044(%rcx), %rsi
 6038      040000
 6039 2c8e 4889D1   		movq	%rdx, %rcx
 6040 2c91 4889F2   		movq	%rsi, %rdx
 6041 2c94 488D3500 		leaq	.LC72(%rip), %rsi
 6041      000000
 6042 2c9b 4889C7   		movq	%rax, %rdi
 6043 2c9e E8000000 		call	_ZN8UnitTest10CheckEqualERNS_11TestResultsEPKcPcRKNS_11TestDetailsE@PLT
 6043      00
 6044              	.LEHE156:
 6045              	.L276:
 6046              	.LEHB157:
 234:TestChecks.cpp ****     CHECK_EQUAL("arrayCloseSuite", reporter.lastFailedSuite);
 6047              		.loc 5 234 0
 6048 2ca3 E8000000 		call	_ZN8UnitTest11CurrentTest7DetailsEv@PLT
 6048      00
 6049 2ca8 488B08   		movq	(%rax), %rcx
 6050 2cab 488D8570 		leaq	-2192(%rbp), %rax
 6050      F7FFFF
 6051 2cb2 BAEA0000 		movl	$234, %edx
 6051      00
 6052 2cb7 4889CE   		movq	%rcx, %rsi
 6053 2cba 4889C7   		movq	%rax, %rdi
 6054 2cbd E8000000 		call	_ZN8UnitTest11TestDetailsC1ERKS0_i@PLT
 6054      00
 6055              		.loc 5 234 0 is_stmt 0 discriminator 2
 6056 2cc2 E8000000 		call	_ZN8UnitTest11CurrentTest7ResultsEv@PLT
 6056      00
 6057 2cc7 488B00   		movq	(%rax), %rax
 6058 2cca 488D9570 		leaq	-2192(%rbp), %rdx
 6058      F7FFFF
 6059 2cd1 488D8DB0 		leaq	-2128(%rbp), %rcx
 6059      F7FFFF
 6060 2cd8 488DB114 		leaq	788(%rcx), %rsi
 6060      030000
 6061 2cdf 4889D1   		movq	%rdx, %rcx
 6062 2ce2 4889F2   		movq	%rsi, %rdx
 6063 2ce5 488D3500 		leaq	.LC71(%rip), %rsi
 6063      000000
 6064 2cec 4889C7   		movq	%rax, %rdi
 6065 2cef E8000000 		call	_ZN8UnitTest10CheckEqualERNS_11TestResultsEPKcPcRKNS_11TestDetailsE@PLT
 6065      00
 6066              	.LEHE157:
 6067              	.L280:
 6068              	.LEHB158:
 235:TestChecks.cpp ****     CHECK_EQUAL("file", reporter.lastFailedFile);
 6069              		.loc 5 235 0 is_stmt 1
 6070 2cf4 E8000000 		call	_ZN8UnitTest11CurrentTest7DetailsEv@PLT
 6070      00
 6071 2cf9 488B08   		movq	(%rax), %rcx
 6072 2cfc 488D8570 		leaq	-2192(%rbp), %rax
 6072      F7FFFF
 6073 2d03 BAEB0000 		movl	$235, %edx
 6073      00
 6074 2d08 4889CE   		movq	%rcx, %rsi
 6075 2d0b 4889C7   		movq	%rax, %rdi
 6076 2d0e E8000000 		call	_ZN8UnitTest11TestDetailsC1ERKS0_i@PLT
 6076      00
 6077              		.loc 5 235 0 is_stmt 0 discriminator 2
 6078 2d13 E8000000 		call	_ZN8UnitTest11CurrentTest7ResultsEv@PLT
 6078      00
 6079 2d18 488B00   		movq	(%rax), %rax
 6080 2d1b 488D9570 		leaq	-2192(%rbp), %rdx
 6080      F7FFFF
 6081 2d22 488D8DB0 		leaq	-2128(%rbp), %rcx
 6081      F7FFFF
 6082 2d29 488DB110 		leaq	528(%rcx), %rsi
 6082      020000
 6083 2d30 4889D1   		movq	%rdx, %rcx
 6084 2d33 4889F2   		movq	%rsi, %rdx
 6085 2d36 488D3500 		leaq	.LC70(%rip), %rsi
 6085      000000
 6086 2d3d 4889C7   		movq	%rax, %rdi
 6087 2d40 E8000000 		call	_ZN8UnitTest10CheckEqualERNS_11TestResultsEPKcPcRKNS_11TestDetailsE@PLT
 6087      00
 6088              	.LEHE158:
 6089              	.L283:
 6090              	.LEHB159:
 236:TestChecks.cpp ****     CHECK_EQUAL(1337, reporter.lastFailedLine);
 6091              		.loc 5 236 0 is_stmt 1
 6092 2d45 E8000000 		call	_ZN8UnitTest11CurrentTest7DetailsEv@PLT
 6092      00
 6093 2d4a 488B08   		movq	(%rax), %rcx
 6094 2d4d 488D8570 		leaq	-2192(%rbp), %rax
 6094      F7FFFF
 6095 2d54 BAEC0000 		movl	$236, %edx
 6095      00
 6096 2d59 4889CE   		movq	%rcx, %rsi
 6097 2d5c 4889C7   		movq	%rax, %rdi
 6098 2d5f E8000000 		call	_ZN8UnitTest11TestDetailsC1ERKS0_i@PLT
 6098      00
 6099              	.LEHE159:
 6100              		.loc 5 236 0 is_stmt 0 discriminator 2
 6101 2d64 C7852CF7 		movl	$1337, -2260(%rbp)
 6101      FFFF3905 
 6101      0000
 6102              	.LEHB160:
 6103 2d6e E8000000 		call	_ZN8UnitTest11CurrentTest7ResultsEv@PLT
 6103      00
 6104 2d73 488B00   		movq	(%rax), %rax
 6105 2d76 488D9570 		leaq	-2192(%rbp), %rdx
 6105      F7FFFF
 6106 2d7d 488D8DB0 		leaq	-2128(%rbp), %rcx
 6106      F7FFFF
 6107 2d84 488DB910 		leaq	784(%rcx), %rdi
 6107      030000
 6108 2d8b 488DB52C 		leaq	-2260(%rbp), %rsi
 6108      F7FFFF
 6109 2d92 4889D1   		movq	%rdx, %rcx
 6110 2d95 4889FA   		movq	%rdi, %rdx
 6111 2d98 4889C7   		movq	%rax, %rdi
 6112 2d9b E8000000 		call	_ZN8UnitTest10CheckEqualIiiEEvRNS_11TestResultsERKT_RKT0_RKNS_11TestDetailsE
 6112      00
 6113              	.LEHE160:
 6114              	.L287:
 225:TestChecks.cpp ****     TestResults results(&reporter);
 6115              		.loc 5 225 0 is_stmt 1
 6116 2da0 488D85B0 		leaq	-2128(%rbp), %rax
 6116      F7FFFF
 6117 2da7 4889C7   		movq	%rax, %rdi
 6118              	.LEHB161:
 6119 2daa E8000000 		call	_ZN17RecordingReporterD1Ev
 6119      00
 6120              	.LEHE161:
 237:TestChecks.cpp **** }
 6121              		.loc 5 237 0
 6122 2daf 90       		nop
 6123 2db0 488B45E8 		movq	-24(%rbp), %rax
 6124 2db4 64483304 		xorq	%fs:40, %rax
 6124      25280000 
 6124      00
 6125 2dbd 0F849F01 		je	.L289
 6125      0000
 6126 2dc3 E9950100 		jmp	.L300
 6126      00
 6127              	.L291:
 233:TestChecks.cpp ****     CHECK_EQUAL("arrayCloseSuite", reporter.lastFailedSuite);
 6128              		.loc 5 233 0
 6129 2dc8 4889C7   		movq	%rax, %rdi
 6130 2dcb E8000000 		call	__cxa_begin_catch@PLT
 6130      00
 6131              	.LEHB162:
 6132 2dd0 E8000000 		call	_ZN8UnitTest11CurrentTest7ResultsEv@PLT
 6132      00
 6133 2dd5 488B18   		movq	(%rax), %rbx
 6134 2dd8 E8000000 		call	_ZN8UnitTest11CurrentTest7DetailsEv@PLT
 6134      00
 233:TestChecks.cpp ****     CHECK_EQUAL("arrayCloseSuite", reporter.lastFailedSuite);
 6135              		.loc 5 233 0 is_stmt 0 discriminator 8
 6136 2ddd 488B08   		movq	(%rax), %rcx
 6137 2de0 488D8570 		leaq	-2192(%rbp), %rax
 6137      F7FFFF
 6138 2de7 BAE90000 		movl	$233, %edx
 6138      00
 6139 2dec 4889CE   		movq	%rcx, %rsi
 6140 2def 4889C7   		movq	%rax, %rdi
 6141 2df2 E8000000 		call	_ZN8UnitTest11TestDetailsC1ERKS0_i@PLT
 6141      00
 233:TestChecks.cpp ****     CHECK_EQUAL("arrayCloseSuite", reporter.lastFailedSuite);
 6142              		.loc 5 233 0 discriminator 12
 6143 2df7 488D8570 		leaq	-2192(%rbp), %rax
 6143      F7FFFF
 6144 2dfe 488D1500 		leaq	.LC73(%rip), %rdx
 6144      000000
 6145 2e05 4889C6   		movq	%rax, %rsi
 6146 2e08 4889DF   		movq	%rbx, %rdi
 6147 2e0b E8000000 		call	_ZN8UnitTest11TestResults13OnTestFailureERKNS_11TestDetailsEPKc@PLT
 6147      00
 6148              	.LEHE162:
 6149              	.LEHB163:
 233:TestChecks.cpp ****     CHECK_EQUAL("arrayCloseSuite", reporter.lastFailedSuite);
 6150              		.loc 5 233 0 discriminator 14
 6151 2e10 E8000000 		call	__cxa_end_catch@PLT
 6151      00
 6152              	.LEHE163:
 233:TestChecks.cpp ****     CHECK_EQUAL("arrayCloseSuite", reporter.lastFailedSuite);
 6153              		.loc 5 233 0
 6154 2e15 E989FEFF 		jmp	.L276
 6154      FF
 6155              	.L292:
 6156 2e1a 4889C3   		movq	%rax, %rbx
 6157 2e1d E8000000 		call	__cxa_end_catch@PLT
 6157      00
 6158 2e22 E91C0100 		jmp	.L278
 6158      00
 6159              	.L293:
 234:TestChecks.cpp ****     CHECK_EQUAL("file", reporter.lastFailedFile);
 6160              		.loc 5 234 0 is_stmt 1
 6161 2e27 4889C7   		movq	%rax, %rdi
 6162 2e2a E8000000 		call	__cxa_begin_catch@PLT
 6162      00
 6163              	.LEHB164:
 6164 2e2f E8000000 		call	_ZN8UnitTest11CurrentTest7ResultsEv@PLT
 6164      00
 6165 2e34 488B18   		movq	(%rax), %rbx
 6166 2e37 E8000000 		call	_ZN8UnitTest11CurrentTest7DetailsEv@PLT
 6166      00
 234:TestChecks.cpp ****     CHECK_EQUAL("file", reporter.lastFailedFile);
 6167              		.loc 5 234 0 is_stmt 0 discriminator 8
 6168 2e3c 488B08   		movq	(%rax), %rcx
 6169 2e3f 488D8570 		leaq	-2192(%rbp), %rax
 6169      F7FFFF
 6170 2e46 BAEA0000 		movl	$234, %edx
 6170      00
 6171 2e4b 4889CE   		movq	%rcx, %rsi
 6172 2e4e 4889C7   		movq	%rax, %rdi
 6173 2e51 E8000000 		call	_ZN8UnitTest11TestDetailsC1ERKS0_i@PLT
 6173      00
 234:TestChecks.cpp ****     CHECK_EQUAL("file", reporter.lastFailedFile);
 6174              		.loc 5 234 0 discriminator 12
 6175 2e56 488D8570 		leaq	-2192(%rbp), %rax
 6175      F7FFFF
 6176 2e5d 488D1500 		leaq	.LC74(%rip), %rdx
 6176      000000
 6177 2e64 4889C6   		movq	%rax, %rsi
 6178 2e67 4889DF   		movq	%rbx, %rdi
 6179 2e6a E8000000 		call	_ZN8UnitTest11TestResults13OnTestFailureERKNS_11TestDetailsEPKc@PLT
 6179      00
 6180              	.LEHE164:
 6181              	.LEHB165:
 234:TestChecks.cpp ****     CHECK_EQUAL("file", reporter.lastFailedFile);
 6182              		.loc 5 234 0 discriminator 14
 6183 2e6f E8000000 		call	__cxa_end_catch@PLT
 6183      00
 6184              	.LEHE165:
 234:TestChecks.cpp ****     CHECK_EQUAL("file", reporter.lastFailedFile);
 6185              		.loc 5 234 0
 6186 2e74 E97BFEFF 		jmp	.L280
 6186      FF
 6187              	.L294:
 6188 2e79 4889C3   		movq	%rax, %rbx
 6189 2e7c E8000000 		call	__cxa_end_catch@PLT
 6189      00
 6190 2e81 E9BD0000 		jmp	.L278
 6190      00
 6191              	.L295:
 235:TestChecks.cpp ****     CHECK_EQUAL(1337, reporter.lastFailedLine);
 6192              		.loc 5 235 0 is_stmt 1
 6193 2e86 4889C7   		movq	%rax, %rdi
 6194 2e89 E8000000 		call	__cxa_begin_catch@PLT
 6194      00
 6195              	.LEHB166:
 6196 2e8e E8000000 		call	_ZN8UnitTest11CurrentTest7ResultsEv@PLT
 6196      00
 6197 2e93 488B18   		movq	(%rax), %rbx
 6198 2e96 E8000000 		call	_ZN8UnitTest11CurrentTest7DetailsEv@PLT
 6198      00
 235:TestChecks.cpp ****     CHECK_EQUAL(1337, reporter.lastFailedLine);
 6199              		.loc 5 235 0 is_stmt 0 discriminator 8
 6200 2e9b 488B08   		movq	(%rax), %rcx
 6201 2e9e 488D8570 		leaq	-2192(%rbp), %rax
 6201      F7FFFF
 6202 2ea5 BAEB0000 		movl	$235, %edx
 6202      00
 6203 2eaa 4889CE   		movq	%rcx, %rsi
 6204 2ead 4889C7   		movq	%rax, %rdi
 6205 2eb0 E8000000 		call	_ZN8UnitTest11TestDetailsC1ERKS0_i@PLT
 6205      00
 235:TestChecks.cpp ****     CHECK_EQUAL(1337, reporter.lastFailedLine);
 6206              		.loc 5 235 0 discriminator 12
 6207 2eb5 488D8570 		leaq	-2192(%rbp), %rax
 6207      F7FFFF
 6208 2ebc 488D1500 		leaq	.LC75(%rip), %rdx
 6208      000000
 6209 2ec3 4889C6   		movq	%rax, %rsi
 6210 2ec6 4889DF   		movq	%rbx, %rdi
 6211 2ec9 E8000000 		call	_ZN8UnitTest11TestResults13OnTestFailureERKNS_11TestDetailsEPKc@PLT
 6211      00
 6212              	.LEHE166:
 6213              	.LEHB167:
 235:TestChecks.cpp ****     CHECK_EQUAL(1337, reporter.lastFailedLine);
 6214              		.loc 5 235 0 discriminator 14
 6215 2ece E8000000 		call	__cxa_end_catch@PLT
 6215      00
 6216              	.LEHE167:
 235:TestChecks.cpp ****     CHECK_EQUAL(1337, reporter.lastFailedLine);
 6217              		.loc 5 235 0
 6218 2ed3 E96DFEFF 		jmp	.L283
 6218      FF
 6219              	.L296:
 6220 2ed8 4889C3   		movq	%rax, %rbx
 6221 2edb E8000000 		call	__cxa_end_catch@PLT
 6221      00
 6222 2ee0 EB61     		jmp	.L278
 6223              	.L298:
 6224 2ee2 EB00     		jmp	.L286
 6225              	.L297:
 6226              	.L286:
 236:TestChecks.cpp **** }
 6227              		.loc 5 236 0 is_stmt 1
 6228 2ee4 4889C7   		movq	%rax, %rdi
 6229 2ee7 E8000000 		call	__cxa_begin_catch@PLT
 6229      00
 6230              	.LEHB168:
 6231 2eec E8000000 		call	_ZN8UnitTest11CurrentTest7ResultsEv@PLT
 6231      00
 6232 2ef1 488B18   		movq	(%rax), %rbx
 6233 2ef4 E8000000 		call	_ZN8UnitTest11CurrentTest7DetailsEv@PLT
 6233      00
 236:TestChecks.cpp **** }
 6234              		.loc 5 236 0 is_stmt 0 discriminator 8
 6235 2ef9 488B08   		movq	(%rax), %rcx
 6236 2efc 488D8570 		leaq	-2192(%rbp), %rax
 6236      F7FFFF
 6237 2f03 BAEC0000 		movl	$236, %edx
 6237      00
 6238 2f08 4889CE   		movq	%rcx, %rsi
 6239 2f0b 4889C7   		movq	%rax, %rdi
 6240 2f0e E8000000 		call	_ZN8UnitTest11TestDetailsC1ERKS0_i@PLT
 6240      00
 236:TestChecks.cpp **** }
 6241              		.loc 5 236 0 discriminator 12
 6242 2f13 488D8570 		leaq	-2192(%rbp), %rax
 6242      F7FFFF
 6243 2f1a 488D1500 		leaq	.LC76(%rip), %rdx
 6243      000000
 6244 2f21 4889C6   		movq	%rax, %rsi
 6245 2f24 4889DF   		movq	%rbx, %rdi
 6246 2f27 E8000000 		call	_ZN8UnitTest11TestResults13OnTestFailureERKNS_11TestDetailsEPKc@PLT
 6246      00
 6247              	.LEHE168:
 6248              	.LEHB169:
 236:TestChecks.cpp **** }
 6249              		.loc 5 236 0 discriminator 14
 6250 2f2c E8000000 		call	__cxa_end_catch@PLT
 6250      00
 6251              	.LEHE169:
 236:TestChecks.cpp **** }
 6252              		.loc 5 236 0
 6253 2f31 E96AFEFF 		jmp	.L287
 6253      FF
 6254              	.L299:
 6255 2f36 4889C3   		movq	%rax, %rbx
 6256 2f39 E8000000 		call	__cxa_end_catch@PLT
 6256      00
 6257 2f3e EB03     		jmp	.L278
 6258              	.L290:
 6259 2f40 4889C3   		movq	%rax, %rbx
 6260              	.L278:
 225:TestChecks.cpp ****     TestResults results(&reporter);
 6261              		.loc 5 225 0 is_stmt 1
 6262 2f43 488D85B0 		leaq	-2128(%rbp), %rax
 6262      F7FFFF
 6263 2f4a 4889C7   		movq	%rax, %rdi
 6264 2f4d E8000000 		call	_ZN17RecordingReporterD1Ev
 6264      00
 6265 2f52 4889D8   		movq	%rbx, %rax
 6266 2f55 4889C7   		movq	%rax, %rdi
 6267              	.LEHB170:
 6268 2f58 E8000000 		call	_Unwind_Resume@PLT
 6268      00
 6269              	.LEHE170:
 6270              	.L300:
 6271              		.loc 5 237 0
 6272 2f5d E8000000 		call	__stack_chk_fail@PLT
 6272      00
 6273              	.L289:
 6274 2f62 4881C4E8 		addq	$2280, %rsp
 6274      080000
 6275 2f69 5B       		popq	%rbx
 6276 2f6a 5D       		popq	%rbp
 6277              		.cfi_def_cfa 7, 8
 6278 2f6b C3       		ret
 6279              		.cfi_endproc
 6280              	.LFE1185:
 6281              		.section	.gcc_except_table
 6282              		.align 4
 6283              	.LLSDA1185:
 6284 0478 FF       		.byte	0xff
 6285 0479 9B       		.byte	0x9b
 6286 047a 69       		.uleb128 .LLSDATT1185-.LLSDATTD1185
 6287              	.LLSDATTD1185:
 6288 047b 01       		.byte	0x1
 6289 047c 5E       		.uleb128 .LLSDACSE1185-.LLSDACSB1185
 6290              	.LLSDACSB1185:
 6291 047d 45       		.uleb128 .LEHB155-.LFB1185
 6292 047e D501     		.uleb128 .LEHE155-.LEHB155
 6293 0480 8808     		.uleb128 .L290-.LFB1185
 6294 0482 00       		.uleb128 0
 6295 0483 9A02     		.uleb128 .LEHB156-.LFB1185
 6296 0485 51       		.uleb128 .LEHE156-.LEHB156
 6297 0486 9005     		.uleb128 .L291-.LFB1185
 6298 0488 01       		.uleb128 0x1
 6299 0489 EB02     		.uleb128 .LEHB157-.LFB1185
 6300 048b 51       		.uleb128 .LEHE157-.LEHB157
 6301 048c EF05     		.uleb128 .L293-.LFB1185
 6302 048e 01       		.uleb128 0x1
 6303 048f BC03     		.uleb128 .LEHB158-.LFB1185
 6304 0491 51       		.uleb128 .LEHE158-.LEHB158
 6305 0492 CE06     		.uleb128 .L295-.LFB1185
 6306 0494 01       		.uleb128 0x1
 6307 0495 8D04     		.uleb128 .LEHB159-.LFB1185
 6308 0497 1F       		.uleb128 .LEHE159-.LEHB159
 6309 0498 AC07     		.uleb128 .L297-.LFB1185
 6310 049a 01       		.uleb128 0x1
 6311 049b B604     		.uleb128 .LEHB160-.LFB1185
 6312 049d 32       		.uleb128 .LEHE160-.LEHB160
 6313 049e AA07     		.uleb128 .L298-.LFB1185
 6314 04a0 01       		.uleb128 0x1
 6315 04a1 F204     		.uleb128 .LEHB161-.LFB1185
 6316 04a3 05       		.uleb128 .LEHE161-.LEHB161
 6317 04a4 00       		.uleb128 0
 6318 04a5 00       		.uleb128 0
 6319 04a6 9805     		.uleb128 .LEHB162-.LFB1185
 6320 04a8 40       		.uleb128 .LEHE162-.LEHB162
 6321 04a9 E205     		.uleb128 .L292-.LFB1185
 6322 04ab 00       		.uleb128 0
 6323 04ac D805     		.uleb128 .LEHB163-.LFB1185
 6324 04ae 05       		.uleb128 .LEHE163-.LEHB163
 6325 04af 8808     		.uleb128 .L290-.LFB1185
 6326 04b1 00       		.uleb128 0
 6327 04b2 F705     		.uleb128 .LEHB164-.LFB1185
 6328 04b4 40       		.uleb128 .LEHE164-.LEHB164
 6329 04b5 C106     		.uleb128 .L294-.LFB1185
 6330 04b7 00       		.uleb128 0
 6331 04b8 B706     		.uleb128 .LEHB165-.LFB1185
 6332 04ba 05       		.uleb128 .LEHE165-.LEHB165
 6333 04bb 8808     		.uleb128 .L290-.LFB1185
 6334 04bd 00       		.uleb128 0
 6335 04be D606     		.uleb128 .LEHB166-.LFB1185
 6336 04c0 40       		.uleb128 .LEHE166-.LEHB166
 6337 04c1 A007     		.uleb128 .L296-.LFB1185
 6338 04c3 00       		.uleb128 0
 6339 04c4 9607     		.uleb128 .LEHB167-.LFB1185
 6340 04c6 05       		.uleb128 .LEHE167-.LEHB167
 6341 04c7 8808     		.uleb128 .L290-.LFB1185
 6342 04c9 00       		.uleb128 0
 6343 04ca B407     		.uleb128 .LEHB168-.LFB1185
 6344 04cc 40       		.uleb128 .LEHE168-.LEHB168
 6345 04cd FE07     		.uleb128 .L299-.LFB1185
 6346 04cf 00       		.uleb128 0
 6347 04d0 F407     		.uleb128 .LEHB169-.LFB1185
 6348 04d2 05       		.uleb128 .LEHE169-.LEHB169
 6349 04d3 8808     		.uleb128 .L290-.LFB1185
 6350 04d5 00       		.uleb128 0
 6351 04d6 A008     		.uleb128 .LEHB170-.LFB1185
 6352 04d8 05       		.uleb128 .LEHE170-.LEHB170
 6353 04d9 00       		.uleb128 0
 6354 04da 00       		.uleb128 0
 6355              	.LLSDACSE1185:
 6356 04db 01       		.byte	0x1
 6357 04dc 00       		.byte	0
 6358 04dd 000000   		.align 4
 6359 04e0 00000000 		.long	0
 6360              	
 6361              	.LLSDATT1185:
 6362              		.text
 6364              		.section	.rodata
 6365              	.LC77:
 6366 09f2 43686563 		.string	"CheckArray2DCloseTrue"
 6366      6B417272 
 6366      61793244 
 6366      436C6F73 
 6366      65547275 
 6367              		.text
 6368              		.align 2
 6370              	_ZN12_GLOBAL__N_125TestCheckArray2DCloseTrueC2Ev:
 6371              	.LFB1187:
 238:TestChecks.cpp **** 
 239:TestChecks.cpp **** 
 240:TestChecks.cpp **** TEST(CheckArray2DCloseTrue)
 6372              		.loc 5 240 0
 6373              		.cfi_startproc
 6374 2f6c 55       		pushq	%rbp
 6375              		.cfi_def_cfa_offset 16
 6376              		.cfi_offset 6, -16
 6377 2f6d 4889E5   		movq	%rsp, %rbp
 6378              		.cfi_def_cfa_register 6
 6379 2f70 53       		pushq	%rbx
 6380 2f71 4883EC18 		subq	$24, %rsp
 6381              		.cfi_offset 3, -24
 6382 2f75 48897DE8 		movq	%rdi, -24(%rbp)
 6383              	.LBB28:
 6384              		.loc 5 240 0
 6385 2f79 488B5DE8 		movq	-24(%rbp), %rbx
 6386 2f7d E8000000 		call	_ZN13UnitTestSuite12GetSuiteNameEv
 6386      00
 6387 2f82 41B8F000 		movl	$240, %r8d
 6387      0000
 6388 2f88 488D0D00 		leaq	.LC2(%rip), %rcx
 6388      000000
 6389 2f8f 4889C2   		movq	%rax, %rdx
 6390 2f92 488D3500 		leaq	.LC77(%rip), %rsi
 6390      000000
 6391 2f99 4889DF   		movq	%rbx, %rdi
 6392 2f9c E8000000 		call	_ZN8UnitTest4TestC2EPKcS2_S2_i@PLT
 6392      00
 6393 2fa1 488D1500 		leaq	16+_ZTVN12_GLOBAL__N_125TestCheckArray2DCloseTrueE(%rip), %rdx
 6393      000000
 6394 2fa8 488B45E8 		movq	-24(%rbp), %rax
 6395 2fac 488910   		movq	%rdx, (%rax)
 6396              	.LBE28:
 6397 2faf 90       		nop
 6398 2fb0 4883C418 		addq	$24, %rsp
 6399 2fb4 5B       		popq	%rbx
 6400 2fb5 5D       		popq	%rbp
 6401              		.cfi_def_cfa 7, 8
 6402 2fb6 C3       		ret
 6403              		.cfi_endproc
 6404              	.LFE1187:
 6406              		.set	_ZN12_GLOBAL__N_125TestCheckArray2DCloseTrueC1Ev,_ZN12_GLOBAL__N_125TestCheckArray2DCloseTrue
 6407              		.local	_ZN12_GLOBAL__N_133testCheckArray2DCloseTrueInstanceE
 6408              		.comm	_ZN12_GLOBAL__N_133testCheckArray2DCloseTrueInstanceE,56,32
 6409              		.local	_ZN12_GLOBAL__N_126adderCheckArray2DCloseTrueE
 6410              		.comm	_ZN12_GLOBAL__N_126adderCheckArray2DCloseTrueE,1,1
 6411 2fb7 90       		.align 2
 6413              	_ZNK12_GLOBAL__N_125TestCheckArray2DCloseTrue7RunImplEv:
 6414              	.LFB1189:
 241:TestChecks.cpp **** {
 6415              		.loc 5 241 0
 6416              		.cfi_startproc
 6417              		.cfi_personality 0x9b,DW.ref.__gxx_personality_v0
 6418              		.cfi_lsda 0x1b,.LLSDA1189
 6419 2fb8 55       		pushq	%rbp
 6420              		.cfi_def_cfa_offset 16
 6421              		.cfi_offset 6, -16
 6422 2fb9 4889E5   		movq	%rsp, %rbp
 6423              		.cfi_def_cfa_register 6
 6424 2fbc 53       		pushq	%rbx
 6425 2fbd 4881ECC8 		subq	$200, %rsp
 6425      000000
 6426              		.cfi_offset 3, -24
 6427 2fc4 4889BD38 		movq	%rdi, -200(%rbp)
 6427      FFFFFF
 6428              		.loc 5 241 0
 6429 2fcb 64488B04 		movq	%fs:40, %rax
 6429      25280000 
 6429      00
 6430 2fd4 488945E8 		movq	%rax, -24(%rbp)
 6431 2fd8 31C0     		xorl	%eax, %eax
 242:TestChecks.cpp ****     TestResults results;
 6432              		.loc 5 242 0
 6433 2fda 488D8550 		leaq	-176(%rbp), %rax
 6433      FFFFFF
 6434 2fe1 BE000000 		movl	$0, %esi
 6434      00
 6435 2fe6 4889C7   		movq	%rax, %rdi
 6436              	.LEHB171:
 6437 2fe9 E8000000 		call	_ZN8UnitTest11TestResultsC1EPNS_12TestReporterE@PLT
 6437      00
 243:TestChecks.cpp **** 
 244:TestChecks.cpp ****     float const array1[3][3] = { { 1.0f, 1.5f, 2.0f },
 6438              		.loc 5 244 0
 6439 2fee F30F1005 		movss	.LC60(%rip), %xmm0
 6439      00000000 
 6440 2ff6 F30F1145 		movss	%xmm0, -112(%rbp)
 6440      90
 6441 2ffb F30F1005 		movss	.LC61(%rip), %xmm0
 6441      00000000 
 6442 3003 F30F1145 		movss	%xmm0, -108(%rbp)
 6442      94
 6443 3008 F30F1005 		movss	.LC62(%rip), %xmm0
 6443      00000000 
 6444 3010 F30F1145 		movss	%xmm0, -104(%rbp)
 6444      98
 6445 3015 F30F1005 		movss	.LC62(%rip), %xmm0
 6445      00000000 
 6446 301d F30F1145 		movss	%xmm0, -100(%rbp)
 6446      9C
 6447 3022 F30F1005 		movss	.LC78(%rip), %xmm0
 6447      00000000 
 6448 302a F30F1145 		movss	%xmm0, -96(%rbp)
 6448      A0
 6449 302f F30F1005 		movss	.LC32(%rip), %xmm0
 6449      00000000 
 6450 3037 F30F1145 		movss	%xmm0, -92(%rbp)
 6450      A4
 6451 303c F30F1005 		movss	.LC32(%rip), %xmm0
 6451      00000000 
 6452 3044 F30F1145 		movss	%xmm0, -88(%rbp)
 6452      A8
 6453 3049 F30F1005 		movss	.LC79(%rip), %xmm0
 6453      00000000 
 6454 3051 F30F1145 		movss	%xmm0, -84(%rbp)
 6454      AC
 6455 3056 F30F1005 		movss	.LC80(%rip), %xmm0
 6455      00000000 
 6456 305e F30F1145 		movss	%xmm0, -80(%rbp)
 6456      B0
 245:TestChecks.cpp ****                                  { 2.0f, 2.5f, 3.0f },
 246:TestChecks.cpp ****                                  { 3.0f, 3.5f, 4.0f } };
 247:TestChecks.cpp ****     float const array2[3][3] = { { 1.01f, 1.51f, 2.01f },
 6457              		.loc 5 247 0
 6458 3063 F30F1005 		movss	.LC63(%rip), %xmm0
 6458      00000000 
 6459 306b F30F1145 		movss	%xmm0, -64(%rbp)
 6459      C0
 6460 3070 F30F1005 		movss	.LC64(%rip), %xmm0
 6460      00000000 
 6461 3078 F30F1145 		movss	%xmm0, -60(%rbp)
 6461      C4
 6462 307d F30F1005 		movss	.LC65(%rip), %xmm0
 6462      00000000 
 6463 3085 F30F1145 		movss	%xmm0, -56(%rbp)
 6463      C8
 6464 308a F30F1005 		movss	.LC65(%rip), %xmm0
 6464      00000000 
 6465 3092 F30F1145 		movss	%xmm0, -52(%rbp)
 6465      CC
 6466 3097 F30F1005 		movss	.LC81(%rip), %xmm0
 6466      00000000 
 6467 309f F30F1145 		movss	%xmm0, -48(%rbp)
 6467      D0
 6468 30a4 F30F1005 		movss	.LC82(%rip), %xmm0
 6468      00000000 
 6469 30ac F30F1145 		movss	%xmm0, -44(%rbp)
 6469      D4
 6470 30b1 F30F1005 		movss	.LC82(%rip), %xmm0
 6470      00000000 
 6471 30b9 F30F1145 		movss	%xmm0, -40(%rbp)
 6471      D8
 6472 30be F30F1005 		movss	.LC83(%rip), %xmm0
 6472      00000000 
 6473 30c6 F30F1145 		movss	%xmm0, -36(%rbp)
 6473      DC
 6474 30cb F30F1005 		movss	.LC84(%rip), %xmm0
 6474      00000000 
 6475 30d3 F30F1145 		movss	%xmm0, -32(%rbp)
 6475      E0
 248:TestChecks.cpp ****                                  { 2.01f, 2.51f, 3.01f },
 249:TestChecks.cpp ****                                  { 3.01f, 3.51f, 4.01f } };
 250:TestChecks.cpp ****     CheckArray2DClose(results, array1, array2, 3, 3, 0.02f, TestDetails("", "", "", 0));
 6476              		.loc 5 250 0
 6477 30d8 488D8570 		leaq	-144(%rbp), %rax
 6477      FFFFFF
 6478 30df 41B80000 		movl	$0, %r8d
 6478      0000
 6479 30e5 488D0D00 		leaq	.LC6(%rip), %rcx
 6479      000000
 6480 30ec 488D1500 		leaq	.LC6(%rip), %rdx
 6480      000000
 6481 30f3 488D3500 		leaq	.LC6(%rip), %rsi
 6481      000000
 6482 30fa 4889C7   		movq	%rax, %rdi
 6483 30fd E8000000 		call	_ZN8UnitTest11TestDetailsC1EPKcS2_S2_i@PLT
 6483      00
 6484 3102 F30F1005 		movss	.LC66(%rip), %xmm0
 6484      00000000 
 6485 310a F30F1185 		movss	%xmm0, -180(%rbp)
 6485      4CFFFFFF 
 6486 3112 488DBD4C 		leaq	-180(%rbp), %rdi
 6486      FFFFFF
 6487 3119 488D55C0 		leaq	-64(%rbp), %rdx
 6488 311d 488D7590 		leaq	-112(%rbp), %rsi
 6489 3121 488D8550 		leaq	-176(%rbp), %rax
 6489      FFFFFF
 6490 3128 4883EC08 		subq	$8, %rsp
 6491 312c 488D8D70 		leaq	-144(%rbp), %rcx
 6491      FFFFFF
 6492 3133 51       		pushq	%rcx
 6493 3134 4989F9   		movq	%rdi, %r9
 6494 3137 41B80300 		movl	$3, %r8d
 6494      0000
 6495 313d B9030000 		movl	$3, %ecx
 6495      00
 6496 3142 4889C7   		movq	%rax, %rdi
 6497 3145 E8000000 		call	_ZN8UnitTest17CheckArray2DCloseIA3_A3_fS2_fEEvRNS_11TestResultsERKT_RKT0_iiRKT1_RKNS_11TestDe
 6497      00
 6498              	.LEHE171:
 6499 314a 4883C410 		addq	$16, %rsp
 6500              	.LEHB172:
 251:TestChecks.cpp ****     CHECK_EQUAL(0, results.GetFailureCount());
 6501              		.loc 5 251 0
 6502 314e E8000000 		call	_ZN8UnitTest11CurrentTest7DetailsEv@PLT
 6502      00
 6503 3153 488B08   		movq	(%rax), %rcx
 6504 3156 488D8570 		leaq	-144(%rbp), %rax
 6504      FFFFFF
 6505 315d BAFB0000 		movl	$251, %edx
 6505      00
 6506 3162 4889CE   		movq	%rcx, %rsi
 6507 3165 4889C7   		movq	%rax, %rdi
 6508 3168 E8000000 		call	_ZN8UnitTest11TestDetailsC1ERKS0_i@PLT
 6508      00
 6509              		.loc 5 251 0 is_stmt 0 discriminator 2
 6510 316d 488D8550 		leaq	-176(%rbp), %rax
 6510      FFFFFF
 6511 3174 4889C7   		movq	%rax, %rdi
 6512 3177 E8000000 		call	_ZNK8UnitTest11TestResults15GetFailureCountEv@PLT
 6512      00
 6513              	.LEHE172:
 6514 317c 89854CFF 		movl	%eax, -180(%rbp)
 6514      FFFF
 6515 3182 C78548FF 		movl	$0, -184(%rbp)
 6515      FFFF0000 
 6515      0000
 6516              	.LEHB173:
 6517 318c E8000000 		call	_ZN8UnitTest11CurrentTest7ResultsEv@PLT
 6517      00
 6518              		.loc 5 251 0 discriminator 4
 6519 3191 488B00   		movq	(%rax), %rax
 6520 3194 488D8D70 		leaq	-144(%rbp), %rcx
 6520      FFFFFF
 6521 319b 488D954C 		leaq	-180(%rbp), %rdx
 6521      FFFFFF
 6522 31a2 488DB548 		leaq	-184(%rbp), %rsi
 6522      FFFFFF
 6523 31a9 4889C7   		movq	%rax, %rdi
 6524 31ac E8000000 		call	_ZN8UnitTest10CheckEqualIiiEEvRNS_11TestResultsERKT_RKT0_RKNS_11TestDetailsE
 6524      00
 6525              	.LEHE173:
 252:TestChecks.cpp **** }
 6526              		.loc 5 252 0 is_stmt 1
 6527 31b1 EB64     		jmp	.L302
 6528              	.L309:
 6529 31b3 EB00     		jmp	.L304
 6530              	.L308:
 6531              	.L304:
 251:TestChecks.cpp ****     CHECK_EQUAL(0, results.GetFailureCount());
 6532              		.loc 5 251 0
 6533 31b5 4889C7   		movq	%rax, %rdi
 6534 31b8 E8000000 		call	__cxa_begin_catch@PLT
 6534      00
 6535              	.LEHB174:
 6536 31bd E8000000 		call	_ZN8UnitTest11CurrentTest7ResultsEv@PLT
 6536      00
 6537 31c2 488B18   		movq	(%rax), %rbx
 6538 31c5 E8000000 		call	_ZN8UnitTest11CurrentTest7DetailsEv@PLT
 6538      00
 251:TestChecks.cpp ****     CHECK_EQUAL(0, results.GetFailureCount());
 6539              		.loc 5 251 0 is_stmt 0 discriminator 10
 6540 31ca 488B08   		movq	(%rax), %rcx
 6541 31cd 488D8570 		leaq	-144(%rbp), %rax
 6541      FFFFFF
 6542 31d4 BAFB0000 		movl	$251, %edx
 6542      00
 6543 31d9 4889CE   		movq	%rcx, %rsi
 6544 31dc 4889C7   		movq	%rax, %rdi
 6545 31df E8000000 		call	_ZN8UnitTest11TestDetailsC1ERKS0_i@PLT
 6545      00
 251:TestChecks.cpp ****     CHECK_EQUAL(0, results.GetFailureCount());
 6546              		.loc 5 251 0 discriminator 14
 6547 31e4 488D8570 		leaq	-144(%rbp), %rax
 6547      FFFFFF
 6548 31eb 488D1500 		leaq	.LC9(%rip), %rdx
 6548      000000
 6549 31f2 4889C6   		movq	%rax, %rsi
 6550 31f5 4889DF   		movq	%rbx, %rdi
 6551 31f8 E8000000 		call	_ZN8UnitTest11TestResults13OnTestFailureERKNS_11TestDetailsEPKc@PLT
 6551      00
 6552              	.LEHE174:
 6553              	.LEHB175:
 251:TestChecks.cpp ****     CHECK_EQUAL(0, results.GetFailureCount());
 6554              		.loc 5 251 0 discriminator 16
 6555 31fd E8000000 		call	__cxa_end_catch@PLT
 6555      00
 6556              	.LEHE175:
 6557              		.loc 5 252 0 is_stmt 1 discriminator 16
 6558 3202 EB13     		jmp	.L302
 6559              	.L310:
 6560 3204 4889C3   		movq	%rax, %rbx
 251:TestChecks.cpp ****     CHECK_EQUAL(0, results.GetFailureCount());
 6561              		.loc 5 251 0
 6562 3207 E8000000 		call	__cxa_end_catch@PLT
 6562      00
 6563 320c 4889D8   		movq	%rbx, %rax
 6564 320f 4889C7   		movq	%rax, %rdi
 6565              	.LEHB176:
 6566 3212 E8000000 		call	_Unwind_Resume@PLT
 6566      00
 6567              	.LEHE176:
 6568              	.L302:
 6569              		.loc 5 252 0
 6570 3217 488B45E8 		movq	-24(%rbp), %rax
 6571 321b 64483304 		xorq	%fs:40, %rax
 6571      25280000 
 6571      00
 6572 3224 7405     		je	.L307
 6573 3226 E8000000 		call	__stack_chk_fail@PLT
 6573      00
 6574              	.L307:
 6575 322b 488B5DF8 		movq	-8(%rbp), %rbx
 6576 322f C9       		leave
 6577              		.cfi_def_cfa 7, 8
 6578 3230 C3       		ret
 6579              		.cfi_endproc
 6580              	.LFE1189:
 6581              		.section	.gcc_except_table
 6582              		.align 4
 6583              	.LLSDA1189:
 6584 04e4 FF       		.byte	0xff
 6585 04e5 9B       		.byte	0x9b
 6586 04e6 2D       		.uleb128 .LLSDATT1189-.LLSDATTD1189
 6587              	.LLSDATTD1189:
 6588 04e7 01       		.byte	0x1
 6589 04e8 21       		.uleb128 .LLSDACSE1189-.LLSDACSB1189
 6590              	.LLSDACSB1189:
 6591 04e9 31       		.uleb128 .LEHB171-.LFB1189
 6592 04ea E102     		.uleb128 .LEHE171-.LEHB171
 6593 04ec 00       		.uleb128 0
 6594 04ed 00       		.uleb128 0
 6595 04ee 9603     		.uleb128 .LEHB172-.LFB1189
 6596 04f0 2E       		.uleb128 .LEHE172-.LEHB172
 6597 04f1 FD03     		.uleb128 .L308-.LFB1189
 6598 04f3 01       		.uleb128 0x1
 6599 04f4 D403     		.uleb128 .LEHB173-.LFB1189
 6600 04f6 25       		.uleb128 .LEHE173-.LEHB173
 6601 04f7 FB03     		.uleb128 .L309-.LFB1189
 6602 04f9 03       		.uleb128 0x3
 6603 04fa 8504     		.uleb128 .LEHB174-.LFB1189
 6604 04fc 40       		.uleb128 .LEHE174-.LEHB174
 6605 04fd CC04     		.uleb128 .L310-.LFB1189
 6606 04ff 00       		.uleb128 0
 6607 0500 C504     		.uleb128 .LEHB175-.LFB1189
 6608 0502 05       		.uleb128 .LEHE175-.LEHB175
 6609 0503 00       		.uleb128 0
 6610 0504 00       		.uleb128 0
 6611 0505 DA04     		.uleb128 .LEHB176-.LFB1189
 6612 0507 05       		.uleb128 .LEHE176-.LEHB176
 6613 0508 00       		.uleb128 0
 6614 0509 00       		.uleb128 0
 6615              	.LLSDACSE1189:
 6616 050a 01       		.byte	0x1
 6617 050b 00       		.byte	0
 6618 050c 00       		.byte	0
 6619 050d 7D       		.byte	0x7d
 6620 050e 0000     		.align 4
 6621 0510 00000000 		.long	0
 6622              	
 6623              	.LLSDATT1189:
 6624              		.text
 6626              		.section	.rodata
 6627              	.LC85:
 6628 0a08 43686563 		.string	"CheckArray2DCloseFalse"
 6628      6B417272 
 6628      61793244 
 6628      436C6F73 
 6628      6546616C 
 6629              		.text
 6630 3231 90       		.align 2
 6632              	_ZN12_GLOBAL__N_126TestCheckArray2DCloseFalseC2Ev:
 6633              	.LFB1191:
 253:TestChecks.cpp **** 
 254:TestChecks.cpp **** TEST(CheckArray2DCloseFalse)
 6634              		.loc 5 254 0
 6635              		.cfi_startproc
 6636 3232 55       		pushq	%rbp
 6637              		.cfi_def_cfa_offset 16
 6638              		.cfi_offset 6, -16
 6639 3233 4889E5   		movq	%rsp, %rbp
 6640              		.cfi_def_cfa_register 6
 6641 3236 53       		pushq	%rbx
 6642 3237 4883EC18 		subq	$24, %rsp
 6643              		.cfi_offset 3, -24
 6644 323b 48897DE8 		movq	%rdi, -24(%rbp)
 6645              	.LBB29:
 6646              		.loc 5 254 0
 6647 323f 488B5DE8 		movq	-24(%rbp), %rbx
 6648 3243 E8000000 		call	_ZN13UnitTestSuite12GetSuiteNameEv
 6648      00
 6649 3248 41B8FE00 		movl	$254, %r8d
 6649      0000
 6650 324e 488D0D00 		leaq	.LC2(%rip), %rcx
 6650      000000
 6651 3255 4889C2   		movq	%rax, %rdx
 6652 3258 488D3500 		leaq	.LC85(%rip), %rsi
 6652      000000
 6653 325f 4889DF   		movq	%rbx, %rdi
 6654 3262 E8000000 		call	_ZN8UnitTest4TestC2EPKcS2_S2_i@PLT
 6654      00
 6655 3267 488D1500 		leaq	16+_ZTVN12_GLOBAL__N_126TestCheckArray2DCloseFalseE(%rip), %rdx
 6655      000000
 6656 326e 488B45E8 		movq	-24(%rbp), %rax
 6657 3272 488910   		movq	%rdx, (%rax)
 6658              	.LBE29:
 6659 3275 90       		nop
 6660 3276 4883C418 		addq	$24, %rsp
 6661 327a 5B       		popq	%rbx
 6662 327b 5D       		popq	%rbp
 6663              		.cfi_def_cfa 7, 8
 6664 327c C3       		ret
 6665              		.cfi_endproc
 6666              	.LFE1191:
 6668              		.set	_ZN12_GLOBAL__N_126TestCheckArray2DCloseFalseC1Ev,_ZN12_GLOBAL__N_126TestCheckArray2DCloseFal
 6669              		.local	_ZN12_GLOBAL__N_134testCheckArray2DCloseFalseInstanceE
 6670              		.comm	_ZN12_GLOBAL__N_134testCheckArray2DCloseFalseInstanceE,56,32
 6671              		.local	_ZN12_GLOBAL__N_127adderCheckArray2DCloseFalseE
 6672              		.comm	_ZN12_GLOBAL__N_127adderCheckArray2DCloseFalseE,1,1
 6673 327d 90       		.align 2
 6675              	_ZNK12_GLOBAL__N_126TestCheckArray2DCloseFalse7RunImplEv:
 6676              	.LFB1193:
 255:TestChecks.cpp **** {
 6677              		.loc 5 255 0
 6678              		.cfi_startproc
 6679              		.cfi_personality 0x9b,DW.ref.__gxx_personality_v0
 6680              		.cfi_lsda 0x1b,.LLSDA1193
 6681 327e 55       		pushq	%rbp
 6682              		.cfi_def_cfa_offset 16
 6683              		.cfi_offset 6, -16
 6684 327f 4889E5   		movq	%rsp, %rbp
 6685              		.cfi_def_cfa_register 6
 6686 3282 53       		pushq	%rbx
 6687 3283 4881ECC8 		subq	$200, %rsp
 6687      000000
 6688              		.cfi_offset 3, -24
 6689 328a 4889BD38 		movq	%rdi, -200(%rbp)
 6689      FFFFFF
 6690              		.loc 5 255 0
 6691 3291 64488B04 		movq	%fs:40, %rax
 6691      25280000 
 6691      00
 6692 329a 488945E8 		movq	%rax, -24(%rbp)
 6693 329e 31C0     		xorl	%eax, %eax
 256:TestChecks.cpp ****     TestResults results;
 6694              		.loc 5 256 0
 6695 32a0 488D8550 		leaq	-176(%rbp), %rax
 6695      FFFFFF
 6696 32a7 BE000000 		movl	$0, %esi
 6696      00
 6697 32ac 4889C7   		movq	%rax, %rdi
 6698              	.LEHB177:
 6699 32af E8000000 		call	_ZN8UnitTest11TestResultsC1EPNS_12TestReporterE@PLT
 6699      00
 257:TestChecks.cpp **** 
 258:TestChecks.cpp ****     float const array1[3][3] = { { 1.0f, 1.5f, 2.0f },
 6700              		.loc 5 258 0
 6701 32b4 F30F1005 		movss	.LC60(%rip), %xmm0
 6701      00000000 
 6702 32bc F30F1145 		movss	%xmm0, -112(%rbp)
 6702      90
 6703 32c1 F30F1005 		movss	.LC61(%rip), %xmm0
 6703      00000000 
 6704 32c9 F30F1145 		movss	%xmm0, -108(%rbp)
 6704      94
 6705 32ce F30F1005 		movss	.LC62(%rip), %xmm0
 6705      00000000 
 6706 32d6 F30F1145 		movss	%xmm0, -104(%rbp)
 6706      98
 6707 32db F30F1005 		movss	.LC62(%rip), %xmm0
 6707      00000000 
 6708 32e3 F30F1145 		movss	%xmm0, -100(%rbp)
 6708      9C
 6709 32e8 F30F1005 		movss	.LC78(%rip), %xmm0
 6709      00000000 
 6710 32f0 F30F1145 		movss	%xmm0, -96(%rbp)
 6710      A0
 6711 32f5 F30F1005 		movss	.LC32(%rip), %xmm0
 6711      00000000 
 6712 32fd F30F1145 		movss	%xmm0, -92(%rbp)
 6712      A4
 6713 3302 F30F1005 		movss	.LC32(%rip), %xmm0
 6713      00000000 
 6714 330a F30F1145 		movss	%xmm0, -88(%rbp)
 6714      A8
 6715 330f F30F1005 		movss	.LC79(%rip), %xmm0
 6715      00000000 
 6716 3317 F30F1145 		movss	%xmm0, -84(%rbp)
 6716      AC
 6717 331c F30F1005 		movss	.LC80(%rip), %xmm0
 6717      00000000 
 6718 3324 F30F1145 		movss	%xmm0, -80(%rbp)
 6718      B0
 259:TestChecks.cpp ****                                  { 2.0f, 2.5f, 3.0f },
 260:TestChecks.cpp ****                                  { 3.0f, 3.5f, 4.0f } };
 261:TestChecks.cpp ****     float const array2[3][3] = { { 1.01f, 1.51f, 2.01f },
 6719              		.loc 5 261 0
 6720 3329 F30F1005 		movss	.LC63(%rip), %xmm0
 6720      00000000 
 6721 3331 F30F1145 		movss	%xmm0, -64(%rbp)
 6721      C0
 6722 3336 F30F1005 		movss	.LC64(%rip), %xmm0
 6722      00000000 
 6723 333e F30F1145 		movss	%xmm0, -60(%rbp)
 6723      C4
 6724 3343 F30F1005 		movss	.LC65(%rip), %xmm0
 6724      00000000 
 6725 334b F30F1145 		movss	%xmm0, -56(%rbp)
 6725      C8
 6726 3350 F30F1005 		movss	.LC65(%rip), %xmm0
 6726      00000000 
 6727 3358 F30F1145 		movss	%xmm0, -52(%rbp)
 6727      CC
 6728 335d F30F1005 		movss	.LC81(%rip), %xmm0
 6728      00000000 
 6729 3365 F30F1145 		movss	%xmm0, -48(%rbp)
 6729      D0
 6730 336a F30F1005 		movss	.LC82(%rip), %xmm0
 6730      00000000 
 6731 3372 F30F1145 		movss	%xmm0, -44(%rbp)
 6731      D4
 6732 3377 F30F1005 		movss	.LC82(%rip), %xmm0
 6732      00000000 
 6733 337f F30F1145 		movss	%xmm0, -40(%rbp)
 6733      D8
 6734 3384 F30F1005 		movss	.LC83(%rip), %xmm0
 6734      00000000 
 6735 338c F30F1145 		movss	%xmm0, -36(%rbp)
 6735      DC
 6736 3391 F30F1005 		movss	.LC84(%rip), %xmm0
 6736      00000000 
 6737 3399 F30F1145 		movss	%xmm0, -32(%rbp)
 6737      E0
 262:TestChecks.cpp ****                                  { 2.01f, 2.51f, 3.01f },
 263:TestChecks.cpp ****                                  { 3.01f, 3.51f, 4.01f } };
 264:TestChecks.cpp ****     CheckArray2DClose(results, array1, array2, 3, 3, 0.001f, TestDetails("", "", "", 0));
 6738              		.loc 5 264 0
 6739 339e 488D8570 		leaq	-144(%rbp), %rax
 6739      FFFFFF
 6740 33a5 41B80000 		movl	$0, %r8d
 6740      0000
 6741 33ab 488D0D00 		leaq	.LC6(%rip), %rcx
 6741      000000
 6742 33b2 488D1500 		leaq	.LC6(%rip), %rdx
 6742      000000
 6743 33b9 488D3500 		leaq	.LC6(%rip), %rsi
 6743      000000
 6744 33c0 4889C7   		movq	%rax, %rdi
 6745 33c3 E8000000 		call	_ZN8UnitTest11TestDetailsC1EPKcS2_S2_i@PLT
 6745      00
 6746 33c8 F30F1005 		movss	.LC68(%rip), %xmm0
 6746      00000000 
 6747 33d0 F30F1185 		movss	%xmm0, -180(%rbp)
 6747      4CFFFFFF 
 6748 33d8 488DBD4C 		leaq	-180(%rbp), %rdi
 6748      FFFFFF
 6749 33df 488D55C0 		leaq	-64(%rbp), %rdx
 6750 33e3 488D7590 		leaq	-112(%rbp), %rsi
 6751 33e7 488D8550 		leaq	-176(%rbp), %rax
 6751      FFFFFF
 6752 33ee 4883EC08 		subq	$8, %rsp
 6753 33f2 488D8D70 		leaq	-144(%rbp), %rcx
 6753      FFFFFF
 6754 33f9 51       		pushq	%rcx
 6755 33fa 4989F9   		movq	%rdi, %r9
 6756 33fd 41B80300 		movl	$3, %r8d
 6756      0000
 6757 3403 B9030000 		movl	$3, %ecx
 6757      00
 6758 3408 4889C7   		movq	%rax, %rdi
 6759 340b E8000000 		call	_ZN8UnitTest17CheckArray2DCloseIA3_A3_fS2_fEEvRNS_11TestResultsERKT_RKT0_iiRKT1_RKNS_11TestDe
 6759      00
 6760              	.LEHE177:
 6761 3410 4883C410 		addq	$16, %rsp
 6762              	.LEHB178:
 265:TestChecks.cpp ****     CHECK_EQUAL(1, results.GetFailureCount());
 6763              		.loc 5 265 0
 6764 3414 E8000000 		call	_ZN8UnitTest11CurrentTest7DetailsEv@PLT
 6764      00
 6765 3419 488B08   		movq	(%rax), %rcx
 6766 341c 488D8570 		leaq	-144(%rbp), %rax
 6766      FFFFFF
 6767 3423 BA090100 		movl	$265, %edx
 6767      00
 6768 3428 4889CE   		movq	%rcx, %rsi
 6769 342b 4889C7   		movq	%rax, %rdi
 6770 342e E8000000 		call	_ZN8UnitTest11TestDetailsC1ERKS0_i@PLT
 6770      00
 6771              		.loc 5 265 0 is_stmt 0 discriminator 2
 6772 3433 488D8550 		leaq	-176(%rbp), %rax
 6772      FFFFFF
 6773 343a 4889C7   		movq	%rax, %rdi
 6774 343d E8000000 		call	_ZNK8UnitTest11TestResults15GetFailureCountEv@PLT
 6774      00
 6775              	.LEHE178:
 6776 3442 89854CFF 		movl	%eax, -180(%rbp)
 6776      FFFF
 6777 3448 C78548FF 		movl	$1, -184(%rbp)
 6777      FFFF0100 
 6777      0000
 6778              	.LEHB179:
 6779 3452 E8000000 		call	_ZN8UnitTest11CurrentTest7ResultsEv@PLT
 6779      00
 6780              		.loc 5 265 0 discriminator 4
 6781 3457 488B00   		movq	(%rax), %rax
 6782 345a 488D8D70 		leaq	-144(%rbp), %rcx
 6782      FFFFFF
 6783 3461 488D954C 		leaq	-180(%rbp), %rdx
 6783      FFFFFF
 6784 3468 488DB548 		leaq	-184(%rbp), %rsi
 6784      FFFFFF
 6785 346f 4889C7   		movq	%rax, %rdi
 6786 3472 E8000000 		call	_ZN8UnitTest10CheckEqualIiiEEvRNS_11TestResultsERKT_RKT0_RKNS_11TestDetailsE
 6786      00
 6787              	.LEHE179:
 266:TestChecks.cpp **** }
 6788              		.loc 5 266 0 is_stmt 1
 6789 3477 EB64     		jmp	.L312
 6790              	.L319:
 6791 3479 EB00     		jmp	.L314
 6792              	.L318:
 6793              	.L314:
 265:TestChecks.cpp ****     CHECK_EQUAL(1, results.GetFailureCount());
 6794              		.loc 5 265 0
 6795 347b 4889C7   		movq	%rax, %rdi
 6796 347e E8000000 		call	__cxa_begin_catch@PLT
 6796      00
 6797              	.LEHB180:
 6798 3483 E8000000 		call	_ZN8UnitTest11CurrentTest7ResultsEv@PLT
 6798      00
 6799 3488 488B18   		movq	(%rax), %rbx
 6800 348b E8000000 		call	_ZN8UnitTest11CurrentTest7DetailsEv@PLT
 6800      00
 265:TestChecks.cpp ****     CHECK_EQUAL(1, results.GetFailureCount());
 6801              		.loc 5 265 0 is_stmt 0 discriminator 10
 6802 3490 488B08   		movq	(%rax), %rcx
 6803 3493 488D8570 		leaq	-144(%rbp), %rax
 6803      FFFFFF
 6804 349a BA090100 		movl	$265, %edx
 6804      00
 6805 349f 4889CE   		movq	%rcx, %rsi
 6806 34a2 4889C7   		movq	%rax, %rdi
 6807 34a5 E8000000 		call	_ZN8UnitTest11TestDetailsC1ERKS0_i@PLT
 6807      00
 265:TestChecks.cpp ****     CHECK_EQUAL(1, results.GetFailureCount());
 6808              		.loc 5 265 0 discriminator 14
 6809 34aa 488D8570 		leaq	-144(%rbp), %rax
 6809      FFFFFF
 6810 34b1 488D1500 		leaq	.LC7(%rip), %rdx
 6810      000000
 6811 34b8 4889C6   		movq	%rax, %rsi
 6812 34bb 4889DF   		movq	%rbx, %rdi
 6813 34be E8000000 		call	_ZN8UnitTest11TestResults13OnTestFailureERKNS_11TestDetailsEPKc@PLT
 6813      00
 6814              	.LEHE180:
 6815              	.LEHB181:
 265:TestChecks.cpp ****     CHECK_EQUAL(1, results.GetFailureCount());
 6816              		.loc 5 265 0 discriminator 16
 6817 34c3 E8000000 		call	__cxa_end_catch@PLT
 6817      00
 6818              	.LEHE181:
 6819              		.loc 5 266 0 is_stmt 1 discriminator 16
 6820 34c8 EB13     		jmp	.L312
 6821              	.L320:
 6822 34ca 4889C3   		movq	%rax, %rbx
 265:TestChecks.cpp ****     CHECK_EQUAL(1, results.GetFailureCount());
 6823              		.loc 5 265 0
 6824 34cd E8000000 		call	__cxa_end_catch@PLT
 6824      00
 6825 34d2 4889D8   		movq	%rbx, %rax
 6826 34d5 4889C7   		movq	%rax, %rdi
 6827              	.LEHB182:
 6828 34d8 E8000000 		call	_Unwind_Resume@PLT
 6828      00
 6829              	.LEHE182:
 6830              	.L312:
 6831              		.loc 5 266 0
 6832 34dd 488B45E8 		movq	-24(%rbp), %rax
 6833 34e1 64483304 		xorq	%fs:40, %rax
 6833      25280000 
 6833      00
 6834 34ea 7405     		je	.L317
 6835 34ec E8000000 		call	__stack_chk_fail@PLT
 6835      00
 6836              	.L317:
 6837 34f1 488B5DF8 		movq	-8(%rbp), %rbx
 6838 34f5 C9       		leave
 6839              		.cfi_def_cfa 7, 8
 6840 34f6 C3       		ret
 6841              		.cfi_endproc
 6842              	.LFE1193:
 6843              		.section	.gcc_except_table
 6844              		.align 4
 6845              	.LLSDA1193:
 6846 0514 FF       		.byte	0xff
 6847 0515 9B       		.byte	0x9b
 6848 0516 2D       		.uleb128 .LLSDATT1193-.LLSDATTD1193
 6849              	.LLSDATTD1193:
 6850 0517 01       		.byte	0x1
 6851 0518 21       		.uleb128 .LLSDACSE1193-.LLSDACSB1193
 6852              	.LLSDACSB1193:
 6853 0519 31       		.uleb128 .LEHB177-.LFB1193
 6854 051a E102     		.uleb128 .LEHE177-.LEHB177
 6855 051c 00       		.uleb128 0
 6856 051d 00       		.uleb128 0
 6857 051e 9603     		.uleb128 .LEHB178-.LFB1193
 6858 0520 2E       		.uleb128 .LEHE178-.LEHB178
 6859 0521 FD03     		.uleb128 .L318-.LFB1193
 6860 0523 01       		.uleb128 0x1
 6861 0524 D403     		.uleb128 .LEHB179-.LFB1193
 6862 0526 25       		.uleb128 .LEHE179-.LEHB179
 6863 0527 FB03     		.uleb128 .L319-.LFB1193
 6864 0529 03       		.uleb128 0x3
 6865 052a 8504     		.uleb128 .LEHB180-.LFB1193
 6866 052c 40       		.uleb128 .LEHE180-.LEHB180
 6867 052d CC04     		.uleb128 .L320-.LFB1193
 6868 052f 00       		.uleb128 0
 6869 0530 C504     		.uleb128 .LEHB181-.LFB1193
 6870 0532 05       		.uleb128 .LEHE181-.LEHB181
 6871 0533 00       		.uleb128 0
 6872 0534 00       		.uleb128 0
 6873 0535 DA04     		.uleb128 .LEHB182-.LFB1193
 6874 0537 05       		.uleb128 .LEHE182-.LEHB182
 6875 0538 00       		.uleb128 0
 6876 0539 00       		.uleb128 0
 6877              	.LLSDACSE1193:
 6878 053a 01       		.byte	0x1
 6879 053b 00       		.byte	0
 6880 053c 00       		.byte	0
 6881 053d 7D       		.byte	0x7d
 6882 053e 0000     		.align 4
 6883 0540 00000000 		.long	0
 6884              	
 6885              	.LLSDATT1193:
 6886              		.text
 6888              		.section	.rodata
 6889              	.LC86:
 6890 0a1f 43686563 		.string	"CheckCloseWithDoublesSucceeds"
 6890      6B436C6F 
 6890      73655769 
 6890      7468446F 
 6890      75626C65 
 6891              		.text
 6892 34f7 90       		.align 2
 6894              	_ZN12_GLOBAL__N_133TestCheckCloseWithDoublesSucceedsC2Ev:
 6895              	.LFB1195:
 267:TestChecks.cpp **** 
 268:TestChecks.cpp **** TEST(CheckCloseWithDoublesSucceeds)
 6896              		.loc 5 268 0
 6897              		.cfi_startproc
 6898 34f8 55       		pushq	%rbp
 6899              		.cfi_def_cfa_offset 16
 6900              		.cfi_offset 6, -16
 6901 34f9 4889E5   		movq	%rsp, %rbp
 6902              		.cfi_def_cfa_register 6
 6903 34fc 53       		pushq	%rbx
 6904 34fd 4883EC18 		subq	$24, %rsp
 6905              		.cfi_offset 3, -24
 6906 3501 48897DE8 		movq	%rdi, -24(%rbp)
 6907              	.LBB30:
 6908              		.loc 5 268 0
 6909 3505 488B5DE8 		movq	-24(%rbp), %rbx
 6910 3509 E8000000 		call	_ZN13UnitTestSuite12GetSuiteNameEv
 6910      00
 6911 350e 41B80C01 		movl	$268, %r8d
 6911      0000
 6912 3514 488D0D00 		leaq	.LC2(%rip), %rcx
 6912      000000
 6913 351b 4889C2   		movq	%rax, %rdx
 6914 351e 488D3500 		leaq	.LC86(%rip), %rsi
 6914      000000
 6915 3525 4889DF   		movq	%rbx, %rdi
 6916 3528 E8000000 		call	_ZN8UnitTest4TestC2EPKcS2_S2_i@PLT
 6916      00
 6917 352d 488D1500 		leaq	16+_ZTVN12_GLOBAL__N_133TestCheckCloseWithDoublesSucceedsE(%rip), %rdx
 6917      000000
 6918 3534 488B45E8 		movq	-24(%rbp), %rax
 6919 3538 488910   		movq	%rdx, (%rax)
 6920              	.LBE30:
 6921 353b 90       		nop
 6922 353c 4883C418 		addq	$24, %rsp
 6923 3540 5B       		popq	%rbx
 6924 3541 5D       		popq	%rbp
 6925              		.cfi_def_cfa 7, 8
 6926 3542 C3       		ret
 6927              		.cfi_endproc
 6928              	.LFE1195:
 6930              		.set	_ZN12_GLOBAL__N_133TestCheckCloseWithDoublesSucceedsC1Ev,_ZN12_GLOBAL__N_133TestCheckCloseWit
 6931              		.local	_ZN12_GLOBAL__N_141testCheckCloseWithDoublesSucceedsInstanceE
 6932              		.comm	_ZN12_GLOBAL__N_141testCheckCloseWithDoublesSucceedsInstanceE,56,32
 6933              		.local	_ZN12_GLOBAL__N_134adderCheckCloseWithDoublesSucceedsE
 6934              		.comm	_ZN12_GLOBAL__N_134adderCheckCloseWithDoublesSucceedsE,1,1
 6935              		.section	.rodata
 6936 0a3d 000000   		.align 8
 6937              	.LC89:
 6938 0a40 556E6861 		.string	"Unhandled exception in CHECK_CLOSE(0.5, 0.5)"
 6938      6E646C65 
 6938      64206578 
 6938      63657074 
 6938      696F6E20 
 6939              		.text
 6940 3543 90       		.align 2
 6942              	_ZNK12_GLOBAL__N_133TestCheckCloseWithDoublesSucceeds7RunImplEv:
 6943              	.LFB1197:
 269:TestChecks.cpp **** {
 6944              		.loc 5 269 0
 6945              		.cfi_startproc
 6946              		.cfi_personality 0x9b,DW.ref.__gxx_personality_v0
 6947              		.cfi_lsda 0x1b,.LLSDA1197
 6948 3544 55       		pushq	%rbp
 6949              		.cfi_def_cfa_offset 16
 6950              		.cfi_offset 6, -16
 6951 3545 4889E5   		movq	%rsp, %rbp
 6952              		.cfi_def_cfa_register 6
 6953 3548 53       		pushq	%rbx
 6954 3549 4883EC68 		subq	$104, %rsp
 6955              		.cfi_offset 3, -24
 6956 354d 48897D98 		movq	%rdi, -104(%rbp)
 6957              		.loc 5 269 0
 6958 3551 64488B04 		movq	%fs:40, %rax
 6958      25280000 
 6958      00
 6959 355a 488945E8 		movq	%rax, -24(%rbp)
 6960 355e 31C0     		xorl	%eax, %eax
 6961              	.LEHB183:
 270:TestChecks.cpp ****     CHECK_CLOSE(0.5, 0.5, 0.0001);
 6962              		.loc 5 270 0
 6963 3560 E8000000 		call	_ZN8UnitTest11CurrentTest7DetailsEv@PLT
 6963      00
 6964 3565 488B08   		movq	(%rax), %rcx
 6965 3568 488D45C0 		leaq	-64(%rbp), %rax
 6966 356c BA0E0100 		movl	$270, %edx
 6966      00
 6967 3571 4889CE   		movq	%rcx, %rsi
 6968 3574 4889C7   		movq	%rax, %rdi
 6969 3577 E8000000 		call	_ZN8UnitTest11TestDetailsC1ERKS0_i@PLT
 6969      00
 6970              	.LEHE183:
 6971              		.loc 5 270 0 is_stmt 0 discriminator 2
 6972 357c F20F1005 		movsd	.LC87(%rip), %xmm0
 6972      00000000 
 6973 3584 F20F1145 		movsd	%xmm0, -72(%rbp)
 6973      B8
 6974 3589 F20F1005 		movsd	.LC88(%rip), %xmm0
 6974      00000000 
 6975 3591 F20F1145 		movsd	%xmm0, -80(%rbp)
 6975      B0
 6976 3596 F20F1005 		movsd	.LC88(%rip), %xmm0
 6976      00000000 
 6977 359e F20F1145 		movsd	%xmm0, -88(%rbp)
 6977      A8
 6978              	.LEHB184:
 6979 35a3 E8000000 		call	_ZN8UnitTest11CurrentTest7ResultsEv@PLT
 6979      00
 6980 35a8 488B00   		movq	(%rax), %rax
 6981 35ab 488D7DC0 		leaq	-64(%rbp), %rdi
 6982 35af 488D4DB8 		leaq	-72(%rbp), %rcx
 6983 35b3 488D55B0 		leaq	-80(%rbp), %rdx
 6984 35b7 488D75A8 		leaq	-88(%rbp), %rsi
 6985 35bb 4989F8   		movq	%rdi, %r8
 6986 35be 4889C7   		movq	%rax, %rdi
 6987 35c1 E8000000 		call	_ZN8UnitTest10CheckCloseIdddEEvRNS_11TestResultsERKT_RKT0_RKT1_RKNS_11TestDetailsE
 6987      00
 6988              	.LEHE184:
 271:TestChecks.cpp **** }
 6989              		.loc 5 271 0 is_stmt 1
 6990 35c6 EB5E     		jmp	.L322
 6991              	.L329:
 6992 35c8 EB00     		jmp	.L324
 6993              	.L328:
 6994              	.L324:
 270:TestChecks.cpp ****     CHECK_CLOSE(0.5, 0.5, 0.0001);
 6995              		.loc 5 270 0
 6996 35ca 4889C7   		movq	%rax, %rdi
 6997 35cd E8000000 		call	__cxa_begin_catch@PLT
 6997      00
 6998              	.LEHB185:
 6999 35d2 E8000000 		call	_ZN8UnitTest11CurrentTest7ResultsEv@PLT
 6999      00
 7000 35d7 488B18   		movq	(%rax), %rbx
 7001 35da E8000000 		call	_ZN8UnitTest11CurrentTest7DetailsEv@PLT
 7001      00
 270:TestChecks.cpp ****     CHECK_CLOSE(0.5, 0.5, 0.0001);
 7002              		.loc 5 270 0 is_stmt 0 discriminator 8
 7003 35df 488B08   		movq	(%rax), %rcx
 7004 35e2 488D45C0 		leaq	-64(%rbp), %rax
 7005 35e6 BA0E0100 		movl	$270, %edx
 7005      00
 7006 35eb 4889CE   		movq	%rcx, %rsi
 7007 35ee 4889C7   		movq	%rax, %rdi
 7008 35f1 E8000000 		call	_ZN8UnitTest11TestDetailsC1ERKS0_i@PLT
 7008      00
 270:TestChecks.cpp ****     CHECK_CLOSE(0.5, 0.5, 0.0001);
 7009              		.loc 5 270 0 discriminator 12
 7010 35f6 488D45C0 		leaq	-64(%rbp), %rax
 7011 35fa 488D1500 		leaq	.LC89(%rip), %rdx
 7011      000000
 7012 3601 4889C6   		movq	%rax, %rsi
 7013 3604 4889DF   		movq	%rbx, %rdi
 7014 3607 E8000000 		call	_ZN8UnitTest11TestResults13OnTestFailureERKNS_11TestDetailsEPKc@PLT
 7014      00
 7015              	.LEHE185:
 7016              	.LEHB186:
 270:TestChecks.cpp ****     CHECK_CLOSE(0.5, 0.5, 0.0001);
 7017              		.loc 5 270 0 discriminator 14
 7018 360c E8000000 		call	__cxa_end_catch@PLT
 7018      00
 7019              	.LEHE186:
 7020              		.loc 5 271 0 is_stmt 1 discriminator 14
 7021 3611 EB13     		jmp	.L322
 7022              	.L330:
 7023 3613 4889C3   		movq	%rax, %rbx
 270:TestChecks.cpp ****     CHECK_CLOSE(0.5, 0.5, 0.0001);
 7024              		.loc 5 270 0
 7025 3616 E8000000 		call	__cxa_end_catch@PLT
 7025      00
 7026 361b 4889D8   		movq	%rbx, %rax
 7027 361e 4889C7   		movq	%rax, %rdi
 7028              	.LEHB187:
 7029 3621 E8000000 		call	_Unwind_Resume@PLT
 7029      00
 7030              	.LEHE187:
 7031              	.L322:
 7032              		.loc 5 271 0
 7033 3626 488B45E8 		movq	-24(%rbp), %rax
 7034 362a 64483304 		xorq	%fs:40, %rax
 7034      25280000 
 7034      00
 7035 3633 7405     		je	.L327
 7036 3635 E8000000 		call	__stack_chk_fail@PLT
 7036      00
 7037              	.L327:
 7038 363a 4883C468 		addq	$104, %rsp
 7039 363e 5B       		popq	%rbx
 7040 363f 5D       		popq	%rbp
 7041              		.cfi_def_cfa 7, 8
 7042 3640 C3       		ret
 7043              		.cfi_endproc
 7044              	.LFE1197:
 7045              		.section	.gcc_except_table
 7046              		.align 4
 7047              	.LLSDA1197:
 7048 0544 FF       		.byte	0xff
 7049 0545 9B       		.byte	0x9b
 7050 0546 25       		.uleb128 .LLSDATT1197-.LLSDATTD1197
 7051              	.LLSDATTD1197:
 7052 0547 01       		.byte	0x1
 7053 0548 1A       		.uleb128 .LLSDACSE1197-.LLSDACSB1197
 7054              	.LLSDACSB1197:
 7055 0549 1C       		.uleb128 .LEHB183-.LFB1197
 7056 054a 1C       		.uleb128 .LEHE183-.LEHB183
 7057 054b 8601     		.uleb128 .L328-.LFB1197
 7058 054d 01       		.uleb128 0x1
 7059 054e 5F       		.uleb128 .LEHB184-.LFB1197
 7060 054f 23       		.uleb128 .LEHE184-.LEHB184
 7061 0550 8401     		.uleb128 .L329-.LFB1197
 7062 0552 03       		.uleb128 0x3
 7063 0553 8E01     		.uleb128 .LEHB185-.LFB1197
 7064 0555 3A       		.uleb128 .LEHE185-.LEHB185
 7065 0556 CF01     		.uleb128 .L330-.LFB1197
 7066 0558 00       		.uleb128 0
 7067 0559 C801     		.uleb128 .LEHB186-.LFB1197
 7068 055b 05       		.uleb128 .LEHE186-.LEHB186
 7069 055c 00       		.uleb128 0
 7070 055d 00       		.uleb128 0
 7071 055e DD01     		.uleb128 .LEHB187-.LFB1197
 7072 0560 05       		.uleb128 .LEHE187-.LEHB187
 7073 0561 00       		.uleb128 0
 7074 0562 00       		.uleb128 0
 7075              	.LLSDACSE1197:
 7076 0563 01       		.byte	0x1
 7077 0564 00       		.byte	0
 7078 0565 00       		.byte	0
 7079 0566 7D       		.byte	0x7d
 7080 0567 00       		.align 4
 7081 0568 00000000 		.long	0
 7082              	
 7083              	.LLSDATT1197:
 7084              		.text
 7086              		.section	.rodata
 7087 0a6d 000000   		.align 8
 7088              	.LC90:
 7089 0a70 43686563 		.string	"CheckArray2DCloseFailureIncludesDetails"
 7089      6B417272 
 7089      61793244 
 7089      436C6F73 
 7089      65466169 
 7090              		.text
 7091 3641 90       		.align 2
 7093              	_ZN12_GLOBAL__N_143TestCheckArray2DCloseFailureIncludesDetailsC2Ev:
 7094              	.LFB1199:
 272:TestChecks.cpp **** 
 273:TestChecks.cpp **** TEST(CheckArray2DCloseFailureIncludesDetails)
 7095              		.loc 5 273 0
 7096              		.cfi_startproc
 7097 3642 55       		pushq	%rbp
 7098              		.cfi_def_cfa_offset 16
 7099              		.cfi_offset 6, -16
 7100 3643 4889E5   		movq	%rsp, %rbp
 7101              		.cfi_def_cfa_register 6
 7102 3646 53       		pushq	%rbx
 7103 3647 4883EC18 		subq	$24, %rsp
 7104              		.cfi_offset 3, -24
 7105 364b 48897DE8 		movq	%rdi, -24(%rbp)
 7106              	.LBB31:
 7107              		.loc 5 273 0
 7108 364f 488B5DE8 		movq	-24(%rbp), %rbx
 7109 3653 E8000000 		call	_ZN13UnitTestSuite12GetSuiteNameEv
 7109      00
 7110 3658 41B81101 		movl	$273, %r8d
 7110      0000
 7111 365e 488D0D00 		leaq	.LC2(%rip), %rcx
 7111      000000
 7112 3665 4889C2   		movq	%rax, %rdx
 7113 3668 488D3500 		leaq	.LC90(%rip), %rsi
 7113      000000
 7114 366f 4889DF   		movq	%rbx, %rdi
 7115 3672 E8000000 		call	_ZN8UnitTest4TestC2EPKcS2_S2_i@PLT
 7115      00
 7116 3677 488D1500 		leaq	16+_ZTVN12_GLOBAL__N_143TestCheckArray2DCloseFailureIncludesDetailsE(%rip), %rdx
 7116      000000
 7117 367e 488B45E8 		movq	-24(%rbp), %rax
 7118 3682 488910   		movq	%rdx, (%rax)
 7119              	.LBE31:
 7120 3685 90       		nop
 7121 3686 4883C418 		addq	$24, %rsp
 7122 368a 5B       		popq	%rbx
 7123 368b 5D       		popq	%rbp
 7124              		.cfi_def_cfa 7, 8
 7125 368c C3       		ret
 7126              		.cfi_endproc
 7127              	.LFE1199:
 7129              		.set	_ZN12_GLOBAL__N_143TestCheckArray2DCloseFailureIncludesDetailsC1Ev,_ZN12_GLOBAL__N_143TestChe
 7130              		.local	_ZN12_GLOBAL__N_151testCheckArray2DCloseFailureIncludesDetailsInstanceE
 7131              		.comm	_ZN12_GLOBAL__N_151testCheckArray2DCloseFailureIncludesDetailsInstanceE,56,32
 7132              		.local	_ZN12_GLOBAL__N_144adderCheckArray2DCloseFailureIncludesDetailsE
 7133              		.comm	_ZN12_GLOBAL__N_144adderCheckArray2DCloseFailureIncludesDetailsE,1,1
 7134              		.section	.rodata
 7135              	.LC91:
 7136 0a98 61727261 		.string	"array2DCloseSuite"
 7136      79324443 
 7136      6C6F7365 
 7136      53756974 
 7136      6500
 7137              	.LC92:
 7138 0aaa 61727261 		.string	"array2DCloseTest"
 7138      79324443 
 7138      6C6F7365 
 7138      54657374 
 7138      00
 7139 0abb 00000000 		.align 8
 7139      00
 7140              	.LC93:
 7141 0ac0 556E6861 		.string	"Unhandled exception in CHECK_EQUAL(\"array2DCloseTest\", reporter.lastFailedTest)"
 7141      6E646C65 
 7141      64206578 
 7141      63657074 
 7141      696F6E20 
 7142              		.align 8
 7143              	.LC94:
 7144 0b10 556E6861 		.string	"Unhandled exception in CHECK_EQUAL(\"array2DCloseSuite\", reporter.lastFailedSuite)"
 7144      6E646C65 
 7144      64206578 
 7144      63657074 
 7144      696F6E20 
 7145 0b62 00000000 		.align 8
 7145      0000
 7146              	.LC95:
 7147 0b68 556E6861 		.string	"Unhandled exception in CHECK_EQUAL(1234, reporter.lastFailedLine)"
 7147      6E646C65 
 7147      64206578 
 7147      63657074 
 7147      696F6E20 
 7148              		.text
 7149 368d 90       		.align 2
 7151              	_ZNK12_GLOBAL__N_143TestCheckArray2DCloseFailureIncludesDetails7RunImplEv:
 7152              	.LFB1201:
 274:TestChecks.cpp **** {
 7153              		.loc 5 274 0
 7154              		.cfi_startproc
 7155              		.cfi_personality 0x9b,DW.ref.__gxx_personality_v0
 7156              		.cfi_lsda 0x1b,.LLSDA1201
 7157 368e 55       		pushq	%rbp
 7158              		.cfi_def_cfa_offset 16
 7159              		.cfi_offset 6, -16
 7160 368f 4889E5   		movq	%rsp, %rbp
 7161              		.cfi_def_cfa_register 6
 7162 3692 53       		pushq	%rbx
 7163 3693 4881EC28 		subq	$2344, %rsp
 7163      090000
 7164              		.cfi_offset 3, -24
 7165 369a 4889BDD8 		movq	%rdi, -2344(%rbp)
 7165      F6FFFF
 7166              		.loc 5 274 0
 7167 36a1 64488B04 		movq	%fs:40, %rax
 7167      25280000 
 7167      00
 7168 36aa 488945E8 		movq	%rax, -24(%rbp)
 7169 36ae 31C0     		xorl	%eax, %eax
 275:TestChecks.cpp ****     RecordingReporter reporter;
 7170              		.loc 5 275 0
 7171 36b0 488D85B0 		leaq	-2128(%rbp), %rax
 7171      F7FFFF
 7172 36b7 4889C7   		movq	%rax, %rdi
 7173 36ba E8000000 		call	_ZN17RecordingReporterC1Ev
 7173      00
 276:TestChecks.cpp ****     TestResults results(&reporter);
 7174              		.loc 5 276 0
 7175 36bf 488D95B0 		leaq	-2128(%rbp), %rdx
 7175      F7FFFF
 7176 36c6 488D85F0 		leaq	-2320(%rbp), %rax
 7176      F6FFFF
 7177 36cd 4889D6   		movq	%rdx, %rsi
 7178 36d0 4889C7   		movq	%rax, %rdi
 7179              	.LEHB188:
 7180 36d3 E8000000 		call	_ZN8UnitTest11TestResultsC1EPNS_12TestReporterE@PLT
 7180      00
 277:TestChecks.cpp ****     TestDetails const details("array2DCloseTest", "array2DCloseSuite", "file", 1234);
 7181              		.loc 5 277 0
 7182 36d8 488D8510 		leaq	-2288(%rbp), %rax
 7182      F7FFFF
 7183 36df 41B8D204 		movl	$1234, %r8d
 7183      0000
 7184 36e5 488D0D00 		leaq	.LC70(%rip), %rcx
 7184      000000
 7185 36ec 488D1500 		leaq	.LC91(%rip), %rdx
 7185      000000
 7186 36f3 488D3500 		leaq	.LC92(%rip), %rsi
 7186      000000
 7187 36fa 4889C7   		movq	%rax, %rdi
 7188 36fd E8000000 		call	_ZN8UnitTest11TestDetailsC1EPKcS2_S2_i@PLT
 7188      00
 278:TestChecks.cpp **** 
 279:TestChecks.cpp ****     float const array1[3][3] = { { 1.0f, 1.5f, 2.0f },
 7189              		.loc 5 279 0
 7190 3702 F30F1005 		movss	.LC60(%rip), %xmm0
 7190      00000000 
 7191 370a F30F1185 		movss	%xmm0, -2224(%rbp)
 7191      50F7FFFF 
 7192 3712 F30F1005 		movss	.LC61(%rip), %xmm0
 7192      00000000 
 7193 371a F30F1185 		movss	%xmm0, -2220(%rbp)
 7193      54F7FFFF 
 7194 3722 F30F1005 		movss	.LC62(%rip), %xmm0
 7194      00000000 
 7195 372a F30F1185 		movss	%xmm0, -2216(%rbp)
 7195      58F7FFFF 
 7196 3732 F30F1005 		movss	.LC62(%rip), %xmm0
 7196      00000000 
 7197 373a F30F1185 		movss	%xmm0, -2212(%rbp)
 7197      5CF7FFFF 
 7198 3742 F30F1005 		movss	.LC78(%rip), %xmm0
 7198      00000000 
 7199 374a F30F1185 		movss	%xmm0, -2208(%rbp)
 7199      60F7FFFF 
 7200 3752 F30F1005 		movss	.LC32(%rip), %xmm0
 7200      00000000 
 7201 375a F30F1185 		movss	%xmm0, -2204(%rbp)
 7201      64F7FFFF 
 7202 3762 F30F1005 		movss	.LC32(%rip), %xmm0
 7202      00000000 
 7203 376a F30F1185 		movss	%xmm0, -2200(%rbp)
 7203      68F7FFFF 
 7204 3772 F30F1005 		movss	.LC79(%rip), %xmm0
 7204      00000000 
 7205 377a F30F1185 		movss	%xmm0, -2196(%rbp)
 7205      6CF7FFFF 
 7206 3782 F30F1005 		movss	.LC80(%rip), %xmm0
 7206      00000000 
 7207 378a F30F1185 		movss	%xmm0, -2192(%rbp)
 7207      70F7FFFF 
 280:TestChecks.cpp ****                                  { 2.0f, 2.5f, 3.0f },
 281:TestChecks.cpp ****                                  { 3.0f, 3.5f, 4.0f } };
 282:TestChecks.cpp ****     float const array2[3][3] = { { 1.01f, 1.51f, 2.01f },
 7208              		.loc 5 282 0
 7209 3792 F30F1005 		movss	.LC63(%rip), %xmm0
 7209      00000000 
 7210 379a F30F1185 		movss	%xmm0, -2176(%rbp)
 7210      80F7FFFF 
 7211 37a2 F30F1005 		movss	.LC64(%rip), %xmm0
 7211      00000000 
 7212 37aa F30F1185 		movss	%xmm0, -2172(%rbp)
 7212      84F7FFFF 
 7213 37b2 F30F1005 		movss	.LC65(%rip), %xmm0
 7213      00000000 
 7214 37ba F30F1185 		movss	%xmm0, -2168(%rbp)
 7214      88F7FFFF 
 7215 37c2 F30F1005 		movss	.LC65(%rip), %xmm0
 7215      00000000 
 7216 37ca F30F1185 		movss	%xmm0, -2164(%rbp)
 7216      8CF7FFFF 
 7217 37d2 F30F1005 		movss	.LC81(%rip), %xmm0
 7217      00000000 
 7218 37da F30F1185 		movss	%xmm0, -2160(%rbp)
 7218      90F7FFFF 
 7219 37e2 F30F1005 		movss	.LC82(%rip), %xmm0
 7219      00000000 
 7220 37ea F30F1185 		movss	%xmm0, -2156(%rbp)
 7220      94F7FFFF 
 7221 37f2 F30F1005 		movss	.LC82(%rip), %xmm0
 7221      00000000 
 7222 37fa F30F1185 		movss	%xmm0, -2152(%rbp)
 7222      98F7FFFF 
 7223 3802 F30F1005 		movss	.LC83(%rip), %xmm0
 7223      00000000 
 7224 380a F30F1185 		movss	%xmm0, -2148(%rbp)
 7224      9CF7FFFF 
 7225 3812 F30F1005 		movss	.LC84(%rip), %xmm0
 7225      00000000 
 7226 381a F30F1185 		movss	%xmm0, -2144(%rbp)
 7226      A0F7FFFF 
 283:TestChecks.cpp ****                                  { 2.01f, 2.51f, 3.01f },
 284:TestChecks.cpp ****                                  { 3.01f, 3.51f, 4.01f } };
 285:TestChecks.cpp ****     CheckArray2DClose(results, array1, array2, 3, 3, 0.001f, details);
 7227              		.loc 5 285 0
 7228 3822 F30F1005 		movss	.LC68(%rip), %xmm0
 7228      00000000 
 7229 382a F30F1185 		movss	%xmm0, -2256(%rbp)
 7229      30F7FFFF 
 7230 3832 488DBD30 		leaq	-2256(%rbp), %rdi
 7230      F7FFFF
 7231 3839 488D9580 		leaq	-2176(%rbp), %rdx
 7231      F7FFFF
 7232 3840 488DB550 		leaq	-2224(%rbp), %rsi
 7232      F7FFFF
 7233 3847 488D85F0 		leaq	-2320(%rbp), %rax
 7233      F6FFFF
 7234 384e 4883EC08 		subq	$8, %rsp
 7235 3852 488D8D10 		leaq	-2288(%rbp), %rcx
 7235      F7FFFF
 7236 3859 51       		pushq	%rcx
 7237 385a 4989F9   		movq	%rdi, %r9
 7238 385d 41B80300 		movl	$3, %r8d
 7238      0000
 7239 3863 B9030000 		movl	$3, %ecx
 7239      00
 7240 3868 4889C7   		movq	%rax, %rdi
 7241              		.cfi_escape 0x2e,0x10
 7242 386b E8000000 		call	_ZN8UnitTest17CheckArray2DCloseIA3_A3_fS2_fEEvRNS_11TestResultsERKT_RKT0_iiRKT1_RKNS_11TestDe
 7242      00
 7243              	.LEHE188:
 7244 3870 4883C410 		addq	$16, %rsp
 7245              	.LEHB189:
 7246              		.cfi_escape 0x2e,0
 286:TestChecks.cpp **** 
 287:TestChecks.cpp ****     CHECK_EQUAL("array2DCloseTest", reporter.lastFailedTest);
 7247              		.loc 5 287 0
 7248 3874 E8000000 		call	_ZN8UnitTest11CurrentTest7DetailsEv@PLT
 7248      00
 7249              		.loc 5 287 0 is_stmt 0 discriminator 2
 7250 3879 488B08   		movq	(%rax), %rcx
 7251 387c 488D8530 		leaq	-2256(%rbp), %rax
 7251      F7FFFF
 7252 3883 BA1F0100 		movl	$287, %edx
 7252      00
 7253 3888 4889CE   		movq	%rcx, %rsi
 7254 388b 4889C7   		movq	%rax, %rdi
 7255 388e E8000000 		call	_ZN8UnitTest11TestDetailsC1ERKS0_i@PLT
 7255      00
 7256 3893 E8000000 		call	_ZN8UnitTest11CurrentTest7ResultsEv@PLT
 7256      00
 7257 3898 488B00   		movq	(%rax), %rax
 7258 389b 488D9530 		leaq	-2256(%rbp), %rdx
 7258      F7FFFF
 7259 38a2 488D8DB0 		leaq	-2128(%rbp), %rcx
 7259      F7FFFF
 7260 38a9 488DB114 		leaq	1044(%rcx), %rsi
 7260      040000
 7261 38b0 4889D1   		movq	%rdx, %rcx
 7262 38b3 4889F2   		movq	%rsi, %rdx
 7263 38b6 488D3500 		leaq	.LC92(%rip), %rsi
 7263      000000
 7264 38bd 4889C7   		movq	%rax, %rdi
 7265 38c0 E8000000 		call	_ZN8UnitTest10CheckEqualERNS_11TestResultsEPKcPcRKNS_11TestDetailsE@PLT
 7265      00
 7266              	.LEHE189:
 7267              	.L334:
 7268              	.LEHB190:
 288:TestChecks.cpp ****     CHECK_EQUAL("array2DCloseSuite", reporter.lastFailedSuite);
 7269              		.loc 5 288 0 is_stmt 1
 7270 38c5 E8000000 		call	_ZN8UnitTest11CurrentTest7DetailsEv@PLT
 7270      00
 7271 38ca 488B08   		movq	(%rax), %rcx
 7272 38cd 488D8530 		leaq	-2256(%rbp), %rax
 7272      F7FFFF
 7273 38d4 BA200100 		movl	$288, %edx
 7273      00
 7274 38d9 4889CE   		movq	%rcx, %rsi
 7275 38dc 4889C7   		movq	%rax, %rdi
 7276 38df E8000000 		call	_ZN8UnitTest11TestDetailsC1ERKS0_i@PLT
 7276      00
 7277              		.loc 5 288 0 is_stmt 0 discriminator 2
 7278 38e4 E8000000 		call	_ZN8UnitTest11CurrentTest7ResultsEv@PLT
 7278      00
 7279 38e9 488B00   		movq	(%rax), %rax
 7280 38ec 488D9530 		leaq	-2256(%rbp), %rdx
 7280      F7FFFF
 7281 38f3 488D8DB0 		leaq	-2128(%rbp), %rcx
 7281      F7FFFF
 7282 38fa 488DB114 		leaq	788(%rcx), %rsi
 7282      030000
 7283 3901 4889D1   		movq	%rdx, %rcx
 7284 3904 4889F2   		movq	%rsi, %rdx
 7285 3907 488D3500 		leaq	.LC91(%rip), %rsi
 7285      000000
 7286 390e 4889C7   		movq	%rax, %rdi
 7287 3911 E8000000 		call	_ZN8UnitTest10CheckEqualERNS_11TestResultsEPKcPcRKNS_11TestDetailsE@PLT
 7287      00
 7288              	.LEHE190:
 7289              	.L338:
 7290              	.LEHB191:
 289:TestChecks.cpp ****     CHECK_EQUAL("file", reporter.lastFailedFile);
 7291              		.loc 5 289 0 is_stmt 1
 7292 3916 E8000000 		call	_ZN8UnitTest11CurrentTest7DetailsEv@PLT
 7292      00
 7293 391b 488B08   		movq	(%rax), %rcx
 7294 391e 488D8530 		leaq	-2256(%rbp), %rax
 7294      F7FFFF
 7295 3925 BA210100 		movl	$289, %edx
 7295      00
 7296 392a 4889CE   		movq	%rcx, %rsi
 7297 392d 4889C7   		movq	%rax, %rdi
 7298 3930 E8000000 		call	_ZN8UnitTest11TestDetailsC1ERKS0_i@PLT
 7298      00
 7299              		.loc 5 289 0 is_stmt 0 discriminator 2
 7300 3935 E8000000 		call	_ZN8UnitTest11CurrentTest7ResultsEv@PLT
 7300      00
 7301 393a 488B00   		movq	(%rax), %rax
 7302 393d 488D9530 		leaq	-2256(%rbp), %rdx
 7302      F7FFFF
 7303 3944 488D8DB0 		leaq	-2128(%rbp), %rcx
 7303      F7FFFF
 7304 394b 488DB110 		leaq	528(%rcx), %rsi
 7304      020000
 7305 3952 4889D1   		movq	%rdx, %rcx
 7306 3955 4889F2   		movq	%rsi, %rdx
 7307 3958 488D3500 		leaq	.LC70(%rip), %rsi
 7307      000000
 7308 395f 4889C7   		movq	%rax, %rdi
 7309 3962 E8000000 		call	_ZN8UnitTest10CheckEqualERNS_11TestResultsEPKcPcRKNS_11TestDetailsE@PLT
 7309      00
 7310              	.LEHE191:
 7311              	.L341:
 7312              	.LEHB192:
 290:TestChecks.cpp ****     CHECK_EQUAL(1234, reporter.lastFailedLine);
 7313              		.loc 5 290 0 is_stmt 1
 7314 3967 E8000000 		call	_ZN8UnitTest11CurrentTest7DetailsEv@PLT
 7314      00
 7315 396c 488B08   		movq	(%rax), %rcx
 7316 396f 488D8530 		leaq	-2256(%rbp), %rax
 7316      F7FFFF
 7317 3976 BA220100 		movl	$290, %edx
 7317      00
 7318 397b 4889CE   		movq	%rcx, %rsi
 7319 397e 4889C7   		movq	%rax, %rdi
 7320 3981 E8000000 		call	_ZN8UnitTest11TestDetailsC1ERKS0_i@PLT
 7320      00
 7321              	.LEHE192:
 7322              		.loc 5 290 0 is_stmt 0 discriminator 2
 7323 3986 C785ECF6 		movl	$1234, -2324(%rbp)
 7323      FFFFD204 
 7323      0000
 7324              	.LEHB193:
 7325 3990 E8000000 		call	_ZN8UnitTest11CurrentTest7ResultsEv@PLT
 7325      00
 7326 3995 488B00   		movq	(%rax), %rax
 7327 3998 488D9530 		leaq	-2256(%rbp), %rdx
 7327      F7FFFF
 7328 399f 488D8DB0 		leaq	-2128(%rbp), %rcx
 7328      F7FFFF
 7329 39a6 488DB910 		leaq	784(%rcx), %rdi
 7329      030000
 7330 39ad 488DB5EC 		leaq	-2324(%rbp), %rsi
 7330      F6FFFF
 7331 39b4 4889D1   		movq	%rdx, %rcx
 7332 39b7 4889FA   		movq	%rdi, %rdx
 7333 39ba 4889C7   		movq	%rax, %rdi
 7334 39bd E8000000 		call	_ZN8UnitTest10CheckEqualIiiEEvRNS_11TestResultsERKT_RKT0_RKNS_11TestDetailsE
 7334      00
 7335              	.LEHE193:
 7336              	.L345:
 275:TestChecks.cpp ****     TestResults results(&reporter);
 7337              		.loc 5 275 0 is_stmt 1
 7338 39c2 488D85B0 		leaq	-2128(%rbp), %rax
 7338      F7FFFF
 7339 39c9 4889C7   		movq	%rax, %rdi
 7340              	.LEHB194:
 7341 39cc E8000000 		call	_ZN17RecordingReporterD1Ev
 7341      00
 7342              	.LEHE194:
 291:TestChecks.cpp **** }
 7343              		.loc 5 291 0
 7344 39d1 90       		nop
 7345 39d2 488B45E8 		movq	-24(%rbp), %rax
 7346 39d6 64483304 		xorq	%fs:40, %rax
 7346      25280000 
 7346      00
 7347 39df 0F849F01 		je	.L347
 7347      0000
 7348 39e5 E9950100 		jmp	.L358
 7348      00
 7349              	.L349:
 287:TestChecks.cpp ****     CHECK_EQUAL("array2DCloseSuite", reporter.lastFailedSuite);
 7350              		.loc 5 287 0
 7351 39ea 4889C7   		movq	%rax, %rdi
 7352 39ed E8000000 		call	__cxa_begin_catch@PLT
 7352      00
 7353              	.LEHB195:
 7354 39f2 E8000000 		call	_ZN8UnitTest11CurrentTest7ResultsEv@PLT
 7354      00
 7355 39f7 488B18   		movq	(%rax), %rbx
 7356 39fa E8000000 		call	_ZN8UnitTest11CurrentTest7DetailsEv@PLT
 7356      00
 287:TestChecks.cpp ****     CHECK_EQUAL("array2DCloseSuite", reporter.lastFailedSuite);
 7357              		.loc 5 287 0 is_stmt 0 discriminator 8
 7358 39ff 488B08   		movq	(%rax), %rcx
 7359 3a02 488D8530 		leaq	-2256(%rbp), %rax
 7359      F7FFFF
 7360 3a09 BA1F0100 		movl	$287, %edx
 7360      00
 7361 3a0e 4889CE   		movq	%rcx, %rsi
 7362 3a11 4889C7   		movq	%rax, %rdi
 7363 3a14 E8000000 		call	_ZN8UnitTest11TestDetailsC1ERKS0_i@PLT
 7363      00
 287:TestChecks.cpp ****     CHECK_EQUAL("array2DCloseSuite", reporter.lastFailedSuite);
 7364              		.loc 5 287 0 discriminator 12
 7365 3a19 488D8530 		leaq	-2256(%rbp), %rax
 7365      F7FFFF
 7366 3a20 488D1500 		leaq	.LC93(%rip), %rdx
 7366      000000
 7367 3a27 4889C6   		movq	%rax, %rsi
 7368 3a2a 4889DF   		movq	%rbx, %rdi
 7369 3a2d E8000000 		call	_ZN8UnitTest11TestResults13OnTestFailureERKNS_11TestDetailsEPKc@PLT
 7369      00
 7370              	.LEHE195:
 7371              	.LEHB196:
 287:TestChecks.cpp ****     CHECK_EQUAL("array2DCloseSuite", reporter.lastFailedSuite);
 7372              		.loc 5 287 0 discriminator 14
 7373 3a32 E8000000 		call	__cxa_end_catch@PLT
 7373      00
 7374              	.LEHE196:
 287:TestChecks.cpp ****     CHECK_EQUAL("array2DCloseSuite", reporter.lastFailedSuite);
 7375              		.loc 5 287 0
 7376 3a37 E989FEFF 		jmp	.L334
 7376      FF
 7377              	.L350:
 7378 3a3c 4889C3   		movq	%rax, %rbx
 7379 3a3f E8000000 		call	__cxa_end_catch@PLT
 7379      00
 7380 3a44 E91C0100 		jmp	.L336
 7380      00
 7381              	.L351:
 288:TestChecks.cpp ****     CHECK_EQUAL("file", reporter.lastFailedFile);
 7382              		.loc 5 288 0 is_stmt 1
 7383 3a49 4889C7   		movq	%rax, %rdi
 7384 3a4c E8000000 		call	__cxa_begin_catch@PLT
 7384      00
 7385              	.LEHB197:
 7386 3a51 E8000000 		call	_ZN8UnitTest11CurrentTest7ResultsEv@PLT
 7386      00
 7387 3a56 488B18   		movq	(%rax), %rbx
 7388 3a59 E8000000 		call	_ZN8UnitTest11CurrentTest7DetailsEv@PLT
 7388      00
 288:TestChecks.cpp ****     CHECK_EQUAL("file", reporter.lastFailedFile);
 7389              		.loc 5 288 0 is_stmt 0 discriminator 8
 7390 3a5e 488B08   		movq	(%rax), %rcx
 7391 3a61 488D8530 		leaq	-2256(%rbp), %rax
 7391      F7FFFF
 7392 3a68 BA200100 		movl	$288, %edx
 7392      00
 7393 3a6d 4889CE   		movq	%rcx, %rsi
 7394 3a70 4889C7   		movq	%rax, %rdi
 7395 3a73 E8000000 		call	_ZN8UnitTest11TestDetailsC1ERKS0_i@PLT
 7395      00
 288:TestChecks.cpp ****     CHECK_EQUAL("file", reporter.lastFailedFile);
 7396              		.loc 5 288 0 discriminator 12
 7397 3a78 488D8530 		leaq	-2256(%rbp), %rax
 7397      F7FFFF
 7398 3a7f 488D1500 		leaq	.LC94(%rip), %rdx
 7398      000000
 7399 3a86 4889C6   		movq	%rax, %rsi
 7400 3a89 4889DF   		movq	%rbx, %rdi
 7401 3a8c E8000000 		call	_ZN8UnitTest11TestResults13OnTestFailureERKNS_11TestDetailsEPKc@PLT
 7401      00
 7402              	.LEHE197:
 7403              	.LEHB198:
 288:TestChecks.cpp ****     CHECK_EQUAL("file", reporter.lastFailedFile);
 7404              		.loc 5 288 0 discriminator 14
 7405 3a91 E8000000 		call	__cxa_end_catch@PLT
 7405      00
 7406              	.LEHE198:
 288:TestChecks.cpp ****     CHECK_EQUAL("file", reporter.lastFailedFile);
 7407              		.loc 5 288 0
 7408 3a96 E97BFEFF 		jmp	.L338
 7408      FF
 7409              	.L352:
 7410 3a9b 4889C3   		movq	%rax, %rbx
 7411 3a9e E8000000 		call	__cxa_end_catch@PLT
 7411      00
 7412 3aa3 E9BD0000 		jmp	.L336
 7412      00
 7413              	.L353:
 289:TestChecks.cpp ****     CHECK_EQUAL(1234, reporter.lastFailedLine);
 7414              		.loc 5 289 0 is_stmt 1
 7415 3aa8 4889C7   		movq	%rax, %rdi
 7416 3aab E8000000 		call	__cxa_begin_catch@PLT
 7416      00
 7417              	.LEHB199:
 7418 3ab0 E8000000 		call	_ZN8UnitTest11CurrentTest7ResultsEv@PLT
 7418      00
 7419 3ab5 488B18   		movq	(%rax), %rbx
 7420 3ab8 E8000000 		call	_ZN8UnitTest11CurrentTest7DetailsEv@PLT
 7420      00
 289:TestChecks.cpp ****     CHECK_EQUAL(1234, reporter.lastFailedLine);
 7421              		.loc 5 289 0 is_stmt 0 discriminator 8
 7422 3abd 488B08   		movq	(%rax), %rcx
 7423 3ac0 488D8530 		leaq	-2256(%rbp), %rax
 7423      F7FFFF
 7424 3ac7 BA210100 		movl	$289, %edx
 7424      00
 7425 3acc 4889CE   		movq	%rcx, %rsi
 7426 3acf 4889C7   		movq	%rax, %rdi
 7427 3ad2 E8000000 		call	_ZN8UnitTest11TestDetailsC1ERKS0_i@PLT
 7427      00
 289:TestChecks.cpp ****     CHECK_EQUAL(1234, reporter.lastFailedLine);
 7428              		.loc 5 289 0 discriminator 12
 7429 3ad7 488D8530 		leaq	-2256(%rbp), %rax
 7429      F7FFFF
 7430 3ade 488D1500 		leaq	.LC75(%rip), %rdx
 7430      000000
 7431 3ae5 4889C6   		movq	%rax, %rsi
 7432 3ae8 4889DF   		movq	%rbx, %rdi
 7433 3aeb E8000000 		call	_ZN8UnitTest11TestResults13OnTestFailureERKNS_11TestDetailsEPKc@PLT
 7433      00
 7434              	.LEHE199:
 7435              	.LEHB200:
 289:TestChecks.cpp ****     CHECK_EQUAL(1234, reporter.lastFailedLine);
 7436              		.loc 5 289 0 discriminator 14
 7437 3af0 E8000000 		call	__cxa_end_catch@PLT
 7437      00
 7438              	.LEHE200:
 289:TestChecks.cpp ****     CHECK_EQUAL(1234, reporter.lastFailedLine);
 7439              		.loc 5 289 0
 7440 3af5 E96DFEFF 		jmp	.L341
 7440      FF
 7441              	.L354:
 7442 3afa 4889C3   		movq	%rax, %rbx
 7443 3afd E8000000 		call	__cxa_end_catch@PLT
 7443      00
 7444 3b02 EB61     		jmp	.L336
 7445              	.L356:
 7446 3b04 EB00     		jmp	.L344
 7447              	.L355:
 7448              	.L344:
 290:TestChecks.cpp **** }
 7449              		.loc 5 290 0 is_stmt 1
 7450 3b06 4889C7   		movq	%rax, %rdi
 7451 3b09 E8000000 		call	__cxa_begin_catch@PLT
 7451      00
 7452              	.LEHB201:
 7453 3b0e E8000000 		call	_ZN8UnitTest11CurrentTest7ResultsEv@PLT
 7453      00
 7454 3b13 488B18   		movq	(%rax), %rbx
 7455 3b16 E8000000 		call	_ZN8UnitTest11CurrentTest7DetailsEv@PLT
 7455      00
 290:TestChecks.cpp **** }
 7456              		.loc 5 290 0 is_stmt 0 discriminator 8
 7457 3b1b 488B08   		movq	(%rax), %rcx
 7458 3b1e 488D8530 		leaq	-2256(%rbp), %rax
 7458      F7FFFF
 7459 3b25 BA220100 		movl	$290, %edx
 7459      00
 7460 3b2a 4889CE   		movq	%rcx, %rsi
 7461 3b2d 4889C7   		movq	%rax, %rdi
 7462 3b30 E8000000 		call	_ZN8UnitTest11TestDetailsC1ERKS0_i@PLT
 7462      00
 290:TestChecks.cpp **** }
 7463              		.loc 5 290 0 discriminator 12
 7464 3b35 488D8530 		leaq	-2256(%rbp), %rax
 7464      F7FFFF
 7465 3b3c 488D1500 		leaq	.LC95(%rip), %rdx
 7465      000000
 7466 3b43 4889C6   		movq	%rax, %rsi
 7467 3b46 4889DF   		movq	%rbx, %rdi
 7468 3b49 E8000000 		call	_ZN8UnitTest11TestResults13OnTestFailureERKNS_11TestDetailsEPKc@PLT
 7468      00
 7469              	.LEHE201:
 7470              	.LEHB202:
 290:TestChecks.cpp **** }
 7471              		.loc 5 290 0 discriminator 14
 7472 3b4e E8000000 		call	__cxa_end_catch@PLT
 7472      00
 7473              	.LEHE202:
 290:TestChecks.cpp **** }
 7474              		.loc 5 290 0
 7475 3b53 E96AFEFF 		jmp	.L345
 7475      FF
 7476              	.L357:
 7477 3b58 4889C3   		movq	%rax, %rbx
 7478 3b5b E8000000 		call	__cxa_end_catch@PLT
 7478      00
 7479 3b60 EB03     		jmp	.L336
 7480              	.L348:
 7481 3b62 4889C3   		movq	%rax, %rbx
 7482              	.L336:
 275:TestChecks.cpp ****     TestResults results(&reporter);
 7483              		.loc 5 275 0 is_stmt 1
 7484 3b65 488D85B0 		leaq	-2128(%rbp), %rax
 7484      F7FFFF
 7485 3b6c 4889C7   		movq	%rax, %rdi
 7486 3b6f E8000000 		call	_ZN17RecordingReporterD1Ev
 7486      00
 7487 3b74 4889D8   		movq	%rbx, %rax
 7488 3b77 4889C7   		movq	%rax, %rdi
 7489              	.LEHB203:
 7490 3b7a E8000000 		call	_Unwind_Resume@PLT
 7490      00
 7491              	.LEHE203:
 7492              	.L358:
 7493              		.loc 5 291 0
 7494 3b7f E8000000 		call	__stack_chk_fail@PLT
 7494      00
 7495              	.L347:
 7496 3b84 488B5DF8 		movq	-8(%rbp), %rbx
 7497 3b88 C9       		leave
 7498              		.cfi_def_cfa 7, 8
 7499 3b89 C3       		ret
 7500              		.cfi_endproc
 7501              	.LFE1201:
 7502              		.section	.gcc_except_table
 7503              		.align 4
 7504              	.LLSDA1201:
 7505 056c FF       		.byte	0xff
 7506 056d 9B       		.byte	0x9b
 7507 056e 69       		.uleb128 .LLSDATT1201-.LLSDATTD1201
 7508              	.LLSDATTD1201:
 7509 056f 01       		.byte	0x1
 7510 0570 5E       		.uleb128 .LLSDACSE1201-.LLSDACSB1201
 7511              	.LLSDACSB1201:
 7512 0571 45       		.uleb128 .LEHB188-.LFB1201
 7513 0572 9D03     		.uleb128 .LEHE188-.LEHB188
 7514 0574 D409     		.uleb128 .L348-.LFB1201
 7515 0576 00       		.uleb128 0
 7516 0577 E603     		.uleb128 .LEHB189-.LFB1201
 7517 0579 51       		.uleb128 .LEHE189-.LEHB189
 7518 057a DC06     		.uleb128 .L349-.LFB1201
 7519 057c 01       		.uleb128 0x1
 7520 057d B704     		.uleb128 .LEHB190-.LFB1201
 7521 057f 51       		.uleb128 .LEHE190-.LEHB190
 7522 0580 BB07     		.uleb128 .L351-.LFB1201
 7523 0582 01       		.uleb128 0x1
 7524 0583 8805     		.uleb128 .LEHB191-.LFB1201
 7525 0585 51       		.uleb128 .LEHE191-.LEHB191
 7526 0586 9A08     		.uleb128 .L353-.LFB1201
 7527 0588 01       		.uleb128 0x1
 7528 0589 D905     		.uleb128 .LEHB192-.LFB1201
 7529 058b 1F       		.uleb128 .LEHE192-.LEHB192
 7530 058c F808     		.uleb128 .L355-.LFB1201
 7531 058e 01       		.uleb128 0x1
 7532 058f 8206     		.uleb128 .LEHB193-.LFB1201
 7533 0591 32       		.uleb128 .LEHE193-.LEHB193
 7534 0592 F608     		.uleb128 .L356-.LFB1201
 7535 0594 01       		.uleb128 0x1
 7536 0595 BE06     		.uleb128 .LEHB194-.LFB1201
 7537 0597 05       		.uleb128 .LEHE194-.LEHB194
 7538 0598 00       		.uleb128 0
 7539 0599 00       		.uleb128 0
 7540 059a E406     		.uleb128 .LEHB195-.LFB1201
 7541 059c 40       		.uleb128 .LEHE195-.LEHB195
 7542 059d AE07     		.uleb128 .L350-.LFB1201
 7543 059f 00       		.uleb128 0
 7544 05a0 A407     		.uleb128 .LEHB196-.LFB1201
 7545 05a2 05       		.uleb128 .LEHE196-.LEHB196
 7546 05a3 D409     		.uleb128 .L348-.LFB1201
 7547 05a5 00       		.uleb128 0
 7548 05a6 C307     		.uleb128 .LEHB197-.LFB1201
 7549 05a8 40       		.uleb128 .LEHE197-.LEHB197
 7550 05a9 8D08     		.uleb128 .L352-.LFB1201
 7551 05ab 00       		.uleb128 0
 7552 05ac 8308     		.uleb128 .LEHB198-.LFB1201
 7553 05ae 05       		.uleb128 .LEHE198-.LEHB198
 7554 05af D409     		.uleb128 .L348-.LFB1201
 7555 05b1 00       		.uleb128 0
 7556 05b2 A208     		.uleb128 .LEHB199-.LFB1201
 7557 05b4 40       		.uleb128 .LEHE199-.LEHB199
 7558 05b5 EC08     		.uleb128 .L354-.LFB1201
 7559 05b7 00       		.uleb128 0
 7560 05b8 E208     		.uleb128 .LEHB200-.LFB1201
 7561 05ba 05       		.uleb128 .LEHE200-.LEHB200
 7562 05bb D409     		.uleb128 .L348-.LFB1201
 7563 05bd 00       		.uleb128 0
 7564 05be 8009     		.uleb128 .LEHB201-.LFB1201
 7565 05c0 40       		.uleb128 .LEHE201-.LEHB201
 7566 05c1 CA09     		.uleb128 .L357-.LFB1201
 7567 05c3 00       		.uleb128 0
 7568 05c4 C009     		.uleb128 .LEHB202-.LFB1201
 7569 05c6 05       		.uleb128 .LEHE202-.LEHB202
 7570 05c7 D409     		.uleb128 .L348-.LFB1201
 7571 05c9 00       		.uleb128 0
 7572 05ca EC09     		.uleb128 .LEHB203-.LFB1201
 7573 05cc 05       		.uleb128 .LEHE203-.LEHB203
 7574 05cd 00       		.uleb128 0
 7575 05ce 00       		.uleb128 0
 7576              	.LLSDACSE1201:
 7577 05cf 01       		.byte	0x1
 7578 05d0 00       		.byte	0
 7579 05d1 000000   		.align 4
 7580 05d4 00000000 		.long	0
 7581              	
 7582              	.LLSDATT1201:
 7583              		.text
 7585              		.section	.text._ZN8UnitTest15MemoryOutStreamD1Ev,"axG",@progbits,_ZN8UnitTest15MemoryOutStreamD1Ev
 7586              		.align 2
 7587              		.weak	_ZN8UnitTest15MemoryOutStreamD1Ev
 7589              	_ZN8UnitTest15MemoryOutStreamD1Ev:
 7590              	.LFB1232:
  13:../MemoryOutStream.h **** {
 7591              		.loc 2 13 0
 7592              		.cfi_startproc
 7593              		.cfi_personality 0x9b,DW.ref.__gxx_personality_v0
 7594              		.cfi_lsda 0x1b,.LLSDA1232
 7595 0000 55       		pushq	%rbp
 7596              		.cfi_def_cfa_offset 16
 7597              		.cfi_offset 6, -16
 7598 0001 4889E5   		movq	%rsp, %rbp
 7599              		.cfi_def_cfa_register 6
 7600 0004 53       		pushq	%rbx
 7601 0005 4883EC18 		subq	$24, %rsp
 7602              		.cfi_offset 3, -24
 7603 0009 48897DE8 		movq	%rdi, -24(%rbp)
 7604              	.LBB32:
  13:../MemoryOutStream.h **** {
 7605              		.loc 2 13 0
 7606 000d 488D1500 		leaq	24+_ZTVN8UnitTest15MemoryOutStreamE(%rip), %rdx
 7606      000000
 7607 0014 488B45E8 		movq	-24(%rbp), %rax
 7608 0018 488910   		movq	%rdx, (%rax)
 7609 001b 488B45E8 		movq	-24(%rbp), %rax
 7610 001f 488D9090 		leaq	144(%rax), %rdx
 7610      000000
 7611 0026 488D0500 		leaq	64+_ZTVN8UnitTest15MemoryOutStreamE(%rip), %rax
 7611      000000
 7612 002d 488902   		movq	%rax, (%rdx)
 7613 0030 488B45E8 		movq	-24(%rbp), %rax
 7614 0034 4883C070 		addq	$112, %rax
 7615 0038 4889C7   		movq	%rax, %rdi
 7616              	.LEHB204:
 7617 003b E8000000 		call	_ZNSt7__cxx1112basic_stringIcSt11char_traitsIcESaIcEED1Ev@PLT
 7617      00
 7618              	.LEHE204:
  13:../MemoryOutStream.h **** {
 7619              		.loc 2 13 0 is_stmt 0 discriminator 2
 7620 0040 488B45E8 		movq	-24(%rbp), %rax
 7621 0044 488D1500 		leaq	8+_ZTTN8UnitTest15MemoryOutStreamE(%rip), %rdx
 7621      000000
 7622 004b 4889D6   		movq	%rdx, %rsi
 7623 004e 4889C7   		movq	%rax, %rdi
 7624              	.LEHB205:
 7625 0051 E8000000 		call	_ZNSt7__cxx1119basic_ostringstreamIcSt11char_traitsIcESaIcEED2Ev@PLT
 7625      00
 7626              	.LEHE205:
  13:../MemoryOutStream.h **** {
 7627              		.loc 2 13 0 discriminator 4
 7628 0056 488B45E8 		movq	-24(%rbp), %rax
 7629 005a 48059000 		addq	$144, %rax
 7629      0000
 7630 0060 4889C7   		movq	%rax, %rdi
 7631              	.LEHB206:
 7632 0063 E8000000 		call	_ZNSt9basic_iosIcSt11char_traitsIcEED2Ev@PLT
 7632      00
 7633              	.LEHE206:
 7634              	.LBE32:
 7635 0068 EB3B     		jmp	.L364
 7636              	.L362:
 7637 006a 4889C3   		movq	%rax, %rbx
 7638              	.LBB33:
  13:../MemoryOutStream.h **** {
 7639              		.loc 2 13 0
 7640 006d 488B45E8 		movq	-24(%rbp), %rax
 7641 0071 488D1500 		leaq	8+_ZTTN8UnitTest15MemoryOutStreamE(%rip), %rdx
 7641      000000
 7642 0078 4889D6   		movq	%rdx, %rsi
 7643 007b 4889C7   		movq	%rax, %rdi
 7644 007e E8000000 		call	_ZNSt7__cxx1119basic_ostringstreamIcSt11char_traitsIcESaIcEED2Ev@PLT
 7644      00
 7645 0083 EB03     		jmp	.L361
 7646              	.L363:
 7647 0085 4889C3   		movq	%rax, %rbx
 7648              	.L361:
  13:../MemoryOutStream.h **** {
 7649              		.loc 2 13 0 discriminator 3
 7650 0088 488B45E8 		movq	-24(%rbp), %rax
 7651 008c 48059000 		addq	$144, %rax
 7651      0000
 7652 0092 4889C7   		movq	%rax, %rdi
 7653 0095 E8000000 		call	_ZNSt9basic_iosIcSt11char_traitsIcEED2Ev@PLT
 7653      00
 7654 009a 4889D8   		movq	%rbx, %rax
 7655 009d 4889C7   		movq	%rax, %rdi
 7656              	.LEHB207:
 7657 00a0 E8000000 		call	_Unwind_Resume@PLT
 7657      00
 7658              	.LEHE207:
 7659              	.L364:
 7660              	.LBE33:
  13:../MemoryOutStream.h **** {
 7661              		.loc 2 13 0
 7662 00a5 4883C418 		addq	$24, %rsp
 7663 00a9 5B       		popq	%rbx
 7664 00aa 5D       		popq	%rbp
 7665              		.cfi_def_cfa 7, 8
 7666 00ab C3       		ret
 7667              		.cfi_endproc
 7668              	.LFE1232:
 7669              		.section	.gcc_except_table
 7670              	.LLSDA1232:
 7671 05d8 FF       		.byte	0xff
 7672 05d9 FF       		.byte	0xff
 7673 05da 01       		.byte	0x1
 7674 05db 12       		.uleb128 .LLSDACSE1232-.LLSDACSB1232
 7675              	.LLSDACSB1232:
 7676 05dc 3B       		.uleb128 .LEHB204-.LFB1232
 7677 05dd 05       		.uleb128 .LEHE204-.LEHB204
 7678 05de 6A       		.uleb128 .L362-.LFB1232
 7679 05df 00       		.uleb128 0
 7680 05e0 51       		.uleb128 .LEHB205-.LFB1232
 7681 05e1 05       		.uleb128 .LEHE205-.LEHB205
 7682 05e2 8501     		.uleb128 .L363-.LFB1232
 7683 05e4 00       		.uleb128 0
 7684 05e5 63       		.uleb128 .LEHB206-.LFB1232
 7685 05e6 05       		.uleb128 .LEHE206-.LEHB206
 7686 05e7 00       		.uleb128 0
 7687 05e8 00       		.uleb128 0
 7688 05e9 A001     		.uleb128 .LEHB207-.LFB1232
 7689 05eb 05       		.uleb128 .LEHE207-.LEHB207
 7690 05ec 00       		.uleb128 0
 7691 05ed 00       		.uleb128 0
 7692              	.LLSDACSE1232:
 7693              		.section	.text._ZN8UnitTest15MemoryOutStreamD1Ev,"axG",@progbits,_ZN8UnitTest15MemoryOutStreamD1Ev
 7695              		.set	.LTHUNK0,_ZN8UnitTest15MemoryOutStreamD1Ev
 7696              		.weak	_ZTv0_n24_N8UnitTest15MemoryOutStreamD1Ev
 7698              	_ZTv0_n24_N8UnitTest15MemoryOutStreamD1Ev:
 7699              	.LFB1413:
  13:../MemoryOutStream.h **** {
 7700              		.loc 2 13 0 is_stmt 1
 7701              		.cfi_startproc
 7702 00ac 4C8B17   		movq	(%rdi), %r10
 7703 00af 49037AE8 		addq	-24(%r10), %rdi
 7704 00b3 E948FFFF 		jmp	.LTHUNK0
 7704      FF
 7705              		.cfi_endproc
 7706              	.LFE1413:
 7708              		.section	.text._ZN8UnitTest15MemoryOutStreamD0Ev,"axG",@progbits,_ZN8UnitTest15MemoryOutStreamD0Ev
 7709              		.align 2
 7710              		.weak	_ZN8UnitTest15MemoryOutStreamD0Ev
 7712              	_ZN8UnitTest15MemoryOutStreamD0Ev:
 7713              	.LFB1233:
  13:../MemoryOutStream.h **** {
 7714              		.loc 2 13 0
 7715              		.cfi_startproc
 7716              		.cfi_personality 0x9b,DW.ref.__gxx_personality_v0
 7717              		.cfi_lsda 0x1b,.LLSDA1233
 7718 0000 55       		pushq	%rbp
 7719              		.cfi_def_cfa_offset 16
 7720              		.cfi_offset 6, -16
 7721 0001 4889E5   		movq	%rsp, %rbp
 7722              		.cfi_def_cfa_register 6
 7723 0004 53       		pushq	%rbx
 7724 0005 4883EC18 		subq	$24, %rsp
 7725              		.cfi_offset 3, -24
 7726 0009 48897DE8 		movq	%rdi, -24(%rbp)
  13:../MemoryOutStream.h **** {
 7727              		.loc 2 13 0
 7728 000d 488B45E8 		movq	-24(%rbp), %rax
 7729 0011 4889C7   		movq	%rax, %rdi
 7730              	.LEHB208:
 7731 0014 E8000000 		call	_ZN8UnitTest15MemoryOutStreamD1Ev
 7731      00
 7732              	.LEHE208:
  13:../MemoryOutStream.h **** {
 7733              		.loc 2 13 0 is_stmt 0 discriminator 2
 7734 0019 488B45E8 		movq	-24(%rbp), %rax
 7735 001d 4889C7   		movq	%rax, %rdi
 7736 0020 E8000000 		call	_ZdlPv@PLT
 7736      00
 7737 0025 EB1A     		jmp	.L368
 7738              	.L367:
 7739 0027 4889C3   		movq	%rax, %rbx
  13:../MemoryOutStream.h **** {
 7740              		.loc 2 13 0
 7741 002a 488B45E8 		movq	-24(%rbp), %rax
 7742 002e 4889C7   		movq	%rax, %rdi
 7743 0031 E8000000 		call	_ZdlPv@PLT
 7743      00
 7744 0036 4889D8   		movq	%rbx, %rax
 7745 0039 4889C7   		movq	%rax, %rdi
 7746              	.LEHB209:
 7747 003c E8000000 		call	_Unwind_Resume@PLT
 7747      00
 7748              	.LEHE209:
 7749              	.L368:
 7750 0041 4883C418 		addq	$24, %rsp
 7751 0045 5B       		popq	%rbx
 7752 0046 5D       		popq	%rbp
 7753              		.cfi_def_cfa 7, 8
 7754 0047 C3       		ret
 7755              		.cfi_endproc
 7756              	.LFE1233:
 7757              		.section	.gcc_except_table
 7758              	.LLSDA1233:
 7759 05ee FF       		.byte	0xff
 7760 05ef FF       		.byte	0xff
 7761 05f0 01       		.byte	0x1
 7762 05f1 08       		.uleb128 .LLSDACSE1233-.LLSDACSB1233
 7763              	.LLSDACSB1233:
 7764 05f2 14       		.uleb128 .LEHB208-.LFB1233
 7765 05f3 05       		.uleb128 .LEHE208-.LEHB208
 7766 05f4 27       		.uleb128 .L367-.LFB1233
 7767 05f5 00       		.uleb128 0
 7768 05f6 3C       		.uleb128 .LEHB209-.LFB1233
 7769 05f7 05       		.uleb128 .LEHE209-.LEHB209
 7770 05f8 00       		.uleb128 0
 7771 05f9 00       		.uleb128 0
 7772              	.LLSDACSE1233:
 7773              		.section	.text._ZN8UnitTest15MemoryOutStreamD0Ev,"axG",@progbits,_ZN8UnitTest15MemoryOutStreamD0Ev
 7775              		.set	.LTHUNK1,_ZN8UnitTest15MemoryOutStreamD0Ev
 7776              		.weak	_ZTv0_n24_N8UnitTest15MemoryOutStreamD0Ev
 7778              	_ZTv0_n24_N8UnitTest15MemoryOutStreamD0Ev:
 7779              	.LFB1414:
  13:../MemoryOutStream.h **** {
 7780              		.loc 2 13 0 is_stmt 1
 7781              		.cfi_startproc
 7782 0048 4C8B17   		movq	(%rdi), %r10
 7783 004b 49037AE8 		addq	-24(%r10), %rdi
 7784 004f EBAF     		jmp	.LTHUNK1
 7785              		.cfi_endproc
 7786              	.LFE1414:
 7788              		.section	.rodata
 7789              	.LC96:
 7790 0baa 45787065 		.string	"Expected "
 7790      63746564 
 7790      2000
 7791              	.LC97:
 7792 0bb4 20627574 		.string	" but was "
 7792      20776173 
 7792      2000
 7793              		.section	.text._ZN8UnitTest10CheckEqualImmEEvRNS_11TestResultsERKT_RKT0_RKNS_11TestDetailsE,"axG",
 7794              		.weak	_ZN8UnitTest10CheckEqualImmEEvRNS_11TestResultsERKT_RKT0_RKNS_11TestDetailsE
 7796              	_ZN8UnitTest10CheckEqualImmEEvRNS_11TestResultsERKT_RKT0_RKNS_11TestDetailsE:
 7797              	.LFB1229:
 7798              		.file 6 "../Checks.h"
   1:../Checks.h   **** #ifndef UNITTEST_CHECKS_H
   2:../Checks.h   **** #define UNITTEST_CHECKS_H
   3:../Checks.h   **** 
   4:../Checks.h   **** #include "Config.h"
   5:../Checks.h   **** #include "TestResults.h"
   6:../Checks.h   **** #include "MemoryOutStream.h"
   7:../Checks.h   **** 
   8:../Checks.h   **** namespace UnitTest {
   9:../Checks.h   **** 
  10:../Checks.h   **** 
  11:../Checks.h   **** template< typename Value >
  12:../Checks.h   **** bool Check(Value const value)
  13:../Checks.h   **** {
  14:../Checks.h   ****     return !!value; // doing double negative to avoid silly VS warnings
  15:../Checks.h   **** }
  16:../Checks.h   **** 
  17:../Checks.h   **** 
  18:../Checks.h   **** template< typename Expected, typename Actual >
  19:../Checks.h   **** void CheckEqual(TestResults& results, Expected const& expected, Actual const& actual, TestDetails c
 7799              		.loc 6 19 0
 7800              		.cfi_startproc
 7801              		.cfi_personality 0x9b,DW.ref.__gxx_personality_v0
 7802              		.cfi_lsda 0x1b,.LLSDA1229
 7803 0000 55       		pushq	%rbp
 7804              		.cfi_def_cfa_offset 16
 7805              		.cfi_offset 6, -16
 7806 0001 4889E5   		movq	%rsp, %rbp
 7807              		.cfi_def_cfa_register 6
 7808 0004 53       		pushq	%rbx
 7809 0005 4881ECC8 		subq	$456, %rsp
 7809      010000
 7810              		.cfi_offset 3, -24
 7811 000c 4889BD48 		movq	%rdi, -440(%rbp)
 7811      FEFFFF
 7812 0013 4889B540 		movq	%rsi, -448(%rbp)
 7812      FEFFFF
 7813 001a 48899538 		movq	%rdx, -456(%rbp)
 7813      FEFFFF
 7814 0021 48898D30 		movq	%rcx, -464(%rbp)
 7814      FEFFFF
 7815              		.loc 6 19 0
 7816 0028 64488B04 		movq	%fs:40, %rax
 7816      25280000 
 7816      00
 7817 0031 488945E8 		movq	%rax, -24(%rbp)
 7818 0035 31C0     		xorl	%eax, %eax
 7819              	.LBB34:
  20:../Checks.h   **** {
  21:../Checks.h   ****     if (!(expected == actual))
 7820              		.loc 6 21 0
 7821 0037 488B8540 		movq	-448(%rbp), %rax
 7821      FEFFFF
 7822 003e 488B10   		movq	(%rax), %rdx
 7823 0041 488B8538 		movq	-456(%rbp), %rax
 7823      FEFFFF
 7824 0048 488B00   		movq	(%rax), %rax
 7825 004b 4839C2   		cmpq	%rax, %rdx
 7826 004e 0F84BD00 		je	.L374
 7826      0000
 7827              	.LBB35:
  22:../Checks.h   ****     {
  23:../Checks.h   ****         UnitTest::MemoryOutStream stream;
 7828              		.loc 6 23 0
 7829 0054 488D8550 		leaq	-432(%rbp), %rax
 7829      FEFFFF
 7830 005b 4889C7   		movq	%rax, %rdi
 7831              	.LEHB210:
 7832 005e E8000000 		call	_ZN8UnitTest15MemoryOutStreamC1Ev
 7832      00
 7833              	.LEHE210:
  24:../Checks.h   ****         stream << "Expected " << expected << " but was " << actual;
 7834              		.loc 6 24 0
 7835 0063 488D8550 		leaq	-432(%rbp), %rax
 7835      FEFFFF
 7836 006a 488D3500 		leaq	.LC96(%rip), %rsi
 7836      000000
 7837 0071 4889C7   		movq	%rax, %rdi
 7838              	.LEHB211:
 7839 0074 E8000000 		call	_ZStlsISt11char_traitsIcEERSt13basic_ostreamIcT_ES5_PKc@PLT
 7839      00
 7840 0079 4889C2   		movq	%rax, %rdx
 7841 007c 488B8540 		movq	-448(%rbp), %rax
 7841      FEFFFF
 7842 0083 488B00   		movq	(%rax), %rax
 7843 0086 4889C6   		movq	%rax, %rsi
 7844 0089 4889D7   		movq	%rdx, %rdi
 7845 008c E8000000 		call	_ZNSolsEm@PLT
 7845      00
 7846              		.loc 6 24 0 is_stmt 0 discriminator 1
 7847 0091 488D3500 		leaq	.LC97(%rip), %rsi
 7847      000000
 7848 0098 4889C7   		movq	%rax, %rdi
 7849 009b E8000000 		call	_ZStlsISt11char_traitsIcEERSt13basic_ostreamIcT_ES5_PKc@PLT
 7849      00
 7850              		.loc 6 24 0 discriminator 2
 7851 00a0 4889C2   		movq	%rax, %rdx
 7852 00a3 488B8538 		movq	-456(%rbp), %rax
 7852      FEFFFF
 7853 00aa 488B00   		movq	(%rax), %rax
 7854 00ad 4889C6   		movq	%rax, %rsi
 7855 00b0 4889D7   		movq	%rdx, %rdi
 7856 00b3 E8000000 		call	_ZNSolsEm@PLT
 7856      00
  25:../Checks.h   **** 
  26:../Checks.h   ****         results.OnTestFailure(details, stream.GetText());
 7857              		.loc 6 26 0 is_stmt 1
 7858 00b8 488D8550 		leaq	-432(%rbp), %rax
 7858      FEFFFF
 7859 00bf 4889C7   		movq	%rax, %rdi
 7860 00c2 E8000000 		call	_ZNK8UnitTest15MemoryOutStream7GetTextEv@PLT
 7860      00
 7861 00c7 4889C2   		movq	%rax, %rdx
 7862 00ca 488B8D30 		movq	-464(%rbp), %rcx
 7862      FEFFFF
 7863 00d1 488B8548 		movq	-440(%rbp), %rax
 7863      FEFFFF
 7864 00d8 4889CE   		movq	%rcx, %rsi
 7865 00db 4889C7   		movq	%rax, %rdi
 7866 00de E8000000 		call	_ZN8UnitTest11TestResults13OnTestFailureERKNS_11TestDetailsEPKc@PLT
 7866      00
 7867              	.LEHE211:
  23:../Checks.h   ****         stream << "Expected " << expected << " but was " << actual;
 7868              		.loc 6 23 0
 7869 00e3 488D8550 		leaq	-432(%rbp), %rax
 7869      FEFFFF
 7870 00ea 4889C7   		movq	%rax, %rdi
 7871              	.LEHB212:
 7872 00ed E8000000 		call	_ZN8UnitTest15MemoryOutStreamD1Ev
 7872      00
 7873              	.LEHE212:
 7874              	.LBE35:
 7875              	.LBE34:
  27:../Checks.h   ****     }
  28:../Checks.h   **** }
 7876              		.loc 6 28 0
 7877 00f2 EB1D     		jmp	.L374
 7878              	.L373:
 7879 00f4 4889C3   		movq	%rax, %rbx
 7880              	.LBB37:
 7881              	.LBB36:
  23:../Checks.h   ****         stream << "Expected " << expected << " but was " << actual;
 7882              		.loc 6 23 0
 7883 00f7 488D8550 		leaq	-432(%rbp), %rax
 7883      FEFFFF
 7884 00fe 4889C7   		movq	%rax, %rdi
 7885 0101 E8000000 		call	_ZN8UnitTest15MemoryOutStreamD1Ev
 7885      00
 7886 0106 4889D8   		movq	%rbx, %rax
 7887 0109 4889C7   		movq	%rax, %rdi
 7888              	.LEHB213:
 7889 010c E8000000 		call	_Unwind_Resume@PLT
 7889      00
 7890              	.LEHE213:
 7891              	.L374:
 7892              	.LBE36:
 7893              	.LBE37:
 7894              		.loc 6 28 0
 7895 0111 90       		nop
 7896 0112 488B45E8 		movq	-24(%rbp), %rax
 7897 0116 64483304 		xorq	%fs:40, %rax
 7897      25280000 
 7897      00
 7898 011f 7405     		je	.L372
 7899 0121 E8000000 		call	__stack_chk_fail@PLT
 7899      00
 7900              	.L372:
 7901 0126 4881C4C8 		addq	$456, %rsp
 7901      010000
 7902 012d 5B       		popq	%rbx
 7903 012e 5D       		popq	%rbp
 7904              		.cfi_def_cfa 7, 8
 7905 012f C3       		ret
 7906              		.cfi_endproc
 7907              	.LFE1229:
 7908              		.section	.gcc_except_table
 7909              	.LLSDA1229:
 7910 05fa FF       		.byte	0xff
 7911 05fb FF       		.byte	0xff
 7912 05fc 01       		.byte	0x1
 7913 05fd 13       		.uleb128 .LLSDACSE1229-.LLSDACSB1229
 7914              	.LLSDACSB1229:
 7915 05fe 5E       		.uleb128 .LEHB210-.LFB1229
 7916 05ff 05       		.uleb128 .LEHE210-.LEHB210
 7917 0600 00       		.uleb128 0
 7918 0601 00       		.uleb128 0
 7919 0602 74       		.uleb128 .LEHB211-.LFB1229
 7920 0603 6F       		.uleb128 .LEHE211-.LEHB211
 7921 0604 F401     		.uleb128 .L373-.LFB1229
 7922 0606 00       		.uleb128 0
 7923 0607 ED01     		.uleb128 .LEHB212-.LFB1229
 7924 0609 05       		.uleb128 .LEHE212-.LEHB212
 7925 060a 00       		.uleb128 0
 7926 060b 00       		.uleb128 0
 7927 060c 8C02     		.uleb128 .LEHB213-.LFB1229
 7928 060e 05       		.uleb128 .LEHE213-.LEHB213
 7929 060f 00       		.uleb128 0
 7930 0610 00       		.uleb128 0
 7931              	.LLSDACSE1229:
 7932              		.section	.text._ZN8UnitTest10CheckEqualImmEEvRNS_11TestResultsERKT_RKT0_RKNS_11TestDetailsE,"axG",
 7934              		.section	.text._ZN8UnitTest10CheckEqualIiiEEvRNS_11TestResultsERKT_RKT0_RKNS_11TestDetailsE,"axG",
 7935              		.weak	_ZN8UnitTest10CheckEqualIiiEEvRNS_11TestResultsERKT_RKT0_RKNS_11TestDetailsE
 7937              	_ZN8UnitTest10CheckEqualIiiEEvRNS_11TestResultsERKT_RKT0_RKNS_11TestDetailsE:
 7938              	.LFB1234:
  19:../Checks.h   **** {
 7939              		.loc 6 19 0
 7940              		.cfi_startproc
 7941              		.cfi_personality 0x9b,DW.ref.__gxx_personality_v0
 7942              		.cfi_lsda 0x1b,.LLSDA1234
 7943 0000 55       		pushq	%rbp
 7944              		.cfi_def_cfa_offset 16
 7945              		.cfi_offset 6, -16
 7946 0001 4889E5   		movq	%rsp, %rbp
 7947              		.cfi_def_cfa_register 6
 7948 0004 53       		pushq	%rbx
 7949 0005 4881ECC8 		subq	$456, %rsp
 7949      010000
 7950              		.cfi_offset 3, -24
 7951 000c 4889BD48 		movq	%rdi, -440(%rbp)
 7951      FEFFFF
 7952 0013 4889B540 		movq	%rsi, -448(%rbp)
 7952      FEFFFF
 7953 001a 48899538 		movq	%rdx, -456(%rbp)
 7953      FEFFFF
 7954 0021 48898D30 		movq	%rcx, -464(%rbp)
 7954      FEFFFF
  19:../Checks.h   **** {
 7955              		.loc 6 19 0
 7956 0028 64488B04 		movq	%fs:40, %rax
 7956      25280000 
 7956      00
 7957 0031 488945E8 		movq	%rax, -24(%rbp)
 7958 0035 31C0     		xorl	%eax, %eax
 7959              	.LBB38:
  21:../Checks.h   ****     {
 7960              		.loc 6 21 0
 7961 0037 488B8540 		movq	-448(%rbp), %rax
 7961      FEFFFF
 7962 003e 8B10     		movl	(%rax), %edx
 7963 0040 488B8538 		movq	-456(%rbp), %rax
 7963      FEFFFF
 7964 0047 8B00     		movl	(%rax), %eax
 7965 0049 39C2     		cmpl	%eax, %edx
 7966 004b 0F84B900 		je	.L380
 7966      0000
 7967              	.LBB39:
  23:../Checks.h   ****         stream << "Expected " << expected << " but was " << actual;
 7968              		.loc 6 23 0
 7969 0051 488D8550 		leaq	-432(%rbp), %rax
 7969      FEFFFF
 7970 0058 4889C7   		movq	%rax, %rdi
 7971              	.LEHB214:
 7972 005b E8000000 		call	_ZN8UnitTest15MemoryOutStreamC1Ev
 7972      00
 7973              	.LEHE214:
  24:../Checks.h   **** 
 7974              		.loc 6 24 0
 7975 0060 488D8550 		leaq	-432(%rbp), %rax
 7975      FEFFFF
 7976 0067 488D3500 		leaq	.LC96(%rip), %rsi
 7976      000000
 7977 006e 4889C7   		movq	%rax, %rdi
 7978              	.LEHB215:
 7979 0071 E8000000 		call	_ZStlsISt11char_traitsIcEERSt13basic_ostreamIcT_ES5_PKc@PLT
 7979      00
 7980 0076 4889C2   		movq	%rax, %rdx
 7981 0079 488B8540 		movq	-448(%rbp), %rax
 7981      FEFFFF
 7982 0080 8B00     		movl	(%rax), %eax
 7983 0082 89C6     		movl	%eax, %esi
 7984 0084 4889D7   		movq	%rdx, %rdi
 7985 0087 E8000000 		call	_ZNSolsEi@PLT
 7985      00
  24:../Checks.h   **** 
 7986              		.loc 6 24 0 is_stmt 0 discriminator 1
 7987 008c 488D3500 		leaq	.LC97(%rip), %rsi
 7987      000000
 7988 0093 4889C7   		movq	%rax, %rdi
 7989 0096 E8000000 		call	_ZStlsISt11char_traitsIcEERSt13basic_ostreamIcT_ES5_PKc@PLT
 7989      00
  24:../Checks.h   **** 
 7990              		.loc 6 24 0 discriminator 2
 7991 009b 4889C2   		movq	%rax, %rdx
 7992 009e 488B8538 		movq	-456(%rbp), %rax
 7992      FEFFFF
 7993 00a5 8B00     		movl	(%rax), %eax
 7994 00a7 89C6     		movl	%eax, %esi
 7995 00a9 4889D7   		movq	%rdx, %rdi
 7996 00ac E8000000 		call	_ZNSolsEi@PLT
 7996      00
  26:../Checks.h   ****     }
 7997              		.loc 6 26 0 is_stmt 1
 7998 00b1 488D8550 		leaq	-432(%rbp), %rax
 7998      FEFFFF
 7999 00b8 4889C7   		movq	%rax, %rdi
 8000 00bb E8000000 		call	_ZNK8UnitTest15MemoryOutStream7GetTextEv@PLT
 8000      00
 8001 00c0 4889C2   		movq	%rax, %rdx
 8002 00c3 488B8D30 		movq	-464(%rbp), %rcx
 8002      FEFFFF
 8003 00ca 488B8548 		movq	-440(%rbp), %rax
 8003      FEFFFF
 8004 00d1 4889CE   		movq	%rcx, %rsi
 8005 00d4 4889C7   		movq	%rax, %rdi
 8006 00d7 E8000000 		call	_ZN8UnitTest11TestResults13OnTestFailureERKNS_11TestDetailsEPKc@PLT
 8006      00
 8007              	.LEHE215:
  23:../Checks.h   ****         stream << "Expected " << expected << " but was " << actual;
 8008              		.loc 6 23 0
 8009 00dc 488D8550 		leaq	-432(%rbp), %rax
 8009      FEFFFF
 8010 00e3 4889C7   		movq	%rax, %rdi
 8011              	.LEHB216:
 8012 00e6 E8000000 		call	_ZN8UnitTest15MemoryOutStreamD1Ev
 8012      00
 8013              	.LEHE216:
 8014              	.LBE39:
 8015              	.LBE38:
 8016              		.loc 6 28 0
 8017 00eb EB1D     		jmp	.L380
 8018              	.L379:
 8019 00ed 4889C3   		movq	%rax, %rbx
 8020              	.LBB41:
 8021              	.LBB40:
  23:../Checks.h   ****         stream << "Expected " << expected << " but was " << actual;
 8022              		.loc 6 23 0
 8023 00f0 488D8550 		leaq	-432(%rbp), %rax
 8023      FEFFFF
 8024 00f7 4889C7   		movq	%rax, %rdi
 8025 00fa E8000000 		call	_ZN8UnitTest15MemoryOutStreamD1Ev
 8025      00
 8026 00ff 4889D8   		movq	%rbx, %rax
 8027 0102 4889C7   		movq	%rax, %rdi
 8028              	.LEHB217:
 8029 0105 E8000000 		call	_Unwind_Resume@PLT
 8029      00
 8030              	.LEHE217:
 8031              	.L380:
 8032              	.LBE40:
 8033              	.LBE41:
 8034              		.loc 6 28 0
 8035 010a 90       		nop
 8036 010b 488B45E8 		movq	-24(%rbp), %rax
 8037 010f 64483304 		xorq	%fs:40, %rax
 8037      25280000 
 8037      00
 8038 0118 7405     		je	.L378
 8039 011a E8000000 		call	__stack_chk_fail@PLT
 8039      00
 8040              	.L378:
 8041 011f 4881C4C8 		addq	$456, %rsp
 8041      010000
 8042 0126 5B       		popq	%rbx
 8043 0127 5D       		popq	%rbp
 8044              		.cfi_def_cfa 7, 8
 8045 0128 C3       		ret
 8046              		.cfi_endproc
 8047              	.LFE1234:
 8048              		.section	.gcc_except_table
 8049              	.LLSDA1234:
 8050 0611 FF       		.byte	0xff
 8051 0612 FF       		.byte	0xff
 8052 0613 01       		.byte	0x1
 8053 0614 13       		.uleb128 .LLSDACSE1234-.LLSDACSB1234
 8054              	.LLSDACSB1234:
 8055 0615 5B       		.uleb128 .LEHB214-.LFB1234
 8056 0616 05       		.uleb128 .LEHE214-.LEHB214
 8057 0617 00       		.uleb128 0
 8058 0618 00       		.uleb128 0
 8059 0619 71       		.uleb128 .LEHB215-.LFB1234
 8060 061a 6B       		.uleb128 .LEHE215-.LEHB215
 8061 061b ED01     		.uleb128 .L379-.LFB1234
 8062 061d 00       		.uleb128 0
 8063 061e E601     		.uleb128 .LEHB216-.LFB1234
 8064 0620 05       		.uleb128 .LEHE216-.LEHB216
 8065 0621 00       		.uleb128 0
 8066 0622 00       		.uleb128 0
 8067 0623 8502     		.uleb128 .LEHB217-.LFB1234
 8068 0625 05       		.uleb128 .LEHE217-.LEHB217
 8069 0626 00       		.uleb128 0
 8070 0627 00       		.uleb128 0
 8071              	.LLSDACSE1234:
 8072              		.section	.text._ZN8UnitTest10CheckEqualIiiEEvRNS_11TestResultsERKT_RKT0_RKNS_11TestDetailsE,"axG",
 8074              		.section	.text._ZN8UnitTest5CheckIPcEEbT_,"axG",@progbits,_ZN8UnitTest5CheckIPcEEbT_,comdat
 8075              		.weak	_ZN8UnitTest5CheckIPcEEbT_
 8077              	_ZN8UnitTest5CheckIPcEEbT_:
 8078              	.LFB1235:
  12:../Checks.h   **** {
 8079              		.loc 6 12 0
 8080              		.cfi_startproc
 8081 0000 55       		pushq	%rbp
 8082              		.cfi_def_cfa_offset 16
 8083              		.cfi_offset 6, -16
 8084 0001 4889E5   		movq	%rsp, %rbp
 8085              		.cfi_def_cfa_register 6
 8086 0004 48897DF8 		movq	%rdi, -8(%rbp)
  14:../Checks.h   **** }
 8087              		.loc 6 14 0
 8088 0008 48837DF8 		cmpq	$0, -8(%rbp)
 8088      00
 8089 000d 0F95C0   		setne	%al
  15:../Checks.h   **** 
 8090              		.loc 6 15 0
 8091 0010 5D       		popq	%rbp
 8092              		.cfi_def_cfa 7, 8
 8093 0011 C3       		ret
 8094              		.cfi_endproc
 8095              	.LFE1235:
 8097              		.section	.rodata
 8098              	.LC98:
 8099 0bbe 202B2F2D 		.string	" +/- "
 8099      2000
 8100              		.section	.text._ZN8UnitTest10CheckCloseIfffEEvRNS_11TestResultsERKT_RKT0_RKT1_RKNS_11TestDetailsE,
 8101              		.weak	_ZN8UnitTest10CheckCloseIfffEEvRNS_11TestResultsERKT_RKT0_RKT1_RKNS_11TestDetailsE
 8103              	_ZN8UnitTest10CheckCloseIfffEEvRNS_11TestResultsERKT_RKT0_RKT1_RKNS_11TestDetailsE:
 8104              	.LFB1236:
  29:../Checks.h   **** 
  30:../Checks.h   **** void CheckEqual(TestResults& results, char const* expected, char const* actual, TestDetails const& 
  31:../Checks.h   **** 
  32:../Checks.h   **** void CheckEqual(TestResults& results, char* expected, char* actual, TestDetails const& details);
  33:../Checks.h   **** 
  34:../Checks.h   **** void CheckEqual(TestResults& results, char* expected, char const* actual, TestDetails const& detail
  35:../Checks.h   **** 
  36:../Checks.h   **** void CheckEqual(TestResults& results, char const* expected, char* actual, TestDetails const& detail
  37:../Checks.h   **** 
  38:../Checks.h   **** template< typename Expected, typename Actual, typename Tolerance >
  39:../Checks.h   **** bool AreClose(Expected const& expected, Actual const& actual, Tolerance const& tolerance)
  40:../Checks.h   **** {
  41:../Checks.h   ****     return (actual >= (expected - tolerance)) && (actual <= (expected + tolerance));
  42:../Checks.h   **** }
  43:../Checks.h   **** 
  44:../Checks.h   **** template< typename Expected, typename Actual, typename Tolerance >
  45:../Checks.h   **** void CheckClose(TestResults& results, Expected const& expected, Actual const& actual, Tolerance con
 8105              		.loc 6 45 0
 8106              		.cfi_startproc
 8107              		.cfi_personality 0x9b,DW.ref.__gxx_personality_v0
 8108              		.cfi_lsda 0x1b,.LLSDA1236
 8109 0000 55       		pushq	%rbp
 8110              		.cfi_def_cfa_offset 16
 8111              		.cfi_offset 6, -16
 8112 0001 4889E5   		movq	%rsp, %rbp
 8113              		.cfi_def_cfa_register 6
 8114 0004 53       		pushq	%rbx
 8115 0005 4881ECD8 		subq	$472, %rsp
 8115      010000
 8116              		.cfi_offset 3, -24
 8117 000c 4889BD48 		movq	%rdi, -440(%rbp)
 8117      FEFFFF
 8118 0013 4889B540 		movq	%rsi, -448(%rbp)
 8118      FEFFFF
 8119 001a 48899538 		movq	%rdx, -456(%rbp)
 8119      FEFFFF
 8120 0021 48898D30 		movq	%rcx, -464(%rbp)
 8120      FEFFFF
 8121 0028 4C898528 		movq	%r8, -472(%rbp)
 8121      FEFFFF
 8122              		.loc 6 45 0
 8123 002f 64488B04 		movq	%fs:40, %rax
 8123      25280000 
 8123      00
 8124 0038 488945E8 		movq	%rax, -24(%rbp)
 8125 003c 31C0     		xorl	%eax, %eax
 8126              	.LBB42:
  46:../Checks.h   ****                 TestDetails const& details)
  47:../Checks.h   **** {
  48:../Checks.h   ****     if (!AreClose(expected, actual, tolerance))
 8127              		.loc 6 48 0
 8128 003e 488B9530 		movq	-464(%rbp), %rdx
 8128      FEFFFF
 8129 0045 488B8D38 		movq	-456(%rbp), %rcx
 8129      FEFFFF
 8130 004c 488B8540 		movq	-448(%rbp), %rax
 8130      FEFFFF
 8131 0053 4889CE   		movq	%rcx, %rsi
 8132 0056 4889C7   		movq	%rax, %rdi
 8133 0059 E8000000 		call	_ZN8UnitTest8AreCloseIfffEEbRKT_RKT0_RKT1_
 8133      00
 8134 005e 83F001   		xorl	$1, %eax
 8135 0061 84C0     		testb	%al, %al
 8136 0063 0F840201 		je	.L388
 8136      0000
 8137              	.LBB43:
  49:../Checks.h   ****     { 
  50:../Checks.h   ****         UnitTest::MemoryOutStream stream;
 8138              		.loc 6 50 0
 8139 0069 488D8550 		leaq	-432(%rbp), %rax
 8139      FEFFFF
 8140 0070 4889C7   		movq	%rax, %rdi
 8141              	.LEHB218:
 8142 0073 E8000000 		call	_ZN8UnitTest15MemoryOutStreamC1Ev
 8142      00
 8143              	.LEHE218:
  51:../Checks.h   ****         stream << "Expected " << expected << " +/- " << tolerance << " but was " << actual;
 8144              		.loc 6 51 0
 8145 0078 488D8550 		leaq	-432(%rbp), %rax
 8145      FEFFFF
 8146 007f 488D3500 		leaq	.LC96(%rip), %rsi
 8146      000000
 8147 0086 4889C7   		movq	%rax, %rdi
 8148              	.LEHB219:
 8149 0089 E8000000 		call	_ZStlsISt11char_traitsIcEERSt13basic_ostreamIcT_ES5_PKc@PLT
 8149      00
 8150 008e 4889C2   		movq	%rax, %rdx
 8151 0091 488B8540 		movq	-448(%rbp), %rax
 8151      FEFFFF
 8152 0098 8B00     		movl	(%rax), %eax
 8153 009a 898524FE 		movl	%eax, -476(%rbp)
 8153      FFFF
 8154 00a0 F30F1085 		movss	-476(%rbp), %xmm0
 8154      24FEFFFF 
 8155 00a8 4889D7   		movq	%rdx, %rdi
 8156 00ab E8000000 		call	_ZNSolsEf@PLT
 8156      00
 8157              		.loc 6 51 0 is_stmt 0 discriminator 1
 8158 00b0 488D3500 		leaq	.LC98(%rip), %rsi
 8158      000000
 8159 00b7 4889C7   		movq	%rax, %rdi
 8160 00ba E8000000 		call	_ZStlsISt11char_traitsIcEERSt13basic_ostreamIcT_ES5_PKc@PLT
 8160      00
 8161              		.loc 6 51 0 discriminator 2
 8162 00bf 4889C2   		movq	%rax, %rdx
 8163 00c2 488B8530 		movq	-464(%rbp), %rax
 8163      FEFFFF
 8164 00c9 8B00     		movl	(%rax), %eax
 8165 00cb 898524FE 		movl	%eax, -476(%rbp)
 8165      FFFF
 8166 00d1 F30F1085 		movss	-476(%rbp), %xmm0
 8166      24FEFFFF 
 8167 00d9 4889D7   		movq	%rdx, %rdi
 8168 00dc E8000000 		call	_ZNSolsEf@PLT
 8168      00
 8169              		.loc 6 51 0 discriminator 3
 8170 00e1 488D3500 		leaq	.LC97(%rip), %rsi
 8170      000000
 8171 00e8 4889C7   		movq	%rax, %rdi
 8172 00eb E8000000 		call	_ZStlsISt11char_traitsIcEERSt13basic_ostreamIcT_ES5_PKc@PLT
 8172      00
 8173              		.loc 6 51 0 discriminator 4
 8174 00f0 4889C2   		movq	%rax, %rdx
 8175 00f3 488B8538 		movq	-456(%rbp), %rax
 8175      FEFFFF
 8176 00fa 8B00     		movl	(%rax), %eax
 8177 00fc 898524FE 		movl	%eax, -476(%rbp)
 8177      FFFF
 8178 0102 F30F1085 		movss	-476(%rbp), %xmm0
 8178      24FEFFFF 
 8179 010a 4889D7   		movq	%rdx, %rdi
 8180 010d E8000000 		call	_ZNSolsEf@PLT
 8180      00
  52:../Checks.h   **** 
  53:../Checks.h   ****         results.OnTestFailure(details, stream.GetText());
 8181              		.loc 6 53 0 is_stmt 1
 8182 0112 488D8550 		leaq	-432(%rbp), %rax
 8182      FEFFFF
 8183 0119 4889C7   		movq	%rax, %rdi
 8184 011c E8000000 		call	_ZNK8UnitTest15MemoryOutStream7GetTextEv@PLT
 8184      00
 8185 0121 4889C2   		movq	%rax, %rdx
 8186 0124 488B8D28 		movq	-472(%rbp), %rcx
 8186      FEFFFF
 8187 012b 488B8548 		movq	-440(%rbp), %rax
 8187      FEFFFF
 8188 0132 4889CE   		movq	%rcx, %rsi
 8189 0135 4889C7   		movq	%rax, %rdi
 8190 0138 E8000000 		call	_ZN8UnitTest11TestResults13OnTestFailureERKNS_11TestDetailsEPKc@PLT
 8190      00
 8191              	.LEHE219:
  50:../Checks.h   ****         stream << "Expected " << expected << " +/- " << tolerance << " but was " << actual;
 8192              		.loc 6 50 0
 8193 013d 488D8550 		leaq	-432(%rbp), %rax
 8193      FEFFFF
 8194 0144 4889C7   		movq	%rax, %rdi
 8195              	.LEHB220:
 8196 0147 E8000000 		call	_ZN8UnitTest15MemoryOutStreamD1Ev
 8196      00
 8197              	.LEHE220:
 8198              	.LBE43:
 8199              	.LBE42:
  54:../Checks.h   ****     }
  55:../Checks.h   **** }
 8200              		.loc 6 55 0
 8201 014c EB1D     		jmp	.L388
 8202              	.L387:
 8203 014e 4889C3   		movq	%rax, %rbx
 8204              	.LBB45:
 8205              	.LBB44:
  50:../Checks.h   ****         stream << "Expected " << expected << " +/- " << tolerance << " but was " << actual;
 8206              		.loc 6 50 0
 8207 0151 488D8550 		leaq	-432(%rbp), %rax
 8207      FEFFFF
 8208 0158 4889C7   		movq	%rax, %rdi
 8209 015b E8000000 		call	_ZN8UnitTest15MemoryOutStreamD1Ev
 8209      00
 8210 0160 4889D8   		movq	%rbx, %rax
 8211 0163 4889C7   		movq	%rax, %rdi
 8212              	.LEHB221:
 8213 0166 E8000000 		call	_Unwind_Resume@PLT
 8213      00
 8214              	.LEHE221:
 8215              	.L388:
 8216              	.LBE44:
 8217              	.LBE45:
 8218              		.loc 6 55 0
 8219 016b 90       		nop
 8220 016c 488B45E8 		movq	-24(%rbp), %rax
 8221 0170 64483304 		xorq	%fs:40, %rax
 8221      25280000 
 8221      00
 8222 0179 7405     		je	.L386
 8223 017b E8000000 		call	__stack_chk_fail@PLT
 8223      00
 8224              	.L386:
 8225 0180 4881C4D8 		addq	$472, %rsp
 8225      010000
 8226 0187 5B       		popq	%rbx
 8227 0188 5D       		popq	%rbp
 8228              		.cfi_def_cfa 7, 8
 8229 0189 C3       		ret
 8230              		.cfi_endproc
 8231              	.LFE1236:
 8232              		.section	.gcc_except_table
 8233              	.LLSDA1236:
 8234 0628 FF       		.byte	0xff
 8235 0629 FF       		.byte	0xff
 8236 062a 01       		.byte	0x1
 8237 062b 15       		.uleb128 .LLSDACSE1236-.LLSDACSB1236
 8238              	.LLSDACSB1236:
 8239 062c 73       		.uleb128 .LEHB218-.LFB1236
 8240 062d 05       		.uleb128 .LEHE218-.LEHB218
 8241 062e 00       		.uleb128 0
 8242 062f 00       		.uleb128 0
 8243 0630 8901     		.uleb128 .LEHB219-.LFB1236
 8244 0632 B401     		.uleb128 .LEHE219-.LEHB219
 8245 0634 CE02     		.uleb128 .L387-.LFB1236
 8246 0636 00       		.uleb128 0
 8247 0637 C702     		.uleb128 .LEHB220-.LFB1236
 8248 0639 05       		.uleb128 .LEHE220-.LEHB220
 8249 063a 00       		.uleb128 0
 8250 063b 00       		.uleb128 0
 8251 063c E602     		.uleb128 .LEHB221-.LFB1236
 8252 063e 05       		.uleb128 .LEHE221-.LEHB221
 8253 063f 00       		.uleb128 0
 8254 0640 00       		.uleb128 0
 8255              	.LLSDACSE1236:
 8256              		.section	.text._ZN8UnitTest10CheckCloseIfffEEvRNS_11TestResultsERKT_RKT0_RKT1_RKNS_11TestDetailsE,
 8258              		.section	.text._ZN8UnitTest10CheckCloseIffiEEvRNS_11TestResultsERKT_RKT0_RKT1_RKNS_11TestDetailsE,
 8259              		.weak	_ZN8UnitTest10CheckCloseIffiEEvRNS_11TestResultsERKT_RKT0_RKT1_RKNS_11TestDetailsE
 8261              	_ZN8UnitTest10CheckCloseIffiEEvRNS_11TestResultsERKT_RKT0_RKT1_RKNS_11TestDetailsE:
 8262              	.LFB1237:
  45:../Checks.h   ****                 TestDetails const& details)
 8263              		.loc 6 45 0
 8264              		.cfi_startproc
 8265              		.cfi_personality 0x9b,DW.ref.__gxx_personality_v0
 8266              		.cfi_lsda 0x1b,.LLSDA1237
 8267 0000 55       		pushq	%rbp
 8268              		.cfi_def_cfa_offset 16
 8269              		.cfi_offset 6, -16
 8270 0001 4889E5   		movq	%rsp, %rbp
 8271              		.cfi_def_cfa_register 6
 8272 0004 53       		pushq	%rbx
 8273 0005 4881ECD8 		subq	$472, %rsp
 8273      010000
 8274              		.cfi_offset 3, -24
 8275 000c 4889BD48 		movq	%rdi, -440(%rbp)
 8275      FEFFFF
 8276 0013 4889B540 		movq	%rsi, -448(%rbp)
 8276      FEFFFF
 8277 001a 48899538 		movq	%rdx, -456(%rbp)
 8277      FEFFFF
 8278 0021 48898D30 		movq	%rcx, -464(%rbp)
 8278      FEFFFF
 8279 0028 4C898528 		movq	%r8, -472(%rbp)
 8279      FEFFFF
  45:../Checks.h   ****                 TestDetails const& details)
 8280              		.loc 6 45 0
 8281 002f 64488B04 		movq	%fs:40, %rax
 8281      25280000 
 8281      00
 8282 0038 488945E8 		movq	%rax, -24(%rbp)
 8283 003c 31C0     		xorl	%eax, %eax
 8284              	.LBB46:
  48:../Checks.h   ****     { 
 8285              		.loc 6 48 0
 8286 003e 488B9530 		movq	-464(%rbp), %rdx
 8286      FEFFFF
 8287 0045 488B8D38 		movq	-456(%rbp), %rcx
 8287      FEFFFF
 8288 004c 488B8540 		movq	-448(%rbp), %rax
 8288      FEFFFF
 8289 0053 4889CE   		movq	%rcx, %rsi
 8290 0056 4889C7   		movq	%rax, %rdi
 8291 0059 E8000000 		call	_ZN8UnitTest8AreCloseIffiEEbRKT_RKT0_RKT1_
 8291      00
 8292 005e 83F001   		xorl	$1, %eax
 8293 0061 84C0     		testb	%al, %al
 8294 0063 0F84F600 		je	.L394
 8294      0000
 8295              	.LBB47:
  50:../Checks.h   ****         stream << "Expected " << expected << " +/- " << tolerance << " but was " << actual;
 8296              		.loc 6 50 0
 8297 0069 488D8550 		leaq	-432(%rbp), %rax
 8297      FEFFFF
 8298 0070 4889C7   		movq	%rax, %rdi
 8299              	.LEHB222:
 8300 0073 E8000000 		call	_ZN8UnitTest15MemoryOutStreamC1Ev
 8300      00
 8301              	.LEHE222:
  51:../Checks.h   **** 
 8302              		.loc 6 51 0
 8303 0078 488D8550 		leaq	-432(%rbp), %rax
 8303      FEFFFF
 8304 007f 488D3500 		leaq	.LC96(%rip), %rsi
 8304      000000
 8305 0086 4889C7   		movq	%rax, %rdi
 8306              	.LEHB223:
 8307 0089 E8000000 		call	_ZStlsISt11char_traitsIcEERSt13basic_ostreamIcT_ES5_PKc@PLT
 8307      00
 8308 008e 4889C2   		movq	%rax, %rdx
 8309 0091 488B8540 		movq	-448(%rbp), %rax
 8309      FEFFFF
 8310 0098 8B00     		movl	(%rax), %eax
 8311 009a 898524FE 		movl	%eax, -476(%rbp)
 8311      FFFF
 8312 00a0 F30F1085 		movss	-476(%rbp), %xmm0
 8312      24FEFFFF 
 8313 00a8 4889D7   		movq	%rdx, %rdi
 8314 00ab E8000000 		call	_ZNSolsEf@PLT
 8314      00
  51:../Checks.h   **** 
 8315              		.loc 6 51 0 is_stmt 0 discriminator 1
 8316 00b0 488D3500 		leaq	.LC98(%rip), %rsi
 8316      000000
 8317 00b7 4889C7   		movq	%rax, %rdi
 8318 00ba E8000000 		call	_ZStlsISt11char_traitsIcEERSt13basic_ostreamIcT_ES5_PKc@PLT
 8318      00
  51:../Checks.h   **** 
 8319              		.loc 6 51 0 discriminator 2
 8320 00bf 4889C2   		movq	%rax, %rdx
 8321 00c2 488B8530 		movq	-464(%rbp), %rax
 8321      FEFFFF
 8322 00c9 8B00     		movl	(%rax), %eax
 8323 00cb 89C6     		movl	%eax, %esi
 8324 00cd 4889D7   		movq	%rdx, %rdi
 8325 00d0 E8000000 		call	_ZNSolsEi@PLT
 8325      00
  51:../Checks.h   **** 
 8326              		.loc 6 51 0 discriminator 3
 8327 00d5 488D3500 		leaq	.LC97(%rip), %rsi
 8327      000000
 8328 00dc 4889C7   		movq	%rax, %rdi
 8329 00df E8000000 		call	_ZStlsISt11char_traitsIcEERSt13basic_ostreamIcT_ES5_PKc@PLT
 8329      00
  51:../Checks.h   **** 
 8330              		.loc 6 51 0 discriminator 4
 8331 00e4 4889C2   		movq	%rax, %rdx
 8332 00e7 488B8538 		movq	-456(%rbp), %rax
 8332      FEFFFF
 8333 00ee 8B00     		movl	(%rax), %eax
 8334 00f0 898524FE 		movl	%eax, -476(%rbp)
 8334      FFFF
 8335 00f6 F30F1085 		movss	-476(%rbp), %xmm0
 8335      24FEFFFF 
 8336 00fe 4889D7   		movq	%rdx, %rdi
 8337 0101 E8000000 		call	_ZNSolsEf@PLT
 8337      00
  53:../Checks.h   ****     }
 8338              		.loc 6 53 0 is_stmt 1
 8339 0106 488D8550 		leaq	-432(%rbp), %rax
 8339      FEFFFF
 8340 010d 4889C7   		movq	%rax, %rdi
 8341 0110 E8000000 		call	_ZNK8UnitTest15MemoryOutStream7GetTextEv@PLT
 8341      00
 8342 0115 4889C2   		movq	%rax, %rdx
 8343 0118 488B8D28 		movq	-472(%rbp), %rcx
 8343      FEFFFF
 8344 011f 488B8548 		movq	-440(%rbp), %rax
 8344      FEFFFF
 8345 0126 4889CE   		movq	%rcx, %rsi
 8346 0129 4889C7   		movq	%rax, %rdi
 8347 012c E8000000 		call	_ZN8UnitTest11TestResults13OnTestFailureERKNS_11TestDetailsEPKc@PLT
 8347      00
 8348              	.LEHE223:
  50:../Checks.h   ****         stream << "Expected " << expected << " +/- " << tolerance << " but was " << actual;
 8349              		.loc 6 50 0
 8350 0131 488D8550 		leaq	-432(%rbp), %rax
 8350      FEFFFF
 8351 0138 4889C7   		movq	%rax, %rdi
 8352              	.LEHB224:
 8353 013b E8000000 		call	_ZN8UnitTest15MemoryOutStreamD1Ev
 8353      00
 8354              	.LEHE224:
 8355              	.LBE47:
 8356              	.LBE46:
 8357              		.loc 6 55 0
 8358 0140 EB1D     		jmp	.L394
 8359              	.L393:
 8360 0142 4889C3   		movq	%rax, %rbx
 8361              	.LBB49:
 8362              	.LBB48:
  50:../Checks.h   ****         stream << "Expected " << expected << " +/- " << tolerance << " but was " << actual;
 8363              		.loc 6 50 0
 8364 0145 488D8550 		leaq	-432(%rbp), %rax
 8364      FEFFFF
 8365 014c 4889C7   		movq	%rax, %rdi
 8366 014f E8000000 		call	_ZN8UnitTest15MemoryOutStreamD1Ev
 8366      00
 8367 0154 4889D8   		movq	%rbx, %rax
 8368 0157 4889C7   		movq	%rax, %rdi
 8369              	.LEHB225:
 8370 015a E8000000 		call	_Unwind_Resume@PLT
 8370      00
 8371              	.LEHE225:
 8372              	.L394:
 8373              	.LBE48:
 8374              	.LBE49:
 8375              		.loc 6 55 0
 8376 015f 90       		nop
 8377 0160 488B45E8 		movq	-24(%rbp), %rax
 8378 0164 64483304 		xorq	%fs:40, %rax
 8378      25280000 
 8378      00
 8379 016d 7405     		je	.L392
 8380 016f E8000000 		call	__stack_chk_fail@PLT
 8380      00
 8381              	.L392:
 8382 0174 4881C4D8 		addq	$472, %rsp
 8382      010000
 8383 017b 5B       		popq	%rbx
 8384 017c 5D       		popq	%rbp
 8385              		.cfi_def_cfa 7, 8
 8386 017d C3       		ret
 8387              		.cfi_endproc
 8388              	.LFE1237:
 8389              		.section	.gcc_except_table
 8390              	.LLSDA1237:
 8391 0641 FF       		.byte	0xff
 8392 0642 FF       		.byte	0xff
 8393 0643 01       		.byte	0x1
 8394 0644 15       		.uleb128 .LLSDACSE1237-.LLSDACSB1237
 8395              	.LLSDACSB1237:
 8396 0645 73       		.uleb128 .LEHB222-.LFB1237
 8397 0646 05       		.uleb128 .LEHE222-.LEHB222
 8398 0647 00       		.uleb128 0
 8399 0648 00       		.uleb128 0
 8400 0649 8901     		.uleb128 .LEHB223-.LFB1237
 8401 064b A801     		.uleb128 .LEHE223-.LEHB223
 8402 064d C202     		.uleb128 .L393-.LFB1237
 8403 064f 00       		.uleb128 0
 8404 0650 BB02     		.uleb128 .LEHB224-.LFB1237
 8405 0652 05       		.uleb128 .LEHE224-.LEHB224
 8406 0653 00       		.uleb128 0
 8407 0654 00       		.uleb128 0
 8408 0655 DA02     		.uleb128 .LEHB225-.LFB1237
 8409 0657 05       		.uleb128 .LEHE225-.LEHB225
 8410 0658 00       		.uleb128 0
 8411 0659 00       		.uleb128 0
 8412              	.LLSDACSE1237:
 8413              		.section	.text._ZN8UnitTest10CheckCloseIffiEEvRNS_11TestResultsERKT_RKT0_RKT1_RKNS_11TestDetailsE,
 8415              		.section	.text._ZN8UnitTest10CheckCloseIiifEEvRNS_11TestResultsERKT_RKT0_RKT1_RKNS_11TestDetailsE,
 8416              		.weak	_ZN8UnitTest10CheckCloseIiifEEvRNS_11TestResultsERKT_RKT0_RKT1_RKNS_11TestDetailsE
 8418              	_ZN8UnitTest10CheckCloseIiifEEvRNS_11TestResultsERKT_RKT0_RKT1_RKNS_11TestDetailsE:
 8419              	.LFB1238:
  45:../Checks.h   ****                 TestDetails const& details)
 8420              		.loc 6 45 0
 8421              		.cfi_startproc
 8422              		.cfi_personality 0x9b,DW.ref.__gxx_personality_v0
 8423              		.cfi_lsda 0x1b,.LLSDA1238
 8424 0000 55       		pushq	%rbp
 8425              		.cfi_def_cfa_offset 16
 8426              		.cfi_offset 6, -16
 8427 0001 4889E5   		movq	%rsp, %rbp
 8428              		.cfi_def_cfa_register 6
 8429 0004 53       		pushq	%rbx
 8430 0005 4881ECD8 		subq	$472, %rsp
 8430      010000
 8431              		.cfi_offset 3, -24
 8432 000c 4889BD48 		movq	%rdi, -440(%rbp)
 8432      FEFFFF
 8433 0013 4889B540 		movq	%rsi, -448(%rbp)
 8433      FEFFFF
 8434 001a 48899538 		movq	%rdx, -456(%rbp)
 8434      FEFFFF
 8435 0021 48898D30 		movq	%rcx, -464(%rbp)
 8435      FEFFFF
 8436 0028 4C898528 		movq	%r8, -472(%rbp)
 8436      FEFFFF
  45:../Checks.h   ****                 TestDetails const& details)
 8437              		.loc 6 45 0
 8438 002f 64488B04 		movq	%fs:40, %rax
 8438      25280000 
 8438      00
 8439 0038 488945E8 		movq	%rax, -24(%rbp)
 8440 003c 31C0     		xorl	%eax, %eax
 8441              	.LBB50:
  48:../Checks.h   ****     { 
 8442              		.loc 6 48 0
 8443 003e 488B9530 		movq	-464(%rbp), %rdx
 8443      FEFFFF
 8444 0045 488B8D38 		movq	-456(%rbp), %rcx
 8444      FEFFFF
 8445 004c 488B8540 		movq	-448(%rbp), %rax
 8445      FEFFFF
 8446 0053 4889CE   		movq	%rcx, %rsi
 8447 0056 4889C7   		movq	%rax, %rdi
 8448 0059 E8000000 		call	_ZN8UnitTest8AreCloseIiifEEbRKT_RKT0_RKT1_
 8448      00
 8449 005e 83F001   		xorl	$1, %eax
 8450 0061 84C0     		testb	%al, %al
 8451 0063 0F84EA00 		je	.L400
 8451      0000
 8452              	.LBB51:
  50:../Checks.h   ****         stream << "Expected " << expected << " +/- " << tolerance << " but was " << actual;
 8453              		.loc 6 50 0
 8454 0069 488D8550 		leaq	-432(%rbp), %rax
 8454      FEFFFF
 8455 0070 4889C7   		movq	%rax, %rdi
 8456              	.LEHB226:
 8457 0073 E8000000 		call	_ZN8UnitTest15MemoryOutStreamC1Ev
 8457      00
 8458              	.LEHE226:
  51:../Checks.h   **** 
 8459              		.loc 6 51 0
 8460 0078 488D8550 		leaq	-432(%rbp), %rax
 8460      FEFFFF
 8461 007f 488D3500 		leaq	.LC96(%rip), %rsi
 8461      000000
 8462 0086 4889C7   		movq	%rax, %rdi
 8463              	.LEHB227:
 8464 0089 E8000000 		call	_ZStlsISt11char_traitsIcEERSt13basic_ostreamIcT_ES5_PKc@PLT
 8464      00
 8465 008e 4889C2   		movq	%rax, %rdx
 8466 0091 488B8540 		movq	-448(%rbp), %rax
 8466      FEFFFF
 8467 0098 8B00     		movl	(%rax), %eax
 8468 009a 89C6     		movl	%eax, %esi
 8469 009c 4889D7   		movq	%rdx, %rdi
 8470 009f E8000000 		call	_ZNSolsEi@PLT
 8470      00
  51:../Checks.h   **** 
 8471              		.loc 6 51 0 is_stmt 0 discriminator 1
 8472 00a4 488D3500 		leaq	.LC98(%rip), %rsi
 8472      000000
 8473 00ab 4889C7   		movq	%rax, %rdi
 8474 00ae E8000000 		call	_ZStlsISt11char_traitsIcEERSt13basic_ostreamIcT_ES5_PKc@PLT
 8474      00
  51:../Checks.h   **** 
 8475              		.loc 6 51 0 discriminator 2
 8476 00b3 4889C2   		movq	%rax, %rdx
 8477 00b6 488B8530 		movq	-464(%rbp), %rax
 8477      FEFFFF
 8478 00bd 8B00     		movl	(%rax), %eax
 8479 00bf 898524FE 		movl	%eax, -476(%rbp)
 8479      FFFF
 8480 00c5 F30F1085 		movss	-476(%rbp), %xmm0
 8480      24FEFFFF 
 8481 00cd 4889D7   		movq	%rdx, %rdi
 8482 00d0 E8000000 		call	_ZNSolsEf@PLT
 8482      00
  51:../Checks.h   **** 
 8483              		.loc 6 51 0 discriminator 3
 8484 00d5 488D3500 		leaq	.LC97(%rip), %rsi
 8484      000000
 8485 00dc 4889C7   		movq	%rax, %rdi
 8486 00df E8000000 		call	_ZStlsISt11char_traitsIcEERSt13basic_ostreamIcT_ES5_PKc@PLT
 8486      00
  51:../Checks.h   **** 
 8487              		.loc 6 51 0 discriminator 4
 8488 00e4 4889C2   		movq	%rax, %rdx
 8489 00e7 488B8538 		movq	-456(%rbp), %rax
 8489      FEFFFF
 8490 00ee 8B00     		movl	(%rax), %eax
 8491 00f0 89C6     		movl	%eax, %esi
 8492 00f2 4889D7   		movq	%rdx, %rdi
 8493 00f5 E8000000 		call	_ZNSolsEi@PLT
 8493      00
  53:../Checks.h   ****     }
 8494              		.loc 6 53 0 is_stmt 1
 8495 00fa 488D8550 		leaq	-432(%rbp), %rax
 8495      FEFFFF
 8496 0101 4889C7   		movq	%rax, %rdi
 8497 0104 E8000000 		call	_ZNK8UnitTest15MemoryOutStream7GetTextEv@PLT
 8497      00
 8498 0109 4889C2   		movq	%rax, %rdx
 8499 010c 488B8D28 		movq	-472(%rbp), %rcx
 8499      FEFFFF
 8500 0113 488B8548 		movq	-440(%rbp), %rax
 8500      FEFFFF
 8501 011a 4889CE   		movq	%rcx, %rsi
 8502 011d 4889C7   		movq	%rax, %rdi
 8503 0120 E8000000 		call	_ZN8UnitTest11TestResults13OnTestFailureERKNS_11TestDetailsEPKc@PLT
 8503      00
 8504              	.LEHE227:
  50:../Checks.h   ****         stream << "Expected " << expected << " +/- " << tolerance << " but was " << actual;
 8505              		.loc 6 50 0
 8506 0125 488D8550 		leaq	-432(%rbp), %rax
 8506      FEFFFF
 8507 012c 4889C7   		movq	%rax, %rdi
 8508              	.LEHB228:
 8509 012f E8000000 		call	_ZN8UnitTest15MemoryOutStreamD1Ev
 8509      00
 8510              	.LEHE228:
 8511              	.LBE51:
 8512              	.LBE50:
 8513              		.loc 6 55 0
 8514 0134 EB1D     		jmp	.L400
 8515              	.L399:
 8516 0136 4889C3   		movq	%rax, %rbx
 8517              	.LBB53:
 8518              	.LBB52:
  50:../Checks.h   ****         stream << "Expected " << expected << " +/- " << tolerance << " but was " << actual;
 8519              		.loc 6 50 0
 8520 0139 488D8550 		leaq	-432(%rbp), %rax
 8520      FEFFFF
 8521 0140 4889C7   		movq	%rax, %rdi
 8522 0143 E8000000 		call	_ZN8UnitTest15MemoryOutStreamD1Ev
 8522      00
 8523 0148 4889D8   		movq	%rbx, %rax
 8524 014b 4889C7   		movq	%rax, %rdi
 8525              	.LEHB229:
 8526 014e E8000000 		call	_Unwind_Resume@PLT
 8526      00
 8527              	.LEHE229:
 8528              	.L400:
 8529              	.LBE52:
 8530              	.LBE53:
 8531              		.loc 6 55 0
 8532 0153 90       		nop
 8533 0154 488B45E8 		movq	-24(%rbp), %rax
 8534 0158 64483304 		xorq	%fs:40, %rax
 8534      25280000 
 8534      00
 8535 0161 7405     		je	.L398
 8536 0163 E8000000 		call	__stack_chk_fail@PLT
 8536      00
 8537              	.L398:
 8538 0168 4881C4D8 		addq	$472, %rsp
 8538      010000
 8539 016f 5B       		popq	%rbx
 8540 0170 5D       		popq	%rbp
 8541              		.cfi_def_cfa 7, 8
 8542 0171 C3       		ret
 8543              		.cfi_endproc
 8544              	.LFE1238:
 8545              		.section	.gcc_except_table
 8546              	.LLSDA1238:
 8547 065a FF       		.byte	0xff
 8548 065b FF       		.byte	0xff
 8549 065c 01       		.byte	0x1
 8550 065d 15       		.uleb128 .LLSDACSE1238-.LLSDACSB1238
 8551              	.LLSDACSB1238:
 8552 065e 73       		.uleb128 .LEHB226-.LFB1238
 8553 065f 05       		.uleb128 .LEHE226-.LEHB226
 8554 0660 00       		.uleb128 0
 8555 0661 00       		.uleb128 0
 8556 0662 8901     		.uleb128 .LEHB227-.LFB1238
 8557 0664 9C01     		.uleb128 .LEHE227-.LEHB227
 8558 0666 B602     		.uleb128 .L399-.LFB1238
 8559 0668 00       		.uleb128 0
 8560 0669 AF02     		.uleb128 .LEHB228-.LFB1238
 8561 066b 05       		.uleb128 .LEHE228-.LEHB228
 8562 066c 00       		.uleb128 0
 8563 066d 00       		.uleb128 0
 8564 066e CE02     		.uleb128 .LEHB229-.LFB1238
 8565 0670 05       		.uleb128 .LEHE229-.LEHB229
 8566 0671 00       		.uleb128 0
 8567 0672 00       		.uleb128 0
 8568              	.LLSDACSE1238:
 8569              		.section	.text._ZN8UnitTest10CheckCloseIiifEEvRNS_11TestResultsERKT_RKT0_RKT1_RKNS_11TestDetailsE,
 8571              		.section	.rodata
 8572              	.LC99:
 8573 0bc4 45787065 		.string	"Expected [ "
 8573      63746564 
 8573      205B2000 
 8574              	.LC100:
 8575 0bd0 2000     		.string	" "
 8576              	.LC101:
 8577 0bd2 5D206275 		.string	"] but was [ "
 8577      74207761 
 8577      73205B20 
 8577      00
 8578              	.LC102:
 8579 0bdf 5D00     		.string	"]"
 8580              		.section	.text._ZN8UnitTest15CheckArrayEqualIA3_iS1_EEvRNS_11TestResultsERKT_RKT0_iRKNS_11TestDeta
 8581              		.weak	_ZN8UnitTest15CheckArrayEqualIA3_iS1_EEvRNS_11TestResultsERKT_RKT0_iRKNS_11TestDetailsE
 8583              	_ZN8UnitTest15CheckArrayEqualIA3_iS1_EEvRNS_11TestResultsERKT_RKT0_iRKNS_11TestDetailsE:
 8584              	.LFB1239:
  56:../Checks.h   **** 
  57:../Checks.h   **** 
  58:../Checks.h   **** template< typename Expected, typename Actual >
  59:../Checks.h   **** void CheckArrayEqual(TestResults& results, Expected const& expected, Actual const& actual,
 8585              		.loc 6 59 0
 8586              		.cfi_startproc
 8587              		.cfi_personality 0x9b,DW.ref.__gxx_personality_v0
 8588              		.cfi_lsda 0x1b,.LLSDA1239
 8589 0000 55       		pushq	%rbp
 8590              		.cfi_def_cfa_offset 16
 8591              		.cfi_offset 6, -16
 8592 0001 4889E5   		movq	%rsp, %rbp
 8593              		.cfi_def_cfa_register 6
 8594 0004 53       		pushq	%rbx
 8595 0005 4881ECE8 		subq	$488, %rsp
 8595      010000
 8596              		.cfi_offset 3, -24
 8597 000c 4889BD38 		movq	%rdi, -456(%rbp)
 8597      FEFFFF
 8598 0013 4889B530 		movq	%rsi, -464(%rbp)
 8598      FEFFFF
 8599 001a 48899528 		movq	%rdx, -472(%rbp)
 8599      FEFFFF
 8600 0021 898D24FE 		movl	%ecx, -476(%rbp)
 8600      FFFF
 8601 0027 4C898518 		movq	%r8, -488(%rbp)
 8601      FEFFFF
 8602              		.loc 6 59 0
 8603 002e 64488B04 		movq	%fs:40, %rax
 8603      25280000 
 8603      00
 8604 0037 488945E8 		movq	%rax, -24(%rbp)
 8605 003b 31C0     		xorl	%eax, %eax
  60:../Checks.h   ****                 int const count, TestDetails const& details)
  61:../Checks.h   **** {
  62:../Checks.h   ****     bool equal = true;
 8606              		.loc 6 62 0
 8607 003d C68543FE 		movb	$1, -445(%rbp)
 8607      FFFF01
 8608              	.LBB54:
  63:../Checks.h   ****     for (int i = 0; i < count; ++i)
 8609              		.loc 6 63 0
 8610 0044 C78544FE 		movl	$0, -444(%rbp)
 8610      FFFF0000 
 8610      0000
 8611              	.L403:
 8612              		.loc 6 63 0 is_stmt 0 discriminator 3
 8613 004e 8B8544FE 		movl	-444(%rbp), %eax
 8613      FFFF
 8614 0054 3B8524FE 		cmpl	-476(%rbp), %eax
 8614      FFFF
 8615 005a 7D4B     		jge	.L402
  64:../Checks.h   ****         equal &= (expected[i] == actual[i]);
 8616              		.loc 6 64 0 is_stmt 1 discriminator 2
 8617 005c 0FB68D43 		movzbl	-445(%rbp), %ecx
 8617      FEFFFF
 8618 0063 488B8530 		movq	-464(%rbp), %rax
 8618      FEFFFF
 8619 006a 8B9544FE 		movl	-444(%rbp), %edx
 8619      FFFF
 8620 0070 4863D2   		movslq	%edx, %rdx
 8621 0073 8B3490   		movl	(%rax,%rdx,4), %esi
 8622 0076 488B8528 		movq	-472(%rbp), %rax
 8622      FEFFFF
 8623 007d 8B9544FE 		movl	-444(%rbp), %edx
 8623      FFFF
 8624 0083 4863D2   		movslq	%edx, %rdx
 8625 0086 8B0490   		movl	(%rax,%rdx,4), %eax
 8626 0089 39C6     		cmpl	%eax, %esi
 8627 008b 0F94C0   		sete	%al
 8628 008e 0FB6C0   		movzbl	%al, %eax
 8629 0091 21C8     		andl	%ecx, %eax
 8630 0093 85C0     		testl	%eax, %eax
 8631 0095 0F95C0   		setne	%al
 8632 0098 888543FE 		movb	%al, -445(%rbp)
 8632      FFFF
  63:../Checks.h   ****     for (int i = 0; i < count; ++i)
 8633              		.loc 6 63 0 discriminator 2
 8634 009e 838544FE 		addl	$1, -444(%rbp)
 8634      FFFF01
 8635 00a5 EBA7     		jmp	.L403
 8636              	.L402:
 8637              	.LBE54:
 8638              	.LBB55:
  65:../Checks.h   **** 
  66:../Checks.h   ****     if (!equal)
 8639              		.loc 6 66 0
 8640 00a7 0FB68543 		movzbl	-445(%rbp), %eax
 8640      FEFFFF
 8641 00ae 83F001   		xorl	$1, %eax
 8642 00b1 84C0     		testb	%al, %al
 8643 00b3 0F845201 		je	.L412
 8643      0000
 8644              	.LBB56:
  67:../Checks.h   ****     {
  68:../Checks.h   ****         UnitTest::MemoryOutStream stream;
 8645              		.loc 6 68 0
 8646 00b9 488D8550 		leaq	-432(%rbp), %rax
 8646      FEFFFF
 8647 00c0 4889C7   		movq	%rax, %rdi
 8648              	.LEHB230:
 8649 00c3 E8000000 		call	_ZN8UnitTest15MemoryOutStreamC1Ev
 8649      00
 8650              	.LEHE230:
  69:../Checks.h   **** 
  70:../Checks.h   **** 		stream << "Expected [ ";
 8651              		.loc 6 70 0
 8652 00c8 488D8550 		leaq	-432(%rbp), %rax
 8652      FEFFFF
 8653 00cf 488D3500 		leaq	.LC99(%rip), %rsi
 8653      000000
 8654 00d6 4889C7   		movq	%rax, %rdi
 8655              	.LEHB231:
 8656 00d9 E8000000 		call	_ZStlsISt11char_traitsIcEERSt13basic_ostreamIcT_ES5_PKc@PLT
 8656      00
 8657              	.LBB57:
  71:../Checks.h   **** 
  72:../Checks.h   **** 		for (int expectedIndex = 0; expectedIndex < count; ++expectedIndex)
 8658              		.loc 6 72 0
 8659 00de C78548FE 		movl	$0, -440(%rbp)
 8659      FFFF0000 
 8659      0000
 8660              	.L406:
 8661              		.loc 6 72 0 is_stmt 0 discriminator 1
 8662 00e8 8B8548FE 		movl	-440(%rbp), %eax
 8662      FFFF
 8663 00ee 3B8524FE 		cmpl	-476(%rbp), %eax
 8663      FFFF
 8664 00f4 7D3C     		jge	.L405
  73:../Checks.h   ****             stream << expected[expectedIndex] << " ";
 8665              		.loc 6 73 0 is_stmt 1
 8666 00f6 488B8530 		movq	-464(%rbp), %rax
 8666      FEFFFF
 8667 00fd 8B9548FE 		movl	-440(%rbp), %edx
 8667      FFFF
 8668 0103 4863D2   		movslq	%edx, %rdx
 8669 0106 8B1490   		movl	(%rax,%rdx,4), %edx
 8670 0109 488D8550 		leaq	-432(%rbp), %rax
 8670      FEFFFF
 8671 0110 89D6     		movl	%edx, %esi
 8672 0112 4889C7   		movq	%rax, %rdi
 8673 0115 E8000000 		call	_ZNSolsEi@PLT
 8673      00
 8674 011a 488D3500 		leaq	.LC100(%rip), %rsi
 8674      000000
 8675 0121 4889C7   		movq	%rax, %rdi
 8676 0124 E8000000 		call	_ZStlsISt11char_traitsIcEERSt13basic_ostreamIcT_ES5_PKc@PLT
 8676      00
  72:../Checks.h   ****             stream << expected[expectedIndex] << " ";
 8677              		.loc 6 72 0 discriminator 2
 8678 0129 838548FE 		addl	$1, -440(%rbp)
 8678      FFFF01
 8679 0130 EBB6     		jmp	.L406
 8680              	.L405:
 8681              	.LBE57:
  74:../Checks.h   **** 
  75:../Checks.h   **** 		stream << "] but was [ ";
 8682              		.loc 6 75 0
 8683 0132 488D8550 		leaq	-432(%rbp), %rax
 8683      FEFFFF
 8684 0139 488D3500 		leaq	.LC101(%rip), %rsi
 8684      000000
 8685 0140 4889C7   		movq	%rax, %rdi
 8686 0143 E8000000 		call	_ZStlsISt11char_traitsIcEERSt13basic_ostreamIcT_ES5_PKc@PLT
 8686      00
 8687              	.LBB58:
  76:../Checks.h   **** 
  77:../Checks.h   **** 		for (int actualIndex = 0; actualIndex < count; ++actualIndex)
 8688              		.loc 6 77 0
 8689 0148 C7854CFE 		movl	$0, -436(%rbp)
 8689      FFFF0000 
 8689      0000
 8690              	.L408:
 8691              		.loc 6 77 0 is_stmt 0 discriminator 1
 8692 0152 8B854CFE 		movl	-436(%rbp), %eax
 8692      FFFF
 8693 0158 3B8524FE 		cmpl	-476(%rbp), %eax
 8693      FFFF
 8694 015e 7D3C     		jge	.L407
  78:../Checks.h   ****             stream << actual[actualIndex] << " ";
 8695              		.loc 6 78 0 is_stmt 1
 8696 0160 488B8528 		movq	-472(%rbp), %rax
 8696      FEFFFF
 8697 0167 8B954CFE 		movl	-436(%rbp), %edx
 8697      FFFF
 8698 016d 4863D2   		movslq	%edx, %rdx
 8699 0170 8B1490   		movl	(%rax,%rdx,4), %edx
 8700 0173 488D8550 		leaq	-432(%rbp), %rax
 8700      FEFFFF
 8701 017a 89D6     		movl	%edx, %esi
 8702 017c 4889C7   		movq	%rax, %rdi
 8703 017f E8000000 		call	_ZNSolsEi@PLT
 8703      00
 8704 0184 488D3500 		leaq	.LC100(%rip), %rsi
 8704      000000
 8705 018b 4889C7   		movq	%rax, %rdi
 8706 018e E8000000 		call	_ZStlsISt11char_traitsIcEERSt13basic_ostreamIcT_ES5_PKc@PLT
 8706      00
  77:../Checks.h   ****             stream << actual[actualIndex] << " ";
 8707              		.loc 6 77 0 discriminator 2
 8708 0193 83854CFE 		addl	$1, -436(%rbp)
 8708      FFFF01
 8709 019a EBB6     		jmp	.L408
 8710              	.L407:
 8711              	.LBE58:
  79:../Checks.h   **** 
  80:../Checks.h   **** 		stream << "]";
 8712              		.loc 6 80 0
 8713 019c 488D8550 		leaq	-432(%rbp), %rax
 8713      FEFFFF
 8714 01a3 488D3500 		leaq	.LC102(%rip), %rsi
 8714      000000
 8715 01aa 4889C7   		movq	%rax, %rdi
 8716 01ad E8000000 		call	_ZStlsISt11char_traitsIcEERSt13basic_ostreamIcT_ES5_PKc@PLT
 8716      00
  81:../Checks.h   **** 
  82:../Checks.h   ****         results.OnTestFailure(details, stream.GetText());
 8717              		.loc 6 82 0
 8718 01b2 488D8550 		leaq	-432(%rbp), %rax
 8718      FEFFFF
 8719 01b9 4889C7   		movq	%rax, %rdi
 8720 01bc E8000000 		call	_ZNK8UnitTest15MemoryOutStream7GetTextEv@PLT
 8720      00
 8721 01c1 4889C2   		movq	%rax, %rdx
 8722 01c4 488B8D18 		movq	-488(%rbp), %rcx
 8722      FEFFFF
 8723 01cb 488B8538 		movq	-456(%rbp), %rax
 8723      FEFFFF
 8724 01d2 4889CE   		movq	%rcx, %rsi
 8725 01d5 4889C7   		movq	%rax, %rdi
 8726 01d8 E8000000 		call	_ZN8UnitTest11TestResults13OnTestFailureERKNS_11TestDetailsEPKc@PLT
 8726      00
 8727              	.LEHE231:
  68:../Checks.h   **** 
 8728              		.loc 6 68 0
 8729 01dd 488D8550 		leaq	-432(%rbp), %rax
 8729      FEFFFF
 8730 01e4 4889C7   		movq	%rax, %rdi
 8731              	.LEHB232:
 8732 01e7 E8000000 		call	_ZN8UnitTest15MemoryOutStreamD1Ev
 8732      00
 8733              	.LEHE232:
 8734              	.LBE56:
 8735              	.LBE55:
  83:../Checks.h   ****     }
  84:../Checks.h   **** }
 8736              		.loc 6 84 0
 8737 01ec EB1D     		jmp	.L412
 8738              	.L411:
 8739 01ee 4889C3   		movq	%rax, %rbx
 8740              	.LBB60:
 8741              	.LBB59:
  68:../Checks.h   **** 
 8742              		.loc 6 68 0
 8743 01f1 488D8550 		leaq	-432(%rbp), %rax
 8743      FEFFFF
 8744 01f8 4889C7   		movq	%rax, %rdi
 8745 01fb E8000000 		call	_ZN8UnitTest15MemoryOutStreamD1Ev
 8745      00
 8746 0200 4889D8   		movq	%rbx, %rax
 8747 0203 4889C7   		movq	%rax, %rdi
 8748              	.LEHB233:
 8749 0206 E8000000 		call	_Unwind_Resume@PLT
 8749      00
 8750              	.LEHE233:
 8751              	.L412:
 8752              	.LBE59:
 8753              	.LBE60:
 8754              		.loc 6 84 0
 8755 020b 90       		nop
 8756 020c 488B45E8 		movq	-24(%rbp), %rax
 8757 0210 64483304 		xorq	%fs:40, %rax
 8757      25280000 
 8757      00
 8758 0219 7405     		je	.L410
 8759 021b E8000000 		call	__stack_chk_fail@PLT
 8759      00
 8760              	.L410:
 8761 0220 4881C4E8 		addq	$488, %rsp
 8761      010000
 8762 0227 5B       		popq	%rbx
 8763 0228 5D       		popq	%rbp
 8764              		.cfi_def_cfa 7, 8
 8765 0229 C3       		ret
 8766              		.cfi_endproc
 8767              	.LFE1239:
 8768              		.section	.gcc_except_table
 8769              	.LLSDA1239:
 8770 0673 FF       		.byte	0xff
 8771 0674 FF       		.byte	0xff
 8772 0675 01       		.byte	0x1
 8773 0676 16       		.uleb128 .LLSDACSE1239-.LLSDACSB1239
 8774              	.LLSDACSB1239:
 8775 0677 C301     		.uleb128 .LEHB230-.LFB1239
 8776 0679 05       		.uleb128 .LEHE230-.LEHB230
 8777 067a 00       		.uleb128 0
 8778 067b 00       		.uleb128 0
 8779 067c D901     		.uleb128 .LEHB231-.LFB1239
 8780 067e 8402     		.uleb128 .LEHE231-.LEHB231
 8781 0680 EE03     		.uleb128 .L411-.LFB1239
 8782 0682 00       		.uleb128 0
 8783 0683 E703     		.uleb128 .LEHB232-.LFB1239
 8784 0685 05       		.uleb128 .LEHE232-.LEHB232
 8785 0686 00       		.uleb128 0
 8786 0687 00       		.uleb128 0
 8787 0688 8604     		.uleb128 .LEHB233-.LFB1239
 8788 068a 05       		.uleb128 .LEHE233-.LEHB233
 8789 068b 00       		.uleb128 0
 8790 068c 00       		.uleb128 0
 8791              	.LLSDACSE1239:
 8792              		.section	.text._ZN8UnitTest15CheckArrayEqualIA3_iS1_EEvRNS_11TestResultsERKT_RKT0_iRKNS_11TestDeta
 8794              		.section	.rodata
 8795              	.LC103:
 8796 0be1 5D202B2F 		.string	"] +/- "
 8796      2D2000
 8797              	.LC104:
 8798 0be8 20627574 		.string	" but was [ "
 8798      20776173 
 8798      205B2000 
 8799              		.section	.text._ZN8UnitTest15CheckArrayCloseIA3_fS1_fEEvRNS_11TestResultsERKT_RKT0_iRKT1_RKNS_11Te
 8800              		.weak	_ZN8UnitTest15CheckArrayCloseIA3_fS1_fEEvRNS_11TestResultsERKT_RKT0_iRKT1_RKNS_11TestDetails
 8802              	_ZN8UnitTest15CheckArrayCloseIA3_fS1_fEEvRNS_11TestResultsERKT_RKT0_iRKT1_RKNS_11TestDetailsE:
 8803              	.LFB1240:
  85:../Checks.h   **** 
  86:../Checks.h   **** template< typename Expected, typename Actual, typename Tolerance >
  87:../Checks.h   **** bool ArrayAreClose(Expected const& expected, Actual const& actual, int const count, Tolerance const
  88:../Checks.h   **** {
  89:../Checks.h   ****     bool equal = true;
  90:../Checks.h   ****     for (int i = 0; i < count; ++i)
  91:../Checks.h   ****         equal &= AreClose(expected[i], actual[i], tolerance);
  92:../Checks.h   ****     return equal;
  93:../Checks.h   **** }
  94:../Checks.h   **** 
  95:../Checks.h   **** template< typename Expected, typename Actual, typename Tolerance >
  96:../Checks.h   **** void CheckArrayClose(TestResults& results, Expected const& expected, Actual const& actual,
 8804              		.loc 6 96 0
 8805              		.cfi_startproc
 8806              		.cfi_personality 0x9b,DW.ref.__gxx_personality_v0
 8807              		.cfi_lsda 0x1b,.LLSDA1240
 8808 0000 55       		pushq	%rbp
 8809              		.cfi_def_cfa_offset 16
 8810              		.cfi_offset 6, -16
 8811 0001 4889E5   		movq	%rsp, %rbp
 8812              		.cfi_def_cfa_register 6
 8813 0004 53       		pushq	%rbx
 8814 0005 4881ECE8 		subq	$488, %rsp
 8814      010000
 8815              		.cfi_offset 3, -24
 8816 000c 4889BD38 		movq	%rdi, -456(%rbp)
 8816      FEFFFF
 8817 0013 4889B530 		movq	%rsi, -464(%rbp)
 8817      FEFFFF
 8818 001a 48899528 		movq	%rdx, -472(%rbp)
 8818      FEFFFF
 8819 0021 898D24FE 		movl	%ecx, -476(%rbp)
 8819      FFFF
 8820 0027 4C898518 		movq	%r8, -488(%rbp)
 8820      FEFFFF
 8821 002e 4C898D10 		movq	%r9, -496(%rbp)
 8821      FEFFFF
 8822              		.loc 6 96 0
 8823 0035 64488B04 		movq	%fs:40, %rax
 8823      25280000 
 8823      00
 8824 003e 488945E8 		movq	%rax, -24(%rbp)
 8825 0042 31C0     		xorl	%eax, %eax
  97:../Checks.h   ****                    int const count, Tolerance const& tolerance, TestDetails const& details)
  98:../Checks.h   **** {
  99:../Checks.h   ****     bool equal = ArrayAreClose(expected, actual, count, tolerance);
 8826              		.loc 6 99 0
 8827 0044 488B8D18 		movq	-488(%rbp), %rcx
 8827      FEFFFF
 8828 004b 8B9524FE 		movl	-476(%rbp), %edx
 8828      FFFF
 8829 0051 488BB528 		movq	-472(%rbp), %rsi
 8829      FEFFFF
 8830 0058 488B8530 		movq	-464(%rbp), %rax
 8830      FEFFFF
 8831 005f 4889C7   		movq	%rax, %rdi
 8832 0062 E8000000 		call	_ZN8UnitTest13ArrayAreCloseIA3_fS1_fEEbRKT_RKT0_iRKT1_
 8832      00
 8833 0067 888547FE 		movb	%al, -441(%rbp)
 8833      FFFF
 8834              	.LBB61:
 100:../Checks.h   **** 
 101:../Checks.h   ****     if (!equal)
 8835              		.loc 6 101 0
 8836 006d 0FB68547 		movzbl	-441(%rbp), %eax
 8836      FEFFFF
 8837 0074 83F001   		xorl	$1, %eax
 8838 0077 84C0     		testb	%al, %al
 8839 0079 0F849B01 		je	.L422
 8839      0000
 8840              	.LBB62:
 102:../Checks.h   ****     {
 103:../Checks.h   ****         UnitTest::MemoryOutStream stream;
 8841              		.loc 6 103 0
 8842 007f 488D8550 		leaq	-432(%rbp), %rax
 8842      FEFFFF
 8843 0086 4889C7   		movq	%rax, %rdi
 8844              	.LEHB234:
 8845 0089 E8000000 		call	_ZN8UnitTest15MemoryOutStreamC1Ev
 8845      00
 8846              	.LEHE234:
 104:../Checks.h   **** 
 105:../Checks.h   ****         stream << "Expected [ ";
 8847              		.loc 6 105 0
 8848 008e 488D8550 		leaq	-432(%rbp), %rax
 8848      FEFFFF
 8849 0095 488D3500 		leaq	.LC99(%rip), %rsi
 8849      000000
 8850 009c 4889C7   		movq	%rax, %rdi
 8851              	.LEHB235:
 8852 009f E8000000 		call	_ZStlsISt11char_traitsIcEERSt13basic_ostreamIcT_ES5_PKc@PLT
 8852      00
 8853              	.LBB63:
 106:../Checks.h   ****         for (int expectedIndex = 0; expectedIndex < count; ++expectedIndex)
 8854              		.loc 6 106 0
 8855 00a4 C78548FE 		movl	$0, -440(%rbp)
 8855      FFFF0000 
 8855      0000
 8856              	.L416:
 8857              		.loc 6 106 0 is_stmt 0 discriminator 1
 8858 00ae 8B8548FE 		movl	-440(%rbp), %eax
 8858      FFFF
 8859 00b4 3B8524FE 		cmpl	-476(%rbp), %eax
 8859      FFFF
 8860 00ba 7D48     		jge	.L415
 107:../Checks.h   ****             stream << expected[expectedIndex] << " ";
 8861              		.loc 6 107 0 is_stmt 1
 8862 00bc 488B8530 		movq	-464(%rbp), %rax
 8862      FEFFFF
 8863 00c3 8B9548FE 		movl	-440(%rbp), %edx
 8863      FFFF
 8864 00c9 4863D2   		movslq	%edx, %rdx
 8865 00cc 8B1490   		movl	(%rax,%rdx,4), %edx
 8866 00cf 488D8550 		leaq	-432(%rbp), %rax
 8866      FEFFFF
 8867 00d6 899520FE 		movl	%edx, -480(%rbp)
 8867      FFFF
 8868 00dc F30F1085 		movss	-480(%rbp), %xmm0
 8868      20FEFFFF 
 8869 00e4 4889C7   		movq	%rax, %rdi
 8870 00e7 E8000000 		call	_ZNSolsEf@PLT
 8870      00
 8871 00ec 488D3500 		leaq	.LC100(%rip), %rsi
 8871      000000
 8872 00f3 4889C7   		movq	%rax, %rdi
 8873 00f6 E8000000 		call	_ZStlsISt11char_traitsIcEERSt13basic_ostreamIcT_ES5_PKc@PLT
 8873      00
 106:../Checks.h   ****         for (int expectedIndex = 0; expectedIndex < count; ++expectedIndex)
 8874              		.loc 6 106 0 discriminator 2
 8875 00fb 838548FE 		addl	$1, -440(%rbp)
 8875      FFFF01
 8876 0102 EBAA     		jmp	.L416
 8877              	.L415:
 8878              	.LBE63:
 108:../Checks.h   ****         stream << "] +/- " << tolerance << " but was [ ";
 8879              		.loc 6 108 0
 8880 0104 488D8550 		leaq	-432(%rbp), %rax
 8880      FEFFFF
 8881 010b 488D3500 		leaq	.LC103(%rip), %rsi
 8881      000000
 8882 0112 4889C7   		movq	%rax, %rdi
 8883 0115 E8000000 		call	_ZStlsISt11char_traitsIcEERSt13basic_ostreamIcT_ES5_PKc@PLT
 8883      00
 8884 011a 4889C2   		movq	%rax, %rdx
 8885 011d 488B8518 		movq	-488(%rbp), %rax
 8885      FEFFFF
 8886 0124 8B00     		movl	(%rax), %eax
 8887 0126 898520FE 		movl	%eax, -480(%rbp)
 8887      FFFF
 8888 012c F30F1085 		movss	-480(%rbp), %xmm0
 8888      20FEFFFF 
 8889 0134 4889D7   		movq	%rdx, %rdi
 8890 0137 E8000000 		call	_ZNSolsEf@PLT
 8890      00
 8891              		.loc 6 108 0 is_stmt 0 discriminator 1
 8892 013c 488D3500 		leaq	.LC104(%rip), %rsi
 8892      000000
 8893 0143 4889C7   		movq	%rax, %rdi
 8894 0146 E8000000 		call	_ZStlsISt11char_traitsIcEERSt13basic_ostreamIcT_ES5_PKc@PLT
 8894      00
 8895              	.LBB64:
 109:../Checks.h   **** 
 110:../Checks.h   **** 		for (int actualIndex = 0; actualIndex < count; ++actualIndex)
 8896              		.loc 6 110 0 is_stmt 1
 8897 014b C7854CFE 		movl	$0, -436(%rbp)
 8897      FFFF0000 
 8897      0000
 8898              	.L418:
 8899              		.loc 6 110 0 is_stmt 0 discriminator 1
 8900 0155 8B854CFE 		movl	-436(%rbp), %eax
 8900      FFFF
 8901 015b 3B8524FE 		cmpl	-476(%rbp), %eax
 8901      FFFF
 8902 0161 7D48     		jge	.L417
 111:../Checks.h   ****             stream << actual[actualIndex] << " ";
 8903              		.loc 6 111 0 is_stmt 1
 8904 0163 488B8528 		movq	-472(%rbp), %rax
 8904      FEFFFF
 8905 016a 8B954CFE 		movl	-436(%rbp), %edx
 8905      FFFF
 8906 0170 4863D2   		movslq	%edx, %rdx
 8907 0173 8B1490   		movl	(%rax,%rdx,4), %edx
 8908 0176 488D8550 		leaq	-432(%rbp), %rax
 8908      FEFFFF
 8909 017d 899520FE 		movl	%edx, -480(%rbp)
 8909      FFFF
 8910 0183 F30F1085 		movss	-480(%rbp), %xmm0
 8910      20FEFFFF 
 8911 018b 4889C7   		movq	%rax, %rdi
 8912 018e E8000000 		call	_ZNSolsEf@PLT
 8912      00
 8913 0193 488D3500 		leaq	.LC100(%rip), %rsi
 8913      000000
 8914 019a 4889C7   		movq	%rax, %rdi
 8915 019d E8000000 		call	_ZStlsISt11char_traitsIcEERSt13basic_ostreamIcT_ES5_PKc@PLT
 8915      00
 110:../Checks.h   ****             stream << actual[actualIndex] << " ";
 8916              		.loc 6 110 0 discriminator 2
 8917 01a2 83854CFE 		addl	$1, -436(%rbp)
 8917      FFFF01
 8918 01a9 EBAA     		jmp	.L418
 8919              	.L417:
 8920              	.LBE64:
 112:../Checks.h   ****         stream << "]";
 8921              		.loc 6 112 0
 8922 01ab 488D8550 		leaq	-432(%rbp), %rax
 8922      FEFFFF
 8923 01b2 488D3500 		leaq	.LC102(%rip), %rsi
 8923      000000
 8924 01b9 4889C7   		movq	%rax, %rdi
 8925 01bc E8000000 		call	_ZStlsISt11char_traitsIcEERSt13basic_ostreamIcT_ES5_PKc@PLT
 8925      00
 113:../Checks.h   **** 
 114:../Checks.h   ****         results.OnTestFailure(details, stream.GetText());
 8926              		.loc 6 114 0
 8927 01c1 488D8550 		leaq	-432(%rbp), %rax
 8927      FEFFFF
 8928 01c8 4889C7   		movq	%rax, %rdi
 8929 01cb E8000000 		call	_ZNK8UnitTest15MemoryOutStream7GetTextEv@PLT
 8929      00
 8930 01d0 4889C2   		movq	%rax, %rdx
 8931 01d3 488B8D10 		movq	-496(%rbp), %rcx
 8931      FEFFFF
 8932 01da 488B8538 		movq	-456(%rbp), %rax
 8932      FEFFFF
 8933 01e1 4889CE   		movq	%rcx, %rsi
 8934 01e4 4889C7   		movq	%rax, %rdi
 8935 01e7 E8000000 		call	_ZN8UnitTest11TestResults13OnTestFailureERKNS_11TestDetailsEPKc@PLT
 8935      00
 8936              	.LEHE235:
 103:../Checks.h   **** 
 8937              		.loc 6 103 0
 8938 01ec 488D8550 		leaq	-432(%rbp), %rax
 8938      FEFFFF
 8939 01f3 4889C7   		movq	%rax, %rdi
 8940              	.LEHB236:
 8941 01f6 E8000000 		call	_ZN8UnitTest15MemoryOutStreamD1Ev
 8941      00
 8942              	.LEHE236:
 8943              	.LBE62:
 8944              	.LBE61:
 115:../Checks.h   ****     }
 116:../Checks.h   **** }
 8945              		.loc 6 116 0
 8946 01fb EB1D     		jmp	.L422
 8947              	.L421:
 8948 01fd 4889C3   		movq	%rax, %rbx
 8949              	.LBB66:
 8950              	.LBB65:
 103:../Checks.h   **** 
 8951              		.loc 6 103 0
 8952 0200 488D8550 		leaq	-432(%rbp), %rax
 8952      FEFFFF
 8953 0207 4889C7   		movq	%rax, %rdi
 8954 020a E8000000 		call	_ZN8UnitTest15MemoryOutStreamD1Ev
 8954      00
 8955 020f 4889D8   		movq	%rbx, %rax
 8956 0212 4889C7   		movq	%rax, %rdi
 8957              	.LEHB237:
 8958 0215 E8000000 		call	_Unwind_Resume@PLT
 8958      00
 8959              	.LEHE237:
 8960              	.L422:
 8961              	.LBE65:
 8962              	.LBE66:
 8963              		.loc 6 116 0
 8964 021a 90       		nop
 8965 021b 488B45E8 		movq	-24(%rbp), %rax
 8966 021f 64483304 		xorq	%fs:40, %rax
 8966      25280000 
 8966      00
 8967 0228 7405     		je	.L420
 8968 022a E8000000 		call	__stack_chk_fail@PLT
 8968      00
 8969              	.L420:
 8970 022f 4881C4E8 		addq	$488, %rsp
 8970      010000
 8971 0236 5B       		popq	%rbx
 8972 0237 5D       		popq	%rbp
 8973              		.cfi_def_cfa 7, 8
 8974 0238 C3       		ret
 8975              		.cfi_endproc
 8976              	.LFE1240:
 8977              		.section	.gcc_except_table
 8978              	.LLSDA1240:
 8979 068d FF       		.byte	0xff
 8980 068e FF       		.byte	0xff
 8981 068f 01       		.byte	0x1
 8982 0690 16       		.uleb128 .LLSDACSE1240-.LLSDACSB1240
 8983              	.LLSDACSB1240:
 8984 0691 8901     		.uleb128 .LEHB234-.LFB1240
 8985 0693 05       		.uleb128 .LEHE234-.LEHB234
 8986 0694 00       		.uleb128 0
 8987 0695 00       		.uleb128 0
 8988 0696 9F01     		.uleb128 .LEHB235-.LFB1240
 8989 0698 CD02     		.uleb128 .LEHE235-.LEHB235
 8990 069a FD03     		.uleb128 .L421-.LFB1240
 8991 069c 00       		.uleb128 0
 8992 069d F603     		.uleb128 .LEHB236-.LFB1240
 8993 069f 05       		.uleb128 .LEHE236-.LEHB236
 8994 06a0 00       		.uleb128 0
 8995 06a1 00       		.uleb128 0
 8996 06a2 9504     		.uleb128 .LEHB237-.LFB1240
 8997 06a4 05       		.uleb128 .LEHE237-.LEHB237
 8998 06a5 00       		.uleb128 0
 8999 06a6 00       		.uleb128 0
 9000              	.LLSDACSE1240:
 9001              		.section	.text._ZN8UnitTest15CheckArrayCloseIA3_fS1_fEEvRNS_11TestResultsERKT_RKT0_iRKT1_RKNS_11Te
 9003              		.section	.rodata
 9004              	.LC105:
 9005 0bf4 5B2000   		.string	"[ "
 9006              	.LC106:
 9007 0bf7 5D2000   		.string	"] "
 9008              		.section	.text._ZN8UnitTest17CheckArray2DCloseIA3_A3_fS2_fEEvRNS_11TestResultsERKT_RKT0_iiRKT1_RKN
 9009              		.weak	_ZN8UnitTest17CheckArray2DCloseIA3_A3_fS2_fEEvRNS_11TestResultsERKT_RKT0_iiRKT1_RKNS_11TestD
 9011              	_ZN8UnitTest17CheckArray2DCloseIA3_A3_fS2_fEEvRNS_11TestResultsERKT_RKT0_iiRKT1_RKNS_11TestDetailsE
 9012              	.LFB1241:
 117:../Checks.h   **** 
 118:../Checks.h   **** template< typename Expected, typename Actual, typename Tolerance >
 119:../Checks.h   **** void CheckArray2DClose(TestResults& results, Expected const& expected, Actual const& actual,
 9013              		.loc 6 119 0
 9014              		.cfi_startproc
 9015              		.cfi_personality 0x9b,DW.ref.__gxx_personality_v0
 9016              		.cfi_lsda 0x1b,.LLSDA1241
 9017 0000 55       		pushq	%rbp
 9018              		.cfi_def_cfa_offset 16
 9019              		.cfi_offset 6, -16
 9020 0001 4889E5   		movq	%rsp, %rbp
 9021              		.cfi_def_cfa_register 6
 9022 0004 53       		pushq	%rbx
 9023 0005 4881EC08 		subq	$520, %rsp
 9023      020000
 9024              		.cfi_offset 3, -24
 9025 000c 4889BD28 		movq	%rdi, -472(%rbp)
 9025      FEFFFF
 9026 0013 4889B520 		movq	%rsi, -480(%rbp)
 9026      FEFFFF
 9027 001a 48899518 		movq	%rdx, -488(%rbp)
 9027      FEFFFF
 9028 0021 898D14FE 		movl	%ecx, -492(%rbp)
 9028      FFFF
 9029 0027 44898510 		movl	%r8d, -496(%rbp)
 9029      FEFFFF
 9030 002e 4C898D08 		movq	%r9, -504(%rbp)
 9030      FEFFFF
 9031 0035 488B4510 		movq	16(%rbp), %rax
 9032 0039 48898500 		movq	%rax, -512(%rbp)
 9032      FEFFFF
 9033              		.loc 6 119 0
 9034 0040 64488B04 		movq	%fs:40, %rax
 9034      25280000 
 9034      00
 9035 0049 488945E8 		movq	%rax, -24(%rbp)
 9036 004d 31C0     		xorl	%eax, %eax
 120:../Checks.h   ****                    int const rows, int const columns, Tolerance const& tolerance, TestDetails const
 121:../Checks.h   **** {
 122:../Checks.h   ****     bool equal = true;
 9037              		.loc 6 122 0
 9038 004f C6853BFE 		movb	$1, -453(%rbp)
 9038      FFFF01
 9039              	.LBB67:
 123:../Checks.h   ****     for (int i = 0; i < rows; ++i)
 9040              		.loc 6 123 0
 9041 0056 C7853CFE 		movl	$0, -452(%rbp)
 9041      FFFF0000 
 9041      0000
 9042              	.L425:
 9043              		.loc 6 123 0 is_stmt 0 discriminator 3
 9044 0060 8B853CFE 		movl	-452(%rbp), %eax
 9044      FFFF
 9045 0066 3B8514FE 		cmpl	-492(%rbp), %eax
 9045      FFFF
 9046 006c 7D7C     		jge	.L424
 124:../Checks.h   ****         equal &= ArrayAreClose(expected[i], actual[i], columns, tolerance);
 9047              		.loc 6 124 0 is_stmt 1 discriminator 2
 9048 006e 8B853CFE 		movl	-452(%rbp), %eax
 9048      FFFF
 9049 0074 4863D0   		movslq	%eax, %rdx
 9050 0077 4889D0   		movq	%rdx, %rax
 9051 007a 4801C0   		addq	%rax, %rax
 9052 007d 4801D0   		addq	%rdx, %rax
 9053 0080 48C1E002 		salq	$2, %rax
 9054 0084 488B9518 		movq	-488(%rbp), %rdx
 9054      FEFFFF
 9055 008b 488D3410 		leaq	(%rax,%rdx), %rsi
 9056 008f 8B853CFE 		movl	-452(%rbp), %eax
 9056      FFFF
 9057 0095 4863D0   		movslq	%eax, %rdx
 9058 0098 4889D0   		movq	%rdx, %rax
 9059 009b 4801C0   		addq	%rax, %rax
 9060 009e 4801D0   		addq	%rdx, %rax
 9061 00a1 48C1E002 		salq	$2, %rax
 9062 00a5 488B9520 		movq	-480(%rbp), %rdx
 9062      FEFFFF
 9063 00ac 488D3C10 		leaq	(%rax,%rdx), %rdi
 9064 00b0 488B9508 		movq	-504(%rbp), %rdx
 9064      FEFFFF
 9065 00b7 8B8510FE 		movl	-496(%rbp), %eax
 9065      FFFF
 9066 00bd 4889D1   		movq	%rdx, %rcx
 9067 00c0 89C2     		movl	%eax, %edx
 9068 00c2 E8000000 		call	_ZN8UnitTest13ArrayAreCloseIA3_fS1_fEEbRKT_RKT0_iRKT1_
 9068      00
 9069 00c7 0FB6953B 		movzbl	-453(%rbp), %edx
 9069      FEFFFF
 9070 00ce 0FB6C0   		movzbl	%al, %eax
 9071 00d1 21D0     		andl	%edx, %eax
 9072 00d3 85C0     		testl	%eax, %eax
 9073 00d5 0F95C0   		setne	%al
 9074 00d8 88853BFE 		movb	%al, -453(%rbp)
 9074      FFFF
 123:../Checks.h   ****     for (int i = 0; i < rows; ++i)
 9075              		.loc 6 123 0 discriminator 2
 9076 00de 83853CFE 		addl	$1, -452(%rbp)
 9076      FFFF01
 9077 00e5 E976FFFF 		jmp	.L425
 9077      FF
 9078              	.L424:
 9079              	.LBE67:
 9080              	.LBB68:
 125:../Checks.h   **** 
 126:../Checks.h   ****     if (!equal)
 9081              		.loc 6 126 0
 9082 00ea 0FB6853B 		movzbl	-453(%rbp), %eax
 9082      FEFFFF
 9083 00f1 83F001   		xorl	$1, %eax
 9084 00f4 84C0     		testb	%al, %al
 9085 00f6 0F846D02 		je	.L438
 9085      0000
 9086              	.LBB69:
 127:../Checks.h   ****     {
 128:../Checks.h   ****         UnitTest::MemoryOutStream stream;
 9087              		.loc 6 128 0
 9088 00fc 488D8550 		leaq	-432(%rbp), %rax
 9088      FEFFFF
 9089 0103 4889C7   		movq	%rax, %rdi
 9090              	.LEHB238:
 9091 0106 E8000000 		call	_ZN8UnitTest15MemoryOutStreamC1Ev
 9091      00
 9092              	.LEHE238:
 129:../Checks.h   **** 
 130:../Checks.h   ****         stream << "Expected [ ";    
 9093              		.loc 6 130 0
 9094 010b 488D8550 		leaq	-432(%rbp), %rax
 9094      FEFFFF
 9095 0112 488D3500 		leaq	.LC99(%rip), %rsi
 9095      000000
 9096 0119 4889C7   		movq	%rax, %rdi
 9097              	.LEHB239:
 9098 011c E8000000 		call	_ZStlsISt11char_traitsIcEERSt13basic_ostreamIcT_ES5_PKc@PLT
 9098      00
 9099              	.LBB70:
 131:../Checks.h   **** 
 132:../Checks.h   **** 		for (int expectedRow = 0; expectedRow < rows; ++expectedRow)
 9100              		.loc 6 132 0
 9101 0121 C78540FE 		movl	$0, -448(%rbp)
 9101      FFFF0000 
 9101      0000
 9102              	.L430:
 9103              		.loc 6 132 0 is_stmt 0 discriminator 1
 9104 012b 8B8540FE 		movl	-448(%rbp), %eax
 9104      FFFF
 9105 0131 3B8514FE 		cmpl	-492(%rbp), %eax
 9105      FFFF
 9106 0137 0F8DAD00 		jge	.L427
 9106      0000
 9107              	.LBB71:
 133:../Checks.h   ****         {
 134:../Checks.h   ****             stream << "[ ";
 9108              		.loc 6 134 0 is_stmt 1
 9109 013d 488D8550 		leaq	-432(%rbp), %rax
 9109      FEFFFF
 9110 0144 488D3500 		leaq	.LC105(%rip), %rsi
 9110      000000
 9111 014b 4889C7   		movq	%rax, %rdi
 9112 014e E8000000 		call	_ZStlsISt11char_traitsIcEERSt13basic_ostreamIcT_ES5_PKc@PLT
 9112      00
 9113              	.LBB72:
 135:../Checks.h   ****             for (int expectedColumn = 0; expectedColumn < columns; ++expectedColumn)
 9114              		.loc 6 135 0
 9115 0153 C78544FE 		movl	$0, -444(%rbp)
 9115      FFFF0000 
 9115      0000
 9116              	.L429:
 9117              		.loc 6 135 0 is_stmt 0 discriminator 1
 9118 015d 8B8544FE 		movl	-444(%rbp), %eax
 9118      FFFF
 9119 0163 3B8510FE 		cmpl	-496(%rbp), %eax
 9119      FFFF
 9120 0169 7D5D     		jge	.L428
 136:../Checks.h   ****                 stream << expected[expectedRow][expectedColumn] << " ";
 9121              		.loc 6 136 0 is_stmt 1
 9122 016b 488B8D20 		movq	-480(%rbp), %rcx
 9122      FEFFFF
 9123 0172 8B8544FE 		movl	-444(%rbp), %eax
 9123      FFFF
 9124 0178 4863F0   		movslq	%eax, %rsi
 9125 017b 8B8540FE 		movl	-448(%rbp), %eax
 9125      FFFF
 9126 0181 4863D0   		movslq	%eax, %rdx
 9127 0184 4889D0   		movq	%rdx, %rax
 9128 0187 4801C0   		addq	%rax, %rax
 9129 018a 4801D0   		addq	%rdx, %rax
 9130 018d 4801F0   		addq	%rsi, %rax
 9131 0190 8B1481   		movl	(%rcx,%rax,4), %edx
 9132 0193 488D8550 		leaq	-432(%rbp), %rax
 9132      FEFFFF
 9133 019a 8995FCFD 		movl	%edx, -516(%rbp)
 9133      FFFF
 9134 01a0 F30F1085 		movss	-516(%rbp), %xmm0
 9134      FCFDFFFF 
 9135 01a8 4889C7   		movq	%rax, %rdi
 9136 01ab E8000000 		call	_ZNSolsEf@PLT
 9136      00
 9137 01b0 488D3500 		leaq	.LC100(%rip), %rsi
 9137      000000
 9138 01b7 4889C7   		movq	%rax, %rdi
 9139 01ba E8000000 		call	_ZStlsISt11char_traitsIcEERSt13basic_ostreamIcT_ES5_PKc@PLT
 9139      00
 135:../Checks.h   ****             for (int expectedColumn = 0; expectedColumn < columns; ++expectedColumn)
 9140              		.loc 6 135 0 discriminator 2
 9141 01bf 838544FE 		addl	$1, -444(%rbp)
 9141      FFFF01
 9142 01c6 EB95     		jmp	.L429
 9143              	.L428:
 9144              	.LBE72:
 137:../Checks.h   ****             stream << "] ";
 9145              		.loc 6 137 0
 9146 01c8 488D8550 		leaq	-432(%rbp), %rax
 9146      FEFFFF
 9147 01cf 488D3500 		leaq	.LC106(%rip), %rsi
 9147      000000
 9148 01d6 4889C7   		movq	%rax, %rdi
 9149 01d9 E8000000 		call	_ZStlsISt11char_traitsIcEERSt13basic_ostreamIcT_ES5_PKc@PLT
 9149      00
 9150              	.LBE71:
 132:../Checks.h   ****         {
 9151              		.loc 6 132 0 discriminator 2
 9152 01de 838540FE 		addl	$1, -448(%rbp)
 9152      FFFF01
 9153 01e5 E941FFFF 		jmp	.L430
 9153      FF
 9154              	.L427:
 9155              	.LBE70:
 138:../Checks.h   ****         }
 139:../Checks.h   **** 
 140:../Checks.h   **** 		stream << "] +/- " << tolerance << " but was [ ";
 9156              		.loc 6 140 0
 9157 01ea 488D8550 		leaq	-432(%rbp), %rax
 9157      FEFFFF
 9158 01f1 488D3500 		leaq	.LC103(%rip), %rsi
 9158      000000
 9159 01f8 4889C7   		movq	%rax, %rdi
 9160 01fb E8000000 		call	_ZStlsISt11char_traitsIcEERSt13basic_ostreamIcT_ES5_PKc@PLT
 9160      00
 9161 0200 4889C2   		movq	%rax, %rdx
 9162 0203 488B8508 		movq	-504(%rbp), %rax
 9162      FEFFFF
 9163 020a 8B00     		movl	(%rax), %eax
 9164 020c 8985FCFD 		movl	%eax, -516(%rbp)
 9164      FFFF
 9165 0212 F30F1085 		movss	-516(%rbp), %xmm0
 9165      FCFDFFFF 
 9166 021a 4889D7   		movq	%rdx, %rdi
 9167 021d E8000000 		call	_ZNSolsEf@PLT
 9167      00
 9168              		.loc 6 140 0 is_stmt 0 discriminator 1
 9169 0222 488D3500 		leaq	.LC104(%rip), %rsi
 9169      000000
 9170 0229 4889C7   		movq	%rax, %rdi
 9171 022c E8000000 		call	_ZStlsISt11char_traitsIcEERSt13basic_ostreamIcT_ES5_PKc@PLT
 9171      00
 9172              	.LBB73:
 141:../Checks.h   **** 
 142:../Checks.h   **** 		for (int actualRow = 0; actualRow < rows; ++actualRow)
 9173              		.loc 6 142 0 is_stmt 1
 9174 0231 C78548FE 		movl	$0, -440(%rbp)
 9174      FFFF0000 
 9174      0000
 9175              	.L434:
 9176              		.loc 6 142 0 is_stmt 0 discriminator 1
 9177 023b 8B8548FE 		movl	-440(%rbp), %eax
 9177      FFFF
 9178 0241 3B8514FE 		cmpl	-492(%rbp), %eax
 9178      FFFF
 9179 0247 0F8DAD00 		jge	.L431
 9179      0000
 9180              	.LBB74:
 143:../Checks.h   ****         {
 144:../Checks.h   ****             stream << "[ ";
 9181              		.loc 6 144 0 is_stmt 1
 9182 024d 488D8550 		leaq	-432(%rbp), %rax
 9182      FEFFFF
 9183 0254 488D3500 		leaq	.LC105(%rip), %rsi
 9183      000000
 9184 025b 4889C7   		movq	%rax, %rdi
 9185 025e E8000000 		call	_ZStlsISt11char_traitsIcEERSt13basic_ostreamIcT_ES5_PKc@PLT
 9185      00
 9186              	.LBB75:
 145:../Checks.h   ****             for (int actualColumn = 0; actualColumn < columns; ++actualColumn)
 9187              		.loc 6 145 0
 9188 0263 C7854CFE 		movl	$0, -436(%rbp)
 9188      FFFF0000 
 9188      0000
 9189              	.L433:
 9190              		.loc 6 145 0 is_stmt 0 discriminator 1
 9191 026d 8B854CFE 		movl	-436(%rbp), %eax
 9191      FFFF
 9192 0273 3B8510FE 		cmpl	-496(%rbp), %eax
 9192      FFFF
 9193 0279 7D5D     		jge	.L432
 146:../Checks.h   ****                 stream << actual[actualRow][actualColumn] << " ";
 9194              		.loc 6 146 0 is_stmt 1
 9195 027b 488B8D18 		movq	-488(%rbp), %rcx
 9195      FEFFFF
 9196 0282 8B854CFE 		movl	-436(%rbp), %eax
 9196      FFFF
 9197 0288 4863F0   		movslq	%eax, %rsi
 9198 028b 8B8548FE 		movl	-440(%rbp), %eax
 9198      FFFF
 9199 0291 4863D0   		movslq	%eax, %rdx
 9200 0294 4889D0   		movq	%rdx, %rax
 9201 0297 4801C0   		addq	%rax, %rax
 9202 029a 4801D0   		addq	%rdx, %rax
 9203 029d 4801F0   		addq	%rsi, %rax
 9204 02a0 8B1481   		movl	(%rcx,%rax,4), %edx
 9205 02a3 488D8550 		leaq	-432(%rbp), %rax
 9205      FEFFFF
 9206 02aa 8995FCFD 		movl	%edx, -516(%rbp)
 9206      FFFF
 9207 02b0 F30F1085 		movss	-516(%rbp), %xmm0
 9207      FCFDFFFF 
 9208 02b8 4889C7   		movq	%rax, %rdi
 9209 02bb E8000000 		call	_ZNSolsEf@PLT
 9209      00
 9210 02c0 488D3500 		leaq	.LC100(%rip), %rsi
 9210      000000
 9211 02c7 4889C7   		movq	%rax, %rdi
 9212 02ca E8000000 		call	_ZStlsISt11char_traitsIcEERSt13basic_ostreamIcT_ES5_PKc@PLT
 9212      00
 145:../Checks.h   ****             for (int actualColumn = 0; actualColumn < columns; ++actualColumn)
 9213              		.loc 6 145 0 discriminator 2
 9214 02cf 83854CFE 		addl	$1, -436(%rbp)
 9214      FFFF01
 9215 02d6 EB95     		jmp	.L433
 9216              	.L432:
 9217              	.LBE75:
 147:../Checks.h   ****             stream << "] ";
 9218              		.loc 6 147 0
 9219 02d8 488D8550 		leaq	-432(%rbp), %rax
 9219      FEFFFF
 9220 02df 488D3500 		leaq	.LC106(%rip), %rsi
 9220      000000
 9221 02e6 4889C7   		movq	%rax, %rdi
 9222 02e9 E8000000 		call	_ZStlsISt11char_traitsIcEERSt13basic_ostreamIcT_ES5_PKc@PLT
 9222      00
 9223              	.LBE74:
 142:../Checks.h   ****         {
 9224              		.loc 6 142 0 discriminator 2
 9225 02ee 838548FE 		addl	$1, -440(%rbp)
 9225      FFFF01
 9226 02f5 E941FFFF 		jmp	.L434
 9226      FF
 9227              	.L431:
 9228              	.LBE73:
 148:../Checks.h   ****         }
 149:../Checks.h   **** 
 150:../Checks.h   **** 		stream << "]";
 9229              		.loc 6 150 0
 9230 02fa 488D8550 		leaq	-432(%rbp), %rax
 9230      FEFFFF
 9231 0301 488D3500 		leaq	.LC102(%rip), %rsi
 9231      000000
 9232 0308 4889C7   		movq	%rax, %rdi
 9233 030b E8000000 		call	_ZStlsISt11char_traitsIcEERSt13basic_ostreamIcT_ES5_PKc@PLT
 9233      00
 151:../Checks.h   **** 
 152:../Checks.h   ****         results.OnTestFailure(details, stream.GetText());
 9234              		.loc 6 152 0
 9235 0310 488D8550 		leaq	-432(%rbp), %rax
 9235      FEFFFF
 9236 0317 4889C7   		movq	%rax, %rdi
 9237 031a E8000000 		call	_ZNK8UnitTest15MemoryOutStream7GetTextEv@PLT
 9237      00
 9238 031f 4889C2   		movq	%rax, %rdx
 9239 0322 488B8D00 		movq	-512(%rbp), %rcx
 9239      FEFFFF
 9240 0329 488B8528 		movq	-472(%rbp), %rax
 9240      FEFFFF
 9241 0330 4889CE   		movq	%rcx, %rsi
 9242 0333 4889C7   		movq	%rax, %rdi
 9243 0336 E8000000 		call	_ZN8UnitTest11TestResults13OnTestFailureERKNS_11TestDetailsEPKc@PLT
 9243      00
 9244              	.LEHE239:
 128:../Checks.h   **** 
 9245              		.loc 6 128 0
 9246 033b 488D8550 		leaq	-432(%rbp), %rax
 9246      FEFFFF
 9247 0342 4889C7   		movq	%rax, %rdi
 9248              	.LEHB240:
 9249 0345 E8000000 		call	_ZN8UnitTest15MemoryOutStreamD1Ev
 9249      00
 9250              	.LEHE240:
 9251              	.LBE69:
 9252              	.LBE68:
 153:../Checks.h   ****     }
 154:../Checks.h   **** }
 9253              		.loc 6 154 0
 9254 034a EB1D     		jmp	.L438
 9255              	.L437:
 9256 034c 4889C3   		movq	%rax, %rbx
 9257              	.LBB77:
 9258              	.LBB76:
 128:../Checks.h   **** 
 9259              		.loc 6 128 0
 9260 034f 488D8550 		leaq	-432(%rbp), %rax
 9260      FEFFFF
 9261 0356 4889C7   		movq	%rax, %rdi
 9262 0359 E8000000 		call	_ZN8UnitTest15MemoryOutStreamD1Ev
 9262      00
 9263 035e 4889D8   		movq	%rbx, %rax
 9264 0361 4889C7   		movq	%rax, %rdi
 9265              	.LEHB241:
 9266 0364 E8000000 		call	_Unwind_Resume@PLT
 9266      00
 9267              	.LEHE241:
 9268              	.L438:
 9269              	.LBE76:
 9270              	.LBE77:
 9271              		.loc 6 154 0
 9272 0369 90       		nop
 9273 036a 488B45E8 		movq	-24(%rbp), %rax
 9274 036e 64483304 		xorq	%fs:40, %rax
 9274      25280000 
 9274      00
 9275 0377 7405     		je	.L436
 9276 0379 E8000000 		call	__stack_chk_fail@PLT
 9276      00
 9277              	.L436:
 9278 037e 4881C408 		addq	$520, %rsp
 9278      020000
 9279 0385 5B       		popq	%rbx
 9280 0386 5D       		popq	%rbp
 9281              		.cfi_def_cfa 7, 8
 9282 0387 C3       		ret
 9283              		.cfi_endproc
 9284              	.LFE1241:
 9285              		.section	.gcc_except_table
 9286              	.LLSDA1241:
 9287 06a7 FF       		.byte	0xff
 9288 06a8 FF       		.byte	0xff
 9289 06a9 01       		.byte	0x1
 9290 06aa 16       		.uleb128 .LLSDACSE1241-.LLSDACSB1241
 9291              	.LLSDACSB1241:
 9292 06ab 8602     		.uleb128 .LEHB238-.LFB1241
 9293 06ad 05       		.uleb128 .LEHE238-.LEHB238
 9294 06ae 00       		.uleb128 0
 9295 06af 00       		.uleb128 0
 9296 06b0 9C02     		.uleb128 .LEHB239-.LFB1241
 9297 06b2 9F04     		.uleb128 .LEHE239-.LEHB239
 9298 06b4 CC06     		.uleb128 .L437-.LFB1241
 9299 06b6 00       		.uleb128 0
 9300 06b7 C506     		.uleb128 .LEHB240-.LFB1241
 9301 06b9 05       		.uleb128 .LEHE240-.LEHB240
 9302 06ba 00       		.uleb128 0
 9303 06bb 00       		.uleb128 0
 9304 06bc E406     		.uleb128 .LEHB241-.LFB1241
 9305 06be 05       		.uleb128 .LEHE241-.LEHB241
 9306 06bf 00       		.uleb128 0
 9307 06c0 00       		.uleb128 0
 9308              	.LLSDACSE1241:
 9309              		.section	.text._ZN8UnitTest17CheckArray2DCloseIA3_A3_fS2_fEEvRNS_11TestResultsERKT_RKT0_iiRKT1_RKN
 9311              		.section	.text._ZN8UnitTest10CheckCloseIdddEEvRNS_11TestResultsERKT_RKT0_RKT1_RKNS_11TestDetailsE,
 9312              		.weak	_ZN8UnitTest10CheckCloseIdddEEvRNS_11TestResultsERKT_RKT0_RKT1_RKNS_11TestDetailsE
 9314              	_ZN8UnitTest10CheckCloseIdddEEvRNS_11TestResultsERKT_RKT0_RKT1_RKNS_11TestDetailsE:
 9315              	.LFB1242:
  45:../Checks.h   ****                 TestDetails const& details)
 9316              		.loc 6 45 0
 9317              		.cfi_startproc
 9318              		.cfi_personality 0x9b,DW.ref.__gxx_personality_v0
 9319              		.cfi_lsda 0x1b,.LLSDA1242
 9320 0000 55       		pushq	%rbp
 9321              		.cfi_def_cfa_offset 16
 9322              		.cfi_offset 6, -16
 9323 0001 4889E5   		movq	%rsp, %rbp
 9324              		.cfi_def_cfa_register 6
 9325 0004 53       		pushq	%rbx
 9326 0005 4881ECD8 		subq	$472, %rsp
 9326      010000
 9327              		.cfi_offset 3, -24
 9328 000c 4889BD48 		movq	%rdi, -440(%rbp)
 9328      FEFFFF
 9329 0013 4889B540 		movq	%rsi, -448(%rbp)
 9329      FEFFFF
 9330 001a 48899538 		movq	%rdx, -456(%rbp)
 9330      FEFFFF
 9331 0021 48898D30 		movq	%rcx, -464(%rbp)
 9331      FEFFFF
 9332 0028 4C898528 		movq	%r8, -472(%rbp)
 9332      FEFFFF
  45:../Checks.h   ****                 TestDetails const& details)
 9333              		.loc 6 45 0
 9334 002f 64488B04 		movq	%fs:40, %rax
 9334      25280000 
 9334      00
 9335 0038 488945E8 		movq	%rax, -24(%rbp)
 9336 003c 31C0     		xorl	%eax, %eax
 9337              	.LBB78:
  48:../Checks.h   ****     { 
 9338              		.loc 6 48 0
 9339 003e 488B9530 		movq	-464(%rbp), %rdx
 9339      FEFFFF
 9340 0045 488B8D38 		movq	-456(%rbp), %rcx
 9340      FEFFFF
 9341 004c 488B8540 		movq	-448(%rbp), %rax
 9341      FEFFFF
 9342 0053 4889CE   		movq	%rcx, %rsi
 9343 0056 4889C7   		movq	%rax, %rdi
 9344 0059 E8000000 		call	_ZN8UnitTest8AreCloseIdddEEbRKT_RKT0_RKT1_
 9344      00
 9345 005e 83F001   		xorl	$1, %eax
 9346 0061 84C0     		testb	%al, %al
 9347 0063 0F840801 		je	.L444
 9347      0000
 9348              	.LBB79:
  50:../Checks.h   ****         stream << "Expected " << expected << " +/- " << tolerance << " but was " << actual;
 9349              		.loc 6 50 0
 9350 0069 488D8550 		leaq	-432(%rbp), %rax
 9350      FEFFFF
 9351 0070 4889C7   		movq	%rax, %rdi
 9352              	.LEHB242:
 9353 0073 E8000000 		call	_ZN8UnitTest15MemoryOutStreamC1Ev
 9353      00
 9354              	.LEHE242:
  51:../Checks.h   **** 
 9355              		.loc 6 51 0
 9356 0078 488D8550 		leaq	-432(%rbp), %rax
 9356      FEFFFF
 9357 007f 488D3500 		leaq	.LC96(%rip), %rsi
 9357      000000
 9358 0086 4889C7   		movq	%rax, %rdi
 9359              	.LEHB243:
 9360 0089 E8000000 		call	_ZStlsISt11char_traitsIcEERSt13basic_ostreamIcT_ES5_PKc@PLT
 9360      00
 9361 008e 4889C2   		movq	%rax, %rdx
 9362 0091 488B8540 		movq	-448(%rbp), %rax
 9362      FEFFFF
 9363 0098 488B00   		movq	(%rax), %rax
 9364 009b 48898520 		movq	%rax, -480(%rbp)
 9364      FEFFFF
 9365 00a2 F20F1085 		movsd	-480(%rbp), %xmm0
 9365      20FEFFFF 
 9366 00aa 4889D7   		movq	%rdx, %rdi
 9367 00ad E8000000 		call	_ZNSolsEd@PLT
 9367      00
  51:../Checks.h   **** 
 9368              		.loc 6 51 0 is_stmt 0 discriminator 1
 9369 00b2 488D3500 		leaq	.LC98(%rip), %rsi
 9369      000000
 9370 00b9 4889C7   		movq	%rax, %rdi
 9371 00bc E8000000 		call	_ZStlsISt11char_traitsIcEERSt13basic_ostreamIcT_ES5_PKc@PLT
 9371      00
  51:../Checks.h   **** 
 9372              		.loc 6 51 0 discriminator 2
 9373 00c1 4889C2   		movq	%rax, %rdx
 9374 00c4 488B8530 		movq	-464(%rbp), %rax
 9374      FEFFFF
 9375 00cb 488B00   		movq	(%rax), %rax
 9376 00ce 48898520 		movq	%rax, -480(%rbp)
 9376      FEFFFF
 9377 00d5 F20F1085 		movsd	-480(%rbp), %xmm0
 9377      20FEFFFF 
 9378 00dd 4889D7   		movq	%rdx, %rdi
 9379 00e0 E8000000 		call	_ZNSolsEd@PLT
 9379      00
  51:../Checks.h   **** 
 9380              		.loc 6 51 0 discriminator 3
 9381 00e5 488D3500 		leaq	.LC97(%rip), %rsi
 9381      000000
 9382 00ec 4889C7   		movq	%rax, %rdi
 9383 00ef E8000000 		call	_ZStlsISt11char_traitsIcEERSt13basic_ostreamIcT_ES5_PKc@PLT
 9383      00
  51:../Checks.h   **** 
 9384              		.loc 6 51 0 discriminator 4
 9385 00f4 4889C2   		movq	%rax, %rdx
 9386 00f7 488B8538 		movq	-456(%rbp), %rax
 9386      FEFFFF
 9387 00fe 488B00   		movq	(%rax), %rax
 9388 0101 48898520 		movq	%rax, -480(%rbp)
 9388      FEFFFF
 9389 0108 F20F1085 		movsd	-480(%rbp), %xmm0
 9389      20FEFFFF 
 9390 0110 4889D7   		movq	%rdx, %rdi
 9391 0113 E8000000 		call	_ZNSolsEd@PLT
 9391      00
  53:../Checks.h   ****     }
 9392              		.loc 6 53 0 is_stmt 1
 9393 0118 488D8550 		leaq	-432(%rbp), %rax
 9393      FEFFFF
 9394 011f 4889C7   		movq	%rax, %rdi
 9395 0122 E8000000 		call	_ZNK8UnitTest15MemoryOutStream7GetTextEv@PLT
 9395      00
 9396 0127 4889C2   		movq	%rax, %rdx
 9397 012a 488B8D28 		movq	-472(%rbp), %rcx
 9397      FEFFFF
 9398 0131 488B8548 		movq	-440(%rbp), %rax
 9398      FEFFFF
 9399 0138 4889CE   		movq	%rcx, %rsi
 9400 013b 4889C7   		movq	%rax, %rdi
 9401 013e E8000000 		call	_ZN8UnitTest11TestResults13OnTestFailureERKNS_11TestDetailsEPKc@PLT
 9401      00
 9402              	.LEHE243:
  50:../Checks.h   ****         stream << "Expected " << expected << " +/- " << tolerance << " but was " << actual;
 9403              		.loc 6 50 0
 9404 0143 488D8550 		leaq	-432(%rbp), %rax
 9404      FEFFFF
 9405 014a 4889C7   		movq	%rax, %rdi
 9406              	.LEHB244:
 9407 014d E8000000 		call	_ZN8UnitTest15MemoryOutStreamD1Ev
 9407      00
 9408              	.LEHE244:
 9409              	.LBE79:
 9410              	.LBE78:
  55:../Checks.h   **** 
 9411              		.loc 6 55 0
 9412 0152 EB1D     		jmp	.L444
 9413              	.L443:
 9414 0154 4889C3   		movq	%rax, %rbx
 9415              	.LBB81:
 9416              	.LBB80:
  50:../Checks.h   ****         stream << "Expected " << expected << " +/- " << tolerance << " but was " << actual;
 9417              		.loc 6 50 0
 9418 0157 488D8550 		leaq	-432(%rbp), %rax
 9418      FEFFFF
 9419 015e 4889C7   		movq	%rax, %rdi
 9420 0161 E8000000 		call	_ZN8UnitTest15MemoryOutStreamD1Ev
 9420      00
 9421 0166 4889D8   		movq	%rbx, %rax
 9422 0169 4889C7   		movq	%rax, %rdi
 9423              	.LEHB245:
 9424 016c E8000000 		call	_Unwind_Resume@PLT
 9424      00
 9425              	.LEHE245:
 9426              	.L444:
 9427              	.LBE80:
 9428              	.LBE81:
  55:../Checks.h   **** 
 9429              		.loc 6 55 0
 9430 0171 90       		nop
 9431 0172 488B45E8 		movq	-24(%rbp), %rax
 9432 0176 64483304 		xorq	%fs:40, %rax
 9432      25280000 
 9432      00
 9433 017f 7405     		je	.L442
 9434 0181 E8000000 		call	__stack_chk_fail@PLT
 9434      00
 9435              	.L442:
 9436 0186 4881C4D8 		addq	$472, %rsp
 9436      010000
 9437 018d 5B       		popq	%rbx
 9438 018e 5D       		popq	%rbp
 9439              		.cfi_def_cfa 7, 8
 9440 018f C3       		ret
 9441              		.cfi_endproc
 9442              	.LFE1242:
 9443              		.section	.gcc_except_table
 9444              	.LLSDA1242:
 9445 06c1 FF       		.byte	0xff
 9446 06c2 FF       		.byte	0xff
 9447 06c3 01       		.byte	0x1
 9448 06c4 15       		.uleb128 .LLSDACSE1242-.LLSDACSB1242
 9449              	.LLSDACSB1242:
 9450 06c5 73       		.uleb128 .LEHB242-.LFB1242
 9451 06c6 05       		.uleb128 .LEHE242-.LEHB242
 9452 06c7 00       		.uleb128 0
 9453 06c8 00       		.uleb128 0
 9454 06c9 8901     		.uleb128 .LEHB243-.LFB1242
 9455 06cb BA01     		.uleb128 .LEHE243-.LEHB243
 9456 06cd D402     		.uleb128 .L443-.LFB1242
 9457 06cf 00       		.uleb128 0
 9458 06d0 CD02     		.uleb128 .LEHB244-.LFB1242
 9459 06d2 05       		.uleb128 .LEHE244-.LEHB244
 9460 06d3 00       		.uleb128 0
 9461 06d4 00       		.uleb128 0
 9462 06d5 EC02     		.uleb128 .LEHB245-.LFB1242
 9463 06d7 05       		.uleb128 .LEHE245-.LEHB245
 9464 06d8 00       		.uleb128 0
 9465 06d9 00       		.uleb128 0
 9466              	.LLSDACSE1242:
 9467              		.section	.text._ZN8UnitTest10CheckCloseIdddEEvRNS_11TestResultsERKT_RKT0_RKT1_RKNS_11TestDetailsE,
 9469              		.section	.text._ZN8UnitTest8AreCloseIfffEEbRKT_RKT0_RKT1_,"axG",@progbits,_ZN8UnitTest8AreCloseIff
 9470              		.weak	_ZN8UnitTest8AreCloseIfffEEbRKT_RKT0_RKT1_
 9472              	_ZN8UnitTest8AreCloseIfffEEbRKT_RKT0_RKT1_:
 9473              	.LFB1271:
  39:../Checks.h   **** {
 9474              		.loc 6 39 0
 9475              		.cfi_startproc
 9476 0000 55       		pushq	%rbp
 9477              		.cfi_def_cfa_offset 16
 9478              		.cfi_offset 6, -16
 9479 0001 4889E5   		movq	%rsp, %rbp
 9480              		.cfi_def_cfa_register 6
 9481 0004 48897DF8 		movq	%rdi, -8(%rbp)
 9482 0008 488975F0 		movq	%rsi, -16(%rbp)
 9483 000c 488955E8 		movq	%rdx, -24(%rbp)
  41:../Checks.h   **** }
 9484              		.loc 6 41 0
 9485 0010 488B45F0 		movq	-16(%rbp), %rax
 9486 0014 F30F1008 		movss	(%rax), %xmm1
 9487 0018 488B45F8 		movq	-8(%rbp), %rax
 9488 001c F30F1000 		movss	(%rax), %xmm0
 9489 0020 488B45E8 		movq	-24(%rbp), %rax
 9490 0024 F30F1010 		movss	(%rax), %xmm2
 9491 0028 F30F5CC2 		subss	%xmm2, %xmm0
 9492 002c 0F2EC8   		ucomiss	%xmm0, %xmm1
 9493 002f 7228     		jb	.L446
  41:../Checks.h   **** }
 9494              		.loc 6 41 0 is_stmt 0 discriminator 1
 9495 0031 488B45F0 		movq	-16(%rbp), %rax
 9496 0035 F30F1008 		movss	(%rax), %xmm1
 9497 0039 488B45F8 		movq	-8(%rbp), %rax
 9498 003d F30F1010 		movss	(%rax), %xmm2
 9499 0041 488B45E8 		movq	-24(%rbp), %rax
 9500 0045 F30F1000 		movss	(%rax), %xmm0
 9501 0049 F30F58C2 		addss	%xmm2, %xmm0
 9502 004d 0F2EC1   		ucomiss	%xmm1, %xmm0
 9503 0050 7207     		jb	.L446
  41:../Checks.h   **** }
 9504              		.loc 6 41 0 discriminator 3
 9505 0052 B8010000 		movl	$1, %eax
 9505      00
 9506 0057 EB05     		jmp	.L449
 9507              	.L446:
  41:../Checks.h   **** }
 9508              		.loc 6 41 0 discriminator 4
 9509 0059 B8000000 		movl	$0, %eax
 9509      00
 9510              	.L449:
  42:../Checks.h   **** 
 9511              		.loc 6 42 0 is_stmt 1 discriminator 6
 9512 005e 5D       		popq	%rbp
 9513              		.cfi_def_cfa 7, 8
 9514 005f C3       		ret
 9515              		.cfi_endproc
 9516              	.LFE1271:
 9518              		.section	.text._ZN8UnitTest8AreCloseIffiEEbRKT_RKT0_RKT1_,"axG",@progbits,_ZN8UnitTest8AreCloseIff
 9519              		.weak	_ZN8UnitTest8AreCloseIffiEEbRKT_RKT0_RKT1_
 9521              	_ZN8UnitTest8AreCloseIffiEEbRKT_RKT0_RKT1_:
 9522              	.LFB1273:
  39:../Checks.h   **** {
 9523              		.loc 6 39 0
 9524              		.cfi_startproc
 9525 0000 55       		pushq	%rbp
 9526              		.cfi_def_cfa_offset 16
 9527              		.cfi_offset 6, -16
 9528 0001 4889E5   		movq	%rsp, %rbp
 9529              		.cfi_def_cfa_register 6
 9530 0004 48897DF8 		movq	%rdi, -8(%rbp)
 9531 0008 488975F0 		movq	%rsi, -16(%rbp)
 9532 000c 488955E8 		movq	%rdx, -24(%rbp)
  41:../Checks.h   **** }
 9533              		.loc 6 41 0
 9534 0010 488B45F0 		movq	-16(%rbp), %rax
 9535 0014 F30F1008 		movss	(%rax), %xmm1
 9536 0018 488B45F8 		movq	-8(%rbp), %rax
 9537 001c F30F1010 		movss	(%rax), %xmm2
 9538 0020 488B45E8 		movq	-24(%rbp), %rax
 9539 0024 8B00     		movl	(%rax), %eax
 9540 0026 F30F2AC0 		cvtsi2ss	%eax, %xmm0
 9541 002a F30F5CD0 		subss	%xmm0, %xmm2
 9542 002e 0F28C2   		movaps	%xmm2, %xmm0
 9543 0031 0F2EC8   		ucomiss	%xmm0, %xmm1
 9544 0034 722A     		jb	.L454
  41:../Checks.h   **** }
 9545              		.loc 6 41 0 is_stmt 0 discriminator 1
 9546 0036 488B45F0 		movq	-16(%rbp), %rax
 9547 003a F30F1008 		movss	(%rax), %xmm1
 9548 003e 488B45F8 		movq	-8(%rbp), %rax
 9549 0042 F30F1010 		movss	(%rax), %xmm2
 9550 0046 488B45E8 		movq	-24(%rbp), %rax
 9551 004a 8B00     		movl	(%rax), %eax
 9552 004c F30F2AC0 		cvtsi2ss	%eax, %xmm0
 9553 0050 F30F58C2 		addss	%xmm2, %xmm0
 9554 0054 0F2EC1   		ucomiss	%xmm1, %xmm0
 9555 0057 7207     		jb	.L454
  41:../Checks.h   **** }
 9556              		.loc 6 41 0 discriminator 3
 9557 0059 B8010000 		movl	$1, %eax
 9557      00
 9558 005e EB05     		jmp	.L457
 9559              	.L454:
  41:../Checks.h   **** }
 9560              		.loc 6 41 0 discriminator 4
 9561 0060 B8000000 		movl	$0, %eax
 9561      00
 9562              	.L457:
  42:../Checks.h   **** 
 9563              		.loc 6 42 0 is_stmt 1 discriminator 6
 9564 0065 5D       		popq	%rbp
 9565              		.cfi_def_cfa 7, 8
 9566 0066 C3       		ret
 9567              		.cfi_endproc
 9568              	.LFE1273:
 9570              		.section	.text._ZN8UnitTest8AreCloseIiifEEbRKT_RKT0_RKT1_,"axG",@progbits,_ZN8UnitTest8AreCloseIii
 9571              		.weak	_ZN8UnitTest8AreCloseIiifEEbRKT_RKT0_RKT1_
 9573              	_ZN8UnitTest8AreCloseIiifEEbRKT_RKT0_RKT1_:
 9574              	.LFB1274:
  39:../Checks.h   **** {
 9575              		.loc 6 39 0
 9576              		.cfi_startproc
 9577 0000 55       		pushq	%rbp
 9578              		.cfi_def_cfa_offset 16
 9579              		.cfi_offset 6, -16
 9580 0001 4889E5   		movq	%rsp, %rbp
 9581              		.cfi_def_cfa_register 6
 9582 0004 48897DF8 		movq	%rdi, -8(%rbp)
 9583 0008 488975F0 		movq	%rsi, -16(%rbp)
 9584 000c 488955E8 		movq	%rdx, -24(%rbp)
  41:../Checks.h   **** }
 9585              		.loc 6 41 0
 9586 0010 488B45F0 		movq	-16(%rbp), %rax
 9587 0014 8B00     		movl	(%rax), %eax
 9588 0016 F30F2AC0 		cvtsi2ss	%eax, %xmm0
 9589 001a 488B45F8 		movq	-8(%rbp), %rax
 9590 001e 8B00     		movl	(%rax), %eax
 9591 0020 F30F2AC8 		cvtsi2ss	%eax, %xmm1
 9592 0024 488B45E8 		movq	-24(%rbp), %rax
 9593 0028 F30F1010 		movss	(%rax), %xmm2
 9594 002c F30F5CCA 		subss	%xmm2, %xmm1
 9595 0030 0F2EC1   		ucomiss	%xmm1, %xmm0
 9596 0033 722C     		jb	.L462
  41:../Checks.h   **** }
 9597              		.loc 6 41 0 is_stmt 0 discriminator 1
 9598 0035 488B45F0 		movq	-16(%rbp), %rax
 9599 0039 8B00     		movl	(%rax), %eax
 9600 003b F30F2AC8 		cvtsi2ss	%eax, %xmm1
 9601 003f 488B45F8 		movq	-8(%rbp), %rax
 9602 0043 8B00     		movl	(%rax), %eax
 9603 0045 F30F2AC0 		cvtsi2ss	%eax, %xmm0
 9604 0049 488B45E8 		movq	-24(%rbp), %rax
 9605 004d F30F1010 		movss	(%rax), %xmm2
 9606 0051 F30F58C2 		addss	%xmm2, %xmm0
 9607 0055 0F2EC1   		ucomiss	%xmm1, %xmm0
 9608 0058 7207     		jb	.L462
  41:../Checks.h   **** }
 9609              		.loc 6 41 0 discriminator 3
 9610 005a B8010000 		movl	$1, %eax
 9610      00
 9611 005f EB05     		jmp	.L465
 9612              	.L462:
  41:../Checks.h   **** }
 9613              		.loc 6 41 0 discriminator 4
 9614 0061 B8000000 		movl	$0, %eax
 9614      00
 9615              	.L465:
  42:../Checks.h   **** 
 9616              		.loc 6 42 0 is_stmt 1 discriminator 6
 9617 0066 5D       		popq	%rbp
 9618              		.cfi_def_cfa 7, 8
 9619 0067 C3       		ret
 9620              		.cfi_endproc
 9621              	.LFE1274:
 9623              		.section	.text._ZN8UnitTest13ArrayAreCloseIA3_fS1_fEEbRKT_RKT0_iRKT1_,"axG",@progbits,_ZN8UnitTest
 9624              		.weak	_ZN8UnitTest13ArrayAreCloseIA3_fS1_fEEbRKT_RKT0_iRKT1_
 9626              	_ZN8UnitTest13ArrayAreCloseIA3_fS1_fEEbRKT_RKT0_iRKT1_:
 9627              	.LFB1275:
  87:../Checks.h   **** {
 9628              		.loc 6 87 0
 9629              		.cfi_startproc
 9630 0000 55       		pushq	%rbp
 9631              		.cfi_def_cfa_offset 16
 9632              		.cfi_offset 6, -16
 9633 0001 4889E5   		movq	%rsp, %rbp
 9634              		.cfi_def_cfa_register 6
 9635 0004 4883EC30 		subq	$48, %rsp
 9636 0008 48897DE8 		movq	%rdi, -24(%rbp)
 9637 000c 488975E0 		movq	%rsi, -32(%rbp)
 9638 0010 8955DC   		movl	%edx, -36(%rbp)
 9639 0013 48894DD0 		movq	%rcx, -48(%rbp)
  89:../Checks.h   ****     for (int i = 0; i < count; ++i)
 9640              		.loc 6 89 0
 9641 0017 C645FB01 		movb	$1, -5(%rbp)
 9642              	.LBB82:
  90:../Checks.h   ****         equal &= AreClose(expected[i], actual[i], tolerance);
 9643              		.loc 6 90 0
 9644 001b C745FC00 		movl	$0, -4(%rbp)
 9644      000000
 9645              	.L471:
  90:../Checks.h   ****         equal &= AreClose(expected[i], actual[i], tolerance);
 9646              		.loc 6 90 0 is_stmt 0 discriminator 3
 9647 0022 8B45FC   		movl	-4(%rbp), %eax
 9648 0025 3B45DC   		cmpl	-36(%rbp), %eax
 9649 0028 7D50     		jge	.L470
  91:../Checks.h   ****     return equal;
 9650              		.loc 6 91 0 is_stmt 1 discriminator 2
 9651 002a 8B45FC   		movl	-4(%rbp), %eax
 9652 002d 4898     		cltq
 9653 002f 488D1485 		leaq	0(,%rax,4), %rdx
 9653      00000000 
 9654 0037 488B45E0 		movq	-32(%rbp), %rax
 9655 003b 488D3402 		leaq	(%rdx,%rax), %rsi
 9656 003f 8B45FC   		movl	-4(%rbp), %eax
 9657 0042 4898     		cltq
 9658 0044 488D1485 		leaq	0(,%rax,4), %rdx
 9658      00000000 
 9659 004c 488B45E8 		movq	-24(%rbp), %rax
 9660 0050 488D0C02 		leaq	(%rdx,%rax), %rcx
 9661 0054 488B45D0 		movq	-48(%rbp), %rax
 9662 0058 4889C2   		movq	%rax, %rdx
 9663 005b 4889CF   		movq	%rcx, %rdi
 9664 005e E8000000 		call	_ZN8UnitTest8AreCloseIfffEEbRKT_RKT0_RKT1_
 9664      00
 9665 0063 0FB655FB 		movzbl	-5(%rbp), %edx
 9666 0067 0FB6C0   		movzbl	%al, %eax
 9667 006a 21D0     		andl	%edx, %eax
 9668 006c 85C0     		testl	%eax, %eax
 9669 006e 0F95C0   		setne	%al
 9670 0071 8845FB   		movb	%al, -5(%rbp)
  90:../Checks.h   ****         equal &= AreClose(expected[i], actual[i], tolerance);
 9671              		.loc 6 90 0 discriminator 2
 9672 0074 8345FC01 		addl	$1, -4(%rbp)
 9673 0078 EBA8     		jmp	.L471
 9674              	.L470:
 9675              	.LBE82:
  92:../Checks.h   **** }
 9676              		.loc 6 92 0
 9677 007a 0FB645FB 		movzbl	-5(%rbp), %eax
  93:../Checks.h   **** 
 9678              		.loc 6 93 0
 9679 007e C9       		leave
 9680              		.cfi_def_cfa 7, 8
 9681 007f C3       		ret
 9682              		.cfi_endproc
 9683              	.LFE1275:
 9685              		.section	.text._ZN8UnitTest8AreCloseIdddEEbRKT_RKT0_RKT1_,"axG",@progbits,_ZN8UnitTest8AreCloseIdd
 9686              		.weak	_ZN8UnitTest8AreCloseIdddEEbRKT_RKT0_RKT1_
 9688              	_ZN8UnitTest8AreCloseIdddEEbRKT_RKT0_RKT1_:
 9689              	.LFB1276:
  39:../Checks.h   **** {
 9690              		.loc 6 39 0
 9691              		.cfi_startproc
 9692 0000 55       		pushq	%rbp
 9693              		.cfi_def_cfa_offset 16
 9694              		.cfi_offset 6, -16
 9695 0001 4889E5   		movq	%rsp, %rbp
 9696              		.cfi_def_cfa_register 6
 9697 0004 48897DF8 		movq	%rdi, -8(%rbp)
 9698 0008 488975F0 		movq	%rsi, -16(%rbp)
 9699 000c 488955E8 		movq	%rdx, -24(%rbp)
  41:../Checks.h   **** }
 9700              		.loc 6 41 0
 9701 0010 488B45F0 		movq	-16(%rbp), %rax
 9702 0014 F20F1008 		movsd	(%rax), %xmm1
 9703 0018 488B45F8 		movq	-8(%rbp), %rax
 9704 001c F20F1000 		movsd	(%rax), %xmm0
 9705 0020 488B45E8 		movq	-24(%rbp), %rax
 9706 0024 F20F1010 		movsd	(%rax), %xmm2
 9707 0028 F20F5CC2 		subsd	%xmm2, %xmm0
 9708 002c 660F2EC8 		ucomisd	%xmm0, %xmm1
 9709 0030 7229     		jb	.L474
  41:../Checks.h   **** }
 9710              		.loc 6 41 0 is_stmt 0 discriminator 1
 9711 0032 488B45F0 		movq	-16(%rbp), %rax
 9712 0036 F20F1008 		movsd	(%rax), %xmm1
 9713 003a 488B45F8 		movq	-8(%rbp), %rax
 9714 003e F20F1010 		movsd	(%rax), %xmm2
 9715 0042 488B45E8 		movq	-24(%rbp), %rax
 9716 0046 F20F1000 		movsd	(%rax), %xmm0
 9717 004a F20F58C2 		addsd	%xmm2, %xmm0
 9718 004e 660F2EC1 		ucomisd	%xmm1, %xmm0
 9719 0052 7207     		jb	.L474
  41:../Checks.h   **** }
 9720              		.loc 6 41 0 discriminator 3
 9721 0054 B8010000 		movl	$1, %eax
 9721      00
 9722 0059 EB05     		jmp	.L477
 9723              	.L474:
  41:../Checks.h   **** }
 9724              		.loc 6 41 0 discriminator 4
 9725 005b B8000000 		movl	$0, %eax
 9725      00
 9726              	.L477:
  42:../Checks.h   **** 
 9727              		.loc 6 42 0 is_stmt 1 discriminator 6
 9728 0060 5D       		popq	%rbp
 9729              		.cfi_def_cfa 7, 8
 9730 0061 C3       		ret
 9731              		.cfi_endproc
 9732              	.LFE1276:
 9734              		.section	.data.rel.ro.local,"aw",@progbits
 9735              		.align 8
 9738              	_ZTVN12_GLOBAL__N_143TestCheckArray2DCloseFailureIncludesDetailsE:
 9739 0000 00000000 		.quad	0
 9739      00000000 
 9740 0008 00000000 		.quad	_ZTIN12_GLOBAL__N_143TestCheckArray2DCloseFailureIncludesDetailsE
 9740      00000000 
 9741 0010 00000000 		.quad	_ZN12_GLOBAL__N_143TestCheckArray2DCloseFailureIncludesDetailsD1Ev
 9741      00000000 
 9742 0018 00000000 		.quad	_ZN12_GLOBAL__N_143TestCheckArray2DCloseFailureIncludesDetailsD0Ev
 9742      00000000 
 9743 0020 00000000 		.quad	_ZNK12_GLOBAL__N_143TestCheckArray2DCloseFailureIncludesDetails7RunImplEv
 9743      00000000 
 9744              		.text
 9745              		.align 2
 9747              	_ZN12_GLOBAL__N_143TestCheckArray2DCloseFailureIncludesDetailsD2Ev:
 9748              	.LFB1304:
 273:TestChecks.cpp **** {
 9749              		.loc 5 273 0
 9750              		.cfi_startproc
 9751 3b8a 55       		pushq	%rbp
 9752              		.cfi_def_cfa_offset 16
 9753              		.cfi_offset 6, -16
 9754 3b8b 4889E5   		movq	%rsp, %rbp
 9755              		.cfi_def_cfa_register 6
 9756 3b8e 4883EC10 		subq	$16, %rsp
 9757 3b92 48897DF8 		movq	%rdi, -8(%rbp)
 9758              	.LBB83:
 273:TestChecks.cpp **** {
 9759              		.loc 5 273 0
 9760 3b96 488D1500 		leaq	16+_ZTVN12_GLOBAL__N_143TestCheckArray2DCloseFailureIncludesDetailsE(%rip), %rdx
 9760      000000
 9761 3b9d 488B45F8 		movq	-8(%rbp), %rax
 9762 3ba1 488910   		movq	%rdx, (%rax)
 9763 3ba4 488B45F8 		movq	-8(%rbp), %rax
 9764 3ba8 4889C7   		movq	%rax, %rdi
 9765 3bab E8000000 		call	_ZN8UnitTest4TestD2Ev@PLT
 9765      00
 9766              	.LBE83:
 9767 3bb0 90       		nop
 9768 3bb1 C9       		leave
 9769              		.cfi_def_cfa 7, 8
 9770 3bb2 C3       		ret
 9771              		.cfi_endproc
 9772              	.LFE1304:
 9774              		.set	_ZN12_GLOBAL__N_143TestCheckArray2DCloseFailureIncludesDetailsD1Ev,_ZN12_GLOBAL__N_143TestChe
 9775 3bb3 90       		.align 2
 9777              	_ZN12_GLOBAL__N_143TestCheckArray2DCloseFailureIncludesDetailsD0Ev:
 9778              	.LFB1306:
 273:TestChecks.cpp **** {
 9779              		.loc 5 273 0
 9780              		.cfi_startproc
 9781              		.cfi_personality 0x9b,DW.ref.__gxx_personality_v0
 9782              		.cfi_lsda 0x1b,.LLSDA1306
 9783 3bb4 55       		pushq	%rbp
 9784              		.cfi_def_cfa_offset 16
 9785              		.cfi_offset 6, -16
 9786 3bb5 4889E5   		movq	%rsp, %rbp
 9787              		.cfi_def_cfa_register 6
 9788 3bb8 53       		pushq	%rbx
 9789 3bb9 4883EC18 		subq	$24, %rsp
 9790              		.cfi_offset 3, -24
 9791 3bbd 48897DE8 		movq	%rdi, -24(%rbp)
 273:TestChecks.cpp **** {
 9792              		.loc 5 273 0
 9793 3bc1 488B45E8 		movq	-24(%rbp), %rax
 9794 3bc5 4889C7   		movq	%rax, %rdi
 9795              	.LEHB246:
 9796 3bc8 E8BDFFFF 		call	_ZN12_GLOBAL__N_143TestCheckArray2DCloseFailureIncludesDetailsD1Ev
 9796      FF
 9797              	.LEHE246:
 273:TestChecks.cpp **** {
 9798              		.loc 5 273 0 is_stmt 0 discriminator 2
 9799 3bcd 488B45E8 		movq	-24(%rbp), %rax
 9800 3bd1 4889C7   		movq	%rax, %rdi
 9801 3bd4 E8000000 		call	_ZdlPv@PLT
 9801      00
 9802 3bd9 EB1A     		jmp	.L485
 9803              	.L484:
 9804 3bdb 4889C3   		movq	%rax, %rbx
 273:TestChecks.cpp **** {
 9805              		.loc 5 273 0
 9806 3bde 488B45E8 		movq	-24(%rbp), %rax
 9807 3be2 4889C7   		movq	%rax, %rdi
 9808 3be5 E8000000 		call	_ZdlPv@PLT
 9808      00
 9809 3bea 4889D8   		movq	%rbx, %rax
 9810 3bed 4889C7   		movq	%rax, %rdi
 9811              	.LEHB247:
 9812 3bf0 E8000000 		call	_Unwind_Resume@PLT
 9812      00
 9813              	.LEHE247:
 9814              	.L485:
 9815 3bf5 4883C418 		addq	$24, %rsp
 9816 3bf9 5B       		popq	%rbx
 9817 3bfa 5D       		popq	%rbp
 9818              		.cfi_def_cfa 7, 8
 9819 3bfb C3       		ret
 9820              		.cfi_endproc
 9821              	.LFE1306:
 9822              		.section	.gcc_except_table
 9823              	.LLSDA1306:
 9824 06da FF       		.byte	0xff
 9825 06db FF       		.byte	0xff
 9826 06dc 01       		.byte	0x1
 9827 06dd 08       		.uleb128 .LLSDACSE1306-.LLSDACSB1306
 9828              	.LLSDACSB1306:
 9829 06de 14       		.uleb128 .LEHB246-.LFB1306
 9830 06df 05       		.uleb128 .LEHE246-.LEHB246
 9831 06e0 27       		.uleb128 .L484-.LFB1306
 9832 06e1 00       		.uleb128 0
 9833 06e2 3C       		.uleb128 .LEHB247-.LFB1306
 9834 06e3 05       		.uleb128 .LEHE247-.LEHB247
 9835 06e4 00       		.uleb128 0
 9836 06e5 00       		.uleb128 0
 9837              	.LLSDACSE1306:
 9838              		.text
 9840              		.section	.data.rel.ro.local
 9841              		.align 8
 9844              	_ZTVN12_GLOBAL__N_133TestCheckCloseWithDoublesSucceedsE:
 9845 0028 00000000 		.quad	0
 9845      00000000 
 9846 0030 00000000 		.quad	_ZTIN12_GLOBAL__N_133TestCheckCloseWithDoublesSucceedsE
 9846      00000000 
 9847 0038 00000000 		.quad	_ZN12_GLOBAL__N_133TestCheckCloseWithDoublesSucceedsD1Ev
 9847      00000000 
 9848 0040 00000000 		.quad	_ZN12_GLOBAL__N_133TestCheckCloseWithDoublesSucceedsD0Ev
 9848      00000000 
 9849 0048 00000000 		.quad	_ZNK12_GLOBAL__N_133TestCheckCloseWithDoublesSucceeds7RunImplEv
 9849      00000000 
 9850              		.text
 9851              		.align 2
 9853              	_ZN12_GLOBAL__N_133TestCheckCloseWithDoublesSucceedsD2Ev:
 9854              	.LFB1308:
 268:TestChecks.cpp **** {
 9855              		.loc 5 268 0 is_stmt 1
 9856              		.cfi_startproc
 9857 3bfc 55       		pushq	%rbp
 9858              		.cfi_def_cfa_offset 16
 9859              		.cfi_offset 6, -16
 9860 3bfd 4889E5   		movq	%rsp, %rbp
 9861              		.cfi_def_cfa_register 6
 9862 3c00 4883EC10 		subq	$16, %rsp
 9863 3c04 48897DF8 		movq	%rdi, -8(%rbp)
 9864              	.LBB84:
 268:TestChecks.cpp **** {
 9865              		.loc 5 268 0
 9866 3c08 488D1500 		leaq	16+_ZTVN12_GLOBAL__N_133TestCheckCloseWithDoublesSucceedsE(%rip), %rdx
 9866      000000
 9867 3c0f 488B45F8 		movq	-8(%rbp), %rax
 9868 3c13 488910   		movq	%rdx, (%rax)
 9869 3c16 488B45F8 		movq	-8(%rbp), %rax
 9870 3c1a 4889C7   		movq	%rax, %rdi
 9871 3c1d E8000000 		call	_ZN8UnitTest4TestD2Ev@PLT
 9871      00
 9872              	.LBE84:
 9873 3c22 90       		nop
 9874 3c23 C9       		leave
 9875              		.cfi_def_cfa 7, 8
 9876 3c24 C3       		ret
 9877              		.cfi_endproc
 9878              	.LFE1308:
 9880              		.set	_ZN12_GLOBAL__N_133TestCheckCloseWithDoublesSucceedsD1Ev,_ZN12_GLOBAL__N_133TestCheckCloseWit
 9881 3c25 90       		.align 2
 9883              	_ZN12_GLOBAL__N_133TestCheckCloseWithDoublesSucceedsD0Ev:
 9884              	.LFB1310:
 268:TestChecks.cpp **** {
 9885              		.loc 5 268 0
 9886              		.cfi_startproc
 9887              		.cfi_personality 0x9b,DW.ref.__gxx_personality_v0
 9888              		.cfi_lsda 0x1b,.LLSDA1310
 9889 3c26 55       		pushq	%rbp
 9890              		.cfi_def_cfa_offset 16
 9891              		.cfi_offset 6, -16
 9892 3c27 4889E5   		movq	%rsp, %rbp
 9893              		.cfi_def_cfa_register 6
 9894 3c2a 53       		pushq	%rbx
 9895 3c2b 4883EC18 		subq	$24, %rsp
 9896              		.cfi_offset 3, -24
 9897 3c2f 48897DE8 		movq	%rdi, -24(%rbp)
 268:TestChecks.cpp **** {
 9898              		.loc 5 268 0
 9899 3c33 488B45E8 		movq	-24(%rbp), %rax
 9900 3c37 4889C7   		movq	%rax, %rdi
 9901              	.LEHB248:
 9902 3c3a E8BDFFFF 		call	_ZN12_GLOBAL__N_133TestCheckCloseWithDoublesSucceedsD1Ev
 9902      FF
 9903              	.LEHE248:
 268:TestChecks.cpp **** {
 9904              		.loc 5 268 0 is_stmt 0 discriminator 2
 9905 3c3f 488B45E8 		movq	-24(%rbp), %rax
 9906 3c43 4889C7   		movq	%rax, %rdi
 9907 3c46 E8000000 		call	_ZdlPv@PLT
 9907      00
 9908 3c4b EB1A     		jmp	.L490
 9909              	.L489:
 9910 3c4d 4889C3   		movq	%rax, %rbx
 268:TestChecks.cpp **** {
 9911              		.loc 5 268 0
 9912 3c50 488B45E8 		movq	-24(%rbp), %rax
 9913 3c54 4889C7   		movq	%rax, %rdi
 9914 3c57 E8000000 		call	_ZdlPv@PLT
 9914      00
 9915 3c5c 4889D8   		movq	%rbx, %rax
 9916 3c5f 4889C7   		movq	%rax, %rdi
 9917              	.LEHB249:
 9918 3c62 E8000000 		call	_Unwind_Resume@PLT
 9918      00
 9919              	.LEHE249:
 9920              	.L490:
 9921 3c67 4883C418 		addq	$24, %rsp
 9922 3c6b 5B       		popq	%rbx
 9923 3c6c 5D       		popq	%rbp
 9924              		.cfi_def_cfa 7, 8
 9925 3c6d C3       		ret
 9926              		.cfi_endproc
 9927              	.LFE1310:
 9928              		.section	.gcc_except_table
 9929              	.LLSDA1310:
 9930 06e6 FF       		.byte	0xff
 9931 06e7 FF       		.byte	0xff
 9932 06e8 01       		.byte	0x1
 9933 06e9 08       		.uleb128 .LLSDACSE1310-.LLSDACSB1310
 9934              	.LLSDACSB1310:
 9935 06ea 14       		.uleb128 .LEHB248-.LFB1310
 9936 06eb 05       		.uleb128 .LEHE248-.LEHB248
 9937 06ec 27       		.uleb128 .L489-.LFB1310
 9938 06ed 00       		.uleb128 0
 9939 06ee 3C       		.uleb128 .LEHB249-.LFB1310
 9940 06ef 05       		.uleb128 .LEHE249-.LEHB249
 9941 06f0 00       		.uleb128 0
 9942 06f1 00       		.uleb128 0
 9943              	.LLSDACSE1310:
 9944              		.text
 9946              		.section	.data.rel.ro.local
 9947              		.align 8
 9950              	_ZTVN12_GLOBAL__N_126TestCheckArray2DCloseFalseE:
 9951 0050 00000000 		.quad	0
 9951      00000000 
 9952 0058 00000000 		.quad	_ZTIN12_GLOBAL__N_126TestCheckArray2DCloseFalseE
 9952      00000000 
 9953 0060 00000000 		.quad	_ZN12_GLOBAL__N_126TestCheckArray2DCloseFalseD1Ev
 9953      00000000 
 9954 0068 00000000 		.quad	_ZN12_GLOBAL__N_126TestCheckArray2DCloseFalseD0Ev
 9954      00000000 
 9955 0070 00000000 		.quad	_ZNK12_GLOBAL__N_126TestCheckArray2DCloseFalse7RunImplEv
 9955      00000000 
 9956              		.text
 9957              		.align 2
 9959              	_ZN12_GLOBAL__N_126TestCheckArray2DCloseFalseD2Ev:
 9960              	.LFB1312:
 254:TestChecks.cpp **** {
 9961              		.loc 5 254 0 is_stmt 1
 9962              		.cfi_startproc
 9963 3c6e 55       		pushq	%rbp
 9964              		.cfi_def_cfa_offset 16
 9965              		.cfi_offset 6, -16
 9966 3c6f 4889E5   		movq	%rsp, %rbp
 9967              		.cfi_def_cfa_register 6
 9968 3c72 4883EC10 		subq	$16, %rsp
 9969 3c76 48897DF8 		movq	%rdi, -8(%rbp)
 9970              	.LBB85:
 254:TestChecks.cpp **** {
 9971              		.loc 5 254 0
 9972 3c7a 488D1500 		leaq	16+_ZTVN12_GLOBAL__N_126TestCheckArray2DCloseFalseE(%rip), %rdx
 9972      000000
 9973 3c81 488B45F8 		movq	-8(%rbp), %rax
 9974 3c85 488910   		movq	%rdx, (%rax)
 9975 3c88 488B45F8 		movq	-8(%rbp), %rax
 9976 3c8c 4889C7   		movq	%rax, %rdi
 9977 3c8f E8000000 		call	_ZN8UnitTest4TestD2Ev@PLT
 9977      00
 9978              	.LBE85:
 9979 3c94 90       		nop
 9980 3c95 C9       		leave
 9981              		.cfi_def_cfa 7, 8
 9982 3c96 C3       		ret
 9983              		.cfi_endproc
 9984              	.LFE1312:
 9986              		.set	_ZN12_GLOBAL__N_126TestCheckArray2DCloseFalseD1Ev,_ZN12_GLOBAL__N_126TestCheckArray2DCloseFal
 9987 3c97 90       		.align 2
 9989              	_ZN12_GLOBAL__N_126TestCheckArray2DCloseFalseD0Ev:
 9990              	.LFB1314:
 254:TestChecks.cpp **** {
 9991              		.loc 5 254 0
 9992              		.cfi_startproc
 9993              		.cfi_personality 0x9b,DW.ref.__gxx_personality_v0
 9994              		.cfi_lsda 0x1b,.LLSDA1314
 9995 3c98 55       		pushq	%rbp
 9996              		.cfi_def_cfa_offset 16
 9997              		.cfi_offset 6, -16
 9998 3c99 4889E5   		movq	%rsp, %rbp
 9999              		.cfi_def_cfa_register 6
 10000 3c9c 53       		pushq	%rbx
 10001 3c9d 4883EC18 		subq	$24, %rsp
 10002              		.cfi_offset 3, -24
 10003 3ca1 48897DE8 		movq	%rdi, -24(%rbp)
 254:TestChecks.cpp **** {
 10004              		.loc 5 254 0
 10005 3ca5 488B45E8 		movq	-24(%rbp), %rax
 10006 3ca9 4889C7   		movq	%rax, %rdi
 10007              	.LEHB250:
 10008 3cac E8BDFFFF 		call	_ZN12_GLOBAL__N_126TestCheckArray2DCloseFalseD1Ev
 10008      FF
 10009              	.LEHE250:
 254:TestChecks.cpp **** {
 10010              		.loc 5 254 0 is_stmt 0 discriminator 2
 10011 3cb1 488B45E8 		movq	-24(%rbp), %rax
 10012 3cb5 4889C7   		movq	%rax, %rdi
 10013 3cb8 E8000000 		call	_ZdlPv@PLT
 10013      00
 10014 3cbd EB1A     		jmp	.L495
 10015              	.L494:
 10016 3cbf 4889C3   		movq	%rax, %rbx
 254:TestChecks.cpp **** {
 10017              		.loc 5 254 0
 10018 3cc2 488B45E8 		movq	-24(%rbp), %rax
 10019 3cc6 4889C7   		movq	%rax, %rdi
 10020 3cc9 E8000000 		call	_ZdlPv@PLT
 10020      00
 10021 3cce 4889D8   		movq	%rbx, %rax
 10022 3cd1 4889C7   		movq	%rax, %rdi
 10023              	.LEHB251:
 10024 3cd4 E8000000 		call	_Unwind_Resume@PLT
 10024      00
 10025              	.LEHE251:
 10026              	.L495:
 10027 3cd9 4883C418 		addq	$24, %rsp
 10028 3cdd 5B       		popq	%rbx
 10029 3cde 5D       		popq	%rbp
 10030              		.cfi_def_cfa 7, 8
 10031 3cdf C3       		ret
 10032              		.cfi_endproc
 10033              	.LFE1314:
 10034              		.section	.gcc_except_table
 10035              	.LLSDA1314:
 10036 06f2 FF       		.byte	0xff
 10037 06f3 FF       		.byte	0xff
 10038 06f4 01       		.byte	0x1
 10039 06f5 08       		.uleb128 .LLSDACSE1314-.LLSDACSB1314
 10040              	.LLSDACSB1314:
 10041 06f6 14       		.uleb128 .LEHB250-.LFB1314
 10042 06f7 05       		.uleb128 .LEHE250-.LEHB250
 10043 06f8 27       		.uleb128 .L494-.LFB1314
 10044 06f9 00       		.uleb128 0
 10045 06fa 3C       		.uleb128 .LEHB251-.LFB1314
 10046 06fb 05       		.uleb128 .LEHE251-.LEHB251
 10047 06fc 00       		.uleb128 0
 10048 06fd 00       		.uleb128 0
 10049              	.LLSDACSE1314:
 10050              		.text
 10052              		.section	.data.rel.ro.local
 10053              		.align 8
 10056              	_ZTVN12_GLOBAL__N_125TestCheckArray2DCloseTrueE:
 10057 0078 00000000 		.quad	0
 10057      00000000 
 10058 0080 00000000 		.quad	_ZTIN12_GLOBAL__N_125TestCheckArray2DCloseTrueE
 10058      00000000 
 10059 0088 00000000 		.quad	_ZN12_GLOBAL__N_125TestCheckArray2DCloseTrueD1Ev
 10059      00000000 
 10060 0090 00000000 		.quad	_ZN12_GLOBAL__N_125TestCheckArray2DCloseTrueD0Ev
 10060      00000000 
 10061 0098 00000000 		.quad	_ZNK12_GLOBAL__N_125TestCheckArray2DCloseTrue7RunImplEv
 10061      00000000 
 10062              		.text
 10063              		.align 2
 10065              	_ZN12_GLOBAL__N_125TestCheckArray2DCloseTrueD2Ev:
 10066              	.LFB1316:
 240:TestChecks.cpp **** {
 10067              		.loc 5 240 0 is_stmt 1
 10068              		.cfi_startproc
 10069 3ce0 55       		pushq	%rbp
 10070              		.cfi_def_cfa_offset 16
 10071              		.cfi_offset 6, -16
 10072 3ce1 4889E5   		movq	%rsp, %rbp
 10073              		.cfi_def_cfa_register 6
 10074 3ce4 4883EC10 		subq	$16, %rsp
 10075 3ce8 48897DF8 		movq	%rdi, -8(%rbp)
 10076              	.LBB86:
 240:TestChecks.cpp **** {
 10077              		.loc 5 240 0
 10078 3cec 488D1500 		leaq	16+_ZTVN12_GLOBAL__N_125TestCheckArray2DCloseTrueE(%rip), %rdx
 10078      000000
 10079 3cf3 488B45F8 		movq	-8(%rbp), %rax
 10080 3cf7 488910   		movq	%rdx, (%rax)
 10081 3cfa 488B45F8 		movq	-8(%rbp), %rax
 10082 3cfe 4889C7   		movq	%rax, %rdi
 10083 3d01 E8000000 		call	_ZN8UnitTest4TestD2Ev@PLT
 10083      00
 10084              	.LBE86:
 10085 3d06 90       		nop
 10086 3d07 C9       		leave
 10087              		.cfi_def_cfa 7, 8
 10088 3d08 C3       		ret
 10089              		.cfi_endproc
 10090              	.LFE1316:
 10092              		.set	_ZN12_GLOBAL__N_125TestCheckArray2DCloseTrueD1Ev,_ZN12_GLOBAL__N_125TestCheckArray2DCloseTrue
 10093 3d09 90       		.align 2
 10095              	_ZN12_GLOBAL__N_125TestCheckArray2DCloseTrueD0Ev:
 10096              	.LFB1318:
 240:TestChecks.cpp **** {
 10097              		.loc 5 240 0
 10098              		.cfi_startproc
 10099              		.cfi_personality 0x9b,DW.ref.__gxx_personality_v0
 10100              		.cfi_lsda 0x1b,.LLSDA1318
 10101 3d0a 55       		pushq	%rbp
 10102              		.cfi_def_cfa_offset 16
 10103              		.cfi_offset 6, -16
 10104 3d0b 4889E5   		movq	%rsp, %rbp
 10105              		.cfi_def_cfa_register 6
 10106 3d0e 53       		pushq	%rbx
 10107 3d0f 4883EC18 		subq	$24, %rsp
 10108              		.cfi_offset 3, -24
 10109 3d13 48897DE8 		movq	%rdi, -24(%rbp)
 240:TestChecks.cpp **** {
 10110              		.loc 5 240 0
 10111 3d17 488B45E8 		movq	-24(%rbp), %rax
 10112 3d1b 4889C7   		movq	%rax, %rdi
 10113              	.LEHB252:
 10114 3d1e E8BDFFFF 		call	_ZN12_GLOBAL__N_125TestCheckArray2DCloseTrueD1Ev
 10114      FF
 10115              	.LEHE252:
 240:TestChecks.cpp **** {
 10116              		.loc 5 240 0 is_stmt 0 discriminator 2
 10117 3d23 488B45E8 		movq	-24(%rbp), %rax
 10118 3d27 4889C7   		movq	%rax, %rdi
 10119 3d2a E8000000 		call	_ZdlPv@PLT
 10119      00
 10120 3d2f EB1A     		jmp	.L500
 10121              	.L499:
 10122 3d31 4889C3   		movq	%rax, %rbx
 240:TestChecks.cpp **** {
 10123              		.loc 5 240 0
 10124 3d34 488B45E8 		movq	-24(%rbp), %rax
 10125 3d38 4889C7   		movq	%rax, %rdi
 10126 3d3b E8000000 		call	_ZdlPv@PLT
 10126      00
 10127 3d40 4889D8   		movq	%rbx, %rax
 10128 3d43 4889C7   		movq	%rax, %rdi
 10129              	.LEHB253:
 10130 3d46 E8000000 		call	_Unwind_Resume@PLT
 10130      00
 10131              	.LEHE253:
 10132              	.L500:
 10133 3d4b 4883C418 		addq	$24, %rsp
 10134 3d4f 5B       		popq	%rbx
 10135 3d50 5D       		popq	%rbp
 10136              		.cfi_def_cfa 7, 8
 10137 3d51 C3       		ret
 10138              		.cfi_endproc
 10139              	.LFE1318:
 10140              		.section	.gcc_except_table
 10141              	.LLSDA1318:
 10142 06fe FF       		.byte	0xff
 10143 06ff FF       		.byte	0xff
 10144 0700 01       		.byte	0x1
 10145 0701 08       		.uleb128 .LLSDACSE1318-.LLSDACSB1318
 10146              	.LLSDACSB1318:
 10147 0702 14       		.uleb128 .LEHB252-.LFB1318
 10148 0703 05       		.uleb128 .LEHE252-.LEHB252
 10149 0704 27       		.uleb128 .L499-.LFB1318
 10150 0705 00       		.uleb128 0
 10151 0706 3C       		.uleb128 .LEHB253-.LFB1318
 10152 0707 05       		.uleb128 .LEHE253-.LEHB253
 10153 0708 00       		.uleb128 0
 10154 0709 00       		.uleb128 0
 10155              	.LLSDACSE1318:
 10156              		.text
 10158              		.section	.data.rel.ro.local
 10159              		.align 8
 10162              	_ZTVN12_GLOBAL__N_141TestCheckArrayCloseFailureIncludesDetailsE:
 10163 00a0 00000000 		.quad	0
 10163      00000000 
 10164 00a8 00000000 		.quad	_ZTIN12_GLOBAL__N_141TestCheckArrayCloseFailureIncludesDetailsE
 10164      00000000 
 10165 00b0 00000000 		.quad	_ZN12_GLOBAL__N_141TestCheckArrayCloseFailureIncludesDetailsD1Ev
 10165      00000000 
 10166 00b8 00000000 		.quad	_ZN12_GLOBAL__N_141TestCheckArrayCloseFailureIncludesDetailsD0Ev
 10166      00000000 
 10167 00c0 00000000 		.quad	_ZNK12_GLOBAL__N_141TestCheckArrayCloseFailureIncludesDetails7RunImplEv
 10167      00000000 
 10168              		.text
 10169              		.align 2
 10171              	_ZN12_GLOBAL__N_141TestCheckArrayCloseFailureIncludesDetailsD2Ev:
 10172              	.LFB1320:
 223:TestChecks.cpp **** {
 10173              		.loc 5 223 0 is_stmt 1
 10174              		.cfi_startproc
 10175 3d52 55       		pushq	%rbp
 10176              		.cfi_def_cfa_offset 16
 10177              		.cfi_offset 6, -16
 10178 3d53 4889E5   		movq	%rsp, %rbp
 10179              		.cfi_def_cfa_register 6
 10180 3d56 4883EC10 		subq	$16, %rsp
 10181 3d5a 48897DF8 		movq	%rdi, -8(%rbp)
 10182              	.LBB87:
 223:TestChecks.cpp **** {
 10183              		.loc 5 223 0
 10184 3d5e 488D1500 		leaq	16+_ZTVN12_GLOBAL__N_141TestCheckArrayCloseFailureIncludesDetailsE(%rip), %rdx
 10184      000000
 10185 3d65 488B45F8 		movq	-8(%rbp), %rax
 10186 3d69 488910   		movq	%rdx, (%rax)
 10187 3d6c 488B45F8 		movq	-8(%rbp), %rax
 10188 3d70 4889C7   		movq	%rax, %rdi
 10189 3d73 E8000000 		call	_ZN8UnitTest4TestD2Ev@PLT
 10189      00
 10190              	.LBE87:
 10191 3d78 90       		nop
 10192 3d79 C9       		leave
 10193              		.cfi_def_cfa 7, 8
 10194 3d7a C3       		ret
 10195              		.cfi_endproc
 10196              	.LFE1320:
 10198              		.set	_ZN12_GLOBAL__N_141TestCheckArrayCloseFailureIncludesDetailsD1Ev,_ZN12_GLOBAL__N_141TestCheck
 10199 3d7b 90       		.align 2
 10201              	_ZN12_GLOBAL__N_141TestCheckArrayCloseFailureIncludesDetailsD0Ev:
 10202              	.LFB1322:
 223:TestChecks.cpp **** {
 10203              		.loc 5 223 0
 10204              		.cfi_startproc
 10205              		.cfi_personality 0x9b,DW.ref.__gxx_personality_v0
 10206              		.cfi_lsda 0x1b,.LLSDA1322
 10207 3d7c 55       		pushq	%rbp
 10208              		.cfi_def_cfa_offset 16
 10209              		.cfi_offset 6, -16
 10210 3d7d 4889E5   		movq	%rsp, %rbp
 10211              		.cfi_def_cfa_register 6
 10212 3d80 53       		pushq	%rbx
 10213 3d81 4883EC18 		subq	$24, %rsp
 10214              		.cfi_offset 3, -24
 10215 3d85 48897DE8 		movq	%rdi, -24(%rbp)
 223:TestChecks.cpp **** {
 10216              		.loc 5 223 0
 10217 3d89 488B45E8 		movq	-24(%rbp), %rax
 10218 3d8d 4889C7   		movq	%rax, %rdi
 10219              	.LEHB254:
 10220 3d90 E8BDFFFF 		call	_ZN12_GLOBAL__N_141TestCheckArrayCloseFailureIncludesDetailsD1Ev
 10220      FF
 10221              	.LEHE254:
 223:TestChecks.cpp **** {
 10222              		.loc 5 223 0 is_stmt 0 discriminator 2
 10223 3d95 488B45E8 		movq	-24(%rbp), %rax
 10224 3d99 4889C7   		movq	%rax, %rdi
 10225 3d9c E8000000 		call	_ZdlPv@PLT
 10225      00
 10226 3da1 EB1A     		jmp	.L505
 10227              	.L504:
 10228 3da3 4889C3   		movq	%rax, %rbx
 223:TestChecks.cpp **** {
 10229              		.loc 5 223 0
 10230 3da6 488B45E8 		movq	-24(%rbp), %rax
 10231 3daa 4889C7   		movq	%rax, %rdi
 10232 3dad E8000000 		call	_ZdlPv@PLT
 10232      00
 10233 3db2 4889D8   		movq	%rbx, %rax
 10234 3db5 4889C7   		movq	%rax, %rdi
 10235              	.LEHB255:
 10236 3db8 E8000000 		call	_Unwind_Resume@PLT
 10236      00
 10237              	.LEHE255:
 10238              	.L505:
 10239 3dbd 4883C418 		addq	$24, %rsp
 10240 3dc1 5B       		popq	%rbx
 10241 3dc2 5D       		popq	%rbp
 10242              		.cfi_def_cfa 7, 8
 10243 3dc3 C3       		ret
 10244              		.cfi_endproc
 10245              	.LFE1322:
 10246              		.section	.gcc_except_table
 10247              	.LLSDA1322:
 10248 070a FF       		.byte	0xff
 10249 070b FF       		.byte	0xff
 10250 070c 01       		.byte	0x1
 10251 070d 08       		.uleb128 .LLSDACSE1322-.LLSDACSB1322
 10252              	.LLSDACSB1322:
 10253 070e 14       		.uleb128 .LEHB254-.LFB1322
 10254 070f 05       		.uleb128 .LEHE254-.LEHB254
 10255 0710 27       		.uleb128 .L504-.LFB1322
 10256 0711 00       		.uleb128 0
 10257 0712 3C       		.uleb128 .LEHB255-.LFB1322
 10258 0713 05       		.uleb128 .LEHE255-.LEHB255
 10259 0714 00       		.uleb128 0
 10260 0715 00       		.uleb128 0
 10261              	.LLSDACSE1322:
 10262              		.text
 10264              		.section	.data.rel.ro.local
 10265              		.align 8
 10268              	_ZTVN12_GLOBAL__N_124TestCheckArrayCloseFalseE:
 10269 00c8 00000000 		.quad	0
 10269      00000000 
 10270 00d0 00000000 		.quad	_ZTIN12_GLOBAL__N_124TestCheckArrayCloseFalseE
 10270      00000000 
 10271 00d8 00000000 		.quad	_ZN12_GLOBAL__N_124TestCheckArrayCloseFalseD1Ev
 10271      00000000 
 10272 00e0 00000000 		.quad	_ZN12_GLOBAL__N_124TestCheckArrayCloseFalseD0Ev
 10272      00000000 
 10273 00e8 00000000 		.quad	_ZNK12_GLOBAL__N_124TestCheckArrayCloseFalse7RunImplEv
 10273      00000000 
 10274              		.text
 10275              		.align 2
 10277              	_ZN12_GLOBAL__N_124TestCheckArrayCloseFalseD2Ev:
 10278              	.LFB1324:
 213:TestChecks.cpp **** {
 10279              		.loc 5 213 0 is_stmt 1
 10280              		.cfi_startproc
 10281 3dc4 55       		pushq	%rbp
 10282              		.cfi_def_cfa_offset 16
 10283              		.cfi_offset 6, -16
 10284 3dc5 4889E5   		movq	%rsp, %rbp
 10285              		.cfi_def_cfa_register 6
 10286 3dc8 4883EC10 		subq	$16, %rsp
 10287 3dcc 48897DF8 		movq	%rdi, -8(%rbp)
 10288              	.LBB88:
 213:TestChecks.cpp **** {
 10289              		.loc 5 213 0
 10290 3dd0 488D1500 		leaq	16+_ZTVN12_GLOBAL__N_124TestCheckArrayCloseFalseE(%rip), %rdx
 10290      000000
 10291 3dd7 488B45F8 		movq	-8(%rbp), %rax
 10292 3ddb 488910   		movq	%rdx, (%rax)
 10293 3dde 488B45F8 		movq	-8(%rbp), %rax
 10294 3de2 4889C7   		movq	%rax, %rdi
 10295 3de5 E8000000 		call	_ZN8UnitTest4TestD2Ev@PLT
 10295      00
 10296              	.LBE88:
 10297 3dea 90       		nop
 10298 3deb C9       		leave
 10299              		.cfi_def_cfa 7, 8
 10300 3dec C3       		ret
 10301              		.cfi_endproc
 10302              	.LFE1324:
 10304              		.set	_ZN12_GLOBAL__N_124TestCheckArrayCloseFalseD1Ev,_ZN12_GLOBAL__N_124TestCheckArrayCloseFalseD2
 10305 3ded 90       		.align 2
 10307              	_ZN12_GLOBAL__N_124TestCheckArrayCloseFalseD0Ev:
 10308              	.LFB1326:
 213:TestChecks.cpp **** {
 10309              		.loc 5 213 0
 10310              		.cfi_startproc
 10311              		.cfi_personality 0x9b,DW.ref.__gxx_personality_v0
 10312              		.cfi_lsda 0x1b,.LLSDA1326
 10313 3dee 55       		pushq	%rbp
 10314              		.cfi_def_cfa_offset 16
 10315              		.cfi_offset 6, -16
 10316 3def 4889E5   		movq	%rsp, %rbp
 10317              		.cfi_def_cfa_register 6
 10318 3df2 53       		pushq	%rbx
 10319 3df3 4883EC18 		subq	$24, %rsp
 10320              		.cfi_offset 3, -24
 10321 3df7 48897DE8 		movq	%rdi, -24(%rbp)
 213:TestChecks.cpp **** {
 10322              		.loc 5 213 0
 10323 3dfb 488B45E8 		movq	-24(%rbp), %rax
 10324 3dff 4889C7   		movq	%rax, %rdi
 10325              	.LEHB256:
 10326 3e02 E8BDFFFF 		call	_ZN12_GLOBAL__N_124TestCheckArrayCloseFalseD1Ev
 10326      FF
 10327              	.LEHE256:
 213:TestChecks.cpp **** {
 10328              		.loc 5 213 0 is_stmt 0 discriminator 2
 10329 3e07 488B45E8 		movq	-24(%rbp), %rax
 10330 3e0b 4889C7   		movq	%rax, %rdi
 10331 3e0e E8000000 		call	_ZdlPv@PLT
 10331      00
 10332 3e13 EB1A     		jmp	.L510
 10333              	.L509:
 10334 3e15 4889C3   		movq	%rax, %rbx
 213:TestChecks.cpp **** {
 10335              		.loc 5 213 0
 10336 3e18 488B45E8 		movq	-24(%rbp), %rax
 10337 3e1c 4889C7   		movq	%rax, %rdi
 10338 3e1f E8000000 		call	_ZdlPv@PLT
 10338      00
 10339 3e24 4889D8   		movq	%rbx, %rax
 10340 3e27 4889C7   		movq	%rax, %rdi
 10341              	.LEHB257:
 10342 3e2a E8000000 		call	_Unwind_Resume@PLT
 10342      00
 10343              	.LEHE257:
 10344              	.L510:
 10345 3e2f 4883C418 		addq	$24, %rsp
 10346 3e33 5B       		popq	%rbx
 10347 3e34 5D       		popq	%rbp
 10348              		.cfi_def_cfa 7, 8
 10349 3e35 C3       		ret
 10350              		.cfi_endproc
 10351              	.LFE1326:
 10352              		.section	.gcc_except_table
 10353              	.LLSDA1326:
 10354 0716 FF       		.byte	0xff
 10355 0717 FF       		.byte	0xff
 10356 0718 01       		.byte	0x1
 10357 0719 08       		.uleb128 .LLSDACSE1326-.LLSDACSB1326
 10358              	.LLSDACSB1326:
 10359 071a 14       		.uleb128 .LEHB256-.LFB1326
 10360 071b 05       		.uleb128 .LEHE256-.LEHB256
 10361 071c 27       		.uleb128 .L509-.LFB1326
 10362 071d 00       		.uleb128 0
 10363 071e 3C       		.uleb128 .LEHB257-.LFB1326
 10364 071f 05       		.uleb128 .LEHE257-.LEHB257
 10365 0720 00       		.uleb128 0
 10366 0721 00       		.uleb128 0
 10367              	.LLSDACSE1326:
 10368              		.text
 10370              		.section	.data.rel.ro.local
 10371              		.align 8
 10374              	_ZTVN12_GLOBAL__N_123TestCheckArrayCloseTrueE:
 10375 00f0 00000000 		.quad	0
 10375      00000000 
 10376 00f8 00000000 		.quad	_ZTIN12_GLOBAL__N_123TestCheckArrayCloseTrueE
 10376      00000000 
 10377 0100 00000000 		.quad	_ZN12_GLOBAL__N_123TestCheckArrayCloseTrueD1Ev
 10377      00000000 
 10378 0108 00000000 		.quad	_ZN12_GLOBAL__N_123TestCheckArrayCloseTrueD0Ev
 10378      00000000 
 10379 0110 00000000 		.quad	_ZNK12_GLOBAL__N_123TestCheckArrayCloseTrue7RunImplEv
 10379      00000000 
 10380              		.text
 10381              		.align 2
 10383              	_ZN12_GLOBAL__N_123TestCheckArrayCloseTrueD2Ev:
 10384              	.LFB1328:
 203:TestChecks.cpp **** {
 10385              		.loc 5 203 0 is_stmt 1
 10386              		.cfi_startproc
 10387 3e36 55       		pushq	%rbp
 10388              		.cfi_def_cfa_offset 16
 10389              		.cfi_offset 6, -16
 10390 3e37 4889E5   		movq	%rsp, %rbp
 10391              		.cfi_def_cfa_register 6
 10392 3e3a 4883EC10 		subq	$16, %rsp
 10393 3e3e 48897DF8 		movq	%rdi, -8(%rbp)
 10394              	.LBB89:
 203:TestChecks.cpp **** {
 10395              		.loc 5 203 0
 10396 3e42 488D1500 		leaq	16+_ZTVN12_GLOBAL__N_123TestCheckArrayCloseTrueE(%rip), %rdx
 10396      000000
 10397 3e49 488B45F8 		movq	-8(%rbp), %rax
 10398 3e4d 488910   		movq	%rdx, (%rax)
 10399 3e50 488B45F8 		movq	-8(%rbp), %rax
 10400 3e54 4889C7   		movq	%rax, %rdi
 10401 3e57 E8000000 		call	_ZN8UnitTest4TestD2Ev@PLT
 10401      00
 10402              	.LBE89:
 10403 3e5c 90       		nop
 10404 3e5d C9       		leave
 10405              		.cfi_def_cfa 7, 8
 10406 3e5e C3       		ret
 10407              		.cfi_endproc
 10408              	.LFE1328:
 10410              		.set	_ZN12_GLOBAL__N_123TestCheckArrayCloseTrueD1Ev,_ZN12_GLOBAL__N_123TestCheckArrayCloseTrueD2Ev
 10411 3e5f 90       		.align 2
 10413              	_ZN12_GLOBAL__N_123TestCheckArrayCloseTrueD0Ev:
 10414              	.LFB1330:
 203:TestChecks.cpp **** {
 10415              		.loc 5 203 0
 10416              		.cfi_startproc
 10417              		.cfi_personality 0x9b,DW.ref.__gxx_personality_v0
 10418              		.cfi_lsda 0x1b,.LLSDA1330
 10419 3e60 55       		pushq	%rbp
 10420              		.cfi_def_cfa_offset 16
 10421              		.cfi_offset 6, -16
 10422 3e61 4889E5   		movq	%rsp, %rbp
 10423              		.cfi_def_cfa_register 6
 10424 3e64 53       		pushq	%rbx
 10425 3e65 4883EC18 		subq	$24, %rsp
 10426              		.cfi_offset 3, -24
 10427 3e69 48897DE8 		movq	%rdi, -24(%rbp)
 203:TestChecks.cpp **** {
 10428              		.loc 5 203 0
 10429 3e6d 488B45E8 		movq	-24(%rbp), %rax
 10430 3e71 4889C7   		movq	%rax, %rdi
 10431              	.LEHB258:
 10432 3e74 E8BDFFFF 		call	_ZN12_GLOBAL__N_123TestCheckArrayCloseTrueD1Ev
 10432      FF
 10433              	.LEHE258:
 203:TestChecks.cpp **** {
 10434              		.loc 5 203 0 is_stmt 0 discriminator 2
 10435 3e79 488B45E8 		movq	-24(%rbp), %rax
 10436 3e7d 4889C7   		movq	%rax, %rdi
 10437 3e80 E8000000 		call	_ZdlPv@PLT
 10437      00
 10438 3e85 EB1A     		jmp	.L515
 10439              	.L514:
 10440 3e87 4889C3   		movq	%rax, %rbx
 203:TestChecks.cpp **** {
 10441              		.loc 5 203 0
 10442 3e8a 488B45E8 		movq	-24(%rbp), %rax
 10443 3e8e 4889C7   		movq	%rax, %rdi
 10444 3e91 E8000000 		call	_ZdlPv@PLT
 10444      00
 10445 3e96 4889D8   		movq	%rbx, %rax
 10446 3e99 4889C7   		movq	%rax, %rdi
 10447              	.LEHB259:
 10448 3e9c E8000000 		call	_Unwind_Resume@PLT
 10448      00
 10449              	.LEHE259:
 10450              	.L515:
 10451 3ea1 4883C418 		addq	$24, %rsp
 10452 3ea5 5B       		popq	%rbx
 10453 3ea6 5D       		popq	%rbp
 10454              		.cfi_def_cfa 7, 8
 10455 3ea7 C3       		ret
 10456              		.cfi_endproc
 10457              	.LFE1330:
 10458              		.section	.gcc_except_table
 10459              	.LLSDA1330:
 10460 0722 FF       		.byte	0xff
 10461 0723 FF       		.byte	0xff
 10462 0724 01       		.byte	0x1
 10463 0725 08       		.uleb128 .LLSDACSE1330-.LLSDACSB1330
 10464              	.LLSDACSB1330:
 10465 0726 14       		.uleb128 .LEHB258-.LFB1330
 10466 0727 05       		.uleb128 .LEHE258-.LEHB258
 10467 0728 27       		.uleb128 .L514-.LFB1330
 10468 0729 00       		.uleb128 0
 10469 072a 3C       		.uleb128 .LEHB259-.LFB1330
 10470 072b 05       		.uleb128 .LEHE259-.LEHB259
 10471 072c 00       		.uleb128 0
 10472 072d 00       		.uleb128 0
 10473              	.LLSDACSE1330:
 10474              		.text
 10476              		.section	.data.rel.ro.local
 10477              		.align 8
 10480              	_ZTVN12_GLOBAL__N_124TestCheckArrayEqualFalseE:
 10481 0118 00000000 		.quad	0
 10481      00000000 
 10482 0120 00000000 		.quad	_ZTIN12_GLOBAL__N_124TestCheckArrayEqualFalseE
 10482      00000000 
 10483 0128 00000000 		.quad	_ZN12_GLOBAL__N_124TestCheckArrayEqualFalseD1Ev
 10483      00000000 
 10484 0130 00000000 		.quad	_ZN12_GLOBAL__N_124TestCheckArrayEqualFalseD0Ev
 10484      00000000 
 10485 0138 00000000 		.quad	_ZNK12_GLOBAL__N_124TestCheckArrayEqualFalse7RunImplEv
 10485      00000000 
 10486              		.text
 10487              		.align 2
 10489              	_ZN12_GLOBAL__N_124TestCheckArrayEqualFalseD2Ev:
 10490              	.LFB1332:
 193:TestChecks.cpp **** {
 10491              		.loc 5 193 0 is_stmt 1
 10492              		.cfi_startproc
 10493 3ea8 55       		pushq	%rbp
 10494              		.cfi_def_cfa_offset 16
 10495              		.cfi_offset 6, -16
 10496 3ea9 4889E5   		movq	%rsp, %rbp
 10497              		.cfi_def_cfa_register 6
 10498 3eac 4883EC10 		subq	$16, %rsp
 10499 3eb0 48897DF8 		movq	%rdi, -8(%rbp)
 10500              	.LBB90:
 193:TestChecks.cpp **** {
 10501              		.loc 5 193 0
 10502 3eb4 488D1500 		leaq	16+_ZTVN12_GLOBAL__N_124TestCheckArrayEqualFalseE(%rip), %rdx
 10502      000000
 10503 3ebb 488B45F8 		movq	-8(%rbp), %rax
 10504 3ebf 488910   		movq	%rdx, (%rax)
 10505 3ec2 488B45F8 		movq	-8(%rbp), %rax
 10506 3ec6 4889C7   		movq	%rax, %rdi
 10507 3ec9 E8000000 		call	_ZN8UnitTest4TestD2Ev@PLT
 10507      00
 10508              	.LBE90:
 10509 3ece 90       		nop
 10510 3ecf C9       		leave
 10511              		.cfi_def_cfa 7, 8
 10512 3ed0 C3       		ret
 10513              		.cfi_endproc
 10514              	.LFE1332:
 10516              		.set	_ZN12_GLOBAL__N_124TestCheckArrayEqualFalseD1Ev,_ZN12_GLOBAL__N_124TestCheckArrayEqualFalseD2
 10517 3ed1 90       		.align 2
 10519              	_ZN12_GLOBAL__N_124TestCheckArrayEqualFalseD0Ev:
 10520              	.LFB1334:
 193:TestChecks.cpp **** {
 10521              		.loc 5 193 0
 10522              		.cfi_startproc
 10523              		.cfi_personality 0x9b,DW.ref.__gxx_personality_v0
 10524              		.cfi_lsda 0x1b,.LLSDA1334
 10525 3ed2 55       		pushq	%rbp
 10526              		.cfi_def_cfa_offset 16
 10527              		.cfi_offset 6, -16
 10528 3ed3 4889E5   		movq	%rsp, %rbp
 10529              		.cfi_def_cfa_register 6
 10530 3ed6 53       		pushq	%rbx
 10531 3ed7 4883EC18 		subq	$24, %rsp
 10532              		.cfi_offset 3, -24
 10533 3edb 48897DE8 		movq	%rdi, -24(%rbp)
 193:TestChecks.cpp **** {
 10534              		.loc 5 193 0
 10535 3edf 488B45E8 		movq	-24(%rbp), %rax
 10536 3ee3 4889C7   		movq	%rax, %rdi
 10537              	.LEHB260:
 10538 3ee6 E8BDFFFF 		call	_ZN12_GLOBAL__N_124TestCheckArrayEqualFalseD1Ev
 10538      FF
 10539              	.LEHE260:
 193:TestChecks.cpp **** {
 10540              		.loc 5 193 0 is_stmt 0 discriminator 2
 10541 3eeb 488B45E8 		movq	-24(%rbp), %rax
 10542 3eef 4889C7   		movq	%rax, %rdi
 10543 3ef2 E8000000 		call	_ZdlPv@PLT
 10543      00
 10544 3ef7 EB1A     		jmp	.L520
 10545              	.L519:
 10546 3ef9 4889C3   		movq	%rax, %rbx
 193:TestChecks.cpp **** {
 10547              		.loc 5 193 0
 10548 3efc 488B45E8 		movq	-24(%rbp), %rax
 10549 3f00 4889C7   		movq	%rax, %rdi
 10550 3f03 E8000000 		call	_ZdlPv@PLT
 10550      00
 10551 3f08 4889D8   		movq	%rbx, %rax
 10552 3f0b 4889C7   		movq	%rax, %rdi
 10553              	.LEHB261:
 10554 3f0e E8000000 		call	_Unwind_Resume@PLT
 10554      00
 10555              	.LEHE261:
 10556              	.L520:
 10557 3f13 4883C418 		addq	$24, %rsp
 10558 3f17 5B       		popq	%rbx
 10559 3f18 5D       		popq	%rbp
 10560              		.cfi_def_cfa 7, 8
 10561 3f19 C3       		ret
 10562              		.cfi_endproc
 10563              	.LFE1334:
 10564              		.section	.gcc_except_table
 10565              	.LLSDA1334:
 10566 072e FF       		.byte	0xff
 10567 072f FF       		.byte	0xff
 10568 0730 01       		.byte	0x1
 10569 0731 08       		.uleb128 .LLSDACSE1334-.LLSDACSB1334
 10570              	.LLSDACSB1334:
 10571 0732 14       		.uleb128 .LEHB260-.LFB1334
 10572 0733 05       		.uleb128 .LEHE260-.LEHB260
 10573 0734 27       		.uleb128 .L519-.LFB1334
 10574 0735 00       		.uleb128 0
 10575 0736 3C       		.uleb128 .LEHB261-.LFB1334
 10576 0737 05       		.uleb128 .LEHE261-.LEHB261
 10577 0738 00       		.uleb128 0
 10578 0739 00       		.uleb128 0
 10579              	.LLSDACSE1334:
 10580              		.text
 10582              		.section	.data.rel.ro.local
 10583              		.align 8
 10586              	_ZTVN12_GLOBAL__N_123TestCheckArrayEqualTrueE:
 10587 0140 00000000 		.quad	0
 10587      00000000 
 10588 0148 00000000 		.quad	_ZTIN12_GLOBAL__N_123TestCheckArrayEqualTrueE
 10588      00000000 
 10589 0150 00000000 		.quad	_ZN12_GLOBAL__N_123TestCheckArrayEqualTrueD1Ev
 10589      00000000 
 10590 0158 00000000 		.quad	_ZN12_GLOBAL__N_123TestCheckArrayEqualTrueD0Ev
 10590      00000000 
 10591 0160 00000000 		.quad	_ZNK12_GLOBAL__N_123TestCheckArrayEqualTrue7RunImplEv
 10591      00000000 
 10592              		.text
 10593              		.align 2
 10595              	_ZN12_GLOBAL__N_123TestCheckArrayEqualTrueD2Ev:
 10596              	.LFB1336:
 184:TestChecks.cpp **** {
 10597              		.loc 5 184 0 is_stmt 1
 10598              		.cfi_startproc
 10599 3f1a 55       		pushq	%rbp
 10600              		.cfi_def_cfa_offset 16
 10601              		.cfi_offset 6, -16
 10602 3f1b 4889E5   		movq	%rsp, %rbp
 10603              		.cfi_def_cfa_register 6
 10604 3f1e 4883EC10 		subq	$16, %rsp
 10605 3f22 48897DF8 		movq	%rdi, -8(%rbp)
 10606              	.LBB91:
 184:TestChecks.cpp **** {
 10607              		.loc 5 184 0
 10608 3f26 488D1500 		leaq	16+_ZTVN12_GLOBAL__N_123TestCheckArrayEqualTrueE(%rip), %rdx
 10608      000000
 10609 3f2d 488B45F8 		movq	-8(%rbp), %rax
 10610 3f31 488910   		movq	%rdx, (%rax)
 10611 3f34 488B45F8 		movq	-8(%rbp), %rax
 10612 3f38 4889C7   		movq	%rax, %rdi
 10613 3f3b E8000000 		call	_ZN8UnitTest4TestD2Ev@PLT
 10613      00
 10614              	.LBE91:
 10615 3f40 90       		nop
 10616 3f41 C9       		leave
 10617              		.cfi_def_cfa 7, 8
 10618 3f42 C3       		ret
 10619              		.cfi_endproc
 10620              	.LFE1336:
 10622              		.set	_ZN12_GLOBAL__N_123TestCheckArrayEqualTrueD1Ev,_ZN12_GLOBAL__N_123TestCheckArrayEqualTrueD2Ev
 10623 3f43 90       		.align 2
 10625              	_ZN12_GLOBAL__N_123TestCheckArrayEqualTrueD0Ev:
 10626              	.LFB1338:
 184:TestChecks.cpp **** {
 10627              		.loc 5 184 0
 10628              		.cfi_startproc
 10629              		.cfi_personality 0x9b,DW.ref.__gxx_personality_v0
 10630              		.cfi_lsda 0x1b,.LLSDA1338
 10631 3f44 55       		pushq	%rbp
 10632              		.cfi_def_cfa_offset 16
 10633              		.cfi_offset 6, -16
 10634 3f45 4889E5   		movq	%rsp, %rbp
 10635              		.cfi_def_cfa_register 6
 10636 3f48 53       		pushq	%rbx
 10637 3f49 4883EC18 		subq	$24, %rsp
 10638              		.cfi_offset 3, -24
 10639 3f4d 48897DE8 		movq	%rdi, -24(%rbp)
 184:TestChecks.cpp **** {
 10640              		.loc 5 184 0
 10641 3f51 488B45E8 		movq	-24(%rbp), %rax
 10642 3f55 4889C7   		movq	%rax, %rdi
 10643              	.LEHB262:
 10644 3f58 E8BDFFFF 		call	_ZN12_GLOBAL__N_123TestCheckArrayEqualTrueD1Ev
 10644      FF
 10645              	.LEHE262:
 184:TestChecks.cpp **** {
 10646              		.loc 5 184 0 is_stmt 0 discriminator 2
 10647 3f5d 488B45E8 		movq	-24(%rbp), %rax
 10648 3f61 4889C7   		movq	%rax, %rdi
 10649 3f64 E8000000 		call	_ZdlPv@PLT
 10649      00
 10650 3f69 EB1A     		jmp	.L525
 10651              	.L524:
 10652 3f6b 4889C3   		movq	%rax, %rbx
 184:TestChecks.cpp **** {
 10653              		.loc 5 184 0
 10654 3f6e 488B45E8 		movq	-24(%rbp), %rax
 10655 3f72 4889C7   		movq	%rax, %rdi
 10656 3f75 E8000000 		call	_ZdlPv@PLT
 10656      00
 10657 3f7a 4889D8   		movq	%rbx, %rax
 10658 3f7d 4889C7   		movq	%rax, %rdi
 10659              	.LEHB263:
 10660 3f80 E8000000 		call	_Unwind_Resume@PLT
 10660      00
 10661              	.LEHE263:
 10662              	.L525:
 10663 3f85 4883C418 		addq	$24, %rsp
 10664 3f89 5B       		popq	%rbx
 10665 3f8a 5D       		popq	%rbp
 10666              		.cfi_def_cfa 7, 8
 10667 3f8b C3       		ret
 10668              		.cfi_endproc
 10669              	.LFE1338:
 10670              		.section	.gcc_except_table
 10671              	.LLSDA1338:
 10672 073a FF       		.byte	0xff
 10673 073b FF       		.byte	0xff
 10674 073c 01       		.byte	0x1
 10675 073d 08       		.uleb128 .LLSDACSE1338-.LLSDACSB1338
 10676              	.LLSDACSB1338:
 10677 073e 14       		.uleb128 .LEHB262-.LFB1338
 10678 073f 05       		.uleb128 .LEHE262-.LEHB262
 10679 0740 27       		.uleb128 .L524-.LFB1338
 10680 0741 00       		.uleb128 0
 10681 0742 3C       		.uleb128 .LEHB263-.LFB1338
 10682 0743 05       		.uleb128 .LEHE263-.LEHB263
 10683 0744 00       		.uleb128 0
 10684 0745 00       		.uleb128 0
 10685              	.LLSDACSE1338:
 10686              		.text
 10688              		.section	.data.rel.ro.local
 10689              		.align 8
 10692              	_ZTVN12_GLOBAL__N_136TestCheckCloseFailureIncludesDetailsE:
 10693 0168 00000000 		.quad	0
 10693      00000000 
 10694 0170 00000000 		.quad	_ZTIN12_GLOBAL__N_136TestCheckCloseFailureIncludesDetailsE
 10694      00000000 
 10695 0178 00000000 		.quad	_ZN12_GLOBAL__N_136TestCheckCloseFailureIncludesDetailsD1Ev
 10695      00000000 
 10696 0180 00000000 		.quad	_ZN12_GLOBAL__N_136TestCheckCloseFailureIncludesDetailsD0Ev
 10696      00000000 
 10697 0188 00000000 		.quad	_ZNK12_GLOBAL__N_136TestCheckCloseFailureIncludesDetails7RunImplEv
 10697      00000000 
 10698              		.text
 10699              		.align 2
 10701              	_ZN12_GLOBAL__N_136TestCheckCloseFailureIncludesDetailsD2Ev:
 10702              	.LFB1340:
 169:TestChecks.cpp **** {
 10703              		.loc 5 169 0 is_stmt 1
 10704              		.cfi_startproc
 10705 3f8c 55       		pushq	%rbp
 10706              		.cfi_def_cfa_offset 16
 10707              		.cfi_offset 6, -16
 10708 3f8d 4889E5   		movq	%rsp, %rbp
 10709              		.cfi_def_cfa_register 6
 10710 3f90 4883EC10 		subq	$16, %rsp
 10711 3f94 48897DF8 		movq	%rdi, -8(%rbp)
 10712              	.LBB92:
 169:TestChecks.cpp **** {
 10713              		.loc 5 169 0
 10714 3f98 488D1500 		leaq	16+_ZTVN12_GLOBAL__N_136TestCheckCloseFailureIncludesDetailsE(%rip), %rdx
 10714      000000
 10715 3f9f 488B45F8 		movq	-8(%rbp), %rax
 10716 3fa3 488910   		movq	%rdx, (%rax)
 10717 3fa6 488B45F8 		movq	-8(%rbp), %rax
 10718 3faa 4889C7   		movq	%rax, %rdi
 10719 3fad E8000000 		call	_ZN8UnitTest4TestD2Ev@PLT
 10719      00
 10720              	.LBE92:
 10721 3fb2 90       		nop
 10722 3fb3 C9       		leave
 10723              		.cfi_def_cfa 7, 8
 10724 3fb4 C3       		ret
 10725              		.cfi_endproc
 10726              	.LFE1340:
 10728              		.set	_ZN12_GLOBAL__N_136TestCheckCloseFailureIncludesDetailsD1Ev,_ZN12_GLOBAL__N_136TestCheckClose
 10729 3fb5 90       		.align 2
 10731              	_ZN12_GLOBAL__N_136TestCheckCloseFailureIncludesDetailsD0Ev:
 10732              	.LFB1342:
 169:TestChecks.cpp **** {
 10733              		.loc 5 169 0
 10734              		.cfi_startproc
 10735              		.cfi_personality 0x9b,DW.ref.__gxx_personality_v0
 10736              		.cfi_lsda 0x1b,.LLSDA1342
 10737 3fb6 55       		pushq	%rbp
 10738              		.cfi_def_cfa_offset 16
 10739              		.cfi_offset 6, -16
 10740 3fb7 4889E5   		movq	%rsp, %rbp
 10741              		.cfi_def_cfa_register 6
 10742 3fba 53       		pushq	%rbx
 10743 3fbb 4883EC18 		subq	$24, %rsp
 10744              		.cfi_offset 3, -24
 10745 3fbf 48897DE8 		movq	%rdi, -24(%rbp)
 169:TestChecks.cpp **** {
 10746              		.loc 5 169 0
 10747 3fc3 488B45E8 		movq	-24(%rbp), %rax
 10748 3fc7 4889C7   		movq	%rax, %rdi
 10749              	.LEHB264:
 10750 3fca E8BDFFFF 		call	_ZN12_GLOBAL__N_136TestCheckCloseFailureIncludesDetailsD1Ev
 10750      FF
 10751              	.LEHE264:
 169:TestChecks.cpp **** {
 10752              		.loc 5 169 0 is_stmt 0 discriminator 2
 10753 3fcf 488B45E8 		movq	-24(%rbp), %rax
 10754 3fd3 4889C7   		movq	%rax, %rdi
 10755 3fd6 E8000000 		call	_ZdlPv@PLT
 10755      00
 10756 3fdb EB1A     		jmp	.L530
 10757              	.L529:
 10758 3fdd 4889C3   		movq	%rax, %rbx
 169:TestChecks.cpp **** {
 10759              		.loc 5 169 0
 10760 3fe0 488B45E8 		movq	-24(%rbp), %rax
 10761 3fe4 4889C7   		movq	%rax, %rdi
 10762 3fe7 E8000000 		call	_ZdlPv@PLT
 10762      00
 10763 3fec 4889D8   		movq	%rbx, %rax
 10764 3fef 4889C7   		movq	%rax, %rdi
 10765              	.LEHB265:
 10766 3ff2 E8000000 		call	_Unwind_Resume@PLT
 10766      00
 10767              	.LEHE265:
 10768              	.L530:
 10769 3ff7 4883C418 		addq	$24, %rsp
 10770 3ffb 5B       		popq	%rbx
 10771 3ffc 5D       		popq	%rbp
 10772              		.cfi_def_cfa 7, 8
 10773 3ffd C3       		ret
 10774              		.cfi_endproc
 10775              	.LFE1342:
 10776              		.section	.gcc_except_table
 10777              	.LLSDA1342:
 10778 0746 FF       		.byte	0xff
 10779 0747 FF       		.byte	0xff
 10780 0748 01       		.byte	0x1
 10781 0749 08       		.uleb128 .LLSDACSE1342-.LLSDACSB1342
 10782              	.LLSDACSB1342:
 10783 074a 14       		.uleb128 .LEHB264-.LFB1342
 10784 074b 05       		.uleb128 .LEHE264-.LEHB264
 10785 074c 27       		.uleb128 .L529-.LFB1342
 10786 074d 00       		.uleb128 0
 10787 074e 3C       		.uleb128 .LEHB265-.LFB1342
 10788 074f 05       		.uleb128 .LEHE265-.LEHB265
 10789 0750 00       		.uleb128 0
 10790 0751 00       		.uleb128 0
 10791              	.LLSDACSE1342:
 10792              		.text
 10794              		.section	.data.rel.ro.local
 10795              		.align 8
 10798              	_ZTVN12_GLOBAL__N_138TestCheckCloseFailureIncludesToleranceE:
 10799 0190 00000000 		.quad	0
 10799      00000000 
 10800 0198 00000000 		.quad	_ZTIN12_GLOBAL__N_138TestCheckCloseFailureIncludesToleranceE
 10800      00000000 
 10801 01a0 00000000 		.quad	_ZN12_GLOBAL__N_138TestCheckCloseFailureIncludesToleranceD1Ev
 10801      00000000 
 10802 01a8 00000000 		.quad	_ZN12_GLOBAL__N_138TestCheckCloseFailureIncludesToleranceD0Ev
 10802      00000000 
 10803 01b0 00000000 		.quad	_ZNK12_GLOBAL__N_138TestCheckCloseFailureIncludesTolerance7RunImplEv
 10803      00000000 
 10804              		.text
 10805              		.align 2
 10807              	_ZN12_GLOBAL__N_138TestCheckCloseFailureIncludesToleranceD2Ev:
 10808              	.LFB1344:
 159:TestChecks.cpp **** {
 10809              		.loc 5 159 0 is_stmt 1
 10810              		.cfi_startproc
 10811 3ffe 55       		pushq	%rbp
 10812              		.cfi_def_cfa_offset 16
 10813              		.cfi_offset 6, -16
 10814 3fff 4889E5   		movq	%rsp, %rbp
 10815              		.cfi_def_cfa_register 6
 10816 4002 4883EC10 		subq	$16, %rsp
 10817 4006 48897DF8 		movq	%rdi, -8(%rbp)
 10818              	.LBB93:
 159:TestChecks.cpp **** {
 10819              		.loc 5 159 0
 10820 400a 488D1500 		leaq	16+_ZTVN12_GLOBAL__N_138TestCheckCloseFailureIncludesToleranceE(%rip), %rdx
 10820      000000
 10821 4011 488B45F8 		movq	-8(%rbp), %rax
 10822 4015 488910   		movq	%rdx, (%rax)
 10823 4018 488B45F8 		movq	-8(%rbp), %rax
 10824 401c 4889C7   		movq	%rax, %rdi
 10825 401f E8000000 		call	_ZN8UnitTest4TestD2Ev@PLT
 10825      00
 10826              	.LBE93:
 10827 4024 90       		nop
 10828 4025 C9       		leave
 10829              		.cfi_def_cfa 7, 8
 10830 4026 C3       		ret
 10831              		.cfi_endproc
 10832              	.LFE1344:
 10834              		.set	_ZN12_GLOBAL__N_138TestCheckCloseFailureIncludesToleranceD1Ev,_ZN12_GLOBAL__N_138TestCheckClo
 10835 4027 90       		.align 2
 10837              	_ZN12_GLOBAL__N_138TestCheckCloseFailureIncludesToleranceD0Ev:
 10838              	.LFB1346:
 159:TestChecks.cpp **** {
 10839              		.loc 5 159 0
 10840              		.cfi_startproc
 10841              		.cfi_personality 0x9b,DW.ref.__gxx_personality_v0
 10842              		.cfi_lsda 0x1b,.LLSDA1346
 10843 4028 55       		pushq	%rbp
 10844              		.cfi_def_cfa_offset 16
 10845              		.cfi_offset 6, -16
 10846 4029 4889E5   		movq	%rsp, %rbp
 10847              		.cfi_def_cfa_register 6
 10848 402c 53       		pushq	%rbx
 10849 402d 4883EC18 		subq	$24, %rsp
 10850              		.cfi_offset 3, -24
 10851 4031 48897DE8 		movq	%rdi, -24(%rbp)
 159:TestChecks.cpp **** {
 10852              		.loc 5 159 0
 10853 4035 488B45E8 		movq	-24(%rbp), %rax
 10854 4039 4889C7   		movq	%rax, %rdi
 10855              	.LEHB266:
 10856 403c E8BDFFFF 		call	_ZN12_GLOBAL__N_138TestCheckCloseFailureIncludesToleranceD1Ev
 10856      FF
 10857              	.LEHE266:
 159:TestChecks.cpp **** {
 10858              		.loc 5 159 0 is_stmt 0 discriminator 2
 10859 4041 488B45E8 		movq	-24(%rbp), %rax
 10860 4045 4889C7   		movq	%rax, %rdi
 10861 4048 E8000000 		call	_ZdlPv@PLT
 10861      00
 10862 404d EB1A     		jmp	.L535
 10863              	.L534:
 10864 404f 4889C3   		movq	%rax, %rbx
 159:TestChecks.cpp **** {
 10865              		.loc 5 159 0
 10866 4052 488B45E8 		movq	-24(%rbp), %rax
 10867 4056 4889C7   		movq	%rax, %rdi
 10868 4059 E8000000 		call	_ZdlPv@PLT
 10868      00
 10869 405e 4889D8   		movq	%rbx, %rax
 10870 4061 4889C7   		movq	%rax, %rdi
 10871              	.LEHB267:
 10872 4064 E8000000 		call	_Unwind_Resume@PLT
 10872      00
 10873              	.LEHE267:
 10874              	.L535:
 10875 4069 4883C418 		addq	$24, %rsp
 10876 406d 5B       		popq	%rbx
 10877 406e 5D       		popq	%rbp
 10878              		.cfi_def_cfa 7, 8
 10879 406f C3       		ret
 10880              		.cfi_endproc
 10881              	.LFE1346:
 10882              		.section	.gcc_except_table
 10883              	.LLSDA1346:
 10884 0752 FF       		.byte	0xff
 10885 0753 FF       		.byte	0xff
 10886 0754 01       		.byte	0x1
 10887 0755 08       		.uleb128 .LLSDACSE1346-.LLSDACSB1346
 10888              	.LLSDACSB1346:
 10889 0756 14       		.uleb128 .LEHB266-.LFB1346
 10890 0757 05       		.uleb128 .LEHE266-.LEHB266
 10891 0758 27       		.uleb128 .L534-.LFB1346
 10892 0759 00       		.uleb128 0
 10893 075a 3C       		.uleb128 .LEHB267-.LFB1346
 10894 075b 05       		.uleb128 .LEHE267-.LEHB267
 10895 075c 00       		.uleb128 0
 10896 075d 00       		.uleb128 0
 10897              	.LLSDACSE1346:
 10898              		.text
 10900              		.section	.data.rel.ro.local
 10901              		.align 8
 10904              	_ZTVN12_GLOBAL__N_151TestCheckCloseFailureIncludesCheckExpectedAndActualE:
 10905 01b8 00000000 		.quad	0
 10905      00000000 
 10906 01c0 00000000 		.quad	_ZTIN12_GLOBAL__N_151TestCheckCloseFailureIncludesCheckExpectedAndActualE
 10906      00000000 
 10907 01c8 00000000 		.quad	_ZN12_GLOBAL__N_151TestCheckCloseFailureIncludesCheckExpectedAndActualD1Ev
 10907      00000000 
 10908 01d0 00000000 		.quad	_ZN12_GLOBAL__N_151TestCheckCloseFailureIncludesCheckExpectedAndActualD0Ev
 10908      00000000 
 10909 01d8 00000000 		.quad	_ZNK12_GLOBAL__N_151TestCheckCloseFailureIncludesCheckExpectedAndActual7RunImplEv
 10909      00000000 
 10910              		.text
 10911              		.align 2
 10913              	_ZN12_GLOBAL__N_151TestCheckCloseFailureIncludesCheckExpectedAndActualD2Ev:
 10914              	.LFB1348:
 146:TestChecks.cpp **** {
 10915              		.loc 5 146 0 is_stmt 1
 10916              		.cfi_startproc
 10917 4070 55       		pushq	%rbp
 10918              		.cfi_def_cfa_offset 16
 10919              		.cfi_offset 6, -16
 10920 4071 4889E5   		movq	%rsp, %rbp
 10921              		.cfi_def_cfa_register 6
 10922 4074 4883EC10 		subq	$16, %rsp
 10923 4078 48897DF8 		movq	%rdi, -8(%rbp)
 10924              	.LBB94:
 146:TestChecks.cpp **** {
 10925              		.loc 5 146 0
 10926 407c 488D1500 		leaq	16+_ZTVN12_GLOBAL__N_151TestCheckCloseFailureIncludesCheckExpectedAndActualE(%rip), %rdx
 10926      000000
 10927 4083 488B45F8 		movq	-8(%rbp), %rax
 10928 4087 488910   		movq	%rdx, (%rax)
 10929 408a 488B45F8 		movq	-8(%rbp), %rax
 10930 408e 4889C7   		movq	%rax, %rdi
 10931 4091 E8000000 		call	_ZN8UnitTest4TestD2Ev@PLT
 10931      00
 10932              	.LBE94:
 10933 4096 90       		nop
 10934 4097 C9       		leave
 10935              		.cfi_def_cfa 7, 8
 10936 4098 C3       		ret
 10937              		.cfi_endproc
 10938              	.LFE1348:
 10940              		.set	_ZN12_GLOBAL__N_151TestCheckCloseFailureIncludesCheckExpectedAndActualD1Ev,_ZN12_GLOBAL__N_15
 10941 4099 90       		.align 2
 10943              	_ZN12_GLOBAL__N_151TestCheckCloseFailureIncludesCheckExpectedAndActualD0Ev:
 10944              	.LFB1350:
 146:TestChecks.cpp **** {
 10945              		.loc 5 146 0
 10946              		.cfi_startproc
 10947              		.cfi_personality 0x9b,DW.ref.__gxx_personality_v0
 10948              		.cfi_lsda 0x1b,.LLSDA1350
 10949 409a 55       		pushq	%rbp
 10950              		.cfi_def_cfa_offset 16
 10951              		.cfi_offset 6, -16
 10952 409b 4889E5   		movq	%rsp, %rbp
 10953              		.cfi_def_cfa_register 6
 10954 409e 53       		pushq	%rbx
 10955 409f 4883EC18 		subq	$24, %rsp
 10956              		.cfi_offset 3, -24
 10957 40a3 48897DE8 		movq	%rdi, -24(%rbp)
 146:TestChecks.cpp **** {
 10958              		.loc 5 146 0
 10959 40a7 488B45E8 		movq	-24(%rbp), %rax
 10960 40ab 4889C7   		movq	%rax, %rdi
 10961              	.LEHB268:
 10962 40ae E8BDFFFF 		call	_ZN12_GLOBAL__N_151TestCheckCloseFailureIncludesCheckExpectedAndActualD1Ev
 10962      FF
 10963              	.LEHE268:
 146:TestChecks.cpp **** {
 10964              		.loc 5 146 0 is_stmt 0 discriminator 2
 10965 40b3 488B45E8 		movq	-24(%rbp), %rax
 10966 40b7 4889C7   		movq	%rax, %rdi
 10967 40ba E8000000 		call	_ZdlPv@PLT
 10967      00
 10968 40bf EB1A     		jmp	.L540
 10969              	.L539:
 10970 40c1 4889C3   		movq	%rax, %rbx
 146:TestChecks.cpp **** {
 10971              		.loc 5 146 0
 10972 40c4 488B45E8 		movq	-24(%rbp), %rax
 10973 40c8 4889C7   		movq	%rax, %rdi
 10974 40cb E8000000 		call	_ZdlPv@PLT
 10974      00
 10975 40d0 4889D8   		movq	%rbx, %rax
 10976 40d3 4889C7   		movq	%rax, %rdi
 10977              	.LEHB269:
 10978 40d6 E8000000 		call	_Unwind_Resume@PLT
 10978      00
 10979              	.LEHE269:
 10980              	.L540:
 10981 40db 4883C418 		addq	$24, %rsp
 10982 40df 5B       		popq	%rbx
 10983 40e0 5D       		popq	%rbp
 10984              		.cfi_def_cfa 7, 8
 10985 40e1 C3       		ret
 10986              		.cfi_endproc
 10987              	.LFE1350:
 10988              		.section	.gcc_except_table
 10989              	.LLSDA1350:
 10990 075e FF       		.byte	0xff
 10991 075f FF       		.byte	0xff
 10992 0760 01       		.byte	0x1
 10993 0761 08       		.uleb128 .LLSDACSE1350-.LLSDACSB1350
 10994              	.LLSDACSB1350:
 10995 0762 14       		.uleb128 .LEHB268-.LFB1350
 10996 0763 05       		.uleb128 .LEHE268-.LEHB268
 10997 0764 27       		.uleb128 .L539-.LFB1350
 10998 0765 00       		.uleb128 0
 10999 0766 3C       		.uleb128 .LEHB269-.LFB1350
 11000 0767 05       		.uleb128 .LEHE269-.LEHB269
 11001 0768 00       		.uleb128 0
 11002 0769 00       		.uleb128 0
 11003              	.LLSDACSE1350:
 11004              		.text
 11006              		.section	.data.rel.ro.local
 11007              		.align 8
 11010              	_ZTVN12_GLOBAL__N_139TestCheckCloseWithNaNAgainstItselfFailsE:
 11011 01e0 00000000 		.quad	0
 11011      00000000 
 11012 01e8 00000000 		.quad	_ZTIN12_GLOBAL__N_139TestCheckCloseWithNaNAgainstItselfFailsE
 11012      00000000 
 11013 01f0 00000000 		.quad	_ZN12_GLOBAL__N_139TestCheckCloseWithNaNAgainstItselfFailsD1Ev
 11013      00000000 
 11014 01f8 00000000 		.quad	_ZN12_GLOBAL__N_139TestCheckCloseWithNaNAgainstItselfFailsD0Ev
 11014      00000000 
 11015 0200 00000000 		.quad	_ZNK12_GLOBAL__N_139TestCheckCloseWithNaNAgainstItselfFails7RunImplEv
 11015      00000000 
 11016              		.text
 11017              		.align 2
 11019              	_ZN12_GLOBAL__N_139TestCheckCloseWithNaNAgainstItselfFailsD2Ev:
 11020              	.LFB1352:
 133:TestChecks.cpp **** {
 11021              		.loc 5 133 0 is_stmt 1
 11022              		.cfi_startproc
 11023 40e2 55       		pushq	%rbp
 11024              		.cfi_def_cfa_offset 16
 11025              		.cfi_offset 6, -16
 11026 40e3 4889E5   		movq	%rsp, %rbp
 11027              		.cfi_def_cfa_register 6
 11028 40e6 4883EC10 		subq	$16, %rsp
 11029 40ea 48897DF8 		movq	%rdi, -8(%rbp)
 11030              	.LBB95:
 133:TestChecks.cpp **** {
 11031              		.loc 5 133 0
 11032 40ee 488D1500 		leaq	16+_ZTVN12_GLOBAL__N_139TestCheckCloseWithNaNAgainstItselfFailsE(%rip), %rdx
 11032      000000
 11033 40f5 488B45F8 		movq	-8(%rbp), %rax
 11034 40f9 488910   		movq	%rdx, (%rax)
 11035 40fc 488B45F8 		movq	-8(%rbp), %rax
 11036 4100 4889C7   		movq	%rax, %rdi
 11037 4103 E8000000 		call	_ZN8UnitTest4TestD2Ev@PLT
 11037      00
 11038              	.LBE95:
 11039 4108 90       		nop
 11040 4109 C9       		leave
 11041              		.cfi_def_cfa 7, 8
 11042 410a C3       		ret
 11043              		.cfi_endproc
 11044              	.LFE1352:
 11046              		.set	_ZN12_GLOBAL__N_139TestCheckCloseWithNaNAgainstItselfFailsD1Ev,_ZN12_GLOBAL__N_139TestCheckCl
 11047 410b 90       		.align 2
 11049              	_ZN12_GLOBAL__N_139TestCheckCloseWithNaNAgainstItselfFailsD0Ev:
 11050              	.LFB1354:
 133:TestChecks.cpp **** {
 11051              		.loc 5 133 0
 11052              		.cfi_startproc
 11053              		.cfi_personality 0x9b,DW.ref.__gxx_personality_v0
 11054              		.cfi_lsda 0x1b,.LLSDA1354
 11055 410c 55       		pushq	%rbp
 11056              		.cfi_def_cfa_offset 16
 11057              		.cfi_offset 6, -16
 11058 410d 4889E5   		movq	%rsp, %rbp
 11059              		.cfi_def_cfa_register 6
 11060 4110 53       		pushq	%rbx
 11061 4111 4883EC18 		subq	$24, %rsp
 11062              		.cfi_offset 3, -24
 11063 4115 48897DE8 		movq	%rdi, -24(%rbp)
 133:TestChecks.cpp **** {
 11064              		.loc 5 133 0
 11065 4119 488B45E8 		movq	-24(%rbp), %rax
 11066 411d 4889C7   		movq	%rax, %rdi
 11067              	.LEHB270:
 11068 4120 E8BDFFFF 		call	_ZN12_GLOBAL__N_139TestCheckCloseWithNaNAgainstItselfFailsD1Ev
 11068      FF
 11069              	.LEHE270:
 133:TestChecks.cpp **** {
 11070              		.loc 5 133 0 is_stmt 0 discriminator 2
 11071 4125 488B45E8 		movq	-24(%rbp), %rax
 11072 4129 4889C7   		movq	%rax, %rdi
 11073 412c E8000000 		call	_ZdlPv@PLT
 11073      00
 11074 4131 EB1A     		jmp	.L545
 11075              	.L544:
 11076 4133 4889C3   		movq	%rax, %rbx
 133:TestChecks.cpp **** {
 11077              		.loc 5 133 0
 11078 4136 488B45E8 		movq	-24(%rbp), %rax
 11079 413a 4889C7   		movq	%rax, %rdi
 11080 413d E8000000 		call	_ZdlPv@PLT
 11080      00
 11081 4142 4889D8   		movq	%rbx, %rax
 11082 4145 4889C7   		movq	%rax, %rdi
 11083              	.LEHB271:
 11084 4148 E8000000 		call	_Unwind_Resume@PLT
 11084      00
 11085              	.LEHE271:
 11086              	.L545:
 11087 414d 4883C418 		addq	$24, %rsp
 11088 4151 5B       		popq	%rbx
 11089 4152 5D       		popq	%rbp
 11090              		.cfi_def_cfa 7, 8
 11091 4153 C3       		ret
 11092              		.cfi_endproc
 11093              	.LFE1354:
 11094              		.section	.gcc_except_table
 11095              	.LLSDA1354:
 11096 076a FF       		.byte	0xff
 11097 076b FF       		.byte	0xff
 11098 076c 01       		.byte	0x1
 11099 076d 08       		.uleb128 .LLSDACSE1354-.LLSDACSB1354
 11100              	.LLSDACSB1354:
 11101 076e 14       		.uleb128 .LEHB270-.LFB1354
 11102 076f 05       		.uleb128 .LEHE270-.LEHB270
 11103 0770 27       		.uleb128 .L544-.LFB1354
 11104 0771 00       		.uleb128 0
 11105 0772 3C       		.uleb128 .LEHB271-.LFB1354
 11106 0773 05       		.uleb128 .LEHE271-.LEHB271
 11107 0774 00       		.uleb128 0
 11108 0775 00       		.uleb128 0
 11109              	.LLSDACSE1354:
 11110              		.text
 11112              		.section	.data.rel.ro.local
 11113              		.align 8
 11116              	_ZTVN12_GLOBAL__N_126TestCheckCloseWithNaNFailsE:
 11117 0208 00000000 		.quad	0
 11117      00000000 
 11118 0210 00000000 		.quad	_ZTIN12_GLOBAL__N_126TestCheckCloseWithNaNFailsE
 11118      00000000 
 11119 0218 00000000 		.quad	_ZN12_GLOBAL__N_126TestCheckCloseWithNaNFailsD1Ev
 11119      00000000 
 11120 0220 00000000 		.quad	_ZN12_GLOBAL__N_126TestCheckCloseWithNaNFailsD0Ev
 11120      00000000 
 11121 0228 00000000 		.quad	_ZNK12_GLOBAL__N_126TestCheckCloseWithNaNFails7RunImplEv
 11121      00000000 
 11122              		.text
 11123              		.align 2
 11125              	_ZN12_GLOBAL__N_126TestCheckCloseWithNaNFailsD2Ev:
 11126              	.LFB1356:
 120:TestChecks.cpp **** {
 11127              		.loc 5 120 0 is_stmt 1
 11128              		.cfi_startproc
 11129 4154 55       		pushq	%rbp
 11130              		.cfi_def_cfa_offset 16
 11131              		.cfi_offset 6, -16
 11132 4155 4889E5   		movq	%rsp, %rbp
 11133              		.cfi_def_cfa_register 6
 11134 4158 4883EC10 		subq	$16, %rsp
 11135 415c 48897DF8 		movq	%rdi, -8(%rbp)
 11136              	.LBB96:
 120:TestChecks.cpp **** {
 11137              		.loc 5 120 0
 11138 4160 488D1500 		leaq	16+_ZTVN12_GLOBAL__N_126TestCheckCloseWithNaNFailsE(%rip), %rdx
 11138      000000
 11139 4167 488B45F8 		movq	-8(%rbp), %rax
 11140 416b 488910   		movq	%rdx, (%rax)
 11141 416e 488B45F8 		movq	-8(%rbp), %rax
 11142 4172 4889C7   		movq	%rax, %rdi
 11143 4175 E8000000 		call	_ZN8UnitTest4TestD2Ev@PLT
 11143      00
 11144              	.LBE96:
 11145 417a 90       		nop
 11146 417b C9       		leave
 11147              		.cfi_def_cfa 7, 8
 11148 417c C3       		ret
 11149              		.cfi_endproc
 11150              	.LFE1356:
 11152              		.set	_ZN12_GLOBAL__N_126TestCheckCloseWithNaNFailsD1Ev,_ZN12_GLOBAL__N_126TestCheckCloseWithNaNFai
 11153 417d 90       		.align 2
 11155              	_ZN12_GLOBAL__N_126TestCheckCloseWithNaNFailsD0Ev:
 11156              	.LFB1358:
 120:TestChecks.cpp **** {
 11157              		.loc 5 120 0
 11158              		.cfi_startproc
 11159              		.cfi_personality 0x9b,DW.ref.__gxx_personality_v0
 11160              		.cfi_lsda 0x1b,.LLSDA1358
 11161 417e 55       		pushq	%rbp
 11162              		.cfi_def_cfa_offset 16
 11163              		.cfi_offset 6, -16
 11164 417f 4889E5   		movq	%rsp, %rbp
 11165              		.cfi_def_cfa_register 6
 11166 4182 53       		pushq	%rbx
 11167 4183 4883EC18 		subq	$24, %rsp
 11168              		.cfi_offset 3, -24
 11169 4187 48897DE8 		movq	%rdi, -24(%rbp)
 120:TestChecks.cpp **** {
 11170              		.loc 5 120 0
 11171 418b 488B45E8 		movq	-24(%rbp), %rax
 11172 418f 4889C7   		movq	%rax, %rdi
 11173              	.LEHB272:
 11174 4192 E8BDFFFF 		call	_ZN12_GLOBAL__N_126TestCheckCloseWithNaNFailsD1Ev
 11174      FF
 11175              	.LEHE272:
 120:TestChecks.cpp **** {
 11176              		.loc 5 120 0 is_stmt 0 discriminator 2
 11177 4197 488B45E8 		movq	-24(%rbp), %rax
 11178 419b 4889C7   		movq	%rax, %rdi
 11179 419e E8000000 		call	_ZdlPv@PLT
 11179      00
 11180 41a3 EB1A     		jmp	.L550
 11181              	.L549:
 11182 41a5 4889C3   		movq	%rax, %rbx
 120:TestChecks.cpp **** {
 11183              		.loc 5 120 0
 11184 41a8 488B45E8 		movq	-24(%rbp), %rax
 11185 41ac 4889C7   		movq	%rax, %rdi
 11186 41af E8000000 		call	_ZdlPv@PLT
 11186      00
 11187 41b4 4889D8   		movq	%rbx, %rax
 11188 41b7 4889C7   		movq	%rax, %rdi
 11189              	.LEHB273:
 11190 41ba E8000000 		call	_Unwind_Resume@PLT
 11190      00
 11191              	.LEHE273:
 11192              	.L550:
 11193 41bf 4883C418 		addq	$24, %rsp
 11194 41c3 5B       		popq	%rbx
 11195 41c4 5D       		popq	%rbp
 11196              		.cfi_def_cfa 7, 8
 11197 41c5 C3       		ret
 11198              		.cfi_endproc
 11199              	.LFE1358:
 11200              		.section	.gcc_except_table
 11201              	.LLSDA1358:
 11202 0776 FF       		.byte	0xff
 11203 0777 FF       		.byte	0xff
 11204 0778 01       		.byte	0x1
 11205 0779 08       		.uleb128 .LLSDACSE1358-.LLSDACSB1358
 11206              	.LLSDACSB1358:
 11207 077a 14       		.uleb128 .LEHB272-.LFB1358
 11208 077b 05       		.uleb128 .LEHE272-.LEHB272
 11209 077c 27       		.uleb128 .L549-.LFB1358
 11210 077d 00       		.uleb128 0
 11211 077e 3C       		.uleb128 .LEHB273-.LFB1358
 11212 077f 05       		.uleb128 .LEHE273-.LEHB273
 11213 0780 00       		.uleb128 0
 11214 0781 00       		.uleb128 0
 11215              	.LLSDACSE1358:
 11216              		.text
 11218              		.section	.data.rel.ro.local
 11219              		.align 8
 11222              	_ZTVN12_GLOBAL__N_147TestCheckCloseWithZeroEpsilonWorksForSameNumberE:
 11223 0230 00000000 		.quad	0
 11223      00000000 
 11224 0238 00000000 		.quad	_ZTIN12_GLOBAL__N_147TestCheckCloseWithZeroEpsilonWorksForSameNumberE
 11224      00000000 
 11225 0240 00000000 		.quad	_ZN12_GLOBAL__N_147TestCheckCloseWithZeroEpsilonWorksForSameNumberD1Ev
 11225      00000000 
 11226 0248 00000000 		.quad	_ZN12_GLOBAL__N_147TestCheckCloseWithZeroEpsilonWorksForSameNumberD0Ev
 11226      00000000 
 11227 0250 00000000 		.quad	_ZNK12_GLOBAL__N_147TestCheckCloseWithZeroEpsilonWorksForSameNumber7RunImplEv
 11227      00000000 
 11228              		.text
 11229              		.align 2
 11231              	_ZN12_GLOBAL__N_147TestCheckCloseWithZeroEpsilonWorksForSameNumberD2Ev:
 11232              	.LFB1360:
 113:TestChecks.cpp **** {
 11233              		.loc 5 113 0 is_stmt 1
 11234              		.cfi_startproc
 11235 41c6 55       		pushq	%rbp
 11236              		.cfi_def_cfa_offset 16
 11237              		.cfi_offset 6, -16
 11238 41c7 4889E5   		movq	%rsp, %rbp
 11239              		.cfi_def_cfa_register 6
 11240 41ca 4883EC10 		subq	$16, %rsp
 11241 41ce 48897DF8 		movq	%rdi, -8(%rbp)
 11242              	.LBB97:
 113:TestChecks.cpp **** {
 11243              		.loc 5 113 0
 11244 41d2 488D1500 		leaq	16+_ZTVN12_GLOBAL__N_147TestCheckCloseWithZeroEpsilonWorksForSameNumberE(%rip), %rdx
 11244      000000
 11245 41d9 488B45F8 		movq	-8(%rbp), %rax
 11246 41dd 488910   		movq	%rdx, (%rax)
 11247 41e0 488B45F8 		movq	-8(%rbp), %rax
 11248 41e4 4889C7   		movq	%rax, %rdi
 11249 41e7 E8000000 		call	_ZN8UnitTest4TestD2Ev@PLT
 11249      00
 11250              	.LBE97:
 11251 41ec 90       		nop
 11252 41ed C9       		leave
 11253              		.cfi_def_cfa 7, 8
 11254 41ee C3       		ret
 11255              		.cfi_endproc
 11256              	.LFE1360:
 11258              		.set	_ZN12_GLOBAL__N_147TestCheckCloseWithZeroEpsilonWorksForSameNumberD1Ev,_ZN12_GLOBAL__N_147Tes
 11259 41ef 90       		.align 2
 11261              	_ZN12_GLOBAL__N_147TestCheckCloseWithZeroEpsilonWorksForSameNumberD0Ev:
 11262              	.LFB1362:
 113:TestChecks.cpp **** {
 11263              		.loc 5 113 0
 11264              		.cfi_startproc
 11265              		.cfi_personality 0x9b,DW.ref.__gxx_personality_v0
 11266              		.cfi_lsda 0x1b,.LLSDA1362
 11267 41f0 55       		pushq	%rbp
 11268              		.cfi_def_cfa_offset 16
 11269              		.cfi_offset 6, -16
 11270 41f1 4889E5   		movq	%rsp, %rbp
 11271              		.cfi_def_cfa_register 6
 11272 41f4 53       		pushq	%rbx
 11273 41f5 4883EC18 		subq	$24, %rsp
 11274              		.cfi_offset 3, -24
 11275 41f9 48897DE8 		movq	%rdi, -24(%rbp)
 113:TestChecks.cpp **** {
 11276              		.loc 5 113 0
 11277 41fd 488B45E8 		movq	-24(%rbp), %rax
 11278 4201 4889C7   		movq	%rax, %rdi
 11279              	.LEHB274:
 11280 4204 E8BDFFFF 		call	_ZN12_GLOBAL__N_147TestCheckCloseWithZeroEpsilonWorksForSameNumberD1Ev
 11280      FF
 11281              	.LEHE274:
 113:TestChecks.cpp **** {
 11282              		.loc 5 113 0 is_stmt 0 discriminator 2
 11283 4209 488B45E8 		movq	-24(%rbp), %rax
 11284 420d 4889C7   		movq	%rax, %rdi
 11285 4210 E8000000 		call	_ZdlPv@PLT
 11285      00
 11286 4215 EB1A     		jmp	.L555
 11287              	.L554:
 11288 4217 4889C3   		movq	%rax, %rbx
 113:TestChecks.cpp **** {
 11289              		.loc 5 113 0
 11290 421a 488B45E8 		movq	-24(%rbp), %rax
 11291 421e 4889C7   		movq	%rax, %rdi
 11292 4221 E8000000 		call	_ZdlPv@PLT
 11292      00
 11293 4226 4889D8   		movq	%rbx, %rax
 11294 4229 4889C7   		movq	%rax, %rdi
 11295              	.LEHB275:
 11296 422c E8000000 		call	_Unwind_Resume@PLT
 11296      00
 11297              	.LEHE275:
 11298              	.L555:
 11299 4231 4883C418 		addq	$24, %rsp
 11300 4235 5B       		popq	%rbx
 11301 4236 5D       		popq	%rbp
 11302              		.cfi_def_cfa 7, 8
 11303 4237 C3       		ret
 11304              		.cfi_endproc
 11305              	.LFE1362:
 11306              		.section	.gcc_except_table
 11307              	.LLSDA1362:
 11308 0782 FF       		.byte	0xff
 11309 0783 FF       		.byte	0xff
 11310 0784 01       		.byte	0x1
 11311 0785 08       		.uleb128 .LLSDACSE1362-.LLSDACSB1362
 11312              	.LLSDACSB1362:
 11313 0786 14       		.uleb128 .LEHB274-.LFB1362
 11314 0787 05       		.uleb128 .LEHE274-.LEHB274
 11315 0788 27       		.uleb128 .L554-.LFB1362
 11316 0789 00       		.uleb128 0
 11317 078a 3C       		.uleb128 .LEHB275-.LFB1362
 11318 078b 05       		.uleb128 .LEHE275-.LEHB275
 11319 078c 00       		.uleb128 0
 11320 078d 00       		.uleb128 0
 11321              	.LLSDACSE1362:
 11322              		.text
 11324              		.section	.data.rel.ro.local
 11325              		.align 8
 11328              	_ZTVN12_GLOBAL__N_119TestCheckCloseFalseE:
 11329 0258 00000000 		.quad	0
 11329      00000000 
 11330 0260 00000000 		.quad	_ZTIN12_GLOBAL__N_119TestCheckCloseFalseE
 11330      00000000 
 11331 0268 00000000 		.quad	_ZN12_GLOBAL__N_119TestCheckCloseFalseD1Ev
 11331      00000000 
 11332 0270 00000000 		.quad	_ZN12_GLOBAL__N_119TestCheckCloseFalseD0Ev
 11332      00000000 
 11333 0278 00000000 		.quad	_ZNK12_GLOBAL__N_119TestCheckCloseFalse7RunImplEv
 11333      00000000 
 11334              		.text
 11335              		.align 2
 11337              	_ZN12_GLOBAL__N_119TestCheckCloseFalseD2Ev:
 11338              	.LFB1364:
 106:TestChecks.cpp **** {
 11339              		.loc 5 106 0 is_stmt 1
 11340              		.cfi_startproc
 11341 4238 55       		pushq	%rbp
 11342              		.cfi_def_cfa_offset 16
 11343              		.cfi_offset 6, -16
 11344 4239 4889E5   		movq	%rsp, %rbp
 11345              		.cfi_def_cfa_register 6
 11346 423c 4883EC10 		subq	$16, %rsp
 11347 4240 48897DF8 		movq	%rdi, -8(%rbp)
 11348              	.LBB98:
 106:TestChecks.cpp **** {
 11349              		.loc 5 106 0
 11350 4244 488D1500 		leaq	16+_ZTVN12_GLOBAL__N_119TestCheckCloseFalseE(%rip), %rdx
 11350      000000
 11351 424b 488B45F8 		movq	-8(%rbp), %rax
 11352 424f 488910   		movq	%rdx, (%rax)
 11353 4252 488B45F8 		movq	-8(%rbp), %rax
 11354 4256 4889C7   		movq	%rax, %rdi
 11355 4259 E8000000 		call	_ZN8UnitTest4TestD2Ev@PLT
 11355      00
 11356              	.LBE98:
 11357 425e 90       		nop
 11358 425f C9       		leave
 11359              		.cfi_def_cfa 7, 8
 11360 4260 C3       		ret
 11361              		.cfi_endproc
 11362              	.LFE1364:
 11364              		.set	_ZN12_GLOBAL__N_119TestCheckCloseFalseD1Ev,_ZN12_GLOBAL__N_119TestCheckCloseFalseD2Ev
 11365 4261 90       		.align 2
 11367              	_ZN12_GLOBAL__N_119TestCheckCloseFalseD0Ev:
 11368              	.LFB1366:
 106:TestChecks.cpp **** {
 11369              		.loc 5 106 0
 11370              		.cfi_startproc
 11371              		.cfi_personality 0x9b,DW.ref.__gxx_personality_v0
 11372              		.cfi_lsda 0x1b,.LLSDA1366
 11373 4262 55       		pushq	%rbp
 11374              		.cfi_def_cfa_offset 16
 11375              		.cfi_offset 6, -16
 11376 4263 4889E5   		movq	%rsp, %rbp
 11377              		.cfi_def_cfa_register 6
 11378 4266 53       		pushq	%rbx
 11379 4267 4883EC18 		subq	$24, %rsp
 11380              		.cfi_offset 3, -24
 11381 426b 48897DE8 		movq	%rdi, -24(%rbp)
 106:TestChecks.cpp **** {
 11382              		.loc 5 106 0
 11383 426f 488B45E8 		movq	-24(%rbp), %rax
 11384 4273 4889C7   		movq	%rax, %rdi
 11385              	.LEHB276:
 11386 4276 E8BDFFFF 		call	_ZN12_GLOBAL__N_119TestCheckCloseFalseD1Ev
 11386      FF
 11387              	.LEHE276:
 106:TestChecks.cpp **** {
 11388              		.loc 5 106 0 is_stmt 0 discriminator 2
 11389 427b 488B45E8 		movq	-24(%rbp), %rax
 11390 427f 4889C7   		movq	%rax, %rdi
 11391 4282 E8000000 		call	_ZdlPv@PLT
 11391      00
 11392 4287 EB1A     		jmp	.L560
 11393              	.L559:
 11394 4289 4889C3   		movq	%rax, %rbx
 106:TestChecks.cpp **** {
 11395              		.loc 5 106 0
 11396 428c 488B45E8 		movq	-24(%rbp), %rax
 11397 4290 4889C7   		movq	%rax, %rdi
 11398 4293 E8000000 		call	_ZdlPv@PLT
 11398      00
 11399 4298 4889D8   		movq	%rbx, %rax
 11400 429b 4889C7   		movq	%rax, %rdi
 11401              	.LEHB277:
 11402 429e E8000000 		call	_Unwind_Resume@PLT
 11402      00
 11403              	.LEHE277:
 11404              	.L560:
 11405 42a3 4883C418 		addq	$24, %rsp
 11406 42a7 5B       		popq	%rbx
 11407 42a8 5D       		popq	%rbp
 11408              		.cfi_def_cfa 7, 8
 11409 42a9 C3       		ret
 11410              		.cfi_endproc
 11411              	.LFE1366:
 11412              		.section	.gcc_except_table
 11413              	.LLSDA1366:
 11414 078e FF       		.byte	0xff
 11415 078f FF       		.byte	0xff
 11416 0790 01       		.byte	0x1
 11417 0791 08       		.uleb128 .LLSDACSE1366-.LLSDACSB1366
 11418              	.LLSDACSB1366:
 11419 0792 14       		.uleb128 .LEHB276-.LFB1366
 11420 0793 05       		.uleb128 .LEHE276-.LEHB276
 11421 0794 27       		.uleb128 .L559-.LFB1366
 11422 0795 00       		.uleb128 0
 11423 0796 3C       		.uleb128 .LEHB277-.LFB1366
 11424 0797 05       		.uleb128 .LEHE277-.LEHB277
 11425 0798 00       		.uleb128 0
 11426 0799 00       		.uleb128 0
 11427              	.LLSDACSE1366:
 11428              		.text
 11430              		.section	.data.rel.ro.local
 11431              		.align 8
 11434              	_ZTVN12_GLOBAL__N_118TestCheckCloseTrueE:
 11435 0280 00000000 		.quad	0
 11435      00000000 
 11436 0288 00000000 		.quad	_ZTIN12_GLOBAL__N_118TestCheckCloseTrueE
 11436      00000000 
 11437 0290 00000000 		.quad	_ZN12_GLOBAL__N_118TestCheckCloseTrueD1Ev
 11437      00000000 
 11438 0298 00000000 		.quad	_ZN12_GLOBAL__N_118TestCheckCloseTrueD0Ev
 11438      00000000 
 11439 02a0 00000000 		.quad	_ZNK12_GLOBAL__N_118TestCheckCloseTrue7RunImplEv
 11439      00000000 
 11440              		.text
 11441              		.align 2
 11443              	_ZN12_GLOBAL__N_118TestCheckCloseTrueD2Ev:
 11444              	.LFB1368:
  99:TestChecks.cpp **** {
 11445              		.loc 5 99 0 is_stmt 1
 11446              		.cfi_startproc
 11447 42aa 55       		pushq	%rbp
 11448              		.cfi_def_cfa_offset 16
 11449              		.cfi_offset 6, -16
 11450 42ab 4889E5   		movq	%rsp, %rbp
 11451              		.cfi_def_cfa_register 6
 11452 42ae 4883EC10 		subq	$16, %rsp
 11453 42b2 48897DF8 		movq	%rdi, -8(%rbp)
 11454              	.LBB99:
  99:TestChecks.cpp **** {
 11455              		.loc 5 99 0
 11456 42b6 488D1500 		leaq	16+_ZTVN12_GLOBAL__N_118TestCheckCloseTrueE(%rip), %rdx
 11456      000000
 11457 42bd 488B45F8 		movq	-8(%rbp), %rax
 11458 42c1 488910   		movq	%rdx, (%rax)
 11459 42c4 488B45F8 		movq	-8(%rbp), %rax
 11460 42c8 4889C7   		movq	%rax, %rdi
 11461 42cb E8000000 		call	_ZN8UnitTest4TestD2Ev@PLT
 11461      00
 11462              	.LBE99:
 11463 42d0 90       		nop
 11464 42d1 C9       		leave
 11465              		.cfi_def_cfa 7, 8
 11466 42d2 C3       		ret
 11467              		.cfi_endproc
 11468              	.LFE1368:
 11470              		.set	_ZN12_GLOBAL__N_118TestCheckCloseTrueD1Ev,_ZN12_GLOBAL__N_118TestCheckCloseTrueD2Ev
 11471 42d3 90       		.align 2
 11473              	_ZN12_GLOBAL__N_118TestCheckCloseTrueD0Ev:
 11474              	.LFB1370:
  99:TestChecks.cpp **** {
 11475              		.loc 5 99 0
 11476              		.cfi_startproc
 11477              		.cfi_personality 0x9b,DW.ref.__gxx_personality_v0
 11478              		.cfi_lsda 0x1b,.LLSDA1370
 11479 42d4 55       		pushq	%rbp
 11480              		.cfi_def_cfa_offset 16
 11481              		.cfi_offset 6, -16
 11482 42d5 4889E5   		movq	%rsp, %rbp
 11483              		.cfi_def_cfa_register 6
 11484 42d8 53       		pushq	%rbx
 11485 42d9 4883EC18 		subq	$24, %rsp
 11486              		.cfi_offset 3, -24
 11487 42dd 48897DE8 		movq	%rdi, -24(%rbp)
  99:TestChecks.cpp **** {
 11488              		.loc 5 99 0
 11489 42e1 488B45E8 		movq	-24(%rbp), %rax
 11490 42e5 4889C7   		movq	%rax, %rdi
 11491              	.LEHB278:
 11492 42e8 E8BDFFFF 		call	_ZN12_GLOBAL__N_118TestCheckCloseTrueD1Ev
 11492      FF
 11493              	.LEHE278:
  99:TestChecks.cpp **** {
 11494              		.loc 5 99 0 is_stmt 0 discriminator 2
 11495 42ed 488B45E8 		movq	-24(%rbp), %rax
 11496 42f1 4889C7   		movq	%rax, %rdi
 11497 42f4 E8000000 		call	_ZdlPv@PLT
 11497      00
 11498 42f9 EB1A     		jmp	.L565
 11499              	.L564:
 11500 42fb 4889C3   		movq	%rax, %rbx
  99:TestChecks.cpp **** {
 11501              		.loc 5 99 0
 11502 42fe 488B45E8 		movq	-24(%rbp), %rax
 11503 4302 4889C7   		movq	%rax, %rdi
 11504 4305 E8000000 		call	_ZdlPv@PLT
 11504      00
 11505 430a 4889D8   		movq	%rbx, %rax
 11506 430d 4889C7   		movq	%rax, %rdi
 11507              	.LEHB279:
 11508 4310 E8000000 		call	_Unwind_Resume@PLT
 11508      00
 11509              	.LEHE279:
 11510              	.L565:
 11511 4315 4883C418 		addq	$24, %rsp
 11512 4319 5B       		popq	%rbx
 11513 431a 5D       		popq	%rbp
 11514              		.cfi_def_cfa 7, 8
 11515 431b C3       		ret
 11516              		.cfi_endproc
 11517              	.LFE1370:
 11518              		.section	.gcc_except_table
 11519              	.LLSDA1370:
 11520 079a FF       		.byte	0xff
 11521 079b FF       		.byte	0xff
 11522 079c 01       		.byte	0x1
 11523 079d 08       		.uleb128 .LLSDACSE1370-.LLSDACSB1370
 11524              	.LLSDACSB1370:
 11525 079e 14       		.uleb128 .LEHB278-.LFB1370
 11526 079f 05       		.uleb128 .LEHE278-.LEHB278
 11527 07a0 27       		.uleb128 .L564-.LFB1370
 11528 07a1 00       		.uleb128 0
 11529 07a2 3C       		.uleb128 .LEHB279-.LFB1370
 11530 07a3 05       		.uleb128 .LEHE279-.LEHB279
 11531 07a4 00       		.uleb128 0
 11532 07a5 00       		.uleb128 0
 11533              	.LLSDACSE1370:
 11534              		.text
 11536              		.section	.data.rel.ro.local
 11537              		.align 8
 11540              	_ZTVN12_GLOBAL__N_136TestCheckEqualFailureIncludesDetailsE:
 11541 02a8 00000000 		.quad	0
 11541      00000000 
 11542 02b0 00000000 		.quad	_ZTIN12_GLOBAL__N_136TestCheckEqualFailureIncludesDetailsE
 11542      00000000 
 11543 02b8 00000000 		.quad	_ZN12_GLOBAL__N_136TestCheckEqualFailureIncludesDetailsD1Ev
 11543      00000000 
 11544 02c0 00000000 		.quad	_ZN12_GLOBAL__N_136TestCheckEqualFailureIncludesDetailsD0Ev
 11544      00000000 
 11545 02c8 00000000 		.quad	_ZNK12_GLOBAL__N_136TestCheckEqualFailureIncludesDetails7RunImplEv
 11545      00000000 
 11546              		.text
 11547              		.align 2
 11549              	_ZN12_GLOBAL__N_136TestCheckEqualFailureIncludesDetailsD2Ev:
 11550              	.LFB1372:
  85:TestChecks.cpp **** {
 11551              		.loc 5 85 0 is_stmt 1
 11552              		.cfi_startproc
 11553 431c 55       		pushq	%rbp
 11554              		.cfi_def_cfa_offset 16
 11555              		.cfi_offset 6, -16
 11556 431d 4889E5   		movq	%rsp, %rbp
 11557              		.cfi_def_cfa_register 6
 11558 4320 4883EC10 		subq	$16, %rsp
 11559 4324 48897DF8 		movq	%rdi, -8(%rbp)
 11560              	.LBB100:
  85:TestChecks.cpp **** {
 11561              		.loc 5 85 0
 11562 4328 488D1500 		leaq	16+_ZTVN12_GLOBAL__N_136TestCheckEqualFailureIncludesDetailsE(%rip), %rdx
 11562      000000
 11563 432f 488B45F8 		movq	-8(%rbp), %rax
 11564 4333 488910   		movq	%rdx, (%rax)
 11565 4336 488B45F8 		movq	-8(%rbp), %rax
 11566 433a 4889C7   		movq	%rax, %rdi
 11567 433d E8000000 		call	_ZN8UnitTest4TestD2Ev@PLT
 11567      00
 11568              	.LBE100:
 11569 4342 90       		nop
 11570 4343 C9       		leave
 11571              		.cfi_def_cfa 7, 8
 11572 4344 C3       		ret
 11573              		.cfi_endproc
 11574              	.LFE1372:
 11576              		.set	_ZN12_GLOBAL__N_136TestCheckEqualFailureIncludesDetailsD1Ev,_ZN12_GLOBAL__N_136TestCheckEqual
 11577 4345 90       		.align 2
 11579              	_ZN12_GLOBAL__N_136TestCheckEqualFailureIncludesDetailsD0Ev:
 11580              	.LFB1374:
  85:TestChecks.cpp **** {
 11581              		.loc 5 85 0
 11582              		.cfi_startproc
 11583              		.cfi_personality 0x9b,DW.ref.__gxx_personality_v0
 11584              		.cfi_lsda 0x1b,.LLSDA1374
 11585 4346 55       		pushq	%rbp
 11586              		.cfi_def_cfa_offset 16
 11587              		.cfi_offset 6, -16
 11588 4347 4889E5   		movq	%rsp, %rbp
 11589              		.cfi_def_cfa_register 6
 11590 434a 53       		pushq	%rbx
 11591 434b 4883EC18 		subq	$24, %rsp
 11592              		.cfi_offset 3, -24
 11593 434f 48897DE8 		movq	%rdi, -24(%rbp)
  85:TestChecks.cpp **** {
 11594              		.loc 5 85 0
 11595 4353 488B45E8 		movq	-24(%rbp), %rax
 11596 4357 4889C7   		movq	%rax, %rdi
 11597              	.LEHB280:
 11598 435a E8BDFFFF 		call	_ZN12_GLOBAL__N_136TestCheckEqualFailureIncludesDetailsD1Ev
 11598      FF
 11599              	.LEHE280:
  85:TestChecks.cpp **** {
 11600              		.loc 5 85 0 is_stmt 0 discriminator 2
 11601 435f 488B45E8 		movq	-24(%rbp), %rax
 11602 4363 4889C7   		movq	%rax, %rdi
 11603 4366 E8000000 		call	_ZdlPv@PLT
 11603      00
 11604 436b EB1A     		jmp	.L570
 11605              	.L569:
 11606 436d 4889C3   		movq	%rax, %rbx
  85:TestChecks.cpp **** {
 11607              		.loc 5 85 0
 11608 4370 488B45E8 		movq	-24(%rbp), %rax
 11609 4374 4889C7   		movq	%rax, %rdi
 11610 4377 E8000000 		call	_ZdlPv@PLT
 11610      00
 11611 437c 4889D8   		movq	%rbx, %rax
 11612 437f 4889C7   		movq	%rax, %rdi
 11613              	.LEHB281:
 11614 4382 E8000000 		call	_Unwind_Resume@PLT
 11614      00
 11615              	.LEHE281:
 11616              	.L570:
 11617 4387 4883C418 		addq	$24, %rsp
 11618 438b 5B       		popq	%rbx
 11619 438c 5D       		popq	%rbp
 11620              		.cfi_def_cfa 7, 8
 11621 438d C3       		ret
 11622              		.cfi_endproc
 11623              	.LFE1374:
 11624              		.section	.gcc_except_table
 11625              	.LLSDA1374:
 11626 07a6 FF       		.byte	0xff
 11627 07a7 FF       		.byte	0xff
 11628 07a8 01       		.byte	0x1
 11629 07a9 08       		.uleb128 .LLSDACSE1374-.LLSDACSB1374
 11630              	.LLSDACSB1374:
 11631 07aa 14       		.uleb128 .LEHB280-.LFB1374
 11632 07ab 05       		.uleb128 .LEHE280-.LEHB280
 11633 07ac 27       		.uleb128 .L569-.LFB1374
 11634 07ad 00       		.uleb128 0
 11635 07ae 3C       		.uleb128 .LEHB281-.LFB1374
 11636 07af 05       		.uleb128 .LEHE281-.LEHB281
 11637 07b0 00       		.uleb128 0
 11638 07b1 00       		.uleb128 0
 11639              	.LLSDACSE1374:
 11640              		.text
 11642              		.section	.data.rel.ro.local
 11643              		.align 8
 11646              	_ZTVN12_GLOBAL__N_151TestCheckEqualFailureIncludesCheckExpectedAndActualE:
 11647 02d0 00000000 		.quad	0
 11647      00000000 
 11648 02d8 00000000 		.quad	_ZTIN12_GLOBAL__N_151TestCheckEqualFailureIncludesCheckExpectedAndActualE
 11648      00000000 
 11649 02e0 00000000 		.quad	_ZN12_GLOBAL__N_151TestCheckEqualFailureIncludesCheckExpectedAndActualD1Ev
 11649      00000000 
 11650 02e8 00000000 		.quad	_ZN12_GLOBAL__N_151TestCheckEqualFailureIncludesCheckExpectedAndActualD0Ev
 11650      00000000 
 11651 02f0 00000000 		.quad	_ZNK12_GLOBAL__N_151TestCheckEqualFailureIncludesCheckExpectedAndActual7RunImplEv
 11651      00000000 
 11652              		.text
 11653              		.align 2
 11655              	_ZN12_GLOBAL__N_151TestCheckEqualFailureIncludesCheckExpectedAndActualD2Ev:
 11656              	.LFB1376:
  73:TestChecks.cpp **** {
 11657              		.loc 5 73 0 is_stmt 1
 11658              		.cfi_startproc
 11659 438e 55       		pushq	%rbp
 11660              		.cfi_def_cfa_offset 16
 11661              		.cfi_offset 6, -16
 11662 438f 4889E5   		movq	%rsp, %rbp
 11663              		.cfi_def_cfa_register 6
 11664 4392 4883EC10 		subq	$16, %rsp
 11665 4396 48897DF8 		movq	%rdi, -8(%rbp)
 11666              	.LBB101:
  73:TestChecks.cpp **** {
 11667              		.loc 5 73 0
 11668 439a 488D1500 		leaq	16+_ZTVN12_GLOBAL__N_151TestCheckEqualFailureIncludesCheckExpectedAndActualE(%rip), %rdx
 11668      000000
 11669 43a1 488B45F8 		movq	-8(%rbp), %rax
 11670 43a5 488910   		movq	%rdx, (%rax)
 11671 43a8 488B45F8 		movq	-8(%rbp), %rax
 11672 43ac 4889C7   		movq	%rax, %rdi
 11673 43af E8000000 		call	_ZN8UnitTest4TestD2Ev@PLT
 11673      00
 11674              	.LBE101:
 11675 43b4 90       		nop
 11676 43b5 C9       		leave
 11677              		.cfi_def_cfa 7, 8
 11678 43b6 C3       		ret
 11679              		.cfi_endproc
 11680              	.LFE1376:
 11682              		.set	_ZN12_GLOBAL__N_151TestCheckEqualFailureIncludesCheckExpectedAndActualD1Ev,_ZN12_GLOBAL__N_15
 11683 43b7 90       		.align 2
 11685              	_ZN12_GLOBAL__N_151TestCheckEqualFailureIncludesCheckExpectedAndActualD0Ev:
 11686              	.LFB1378:
  73:TestChecks.cpp **** {
 11687              		.loc 5 73 0
 11688              		.cfi_startproc
 11689              		.cfi_personality 0x9b,DW.ref.__gxx_personality_v0
 11690              		.cfi_lsda 0x1b,.LLSDA1378
 11691 43b8 55       		pushq	%rbp
 11692              		.cfi_def_cfa_offset 16
 11693              		.cfi_offset 6, -16
 11694 43b9 4889E5   		movq	%rsp, %rbp
 11695              		.cfi_def_cfa_register 6
 11696 43bc 53       		pushq	%rbx
 11697 43bd 4883EC18 		subq	$24, %rsp
 11698              		.cfi_offset 3, -24
 11699 43c1 48897DE8 		movq	%rdi, -24(%rbp)
  73:TestChecks.cpp **** {
 11700              		.loc 5 73 0
 11701 43c5 488B45E8 		movq	-24(%rbp), %rax
 11702 43c9 4889C7   		movq	%rax, %rdi
 11703              	.LEHB282:
 11704 43cc E8BDFFFF 		call	_ZN12_GLOBAL__N_151TestCheckEqualFailureIncludesCheckExpectedAndActualD1Ev
 11704      FF
 11705              	.LEHE282:
  73:TestChecks.cpp **** {
 11706              		.loc 5 73 0 is_stmt 0 discriminator 2
 11707 43d1 488B45E8 		movq	-24(%rbp), %rax
 11708 43d5 4889C7   		movq	%rax, %rdi
 11709 43d8 E8000000 		call	_ZdlPv@PLT
 11709      00
 11710 43dd EB1A     		jmp	.L575
 11711              	.L574:
 11712 43df 4889C3   		movq	%rax, %rbx
  73:TestChecks.cpp **** {
 11713              		.loc 5 73 0
 11714 43e2 488B45E8 		movq	-24(%rbp), %rax
 11715 43e6 4889C7   		movq	%rax, %rdi
 11716 43e9 E8000000 		call	_ZdlPv@PLT
 11716      00
 11717 43ee 4889D8   		movq	%rbx, %rax
 11718 43f1 4889C7   		movq	%rax, %rdi
 11719              	.LEHB283:
 11720 43f4 E8000000 		call	_Unwind_Resume@PLT
 11720      00
 11721              	.LEHE283:
 11722              	.L575:
 11723 43f9 4883C418 		addq	$24, %rsp
 11724 43fd 5B       		popq	%rbx
 11725 43fe 5D       		popq	%rbp
 11726              		.cfi_def_cfa 7, 8
 11727 43ff C3       		ret
 11728              		.cfi_endproc
 11729              	.LFE1378:
 11730              		.section	.gcc_except_table
 11731              	.LLSDA1378:
 11732 07b2 FF       		.byte	0xff
 11733 07b3 FF       		.byte	0xff
 11734 07b4 01       		.byte	0x1
 11735 07b5 08       		.uleb128 .LLSDACSE1378-.LLSDACSB1378
 11736              	.LLSDACSB1378:
 11737 07b6 14       		.uleb128 .LEHB282-.LFB1378
 11738 07b7 05       		.uleb128 .LEHE282-.LEHB282
 11739 07b8 27       		.uleb128 .L574-.LFB1378
 11740 07b9 00       		.uleb128 0
 11741 07ba 3C       		.uleb128 .LEHB283-.LFB1378
 11742 07bb 05       		.uleb128 .LEHE283-.LEHB283
 11743 07bc 00       		.uleb128 0
 11744 07bd 00       		.uleb128 0
 11745              	.LLSDACSE1378:
 11746              		.text
 11748              		.section	.data.rel.ro.local
 11749              		.align 8
 11752              	_ZTVN12_GLOBAL__N_153TestCheckEqualsWithStringsWorksOnContentsWithALiteralE:
 11753 02f8 00000000 		.quad	0
 11753      00000000 
 11754 0300 00000000 		.quad	_ZTIN12_GLOBAL__N_153TestCheckEqualsWithStringsWorksOnContentsWithALiteralE
 11754      00000000 
 11755 0308 00000000 		.quad	_ZN12_GLOBAL__N_153TestCheckEqualsWithStringsWorksOnContentsWithALiteralD1Ev
 11755      00000000 
 11756 0310 00000000 		.quad	_ZN12_GLOBAL__N_153TestCheckEqualsWithStringsWorksOnContentsWithALiteralD0Ev
 11756      00000000 
 11757 0318 00000000 		.quad	_ZNK12_GLOBAL__N_153TestCheckEqualsWithStringsWorksOnContentsWithALiteral7RunImplEv
 11757      00000000 
 11758              		.text
 11759              		.align 2
 11761              	_ZN12_GLOBAL__N_153TestCheckEqualsWithStringsWorksOnContentsWithALiteralD2Ev:
 11762              	.LFB1380:
  65:TestChecks.cpp **** {
 11763              		.loc 5 65 0 is_stmt 1
 11764              		.cfi_startproc
 11765 4400 55       		pushq	%rbp
 11766              		.cfi_def_cfa_offset 16
 11767              		.cfi_offset 6, -16
 11768 4401 4889E5   		movq	%rsp, %rbp
 11769              		.cfi_def_cfa_register 6
 11770 4404 4883EC10 		subq	$16, %rsp
 11771 4408 48897DF8 		movq	%rdi, -8(%rbp)
 11772              	.LBB102:
  65:TestChecks.cpp **** {
 11773              		.loc 5 65 0
 11774 440c 488D1500 		leaq	16+_ZTVN12_GLOBAL__N_153TestCheckEqualsWithStringsWorksOnContentsWithALiteralE(%rip), %rdx
 11774      000000
 11775 4413 488B45F8 		movq	-8(%rbp), %rax
 11776 4417 488910   		movq	%rdx, (%rax)
 11777 441a 488B45F8 		movq	-8(%rbp), %rax
 11778 441e 4889C7   		movq	%rax, %rdi
 11779 4421 E8000000 		call	_ZN8UnitTest4TestD2Ev@PLT
 11779      00
 11780              	.LBE102:
 11781 4426 90       		nop
 11782 4427 C9       		leave
 11783              		.cfi_def_cfa 7, 8
 11784 4428 C3       		ret
 11785              		.cfi_endproc
 11786              	.LFE1380:
 11788              		.set	_ZN12_GLOBAL__N_153TestCheckEqualsWithStringsWorksOnContentsWithALiteralD1Ev,_ZN12_GLOBAL__N_
 11789 4429 90       		.align 2
 11791              	_ZN12_GLOBAL__N_153TestCheckEqualsWithStringsWorksOnContentsWithALiteralD0Ev:
 11792              	.LFB1382:
  65:TestChecks.cpp **** {
 11793              		.loc 5 65 0
 11794              		.cfi_startproc
 11795              		.cfi_personality 0x9b,DW.ref.__gxx_personality_v0
 11796              		.cfi_lsda 0x1b,.LLSDA1382
 11797 442a 55       		pushq	%rbp
 11798              		.cfi_def_cfa_offset 16
 11799              		.cfi_offset 6, -16
 11800 442b 4889E5   		movq	%rsp, %rbp
 11801              		.cfi_def_cfa_register 6
 11802 442e 53       		pushq	%rbx
 11803 442f 4883EC18 		subq	$24, %rsp
 11804              		.cfi_offset 3, -24
 11805 4433 48897DE8 		movq	%rdi, -24(%rbp)
  65:TestChecks.cpp **** {
 11806              		.loc 5 65 0
 11807 4437 488B45E8 		movq	-24(%rbp), %rax
 11808 443b 4889C7   		movq	%rax, %rdi
 11809              	.LEHB284:
 11810 443e E8BDFFFF 		call	_ZN12_GLOBAL__N_153TestCheckEqualsWithStringsWorksOnContentsWithALiteralD1Ev
 11810      FF
 11811              	.LEHE284:
  65:TestChecks.cpp **** {
 11812              		.loc 5 65 0 is_stmt 0 discriminator 2
 11813 4443 488B45E8 		movq	-24(%rbp), %rax
 11814 4447 4889C7   		movq	%rax, %rdi
 11815 444a E8000000 		call	_ZdlPv@PLT
 11815      00
 11816 444f EB1A     		jmp	.L580
 11817              	.L579:
 11818 4451 4889C3   		movq	%rax, %rbx
  65:TestChecks.cpp **** {
 11819              		.loc 5 65 0
 11820 4454 488B45E8 		movq	-24(%rbp), %rax
 11821 4458 4889C7   		movq	%rax, %rdi
 11822 445b E8000000 		call	_ZdlPv@PLT
 11822      00
 11823 4460 4889D8   		movq	%rbx, %rax
 11824 4463 4889C7   		movq	%rax, %rdi
 11825              	.LEHB285:
 11826 4466 E8000000 		call	_Unwind_Resume@PLT
 11826      00
 11827              	.LEHE285:
 11828              	.L580:
 11829 446b 4883C418 		addq	$24, %rsp
 11830 446f 5B       		popq	%rbx
 11831 4470 5D       		popq	%rbp
 11832              		.cfi_def_cfa 7, 8
 11833 4471 C3       		ret
 11834              		.cfi_endproc
 11835              	.LFE1382:
 11836              		.section	.gcc_except_table
 11837              	.LLSDA1382:
 11838 07be FF       		.byte	0xff
 11839 07bf FF       		.byte	0xff
 11840 07c0 01       		.byte	0x1
 11841 07c1 08       		.uleb128 .LLSDACSE1382-.LLSDACSB1382
 11842              	.LLSDACSB1382:
 11843 07c2 14       		.uleb128 .LEHB284-.LFB1382
 11844 07c3 05       		.uleb128 .LEHE284-.LEHB284
 11845 07c4 27       		.uleb128 .L579-.LFB1382
 11846 07c5 00       		.uleb128 0
 11847 07c6 3C       		.uleb128 .LEHB285-.LFB1382
 11848 07c7 05       		.uleb128 .LEHE285-.LEHB285
 11849 07c8 00       		.uleb128 0
 11850 07c9 00       		.uleb128 0
 11851              	.LLSDACSE1382:
 11852              		.text
 11854              		.section	.data.rel.ro.local
 11855              		.align 8
 11858              	_ZTVN12_GLOBAL__N_154TestCheckEqualsWithStringsWorksOnContentsConstNonConstE:
 11859 0320 00000000 		.quad	0
 11859      00000000 
 11860 0328 00000000 		.quad	_ZTIN12_GLOBAL__N_154TestCheckEqualsWithStringsWorksOnContentsConstNonConstE
 11860      00000000 
 11861 0330 00000000 		.quad	_ZN12_GLOBAL__N_154TestCheckEqualsWithStringsWorksOnContentsConstNonConstD1Ev
 11861      00000000 
 11862 0338 00000000 		.quad	_ZN12_GLOBAL__N_154TestCheckEqualsWithStringsWorksOnContentsConstNonConstD0Ev
 11862      00000000 
 11863 0340 00000000 		.quad	_ZNK12_GLOBAL__N_154TestCheckEqualsWithStringsWorksOnContentsConstNonConst7RunImplEv
 11863      00000000 
 11864              		.text
 11865              		.align 2
 11867              	_ZN12_GLOBAL__N_154TestCheckEqualsWithStringsWorksOnContentsConstNonConstD2Ev:
 11868              	.LFB1384:
  56:TestChecks.cpp **** {
 11869              		.loc 5 56 0 is_stmt 1
 11870              		.cfi_startproc
 11871 4472 55       		pushq	%rbp
 11872              		.cfi_def_cfa_offset 16
 11873              		.cfi_offset 6, -16
 11874 4473 4889E5   		movq	%rsp, %rbp
 11875              		.cfi_def_cfa_register 6
 11876 4476 4883EC10 		subq	$16, %rsp
 11877 447a 48897DF8 		movq	%rdi, -8(%rbp)
 11878              	.LBB103:
  56:TestChecks.cpp **** {
 11879              		.loc 5 56 0
 11880 447e 488D1500 		leaq	16+_ZTVN12_GLOBAL__N_154TestCheckEqualsWithStringsWorksOnContentsConstNonConstE(%rip), %rdx
 11880      000000
 11881 4485 488B45F8 		movq	-8(%rbp), %rax
 11882 4489 488910   		movq	%rdx, (%rax)
 11883 448c 488B45F8 		movq	-8(%rbp), %rax
 11884 4490 4889C7   		movq	%rax, %rdi
 11885 4493 E8000000 		call	_ZN8UnitTest4TestD2Ev@PLT
 11885      00
 11886              	.LBE103:
 11887 4498 90       		nop
 11888 4499 C9       		leave
 11889              		.cfi_def_cfa 7, 8
 11890 449a C3       		ret
 11891              		.cfi_endproc
 11892              	.LFE1384:
 11894              		.set	_ZN12_GLOBAL__N_154TestCheckEqualsWithStringsWorksOnContentsConstNonConstD1Ev,_ZN12_GLOBAL__N
 11895 449b 90       		.align 2
 11897              	_ZN12_GLOBAL__N_154TestCheckEqualsWithStringsWorksOnContentsConstNonConstD0Ev:
 11898              	.LFB1386:
  56:TestChecks.cpp **** {
 11899              		.loc 5 56 0
 11900              		.cfi_startproc
 11901              		.cfi_personality 0x9b,DW.ref.__gxx_personality_v0
 11902              		.cfi_lsda 0x1b,.LLSDA1386
 11903 449c 55       		pushq	%rbp
 11904              		.cfi_def_cfa_offset 16
 11905              		.cfi_offset 6, -16
 11906 449d 4889E5   		movq	%rsp, %rbp
 11907              		.cfi_def_cfa_register 6
 11908 44a0 53       		pushq	%rbx
 11909 44a1 4883EC18 		subq	$24, %rsp
 11910              		.cfi_offset 3, -24
 11911 44a5 48897DE8 		movq	%rdi, -24(%rbp)
  56:TestChecks.cpp **** {
 11912              		.loc 5 56 0
 11913 44a9 488B45E8 		movq	-24(%rbp), %rax
 11914 44ad 4889C7   		movq	%rax, %rdi
 11915              	.LEHB286:
 11916 44b0 E8BDFFFF 		call	_ZN12_GLOBAL__N_154TestCheckEqualsWithStringsWorksOnContentsConstNonConstD1Ev
 11916      FF
 11917              	.LEHE286:
  56:TestChecks.cpp **** {
 11918              		.loc 5 56 0 is_stmt 0 discriminator 2
 11919 44b5 488B45E8 		movq	-24(%rbp), %rax
 11920 44b9 4889C7   		movq	%rax, %rdi
 11921 44bc E8000000 		call	_ZdlPv@PLT
 11921      00
 11922 44c1 EB1A     		jmp	.L585
 11923              	.L584:
 11924 44c3 4889C3   		movq	%rax, %rbx
  56:TestChecks.cpp **** {
 11925              		.loc 5 56 0
 11926 44c6 488B45E8 		movq	-24(%rbp), %rax
 11927 44ca 4889C7   		movq	%rax, %rdi
 11928 44cd E8000000 		call	_ZdlPv@PLT
 11928      00
 11929 44d2 4889D8   		movq	%rbx, %rax
 11930 44d5 4889C7   		movq	%rax, %rdi
 11931              	.LEHB287:
 11932 44d8 E8000000 		call	_Unwind_Resume@PLT
 11932      00
 11933              	.LEHE287:
 11934              	.L585:
 11935 44dd 4883C418 		addq	$24, %rsp
 11936 44e1 5B       		popq	%rbx
 11937 44e2 5D       		popq	%rbp
 11938              		.cfi_def_cfa 7, 8
 11939 44e3 C3       		ret
 11940              		.cfi_endproc
 11941              	.LFE1386:
 11942              		.section	.gcc_except_table
 11943              	.LLSDA1386:
 11944 07ca FF       		.byte	0xff
 11945 07cb FF       		.byte	0xff
 11946 07cc 01       		.byte	0x1
 11947 07cd 08       		.uleb128 .LLSDACSE1386-.LLSDACSB1386
 11948              	.LLSDACSB1386:
 11949 07ce 14       		.uleb128 .LEHB286-.LFB1386
 11950 07cf 05       		.uleb128 .LEHE286-.LEHB286
 11951 07d0 27       		.uleb128 .L584-.LFB1386
 11952 07d1 00       		.uleb128 0
 11953 07d2 3C       		.uleb128 .LEHB287-.LFB1386
 11954 07d3 05       		.uleb128 .LEHE287-.LEHB287
 11955 07d4 00       		.uleb128 0
 11956 07d5 00       		.uleb128 0
 11957              	.LLSDACSE1386:
 11958              		.text
 11960              		.section	.data.rel.ro.local
 11961              		.align 8
 11964              	_ZTVN12_GLOBAL__N_154TestCheckEqualsWithStringsWorksOnContentsNonConstConstE:
 11965 0348 00000000 		.quad	0
 11965      00000000 
 11966 0350 00000000 		.quad	_ZTIN12_GLOBAL__N_154TestCheckEqualsWithStringsWorksOnContentsNonConstConstE
 11966      00000000 
 11967 0358 00000000 		.quad	_ZN12_GLOBAL__N_154TestCheckEqualsWithStringsWorksOnContentsNonConstConstD1Ev
 11967      00000000 
 11968 0360 00000000 		.quad	_ZN12_GLOBAL__N_154TestCheckEqualsWithStringsWorksOnContentsNonConstConstD0Ev
 11968      00000000 
 11969 0368 00000000 		.quad	_ZNK12_GLOBAL__N_154TestCheckEqualsWithStringsWorksOnContentsNonConstConst7RunImplEv
 11969      00000000 
 11970              		.text
 11971              		.align 2
 11973              	_ZN12_GLOBAL__N_154TestCheckEqualsWithStringsWorksOnContentsNonConstConstD2Ev:
 11974              	.LFB1388:
  47:TestChecks.cpp **** {
 11975              		.loc 5 47 0 is_stmt 1
 11976              		.cfi_startproc
 11977 44e4 55       		pushq	%rbp
 11978              		.cfi_def_cfa_offset 16
 11979              		.cfi_offset 6, -16
 11980 44e5 4889E5   		movq	%rsp, %rbp
 11981              		.cfi_def_cfa_register 6
 11982 44e8 4883EC10 		subq	$16, %rsp
 11983 44ec 48897DF8 		movq	%rdi, -8(%rbp)
 11984              	.LBB104:
  47:TestChecks.cpp **** {
 11985              		.loc 5 47 0
 11986 44f0 488D1500 		leaq	16+_ZTVN12_GLOBAL__N_154TestCheckEqualsWithStringsWorksOnContentsNonConstConstE(%rip), %rdx
 11986      000000
 11987 44f7 488B45F8 		movq	-8(%rbp), %rax
 11988 44fb 488910   		movq	%rdx, (%rax)
 11989 44fe 488B45F8 		movq	-8(%rbp), %rax
 11990 4502 4889C7   		movq	%rax, %rdi
 11991 4505 E8000000 		call	_ZN8UnitTest4TestD2Ev@PLT
 11991      00
 11992              	.LBE104:
 11993 450a 90       		nop
 11994 450b C9       		leave
 11995              		.cfi_def_cfa 7, 8
 11996 450c C3       		ret
 11997              		.cfi_endproc
 11998              	.LFE1388:
 12000              		.set	_ZN12_GLOBAL__N_154TestCheckEqualsWithStringsWorksOnContentsNonConstConstD1Ev,_ZN12_GLOBAL__N
 12001 450d 90       		.align 2
 12003              	_ZN12_GLOBAL__N_154TestCheckEqualsWithStringsWorksOnContentsNonConstConstD0Ev:
 12004              	.LFB1390:
  47:TestChecks.cpp **** {
 12005              		.loc 5 47 0
 12006              		.cfi_startproc
 12007              		.cfi_personality 0x9b,DW.ref.__gxx_personality_v0
 12008              		.cfi_lsda 0x1b,.LLSDA1390
 12009 450e 55       		pushq	%rbp
 12010              		.cfi_def_cfa_offset 16
 12011              		.cfi_offset 6, -16
 12012 450f 4889E5   		movq	%rsp, %rbp
 12013              		.cfi_def_cfa_register 6
 12014 4512 53       		pushq	%rbx
 12015 4513 4883EC18 		subq	$24, %rsp
 12016              		.cfi_offset 3, -24
 12017 4517 48897DE8 		movq	%rdi, -24(%rbp)
  47:TestChecks.cpp **** {
 12018              		.loc 5 47 0
 12019 451b 488B45E8 		movq	-24(%rbp), %rax
 12020 451f 4889C7   		movq	%rax, %rdi
 12021              	.LEHB288:
 12022 4522 E8BDFFFF 		call	_ZN12_GLOBAL__N_154TestCheckEqualsWithStringsWorksOnContentsNonConstConstD1Ev
 12022      FF
 12023              	.LEHE288:
  47:TestChecks.cpp **** {
 12024              		.loc 5 47 0 is_stmt 0 discriminator 2
 12025 4527 488B45E8 		movq	-24(%rbp), %rax
 12026 452b 4889C7   		movq	%rax, %rdi
 12027 452e E8000000 		call	_ZdlPv@PLT
 12027      00
 12028 4533 EB1A     		jmp	.L590
 12029              	.L589:
 12030 4535 4889C3   		movq	%rax, %rbx
  47:TestChecks.cpp **** {
 12031              		.loc 5 47 0
 12032 4538 488B45E8 		movq	-24(%rbp), %rax
 12033 453c 4889C7   		movq	%rax, %rdi
 12034 453f E8000000 		call	_ZdlPv@PLT
 12034      00
 12035 4544 4889D8   		movq	%rbx, %rax
 12036 4547 4889C7   		movq	%rax, %rdi
 12037              	.LEHB289:
 12038 454a E8000000 		call	_Unwind_Resume@PLT
 12038      00
 12039              	.LEHE289:
 12040              	.L590:
 12041 454f 4883C418 		addq	$24, %rsp
 12042 4553 5B       		popq	%rbx
 12043 4554 5D       		popq	%rbp
 12044              		.cfi_def_cfa 7, 8
 12045 4555 C3       		ret
 12046              		.cfi_endproc
 12047              	.LFE1390:
 12048              		.section	.gcc_except_table
 12049              	.LLSDA1390:
 12050 07d6 FF       		.byte	0xff
 12051 07d7 FF       		.byte	0xff
 12052 07d8 01       		.byte	0x1
 12053 07d9 08       		.uleb128 .LLSDACSE1390-.LLSDACSB1390
 12054              	.LLSDACSB1390:
 12055 07da 14       		.uleb128 .LEHB288-.LFB1390
 12056 07db 05       		.uleb128 .LEHE288-.LEHB288
 12057 07dc 27       		.uleb128 .L589-.LFB1390
 12058 07dd 00       		.uleb128 0
 12059 07de 3C       		.uleb128 .LEHB289-.LFB1390
 12060 07df 05       		.uleb128 .LEHE289-.LEHB289
 12061 07e0 00       		.uleb128 0
 12062 07e1 00       		.uleb128 0
 12063              	.LLSDACSE1390:
 12064              		.text
 12066              		.section	.data.rel.ro.local
 12067              		.align 8
 12070              	_ZTVN12_GLOBAL__N_151TestCheckEqualsWithStringsWorksOnContentsConstConstE:
 12071 0370 00000000 		.quad	0
 12071      00000000 
 12072 0378 00000000 		.quad	_ZTIN12_GLOBAL__N_151TestCheckEqualsWithStringsWorksOnContentsConstConstE
 12072      00000000 
 12073 0380 00000000 		.quad	_ZN12_GLOBAL__N_151TestCheckEqualsWithStringsWorksOnContentsConstConstD1Ev
 12073      00000000 
 12074 0388 00000000 		.quad	_ZN12_GLOBAL__N_151TestCheckEqualsWithStringsWorksOnContentsConstConstD0Ev
 12074      00000000 
 12075 0390 00000000 		.quad	_ZNK12_GLOBAL__N_151TestCheckEqualsWithStringsWorksOnContentsConstConst7RunImplEv
 12075      00000000 
 12076              		.text
 12077              		.align 2
 12079              	_ZN12_GLOBAL__N_151TestCheckEqualsWithStringsWorksOnContentsConstConstD2Ev:
 12080              	.LFB1392:
  38:TestChecks.cpp **** {
 12081              		.loc 5 38 0 is_stmt 1
 12082              		.cfi_startproc
 12083 4556 55       		pushq	%rbp
 12084              		.cfi_def_cfa_offset 16
 12085              		.cfi_offset 6, -16
 12086 4557 4889E5   		movq	%rsp, %rbp
 12087              		.cfi_def_cfa_register 6
 12088 455a 4883EC10 		subq	$16, %rsp
 12089 455e 48897DF8 		movq	%rdi, -8(%rbp)
 12090              	.LBB105:
  38:TestChecks.cpp **** {
 12091              		.loc 5 38 0
 12092 4562 488D1500 		leaq	16+_ZTVN12_GLOBAL__N_151TestCheckEqualsWithStringsWorksOnContentsConstConstE(%rip), %rdx
 12092      000000
 12093 4569 488B45F8 		movq	-8(%rbp), %rax
 12094 456d 488910   		movq	%rdx, (%rax)
 12095 4570 488B45F8 		movq	-8(%rbp), %rax
 12096 4574 4889C7   		movq	%rax, %rdi
 12097 4577 E8000000 		call	_ZN8UnitTest4TestD2Ev@PLT
 12097      00
 12098              	.LBE105:
 12099 457c 90       		nop
 12100 457d C9       		leave
 12101              		.cfi_def_cfa 7, 8
 12102 457e C3       		ret
 12103              		.cfi_endproc
 12104              	.LFE1392:
 12106              		.set	_ZN12_GLOBAL__N_151TestCheckEqualsWithStringsWorksOnContentsConstConstD1Ev,_ZN12_GLOBAL__N_15
 12107 457f 90       		.align 2
 12109              	_ZN12_GLOBAL__N_151TestCheckEqualsWithStringsWorksOnContentsConstConstD0Ev:
 12110              	.LFB1394:
  38:TestChecks.cpp **** {
 12111              		.loc 5 38 0
 12112              		.cfi_startproc
 12113              		.cfi_personality 0x9b,DW.ref.__gxx_personality_v0
 12114              		.cfi_lsda 0x1b,.LLSDA1394
 12115 4580 55       		pushq	%rbp
 12116              		.cfi_def_cfa_offset 16
 12117              		.cfi_offset 6, -16
 12118 4581 4889E5   		movq	%rsp, %rbp
 12119              		.cfi_def_cfa_register 6
 12120 4584 53       		pushq	%rbx
 12121 4585 4883EC18 		subq	$24, %rsp
 12122              		.cfi_offset 3, -24
 12123 4589 48897DE8 		movq	%rdi, -24(%rbp)
  38:TestChecks.cpp **** {
 12124              		.loc 5 38 0
 12125 458d 488B45E8 		movq	-24(%rbp), %rax
 12126 4591 4889C7   		movq	%rax, %rdi
 12127              	.LEHB290:
 12128 4594 E8BDFFFF 		call	_ZN12_GLOBAL__N_151TestCheckEqualsWithStringsWorksOnContentsConstConstD1Ev
 12128      FF
 12129              	.LEHE290:
  38:TestChecks.cpp **** {
 12130              		.loc 5 38 0 is_stmt 0 discriminator 2
 12131 4599 488B45E8 		movq	-24(%rbp), %rax
 12132 459d 4889C7   		movq	%rax, %rdi
 12133 45a0 E8000000 		call	_ZdlPv@PLT
 12133      00
 12134 45a5 EB1A     		jmp	.L595
 12135              	.L594:
 12136 45a7 4889C3   		movq	%rax, %rbx
  38:TestChecks.cpp **** {
 12137              		.loc 5 38 0
 12138 45aa 488B45E8 		movq	-24(%rbp), %rax
 12139 45ae 4889C7   		movq	%rax, %rdi
 12140 45b1 E8000000 		call	_ZdlPv@PLT
 12140      00
 12141 45b6 4889D8   		movq	%rbx, %rax
 12142 45b9 4889C7   		movq	%rax, %rdi
 12143              	.LEHB291:
 12144 45bc E8000000 		call	_Unwind_Resume@PLT
 12144      00
 12145              	.LEHE291:
 12146              	.L595:
 12147 45c1 4883C418 		addq	$24, %rsp
 12148 45c5 5B       		popq	%rbx
 12149 45c6 5D       		popq	%rbp
 12150              		.cfi_def_cfa 7, 8
 12151 45c7 C3       		ret
 12152              		.cfi_endproc
 12153              	.LFE1394:
 12154              		.section	.gcc_except_table
 12155              	.LLSDA1394:
 12156 07e2 FF       		.byte	0xff
 12157 07e3 FF       		.byte	0xff
 12158 07e4 01       		.byte	0x1
 12159 07e5 08       		.uleb128 .LLSDACSE1394-.LLSDACSB1394
 12160              	.LLSDACSB1394:
 12161 07e6 14       		.uleb128 .LEHB290-.LFB1394
 12162 07e7 05       		.uleb128 .LEHE290-.LEHB290
 12163 07e8 27       		.uleb128 .L594-.LFB1394
 12164 07e9 00       		.uleb128 0
 12165 07ea 3C       		.uleb128 .LEHB291-.LFB1394
 12166 07eb 05       		.uleb128 .LEHE291-.LEHB291
 12167 07ec 00       		.uleb128 0
 12168 07ed 00       		.uleb128 0
 12169              	.LLSDACSE1394:
 12170              		.text
 12172              		.section	.data.rel.ro.local
 12173              		.align 8
 12176              	_ZTVN12_GLOBAL__N_157TestCheckEqualsWithStringsWorksOnContentsNonConstNonConstE:
 12177 0398 00000000 		.quad	0
 12177      00000000 
 12178 03a0 00000000 		.quad	_ZTIN12_GLOBAL__N_157TestCheckEqualsWithStringsWorksOnContentsNonConstNonConstE
 12178      00000000 
 12179 03a8 00000000 		.quad	_ZN12_GLOBAL__N_157TestCheckEqualsWithStringsWorksOnContentsNonConstNonConstD1Ev
 12179      00000000 
 12180 03b0 00000000 		.quad	_ZN12_GLOBAL__N_157TestCheckEqualsWithStringsWorksOnContentsNonConstNonConstD0Ev
 12180      00000000 
 12181 03b8 00000000 		.quad	_ZNK12_GLOBAL__N_157TestCheckEqualsWithStringsWorksOnContentsNonConstNonConst7RunImplEv
 12181      00000000 
 12182              		.text
 12183              		.align 2
 12185              	_ZN12_GLOBAL__N_157TestCheckEqualsWithStringsWorksOnContentsNonConstNonConstD2Ev:
 12186              	.LFB1396:
  29:TestChecks.cpp **** {
 12187              		.loc 5 29 0 is_stmt 1
 12188              		.cfi_startproc
 12189 45c8 55       		pushq	%rbp
 12190              		.cfi_def_cfa_offset 16
 12191              		.cfi_offset 6, -16
 12192 45c9 4889E5   		movq	%rsp, %rbp
 12193              		.cfi_def_cfa_register 6
 12194 45cc 4883EC10 		subq	$16, %rsp
 12195 45d0 48897DF8 		movq	%rdi, -8(%rbp)
 12196              	.LBB106:
  29:TestChecks.cpp **** {
 12197              		.loc 5 29 0
 12198 45d4 488D1500 		leaq	16+_ZTVN12_GLOBAL__N_157TestCheckEqualsWithStringsWorksOnContentsNonConstNonConstE(%rip), %rd
 12198      000000
 12199 45db 488B45F8 		movq	-8(%rbp), %rax
 12200 45df 488910   		movq	%rdx, (%rax)
 12201 45e2 488B45F8 		movq	-8(%rbp), %rax
 12202 45e6 4889C7   		movq	%rax, %rdi
 12203 45e9 E8000000 		call	_ZN8UnitTest4TestD2Ev@PLT
 12203      00
 12204              	.LBE106:
 12205 45ee 90       		nop
 12206 45ef C9       		leave
 12207              		.cfi_def_cfa 7, 8
 12208 45f0 C3       		ret
 12209              		.cfi_endproc
 12210              	.LFE1396:
 12212              		.set	_ZN12_GLOBAL__N_157TestCheckEqualsWithStringsWorksOnContentsNonConstNonConstD1Ev,_ZN12_GLOBAL
 12213 45f1 90       		.align 2
 12215              	_ZN12_GLOBAL__N_157TestCheckEqualsWithStringsWorksOnContentsNonConstNonConstD0Ev:
 12216              	.LFB1398:
  29:TestChecks.cpp **** {
 12217              		.loc 5 29 0
 12218              		.cfi_startproc
 12219              		.cfi_personality 0x9b,DW.ref.__gxx_personality_v0
 12220              		.cfi_lsda 0x1b,.LLSDA1398
 12221 45f2 55       		pushq	%rbp
 12222              		.cfi_def_cfa_offset 16
 12223              		.cfi_offset 6, -16
 12224 45f3 4889E5   		movq	%rsp, %rbp
 12225              		.cfi_def_cfa_register 6
 12226 45f6 53       		pushq	%rbx
 12227 45f7 4883EC18 		subq	$24, %rsp
 12228              		.cfi_offset 3, -24
 12229 45fb 48897DE8 		movq	%rdi, -24(%rbp)
  29:TestChecks.cpp **** {
 12230              		.loc 5 29 0
 12231 45ff 488B45E8 		movq	-24(%rbp), %rax
 12232 4603 4889C7   		movq	%rax, %rdi
 12233              	.LEHB292:
 12234 4606 E8BDFFFF 		call	_ZN12_GLOBAL__N_157TestCheckEqualsWithStringsWorksOnContentsNonConstNonConstD1Ev
 12234      FF
 12235              	.LEHE292:
  29:TestChecks.cpp **** {
 12236              		.loc 5 29 0 is_stmt 0 discriminator 2
 12237 460b 488B45E8 		movq	-24(%rbp), %rax
 12238 460f 4889C7   		movq	%rax, %rdi
 12239 4612 E8000000 		call	_ZdlPv@PLT
 12239      00
 12240 4617 EB1A     		jmp	.L600
 12241              	.L599:
 12242 4619 4889C3   		movq	%rax, %rbx
  29:TestChecks.cpp **** {
 12243              		.loc 5 29 0
 12244 461c 488B45E8 		movq	-24(%rbp), %rax
 12245 4620 4889C7   		movq	%rax, %rdi
 12246 4623 E8000000 		call	_ZdlPv@PLT
 12246      00
 12247 4628 4889D8   		movq	%rbx, %rax
 12248 462b 4889C7   		movq	%rax, %rdi
 12249              	.LEHB293:
 12250 462e E8000000 		call	_Unwind_Resume@PLT
 12250      00
 12251              	.LEHE293:
 12252              	.L600:
 12253 4633 4883C418 		addq	$24, %rsp
 12254 4637 5B       		popq	%rbx
 12255 4638 5D       		popq	%rbp
 12256              		.cfi_def_cfa 7, 8
 12257 4639 C3       		ret
 12258              		.cfi_endproc
 12259              	.LFE1398:
 12260              		.section	.gcc_except_table
 12261              	.LLSDA1398:
 12262 07ee FF       		.byte	0xff
 12263 07ef FF       		.byte	0xff
 12264 07f0 01       		.byte	0x1
 12265 07f1 08       		.uleb128 .LLSDACSE1398-.LLSDACSB1398
 12266              	.LLSDACSB1398:
 12267 07f2 14       		.uleb128 .LEHB292-.LFB1398
 12268 07f3 05       		.uleb128 .LEHE292-.LEHB292
 12269 07f4 27       		.uleb128 .L599-.LFB1398
 12270 07f5 00       		.uleb128 0
 12271 07f6 3C       		.uleb128 .LEHB293-.LFB1398
 12272 07f7 05       		.uleb128 .LEHE293-.LEHB293
 12273 07f8 00       		.uleb128 0
 12274 07f9 00       		.uleb128 0
 12275              	.LLSDACSE1398:
 12276              		.text
 12278              		.section	.data.rel.ro.local
 12279              		.align 8
 12282              	_ZTVN12_GLOBAL__N_149TestCheckEqualsWithStringsFailsOnDifferentStringsE:
 12283 03c0 00000000 		.quad	0
 12283      00000000 
 12284 03c8 00000000 		.quad	_ZTIN12_GLOBAL__N_149TestCheckEqualsWithStringsFailsOnDifferentStringsE
 12284      00000000 
 12285 03d0 00000000 		.quad	_ZN12_GLOBAL__N_149TestCheckEqualsWithStringsFailsOnDifferentStringsD1Ev
 12285      00000000 
 12286 03d8 00000000 		.quad	_ZN12_GLOBAL__N_149TestCheckEqualsWithStringsFailsOnDifferentStringsD0Ev
 12286      00000000 
 12287 03e0 00000000 		.quad	_ZNK12_GLOBAL__N_149TestCheckEqualsWithStringsFailsOnDifferentStrings7RunImplEv
 12287      00000000 
 12288              		.text
 12289              		.align 2
 12291              	_ZN12_GLOBAL__N_149TestCheckEqualsWithStringsFailsOnDifferentStringsD2Ev:
 12292              	.LFB1400:
  17:TestChecks.cpp **** {
 12293              		.loc 5 17 0 is_stmt 1
 12294              		.cfi_startproc
 12295 463a 55       		pushq	%rbp
 12296              		.cfi_def_cfa_offset 16
 12297              		.cfi_offset 6, -16
 12298 463b 4889E5   		movq	%rsp, %rbp
 12299              		.cfi_def_cfa_register 6
 12300 463e 4883EC10 		subq	$16, %rsp
 12301 4642 48897DF8 		movq	%rdi, -8(%rbp)
 12302              	.LBB107:
  17:TestChecks.cpp **** {
 12303              		.loc 5 17 0
 12304 4646 488D1500 		leaq	16+_ZTVN12_GLOBAL__N_149TestCheckEqualsWithStringsFailsOnDifferentStringsE(%rip), %rdx
 12304      000000
 12305 464d 488B45F8 		movq	-8(%rbp), %rax
 12306 4651 488910   		movq	%rdx, (%rax)
 12307 4654 488B45F8 		movq	-8(%rbp), %rax
 12308 4658 4889C7   		movq	%rax, %rdi
 12309 465b E8000000 		call	_ZN8UnitTest4TestD2Ev@PLT
 12309      00
 12310              	.LBE107:
 12311 4660 90       		nop
 12312 4661 C9       		leave
 12313              		.cfi_def_cfa 7, 8
 12314 4662 C3       		ret
 12315              		.cfi_endproc
 12316              	.LFE1400:
 12318              		.set	_ZN12_GLOBAL__N_149TestCheckEqualsWithStringsFailsOnDifferentStringsD1Ev,_ZN12_GLOBAL__N_149T
 12319 4663 90       		.align 2
 12321              	_ZN12_GLOBAL__N_149TestCheckEqualsWithStringsFailsOnDifferentStringsD0Ev:
 12322              	.LFB1402:
  17:TestChecks.cpp **** {
 12323              		.loc 5 17 0
 12324              		.cfi_startproc
 12325              		.cfi_personality 0x9b,DW.ref.__gxx_personality_v0
 12326              		.cfi_lsda 0x1b,.LLSDA1402
 12327 4664 55       		pushq	%rbp
 12328              		.cfi_def_cfa_offset 16
 12329              		.cfi_offset 6, -16
 12330 4665 4889E5   		movq	%rsp, %rbp
 12331              		.cfi_def_cfa_register 6
 12332 4668 53       		pushq	%rbx
 12333 4669 4883EC18 		subq	$24, %rsp
 12334              		.cfi_offset 3, -24
 12335 466d 48897DE8 		movq	%rdi, -24(%rbp)
  17:TestChecks.cpp **** {
 12336              		.loc 5 17 0
 12337 4671 488B45E8 		movq	-24(%rbp), %rax
 12338 4675 4889C7   		movq	%rax, %rdi
 12339              	.LEHB294:
 12340 4678 E8BDFFFF 		call	_ZN12_GLOBAL__N_149TestCheckEqualsWithStringsFailsOnDifferentStringsD1Ev
 12340      FF
 12341              	.LEHE294:
  17:TestChecks.cpp **** {
 12342              		.loc 5 17 0 is_stmt 0 discriminator 2
 12343 467d 488B45E8 		movq	-24(%rbp), %rax
 12344 4681 4889C7   		movq	%rax, %rdi
 12345 4684 E8000000 		call	_ZdlPv@PLT
 12345      00
 12346 4689 EB1A     		jmp	.L605
 12347              	.L604:
 12348 468b 4889C3   		movq	%rax, %rbx
  17:TestChecks.cpp **** {
 12349              		.loc 5 17 0
 12350 468e 488B45E8 		movq	-24(%rbp), %rax
 12351 4692 4889C7   		movq	%rax, %rdi
 12352 4695 E8000000 		call	_ZdlPv@PLT
 12352      00
 12353 469a 4889D8   		movq	%rbx, %rax
 12354 469d 4889C7   		movq	%rax, %rdi
 12355              	.LEHB295:
 12356 46a0 E8000000 		call	_Unwind_Resume@PLT
 12356      00
 12357              	.LEHE295:
 12358              	.L605:
 12359 46a5 4883C418 		addq	$24, %rsp
 12360 46a9 5B       		popq	%rbx
 12361 46aa 5D       		popq	%rbp
 12362              		.cfi_def_cfa 7, 8
 12363 46ab C3       		ret
 12364              		.cfi_endproc
 12365              	.LFE1402:
 12366              		.section	.gcc_except_table
 12367              	.LLSDA1402:
 12368 07fa FF       		.byte	0xff
 12369 07fb FF       		.byte	0xff
 12370 07fc 01       		.byte	0x1
 12371 07fd 08       		.uleb128 .LLSDACSE1402-.LLSDACSB1402
 12372              	.LLSDACSB1402:
 12373 07fe 14       		.uleb128 .LEHB294-.LFB1402
 12374 07ff 05       		.uleb128 .LEHE294-.LEHB294
 12375 0800 27       		.uleb128 .L604-.LFB1402
 12376 0801 00       		.uleb128 0
 12377 0802 3C       		.uleb128 .LEHB295-.LFB1402
 12378 0803 05       		.uleb128 .LEHE295-.LEHB295
 12379 0804 00       		.uleb128 0
 12380 0805 00       		.uleb128 0
 12381              	.LLSDACSE1402:
 12382              		.text
 12384              		.section	.data.rel.ro.local
 12385              		.align 8
 12388              	_ZTVN12_GLOBAL__N_130TestCheckEqualWithUnsignedLongE:
 12389 03e8 00000000 		.quad	0
 12389      00000000 
 12390 03f0 00000000 		.quad	_ZTIN12_GLOBAL__N_130TestCheckEqualWithUnsignedLongE
 12390      00000000 
 12391 03f8 00000000 		.quad	_ZN12_GLOBAL__N_130TestCheckEqualWithUnsignedLongD1Ev
 12391      00000000 
 12392 0400 00000000 		.quad	_ZN12_GLOBAL__N_130TestCheckEqualWithUnsignedLongD0Ev
 12392      00000000 
 12393 0408 00000000 		.quad	_ZNK12_GLOBAL__N_130TestCheckEqualWithUnsignedLong7RunImplEv
 12393      00000000 
 12394              		.text
 12395              		.align 2
 12397              	_ZN12_GLOBAL__N_130TestCheckEqualWithUnsignedLongD2Ev:
 12398              	.LFB1404:
  10:TestChecks.cpp **** {
 12399              		.loc 5 10 0 is_stmt 1
 12400              		.cfi_startproc
 12401 46ac 55       		pushq	%rbp
 12402              		.cfi_def_cfa_offset 16
 12403              		.cfi_offset 6, -16
 12404 46ad 4889E5   		movq	%rsp, %rbp
 12405              		.cfi_def_cfa_register 6
 12406 46b0 4883EC10 		subq	$16, %rsp
 12407 46b4 48897DF8 		movq	%rdi, -8(%rbp)
 12408              	.LBB108:
  10:TestChecks.cpp **** {
 12409              		.loc 5 10 0
 12410 46b8 488D1500 		leaq	16+_ZTVN12_GLOBAL__N_130TestCheckEqualWithUnsignedLongE(%rip), %rdx
 12410      000000
 12411 46bf 488B45F8 		movq	-8(%rbp), %rax
 12412 46c3 488910   		movq	%rdx, (%rax)
 12413 46c6 488B45F8 		movq	-8(%rbp), %rax
 12414 46ca 4889C7   		movq	%rax, %rdi
 12415 46cd E8000000 		call	_ZN8UnitTest4TestD2Ev@PLT
 12415      00
 12416              	.LBE108:
 12417 46d2 90       		nop
 12418 46d3 C9       		leave
 12419              		.cfi_def_cfa 7, 8
 12420 46d4 C3       		ret
 12421              		.cfi_endproc
 12422              	.LFE1404:
 12424              		.set	_ZN12_GLOBAL__N_130TestCheckEqualWithUnsignedLongD1Ev,_ZN12_GLOBAL__N_130TestCheckEqualWithUn
 12425 46d5 90       		.align 2
 12427              	_ZN12_GLOBAL__N_130TestCheckEqualWithUnsignedLongD0Ev:
 12428              	.LFB1406:
  10:TestChecks.cpp **** {
 12429              		.loc 5 10 0
 12430              		.cfi_startproc
 12431              		.cfi_personality 0x9b,DW.ref.__gxx_personality_v0
 12432              		.cfi_lsda 0x1b,.LLSDA1406
 12433 46d6 55       		pushq	%rbp
 12434              		.cfi_def_cfa_offset 16
 12435              		.cfi_offset 6, -16
 12436 46d7 4889E5   		movq	%rsp, %rbp
 12437              		.cfi_def_cfa_register 6
 12438 46da 53       		pushq	%rbx
 12439 46db 4883EC18 		subq	$24, %rsp
 12440              		.cfi_offset 3, -24
 12441 46df 48897DE8 		movq	%rdi, -24(%rbp)
  10:TestChecks.cpp **** {
 12442              		.loc 5 10 0
 12443 46e3 488B45E8 		movq	-24(%rbp), %rax
 12444 46e7 4889C7   		movq	%rax, %rdi
 12445              	.LEHB296:
 12446 46ea E8BDFFFF 		call	_ZN12_GLOBAL__N_130TestCheckEqualWithUnsignedLongD1Ev
 12446      FF
 12447              	.LEHE296:
  10:TestChecks.cpp **** {
 12448              		.loc 5 10 0 is_stmt 0 discriminator 2
 12449 46ef 488B45E8 		movq	-24(%rbp), %rax
 12450 46f3 4889C7   		movq	%rax, %rdi
 12451 46f6 E8000000 		call	_ZdlPv@PLT
 12451      00
 12452 46fb EB1A     		jmp	.L610
 12453              	.L609:
 12454 46fd 4889C3   		movq	%rax, %rbx
  10:TestChecks.cpp **** {
 12455              		.loc 5 10 0
 12456 4700 488B45E8 		movq	-24(%rbp), %rax
 12457 4704 4889C7   		movq	%rax, %rdi
 12458 4707 E8000000 		call	_ZdlPv@PLT
 12458      00
 12459 470c 4889D8   		movq	%rbx, %rax
 12460 470f 4889C7   		movq	%rax, %rdi
 12461              	.LEHB297:
 12462 4712 E8000000 		call	_Unwind_Resume@PLT
 12462      00
 12463              	.LEHE297:
 12464              	.L610:
 12465 4717 4883C418 		addq	$24, %rsp
 12466 471b 5B       		popq	%rbx
 12467 471c 5D       		popq	%rbp
 12468              		.cfi_def_cfa 7, 8
 12469 471d C3       		ret
 12470              		.cfi_endproc
 12471              	.LFE1406:
 12472              		.section	.gcc_except_table
 12473              	.LLSDA1406:
 12474 0806 FF       		.byte	0xff
 12475 0807 FF       		.byte	0xff
 12476 0808 01       		.byte	0x1
 12477 0809 08       		.uleb128 .LLSDACSE1406-.LLSDACSB1406
 12478              	.LLSDACSB1406:
 12479 080a 14       		.uleb128 .LEHB296-.LFB1406
 12480 080b 05       		.uleb128 .LEHE296-.LEHB296
 12481 080c 27       		.uleb128 .L609-.LFB1406
 12482 080d 00       		.uleb128 0
 12483 080e 3C       		.uleb128 .LEHB297-.LFB1406
 12484 080f 05       		.uleb128 .LEHE297-.LEHB297
 12485 0810 00       		.uleb128 0
 12486 0811 00       		.uleb128 0
 12487              	.LLSDACSE1406:
 12488              		.text
 12490              		.weak	_ZTV17RecordingReporter
 12491              		.section	.data.rel.ro.local._ZTV17RecordingReporter,"awG",@progbits,_ZTV17RecordingReporter,comdat
 12492              		.align 8
 12495              	_ZTV17RecordingReporter:
 12496 0000 00000000 		.quad	0
 12496      00000000 
 12497 0008 00000000 		.quad	_ZTI17RecordingReporter
 12497      00000000 
 12498 0010 00000000 		.quad	_ZN17RecordingReporterD1Ev
 12498      00000000 
 12499 0018 00000000 		.quad	_ZN17RecordingReporterD0Ev
 12499      00000000 
 12500 0020 00000000 		.quad	_ZN17RecordingReporter15ReportTestStartERKN8UnitTest11TestDetailsE
 12500      00000000 
 12501 0028 00000000 		.quad	_ZN17RecordingReporter13ReportFailureERKN8UnitTest11TestDetailsEPKc
 12501      00000000 
 12502 0030 00000000 		.quad	_ZN17RecordingReporter16ReportTestFinishERKN8UnitTest11TestDetailsEf
 12502      00000000 
 12503 0038 00000000 		.quad	_ZN17RecordingReporter13ReportSummaryEiiif
 12503      00000000 
 12504              		.section	.text._ZN17RecordingReporterD2Ev,"axG",@progbits,_ZN17RecordingReporterD5Ev,comdat
 12505              		.align 2
 12506              		.weak	_ZN17RecordingReporterD2Ev
 12508              	_ZN17RecordingReporterD2Ev:
 12509              	.LFB1408:
   9:RecordingReporter.h **** {
 12510              		.loc 4 9 0 is_stmt 1
 12511              		.cfi_startproc
 12512 0000 55       		pushq	%rbp
 12513              		.cfi_def_cfa_offset 16
 12514              		.cfi_offset 6, -16
 12515 0001 4889E5   		movq	%rsp, %rbp
 12516              		.cfi_def_cfa_register 6
 12517 0004 4883EC10 		subq	$16, %rsp
 12518 0008 48897DF8 		movq	%rdi, -8(%rbp)
 12519              	.LBB109:
   9:RecordingReporter.h **** {
 12520              		.loc 4 9 0
 12521 000c 488D1500 		leaq	16+_ZTV17RecordingReporter(%rip), %rdx
 12521      000000
 12522 0013 488B45F8 		movq	-8(%rbp), %rax
 12523 0017 488910   		movq	%rdx, (%rax)
 12524 001a 488B45F8 		movq	-8(%rbp), %rax
 12525 001e 4889C7   		movq	%rax, %rdi
 12526 0021 E8000000 		call	_ZN8UnitTest12TestReporterD2Ev@PLT
 12526      00
 12527              	.LBE109:
 12528 0026 90       		nop
 12529 0027 C9       		leave
 12530              		.cfi_def_cfa 7, 8
 12531 0028 C3       		ret
 12532              		.cfi_endproc
 12533              	.LFE1408:
 12535              		.weak	_ZN17RecordingReporterD1Ev
 12536              		.set	_ZN17RecordingReporterD1Ev,_ZN17RecordingReporterD2Ev
 12537              		.section	.text._ZN17RecordingReporterD0Ev,"axG",@progbits,_ZN17RecordingReporterD5Ev,comdat
 12538              		.align 2
 12539              		.weak	_ZN17RecordingReporterD0Ev
 12541              	_ZN17RecordingReporterD0Ev:
 12542              	.LFB1410:
   9:RecordingReporter.h **** {
 12543              		.loc 4 9 0
 12544              		.cfi_startproc
 12545              		.cfi_personality 0x9b,DW.ref.__gxx_personality_v0
 12546              		.cfi_lsda 0x1b,.LLSDA1410
 12547 0000 55       		pushq	%rbp
 12548              		.cfi_def_cfa_offset 16
 12549              		.cfi_offset 6, -16
 12550 0001 4889E5   		movq	%rsp, %rbp
 12551              		.cfi_def_cfa_register 6
 12552 0004 53       		pushq	%rbx
 12553 0005 4883EC18 		subq	$24, %rsp
 12554              		.cfi_offset 3, -24
 12555 0009 48897DE8 		movq	%rdi, -24(%rbp)
   9:RecordingReporter.h **** {
 12556              		.loc 4 9 0
 12557 000d 488B45E8 		movq	-24(%rbp), %rax
 12558 0011 4889C7   		movq	%rax, %rdi
 12559              	.LEHB298:
 12560 0014 E8000000 		call	_ZN17RecordingReporterD1Ev
 12560      00
 12561              	.LEHE298:
   9:RecordingReporter.h **** {
 12562              		.loc 4 9 0 is_stmt 0 discriminator 2
 12563 0019 488B45E8 		movq	-24(%rbp), %rax
 12564 001d 4889C7   		movq	%rax, %rdi
 12565 0020 E8000000 		call	_ZdlPv@PLT
 12565      00
 12566 0025 EB1A     		jmp	.L615
 12567              	.L614:
 12568 0027 4889C3   		movq	%rax, %rbx
   9:RecordingReporter.h **** {
 12569              		.loc 4 9 0
 12570 002a 488B45E8 		movq	-24(%rbp), %rax
 12571 002e 4889C7   		movq	%rax, %rdi
 12572 0031 E8000000 		call	_ZdlPv@PLT
 12572      00
 12573 0036 4889D8   		movq	%rbx, %rax
 12574 0039 4889C7   		movq	%rax, %rdi
 12575              	.LEHB299:
 12576 003c E8000000 		call	_Unwind_Resume@PLT
 12576      00
 12577              	.LEHE299:
 12578              	.L615:
 12579 0041 4883C418 		addq	$24, %rsp
 12580 0045 5B       		popq	%rbx
 12581 0046 5D       		popq	%rbp
 12582              		.cfi_def_cfa 7, 8
 12583 0047 C3       		ret
 12584              		.cfi_endproc
 12585              	.LFE1410:
 12586              		.section	.gcc_except_table
 12587              	.LLSDA1410:
 12588 0812 FF       		.byte	0xff
 12589 0813 FF       		.byte	0xff
 12590 0814 01       		.byte	0x1
 12591 0815 08       		.uleb128 .LLSDACSE1410-.LLSDACSB1410
 12592              	.LLSDACSB1410:
 12593 0816 14       		.uleb128 .LEHB298-.LFB1410
 12594 0817 05       		.uleb128 .LEHE298-.LEHB298
 12595 0818 27       		.uleb128 .L614-.LFB1410
 12596 0819 00       		.uleb128 0
 12597 081a 3C       		.uleb128 .LEHB299-.LFB1410
 12598 081b 05       		.uleb128 .LEHE299-.LEHB299
 12599 081c 00       		.uleb128 0
 12600 081d 00       		.uleb128 0
 12601              	.LLSDACSE1410:
 12602              		.section	.text._ZN17RecordingReporterD0Ev,"axG",@progbits,_ZN17RecordingReporterD5Ev,comdat
 12604              		.weak	_ZTVN8UnitTest15MemoryOutStreamE
 12605              		.section	.data.rel.ro.local._ZTVN8UnitTest15MemoryOutStreamE,"awG",@progbits,_ZTVN8UnitTest15Memor
 12606              		.align 8
 12609              	_ZTVN8UnitTest15MemoryOutStreamE:
 12610 0000 90000000 		.quad	144
 12610      00000000 
 12611 0008 00000000 		.quad	0
 12611      00000000 
 12612 0010 00000000 		.quad	_ZTIN8UnitTest15MemoryOutStreamE
 12612      00000000 
 12613 0018 00000000 		.quad	_ZN8UnitTest15MemoryOutStreamD1Ev
 12613      00000000 
 12614 0020 00000000 		.quad	_ZN8UnitTest15MemoryOutStreamD0Ev
 12614      00000000 
 12615 0028 70FFFFFF 		.quad	-144
 12615      FFFFFFFF 
 12616 0030 70FFFFFF 		.quad	-144
 12616      FFFFFFFF 
 12617 0038 00000000 		.quad	_ZTIN8UnitTest15MemoryOutStreamE
 12617      00000000 
 12618 0040 00000000 		.quad	_ZTv0_n24_N8UnitTest15MemoryOutStreamD1Ev
 12618      00000000 
 12619 0048 00000000 		.quad	_ZTv0_n24_N8UnitTest15MemoryOutStreamD0Ev
 12619      00000000 
 12620              		.weak	_ZTTN8UnitTest15MemoryOutStreamE
 12621              		.section	.data.rel.ro.local._ZTTN8UnitTest15MemoryOutStreamE,"awG",@progbits,_ZTVN8UnitTest15Memor
 12622              		.align 8
 12625              	_ZTTN8UnitTest15MemoryOutStreamE:
 12626 0000 00000000 		.quad	_ZTVN8UnitTest15MemoryOutStreamE+24
 12626      00000000 
 12627 0008 00000000 		.quad	_ZTCN8UnitTest15MemoryOutStreamE0_NSt7__cxx1119basic_ostringstreamIcSt11char_traitsIcESaIcEE
 12627      00000000 
 12628 0010 00000000 		.quad	_ZTCN8UnitTest15MemoryOutStreamE0_So+24
 12628      00000000 
 12629 0018 00000000 		.quad	_ZTCN8UnitTest15MemoryOutStreamE0_So+64
 12629      00000000 
 12630 0020 00000000 		.quad	_ZTCN8UnitTest15MemoryOutStreamE0_NSt7__cxx1119basic_ostringstreamIcSt11char_traitsIcESaIcEE
 12630      00000000 
 12631 0028 00000000 		.quad	_ZTVN8UnitTest15MemoryOutStreamE+64
 12631      00000000 
 12632              		.hidden	_ZTCN8UnitTest15MemoryOutStreamE0_NSt7__cxx1119basic_ostringstreamIcSt11char_traitsIcESaIc
 12633              		.weak	_ZTCN8UnitTest15MemoryOutStreamE0_NSt7__cxx1119basic_ostringstreamIcSt11char_traitsIcESaIcEE
 12634              		.section	.data.rel.ro._ZTCN8UnitTest15MemoryOutStreamE0_NSt7__cxx1119basic_ostringstreamIcSt11char
 12635              		.align 8
 12638              	_ZTCN8UnitTest15MemoryOutStreamE0_NSt7__cxx1119basic_ostringstreamIcSt11char_traitsIcESaIcEEE:
 12639 0000 90000000 		.quad	144
 12639      00000000 
 12640 0008 00000000 		.quad	0
 12640      00000000 
 12641 0010 00000000 		.quad	_ZTINSt7__cxx1119basic_ostringstreamIcSt11char_traitsIcESaIcEEE
 12641      00000000 
 12642 0018 00000000 		.quad	0
 12642      00000000 
 12643 0020 00000000 		.quad	0
 12643      00000000 
 12644 0028 70FFFFFF 		.quad	-144
 12644      FFFFFFFF 
 12645 0030 70FFFFFF 		.quad	-144
 12645      FFFFFFFF 
 12646 0038 00000000 		.quad	_ZTINSt7__cxx1119basic_ostringstreamIcSt11char_traitsIcESaIcEEE
 12646      00000000 
 12647 0040 00000000 		.quad	0
 12647      00000000 
 12648 0048 00000000 		.quad	0
 12648      00000000 
 12649              		.hidden	_ZTCN8UnitTest15MemoryOutStreamE0_So
 12650              		.weak	_ZTCN8UnitTest15MemoryOutStreamE0_So
 12651              		.section	.data.rel.ro._ZTCN8UnitTest15MemoryOutStreamE0_So,"awG",@progbits,_ZTVN8UnitTest15MemoryO
 12652              		.align 8
 12655              	_ZTCN8UnitTest15MemoryOutStreamE0_So:
 12656 0000 90000000 		.quad	144
 12656      00000000 
 12657 0008 00000000 		.quad	0
 12657      00000000 
 12658 0010 00000000 		.quad	_ZTISo
 12658      00000000 
 12659 0018 00000000 		.quad	0
 12659      00000000 
 12660 0020 00000000 		.quad	0
 12660      00000000 
 12661 0028 70FFFFFF 		.quad	-144
 12661      FFFFFFFF 
 12662 0030 70FFFFFF 		.quad	-144
 12662      FFFFFFFF 
 12663 0038 00000000 		.quad	_ZTISo
 12663      00000000 
 12664 0040 00000000 		.quad	0
 12664      00000000 
 12665 0048 00000000 		.quad	0
 12665      00000000 
 12666              		.section	.rodata
 12667 0bfa 00000000 		.align 32
 12667      0000
 12670              	_ZTSN12_GLOBAL__N_143TestCheckArray2DCloseFailureIncludesDetailsE:
 12671 0c00 2A4E3132 		.string	"*N12_GLOBAL__N_143TestCheckArray2DCloseFailureIncludesDetailsE"
 12671      5F474C4F 
 12671      42414C5F 
 12671      5F4E5F31 
 12671      34335465 
 12672              		.section	.data.rel.ro,"aw",@progbits
 12673              		.align 8
 12676              	_ZTIN12_GLOBAL__N_143TestCheckArray2DCloseFailureIncludesDetailsE:
 12677 0000 00000000 		.quad	_ZTVN10__cxxabiv120__si_class_type_infoE+16
 12677      00000000 
 12678 0008 00000000 		.quad	_ZTSN12_GLOBAL__N_143TestCheckArray2DCloseFailureIncludesDetailsE
 12678      00000000 
 12679 0010 00000000 		.quad	_ZTIN8UnitTest4TestE
 12679      00000000 
 12680              		.section	.rodata
 12681 0c3f 00       		.align 32
 12684              	_ZTSN12_GLOBAL__N_133TestCheckCloseWithDoublesSucceedsE:
 12685 0c40 2A4E3132 		.string	"*N12_GLOBAL__N_133TestCheckCloseWithDoublesSucceedsE"
 12685      5F474C4F 
 12685      42414C5F 
 12685      5F4E5F31 
 12685      33335465 
 12686              		.section	.data.rel.ro
 12687              		.align 8
 12690              	_ZTIN12_GLOBAL__N_133TestCheckCloseWithDoublesSucceedsE:
 12691 0018 00000000 		.quad	_ZTVN10__cxxabiv120__si_class_type_infoE+16
 12691      00000000 
 12692 0020 00000000 		.quad	_ZTSN12_GLOBAL__N_133TestCheckCloseWithDoublesSucceedsE
 12692      00000000 
 12693 0028 00000000 		.quad	_ZTIN8UnitTest4TestE
 12693      00000000 
 12694              		.section	.rodata
 12695 0c75 00000000 		.align 32
 12695      00000000 
 12695      000000
 12698              	_ZTSN12_GLOBAL__N_126TestCheckArray2DCloseFalseE:
 12699 0c80 2A4E3132 		.string	"*N12_GLOBAL__N_126TestCheckArray2DCloseFalseE"
 12699      5F474C4F 
 12699      42414C5F 
 12699      5F4E5F31 
 12699      32365465 
 12700              		.section	.data.rel.ro
 12701              		.align 8
 12704              	_ZTIN12_GLOBAL__N_126TestCheckArray2DCloseFalseE:
 12705 0030 00000000 		.quad	_ZTVN10__cxxabiv120__si_class_type_infoE+16
 12705      00000000 
 12706 0038 00000000 		.quad	_ZTSN12_GLOBAL__N_126TestCheckArray2DCloseFalseE
 12706      00000000 
 12707 0040 00000000 		.quad	_ZTIN8UnitTest4TestE
 12707      00000000 
 12708              		.section	.rodata
 12709 0cae 00000000 		.align 32
 12709      00000000 
 12709      00000000 
 12709      00000000 
 12709      0000
 12712              	_ZTSN12_GLOBAL__N_125TestCheckArray2DCloseTrueE:
 12713 0cc0 2A4E3132 		.string	"*N12_GLOBAL__N_125TestCheckArray2DCloseTrueE"
 12713      5F474C4F 
 12713      42414C5F 
 12713      5F4E5F31 
 12713      32355465 
 12714              		.section	.data.rel.ro
 12715              		.align 8
 12718              	_ZTIN12_GLOBAL__N_125TestCheckArray2DCloseTrueE:
 12719 0048 00000000 		.quad	_ZTVN10__cxxabiv120__si_class_type_infoE+16
 12719      00000000 
 12720 0050 00000000 		.quad	_ZTSN12_GLOBAL__N_125TestCheckArray2DCloseTrueE
 12720      00000000 
 12721 0058 00000000 		.quad	_ZTIN8UnitTest4TestE
 12721      00000000 
 12722              		.section	.rodata
 12723 0ced 00000000 		.align 32
 12723      00000000 
 12723      00000000 
 12723      00000000 
 12723      000000
 12726              	_ZTSN12_GLOBAL__N_141TestCheckArrayCloseFailureIncludesDetailsE:
 12727 0d00 2A4E3132 		.string	"*N12_GLOBAL__N_141TestCheckArrayCloseFailureIncludesDetailsE"
 12727      5F474C4F 
 12727      42414C5F 
 12727      5F4E5F31 
 12727      34315465 
 12728              		.section	.data.rel.ro
 12729              		.align 8
 12732              	_ZTIN12_GLOBAL__N_141TestCheckArrayCloseFailureIncludesDetailsE:
 12733 0060 00000000 		.quad	_ZTVN10__cxxabiv120__si_class_type_infoE+16
 12733      00000000 
 12734 0068 00000000 		.quad	_ZTSN12_GLOBAL__N_141TestCheckArrayCloseFailureIncludesDetailsE
 12734      00000000 
 12735 0070 00000000 		.quad	_ZTIN8UnitTest4TestE
 12735      00000000 
 12736              		.section	.rodata
 12737 0d3d 000000   		.align 32
 12740              	_ZTSN12_GLOBAL__N_124TestCheckArrayCloseFalseE:
 12741 0d40 2A4E3132 		.string	"*N12_GLOBAL__N_124TestCheckArrayCloseFalseE"
 12741      5F474C4F 
 12741      42414C5F 
 12741      5F4E5F31 
 12741      32345465 
 12742              		.section	.data.rel.ro
 12743              		.align 8
 12746              	_ZTIN12_GLOBAL__N_124TestCheckArrayCloseFalseE:
 12747 0078 00000000 		.quad	_ZTVN10__cxxabiv120__si_class_type_infoE+16
 12747      00000000 
 12748 0080 00000000 		.quad	_ZTSN12_GLOBAL__N_124TestCheckArrayCloseFalseE
 12748      00000000 
 12749 0088 00000000 		.quad	_ZTIN8UnitTest4TestE
 12749      00000000 
 12750              		.section	.rodata
 12751 0d6c 00000000 		.align 32
 12751      00000000 
 12751      00000000 
 12751      00000000 
 12751      00000000 
 12754              	_ZTSN12_GLOBAL__N_123TestCheckArrayCloseTrueE:
 12755 0d80 2A4E3132 		.string	"*N12_GLOBAL__N_123TestCheckArrayCloseTrueE"
 12755      5F474C4F 
 12755      42414C5F 
 12755      5F4E5F31 
 12755      32335465 
 12756              		.section	.data.rel.ro
 12757              		.align 8
 12760              	_ZTIN12_GLOBAL__N_123TestCheckArrayCloseTrueE:
 12761 0090 00000000 		.quad	_ZTVN10__cxxabiv120__si_class_type_infoE+16
 12761      00000000 
 12762 0098 00000000 		.quad	_ZTSN12_GLOBAL__N_123TestCheckArrayCloseTrueE
 12762      00000000 
 12763 00a0 00000000 		.quad	_ZTIN8UnitTest4TestE
 12763      00000000 
 12764              		.section	.rodata
 12765 0dab 00000000 		.align 32
 12765      00000000 
 12765      00000000 
 12765      00000000 
 12765      00000000 
 12768              	_ZTSN12_GLOBAL__N_124TestCheckArrayEqualFalseE:
 12769 0dc0 2A4E3132 		.string	"*N12_GLOBAL__N_124TestCheckArrayEqualFalseE"
 12769      5F474C4F 
 12769      42414C5F 
 12769      5F4E5F31 
 12769      32345465 
 12770              		.section	.data.rel.ro
 12771              		.align 8
 12774              	_ZTIN12_GLOBAL__N_124TestCheckArrayEqualFalseE:
 12775 00a8 00000000 		.quad	_ZTVN10__cxxabiv120__si_class_type_infoE+16
 12775      00000000 
 12776 00b0 00000000 		.quad	_ZTSN12_GLOBAL__N_124TestCheckArrayEqualFalseE
 12776      00000000 
 12777 00b8 00000000 		.quad	_ZTIN8UnitTest4TestE
 12777      00000000 
 12778              		.section	.rodata
 12779 0dec 00000000 		.align 32
 12779      00000000 
 12779      00000000 
 12779      00000000 
 12779      00000000 
 12782              	_ZTSN12_GLOBAL__N_123TestCheckArrayEqualTrueE:
 12783 0e00 2A4E3132 		.string	"*N12_GLOBAL__N_123TestCheckArrayEqualTrueE"
 12783      5F474C4F 
 12783      42414C5F 
 12783      5F4E5F31 
 12783      32335465 
 12784              		.section	.data.rel.ro
 12785              		.align 8
 12788              	_ZTIN12_GLOBAL__N_123TestCheckArrayEqualTrueE:
 12789 00c0 00000000 		.quad	_ZTVN10__cxxabiv120__si_class_type_infoE+16
 12789      00000000 
 12790 00c8 00000000 		.quad	_ZTSN12_GLOBAL__N_123TestCheckArrayEqualTrueE
 12790      00000000 
 12791 00d0 00000000 		.quad	_ZTIN8UnitTest4TestE
 12791      00000000 
 12792              		.section	.rodata
 12793 0e2b 00000000 		.align 32
 12793      00000000 
 12793      00000000 
 12793      00000000 
 12793      00000000 
 12796              	_ZTSN12_GLOBAL__N_136TestCheckCloseFailureIncludesDetailsE:
 12797 0e40 2A4E3132 		.string	"*N12_GLOBAL__N_136TestCheckCloseFailureIncludesDetailsE"
 12797      5F474C4F 
 12797      42414C5F 
 12797      5F4E5F31 
 12797      33365465 
 12798              		.section	.data.rel.ro
 12799              		.align 8
 12802              	_ZTIN12_GLOBAL__N_136TestCheckCloseFailureIncludesDetailsE:
 12803 00d8 00000000 		.quad	_ZTVN10__cxxabiv120__si_class_type_infoE+16
 12803      00000000 
 12804 00e0 00000000 		.quad	_ZTSN12_GLOBAL__N_136TestCheckCloseFailureIncludesDetailsE
 12804      00000000 
 12805 00e8 00000000 		.quad	_ZTIN8UnitTest4TestE
 12805      00000000 
 12806              		.section	.rodata
 12807 0e78 00000000 		.align 32
 12807      00000000 
 12810              	_ZTSN12_GLOBAL__N_138TestCheckCloseFailureIncludesToleranceE:
 12811 0e80 2A4E3132 		.string	"*N12_GLOBAL__N_138TestCheckCloseFailureIncludesToleranceE"
 12811      5F474C4F 
 12811      42414C5F 
 12811      5F4E5F31 
 12811      33385465 
 12812              		.section	.data.rel.ro
 12813              		.align 8
 12816              	_ZTIN12_GLOBAL__N_138TestCheckCloseFailureIncludesToleranceE:
 12817 00f0 00000000 		.quad	_ZTVN10__cxxabiv120__si_class_type_infoE+16
 12817      00000000 
 12818 00f8 00000000 		.quad	_ZTSN12_GLOBAL__N_138TestCheckCloseFailureIncludesToleranceE
 12818      00000000 
 12819 0100 00000000 		.quad	_ZTIN8UnitTest4TestE
 12819      00000000 
 12820              		.section	.rodata
 12821 0eba 00000000 		.align 32
 12821      0000
 12824              	_ZTSN12_GLOBAL__N_151TestCheckCloseFailureIncludesCheckExpectedAndActualE:
 12825 0ec0 2A4E3132 		.string	"*N12_GLOBAL__N_151TestCheckCloseFailureIncludesCheckExpectedAndActualE"
 12825      5F474C4F 
 12825      42414C5F 
 12825      5F4E5F31 
 12825      35315465 
 12826              		.section	.data.rel.ro
 12827              		.align 8
 12830              	_ZTIN12_GLOBAL__N_151TestCheckCloseFailureIncludesCheckExpectedAndActualE:
 12831 0108 00000000 		.quad	_ZTVN10__cxxabiv120__si_class_type_infoE+16
 12831      00000000 
 12832 0110 00000000 		.quad	_ZTSN12_GLOBAL__N_151TestCheckCloseFailureIncludesCheckExpectedAndActualE
 12832      00000000 
 12833 0118 00000000 		.quad	_ZTIN8UnitTest4TestE
 12833      00000000 
 12834              		.section	.rodata
 12835 0f07 00000000 		.align 32
 12835      00000000 
 12835      00000000 
 12835      00000000 
 12835      00000000 
 12838              	_ZTSN12_GLOBAL__N_139TestCheckCloseWithNaNAgainstItselfFailsE:
 12839 0f20 2A4E3132 		.string	"*N12_GLOBAL__N_139TestCheckCloseWithNaNAgainstItselfFailsE"
 12839      5F474C4F 
 12839      42414C5F 
 12839      5F4E5F31 
 12839      33395465 
 12840              		.section	.data.rel.ro
 12841              		.align 8
 12844              	_ZTIN12_GLOBAL__N_139TestCheckCloseWithNaNAgainstItselfFailsE:
 12845 0120 00000000 		.quad	_ZTVN10__cxxabiv120__si_class_type_infoE+16
 12845      00000000 
 12846 0128 00000000 		.quad	_ZTSN12_GLOBAL__N_139TestCheckCloseWithNaNAgainstItselfFailsE
 12846      00000000 
 12847 0130 00000000 		.quad	_ZTIN8UnitTest4TestE
 12847      00000000 
 12848              		.section	.rodata
 12849 0f5b 00000000 		.align 32
 12849      00
 12852              	_ZTSN12_GLOBAL__N_126TestCheckCloseWithNaNFailsE:
 12853 0f60 2A4E3132 		.string	"*N12_GLOBAL__N_126TestCheckCloseWithNaNFailsE"
 12853      5F474C4F 
 12853      42414C5F 
 12853      5F4E5F31 
 12853      32365465 
 12854              		.section	.data.rel.ro
 12855              		.align 8
 12858              	_ZTIN12_GLOBAL__N_126TestCheckCloseWithNaNFailsE:
 12859 0138 00000000 		.quad	_ZTVN10__cxxabiv120__si_class_type_infoE+16
 12859      00000000 
 12860 0140 00000000 		.quad	_ZTSN12_GLOBAL__N_126TestCheckCloseWithNaNFailsE
 12860      00000000 
 12861 0148 00000000 		.quad	_ZTIN8UnitTest4TestE
 12861      00000000 
 12862              		.section	.rodata
 12863 0f8e 00000000 		.align 32
 12863      00000000 
 12863      00000000 
 12863      00000000 
 12863      0000
 12866              	_ZTSN12_GLOBAL__N_147TestCheckCloseWithZeroEpsilonWorksForSameNumberE:
 12867 0fa0 2A4E3132 		.string	"*N12_GLOBAL__N_147TestCheckCloseWithZeroEpsilonWorksForSameNumberE"
 12867      5F474C4F 
 12867      42414C5F 
 12867      5F4E5F31 
 12867      34375465 
 12868              		.section	.data.rel.ro
 12869              		.align 8
 12872              	_ZTIN12_GLOBAL__N_147TestCheckCloseWithZeroEpsilonWorksForSameNumberE:
 12873 0150 00000000 		.quad	_ZTVN10__cxxabiv120__si_class_type_infoE+16
 12873      00000000 
 12874 0158 00000000 		.quad	_ZTSN12_GLOBAL__N_147TestCheckCloseWithZeroEpsilonWorksForSameNumberE
 12874      00000000 
 12875 0160 00000000 		.quad	_ZTIN8UnitTest4TestE
 12875      00000000 
 12876              		.section	.rodata
 12877 0fe3 00000000 		.align 32
 12877      00000000 
 12877      00000000 
 12877      00000000 
 12877      00000000 
 12880              	_ZTSN12_GLOBAL__N_119TestCheckCloseFalseE:
 12881 1000 2A4E3132 		.string	"*N12_GLOBAL__N_119TestCheckCloseFalseE"
 12881      5F474C4F 
 12881      42414C5F 
 12881      5F4E5F31 
 12881      31395465 
 12882              		.section	.data.rel.ro
 12883              		.align 8
 12886              	_ZTIN12_GLOBAL__N_119TestCheckCloseFalseE:
 12887 0168 00000000 		.quad	_ZTVN10__cxxabiv120__si_class_type_infoE+16
 12887      00000000 
 12888 0170 00000000 		.quad	_ZTSN12_GLOBAL__N_119TestCheckCloseFalseE
 12888      00000000 
 12889 0178 00000000 		.quad	_ZTIN8UnitTest4TestE
 12889      00000000 
 12890              		.section	.rodata
 12891 1027 00000000 		.align 32
 12891      00000000 
 12891      00000000 
 12891      00000000 
 12891      00000000 
 12894              	_ZTSN12_GLOBAL__N_118TestCheckCloseTrueE:
 12895 1040 2A4E3132 		.string	"*N12_GLOBAL__N_118TestCheckCloseTrueE"
 12895      5F474C4F 
 12895      42414C5F 
 12895      5F4E5F31 
 12895      31385465 
 12896              		.section	.data.rel.ro
 12897              		.align 8
 12900              	_ZTIN12_GLOBAL__N_118TestCheckCloseTrueE:
 12901 0180 00000000 		.quad	_ZTVN10__cxxabiv120__si_class_type_infoE+16
 12901      00000000 
 12902 0188 00000000 		.quad	_ZTSN12_GLOBAL__N_118TestCheckCloseTrueE
 12902      00000000 
 12903 0190 00000000 		.quad	_ZTIN8UnitTest4TestE
 12903      00000000 
 12904              		.section	.rodata
 12905 1066 00000000 		.align 32
 12905      00000000 
 12905      00000000 
 12905      00000000 
 12905      00000000 
 12908              	_ZTSN12_GLOBAL__N_136TestCheckEqualFailureIncludesDetailsE:
 12909 1080 2A4E3132 		.string	"*N12_GLOBAL__N_136TestCheckEqualFailureIncludesDetailsE"
 12909      5F474C4F 
 12909      42414C5F 
 12909      5F4E5F31 
 12909      33365465 
 12910              		.section	.data.rel.ro
 12911              		.align 8
 12914              	_ZTIN12_GLOBAL__N_136TestCheckEqualFailureIncludesDetailsE:
 12915 0198 00000000 		.quad	_ZTVN10__cxxabiv120__si_class_type_infoE+16
 12915      00000000 
 12916 01a0 00000000 		.quad	_ZTSN12_GLOBAL__N_136TestCheckEqualFailureIncludesDetailsE
 12916      00000000 
 12917 01a8 00000000 		.quad	_ZTIN8UnitTest4TestE
 12917      00000000 
 12918              		.section	.rodata
 12919 10b8 00000000 		.align 32
 12919      00000000 
 12922              	_ZTSN12_GLOBAL__N_151TestCheckEqualFailureIncludesCheckExpectedAndActualE:
 12923 10c0 2A4E3132 		.string	"*N12_GLOBAL__N_151TestCheckEqualFailureIncludesCheckExpectedAndActualE"
 12923      5F474C4F 
 12923      42414C5F 
 12923      5F4E5F31 
 12923      35315465 
 12924              		.section	.data.rel.ro
 12925              		.align 8
 12928              	_ZTIN12_GLOBAL__N_151TestCheckEqualFailureIncludesCheckExpectedAndActualE:
 12929 01b0 00000000 		.quad	_ZTVN10__cxxabiv120__si_class_type_infoE+16
 12929      00000000 
 12930 01b8 00000000 		.quad	_ZTSN12_GLOBAL__N_151TestCheckEqualFailureIncludesCheckExpectedAndActualE
 12930      00000000 
 12931 01c0 00000000 		.quad	_ZTIN8UnitTest4TestE
 12931      00000000 
 12932              		.section	.rodata
 12933 1107 00000000 		.align 32
 12933      00000000 
 12933      00000000 
 12933      00000000 
 12933      00000000 
 12936              	_ZTSN12_GLOBAL__N_153TestCheckEqualsWithStringsWorksOnContentsWithALiteralE:
 12937 1120 2A4E3132 		.string	"*N12_GLOBAL__N_153TestCheckEqualsWithStringsWorksOnContentsWithALiteralE"
 12937      5F474C4F 
 12937      42414C5F 
 12937      5F4E5F31 
 12937      35335465 
 12938              		.section	.data.rel.ro
 12939              		.align 8
 12942              	_ZTIN12_GLOBAL__N_153TestCheckEqualsWithStringsWorksOnContentsWithALiteralE:
 12943 01c8 00000000 		.quad	_ZTVN10__cxxabiv120__si_class_type_infoE+16
 12943      00000000 
 12944 01d0 00000000 		.quad	_ZTSN12_GLOBAL__N_153TestCheckEqualsWithStringsWorksOnContentsWithALiteralE
 12944      00000000 
 12945 01d8 00000000 		.quad	_ZTIN8UnitTest4TestE
 12945      00000000 
 12946              		.section	.rodata
 12947 1169 00000000 		.align 32
 12947      00000000 
 12947      00000000 
 12947      00000000 
 12947      00000000 
 12950              	_ZTSN12_GLOBAL__N_154TestCheckEqualsWithStringsWorksOnContentsConstNonConstE:
 12951 1180 2A4E3132 		.string	"*N12_GLOBAL__N_154TestCheckEqualsWithStringsWorksOnContentsConstNonConstE"
 12951      5F474C4F 
 12951      42414C5F 
 12951      5F4E5F31 
 12951      35345465 
 12952              		.section	.data.rel.ro
 12953              		.align 8
 12956              	_ZTIN12_GLOBAL__N_154TestCheckEqualsWithStringsWorksOnContentsConstNonConstE:
 12957 01e0 00000000 		.quad	_ZTVN10__cxxabiv120__si_class_type_infoE+16
 12957      00000000 
 12958 01e8 00000000 		.quad	_ZTSN12_GLOBAL__N_154TestCheckEqualsWithStringsWorksOnContentsConstNonConstE
 12958      00000000 
 12959 01f0 00000000 		.quad	_ZTIN8UnitTest4TestE
 12959      00000000 
 12960              		.section	.rodata
 12961 11ca 00000000 		.align 32
 12961      00000000 
 12961      00000000 
 12961      00000000 
 12961      00000000 
 12964              	_ZTSN12_GLOBAL__N_154TestCheckEqualsWithStringsWorksOnContentsNonConstConstE:
 12965 11e0 2A4E3132 		.string	"*N12_GLOBAL__N_154TestCheckEqualsWithStringsWorksOnContentsNonConstConstE"
 12965      5F474C4F 
 12965      42414C5F 
 12965      5F4E5F31 
 12965      35345465 
 12966              		.section	.data.rel.ro
 12967              		.align 8
 12970              	_ZTIN12_GLOBAL__N_154TestCheckEqualsWithStringsWorksOnContentsNonConstConstE:
 12971 01f8 00000000 		.quad	_ZTVN10__cxxabiv120__si_class_type_infoE+16
 12971      00000000 
 12972 0200 00000000 		.quad	_ZTSN12_GLOBAL__N_154TestCheckEqualsWithStringsWorksOnContentsNonConstConstE
 12972      00000000 
 12973 0208 00000000 		.quad	_ZTIN8UnitTest4TestE
 12973      00000000 
 12974              		.section	.rodata
 12975 122a 00000000 		.align 32
 12975      00000000 
 12975      00000000 
 12975      00000000 
 12975      00000000 
 12978              	_ZTSN12_GLOBAL__N_151TestCheckEqualsWithStringsWorksOnContentsConstConstE:
 12979 1240 2A4E3132 		.string	"*N12_GLOBAL__N_151TestCheckEqualsWithStringsWorksOnContentsConstConstE"
 12979      5F474C4F 
 12979      42414C5F 
 12979      5F4E5F31 
 12979      35315465 
 12980              		.section	.data.rel.ro
 12981              		.align 8
 12984              	_ZTIN12_GLOBAL__N_151TestCheckEqualsWithStringsWorksOnContentsConstConstE:
 12985 0210 00000000 		.quad	_ZTVN10__cxxabiv120__si_class_type_infoE+16
 12985      00000000 
 12986 0218 00000000 		.quad	_ZTSN12_GLOBAL__N_151TestCheckEqualsWithStringsWorksOnContentsConstConstE
 12986      00000000 
 12987 0220 00000000 		.quad	_ZTIN8UnitTest4TestE
 12987      00000000 
 12988              		.section	.rodata
 12989 1287 00000000 		.align 32
 12989      00000000 
 12989      00000000 
 12989      00000000 
 12989      00000000 
 12992              	_ZTSN12_GLOBAL__N_157TestCheckEqualsWithStringsWorksOnContentsNonConstNonConstE:
 12993 12a0 2A4E3132 		.string	"*N12_GLOBAL__N_157TestCheckEqualsWithStringsWorksOnContentsNonConstNonConstE"
 12993      5F474C4F 
 12993      42414C5F 
 12993      5F4E5F31 
 12993      35375465 
 12994              		.section	.data.rel.ro
 12995              		.align 8
 12998              	_ZTIN12_GLOBAL__N_157TestCheckEqualsWithStringsWorksOnContentsNonConstNonConstE:
 12999 0228 00000000 		.quad	_ZTVN10__cxxabiv120__si_class_type_infoE+16
 12999      00000000 
 13000 0230 00000000 		.quad	_ZTSN12_GLOBAL__N_157TestCheckEqualsWithStringsWorksOnContentsNonConstNonConstE
 13000      00000000 
 13001 0238 00000000 		.quad	_ZTIN8UnitTest4TestE
 13001      00000000 
 13002              		.section	.rodata
 13003 12ed 00000000 		.align 32
 13003      00000000 
 13003      00000000 
 13003      00000000 
 13003      000000
 13006              	_ZTSN12_GLOBAL__N_149TestCheckEqualsWithStringsFailsOnDifferentStringsE:
 13007 1300 2A4E3132 		.string	"*N12_GLOBAL__N_149TestCheckEqualsWithStringsFailsOnDifferentStringsE"
 13007      5F474C4F 
 13007      42414C5F 
 13007      5F4E5F31 
 13007      34395465 
 13008              		.section	.data.rel.ro
 13009              		.align 8
 13012              	_ZTIN12_GLOBAL__N_149TestCheckEqualsWithStringsFailsOnDifferentStringsE:
 13013 0240 00000000 		.quad	_ZTVN10__cxxabiv120__si_class_type_infoE+16
 13013      00000000 
 13014 0248 00000000 		.quad	_ZTSN12_GLOBAL__N_149TestCheckEqualsWithStringsFailsOnDifferentStringsE
 13014      00000000 
 13015 0250 00000000 		.quad	_ZTIN8UnitTest4TestE
 13015      00000000 
 13016              		.section	.rodata
 13017 1345 00000000 		.align 32
 13017      00000000 
 13017      00000000 
 13017      00000000 
 13017      00000000 
 13020              	_ZTSN12_GLOBAL__N_130TestCheckEqualWithUnsignedLongE:
 13021 1360 2A4E3132 		.string	"*N12_GLOBAL__N_130TestCheckEqualWithUnsignedLongE"
 13021      5F474C4F 
 13021      42414C5F 
 13021      5F4E5F31 
 13021      33305465 
 13022              		.section	.data.rel.ro
 13023              		.align 8
 13026              	_ZTIN12_GLOBAL__N_130TestCheckEqualWithUnsignedLongE:
 13027 0258 00000000 		.quad	_ZTVN10__cxxabiv120__si_class_type_infoE+16
 13027      00000000 
 13028 0260 00000000 		.quad	_ZTSN12_GLOBAL__N_130TestCheckEqualWithUnsignedLongE
 13028      00000000 
 13029 0268 00000000 		.quad	_ZTIN8UnitTest4TestE
 13029      00000000 
 13030              		.weak	_ZTI17RecordingReporter
 13031              		.section	.data.rel.ro._ZTI17RecordingReporter,"awG",@progbits,_ZTI17RecordingReporter,comdat
 13032              		.align 8
 13035              	_ZTI17RecordingReporter:
 13036 0000 00000000 		.quad	_ZTVN10__cxxabiv120__si_class_type_infoE+16
 13036      00000000 
 13037 0008 00000000 		.quad	_ZTS17RecordingReporter
 13037      00000000 
 13038 0010 00000000 		.quad	_ZTIN8UnitTest12TestReporterE
 13038      00000000 
 13039              		.weak	_ZTS17RecordingReporter
 13040              		.section	.rodata._ZTS17RecordingReporter,"aG",@progbits,_ZTS17RecordingReporter,comdat
 13041              		.align 16
 13044              	_ZTS17RecordingReporter:
 13045 0000 31375265 		.string	"17RecordingReporter"
 13045      636F7264 
 13045      696E6752 
 13045      65706F72 
 13045      74657200 
 13046              		.weak	_ZTIN8UnitTest15MemoryOutStreamE
 13047              		.section	.data.rel.ro._ZTIN8UnitTest15MemoryOutStreamE,"awG",@progbits,_ZTIN8UnitTest15MemoryOutSt
 13048              		.align 8
 13051              	_ZTIN8UnitTest15MemoryOutStreamE:
 13052 0000 00000000 		.quad	_ZTVN10__cxxabiv120__si_class_type_infoE+16
 13052      00000000 
 13053 0008 00000000 		.quad	_ZTSN8UnitTest15MemoryOutStreamE
 13053      00000000 
 13054 0010 00000000 		.quad	_ZTINSt7__cxx1119basic_ostringstreamIcSt11char_traitsIcESaIcEEE
 13054      00000000 
 13055              		.weak	_ZTSN8UnitTest15MemoryOutStreamE
 13056              		.section	.rodata._ZTSN8UnitTest15MemoryOutStreamE,"aG",@progbits,_ZTSN8UnitTest15MemoryOutStreamE,
 13057              		.align 16
 13060              	_ZTSN8UnitTest15MemoryOutStreamE:
 13061 0000 4E38556E 		.string	"N8UnitTest15MemoryOutStreamE"
 13061      69745465 
 13061      73743135 
 13061      4D656D6F 
 13061      72794F75 
 13062              		.text
 13064              	_Z41__static_initialization_and_destruction_0ii:
 13065              	.LFB1411:
 292:TestChecks.cpp **** 
 293:TestChecks.cpp **** }
 13066              		.loc 5 293 0 is_stmt 1
 13067              		.cfi_startproc
 13068 471e 55       		pushq	%rbp
 13069              		.cfi_def_cfa_offset 16
 13070              		.cfi_offset 6, -16
 13071 471f 4889E5   		movq	%rsp, %rbp
 13072              		.cfi_def_cfa_register 6
 13073 4722 4883EC10 		subq	$16, %rsp
 13074 4726 897DFC   		movl	%edi, -4(%rbp)
 13075 4729 8975F8   		movl	%esi, -8(%rbp)
 13076              		.loc 5 293 0
 13077 472c 837DFC01 		cmpl	$1, -4(%rbp)
 13078 4730 0F85A706 		jne	.L618
 13078      0000
 13079              		.loc 5 293 0 is_stmt 0 discriminator 1
 13080 4736 817DF8FF 		cmpl	$65535, -8(%rbp)
 13080      FF0000
 13081 473d 0F859A06 		jne	.L618
 13081      0000
  10:TestChecks.cpp **** {
 13082              		.loc 5 10 0 is_stmt 1
 13083 4743 488D3D00 		leaq	_ZN12_GLOBAL__N_138testCheckEqualWithUnsignedLongInstanceE(%rip), %rdi
 13083      000000
 13084 474a E8B1B8FF 		call	_ZN12_GLOBAL__N_130TestCheckEqualWithUnsignedLongC1Ev
 13084      FF
 13085 474f 488D1500 		leaq	__dso_handle(%rip), %rdx
 13085      000000
 13086 4756 488D3500 		leaq	_ZN12_GLOBAL__N_138testCheckEqualWithUnsignedLongInstanceE(%rip), %rsi
 13086      000000
 13087 475d 488D3D48 		leaq	_ZN12_GLOBAL__N_130TestCheckEqualWithUnsignedLongD1Ev(%rip), %rdi
 13087      FFFFFF
 13088 4764 E8000000 		call	__cxa_atexit@PLT
 13088      00
 13089 4769 E8000000 		call	_ZN8UnitTest4Test11GetTestListEv@PLT
 13089      00
 13090 476e 488D1500 		leaq	_ZN12_GLOBAL__N_138testCheckEqualWithUnsignedLongInstanceE(%rip), %rdx
 13090      000000
 13091 4775 4889C6   		movq	%rax, %rsi
 13092 4778 488D3D00 		leaq	_ZN12_GLOBAL__N_131adderCheckEqualWithUnsignedLongE(%rip), %rdi
 13092      000000
 13093 477f E8000000 		call	_ZN8UnitTest9ListAdderC1ERNS_8TestListEPNS_4TestE@PLT
 13093      00
  17:TestChecks.cpp **** {
 13094              		.loc 5 17 0
 13095 4784 488D3D00 		leaq	_ZN12_GLOBAL__N_157testCheckEqualsWithStringsFailsOnDifferentStringsInstanceE(%rip), %rdi
 13095      000000
 13096 478b E8A2B9FF 		call	_ZN12_GLOBAL__N_149TestCheckEqualsWithStringsFailsOnDifferentStringsC1Ev
 13096      FF
 13097 4790 488D1500 		leaq	__dso_handle(%rip), %rdx
 13097      000000
 13098 4797 488D3500 		leaq	_ZN12_GLOBAL__N_157testCheckEqualsWithStringsFailsOnDifferentStringsInstanceE(%rip), %rsi
 13098      000000
 13099 479e 488D3D95 		leaq	_ZN12_GLOBAL__N_149TestCheckEqualsWithStringsFailsOnDifferentStringsD1Ev(%rip), %rdi
 13099      FEFFFF
 13100 47a5 E8000000 		call	__cxa_atexit@PLT
 13100      00
 13101 47aa E8000000 		call	_ZN8UnitTest4Test11GetTestListEv@PLT
 13101      00
 13102 47af 488D1500 		leaq	_ZN12_GLOBAL__N_157testCheckEqualsWithStringsFailsOnDifferentStringsInstanceE(%rip), %rdx
 13102      000000
 13103 47b6 4889C6   		movq	%rax, %rsi
 13104 47b9 488D3D00 		leaq	_ZN12_GLOBAL__N_150adderCheckEqualsWithStringsFailsOnDifferentStringsE(%rip), %rdi
 13104      000000
 13105 47c0 E8000000 		call	_ZN8UnitTest9ListAdderC1ERNS_8TestListEPNS_4TestE@PLT
 13105      00
  29:TestChecks.cpp **** {
 13106              		.loc 5 29 0
 13107 47c5 488D3D00 		leaq	_ZN12_GLOBAL__N_165testCheckEqualsWithStringsWorksOnContentsNonConstNonConstInstanceE(%rip), 
 13107      000000
 13108 47cc E805BBFF 		call	_ZN12_GLOBAL__N_157TestCheckEqualsWithStringsWorksOnContentsNonConstNonConstC1Ev
 13108      FF
 13109 47d1 488D1500 		leaq	__dso_handle(%rip), %rdx
 13109      000000
 13110 47d8 488D3500 		leaq	_ZN12_GLOBAL__N_165testCheckEqualsWithStringsWorksOnContentsNonConstNonConstInstanceE(%rip), 
 13110      000000
 13111 47df 488D3DE2 		leaq	_ZN12_GLOBAL__N_157TestCheckEqualsWithStringsWorksOnContentsNonConstNonConstD1Ev(%rip), %rdi
 13111      FDFFFF
 13112 47e6 E8000000 		call	__cxa_atexit@PLT
 13112      00
 13113 47eb E8000000 		call	_ZN8UnitTest4Test11GetTestListEv@PLT
 13113      00
 13114 47f0 488D1500 		leaq	_ZN12_GLOBAL__N_165testCheckEqualsWithStringsWorksOnContentsNonConstNonConstInstanceE(%rip), 
 13114      000000
 13115 47f7 4889C6   		movq	%rax, %rsi
 13116 47fa 488D3D00 		leaq	_ZN12_GLOBAL__N_158adderCheckEqualsWithStringsWorksOnContentsNonConstNonConstE(%rip), %rdi
 13116      000000
 13117 4801 E8000000 		call	_ZN8UnitTest9ListAdderC1ERNS_8TestListEPNS_4TestE@PLT
 13117      00
  38:TestChecks.cpp **** {
 13118              		.loc 5 38 0
 13119 4806 488D3D00 		leaq	_ZN12_GLOBAL__N_159testCheckEqualsWithStringsWorksOnContentsConstConstInstanceE(%rip), %rdi
 13119      000000
 13120 480d E86EBCFF 		call	_ZN12_GLOBAL__N_151TestCheckEqualsWithStringsWorksOnContentsConstConstC1Ev
 13120      FF
 13121 4812 488D1500 		leaq	__dso_handle(%rip), %rdx
 13121      000000
 13122 4819 488D3500 		leaq	_ZN12_GLOBAL__N_159testCheckEqualsWithStringsWorksOnContentsConstConstInstanceE(%rip), %rsi
 13122      000000
 13123 4820 488D3D2F 		leaq	_ZN12_GLOBAL__N_151TestCheckEqualsWithStringsWorksOnContentsConstConstD1Ev(%rip), %rdi
 13123      FDFFFF
 13124 4827 E8000000 		call	__cxa_atexit@PLT
 13124      00
 13125 482c E8000000 		call	_ZN8UnitTest4Test11GetTestListEv@PLT
 13125      00
 13126 4831 488D1500 		leaq	_ZN12_GLOBAL__N_159testCheckEqualsWithStringsWorksOnContentsConstConstInstanceE(%rip), %rdx
 13126      000000
 13127 4838 4889C6   		movq	%rax, %rsi
 13128 483b 488D3D00 		leaq	_ZN12_GLOBAL__N_152adderCheckEqualsWithStringsWorksOnContentsConstConstE(%rip), %rdi
 13128      000000
 13129 4842 E8000000 		call	_ZN8UnitTest9ListAdderC1ERNS_8TestListEPNS_4TestE@PLT
 13129      00
  47:TestChecks.cpp **** {
 13130              		.loc 5 47 0
 13131 4847 488D3D00 		leaq	_ZN12_GLOBAL__N_162testCheckEqualsWithStringsWorksOnContentsNonConstConstInstanceE(%rip), %rd
 13131      000000
 13132 484e E8D7BDFF 		call	_ZN12_GLOBAL__N_154TestCheckEqualsWithStringsWorksOnContentsNonConstConstC1Ev
 13132      FF
 13133 4853 488D1500 		leaq	__dso_handle(%rip), %rdx
 13133      000000
 13134 485a 488D3500 		leaq	_ZN12_GLOBAL__N_162testCheckEqualsWithStringsWorksOnContentsNonConstConstInstanceE(%rip), %rs
 13134      000000
 13135 4861 488D3D7C 		leaq	_ZN12_GLOBAL__N_154TestCheckEqualsWithStringsWorksOnContentsNonConstConstD1Ev(%rip), %rdi
 13135      FCFFFF
 13136 4868 E8000000 		call	__cxa_atexit@PLT
 13136      00
 13137 486d E8000000 		call	_ZN8UnitTest4Test11GetTestListEv@PLT
 13137      00
 13138 4872 488D1500 		leaq	_ZN12_GLOBAL__N_162testCheckEqualsWithStringsWorksOnContentsNonConstConstInstanceE(%rip), %rd
 13138      000000
 13139 4879 4889C6   		movq	%rax, %rsi
 13140 487c 488D3D00 		leaq	_ZN12_GLOBAL__N_155adderCheckEqualsWithStringsWorksOnContentsNonConstConstE(%rip), %rdi
 13140      000000
 13141 4883 E8000000 		call	_ZN8UnitTest9ListAdderC1ERNS_8TestListEPNS_4TestE@PLT
 13141      00
  56:TestChecks.cpp **** {
 13142              		.loc 5 56 0
 13143 4888 488D3D00 		leaq	_ZN12_GLOBAL__N_162testCheckEqualsWithStringsWorksOnContentsConstNonConstInstanceE(%rip), %rd
 13143      000000
 13144 488f E840BFFF 		call	_ZN12_GLOBAL__N_154TestCheckEqualsWithStringsWorksOnContentsConstNonConstC1Ev
 13144      FF
 13145 4894 488D1500 		leaq	__dso_handle(%rip), %rdx
 13145      000000
 13146 489b 488D3500 		leaq	_ZN12_GLOBAL__N_162testCheckEqualsWithStringsWorksOnContentsConstNonConstInstanceE(%rip), %rs
 13146      000000
 13147 48a2 488D3DC9 		leaq	_ZN12_GLOBAL__N_154TestCheckEqualsWithStringsWorksOnContentsConstNonConstD1Ev(%rip), %rdi
 13147      FBFFFF
 13148 48a9 E8000000 		call	__cxa_atexit@PLT
 13148      00
 13149 48ae E8000000 		call	_ZN8UnitTest4Test11GetTestListEv@PLT
 13149      00
 13150 48b3 488D1500 		leaq	_ZN12_GLOBAL__N_162testCheckEqualsWithStringsWorksOnContentsConstNonConstInstanceE(%rip), %rd
 13150      000000
 13151 48ba 4889C6   		movq	%rax, %rsi
 13152 48bd 488D3D00 		leaq	_ZN12_GLOBAL__N_155adderCheckEqualsWithStringsWorksOnContentsConstNonConstE(%rip), %rdi
 13152      000000
 13153 48c4 E8000000 		call	_ZN8UnitTest9ListAdderC1ERNS_8TestListEPNS_4TestE@PLT
 13153      00
  65:TestChecks.cpp **** {
 13154              		.loc 5 65 0
 13155 48c9 488D3D00 		leaq	_ZN12_GLOBAL__N_161testCheckEqualsWithStringsWorksOnContentsWithALiteralInstanceE(%rip), %rdi
 13155      000000
 13156 48d0 E8A9C0FF 		call	_ZN12_GLOBAL__N_153TestCheckEqualsWithStringsWorksOnContentsWithALiteralC1Ev
 13156      FF
 13157 48d5 488D1500 		leaq	__dso_handle(%rip), %rdx
 13157      000000
 13158 48dc 488D3500 		leaq	_ZN12_GLOBAL__N_161testCheckEqualsWithStringsWorksOnContentsWithALiteralInstanceE(%rip), %rsi
 13158      000000
 13159 48e3 488D3D16 		leaq	_ZN12_GLOBAL__N_153TestCheckEqualsWithStringsWorksOnContentsWithALiteralD1Ev(%rip), %rdi
 13159      FBFFFF
 13160 48ea E8000000 		call	__cxa_atexit@PLT
 13160      00
 13161 48ef E8000000 		call	_ZN8UnitTest4Test11GetTestListEv@PLT
 13161      00
 13162 48f4 488D1500 		leaq	_ZN12_GLOBAL__N_161testCheckEqualsWithStringsWorksOnContentsWithALiteralInstanceE(%rip), %rdx
 13162      000000
 13163 48fb 4889C6   		movq	%rax, %rsi
 13164 48fe 488D3D00 		leaq	_ZN12_GLOBAL__N_154adderCheckEqualsWithStringsWorksOnContentsWithALiteralE(%rip), %rdi
 13164      000000
 13165 4905 E8000000 		call	_ZN8UnitTest9ListAdderC1ERNS_8TestListEPNS_4TestE@PLT
 13165      00
  73:TestChecks.cpp **** {
 13166              		.loc 5 73 0
 13167 490a 488D3D00 		leaq	_ZN12_GLOBAL__N_159testCheckEqualFailureIncludesCheckExpectedAndActualInstanceE(%rip), %rdi
 13167      000000
 13168 4911 E8FEC1FF 		call	_ZN12_GLOBAL__N_151TestCheckEqualFailureIncludesCheckExpectedAndActualC1Ev
 13168      FF
 13169 4916 488D1500 		leaq	__dso_handle(%rip), %rdx
 13169      000000
 13170 491d 488D3500 		leaq	_ZN12_GLOBAL__N_159testCheckEqualFailureIncludesCheckExpectedAndActualInstanceE(%rip), %rsi
 13170      000000
 13171 4924 488D3D63 		leaq	_ZN12_GLOBAL__N_151TestCheckEqualFailureIncludesCheckExpectedAndActualD1Ev(%rip), %rdi
 13171      FAFFFF
 13172 492b E8000000 		call	__cxa_atexit@PLT
 13172      00
 13173 4930 E8000000 		call	_ZN8UnitTest4Test11GetTestListEv@PLT
 13173      00
 13174 4935 488D1500 		leaq	_ZN12_GLOBAL__N_159testCheckEqualFailureIncludesCheckExpectedAndActualInstanceE(%rip), %rdx
 13174      000000
 13175 493c 4889C6   		movq	%rax, %rsi
 13176 493f 488D3D00 		leaq	_ZN12_GLOBAL__N_152adderCheckEqualFailureIncludesCheckExpectedAndActualE(%rip), %rdi
 13176      000000
 13177 4946 E8000000 		call	_ZN8UnitTest9ListAdderC1ERNS_8TestListEPNS_4TestE@PLT
 13177      00
  85:TestChecks.cpp **** {
 13178              		.loc 5 85 0
 13179 494b 488D3D00 		leaq	_ZN12_GLOBAL__N_144testCheckEqualFailureIncludesDetailsInstanceE(%rip), %rdi
 13179      000000
 13180 4952 E897C4FF 		call	_ZN12_GLOBAL__N_136TestCheckEqualFailureIncludesDetailsC1Ev
 13180      FF
 13181 4957 488D1500 		leaq	__dso_handle(%rip), %rdx
 13181      000000
 13182 495e 488D3500 		leaq	_ZN12_GLOBAL__N_144testCheckEqualFailureIncludesDetailsInstanceE(%rip), %rsi
 13182      000000
 13183 4965 488D3DB0 		leaq	_ZN12_GLOBAL__N_136TestCheckEqualFailureIncludesDetailsD1Ev(%rip), %rdi
 13183      F9FFFF
 13184 496c E8000000 		call	__cxa_atexit@PLT
 13184      00
 13185 4971 E8000000 		call	_ZN8UnitTest4Test11GetTestListEv@PLT
 13185      00
 13186 4976 488D1500 		leaq	_ZN12_GLOBAL__N_144testCheckEqualFailureIncludesDetailsInstanceE(%rip), %rdx
 13186      000000
 13187 497d 4889C6   		movq	%rax, %rsi
 13188 4980 488D3D00 		leaq	_ZN12_GLOBAL__N_137adderCheckEqualFailureIncludesDetailsE(%rip), %rdi
 13188      000000
 13189 4987 E8000000 		call	_ZN8UnitTest9ListAdderC1ERNS_8TestListEPNS_4TestE@PLT
 13189      00
  99:TestChecks.cpp **** {
 13190              		.loc 5 99 0
 13191 498c 488D3D00 		leaq	_ZN12_GLOBAL__N_126testCheckCloseTrueInstanceE(%rip), %rdi
 13191      000000
 13192 4993 E868C8FF 		call	_ZN12_GLOBAL__N_118TestCheckCloseTrueC1Ev
 13192      FF
 13193 4998 488D1500 		leaq	__dso_handle(%rip), %rdx
 13193      000000
 13194 499f 488D3500 		leaq	_ZN12_GLOBAL__N_126testCheckCloseTrueInstanceE(%rip), %rsi
 13194      000000
 13195 49a6 488D3DFD 		leaq	_ZN12_GLOBAL__N_118TestCheckCloseTrueD1Ev(%rip), %rdi
 13195      F8FFFF
 13196 49ad E8000000 		call	__cxa_atexit@PLT
 13196      00
 13197 49b2 E8000000 		call	_ZN8UnitTest4Test11GetTestListEv@PLT
 13197      00
 13198 49b7 488D1500 		leaq	_ZN12_GLOBAL__N_126testCheckCloseTrueInstanceE(%rip), %rdx
 13198      000000
 13199 49be 4889C6   		movq	%rax, %rsi
 13200 49c1 488D3D00 		leaq	_ZN12_GLOBAL__N_119adderCheckCloseTrueE(%rip), %rdi
 13200      000000
 13201 49c8 E8000000 		call	_ZN8UnitTest9ListAdderC1ERNS_8TestListEPNS_4TestE@PLT
 13201      00
 106:TestChecks.cpp **** {
 13202              		.loc 5 106 0
 13203 49cd 488D3D00 		leaq	_ZN12_GLOBAL__N_127testCheckCloseFalseInstanceE(%rip), %rdi
 13203      000000
 13204 49d4 E8D7C9FF 		call	_ZN12_GLOBAL__N_119TestCheckCloseFalseC1Ev
 13204      FF
 13205 49d9 488D1500 		leaq	__dso_handle(%rip), %rdx
 13205      000000
 13206 49e0 488D3500 		leaq	_ZN12_GLOBAL__N_127testCheckCloseFalseInstanceE(%rip), %rsi
 13206      000000
 13207 49e7 488D3D4A 		leaq	_ZN12_GLOBAL__N_119TestCheckCloseFalseD1Ev(%rip), %rdi
 13207      F8FFFF
 13208 49ee E8000000 		call	__cxa_atexit@PLT
 13208      00
 13209 49f3 E8000000 		call	_ZN8UnitTest4Test11GetTestListEv@PLT
 13209      00
 13210 49f8 488D1500 		leaq	_ZN12_GLOBAL__N_127testCheckCloseFalseInstanceE(%rip), %rdx
 13210      000000
 13211 49ff 4889C6   		movq	%rax, %rsi
 13212 4a02 488D3D00 		leaq	_ZN12_GLOBAL__N_120adderCheckCloseFalseE(%rip), %rdi
 13212      000000
 13213 4a09 E8000000 		call	_ZN8UnitTest9ListAdderC1ERNS_8TestListEPNS_4TestE@PLT
 13213      00
 113:TestChecks.cpp **** {
 13214              		.loc 5 113 0
 13215 4a0e 488D3D00 		leaq	_ZN12_GLOBAL__N_155testCheckCloseWithZeroEpsilonWorksForSameNumberInstanceE(%rip), %rdi
 13215      000000
 13216 4a15 E846CBFF 		call	_ZN12_GLOBAL__N_147TestCheckCloseWithZeroEpsilonWorksForSameNumberC1Ev
 13216      FF
 13217 4a1a 488D1500 		leaq	__dso_handle(%rip), %rdx
 13217      000000
 13218 4a21 488D3500 		leaq	_ZN12_GLOBAL__N_155testCheckCloseWithZeroEpsilonWorksForSameNumberInstanceE(%rip), %rsi
 13218      000000
 13219 4a28 488D3D97 		leaq	_ZN12_GLOBAL__N_147TestCheckCloseWithZeroEpsilonWorksForSameNumberD1Ev(%rip), %rdi
 13219      F7FFFF
 13220 4a2f E8000000 		call	__cxa_atexit@PLT
 13220      00
 13221 4a34 E8000000 		call	_ZN8UnitTest4Test11GetTestListEv@PLT
 13221      00
 13222 4a39 488D1500 		leaq	_ZN12_GLOBAL__N_155testCheckCloseWithZeroEpsilonWorksForSameNumberInstanceE(%rip), %rdx
 13222      000000
 13223 4a40 4889C6   		movq	%rax, %rsi
 13224 4a43 488D3D00 		leaq	_ZN12_GLOBAL__N_148adderCheckCloseWithZeroEpsilonWorksForSameNumberE(%rip), %rdi
 13224      000000
 13225 4a4a E8000000 		call	_ZN8UnitTest9ListAdderC1ERNS_8TestListEPNS_4TestE@PLT
 13225      00
 120:TestChecks.cpp **** {
 13226              		.loc 5 120 0
 13227 4a4f 488D3D00 		leaq	_ZN12_GLOBAL__N_134testCheckCloseWithNaNFailsInstanceE(%rip), %rdi
 13227      000000
 13228 4a56 E8AFCCFF 		call	_ZN12_GLOBAL__N_126TestCheckCloseWithNaNFailsC1Ev
 13228      FF
 13229 4a5b 488D1500 		leaq	__dso_handle(%rip), %rdx
 13229      000000
 13230 4a62 488D3500 		leaq	_ZN12_GLOBAL__N_134testCheckCloseWithNaNFailsInstanceE(%rip), %rsi
 13230      000000
 13231 4a69 488D3DE4 		leaq	_ZN12_GLOBAL__N_126TestCheckCloseWithNaNFailsD1Ev(%rip), %rdi
 13231      F6FFFF
 13232 4a70 E8000000 		call	__cxa_atexit@PLT
 13232      00
 13233 4a75 E8000000 		call	_ZN8UnitTest4Test11GetTestListEv@PLT
 13233      00
 13234 4a7a 488D1500 		leaq	_ZN12_GLOBAL__N_134testCheckCloseWithNaNFailsInstanceE(%rip), %rdx
 13234      000000
 13235 4a81 4889C6   		movq	%rax, %rsi
 13236 4a84 488D3D00 		leaq	_ZN12_GLOBAL__N_127adderCheckCloseWithNaNFailsE(%rip), %rdi
 13236      000000
 13237 4a8b E8000000 		call	_ZN8UnitTest9ListAdderC1ERNS_8TestListEPNS_4TestE@PLT
 13237      00
 133:TestChecks.cpp **** {
 13238              		.loc 5 133 0
 13239 4a90 488D3D00 		leaq	_ZN12_GLOBAL__N_147testCheckCloseWithNaNAgainstItselfFailsInstanceE(%rip), %rdi
 13239      000000
 13240 4a97 E818CEFF 		call	_ZN12_GLOBAL__N_139TestCheckCloseWithNaNAgainstItselfFailsC1Ev
 13240      FF
 13241 4a9c 488D1500 		leaq	__dso_handle(%rip), %rdx
 13241      000000
 13242 4aa3 488D3500 		leaq	_ZN12_GLOBAL__N_147testCheckCloseWithNaNAgainstItselfFailsInstanceE(%rip), %rsi
 13242      000000
 13243 4aaa 488D3D31 		leaq	_ZN12_GLOBAL__N_139TestCheckCloseWithNaNAgainstItselfFailsD1Ev(%rip), %rdi
 13243      F6FFFF
 13244 4ab1 E8000000 		call	__cxa_atexit@PLT
 13244      00
 13245 4ab6 E8000000 		call	_ZN8UnitTest4Test11GetTestListEv@PLT
 13245      00
 13246 4abb 488D1500 		leaq	_ZN12_GLOBAL__N_147testCheckCloseWithNaNAgainstItselfFailsInstanceE(%rip), %rdx
 13246      000000
 13247 4ac2 4889C6   		movq	%rax, %rsi
 13248 4ac5 488D3D00 		leaq	_ZN12_GLOBAL__N_140adderCheckCloseWithNaNAgainstItselfFailsE(%rip), %rdi
 13248      000000
 13249 4acc E8000000 		call	_ZN8UnitTest9ListAdderC1ERNS_8TestListEPNS_4TestE@PLT
 13249      00
 146:TestChecks.cpp **** {
 13250              		.loc 5 146 0
 13251 4ad1 488D3D00 		leaq	_ZN12_GLOBAL__N_159testCheckCloseFailureIncludesCheckExpectedAndActualInstanceE(%rip), %rdi
 13251      000000
 13252 4ad8 E873CFFF 		call	_ZN12_GLOBAL__N_151TestCheckCloseFailureIncludesCheckExpectedAndActualC1Ev
 13252      FF
 13253 4add 488D1500 		leaq	__dso_handle(%rip), %rdx
 13253      000000
 13254 4ae4 488D3500 		leaq	_ZN12_GLOBAL__N_159testCheckCloseFailureIncludesCheckExpectedAndActualInstanceE(%rip), %rsi
 13254      000000
 13255 4aeb 488D3D7E 		leaq	_ZN12_GLOBAL__N_151TestCheckCloseFailureIncludesCheckExpectedAndActualD1Ev(%rip), %rdi
 13255      F5FFFF
 13256 4af2 E8000000 		call	__cxa_atexit@PLT
 13256      00
 13257 4af7 E8000000 		call	_ZN8UnitTest4Test11GetTestListEv@PLT
 13257      00
 13258 4afc 488D1500 		leaq	_ZN12_GLOBAL__N_159testCheckCloseFailureIncludesCheckExpectedAndActualInstanceE(%rip), %rdx
 13258      000000
 13259 4b03 4889C6   		movq	%rax, %rsi
 13260 4b06 488D3D00 		leaq	_ZN12_GLOBAL__N_152adderCheckCloseFailureIncludesCheckExpectedAndActualE(%rip), %rdi
 13260      000000
 13261 4b0d E8000000 		call	_ZN8UnitTest9ListAdderC1ERNS_8TestListEPNS_4TestE@PLT
 13261      00
 159:TestChecks.cpp **** {
 13262              		.loc 5 159 0
 13263 4b12 488D3D00 		leaq	_ZN12_GLOBAL__N_146testCheckCloseFailureIncludesToleranceInstanceE(%rip), %rdi
 13263      000000
 13264 4b19 E832D2FF 		call	_ZN12_GLOBAL__N_138TestCheckCloseFailureIncludesToleranceC1Ev
 13264      FF
 13265 4b1e 488D1500 		leaq	__dso_handle(%rip), %rdx
 13265      000000
 13266 4b25 488D3500 		leaq	_ZN12_GLOBAL__N_146testCheckCloseFailureIncludesToleranceInstanceE(%rip), %rsi
 13266      000000
 13267 4b2c 488D3DCB 		leaq	_ZN12_GLOBAL__N_138TestCheckCloseFailureIncludesToleranceD1Ev(%rip), %rdi
 13267      F4FFFF
 13268 4b33 E8000000 		call	__cxa_atexit@PLT
 13268      00
 13269 4b38 E8000000 		call	_ZN8UnitTest4Test11GetTestListEv@PLT
 13269      00
 13270 4b3d 488D1500 		leaq	_ZN12_GLOBAL__N_146testCheckCloseFailureIncludesToleranceInstanceE(%rip), %rdx
 13270      000000
 13271 4b44 4889C6   		movq	%rax, %rsi
 13272 4b47 488D3D00 		leaq	_ZN12_GLOBAL__N_139adderCheckCloseFailureIncludesToleranceE(%rip), %rdi
 13272      000000
 13273 4b4e E8000000 		call	_ZN8UnitTest9ListAdderC1ERNS_8TestListEPNS_4TestE@PLT
 13273      00
 169:TestChecks.cpp **** {
 13274              		.loc 5 169 0
 13275 4b53 488D3D00 		leaq	_ZN12_GLOBAL__N_144testCheckCloseFailureIncludesDetailsInstanceE(%rip), %rdi
 13275      000000
 13276 4b5a E815D4FF 		call	_ZN12_GLOBAL__N_136TestCheckCloseFailureIncludesDetailsC1Ev
 13276      FF
 13277 4b5f 488D1500 		leaq	__dso_handle(%rip), %rdx
 13277      000000
 13278 4b66 488D3500 		leaq	_ZN12_GLOBAL__N_144testCheckCloseFailureIncludesDetailsInstanceE(%rip), %rsi
 13278      000000
 13279 4b6d 488D3D18 		leaq	_ZN12_GLOBAL__N_136TestCheckCloseFailureIncludesDetailsD1Ev(%rip), %rdi
 13279      F4FFFF
 13280 4b74 E8000000 		call	__cxa_atexit@PLT
 13280      00
 13281 4b79 E8000000 		call	_ZN8UnitTest4Test11GetTestListEv@PLT
 13281      00
 13282 4b7e 488D1500 		leaq	_ZN12_GLOBAL__N_144testCheckCloseFailureIncludesDetailsInstanceE(%rip), %rdx
 13282      000000
 13283 4b85 4889C6   		movq	%rax, %rsi
 13284 4b88 488D3D00 		leaq	_ZN12_GLOBAL__N_137adderCheckCloseFailureIncludesDetailsE(%rip), %rdi
 13284      000000
 13285 4b8f E8000000 		call	_ZN8UnitTest9ListAdderC1ERNS_8TestListEPNS_4TestE@PLT
 13285      00
 184:TestChecks.cpp **** {
 13286              		.loc 5 184 0
 13287 4b94 488D3D00 		leaq	_ZN12_GLOBAL__N_131testCheckArrayEqualTrueInstanceE(%rip), %rdi
 13287      000000
 13288 4b9b E800D8FF 		call	_ZN12_GLOBAL__N_123TestCheckArrayEqualTrueC1Ev
 13288      FF
 13289 4ba0 488D1500 		leaq	__dso_handle(%rip), %rdx
 13289      000000
 13290 4ba7 488D3500 		leaq	_ZN12_GLOBAL__N_131testCheckArrayEqualTrueInstanceE(%rip), %rsi
 13290      000000
 13291 4bae 488D3D65 		leaq	_ZN12_GLOBAL__N_123TestCheckArrayEqualTrueD1Ev(%rip), %rdi
 13291      F3FFFF
 13292 4bb5 E8000000 		call	__cxa_atexit@PLT
 13292      00
 13293 4bba E8000000 		call	_ZN8UnitTest4Test11GetTestListEv@PLT
 13293      00
 13294 4bbf 488D1500 		leaq	_ZN12_GLOBAL__N_131testCheckArrayEqualTrueInstanceE(%rip), %rdx
 13294      000000
 13295 4bc6 4889C6   		movq	%rax, %rsi
 13296 4bc9 488D3D00 		leaq	_ZN12_GLOBAL__N_124adderCheckArrayEqualTrueE(%rip), %rdi
 13296      000000
 13297 4bd0 E8000000 		call	_ZN8UnitTest9ListAdderC1ERNS_8TestListEPNS_4TestE@PLT
 13297      00
 193:TestChecks.cpp **** {
 13298              		.loc 5 193 0
 13299 4bd5 488D3D00 		leaq	_ZN12_GLOBAL__N_132testCheckArrayEqualFalseInstanceE(%rip), %rdi
 13299      000000
 13300 4bdc E867D9FF 		call	_ZN12_GLOBAL__N_124TestCheckArrayEqualFalseC1Ev
 13300      FF
 13301 4be1 488D1500 		leaq	__dso_handle(%rip), %rdx
 13301      000000
 13302 4be8 488D3500 		leaq	_ZN12_GLOBAL__N_132testCheckArrayEqualFalseInstanceE(%rip), %rsi
 13302      000000
 13303 4bef 488D3DB2 		leaq	_ZN12_GLOBAL__N_124TestCheckArrayEqualFalseD1Ev(%rip), %rdi
 13303      F2FFFF
 13304 4bf6 E8000000 		call	__cxa_atexit@PLT
 13304      00
 13305 4bfb E8000000 		call	_ZN8UnitTest4Test11GetTestListEv@PLT
 13305      00
 13306 4c00 488D1500 		leaq	_ZN12_GLOBAL__N_132testCheckArrayEqualFalseInstanceE(%rip), %rdx
 13306      000000
 13307 4c07 4889C6   		movq	%rax, %rsi
 13308 4c0a 488D3D00 		leaq	_ZN12_GLOBAL__N_125adderCheckArrayEqualFalseE(%rip), %rdi
 13308      000000
 13309 4c11 E8000000 		call	_ZN8UnitTest9ListAdderC1ERNS_8TestListEPNS_4TestE@PLT
 13309      00
 203:TestChecks.cpp **** {
 13310              		.loc 5 203 0
 13311 4c16 488D3D00 		leaq	_ZN12_GLOBAL__N_131testCheckArrayCloseTrueInstanceE(%rip), %rdi
 13311      000000
 13312 4c1d E8E2DAFF 		call	_ZN12_GLOBAL__N_123TestCheckArrayCloseTrueC1Ev
 13312      FF
 13313 4c22 488D1500 		leaq	__dso_handle(%rip), %rdx
 13313      000000
 13314 4c29 488D3500 		leaq	_ZN12_GLOBAL__N_131testCheckArrayCloseTrueInstanceE(%rip), %rsi
 13314      000000
 13315 4c30 488D3DFF 		leaq	_ZN12_GLOBAL__N_123TestCheckArrayCloseTrueD1Ev(%rip), %rdi
 13315      F1FFFF
 13316 4c37 E8000000 		call	__cxa_atexit@PLT
 13316      00
 13317 4c3c E8000000 		call	_ZN8UnitTest4Test11GetTestListEv@PLT
 13317      00
 13318 4c41 488D1500 		leaq	_ZN12_GLOBAL__N_131testCheckArrayCloseTrueInstanceE(%rip), %rdx
 13318      000000
 13319 4c48 4889C6   		movq	%rax, %rsi
 13320 4c4b 488D3D00 		leaq	_ZN12_GLOBAL__N_124adderCheckArrayCloseTrueE(%rip), %rdi
 13320      000000
 13321 4c52 E8000000 		call	_ZN8UnitTest9ListAdderC1ERNS_8TestListEPNS_4TestE@PLT
 13321      00
 213:TestChecks.cpp **** {
 13322              		.loc 5 213 0
 13323 4c57 488D3D00 		leaq	_ZN12_GLOBAL__N_132testCheckArrayCloseFalseInstanceE(%rip), %rdi
 13323      000000
 13324 4c5e E895DCFF 		call	_ZN12_GLOBAL__N_124TestCheckArrayCloseFalseC1Ev
 13324      FF
 13325 4c63 488D1500 		leaq	__dso_handle(%rip), %rdx
 13325      000000
 13326 4c6a 488D3500 		leaq	_ZN12_GLOBAL__N_132testCheckArrayCloseFalseInstanceE(%rip), %rsi
 13326      000000
 13327 4c71 488D3D4C 		leaq	_ZN12_GLOBAL__N_124TestCheckArrayCloseFalseD1Ev(%rip), %rdi
 13327      F1FFFF
 13328 4c78 E8000000 		call	__cxa_atexit@PLT
 13328      00
 13329 4c7d E8000000 		call	_ZN8UnitTest4Test11GetTestListEv@PLT
 13329      00
 13330 4c82 488D1500 		leaq	_ZN12_GLOBAL__N_132testCheckArrayCloseFalseInstanceE(%rip), %rdx
 13330      000000
 13331 4c89 4889C6   		movq	%rax, %rsi
 13332 4c8c 488D3D00 		leaq	_ZN12_GLOBAL__N_125adderCheckArrayCloseFalseE(%rip), %rdi
 13332      000000
 13333 4c93 E8000000 		call	_ZN8UnitTest9ListAdderC1ERNS_8TestListEPNS_4TestE@PLT
 13333      00
 223:TestChecks.cpp **** {
 13334              		.loc 5 223 0
 13335 4c98 488D3D00 		leaq	_ZN12_GLOBAL__N_149testCheckArrayCloseFailureIncludesDetailsInstanceE(%rip), %rdi
 13335      000000
 13336 4c9f E848DEFF 		call	_ZN12_GLOBAL__N_141TestCheckArrayCloseFailureIncludesDetailsC1Ev
 13336      FF
 13337 4ca4 488D1500 		leaq	__dso_handle(%rip), %rdx
 13337      000000
 13338 4cab 488D3500 		leaq	_ZN12_GLOBAL__N_149testCheckArrayCloseFailureIncludesDetailsInstanceE(%rip), %rsi
 13338      000000
 13339 4cb2 488D3D99 		leaq	_ZN12_GLOBAL__N_141TestCheckArrayCloseFailureIncludesDetailsD1Ev(%rip), %rdi
 13339      F0FFFF
 13340 4cb9 E8000000 		call	__cxa_atexit@PLT
 13340      00
 13341 4cbe E8000000 		call	_ZN8UnitTest4Test11GetTestListEv@PLT
 13341      00
 13342 4cc3 488D1500 		leaq	_ZN12_GLOBAL__N_149testCheckArrayCloseFailureIncludesDetailsInstanceE(%rip), %rdx
 13342      000000
 13343 4cca 4889C6   		movq	%rax, %rsi
 13344 4ccd 488D3D00 		leaq	_ZN12_GLOBAL__N_142adderCheckArrayCloseFailureIncludesDetailsE(%rip), %rdi
 13344      000000
 13345 4cd4 E8000000 		call	_ZN8UnitTest9ListAdderC1ERNS_8TestListEPNS_4TestE@PLT
 13345      00
 240:TestChecks.cpp **** {
 13346              		.loc 5 240 0
 13347 4cd9 488D3D00 		leaq	_ZN12_GLOBAL__N_133testCheckArray2DCloseTrueInstanceE(%rip), %rdi
 13347      000000
 13348 4ce0 E887E2FF 		call	_ZN12_GLOBAL__N_125TestCheckArray2DCloseTrueC1Ev
 13348      FF
 13349 4ce5 488D1500 		leaq	__dso_handle(%rip), %rdx
 13349      000000
 13350 4cec 488D3500 		leaq	_ZN12_GLOBAL__N_133testCheckArray2DCloseTrueInstanceE(%rip), %rsi
 13350      000000
 13351 4cf3 488D3DE6 		leaq	_ZN12_GLOBAL__N_125TestCheckArray2DCloseTrueD1Ev(%rip), %rdi
 13351      EFFFFF
 13352 4cfa E8000000 		call	__cxa_atexit@PLT
 13352      00
 13353 4cff E8000000 		call	_ZN8UnitTest4Test11GetTestListEv@PLT
 13353      00
 13354 4d04 488D1500 		leaq	_ZN12_GLOBAL__N_133testCheckArray2DCloseTrueInstanceE(%rip), %rdx
 13354      000000
 13355 4d0b 4889C6   		movq	%rax, %rsi
 13356 4d0e 488D3D00 		leaq	_ZN12_GLOBAL__N_126adderCheckArray2DCloseTrueE(%rip), %rdi
 13356      000000
 13357 4d15 E8000000 		call	_ZN8UnitTest9ListAdderC1ERNS_8TestListEPNS_4TestE@PLT
 13357      00
 254:TestChecks.cpp **** {
 13358              		.loc 5 254 0
 13359 4d1a 488D3D00 		leaq	_ZN12_GLOBAL__N_134testCheckArray2DCloseFalseInstanceE(%rip), %rdi
 13359      000000
 13360 4d21 E80CE5FF 		call	_ZN12_GLOBAL__N_126TestCheckArray2DCloseFalseC1Ev
 13360      FF
 13361 4d26 488D1500 		leaq	__dso_handle(%rip), %rdx
 13361      000000
 13362 4d2d 488D3500 		leaq	_ZN12_GLOBAL__N_134testCheckArray2DCloseFalseInstanceE(%rip), %rsi
 13362      000000
 13363 4d34 488D3D33 		leaq	_ZN12_GLOBAL__N_126TestCheckArray2DCloseFalseD1Ev(%rip), %rdi
 13363      EFFFFF
 13364 4d3b E8000000 		call	__cxa_atexit@PLT
 13364      00
 13365 4d40 E8000000 		call	_ZN8UnitTest4Test11GetTestListEv@PLT
 13365      00
 13366 4d45 488D1500 		leaq	_ZN12_GLOBAL__N_134testCheckArray2DCloseFalseInstanceE(%rip), %rdx
 13366      000000
 13367 4d4c 4889C6   		movq	%rax, %rsi
 13368 4d4f 488D3D00 		leaq	_ZN12_GLOBAL__N_127adderCheckArray2DCloseFalseE(%rip), %rdi
 13368      000000
 13369 4d56 E8000000 		call	_ZN8UnitTest9ListAdderC1ERNS_8TestListEPNS_4TestE@PLT
 13369      00
 268:TestChecks.cpp **** {
 13370              		.loc 5 268 0
 13371 4d5b 488D3D00 		leaq	_ZN12_GLOBAL__N_141testCheckCloseWithDoublesSucceedsInstanceE(%rip), %rdi
 13371      000000
 13372 4d62 E891E7FF 		call	_ZN12_GLOBAL__N_133TestCheckCloseWithDoublesSucceedsC1Ev
 13372      FF
 13373 4d67 488D1500 		leaq	__dso_handle(%rip), %rdx
 13373      000000
 13374 4d6e 488D3500 		leaq	_ZN12_GLOBAL__N_141testCheckCloseWithDoublesSucceedsInstanceE(%rip), %rsi
 13374      000000
 13375 4d75 488D3D80 		leaq	_ZN12_GLOBAL__N_133TestCheckCloseWithDoublesSucceedsD1Ev(%rip), %rdi
 13375      EEFFFF
 13376 4d7c E8000000 		call	__cxa_atexit@PLT
 13376      00
 13377 4d81 E8000000 		call	_ZN8UnitTest4Test11GetTestListEv@PLT
 13377      00
 13378 4d86 488D1500 		leaq	_ZN12_GLOBAL__N_141testCheckCloseWithDoublesSucceedsInstanceE(%rip), %rdx
 13378      000000
 13379 4d8d 4889C6   		movq	%rax, %rsi
 13380 4d90 488D3D00 		leaq	_ZN12_GLOBAL__N_134adderCheckCloseWithDoublesSucceedsE(%rip), %rdi
 13380      000000
 13381 4d97 E8000000 		call	_ZN8UnitTest9ListAdderC1ERNS_8TestListEPNS_4TestE@PLT
 13381      00
 273:TestChecks.cpp **** {
 13382              		.loc 5 273 0
 13383 4d9c 488D3D00 		leaq	_ZN12_GLOBAL__N_151testCheckArray2DCloseFailureIncludesDetailsInstanceE(%rip), %rdi
 13383      000000
 13384 4da3 E89AE8FF 		call	_ZN12_GLOBAL__N_143TestCheckArray2DCloseFailureIncludesDetailsC1Ev
 13384      FF
 13385 4da8 488D1500 		leaq	__dso_handle(%rip), %rdx
 13385      000000
 13386 4daf 488D3500 		leaq	_ZN12_GLOBAL__N_151testCheckArray2DCloseFailureIncludesDetailsInstanceE(%rip), %rsi
 13386      000000
 13387 4db6 488D3DCD 		leaq	_ZN12_GLOBAL__N_143TestCheckArray2DCloseFailureIncludesDetailsD1Ev(%rip), %rdi
 13387      EDFFFF
 13388 4dbd E8000000 		call	__cxa_atexit@PLT
 13388      00
 13389 4dc2 E8000000 		call	_ZN8UnitTest4Test11GetTestListEv@PLT
 13389      00
 13390 4dc7 488D1500 		leaq	_ZN12_GLOBAL__N_151testCheckArray2DCloseFailureIncludesDetailsInstanceE(%rip), %rdx
 13390      000000
 13391 4dce 4889C6   		movq	%rax, %rsi
 13392 4dd1 488D3D00 		leaq	_ZN12_GLOBAL__N_144adderCheckArray2DCloseFailureIncludesDetailsE(%rip), %rdi
 13392      000000
 13393 4dd8 E8000000 		call	_ZN8UnitTest9ListAdderC1ERNS_8TestListEPNS_4TestE@PLT
 13393      00
 13394              	.L618:
 13395              		.loc 5 293 0
 13396 4ddd 90       		nop
 13397 4dde C9       		leave
 13398              		.cfi_def_cfa 7, 8
 13399 4ddf C3       		ret
 13400              		.cfi_endproc
 13401              	.LFE1411:
 13404              	_GLOBAL__sub_I_TestChecks.cpp:
 13405              	.LFB1412:
 13406              		.loc 5 293 0
 13407              		.cfi_startproc
 13408 4de0 55       		pushq	%rbp
 13409              		.cfi_def_cfa_offset 16
 13410              		.cfi_offset 6, -16
 13411 4de1 4889E5   		movq	%rsp, %rbp
 13412              		.cfi_def_cfa_register 6
 13413              		.loc 5 293 0
 13414 4de4 BEFFFF00 		movl	$65535, %esi
 13414      00
 13415 4de9 BF010000 		movl	$1, %edi
 13415      00
 13416 4dee E82BF9FF 		call	_Z41__static_initialization_and_destruction_0ii
 13416      FF
 13417 4df3 5D       		popq	%rbp
 13418              		.cfi_def_cfa 7, 8
 13419 4df4 C3       		ret
 13420              		.cfi_endproc
 13421              	.LFE1412:
 13423              		.section	.init_array,"aw"
 13424              		.align 8
 13425 0000 00000000 		.quad	_GLOBAL__sub_I_TestChecks.cpp
 13425      00000000 
 13426              		.section	.rodata
 13427 1392 0000     		.align 4
 13428              	.LC31:
 13429 1394 CDCCCC3D 		.long	1036831949
 13430              		.align 4
 13431              	.LC32:
 13432 1398 00004040 		.long	1077936128
 13433              		.align 4
 13434              	.LC33:
 13435 139c 62104040 		.long	1077940322
 13436              		.align 4
 13437              	.LC35:
 13438 13a0 14AE4740 		.long	1078439444
 13439              		.align 4
 13440              	.LC40:
 13441 13a4 6666663F 		.long	1063675494
 13442              		.align 4
 13443              	.LC41:
 13444 13a8 CDCC8C3F 		.long	1066192077
 13445              		.align 4
 13446              	.LC42:
 13447 13ac 0AD7233C 		.long	1008981770
 13448              		.align 4
 13449              	.LC60:
 13450 13b0 0000803F 		.long	1065353216
 13451              		.align 4
 13452              	.LC61:
 13453 13b4 0000C03F 		.long	1069547520
 13454              		.align 4
 13455              	.LC62:
 13456 13b8 00000040 		.long	1073741824
 13457              		.align 4
 13458              	.LC63:
 13459 13bc AE47813F 		.long	1065437102
 13460              		.align 4
 13461              	.LC64:
 13462 13c0 AE47C13F 		.long	1069631406
 13463              		.align 4
 13464              	.LC65:
 13465 13c4 D7A30040 		.long	1073783767
 13466              		.align 4
 13467              	.LC66:
 13468 13c8 0AD7A33C 		.long	1017370378
 13469              		.align 4
 13470              	.LC68:
 13471 13cc 6F12833A 		.long	981668463
 13472              		.align 4
 13473              	.LC78:
 13474 13d0 00002040 		.long	1075838976
 13475              		.align 4
 13476              	.LC79:
 13477 13d4 00006040 		.long	1080033280
 13478              		.align 4
 13479              	.LC80:
 13480 13d8 00008040 		.long	1082130432
 13481              		.align 4
 13482              	.LC81:
 13483 13dc D7A32040 		.long	1075880919
 13484              		.align 4
 13485              	.LC82:
 13486 13e0 D7A34040 		.long	1077978071
 13487              		.align 4
 13488              	.LC83:
 13489 13e4 D7A36040 		.long	1080075223
 13490              		.align 4
 13491              	.LC84:
 13492 13e8 EC518040 		.long	1082151404
 13493 13ec 00000000 		.align 8
 13494              	.LC87:
 13495 13f0 2D431CEB 		.long	3944497965
 13496 13f4 E2361A3F 		.long	1058682594
 13497              		.align 8
 13498              	.LC88:
 13499 13f8 00000000 		.long	0
 13500 13fc 0000E03F 		.long	1071644672
 13501              		.text
 13502              	.Letext0:
 13503              		.file 7 "../TestDetails.h"
 13504              		.file 8 "../TestList.h"
 13505              		.file 9 "../TestResults.h"
 13506              		.file 10 "/usr/include/x86_64-linux-gnu/c++/7/bits/c++config.h"
 13507              		.file 11 "/usr/include/c++/7/bits/basic_string.h"
 13508              		.file 12 "/usr/include/c++/7/bits/basic_string.tcc"
 13509              		.file 13 "/usr/include/c++/7/bits/stringfwd.h"
 13510              		.file 14 "/usr/include/c++/7/cwchar"
 13511              		.file 15 "/usr/include/c++/7/bits/char_traits.h"
 13512              		.file 16 "/usr/include/c++/7/clocale"
 13513              		.file 17 "/usr/include/c++/7/bits/allocator.h"
 13514              		.file 18 "/usr/include/c++/7/cwctype"
 13515              		.file 19 "/usr/include/c++/7/cstring"
 13516              		.file 20 "/usr/include/c++/7/debug/debug.h"
 13517              		.file 21 "/usr/include/c++/7/bits/predefined_ops.h"
 13518              		.file 22 "/usr/include/c++/7/ext/new_allocator.h"
 13519              		.file 23 "/usr/include/c++/7/ext/numeric_traits.h"
 13520              		.file 24 "/usr/include/c++/7/ext/alloc_traits.h"
 13521              		.file 25 "/usr/lib/gcc/x86_64-linux-gnu/7/include/stddef.h"
 13522              		.file 26 "<built-in>"
 13523              		.file 27 "/usr/include/x86_64-linux-gnu/bits/types/wint_t.h"
 13524              		.file 28 "/usr/include/x86_64-linux-gnu/bits/types/__mbstate_t.h"
 13525              		.file 29 "/usr/include/x86_64-linux-gnu/bits/types/mbstate_t.h"
 13526              		.file 30 "/usr/include/x86_64-linux-gnu/bits/types/__FILE.h"
 13527              		.file 31 "/usr/include/wchar.h"
 13528              		.file 32 "/usr/include/x86_64-linux-gnu/bits/types/struct_tm.h"
 13529              		.file 33 "/usr/include/locale.h"
 13530              		.file 34 "/usr/include/x86_64-linux-gnu/bits/types.h"
 13531              		.file 35 "/usr/include/time.h"
 13532              		.file 36 "/usr/include/x86_64-linux-gnu/bits/wctype-wchar.h"
 13533              		.file 37 "/usr/include/wctype.h"
 13534              		.file 38 "/usr/include/signal.h"
 13535              		.file 39 "/usr/include/x86_64-linux-gnu/sys/time.h"
 13536              		.file 40 "/usr/include/string.h"
 13537              		.file 41 "/usr/include/c++/7/new"
 30575              		.align 8
 30578              	DW.ref.__gxx_personality_v0:
 30579 0000 00000000 		.quad	__gxx_personality_v0
 30579      00000000 
 30580              		.hidden	__dso_handle
 30581              		.ident	"GCC: (Ubuntu 7.2.0-8ubuntu3.2) 7.2.0"
 30582              		.section	.note.GNU-stack,"",@progbits
DEFINED SYMBOLS
                            *ABS*:0000000000000000 TestChecks.cpp
     /tmp/ccvx4a18.s:10     .text._ZN13UnitTestSuite12GetSuiteNameEv:0000000000000000 _ZN13UnitTestSuite12GetSuiteNameEv
     /tmp/ccvx4a18.s:33     .text._ZN8UnitTest15MemoryOutStreamC1Ev:0000000000000000 _ZN8UnitTest15MemoryOutStreamC1Ev
     /tmp/ccvx4a18.s:30578  .data.DW.ref.__gxx_personality_v0:0000000000000000 DW.ref.__gxx_personality_v0
     /tmp/ccvx4a18.s:12625  .data.rel.ro.local._ZTTN8UnitTest15MemoryOutStreamE:0000000000000000 _ZTTN8UnitTest15MemoryOutStreamE
     /tmp/ccvx4a18.s:12609  .data.rel.ro.local._ZTVN8UnitTest15MemoryOutStreamE:0000000000000000 _ZTVN8UnitTest15MemoryOutStreamE
     /tmp/ccvx4a18.s:145    .text._ZN8UnitTest12TestReporterC2Ev:0000000000000000 _ZN8UnitTest12TestReporterC2Ev
     /tmp/ccvx4a18.s:145    .text._ZN8UnitTest12TestReporterC2Ev:0000000000000000 _ZN8UnitTest12TestReporterC1Ev
     /tmp/ccvx4a18.s:175    .text._ZN17RecordingReporterC2Ev:0000000000000000 _ZN17RecordingReporterC2Ev
     /tmp/ccvx4a18.s:12495  .data.rel.ro.local._ZTV17RecordingReporter:0000000000000000 _ZTV17RecordingReporter
     /tmp/ccvx4a18.s:175    .text._ZN17RecordingReporterC2Ev:0000000000000000 _ZN17RecordingReporterC1Ev
     /tmp/ccvx4a18.s:254    .text._ZN17RecordingReporter15ReportTestStartERKN8UnitTest11TestDetailsE:0000000000000000 _ZN17RecordingReporter15ReportTestStartERKN8UnitTest11TestDetailsE
     /tmp/ccvx4a18.s:300    .text._ZN17RecordingReporter13ReportFailureERKN8UnitTest11TestDetailsEPKc:0000000000000000 _ZN17RecordingReporter13ReportFailureERKN8UnitTest11TestDetailsEPKc
     /tmp/ccvx4a18.s:367    .text._ZN17RecordingReporter16ReportTestFinishERKN8UnitTest11TestDetailsEf:0000000000000000 _ZN17RecordingReporter16ReportTestFinishERKN8UnitTest11TestDetailsEf
     /tmp/ccvx4a18.s:418    .text._ZN17RecordingReporter13ReportSummaryEiiif:0000000000000000 _ZN17RecordingReporter13ReportSummaryEiiif
     /tmp/ccvx4a18.s:464    .text:0000000000000000 _ZN12_GLOBAL__N_130TestCheckEqualWithUnsignedLongC2Ev
     /tmp/ccvx4a18.s:12388  .data.rel.ro.local:00000000000003e8 _ZTVN12_GLOBAL__N_130TestCheckEqualWithUnsignedLongE
     /tmp/ccvx4a18.s:464    .text:0000000000000000 _ZN12_GLOBAL__N_130TestCheckEqualWithUnsignedLongC1Ev
     /tmp/ccvx4a18.s:503    .bss:0000000000000000 _ZN12_GLOBAL__N_138testCheckEqualWithUnsignedLongInstanceE
     /tmp/ccvx4a18.s:503    .bss:0000000000000038 _ZN12_GLOBAL__N_131adderCheckEqualWithUnsignedLongE
     /tmp/ccvx4a18.s:513    .text:000000000000004c _ZNK12_GLOBAL__N_130TestCheckEqualWithUnsignedLong7RunImplEv
     /tmp/ccvx4a18.s:7796   .text._ZN8UnitTest10CheckEqualImmEEvRNS_11TestResultsERKT_RKT0_RKNS_11TestDetailsE:0000000000000000 _ZN8UnitTest10CheckEqualImmEEvRNS_11TestResultsERKT_RKT0_RKNS_11TestDetailsE
     /tmp/ccvx4a18.s:658    .text:0000000000000132 _ZN12_GLOBAL__N_149TestCheckEqualsWithStringsFailsOnDifferentStringsC2Ev
     /tmp/ccvx4a18.s:12282  .data.rel.ro.local:00000000000003c0 _ZTVN12_GLOBAL__N_149TestCheckEqualsWithStringsFailsOnDifferentStringsE
     /tmp/ccvx4a18.s:658    .text:0000000000000132 _ZN12_GLOBAL__N_149TestCheckEqualsWithStringsFailsOnDifferentStringsC1Ev
     /tmp/ccvx4a18.s:696    .bss:0000000000000040 _ZN12_GLOBAL__N_157testCheckEqualsWithStringsFailsOnDifferentStringsInstanceE
     /tmp/ccvx4a18.s:696    .bss:0000000000000078 _ZN12_GLOBAL__N_150adderCheckEqualsWithStringsFailsOnDifferentStringsE
     /tmp/ccvx4a18.s:708    .text:000000000000017e _ZNK12_GLOBAL__N_149TestCheckEqualsWithStringsFailsOnDifferentStrings7RunImplEv
     /tmp/ccvx4a18.s:7937   .text._ZN8UnitTest10CheckEqualIiiEEvRNS_11TestResultsERKT_RKT0_RKNS_11TestDetailsE:0000000000000000 _ZN8UnitTest10CheckEqualIiiEEvRNS_11TestResultsERKT_RKT0_RKNS_11TestDetailsE
     /tmp/ccvx4a18.s:884    .data:0000000000000000 _ZN12_GLOBAL__N_14txt1E
     /tmp/ccvx4a18.s:888    .data:0000000000000006 _ZN12_GLOBAL__N_14txt2E
     /tmp/ccvx4a18.s:897    .text:00000000000002d6 _ZN12_GLOBAL__N_157TestCheckEqualsWithStringsWorksOnContentsNonConstNonConstC2Ev
     /tmp/ccvx4a18.s:12176  .data.rel.ro.local:0000000000000398 _ZTVN12_GLOBAL__N_157TestCheckEqualsWithStringsWorksOnContentsNonConstNonConstE
     /tmp/ccvx4a18.s:897    .text:00000000000002d6 _ZN12_GLOBAL__N_157TestCheckEqualsWithStringsWorksOnContentsNonConstNonConstC1Ev
     /tmp/ccvx4a18.s:935    .bss:0000000000000080 _ZN12_GLOBAL__N_165testCheckEqualsWithStringsWorksOnContentsNonConstNonConstInstanceE
     /tmp/ccvx4a18.s:935    .bss:00000000000000b8 _ZN12_GLOBAL__N_158adderCheckEqualsWithStringsWorksOnContentsNonConstNonConstE
     /tmp/ccvx4a18.s:945    .text:0000000000000322 _ZNK12_GLOBAL__N_157TestCheckEqualsWithStringsWorksOnContentsNonConstNonConst7RunImplEv
     /tmp/ccvx4a18.s:1126   .text:0000000000000480 _ZN12_GLOBAL__N_151TestCheckEqualsWithStringsWorksOnContentsConstConstC2Ev
     /tmp/ccvx4a18.s:12070  .data.rel.ro.local:0000000000000370 _ZTVN12_GLOBAL__N_151TestCheckEqualsWithStringsWorksOnContentsConstConstE
     /tmp/ccvx4a18.s:1126   .text:0000000000000480 _ZN12_GLOBAL__N_151TestCheckEqualsWithStringsWorksOnContentsConstConstC1Ev
     /tmp/ccvx4a18.s:1164   .bss:00000000000000c0 _ZN12_GLOBAL__N_159testCheckEqualsWithStringsWorksOnContentsConstConstInstanceE
     /tmp/ccvx4a18.s:1164   .bss:00000000000000f8 _ZN12_GLOBAL__N_152adderCheckEqualsWithStringsWorksOnContentsConstConstE
     /tmp/ccvx4a18.s:1169   .text:00000000000004cc _ZNK12_GLOBAL__N_151TestCheckEqualsWithStringsWorksOnContentsConstConst7RunImplEv
     /tmp/ccvx4a18.s:1350   .text:000000000000062a _ZN12_GLOBAL__N_154TestCheckEqualsWithStringsWorksOnContentsNonConstConstC2Ev
     /tmp/ccvx4a18.s:11964  .data.rel.ro.local:0000000000000348 _ZTVN12_GLOBAL__N_154TestCheckEqualsWithStringsWorksOnContentsNonConstConstE
     /tmp/ccvx4a18.s:1350   .text:000000000000062a _ZN12_GLOBAL__N_154TestCheckEqualsWithStringsWorksOnContentsNonConstConstC1Ev
     /tmp/ccvx4a18.s:1388   .bss:0000000000000100 _ZN12_GLOBAL__N_162testCheckEqualsWithStringsWorksOnContentsNonConstConstInstanceE
     /tmp/ccvx4a18.s:1388   .bss:0000000000000138 _ZN12_GLOBAL__N_155adderCheckEqualsWithStringsWorksOnContentsNonConstConstE
     /tmp/ccvx4a18.s:1393   .text:0000000000000676 _ZNK12_GLOBAL__N_154TestCheckEqualsWithStringsWorksOnContentsNonConstConst7RunImplEv
     /tmp/ccvx4a18.s:1574   .text:00000000000007d4 _ZN12_GLOBAL__N_154TestCheckEqualsWithStringsWorksOnContentsConstNonConstC2Ev
     /tmp/ccvx4a18.s:11858  .data.rel.ro.local:0000000000000320 _ZTVN12_GLOBAL__N_154TestCheckEqualsWithStringsWorksOnContentsConstNonConstE
     /tmp/ccvx4a18.s:1574   .text:00000000000007d4 _ZN12_GLOBAL__N_154TestCheckEqualsWithStringsWorksOnContentsConstNonConstC1Ev
     /tmp/ccvx4a18.s:1612   .bss:0000000000000140 _ZN12_GLOBAL__N_162testCheckEqualsWithStringsWorksOnContentsConstNonConstInstanceE
     /tmp/ccvx4a18.s:1612   .bss:0000000000000178 _ZN12_GLOBAL__N_155adderCheckEqualsWithStringsWorksOnContentsConstNonConstE
     /tmp/ccvx4a18.s:1617   .text:0000000000000820 _ZNK12_GLOBAL__N_154TestCheckEqualsWithStringsWorksOnContentsConstNonConst7RunImplEv
     /tmp/ccvx4a18.s:1798   .text:000000000000097e _ZN12_GLOBAL__N_153TestCheckEqualsWithStringsWorksOnContentsWithALiteralC2Ev
     /tmp/ccvx4a18.s:11752  .data.rel.ro.local:00000000000002f8 _ZTVN12_GLOBAL__N_153TestCheckEqualsWithStringsWorksOnContentsWithALiteralE
     /tmp/ccvx4a18.s:1798   .text:000000000000097e _ZN12_GLOBAL__N_153TestCheckEqualsWithStringsWorksOnContentsWithALiteralC1Ev
     /tmp/ccvx4a18.s:1836   .bss:0000000000000180 _ZN12_GLOBAL__N_161testCheckEqualsWithStringsWorksOnContentsWithALiteralInstanceE
     /tmp/ccvx4a18.s:1836   .bss:00000000000001b8 _ZN12_GLOBAL__N_154adderCheckEqualsWithStringsWorksOnContentsWithALiteralE
     /tmp/ccvx4a18.s:1845   .text:00000000000009ca _ZNK12_GLOBAL__N_153TestCheckEqualsWithStringsWorksOnContentsWithALiteral7RunImplEv
     /tmp/ccvx4a18.s:2023   .text:0000000000000b14 _ZN12_GLOBAL__N_151TestCheckEqualFailureIncludesCheckExpectedAndActualC2Ev
     /tmp/ccvx4a18.s:11646  .data.rel.ro.local:00000000000002d0 _ZTVN12_GLOBAL__N_151TestCheckEqualFailureIncludesCheckExpectedAndActualE
     /tmp/ccvx4a18.s:2023   .text:0000000000000b14 _ZN12_GLOBAL__N_151TestCheckEqualFailureIncludesCheckExpectedAndActualC1Ev
     /tmp/ccvx4a18.s:2061   .bss:00000000000001c0 _ZN12_GLOBAL__N_159testCheckEqualFailureIncludesCheckExpectedAndActualInstanceE
     /tmp/ccvx4a18.s:2061   .bss:00000000000001f8 _ZN12_GLOBAL__N_152adderCheckEqualFailureIncludesCheckExpectedAndActualE
     /tmp/ccvx4a18.s:2084   .text:0000000000000b60 _ZNK12_GLOBAL__N_151TestCheckEqualFailureIncludesCheckExpectedAndActual7RunImplEv
     /tmp/ccvx4a18.s:8077   .text._ZN8UnitTest5CheckIPcEEbT_:0000000000000000 _ZN8UnitTest5CheckIPcEEbT_
     /tmp/ccvx4a18.s:12508  .text._ZN17RecordingReporterD2Ev:0000000000000000 _ZN17RecordingReporterD1Ev
     /tmp/ccvx4a18.s:2356   .text:0000000000000dee _ZN12_GLOBAL__N_136TestCheckEqualFailureIncludesDetailsC2Ev
     /tmp/ccvx4a18.s:11540  .data.rel.ro.local:00000000000002a8 _ZTVN12_GLOBAL__N_136TestCheckEqualFailureIncludesDetailsE
     /tmp/ccvx4a18.s:2356   .text:0000000000000dee _ZN12_GLOBAL__N_136TestCheckEqualFailureIncludesDetailsC1Ev
     /tmp/ccvx4a18.s:2394   .bss:0000000000000200 _ZN12_GLOBAL__N_144testCheckEqualFailureIncludesDetailsInstanceE
     /tmp/ccvx4a18.s:2394   .bss:0000000000000238 _ZN12_GLOBAL__N_137adderCheckEqualFailureIncludesDetailsE
     /tmp/ccvx4a18.s:2419   .text:0000000000000e3a _ZNK12_GLOBAL__N_136TestCheckEqualFailureIncludesDetails7RunImplEv
     /tmp/ccvx4a18.s:2812   .text:0000000000001200 _ZN12_GLOBAL__N_118TestCheckCloseTrueC2Ev
     /tmp/ccvx4a18.s:11434  .data.rel.ro.local:0000000000000280 _ZTVN12_GLOBAL__N_118TestCheckCloseTrueE
     /tmp/ccvx4a18.s:2812   .text:0000000000001200 _ZN12_GLOBAL__N_118TestCheckCloseTrueC1Ev
     /tmp/ccvx4a18.s:2850   .bss:0000000000000240 _ZN12_GLOBAL__N_126testCheckCloseTrueInstanceE
     /tmp/ccvx4a18.s:2850   .bss:0000000000000278 _ZN12_GLOBAL__N_119adderCheckCloseTrueE
     /tmp/ccvx4a18.s:2855   .text:000000000000124c _ZNK12_GLOBAL__N_118TestCheckCloseTrue7RunImplEv
     /tmp/ccvx4a18.s:8103   .text._ZN8UnitTest10CheckCloseIfffEEvRNS_11TestResultsERKT_RKT0_RKT1_RKNS_11TestDetailsE:0000000000000000 _ZN8UnitTest10CheckCloseIfffEEvRNS_11TestResultsERKT_RKT0_RKT1_RKNS_11TestDetailsE
     /tmp/ccvx4a18.s:3036   .text:00000000000013b0 _ZN12_GLOBAL__N_119TestCheckCloseFalseC2Ev
     /tmp/ccvx4a18.s:11328  .data.rel.ro.local:0000000000000258 _ZTVN12_GLOBAL__N_119TestCheckCloseFalseE
     /tmp/ccvx4a18.s:3036   .text:00000000000013b0 _ZN12_GLOBAL__N_119TestCheckCloseFalseC1Ev
     /tmp/ccvx4a18.s:3074   .bss:0000000000000280 _ZN12_GLOBAL__N_127testCheckCloseFalseInstanceE
     /tmp/ccvx4a18.s:3074   .bss:00000000000002b8 _ZN12_GLOBAL__N_120adderCheckCloseFalseE
     /tmp/ccvx4a18.s:3079   .text:00000000000013fc _ZNK12_GLOBAL__N_119TestCheckCloseFalse7RunImplEv
     /tmp/ccvx4a18.s:3261   .text:0000000000001560 _ZN12_GLOBAL__N_147TestCheckCloseWithZeroEpsilonWorksForSameNumberC2Ev
     /tmp/ccvx4a18.s:11222  .data.rel.ro.local:0000000000000230 _ZTVN12_GLOBAL__N_147TestCheckCloseWithZeroEpsilonWorksForSameNumberE
     /tmp/ccvx4a18.s:3261   .text:0000000000001560 _ZN12_GLOBAL__N_147TestCheckCloseWithZeroEpsilonWorksForSameNumberC1Ev
     /tmp/ccvx4a18.s:3299   .bss:00000000000002c0 _ZN12_GLOBAL__N_155testCheckCloseWithZeroEpsilonWorksForSameNumberInstanceE
     /tmp/ccvx4a18.s:3299   .bss:00000000000002f8 _ZN12_GLOBAL__N_148adderCheckCloseWithZeroEpsilonWorksForSameNumberE
     /tmp/ccvx4a18.s:3304   .text:00000000000015ac _ZNK12_GLOBAL__N_147TestCheckCloseWithZeroEpsilonWorksForSameNumber7RunImplEv
     /tmp/ccvx4a18.s:8261   .text._ZN8UnitTest10CheckCloseIffiEEvRNS_11TestResultsERKT_RKT0_RKT1_RKNS_11TestDetailsE:0000000000000000 _ZN8UnitTest10CheckCloseIffiEEvRNS_11TestResultsERKT_RKT0_RKT1_RKNS_11TestDetailsE
     /tmp/ccvx4a18.s:3484   .text:000000000000170a _ZN12_GLOBAL__N_126TestCheckCloseWithNaNFailsC2Ev
     /tmp/ccvx4a18.s:11116  .data.rel.ro.local:0000000000000208 _ZTVN12_GLOBAL__N_126TestCheckCloseWithNaNFailsE
     /tmp/ccvx4a18.s:3484   .text:000000000000170a _ZN12_GLOBAL__N_126TestCheckCloseWithNaNFailsC1Ev
     /tmp/ccvx4a18.s:3522   .bss:0000000000000300 _ZN12_GLOBAL__N_134testCheckCloseWithNaNFailsInstanceE
     /tmp/ccvx4a18.s:3522   .bss:0000000000000338 _ZN12_GLOBAL__N_127adderCheckCloseWithNaNFailsE
     /tmp/ccvx4a18.s:3527   .text:0000000000001756 _ZNK12_GLOBAL__N_126TestCheckCloseWithNaNFails7RunImplEv
     /tmp/ccvx4a18.s:3709   .text:00000000000018b4 _ZN12_GLOBAL__N_139TestCheckCloseWithNaNAgainstItselfFailsC2Ev
     /tmp/ccvx4a18.s:11010  .data.rel.ro.local:00000000000001e0 _ZTVN12_GLOBAL__N_139TestCheckCloseWithNaNAgainstItselfFailsE
     /tmp/ccvx4a18.s:3709   .text:00000000000018b4 _ZN12_GLOBAL__N_139TestCheckCloseWithNaNAgainstItselfFailsC1Ev
     /tmp/ccvx4a18.s:3747   .bss:0000000000000340 _ZN12_GLOBAL__N_147testCheckCloseWithNaNAgainstItselfFailsInstanceE
     /tmp/ccvx4a18.s:3747   .bss:0000000000000378 _ZN12_GLOBAL__N_140adderCheckCloseWithNaNAgainstItselfFailsE
     /tmp/ccvx4a18.s:3752   .text:0000000000001900 _ZNK12_GLOBAL__N_139TestCheckCloseWithNaNAgainstItselfFails7RunImplEv
     /tmp/ccvx4a18.s:3932   .text:0000000000001a50 _ZN12_GLOBAL__N_151TestCheckCloseFailureIncludesCheckExpectedAndActualC2Ev
     /tmp/ccvx4a18.s:10904  .data.rel.ro.local:00000000000001b8 _ZTVN12_GLOBAL__N_151TestCheckCloseFailureIncludesCheckExpectedAndActualE
     /tmp/ccvx4a18.s:3932   .text:0000000000001a50 _ZN12_GLOBAL__N_151TestCheckCloseFailureIncludesCheckExpectedAndActualC1Ev
     /tmp/ccvx4a18.s:3970   .bss:0000000000000380 _ZN12_GLOBAL__N_159testCheckCloseFailureIncludesCheckExpectedAndActualInstanceE
     /tmp/ccvx4a18.s:3970   .bss:00000000000003b8 _ZN12_GLOBAL__N_152adderCheckCloseFailureIncludesCheckExpectedAndActualE
     /tmp/ccvx4a18.s:3993   .text:0000000000001a9c _ZNK12_GLOBAL__N_151TestCheckCloseFailureIncludesCheckExpectedAndActual7RunImplEv
     /tmp/ccvx4a18.s:4272   .text:0000000000001d50 _ZN12_GLOBAL__N_138TestCheckCloseFailureIncludesToleranceC2Ev
     /tmp/ccvx4a18.s:10798  .data.rel.ro.local:0000000000000190 _ZTVN12_GLOBAL__N_138TestCheckCloseFailureIncludesToleranceE
     /tmp/ccvx4a18.s:4272   .text:0000000000001d50 _ZN12_GLOBAL__N_138TestCheckCloseFailureIncludesToleranceC1Ev
     /tmp/ccvx4a18.s:4310   .bss:00000000000003c0 _ZN12_GLOBAL__N_146testCheckCloseFailureIncludesToleranceInstanceE
     /tmp/ccvx4a18.s:4310   .bss:00000000000003f8 _ZN12_GLOBAL__N_139adderCheckCloseFailureIncludesToleranceE
     /tmp/ccvx4a18.s:4325   .text:0000000000001d9c _ZNK12_GLOBAL__N_138TestCheckCloseFailureIncludesTolerance7RunImplEv
     /tmp/ccvx4a18.s:8418   .text._ZN8UnitTest10CheckCloseIiifEEvRNS_11TestResultsERKT_RKT0_RKT1_RKNS_11TestDetailsE:0000000000000000 _ZN8UnitTest10CheckCloseIiifEEvRNS_11TestResultsERKT_RKT0_RKT1_RKNS_11TestDetailsE
     /tmp/ccvx4a18.s:4525   .text:0000000000001f74 _ZN12_GLOBAL__N_136TestCheckCloseFailureIncludesDetailsC2Ev
     /tmp/ccvx4a18.s:10692  .data.rel.ro.local:0000000000000168 _ZTVN12_GLOBAL__N_136TestCheckCloseFailureIncludesDetailsE
     /tmp/ccvx4a18.s:4525   .text:0000000000001f74 _ZN12_GLOBAL__N_136TestCheckCloseFailureIncludesDetailsC1Ev
     /tmp/ccvx4a18.s:4563   .bss:0000000000000400 _ZN12_GLOBAL__N_144testCheckCloseFailureIncludesDetailsInstanceE
     /tmp/ccvx4a18.s:4563   .bss:0000000000000438 _ZN12_GLOBAL__N_137adderCheckCloseFailureIncludesDetailsE
     /tmp/ccvx4a18.s:4578   .text:0000000000001fc0 _ZNK12_GLOBAL__N_136TestCheckCloseFailureIncludesDetails7RunImplEv
     /tmp/ccvx4a18.s:4975   .text:00000000000023a0 _ZN12_GLOBAL__N_123TestCheckArrayEqualTrueC2Ev
     /tmp/ccvx4a18.s:10586  .data.rel.ro.local:0000000000000140 _ZTVN12_GLOBAL__N_123TestCheckArrayEqualTrueE
     /tmp/ccvx4a18.s:4975   .text:00000000000023a0 _ZN12_GLOBAL__N_123TestCheckArrayEqualTrueC1Ev
     /tmp/ccvx4a18.s:5013   .bss:0000000000000440 _ZN12_GLOBAL__N_131testCheckArrayEqualTrueInstanceE
     /tmp/ccvx4a18.s:5013   .bss:0000000000000478 _ZN12_GLOBAL__N_124adderCheckArrayEqualTrueE
     /tmp/ccvx4a18.s:5018   .text:00000000000023ec _ZNK12_GLOBAL__N_123TestCheckArrayEqualTrue7RunImplEv
     /tmp/ccvx4a18.s:8583   .text._ZN8UnitTest15CheckArrayEqualIA3_iS1_EEvRNS_11TestResultsERKT_RKT0_iRKNS_11TestDetailsE:0000000000000000 _ZN8UnitTest15CheckArrayEqualIA3_iS1_EEvRNS_11TestResultsERKT_RKT0_iRKNS_11TestDetailsE
     /tmp/ccvx4a18.s:5197   .text:0000000000002548 _ZN12_GLOBAL__N_124TestCheckArrayEqualFalseC2Ev
     /tmp/ccvx4a18.s:10480  .data.rel.ro.local:0000000000000118 _ZTVN12_GLOBAL__N_124TestCheckArrayEqualFalseE
     /tmp/ccvx4a18.s:5197   .text:0000000000002548 _ZN12_GLOBAL__N_124TestCheckArrayEqualFalseC1Ev
     /tmp/ccvx4a18.s:5235   .bss:0000000000000480 _ZN12_GLOBAL__N_132testCheckArrayEqualFalseInstanceE
     /tmp/ccvx4a18.s:5235   .bss:00000000000004b8 _ZN12_GLOBAL__N_125adderCheckArrayEqualFalseE
     /tmp/ccvx4a18.s:5240   .text:0000000000002594 _ZNK12_GLOBAL__N_124TestCheckArrayEqualFalse7RunImplEv
     /tmp/ccvx4a18.s:5423   .text:0000000000002704 _ZN12_GLOBAL__N_123TestCheckArrayCloseTrueC2Ev
     /tmp/ccvx4a18.s:10374  .data.rel.ro.local:00000000000000f0 _ZTVN12_GLOBAL__N_123TestCheckArrayCloseTrueE
     /tmp/ccvx4a18.s:5423   .text:0000000000002704 _ZN12_GLOBAL__N_123TestCheckArrayCloseTrueC1Ev
     /tmp/ccvx4a18.s:5461   .bss:00000000000004c0 _ZN12_GLOBAL__N_131testCheckArrayCloseTrueInstanceE
     /tmp/ccvx4a18.s:5461   .bss:00000000000004f8 _ZN12_GLOBAL__N_124adderCheckArrayCloseTrueE
     /tmp/ccvx4a18.s:5466   .text:0000000000002750 _ZNK12_GLOBAL__N_123TestCheckArrayCloseTrue7RunImplEv
     /tmp/ccvx4a18.s:8802   .text._ZN8UnitTest15CheckArrayCloseIA3_fS1_fEEvRNS_11TestResultsERKT_RKT0_iRKT1_RKNS_11TestDetailsE:0000000000000000 _ZN8UnitTest15CheckArrayCloseIA3_fS1_fEEvRNS_11TestResultsERKT_RKT0_iRKT1_RKNS_11TestDetailsE
     /tmp/ccvx4a18.s:5659   .text:00000000000028f8 _ZN12_GLOBAL__N_124TestCheckArrayCloseFalseC2Ev
     /tmp/ccvx4a18.s:10268  .data.rel.ro.local:00000000000000c8 _ZTVN12_GLOBAL__N_124TestCheckArrayCloseFalseE
     /tmp/ccvx4a18.s:5659   .text:00000000000028f8 _ZN12_GLOBAL__N_124TestCheckArrayCloseFalseC1Ev
     /tmp/ccvx4a18.s:5697   .bss:0000000000000500 _ZN12_GLOBAL__N_132testCheckArrayCloseFalseInstanceE
     /tmp/ccvx4a18.s:5697   .bss:0000000000000538 _ZN12_GLOBAL__N_125adderCheckArrayCloseFalseE
     /tmp/ccvx4a18.s:5702   .text:0000000000002944 _ZNK12_GLOBAL__N_124TestCheckArrayCloseFalse7RunImplEv
     /tmp/ccvx4a18.s:5896   .text:0000000000002aec _ZN12_GLOBAL__N_141TestCheckArrayCloseFailureIncludesDetailsC2Ev
     /tmp/ccvx4a18.s:10162  .data.rel.ro.local:00000000000000a0 _ZTVN12_GLOBAL__N_141TestCheckArrayCloseFailureIncludesDetailsE
     /tmp/ccvx4a18.s:5896   .text:0000000000002aec _ZN12_GLOBAL__N_141TestCheckArrayCloseFailureIncludesDetailsC1Ev
     /tmp/ccvx4a18.s:5934   .bss:0000000000000540 _ZN12_GLOBAL__N_149testCheckArrayCloseFailureIncludesDetailsInstanceE
     /tmp/ccvx4a18.s:5934   .bss:0000000000000578 _ZN12_GLOBAL__N_142adderCheckArrayCloseFailureIncludesDetailsE
     /tmp/ccvx4a18.s:5959   .text:0000000000002b38 _ZNK12_GLOBAL__N_141TestCheckArrayCloseFailureIncludesDetails7RunImplEv
     /tmp/ccvx4a18.s:6370   .text:0000000000002f6c _ZN12_GLOBAL__N_125TestCheckArray2DCloseTrueC2Ev
     /tmp/ccvx4a18.s:10056  .data.rel.ro.local:0000000000000078 _ZTVN12_GLOBAL__N_125TestCheckArray2DCloseTrueE
     /tmp/ccvx4a18.s:6370   .text:0000000000002f6c _ZN12_GLOBAL__N_125TestCheckArray2DCloseTrueC1Ev
     /tmp/ccvx4a18.s:6408   .bss:0000000000000580 _ZN12_GLOBAL__N_133testCheckArray2DCloseTrueInstanceE
     /tmp/ccvx4a18.s:6408   .bss:00000000000005b8 _ZN12_GLOBAL__N_126adderCheckArray2DCloseTrueE
     /tmp/ccvx4a18.s:6413   .text:0000000000002fb8 _ZNK12_GLOBAL__N_125TestCheckArray2DCloseTrue7RunImplEv
     /tmp/ccvx4a18.s:9011   .text._ZN8UnitTest17CheckArray2DCloseIA3_A3_fS2_fEEvRNS_11TestResultsERKT_RKT0_iiRKT1_RKNS_11TestDetailsE:0000000000000000 _ZN8UnitTest17CheckArray2DCloseIA3_A3_fS2_fEEvRNS_11TestResultsERKT_RKT0_iiRKT1_RKNS_11TestDetailsE
     /tmp/ccvx4a18.s:6632   .text:0000000000003232 _ZN12_GLOBAL__N_126TestCheckArray2DCloseFalseC2Ev
     /tmp/ccvx4a18.s:9950   .data.rel.ro.local:0000000000000050 _ZTVN12_GLOBAL__N_126TestCheckArray2DCloseFalseE
     /tmp/ccvx4a18.s:6632   .text:0000000000003232 _ZN12_GLOBAL__N_126TestCheckArray2DCloseFalseC1Ev
     /tmp/ccvx4a18.s:6670   .bss:00000000000005c0 _ZN12_GLOBAL__N_134testCheckArray2DCloseFalseInstanceE
     /tmp/ccvx4a18.s:6670   .bss:00000000000005f8 _ZN12_GLOBAL__N_127adderCheckArray2DCloseFalseE
     /tmp/ccvx4a18.s:6675   .text:000000000000327e _ZNK12_GLOBAL__N_126TestCheckArray2DCloseFalse7RunImplEv
     /tmp/ccvx4a18.s:6894   .text:00000000000034f8 _ZN12_GLOBAL__N_133TestCheckCloseWithDoublesSucceedsC2Ev
     /tmp/ccvx4a18.s:9844   .data.rel.ro.local:0000000000000028 _ZTVN12_GLOBAL__N_133TestCheckCloseWithDoublesSucceedsE
     /tmp/ccvx4a18.s:6894   .text:00000000000034f8 _ZN12_GLOBAL__N_133TestCheckCloseWithDoublesSucceedsC1Ev
     /tmp/ccvx4a18.s:6932   .bss:0000000000000600 _ZN12_GLOBAL__N_141testCheckCloseWithDoublesSucceedsInstanceE
     /tmp/ccvx4a18.s:6932   .bss:0000000000000638 _ZN12_GLOBAL__N_134adderCheckCloseWithDoublesSucceedsE
     /tmp/ccvx4a18.s:6942   .text:0000000000003544 _ZNK12_GLOBAL__N_133TestCheckCloseWithDoublesSucceeds7RunImplEv
     /tmp/ccvx4a18.s:9314   .text._ZN8UnitTest10CheckCloseIdddEEvRNS_11TestResultsERKT_RKT0_RKT1_RKNS_11TestDetailsE:0000000000000000 _ZN8UnitTest10CheckCloseIdddEEvRNS_11TestResultsERKT_RKT0_RKT1_RKNS_11TestDetailsE
     /tmp/ccvx4a18.s:7093   .text:0000000000003642 _ZN12_GLOBAL__N_143TestCheckArray2DCloseFailureIncludesDetailsC2Ev
     /tmp/ccvx4a18.s:9738   .data.rel.ro.local:0000000000000000 _ZTVN12_GLOBAL__N_143TestCheckArray2DCloseFailureIncludesDetailsE
     /tmp/ccvx4a18.s:7093   .text:0000000000003642 _ZN12_GLOBAL__N_143TestCheckArray2DCloseFailureIncludesDetailsC1Ev
     /tmp/ccvx4a18.s:7131   .bss:0000000000000640 _ZN12_GLOBAL__N_151testCheckArray2DCloseFailureIncludesDetailsInstanceE
     /tmp/ccvx4a18.s:7131   .bss:0000000000000678 _ZN12_GLOBAL__N_144adderCheckArray2DCloseFailureIncludesDetailsE
     /tmp/ccvx4a18.s:7151   .text:000000000000368e _ZNK12_GLOBAL__N_143TestCheckArray2DCloseFailureIncludesDetails7RunImplEv
     /tmp/ccvx4a18.s:7589   .text._ZN8UnitTest15MemoryOutStreamD1Ev:0000000000000000 _ZN8UnitTest15MemoryOutStreamD1Ev
     /tmp/ccvx4a18.s:7698   .text._ZN8UnitTest15MemoryOutStreamD1Ev:00000000000000ac _ZTv0_n24_N8UnitTest15MemoryOutStreamD1Ev
     /tmp/ccvx4a18.s:7712   .text._ZN8UnitTest15MemoryOutStreamD0Ev:0000000000000000 _ZN8UnitTest15MemoryOutStreamD0Ev
     /tmp/ccvx4a18.s:7778   .text._ZN8UnitTest15MemoryOutStreamD0Ev:0000000000000048 _ZTv0_n24_N8UnitTest15MemoryOutStreamD0Ev
     /tmp/ccvx4a18.s:9472   .text._ZN8UnitTest8AreCloseIfffEEbRKT_RKT0_RKT1_:0000000000000000 _ZN8UnitTest8AreCloseIfffEEbRKT_RKT0_RKT1_
     /tmp/ccvx4a18.s:9521   .text._ZN8UnitTest8AreCloseIffiEEbRKT_RKT0_RKT1_:0000000000000000 _ZN8UnitTest8AreCloseIffiEEbRKT_RKT0_RKT1_
     /tmp/ccvx4a18.s:9573   .text._ZN8UnitTest8AreCloseIiifEEbRKT_RKT0_RKT1_:0000000000000000 _ZN8UnitTest8AreCloseIiifEEbRKT_RKT0_RKT1_
     /tmp/ccvx4a18.s:9626   .text._ZN8UnitTest13ArrayAreCloseIA3_fS1_fEEbRKT_RKT0_iRKT1_:0000000000000000 _ZN8UnitTest13ArrayAreCloseIA3_fS1_fEEbRKT_RKT0_iRKT1_
     /tmp/ccvx4a18.s:9688   .text._ZN8UnitTest8AreCloseIdddEEbRKT_RKT0_RKT1_:0000000000000000 _ZN8UnitTest8AreCloseIdddEEbRKT_RKT0_RKT1_
     /tmp/ccvx4a18.s:12676  .data.rel.ro:0000000000000000 _ZTIN12_GLOBAL__N_143TestCheckArray2DCloseFailureIncludesDetailsE
     /tmp/ccvx4a18.s:9747   .text:0000000000003b8a _ZN12_GLOBAL__N_143TestCheckArray2DCloseFailureIncludesDetailsD1Ev
     /tmp/ccvx4a18.s:9777   .text:0000000000003bb4 _ZN12_GLOBAL__N_143TestCheckArray2DCloseFailureIncludesDetailsD0Ev
     /tmp/ccvx4a18.s:9747   .text:0000000000003b8a _ZN12_GLOBAL__N_143TestCheckArray2DCloseFailureIncludesDetailsD2Ev
     /tmp/ccvx4a18.s:12690  .data.rel.ro:0000000000000018 _ZTIN12_GLOBAL__N_133TestCheckCloseWithDoublesSucceedsE
     /tmp/ccvx4a18.s:9853   .text:0000000000003bfc _ZN12_GLOBAL__N_133TestCheckCloseWithDoublesSucceedsD1Ev
     /tmp/ccvx4a18.s:9883   .text:0000000000003c26 _ZN12_GLOBAL__N_133TestCheckCloseWithDoublesSucceedsD0Ev
     /tmp/ccvx4a18.s:9853   .text:0000000000003bfc _ZN12_GLOBAL__N_133TestCheckCloseWithDoublesSucceedsD2Ev
     /tmp/ccvx4a18.s:12704  .data.rel.ro:0000000000000030 _ZTIN12_GLOBAL__N_126TestCheckArray2DCloseFalseE
     /tmp/ccvx4a18.s:9959   .text:0000000000003c6e _ZN12_GLOBAL__N_126TestCheckArray2DCloseFalseD1Ev
     /tmp/ccvx4a18.s:9989   .text:0000000000003c98 _ZN12_GLOBAL__N_126TestCheckArray2DCloseFalseD0Ev
     /tmp/ccvx4a18.s:9959   .text:0000000000003c6e _ZN12_GLOBAL__N_126TestCheckArray2DCloseFalseD2Ev
     /tmp/ccvx4a18.s:12718  .data.rel.ro:0000000000000048 _ZTIN12_GLOBAL__N_125TestCheckArray2DCloseTrueE
     /tmp/ccvx4a18.s:10065  .text:0000000000003ce0 _ZN12_GLOBAL__N_125TestCheckArray2DCloseTrueD1Ev
     /tmp/ccvx4a18.s:10095  .text:0000000000003d0a _ZN12_GLOBAL__N_125TestCheckArray2DCloseTrueD0Ev
     /tmp/ccvx4a18.s:10065  .text:0000000000003ce0 _ZN12_GLOBAL__N_125TestCheckArray2DCloseTrueD2Ev
     /tmp/ccvx4a18.s:12732  .data.rel.ro:0000000000000060 _ZTIN12_GLOBAL__N_141TestCheckArrayCloseFailureIncludesDetailsE
     /tmp/ccvx4a18.s:10171  .text:0000000000003d52 _ZN12_GLOBAL__N_141TestCheckArrayCloseFailureIncludesDetailsD1Ev
     /tmp/ccvx4a18.s:10201  .text:0000000000003d7c _ZN12_GLOBAL__N_141TestCheckArrayCloseFailureIncludesDetailsD0Ev
     /tmp/ccvx4a18.s:10171  .text:0000000000003d52 _ZN12_GLOBAL__N_141TestCheckArrayCloseFailureIncludesDetailsD2Ev
     /tmp/ccvx4a18.s:12746  .data.rel.ro:0000000000000078 _ZTIN12_GLOBAL__N_124TestCheckArrayCloseFalseE
     /tmp/ccvx4a18.s:10277  .text:0000000000003dc4 _ZN12_GLOBAL__N_124TestCheckArrayCloseFalseD1Ev
     /tmp/ccvx4a18.s:10307  .text:0000000000003dee _ZN12_GLOBAL__N_124TestCheckArrayCloseFalseD0Ev
     /tmp/ccvx4a18.s:10277  .text:0000000000003dc4 _ZN12_GLOBAL__N_124TestCheckArrayCloseFalseD2Ev
     /tmp/ccvx4a18.s:12760  .data.rel.ro:0000000000000090 _ZTIN12_GLOBAL__N_123TestCheckArrayCloseTrueE
     /tmp/ccvx4a18.s:10383  .text:0000000000003e36 _ZN12_GLOBAL__N_123TestCheckArrayCloseTrueD1Ev
     /tmp/ccvx4a18.s:10413  .text:0000000000003e60 _ZN12_GLOBAL__N_123TestCheckArrayCloseTrueD0Ev
     /tmp/ccvx4a18.s:10383  .text:0000000000003e36 _ZN12_GLOBAL__N_123TestCheckArrayCloseTrueD2Ev
     /tmp/ccvx4a18.s:12774  .data.rel.ro:00000000000000a8 _ZTIN12_GLOBAL__N_124TestCheckArrayEqualFalseE
     /tmp/ccvx4a18.s:10489  .text:0000000000003ea8 _ZN12_GLOBAL__N_124TestCheckArrayEqualFalseD1Ev
     /tmp/ccvx4a18.s:10519  .text:0000000000003ed2 _ZN12_GLOBAL__N_124TestCheckArrayEqualFalseD0Ev
     /tmp/ccvx4a18.s:10489  .text:0000000000003ea8 _ZN12_GLOBAL__N_124TestCheckArrayEqualFalseD2Ev
     /tmp/ccvx4a18.s:12788  .data.rel.ro:00000000000000c0 _ZTIN12_GLOBAL__N_123TestCheckArrayEqualTrueE
     /tmp/ccvx4a18.s:10595  .text:0000000000003f1a _ZN12_GLOBAL__N_123TestCheckArrayEqualTrueD1Ev
     /tmp/ccvx4a18.s:10625  .text:0000000000003f44 _ZN12_GLOBAL__N_123TestCheckArrayEqualTrueD0Ev
     /tmp/ccvx4a18.s:10595  .text:0000000000003f1a _ZN12_GLOBAL__N_123TestCheckArrayEqualTrueD2Ev
     /tmp/ccvx4a18.s:12802  .data.rel.ro:00000000000000d8 _ZTIN12_GLOBAL__N_136TestCheckCloseFailureIncludesDetailsE
     /tmp/ccvx4a18.s:10701  .text:0000000000003f8c _ZN12_GLOBAL__N_136TestCheckCloseFailureIncludesDetailsD1Ev
     /tmp/ccvx4a18.s:10731  .text:0000000000003fb6 _ZN12_GLOBAL__N_136TestCheckCloseFailureIncludesDetailsD0Ev
     /tmp/ccvx4a18.s:10701  .text:0000000000003f8c _ZN12_GLOBAL__N_136TestCheckCloseFailureIncludesDetailsD2Ev
     /tmp/ccvx4a18.s:12816  .data.rel.ro:00000000000000f0 _ZTIN12_GLOBAL__N_138TestCheckCloseFailureIncludesToleranceE
     /tmp/ccvx4a18.s:10807  .text:0000000000003ffe _ZN12_GLOBAL__N_138TestCheckCloseFailureIncludesToleranceD1Ev
     /tmp/ccvx4a18.s:10837  .text:0000000000004028 _ZN12_GLOBAL__N_138TestCheckCloseFailureIncludesToleranceD0Ev
     /tmp/ccvx4a18.s:10807  .text:0000000000003ffe _ZN12_GLOBAL__N_138TestCheckCloseFailureIncludesToleranceD2Ev
     /tmp/ccvx4a18.s:12830  .data.rel.ro:0000000000000108 _ZTIN12_GLOBAL__N_151TestCheckCloseFailureIncludesCheckExpectedAndActualE
     /tmp/ccvx4a18.s:10913  .text:0000000000004070 _ZN12_GLOBAL__N_151TestCheckCloseFailureIncludesCheckExpectedAndActualD1Ev
     /tmp/ccvx4a18.s:10943  .text:000000000000409a _ZN12_GLOBAL__N_151TestCheckCloseFailureIncludesCheckExpectedAndActualD0Ev
     /tmp/ccvx4a18.s:10913  .text:0000000000004070 _ZN12_GLOBAL__N_151TestCheckCloseFailureIncludesCheckExpectedAndActualD2Ev
     /tmp/ccvx4a18.s:12844  .data.rel.ro:0000000000000120 _ZTIN12_GLOBAL__N_139TestCheckCloseWithNaNAgainstItselfFailsE
     /tmp/ccvx4a18.s:11019  .text:00000000000040e2 _ZN12_GLOBAL__N_139TestCheckCloseWithNaNAgainstItselfFailsD1Ev
     /tmp/ccvx4a18.s:11049  .text:000000000000410c _ZN12_GLOBAL__N_139TestCheckCloseWithNaNAgainstItselfFailsD0Ev
     /tmp/ccvx4a18.s:11019  .text:00000000000040e2 _ZN12_GLOBAL__N_139TestCheckCloseWithNaNAgainstItselfFailsD2Ev
     /tmp/ccvx4a18.s:12858  .data.rel.ro:0000000000000138 _ZTIN12_GLOBAL__N_126TestCheckCloseWithNaNFailsE
     /tmp/ccvx4a18.s:11125  .text:0000000000004154 _ZN12_GLOBAL__N_126TestCheckCloseWithNaNFailsD1Ev
     /tmp/ccvx4a18.s:11155  .text:000000000000417e _ZN12_GLOBAL__N_126TestCheckCloseWithNaNFailsD0Ev
     /tmp/ccvx4a18.s:11125  .text:0000000000004154 _ZN12_GLOBAL__N_126TestCheckCloseWithNaNFailsD2Ev
     /tmp/ccvx4a18.s:12872  .data.rel.ro:0000000000000150 _ZTIN12_GLOBAL__N_147TestCheckCloseWithZeroEpsilonWorksForSameNumberE
     /tmp/ccvx4a18.s:11231  .text:00000000000041c6 _ZN12_GLOBAL__N_147TestCheckCloseWithZeroEpsilonWorksForSameNumberD1Ev
     /tmp/ccvx4a18.s:11261  .text:00000000000041f0 _ZN12_GLOBAL__N_147TestCheckCloseWithZeroEpsilonWorksForSameNumberD0Ev
     /tmp/ccvx4a18.s:11231  .text:00000000000041c6 _ZN12_GLOBAL__N_147TestCheckCloseWithZeroEpsilonWorksForSameNumberD2Ev
     /tmp/ccvx4a18.s:12886  .data.rel.ro:0000000000000168 _ZTIN12_GLOBAL__N_119TestCheckCloseFalseE
     /tmp/ccvx4a18.s:11337  .text:0000000000004238 _ZN12_GLOBAL__N_119TestCheckCloseFalseD1Ev
     /tmp/ccvx4a18.s:11367  .text:0000000000004262 _ZN12_GLOBAL__N_119TestCheckCloseFalseD0Ev
     /tmp/ccvx4a18.s:11337  .text:0000000000004238 _ZN12_GLOBAL__N_119TestCheckCloseFalseD2Ev
     /tmp/ccvx4a18.s:12900  .data.rel.ro:0000000000000180 _ZTIN12_GLOBAL__N_118TestCheckCloseTrueE
     /tmp/ccvx4a18.s:11443  .text:00000000000042aa _ZN12_GLOBAL__N_118TestCheckCloseTrueD1Ev
     /tmp/ccvx4a18.s:11473  .text:00000000000042d4 _ZN12_GLOBAL__N_118TestCheckCloseTrueD0Ev
     /tmp/ccvx4a18.s:11443  .text:00000000000042aa _ZN12_GLOBAL__N_118TestCheckCloseTrueD2Ev
     /tmp/ccvx4a18.s:12914  .data.rel.ro:0000000000000198 _ZTIN12_GLOBAL__N_136TestCheckEqualFailureIncludesDetailsE
     /tmp/ccvx4a18.s:11549  .text:000000000000431c _ZN12_GLOBAL__N_136TestCheckEqualFailureIncludesDetailsD1Ev
     /tmp/ccvx4a18.s:11579  .text:0000000000004346 _ZN12_GLOBAL__N_136TestCheckEqualFailureIncludesDetailsD0Ev
     /tmp/ccvx4a18.s:11549  .text:000000000000431c _ZN12_GLOBAL__N_136TestCheckEqualFailureIncludesDetailsD2Ev
     /tmp/ccvx4a18.s:12928  .data.rel.ro:00000000000001b0 _ZTIN12_GLOBAL__N_151TestCheckEqualFailureIncludesCheckExpectedAndActualE
     /tmp/ccvx4a18.s:11655  .text:000000000000438e _ZN12_GLOBAL__N_151TestCheckEqualFailureIncludesCheckExpectedAndActualD1Ev
     /tmp/ccvx4a18.s:11685  .text:00000000000043b8 _ZN12_GLOBAL__N_151TestCheckEqualFailureIncludesCheckExpectedAndActualD0Ev
     /tmp/ccvx4a18.s:11655  .text:000000000000438e _ZN12_GLOBAL__N_151TestCheckEqualFailureIncludesCheckExpectedAndActualD2Ev
     /tmp/ccvx4a18.s:12942  .data.rel.ro:00000000000001c8 _ZTIN12_GLOBAL__N_153TestCheckEqualsWithStringsWorksOnContentsWithALiteralE
     /tmp/ccvx4a18.s:11761  .text:0000000000004400 _ZN12_GLOBAL__N_153TestCheckEqualsWithStringsWorksOnContentsWithALiteralD1Ev
     /tmp/ccvx4a18.s:11791  .text:000000000000442a _ZN12_GLOBAL__N_153TestCheckEqualsWithStringsWorksOnContentsWithALiteralD0Ev
     /tmp/ccvx4a18.s:11761  .text:0000000000004400 _ZN12_GLOBAL__N_153TestCheckEqualsWithStringsWorksOnContentsWithALiteralD2Ev
     /tmp/ccvx4a18.s:12956  .data.rel.ro:00000000000001e0 _ZTIN12_GLOBAL__N_154TestCheckEqualsWithStringsWorksOnContentsConstNonConstE
     /tmp/ccvx4a18.s:11867  .text:0000000000004472 _ZN12_GLOBAL__N_154TestCheckEqualsWithStringsWorksOnContentsConstNonConstD1Ev
     /tmp/ccvx4a18.s:11897  .text:000000000000449c _ZN12_GLOBAL__N_154TestCheckEqualsWithStringsWorksOnContentsConstNonConstD0Ev
     /tmp/ccvx4a18.s:11867  .text:0000000000004472 _ZN12_GLOBAL__N_154TestCheckEqualsWithStringsWorksOnContentsConstNonConstD2Ev
     /tmp/ccvx4a18.s:12970  .data.rel.ro:00000000000001f8 _ZTIN12_GLOBAL__N_154TestCheckEqualsWithStringsWorksOnContentsNonConstConstE
     /tmp/ccvx4a18.s:11973  .text:00000000000044e4 _ZN12_GLOBAL__N_154TestCheckEqualsWithStringsWorksOnContentsNonConstConstD1Ev
     /tmp/ccvx4a18.s:12003  .text:000000000000450e _ZN12_GLOBAL__N_154TestCheckEqualsWithStringsWorksOnContentsNonConstConstD0Ev
     /tmp/ccvx4a18.s:11973  .text:00000000000044e4 _ZN12_GLOBAL__N_154TestCheckEqualsWithStringsWorksOnContentsNonConstConstD2Ev
     /tmp/ccvx4a18.s:12984  .data.rel.ro:0000000000000210 _ZTIN12_GLOBAL__N_151TestCheckEqualsWithStringsWorksOnContentsConstConstE
     /tmp/ccvx4a18.s:12079  .text:0000000000004556 _ZN12_GLOBAL__N_151TestCheckEqualsWithStringsWorksOnContentsConstConstD1Ev
     /tmp/ccvx4a18.s:12109  .text:0000000000004580 _ZN12_GLOBAL__N_151TestCheckEqualsWithStringsWorksOnContentsConstConstD0Ev
     /tmp/ccvx4a18.s:12079  .text:0000000000004556 _ZN12_GLOBAL__N_151TestCheckEqualsWithStringsWorksOnContentsConstConstD2Ev
     /tmp/ccvx4a18.s:12998  .data.rel.ro:0000000000000228 _ZTIN12_GLOBAL__N_157TestCheckEqualsWithStringsWorksOnContentsNonConstNonConstE
     /tmp/ccvx4a18.s:12185  .text:00000000000045c8 _ZN12_GLOBAL__N_157TestCheckEqualsWithStringsWorksOnContentsNonConstNonConstD1Ev
     /tmp/ccvx4a18.s:12215  .text:00000000000045f2 _ZN12_GLOBAL__N_157TestCheckEqualsWithStringsWorksOnContentsNonConstNonConstD0Ev
     /tmp/ccvx4a18.s:12185  .text:00000000000045c8 _ZN12_GLOBAL__N_157TestCheckEqualsWithStringsWorksOnContentsNonConstNonConstD2Ev
     /tmp/ccvx4a18.s:13012  .data.rel.ro:0000000000000240 _ZTIN12_GLOBAL__N_149TestCheckEqualsWithStringsFailsOnDifferentStringsE
     /tmp/ccvx4a18.s:12291  .text:000000000000463a _ZN12_GLOBAL__N_149TestCheckEqualsWithStringsFailsOnDifferentStringsD1Ev
     /tmp/ccvx4a18.s:12321  .text:0000000000004664 _ZN12_GLOBAL__N_149TestCheckEqualsWithStringsFailsOnDifferentStringsD0Ev
     /tmp/ccvx4a18.s:12291  .text:000000000000463a _ZN12_GLOBAL__N_149TestCheckEqualsWithStringsFailsOnDifferentStringsD2Ev
     /tmp/ccvx4a18.s:13026  .data.rel.ro:0000000000000258 _ZTIN12_GLOBAL__N_130TestCheckEqualWithUnsignedLongE
     /tmp/ccvx4a18.s:12397  .text:00000000000046ac _ZN12_GLOBAL__N_130TestCheckEqualWithUnsignedLongD1Ev
     /tmp/ccvx4a18.s:12427  .text:00000000000046d6 _ZN12_GLOBAL__N_130TestCheckEqualWithUnsignedLongD0Ev
     /tmp/ccvx4a18.s:12397  .text:00000000000046ac _ZN12_GLOBAL__N_130TestCheckEqualWithUnsignedLongD2Ev
     /tmp/ccvx4a18.s:13035  .data.rel.ro._ZTI17RecordingReporter:0000000000000000 _ZTI17RecordingReporter
     /tmp/ccvx4a18.s:12541  .text._ZN17RecordingReporterD0Ev:0000000000000000 _ZN17RecordingReporterD0Ev
     /tmp/ccvx4a18.s:12508  .text._ZN17RecordingReporterD2Ev:0000000000000000 _ZN17RecordingReporterD2Ev
     /tmp/ccvx4a18.s:13051  .data.rel.ro._ZTIN8UnitTest15MemoryOutStreamE:0000000000000000 _ZTIN8UnitTest15MemoryOutStreamE
     /tmp/ccvx4a18.s:12638  .data.rel.ro._ZTCN8UnitTest15MemoryOutStreamE0_NSt7__cxx1119basic_ostringstreamIcSt11char_traitsIcESaIcEEE:0000000000000000 _ZTCN8UnitTest15MemoryOutStreamE0_NSt7__cxx1119basic_ostringstreamIcSt11char_traitsIcESaIcEEE
     /tmp/ccvx4a18.s:12655  .data.rel.ro._ZTCN8UnitTest15MemoryOutStreamE0_So:0000000000000000 _ZTCN8UnitTest15MemoryOutStreamE0_So
     /tmp/ccvx4a18.s:12670  .rodata:0000000000000c00 _ZTSN12_GLOBAL__N_143TestCheckArray2DCloseFailureIncludesDetailsE
     /tmp/ccvx4a18.s:12684  .rodata:0000000000000c40 _ZTSN12_GLOBAL__N_133TestCheckCloseWithDoublesSucceedsE
     /tmp/ccvx4a18.s:12698  .rodata:0000000000000c80 _ZTSN12_GLOBAL__N_126TestCheckArray2DCloseFalseE
     /tmp/ccvx4a18.s:12712  .rodata:0000000000000cc0 _ZTSN12_GLOBAL__N_125TestCheckArray2DCloseTrueE
     /tmp/ccvx4a18.s:12726  .rodata:0000000000000d00 _ZTSN12_GLOBAL__N_141TestCheckArrayCloseFailureIncludesDetailsE
     /tmp/ccvx4a18.s:12740  .rodata:0000000000000d40 _ZTSN12_GLOBAL__N_124TestCheckArrayCloseFalseE
     /tmp/ccvx4a18.s:12754  .rodata:0000000000000d80 _ZTSN12_GLOBAL__N_123TestCheckArrayCloseTrueE
     /tmp/ccvx4a18.s:12768  .rodata:0000000000000dc0 _ZTSN12_GLOBAL__N_124TestCheckArrayEqualFalseE
     /tmp/ccvx4a18.s:12782  .rodata:0000000000000e00 _ZTSN12_GLOBAL__N_123TestCheckArrayEqualTrueE
     /tmp/ccvx4a18.s:12796  .rodata:0000000000000e40 _ZTSN12_GLOBAL__N_136TestCheckCloseFailureIncludesDetailsE
     /tmp/ccvx4a18.s:12810  .rodata:0000000000000e80 _ZTSN12_GLOBAL__N_138TestCheckCloseFailureIncludesToleranceE
     /tmp/ccvx4a18.s:12824  .rodata:0000000000000ec0 _ZTSN12_GLOBAL__N_151TestCheckCloseFailureIncludesCheckExpectedAndActualE
     /tmp/ccvx4a18.s:12838  .rodata:0000000000000f20 _ZTSN12_GLOBAL__N_139TestCheckCloseWithNaNAgainstItselfFailsE
     /tmp/ccvx4a18.s:12852  .rodata:0000000000000f60 _ZTSN12_GLOBAL__N_126TestCheckCloseWithNaNFailsE
     /tmp/ccvx4a18.s:12866  .rodata:0000000000000fa0 _ZTSN12_GLOBAL__N_147TestCheckCloseWithZeroEpsilonWorksForSameNumberE
     /tmp/ccvx4a18.s:12880  .rodata:0000000000001000 _ZTSN12_GLOBAL__N_119TestCheckCloseFalseE
     /tmp/ccvx4a18.s:12894  .rodata:0000000000001040 _ZTSN12_GLOBAL__N_118TestCheckCloseTrueE
     /tmp/ccvx4a18.s:12908  .rodata:0000000000001080 _ZTSN12_GLOBAL__N_136TestCheckEqualFailureIncludesDetailsE
     /tmp/ccvx4a18.s:12922  .rodata:00000000000010c0 _ZTSN12_GLOBAL__N_151TestCheckEqualFailureIncludesCheckExpectedAndActualE
     /tmp/ccvx4a18.s:12936  .rodata:0000000000001120 _ZTSN12_GLOBAL__N_153TestCheckEqualsWithStringsWorksOnContentsWithALiteralE
     /tmp/ccvx4a18.s:12950  .rodata:0000000000001180 _ZTSN12_GLOBAL__N_154TestCheckEqualsWithStringsWorksOnContentsConstNonConstE
     /tmp/ccvx4a18.s:12964  .rodata:00000000000011e0 _ZTSN12_GLOBAL__N_154TestCheckEqualsWithStringsWorksOnContentsNonConstConstE
     /tmp/ccvx4a18.s:12978  .rodata:0000000000001240 _ZTSN12_GLOBAL__N_151TestCheckEqualsWithStringsWorksOnContentsConstConstE
     /tmp/ccvx4a18.s:12992  .rodata:00000000000012a0 _ZTSN12_GLOBAL__N_157TestCheckEqualsWithStringsWorksOnContentsNonConstNonConstE
     /tmp/ccvx4a18.s:13006  .rodata:0000000000001300 _ZTSN12_GLOBAL__N_149TestCheckEqualsWithStringsFailsOnDifferentStringsE
     /tmp/ccvx4a18.s:13020  .rodata:0000000000001360 _ZTSN12_GLOBAL__N_130TestCheckEqualWithUnsignedLongE
     /tmp/ccvx4a18.s:13044  .rodata._ZTS17RecordingReporter:0000000000000000 _ZTS17RecordingReporter
     /tmp/ccvx4a18.s:13060  .rodata._ZTSN8UnitTest15MemoryOutStreamE:0000000000000000 _ZTSN8UnitTest15MemoryOutStreamE
     /tmp/ccvx4a18.s:13064  .text:000000000000471e _Z41__static_initialization_and_destruction_0ii
     /tmp/ccvx4a18.s:13404  .text:0000000000004de0 _GLOBAL__sub_I_TestChecks.cpp
                           .group:0000000000000000 _ZN8UnitTest12TestReporterC5Ev
                           .group:0000000000000000 _ZN17RecordingReporterC5Ev
                           .group:0000000000000000 _ZN17RecordingReporterD5Ev

UNDEFINED SYMBOLS
_GLOBAL_OFFSET_TABLE_
_ZNSt9basic_iosIcSt11char_traitsIcEEC2Ev
_ZNSt7__cxx1119basic_ostringstreamIcSt11char_traitsIcESaIcEEC2ESt13_Ios_Openmode
_ZNSt7__cxx1112basic_stringIcSt11char_traitsIcESaIcEEC1Ev
_ZNSt7__cxx1119basic_ostringstreamIcSt11char_traitsIcESaIcEED2Ev
_ZNSt9basic_iosIcSt11char_traitsIcEED2Ev
_Unwind_Resume
__gxx_personality_v0
_ZTVN8UnitTest12TestReporterE
strcpy
_ZN8UnitTest4TestC2EPKcS2_S2_i
_ZN8UnitTest11TestResultsC1EPNS_12TestReporterE
_ZN8UnitTest11CurrentTest7DetailsEv
_ZN8UnitTest11TestDetailsC1ERKS0_i
_ZN8UnitTest11CurrentTest7ResultsEv
__cxa_begin_catch
_ZN8UnitTest11TestResults13OnTestFailureERKNS_11TestDetailsEPKc
__cxa_end_catch
__stack_chk_fail
_ZN8UnitTest11TestDetailsC1EPKcS2_S2_i
_ZN8UnitTest10CheckEqualERNS_11TestResultsEPcS2_RKNS_11TestDetailsE
_ZNK8UnitTest11TestResults15GetFailureCountEv
_ZN8UnitTest10CheckEqualERNS_11TestResultsEPKcS3_RKNS_11TestDetailsE
_ZN8UnitTest10CheckEqualERNS_11TestResultsEPcPKcRKNS_11TestDetailsE
_ZN8UnitTest10CheckEqualERNS_11TestResultsEPKcPcRKNS_11TestDetailsE
strstr
_ZNSt7__cxx1112basic_stringIcSt11char_traitsIcESaIcEED1Ev
_ZdlPv
_ZStlsISt11char_traitsIcEERSt13basic_ostreamIcT_ES5_PKc
_ZNSolsEm
_ZNK8UnitTest15MemoryOutStream7GetTextEv
_ZNSolsEi
_ZNSolsEf
_ZNSolsEd
_ZN8UnitTest4TestD2Ev
_ZN8UnitTest12TestReporterD2Ev
_ZTINSt7__cxx1119basic_ostringstreamIcSt11char_traitsIcESaIcEEE
_ZTISo
_ZTVN10__cxxabiv120__si_class_type_infoE
_ZTIN8UnitTest4TestE
_ZTIN8UnitTest12TestReporterE
__dso_handle
__cxa_atexit
_ZN8UnitTest4Test11GetTestListEv
_ZN8UnitTest9ListAdderC1ERNS_8TestListEPNS_4TestE
