   1              		.file	"TestTestMacros.cpp"
   2              		.text
   3              	.Ltext0:
   4              		.section	.rodata
   5              	.LC0:
   6 0000 44656661 		.string	"DefaultSuite"
   6      756C7453 
   6      75697465 
   6      00
   7              		.section	.text._ZN13UnitTestSuite12GetSuiteNameEv,"axG",@progbits,_ZN13UnitTestSuite12GetSuiteName
   8              		.weak	_ZN13UnitTestSuite12GetSuiteNameEv
  10              	_ZN13UnitTestSuite12GetSuiteNameEv:
  11              	.LFB0:
  12              		.file 1 "../TestSuite.h"
   1:../TestSuite.h **** #ifndef UNITTEST_TESTSUITE_H
   2:../TestSuite.h **** #define UNITTEST_TESTSUITE_H
   3:../TestSuite.h **** 
   4:../TestSuite.h **** namespace UnitTestSuite {
   5:../TestSuite.h **** 
   6:../TestSuite.h ****     inline char const* GetSuiteName ()
   7:../TestSuite.h ****     {
  13              		.loc 1 7 0
  14              		.cfi_startproc
  15 0000 55       		pushq	%rbp
  16              		.cfi_def_cfa_offset 16
  17              		.cfi_offset 6, -16
  18 0001 4889E5   		movq	%rsp, %rbp
  19              		.cfi_def_cfa_register 6
   8:../TestSuite.h ****         return "DefaultSuite";
  20              		.loc 1 8 0
  21 0004 488D0500 		leaq	.LC0(%rip), %rax
  21      000000
   9:../TestSuite.h ****     }
  22              		.loc 1 9 0
  23 000b 5D       		popq	%rbp
  24              		.cfi_def_cfa 7, 8
  25 000c C3       		ret
  26              		.cfi_endproc
  27              	.LFE0:
  29              		.section	.text._ZN8UnitTest15MemoryOutStreamC1Ev,"axG",@progbits,_ZN8UnitTest15MemoryOutStreamC1Ev
  30              		.align 2
  31              		.weak	_ZN8UnitTest15MemoryOutStreamC1Ev
  33              	_ZN8UnitTest15MemoryOutStreamC1Ev:
  34              	.LFB1076:
  35              		.file 2 "../MemoryOutStream.h"
   1:../MemoryOutStream.h **** #ifndef UNITTEST_MEMORYOUTSTREAM_H
   2:../MemoryOutStream.h **** #define UNITTEST_MEMORYOUTSTREAM_H
   3:../MemoryOutStream.h **** 
   4:../MemoryOutStream.h **** #include "Config.h"
   5:../MemoryOutStream.h **** 
   6:../MemoryOutStream.h **** #ifndef UNITTEST_USE_CUSTOM_STREAMS
   7:../MemoryOutStream.h **** 
   8:../MemoryOutStream.h **** #include <sstream>
   9:../MemoryOutStream.h **** 
  10:../MemoryOutStream.h **** namespace UnitTest
  11:../MemoryOutStream.h **** {
  12:../MemoryOutStream.h **** 
  13:../MemoryOutStream.h **** class MemoryOutStream : public std::ostringstream
  14:../MemoryOutStream.h **** {
  15:../MemoryOutStream.h **** public:
  16:../MemoryOutStream.h ****     MemoryOutStream() {}
  36              		.loc 2 16 0
  37              		.cfi_startproc
  38              		.cfi_personality 0x9b,DW.ref.__gxx_personality_v0
  39              		.cfi_lsda 0x1b,.LLSDA1076
  40 0000 55       		pushq	%rbp
  41              		.cfi_def_cfa_offset 16
  42              		.cfi_offset 6, -16
  43 0001 4889E5   		movq	%rsp, %rbp
  44              		.cfi_def_cfa_register 6
  45 0004 53       		pushq	%rbx
  46 0005 4883EC18 		subq	$24, %rsp
  47              		.cfi_offset 3, -24
  48 0009 48897DE8 		movq	%rdi, -24(%rbp)
  49              	.LBB2:
  50              		.loc 2 16 0
  51 000d 488B45E8 		movq	-24(%rbp), %rax
  52 0011 48059000 		addq	$144, %rax
  52      0000
  53 0017 4889C7   		movq	%rax, %rdi
  54              	.LEHB0:
  55 001a E8000000 		call	_ZNSt9basic_iosIcSt11char_traitsIcEEC2Ev@PLT
  55      00
  56              	.LEHE0:
  57 001f 488B45E8 		movq	-24(%rbp), %rax
  58 0023 488D0D00 		leaq	8+_ZTTN8UnitTest15MemoryOutStreamE(%rip), %rcx
  58      000000
  59 002a BA100000 		movl	$16, %edx
  59      00
  60 002f 4889CE   		movq	%rcx, %rsi
  61 0032 4889C7   		movq	%rax, %rdi
  62              	.LEHB1:
  63 0035 E8000000 		call	_ZNSt7__cxx1119basic_ostringstreamIcSt11char_traitsIcESaIcEEC2ESt13_Ios_Openmode@PLT
  63      00
  64              	.LEHE1:
  65              		.loc 2 16 0 is_stmt 0 discriminator 8
  66 003a 488D1500 		leaq	24+_ZTVN8UnitTest15MemoryOutStreamE(%rip), %rdx
  66      000000
  67 0041 488B45E8 		movq	-24(%rbp), %rax
  68 0045 488910   		movq	%rdx, (%rax)
  69 0048 488B45E8 		movq	-24(%rbp), %rax
  70 004c 488D9090 		leaq	144(%rax), %rdx
  70      000000
  71 0053 488D0500 		leaq	64+_ZTVN8UnitTest15MemoryOutStreamE(%rip), %rax
  71      000000
  72 005a 488902   		movq	%rax, (%rdx)
  73 005d 488B45E8 		movq	-24(%rbp), %rax
  74 0061 4883C070 		addq	$112, %rax
  75 0065 4889C7   		movq	%rax, %rdi
  76              	.LEHB2:
  77 0068 E8000000 		call	_ZNSt7__cxx1112basic_stringIcSt11char_traitsIcESaIcEEC1Ev@PLT
  77      00
  78              	.LEHE2:
  79              	.LBE2:
  80              		.loc 2 16 0
  81 006d EB3B     		jmp	.L9
  82              	.L7:
  83 006f 4889C3   		movq	%rax, %rbx
  84              	.LBB3:
  85 0072 488B45E8 		movq	-24(%rbp), %rax
  86 0076 488D1500 		leaq	8+_ZTTN8UnitTest15MemoryOutStreamE(%rip), %rdx
  86      000000
  87 007d 4889D6   		movq	%rdx, %rsi
  88 0080 4889C7   		movq	%rax, %rdi
  89 0083 E8000000 		call	_ZNSt7__cxx1119basic_ostringstreamIcSt11char_traitsIcESaIcEED2Ev@PLT
  89      00
  90 0088 EB03     		jmp	.L8
  91              	.L6:
  92 008a 4889C3   		movq	%rax, %rbx
  93              	.L8:
  94              		.loc 2 16 0 discriminator 11
  95 008d 488B45E8 		movq	-24(%rbp), %rax
  96 0091 48059000 		addq	$144, %rax
  96      0000
  97 0097 4889C7   		movq	%rax, %rdi
  98 009a E8000000 		call	_ZNSt9basic_iosIcSt11char_traitsIcEED2Ev@PLT
  98      00
  99 009f 4889D8   		movq	%rbx, %rax
 100 00a2 4889C7   		movq	%rax, %rdi
 101              	.LEHB3:
 102 00a5 E8000000 		call	_Unwind_Resume@PLT
 102      00
 103              	.LEHE3:
 104              	.L9:
 105              	.LBE3:
 106              		.loc 2 16 0
 107 00aa 4883C418 		addq	$24, %rsp
 108 00ae 5B       		popq	%rbx
 109 00af 5D       		popq	%rbp
 110              		.cfi_def_cfa 7, 8
 111 00b0 C3       		ret
 112              		.cfi_endproc
 113              	.LFE1076:
 114              		.globl	__gxx_personality_v0
 115              		.section	.gcc_except_table._ZN8UnitTest15MemoryOutStreamC1Ev,"aG",@progbits,_ZN8UnitTest15MemoryOu
 116              	.LLSDA1076:
 117 0000 FF       		.byte	0xff
 118 0001 FF       		.byte	0xff
 119 0002 01       		.byte	0x1
 120 0003 12       		.uleb128 .LLSDACSE1076-.LLSDACSB1076
 121              	.LLSDACSB1076:
 122 0004 1A       		.uleb128 .LEHB0-.LFB1076
 123 0005 05       		.uleb128 .LEHE0-.LEHB0
 124 0006 00       		.uleb128 0
 125 0007 00       		.uleb128 0
 126 0008 35       		.uleb128 .LEHB1-.LFB1076
 127 0009 05       		.uleb128 .LEHE1-.LEHB1
 128 000a 8A01     		.uleb128 .L6-.LFB1076
 129 000c 00       		.uleb128 0
 130 000d 68       		.uleb128 .LEHB2-.LFB1076
 131 000e 05       		.uleb128 .LEHE2-.LEHB2
 132 000f 6F       		.uleb128 .L7-.LFB1076
 133 0010 00       		.uleb128 0
 134 0011 A501     		.uleb128 .LEHB3-.LFB1076
 135 0013 05       		.uleb128 .LEHE3-.LEHB3
 136 0014 00       		.uleb128 0
 137 0015 00       		.uleb128 0
 138              	.LLSDACSE1076:
 139              		.section	.text._ZN8UnitTest15MemoryOutStreamC1Ev,"axG",@progbits,_ZN8UnitTest15MemoryOutStreamC1Ev
 141              		.section	.text._ZN8UnitTest12TestReporterC2Ev,"axG",@progbits,_ZN8UnitTest12TestReporterC5Ev,comda
 142              		.align 2
 143              		.weak	_ZN8UnitTest12TestReporterC2Ev
 145              	_ZN8UnitTest12TestReporterC2Ev:
 146              	.LFB1090:
 147              		.file 3 "../TestReporter.h"
   1:../TestReporter.h **** #ifndef UNITTEST_TESTREPORTER_H
   2:../TestReporter.h **** #define UNITTEST_TESTREPORTER_H
   3:../TestReporter.h **** 
   4:../TestReporter.h **** namespace UnitTest {
   5:../TestReporter.h **** 
   6:../TestReporter.h **** class TestDetails;
   7:../TestReporter.h **** 
   8:../TestReporter.h **** class TestReporter
 148              		.loc 3 8 0 is_stmt 1
 149              		.cfi_startproc
 150 0000 55       		pushq	%rbp
 151              		.cfi_def_cfa_offset 16
 152              		.cfi_offset 6, -16
 153 0001 4889E5   		movq	%rsp, %rbp
 154              		.cfi_def_cfa_register 6
 155 0004 48897DF8 		movq	%rdi, -8(%rbp)
 156              	.LBB4:
 157              		.loc 3 8 0
 158 0008 488D1500 		leaq	16+_ZTVN8UnitTest12TestReporterE(%rip), %rdx
 158      000000
 159 000f 488B45F8 		movq	-8(%rbp), %rax
 160 0013 488910   		movq	%rdx, (%rax)
 161              	.LBE4:
 162 0016 90       		nop
 163 0017 5D       		popq	%rbp
 164              		.cfi_def_cfa 7, 8
 165 0018 C3       		ret
 166              		.cfi_endproc
 167              	.LFE1090:
 169              		.weak	_ZN8UnitTest12TestReporterC1Ev
 170              		.set	_ZN8UnitTest12TestReporterC1Ev,_ZN8UnitTest12TestReporterC2Ev
 171              		.section	.text._ZN17RecordingReporterC2Ev,"axG",@progbits,_ZN17RecordingReporterC5Ev,comdat
 172              		.align 2
 173              		.weak	_ZN17RecordingReporterC2Ev
 175              	_ZN17RecordingReporterC2Ev:
 176              	.LFB1092:
 177              		.file 4 "RecordingReporter.h"
   1:RecordingReporter.h **** #ifndef UNITTEST_RECORDINGREPORTER_H
   2:RecordingReporter.h **** #define UNITTEST_RECORDINGREPORTER_H
   3:RecordingReporter.h **** 
   4:RecordingReporter.h **** #include "../TestReporter.h"
   5:RecordingReporter.h **** #include <cstring>
   6:RecordingReporter.h **** 
   7:RecordingReporter.h **** #include "../TestDetails.h"
   8:RecordingReporter.h **** 
   9:RecordingReporter.h **** struct RecordingReporter : public UnitTest::TestReporter
  10:RecordingReporter.h **** {
  11:RecordingReporter.h **** private:
  12:RecordingReporter.h ****     enum { kMaxStringLength = 256 };
  13:RecordingReporter.h **** 
  14:RecordingReporter.h **** public:
  15:RecordingReporter.h ****     RecordingReporter()
 178              		.loc 4 15 0
 179              		.cfi_startproc
 180 0000 55       		pushq	%rbp
 181              		.cfi_def_cfa_offset 16
 182              		.cfi_offset 6, -16
 183 0001 4889E5   		movq	%rsp, %rbp
 184              		.cfi_def_cfa_register 6
 185 0004 4883EC10 		subq	$16, %rsp
 186 0008 48897DF8 		movq	%rdi, -8(%rbp)
 187              	.LBB5:
  16:RecordingReporter.h ****         : testRunCount(0)
  17:RecordingReporter.h ****         , testFailedCount(0)
  18:RecordingReporter.h ****         , lastFailedLine(0)
  19:RecordingReporter.h ****         , testFinishedCount(0)
  20:RecordingReporter.h ****         , lastFinishedTestTime(0)
  21:RecordingReporter.h ****         , summaryTotalTestCount(0)
  22:RecordingReporter.h ****         , summaryFailedTestCount(0)
  23:RecordingReporter.h ****         , summaryFailureCount(0)
  24:RecordingReporter.h ****         , summarySecondsElapsed(0)
 188              		.loc 4 24 0
 189 000c 488B45F8 		movq	-8(%rbp), %rax
 190 0010 4889C7   		movq	%rax, %rdi
 191 0013 E8000000 		call	_ZN8UnitTest12TestReporterC2Ev
 191      00
 192 0018 488D1500 		leaq	16+_ZTV17RecordingReporter(%rip), %rdx
 192      000000
 193 001f 488B45F8 		movq	-8(%rbp), %rax
 194 0023 488910   		movq	%rdx, (%rax)
 195 0026 488B45F8 		movq	-8(%rbp), %rax
 196 002a C7400800 		movl	$0, 8(%rax)
 196      000000
 197 0031 488B45F8 		movq	-8(%rbp), %rax
 198 0035 C7800C02 		movl	$0, 524(%rax)
 198      00000000 
 198      0000
 199 003f 488B45F8 		movq	-8(%rbp), %rax
 200 0043 C7801003 		movl	$0, 784(%rax)
 200      00000000 
 200      0000
 201 004d 488B45F8 		movq	-8(%rbp), %rax
 202 0051 C7801406 		movl	$0, 1556(%rax)
 202      00000000 
 202      0000
 203 005b 488B45F8 		movq	-8(%rbp), %rax
 204 005f 660FEFC0 		pxor	%xmm0, %xmm0
 205 0063 F30F1180 		movss	%xmm0, 2072(%rax)
 205      18080000 
 206 006b 488B45F8 		movq	-8(%rbp), %rax
 207 006f C7801C08 		movl	$0, 2076(%rax)
 207      00000000 
 207      0000
 208 0079 488B45F8 		movq	-8(%rbp), %rax
 209 007d C7802008 		movl	$0, 2080(%rax)
 209      00000000 
 209      0000
 210 0087 488B45F8 		movq	-8(%rbp), %rax
 211 008b C7802408 		movl	$0, 2084(%rax)
 211      00000000 
 211      0000
 212 0095 488B45F8 		movq	-8(%rbp), %rax
 213 0099 660FEFC0 		pxor	%xmm0, %xmm0
 214 009d F30F1180 		movss	%xmm0, 2088(%rax)
 214      28080000 
  25:RecordingReporter.h ****     {
  26:RecordingReporter.h ****         lastStartedSuite[0] = '\0';
 215              		.loc 4 26 0
 216 00a5 488B45F8 		movq	-8(%rbp), %rax
 217 00a9 C6400C00 		movb	$0, 12(%rax)
  27:RecordingReporter.h ****         lastStartedTest[0] = '\0';
 218              		.loc 4 27 0
 219 00ad 488B45F8 		movq	-8(%rbp), %rax
 220 00b1 C6800C01 		movb	$0, 268(%rax)
 220      000000
  28:RecordingReporter.h ****         lastFailedFile[0] = '\0';
 221              		.loc 4 28 0
 222 00b8 488B45F8 		movq	-8(%rbp), %rax
 223 00bc C6801002 		movb	$0, 528(%rax)
 223      000000
  29:RecordingReporter.h ****         lastFailedSuite[0] = '\0';
 224              		.loc 4 29 0
 225 00c3 488B45F8 		movq	-8(%rbp), %rax
 226 00c7 C6801403 		movb	$0, 788(%rax)
 226      000000
  30:RecordingReporter.h ****         lastFailedTest[0] = '\0';
 227              		.loc 4 30 0
 228 00ce 488B45F8 		movq	-8(%rbp), %rax
 229 00d2 C6801404 		movb	$0, 1044(%rax)
 229      000000
  31:RecordingReporter.h ****         lastFailedMessage[0] = '\0';
 230              		.loc 4 31 0
 231 00d9 488B45F8 		movq	-8(%rbp), %rax
 232 00dd C6801405 		movb	$0, 1300(%rax)
 232      000000
  32:RecordingReporter.h ****         lastFinishedSuite[0] = '\0';
 233              		.loc 4 32 0
 234 00e4 488B45F8 		movq	-8(%rbp), %rax
 235 00e8 C6801806 		movb	$0, 1560(%rax)
 235      000000
  33:RecordingReporter.h ****         lastFinishedTest[0] = '\0';
 236              		.loc 4 33 0
 237 00ef 488B45F8 		movq	-8(%rbp), %rax
 238 00f3 C6801807 		movb	$0, 1816(%rax)
 238      000000
 239              	.LBE5:
  34:RecordingReporter.h ****     }
 240              		.loc 4 34 0
 241 00fa 90       		nop
 242 00fb C9       		leave
 243              		.cfi_def_cfa 7, 8
 244 00fc C3       		ret
 245              		.cfi_endproc
 246              	.LFE1092:
 248              		.weak	_ZN17RecordingReporterC1Ev
 249              		.set	_ZN17RecordingReporterC1Ev,_ZN17RecordingReporterC2Ev
 250              		.section	.text._ZN17RecordingReporter15ReportTestStartERKN8UnitTest11TestDetailsE,"axG",@progbits,
 251              		.align 2
 252              		.weak	_ZN17RecordingReporter15ReportTestStartERKN8UnitTest11TestDetailsE
 254              	_ZN17RecordingReporter15ReportTestStartERKN8UnitTest11TestDetailsE:
 255              	.LFB1094:
  35:RecordingReporter.h **** 
  36:RecordingReporter.h ****     virtual void ReportTestStart(UnitTest::TestDetails const& test)
 256              		.loc 4 36 0
 257              		.cfi_startproc
 258 0000 55       		pushq	%rbp
 259              		.cfi_def_cfa_offset 16
 260              		.cfi_offset 6, -16
 261 0001 4889E5   		movq	%rsp, %rbp
 262              		.cfi_def_cfa_register 6
 263 0004 4883EC10 		subq	$16, %rsp
 264 0008 48897DF8 		movq	%rdi, -8(%rbp)
 265 000c 488975F0 		movq	%rsi, -16(%rbp)
  37:RecordingReporter.h ****     {
  38:RecordingReporter.h **** 		using namespace std;
  39:RecordingReporter.h **** 
  40:RecordingReporter.h ****         ++testRunCount;
 266              		.loc 4 40 0
 267 0010 488B45F8 		movq	-8(%rbp), %rax
 268 0014 8B4008   		movl	8(%rax), %eax
 269 0017 8D5001   		leal	1(%rax), %edx
 270 001a 488B45F8 		movq	-8(%rbp), %rax
 271 001e 895008   		movl	%edx, 8(%rax)
  41:RecordingReporter.h ****         strcpy(lastStartedSuite, test.suiteName);
 272              		.loc 4 41 0
 273 0021 488B45F0 		movq	-16(%rbp), %rax
 274 0025 488B00   		movq	(%rax), %rax
 275 0028 488B55F8 		movq	-8(%rbp), %rdx
 276 002c 4883C20C 		addq	$12, %rdx
 277 0030 4889C6   		movq	%rax, %rsi
 278 0033 4889D7   		movq	%rdx, %rdi
 279 0036 E8000000 		call	strcpy@PLT
 279      00
  42:RecordingReporter.h ****         strcpy(lastStartedTest, test.testName);
 280              		.loc 4 42 0
 281 003b 488B45F0 		movq	-16(%rbp), %rax
 282 003f 488B4008 		movq	8(%rax), %rax
 283 0043 488B55F8 		movq	-8(%rbp), %rdx
 284 0047 4881C20C 		addq	$268, %rdx
 284      010000
 285 004e 4889C6   		movq	%rax, %rsi
 286 0051 4889D7   		movq	%rdx, %rdi
 287 0054 E8000000 		call	strcpy@PLT
 287      00
  43:RecordingReporter.h ****     }
 288              		.loc 4 43 0
 289 0059 90       		nop
 290 005a C9       		leave
 291              		.cfi_def_cfa 7, 8
 292 005b C3       		ret
 293              		.cfi_endproc
 294              	.LFE1094:
 296              		.section	.text._ZN17RecordingReporter13ReportFailureERKN8UnitTest11TestDetailsEPKc,"axG",@progbits
 297              		.align 2
 298              		.weak	_ZN17RecordingReporter13ReportFailureERKN8UnitTest11TestDetailsEPKc
 300              	_ZN17RecordingReporter13ReportFailureERKN8UnitTest11TestDetailsEPKc:
 301              	.LFB1095:
  44:RecordingReporter.h **** 
  45:RecordingReporter.h ****     virtual void ReportFailure(UnitTest::TestDetails const& test, char const* failure)
 302              		.loc 4 45 0
 303              		.cfi_startproc
 304 0000 55       		pushq	%rbp
 305              		.cfi_def_cfa_offset 16
 306              		.cfi_offset 6, -16
 307 0001 4889E5   		movq	%rsp, %rbp
 308              		.cfi_def_cfa_register 6
 309 0004 4883EC20 		subq	$32, %rsp
 310 0008 48897DF8 		movq	%rdi, -8(%rbp)
 311 000c 488975F0 		movq	%rsi, -16(%rbp)
 312 0010 488955E8 		movq	%rdx, -24(%rbp)
  46:RecordingReporter.h ****     {
  47:RecordingReporter.h **** 		using namespace std;
  48:RecordingReporter.h **** 
  49:RecordingReporter.h **** 		++testFailedCount;
 313              		.loc 4 49 0
 314 0014 488B45F8 		movq	-8(%rbp), %rax
 315 0018 8B800C02 		movl	524(%rax), %eax
 315      0000
 316 001e 8D5001   		leal	1(%rax), %edx
 317 0021 488B45F8 		movq	-8(%rbp), %rax
 318 0025 89900C02 		movl	%edx, 524(%rax)
 318      0000
  50:RecordingReporter.h ****         strcpy(lastFailedFile, test.filename);
 319              		.loc 4 50 0
 320 002b 488B45F0 		movq	-16(%rbp), %rax
 321 002f 488B4010 		movq	16(%rax), %rax
 322 0033 488B55F8 		movq	-8(%rbp), %rdx
 323 0037 4881C210 		addq	$528, %rdx
 323      020000
 324 003e 4889C6   		movq	%rax, %rsi
 325 0041 4889D7   		movq	%rdx, %rdi
 326 0044 E8000000 		call	strcpy@PLT
 326      00
  51:RecordingReporter.h ****         lastFailedLine = test.lineNumber;
 327              		.loc 4 51 0
 328 0049 488B45F0 		movq	-16(%rbp), %rax
 329 004d 8B5018   		movl	24(%rax), %edx
 330 0050 488B45F8 		movq	-8(%rbp), %rax
 331 0054 89901003 		movl	%edx, 784(%rax)
 331      0000
  52:RecordingReporter.h ****         strcpy(lastFailedSuite, test.suiteName);
 332              		.loc 4 52 0
 333 005a 488B45F0 		movq	-16(%rbp), %rax
 334 005e 488B00   		movq	(%rax), %rax
 335 0061 488B55F8 		movq	-8(%rbp), %rdx
 336 0065 4881C214 		addq	$788, %rdx
 336      030000
 337 006c 4889C6   		movq	%rax, %rsi
 338 006f 4889D7   		movq	%rdx, %rdi
 339 0072 E8000000 		call	strcpy@PLT
 339      00
  53:RecordingReporter.h ****         strcpy(lastFailedTest, test.testName);
 340              		.loc 4 53 0
 341 0077 488B45F0 		movq	-16(%rbp), %rax
 342 007b 488B4008 		movq	8(%rax), %rax
 343 007f 488B55F8 		movq	-8(%rbp), %rdx
 344 0083 4881C214 		addq	$1044, %rdx
 344      040000
 345 008a 4889C6   		movq	%rax, %rsi
 346 008d 4889D7   		movq	%rdx, %rdi
 347 0090 E8000000 		call	strcpy@PLT
 347      00
  54:RecordingReporter.h ****         strcpy(lastFailedMessage, failure);
 348              		.loc 4 54 0
 349 0095 488B45F8 		movq	-8(%rbp), %rax
 350 0099 488D9014 		leaq	1300(%rax), %rdx
 350      050000
 351 00a0 488B45E8 		movq	-24(%rbp), %rax
 352 00a4 4889C6   		movq	%rax, %rsi
 353 00a7 4889D7   		movq	%rdx, %rdi
 354 00aa E8000000 		call	strcpy@PLT
 354      00
  55:RecordingReporter.h ****     }
 355              		.loc 4 55 0
 356 00af 90       		nop
 357 00b0 C9       		leave
 358              		.cfi_def_cfa 7, 8
 359 00b1 C3       		ret
 360              		.cfi_endproc
 361              	.LFE1095:
 363              		.section	.text._ZN17RecordingReporter16ReportTestFinishERKN8UnitTest11TestDetailsEf,"axG",@progbit
 364              		.align 2
 365              		.weak	_ZN17RecordingReporter16ReportTestFinishERKN8UnitTest11TestDetailsEf
 367              	_ZN17RecordingReporter16ReportTestFinishERKN8UnitTest11TestDetailsEf:
 368              	.LFB1096:
  56:RecordingReporter.h **** 
  57:RecordingReporter.h ****     virtual void ReportTestFinish(UnitTest::TestDetails const& test, float testDuration)
 369              		.loc 4 57 0
 370              		.cfi_startproc
 371 0000 55       		pushq	%rbp
 372              		.cfi_def_cfa_offset 16
 373              		.cfi_offset 6, -16
 374 0001 4889E5   		movq	%rsp, %rbp
 375              		.cfi_def_cfa_register 6
 376 0004 4883EC20 		subq	$32, %rsp
 377 0008 48897DF8 		movq	%rdi, -8(%rbp)
 378 000c 488975F0 		movq	%rsi, -16(%rbp)
 379 0010 F30F1145 		movss	%xmm0, -20(%rbp)
 379      EC
  58:RecordingReporter.h ****     {
  59:RecordingReporter.h **** 		using namespace std;
  60:RecordingReporter.h **** 
  61:RecordingReporter.h **** 		++testFinishedCount;
 380              		.loc 4 61 0
 381 0015 488B45F8 		movq	-8(%rbp), %rax
 382 0019 8B801406 		movl	1556(%rax), %eax
 382      0000
 383 001f 8D5001   		leal	1(%rax), %edx
 384 0022 488B45F8 		movq	-8(%rbp), %rax
 385 0026 89901406 		movl	%edx, 1556(%rax)
 385      0000
  62:RecordingReporter.h ****         strcpy(lastFinishedSuite, test.suiteName);
 386              		.loc 4 62 0
 387 002c 488B45F0 		movq	-16(%rbp), %rax
 388 0030 488B00   		movq	(%rax), %rax
 389 0033 488B55F8 		movq	-8(%rbp), %rdx
 390 0037 4881C218 		addq	$1560, %rdx
 390      060000
 391 003e 4889C6   		movq	%rax, %rsi
 392 0041 4889D7   		movq	%rdx, %rdi
 393 0044 E8000000 		call	strcpy@PLT
 393      00
  63:RecordingReporter.h ****         strcpy(lastFinishedTest, test.testName);
 394              		.loc 4 63 0
 395 0049 488B45F0 		movq	-16(%rbp), %rax
 396 004d 488B4008 		movq	8(%rax), %rax
 397 0051 488B55F8 		movq	-8(%rbp), %rdx
 398 0055 4881C218 		addq	$1816, %rdx
 398      070000
 399 005c 4889C6   		movq	%rax, %rsi
 400 005f 4889D7   		movq	%rdx, %rdi
 401 0062 E8000000 		call	strcpy@PLT
 401      00
  64:RecordingReporter.h ****         lastFinishedTestTime = testDuration;
 402              		.loc 4 64 0
 403 0067 488B45F8 		movq	-8(%rbp), %rax
 404 006b F30F1045 		movss	-20(%rbp), %xmm0
 404      EC
 405 0070 F30F1180 		movss	%xmm0, 2072(%rax)
 405      18080000 
  65:RecordingReporter.h ****     }
 406              		.loc 4 65 0
 407 0078 90       		nop
 408 0079 C9       		leave
 409              		.cfi_def_cfa 7, 8
 410 007a C3       		ret
 411              		.cfi_endproc
 412              	.LFE1096:
 414              		.section	.text._ZN17RecordingReporter13ReportSummaryEiiif,"axG",@progbits,_ZN17RecordingReporter13
 415              		.align 2
 416              		.weak	_ZN17RecordingReporter13ReportSummaryEiiif
 418              	_ZN17RecordingReporter13ReportSummaryEiiif:
 419              	.LFB1097:
  66:RecordingReporter.h **** 
  67:RecordingReporter.h ****     virtual void ReportSummary(int totalTestCount, int failedTestCount, int failureCount, float sec
 420              		.loc 4 67 0
 421              		.cfi_startproc
 422 0000 55       		pushq	%rbp
 423              		.cfi_def_cfa_offset 16
 424              		.cfi_offset 6, -16
 425 0001 4889E5   		movq	%rsp, %rbp
 426              		.cfi_def_cfa_register 6
 427 0004 48897DF8 		movq	%rdi, -8(%rbp)
 428 0008 8975F4   		movl	%esi, -12(%rbp)
 429 000b 8955F0   		movl	%edx, -16(%rbp)
 430 000e 894DEC   		movl	%ecx, -20(%rbp)
 431 0011 F30F1145 		movss	%xmm0, -24(%rbp)
 431      E8
  68:RecordingReporter.h ****     {
  69:RecordingReporter.h ****         summaryTotalTestCount = totalTestCount;
 432              		.loc 4 69 0
 433 0016 488B45F8 		movq	-8(%rbp), %rax
 434 001a 8B55F4   		movl	-12(%rbp), %edx
 435 001d 89901C08 		movl	%edx, 2076(%rax)
 435      0000
  70:RecordingReporter.h ****         summaryFailedTestCount = failedTestCount;
 436              		.loc 4 70 0
 437 0023 488B45F8 		movq	-8(%rbp), %rax
 438 0027 8B55F0   		movl	-16(%rbp), %edx
 439 002a 89902008 		movl	%edx, 2080(%rax)
 439      0000
  71:RecordingReporter.h ****         summaryFailureCount = failureCount;
 440              		.loc 4 71 0
 441 0030 488B45F8 		movq	-8(%rbp), %rax
 442 0034 8B55EC   		movl	-20(%rbp), %edx
 443 0037 89902408 		movl	%edx, 2084(%rax)
 443      0000
  72:RecordingReporter.h ****         summarySecondsElapsed = secondsElapsed;
 444              		.loc 4 72 0
 445 003d 488B45F8 		movq	-8(%rbp), %rax
 446 0041 F30F1045 		movss	-24(%rbp), %xmm0
 446      E8
 447 0046 F30F1180 		movss	%xmm0, 2088(%rax)
 447      28080000 
  73:RecordingReporter.h ****     }
 448              		.loc 4 73 0
 449 004e 90       		nop
 450 004f 5D       		popq	%rbp
 451              		.cfi_def_cfa 7, 8
 452 0050 C3       		ret
 453              		.cfi_endproc
 454              	.LFE1097:
 456              		.section	.text._ZN17ScopedCurrentTestC2ERN8UnitTest11TestResultsEPKNS0_11TestDetailsE,"axG",@progb
 457              		.align 2
 458              		.weak	_ZN17ScopedCurrentTestC2ERN8UnitTest11TestResultsEPKNS0_11TestDetailsE
 460              	_ZN17ScopedCurrentTestC2ERN8UnitTest11TestResultsEPKNS0_11TestDetailsE:
 461              	.LFB1102:
 462              		.file 5 "ScopedCurrentTest.h"
   1:ScopedCurrentTest.h **** #ifndef UNITTEST_SCOPEDCURRENTTEST_H
   2:ScopedCurrentTest.h **** #define UNITTEST_SCOPEDCURRENTTEST_H
   3:ScopedCurrentTest.h **** 
   4:ScopedCurrentTest.h **** #include "../CurrentTest.h"
   5:ScopedCurrentTest.h **** #include <cstddef>
   6:ScopedCurrentTest.h **** 
   7:ScopedCurrentTest.h **** class ScopedCurrentTest
   8:ScopedCurrentTest.h **** {
   9:ScopedCurrentTest.h **** public:
  10:ScopedCurrentTest.h **** 	ScopedCurrentTest()
  11:ScopedCurrentTest.h **** 		: m_oldTestResults(UnitTest::CurrentTest::Results())
  12:ScopedCurrentTest.h **** 		, m_oldTestDetails(UnitTest::CurrentTest::Details())
  13:ScopedCurrentTest.h **** 	{
  14:ScopedCurrentTest.h **** 	}
  15:ScopedCurrentTest.h **** 
  16:ScopedCurrentTest.h **** 	explicit ScopedCurrentTest(UnitTest::TestResults& newResults, const UnitTest::TestDetails* newDeta
 463              		.loc 5 16 0
 464              		.cfi_startproc
 465 0000 55       		pushq	%rbp
 466              		.cfi_def_cfa_offset 16
 467              		.cfi_offset 6, -16
 468 0001 4889E5   		movq	%rsp, %rbp
 469              		.cfi_def_cfa_register 6
 470 0004 4883EC20 		subq	$32, %rsp
 471 0008 48897DF8 		movq	%rdi, -8(%rbp)
 472 000c 488975F0 		movq	%rsi, -16(%rbp)
 473 0010 488955E8 		movq	%rdx, -24(%rbp)
 474              	.LBB6:
  17:ScopedCurrentTest.h **** 		: m_oldTestResults(UnitTest::CurrentTest::Results())
 475              		.loc 5 17 0
 476 0014 E8000000 		call	_ZN8UnitTest11CurrentTest7ResultsEv@PLT
 476      00
 477 0019 488B10   		movq	(%rax), %rdx
  18:ScopedCurrentTest.h **** 		, m_oldTestDetails(UnitTest::CurrentTest::Details())
 478              		.loc 5 18 0
 479 001c 488B45F8 		movq	-8(%rbp), %rax
 480 0020 488910   		movq	%rdx, (%rax)
 481 0023 E8000000 		call	_ZN8UnitTest11CurrentTest7DetailsEv@PLT
 481      00
 482 0028 488B10   		movq	(%rax), %rdx
 483 002b 488B45F8 		movq	-8(%rbp), %rax
 484 002f 48895008 		movq	%rdx, 8(%rax)
  19:ScopedCurrentTest.h **** 	{
  20:ScopedCurrentTest.h **** 		UnitTest::CurrentTest::Results() = &newResults;
 485              		.loc 5 20 0
 486 0033 E8000000 		call	_ZN8UnitTest11CurrentTest7ResultsEv@PLT
 486      00
 487 0038 4889C2   		movq	%rax, %rdx
 488 003b 488B45F0 		movq	-16(%rbp), %rax
 489 003f 488902   		movq	%rax, (%rdx)
  21:ScopedCurrentTest.h **** 
  22:ScopedCurrentTest.h **** 		if (newDetails != NULL)
 490              		.loc 5 22 0
 491 0042 48837DE8 		cmpq	$0, -24(%rbp)
 491      00
 492 0047 740F     		je	.L18
  23:ScopedCurrentTest.h **** 			UnitTest::CurrentTest::Details() = newDetails;
 493              		.loc 5 23 0
 494 0049 E8000000 		call	_ZN8UnitTest11CurrentTest7DetailsEv@PLT
 494      00
 495 004e 4889C2   		movq	%rax, %rdx
 496 0051 488B45E8 		movq	-24(%rbp), %rax
 497 0055 488902   		movq	%rax, (%rdx)
 498              	.L18:
 499              	.LBE6:
  24:ScopedCurrentTest.h **** 	}
 500              		.loc 5 24 0
 501 0058 90       		nop
 502 0059 C9       		leave
 503              		.cfi_def_cfa 7, 8
 504 005a C3       		ret
 505              		.cfi_endproc
 506              	.LFE1102:
 508              		.weak	_ZN17ScopedCurrentTestC1ERN8UnitTest11TestResultsEPKNS0_11TestDetailsE
 509              		.set	_ZN17ScopedCurrentTestC1ERN8UnitTest11TestResultsEPKNS0_11TestDetailsE,_ZN17ScopedCurrentTest
 510              		.section	.text._ZN17ScopedCurrentTestD2Ev,"axG",@progbits,_ZN17ScopedCurrentTestD5Ev,comdat
 511              		.align 2
 512              		.weak	_ZN17ScopedCurrentTestD2Ev
 514              	_ZN17ScopedCurrentTestD2Ev:
 515              	.LFB1105:
  25:ScopedCurrentTest.h **** 
  26:ScopedCurrentTest.h **** 	~ScopedCurrentTest()
 516              		.loc 5 26 0
 517              		.cfi_startproc
 518 0000 55       		pushq	%rbp
 519              		.cfi_def_cfa_offset 16
 520              		.cfi_offset 6, -16
 521 0001 4889E5   		movq	%rsp, %rbp
 522              		.cfi_def_cfa_register 6
 523 0004 4883EC10 		subq	$16, %rsp
 524 0008 48897DF8 		movq	%rdi, -8(%rbp)
 525              	.LBB7:
  27:ScopedCurrentTest.h **** 	{
  28:ScopedCurrentTest.h **** 		UnitTest::CurrentTest::Results() = m_oldTestResults;
 526              		.loc 5 28 0
 527 000c E8000000 		call	_ZN8UnitTest11CurrentTest7ResultsEv@PLT
 527      00
 528 0011 4889C2   		movq	%rax, %rdx
 529 0014 488B45F8 		movq	-8(%rbp), %rax
 530 0018 488B00   		movq	(%rax), %rax
 531 001b 488902   		movq	%rax, (%rdx)
  29:ScopedCurrentTest.h **** 		UnitTest::CurrentTest::Details() = m_oldTestDetails;
 532              		.loc 5 29 0
 533 001e E8000000 		call	_ZN8UnitTest11CurrentTest7DetailsEv@PLT
 533      00
 534 0023 4889C2   		movq	%rax, %rdx
 535 0026 488B45F8 		movq	-8(%rbp), %rax
 536 002a 488B4008 		movq	8(%rax), %rax
 537 002e 488902   		movq	%rax, (%rdx)
 538              	.LBE7:
  30:ScopedCurrentTest.h **** 	}
 539              		.loc 5 30 0
 540 0031 90       		nop
 541 0032 C9       		leave
 542              		.cfi_def_cfa 7, 8
 543 0033 C3       		ret
 544              		.cfi_endproc
 545              	.LFE1105:
 547              		.weak	_ZN17ScopedCurrentTestD1Ev
 548              		.set	_ZN17ScopedCurrentTestD1Ev,_ZN17ScopedCurrentTestD2Ev
 549              		.local	_ZN12_GLOBAL__N_15list1E
 550              		.comm	_ZN12_GLOBAL__N_15list1E,16,16
 551              		.section	.rodata
 552              	.LC2:
 553 000d 54657374 		.string	"TestTestMacros.cpp"
 553      54657374 
 553      4D616372 
 553      6F732E63 
 553      707000
 554              	.LC3:
 555 0020 44756D6D 		.string	"DummyTest"
 555      79546573 
 555      7400
 556              		.text
 557              		.align 2
 559              	_ZN12_GLOBAL__N_113TestDummyTestC2Ev:
 560              	.LFB1108:
 561              		.file 6 "TestTestMacros.cpp"
   1:TestTestMacros.cpp **** #include "../UnitTest++.h"
   2:TestTestMacros.cpp **** #include "../TestMacros.h"
   3:TestTestMacros.cpp **** #include "../TestList.h"
   4:TestTestMacros.cpp **** #include "../TestResults.h"
   5:TestTestMacros.cpp **** #include "../TestReporter.h"
   6:TestTestMacros.cpp **** #include "../ReportAssert.h"
   7:TestTestMacros.cpp **** #include "RecordingReporter.h"
   8:TestTestMacros.cpp **** #include "ScopedCurrentTest.h"
   9:TestTestMacros.cpp **** 
  10:TestTestMacros.cpp **** using namespace UnitTest;
  11:TestTestMacros.cpp **** 
  12:TestTestMacros.cpp **** namespace {
  13:TestTestMacros.cpp **** 
  14:TestTestMacros.cpp **** TestList list1;
  15:TestTestMacros.cpp **** TEST_EX(DummyTest, list1)
 562              		.loc 6 15 0
 563              		.cfi_startproc
 564 0000 55       		pushq	%rbp
 565              		.cfi_def_cfa_offset 16
 566              		.cfi_offset 6, -16
 567 0001 4889E5   		movq	%rsp, %rbp
 568              		.cfi_def_cfa_register 6
 569 0004 53       		pushq	%rbx
 570 0005 4883EC18 		subq	$24, %rsp
 571              		.cfi_offset 3, -24
 572 0009 48897DE8 		movq	%rdi, -24(%rbp)
 573              	.LBB8:
 574              		.loc 6 15 0
 575 000d 488B5DE8 		movq	-24(%rbp), %rbx
 576 0011 E8000000 		call	_ZN13UnitTestSuite12GetSuiteNameEv
 576      00
 577 0016 41B80F00 		movl	$15, %r8d
 577      0000
 578 001c 488D0D00 		leaq	.LC2(%rip), %rcx
 578      000000
 579 0023 4889C2   		movq	%rax, %rdx
 580 0026 488D3500 		leaq	.LC3(%rip), %rsi
 580      000000
 581 002d 4889DF   		movq	%rbx, %rdi
 582 0030 E8000000 		call	_ZN8UnitTest4TestC2EPKcS2_S2_i@PLT
 582      00
 583 0035 488D1500 		leaq	16+_ZTVN12_GLOBAL__N_113TestDummyTestE(%rip), %rdx
 583      000000
 584 003c 488B45E8 		movq	-24(%rbp), %rax
 585 0040 488910   		movq	%rdx, (%rax)
 586              	.LBE8:
 587 0043 90       		nop
 588 0044 4883C418 		addq	$24, %rsp
 589 0048 5B       		popq	%rbx
 590 0049 5D       		popq	%rbp
 591              		.cfi_def_cfa 7, 8
 592 004a C3       		ret
 593              		.cfi_endproc
 594              	.LFE1108:
 596              		.set	_ZN12_GLOBAL__N_113TestDummyTestC1Ev,_ZN12_GLOBAL__N_113TestDummyTestC2Ev
 597              		.local	_ZN12_GLOBAL__N_121testDummyTestInstanceE
 598              		.comm	_ZN12_GLOBAL__N_121testDummyTestInstanceE,56,32
 599              		.local	_ZN12_GLOBAL__N_114adderDummyTestE
 600              		.comm	_ZN12_GLOBAL__N_114adderDummyTestE,1,1
 601 004b 90       		.align 2
 603              	_ZNK12_GLOBAL__N_113TestDummyTest7RunImplEv:
 604              	.LFB1110:
  16:TestTestMacros.cpp **** {
 605              		.loc 6 16 0
 606              		.cfi_startproc
 607 004c 55       		pushq	%rbp
 608              		.cfi_def_cfa_offset 16
 609              		.cfi_offset 6, -16
 610 004d 4889E5   		movq	%rsp, %rbp
 611              		.cfi_def_cfa_register 6
 612 0050 48897DF8 		movq	%rdi, -8(%rbp)
  17:TestTestMacros.cpp **** }
 613              		.loc 6 17 0
 614 0054 90       		nop
 615 0055 5D       		popq	%rbp
 616              		.cfi_def_cfa 7, 8
 617 0056 C3       		ret
 618              		.cfi_endproc
 619              	.LFE1110:
 621              		.section	.rodata
 622 002a 00000000 		.align 8
 622      0000
 623              	.LC4:
 624 0030 54657374 		.string	"TestsAreAddedToTheListThroughMacro"
 624      73417265 
 624      41646465 
 624      64546F54 
 624      68654C69 
 625              		.text
 626 0057 90       		.align 2
 628              	_ZN12_GLOBAL__N_138TestTestsAreAddedToTheListThroughMacroC2Ev:
 629              	.LFB1112:
  18:TestTestMacros.cpp **** 
  19:TestTestMacros.cpp **** TEST (TestsAreAddedToTheListThroughMacro)
 630              		.loc 6 19 0
 631              		.cfi_startproc
 632 0058 55       		pushq	%rbp
 633              		.cfi_def_cfa_offset 16
 634              		.cfi_offset 6, -16
 635 0059 4889E5   		movq	%rsp, %rbp
 636              		.cfi_def_cfa_register 6
 637 005c 53       		pushq	%rbx
 638 005d 4883EC18 		subq	$24, %rsp
 639              		.cfi_offset 3, -24
 640 0061 48897DE8 		movq	%rdi, -24(%rbp)
 641              	.LBB9:
 642              		.loc 6 19 0
 643 0065 488B5DE8 		movq	-24(%rbp), %rbx
 644 0069 E8000000 		call	_ZN13UnitTestSuite12GetSuiteNameEv
 644      00
 645 006e 41B81300 		movl	$19, %r8d
 645      0000
 646 0074 488D0D00 		leaq	.LC2(%rip), %rcx
 646      000000
 647 007b 4889C2   		movq	%rax, %rdx
 648 007e 488D3500 		leaq	.LC4(%rip), %rsi
 648      000000
 649 0085 4889DF   		movq	%rbx, %rdi
 650 0088 E8000000 		call	_ZN8UnitTest4TestC2EPKcS2_S2_i@PLT
 650      00
 651 008d 488D1500 		leaq	16+_ZTVN12_GLOBAL__N_138TestTestsAreAddedToTheListThroughMacroE(%rip), %rdx
 651      000000
 652 0094 488B45E8 		movq	-24(%rbp), %rax
 653 0098 488910   		movq	%rdx, (%rax)
 654              	.LBE9:
 655 009b 90       		nop
 656 009c 4883C418 		addq	$24, %rsp
 657 00a0 5B       		popq	%rbx
 658 00a1 5D       		popq	%rbp
 659              		.cfi_def_cfa 7, 8
 660 00a2 C3       		ret
 661              		.cfi_endproc
 662              	.LFE1112:
 664              		.set	_ZN12_GLOBAL__N_138TestTestsAreAddedToTheListThroughMacroC1Ev,_ZN12_GLOBAL__N_138TestTestsAre
 665              		.local	_ZN12_GLOBAL__N_146testTestsAreAddedToTheListThroughMacroInstanceE
 666              		.comm	_ZN12_GLOBAL__N_146testTestsAreAddedToTheListThroughMacroInstanceE,56,32
 667              		.local	_ZN12_GLOBAL__N_139adderTestsAreAddedToTheListThroughMacroE
 668              		.comm	_ZN12_GLOBAL__N_139adderTestsAreAddedToTheListThroughMacroE,1,1
 669              		.section	.rodata
 670              	.LC5:
 671 0053 6C697374 		.string	"list1.GetHead() != 0"
 671      312E4765 
 671      74486561 
 671      64282920 
 671      213D2030 
 672              	.LC6:
 673 0068 6C697374 		.string	"list1.GetHead()->next == 0"
 673      312E4765 
 673      74486561 
 673      6428292D 
 673      3E6E6578 
 674 0083 00000000 		.align 8
 674      00
 675              	.LC7:
 676 0088 556E6861 		.string	"Unhandled exception in CHECK(list1.GetHead() != 0)"
 676      6E646C65 
 676      64206578 
 676      63657074 
 676      696F6E20 
 677 00bb 00000000 		.align 8
 677      00
 678              	.LC8:
 679 00c0 556E6861 		.string	"Unhandled exception in CHECK(list1.GetHead()->next == 0)"
 679      6E646C65 
 679      64206578 
 679      63657074 
 679      696F6E20 
 680              		.text
 681 00a3 90       		.align 2
 683              	_ZNK12_GLOBAL__N_138TestTestsAreAddedToTheListThroughMacro7RunImplEv:
 684              	.LFB1114:
  20:TestTestMacros.cpp **** {
 685              		.loc 6 20 0
 686              		.cfi_startproc
 687              		.cfi_personality 0x9b,DW.ref.__gxx_personality_v0
 688              		.cfi_lsda 0x1b,.LLSDA1114
 689 00a4 55       		pushq	%rbp
 690              		.cfi_def_cfa_offset 16
 691              		.cfi_offset 6, -16
 692 00a5 4889E5   		movq	%rsp, %rbp
 693              		.cfi_def_cfa_register 6
 694 00a8 53       		pushq	%rbx
 695 00a9 4883EC48 		subq	$72, %rsp
 696              		.cfi_offset 3, -24
 697 00ad 48897DB8 		movq	%rdi, -72(%rbp)
 698              		.loc 6 20 0
 699 00b1 64488B04 		movq	%fs:40, %rax
 699      25280000 
 699      00
 700 00ba 488945E8 		movq	%rax, -24(%rbp)
 701 00be 31C0     		xorl	%eax, %eax
  21:TestTestMacros.cpp ****     CHECK(list1.GetHead() != 0);
 702              		.loc 6 21 0
 703 00c0 488D3D00 		leaq	_ZN12_GLOBAL__N_15list1E(%rip), %rdi
 703      000000
 704              	.LEHB4:
 705 00c7 E8000000 		call	_ZNK8UnitTest8TestList7GetHeadEv@PLT
 705      00
 706 00cc 4885C0   		testq	%rax, %rax
 707 00cf 0F95C0   		setne	%al
 708 00d2 0FB6C0   		movzbl	%al, %eax
 709 00d5 89C7     		movl	%eax, %edi
 710 00d7 E8000000 		call	_ZN8UnitTest5CheckIbEEbT_
 710      00
 711 00dc 83F001   		xorl	$1, %eax
 712 00df 84C0     		testb	%al, %al
 713 00e1 743A     		je	.L24
 714              		.loc 6 21 0 is_stmt 0 discriminator 2
 715 00e3 E8000000 		call	_ZN8UnitTest11CurrentTest7ResultsEv@PLT
 715      00
 716 00e8 488B18   		movq	(%rax), %rbx
 717 00eb E8000000 		call	_ZN8UnitTest11CurrentTest7DetailsEv@PLT
 717      00
 718              		.loc 6 21 0 discriminator 3
 719 00f0 488B08   		movq	(%rax), %rcx
 720 00f3 488D45C0 		leaq	-64(%rbp), %rax
 721 00f7 BA150000 		movl	$21, %edx
 721      00
 722 00fc 4889CE   		movq	%rcx, %rsi
 723 00ff 4889C7   		movq	%rax, %rdi
 724 0102 E8000000 		call	_ZN8UnitTest11TestDetailsC1ERKS0_i@PLT
 724      00
 725              		.loc 6 21 0 discriminator 5
 726 0107 488D45C0 		leaq	-64(%rbp), %rax
 727 010b 488D1500 		leaq	.LC5(%rip), %rdx
 727      000000
 728 0112 4889C6   		movq	%rax, %rsi
 729 0115 4889DF   		movq	%rbx, %rdi
 730 0118 E8000000 		call	_ZN8UnitTest11TestResults13OnTestFailureERKNS_11TestDetailsEPKc@PLT
 730      00
 731              	.LEHE4:
 732              	.L24:
  22:TestTestMacros.cpp ****     CHECK(list1.GetHead()->next == 0);
 733              		.loc 6 22 0 is_stmt 1
 734 011d 488D3D00 		leaq	_ZN12_GLOBAL__N_15list1E(%rip), %rdi
 734      000000
 735              	.LEHB5:
 736 0124 E8000000 		call	_ZNK8UnitTest8TestList7GetHeadEv@PLT
 736      00
 737 0129 488B4028 		movq	40(%rax), %rax
 738 012d 4885C0   		testq	%rax, %rax
 739 0130 0F94C0   		sete	%al
 740 0133 0FB6C0   		movzbl	%al, %eax
 741 0136 89C7     		movl	%eax, %edi
 742 0138 E8000000 		call	_ZN8UnitTest5CheckIbEEbT_
 742      00
 743 013d 83F001   		xorl	$1, %eax
 744 0140 84C0     		testb	%al, %al
 745 0142 0F84FA00 		je	.L35
 745      0000
 746              		.loc 6 22 0 is_stmt 0 discriminator 2
 747 0148 E8000000 		call	_ZN8UnitTest11CurrentTest7ResultsEv@PLT
 747      00
 748 014d 488B18   		movq	(%rax), %rbx
 749 0150 E8000000 		call	_ZN8UnitTest11CurrentTest7DetailsEv@PLT
 749      00
 750              		.loc 6 22 0 discriminator 3
 751 0155 488B08   		movq	(%rax), %rcx
 752 0158 488D45C0 		leaq	-64(%rbp), %rax
 753 015c BA160000 		movl	$22, %edx
 753      00
 754 0161 4889CE   		movq	%rcx, %rsi
 755 0164 4889C7   		movq	%rax, %rdi
 756 0167 E8000000 		call	_ZN8UnitTest11TestDetailsC1ERKS0_i@PLT
 756      00
 757              		.loc 6 22 0 discriminator 5
 758 016c 488D45C0 		leaq	-64(%rbp), %rax
 759 0170 488D1500 		leaq	.LC6(%rip), %rdx
 759      000000
 760 0177 4889C6   		movq	%rax, %rsi
 761 017a 4889DF   		movq	%rbx, %rdi
 762 017d E8000000 		call	_ZN8UnitTest11TestResults13OnTestFailureERKNS_11TestDetailsEPKc@PLT
 762      00
 763              	.LEHE5:
  23:TestTestMacros.cpp **** }
 764              		.loc 6 23 0 is_stmt 1
 765 0182 E9BB0000 		jmp	.L35
 765      00
 766              	.L31:
  21:TestTestMacros.cpp ****     CHECK(list1.GetHead() != 0);
 767              		.loc 6 21 0
 768 0187 4889C7   		movq	%rax, %rdi
 769 018a E8000000 		call	__cxa_begin_catch@PLT
 769      00
 770              	.LEHB6:
 771 018f E8000000 		call	_ZN8UnitTest11CurrentTest7ResultsEv@PLT
 771      00
 772 0194 488B18   		movq	(%rax), %rbx
 773 0197 E8000000 		call	_ZN8UnitTest11CurrentTest7DetailsEv@PLT
 773      00
  21:TestTestMacros.cpp ****     CHECK(list1.GetHead() != 0);
 774              		.loc 6 21 0 is_stmt 0 discriminator 9
 775 019c 488B08   		movq	(%rax), %rcx
 776 019f 488D45C0 		leaq	-64(%rbp), %rax
 777 01a3 BA150000 		movl	$21, %edx
 777      00
 778 01a8 4889CE   		movq	%rcx, %rsi
 779 01ab 4889C7   		movq	%rax, %rdi
 780 01ae E8000000 		call	_ZN8UnitTest11TestDetailsC1ERKS0_i@PLT
 780      00
  21:TestTestMacros.cpp ****     CHECK(list1.GetHead() != 0);
 781              		.loc 6 21 0 discriminator 13
 782 01b3 488D45C0 		leaq	-64(%rbp), %rax
 783 01b7 488D1500 		leaq	.LC7(%rip), %rdx
 783      000000
 784 01be 4889C6   		movq	%rax, %rsi
 785 01c1 4889DF   		movq	%rbx, %rdi
 786 01c4 E8000000 		call	_ZN8UnitTest11TestResults13OnTestFailureERKNS_11TestDetailsEPKc@PLT
 786      00
 787              	.LEHE6:
 788              	.LEHB7:
  21:TestTestMacros.cpp ****     CHECK(list1.GetHead() != 0);
 789              		.loc 6 21 0 discriminator 15
 790 01c9 E8000000 		call	__cxa_end_catch@PLT
 790      00
 791              	.LEHE7:
 792 01ce E94AFFFF 		jmp	.L24
 792      FF
 793              	.L32:
 794 01d3 4889C3   		movq	%rax, %rbx
  21:TestTestMacros.cpp ****     CHECK(list1.GetHead() != 0);
 795              		.loc 6 21 0
 796 01d6 E8000000 		call	__cxa_end_catch@PLT
 796      00
 797 01db 4889D8   		movq	%rbx, %rax
 798 01de 4889C7   		movq	%rax, %rdi
 799              	.LEHB8:
 800 01e1 E8000000 		call	_Unwind_Resume@PLT
 800      00
 801              	.LEHE8:
 802              	.L33:
  22:TestTestMacros.cpp ****     CHECK(list1.GetHead()->next == 0);
 803              		.loc 6 22 0 is_stmt 1
 804 01e6 4889C7   		movq	%rax, %rdi
 805 01e9 E8000000 		call	__cxa_begin_catch@PLT
 805      00
 806              	.LEHB9:
 807 01ee E8000000 		call	_ZN8UnitTest11CurrentTest7ResultsEv@PLT
 807      00
 808 01f3 488B18   		movq	(%rax), %rbx
 809 01f6 E8000000 		call	_ZN8UnitTest11CurrentTest7DetailsEv@PLT
 809      00
  22:TestTestMacros.cpp ****     CHECK(list1.GetHead()->next == 0);
 810              		.loc 6 22 0 is_stmt 0 discriminator 9
 811 01fb 488B08   		movq	(%rax), %rcx
 812 01fe 488D45C0 		leaq	-64(%rbp), %rax
 813 0202 BA160000 		movl	$22, %edx
 813      00
 814 0207 4889CE   		movq	%rcx, %rsi
 815 020a 4889C7   		movq	%rax, %rdi
 816 020d E8000000 		call	_ZN8UnitTest11TestDetailsC1ERKS0_i@PLT
 816      00
  22:TestTestMacros.cpp ****     CHECK(list1.GetHead()->next == 0);
 817              		.loc 6 22 0 discriminator 13
 818 0212 488D45C0 		leaq	-64(%rbp), %rax
 819 0216 488D1500 		leaq	.LC8(%rip), %rdx
 819      000000
 820 021d 4889C6   		movq	%rax, %rsi
 821 0220 4889DF   		movq	%rbx, %rdi
 822 0223 E8000000 		call	_ZN8UnitTest11TestResults13OnTestFailureERKNS_11TestDetailsEPKc@PLT
 822      00
 823              	.LEHE9:
 824              	.LEHB10:
  22:TestTestMacros.cpp ****     CHECK(list1.GetHead()->next == 0);
 825              		.loc 6 22 0 discriminator 15
 826 0228 E8000000 		call	__cxa_end_catch@PLT
 826      00
 827              	.LEHE10:
 828              		.loc 6 23 0 is_stmt 1 discriminator 15
 829 022d EB13     		jmp	.L35
 830              	.L34:
 831 022f 4889C3   		movq	%rax, %rbx
  22:TestTestMacros.cpp ****     CHECK(list1.GetHead()->next == 0);
 832              		.loc 6 22 0
 833 0232 E8000000 		call	__cxa_end_catch@PLT
 833      00
 834 0237 4889D8   		movq	%rbx, %rax
 835 023a 4889C7   		movq	%rax, %rdi
 836              	.LEHB11:
 837 023d E8000000 		call	_Unwind_Resume@PLT
 837      00
 838              	.LEHE11:
 839              	.L35:
 840              		.loc 6 23 0
 841 0242 90       		nop
 842 0243 488B45E8 		movq	-24(%rbp), %rax
 843 0247 64483304 		xorq	%fs:40, %rax
 843      25280000 
 843      00
 844 0250 7405     		je	.L30
 845 0252 E8000000 		call	__stack_chk_fail@PLT
 845      00
 846              	.L30:
 847 0257 4883C448 		addq	$72, %rsp
 848 025b 5B       		popq	%rbx
 849 025c 5D       		popq	%rbp
 850              		.cfi_def_cfa 7, 8
 851 025d C3       		ret
 852              		.cfi_endproc
 853              	.LFE1114:
 854              		.section	.gcc_except_table,"a",@progbits
 855              		.align 4
 856              	.LLSDA1114:
 857 0000 FF       		.byte	0xff
 858 0001 9B       		.byte	0x9b
 859 0002 35       		.uleb128 .LLSDATT1114-.LLSDATTD1114
 860              	.LLSDATTD1114:
 861 0003 01       		.byte	0x1
 862 0004 2B       		.uleb128 .LLSDACSE1114-.LLSDACSB1114
 863              	.LLSDACSB1114:
 864 0005 23       		.uleb128 .LEHB4-.LFB1114
 865 0006 56       		.uleb128 .LEHE4-.LEHB4
 866 0007 E301     		.uleb128 .L31-.LFB1114
 867 0009 01       		.uleb128 0x1
 868 000a 8001     		.uleb128 .LEHB5-.LFB1114
 869 000c 5E       		.uleb128 .LEHE5-.LEHB5
 870 000d C202     		.uleb128 .L33-.LFB1114
 871 000f 01       		.uleb128 0x1
 872 0010 EB01     		.uleb128 .LEHB6-.LFB1114
 873 0012 3A       		.uleb128 .LEHE6-.LEHB6
 874 0013 AF02     		.uleb128 .L32-.LFB1114
 875 0015 00       		.uleb128 0
 876 0016 A502     		.uleb128 .LEHB7-.LFB1114
 877 0018 05       		.uleb128 .LEHE7-.LEHB7
 878 0019 00       		.uleb128 0
 879 001a 00       		.uleb128 0
 880 001b BD02     		.uleb128 .LEHB8-.LFB1114
 881 001d 05       		.uleb128 .LEHE8-.LEHB8
 882 001e 00       		.uleb128 0
 883 001f 00       		.uleb128 0
 884 0020 CA02     		.uleb128 .LEHB9-.LFB1114
 885 0022 3A       		.uleb128 .LEHE9-.LEHB9
 886 0023 8B03     		.uleb128 .L34-.LFB1114
 887 0025 00       		.uleb128 0
 888 0026 8403     		.uleb128 .LEHB10-.LFB1114
 889 0028 05       		.uleb128 .LEHE10-.LEHB10
 890 0029 00       		.uleb128 0
 891 002a 00       		.uleb128 0
 892 002b 9903     		.uleb128 .LEHB11-.LFB1114
 893 002d 05       		.uleb128 .LEHE11-.LEHB11
 894 002e 00       		.uleb128 0
 895 002f 00       		.uleb128 0
 896              	.LLSDACSE1114:
 897 0030 01       		.byte	0x1
 898 0031 00       		.byte	0
 899 0032 0000     		.align 4
 900 0034 00000000 		.long	0
 901              	
 902              	.LLSDATT1114:
 903              		.text
 905              		.section	.rodata
 906              	.LC9:
 907 00f9 4F6F7073 		.string	"Oops"
 907      00
 908              		.text
 909              		.align 2
 911              	_ZN12_GLOBAL__N_115ThrowingThingieC2Ev:
 912              	.LFB1116:
  24:TestTestMacros.cpp **** 
  25:TestTestMacros.cpp **** struct ThrowingThingie
  26:TestTestMacros.cpp **** {
  27:TestTestMacros.cpp ****     ThrowingThingie() : dummy(false)
 913              		.loc 6 27 0
 914              		.cfi_startproc
 915 025e 55       		pushq	%rbp
 916              		.cfi_def_cfa_offset 16
 917              		.cfi_offset 6, -16
 918 025f 4889E5   		movq	%rsp, %rbp
 919              		.cfi_def_cfa_register 6
 920 0262 4883EC10 		subq	$16, %rsp
 921 0266 48897DF8 		movq	%rdi, -8(%rbp)
 922              	.LBB10:
 923              		.loc 6 27 0
 924 026a 488B45F8 		movq	-8(%rbp), %rax
 925 026e C60000   		movb	$0, (%rax)
  28:TestTestMacros.cpp ****     {
  29:TestTestMacros.cpp ****         if (!dummy)
 926              		.loc 6 29 0
 927 0271 488B45F8 		movq	-8(%rbp), %rax
 928 0275 0FB600   		movzbl	(%rax), %eax
 929 0278 83F001   		xorl	$1, %eax
 930 027b 84C0     		testb	%al, %al
 931 027d 7428     		je	.L38
  30:TestTestMacros.cpp ****             throw "Oops";
 932              		.loc 6 30 0
 933 027f BF080000 		movl	$8, %edi
 933      00
 934 0284 E8000000 		call	__cxa_allocate_exception@PLT
 934      00
 935 0289 488D1500 		leaq	.LC9(%rip), %rdx
 935      000000
 936 0290 488910   		movq	%rdx, (%rax)
 937 0293 BA000000 		movl	$0, %edx
 937      00
 938 0298 488D3500 		leaq	_ZTIPKc(%rip), %rsi
 938      000000
 939 029f 4889C7   		movq	%rax, %rdi
 940 02a2 E8000000 		call	__cxa_throw@PLT
 940      00
 941              	.L38:
 942              	.LBE10:
  31:TestTestMacros.cpp ****     }
 943              		.loc 6 31 0
 944 02a7 90       		nop
 945 02a8 C9       		leave
 946              		.cfi_def_cfa 7, 8
 947 02a9 C3       		ret
 948              		.cfi_endproc
 949              	.LFE1116:
 951              		.local	_ZN12_GLOBAL__N_15list2E
 952              		.comm	_ZN12_GLOBAL__N_15list2E,16,16
 953              		.align 2
 955              	_ZN12_GLOBAL__N_134ThrowingThingieDummyTestNameHelperC2ERKN8UnitTest11TestDetailsE:
 956              	.LFB1119:
  32:TestTestMacros.cpp **** 
  33:TestTestMacros.cpp ****     bool dummy;
  34:TestTestMacros.cpp **** };
  35:TestTestMacros.cpp **** 
  36:TestTestMacros.cpp **** TestList list2;
  37:TestTestMacros.cpp **** TEST_FIXTURE_EX(ThrowingThingie, DummyTestName, list2)
 957              		.loc 6 37 0
 958              		.cfi_startproc
 959 02aa 55       		pushq	%rbp
 960              		.cfi_def_cfa_offset 16
 961              		.cfi_offset 6, -16
 962 02ab 4889E5   		movq	%rsp, %rbp
 963              		.cfi_def_cfa_register 6
 964 02ae 4883EC10 		subq	$16, %rsp
 965 02b2 48897DF8 		movq	%rdi, -8(%rbp)
 966 02b6 488975F0 		movq	%rsi, -16(%rbp)
 967              	.LBB11:
 968              		.loc 6 37 0
 969 02ba 488B45F8 		movq	-8(%rbp), %rax
 970 02be 4889C7   		movq	%rax, %rdi
 971 02c1 E898FFFF 		call	_ZN12_GLOBAL__N_115ThrowingThingieC2Ev
 971      FF
 972 02c6 488B45F8 		movq	-8(%rbp), %rax
 973 02ca 488B55F0 		movq	-16(%rbp), %rdx
 974 02ce 48895008 		movq	%rdx, 8(%rax)
 975              	.LBE11:
 976 02d2 90       		nop
 977 02d3 C9       		leave
 978              		.cfi_def_cfa 7, 8
 979 02d4 C3       		ret
 980              		.cfi_endproc
 981              	.LFE1119:
 983              		.set	_ZN12_GLOBAL__N_134ThrowingThingieDummyTestNameHelperC1ERKN8UnitTest11TestDetailsE,_ZN12_GLOB
 984              		.section	.rodata
 985              	.LC10:
 986 00fe 44756D6D 		.string	"DummyTestName"
 986      79546573 
 986      744E616D 
 986      6500
 987              		.text
 988 02d5 90       		.align 2
 990              	_ZN12_GLOBAL__N_132TestThrowingThingieDummyTestNameC2Ev:
 991              	.LFB1122:
 992              		.loc 6 37 0
 993              		.cfi_startproc
 994 02d6 55       		pushq	%rbp
 995              		.cfi_def_cfa_offset 16
 996              		.cfi_offset 6, -16
 997 02d7 4889E5   		movq	%rsp, %rbp
 998              		.cfi_def_cfa_register 6
 999 02da 53       		pushq	%rbx
 1000 02db 4883EC18 		subq	$24, %rsp
 1001              		.cfi_offset 3, -24
 1002 02df 48897DE8 		movq	%rdi, -24(%rbp)
 1003              	.LBB12:
 1004              		.loc 6 37 0
 1005 02e3 488B5DE8 		movq	-24(%rbp), %rbx
 1006 02e7 E8000000 		call	_ZN13UnitTestSuite12GetSuiteNameEv
 1006      00
 1007 02ec 41B82500 		movl	$37, %r8d
 1007      0000
 1008 02f2 488D0D00 		leaq	.LC2(%rip), %rcx
 1008      000000
 1009 02f9 4889C2   		movq	%rax, %rdx
 1010 02fc 488D3500 		leaq	.LC10(%rip), %rsi
 1010      000000
 1011 0303 4889DF   		movq	%rbx, %rdi
 1012 0306 E8000000 		call	_ZN8UnitTest4TestC2EPKcS2_S2_i@PLT
 1012      00
 1013 030b 488D1500 		leaq	16+_ZTVN12_GLOBAL__N_132TestThrowingThingieDummyTestNameE(%rip), %rdx
 1013      000000
 1014 0312 488B45E8 		movq	-24(%rbp), %rax
 1015 0316 488910   		movq	%rdx, (%rax)
 1016              	.LBE12:
 1017 0319 90       		nop
 1018 031a 4883C418 		addq	$24, %rsp
 1019 031e 5B       		popq	%rbx
 1020 031f 5D       		popq	%rbp
 1021              		.cfi_def_cfa 7, 8
 1022 0320 C3       		ret
 1023              		.cfi_endproc
 1024              	.LFE1122:
 1026              		.set	_ZN12_GLOBAL__N_132TestThrowingThingieDummyTestNameC1Ev,_ZN12_GLOBAL__N_132TestThrowingThingi
 1027              		.local	_ZN12_GLOBAL__N_140testThrowingThingieDummyTestNameInstanceE
 1028              		.comm	_ZN12_GLOBAL__N_140testThrowingThingieDummyTestNameInstanceE,56,32
 1029              		.local	_ZN12_GLOBAL__N_133adderThrowingThingieDummyTestNameE
 1030              		.comm	_ZN12_GLOBAL__N_133adderThrowingThingieDummyTestNameE,1,1
 1031              		.section	.rodata
 1032              	.LC11:
 1033 010c 556E6861 		.string	"Unhandled exception: "
 1033      6E646C65 
 1033      64206578 
 1033      63657074 
 1033      696F6E3A 
 1034 0122 00000000 		.align 8
 1034      0000
 1035              	.LC12:
 1036 0128 556E6861 		.string	"Unhandled exception while destroying fixture ThrowingThingie"
 1036      6E646C65 
 1036      64206578 
 1036      63657074 
 1036      696F6E20 
 1037 0165 000000   		.align 8
 1038              	.LC13:
 1039 0168 556E6861 		.string	"Unhandled exception while constructing fixture ThrowingThingie"
 1039      6E646C65 
 1039      64206578 
 1039      63657074 
 1039      696F6E20 
 1040              		.text
 1041 0321 90       		.align 2
 1043              	_ZNK12_GLOBAL__N_132TestThrowingThingieDummyTestName7RunImplEv:
 1044              	.LFB1124:
 1045              		.loc 6 37 0
 1046              		.cfi_startproc
 1047              		.cfi_personality 0x9b,DW.ref.__gxx_personality_v0
 1048              		.cfi_lsda 0x1b,.LLSDA1124
 1049 0322 55       		pushq	%rbp
 1050              		.cfi_def_cfa_offset 16
 1051              		.cfi_offset 6, -16
 1052 0323 4889E5   		movq	%rsp, %rbp
 1053              		.cfi_def_cfa_register 6
 1054 0326 4155     		pushq	%r13
 1055 0328 4154     		pushq	%r12
 1056 032a 53       		pushq	%rbx
 1057 032b 4881ECF8 		subq	$504, %rsp
 1057      010000
 1058              		.cfi_offset 13, -24
 1059              		.cfi_offset 12, -32
 1060              		.cfi_offset 3, -40
 1061 0332 4889BDF8 		movq	%rdi, -520(%rbp)
 1061      FDFFFF
 1062              		.loc 6 37 0
 1063 0339 64488B04 		movq	%fs:40, %rax
 1063      25280000 
 1063      00
 1064 0342 488945D8 		movq	%rax, -40(%rbp)
 1065 0346 31C0     		xorl	%eax, %eax
 1066 0348 C6850FFE 		movb	$0, -497(%rbp)
 1066      FFFF00
 1067              	.LBB13:
 1068 034f 488B85F8 		movq	-520(%rbp), %rax
 1068      FDFFFF
 1069 0356 488D5008 		leaq	8(%rax), %rdx
 1070 035a 488D8520 		leaq	-480(%rbp), %rax
 1070      FEFFFF
 1071 0361 4889D6   		movq	%rdx, %rsi
 1072 0364 4889C7   		movq	%rax, %rdi
 1073              	.LEHB12:
 1074 0367 E83EFFFF 		call	_ZN12_GLOBAL__N_134ThrowingThingieDummyTestNameHelperC1ERKN8UnitTest11TestDetailsE
 1074      FF
 1075              		.loc 6 37 0 is_stmt 0 discriminator 1
 1076 036c C6850FFE 		movb	$1, -497(%rbp)
 1076      FFFF01
 1077 0373 488B85F8 		movq	-520(%rbp), %rax
 1077      FDFFFF
 1078 037a 488D5008 		leaq	8(%rax), %rdx
 1079 037e 488D8520 		leaq	-480(%rbp), %rax
 1079      FEFFFF
 1080 0385 4889D6   		movq	%rdx, %rsi
 1081 0388 4889C7   		movq	%rax, %rdi
 1082 038b E8F62C00 		call	_ZN8UnitTest11ExecuteTestIN12_GLOBAL__N_134ThrowingThingieDummyTestNameHelperEEEvRT_RKNS_11Te
 1082      00
 1083              	.LEHE12:
 1084              	.LBE13:
 1085              		.loc 6 37 0
 1086 0390 E94C0200 		jmp	.L41
 1086      00
 1087              	.L54:
 1088 0395 4883FA01 		cmpq	$1, %rdx
 1089 0399 740F     		je	.L44
 1090 039b 4883FA02 		cmpq	$2, %rdx
 1091 039f 0F84A700 		je	.L45
 1091      0000
 1092 03a5 E94A0100 		jmp	.L59
 1092      00
 1093              	.L44:
 1094              	.LBB14:
 1095 03aa 4889C7   		movq	%rax, %rdi
 1096 03ad E8000000 		call	__cxa_begin_catch@PLT
 1096      00
 1097 03b2 48898518 		movq	%rax, -488(%rbp)
 1097      FEFFFF
 1098              	.LEHB13:
 1099 03b9 E8000000 		call	_ZN8UnitTest11CurrentTest7ResultsEv@PLT
 1099      00
 1100 03be 488B18   		movq	(%rax), %rbx
 1101 03c1 488B8518 		movq	-488(%rbp), %rax
 1101      FEFFFF
 1102 03c8 488B00   		movq	(%rax), %rax
 1103 03cb 4883C010 		addq	$16, %rax
 1104 03cf 488B00   		movq	(%rax), %rax
 1105 03d2 488B9518 		movq	-488(%rbp), %rdx
 1105      FEFFFF
 1106 03d9 4889D7   		movq	%rdx, %rdi
 1107 03dc FFD0     		call	*%rax
 1108              	.LVL0:
 1109 03de 4989C4   		movq	%rax, %r12
 1110 03e1 488B8518 		movq	-488(%rbp), %rax
 1110      FEFFFF
 1111 03e8 4889C7   		movq	%rax, %rdi
 1112 03eb E8000000 		call	_ZNK8UnitTest15AssertException10LineNumberEv@PLT
 1112      00
 1113              		.loc 6 37 0 discriminator 3
 1114 03f0 4189C5   		movl	%eax, %r13d
 1115 03f3 488B8518 		movq	-488(%rbp), %rax
 1115      FEFFFF
 1116 03fa 4889C7   		movq	%rax, %rdi
 1117 03fd E8000000 		call	_ZNK8UnitTest15AssertException8FilenameEv@PLT
 1117      00
 1118              		.loc 6 37 0 discriminator 5
 1119 0402 4889C1   		movq	%rax, %rcx
 1120 0405 488B85F8 		movq	-520(%rbp), %rax
 1120      FDFFFF
 1121 040c 488B5008 		movq	8(%rax), %rdx
 1122 0410 488B85F8 		movq	-520(%rbp), %rax
 1122      FDFFFF
 1123 0417 488B7010 		movq	16(%rax), %rsi
 1124 041b 488D8520 		leaq	-480(%rbp), %rax
 1124      FEFFFF
 1125 0422 4589E8   		movl	%r13d, %r8d
 1126 0425 4889C7   		movq	%rax, %rdi
 1127 0428 E8000000 		call	_ZN8UnitTest11TestDetailsC1EPKcS2_S2_i@PLT
 1127      00
 1128              		.loc 6 37 0 discriminator 9
 1129 042d 488D8520 		leaq	-480(%rbp), %rax
 1129      FEFFFF
 1130 0434 4C89E2   		movq	%r12, %rdx
 1131 0437 4889C6   		movq	%rax, %rsi
 1132 043a 4889DF   		movq	%rbx, %rdi
 1133 043d E8000000 		call	_ZN8UnitTest11TestResults13OnTestFailureERKNS_11TestDetailsEPKc@PLT
 1133      00
 1134              	.LEHE13:
 1135              		.loc 6 37 0 discriminator 11
 1136 0442 E8000000 		call	__cxa_end_catch@PLT
 1136      00
 1137              	.LBE14:
 1138 0447 E9950100 		jmp	.L41
 1138      00
 1139              	.L45:
 1140              	.LBB15:
 1141              		.loc 6 37 0
 1142 044c 4889C7   		movq	%rax, %rdi
 1143 044f E8000000 		call	__cxa_begin_catch@PLT
 1143      00
 1144 0454 48898510 		movq	%rax, -496(%rbp)
 1144      FEFFFF
 1145              	.LBB16:
 1146 045b 488D8540 		leaq	-448(%rbp), %rax
 1146      FEFFFF
 1147 0462 4889C7   		movq	%rax, %rdi
 1148              	.LEHB14:
 1149 0465 E8000000 		call	_ZN8UnitTest15MemoryOutStreamC1Ev
 1149      00
 1150              	.LEHE14:
 1151              		.loc 6 37 0 discriminator 13
 1152 046a 488D8540 		leaq	-448(%rbp), %rax
 1152      FEFFFF
 1153 0471 488D3500 		leaq	.LC11(%rip), %rsi
 1153      000000
 1154 0478 4889C7   		movq	%rax, %rdi
 1155              	.LEHB15:
 1156 047b E8000000 		call	_ZStlsISt11char_traitsIcEERSt13basic_ostreamIcT_ES5_PKc@PLT
 1156      00
 1157 0480 4889C3   		movq	%rax, %rbx
 1158 0483 488B8510 		movq	-496(%rbp), %rax
 1158      FEFFFF
 1159 048a 488B00   		movq	(%rax), %rax
 1160 048d 4883C010 		addq	$16, %rax
 1161 0491 488B00   		movq	(%rax), %rax
 1162 0494 488B9510 		movq	-496(%rbp), %rdx
 1162      FEFFFF
 1163 049b 4889D7   		movq	%rdx, %rdi
 1164 049e FFD0     		call	*%rax
 1165              	.LVL1:
 1166 04a0 4889C6   		movq	%rax, %rsi
 1167 04a3 4889DF   		movq	%rbx, %rdi
 1168 04a6 E8000000 		call	_ZStlsISt11char_traitsIcEERSt13basic_ostreamIcT_ES5_PKc@PLT
 1168      00
 1169              		.loc 6 37 0 discriminator 17
 1170 04ab E8000000 		call	_ZN8UnitTest11CurrentTest7ResultsEv@PLT
 1170      00
 1171 04b0 488B18   		movq	(%rax), %rbx
 1172 04b3 488D8540 		leaq	-448(%rbp), %rax
 1172      FEFFFF
 1173 04ba 4889C7   		movq	%rax, %rdi
 1174 04bd E8000000 		call	_ZNK8UnitTest15MemoryOutStream7GetTextEv@PLT
 1174      00
 1175              		.loc 6 37 0 discriminator 19
 1176 04c2 4889C2   		movq	%rax, %rdx
 1177 04c5 488B85F8 		movq	-520(%rbp), %rax
 1177      FDFFFF
 1178 04cc 4883C008 		addq	$8, %rax
 1179 04d0 4889C6   		movq	%rax, %rsi
 1180 04d3 4889DF   		movq	%rbx, %rdi
 1181 04d6 E8000000 		call	_ZN8UnitTest11TestResults13OnTestFailureERKNS_11TestDetailsEPKc@PLT
 1181      00
 1182              	.LEHE15:
 1183              		.loc 6 37 0 discriminator 23
 1184 04db 488D8540 		leaq	-448(%rbp), %rax
 1184      FEFFFF
 1185 04e2 4889C7   		movq	%rax, %rdi
 1186              	.LEHB16:
 1187 04e5 E8000000 		call	_ZN8UnitTest15MemoryOutStreamD1Ev
 1187      00
 1188              	.LEHE16:
 1189              	.LBE16:
 1190              		.loc 6 37 0 discriminator 24
 1191 04ea E8000000 		call	__cxa_end_catch@PLT
 1191      00
 1192              	.LBE15:
 1193 04ef E9ED0000 		jmp	.L41
 1193      00
 1194              	.L59:
 1195              		.loc 6 37 0
 1196 04f4 4889C7   		movq	%rax, %rdi
 1197 04f7 E8000000 		call	__cxa_begin_catch@PLT
 1197      00
 1198 04fc 80BD0FFE 		cmpb	$0, -497(%rbp)
 1198      FFFF00
 1199 0503 7445     		je	.L47
 1200              	.LEHB17:
 1201              		.loc 6 37 0 discriminator 26
 1202 0505 E8000000 		call	_ZN8UnitTest11CurrentTest7ResultsEv@PLT
 1202      00
 1203 050a 488B18   		movq	(%rax), %rbx
 1204 050d 488B85F8 		movq	-520(%rbp), %rax
 1204      FDFFFF
 1205 0514 488D4808 		leaq	8(%rax), %rcx
 1206 0518 488D8520 		leaq	-480(%rbp), %rax
 1206      FEFFFF
 1207 051f BA250000 		movl	$37, %edx
 1207      00
 1208 0524 4889CE   		movq	%rcx, %rsi
 1209 0527 4889C7   		movq	%rax, %rdi
 1210 052a E8000000 		call	_ZN8UnitTest11TestDetailsC1ERKS0_i@PLT
 1210      00
 1211              		.loc 6 37 0 discriminator 31
 1212 052f 488D8520 		leaq	-480(%rbp), %rax
 1212      FEFFFF
 1213 0536 488D1500 		leaq	.LC12(%rip), %rdx
 1213      000000
 1214 053d 4889C6   		movq	%rax, %rsi
 1215 0540 4889DF   		movq	%rbx, %rdi
 1216 0543 E8000000 		call	_ZN8UnitTest11TestResults13OnTestFailureERKNS_11TestDetailsEPKc@PLT
 1216      00
 1217 0548 EB43     		jmp	.L48
 1218              	.L47:
 1219              		.loc 6 37 0 discriminator 27
 1220 054a E8000000 		call	_ZN8UnitTest11CurrentTest7ResultsEv@PLT
 1220      00
 1221 054f 488B18   		movq	(%rax), %rbx
 1222 0552 488B85F8 		movq	-520(%rbp), %rax
 1222      FDFFFF
 1223 0559 488D4808 		leaq	8(%rax), %rcx
 1224 055d 488D8520 		leaq	-480(%rbp), %rax
 1224      FEFFFF
 1225 0564 BA250000 		movl	$37, %edx
 1225      00
 1226 0569 4889CE   		movq	%rcx, %rsi
 1227 056c 4889C7   		movq	%rax, %rdi
 1228 056f E8000000 		call	_ZN8UnitTest11TestDetailsC1ERKS0_i@PLT
 1228      00
 1229              		.loc 6 37 0 discriminator 38
 1230 0574 488D8520 		leaq	-480(%rbp), %rax
 1230      FEFFFF
 1231 057b 488D1500 		leaq	.LC13(%rip), %rdx
 1231      000000
 1232 0582 4889C6   		movq	%rax, %rsi
 1233 0585 4889DF   		movq	%rbx, %rdi
 1234 0588 E8000000 		call	_ZN8UnitTest11TestResults13OnTestFailureERKNS_11TestDetailsEPKc@PLT
 1234      00
 1235              	.LEHE17:
 1236              	.L48:
 1237              	.LEHB18:
 1238              		.loc 6 37 0 discriminator 41
 1239 058d E8000000 		call	__cxa_end_catch@PLT
 1239      00
 1240 0592 EB4D     		jmp	.L41
 1241              	.L55:
 1242 0594 4889C3   		movq	%rax, %rbx
 1243              	.LBB18:
 1244              		.loc 6 37 0
 1245 0597 E8000000 		call	__cxa_end_catch@PLT
 1245      00
 1246 059c 4889D8   		movq	%rbx, %rax
 1247 059f 4889C7   		movq	%rax, %rdi
 1248 05a2 E8000000 		call	_Unwind_Resume@PLT
 1248      00
 1249              	.LEHE18:
 1250              	.L57:
 1251 05a7 4889C3   		movq	%rax, %rbx
 1252              	.LBE18:
 1253              	.LBB19:
 1254              	.LBB17:
 1255 05aa 488D8540 		leaq	-448(%rbp), %rax
 1255      FEFFFF
 1256 05b1 4889C7   		movq	%rax, %rdi
 1257 05b4 E8000000 		call	_ZN8UnitTest15MemoryOutStreamD1Ev
 1257      00
 1258 05b9 EB03     		jmp	.L51
 1259              	.L56:
 1260 05bb 4889C3   		movq	%rax, %rbx
 1261              	.L51:
 1262              	.LBE17:
 1263 05be E8000000 		call	__cxa_end_catch@PLT
 1263      00
 1264 05c3 4889D8   		movq	%rbx, %rax
 1265 05c6 4889C7   		movq	%rax, %rdi
 1266              	.LEHB19:
 1267 05c9 E8000000 		call	_Unwind_Resume@PLT
 1267      00
 1268              	.LEHE19:
 1269              	.L58:
 1270 05ce 4889C3   		movq	%rax, %rbx
 1271              	.LBE19:
 1272 05d1 E8000000 		call	__cxa_end_catch@PLT
 1272      00
 1273 05d6 4889D8   		movq	%rbx, %rax
 1274 05d9 4889C7   		movq	%rax, %rdi
 1275              	.LEHB20:
 1276 05dc E8000000 		call	_Unwind_Resume@PLT
 1276      00
 1277              	.LEHE20:
 1278              	.L41:
 1279 05e1 488B45D8 		movq	-40(%rbp), %rax
 1280 05e5 64483304 		xorq	%fs:40, %rax
 1280      25280000 
 1280      00
 1281 05ee 7405     		je	.L53
 1282 05f0 E8000000 		call	__stack_chk_fail@PLT
 1282      00
 1283              	.L53:
 1284 05f5 4881C4F8 		addq	$504, %rsp
 1284      010000
 1285 05fc 5B       		popq	%rbx
 1286 05fd 415C     		popq	%r12
 1287 05ff 415D     		popq	%r13
 1288 0601 5D       		popq	%rbp
 1289              		.cfi_def_cfa 7, 8
 1290 0602 C3       		ret
 1291              		.cfi_endproc
 1292              	.LFE1124:
 1293              		.section	.gcc_except_table
 1294              		.align 4
 1295              	.LLSDA1124:
 1296 0038 FF       		.byte	0xff
 1297 0039 9B       		.byte	0x9b
 1298 003a 49       		.uleb128 .LLSDATT1124-.LLSDATTD1124
 1299              	.LLSDATTD1124:
 1300 003b 01       		.byte	0x1
 1301 003c 33       		.uleb128 .LLSDACSE1124-.LLSDACSB1124
 1302              	.LLSDACSB1124:
 1303 003d 45       		.uleb128 .LEHB12-.LFB1124
 1304 003e 29       		.uleb128 .LEHE12-.LEHB12
 1305 003f 73       		.uleb128 .L54-.LFB1124
 1306 0040 05       		.uleb128 0x5
 1307 0041 9701     		.uleb128 .LEHB13-.LFB1124
 1308 0043 8901     		.uleb128 .LEHE13-.LEHB13
 1309 0045 F204     		.uleb128 .L55-.LFB1124
 1310 0047 00       		.uleb128 0
 1311 0048 C302     		.uleb128 .LEHB14-.LFB1124
 1312 004a 05       		.uleb128 .LEHE14-.LEHB14
 1313 004b 9905     		.uleb128 .L56-.LFB1124
 1314 004d 00       		.uleb128 0
 1315 004e D902     		.uleb128 .LEHB15-.LFB1124
 1316 0050 60       		.uleb128 .LEHE15-.LEHB15
 1317 0051 8505     		.uleb128 .L57-.LFB1124
 1318 0053 00       		.uleb128 0
 1319 0054 C303     		.uleb128 .LEHB16-.LFB1124
 1320 0056 05       		.uleb128 .LEHE16-.LEHB16
 1321 0057 9905     		.uleb128 .L56-.LFB1124
 1322 0059 00       		.uleb128 0
 1323 005a E303     		.uleb128 .LEHB17-.LFB1124
 1324 005c 8801     		.uleb128 .LEHE17-.LEHB17
 1325 005e AC05     		.uleb128 .L58-.LFB1124
 1326 0060 00       		.uleb128 0
 1327 0061 EB04     		.uleb128 .LEHB18-.LFB1124
 1328 0063 1A       		.uleb128 .LEHE18-.LEHB18
 1329 0064 00       		.uleb128 0
 1330 0065 00       		.uleb128 0
 1331 0066 A705     		.uleb128 .LEHB19-.LFB1124
 1332 0068 05       		.uleb128 .LEHE19-.LEHB19
 1333 0069 00       		.uleb128 0
 1334 006a 00       		.uleb128 0
 1335 006b BA05     		.uleb128 .LEHB20-.LFB1124
 1336 006d 05       		.uleb128 .LEHE20-.LEHB20
 1337 006e 00       		.uleb128 0
 1338 006f 00       		.uleb128 0
 1339              	.LLSDACSE1124:
 1340 0070 03       		.byte	0x3
 1341 0071 00       		.byte	0
 1342 0072 02       		.byte	0x2
 1343 0073 7D       		.byte	0x7d
 1344 0074 01       		.byte	0x1
 1345 0075 7D       		.byte	0x7d
 1346 0076 0000     		.align 4
 1347 0078 00000000 		.long	0
 1348              	
 1349 007c 00000000 		.long	DW.ref._ZTISt9exception-.
 1350 0080 00000000 		.long	DW.ref._ZTIN8UnitTest15AssertExceptionE-.
 1351              	.LLSDATT1124:
 1352              		.text
 1354 0603 90       		.align 2
 1356              	_ZN12_GLOBAL__N_134ThrowingThingieDummyTestNameHelper7RunImplEv:
 1357              	.LFB1125:
  38:TestTestMacros.cpp **** {
 1358              		.loc 6 38 0 is_stmt 1
 1359              		.cfi_startproc
 1360 0604 55       		pushq	%rbp
 1361              		.cfi_def_cfa_offset 16
 1362              		.cfi_offset 6, -16
 1363 0605 4889E5   		movq	%rsp, %rbp
 1364              		.cfi_def_cfa_register 6
 1365 0608 48897DF8 		movq	%rdi, -8(%rbp)
  39:TestTestMacros.cpp **** }
 1366              		.loc 6 39 0
 1367 060c 90       		nop
 1368 060d 5D       		popq	%rbp
 1369              		.cfi_def_cfa 7, 8
 1370 060e C3       		ret
 1371              		.cfi_endproc
 1372              	.LFE1125:
 1374              		.section	.rodata
 1375 01a7 00       		.align 8
 1376              	.LC14:
 1377 01a8 45786365 		.string	"ExceptionsInFixtureAreReportedAsHappeningInTheFixture"
 1377      7074696F 
 1377      6E73496E 
 1377      46697874 
 1377      75726541 
 1378              		.text
 1379 060f 90       		.align 2
 1381              	_ZN12_GLOBAL__N_157TestExceptionsInFixtureAreReportedAsHappeningInTheFixtureC2Ev:
 1382              	.LFB1127:
  40:TestTestMacros.cpp **** 
  41:TestTestMacros.cpp **** TEST (ExceptionsInFixtureAreReportedAsHappeningInTheFixture)
 1383              		.loc 6 41 0
 1384              		.cfi_startproc
 1385 0610 55       		pushq	%rbp
 1386              		.cfi_def_cfa_offset 16
 1387              		.cfi_offset 6, -16
 1388 0611 4889E5   		movq	%rsp, %rbp
 1389              		.cfi_def_cfa_register 6
 1390 0614 53       		pushq	%rbx
 1391 0615 4883EC18 		subq	$24, %rsp
 1392              		.cfi_offset 3, -24
 1393 0619 48897DE8 		movq	%rdi, -24(%rbp)
 1394              	.LBB20:
 1395              		.loc 6 41 0
 1396 061d 488B5DE8 		movq	-24(%rbp), %rbx
 1397 0621 E8000000 		call	_ZN13UnitTestSuite12GetSuiteNameEv
 1397      00
 1398 0626 41B82900 		movl	$41, %r8d
 1398      0000
 1399 062c 488D0D00 		leaq	.LC2(%rip), %rcx
 1399      000000
 1400 0633 4889C2   		movq	%rax, %rdx
 1401 0636 488D3500 		leaq	.LC14(%rip), %rsi
 1401      000000
 1402 063d 4889DF   		movq	%rbx, %rdi
 1403 0640 E8000000 		call	_ZN8UnitTest4TestC2EPKcS2_S2_i@PLT
 1403      00
 1404 0645 488D1500 		leaq	16+_ZTVN12_GLOBAL__N_157TestExceptionsInFixtureAreReportedAsHappeningInTheFixtureE(%rip), %rd
 1404      000000
 1405 064c 488B45E8 		movq	-24(%rbp), %rax
 1406 0650 488910   		movq	%rdx, (%rax)
 1407              	.LBE20:
 1408 0653 90       		nop
 1409 0654 4883C418 		addq	$24, %rsp
 1410 0658 5B       		popq	%rbx
 1411 0659 5D       		popq	%rbp
 1412              		.cfi_def_cfa 7, 8
 1413 065a C3       		ret
 1414              		.cfi_endproc
 1415              	.LFE1127:
 1417              		.set	_ZN12_GLOBAL__N_157TestExceptionsInFixtureAreReportedAsHappeningInTheFixtureC1Ev,_ZN12_GLOBAL
 1418              		.local	_ZN12_GLOBAL__N_165testExceptionsInFixtureAreReportedAsHappeningInTheFixtureInstanceE
 1419              		.comm	_ZN12_GLOBAL__N_165testExceptionsInFixtureAreReportedAsHappeningInTheFixtureInstanceE,56,32
 1420              		.local	_ZN12_GLOBAL__N_158adderExceptionsInFixtureAreReportedAsHappeningInTheFixtureE
 1421              		.comm	_ZN12_GLOBAL__N_158adderExceptionsInFixtureAreReportedAsHappeningInTheFixtureE,1,1
 1422              		.section	.rodata
 1423              	.LC15:
 1424 01de 78636570 		.string	"xception"
 1424      74696F6E 
 1424      00
 1425 01e7 00       		.align 8
 1426              	.LC16:
 1427 01e8 73747273 		.string	"strstr(reporter.lastFailedMessage, \"xception\")"
 1427      74722872 
 1427      65706F72 
 1427      7465722E 
 1427      6C617374 
 1428              	.LC17:
 1429 0217 66697874 		.string	"fixture"
 1429      75726500 
 1430 021f 00       		.align 8
 1431              	.LC18:
 1432 0220 73747273 		.string	"strstr(reporter.lastFailedMessage, \"fixture\")"
 1432      74722872 
 1432      65706F72 
 1432      7465722E 
 1432      6C617374 
 1433              	.LC19:
 1434 024e 5468726F 		.string	"ThrowingThingie"
 1434      77696E67 
 1434      5468696E 
 1434      67696500 
 1435 025e 0000     		.align 8
 1436              	.LC20:
 1437 0260 73747273 		.string	"strstr(reporter.lastFailedMessage, \"ThrowingThingie\")"
 1437      74722872 
 1437      65706F72 
 1437      7465722E 
 1437      6C617374 
 1438 0296 0000     		.align 8
 1439              	.LC21:
 1440 0298 556E6861 		.string	"Unhandled exception in CHECK(strstr(reporter.lastFailedMessage, \"xception\"))"
 1440      6E646C65 
 1440      64206578 
 1440      63657074 
 1440      696F6E20 
 1441 02e5 000000   		.align 8
 1442              	.LC22:
 1443 02e8 556E6861 		.string	"Unhandled exception in CHECK(strstr(reporter.lastFailedMessage, \"fixture\"))"
 1443      6E646C65 
 1443      64206578 
 1443      63657074 
 1443      696F6E20 
 1444 0334 00000000 		.align 8
 1445              	.LC23:
 1446 0338 556E6861 		.string	"Unhandled exception in CHECK(strstr(reporter.lastFailedMessage, \"ThrowingThingie\"))"
 1446      6E646C65 
 1446      64206578 
 1446      63657074 
 1446      696F6E20 
 1447              		.text
 1448 065b 90       		.align 2
 1450              	_ZNK12_GLOBAL__N_157TestExceptionsInFixtureAreReportedAsHappeningInTheFixture7RunImplEv:
 1451              	.LFB1129:
  42:TestTestMacros.cpp **** {
 1452              		.loc 6 42 0
 1453              		.cfi_startproc
 1454              		.cfi_personality 0x9b,DW.ref.__gxx_personality_v0
 1455              		.cfi_lsda 0x1b,.LLSDA1129
 1456 065c 55       		pushq	%rbp
 1457              		.cfi_def_cfa_offset 16
 1458              		.cfi_offset 6, -16
 1459 065d 4889E5   		movq	%rsp, %rbp
 1460              		.cfi_def_cfa_register 6
 1461 0660 53       		pushq	%rbx
 1462 0661 4881EC98 		subq	$2200, %rsp
 1462      080000
 1463              		.cfi_offset 3, -24
 1464 0668 4889BD68 		movq	%rdi, -2200(%rbp)
 1464      F7FFFF
 1465              		.loc 6 42 0
 1466 066f 64488B04 		movq	%fs:40, %rax
 1466      25280000 
 1466      00
 1467 0678 488945E8 		movq	%rax, -24(%rbp)
 1468 067c 31C0     		xorl	%eax, %eax
  43:TestTestMacros.cpp ****     RecordingReporter reporter;
 1469              		.loc 6 43 0
 1470 067e 488D85B0 		leaq	-2128(%rbp), %rax
 1470      F7FFFF
 1471 0685 4889C7   		movq	%rax, %rdi
 1472 0688 E8000000 		call	_ZN17RecordingReporterC1Ev
 1472      00
  44:TestTestMacros.cpp ****     TestResults result(&reporter);
 1473              		.loc 6 44 0
 1474 068d 488D95B0 		leaq	-2128(%rbp), %rdx
 1474      F7FFFF
 1475 0694 488D8570 		leaq	-2192(%rbp), %rax
 1475      F7FFFF
 1476 069b 4889D6   		movq	%rdx, %rsi
 1477 069e 4889C7   		movq	%rax, %rdi
 1478              	.LEHB21:
 1479 06a1 E8000000 		call	_ZN8UnitTest11TestResultsC1EPNS_12TestReporterE@PLT
 1479      00
 1480              	.LBB21:
  45:TestTestMacros.cpp **** 	{
  46:TestTestMacros.cpp **** 		ScopedCurrentTest scopedResults(result);
 1481              		.loc 6 46 0
 1482 06a6 488D8D70 		leaq	-2192(%rbp), %rcx
 1482      F7FFFF
 1483 06ad 488D8590 		leaq	-2160(%rbp), %rax
 1483      F7FFFF
 1484 06b4 BA000000 		movl	$0, %edx
 1484      00
 1485 06b9 4889CE   		movq	%rcx, %rsi
 1486 06bc 4889C7   		movq	%rax, %rdi
 1487 06bf E8000000 		call	_ZN17ScopedCurrentTestC1ERN8UnitTest11TestResultsEPKNS0_11TestDetailsE
 1487      00
 1488              	.LEHE21:
  47:TestTestMacros.cpp **** 		list2.GetHead()->Run();
 1489              		.loc 6 47 0
 1490 06c4 488D3D00 		leaq	_ZN12_GLOBAL__N_15list2E(%rip), %rdi
 1490      000000
 1491              	.LEHB22:
 1492 06cb E8000000 		call	_ZNK8UnitTest8TestList7GetHeadEv@PLT
 1492      00
 1493 06d0 4889C7   		movq	%rax, %rdi
 1494 06d3 E8000000 		call	_ZN8UnitTest4Test3RunEv@PLT
 1494      00
 1495              	.LEHE22:
  46:TestTestMacros.cpp **** 		list2.GetHead()->Run();
 1496              		.loc 6 46 0
 1497 06d8 488D8590 		leaq	-2160(%rbp), %rax
 1497      F7FFFF
 1498 06df 4889C7   		movq	%rax, %rdi
 1499              	.LEHB23:
 1500 06e2 E8000000 		call	_ZN17ScopedCurrentTestD1Ev
 1500      00
 1501              	.LEHE23:
 1502              	.LBE21:
  48:TestTestMacros.cpp **** 	}
  49:TestTestMacros.cpp **** 
  50:TestTestMacros.cpp ****     CHECK(strstr(reporter.lastFailedMessage, "xception"));
 1503              		.loc 6 50 0
 1504 06e7 488D85B0 		leaq	-2128(%rbp), %rax
 1504      F7FFFF
 1505 06ee 48051405 		addq	$1300, %rax
 1505      0000
 1506 06f4 488D3500 		leaq	.LC15(%rip), %rsi
 1506      000000
 1507 06fb 4889C7   		movq	%rax, %rdi
 1508 06fe E8000000 		call	strstr@PLT
 1508      00
 1509 0703 4889C7   		movq	%rax, %rdi
 1510 0706 E8000000 		call	_ZN8UnitTest5CheckIPcEEbT_
 1510      00
 1511 070b 83F001   		xorl	$1, %eax
 1512 070e 84C0     		testb	%al, %al
 1513 0710 7440     		je	.L63
 1514              	.LEHB24:
 1515              		.loc 6 50 0 is_stmt 0 discriminator 1
 1516 0712 E8000000 		call	_ZN8UnitTest11CurrentTest7ResultsEv@PLT
 1516      00
 1517 0717 488B18   		movq	(%rax), %rbx
 1518 071a E8000000 		call	_ZN8UnitTest11CurrentTest7DetailsEv@PLT
 1518      00
 1519              		.loc 6 50 0 discriminator 2
 1520 071f 488B08   		movq	(%rax), %rcx
 1521 0722 488D8590 		leaq	-2160(%rbp), %rax
 1521      F7FFFF
 1522 0729 BA320000 		movl	$50, %edx
 1522      00
 1523 072e 4889CE   		movq	%rcx, %rsi
 1524 0731 4889C7   		movq	%rax, %rdi
 1525 0734 E8000000 		call	_ZN8UnitTest11TestDetailsC1ERKS0_i@PLT
 1525      00
 1526              		.loc 6 50 0 discriminator 4
 1527 0739 488D8590 		leaq	-2160(%rbp), %rax
 1527      F7FFFF
 1528 0740 488D1500 		leaq	.LC16(%rip), %rdx
 1528      000000
 1529 0747 4889C6   		movq	%rax, %rsi
 1530 074a 4889DF   		movq	%rbx, %rdi
 1531 074d E8000000 		call	_ZN8UnitTest11TestResults13OnTestFailureERKNS_11TestDetailsEPKc@PLT
 1531      00
 1532              	.LEHE24:
 1533              	.L63:
  51:TestTestMacros.cpp ****     CHECK(strstr(reporter.lastFailedMessage, "fixture"));
 1534              		.loc 6 51 0 is_stmt 1
 1535 0752 488D85B0 		leaq	-2128(%rbp), %rax
 1535      F7FFFF
 1536 0759 48051405 		addq	$1300, %rax
 1536      0000
 1537 075f 488D3500 		leaq	.LC17(%rip), %rsi
 1537      000000
 1538 0766 4889C7   		movq	%rax, %rdi
 1539 0769 E8000000 		call	strstr@PLT
 1539      00
 1540 076e 4889C7   		movq	%rax, %rdi
 1541 0771 E8000000 		call	_ZN8UnitTest5CheckIPcEEbT_
 1541      00
 1542 0776 83F001   		xorl	$1, %eax
 1543 0779 84C0     		testb	%al, %al
 1544 077b 7440     		je	.L64
 1545              	.LEHB25:
 1546              		.loc 6 51 0 is_stmt 0 discriminator 1
 1547 077d E8000000 		call	_ZN8UnitTest11CurrentTest7ResultsEv@PLT
 1547      00
 1548 0782 488B18   		movq	(%rax), %rbx
 1549 0785 E8000000 		call	_ZN8UnitTest11CurrentTest7DetailsEv@PLT
 1549      00
 1550              		.loc 6 51 0 discriminator 2
 1551 078a 488B08   		movq	(%rax), %rcx
 1552 078d 488D8590 		leaq	-2160(%rbp), %rax
 1552      F7FFFF
 1553 0794 BA330000 		movl	$51, %edx
 1553      00
 1554 0799 4889CE   		movq	%rcx, %rsi
 1555 079c 4889C7   		movq	%rax, %rdi
 1556 079f E8000000 		call	_ZN8UnitTest11TestDetailsC1ERKS0_i@PLT
 1556      00
 1557              		.loc 6 51 0 discriminator 4
 1558 07a4 488D8590 		leaq	-2160(%rbp), %rax
 1558      F7FFFF
 1559 07ab 488D1500 		leaq	.LC18(%rip), %rdx
 1559      000000
 1560 07b2 4889C6   		movq	%rax, %rsi
 1561 07b5 4889DF   		movq	%rbx, %rdi
 1562 07b8 E8000000 		call	_ZN8UnitTest11TestResults13OnTestFailureERKNS_11TestDetailsEPKc@PLT
 1562      00
 1563              	.LEHE25:
 1564              	.L64:
  52:TestTestMacros.cpp ****     CHECK(strstr(reporter.lastFailedMessage, "ThrowingThingie"));
 1565              		.loc 6 52 0 is_stmt 1
 1566 07bd 488D85B0 		leaq	-2128(%rbp), %rax
 1566      F7FFFF
 1567 07c4 48051405 		addq	$1300, %rax
 1567      0000
 1568 07ca 488D3500 		leaq	.LC19(%rip), %rsi
 1568      000000
 1569 07d1 4889C7   		movq	%rax, %rdi
 1570 07d4 E8000000 		call	strstr@PLT
 1570      00
 1571 07d9 4889C7   		movq	%rax, %rdi
 1572 07dc E8000000 		call	_ZN8UnitTest5CheckIPcEEbT_
 1572      00
 1573 07e1 83F001   		xorl	$1, %eax
 1574 07e4 84C0     		testb	%al, %al
 1575 07e6 7440     		je	.L65
 1576              	.LEHB26:
 1577              		.loc 6 52 0 is_stmt 0 discriminator 1
 1578 07e8 E8000000 		call	_ZN8UnitTest11CurrentTest7ResultsEv@PLT
 1578      00
 1579 07ed 488B18   		movq	(%rax), %rbx
 1580 07f0 E8000000 		call	_ZN8UnitTest11CurrentTest7DetailsEv@PLT
 1580      00
 1581              		.loc 6 52 0 discriminator 2
 1582 07f5 488B08   		movq	(%rax), %rcx
 1583 07f8 488D8590 		leaq	-2160(%rbp), %rax
 1583      F7FFFF
 1584 07ff BA340000 		movl	$52, %edx
 1584      00
 1585 0804 4889CE   		movq	%rcx, %rsi
 1586 0807 4889C7   		movq	%rax, %rdi
 1587 080a E8000000 		call	_ZN8UnitTest11TestDetailsC1ERKS0_i@PLT
 1587      00
 1588              		.loc 6 52 0 discriminator 4
 1589 080f 488D8590 		leaq	-2160(%rbp), %rax
 1589      F7FFFF
 1590 0816 488D1500 		leaq	.LC20(%rip), %rdx
 1590      000000
 1591 081d 4889C6   		movq	%rax, %rsi
 1592 0820 4889DF   		movq	%rbx, %rdi
 1593 0823 E8000000 		call	_ZN8UnitTest11TestResults13OnTestFailureERKNS_11TestDetailsEPKc@PLT
 1593      00
 1594              	.LEHE26:
 1595              	.L65:
  43:TestTestMacros.cpp ****     TestResults result(&reporter);
 1596              		.loc 6 43 0 is_stmt 1
 1597 0828 488D85B0 		leaq	-2128(%rbp), %rax
 1597      F7FFFF
 1598 082f 4889C7   		movq	%rax, %rdi
 1599              	.LEHB27:
 1600 0832 E8000000 		call	_ZN17RecordingReporterD1Ev
 1600      00
 1601              	.LEHE27:
  53:TestTestMacros.cpp **** }
 1602              		.loc 6 53 0
 1603 0837 90       		nop
 1604 0838 488B45E8 		movq	-24(%rbp), %rax
 1605 083c 64483304 		xorq	%fs:40, %rax
 1605      25280000 
 1605      00
 1606 0845 0F845501 		je	.L74
 1606      0000
 1607 084b E94B0100 		jmp	.L83
 1607      00
 1608              	.L76:
 1609 0850 4889C3   		movq	%rax, %rbx
 1610              	.LBB22:
  46:TestTestMacros.cpp **** 		list2.GetHead()->Run();
 1611              		.loc 6 46 0
 1612 0853 488D8590 		leaq	-2160(%rbp), %rax
 1612      F7FFFF
 1613 085a 4889C7   		movq	%rax, %rdi
 1614 085d E8000000 		call	_ZN17ScopedCurrentTestD1Ev
 1614      00
 1615 0862 E91A0100 		jmp	.L67
 1615      00
 1616              	.L77:
 1617              	.LBE22:
  50:TestTestMacros.cpp ****     CHECK(strstr(reporter.lastFailedMessage, "fixture"));
 1618              		.loc 6 50 0
 1619 0867 4889C7   		movq	%rax, %rdi
 1620 086a E8000000 		call	__cxa_begin_catch@PLT
 1620      00
 1621              	.LEHB28:
 1622 086f E8000000 		call	_ZN8UnitTest11CurrentTest7ResultsEv@PLT
 1622      00
 1623 0874 488B18   		movq	(%rax), %rbx
 1624 0877 E8000000 		call	_ZN8UnitTest11CurrentTest7DetailsEv@PLT
 1624      00
  50:TestTestMacros.cpp ****     CHECK(strstr(reporter.lastFailedMessage, "fixture"));
 1625              		.loc 6 50 0 is_stmt 0 discriminator 8
 1626 087c 488B08   		movq	(%rax), %rcx
 1627 087f 488D8590 		leaq	-2160(%rbp), %rax
 1627      F7FFFF
 1628 0886 BA320000 		movl	$50, %edx
 1628      00
 1629 088b 4889CE   		movq	%rcx, %rsi
 1630 088e 4889C7   		movq	%rax, %rdi
 1631 0891 E8000000 		call	_ZN8UnitTest11TestDetailsC1ERKS0_i@PLT
 1631      00
  50:TestTestMacros.cpp ****     CHECK(strstr(reporter.lastFailedMessage, "fixture"));
 1632              		.loc 6 50 0 discriminator 12
 1633 0896 488D8590 		leaq	-2160(%rbp), %rax
 1633      F7FFFF
 1634 089d 488D1500 		leaq	.LC21(%rip), %rdx
 1634      000000
 1635 08a4 4889C6   		movq	%rax, %rsi
 1636 08a7 4889DF   		movq	%rbx, %rdi
 1637 08aa E8000000 		call	_ZN8UnitTest11TestResults13OnTestFailureERKNS_11TestDetailsEPKc@PLT
 1637      00
 1638              	.LEHE28:
 1639              	.LEHB29:
  50:TestTestMacros.cpp ****     CHECK(strstr(reporter.lastFailedMessage, "fixture"));
 1640              		.loc 6 50 0 discriminator 14
 1641 08af E8000000 		call	__cxa_end_catch@PLT
 1641      00
 1642              	.LEHE29:
  50:TestTestMacros.cpp ****     CHECK(strstr(reporter.lastFailedMessage, "fixture"));
 1643              		.loc 6 50 0
 1644 08b4 E999FEFF 		jmp	.L63
 1644      FF
 1645              	.L78:
 1646 08b9 4889C3   		movq	%rax, %rbx
 1647 08bc E8000000 		call	__cxa_end_catch@PLT
 1647      00
 1648 08c1 E9BB0000 		jmp	.L67
 1648      00
 1649              	.L79:
  51:TestTestMacros.cpp ****     CHECK(strstr(reporter.lastFailedMessage, "ThrowingThingie"));
 1650              		.loc 6 51 0 is_stmt 1
 1651 08c6 4889C7   		movq	%rax, %rdi
 1652 08c9 E8000000 		call	__cxa_begin_catch@PLT
 1652      00
 1653              	.LEHB30:
 1654 08ce E8000000 		call	_ZN8UnitTest11CurrentTest7ResultsEv@PLT
 1654      00
 1655 08d3 488B18   		movq	(%rax), %rbx
 1656 08d6 E8000000 		call	_ZN8UnitTest11CurrentTest7DetailsEv@PLT
 1656      00
  51:TestTestMacros.cpp ****     CHECK(strstr(reporter.lastFailedMessage, "ThrowingThingie"));
 1657              		.loc 6 51 0 is_stmt 0 discriminator 8
 1658 08db 488B08   		movq	(%rax), %rcx
 1659 08de 488D8590 		leaq	-2160(%rbp), %rax
 1659      F7FFFF
 1660 08e5 BA330000 		movl	$51, %edx
 1660      00
 1661 08ea 4889CE   		movq	%rcx, %rsi
 1662 08ed 4889C7   		movq	%rax, %rdi
 1663 08f0 E8000000 		call	_ZN8UnitTest11TestDetailsC1ERKS0_i@PLT
 1663      00
  51:TestTestMacros.cpp ****     CHECK(strstr(reporter.lastFailedMessage, "ThrowingThingie"));
 1664              		.loc 6 51 0 discriminator 12
 1665 08f5 488D8590 		leaq	-2160(%rbp), %rax
 1665      F7FFFF
 1666 08fc 488D1500 		leaq	.LC22(%rip), %rdx
 1666      000000
 1667 0903 4889C6   		movq	%rax, %rsi
 1668 0906 4889DF   		movq	%rbx, %rdi
 1669 0909 E8000000 		call	_ZN8UnitTest11TestResults13OnTestFailureERKNS_11TestDetailsEPKc@PLT
 1669      00
 1670              	.LEHE30:
 1671              	.LEHB31:
  51:TestTestMacros.cpp ****     CHECK(strstr(reporter.lastFailedMessage, "ThrowingThingie"));
 1672              		.loc 6 51 0 discriminator 14
 1673 090e E8000000 		call	__cxa_end_catch@PLT
 1673      00
 1674              	.LEHE31:
  51:TestTestMacros.cpp ****     CHECK(strstr(reporter.lastFailedMessage, "ThrowingThingie"));
 1675              		.loc 6 51 0
 1676 0913 E9A5FEFF 		jmp	.L64
 1676      FF
 1677              	.L80:
 1678 0918 4889C3   		movq	%rax, %rbx
 1679 091b E8000000 		call	__cxa_end_catch@PLT
 1679      00
 1680 0920 EB5F     		jmp	.L67
 1681              	.L81:
  52:TestTestMacros.cpp **** }
 1682              		.loc 6 52 0 is_stmt 1
 1683 0922 4889C7   		movq	%rax, %rdi
 1684 0925 E8000000 		call	__cxa_begin_catch@PLT
 1684      00
 1685              	.LEHB32:
 1686 092a E8000000 		call	_ZN8UnitTest11CurrentTest7ResultsEv@PLT
 1686      00
 1687 092f 488B18   		movq	(%rax), %rbx
 1688 0932 E8000000 		call	_ZN8UnitTest11CurrentTest7DetailsEv@PLT
 1688      00
  52:TestTestMacros.cpp **** }
 1689              		.loc 6 52 0 is_stmt 0 discriminator 8
 1690 0937 488B08   		movq	(%rax), %rcx
 1691 093a 488D8590 		leaq	-2160(%rbp), %rax
 1691      F7FFFF
 1692 0941 BA340000 		movl	$52, %edx
 1692      00
 1693 0946 4889CE   		movq	%rcx, %rsi
 1694 0949 4889C7   		movq	%rax, %rdi
 1695 094c E8000000 		call	_ZN8UnitTest11TestDetailsC1ERKS0_i@PLT
 1695      00
  52:TestTestMacros.cpp **** }
 1696              		.loc 6 52 0 discriminator 12
 1697 0951 488D8590 		leaq	-2160(%rbp), %rax
 1697      F7FFFF
 1698 0958 488D1500 		leaq	.LC23(%rip), %rdx
 1698      000000
 1699 095f 4889C6   		movq	%rax, %rsi
 1700 0962 4889DF   		movq	%rbx, %rdi
 1701 0965 E8000000 		call	_ZN8UnitTest11TestResults13OnTestFailureERKNS_11TestDetailsEPKc@PLT
 1701      00
 1702              	.LEHE32:
 1703              	.LEHB33:
  52:TestTestMacros.cpp **** }
 1704              		.loc 6 52 0 discriminator 14
 1705 096a E8000000 		call	__cxa_end_catch@PLT
 1705      00
 1706              	.LEHE33:
  52:TestTestMacros.cpp **** }
 1707              		.loc 6 52 0
 1708 096f E9B4FEFF 		jmp	.L65
 1708      FF
 1709              	.L82:
 1710 0974 4889C3   		movq	%rax, %rbx
 1711 0977 E8000000 		call	__cxa_end_catch@PLT
 1711      00
 1712 097c EB03     		jmp	.L67
 1713              	.L75:
 1714 097e 4889C3   		movq	%rax, %rbx
 1715              	.L67:
  43:TestTestMacros.cpp ****     TestResults result(&reporter);
 1716              		.loc 6 43 0 is_stmt 1
 1717 0981 488D85B0 		leaq	-2128(%rbp), %rax
 1717      F7FFFF
 1718 0988 4889C7   		movq	%rax, %rdi
 1719 098b E8000000 		call	_ZN17RecordingReporterD1Ev
 1719      00
 1720 0990 4889D8   		movq	%rbx, %rax
 1721 0993 4889C7   		movq	%rax, %rdi
 1722              	.LEHB34:
 1723 0996 E8000000 		call	_Unwind_Resume@PLT
 1723      00
 1724              	.LEHE34:
 1725              	.L83:
 1726              		.loc 6 53 0
 1727 099b E8000000 		call	__stack_chk_fail@PLT
 1727      00
 1728              	.L74:
 1729 09a0 4881C498 		addq	$2200, %rsp
 1729      080000
 1730 09a7 5B       		popq	%rbx
 1731 09a8 5D       		popq	%rbp
 1732              		.cfi_def_cfa 7, 8
 1733 09a9 C3       		ret
 1734              		.cfi_endproc
 1735              	.LFE1129:
 1736              		.section	.gcc_except_table
 1737              		.align 4
 1738              	.LLSDA1129:
 1739 0084 FF       		.byte	0xff
 1740 0085 9B       		.byte	0x9b
 1741 0086 59       		.uleb128 .LLSDATT1129-.LLSDATTD1129
 1742              	.LLSDATTD1129:
 1743 0087 01       		.byte	0x1
 1744 0088 50       		.uleb128 .LLSDACSE1129-.LLSDACSB1129
 1745              	.LLSDACSB1129:
 1746 0089 45       		.uleb128 .LEHB21-.LFB1129
 1747 008a 23       		.uleb128 .LEHE21-.LEHB21
 1748 008b A206     		.uleb128 .L75-.LFB1129
 1749 008d 00       		.uleb128 0
 1750 008e 6F       		.uleb128 .LEHB22-.LFB1129
 1751 008f 0D       		.uleb128 .LEHE22-.LEHB22
 1752 0090 F403     		.uleb128 .L76-.LFB1129
 1753 0092 00       		.uleb128 0
 1754 0093 8601     		.uleb128 .LEHB23-.LFB1129
 1755 0095 05       		.uleb128 .LEHE23-.LEHB23
 1756 0096 A206     		.uleb128 .L75-.LFB1129
 1757 0098 00       		.uleb128 0
 1758 0099 B601     		.uleb128 .LEHB24-.LFB1129
 1759 009b 40       		.uleb128 .LEHE24-.LEHB24
 1760 009c 8B04     		.uleb128 .L77-.LFB1129
 1761 009e 01       		.uleb128 0x1
 1762 009f A102     		.uleb128 .LEHB25-.LFB1129
 1763 00a1 40       		.uleb128 .LEHE25-.LEHB25
 1764 00a2 EA04     		.uleb128 .L79-.LFB1129
 1765 00a4 01       		.uleb128 0x1
 1766 00a5 8C03     		.uleb128 .LEHB26-.LFB1129
 1767 00a7 40       		.uleb128 .LEHE26-.LEHB26
 1768 00a8 C605     		.uleb128 .L81-.LFB1129
 1769 00aa 01       		.uleb128 0x1
 1770 00ab D603     		.uleb128 .LEHB27-.LFB1129
 1771 00ad 05       		.uleb128 .LEHE27-.LEHB27
 1772 00ae 00       		.uleb128 0
 1773 00af 00       		.uleb128 0
 1774 00b0 9304     		.uleb128 .LEHB28-.LFB1129
 1775 00b2 40       		.uleb128 .LEHE28-.LEHB28
 1776 00b3 DD04     		.uleb128 .L78-.LFB1129
 1777 00b5 00       		.uleb128 0
 1778 00b6 D304     		.uleb128 .LEHB29-.LFB1129
 1779 00b8 05       		.uleb128 .LEHE29-.LEHB29
 1780 00b9 A206     		.uleb128 .L75-.LFB1129
 1781 00bb 00       		.uleb128 0
 1782 00bc F204     		.uleb128 .LEHB30-.LFB1129
 1783 00be 40       		.uleb128 .LEHE30-.LEHB30
 1784 00bf BC05     		.uleb128 .L80-.LFB1129
 1785 00c1 00       		.uleb128 0
 1786 00c2 B205     		.uleb128 .LEHB31-.LFB1129
 1787 00c4 05       		.uleb128 .LEHE31-.LEHB31
 1788 00c5 A206     		.uleb128 .L75-.LFB1129
 1789 00c7 00       		.uleb128 0
 1790 00c8 CE05     		.uleb128 .LEHB32-.LFB1129
 1791 00ca 40       		.uleb128 .LEHE32-.LEHB32
 1792 00cb 9806     		.uleb128 .L82-.LFB1129
 1793 00cd 00       		.uleb128 0
 1794 00ce 8E06     		.uleb128 .LEHB33-.LFB1129
 1795 00d0 05       		.uleb128 .LEHE33-.LEHB33
 1796 00d1 A206     		.uleb128 .L75-.LFB1129
 1797 00d3 00       		.uleb128 0
 1798 00d4 BA06     		.uleb128 .LEHB34-.LFB1129
 1799 00d6 05       		.uleb128 .LEHE34-.LEHB34
 1800 00d7 00       		.uleb128 0
 1801 00d8 00       		.uleb128 0
 1802              	.LLSDACSE1129:
 1803 00d9 01       		.byte	0x1
 1804 00da 00       		.byte	0
 1805 00db 00       		.align 4
 1806 00dc 00000000 		.long	0
 1807              	
 1808              	.LLSDATT1129:
 1809              		.text
 1811              		.section	.rodata
 1812              	.LC24:
 1813 038c 54657374 		.string	"TestSuite1"
 1813      53756974 
 1813      653100
 1814              		.text
 1816              	_ZN12_GLOBAL__N_115SuiteTestSuite113UnitTestSuite12GetSuiteNameEv:
 1817              	.LFB1130:
  54:TestTestMacros.cpp **** 
  55:TestTestMacros.cpp **** struct DummyFixture
  56:TestTestMacros.cpp **** {
  57:TestTestMacros.cpp ****     int x;
  58:TestTestMacros.cpp **** };
  59:TestTestMacros.cpp **** 
  60:TestTestMacros.cpp **** // We're really testing the macros so we just want them to compile and link
  61:TestTestMacros.cpp **** SUITE(TestSuite1)
 1818              		.loc 6 61 0
 1819              		.cfi_startproc
 1820 09aa 55       		pushq	%rbp
 1821              		.cfi_def_cfa_offset 16
 1822              		.cfi_offset 6, -16
 1823 09ab 4889E5   		movq	%rsp, %rbp
 1824              		.cfi_def_cfa_register 6
 1825              		.loc 6 61 0
 1826 09ae 488D0500 		leaq	.LC24(%rip), %rax
 1826      000000
 1827 09b5 5D       		popq	%rbp
 1828              		.cfi_def_cfa 7, 8
 1829 09b6 C3       		ret
 1830              		.cfi_endproc
 1831              	.LFE1130:
 1833              		.section	.rodata
 1834 0397 00       		.align 8
 1835              	.LC25:
 1836 0398 53696D69 		.string	"SimilarlyNamedTestsInDifferentSuitesWork"
 1836      6C61726C 
 1836      794E616D 
 1836      65645465 
 1836      73747349 
 1837              		.text
 1838 09b7 90       		.align 2
 1840              	_ZN12_GLOBAL__N_115SuiteTestSuite144TestSimilarlyNamedTestsInDifferentSuitesWorkC2Ev:
 1841              	.LFB1132:
  62:TestTestMacros.cpp **** {
  63:TestTestMacros.cpp **** 	TEST(SimilarlyNamedTestsInDifferentSuitesWork)
 1842              		.loc 6 63 0
 1843              		.cfi_startproc
 1844 09b8 55       		pushq	%rbp
 1845              		.cfi_def_cfa_offset 16
 1846              		.cfi_offset 6, -16
 1847 09b9 4889E5   		movq	%rsp, %rbp
 1848              		.cfi_def_cfa_register 6
 1849 09bc 53       		pushq	%rbx
 1850 09bd 4883EC18 		subq	$24, %rsp
 1851              		.cfi_offset 3, -24
 1852 09c1 48897DE8 		movq	%rdi, -24(%rbp)
 1853              	.LBB23:
 1854              		.loc 6 63 0
 1855 09c5 488B5DE8 		movq	-24(%rbp), %rbx
 1856 09c9 E8DCFFFF 		call	_ZN12_GLOBAL__N_115SuiteTestSuite113UnitTestSuite12GetSuiteNameEv
 1856      FF
 1857 09ce 41B83F00 		movl	$63, %r8d
 1857      0000
 1858 09d4 488D0D00 		leaq	.LC2(%rip), %rcx
 1858      000000
 1859 09db 4889C2   		movq	%rax, %rdx
 1860 09de 488D3500 		leaq	.LC25(%rip), %rsi
 1860      000000
 1861 09e5 4889DF   		movq	%rbx, %rdi
 1862 09e8 E8000000 		call	_ZN8UnitTest4TestC2EPKcS2_S2_i@PLT
 1862      00
 1863 09ed 488D1500 		leaq	16+_ZTVN12_GLOBAL__N_115SuiteTestSuite144TestSimilarlyNamedTestsInDifferentSuitesWorkE(%rip),
 1863      000000
 1864 09f4 488B45E8 		movq	-24(%rbp), %rax
 1865 09f8 488910   		movq	%rdx, (%rax)
 1866              	.LBE23:
 1867 09fb 90       		nop
 1868 09fc 4883C418 		addq	$24, %rsp
 1869 0a00 5B       		popq	%rbx
 1870 0a01 5D       		popq	%rbp
 1871              		.cfi_def_cfa 7, 8
 1872 0a02 C3       		ret
 1873              		.cfi_endproc
 1874              	.LFE1132:
 1876              		.set	_ZN12_GLOBAL__N_115SuiteTestSuite144TestSimilarlyNamedTestsInDifferentSuitesWorkC1Ev,_ZN12_GL
 1877              		.local	_ZN12_GLOBAL__N_115SuiteTestSuite152testSimilarlyNamedTestsInDifferentSuitesWorkInstanceE
 1878              		.comm	_ZN12_GLOBAL__N_115SuiteTestSuite152testSimilarlyNamedTestsInDifferentSuitesWorkInstanceE,56
 1879              		.local	_ZN12_GLOBAL__N_115SuiteTestSuite145adderSimilarlyNamedTestsInDifferentSuitesWorkE
 1880              		.comm	_ZN12_GLOBAL__N_115SuiteTestSuite145adderSimilarlyNamedTestsInDifferentSuitesWorkE,1,1
 1881 0a03 90       		.align 2
 1883              	_ZNK12_GLOBAL__N_115SuiteTestSuite144TestSimilarlyNamedTestsInDifferentSuitesWork7RunImplEv:
 1884              	.LFB1134:
  64:TestTestMacros.cpp **** 	{
 1885              		.loc 6 64 0
 1886              		.cfi_startproc
 1887 0a04 55       		pushq	%rbp
 1888              		.cfi_def_cfa_offset 16
 1889              		.cfi_offset 6, -16
 1890 0a05 4889E5   		movq	%rsp, %rbp
 1891              		.cfi_def_cfa_register 6
 1892 0a08 48897DF8 		movq	%rdi, -8(%rbp)
  65:TestTestMacros.cpp **** 	}
 1893              		.loc 6 65 0
 1894 0a0c 90       		nop
 1895 0a0d 5D       		popq	%rbp
 1896              		.cfi_def_cfa 7, 8
 1897 0a0e C3       		ret
 1898              		.cfi_endproc
 1899              	.LFE1134:
 1901 0a0f 90       		.align 2
 1903              	_ZN12_GLOBAL__N_115SuiteTestSuite165DummyFixtureSimilarlyNamedFixtureTestsInDifferentSuitesWorkHelp
 1904              	.LFB1136:
  66:TestTestMacros.cpp **** 
  67:TestTestMacros.cpp **** 	TEST_FIXTURE(DummyFixture, SimilarlyNamedFixtureTestsInDifferentSuitesWork)
 1905              		.loc 6 67 0
 1906              		.cfi_startproc
 1907 0a10 55       		pushq	%rbp
 1908              		.cfi_def_cfa_offset 16
 1909              		.cfi_offset 6, -16
 1910 0a11 4889E5   		movq	%rsp, %rbp
 1911              		.cfi_def_cfa_register 6
 1912 0a14 48897DF8 		movq	%rdi, -8(%rbp)
 1913 0a18 488975F0 		movq	%rsi, -16(%rbp)
 1914              	.LBB24:
 1915              		.loc 6 67 0
 1916 0a1c 488B45F8 		movq	-8(%rbp), %rax
 1917 0a20 488B55F0 		movq	-16(%rbp), %rdx
 1918 0a24 48895008 		movq	%rdx, 8(%rax)
 1919              	.LBE24:
 1920 0a28 90       		nop
 1921 0a29 5D       		popq	%rbp
 1922              		.cfi_def_cfa 7, 8
 1923 0a2a C3       		ret
 1924              		.cfi_endproc
 1925              	.LFE1136:
 1927              		.set	_ZN12_GLOBAL__N_115SuiteTestSuite165DummyFixtureSimilarlyNamedFixtureTestsInDifferentSuitesWo
 1928              		.section	.rodata
 1929 03c1 00000000 		.align 8
 1929      000000
 1930              	.LC26:
 1931 03c8 53696D69 		.string	"SimilarlyNamedFixtureTestsInDifferentSuitesWork"
 1931      6C61726C 
 1931      794E616D 
 1931      65644669 
 1931      78747572 
 1932              		.text
 1933 0a2b 90       		.align 2
 1935              	_ZN12_GLOBAL__N_115SuiteTestSuite163TestDummyFixtureSimilarlyNamedFixtureTestsInDifferentSuitesWork
 1936              	.LFB1139:
 1937              		.loc 6 67 0
 1938              		.cfi_startproc
 1939 0a2c 55       		pushq	%rbp
 1940              		.cfi_def_cfa_offset 16
 1941              		.cfi_offset 6, -16
 1942 0a2d 4889E5   		movq	%rsp, %rbp
 1943              		.cfi_def_cfa_register 6
 1944 0a30 53       		pushq	%rbx
 1945 0a31 4883EC18 		subq	$24, %rsp
 1946              		.cfi_offset 3, -24
 1947 0a35 48897DE8 		movq	%rdi, -24(%rbp)
 1948              	.LBB25:
 1949              		.loc 6 67 0
 1950 0a39 488B5DE8 		movq	-24(%rbp), %rbx
 1951 0a3d E868FFFF 		call	_ZN12_GLOBAL__N_115SuiteTestSuite113UnitTestSuite12GetSuiteNameEv
 1951      FF
 1952 0a42 41B84300 		movl	$67, %r8d
 1952      0000
 1953 0a48 488D0D00 		leaq	.LC2(%rip), %rcx
 1953      000000
 1954 0a4f 4889C2   		movq	%rax, %rdx
 1955 0a52 488D3500 		leaq	.LC26(%rip), %rsi
 1955      000000
 1956 0a59 4889DF   		movq	%rbx, %rdi
 1957 0a5c E8000000 		call	_ZN8UnitTest4TestC2EPKcS2_S2_i@PLT
 1957      00
 1958 0a61 488D1500 		leaq	16+_ZTVN12_GLOBAL__N_115SuiteTestSuite163TestDummyFixtureSimilarlyNamedFixtureTestsInDifferen
 1958      000000
 1959 0a68 488B45E8 		movq	-24(%rbp), %rax
 1960 0a6c 488910   		movq	%rdx, (%rax)
 1961              	.LBE25:
 1962 0a6f 90       		nop
 1963 0a70 4883C418 		addq	$24, %rsp
 1964 0a74 5B       		popq	%rbx
 1965 0a75 5D       		popq	%rbp
 1966              		.cfi_def_cfa 7, 8
 1967 0a76 C3       		ret
 1968              		.cfi_endproc
 1969              	.LFE1139:
 1971              		.set	_ZN12_GLOBAL__N_115SuiteTestSuite163TestDummyFixtureSimilarlyNamedFixtureTestsInDifferentSuit
 1972              		.local	_ZN12_GLOBAL__N_115SuiteTestSuite171testDummyFixtureSimilarlyNamedFixtureTestsInDifferentSu
 1973              		.comm	_ZN12_GLOBAL__N_115SuiteTestSuite171testDummyFixtureSimilarlyNamedFixtureTestsInDifferentSui
 1974              		.local	_ZN12_GLOBAL__N_115SuiteTestSuite164adderDummyFixtureSimilarlyNamedFixtureTestsInDifferentS
 1975              		.comm	_ZN12_GLOBAL__N_115SuiteTestSuite164adderDummyFixtureSimilarlyNamedFixtureTestsInDifferentSu
 1976              		.section	.rodata
 1977              		.align 8
 1978              	.LC27:
 1979 03f8 556E6861 		.string	"Unhandled exception while destroying fixture DummyFixture"
 1979      6E646C65 
 1979      64206578 
 1979      63657074 
 1979      696F6E20 
 1980 0432 00000000 		.align 8
 1980      0000
 1981              	.LC28:
 1982 0438 556E6861 		.string	"Unhandled exception while constructing fixture DummyFixture"
 1982      6E646C65 
 1982      64206578 
 1982      63657074 
 1982      696F6E20 
 1983              		.text
 1984 0a77 90       		.align 2
 1986              	_ZNK12_GLOBAL__N_115SuiteTestSuite163TestDummyFixtureSimilarlyNamedFixtureTestsInDifferentSuitesWor
 1987              	.LFB1141:
 1988              		.loc 6 67 0
 1989              		.cfi_startproc
 1990              		.cfi_personality 0x9b,DW.ref.__gxx_personality_v0
 1991              		.cfi_lsda 0x1b,.LLSDA1141
 1992 0a78 55       		pushq	%rbp
 1993              		.cfi_def_cfa_offset 16
 1994              		.cfi_offset 6, -16
 1995 0a79 4889E5   		movq	%rsp, %rbp
 1996              		.cfi_def_cfa_register 6
 1997 0a7c 4155     		pushq	%r13
 1998 0a7e 4154     		pushq	%r12
 1999 0a80 53       		pushq	%rbx
 2000 0a81 4881ECF8 		subq	$504, %rsp
 2000      010000
 2001              		.cfi_offset 13, -24
 2002              		.cfi_offset 12, -32
 2003              		.cfi_offset 3, -40
 2004 0a88 4889BDF8 		movq	%rdi, -520(%rbp)
 2004      FDFFFF
 2005              		.loc 6 67 0
 2006 0a8f 64488B04 		movq	%fs:40, %rax
 2006      25280000 
 2006      00
 2007 0a98 488945D8 		movq	%rax, -40(%rbp)
 2008 0a9c 31C0     		xorl	%eax, %eax
 2009 0a9e C6850FFE 		movb	$0, -497(%rbp)
 2009      FFFF00
 2010              	.LBB26:
 2011 0aa5 488B85F8 		movq	-520(%rbp), %rax
 2011      FDFFFF
 2012 0aac 488D5008 		leaq	8(%rax), %rdx
 2013 0ab0 488D8520 		leaq	-480(%rbp), %rax
 2013      FEFFFF
 2014 0ab7 4889D6   		movq	%rdx, %rsi
 2015 0aba 4889C7   		movq	%rax, %rdi
 2016 0abd E84EFFFF 		call	_ZN12_GLOBAL__N_115SuiteTestSuite165DummyFixtureSimilarlyNamedFixtureTestsInDifferentSuitesWo
 2016      FF
 2017 0ac2 C6850FFE 		movb	$1, -497(%rbp)
 2017      FFFF01
 2018 0ac9 488B85F8 		movq	-520(%rbp), %rax
 2018      FDFFFF
 2019 0ad0 488D5008 		leaq	8(%rax), %rdx
 2020 0ad4 488D8520 		leaq	-480(%rbp), %rax
 2020      FEFFFF
 2021 0adb 4889D6   		movq	%rdx, %rsi
 2022 0ade 4889C7   		movq	%rax, %rdi
 2023              	.LEHB35:
 2024 0ae1 E8692800 		call	_ZN8UnitTest11ExecuteTestIN12_GLOBAL__N_115SuiteTestSuite165DummyFixtureSimilarlyNamedFixture
 2024      00
 2025              	.LEHE35:
 2026              	.LBE26:
 2027 0ae6 E94C0200 		jmp	.L90
 2027      00
 2028              	.L103:
 2029 0aeb 4883FA01 		cmpq	$1, %rdx
 2030 0aef 740F     		je	.L93
 2031 0af1 4883FA02 		cmpq	$2, %rdx
 2032 0af5 0F84A700 		je	.L94
 2032      0000
 2033 0afb E94A0100 		jmp	.L108
 2033      00
 2034              	.L93:
 2035              	.LBB27:
 2036 0b00 4889C7   		movq	%rax, %rdi
 2037 0b03 E8000000 		call	__cxa_begin_catch@PLT
 2037      00
 2038 0b08 48898518 		movq	%rax, -488(%rbp)
 2038      FEFFFF
 2039              	.LEHB36:
 2040 0b0f E8000000 		call	_ZN8UnitTest11CurrentTest7ResultsEv@PLT
 2040      00
 2041 0b14 488B18   		movq	(%rax), %rbx
 2042 0b17 488B8518 		movq	-488(%rbp), %rax
 2042      FEFFFF
 2043 0b1e 488B00   		movq	(%rax), %rax
 2044 0b21 4883C010 		addq	$16, %rax
 2045 0b25 488B00   		movq	(%rax), %rax
 2046 0b28 488B9518 		movq	-488(%rbp), %rdx
 2046      FEFFFF
 2047 0b2f 4889D7   		movq	%rdx, %rdi
 2048 0b32 FFD0     		call	*%rax
 2049              	.LVL2:
 2050 0b34 4989C4   		movq	%rax, %r12
 2051 0b37 488B8518 		movq	-488(%rbp), %rax
 2051      FEFFFF
 2052 0b3e 4889C7   		movq	%rax, %rdi
 2053 0b41 E8000000 		call	_ZNK8UnitTest15AssertException10LineNumberEv@PLT
 2053      00
 2054              		.loc 6 67 0 is_stmt 0 discriminator 2
 2055 0b46 4189C5   		movl	%eax, %r13d
 2056 0b49 488B8518 		movq	-488(%rbp), %rax
 2056      FEFFFF
 2057 0b50 4889C7   		movq	%rax, %rdi
 2058 0b53 E8000000 		call	_ZNK8UnitTest15AssertException8FilenameEv@PLT
 2058      00
 2059              		.loc 6 67 0 discriminator 4
 2060 0b58 4889C1   		movq	%rax, %rcx
 2061 0b5b 488B85F8 		movq	-520(%rbp), %rax
 2061      FDFFFF
 2062 0b62 488B5008 		movq	8(%rax), %rdx
 2063 0b66 488B85F8 		movq	-520(%rbp), %rax
 2063      FDFFFF
 2064 0b6d 488B7010 		movq	16(%rax), %rsi
 2065 0b71 488D8520 		leaq	-480(%rbp), %rax
 2065      FEFFFF
 2066 0b78 4589E8   		movl	%r13d, %r8d
 2067 0b7b 4889C7   		movq	%rax, %rdi
 2068 0b7e E8000000 		call	_ZN8UnitTest11TestDetailsC1EPKcS2_S2_i@PLT
 2068      00
 2069              		.loc 6 67 0 discriminator 8
 2070 0b83 488D8520 		leaq	-480(%rbp), %rax
 2070      FEFFFF
 2071 0b8a 4C89E2   		movq	%r12, %rdx
 2072 0b8d 4889C6   		movq	%rax, %rsi
 2073 0b90 4889DF   		movq	%rbx, %rdi
 2074 0b93 E8000000 		call	_ZN8UnitTest11TestResults13OnTestFailureERKNS_11TestDetailsEPKc@PLT
 2074      00
 2075              	.LEHE36:
 2076              		.loc 6 67 0 discriminator 10
 2077 0b98 E8000000 		call	__cxa_end_catch@PLT
 2077      00
 2078              	.LBE27:
 2079 0b9d E9950100 		jmp	.L90
 2079      00
 2080              	.L94:
 2081              	.LBB28:
 2082              		.loc 6 67 0
 2083 0ba2 4889C7   		movq	%rax, %rdi
 2084 0ba5 E8000000 		call	__cxa_begin_catch@PLT
 2084      00
 2085 0baa 48898510 		movq	%rax, -496(%rbp)
 2085      FEFFFF
 2086              	.LBB29:
 2087 0bb1 488D8540 		leaq	-448(%rbp), %rax
 2087      FEFFFF
 2088 0bb8 4889C7   		movq	%rax, %rdi
 2089              	.LEHB37:
 2090 0bbb E8000000 		call	_ZN8UnitTest15MemoryOutStreamC1Ev
 2090      00
 2091              	.LEHE37:
 2092              		.loc 6 67 0 discriminator 12
 2093 0bc0 488D8540 		leaq	-448(%rbp), %rax
 2093      FEFFFF
 2094 0bc7 488D3500 		leaq	.LC11(%rip), %rsi
 2094      000000
 2095 0bce 4889C7   		movq	%rax, %rdi
 2096              	.LEHB38:
 2097 0bd1 E8000000 		call	_ZStlsISt11char_traitsIcEERSt13basic_ostreamIcT_ES5_PKc@PLT
 2097      00
 2098 0bd6 4889C3   		movq	%rax, %rbx
 2099 0bd9 488B8510 		movq	-496(%rbp), %rax
 2099      FEFFFF
 2100 0be0 488B00   		movq	(%rax), %rax
 2101 0be3 4883C010 		addq	$16, %rax
 2102 0be7 488B00   		movq	(%rax), %rax
 2103 0bea 488B9510 		movq	-496(%rbp), %rdx
 2103      FEFFFF
 2104 0bf1 4889D7   		movq	%rdx, %rdi
 2105 0bf4 FFD0     		call	*%rax
 2106              	.LVL3:
 2107 0bf6 4889C6   		movq	%rax, %rsi
 2108 0bf9 4889DF   		movq	%rbx, %rdi
 2109 0bfc E8000000 		call	_ZStlsISt11char_traitsIcEERSt13basic_ostreamIcT_ES5_PKc@PLT
 2109      00
 2110              		.loc 6 67 0 discriminator 16
 2111 0c01 E8000000 		call	_ZN8UnitTest11CurrentTest7ResultsEv@PLT
 2111      00
 2112 0c06 488B18   		movq	(%rax), %rbx
 2113 0c09 488D8540 		leaq	-448(%rbp), %rax
 2113      FEFFFF
 2114 0c10 4889C7   		movq	%rax, %rdi
 2115 0c13 E8000000 		call	_ZNK8UnitTest15MemoryOutStream7GetTextEv@PLT
 2115      00
 2116              		.loc 6 67 0 discriminator 18
 2117 0c18 4889C2   		movq	%rax, %rdx
 2118 0c1b 488B85F8 		movq	-520(%rbp), %rax
 2118      FDFFFF
 2119 0c22 4883C008 		addq	$8, %rax
 2120 0c26 4889C6   		movq	%rax, %rsi
 2121 0c29 4889DF   		movq	%rbx, %rdi
 2122 0c2c E8000000 		call	_ZN8UnitTest11TestResults13OnTestFailureERKNS_11TestDetailsEPKc@PLT
 2122      00
 2123              	.LEHE38:
 2124              		.loc 6 67 0 discriminator 22
 2125 0c31 488D8540 		leaq	-448(%rbp), %rax
 2125      FEFFFF
 2126 0c38 4889C7   		movq	%rax, %rdi
 2127              	.LEHB39:
 2128 0c3b E8000000 		call	_ZN8UnitTest15MemoryOutStreamD1Ev
 2128      00
 2129              	.LEHE39:
 2130              	.LBE29:
 2131              		.loc 6 67 0 discriminator 23
 2132 0c40 E8000000 		call	__cxa_end_catch@PLT
 2132      00
 2133              	.LBE28:
 2134 0c45 E9ED0000 		jmp	.L90
 2134      00
 2135              	.L108:
 2136              		.loc 6 67 0
 2137 0c4a 4889C7   		movq	%rax, %rdi
 2138 0c4d E8000000 		call	__cxa_begin_catch@PLT
 2138      00
 2139 0c52 80BD0FFE 		cmpb	$0, -497(%rbp)
 2139      FFFF00
 2140 0c59 7445     		je	.L96
 2141              	.LEHB40:
 2142              		.loc 6 67 0 discriminator 25
 2143 0c5b E8000000 		call	_ZN8UnitTest11CurrentTest7ResultsEv@PLT
 2143      00
 2144 0c60 488B18   		movq	(%rax), %rbx
 2145 0c63 488B85F8 		movq	-520(%rbp), %rax
 2145      FDFFFF
 2146 0c6a 488D4808 		leaq	8(%rax), %rcx
 2147 0c6e 488D8520 		leaq	-480(%rbp), %rax
 2147      FEFFFF
 2148 0c75 BA430000 		movl	$67, %edx
 2148      00
 2149 0c7a 4889CE   		movq	%rcx, %rsi
 2150 0c7d 4889C7   		movq	%rax, %rdi
 2151 0c80 E8000000 		call	_ZN8UnitTest11TestDetailsC1ERKS0_i@PLT
 2151      00
 2152              		.loc 6 67 0 discriminator 30
 2153 0c85 488D8520 		leaq	-480(%rbp), %rax
 2153      FEFFFF
 2154 0c8c 488D1500 		leaq	.LC27(%rip), %rdx
 2154      000000
 2155 0c93 4889C6   		movq	%rax, %rsi
 2156 0c96 4889DF   		movq	%rbx, %rdi
 2157 0c99 E8000000 		call	_ZN8UnitTest11TestResults13OnTestFailureERKNS_11TestDetailsEPKc@PLT
 2157      00
 2158 0c9e EB43     		jmp	.L97
 2159              	.L96:
 2160              		.loc 6 67 0 discriminator 26
 2161 0ca0 E8000000 		call	_ZN8UnitTest11CurrentTest7ResultsEv@PLT
 2161      00
 2162 0ca5 488B18   		movq	(%rax), %rbx
 2163 0ca8 488B85F8 		movq	-520(%rbp), %rax
 2163      FDFFFF
 2164 0caf 488D4808 		leaq	8(%rax), %rcx
 2165 0cb3 488D8520 		leaq	-480(%rbp), %rax
 2165      FEFFFF
 2166 0cba BA430000 		movl	$67, %edx
 2166      00
 2167 0cbf 4889CE   		movq	%rcx, %rsi
 2168 0cc2 4889C7   		movq	%rax, %rdi
 2169 0cc5 E8000000 		call	_ZN8UnitTest11TestDetailsC1ERKS0_i@PLT
 2169      00
 2170              		.loc 6 67 0 discriminator 37
 2171 0cca 488D8520 		leaq	-480(%rbp), %rax
 2171      FEFFFF
 2172 0cd1 488D1500 		leaq	.LC28(%rip), %rdx
 2172      000000
 2173 0cd8 4889C6   		movq	%rax, %rsi
 2174 0cdb 4889DF   		movq	%rbx, %rdi
 2175 0cde E8000000 		call	_ZN8UnitTest11TestResults13OnTestFailureERKNS_11TestDetailsEPKc@PLT
 2175      00
 2176              	.LEHE40:
 2177              	.L97:
 2178              	.LEHB41:
 2179              		.loc 6 67 0 discriminator 40
 2180 0ce3 E8000000 		call	__cxa_end_catch@PLT
 2180      00
 2181 0ce8 EB4D     		jmp	.L90
 2182              	.L104:
 2183 0cea 4889C3   		movq	%rax, %rbx
 2184              	.LBB31:
 2185              		.loc 6 67 0
 2186 0ced E8000000 		call	__cxa_end_catch@PLT
 2186      00
 2187 0cf2 4889D8   		movq	%rbx, %rax
 2188 0cf5 4889C7   		movq	%rax, %rdi
 2189 0cf8 E8000000 		call	_Unwind_Resume@PLT
 2189      00
 2190              	.LEHE41:
 2191              	.L106:
 2192 0cfd 4889C3   		movq	%rax, %rbx
 2193              	.LBE31:
 2194              	.LBB32:
 2195              	.LBB30:
 2196 0d00 488D8540 		leaq	-448(%rbp), %rax
 2196      FEFFFF
 2197 0d07 4889C7   		movq	%rax, %rdi
 2198 0d0a E8000000 		call	_ZN8UnitTest15MemoryOutStreamD1Ev
 2198      00
 2199 0d0f EB03     		jmp	.L100
 2200              	.L105:
 2201 0d11 4889C3   		movq	%rax, %rbx
 2202              	.L100:
 2203              	.LBE30:
 2204 0d14 E8000000 		call	__cxa_end_catch@PLT
 2204      00
 2205 0d19 4889D8   		movq	%rbx, %rax
 2206 0d1c 4889C7   		movq	%rax, %rdi
 2207              	.LEHB42:
 2208 0d1f E8000000 		call	_Unwind_Resume@PLT
 2208      00
 2209              	.LEHE42:
 2210              	.L107:
 2211 0d24 4889C3   		movq	%rax, %rbx
 2212              	.LBE32:
 2213 0d27 E8000000 		call	__cxa_end_catch@PLT
 2213      00
 2214 0d2c 4889D8   		movq	%rbx, %rax
 2215 0d2f 4889C7   		movq	%rax, %rdi
 2216              	.LEHB43:
 2217 0d32 E8000000 		call	_Unwind_Resume@PLT
 2217      00
 2218              	.LEHE43:
 2219              	.L90:
 2220 0d37 488B45D8 		movq	-40(%rbp), %rax
 2221 0d3b 64483304 		xorq	%fs:40, %rax
 2221      25280000 
 2221      00
 2222 0d44 7405     		je	.L102
 2223 0d46 E8000000 		call	__stack_chk_fail@PLT
 2223      00
 2224              	.L102:
 2225 0d4b 4881C4F8 		addq	$504, %rsp
 2225      010000
 2226 0d52 5B       		popq	%rbx
 2227 0d53 415C     		popq	%r12
 2228 0d55 415D     		popq	%r13
 2229 0d57 5D       		popq	%rbp
 2230              		.cfi_def_cfa 7, 8
 2231 0d58 C3       		ret
 2232              		.cfi_endproc
 2233              	.LFE1141:
 2234              		.section	.gcc_except_table
 2235              		.align 4
 2236              	.LLSDA1141:
 2237 00e0 FF       		.byte	0xff
 2238 00e1 9B       		.byte	0x9b
 2239 00e2 49       		.uleb128 .LLSDATT1141-.LLSDATTD1141
 2240              	.LLSDATTD1141:
 2241 00e3 01       		.byte	0x1
 2242 00e4 33       		.uleb128 .LLSDACSE1141-.LLSDACSB1141
 2243              	.LLSDACSB1141:
 2244 00e5 69       		.uleb128 .LEHB35-.LFB1141
 2245 00e6 05       		.uleb128 .LEHE35-.LEHB35
 2246 00e7 73       		.uleb128 .L103-.LFB1141
 2247 00e8 05       		.uleb128 0x5
 2248 00e9 9701     		.uleb128 .LEHB36-.LFB1141
 2249 00eb 8901     		.uleb128 .LEHE36-.LEHB36
 2250 00ed F204     		.uleb128 .L104-.LFB1141
 2251 00ef 00       		.uleb128 0
 2252 00f0 C302     		.uleb128 .LEHB37-.LFB1141
 2253 00f2 05       		.uleb128 .LEHE37-.LEHB37
 2254 00f3 9905     		.uleb128 .L105-.LFB1141
 2255 00f5 00       		.uleb128 0
 2256 00f6 D902     		.uleb128 .LEHB38-.LFB1141
 2257 00f8 60       		.uleb128 .LEHE38-.LEHB38
 2258 00f9 8505     		.uleb128 .L106-.LFB1141
 2259 00fb 00       		.uleb128 0
 2260 00fc C303     		.uleb128 .LEHB39-.LFB1141
 2261 00fe 05       		.uleb128 .LEHE39-.LEHB39
 2262 00ff 9905     		.uleb128 .L105-.LFB1141
 2263 0101 00       		.uleb128 0
 2264 0102 E303     		.uleb128 .LEHB40-.LFB1141
 2265 0104 8801     		.uleb128 .LEHE40-.LEHB40
 2266 0106 AC05     		.uleb128 .L107-.LFB1141
 2267 0108 00       		.uleb128 0
 2268 0109 EB04     		.uleb128 .LEHB41-.LFB1141
 2269 010b 1A       		.uleb128 .LEHE41-.LEHB41
 2270 010c 00       		.uleb128 0
 2271 010d 00       		.uleb128 0
 2272 010e A705     		.uleb128 .LEHB42-.LFB1141
 2273 0110 05       		.uleb128 .LEHE42-.LEHB42
 2274 0111 00       		.uleb128 0
 2275 0112 00       		.uleb128 0
 2276 0113 BA05     		.uleb128 .LEHB43-.LFB1141
 2277 0115 05       		.uleb128 .LEHE43-.LEHB43
 2278 0116 00       		.uleb128 0
 2279 0117 00       		.uleb128 0
 2280              	.LLSDACSE1141:
 2281 0118 03       		.byte	0x3
 2282 0119 00       		.byte	0
 2283 011a 02       		.byte	0x2
 2284 011b 7D       		.byte	0x7d
 2285 011c 01       		.byte	0x1
 2286 011d 7D       		.byte	0x7d
 2287 011e 0000     		.align 4
 2288 0120 00000000 		.long	0
 2289              	
 2290 0124 00000000 		.long	DW.ref._ZTISt9exception-.
 2291 0128 00000000 		.long	DW.ref._ZTIN8UnitTest15AssertExceptionE-.
 2292              	.LLSDATT1141:
 2293              		.text
 2295 0d59 90       		.align 2
 2297              	_ZN12_GLOBAL__N_115SuiteTestSuite165DummyFixtureSimilarlyNamedFixtureTestsInDifferentSuitesWorkHelp
 2298              	.LFB1142:
  68:TestTestMacros.cpp **** 	{
 2299              		.loc 6 68 0 is_stmt 1
 2300              		.cfi_startproc
 2301 0d5a 55       		pushq	%rbp
 2302              		.cfi_def_cfa_offset 16
 2303              		.cfi_offset 6, -16
 2304 0d5b 4889E5   		movq	%rsp, %rbp
 2305              		.cfi_def_cfa_register 6
 2306 0d5e 48897DF8 		movq	%rdi, -8(%rbp)
  69:TestTestMacros.cpp **** 	}
 2307              		.loc 6 69 0
 2308 0d62 90       		nop
 2309 0d63 5D       		popq	%rbp
 2310              		.cfi_def_cfa 7, 8
 2311 0d64 C3       		ret
 2312              		.cfi_endproc
 2313              	.LFE1142:
 2315              		.section	.rodata
 2316              	.LC29:
 2317 0474 54657374 		.string	"TestSuite2"
 2317      53756974 
 2317      653200
 2318              		.text
 2320              	_ZN12_GLOBAL__N_115SuiteTestSuite213UnitTestSuite12GetSuiteNameEv:
 2321              	.LFB1143:
  70:TestTestMacros.cpp **** }
  71:TestTestMacros.cpp **** 
  72:TestTestMacros.cpp **** SUITE(TestSuite2)
 2322              		.loc 6 72 0
 2323              		.cfi_startproc
 2324 0d65 55       		pushq	%rbp
 2325              		.cfi_def_cfa_offset 16
 2326              		.cfi_offset 6, -16
 2327 0d66 4889E5   		movq	%rsp, %rbp
 2328              		.cfi_def_cfa_register 6
 2329              		.loc 6 72 0
 2330 0d69 488D0500 		leaq	.LC29(%rip), %rax
 2330      000000
 2331 0d70 5D       		popq	%rbp
 2332              		.cfi_def_cfa 7, 8
 2333 0d71 C3       		ret
 2334              		.cfi_endproc
 2335              	.LFE1143:
 2337              		.align 2
 2339              	_ZN12_GLOBAL__N_115SuiteTestSuite244TestSimilarlyNamedTestsInDifferentSuitesWorkC2Ev:
 2340              	.LFB1145:
  73:TestTestMacros.cpp **** {
  74:TestTestMacros.cpp **** 	TEST(SimilarlyNamedTestsInDifferentSuitesWork)
 2341              		.loc 6 74 0
 2342              		.cfi_startproc
 2343 0d72 55       		pushq	%rbp
 2344              		.cfi_def_cfa_offset 16
 2345              		.cfi_offset 6, -16
 2346 0d73 4889E5   		movq	%rsp, %rbp
 2347              		.cfi_def_cfa_register 6
 2348 0d76 53       		pushq	%rbx
 2349 0d77 4883EC18 		subq	$24, %rsp
 2350              		.cfi_offset 3, -24
 2351 0d7b 48897DE8 		movq	%rdi, -24(%rbp)
 2352              	.LBB33:
 2353              		.loc 6 74 0
 2354 0d7f 488B5DE8 		movq	-24(%rbp), %rbx
 2355 0d83 E8DDFFFF 		call	_ZN12_GLOBAL__N_115SuiteTestSuite213UnitTestSuite12GetSuiteNameEv
 2355      FF
 2356 0d88 41B84A00 		movl	$74, %r8d
 2356      0000
 2357 0d8e 488D0D00 		leaq	.LC2(%rip), %rcx
 2357      000000
 2358 0d95 4889C2   		movq	%rax, %rdx
 2359 0d98 488D3500 		leaq	.LC25(%rip), %rsi
 2359      000000
 2360 0d9f 4889DF   		movq	%rbx, %rdi
 2361 0da2 E8000000 		call	_ZN8UnitTest4TestC2EPKcS2_S2_i@PLT
 2361      00
 2362 0da7 488D1500 		leaq	16+_ZTVN12_GLOBAL__N_115SuiteTestSuite244TestSimilarlyNamedTestsInDifferentSuitesWorkE(%rip),
 2362      000000
 2363 0dae 488B45E8 		movq	-24(%rbp), %rax
 2364 0db2 488910   		movq	%rdx, (%rax)
 2365              	.LBE33:
 2366 0db5 90       		nop
 2367 0db6 4883C418 		addq	$24, %rsp
 2368 0dba 5B       		popq	%rbx
 2369 0dbb 5D       		popq	%rbp
 2370              		.cfi_def_cfa 7, 8
 2371 0dbc C3       		ret
 2372              		.cfi_endproc
 2373              	.LFE1145:
 2375              		.set	_ZN12_GLOBAL__N_115SuiteTestSuite244TestSimilarlyNamedTestsInDifferentSuitesWorkC1Ev,_ZN12_GL
 2376              		.local	_ZN12_GLOBAL__N_115SuiteTestSuite252testSimilarlyNamedTestsInDifferentSuitesWorkInstanceE
 2377              		.comm	_ZN12_GLOBAL__N_115SuiteTestSuite252testSimilarlyNamedTestsInDifferentSuitesWorkInstanceE,56
 2378              		.local	_ZN12_GLOBAL__N_115SuiteTestSuite245adderSimilarlyNamedTestsInDifferentSuitesWorkE
 2379              		.comm	_ZN12_GLOBAL__N_115SuiteTestSuite245adderSimilarlyNamedTestsInDifferentSuitesWorkE,1,1
 2380 0dbd 90       		.align 2
 2382              	_ZNK12_GLOBAL__N_115SuiteTestSuite244TestSimilarlyNamedTestsInDifferentSuitesWork7RunImplEv:
 2383              	.LFB1147:
  75:TestTestMacros.cpp **** 	{
 2384              		.loc 6 75 0
 2385              		.cfi_startproc
 2386 0dbe 55       		pushq	%rbp
 2387              		.cfi_def_cfa_offset 16
 2388              		.cfi_offset 6, -16
 2389 0dbf 4889E5   		movq	%rsp, %rbp
 2390              		.cfi_def_cfa_register 6
 2391 0dc2 48897DF8 		movq	%rdi, -8(%rbp)
  76:TestTestMacros.cpp **** 	}
 2392              		.loc 6 76 0
 2393 0dc6 90       		nop
 2394 0dc7 5D       		popq	%rbp
 2395              		.cfi_def_cfa 7, 8
 2396 0dc8 C3       		ret
 2397              		.cfi_endproc
 2398              	.LFE1147:
 2400 0dc9 90       		.align 2
 2402              	_ZN12_GLOBAL__N_115SuiteTestSuite265DummyFixtureSimilarlyNamedFixtureTestsInDifferentSuitesWorkHelp
 2403              	.LFB1149:
  77:TestTestMacros.cpp **** 
  78:TestTestMacros.cpp **** 	TEST_FIXTURE(DummyFixture,SimilarlyNamedFixtureTestsInDifferentSuitesWork)
 2404              		.loc 6 78 0
 2405              		.cfi_startproc
 2406 0dca 55       		pushq	%rbp
 2407              		.cfi_def_cfa_offset 16
 2408              		.cfi_offset 6, -16
 2409 0dcb 4889E5   		movq	%rsp, %rbp
 2410              		.cfi_def_cfa_register 6
 2411 0dce 48897DF8 		movq	%rdi, -8(%rbp)
 2412 0dd2 488975F0 		movq	%rsi, -16(%rbp)
 2413              	.LBB34:
 2414              		.loc 6 78 0
 2415 0dd6 488B45F8 		movq	-8(%rbp), %rax
 2416 0dda 488B55F0 		movq	-16(%rbp), %rdx
 2417 0dde 48895008 		movq	%rdx, 8(%rax)
 2418              	.LBE34:
 2419 0de2 90       		nop
 2420 0de3 5D       		popq	%rbp
 2421              		.cfi_def_cfa 7, 8
 2422 0de4 C3       		ret
 2423              		.cfi_endproc
 2424              	.LFE1149:
 2426              		.set	_ZN12_GLOBAL__N_115SuiteTestSuite265DummyFixtureSimilarlyNamedFixtureTestsInDifferentSuitesWo
 2427 0de5 90       		.align 2
 2429              	_ZN12_GLOBAL__N_115SuiteTestSuite263TestDummyFixtureSimilarlyNamedFixtureTestsInDifferentSuitesWork
 2430              	.LFB1152:
 2431              		.loc 6 78 0
 2432              		.cfi_startproc
 2433 0de6 55       		pushq	%rbp
 2434              		.cfi_def_cfa_offset 16
 2435              		.cfi_offset 6, -16
 2436 0de7 4889E5   		movq	%rsp, %rbp
 2437              		.cfi_def_cfa_register 6
 2438 0dea 53       		pushq	%rbx
 2439 0deb 4883EC18 		subq	$24, %rsp
 2440              		.cfi_offset 3, -24
 2441 0def 48897DE8 		movq	%rdi, -24(%rbp)
 2442              	.LBB35:
 2443              		.loc 6 78 0
 2444 0df3 488B5DE8 		movq	-24(%rbp), %rbx
 2445 0df7 E869FFFF 		call	_ZN12_GLOBAL__N_115SuiteTestSuite213UnitTestSuite12GetSuiteNameEv
 2445      FF
 2446 0dfc 41B84E00 		movl	$78, %r8d
 2446      0000
 2447 0e02 488D0D00 		leaq	.LC2(%rip), %rcx
 2447      000000
 2448 0e09 4889C2   		movq	%rax, %rdx
 2449 0e0c 488D3500 		leaq	.LC26(%rip), %rsi
 2449      000000
 2450 0e13 4889DF   		movq	%rbx, %rdi
 2451 0e16 E8000000 		call	_ZN8UnitTest4TestC2EPKcS2_S2_i@PLT
 2451      00
 2452 0e1b 488D1500 		leaq	16+_ZTVN12_GLOBAL__N_115SuiteTestSuite263TestDummyFixtureSimilarlyNamedFixtureTestsInDifferen
 2452      000000
 2453 0e22 488B45E8 		movq	-24(%rbp), %rax
 2454 0e26 488910   		movq	%rdx, (%rax)
 2455              	.LBE35:
 2456 0e29 90       		nop
 2457 0e2a 4883C418 		addq	$24, %rsp
 2458 0e2e 5B       		popq	%rbx
 2459 0e2f 5D       		popq	%rbp
 2460              		.cfi_def_cfa 7, 8
 2461 0e30 C3       		ret
 2462              		.cfi_endproc
 2463              	.LFE1152:
 2465              		.set	_ZN12_GLOBAL__N_115SuiteTestSuite263TestDummyFixtureSimilarlyNamedFixtureTestsInDifferentSuit
 2466              		.local	_ZN12_GLOBAL__N_115SuiteTestSuite271testDummyFixtureSimilarlyNamedFixtureTestsInDifferentSu
 2467              		.comm	_ZN12_GLOBAL__N_115SuiteTestSuite271testDummyFixtureSimilarlyNamedFixtureTestsInDifferentSui
 2468              		.local	_ZN12_GLOBAL__N_115SuiteTestSuite264adderDummyFixtureSimilarlyNamedFixtureTestsInDifferentS
 2469              		.comm	_ZN12_GLOBAL__N_115SuiteTestSuite264adderDummyFixtureSimilarlyNamedFixtureTestsInDifferentSu
 2470 0e31 90       		.align 2
 2472              	_ZNK12_GLOBAL__N_115SuiteTestSuite263TestDummyFixtureSimilarlyNamedFixtureTestsInDifferentSuitesWor
 2473              	.LFB1154:
 2474              		.loc 6 78 0
 2475              		.cfi_startproc
 2476              		.cfi_personality 0x9b,DW.ref.__gxx_personality_v0
 2477              		.cfi_lsda 0x1b,.LLSDA1154
 2478 0e32 55       		pushq	%rbp
 2479              		.cfi_def_cfa_offset 16
 2480              		.cfi_offset 6, -16
 2481 0e33 4889E5   		movq	%rsp, %rbp
 2482              		.cfi_def_cfa_register 6
 2483 0e36 4155     		pushq	%r13
 2484 0e38 4154     		pushq	%r12
 2485 0e3a 53       		pushq	%rbx
 2486 0e3b 4881ECF8 		subq	$504, %rsp
 2486      010000
 2487              		.cfi_offset 13, -24
 2488              		.cfi_offset 12, -32
 2489              		.cfi_offset 3, -40
 2490 0e42 4889BDF8 		movq	%rdi, -520(%rbp)
 2490      FDFFFF
 2491              		.loc 6 78 0
 2492 0e49 64488B04 		movq	%fs:40, %rax
 2492      25280000 
 2492      00
 2493 0e52 488945D8 		movq	%rax, -40(%rbp)
 2494 0e56 31C0     		xorl	%eax, %eax
 2495 0e58 C6850FFE 		movb	$0, -497(%rbp)
 2495      FFFF00
 2496              	.LBB36:
 2497 0e5f 488B85F8 		movq	-520(%rbp), %rax
 2497      FDFFFF
 2498 0e66 488D5008 		leaq	8(%rax), %rdx
 2499 0e6a 488D8520 		leaq	-480(%rbp), %rax
 2499      FEFFFF
 2500 0e71 4889D6   		movq	%rdx, %rsi
 2501 0e74 4889C7   		movq	%rax, %rdi
 2502 0e77 E84EFFFF 		call	_ZN12_GLOBAL__N_115SuiteTestSuite265DummyFixtureSimilarlyNamedFixtureTestsInDifferentSuitesWo
 2502      FF
 2503 0e7c C6850FFE 		movb	$1, -497(%rbp)
 2503      FFFF01
 2504 0e83 488B85F8 		movq	-520(%rbp), %rax
 2504      FDFFFF
 2505 0e8a 488D5008 		leaq	8(%rax), %rdx
 2506 0e8e 488D8520 		leaq	-480(%rbp), %rax
 2506      FEFFFF
 2507 0e95 4889D6   		movq	%rdx, %rsi
 2508 0e98 4889C7   		movq	%rax, %rdi
 2509              	.LEHB44:
 2510 0e9b E8782700 		call	_ZN8UnitTest11ExecuteTestIN12_GLOBAL__N_115SuiteTestSuite265DummyFixtureSimilarlyNamedFixture
 2510      00
 2511              	.LEHE44:
 2512              	.LBE36:
 2513 0ea0 E94C0200 		jmp	.L116
 2513      00
 2514              	.L129:
 2515 0ea5 4883FA01 		cmpq	$1, %rdx
 2516 0ea9 740F     		je	.L119
 2517 0eab 4883FA02 		cmpq	$2, %rdx
 2518 0eaf 0F84A700 		je	.L120
 2518      0000
 2519 0eb5 E94A0100 		jmp	.L134
 2519      00
 2520              	.L119:
 2521              	.LBB37:
 2522 0eba 4889C7   		movq	%rax, %rdi
 2523 0ebd E8000000 		call	__cxa_begin_catch@PLT
 2523      00
 2524 0ec2 48898518 		movq	%rax, -488(%rbp)
 2524      FEFFFF
 2525              	.LEHB45:
 2526 0ec9 E8000000 		call	_ZN8UnitTest11CurrentTest7ResultsEv@PLT
 2526      00
 2527 0ece 488B18   		movq	(%rax), %rbx
 2528 0ed1 488B8518 		movq	-488(%rbp), %rax
 2528      FEFFFF
 2529 0ed8 488B00   		movq	(%rax), %rax
 2530 0edb 4883C010 		addq	$16, %rax
 2531 0edf 488B00   		movq	(%rax), %rax
 2532 0ee2 488B9518 		movq	-488(%rbp), %rdx
 2532      FEFFFF
 2533 0ee9 4889D7   		movq	%rdx, %rdi
 2534 0eec FFD0     		call	*%rax
 2535              	.LVL4:
 2536 0eee 4989C4   		movq	%rax, %r12
 2537 0ef1 488B8518 		movq	-488(%rbp), %rax
 2537      FEFFFF
 2538 0ef8 4889C7   		movq	%rax, %rdi
 2539 0efb E8000000 		call	_ZNK8UnitTest15AssertException10LineNumberEv@PLT
 2539      00
 2540              		.loc 6 78 0 is_stmt 0 discriminator 2
 2541 0f00 4189C5   		movl	%eax, %r13d
 2542 0f03 488B8518 		movq	-488(%rbp), %rax
 2542      FEFFFF
 2543 0f0a 4889C7   		movq	%rax, %rdi
 2544 0f0d E8000000 		call	_ZNK8UnitTest15AssertException8FilenameEv@PLT
 2544      00
 2545              		.loc 6 78 0 discriminator 4
 2546 0f12 4889C1   		movq	%rax, %rcx
 2547 0f15 488B85F8 		movq	-520(%rbp), %rax
 2547      FDFFFF
 2548 0f1c 488B5008 		movq	8(%rax), %rdx
 2549 0f20 488B85F8 		movq	-520(%rbp), %rax
 2549      FDFFFF
 2550 0f27 488B7010 		movq	16(%rax), %rsi
 2551 0f2b 488D8520 		leaq	-480(%rbp), %rax
 2551      FEFFFF
 2552 0f32 4589E8   		movl	%r13d, %r8d
 2553 0f35 4889C7   		movq	%rax, %rdi
 2554 0f38 E8000000 		call	_ZN8UnitTest11TestDetailsC1EPKcS2_S2_i@PLT
 2554      00
 2555              		.loc 6 78 0 discriminator 8
 2556 0f3d 488D8520 		leaq	-480(%rbp), %rax
 2556      FEFFFF
 2557 0f44 4C89E2   		movq	%r12, %rdx
 2558 0f47 4889C6   		movq	%rax, %rsi
 2559 0f4a 4889DF   		movq	%rbx, %rdi
 2560 0f4d E8000000 		call	_ZN8UnitTest11TestResults13OnTestFailureERKNS_11TestDetailsEPKc@PLT
 2560      00
 2561              	.LEHE45:
 2562              		.loc 6 78 0 discriminator 10
 2563 0f52 E8000000 		call	__cxa_end_catch@PLT
 2563      00
 2564              	.LBE37:
 2565 0f57 E9950100 		jmp	.L116
 2565      00
 2566              	.L120:
 2567              	.LBB38:
 2568              		.loc 6 78 0
 2569 0f5c 4889C7   		movq	%rax, %rdi
 2570 0f5f E8000000 		call	__cxa_begin_catch@PLT
 2570      00
 2571 0f64 48898510 		movq	%rax, -496(%rbp)
 2571      FEFFFF
 2572              	.LBB39:
 2573 0f6b 488D8540 		leaq	-448(%rbp), %rax
 2573      FEFFFF
 2574 0f72 4889C7   		movq	%rax, %rdi
 2575              	.LEHB46:
 2576 0f75 E8000000 		call	_ZN8UnitTest15MemoryOutStreamC1Ev
 2576      00
 2577              	.LEHE46:
 2578              		.loc 6 78 0 discriminator 12
 2579 0f7a 488D8540 		leaq	-448(%rbp), %rax
 2579      FEFFFF
 2580 0f81 488D3500 		leaq	.LC11(%rip), %rsi
 2580      000000
 2581 0f88 4889C7   		movq	%rax, %rdi
 2582              	.LEHB47:
 2583 0f8b E8000000 		call	_ZStlsISt11char_traitsIcEERSt13basic_ostreamIcT_ES5_PKc@PLT
 2583      00
 2584 0f90 4889C3   		movq	%rax, %rbx
 2585 0f93 488B8510 		movq	-496(%rbp), %rax
 2585      FEFFFF
 2586 0f9a 488B00   		movq	(%rax), %rax
 2587 0f9d 4883C010 		addq	$16, %rax
 2588 0fa1 488B00   		movq	(%rax), %rax
 2589 0fa4 488B9510 		movq	-496(%rbp), %rdx
 2589      FEFFFF
 2590 0fab 4889D7   		movq	%rdx, %rdi
 2591 0fae FFD0     		call	*%rax
 2592              	.LVL5:
 2593 0fb0 4889C6   		movq	%rax, %rsi
 2594 0fb3 4889DF   		movq	%rbx, %rdi
 2595 0fb6 E8000000 		call	_ZStlsISt11char_traitsIcEERSt13basic_ostreamIcT_ES5_PKc@PLT
 2595      00
 2596              		.loc 6 78 0 discriminator 16
 2597 0fbb E8000000 		call	_ZN8UnitTest11CurrentTest7ResultsEv@PLT
 2597      00
 2598 0fc0 488B18   		movq	(%rax), %rbx
 2599 0fc3 488D8540 		leaq	-448(%rbp), %rax
 2599      FEFFFF
 2600 0fca 4889C7   		movq	%rax, %rdi
 2601 0fcd E8000000 		call	_ZNK8UnitTest15MemoryOutStream7GetTextEv@PLT
 2601      00
 2602              		.loc 6 78 0 discriminator 18
 2603 0fd2 4889C2   		movq	%rax, %rdx
 2604 0fd5 488B85F8 		movq	-520(%rbp), %rax
 2604      FDFFFF
 2605 0fdc 4883C008 		addq	$8, %rax
 2606 0fe0 4889C6   		movq	%rax, %rsi
 2607 0fe3 4889DF   		movq	%rbx, %rdi
 2608 0fe6 E8000000 		call	_ZN8UnitTest11TestResults13OnTestFailureERKNS_11TestDetailsEPKc@PLT
 2608      00
 2609              	.LEHE47:
 2610              		.loc 6 78 0 discriminator 22
 2611 0feb 488D8540 		leaq	-448(%rbp), %rax
 2611      FEFFFF
 2612 0ff2 4889C7   		movq	%rax, %rdi
 2613              	.LEHB48:
 2614 0ff5 E8000000 		call	_ZN8UnitTest15MemoryOutStreamD1Ev
 2614      00
 2615              	.LEHE48:
 2616              	.LBE39:
 2617              		.loc 6 78 0 discriminator 23
 2618 0ffa E8000000 		call	__cxa_end_catch@PLT
 2618      00
 2619              	.LBE38:
 2620 0fff E9ED0000 		jmp	.L116
 2620      00
 2621              	.L134:
 2622              		.loc 6 78 0
 2623 1004 4889C7   		movq	%rax, %rdi
 2624 1007 E8000000 		call	__cxa_begin_catch@PLT
 2624      00
 2625 100c 80BD0FFE 		cmpb	$0, -497(%rbp)
 2625      FFFF00
 2626 1013 7445     		je	.L122
 2627              	.LEHB49:
 2628              		.loc 6 78 0 discriminator 25
 2629 1015 E8000000 		call	_ZN8UnitTest11CurrentTest7ResultsEv@PLT
 2629      00
 2630 101a 488B18   		movq	(%rax), %rbx
 2631 101d 488B85F8 		movq	-520(%rbp), %rax
 2631      FDFFFF
 2632 1024 488D4808 		leaq	8(%rax), %rcx
 2633 1028 488D8520 		leaq	-480(%rbp), %rax
 2633      FEFFFF
 2634 102f BA4E0000 		movl	$78, %edx
 2634      00
 2635 1034 4889CE   		movq	%rcx, %rsi
 2636 1037 4889C7   		movq	%rax, %rdi
 2637 103a E8000000 		call	_ZN8UnitTest11TestDetailsC1ERKS0_i@PLT
 2637      00
 2638              		.loc 6 78 0 discriminator 30
 2639 103f 488D8520 		leaq	-480(%rbp), %rax
 2639      FEFFFF
 2640 1046 488D1500 		leaq	.LC27(%rip), %rdx
 2640      000000
 2641 104d 4889C6   		movq	%rax, %rsi
 2642 1050 4889DF   		movq	%rbx, %rdi
 2643 1053 E8000000 		call	_ZN8UnitTest11TestResults13OnTestFailureERKNS_11TestDetailsEPKc@PLT
 2643      00
 2644 1058 EB43     		jmp	.L123
 2645              	.L122:
 2646              		.loc 6 78 0 discriminator 26
 2647 105a E8000000 		call	_ZN8UnitTest11CurrentTest7ResultsEv@PLT
 2647      00
 2648 105f 488B18   		movq	(%rax), %rbx
 2649 1062 488B85F8 		movq	-520(%rbp), %rax
 2649      FDFFFF
 2650 1069 488D4808 		leaq	8(%rax), %rcx
 2651 106d 488D8520 		leaq	-480(%rbp), %rax
 2651      FEFFFF
 2652 1074 BA4E0000 		movl	$78, %edx
 2652      00
 2653 1079 4889CE   		movq	%rcx, %rsi
 2654 107c 4889C7   		movq	%rax, %rdi
 2655 107f E8000000 		call	_ZN8UnitTest11TestDetailsC1ERKS0_i@PLT
 2655      00
 2656              		.loc 6 78 0 discriminator 37
 2657 1084 488D8520 		leaq	-480(%rbp), %rax
 2657      FEFFFF
 2658 108b 488D1500 		leaq	.LC28(%rip), %rdx
 2658      000000
 2659 1092 4889C6   		movq	%rax, %rsi
 2660 1095 4889DF   		movq	%rbx, %rdi
 2661 1098 E8000000 		call	_ZN8UnitTest11TestResults13OnTestFailureERKNS_11TestDetailsEPKc@PLT
 2661      00
 2662              	.LEHE49:
 2663              	.L123:
 2664              	.LEHB50:
 2665              		.loc 6 78 0 discriminator 40
 2666 109d E8000000 		call	__cxa_end_catch@PLT
 2666      00
 2667 10a2 EB4D     		jmp	.L116
 2668              	.L130:
 2669 10a4 4889C3   		movq	%rax, %rbx
 2670              	.LBB41:
 2671              		.loc 6 78 0
 2672 10a7 E8000000 		call	__cxa_end_catch@PLT
 2672      00
 2673 10ac 4889D8   		movq	%rbx, %rax
 2674 10af 4889C7   		movq	%rax, %rdi
 2675 10b2 E8000000 		call	_Unwind_Resume@PLT
 2675      00
 2676              	.LEHE50:
 2677              	.L132:
 2678 10b7 4889C3   		movq	%rax, %rbx
 2679              	.LBE41:
 2680              	.LBB42:
 2681              	.LBB40:
 2682 10ba 488D8540 		leaq	-448(%rbp), %rax
 2682      FEFFFF
 2683 10c1 4889C7   		movq	%rax, %rdi
 2684 10c4 E8000000 		call	_ZN8UnitTest15MemoryOutStreamD1Ev
 2684      00
 2685 10c9 EB03     		jmp	.L126
 2686              	.L131:
 2687 10cb 4889C3   		movq	%rax, %rbx
 2688              	.L126:
 2689              	.LBE40:
 2690 10ce E8000000 		call	__cxa_end_catch@PLT
 2690      00
 2691 10d3 4889D8   		movq	%rbx, %rax
 2692 10d6 4889C7   		movq	%rax, %rdi
 2693              	.LEHB51:
 2694 10d9 E8000000 		call	_Unwind_Resume@PLT
 2694      00
 2695              	.LEHE51:
 2696              	.L133:
 2697 10de 4889C3   		movq	%rax, %rbx
 2698              	.LBE42:
 2699 10e1 E8000000 		call	__cxa_end_catch@PLT
 2699      00
 2700 10e6 4889D8   		movq	%rbx, %rax
 2701 10e9 4889C7   		movq	%rax, %rdi
 2702              	.LEHB52:
 2703 10ec E8000000 		call	_Unwind_Resume@PLT
 2703      00
 2704              	.LEHE52:
 2705              	.L116:
 2706 10f1 488B45D8 		movq	-40(%rbp), %rax
 2707 10f5 64483304 		xorq	%fs:40, %rax
 2707      25280000 
 2707      00
 2708 10fe 7405     		je	.L128
 2709 1100 E8000000 		call	__stack_chk_fail@PLT
 2709      00
 2710              	.L128:
 2711 1105 4881C4F8 		addq	$504, %rsp
 2711      010000
 2712 110c 5B       		popq	%rbx
 2713 110d 415C     		popq	%r12
 2714 110f 415D     		popq	%r13
 2715 1111 5D       		popq	%rbp
 2716              		.cfi_def_cfa 7, 8
 2717 1112 C3       		ret
 2718              		.cfi_endproc
 2719              	.LFE1154:
 2720              		.section	.gcc_except_table
 2721              		.align 4
 2722              	.LLSDA1154:
 2723 012c FF       		.byte	0xff
 2724 012d 9B       		.byte	0x9b
 2725 012e 49       		.uleb128 .LLSDATT1154-.LLSDATTD1154
 2726              	.LLSDATTD1154:
 2727 012f 01       		.byte	0x1
 2728 0130 33       		.uleb128 .LLSDACSE1154-.LLSDACSB1154
 2729              	.LLSDACSB1154:
 2730 0131 69       		.uleb128 .LEHB44-.LFB1154
 2731 0132 05       		.uleb128 .LEHE44-.LEHB44
 2732 0133 73       		.uleb128 .L129-.LFB1154
 2733 0134 05       		.uleb128 0x5
 2734 0135 9701     		.uleb128 .LEHB45-.LFB1154
 2735 0137 8901     		.uleb128 .LEHE45-.LEHB45
 2736 0139 F204     		.uleb128 .L130-.LFB1154
 2737 013b 00       		.uleb128 0
 2738 013c C302     		.uleb128 .LEHB46-.LFB1154
 2739 013e 05       		.uleb128 .LEHE46-.LEHB46
 2740 013f 9905     		.uleb128 .L131-.LFB1154
 2741 0141 00       		.uleb128 0
 2742 0142 D902     		.uleb128 .LEHB47-.LFB1154
 2743 0144 60       		.uleb128 .LEHE47-.LEHB47
 2744 0145 8505     		.uleb128 .L132-.LFB1154
 2745 0147 00       		.uleb128 0
 2746 0148 C303     		.uleb128 .LEHB48-.LFB1154
 2747 014a 05       		.uleb128 .LEHE48-.LEHB48
 2748 014b 9905     		.uleb128 .L131-.LFB1154
 2749 014d 00       		.uleb128 0
 2750 014e E303     		.uleb128 .LEHB49-.LFB1154
 2751 0150 8801     		.uleb128 .LEHE49-.LEHB49
 2752 0152 AC05     		.uleb128 .L133-.LFB1154
 2753 0154 00       		.uleb128 0
 2754 0155 EB04     		.uleb128 .LEHB50-.LFB1154
 2755 0157 1A       		.uleb128 .LEHE50-.LEHB50
 2756 0158 00       		.uleb128 0
 2757 0159 00       		.uleb128 0
 2758 015a A705     		.uleb128 .LEHB51-.LFB1154
 2759 015c 05       		.uleb128 .LEHE51-.LEHB51
 2760 015d 00       		.uleb128 0
 2761 015e 00       		.uleb128 0
 2762 015f BA05     		.uleb128 .LEHB52-.LFB1154
 2763 0161 05       		.uleb128 .LEHE52-.LEHB52
 2764 0162 00       		.uleb128 0
 2765 0163 00       		.uleb128 0
 2766              	.LLSDACSE1154:
 2767 0164 03       		.byte	0x3
 2768 0165 00       		.byte	0
 2769 0166 02       		.byte	0x2
 2770 0167 7D       		.byte	0x7d
 2771 0168 01       		.byte	0x1
 2772 0169 7D       		.byte	0x7d
 2773 016a 0000     		.align 4
 2774 016c 00000000 		.long	0
 2775              	
 2776 0170 00000000 		.long	DW.ref._ZTISt9exception-.
 2777 0174 00000000 		.long	DW.ref._ZTIN8UnitTest15AssertExceptionE-.
 2778              	.LLSDATT1154:
 2779              		.text
 2781 1113 90       		.align 2
 2783              	_ZN12_GLOBAL__N_115SuiteTestSuite265DummyFixtureSimilarlyNamedFixtureTestsInDifferentSuitesWorkHelp
 2784              	.LFB1155:
  79:TestTestMacros.cpp **** 	{
 2785              		.loc 6 79 0 is_stmt 1
 2786              		.cfi_startproc
 2787 1114 55       		pushq	%rbp
 2788              		.cfi_def_cfa_offset 16
 2789              		.cfi_offset 6, -16
 2790 1115 4889E5   		movq	%rsp, %rbp
 2791              		.cfi_def_cfa_register 6
 2792 1118 48897DF8 		movq	%rdi, -8(%rbp)
  80:TestTestMacros.cpp **** 	}
 2793              		.loc 6 80 0
 2794 111c 90       		nop
 2795 111d 5D       		popq	%rbp
 2796              		.cfi_def_cfa 7, 8
 2797 111e C3       		ret
 2798              		.cfi_endproc
 2799              	.LFE1155:
 2801              		.local	_ZN12_GLOBAL__N_114macroTestList1E
 2802              		.comm	_ZN12_GLOBAL__N_114macroTestList1E,16,16
 2803              		.section	.rodata
 2804              	.LC30:
 2805 047f 4D616372 		.string	"MacroTestHelper1"
 2805      6F546573 
 2805      7448656C 
 2805      70657231 
 2805      00
 2806              		.text
 2807 111f 90       		.align 2
 2809              	_ZN12_GLOBAL__N_120TestMacroTestHelper1C2Ev:
 2810              	.LFB1157:
  81:TestTestMacros.cpp **** }
  82:TestTestMacros.cpp **** 
  83:TestTestMacros.cpp **** TestList macroTestList1;
  84:TestTestMacros.cpp **** TEST_EX(MacroTestHelper1, macroTestList1)
 2811              		.loc 6 84 0
 2812              		.cfi_startproc
 2813 1120 55       		pushq	%rbp
 2814              		.cfi_def_cfa_offset 16
 2815              		.cfi_offset 6, -16
 2816 1121 4889E5   		movq	%rsp, %rbp
 2817              		.cfi_def_cfa_register 6
 2818 1124 53       		pushq	%rbx
 2819 1125 4883EC18 		subq	$24, %rsp
 2820              		.cfi_offset 3, -24
 2821 1129 48897DE8 		movq	%rdi, -24(%rbp)
 2822              	.LBB43:
 2823              		.loc 6 84 0
 2824 112d 488B5DE8 		movq	-24(%rbp), %rbx
 2825 1131 E8000000 		call	_ZN13UnitTestSuite12GetSuiteNameEv
 2825      00
 2826 1136 41B85400 		movl	$84, %r8d
 2826      0000
 2827 113c 488D0D00 		leaq	.LC2(%rip), %rcx
 2827      000000
 2828 1143 4889C2   		movq	%rax, %rdx
 2829 1146 488D3500 		leaq	.LC30(%rip), %rsi
 2829      000000
 2830 114d 4889DF   		movq	%rbx, %rdi
 2831 1150 E8000000 		call	_ZN8UnitTest4TestC2EPKcS2_S2_i@PLT
 2831      00
 2832 1155 488D1500 		leaq	16+_ZTVN12_GLOBAL__N_120TestMacroTestHelper1E(%rip), %rdx
 2832      000000
 2833 115c 488B45E8 		movq	-24(%rbp), %rax
 2834 1160 488910   		movq	%rdx, (%rax)
 2835              	.LBE43:
 2836 1163 90       		nop
 2837 1164 4883C418 		addq	$24, %rsp
 2838 1168 5B       		popq	%rbx
 2839 1169 5D       		popq	%rbp
 2840              		.cfi_def_cfa 7, 8
 2841 116a C3       		ret
 2842              		.cfi_endproc
 2843              	.LFE1157:
 2845              		.set	_ZN12_GLOBAL__N_120TestMacroTestHelper1C1Ev,_ZN12_GLOBAL__N_120TestMacroTestHelper1C2Ev
 2846              		.local	_ZN12_GLOBAL__N_128testMacroTestHelper1InstanceE
 2847              		.comm	_ZN12_GLOBAL__N_128testMacroTestHelper1InstanceE,56,32
 2848              		.local	_ZN12_GLOBAL__N_121adderMacroTestHelper1E
 2849              		.comm	_ZN12_GLOBAL__N_121adderMacroTestHelper1E,1,1
 2850 116b 90       		.align 2
 2852              	_ZNK12_GLOBAL__N_120TestMacroTestHelper17RunImplEv:
 2853              	.LFB1159:
  85:TestTestMacros.cpp **** {
 2854              		.loc 6 85 0
 2855              		.cfi_startproc
 2856 116c 55       		pushq	%rbp
 2857              		.cfi_def_cfa_offset 16
 2858              		.cfi_offset 6, -16
 2859 116d 4889E5   		movq	%rsp, %rbp
 2860              		.cfi_def_cfa_register 6
 2861 1170 48897DF8 		movq	%rdi, -8(%rbp)
  86:TestTestMacros.cpp **** }
 2862              		.loc 6 86 0
 2863 1174 90       		nop
 2864 1175 5D       		popq	%rbp
 2865              		.cfi_def_cfa 7, 8
 2866 1176 C3       		ret
 2867              		.cfi_endproc
 2868              	.LFE1159:
 2870              		.section	.rodata
 2871              		.align 8
 2872              	.LC31:
 2873 0490 54657374 		.string	"TestAddedWithTEST_EXMacroGetsDefaultSuite"
 2873      41646465 
 2873      64576974 
 2873      68544553 
 2873      545F4558 
 2874              		.text
 2875 1177 90       		.align 2
 2877              	_ZN12_GLOBAL__N_145TestTestAddedWithTEST_EXMacroGetsDefaultSuiteC2Ev:
 2878              	.LFB1161:
  87:TestTestMacros.cpp **** 
  88:TestTestMacros.cpp **** TEST(TestAddedWithTEST_EXMacroGetsDefaultSuite)
 2879              		.loc 6 88 0
 2880              		.cfi_startproc
 2881 1178 55       		pushq	%rbp
 2882              		.cfi_def_cfa_offset 16
 2883              		.cfi_offset 6, -16
 2884 1179 4889E5   		movq	%rsp, %rbp
 2885              		.cfi_def_cfa_register 6
 2886 117c 53       		pushq	%rbx
 2887 117d 4883EC18 		subq	$24, %rsp
 2888              		.cfi_offset 3, -24
 2889 1181 48897DE8 		movq	%rdi, -24(%rbp)
 2890              	.LBB44:
 2891              		.loc 6 88 0
 2892 1185 488B5DE8 		movq	-24(%rbp), %rbx
 2893 1189 E8000000 		call	_ZN13UnitTestSuite12GetSuiteNameEv
 2893      00
 2894 118e 41B85800 		movl	$88, %r8d
 2894      0000
 2895 1194 488D0D00 		leaq	.LC2(%rip), %rcx
 2895      000000
 2896 119b 4889C2   		movq	%rax, %rdx
 2897 119e 488D3500 		leaq	.LC31(%rip), %rsi
 2897      000000
 2898 11a5 4889DF   		movq	%rbx, %rdi
 2899 11a8 E8000000 		call	_ZN8UnitTest4TestC2EPKcS2_S2_i@PLT
 2899      00
 2900 11ad 488D1500 		leaq	16+_ZTVN12_GLOBAL__N_145TestTestAddedWithTEST_EXMacroGetsDefaultSuiteE(%rip), %rdx
 2900      000000
 2901 11b4 488B45E8 		movq	-24(%rbp), %rax
 2902 11b8 488910   		movq	%rdx, (%rax)
 2903              	.LBE44:
 2904 11bb 90       		nop
 2905 11bc 4883C418 		addq	$24, %rsp
 2906 11c0 5B       		popq	%rbx
 2907 11c1 5D       		popq	%rbp
 2908              		.cfi_def_cfa 7, 8
 2909 11c2 C3       		ret
 2910              		.cfi_endproc
 2911              	.LFE1161:
 2913              		.set	_ZN12_GLOBAL__N_145TestTestAddedWithTEST_EXMacroGetsDefaultSuiteC1Ev,_ZN12_GLOBAL__N_145TestT
 2914              		.local	_ZN12_GLOBAL__N_153testTestAddedWithTEST_EXMacroGetsDefaultSuiteInstanceE
 2915              		.comm	_ZN12_GLOBAL__N_153testTestAddedWithTEST_EXMacroGetsDefaultSuiteInstanceE,56,32
 2916              		.local	_ZN12_GLOBAL__N_146adderTestAddedWithTEST_EXMacroGetsDefaultSuiteE
 2917              		.comm	_ZN12_GLOBAL__N_146adderTestAddedWithTEST_EXMacroGetsDefaultSuiteE,1,1
 2918              		.section	.rodata
 2919 04ba 00000000 		.align 8
 2919      0000
 2920              	.LC32:
 2921 04c0 6D616372 		.string	"macroTestList1.GetHead() != NULL"
 2921      6F546573 
 2921      744C6973 
 2921      74312E47 
 2921      65744865 
 2922 04e1 00000000 		.align 8
 2922      000000
 2923              	.LC33:
 2924 04e8 556E6861 		.string	"Unhandled exception in CHECK(macroTestList1.GetHead() != NULL)"
 2924      6E646C65 
 2924      64206578 
 2924      63657074 
 2924      696F6E20 
 2925 0527 00       		.align 8
 2926              	.LC34:
 2927 0528 556E6861 		.string	"Unhandled exception in CHECK_EQUAL(\"MacroTestHelper1\", macroTestList1.GetHead()->m_deta
 2927      6E646C65 
 2927      64206578 
 2927      63657074 
 2927      696F6E20 
 2928 058d 000000   		.align 8
 2929              	.LC35:
 2930 0590 556E6861 		.string	"Unhandled exception in CHECK_EQUAL(\"DefaultSuite\", macroTestList1.GetHead()->m_details.
 2930      6E646C65 
 2930      64206578 
 2930      63657074 
 2930      696F6E20 
 2931              		.text
 2932 11c3 90       		.align 2
 2934              	_ZNK12_GLOBAL__N_145TestTestAddedWithTEST_EXMacroGetsDefaultSuite7RunImplEv:
 2935              	.LFB1163:
  89:TestTestMacros.cpp **** {
 2936              		.loc 6 89 0
 2937              		.cfi_startproc
 2938              		.cfi_personality 0x9b,DW.ref.__gxx_personality_v0
 2939              		.cfi_lsda 0x1b,.LLSDA1163
 2940 11c4 55       		pushq	%rbp
 2941              		.cfi_def_cfa_offset 16
 2942              		.cfi_offset 6, -16
 2943 11c5 4889E5   		movq	%rsp, %rbp
 2944              		.cfi_def_cfa_register 6
 2945 11c8 53       		pushq	%rbx
 2946 11c9 4883EC48 		subq	$72, %rsp
 2947              		.cfi_offset 3, -24
 2948 11cd 48897DB8 		movq	%rdi, -72(%rbp)
 2949              		.loc 6 89 0
 2950 11d1 64488B04 		movq	%fs:40, %rax
 2950      25280000 
 2950      00
 2951 11da 488945E8 		movq	%rax, -24(%rbp)
 2952 11de 31C0     		xorl	%eax, %eax
  90:TestTestMacros.cpp ****     CHECK(macroTestList1.GetHead() != NULL);
 2953              		.loc 6 90 0
 2954 11e0 488D3D00 		leaq	_ZN12_GLOBAL__N_114macroTestList1E(%rip), %rdi
 2954      000000
 2955              	.LEHB53:
 2956 11e7 E8000000 		call	_ZNK8UnitTest8TestList7GetHeadEv@PLT
 2956      00
 2957 11ec 4885C0   		testq	%rax, %rax
 2958 11ef 0F95C0   		setne	%al
 2959 11f2 0FB6C0   		movzbl	%al, %eax
 2960 11f5 89C7     		movl	%eax, %edi
 2961 11f7 E8000000 		call	_ZN8UnitTest5CheckIbEEbT_
 2961      00
 2962 11fc 83F001   		xorl	$1, %eax
 2963 11ff 84C0     		testb	%al, %al
 2964 1201 743A     		je	.L140
 2965              		.loc 6 90 0 is_stmt 0 discriminator 2
 2966 1203 E8000000 		call	_ZN8UnitTest11CurrentTest7ResultsEv@PLT
 2966      00
 2967 1208 488B18   		movq	(%rax), %rbx
 2968 120b E8000000 		call	_ZN8UnitTest11CurrentTest7DetailsEv@PLT
 2968      00
 2969              		.loc 6 90 0 discriminator 3
 2970 1210 488B08   		movq	(%rax), %rcx
 2971 1213 488D45C0 		leaq	-64(%rbp), %rax
 2972 1217 BA5A0000 		movl	$90, %edx
 2972      00
 2973 121c 4889CE   		movq	%rcx, %rsi
 2974 121f 4889C7   		movq	%rax, %rdi
 2975 1222 E8000000 		call	_ZN8UnitTest11TestDetailsC1ERKS0_i@PLT
 2975      00
 2976              		.loc 6 90 0 discriminator 5
 2977 1227 488D45C0 		leaq	-64(%rbp), %rax
 2978 122b 488D1500 		leaq	.LC32(%rip), %rdx
 2978      000000
 2979 1232 4889C6   		movq	%rax, %rsi
 2980 1235 4889DF   		movq	%rbx, %rdi
 2981 1238 E8000000 		call	_ZN8UnitTest11TestResults13OnTestFailureERKNS_11TestDetailsEPKc@PLT
 2981      00
 2982              	.LEHE53:
 2983              	.L140:
 2984              	.LEHB54:
  91:TestTestMacros.cpp ****     CHECK_EQUAL ("MacroTestHelper1", macroTestList1.GetHead()->m_details.testName);
 2985              		.loc 6 91 0 is_stmt 1
 2986 123d E8000000 		call	_ZN8UnitTest11CurrentTest7DetailsEv@PLT
 2986      00
 2987 1242 488B08   		movq	(%rax), %rcx
 2988 1245 488D45C0 		leaq	-64(%rbp), %rax
 2989 1249 BA5B0000 		movl	$91, %edx
 2989      00
 2990 124e 4889CE   		movq	%rcx, %rsi
 2991 1251 4889C7   		movq	%rax, %rdi
 2992 1254 E8000000 		call	_ZN8UnitTest11TestDetailsC1ERKS0_i@PLT
 2992      00
 2993              		.loc 6 91 0 is_stmt 0 discriminator 2
 2994 1259 488D3D00 		leaq	_ZN12_GLOBAL__N_114macroTestList1E(%rip), %rdi
 2994      000000
 2995 1260 E8000000 		call	_ZNK8UnitTest8TestList7GetHeadEv@PLT
 2995      00
 2996 1265 488B5810 		movq	16(%rax), %rbx
 2997 1269 E8000000 		call	_ZN8UnitTest11CurrentTest7ResultsEv@PLT
 2997      00
 2998              		.loc 6 91 0 discriminator 4
 2999 126e 488B00   		movq	(%rax), %rax
 3000 1271 488D55C0 		leaq	-64(%rbp), %rdx
 3001 1275 4889D1   		movq	%rdx, %rcx
 3002 1278 4889DA   		movq	%rbx, %rdx
 3003 127b 488D3500 		leaq	.LC30(%rip), %rsi
 3003      000000
 3004 1282 4889C7   		movq	%rax, %rdi
 3005 1285 E8000000 		call	_ZN8UnitTest10CheckEqualERNS_11TestResultsEPKcS3_RKNS_11TestDetailsE@PLT
 3005      00
 3006              	.LEHE54:
 3007              	.L144:
 3008              	.LEHB55:
  92:TestTestMacros.cpp ****     CHECK_EQUAL ("DefaultSuite", macroTestList1.GetHead()->m_details.suiteName);
 3009              		.loc 6 92 0 is_stmt 1
 3010 128a E8000000 		call	_ZN8UnitTest11CurrentTest7DetailsEv@PLT
 3010      00
 3011 128f 488B08   		movq	(%rax), %rcx
 3012 1292 488D45C0 		leaq	-64(%rbp), %rax
 3013 1296 BA5C0000 		movl	$92, %edx
 3013      00
 3014 129b 4889CE   		movq	%rcx, %rsi
 3015 129e 4889C7   		movq	%rax, %rdi
 3016 12a1 E8000000 		call	_ZN8UnitTest11TestDetailsC1ERKS0_i@PLT
 3016      00
 3017              		.loc 6 92 0 is_stmt 0 discriminator 2
 3018 12a6 488D3D00 		leaq	_ZN12_GLOBAL__N_114macroTestList1E(%rip), %rdi
 3018      000000
 3019 12ad E8000000 		call	_ZNK8UnitTest8TestList7GetHeadEv@PLT
 3019      00
 3020 12b2 488B5808 		movq	8(%rax), %rbx
 3021 12b6 E8000000 		call	_ZN8UnitTest11CurrentTest7ResultsEv@PLT
 3021      00
 3022              		.loc 6 92 0 discriminator 4
 3023 12bb 488B00   		movq	(%rax), %rax
 3024 12be 488D55C0 		leaq	-64(%rbp), %rdx
 3025 12c2 4889D1   		movq	%rdx, %rcx
 3026 12c5 4889DA   		movq	%rbx, %rdx
 3027 12c8 488D3500 		leaq	.LC0(%rip), %rsi
 3027      000000
 3028 12cf 4889C7   		movq	%rax, %rdi
 3029 12d2 E8000000 		call	_ZN8UnitTest10CheckEqualERNS_11TestResultsEPKcS3_RKNS_11TestDetailsE@PLT
 3029      00
 3030              	.LEHE55:
  93:TestTestMacros.cpp **** }
 3031              		.loc 6 93 0 is_stmt 1
 3032 12d7 E91A0100 		jmp	.L139
 3032      00
 3033              	.L150:
  90:TestTestMacros.cpp ****     CHECK_EQUAL ("MacroTestHelper1", macroTestList1.GetHead()->m_details.testName);
 3034              		.loc 6 90 0
 3035 12dc 4889C7   		movq	%rax, %rdi
 3036 12df E8000000 		call	__cxa_begin_catch@PLT
 3036      00
 3037              	.LEHB56:
 3038 12e4 E8000000 		call	_ZN8UnitTest11CurrentTest7ResultsEv@PLT
 3038      00
 3039 12e9 488B18   		movq	(%rax), %rbx
 3040 12ec E8000000 		call	_ZN8UnitTest11CurrentTest7DetailsEv@PLT
 3040      00
  90:TestTestMacros.cpp ****     CHECK_EQUAL ("MacroTestHelper1", macroTestList1.GetHead()->m_details.testName);
 3041              		.loc 6 90 0 is_stmt 0 discriminator 9
 3042 12f1 488B08   		movq	(%rax), %rcx
 3043 12f4 488D45C0 		leaq	-64(%rbp), %rax
 3044 12f8 BA5A0000 		movl	$90, %edx
 3044      00
 3045 12fd 4889CE   		movq	%rcx, %rsi
 3046 1300 4889C7   		movq	%rax, %rdi
 3047 1303 E8000000 		call	_ZN8UnitTest11TestDetailsC1ERKS0_i@PLT
 3047      00
  90:TestTestMacros.cpp ****     CHECK_EQUAL ("MacroTestHelper1", macroTestList1.GetHead()->m_details.testName);
 3048              		.loc 6 90 0 discriminator 13
 3049 1308 488D45C0 		leaq	-64(%rbp), %rax
 3050 130c 488D1500 		leaq	.LC33(%rip), %rdx
 3050      000000
 3051 1313 4889C6   		movq	%rax, %rsi
 3052 1316 4889DF   		movq	%rbx, %rdi
 3053 1319 E8000000 		call	_ZN8UnitTest11TestResults13OnTestFailureERKNS_11TestDetailsEPKc@PLT
 3053      00
 3054              	.LEHE56:
 3055              	.LEHB57:
  90:TestTestMacros.cpp ****     CHECK_EQUAL ("MacroTestHelper1", macroTestList1.GetHead()->m_details.testName);
 3056              		.loc 6 90 0 discriminator 15
 3057 131e E8000000 		call	__cxa_end_catch@PLT
 3057      00
 3058              	.LEHE57:
 3059 1323 E915FFFF 		jmp	.L140
 3059      FF
 3060              	.L151:
 3061 1328 4889C3   		movq	%rax, %rbx
  90:TestTestMacros.cpp ****     CHECK_EQUAL ("MacroTestHelper1", macroTestList1.GetHead()->m_details.testName);
 3062              		.loc 6 90 0
 3063 132b E8000000 		call	__cxa_end_catch@PLT
 3063      00
 3064 1330 4889D8   		movq	%rbx, %rax
 3065 1333 4889C7   		movq	%rax, %rdi
 3066              	.LEHB58:
 3067 1336 E8000000 		call	_Unwind_Resume@PLT
 3067      00
 3068              	.LEHE58:
 3069              	.L152:
  91:TestTestMacros.cpp ****     CHECK_EQUAL ("DefaultSuite", macroTestList1.GetHead()->m_details.suiteName);
 3070              		.loc 6 91 0 is_stmt 1
 3071 133b 4889C7   		movq	%rax, %rdi
 3072 133e E8000000 		call	__cxa_begin_catch@PLT
 3072      00
 3073              	.LEHB59:
 3074 1343 E8000000 		call	_ZN8UnitTest11CurrentTest7ResultsEv@PLT
 3074      00
 3075 1348 488B18   		movq	(%rax), %rbx
 3076 134b E8000000 		call	_ZN8UnitTest11CurrentTest7DetailsEv@PLT
 3076      00
  91:TestTestMacros.cpp ****     CHECK_EQUAL ("DefaultSuite", macroTestList1.GetHead()->m_details.suiteName);
 3077              		.loc 6 91 0 is_stmt 0 discriminator 10
 3078 1350 488B08   		movq	(%rax), %rcx
 3079 1353 488D45C0 		leaq	-64(%rbp), %rax
 3080 1357 BA5B0000 		movl	$91, %edx
 3080      00
 3081 135c 4889CE   		movq	%rcx, %rsi
 3082 135f 4889C7   		movq	%rax, %rdi
 3083 1362 E8000000 		call	_ZN8UnitTest11TestDetailsC1ERKS0_i@PLT
 3083      00
  91:TestTestMacros.cpp ****     CHECK_EQUAL ("DefaultSuite", macroTestList1.GetHead()->m_details.suiteName);
 3084              		.loc 6 91 0 discriminator 14
 3085 1367 488D45C0 		leaq	-64(%rbp), %rax
 3086 136b 488D1500 		leaq	.LC34(%rip), %rdx
 3086      000000
 3087 1372 4889C6   		movq	%rax, %rsi
 3088 1375 4889DF   		movq	%rbx, %rdi
 3089 1378 E8000000 		call	_ZN8UnitTest11TestResults13OnTestFailureERKNS_11TestDetailsEPKc@PLT
 3089      00
 3090              	.LEHE59:
 3091              	.LEHB60:
  91:TestTestMacros.cpp ****     CHECK_EQUAL ("DefaultSuite", macroTestList1.GetHead()->m_details.suiteName);
 3092              		.loc 6 91 0 discriminator 16
 3093 137d E8000000 		call	__cxa_end_catch@PLT
 3093      00
 3094              	.LEHE60:
 3095 1382 E903FFFF 		jmp	.L144
 3095      FF
 3096              	.L153:
 3097 1387 4889C3   		movq	%rax, %rbx
  91:TestTestMacros.cpp ****     CHECK_EQUAL ("DefaultSuite", macroTestList1.GetHead()->m_details.suiteName);
 3098              		.loc 6 91 0
 3099 138a E8000000 		call	__cxa_end_catch@PLT
 3099      00
 3100 138f 4889D8   		movq	%rbx, %rax
 3101 1392 4889C7   		movq	%rax, %rdi
 3102              	.LEHB61:
 3103 1395 E8000000 		call	_Unwind_Resume@PLT
 3103      00
 3104              	.LEHE61:
 3105              	.L154:
  92:TestTestMacros.cpp **** }
 3106              		.loc 6 92 0 is_stmt 1
 3107 139a 4889C7   		movq	%rax, %rdi
 3108 139d E8000000 		call	__cxa_begin_catch@PLT
 3108      00
 3109              	.LEHB62:
 3110 13a2 E8000000 		call	_ZN8UnitTest11CurrentTest7ResultsEv@PLT
 3110      00
 3111 13a7 488B18   		movq	(%rax), %rbx
 3112 13aa E8000000 		call	_ZN8UnitTest11CurrentTest7DetailsEv@PLT
 3112      00
  92:TestTestMacros.cpp **** }
 3113              		.loc 6 92 0 is_stmt 0 discriminator 10
 3114 13af 488B08   		movq	(%rax), %rcx
 3115 13b2 488D45C0 		leaq	-64(%rbp), %rax
 3116 13b6 BA5C0000 		movl	$92, %edx
 3116      00
 3117 13bb 4889CE   		movq	%rcx, %rsi
 3118 13be 4889C7   		movq	%rax, %rdi
 3119 13c1 E8000000 		call	_ZN8UnitTest11TestDetailsC1ERKS0_i@PLT
 3119      00
  92:TestTestMacros.cpp **** }
 3120              		.loc 6 92 0 discriminator 14
 3121 13c6 488D45C0 		leaq	-64(%rbp), %rax
 3122 13ca 488D1500 		leaq	.LC35(%rip), %rdx
 3122      000000
 3123 13d1 4889C6   		movq	%rax, %rsi
 3124 13d4 4889DF   		movq	%rbx, %rdi
 3125 13d7 E8000000 		call	_ZN8UnitTest11TestResults13OnTestFailureERKNS_11TestDetailsEPKc@PLT
 3125      00
 3126              	.LEHE62:
 3127              	.LEHB63:
  92:TestTestMacros.cpp **** }
 3128              		.loc 6 92 0 discriminator 16
 3129 13dc E8000000 		call	__cxa_end_catch@PLT
 3129      00
 3130              	.LEHE63:
 3131              		.loc 6 93 0 is_stmt 1 discriminator 16
 3132 13e1 EB13     		jmp	.L139
 3133              	.L155:
 3134 13e3 4889C3   		movq	%rax, %rbx
  92:TestTestMacros.cpp **** }
 3135              		.loc 6 92 0
 3136 13e6 E8000000 		call	__cxa_end_catch@PLT
 3136      00
 3137 13eb 4889D8   		movq	%rbx, %rax
 3138 13ee 4889C7   		movq	%rax, %rdi
 3139              	.LEHB64:
 3140 13f1 E8000000 		call	_Unwind_Resume@PLT
 3140      00
 3141              	.LEHE64:
 3142              	.L139:
 3143              		.loc 6 93 0
 3144 13f6 488B45E8 		movq	-24(%rbp), %rax
 3145 13fa 64483304 		xorq	%fs:40, %rax
 3145      25280000 
 3145      00
 3146 1403 7405     		je	.L149
 3147 1405 E8000000 		call	__stack_chk_fail@PLT
 3147      00
 3148              	.L149:
 3149 140a 4883C448 		addq	$72, %rsp
 3150 140e 5B       		popq	%rbx
 3151 140f 5D       		popq	%rbp
 3152              		.cfi_def_cfa 7, 8
 3153 1410 C3       		ret
 3154              		.cfi_endproc
 3155              	.LFE1163:
 3156              		.section	.gcc_except_table
 3157              		.align 4
 3158              	.LLSDA1163:
 3159 0178 FF       		.byte	0xff
 3160 0179 9B       		.byte	0x9b
 3161 017a 49       		.uleb128 .LLSDATT1163-.LLSDATTD1163
 3162              	.LLSDATTD1163:
 3163 017b 01       		.byte	0x1
 3164 017c 40       		.uleb128 .LLSDACSE1163-.LLSDACSB1163
 3165              	.LLSDACSB1163:
 3166 017d 23       		.uleb128 .LEHB53-.LFB1163
 3167 017e 56       		.uleb128 .LEHE53-.LEHB53
 3168 017f 9802     		.uleb128 .L150-.LFB1163
 3169 0181 01       		.uleb128 0x1
 3170 0182 79       		.uleb128 .LEHB54-.LFB1163
 3171 0183 4D       		.uleb128 .LEHE54-.LEHB54
 3172 0184 F702     		.uleb128 .L152-.LFB1163
 3173 0186 01       		.uleb128 0x1
 3174 0187 C601     		.uleb128 .LEHB55-.LFB1163
 3175 0189 4D       		.uleb128 .LEHE55-.LEHB55
 3176 018a D603     		.uleb128 .L154-.LFB1163
 3177 018c 01       		.uleb128 0x1
 3178 018d A002     		.uleb128 .LEHB56-.LFB1163
 3179 018f 3A       		.uleb128 .LEHE56-.LEHB56
 3180 0190 E402     		.uleb128 .L151-.LFB1163
 3181 0192 00       		.uleb128 0
 3182 0193 DA02     		.uleb128 .LEHB57-.LFB1163
 3183 0195 05       		.uleb128 .LEHE57-.LEHB57
 3184 0196 00       		.uleb128 0
 3185 0197 00       		.uleb128 0
 3186 0198 F202     		.uleb128 .LEHB58-.LFB1163
 3187 019a 05       		.uleb128 .LEHE58-.LEHB58
 3188 019b 00       		.uleb128 0
 3189 019c 00       		.uleb128 0
 3190 019d FF02     		.uleb128 .LEHB59-.LFB1163
 3191 019f 3A       		.uleb128 .LEHE59-.LEHB59
 3192 01a0 C303     		.uleb128 .L153-.LFB1163
 3193 01a2 00       		.uleb128 0
 3194 01a3 B903     		.uleb128 .LEHB60-.LFB1163
 3195 01a5 05       		.uleb128 .LEHE60-.LEHB60
 3196 01a6 00       		.uleb128 0
 3197 01a7 00       		.uleb128 0
 3198 01a8 D103     		.uleb128 .LEHB61-.LFB1163
 3199 01aa 05       		.uleb128 .LEHE61-.LEHB61
 3200 01ab 00       		.uleb128 0
 3201 01ac 00       		.uleb128 0
 3202 01ad DE03     		.uleb128 .LEHB62-.LFB1163
 3203 01af 3A       		.uleb128 .LEHE62-.LEHB62
 3204 01b0 9F04     		.uleb128 .L155-.LFB1163
 3205 01b2 00       		.uleb128 0
 3206 01b3 9804     		.uleb128 .LEHB63-.LFB1163
 3207 01b5 05       		.uleb128 .LEHE63-.LEHB63
 3208 01b6 00       		.uleb128 0
 3209 01b7 00       		.uleb128 0
 3210 01b8 AD04     		.uleb128 .LEHB64-.LFB1163
 3211 01ba 05       		.uleb128 .LEHE64-.LEHB64
 3212 01bb 00       		.uleb128 0
 3213 01bc 00       		.uleb128 0
 3214              	.LLSDACSE1163:
 3215 01bd 01       		.byte	0x1
 3216 01be 00       		.byte	0
 3217 01bf 00       		.align 4
 3218 01c0 00000000 		.long	0
 3219              	
 3220              	.LLSDATT1163:
 3221              		.text
 3223              		.local	_ZN12_GLOBAL__N_114macroTestList2E
 3224              		.comm	_ZN12_GLOBAL__N_114macroTestList2E,16,16
 3225 1411 90       		.align 2
 3227              	_ZN12_GLOBAL__N_134DummyFixtureMacroTestHelper2HelperC2ERKN8UnitTest11TestDetailsE:
 3228              	.LFB1165:
  94:TestTestMacros.cpp **** 
  95:TestTestMacros.cpp **** TestList macroTestList2;
  96:TestTestMacros.cpp **** TEST_FIXTURE_EX(DummyFixture, MacroTestHelper2, macroTestList2)
 3229              		.loc 6 96 0
 3230              		.cfi_startproc
 3231 1412 55       		pushq	%rbp
 3232              		.cfi_def_cfa_offset 16
 3233              		.cfi_offset 6, -16
 3234 1413 4889E5   		movq	%rsp, %rbp
 3235              		.cfi_def_cfa_register 6
 3236 1416 48897DF8 		movq	%rdi, -8(%rbp)
 3237 141a 488975F0 		movq	%rsi, -16(%rbp)
 3238              	.LBB45:
 3239              		.loc 6 96 0
 3240 141e 488B45F8 		movq	-8(%rbp), %rax
 3241 1422 488B55F0 		movq	-16(%rbp), %rdx
 3242 1426 48895008 		movq	%rdx, 8(%rax)
 3243              	.LBE45:
 3244 142a 90       		nop
 3245 142b 5D       		popq	%rbp
 3246              		.cfi_def_cfa 7, 8
 3247 142c C3       		ret
 3248              		.cfi_endproc
 3249              	.LFE1165:
 3251              		.set	_ZN12_GLOBAL__N_134DummyFixtureMacroTestHelper2HelperC1ERKN8UnitTest11TestDetailsE,_ZN12_GLOB
 3252              		.section	.rodata
 3253              	.LC36:
 3254 05f2 4D616372 		.string	"MacroTestHelper2"
 3254      6F546573 
 3254      7448656C 
 3254      70657232 
 3254      00
 3255              		.text
 3256 142d 90       		.align 2
 3258              	_ZN12_GLOBAL__N_132TestDummyFixtureMacroTestHelper2C2Ev:
 3259              	.LFB1168:
 3260              		.loc 6 96 0
 3261              		.cfi_startproc
 3262 142e 55       		pushq	%rbp
 3263              		.cfi_def_cfa_offset 16
 3264              		.cfi_offset 6, -16
 3265 142f 4889E5   		movq	%rsp, %rbp
 3266              		.cfi_def_cfa_register 6
 3267 1432 53       		pushq	%rbx
 3268 1433 4883EC18 		subq	$24, %rsp
 3269              		.cfi_offset 3, -24
 3270 1437 48897DE8 		movq	%rdi, -24(%rbp)
 3271              	.LBB46:
 3272              		.loc 6 96 0
 3273 143b 488B5DE8 		movq	-24(%rbp), %rbx
 3274 143f E8000000 		call	_ZN13UnitTestSuite12GetSuiteNameEv
 3274      00
 3275 1444 41B86000 		movl	$96, %r8d
 3275      0000
 3276 144a 488D0D00 		leaq	.LC2(%rip), %rcx
 3276      000000
 3277 1451 4889C2   		movq	%rax, %rdx
 3278 1454 488D3500 		leaq	.LC36(%rip), %rsi
 3278      000000
 3279 145b 4889DF   		movq	%rbx, %rdi
 3280 145e E8000000 		call	_ZN8UnitTest4TestC2EPKcS2_S2_i@PLT
 3280      00
 3281 1463 488D1500 		leaq	16+_ZTVN12_GLOBAL__N_132TestDummyFixtureMacroTestHelper2E(%rip), %rdx
 3281      000000
 3282 146a 488B45E8 		movq	-24(%rbp), %rax
 3283 146e 488910   		movq	%rdx, (%rax)
 3284              	.LBE46:
 3285 1471 90       		nop
 3286 1472 4883C418 		addq	$24, %rsp
 3287 1476 5B       		popq	%rbx
 3288 1477 5D       		popq	%rbp
 3289              		.cfi_def_cfa 7, 8
 3290 1478 C3       		ret
 3291              		.cfi_endproc
 3292              	.LFE1168:
 3294              		.set	_ZN12_GLOBAL__N_132TestDummyFixtureMacroTestHelper2C1Ev,_ZN12_GLOBAL__N_132TestDummyFixtureMa
 3295              		.local	_ZN12_GLOBAL__N_140testDummyFixtureMacroTestHelper2InstanceE
 3296              		.comm	_ZN12_GLOBAL__N_140testDummyFixtureMacroTestHelper2InstanceE,56,32
 3297              		.local	_ZN12_GLOBAL__N_133adderDummyFixtureMacroTestHelper2E
 3298              		.comm	_ZN12_GLOBAL__N_133adderDummyFixtureMacroTestHelper2E,1,1
 3299 1479 90       		.align 2
 3301              	_ZNK12_GLOBAL__N_132TestDummyFixtureMacroTestHelper27RunImplEv:
 3302              	.LFB1170:
 3303              		.loc 6 96 0
 3304              		.cfi_startproc
 3305              		.cfi_personality 0x9b,DW.ref.__gxx_personality_v0
 3306              		.cfi_lsda 0x1b,.LLSDA1170
 3307 147a 55       		pushq	%rbp
 3308              		.cfi_def_cfa_offset 16
 3309              		.cfi_offset 6, -16
 3310 147b 4889E5   		movq	%rsp, %rbp
 3311              		.cfi_def_cfa_register 6
 3312 147e 4155     		pushq	%r13
 3313 1480 4154     		pushq	%r12
 3314 1482 53       		pushq	%rbx
 3315 1483 4881ECF8 		subq	$504, %rsp
 3315      010000
 3316              		.cfi_offset 13, -24
 3317              		.cfi_offset 12, -32
 3318              		.cfi_offset 3, -40
 3319 148a 4889BDF8 		movq	%rdi, -520(%rbp)
 3319      FDFFFF
 3320              		.loc 6 96 0
 3321 1491 64488B04 		movq	%fs:40, %rax
 3321      25280000 
 3321      00
 3322 149a 488945D8 		movq	%rax, -40(%rbp)
 3323 149e 31C0     		xorl	%eax, %eax
 3324 14a0 C6850FFE 		movb	$0, -497(%rbp)
 3324      FFFF00
 3325              	.LBB47:
 3326 14a7 488B85F8 		movq	-520(%rbp), %rax
 3326      FDFFFF
 3327 14ae 488D5008 		leaq	8(%rax), %rdx
 3328 14b2 488D8520 		leaq	-480(%rbp), %rax
 3328      FEFFFF
 3329 14b9 4889D6   		movq	%rdx, %rsi
 3330 14bc 4889C7   		movq	%rax, %rdi
 3331 14bf E84EFFFF 		call	_ZN12_GLOBAL__N_134DummyFixtureMacroTestHelper2HelperC1ERKN8UnitTest11TestDetailsE
 3331      FF
 3332 14c4 C6850FFE 		movb	$1, -497(%rbp)
 3332      FFFF01
 3333 14cb 488B85F8 		movq	-520(%rbp), %rax
 3333      FDFFFF
 3334 14d2 488D5008 		leaq	8(%rax), %rdx
 3335 14d6 488D8520 		leaq	-480(%rbp), %rax
 3335      FEFFFF
 3336 14dd 4889D6   		movq	%rdx, %rsi
 3337 14e0 4889C7   		movq	%rax, %rdi
 3338              	.LEHB65:
 3339 14e3 E8F92300 		call	_ZN8UnitTest11ExecuteTestIN12_GLOBAL__N_134DummyFixtureMacroTestHelper2HelperEEEvRT_RKNS_11Te
 3339      00
 3340              	.LEHE65:
 3341              	.LBE47:
 3342 14e8 E94C0200 		jmp	.L158
 3342      00
 3343              	.L171:
 3344 14ed 4883FA01 		cmpq	$1, %rdx
 3345 14f1 740F     		je	.L161
 3346 14f3 4883FA02 		cmpq	$2, %rdx
 3347 14f7 0F84A700 		je	.L162
 3347      0000
 3348 14fd E94A0100 		jmp	.L176
 3348      00
 3349              	.L161:
 3350              	.LBB48:
 3351 1502 4889C7   		movq	%rax, %rdi
 3352 1505 E8000000 		call	__cxa_begin_catch@PLT
 3352      00
 3353 150a 48898518 		movq	%rax, -488(%rbp)
 3353      FEFFFF
 3354              	.LEHB66:
 3355 1511 E8000000 		call	_ZN8UnitTest11CurrentTest7ResultsEv@PLT
 3355      00
 3356 1516 488B18   		movq	(%rax), %rbx
 3357 1519 488B8518 		movq	-488(%rbp), %rax
 3357      FEFFFF
 3358 1520 488B00   		movq	(%rax), %rax
 3359 1523 4883C010 		addq	$16, %rax
 3360 1527 488B00   		movq	(%rax), %rax
 3361 152a 488B9518 		movq	-488(%rbp), %rdx
 3361      FEFFFF
 3362 1531 4889D7   		movq	%rdx, %rdi
 3363 1534 FFD0     		call	*%rax
 3364              	.LVL6:
 3365 1536 4989C4   		movq	%rax, %r12
 3366 1539 488B8518 		movq	-488(%rbp), %rax
 3366      FEFFFF
 3367 1540 4889C7   		movq	%rax, %rdi
 3368 1543 E8000000 		call	_ZNK8UnitTest15AssertException10LineNumberEv@PLT
 3368      00
 3369              		.loc 6 96 0 is_stmt 0 discriminator 2
 3370 1548 4189C5   		movl	%eax, %r13d
 3371 154b 488B8518 		movq	-488(%rbp), %rax
 3371      FEFFFF
 3372 1552 4889C7   		movq	%rax, %rdi
 3373 1555 E8000000 		call	_ZNK8UnitTest15AssertException8FilenameEv@PLT
 3373      00
 3374              		.loc 6 96 0 discriminator 4
 3375 155a 4889C1   		movq	%rax, %rcx
 3376 155d 488B85F8 		movq	-520(%rbp), %rax
 3376      FDFFFF
 3377 1564 488B5008 		movq	8(%rax), %rdx
 3378 1568 488B85F8 		movq	-520(%rbp), %rax
 3378      FDFFFF
 3379 156f 488B7010 		movq	16(%rax), %rsi
 3380 1573 488D8520 		leaq	-480(%rbp), %rax
 3380      FEFFFF
 3381 157a 4589E8   		movl	%r13d, %r8d
 3382 157d 4889C7   		movq	%rax, %rdi
 3383 1580 E8000000 		call	_ZN8UnitTest11TestDetailsC1EPKcS2_S2_i@PLT
 3383      00
 3384              		.loc 6 96 0 discriminator 8
 3385 1585 488D8520 		leaq	-480(%rbp), %rax
 3385      FEFFFF
 3386 158c 4C89E2   		movq	%r12, %rdx
 3387 158f 4889C6   		movq	%rax, %rsi
 3388 1592 4889DF   		movq	%rbx, %rdi
 3389 1595 E8000000 		call	_ZN8UnitTest11TestResults13OnTestFailureERKNS_11TestDetailsEPKc@PLT
 3389      00
 3390              	.LEHE66:
 3391              		.loc 6 96 0 discriminator 10
 3392 159a E8000000 		call	__cxa_end_catch@PLT
 3392      00
 3393              	.LBE48:
 3394 159f E9950100 		jmp	.L158
 3394      00
 3395              	.L162:
 3396              	.LBB49:
 3397              		.loc 6 96 0
 3398 15a4 4889C7   		movq	%rax, %rdi
 3399 15a7 E8000000 		call	__cxa_begin_catch@PLT
 3399      00
 3400 15ac 48898510 		movq	%rax, -496(%rbp)
 3400      FEFFFF
 3401              	.LBB50:
 3402 15b3 488D8540 		leaq	-448(%rbp), %rax
 3402      FEFFFF
 3403 15ba 4889C7   		movq	%rax, %rdi
 3404              	.LEHB67:
 3405 15bd E8000000 		call	_ZN8UnitTest15MemoryOutStreamC1Ev
 3405      00
 3406              	.LEHE67:
 3407              		.loc 6 96 0 discriminator 12
 3408 15c2 488D8540 		leaq	-448(%rbp), %rax
 3408      FEFFFF
 3409 15c9 488D3500 		leaq	.LC11(%rip), %rsi
 3409      000000
 3410 15d0 4889C7   		movq	%rax, %rdi
 3411              	.LEHB68:
 3412 15d3 E8000000 		call	_ZStlsISt11char_traitsIcEERSt13basic_ostreamIcT_ES5_PKc@PLT
 3412      00
 3413 15d8 4889C3   		movq	%rax, %rbx
 3414 15db 488B8510 		movq	-496(%rbp), %rax
 3414      FEFFFF
 3415 15e2 488B00   		movq	(%rax), %rax
 3416 15e5 4883C010 		addq	$16, %rax
 3417 15e9 488B00   		movq	(%rax), %rax
 3418 15ec 488B9510 		movq	-496(%rbp), %rdx
 3418      FEFFFF
 3419 15f3 4889D7   		movq	%rdx, %rdi
 3420 15f6 FFD0     		call	*%rax
 3421              	.LVL7:
 3422 15f8 4889C6   		movq	%rax, %rsi
 3423 15fb 4889DF   		movq	%rbx, %rdi
 3424 15fe E8000000 		call	_ZStlsISt11char_traitsIcEERSt13basic_ostreamIcT_ES5_PKc@PLT
 3424      00
 3425              		.loc 6 96 0 discriminator 16
 3426 1603 E8000000 		call	_ZN8UnitTest11CurrentTest7ResultsEv@PLT
 3426      00
 3427 1608 488B18   		movq	(%rax), %rbx
 3428 160b 488D8540 		leaq	-448(%rbp), %rax
 3428      FEFFFF
 3429 1612 4889C7   		movq	%rax, %rdi
 3430 1615 E8000000 		call	_ZNK8UnitTest15MemoryOutStream7GetTextEv@PLT
 3430      00
 3431              		.loc 6 96 0 discriminator 18
 3432 161a 4889C2   		movq	%rax, %rdx
 3433 161d 488B85F8 		movq	-520(%rbp), %rax
 3433      FDFFFF
 3434 1624 4883C008 		addq	$8, %rax
 3435 1628 4889C6   		movq	%rax, %rsi
 3436 162b 4889DF   		movq	%rbx, %rdi
 3437 162e E8000000 		call	_ZN8UnitTest11TestResults13OnTestFailureERKNS_11TestDetailsEPKc@PLT
 3437      00
 3438              	.LEHE68:
 3439              		.loc 6 96 0 discriminator 22
 3440 1633 488D8540 		leaq	-448(%rbp), %rax
 3440      FEFFFF
 3441 163a 4889C7   		movq	%rax, %rdi
 3442              	.LEHB69:
 3443 163d E8000000 		call	_ZN8UnitTest15MemoryOutStreamD1Ev
 3443      00
 3444              	.LEHE69:
 3445              	.LBE50:
 3446              		.loc 6 96 0 discriminator 23
 3447 1642 E8000000 		call	__cxa_end_catch@PLT
 3447      00
 3448              	.LBE49:
 3449 1647 E9ED0000 		jmp	.L158
 3449      00
 3450              	.L176:
 3451              		.loc 6 96 0
 3452 164c 4889C7   		movq	%rax, %rdi
 3453 164f E8000000 		call	__cxa_begin_catch@PLT
 3453      00
 3454 1654 80BD0FFE 		cmpb	$0, -497(%rbp)
 3454      FFFF00
 3455 165b 7445     		je	.L164
 3456              	.LEHB70:
 3457              		.loc 6 96 0 discriminator 25
 3458 165d E8000000 		call	_ZN8UnitTest11CurrentTest7ResultsEv@PLT
 3458      00
 3459 1662 488B18   		movq	(%rax), %rbx
 3460 1665 488B85F8 		movq	-520(%rbp), %rax
 3460      FDFFFF
 3461 166c 488D4808 		leaq	8(%rax), %rcx
 3462 1670 488D8520 		leaq	-480(%rbp), %rax
 3462      FEFFFF
 3463 1677 BA600000 		movl	$96, %edx
 3463      00
 3464 167c 4889CE   		movq	%rcx, %rsi
 3465 167f 4889C7   		movq	%rax, %rdi
 3466 1682 E8000000 		call	_ZN8UnitTest11TestDetailsC1ERKS0_i@PLT
 3466      00
 3467              		.loc 6 96 0 discriminator 30
 3468 1687 488D8520 		leaq	-480(%rbp), %rax
 3468      FEFFFF
 3469 168e 488D1500 		leaq	.LC27(%rip), %rdx
 3469      000000
 3470 1695 4889C6   		movq	%rax, %rsi
 3471 1698 4889DF   		movq	%rbx, %rdi
 3472 169b E8000000 		call	_ZN8UnitTest11TestResults13OnTestFailureERKNS_11TestDetailsEPKc@PLT
 3472      00
 3473 16a0 EB43     		jmp	.L165
 3474              	.L164:
 3475              		.loc 6 96 0 discriminator 26
 3476 16a2 E8000000 		call	_ZN8UnitTest11CurrentTest7ResultsEv@PLT
 3476      00
 3477 16a7 488B18   		movq	(%rax), %rbx
 3478 16aa 488B85F8 		movq	-520(%rbp), %rax
 3478      FDFFFF
 3479 16b1 488D4808 		leaq	8(%rax), %rcx
 3480 16b5 488D8520 		leaq	-480(%rbp), %rax
 3480      FEFFFF
 3481 16bc BA600000 		movl	$96, %edx
 3481      00
 3482 16c1 4889CE   		movq	%rcx, %rsi
 3483 16c4 4889C7   		movq	%rax, %rdi
 3484 16c7 E8000000 		call	_ZN8UnitTest11TestDetailsC1ERKS0_i@PLT
 3484      00
 3485              		.loc 6 96 0 discriminator 37
 3486 16cc 488D8520 		leaq	-480(%rbp), %rax
 3486      FEFFFF
 3487 16d3 488D1500 		leaq	.LC28(%rip), %rdx
 3487      000000
 3488 16da 4889C6   		movq	%rax, %rsi
 3489 16dd 4889DF   		movq	%rbx, %rdi
 3490 16e0 E8000000 		call	_ZN8UnitTest11TestResults13OnTestFailureERKNS_11TestDetailsEPKc@PLT
 3490      00
 3491              	.LEHE70:
 3492              	.L165:
 3493              	.LEHB71:
 3494              		.loc 6 96 0 discriminator 40
 3495 16e5 E8000000 		call	__cxa_end_catch@PLT
 3495      00
 3496 16ea EB4D     		jmp	.L158
 3497              	.L172:
 3498 16ec 4889C3   		movq	%rax, %rbx
 3499              	.LBB52:
 3500              		.loc 6 96 0
 3501 16ef E8000000 		call	__cxa_end_catch@PLT
 3501      00
 3502 16f4 4889D8   		movq	%rbx, %rax
 3503 16f7 4889C7   		movq	%rax, %rdi
 3504 16fa E8000000 		call	_Unwind_Resume@PLT
 3504      00
 3505              	.LEHE71:
 3506              	.L174:
 3507 16ff 4889C3   		movq	%rax, %rbx
 3508              	.LBE52:
 3509              	.LBB53:
 3510              	.LBB51:
 3511 1702 488D8540 		leaq	-448(%rbp), %rax
 3511      FEFFFF
 3512 1709 4889C7   		movq	%rax, %rdi
 3513 170c E8000000 		call	_ZN8UnitTest15MemoryOutStreamD1Ev
 3513      00
 3514 1711 EB03     		jmp	.L168
 3515              	.L173:
 3516 1713 4889C3   		movq	%rax, %rbx
 3517              	.L168:
 3518              	.LBE51:
 3519 1716 E8000000 		call	__cxa_end_catch@PLT
 3519      00
 3520 171b 4889D8   		movq	%rbx, %rax
 3521 171e 4889C7   		movq	%rax, %rdi
 3522              	.LEHB72:
 3523 1721 E8000000 		call	_Unwind_Resume@PLT
 3523      00
 3524              	.LEHE72:
 3525              	.L175:
 3526 1726 4889C3   		movq	%rax, %rbx
 3527              	.LBE53:
 3528 1729 E8000000 		call	__cxa_end_catch@PLT
 3528      00
 3529 172e 4889D8   		movq	%rbx, %rax
 3530 1731 4889C7   		movq	%rax, %rdi
 3531              	.LEHB73:
 3532 1734 E8000000 		call	_Unwind_Resume@PLT
 3532      00
 3533              	.LEHE73:
 3534              	.L158:
 3535 1739 488B45D8 		movq	-40(%rbp), %rax
 3536 173d 64483304 		xorq	%fs:40, %rax
 3536      25280000 
 3536      00
 3537 1746 7405     		je	.L170
 3538 1748 E8000000 		call	__stack_chk_fail@PLT
 3538      00
 3539              	.L170:
 3540 174d 4881C4F8 		addq	$504, %rsp
 3540      010000
 3541 1754 5B       		popq	%rbx
 3542 1755 415C     		popq	%r12
 3543 1757 415D     		popq	%r13
 3544 1759 5D       		popq	%rbp
 3545              		.cfi_def_cfa 7, 8
 3546 175a C3       		ret
 3547              		.cfi_endproc
 3548              	.LFE1170:
 3549              		.section	.gcc_except_table
 3550              		.align 4
 3551              	.LLSDA1170:
 3552 01c4 FF       		.byte	0xff
 3553 01c5 9B       		.byte	0x9b
 3554 01c6 49       		.uleb128 .LLSDATT1170-.LLSDATTD1170
 3555              	.LLSDATTD1170:
 3556 01c7 01       		.byte	0x1
 3557 01c8 33       		.uleb128 .LLSDACSE1170-.LLSDACSB1170
 3558              	.LLSDACSB1170:
 3559 01c9 69       		.uleb128 .LEHB65-.LFB1170
 3560 01ca 05       		.uleb128 .LEHE65-.LEHB65
 3561 01cb 73       		.uleb128 .L171-.LFB1170
 3562 01cc 05       		.uleb128 0x5
 3563 01cd 9701     		.uleb128 .LEHB66-.LFB1170
 3564 01cf 8901     		.uleb128 .LEHE66-.LEHB66
 3565 01d1 F204     		.uleb128 .L172-.LFB1170
 3566 01d3 00       		.uleb128 0
 3567 01d4 C302     		.uleb128 .LEHB67-.LFB1170
 3568 01d6 05       		.uleb128 .LEHE67-.LEHB67
 3569 01d7 9905     		.uleb128 .L173-.LFB1170
 3570 01d9 00       		.uleb128 0
 3571 01da D902     		.uleb128 .LEHB68-.LFB1170
 3572 01dc 60       		.uleb128 .LEHE68-.LEHB68
 3573 01dd 8505     		.uleb128 .L174-.LFB1170
 3574 01df 00       		.uleb128 0
 3575 01e0 C303     		.uleb128 .LEHB69-.LFB1170
 3576 01e2 05       		.uleb128 .LEHE69-.LEHB69
 3577 01e3 9905     		.uleb128 .L173-.LFB1170
 3578 01e5 00       		.uleb128 0
 3579 01e6 E303     		.uleb128 .LEHB70-.LFB1170
 3580 01e8 8801     		.uleb128 .LEHE70-.LEHB70
 3581 01ea AC05     		.uleb128 .L175-.LFB1170
 3582 01ec 00       		.uleb128 0
 3583 01ed EB04     		.uleb128 .LEHB71-.LFB1170
 3584 01ef 1A       		.uleb128 .LEHE71-.LEHB71
 3585 01f0 00       		.uleb128 0
 3586 01f1 00       		.uleb128 0
 3587 01f2 A705     		.uleb128 .LEHB72-.LFB1170
 3588 01f4 05       		.uleb128 .LEHE72-.LEHB72
 3589 01f5 00       		.uleb128 0
 3590 01f6 00       		.uleb128 0
 3591 01f7 BA05     		.uleb128 .LEHB73-.LFB1170
 3592 01f9 05       		.uleb128 .LEHE73-.LEHB73
 3593 01fa 00       		.uleb128 0
 3594 01fb 00       		.uleb128 0
 3595              	.LLSDACSE1170:
 3596 01fc 03       		.byte	0x3
 3597 01fd 00       		.byte	0
 3598 01fe 02       		.byte	0x2
 3599 01ff 7D       		.byte	0x7d
 3600 0200 01       		.byte	0x1
 3601 0201 7D       		.byte	0x7d
 3602 0202 0000     		.align 4
 3603 0204 00000000 		.long	0
 3604              	
 3605 0208 00000000 		.long	DW.ref._ZTISt9exception-.
 3606 020c 00000000 		.long	DW.ref._ZTIN8UnitTest15AssertExceptionE-.
 3607              	.LLSDATT1170:
 3608              		.text
 3610 175b 90       		.align 2
 3612              	_ZN12_GLOBAL__N_134DummyFixtureMacroTestHelper2Helper7RunImplEv:
 3613              	.LFB1171:
  97:TestTestMacros.cpp **** {
 3614              		.loc 6 97 0 is_stmt 1
 3615              		.cfi_startproc
 3616 175c 55       		pushq	%rbp
 3617              		.cfi_def_cfa_offset 16
 3618              		.cfi_offset 6, -16
 3619 175d 4889E5   		movq	%rsp, %rbp
 3620              		.cfi_def_cfa_register 6
 3621 1760 48897DF8 		movq	%rdi, -8(%rbp)
  98:TestTestMacros.cpp **** }
 3622              		.loc 6 98 0
 3623 1764 90       		nop
 3624 1765 5D       		popq	%rbp
 3625              		.cfi_def_cfa 7, 8
 3626 1766 C3       		ret
 3627              		.cfi_endproc
 3628              	.LFE1171:
 3630              		.section	.rodata
 3631 0603 00000000 		.align 8
 3631      00
 3632              	.LC37:
 3633 0608 54657374 		.string	"TestAddedWithTEST_FIXTURE_EXMacroGetsDefaultSuite"
 3633      41646465 
 3633      64576974 
 3633      68544553 
 3633      545F4649 
 3634              		.text
 3635 1767 90       		.align 2
 3637              	_ZN12_GLOBAL__N_153TestTestAddedWithTEST_FIXTURE_EXMacroGetsDefaultSuiteC2Ev:
 3638              	.LFB1173:
  99:TestTestMacros.cpp **** 
 100:TestTestMacros.cpp **** TEST(TestAddedWithTEST_FIXTURE_EXMacroGetsDefaultSuite)
 3639              		.loc 6 100 0
 3640              		.cfi_startproc
 3641 1768 55       		pushq	%rbp
 3642              		.cfi_def_cfa_offset 16
 3643              		.cfi_offset 6, -16
 3644 1769 4889E5   		movq	%rsp, %rbp
 3645              		.cfi_def_cfa_register 6
 3646 176c 53       		pushq	%rbx
 3647 176d 4883EC18 		subq	$24, %rsp
 3648              		.cfi_offset 3, -24
 3649 1771 48897DE8 		movq	%rdi, -24(%rbp)
 3650              	.LBB54:
 3651              		.loc 6 100 0
 3652 1775 488B5DE8 		movq	-24(%rbp), %rbx
 3653 1779 E8000000 		call	_ZN13UnitTestSuite12GetSuiteNameEv
 3653      00
 3654 177e 41B86400 		movl	$100, %r8d
 3654      0000
 3655 1784 488D0D00 		leaq	.LC2(%rip), %rcx
 3655      000000
 3656 178b 4889C2   		movq	%rax, %rdx
 3657 178e 488D3500 		leaq	.LC37(%rip), %rsi
 3657      000000
 3658 1795 4889DF   		movq	%rbx, %rdi
 3659 1798 E8000000 		call	_ZN8UnitTest4TestC2EPKcS2_S2_i@PLT
 3659      00
 3660 179d 488D1500 		leaq	16+_ZTVN12_GLOBAL__N_153TestTestAddedWithTEST_FIXTURE_EXMacroGetsDefaultSuiteE(%rip), %rdx
 3660      000000
 3661 17a4 488B45E8 		movq	-24(%rbp), %rax
 3662 17a8 488910   		movq	%rdx, (%rax)
 3663              	.LBE54:
 3664 17ab 90       		nop
 3665 17ac 4883C418 		addq	$24, %rsp
 3666 17b0 5B       		popq	%rbx
 3667 17b1 5D       		popq	%rbp
 3668              		.cfi_def_cfa 7, 8
 3669 17b2 C3       		ret
 3670              		.cfi_endproc
 3671              	.LFE1173:
 3673              		.set	_ZN12_GLOBAL__N_153TestTestAddedWithTEST_FIXTURE_EXMacroGetsDefaultSuiteC1Ev,_ZN12_GLOBAL__N_
 3674              		.local	_ZN12_GLOBAL__N_161testTestAddedWithTEST_FIXTURE_EXMacroGetsDefaultSuiteInstanceE
 3675              		.comm	_ZN12_GLOBAL__N_161testTestAddedWithTEST_FIXTURE_EXMacroGetsDefaultSuiteInstanceE,56,32
 3676              		.local	_ZN12_GLOBAL__N_154adderTestAddedWithTEST_FIXTURE_EXMacroGetsDefaultSuiteE
 3677              		.comm	_ZN12_GLOBAL__N_154adderTestAddedWithTEST_FIXTURE_EXMacroGetsDefaultSuiteE,1,1
 3678              		.section	.rodata
 3679 063a 00000000 		.align 8
 3679      0000
 3680              	.LC38:
 3681 0640 6D616372 		.string	"macroTestList2.GetHead() != NULL"
 3681      6F546573 
 3681      744C6973 
 3681      74322E47 
 3681      65744865 
 3682 0661 00000000 		.align 8
 3682      000000
 3683              	.LC39:
 3684 0668 556E6861 		.string	"Unhandled exception in CHECK(macroTestList2.GetHead() != NULL)"
 3684      6E646C65 
 3684      64206578 
 3684      63657074 
 3684      696F6E20 
 3685 06a7 00       		.align 8
 3686              	.LC40:
 3687 06a8 556E6861 		.string	"Unhandled exception in CHECK_EQUAL(\"MacroTestHelper2\", macroTestList2.GetHead()->m_deta
 3687      6E646C65 
 3687      64206578 
 3687      63657074 
 3687      696F6E20 
 3688 070d 000000   		.align 8
 3689              	.LC41:
 3690 0710 556E6861 		.string	"Unhandled exception in CHECK_EQUAL(\"DefaultSuite\", macroTestList2.GetHead()->m_details.
 3690      6E646C65 
 3690      64206578 
 3690      63657074 
 3690      696F6E20 
 3691              		.text
 3692 17b3 90       		.align 2
 3694              	_ZNK12_GLOBAL__N_153TestTestAddedWithTEST_FIXTURE_EXMacroGetsDefaultSuite7RunImplEv:
 3695              	.LFB1175:
 101:TestTestMacros.cpp **** {
 3696              		.loc 6 101 0
 3697              		.cfi_startproc
 3698              		.cfi_personality 0x9b,DW.ref.__gxx_personality_v0
 3699              		.cfi_lsda 0x1b,.LLSDA1175
 3700 17b4 55       		pushq	%rbp
 3701              		.cfi_def_cfa_offset 16
 3702              		.cfi_offset 6, -16
 3703 17b5 4889E5   		movq	%rsp, %rbp
 3704              		.cfi_def_cfa_register 6
 3705 17b8 53       		pushq	%rbx
 3706 17b9 4883EC48 		subq	$72, %rsp
 3707              		.cfi_offset 3, -24
 3708 17bd 48897DB8 		movq	%rdi, -72(%rbp)
 3709              		.loc 6 101 0
 3710 17c1 64488B04 		movq	%fs:40, %rax
 3710      25280000 
 3710      00
 3711 17ca 488945E8 		movq	%rax, -24(%rbp)
 3712 17ce 31C0     		xorl	%eax, %eax
 102:TestTestMacros.cpp ****     CHECK(macroTestList2.GetHead() != NULL);
 3713              		.loc 6 102 0
 3714 17d0 488D3D00 		leaq	_ZN12_GLOBAL__N_114macroTestList2E(%rip), %rdi
 3714      000000
 3715              	.LEHB74:
 3716 17d7 E8000000 		call	_ZNK8UnitTest8TestList7GetHeadEv@PLT
 3716      00
 3717 17dc 4885C0   		testq	%rax, %rax
 3718 17df 0F95C0   		setne	%al
 3719 17e2 0FB6C0   		movzbl	%al, %eax
 3720 17e5 89C7     		movl	%eax, %edi
 3721 17e7 E8000000 		call	_ZN8UnitTest5CheckIbEEbT_
 3721      00
 3722 17ec 83F001   		xorl	$1, %eax
 3723 17ef 84C0     		testb	%al, %al
 3724 17f1 743A     		je	.L180
 3725              		.loc 6 102 0 is_stmt 0 discriminator 2
 3726 17f3 E8000000 		call	_ZN8UnitTest11CurrentTest7ResultsEv@PLT
 3726      00
 3727 17f8 488B18   		movq	(%rax), %rbx
 3728 17fb E8000000 		call	_ZN8UnitTest11CurrentTest7DetailsEv@PLT
 3728      00
 3729              		.loc 6 102 0 discriminator 3
 3730 1800 488B08   		movq	(%rax), %rcx
 3731 1803 488D45C0 		leaq	-64(%rbp), %rax
 3732 1807 BA660000 		movl	$102, %edx
 3732      00
 3733 180c 4889CE   		movq	%rcx, %rsi
 3734 180f 4889C7   		movq	%rax, %rdi
 3735 1812 E8000000 		call	_ZN8UnitTest11TestDetailsC1ERKS0_i@PLT
 3735      00
 3736              		.loc 6 102 0 discriminator 5
 3737 1817 488D45C0 		leaq	-64(%rbp), %rax
 3738 181b 488D1500 		leaq	.LC38(%rip), %rdx
 3738      000000
 3739 1822 4889C6   		movq	%rax, %rsi
 3740 1825 4889DF   		movq	%rbx, %rdi
 3741 1828 E8000000 		call	_ZN8UnitTest11TestResults13OnTestFailureERKNS_11TestDetailsEPKc@PLT
 3741      00
 3742              	.LEHE74:
 3743              	.L180:
 3744              	.LEHB75:
 103:TestTestMacros.cpp ****     CHECK_EQUAL ("MacroTestHelper2", macroTestList2.GetHead()->m_details.testName);
 3745              		.loc 6 103 0 is_stmt 1
 3746 182d E8000000 		call	_ZN8UnitTest11CurrentTest7DetailsEv@PLT
 3746      00
 3747 1832 488B08   		movq	(%rax), %rcx
 3748 1835 488D45C0 		leaq	-64(%rbp), %rax
 3749 1839 BA670000 		movl	$103, %edx
 3749      00
 3750 183e 4889CE   		movq	%rcx, %rsi
 3751 1841 4889C7   		movq	%rax, %rdi
 3752 1844 E8000000 		call	_ZN8UnitTest11TestDetailsC1ERKS0_i@PLT
 3752      00
 3753              		.loc 6 103 0 is_stmt 0 discriminator 2
 3754 1849 488D3D00 		leaq	_ZN12_GLOBAL__N_114macroTestList2E(%rip), %rdi
 3754      000000
 3755 1850 E8000000 		call	_ZNK8UnitTest8TestList7GetHeadEv@PLT
 3755      00
 3756 1855 488B5810 		movq	16(%rax), %rbx
 3757 1859 E8000000 		call	_ZN8UnitTest11CurrentTest7ResultsEv@PLT
 3757      00
 3758              		.loc 6 103 0 discriminator 4
 3759 185e 488B00   		movq	(%rax), %rax
 3760 1861 488D55C0 		leaq	-64(%rbp), %rdx
 3761 1865 4889D1   		movq	%rdx, %rcx
 3762 1868 4889DA   		movq	%rbx, %rdx
 3763 186b 488D3500 		leaq	.LC36(%rip), %rsi
 3763      000000
 3764 1872 4889C7   		movq	%rax, %rdi
 3765 1875 E8000000 		call	_ZN8UnitTest10CheckEqualERNS_11TestResultsEPKcS3_RKNS_11TestDetailsE@PLT
 3765      00
 3766              	.LEHE75:
 3767              	.L184:
 3768              	.LEHB76:
 104:TestTestMacros.cpp ****     CHECK_EQUAL ("DefaultSuite", macroTestList2.GetHead()->m_details.suiteName);
 3769              		.loc 6 104 0 is_stmt 1
 3770 187a E8000000 		call	_ZN8UnitTest11CurrentTest7DetailsEv@PLT
 3770      00
 3771 187f 488B08   		movq	(%rax), %rcx
 3772 1882 488D45C0 		leaq	-64(%rbp), %rax
 3773 1886 BA680000 		movl	$104, %edx
 3773      00
 3774 188b 4889CE   		movq	%rcx, %rsi
 3775 188e 4889C7   		movq	%rax, %rdi
 3776 1891 E8000000 		call	_ZN8UnitTest11TestDetailsC1ERKS0_i@PLT
 3776      00
 3777              		.loc 6 104 0 is_stmt 0 discriminator 2
 3778 1896 488D3D00 		leaq	_ZN12_GLOBAL__N_114macroTestList2E(%rip), %rdi
 3778      000000
 3779 189d E8000000 		call	_ZNK8UnitTest8TestList7GetHeadEv@PLT
 3779      00
 3780 18a2 488B5808 		movq	8(%rax), %rbx
 3781 18a6 E8000000 		call	_ZN8UnitTest11CurrentTest7ResultsEv@PLT
 3781      00
 3782              		.loc 6 104 0 discriminator 4
 3783 18ab 488B00   		movq	(%rax), %rax
 3784 18ae 488D55C0 		leaq	-64(%rbp), %rdx
 3785 18b2 4889D1   		movq	%rdx, %rcx
 3786 18b5 4889DA   		movq	%rbx, %rdx
 3787 18b8 488D3500 		leaq	.LC0(%rip), %rsi
 3787      000000
 3788 18bf 4889C7   		movq	%rax, %rdi
 3789 18c2 E8000000 		call	_ZN8UnitTest10CheckEqualERNS_11TestResultsEPKcS3_RKNS_11TestDetailsE@PLT
 3789      00
 3790              	.LEHE76:
 105:TestTestMacros.cpp **** }
 3791              		.loc 6 105 0 is_stmt 1
 3792 18c7 E91A0100 		jmp	.L179
 3792      00
 3793              	.L190:
 102:TestTestMacros.cpp ****     CHECK_EQUAL ("MacroTestHelper2", macroTestList2.GetHead()->m_details.testName);
 3794              		.loc 6 102 0
 3795 18cc 4889C7   		movq	%rax, %rdi
 3796 18cf E8000000 		call	__cxa_begin_catch@PLT
 3796      00
 3797              	.LEHB77:
 3798 18d4 E8000000 		call	_ZN8UnitTest11CurrentTest7ResultsEv@PLT
 3798      00
 3799 18d9 488B18   		movq	(%rax), %rbx
 3800 18dc E8000000 		call	_ZN8UnitTest11CurrentTest7DetailsEv@PLT
 3800      00
 102:TestTestMacros.cpp ****     CHECK_EQUAL ("MacroTestHelper2", macroTestList2.GetHead()->m_details.testName);
 3801              		.loc 6 102 0 is_stmt 0 discriminator 9
 3802 18e1 488B08   		movq	(%rax), %rcx
 3803 18e4 488D45C0 		leaq	-64(%rbp), %rax
 3804 18e8 BA660000 		movl	$102, %edx
 3804      00
 3805 18ed 4889CE   		movq	%rcx, %rsi
 3806 18f0 4889C7   		movq	%rax, %rdi
 3807 18f3 E8000000 		call	_ZN8UnitTest11TestDetailsC1ERKS0_i@PLT
 3807      00
 102:TestTestMacros.cpp ****     CHECK_EQUAL ("MacroTestHelper2", macroTestList2.GetHead()->m_details.testName);
 3808              		.loc 6 102 0 discriminator 13
 3809 18f8 488D45C0 		leaq	-64(%rbp), %rax
 3810 18fc 488D1500 		leaq	.LC39(%rip), %rdx
 3810      000000
 3811 1903 4889C6   		movq	%rax, %rsi
 3812 1906 4889DF   		movq	%rbx, %rdi
 3813 1909 E8000000 		call	_ZN8UnitTest11TestResults13OnTestFailureERKNS_11TestDetailsEPKc@PLT
 3813      00
 3814              	.LEHE77:
 3815              	.LEHB78:
 102:TestTestMacros.cpp ****     CHECK_EQUAL ("MacroTestHelper2", macroTestList2.GetHead()->m_details.testName);
 3816              		.loc 6 102 0 discriminator 15
 3817 190e E8000000 		call	__cxa_end_catch@PLT
 3817      00
 3818              	.LEHE78:
 3819 1913 E915FFFF 		jmp	.L180
 3819      FF
 3820              	.L191:
 3821 1918 4889C3   		movq	%rax, %rbx
 102:TestTestMacros.cpp ****     CHECK_EQUAL ("MacroTestHelper2", macroTestList2.GetHead()->m_details.testName);
 3822              		.loc 6 102 0
 3823 191b E8000000 		call	__cxa_end_catch@PLT
 3823      00
 3824 1920 4889D8   		movq	%rbx, %rax
 3825 1923 4889C7   		movq	%rax, %rdi
 3826              	.LEHB79:
 3827 1926 E8000000 		call	_Unwind_Resume@PLT
 3827      00
 3828              	.LEHE79:
 3829              	.L192:
 103:TestTestMacros.cpp ****     CHECK_EQUAL ("DefaultSuite", macroTestList2.GetHead()->m_details.suiteName);
 3830              		.loc 6 103 0 is_stmt 1
 3831 192b 4889C7   		movq	%rax, %rdi
 3832 192e E8000000 		call	__cxa_begin_catch@PLT
 3832      00
 3833              	.LEHB80:
 3834 1933 E8000000 		call	_ZN8UnitTest11CurrentTest7ResultsEv@PLT
 3834      00
 3835 1938 488B18   		movq	(%rax), %rbx
 3836 193b E8000000 		call	_ZN8UnitTest11CurrentTest7DetailsEv@PLT
 3836      00
 103:TestTestMacros.cpp ****     CHECK_EQUAL ("DefaultSuite", macroTestList2.GetHead()->m_details.suiteName);
 3837              		.loc 6 103 0 is_stmt 0 discriminator 10
 3838 1940 488B08   		movq	(%rax), %rcx
 3839 1943 488D45C0 		leaq	-64(%rbp), %rax
 3840 1947 BA670000 		movl	$103, %edx
 3840      00
 3841 194c 4889CE   		movq	%rcx, %rsi
 3842 194f 4889C7   		movq	%rax, %rdi
 3843 1952 E8000000 		call	_ZN8UnitTest11TestDetailsC1ERKS0_i@PLT
 3843      00
 103:TestTestMacros.cpp ****     CHECK_EQUAL ("DefaultSuite", macroTestList2.GetHead()->m_details.suiteName);
 3844              		.loc 6 103 0 discriminator 14
 3845 1957 488D45C0 		leaq	-64(%rbp), %rax
 3846 195b 488D1500 		leaq	.LC40(%rip), %rdx
 3846      000000
 3847 1962 4889C6   		movq	%rax, %rsi
 3848 1965 4889DF   		movq	%rbx, %rdi
 3849 1968 E8000000 		call	_ZN8UnitTest11TestResults13OnTestFailureERKNS_11TestDetailsEPKc@PLT
 3849      00
 3850              	.LEHE80:
 3851              	.LEHB81:
 103:TestTestMacros.cpp ****     CHECK_EQUAL ("DefaultSuite", macroTestList2.GetHead()->m_details.suiteName);
 3852              		.loc 6 103 0 discriminator 16
 3853 196d E8000000 		call	__cxa_end_catch@PLT
 3853      00
 3854              	.LEHE81:
 3855 1972 E903FFFF 		jmp	.L184
 3855      FF
 3856              	.L193:
 3857 1977 4889C3   		movq	%rax, %rbx
 103:TestTestMacros.cpp ****     CHECK_EQUAL ("DefaultSuite", macroTestList2.GetHead()->m_details.suiteName);
 3858              		.loc 6 103 0
 3859 197a E8000000 		call	__cxa_end_catch@PLT
 3859      00
 3860 197f 4889D8   		movq	%rbx, %rax
 3861 1982 4889C7   		movq	%rax, %rdi
 3862              	.LEHB82:
 3863 1985 E8000000 		call	_Unwind_Resume@PLT
 3863      00
 3864              	.LEHE82:
 3865              	.L194:
 104:TestTestMacros.cpp **** }
 3866              		.loc 6 104 0 is_stmt 1
 3867 198a 4889C7   		movq	%rax, %rdi
 3868 198d E8000000 		call	__cxa_begin_catch@PLT
 3868      00
 3869              	.LEHB83:
 3870 1992 E8000000 		call	_ZN8UnitTest11CurrentTest7ResultsEv@PLT
 3870      00
 3871 1997 488B18   		movq	(%rax), %rbx
 3872 199a E8000000 		call	_ZN8UnitTest11CurrentTest7DetailsEv@PLT
 3872      00
 104:TestTestMacros.cpp **** }
 3873              		.loc 6 104 0 is_stmt 0 discriminator 10
 3874 199f 488B08   		movq	(%rax), %rcx
 3875 19a2 488D45C0 		leaq	-64(%rbp), %rax
 3876 19a6 BA680000 		movl	$104, %edx
 3876      00
 3877 19ab 4889CE   		movq	%rcx, %rsi
 3878 19ae 4889C7   		movq	%rax, %rdi
 3879 19b1 E8000000 		call	_ZN8UnitTest11TestDetailsC1ERKS0_i@PLT
 3879      00
 104:TestTestMacros.cpp **** }
 3880              		.loc 6 104 0 discriminator 14
 3881 19b6 488D45C0 		leaq	-64(%rbp), %rax
 3882 19ba 488D1500 		leaq	.LC41(%rip), %rdx
 3882      000000
 3883 19c1 4889C6   		movq	%rax, %rsi
 3884 19c4 4889DF   		movq	%rbx, %rdi
 3885 19c7 E8000000 		call	_ZN8UnitTest11TestResults13OnTestFailureERKNS_11TestDetailsEPKc@PLT
 3885      00
 3886              	.LEHE83:
 3887              	.LEHB84:
 104:TestTestMacros.cpp **** }
 3888              		.loc 6 104 0 discriminator 16
 3889 19cc E8000000 		call	__cxa_end_catch@PLT
 3889      00
 3890              	.LEHE84:
 3891              		.loc 6 105 0 is_stmt 1 discriminator 16
 3892 19d1 EB13     		jmp	.L179
 3893              	.L195:
 3894 19d3 4889C3   		movq	%rax, %rbx
 104:TestTestMacros.cpp **** }
 3895              		.loc 6 104 0
 3896 19d6 E8000000 		call	__cxa_end_catch@PLT
 3896      00
 3897 19db 4889D8   		movq	%rbx, %rax
 3898 19de 4889C7   		movq	%rax, %rdi
 3899              	.LEHB85:
 3900 19e1 E8000000 		call	_Unwind_Resume@PLT
 3900      00
 3901              	.LEHE85:
 3902              	.L179:
 3903              		.loc 6 105 0
 3904 19e6 488B45E8 		movq	-24(%rbp), %rax
 3905 19ea 64483304 		xorq	%fs:40, %rax
 3905      25280000 
 3905      00
 3906 19f3 7405     		je	.L189
 3907 19f5 E8000000 		call	__stack_chk_fail@PLT
 3907      00
 3908              	.L189:
 3909 19fa 4883C448 		addq	$72, %rsp
 3910 19fe 5B       		popq	%rbx
 3911 19ff 5D       		popq	%rbp
 3912              		.cfi_def_cfa 7, 8
 3913 1a00 C3       		ret
 3914              		.cfi_endproc
 3915              	.LFE1175:
 3916              		.section	.gcc_except_table
 3917              		.align 4
 3918              	.LLSDA1175:
 3919 0210 FF       		.byte	0xff
 3920 0211 9B       		.byte	0x9b
 3921 0212 49       		.uleb128 .LLSDATT1175-.LLSDATTD1175
 3922              	.LLSDATTD1175:
 3923 0213 01       		.byte	0x1
 3924 0214 40       		.uleb128 .LLSDACSE1175-.LLSDACSB1175
 3925              	.LLSDACSB1175:
 3926 0215 23       		.uleb128 .LEHB74-.LFB1175
 3927 0216 56       		.uleb128 .LEHE74-.LEHB74
 3928 0217 9802     		.uleb128 .L190-.LFB1175
 3929 0219 01       		.uleb128 0x1
 3930 021a 79       		.uleb128 .LEHB75-.LFB1175
 3931 021b 4D       		.uleb128 .LEHE75-.LEHB75
 3932 021c F702     		.uleb128 .L192-.LFB1175
 3933 021e 01       		.uleb128 0x1
 3934 021f C601     		.uleb128 .LEHB76-.LFB1175
 3935 0221 4D       		.uleb128 .LEHE76-.LEHB76
 3936 0222 D603     		.uleb128 .L194-.LFB1175
 3937 0224 01       		.uleb128 0x1
 3938 0225 A002     		.uleb128 .LEHB77-.LFB1175
 3939 0227 3A       		.uleb128 .LEHE77-.LEHB77
 3940 0228 E402     		.uleb128 .L191-.LFB1175
 3941 022a 00       		.uleb128 0
 3942 022b DA02     		.uleb128 .LEHB78-.LFB1175
 3943 022d 05       		.uleb128 .LEHE78-.LEHB78
 3944 022e 00       		.uleb128 0
 3945 022f 00       		.uleb128 0
 3946 0230 F202     		.uleb128 .LEHB79-.LFB1175
 3947 0232 05       		.uleb128 .LEHE79-.LEHB79
 3948 0233 00       		.uleb128 0
 3949 0234 00       		.uleb128 0
 3950 0235 FF02     		.uleb128 .LEHB80-.LFB1175
 3951 0237 3A       		.uleb128 .LEHE80-.LEHB80
 3952 0238 C303     		.uleb128 .L193-.LFB1175
 3953 023a 00       		.uleb128 0
 3954 023b B903     		.uleb128 .LEHB81-.LFB1175
 3955 023d 05       		.uleb128 .LEHE81-.LEHB81
 3956 023e 00       		.uleb128 0
 3957 023f 00       		.uleb128 0
 3958 0240 D103     		.uleb128 .LEHB82-.LFB1175
 3959 0242 05       		.uleb128 .LEHE82-.LEHB82
 3960 0243 00       		.uleb128 0
 3961 0244 00       		.uleb128 0
 3962 0245 DE03     		.uleb128 .LEHB83-.LFB1175
 3963 0247 3A       		.uleb128 .LEHE83-.LEHB83
 3964 0248 9F04     		.uleb128 .L195-.LFB1175
 3965 024a 00       		.uleb128 0
 3966 024b 9804     		.uleb128 .LEHB84-.LFB1175
 3967 024d 05       		.uleb128 .LEHE84-.LEHB84
 3968 024e 00       		.uleb128 0
 3969 024f 00       		.uleb128 0
 3970 0250 AD04     		.uleb128 .LEHB85-.LFB1175
 3971 0252 05       		.uleb128 .LEHE85-.LEHB85
 3972 0253 00       		.uleb128 0
 3973 0254 00       		.uleb128 0
 3974              	.LLSDACSE1175:
 3975 0255 01       		.byte	0x1
 3976 0256 00       		.byte	0
 3977 0257 00       		.align 4
 3978 0258 00000000 		.long	0
 3979              	
 3980              	.LLSDATT1175:
 3981              		.text
 3983              		.section	.rodata
 3984              	.LC42:
 3985 0772 65786365 		.string	"exception"
 3985      7074696F 
 3985      6E00
 3986              		.text
 3987 1a01 90       		.align 2
 3989              	_ZN12_GLOBAL__N_117FixtureCtorThrowsC2Ev:
 3990              	.LFB1177:
 106:TestTestMacros.cpp **** 
 107:TestTestMacros.cpp **** struct FixtureCtorThrows
 108:TestTestMacros.cpp **** {
 109:TestTestMacros.cpp **** 	FixtureCtorThrows()	{ throw "exception"; }
 3991              		.loc 6 109 0
 3992              		.cfi_startproc
 3993 1a02 55       		pushq	%rbp
 3994              		.cfi_def_cfa_offset 16
 3995              		.cfi_offset 6, -16
 3996 1a03 4889E5   		movq	%rsp, %rbp
 3997              		.cfi_def_cfa_register 6
 3998 1a06 4883EC10 		subq	$16, %rsp
 3999 1a0a 48897DF8 		movq	%rdi, -8(%rbp)
 4000              	.LBB55:
 4001              		.loc 6 109 0
 4002 1a0e BF080000 		movl	$8, %edi
 4002      00
 4003 1a13 E8000000 		call	__cxa_allocate_exception@PLT
 4003      00
 4004 1a18 488D1500 		leaq	.LC42(%rip), %rdx
 4004      000000
 4005 1a1f 488910   		movq	%rdx, (%rax)
 4006 1a22 BA000000 		movl	$0, %edx
 4006      00
 4007 1a27 488D3500 		leaq	_ZTIPKc(%rip), %rsi
 4007      000000
 4008 1a2e 4889C7   		movq	%rax, %rdi
 4009 1a31 E8000000 		call	__cxa_throw@PLT
 4009      00
 4010              	.LBE55:
 4011              		.cfi_endproc
 4012              	.LFE1177:
 4014              		.local	_ZN12_GLOBAL__N_124throwingFixtureTestList1E
 4015              		.comm	_ZN12_GLOBAL__N_124throwingFixtureTestList1E,16,16
 4016              		.align 2
 4018              	_ZN12_GLOBAL__N_148FixtureCtorThrowsFixtureCtorThrowsTestNameHelperC2ERKN8UnitTest11TestDetailsE:
 4019              	.LFB1180:
 110:TestTestMacros.cpp **** };
 111:TestTestMacros.cpp **** 
 112:TestTestMacros.cpp **** TestList throwingFixtureTestList1;
 113:TestTestMacros.cpp **** TEST_FIXTURE_EX(FixtureCtorThrows, FixtureCtorThrowsTestName, throwingFixtureTestList1)
 4020              		.loc 6 113 0
 4021              		.cfi_startproc
 4022 1a36 55       		pushq	%rbp
 4023              		.cfi_def_cfa_offset 16
 4024              		.cfi_offset 6, -16
 4025 1a37 4889E5   		movq	%rsp, %rbp
 4026              		.cfi_def_cfa_register 6
 4027 1a3a 4883EC10 		subq	$16, %rsp
 4028 1a3e 48897DF8 		movq	%rdi, -8(%rbp)
 4029 1a42 488975F0 		movq	%rsi, -16(%rbp)
 4030              	.LBB56:
 4031              		.loc 6 113 0
 4032 1a46 488B45F8 		movq	-8(%rbp), %rax
 4033 1a4a 4889C7   		movq	%rax, %rdi
 4034 1a4d E8B0FFFF 		call	_ZN12_GLOBAL__N_117FixtureCtorThrowsC2Ev
 4034      FF
 4035 1a52 488B45F8 		movq	-8(%rbp), %rax
 4036 1a56 488B55F0 		movq	-16(%rbp), %rdx
 4037 1a5a 488910   		movq	%rdx, (%rax)
 4038              	.LBE56:
 4039 1a5d 90       		nop
 4040 1a5e C9       		leave
 4041              		.cfi_def_cfa 7, 8
 4042 1a5f C3       		ret
 4043              		.cfi_endproc
 4044              	.LFE1180:
 4046              		.set	_ZN12_GLOBAL__N_148FixtureCtorThrowsFixtureCtorThrowsTestNameHelperC1ERKN8UnitTest11TestDetai
 4047              		.section	.rodata
 4048              	.LC43:
 4049 077c 46697874 		.string	"FixtureCtorThrowsTestName"
 4049      75726543 
 4049      746F7254 
 4049      68726F77 
 4049      73546573 
 4050              		.text
 4051              		.align 2
 4053              	_ZN12_GLOBAL__N_146TestFixtureCtorThrowsFixtureCtorThrowsTestNameC2Ev:
 4054              	.LFB1183:
 4055              		.loc 6 113 0
 4056              		.cfi_startproc
 4057 1a60 55       		pushq	%rbp
 4058              		.cfi_def_cfa_offset 16
 4059              		.cfi_offset 6, -16
 4060 1a61 4889E5   		movq	%rsp, %rbp
 4061              		.cfi_def_cfa_register 6
 4062 1a64 53       		pushq	%rbx
 4063 1a65 4883EC18 		subq	$24, %rsp
 4064              		.cfi_offset 3, -24
 4065 1a69 48897DE8 		movq	%rdi, -24(%rbp)
 4066              	.LBB57:
 4067              		.loc 6 113 0
 4068 1a6d 488B5DE8 		movq	-24(%rbp), %rbx
 4069 1a71 E8000000 		call	_ZN13UnitTestSuite12GetSuiteNameEv
 4069      00
 4070 1a76 41B87100 		movl	$113, %r8d
 4070      0000
 4071 1a7c 488D0D00 		leaq	.LC2(%rip), %rcx
 4071      000000
 4072 1a83 4889C2   		movq	%rax, %rdx
 4073 1a86 488D3500 		leaq	.LC43(%rip), %rsi
 4073      000000
 4074 1a8d 4889DF   		movq	%rbx, %rdi
 4075 1a90 E8000000 		call	_ZN8UnitTest4TestC2EPKcS2_S2_i@PLT
 4075      00
 4076 1a95 488D1500 		leaq	16+_ZTVN12_GLOBAL__N_146TestFixtureCtorThrowsFixtureCtorThrowsTestNameE(%rip), %rdx
 4076      000000
 4077 1a9c 488B45E8 		movq	-24(%rbp), %rax
 4078 1aa0 488910   		movq	%rdx, (%rax)
 4079              	.LBE57:
 4080 1aa3 90       		nop
 4081 1aa4 4883C418 		addq	$24, %rsp
 4082 1aa8 5B       		popq	%rbx
 4083 1aa9 5D       		popq	%rbp
 4084              		.cfi_def_cfa 7, 8
 4085 1aaa C3       		ret
 4086              		.cfi_endproc
 4087              	.LFE1183:
 4089              		.set	_ZN12_GLOBAL__N_146TestFixtureCtorThrowsFixtureCtorThrowsTestNameC1Ev,_ZN12_GLOBAL__N_146Test
 4090              		.local	_ZN12_GLOBAL__N_154testFixtureCtorThrowsFixtureCtorThrowsTestNameInstanceE
 4091              		.comm	_ZN12_GLOBAL__N_154testFixtureCtorThrowsFixtureCtorThrowsTestNameInstanceE,56,32
 4092              		.local	_ZN12_GLOBAL__N_147adderFixtureCtorThrowsFixtureCtorThrowsTestNameE
 4093              		.comm	_ZN12_GLOBAL__N_147adderFixtureCtorThrowsFixtureCtorThrowsTestNameE,1,1
 4094              		.section	.rodata
 4095 0796 0000     		.align 8
 4096              	.LC44:
 4097 0798 556E6861 		.string	"Unhandled exception while destroying fixture FixtureCtorThrows"
 4097      6E646C65 
 4097      64206578 
 4097      63657074 
 4097      696F6E20 
 4098 07d7 00       		.align 8
 4099              	.LC45:
 4100 07d8 556E6861 		.string	"Unhandled exception while constructing fixture FixtureCtorThrows"
 4100      6E646C65 
 4100      64206578 
 4100      63657074 
 4100      696F6E20 
 4101              		.text
 4102 1aab 90       		.align 2
 4104              	_ZNK12_GLOBAL__N_146TestFixtureCtorThrowsFixtureCtorThrowsTestName7RunImplEv:
 4105              	.LFB1185:
 4106              		.loc 6 113 0
 4107              		.cfi_startproc
 4108              		.cfi_personality 0x9b,DW.ref.__gxx_personality_v0
 4109              		.cfi_lsda 0x1b,.LLSDA1185
 4110 1aac 55       		pushq	%rbp
 4111              		.cfi_def_cfa_offset 16
 4112              		.cfi_offset 6, -16
 4113 1aad 4889E5   		movq	%rsp, %rbp
 4114              		.cfi_def_cfa_register 6
 4115 1ab0 4155     		pushq	%r13
 4116 1ab2 4154     		pushq	%r12
 4117 1ab4 53       		pushq	%rbx
 4118 1ab5 4881ECF8 		subq	$504, %rsp
 4118      010000
 4119              		.cfi_offset 13, -24
 4120              		.cfi_offset 12, -32
 4121              		.cfi_offset 3, -40
 4122 1abc 4889BDF8 		movq	%rdi, -520(%rbp)
 4122      FDFFFF
 4123              		.loc 6 113 0
 4124 1ac3 64488B04 		movq	%fs:40, %rax
 4124      25280000 
 4124      00
 4125 1acc 488945D8 		movq	%rax, -40(%rbp)
 4126 1ad0 31C0     		xorl	%eax, %eax
 4127 1ad2 C6850FFE 		movb	$0, -497(%rbp)
 4127      FFFF00
 4128              	.LBB58:
 4129 1ad9 488B85F8 		movq	-520(%rbp), %rax
 4129      FDFFFF
 4130 1ae0 488D5008 		leaq	8(%rax), %rdx
 4131 1ae4 488D8520 		leaq	-480(%rbp), %rax
 4131      FEFFFF
 4132 1aeb 4889D6   		movq	%rdx, %rsi
 4133 1aee 4889C7   		movq	%rax, %rdi
 4134              	.LEHB86:
 4135 1af1 E840FFFF 		call	_ZN12_GLOBAL__N_148FixtureCtorThrowsFixtureCtorThrowsTestNameHelperC1ERKN8UnitTest11TestDetai
 4135      FF
 4136              		.loc 6 113 0 is_stmt 0 discriminator 1
 4137 1af6 C6850FFE 		movb	$1, -497(%rbp)
 4137      FFFF01
 4138 1afd 488B85F8 		movq	-520(%rbp), %rax
 4138      FDFFFF
 4139 1b04 488D5008 		leaq	8(%rax), %rdx
 4140 1b08 488D8520 		leaq	-480(%rbp), %rax
 4140      FEFFFF
 4141 1b0f 4889D6   		movq	%rdx, %rsi
 4142 1b12 4889C7   		movq	%rax, %rdi
 4143 1b15 E8902000 		call	_ZN8UnitTest11ExecuteTestIN12_GLOBAL__N_148FixtureCtorThrowsFixtureCtorThrowsTestNameHelperEE
 4143      00
 4144              	.LEHE86:
 4145              	.LBE58:
 4146              		.loc 6 113 0
 4147 1b1a E94C0200 		jmp	.L199
 4147      00
 4148              	.L212:
 4149 1b1f 4883FA01 		cmpq	$1, %rdx
 4150 1b23 740F     		je	.L202
 4151 1b25 4883FA02 		cmpq	$2, %rdx
 4152 1b29 0F84A700 		je	.L203
 4152      0000
 4153 1b2f E94A0100 		jmp	.L217
 4153      00
 4154              	.L202:
 4155              	.LBB59:
 4156 1b34 4889C7   		movq	%rax, %rdi
 4157 1b37 E8000000 		call	__cxa_begin_catch@PLT
 4157      00
 4158 1b3c 48898518 		movq	%rax, -488(%rbp)
 4158      FEFFFF
 4159              	.LEHB87:
 4160 1b43 E8000000 		call	_ZN8UnitTest11CurrentTest7ResultsEv@PLT
 4160      00
 4161 1b48 488B18   		movq	(%rax), %rbx
 4162 1b4b 488B8518 		movq	-488(%rbp), %rax
 4162      FEFFFF
 4163 1b52 488B00   		movq	(%rax), %rax
 4164 1b55 4883C010 		addq	$16, %rax
 4165 1b59 488B00   		movq	(%rax), %rax
 4166 1b5c 488B9518 		movq	-488(%rbp), %rdx
 4166      FEFFFF
 4167 1b63 4889D7   		movq	%rdx, %rdi
 4168 1b66 FFD0     		call	*%rax
 4169              	.LVL8:
 4170 1b68 4989C4   		movq	%rax, %r12
 4171 1b6b 488B8518 		movq	-488(%rbp), %rax
 4171      FEFFFF
 4172 1b72 4889C7   		movq	%rax, %rdi
 4173 1b75 E8000000 		call	_ZNK8UnitTest15AssertException10LineNumberEv@PLT
 4173      00
 4174              		.loc 6 113 0 discriminator 3
 4175 1b7a 4189C5   		movl	%eax, %r13d
 4176 1b7d 488B8518 		movq	-488(%rbp), %rax
 4176      FEFFFF
 4177 1b84 4889C7   		movq	%rax, %rdi
 4178 1b87 E8000000 		call	_ZNK8UnitTest15AssertException8FilenameEv@PLT
 4178      00
 4179              		.loc 6 113 0 discriminator 5
 4180 1b8c 4889C1   		movq	%rax, %rcx
 4181 1b8f 488B85F8 		movq	-520(%rbp), %rax
 4181      FDFFFF
 4182 1b96 488B5008 		movq	8(%rax), %rdx
 4183 1b9a 488B85F8 		movq	-520(%rbp), %rax
 4183      FDFFFF
 4184 1ba1 488B7010 		movq	16(%rax), %rsi
 4185 1ba5 488D8520 		leaq	-480(%rbp), %rax
 4185      FEFFFF
 4186 1bac 4589E8   		movl	%r13d, %r8d
 4187 1baf 4889C7   		movq	%rax, %rdi
 4188 1bb2 E8000000 		call	_ZN8UnitTest11TestDetailsC1EPKcS2_S2_i@PLT
 4188      00
 4189              		.loc 6 113 0 discriminator 9
 4190 1bb7 488D8520 		leaq	-480(%rbp), %rax
 4190      FEFFFF
 4191 1bbe 4C89E2   		movq	%r12, %rdx
 4192 1bc1 4889C6   		movq	%rax, %rsi
 4193 1bc4 4889DF   		movq	%rbx, %rdi
 4194 1bc7 E8000000 		call	_ZN8UnitTest11TestResults13OnTestFailureERKNS_11TestDetailsEPKc@PLT
 4194      00
 4195              	.LEHE87:
 4196              		.loc 6 113 0 discriminator 11
 4197 1bcc E8000000 		call	__cxa_end_catch@PLT
 4197      00
 4198              	.LBE59:
 4199 1bd1 E9950100 		jmp	.L199
 4199      00
 4200              	.L203:
 4201              	.LBB60:
 4202              		.loc 6 113 0
 4203 1bd6 4889C7   		movq	%rax, %rdi
 4204 1bd9 E8000000 		call	__cxa_begin_catch@PLT
 4204      00
 4205 1bde 48898510 		movq	%rax, -496(%rbp)
 4205      FEFFFF
 4206              	.LBB61:
 4207 1be5 488D8540 		leaq	-448(%rbp), %rax
 4207      FEFFFF
 4208 1bec 4889C7   		movq	%rax, %rdi
 4209              	.LEHB88:
 4210 1bef E8000000 		call	_ZN8UnitTest15MemoryOutStreamC1Ev
 4210      00
 4211              	.LEHE88:
 4212              		.loc 6 113 0 discriminator 13
 4213 1bf4 488D8540 		leaq	-448(%rbp), %rax
 4213      FEFFFF
 4214 1bfb 488D3500 		leaq	.LC11(%rip), %rsi
 4214      000000
 4215 1c02 4889C7   		movq	%rax, %rdi
 4216              	.LEHB89:
 4217 1c05 E8000000 		call	_ZStlsISt11char_traitsIcEERSt13basic_ostreamIcT_ES5_PKc@PLT
 4217      00
 4218 1c0a 4889C3   		movq	%rax, %rbx
 4219 1c0d 488B8510 		movq	-496(%rbp), %rax
 4219      FEFFFF
 4220 1c14 488B00   		movq	(%rax), %rax
 4221 1c17 4883C010 		addq	$16, %rax
 4222 1c1b 488B00   		movq	(%rax), %rax
 4223 1c1e 488B9510 		movq	-496(%rbp), %rdx
 4223      FEFFFF
 4224 1c25 4889D7   		movq	%rdx, %rdi
 4225 1c28 FFD0     		call	*%rax
 4226              	.LVL9:
 4227 1c2a 4889C6   		movq	%rax, %rsi
 4228 1c2d 4889DF   		movq	%rbx, %rdi
 4229 1c30 E8000000 		call	_ZStlsISt11char_traitsIcEERSt13basic_ostreamIcT_ES5_PKc@PLT
 4229      00
 4230              		.loc 6 113 0 discriminator 17
 4231 1c35 E8000000 		call	_ZN8UnitTest11CurrentTest7ResultsEv@PLT
 4231      00
 4232 1c3a 488B18   		movq	(%rax), %rbx
 4233 1c3d 488D8540 		leaq	-448(%rbp), %rax
 4233      FEFFFF
 4234 1c44 4889C7   		movq	%rax, %rdi
 4235 1c47 E8000000 		call	_ZNK8UnitTest15MemoryOutStream7GetTextEv@PLT
 4235      00
 4236              		.loc 6 113 0 discriminator 19
 4237 1c4c 4889C2   		movq	%rax, %rdx
 4238 1c4f 488B85F8 		movq	-520(%rbp), %rax
 4238      FDFFFF
 4239 1c56 4883C008 		addq	$8, %rax
 4240 1c5a 4889C6   		movq	%rax, %rsi
 4241 1c5d 4889DF   		movq	%rbx, %rdi
 4242 1c60 E8000000 		call	_ZN8UnitTest11TestResults13OnTestFailureERKNS_11TestDetailsEPKc@PLT
 4242      00
 4243              	.LEHE89:
 4244              		.loc 6 113 0 discriminator 23
 4245 1c65 488D8540 		leaq	-448(%rbp), %rax
 4245      FEFFFF
 4246 1c6c 4889C7   		movq	%rax, %rdi
 4247              	.LEHB90:
 4248 1c6f E8000000 		call	_ZN8UnitTest15MemoryOutStreamD1Ev
 4248      00
 4249              	.LEHE90:
 4250              	.LBE61:
 4251              		.loc 6 113 0 discriminator 24
 4252 1c74 E8000000 		call	__cxa_end_catch@PLT
 4252      00
 4253              	.LBE60:
 4254 1c79 E9ED0000 		jmp	.L199
 4254      00
 4255              	.L217:
 4256              		.loc 6 113 0
 4257 1c7e 4889C7   		movq	%rax, %rdi
 4258 1c81 E8000000 		call	__cxa_begin_catch@PLT
 4258      00
 4259 1c86 80BD0FFE 		cmpb	$0, -497(%rbp)
 4259      FFFF00
 4260 1c8d 7445     		je	.L205
 4261              	.LEHB91:
 4262              		.loc 6 113 0 discriminator 26
 4263 1c8f E8000000 		call	_ZN8UnitTest11CurrentTest7ResultsEv@PLT
 4263      00
 4264 1c94 488B18   		movq	(%rax), %rbx
 4265 1c97 488B85F8 		movq	-520(%rbp), %rax
 4265      FDFFFF
 4266 1c9e 488D4808 		leaq	8(%rax), %rcx
 4267 1ca2 488D8520 		leaq	-480(%rbp), %rax
 4267      FEFFFF
 4268 1ca9 BA710000 		movl	$113, %edx
 4268      00
 4269 1cae 4889CE   		movq	%rcx, %rsi
 4270 1cb1 4889C7   		movq	%rax, %rdi
 4271 1cb4 E8000000 		call	_ZN8UnitTest11TestDetailsC1ERKS0_i@PLT
 4271      00
 4272              		.loc 6 113 0 discriminator 31
 4273 1cb9 488D8520 		leaq	-480(%rbp), %rax
 4273      FEFFFF
 4274 1cc0 488D1500 		leaq	.LC44(%rip), %rdx
 4274      000000
 4275 1cc7 4889C6   		movq	%rax, %rsi
 4276 1cca 4889DF   		movq	%rbx, %rdi
 4277 1ccd E8000000 		call	_ZN8UnitTest11TestResults13OnTestFailureERKNS_11TestDetailsEPKc@PLT
 4277      00
 4278 1cd2 EB43     		jmp	.L206
 4279              	.L205:
 4280              		.loc 6 113 0 discriminator 27
 4281 1cd4 E8000000 		call	_ZN8UnitTest11CurrentTest7ResultsEv@PLT
 4281      00
 4282 1cd9 488B18   		movq	(%rax), %rbx
 4283 1cdc 488B85F8 		movq	-520(%rbp), %rax
 4283      FDFFFF
 4284 1ce3 488D4808 		leaq	8(%rax), %rcx
 4285 1ce7 488D8520 		leaq	-480(%rbp), %rax
 4285      FEFFFF
 4286 1cee BA710000 		movl	$113, %edx
 4286      00
 4287 1cf3 4889CE   		movq	%rcx, %rsi
 4288 1cf6 4889C7   		movq	%rax, %rdi
 4289 1cf9 E8000000 		call	_ZN8UnitTest11TestDetailsC1ERKS0_i@PLT
 4289      00
 4290              		.loc 6 113 0 discriminator 38
 4291 1cfe 488D8520 		leaq	-480(%rbp), %rax
 4291      FEFFFF
 4292 1d05 488D1500 		leaq	.LC45(%rip), %rdx
 4292      000000
 4293 1d0c 4889C6   		movq	%rax, %rsi
 4294 1d0f 4889DF   		movq	%rbx, %rdi
 4295 1d12 E8000000 		call	_ZN8UnitTest11TestResults13OnTestFailureERKNS_11TestDetailsEPKc@PLT
 4295      00
 4296              	.LEHE91:
 4297              	.L206:
 4298              	.LEHB92:
 4299              		.loc 6 113 0 discriminator 41
 4300 1d17 E8000000 		call	__cxa_end_catch@PLT
 4300      00
 4301 1d1c EB4D     		jmp	.L199
 4302              	.L213:
 4303 1d1e 4889C3   		movq	%rax, %rbx
 4304              	.LBB63:
 4305              		.loc 6 113 0
 4306 1d21 E8000000 		call	__cxa_end_catch@PLT
 4306      00
 4307 1d26 4889D8   		movq	%rbx, %rax
 4308 1d29 4889C7   		movq	%rax, %rdi
 4309 1d2c E8000000 		call	_Unwind_Resume@PLT
 4309      00
 4310              	.LEHE92:
 4311              	.L215:
 4312 1d31 4889C3   		movq	%rax, %rbx
 4313              	.LBE63:
 4314              	.LBB64:
 4315              	.LBB62:
 4316 1d34 488D8540 		leaq	-448(%rbp), %rax
 4316      FEFFFF
 4317 1d3b 4889C7   		movq	%rax, %rdi
 4318 1d3e E8000000 		call	_ZN8UnitTest15MemoryOutStreamD1Ev
 4318      00
 4319 1d43 EB03     		jmp	.L209
 4320              	.L214:
 4321 1d45 4889C3   		movq	%rax, %rbx
 4322              	.L209:
 4323              	.LBE62:
 4324 1d48 E8000000 		call	__cxa_end_catch@PLT
 4324      00
 4325 1d4d 4889D8   		movq	%rbx, %rax
 4326 1d50 4889C7   		movq	%rax, %rdi
 4327              	.LEHB93:
 4328 1d53 E8000000 		call	_Unwind_Resume@PLT
 4328      00
 4329              	.LEHE93:
 4330              	.L216:
 4331 1d58 4889C3   		movq	%rax, %rbx
 4332              	.LBE64:
 4333 1d5b E8000000 		call	__cxa_end_catch@PLT
 4333      00
 4334 1d60 4889D8   		movq	%rbx, %rax
 4335 1d63 4889C7   		movq	%rax, %rdi
 4336              	.LEHB94:
 4337 1d66 E8000000 		call	_Unwind_Resume@PLT
 4337      00
 4338              	.LEHE94:
 4339              	.L199:
 4340 1d6b 488B45D8 		movq	-40(%rbp), %rax
 4341 1d6f 64483304 		xorq	%fs:40, %rax
 4341      25280000 
 4341      00
 4342 1d78 7405     		je	.L211
 4343 1d7a E8000000 		call	__stack_chk_fail@PLT
 4343      00
 4344              	.L211:
 4345 1d7f 4881C4F8 		addq	$504, %rsp
 4345      010000
 4346 1d86 5B       		popq	%rbx
 4347 1d87 415C     		popq	%r12
 4348 1d89 415D     		popq	%r13
 4349 1d8b 5D       		popq	%rbp
 4350              		.cfi_def_cfa 7, 8
 4351 1d8c C3       		ret
 4352              		.cfi_endproc
 4353              	.LFE1185:
 4354              		.section	.gcc_except_table
 4355              		.align 4
 4356              	.LLSDA1185:
 4357 025c FF       		.byte	0xff
 4358 025d 9B       		.byte	0x9b
 4359 025e 49       		.uleb128 .LLSDATT1185-.LLSDATTD1185
 4360              	.LLSDATTD1185:
 4361 025f 01       		.byte	0x1
 4362 0260 33       		.uleb128 .LLSDACSE1185-.LLSDACSB1185
 4363              	.LLSDACSB1185:
 4364 0261 45       		.uleb128 .LEHB86-.LFB1185
 4365 0262 29       		.uleb128 .LEHE86-.LEHB86
 4366 0263 73       		.uleb128 .L212-.LFB1185
 4367 0264 05       		.uleb128 0x5
 4368 0265 9701     		.uleb128 .LEHB87-.LFB1185
 4369 0267 8901     		.uleb128 .LEHE87-.LEHB87
 4370 0269 F204     		.uleb128 .L213-.LFB1185
 4371 026b 00       		.uleb128 0
 4372 026c C302     		.uleb128 .LEHB88-.LFB1185
 4373 026e 05       		.uleb128 .LEHE88-.LEHB88
 4374 026f 9905     		.uleb128 .L214-.LFB1185
 4375 0271 00       		.uleb128 0
 4376 0272 D902     		.uleb128 .LEHB89-.LFB1185
 4377 0274 60       		.uleb128 .LEHE89-.LEHB89
 4378 0275 8505     		.uleb128 .L215-.LFB1185
 4379 0277 00       		.uleb128 0
 4380 0278 C303     		.uleb128 .LEHB90-.LFB1185
 4381 027a 05       		.uleb128 .LEHE90-.LEHB90
 4382 027b 9905     		.uleb128 .L214-.LFB1185
 4383 027d 00       		.uleb128 0
 4384 027e E303     		.uleb128 .LEHB91-.LFB1185
 4385 0280 8801     		.uleb128 .LEHE91-.LEHB91
 4386 0282 AC05     		.uleb128 .L216-.LFB1185
 4387 0284 00       		.uleb128 0
 4388 0285 EB04     		.uleb128 .LEHB92-.LFB1185
 4389 0287 1A       		.uleb128 .LEHE92-.LEHB92
 4390 0288 00       		.uleb128 0
 4391 0289 00       		.uleb128 0
 4392 028a A705     		.uleb128 .LEHB93-.LFB1185
 4393 028c 05       		.uleb128 .LEHE93-.LEHB93
 4394 028d 00       		.uleb128 0
 4395 028e 00       		.uleb128 0
 4396 028f BA05     		.uleb128 .LEHB94-.LFB1185
 4397 0291 05       		.uleb128 .LEHE94-.LEHB94
 4398 0292 00       		.uleb128 0
 4399 0293 00       		.uleb128 0
 4400              	.LLSDACSE1185:
 4401 0294 03       		.byte	0x3
 4402 0295 00       		.byte	0
 4403 0296 02       		.byte	0x2
 4404 0297 7D       		.byte	0x7d
 4405 0298 01       		.byte	0x1
 4406 0299 7D       		.byte	0x7d
 4407 029a 0000     		.align 4
 4408 029c 00000000 		.long	0
 4409              	
 4410 02a0 00000000 		.long	DW.ref._ZTISt9exception-.
 4411 02a4 00000000 		.long	DW.ref._ZTIN8UnitTest15AssertExceptionE-.
 4412              	.LLSDATT1185:
 4413              		.text
 4415 1d8d 90       		.align 2
 4417              	_ZN12_GLOBAL__N_148FixtureCtorThrowsFixtureCtorThrowsTestNameHelper7RunImplEv:
 4418              	.LFB1186:
 114:TestTestMacros.cpp **** {
 4419              		.loc 6 114 0 is_stmt 1
 4420              		.cfi_startproc
 4421 1d8e 55       		pushq	%rbp
 4422              		.cfi_def_cfa_offset 16
 4423              		.cfi_offset 6, -16
 4424 1d8f 4889E5   		movq	%rsp, %rbp
 4425              		.cfi_def_cfa_register 6
 4426 1d92 48897DF8 		movq	%rdi, -8(%rbp)
 115:TestTestMacros.cpp **** }
 4427              		.loc 6 115 0
 4428 1d96 90       		nop
 4429 1d97 5D       		popq	%rbp
 4430              		.cfi_def_cfa 7, 8
 4431 1d98 C3       		ret
 4432              		.cfi_endproc
 4433              	.LFE1186:
 4435              		.section	.rodata
 4436 0819 00000000 		.align 8
 4436      000000
 4437              	.LC46:
 4438 0820 46697874 		.string	"FixturesWithThrowingCtorsAreFailures"
 4438      75726573 
 4438      57697468 
 4438      5468726F 
 4438      77696E67 
 4439              		.text
 4440 1d99 90       		.align 2
 4442              	_ZN12_GLOBAL__N_140TestFixturesWithThrowingCtorsAreFailuresC2Ev:
 4443              	.LFB1188:
 116:TestTestMacros.cpp **** 
 117:TestTestMacros.cpp **** TEST(FixturesWithThrowingCtorsAreFailures)
 4444              		.loc 6 117 0
 4445              		.cfi_startproc
 4446 1d9a 55       		pushq	%rbp
 4447              		.cfi_def_cfa_offset 16
 4448              		.cfi_offset 6, -16
 4449 1d9b 4889E5   		movq	%rsp, %rbp
 4450              		.cfi_def_cfa_register 6
 4451 1d9e 53       		pushq	%rbx
 4452 1d9f 4883EC18 		subq	$24, %rsp
 4453              		.cfi_offset 3, -24
 4454 1da3 48897DE8 		movq	%rdi, -24(%rbp)
 4455              	.LBB65:
 4456              		.loc 6 117 0
 4457 1da7 488B5DE8 		movq	-24(%rbp), %rbx
 4458 1dab E8000000 		call	_ZN13UnitTestSuite12GetSuiteNameEv
 4458      00
 4459 1db0 41B87500 		movl	$117, %r8d
 4459      0000
 4460 1db6 488D0D00 		leaq	.LC2(%rip), %rcx
 4460      000000
 4461 1dbd 4889C2   		movq	%rax, %rdx
 4462 1dc0 488D3500 		leaq	.LC46(%rip), %rsi
 4462      000000
 4463 1dc7 4889DF   		movq	%rbx, %rdi
 4464 1dca E8000000 		call	_ZN8UnitTest4TestC2EPKcS2_S2_i@PLT
 4464      00
 4465 1dcf 488D1500 		leaq	16+_ZTVN12_GLOBAL__N_140TestFixturesWithThrowingCtorsAreFailuresE(%rip), %rdx
 4465      000000
 4466 1dd6 488B45E8 		movq	-24(%rbp), %rax
 4467 1dda 488910   		movq	%rdx, (%rax)
 4468              	.LBE65:
 4469 1ddd 90       		nop
 4470 1dde 4883C418 		addq	$24, %rsp
 4471 1de2 5B       		popq	%rbx
 4472 1de3 5D       		popq	%rbp
 4473              		.cfi_def_cfa 7, 8
 4474 1de4 C3       		ret
 4475              		.cfi_endproc
 4476              	.LFE1188:
 4478              		.set	_ZN12_GLOBAL__N_140TestFixturesWithThrowingCtorsAreFailuresC1Ev,_ZN12_GLOBAL__N_140TestFixtur
 4479              		.local	_ZN12_GLOBAL__N_148testFixturesWithThrowingCtorsAreFailuresInstanceE
 4480              		.comm	_ZN12_GLOBAL__N_148testFixturesWithThrowingCtorsAreFailuresInstanceE,56,32
 4481              		.local	_ZN12_GLOBAL__N_141adderFixturesWithThrowingCtorsAreFailuresE
 4482              		.comm	_ZN12_GLOBAL__N_141adderFixturesWithThrowingCtorsAreFailuresE,1,1
 4483              		.section	.rodata
 4484 0845 000000   		.align 8
 4485              	.LC47:
 4486 0848 7468726F 		.string	"throwingFixtureTestList1.GetHead() != NULL"
 4486      77696E67 
 4486      46697874 
 4486      75726554 
 4486      6573744C 
 4487              	.LC48:
 4488 0873 7768696C 		.string	"while constructing fixture"
 4488      6520636F 
 4488      6E737472 
 4488      75637469 
 4488      6E672066 
 4489 088e 0000     		.align 8
 4490              	.LC49:
 4491 0890 73747273 		.string	"strstr(reporter.lastFailedMessage, \"while constructing fixture\")"
 4491      74722872 
 4491      65706F72 
 4491      7465722E 
 4491      6C617374 
 4492 08d1 00000000 		.align 8
 4492      000000
 4493              	.LC50:
 4494 08d8 556E6861 		.string	"Unhandled exception in CHECK(throwingFixtureTestList1.GetHead() != NULL)"
 4494      6E646C65 
 4494      64206578 
 4494      63657074 
 4494      696F6E20 
 4495 0921 00000000 		.align 8
 4495      000000
 4496              	.LC51:
 4497 0928 556E6861 		.string	"Unhandled exception in CHECK_EQUAL(1, failureCount)"
 4497      6E646C65 
 4497      64206578 
 4497      63657074 
 4497      696F6E20 
 4498 095c 00000000 		.align 8
 4499              	.LC52:
 4500 0960 556E6861 		.string	"Unhandled exception in CHECK(strstr(reporter.lastFailedMessage, \"while constructing fixt
 4500      6E646C65 
 4500      64206578 
 4500      63657074 
 4500      696F6E20 
 4501              		.text
 4502 1de5 90       		.align 2
 4504              	_ZNK12_GLOBAL__N_140TestFixturesWithThrowingCtorsAreFailures7RunImplEv:
 4505              	.LFB1190:
 118:TestTestMacros.cpp **** {
 4506              		.loc 6 118 0
 4507              		.cfi_startproc
 4508              		.cfi_personality 0x9b,DW.ref.__gxx_personality_v0
 4509              		.cfi_lsda 0x1b,.LLSDA1190
 4510 1de6 55       		pushq	%rbp
 4511              		.cfi_def_cfa_offset 16
 4512              		.cfi_offset 6, -16
 4513 1de7 4889E5   		movq	%rsp, %rbp
 4514              		.cfi_def_cfa_register 6
 4515 1dea 53       		pushq	%rbx
 4516 1deb 4881ECA8 		subq	$2216, %rsp
 4516      080000
 4517              		.cfi_offset 3, -24
 4518 1df2 4889BD58 		movq	%rdi, -2216(%rbp)
 4518      F7FFFF
 4519              		.loc 6 118 0
 4520 1df9 64488B04 		movq	%fs:40, %rax
 4520      25280000 
 4520      00
 4521 1e02 488945E8 		movq	%rax, -24(%rbp)
 4522 1e06 31C0     		xorl	%eax, %eax
 119:TestTestMacros.cpp **** 	CHECK(throwingFixtureTestList1.GetHead() != NULL);
 4523              		.loc 6 119 0
 4524 1e08 488D3D00 		leaq	_ZN12_GLOBAL__N_124throwingFixtureTestList1E(%rip), %rdi
 4524      000000
 4525              	.LEHB95:
 4526 1e0f E8000000 		call	_ZNK8UnitTest8TestList7GetHeadEv@PLT
 4526      00
 4527 1e14 4885C0   		testq	%rax, %rax
 4528 1e17 0F95C0   		setne	%al
 4529 1e1a 0FB6C0   		movzbl	%al, %eax
 4530 1e1d 89C7     		movl	%eax, %edi
 4531 1e1f E8000000 		call	_ZN8UnitTest5CheckIbEEbT_
 4531      00
 4532 1e24 83F001   		xorl	$1, %eax
 4533 1e27 84C0     		testb	%al, %al
 4534 1e29 7440     		je	.L221
 4535              		.loc 6 119 0 is_stmt 0 discriminator 2
 4536 1e2b E8000000 		call	_ZN8UnitTest11CurrentTest7ResultsEv@PLT
 4536      00
 4537 1e30 488B18   		movq	(%rax), %rbx
 4538 1e33 E8000000 		call	_ZN8UnitTest11CurrentTest7DetailsEv@PLT
 4538      00
 4539              		.loc 6 119 0 discriminator 3
 4540 1e38 488B08   		movq	(%rax), %rcx
 4541 1e3b 488D8590 		leaq	-2160(%rbp), %rax
 4541      F7FFFF
 4542 1e42 BA770000 		movl	$119, %edx
 4542      00
 4543 1e47 4889CE   		movq	%rcx, %rsi
 4544 1e4a 4889C7   		movq	%rax, %rdi
 4545 1e4d E8000000 		call	_ZN8UnitTest11TestDetailsC1ERKS0_i@PLT
 4545      00
 4546              		.loc 6 119 0 discriminator 5
 4547 1e52 488D8590 		leaq	-2160(%rbp), %rax
 4547      F7FFFF
 4548 1e59 488D1500 		leaq	.LC47(%rip), %rdx
 4548      000000
 4549 1e60 4889C6   		movq	%rax, %rsi
 4550 1e63 4889DF   		movq	%rbx, %rdi
 4551 1e66 E8000000 		call	_ZN8UnitTest11TestResults13OnTestFailureERKNS_11TestDetailsEPKc@PLT
 4551      00
 4552              	.LEHE95:
 4553              	.L221:
 120:TestTestMacros.cpp **** 	RecordingReporter reporter;
 4554              		.loc 6 120 0 is_stmt 1
 4555 1e6b 488D85B0 		leaq	-2128(%rbp), %rax
 4555      F7FFFF
 4556 1e72 4889C7   		movq	%rax, %rdi
 4557 1e75 E8000000 		call	_ZN17RecordingReporterC1Ev
 4557      00
 121:TestTestMacros.cpp **** 	TestResults result(&reporter);
 4558              		.loc 6 121 0
 4559 1e7a 488D95B0 		leaq	-2128(%rbp), %rdx
 4559      F7FFFF
 4560 1e81 488D8570 		leaq	-2192(%rbp), %rax
 4560      F7FFFF
 4561 1e88 4889D6   		movq	%rdx, %rsi
 4562 1e8b 4889C7   		movq	%rax, %rdi
 4563              	.LEHB96:
 4564 1e8e E8000000 		call	_ZN8UnitTest11TestResultsC1EPNS_12TestReporterE@PLT
 4564      00
 4565              	.LBB66:
 122:TestTestMacros.cpp **** 	{
 123:TestTestMacros.cpp **** 		ScopedCurrentTest scopedResult(result);
 4566              		.loc 6 123 0
 4567 1e93 488D8D70 		leaq	-2192(%rbp), %rcx
 4567      F7FFFF
 4568 1e9a 488D8590 		leaq	-2160(%rbp), %rax
 4568      F7FFFF
 4569 1ea1 BA000000 		movl	$0, %edx
 4569      00
 4570 1ea6 4889CE   		movq	%rcx, %rsi
 4571 1ea9 4889C7   		movq	%rax, %rdi
 4572 1eac E8000000 		call	_ZN17ScopedCurrentTestC1ERN8UnitTest11TestResultsEPKNS0_11TestDetailsE
 4572      00
 4573              	.LEHE96:
 124:TestTestMacros.cpp **** 		throwingFixtureTestList1.GetHead()->Run();
 4574              		.loc 6 124 0
 4575 1eb1 488D3D00 		leaq	_ZN12_GLOBAL__N_124throwingFixtureTestList1E(%rip), %rdi
 4575      000000
 4576              	.LEHB97:
 4577 1eb8 E8000000 		call	_ZNK8UnitTest8TestList7GetHeadEv@PLT
 4577      00
 4578 1ebd 4889C7   		movq	%rax, %rdi
 4579 1ec0 E8000000 		call	_ZN8UnitTest4Test3RunEv@PLT
 4579      00
 4580              	.LEHE97:
 123:TestTestMacros.cpp **** 		throwingFixtureTestList1.GetHead()->Run();
 4581              		.loc 6 123 0
 4582 1ec5 488D8590 		leaq	-2160(%rbp), %rax
 4582      F7FFFF
 4583 1ecc 4889C7   		movq	%rax, %rdi
 4584              	.LEHB98:
 4585 1ecf E8000000 		call	_ZN17ScopedCurrentTestD1Ev
 4585      00
 4586              	.LBE66:
 125:TestTestMacros.cpp **** 	}
 126:TestTestMacros.cpp **** 
 127:TestTestMacros.cpp **** 	int const failureCount = result.GetFailedTestCount();
 4587              		.loc 6 127 0
 4588 1ed4 488D8570 		leaq	-2192(%rbp), %rax
 4588      F7FFFF
 4589 1edb 4889C7   		movq	%rax, %rdi
 4590 1ede E8000000 		call	_ZNK8UnitTest11TestResults18GetFailedTestCountEv@PLT
 4590      00
 4591              	.LEHE98:
 4592 1ee3 898568F7 		movl	%eax, -2200(%rbp)
 4592      FFFF
 4593              	.LEHB99:
 128:TestTestMacros.cpp **** 	CHECK_EQUAL(1, failureCount);
 4594              		.loc 6 128 0
 4595 1ee9 E8000000 		call	_ZN8UnitTest11CurrentTest7DetailsEv@PLT
 4595      00
 4596              		.loc 6 128 0 is_stmt 0 discriminator 1
 4597 1eee 488B08   		movq	(%rax), %rcx
 4598 1ef1 488D8590 		leaq	-2160(%rbp), %rax
 4598      F7FFFF
 4599 1ef8 BA800000 		movl	$128, %edx
 4599      00
 4600 1efd 4889CE   		movq	%rcx, %rsi
 4601 1f00 4889C7   		movq	%rax, %rdi
 4602 1f03 E8000000 		call	_ZN8UnitTest11TestDetailsC1ERKS0_i@PLT
 4602      00
 4603              	.LEHE99:
 4604              		.loc 6 128 0 discriminator 2
 4605 1f08 C7856CF7 		movl	$1, -2196(%rbp)
 4605      FFFF0100 
 4605      0000
 4606              	.LEHB100:
 4607 1f12 E8000000 		call	_ZN8UnitTest11CurrentTest7ResultsEv@PLT
 4607      00
 4608 1f17 488B00   		movq	(%rax), %rax
 4609 1f1a 488D8D90 		leaq	-2160(%rbp), %rcx
 4609      F7FFFF
 4610 1f21 488D9568 		leaq	-2200(%rbp), %rdx
 4610      F7FFFF
 4611 1f28 488DB56C 		leaq	-2196(%rbp), %rsi
 4611      F7FFFF
 4612 1f2f 4889C7   		movq	%rax, %rdi
 4613 1f32 E8000000 		call	_ZN8UnitTest10CheckEqualIiiEEvRNS_11TestResultsERKT_RKT0_RKNS_11TestDetailsE
 4613      00
 4614              	.LEHE100:
 4615              	.L229:
 129:TestTestMacros.cpp **** 	CHECK(strstr(reporter.lastFailedMessage, "while constructing fixture"));
 4616              		.loc 6 129 0 is_stmt 1
 4617 1f37 488D85B0 		leaq	-2128(%rbp), %rax
 4617      F7FFFF
 4618 1f3e 48051405 		addq	$1300, %rax
 4618      0000
 4619 1f44 488D3500 		leaq	.LC48(%rip), %rsi
 4619      000000
 4620 1f4b 4889C7   		movq	%rax, %rdi
 4621 1f4e E8000000 		call	strstr@PLT
 4621      00
 4622 1f53 4889C7   		movq	%rax, %rdi
 4623 1f56 E8000000 		call	_ZN8UnitTest5CheckIPcEEbT_
 4623      00
 4624 1f5b 83F001   		xorl	$1, %eax
 4625 1f5e 84C0     		testb	%al, %al
 4626 1f60 7440     		je	.L222
 4627              	.LEHB101:
 4628              		.loc 6 129 0 is_stmt 0 discriminator 1
 4629 1f62 E8000000 		call	_ZN8UnitTest11CurrentTest7ResultsEv@PLT
 4629      00
 4630 1f67 488B18   		movq	(%rax), %rbx
 4631 1f6a E8000000 		call	_ZN8UnitTest11CurrentTest7DetailsEv@PLT
 4631      00
 4632              		.loc 6 129 0 discriminator 2
 4633 1f6f 488B08   		movq	(%rax), %rcx
 4634 1f72 488D8590 		leaq	-2160(%rbp), %rax
 4634      F7FFFF
 4635 1f79 BA810000 		movl	$129, %edx
 4635      00
 4636 1f7e 4889CE   		movq	%rcx, %rsi
 4637 1f81 4889C7   		movq	%rax, %rdi
 4638 1f84 E8000000 		call	_ZN8UnitTest11TestDetailsC1ERKS0_i@PLT
 4638      00
 4639              		.loc 6 129 0 discriminator 4
 4640 1f89 488D8590 		leaq	-2160(%rbp), %rax
 4640      F7FFFF
 4641 1f90 488D1500 		leaq	.LC49(%rip), %rdx
 4641      000000
 4642 1f97 4889C6   		movq	%rax, %rsi
 4643 1f9a 4889DF   		movq	%rbx, %rdi
 4644 1f9d E8000000 		call	_ZN8UnitTest11TestResults13OnTestFailureERKNS_11TestDetailsEPKc@PLT
 4644      00
 4645              	.LEHE101:
 4646              	.L222:
 120:TestTestMacros.cpp **** 	TestResults result(&reporter);
 4647              		.loc 6 120 0 is_stmt 1
 4648 1fa2 488D85B0 		leaq	-2128(%rbp), %rax
 4648      F7FFFF
 4649 1fa9 4889C7   		movq	%rax, %rdi
 4650              	.LEHB102:
 4651 1fac E8000000 		call	_ZN17RecordingReporterD1Ev
 4651      00
 4652              	.LEHE102:
 130:TestTestMacros.cpp **** }
 4653              		.loc 6 130 0
 4654 1fb1 90       		nop
 4655 1fb2 488B45E8 		movq	-24(%rbp), %rax
 4656 1fb6 64483304 		xorq	%fs:40, %rax
 4656      25280000 
 4656      00
 4657 1fbf 0F845D01 		je	.L233
 4657      0000
 4658 1fc5 E9530100 		jmp	.L243
 4658      00
 4659              	.L234:
 119:TestTestMacros.cpp **** 	RecordingReporter reporter;
 4660              		.loc 6 119 0
 4661 1fca 4889C7   		movq	%rax, %rdi
 4662 1fcd E8000000 		call	__cxa_begin_catch@PLT
 4662      00
 4663              	.LEHB103:
 4664 1fd2 E8000000 		call	_ZN8UnitTest11CurrentTest7ResultsEv@PLT
 4664      00
 4665 1fd7 488B18   		movq	(%rax), %rbx
 4666 1fda E8000000 		call	_ZN8UnitTest11CurrentTest7DetailsEv@PLT
 4666      00
 119:TestTestMacros.cpp **** 	RecordingReporter reporter;
 4667              		.loc 6 119 0 is_stmt 0 discriminator 9
 4668 1fdf 488B08   		movq	(%rax), %rcx
 4669 1fe2 488D8590 		leaq	-2160(%rbp), %rax
 4669      F7FFFF
 4670 1fe9 BA770000 		movl	$119, %edx
 4670      00
 4671 1fee 4889CE   		movq	%rcx, %rsi
 4672 1ff1 4889C7   		movq	%rax, %rdi
 4673 1ff4 E8000000 		call	_ZN8UnitTest11TestDetailsC1ERKS0_i@PLT
 4673      00
 119:TestTestMacros.cpp **** 	RecordingReporter reporter;
 4674              		.loc 6 119 0 discriminator 13
 4675 1ff9 488D8590 		leaq	-2160(%rbp), %rax
 4675      F7FFFF
 4676 2000 488D1500 		leaq	.LC50(%rip), %rdx
 4676      000000
 4677 2007 4889C6   		movq	%rax, %rsi
 4678 200a 4889DF   		movq	%rbx, %rdi
 4679 200d E8000000 		call	_ZN8UnitTest11TestResults13OnTestFailureERKNS_11TestDetailsEPKc@PLT
 4679      00
 4680              	.LEHE103:
 4681              	.LEHB104:
 119:TestTestMacros.cpp **** 	RecordingReporter reporter;
 4682              		.loc 6 119 0 discriminator 15
 4683 2012 E8000000 		call	__cxa_end_catch@PLT
 4683      00
 4684              	.LEHE104:
 4685 2017 E94FFEFF 		jmp	.L221
 4685      FF
 4686              	.L235:
 4687 201c 4889C3   		movq	%rax, %rbx
 119:TestTestMacros.cpp **** 	RecordingReporter reporter;
 4688              		.loc 6 119 0
 4689 201f E8000000 		call	__cxa_end_catch@PLT
 4689      00
 4690 2024 4889D8   		movq	%rbx, %rax
 4691 2027 4889C7   		movq	%rax, %rdi
 4692              	.LEHB105:
 4693 202a E8000000 		call	_Unwind_Resume@PLT
 4693      00
 4694              	.LEHE105:
 4695              	.L237:
 4696 202f 4889C3   		movq	%rax, %rbx
 4697              	.LBB67:
 123:TestTestMacros.cpp **** 		throwingFixtureTestList1.GetHead()->Run();
 4698              		.loc 6 123 0 is_stmt 1
 4699 2032 488D8590 		leaq	-2160(%rbp), %rax
 4699      F7FFFF
 4700 2039 4889C7   		movq	%rax, %rdi
 4701 203c E8000000 		call	_ZN17ScopedCurrentTestD1Ev
 4701      00
 4702 2041 E9BD0000 		jmp	.L226
 4702      00
 4703              	.L239:
 4704 2046 EB00     		jmp	.L228
 4705              	.L238:
 4706              	.L228:
 4707              	.LBE67:
 128:TestTestMacros.cpp **** 	CHECK(strstr(reporter.lastFailedMessage, "while constructing fixture"));
 4708              		.loc 6 128 0
 4709 2048 4889C7   		movq	%rax, %rdi
 4710 204b E8000000 		call	__cxa_begin_catch@PLT
 4710      00
 4711              	.LEHB106:
 4712 2050 E8000000 		call	_ZN8UnitTest11CurrentTest7ResultsEv@PLT
 4712      00
 4713 2055 488B18   		movq	(%rax), %rbx
 4714 2058 E8000000 		call	_ZN8UnitTest11CurrentTest7DetailsEv@PLT
 4714      00
 128:TestTestMacros.cpp **** 	CHECK(strstr(reporter.lastFailedMessage, "while constructing fixture"));
 4715              		.loc 6 128 0 is_stmt 0 discriminator 8
 4716 205d 488B08   		movq	(%rax), %rcx
 4717 2060 488D8590 		leaq	-2160(%rbp), %rax
 4717      F7FFFF
 4718 2067 BA800000 		movl	$128, %edx
 4718      00
 4719 206c 4889CE   		movq	%rcx, %rsi
 4720 206f 4889C7   		movq	%rax, %rdi
 4721 2072 E8000000 		call	_ZN8UnitTest11TestDetailsC1ERKS0_i@PLT
 4721      00
 128:TestTestMacros.cpp **** 	CHECK(strstr(reporter.lastFailedMessage, "while constructing fixture"));
 4722              		.loc 6 128 0 discriminator 12
 4723 2077 488D8590 		leaq	-2160(%rbp), %rax
 4723      F7FFFF
 4724 207e 488D1500 		leaq	.LC51(%rip), %rdx
 4724      000000
 4725 2085 4889C6   		movq	%rax, %rsi
 4726 2088 4889DF   		movq	%rbx, %rdi
 4727 208b E8000000 		call	_ZN8UnitTest11TestResults13OnTestFailureERKNS_11TestDetailsEPKc@PLT
 4727      00
 4728              	.LEHE106:
 4729              	.LEHB107:
 128:TestTestMacros.cpp **** 	CHECK(strstr(reporter.lastFailedMessage, "while constructing fixture"));
 4730              		.loc 6 128 0 discriminator 14
 4731 2090 E8000000 		call	__cxa_end_catch@PLT
 4731      00
 4732              	.LEHE107:
 128:TestTestMacros.cpp **** 	CHECK(strstr(reporter.lastFailedMessage, "while constructing fixture"));
 4733              		.loc 6 128 0
 4734 2095 E99DFEFF 		jmp	.L229
 4734      FF
 4735              	.L240:
 4736 209a 4889C3   		movq	%rax, %rbx
 4737 209d E8000000 		call	__cxa_end_catch@PLT
 4737      00
 4738 20a2 EB5F     		jmp	.L226
 4739              	.L241:
 129:TestTestMacros.cpp **** }
 4740              		.loc 6 129 0 is_stmt 1
 4741 20a4 4889C7   		movq	%rax, %rdi
 4742 20a7 E8000000 		call	__cxa_begin_catch@PLT
 4742      00
 4743              	.LEHB108:
 4744 20ac E8000000 		call	_ZN8UnitTest11CurrentTest7ResultsEv@PLT
 4744      00
 4745 20b1 488B18   		movq	(%rax), %rbx
 4746 20b4 E8000000 		call	_ZN8UnitTest11CurrentTest7DetailsEv@PLT
 4746      00
 129:TestTestMacros.cpp **** }
 4747              		.loc 6 129 0 is_stmt 0 discriminator 8
 4748 20b9 488B08   		movq	(%rax), %rcx
 4749 20bc 488D8590 		leaq	-2160(%rbp), %rax
 4749      F7FFFF
 4750 20c3 BA810000 		movl	$129, %edx
 4750      00
 4751 20c8 4889CE   		movq	%rcx, %rsi
 4752 20cb 4889C7   		movq	%rax, %rdi
 4753 20ce E8000000 		call	_ZN8UnitTest11TestDetailsC1ERKS0_i@PLT
 4753      00
 129:TestTestMacros.cpp **** }
 4754              		.loc 6 129 0 discriminator 12
 4755 20d3 488D8590 		leaq	-2160(%rbp), %rax
 4755      F7FFFF
 4756 20da 488D1500 		leaq	.LC52(%rip), %rdx
 4756      000000
 4757 20e1 4889C6   		movq	%rax, %rsi
 4758 20e4 4889DF   		movq	%rbx, %rdi
 4759 20e7 E8000000 		call	_ZN8UnitTest11TestResults13OnTestFailureERKNS_11TestDetailsEPKc@PLT
 4759      00
 4760              	.LEHE108:
 4761              	.LEHB109:
 129:TestTestMacros.cpp **** }
 4762              		.loc 6 129 0 discriminator 14
 4763 20ec E8000000 		call	__cxa_end_catch@PLT
 4763      00
 4764              	.LEHE109:
 129:TestTestMacros.cpp **** }
 4765              		.loc 6 129 0
 4766 20f1 E9ACFEFF 		jmp	.L222
 4766      FF
 4767              	.L242:
 4768 20f6 4889C3   		movq	%rax, %rbx
 4769 20f9 E8000000 		call	__cxa_end_catch@PLT
 4769      00
 4770 20fe EB03     		jmp	.L226
 4771              	.L236:
 4772 2100 4889C3   		movq	%rax, %rbx
 4773              	.L226:
 120:TestTestMacros.cpp **** 	TestResults result(&reporter);
 4774              		.loc 6 120 0 is_stmt 1
 4775 2103 488D85B0 		leaq	-2128(%rbp), %rax
 4775      F7FFFF
 4776 210a 4889C7   		movq	%rax, %rdi
 4777 210d E8000000 		call	_ZN17RecordingReporterD1Ev
 4777      00
 4778 2112 4889D8   		movq	%rbx, %rax
 4779 2115 4889C7   		movq	%rax, %rdi
 4780              	.LEHB110:
 4781 2118 E8000000 		call	_Unwind_Resume@PLT
 4781      00
 4782              	.LEHE110:
 4783              	.L243:
 4784              		.loc 6 130 0
 4785 211d E8000000 		call	__stack_chk_fail@PLT
 4785      00
 4786              	.L233:
 4787 2122 4881C4A8 		addq	$2216, %rsp
 4787      080000
 4788 2129 5B       		popq	%rbx
 4789 212a 5D       		popq	%rbp
 4790              		.cfi_def_cfa 7, 8
 4791 212b C3       		ret
 4792              		.cfi_endproc
 4793              	.LFE1190:
 4794              		.section	.gcc_except_table
 4795              		.align 4
 4796              	.LLSDA1190:
 4797 02a8 FF       		.byte	0xff
 4798 02a9 9B       		.byte	0x9b
 4799 02aa 65       		.uleb128 .LLSDATT1190-.LLSDATTD1190
 4800              	.LLSDATTD1190:
 4801 02ab 01       		.byte	0x1
 4802 02ac 5B       		.uleb128 .LLSDACSE1190-.LLSDACSB1190
 4803              	.LLSDACSB1190:
 4804 02ad 29       		.uleb128 .LEHB95-.LFB1190
 4805 02ae 5C       		.uleb128 .LEHE95-.LEHB95
 4806 02af E403     		.uleb128 .L234-.LFB1190
 4807 02b1 01       		.uleb128 0x1
 4808 02b2 A801     		.uleb128 .LEHB96-.LFB1190
 4809 02b4 23       		.uleb128 .LEHE96-.LEHB96
 4810 02b5 9A06     		.uleb128 .L236-.LFB1190
 4811 02b7 00       		.uleb128 0
 4812 02b8 D201     		.uleb128 .LEHB97-.LFB1190
 4813 02ba 0D       		.uleb128 .LEHE97-.LEHB97
 4814 02bb C904     		.uleb128 .L237-.LFB1190
 4815 02bd 00       		.uleb128 0
 4816 02be E901     		.uleb128 .LEHB98-.LFB1190
 4817 02c0 14       		.uleb128 .LEHE98-.LEHB98
 4818 02c1 9A06     		.uleb128 .L236-.LFB1190
 4819 02c3 00       		.uleb128 0
 4820 02c4 8302     		.uleb128 .LEHB99-.LFB1190
 4821 02c6 1F       		.uleb128 .LEHE99-.LEHB99
 4822 02c7 E204     		.uleb128 .L238-.LFB1190
 4823 02c9 01       		.uleb128 0x1
 4824 02ca AC02     		.uleb128 .LEHB100-.LFB1190
 4825 02cc 25       		.uleb128 .LEHE100-.LEHB100
 4826 02cd E004     		.uleb128 .L239-.LFB1190
 4827 02cf 01       		.uleb128 0x1
 4828 02d0 FC02     		.uleb128 .LEHB101-.LFB1190
 4829 02d2 40       		.uleb128 .LEHE101-.LEHB101
 4830 02d3 BE05     		.uleb128 .L241-.LFB1190
 4831 02d5 01       		.uleb128 0x1
 4832 02d6 C603     		.uleb128 .LEHB102-.LFB1190
 4833 02d8 05       		.uleb128 .LEHE102-.LEHB102
 4834 02d9 00       		.uleb128 0
 4835 02da 00       		.uleb128 0
 4836 02db EC03     		.uleb128 .LEHB103-.LFB1190
 4837 02dd 40       		.uleb128 .LEHE103-.LEHB103
 4838 02de B604     		.uleb128 .L235-.LFB1190
 4839 02e0 00       		.uleb128 0
 4840 02e1 AC04     		.uleb128 .LEHB104-.LFB1190
 4841 02e3 05       		.uleb128 .LEHE104-.LEHB104
 4842 02e4 00       		.uleb128 0
 4843 02e5 00       		.uleb128 0
 4844 02e6 C404     		.uleb128 .LEHB105-.LFB1190
 4845 02e8 05       		.uleb128 .LEHE105-.LEHB105
 4846 02e9 00       		.uleb128 0
 4847 02ea 00       		.uleb128 0
 4848 02eb EA04     		.uleb128 .LEHB106-.LFB1190
 4849 02ed 40       		.uleb128 .LEHE106-.LEHB106
 4850 02ee B405     		.uleb128 .L240-.LFB1190
 4851 02f0 00       		.uleb128 0
 4852 02f1 AA05     		.uleb128 .LEHB107-.LFB1190
 4853 02f3 05       		.uleb128 .LEHE107-.LEHB107
 4854 02f4 9A06     		.uleb128 .L236-.LFB1190
 4855 02f6 00       		.uleb128 0
 4856 02f7 C605     		.uleb128 .LEHB108-.LFB1190
 4857 02f9 40       		.uleb128 .LEHE108-.LEHB108
 4858 02fa 9006     		.uleb128 .L242-.LFB1190
 4859 02fc 00       		.uleb128 0
 4860 02fd 8606     		.uleb128 .LEHB109-.LFB1190
 4861 02ff 05       		.uleb128 .LEHE109-.LEHB109
 4862 0300 9A06     		.uleb128 .L236-.LFB1190
 4863 0302 00       		.uleb128 0
 4864 0303 B206     		.uleb128 .LEHB110-.LFB1190
 4865 0305 05       		.uleb128 .LEHE110-.LEHB110
 4866 0306 00       		.uleb128 0
 4867 0307 00       		.uleb128 0
 4868              	.LLSDACSE1190:
 4869 0308 01       		.byte	0x1
 4870 0309 00       		.byte	0
 4871 030a 0000     		.align 4
 4872 030c 00000000 		.long	0
 4873              	
 4874              	.LLSDATT1190:
 4875              		.text
 4877              		.align 2
 4879              	_ZN12_GLOBAL__N_117FixtureDtorThrowsD2Ev:
 4880              	.LFB1192:
 131:TestTestMacros.cpp **** 
 132:TestTestMacros.cpp **** struct FixtureDtorThrows
 133:TestTestMacros.cpp **** {
 134:TestTestMacros.cpp **** 	~FixtureDtorThrows() { throw "exception"; }
 4881              		.loc 6 134 0
 4882              		.cfi_startproc
 4883 212c 55       		pushq	%rbp
 4884              		.cfi_def_cfa_offset 16
 4885              		.cfi_offset 6, -16
 4886 212d 4889E5   		movq	%rsp, %rbp
 4887              		.cfi_def_cfa_register 6
 4888 2130 4883EC10 		subq	$16, %rsp
 4889 2134 48897DF8 		movq	%rdi, -8(%rbp)
 4890              	.LBB68:
 4891              		.loc 6 134 0
 4892 2138 BF080000 		movl	$8, %edi
 4892      00
 4893 213d E8000000 		call	__cxa_allocate_exception@PLT
 4893      00
 4894 2142 488D1500 		leaq	.LC42(%rip), %rdx
 4894      000000
 4895 2149 488910   		movq	%rdx, (%rax)
 4896 214c BA000000 		movl	$0, %edx
 4896      00
 4897 2151 488D3500 		leaq	_ZTIPKc(%rip), %rsi
 4897      000000
 4898 2158 4889C7   		movq	%rax, %rdi
 4899 215b E8000000 		call	__cxa_throw@PLT
 4899      00
 4900              	.LBE68:
 4901              		.cfi_endproc
 4902              	.LFE1192:
 4904              		.local	_ZN12_GLOBAL__N_124throwingFixtureTestList2E
 4905              		.comm	_ZN12_GLOBAL__N_124throwingFixtureTestList2E,16,16
 4906              		.align 2
 4908              	_ZN12_GLOBAL__N_148FixtureDtorThrowsFixtureDtorThrowsTestNameHelperC2ERKN8UnitTest11TestDetailsE:
 4909              	.LFB1195:
 135:TestTestMacros.cpp **** };
 136:TestTestMacros.cpp **** 
 137:TestTestMacros.cpp **** TestList throwingFixtureTestList2;
 138:TestTestMacros.cpp **** TEST_FIXTURE_EX(FixtureDtorThrows, FixtureDtorThrowsTestName, throwingFixtureTestList2)
 4910              		.loc 6 138 0
 4911              		.cfi_startproc
 4912 2160 55       		pushq	%rbp
 4913              		.cfi_def_cfa_offset 16
 4914              		.cfi_offset 6, -16
 4915 2161 4889E5   		movq	%rsp, %rbp
 4916              		.cfi_def_cfa_register 6
 4917 2164 48897DF8 		movq	%rdi, -8(%rbp)
 4918 2168 488975F0 		movq	%rsi, -16(%rbp)
 4919              	.LBB69:
 4920              		.loc 6 138 0
 4921 216c 488B45F8 		movq	-8(%rbp), %rax
 4922 2170 488B55F0 		movq	-16(%rbp), %rdx
 4923 2174 488910   		movq	%rdx, (%rax)
 4924              	.LBE69:
 4925 2177 90       		nop
 4926 2178 5D       		popq	%rbp
 4927              		.cfi_def_cfa 7, 8
 4928 2179 C3       		ret
 4929              		.cfi_endproc
 4930              	.LFE1195:
 4932              		.set	_ZN12_GLOBAL__N_148FixtureDtorThrowsFixtureDtorThrowsTestNameHelperC1ERKN8UnitTest11TestDetai
 4933              		.section	.rodata
 4934              	.LC53:
 4935 09bf 46697874 		.string	"FixtureDtorThrowsTestName"
 4935      75726544 
 4935      746F7254 
 4935      68726F77 
 4935      73546573 
 4936              		.text
 4937              		.align 2
 4939              	_ZN12_GLOBAL__N_146TestFixtureDtorThrowsFixtureDtorThrowsTestNameC2Ev:
 4940              	.LFB1198:
 4941              		.loc 6 138 0
 4942              		.cfi_startproc
 4943 217a 55       		pushq	%rbp
 4944              		.cfi_def_cfa_offset 16
 4945              		.cfi_offset 6, -16
 4946 217b 4889E5   		movq	%rsp, %rbp
 4947              		.cfi_def_cfa_register 6
 4948 217e 53       		pushq	%rbx
 4949 217f 4883EC18 		subq	$24, %rsp
 4950              		.cfi_offset 3, -24
 4951 2183 48897DE8 		movq	%rdi, -24(%rbp)
 4952              	.LBB70:
 4953              		.loc 6 138 0
 4954 2187 488B5DE8 		movq	-24(%rbp), %rbx
 4955 218b E8000000 		call	_ZN13UnitTestSuite12GetSuiteNameEv
 4955      00
 4956 2190 41B88A00 		movl	$138, %r8d
 4956      0000
 4957 2196 488D0D00 		leaq	.LC2(%rip), %rcx
 4957      000000
 4958 219d 4889C2   		movq	%rax, %rdx
 4959 21a0 488D3500 		leaq	.LC53(%rip), %rsi
 4959      000000
 4960 21a7 4889DF   		movq	%rbx, %rdi
 4961 21aa E8000000 		call	_ZN8UnitTest4TestC2EPKcS2_S2_i@PLT
 4961      00
 4962 21af 488D1500 		leaq	16+_ZTVN12_GLOBAL__N_146TestFixtureDtorThrowsFixtureDtorThrowsTestNameE(%rip), %rdx
 4962      000000
 4963 21b6 488B45E8 		movq	-24(%rbp), %rax
 4964 21ba 488910   		movq	%rdx, (%rax)
 4965              	.LBE70:
 4966 21bd 90       		nop
 4967 21be 4883C418 		addq	$24, %rsp
 4968 21c2 5B       		popq	%rbx
 4969 21c3 5D       		popq	%rbp
 4970              		.cfi_def_cfa 7, 8
 4971 21c4 C3       		ret
 4972              		.cfi_endproc
 4973              	.LFE1198:
 4975              		.set	_ZN12_GLOBAL__N_146TestFixtureDtorThrowsFixtureDtorThrowsTestNameC1Ev,_ZN12_GLOBAL__N_146Test
 4976              		.local	_ZN12_GLOBAL__N_154testFixtureDtorThrowsFixtureDtorThrowsTestNameInstanceE
 4977              		.comm	_ZN12_GLOBAL__N_154testFixtureDtorThrowsFixtureDtorThrowsTestNameInstanceE,56,32
 4978              		.local	_ZN12_GLOBAL__N_147adderFixtureDtorThrowsFixtureDtorThrowsTestNameE
 4979              		.comm	_ZN12_GLOBAL__N_147adderFixtureDtorThrowsFixtureDtorThrowsTestNameE,1,1
 4980 21c5 90       		.align 2
 4982              	_ZN12_GLOBAL__N_148FixtureDtorThrowsFixtureDtorThrowsTestNameHelperD2Ev:
 4983              	.LFB1202:
 4984              		.loc 6 138 0
 4985              		.cfi_startproc
 4986 21c6 55       		pushq	%rbp
 4987              		.cfi_def_cfa_offset 16
 4988              		.cfi_offset 6, -16
 4989 21c7 4889E5   		movq	%rsp, %rbp
 4990              		.cfi_def_cfa_register 6
 4991 21ca 4883EC10 		subq	$16, %rsp
 4992 21ce 48897DF8 		movq	%rdi, -8(%rbp)
 4993              	.LBB71:
 4994              		.loc 6 138 0
 4995 21d2 488B45F8 		movq	-8(%rbp), %rax
 4996 21d6 4889C7   		movq	%rax, %rdi
 4997 21d9 E84EFFFF 		call	_ZN12_GLOBAL__N_117FixtureDtorThrowsD2Ev
 4997      FF
 4998              	.LBE71:
 4999 21de 90       		nop
 5000 21df C9       		leave
 5001              		.cfi_def_cfa 7, 8
 5002 21e0 C3       		ret
 5003              		.cfi_endproc
 5004              	.LFE1202:
 5006              		.set	_ZN12_GLOBAL__N_148FixtureDtorThrowsFixtureDtorThrowsTestNameHelperD1Ev,_ZN12_GLOBAL__N_148Fi
 5007              		.section	.rodata
 5008 09d9 00000000 		.align 8
 5008      000000
 5009              	.LC54:
 5010 09e0 556E6861 		.string	"Unhandled exception while destroying fixture FixtureDtorThrows"
 5010      6E646C65 
 5010      64206578 
 5010      63657074 
 5010      696F6E20 
 5011 0a1f 00       		.align 8
 5012              	.LC55:
 5013 0a20 556E6861 		.string	"Unhandled exception while constructing fixture FixtureDtorThrows"
 5013      6E646C65 
 5013      64206578 
 5013      63657074 
 5013      696F6E20 
 5014              		.text
 5015 21e1 90       		.align 2
 5017              	_ZNK12_GLOBAL__N_146TestFixtureDtorThrowsFixtureDtorThrowsTestName7RunImplEv:
 5018              	.LFB1200:
 5019              		.loc 6 138 0
 5020              		.cfi_startproc
 5021              		.cfi_personality 0x9b,DW.ref.__gxx_personality_v0
 5022              		.cfi_lsda 0x1b,.LLSDA1200
 5023 21e2 55       		pushq	%rbp
 5024              		.cfi_def_cfa_offset 16
 5025              		.cfi_offset 6, -16
 5026 21e3 4889E5   		movq	%rsp, %rbp
 5027              		.cfi_def_cfa_register 6
 5028 21e6 4155     		pushq	%r13
 5029 21e8 4154     		pushq	%r12
 5030 21ea 53       		pushq	%rbx
 5031 21eb 4881ECF8 		subq	$504, %rsp
 5031      010000
 5032              		.cfi_offset 13, -24
 5033              		.cfi_offset 12, -32
 5034              		.cfi_offset 3, -40
 5035 21f2 4889BDF8 		movq	%rdi, -520(%rbp)
 5035      FDFFFF
 5036              		.loc 6 138 0
 5037 21f9 64488B04 		movq	%fs:40, %rax
 5037      25280000 
 5037      00
 5038 2202 488945D8 		movq	%rax, -40(%rbp)
 5039 2206 31C0     		xorl	%eax, %eax
 5040 2208 C6850FFE 		movb	$0, -497(%rbp)
 5040      FFFF00
 5041              	.LBB72:
 5042 220f 488B85F8 		movq	-520(%rbp), %rax
 5042      FDFFFF
 5043 2216 488D5008 		leaq	8(%rax), %rdx
 5044 221a 488D8520 		leaq	-480(%rbp), %rax
 5044      FEFFFF
 5045 2221 4889D6   		movq	%rdx, %rsi
 5046 2224 4889C7   		movq	%rax, %rdi
 5047 2227 E834FFFF 		call	_ZN12_GLOBAL__N_148FixtureDtorThrowsFixtureDtorThrowsTestNameHelperC1ERKN8UnitTest11TestDetai
 5047      FF
 5048 222c C6850FFE 		movb	$1, -497(%rbp)
 5048      FFFF01
 5049 2233 488B85F8 		movq	-520(%rbp), %rax
 5049      FDFFFF
 5050 223a 488D5008 		leaq	8(%rax), %rdx
 5051 223e 488D8520 		leaq	-480(%rbp), %rax
 5051      FEFFFF
 5052 2245 4889D6   		movq	%rdx, %rsi
 5053 2248 4889C7   		movq	%rax, %rdi
 5054              	.LEHB111:
 5055 224b E8231C00 		call	_ZN8UnitTest11ExecuteTestIN12_GLOBAL__N_148FixtureDtorThrowsFixtureDtorThrowsTestNameHelperEE
 5055      00
 5056              	.LEHE111:
 5057              		.loc 6 138 0 is_stmt 0 discriminator 3
 5058 2250 488D8520 		leaq	-480(%rbp), %rax
 5058      FEFFFF
 5059 2257 4889C7   		movq	%rax, %rdi
 5060              	.LEHB112:
 5061 225a E867FFFF 		call	_ZN12_GLOBAL__N_148FixtureDtorThrowsFixtureDtorThrowsTestNameHelperD1Ev
 5061      FF
 5062              	.LEHE112:
 5063              	.LBE72:
 5064              		.loc 6 138 0
 5065 225f E9690200 		jmp	.L248
 5065      00
 5066              	.L263:
 5067 2264 4989C4   		movq	%rax, %r12
 5068 2267 4889D3   		movq	%rdx, %rbx
 5069              	.LBB73:
 5070 226a 488D8520 		leaq	-480(%rbp), %rax
 5070      FEFFFF
 5071 2271 4889C7   		movq	%rax, %rdi
 5072 2274 E84DFFFF 		call	_ZN12_GLOBAL__N_148FixtureDtorThrowsFixtureDtorThrowsTestNameHelperD1Ev
 5072      FF
 5073 2279 4C89E0   		movq	%r12, %rax
 5074 227c 4889DA   		movq	%rbx, %rdx
 5075 227f EB00     		jmp	.L250
 5076              	.L262:
 5077              	.L250:
 5078 2281 4883FA01 		cmpq	$1, %rdx
 5079 2285 740F     		je	.L252
 5080 2287 4883FA02 		cmpq	$2, %rdx
 5081 228b 0F84A700 		je	.L253
 5081      0000
 5082 2291 E94A0100 		jmp	.L268
 5082      00
 5083              	.L252:
 5084              	.LBE73:
 5085              	.LBB74:
 5086 2296 4889C7   		movq	%rax, %rdi
 5087 2299 E8000000 		call	__cxa_begin_catch@PLT
 5087      00
 5088 229e 48898518 		movq	%rax, -488(%rbp)
 5088      FEFFFF
 5089              	.LEHB113:
 5090 22a5 E8000000 		call	_ZN8UnitTest11CurrentTest7ResultsEv@PLT
 5090      00
 5091 22aa 488B18   		movq	(%rax), %rbx
 5092 22ad 488B8518 		movq	-488(%rbp), %rax
 5092      FEFFFF
 5093 22b4 488B00   		movq	(%rax), %rax
 5094 22b7 4883C010 		addq	$16, %rax
 5095 22bb 488B00   		movq	(%rax), %rax
 5096 22be 488B9518 		movq	-488(%rbp), %rdx
 5096      FEFFFF
 5097 22c5 4889D7   		movq	%rdx, %rdi
 5098 22c8 FFD0     		call	*%rax
 5099              	.LVL10:
 5100 22ca 4989C4   		movq	%rax, %r12
 5101 22cd 488B8518 		movq	-488(%rbp), %rax
 5101      FEFFFF
 5102 22d4 4889C7   		movq	%rax, %rdi
 5103 22d7 E8000000 		call	_ZNK8UnitTest15AssertException10LineNumberEv@PLT
 5103      00
 5104              		.loc 6 138 0 discriminator 5
 5105 22dc 4189C5   		movl	%eax, %r13d
 5106 22df 488B8518 		movq	-488(%rbp), %rax
 5106      FEFFFF
 5107 22e6 4889C7   		movq	%rax, %rdi
 5108 22e9 E8000000 		call	_ZNK8UnitTest15AssertException8FilenameEv@PLT
 5108      00
 5109              		.loc 6 138 0 discriminator 7
 5110 22ee 4889C1   		movq	%rax, %rcx
 5111 22f1 488B85F8 		movq	-520(%rbp), %rax
 5111      FDFFFF
 5112 22f8 488B5008 		movq	8(%rax), %rdx
 5113 22fc 488B85F8 		movq	-520(%rbp), %rax
 5113      FDFFFF
 5114 2303 488B7010 		movq	16(%rax), %rsi
 5115 2307 488D8520 		leaq	-480(%rbp), %rax
 5115      FEFFFF
 5116 230e 4589E8   		movl	%r13d, %r8d
 5117 2311 4889C7   		movq	%rax, %rdi
 5118 2314 E8000000 		call	_ZN8UnitTest11TestDetailsC1EPKcS2_S2_i@PLT
 5118      00
 5119              		.loc 6 138 0 discriminator 11
 5120 2319 488D8520 		leaq	-480(%rbp), %rax
 5120      FEFFFF
 5121 2320 4C89E2   		movq	%r12, %rdx
 5122 2323 4889C6   		movq	%rax, %rsi
 5123 2326 4889DF   		movq	%rbx, %rdi
 5124 2329 E8000000 		call	_ZN8UnitTest11TestResults13OnTestFailureERKNS_11TestDetailsEPKc@PLT
 5124      00
 5125              	.LEHE113:
 5126              		.loc 6 138 0 discriminator 13
 5127 232e E8000000 		call	__cxa_end_catch@PLT
 5127      00
 5128              	.LBE74:
 5129 2333 E9950100 		jmp	.L248
 5129      00
 5130              	.L253:
 5131              	.LBB75:
 5132              		.loc 6 138 0
 5133 2338 4889C7   		movq	%rax, %rdi
 5134 233b E8000000 		call	__cxa_begin_catch@PLT
 5134      00
 5135 2340 48898510 		movq	%rax, -496(%rbp)
 5135      FEFFFF
 5136              	.LBB76:
 5137 2347 488D8540 		leaq	-448(%rbp), %rax
 5137      FEFFFF
 5138 234e 4889C7   		movq	%rax, %rdi
 5139              	.LEHB114:
 5140 2351 E8000000 		call	_ZN8UnitTest15MemoryOutStreamC1Ev
 5140      00
 5141              	.LEHE114:
 5142              		.loc 6 138 0 discriminator 15
 5143 2356 488D8540 		leaq	-448(%rbp), %rax
 5143      FEFFFF
 5144 235d 488D3500 		leaq	.LC11(%rip), %rsi
 5144      000000
 5145 2364 4889C7   		movq	%rax, %rdi
 5146              	.LEHB115:
 5147 2367 E8000000 		call	_ZStlsISt11char_traitsIcEERSt13basic_ostreamIcT_ES5_PKc@PLT
 5147      00
 5148 236c 4889C3   		movq	%rax, %rbx
 5149 236f 488B8510 		movq	-496(%rbp), %rax
 5149      FEFFFF
 5150 2376 488B00   		movq	(%rax), %rax
 5151 2379 4883C010 		addq	$16, %rax
 5152 237d 488B00   		movq	(%rax), %rax
 5153 2380 488B9510 		movq	-496(%rbp), %rdx
 5153      FEFFFF
 5154 2387 4889D7   		movq	%rdx, %rdi
 5155 238a FFD0     		call	*%rax
 5156              	.LVL11:
 5157 238c 4889C6   		movq	%rax, %rsi
 5158 238f 4889DF   		movq	%rbx, %rdi
 5159 2392 E8000000 		call	_ZStlsISt11char_traitsIcEERSt13basic_ostreamIcT_ES5_PKc@PLT
 5159      00
 5160              		.loc 6 138 0 discriminator 19
 5161 2397 E8000000 		call	_ZN8UnitTest11CurrentTest7ResultsEv@PLT
 5161      00
 5162 239c 488B18   		movq	(%rax), %rbx
 5163 239f 488D8540 		leaq	-448(%rbp), %rax
 5163      FEFFFF
 5164 23a6 4889C7   		movq	%rax, %rdi
 5165 23a9 E8000000 		call	_ZNK8UnitTest15MemoryOutStream7GetTextEv@PLT
 5165      00
 5166              		.loc 6 138 0 discriminator 21
 5167 23ae 4889C2   		movq	%rax, %rdx
 5168 23b1 488B85F8 		movq	-520(%rbp), %rax
 5168      FDFFFF
 5169 23b8 4883C008 		addq	$8, %rax
 5170 23bc 4889C6   		movq	%rax, %rsi
 5171 23bf 4889DF   		movq	%rbx, %rdi
 5172 23c2 E8000000 		call	_ZN8UnitTest11TestResults13OnTestFailureERKNS_11TestDetailsEPKc@PLT
 5172      00
 5173              	.LEHE115:
 5174              		.loc 6 138 0 discriminator 25
 5175 23c7 488D8540 		leaq	-448(%rbp), %rax
 5175      FEFFFF
 5176 23ce 4889C7   		movq	%rax, %rdi
 5177              	.LEHB116:
 5178 23d1 E8000000 		call	_ZN8UnitTest15MemoryOutStreamD1Ev
 5178      00
 5179              	.LEHE116:
 5180              	.LBE76:
 5181              		.loc 6 138 0 discriminator 26
 5182 23d6 E8000000 		call	__cxa_end_catch@PLT
 5182      00
 5183              	.LBE75:
 5184 23db E9ED0000 		jmp	.L248
 5184      00
 5185              	.L268:
 5186              		.loc 6 138 0
 5187 23e0 4889C7   		movq	%rax, %rdi
 5188 23e3 E8000000 		call	__cxa_begin_catch@PLT
 5188      00
 5189 23e8 80BD0FFE 		cmpb	$0, -497(%rbp)
 5189      FFFF00
 5190 23ef 7445     		je	.L255
 5191              	.LEHB117:
 5192              		.loc 6 138 0 discriminator 28
 5193 23f1 E8000000 		call	_ZN8UnitTest11CurrentTest7ResultsEv@PLT
 5193      00
 5194 23f6 488B18   		movq	(%rax), %rbx
 5195 23f9 488B85F8 		movq	-520(%rbp), %rax
 5195      FDFFFF
 5196 2400 488D4808 		leaq	8(%rax), %rcx
 5197 2404 488D8520 		leaq	-480(%rbp), %rax
 5197      FEFFFF
 5198 240b BA8A0000 		movl	$138, %edx
 5198      00
 5199 2410 4889CE   		movq	%rcx, %rsi
 5200 2413 4889C7   		movq	%rax, %rdi
 5201 2416 E8000000 		call	_ZN8UnitTest11TestDetailsC1ERKS0_i@PLT
 5201      00
 5202              		.loc 6 138 0 discriminator 33
 5203 241b 488D8520 		leaq	-480(%rbp), %rax
 5203      FEFFFF
 5204 2422 488D1500 		leaq	.LC54(%rip), %rdx
 5204      000000
 5205 2429 4889C6   		movq	%rax, %rsi
 5206 242c 4889DF   		movq	%rbx, %rdi
 5207 242f E8000000 		call	_ZN8UnitTest11TestResults13OnTestFailureERKNS_11TestDetailsEPKc@PLT
 5207      00
 5208 2434 EB43     		jmp	.L256
 5209              	.L255:
 5210              		.loc 6 138 0 discriminator 29
 5211 2436 E8000000 		call	_ZN8UnitTest11CurrentTest7ResultsEv@PLT
 5211      00
 5212 243b 488B18   		movq	(%rax), %rbx
 5213 243e 488B85F8 		movq	-520(%rbp), %rax
 5213      FDFFFF
 5214 2445 488D4808 		leaq	8(%rax), %rcx
 5215 2449 488D8520 		leaq	-480(%rbp), %rax
 5215      FEFFFF
 5216 2450 BA8A0000 		movl	$138, %edx
 5216      00
 5217 2455 4889CE   		movq	%rcx, %rsi
 5218 2458 4889C7   		movq	%rax, %rdi
 5219 245b E8000000 		call	_ZN8UnitTest11TestDetailsC1ERKS0_i@PLT
 5219      00
 5220              		.loc 6 138 0 discriminator 40
 5221 2460 488D8520 		leaq	-480(%rbp), %rax
 5221      FEFFFF
 5222 2467 488D1500 		leaq	.LC55(%rip), %rdx
 5222      000000
 5223 246e 4889C6   		movq	%rax, %rsi
 5224 2471 4889DF   		movq	%rbx, %rdi
 5225 2474 E8000000 		call	_ZN8UnitTest11TestResults13OnTestFailureERKNS_11TestDetailsEPKc@PLT
 5225      00
 5226              	.LEHE117:
 5227              	.L256:
 5228              	.LEHB118:
 5229              		.loc 6 138 0 discriminator 43
 5230 2479 E8000000 		call	__cxa_end_catch@PLT
 5230      00
 5231 247e EB4D     		jmp	.L248
 5232              	.L264:
 5233 2480 4889C3   		movq	%rax, %rbx
 5234              	.LBB78:
 5235              		.loc 6 138 0
 5236 2483 E8000000 		call	__cxa_end_catch@PLT
 5236      00
 5237 2488 4889D8   		movq	%rbx, %rax
 5238 248b 4889C7   		movq	%rax, %rdi
 5239 248e E8000000 		call	_Unwind_Resume@PLT
 5239      00
 5240              	.LEHE118:
 5241              	.L266:
 5242 2493 4889C3   		movq	%rax, %rbx
 5243              	.LBE78:
 5244              	.LBB79:
 5245              	.LBB77:
 5246 2496 488D8540 		leaq	-448(%rbp), %rax
 5246      FEFFFF
 5247 249d 4889C7   		movq	%rax, %rdi
 5248 24a0 E8000000 		call	_ZN8UnitTest15MemoryOutStreamD1Ev
 5248      00
 5249 24a5 EB03     		jmp	.L259
 5250              	.L265:
 5251 24a7 4889C3   		movq	%rax, %rbx
 5252              	.L259:
 5253              	.LBE77:
 5254 24aa E8000000 		call	__cxa_end_catch@PLT
 5254      00
 5255 24af 4889D8   		movq	%rbx, %rax
 5256 24b2 4889C7   		movq	%rax, %rdi
 5257              	.LEHB119:
 5258 24b5 E8000000 		call	_Unwind_Resume@PLT
 5258      00
 5259              	.LEHE119:
 5260              	.L267:
 5261 24ba 4889C3   		movq	%rax, %rbx
 5262              	.LBE79:
 5263 24bd E8000000 		call	__cxa_end_catch@PLT
 5263      00
 5264 24c2 4889D8   		movq	%rbx, %rax
 5265 24c5 4889C7   		movq	%rax, %rdi
 5266              	.LEHB120:
 5267 24c8 E8000000 		call	_Unwind_Resume@PLT
 5267      00
 5268              	.LEHE120:
 5269              	.L248:
 5270 24cd 488B45D8 		movq	-40(%rbp), %rax
 5271 24d1 64483304 		xorq	%fs:40, %rax
 5271      25280000 
 5271      00
 5272 24da 7405     		je	.L261
 5273 24dc E8000000 		call	__stack_chk_fail@PLT
 5273      00
 5274              	.L261:
 5275 24e1 4881C4F8 		addq	$504, %rsp
 5275      010000
 5276 24e8 5B       		popq	%rbx
 5277 24e9 415C     		popq	%r12
 5278 24eb 415D     		popq	%r13
 5279 24ed 5D       		popq	%rbp
 5280              		.cfi_def_cfa 7, 8
 5281 24ee C3       		ret
 5282              		.cfi_endproc
 5283              	.LFE1200:
 5284              		.section	.gcc_except_table
 5285              		.align 4
 5286              	.LLSDA1200:
 5287 0310 FF       		.byte	0xff
 5288 0311 9B       		.byte	0x9b
 5289 0312 51       		.uleb128 .LLSDATT1200-.LLSDATTD1200
 5290              	.LLSDATTD1200:
 5291 0313 01       		.byte	0x1
 5292 0314 39       		.uleb128 .LLSDACSE1200-.LLSDACSB1200
 5293              	.LLSDACSB1200:
 5294 0315 69       		.uleb128 .LEHB111-.LFB1200
 5295 0316 05       		.uleb128 .LEHE111-.LEHB111
 5296 0317 8201     		.uleb128 .L263-.LFB1200
 5297 0319 07       		.uleb128 0x7
 5298 031a 78       		.uleb128 .LEHB112-.LFB1200
 5299 031b 05       		.uleb128 .LEHE112-.LEHB112
 5300 031c 9F01     		.uleb128 .L262-.LFB1200
 5301 031e 05       		.uleb128 0x5
 5302 031f C301     		.uleb128 .LEHB113-.LFB1200
 5303 0321 8901     		.uleb128 .LEHE113-.LEHB113
 5304 0323 9E05     		.uleb128 .L264-.LFB1200
 5305 0325 00       		.uleb128 0
 5306 0326 EF02     		.uleb128 .LEHB114-.LFB1200
 5307 0328 05       		.uleb128 .LEHE114-.LEHB114
 5308 0329 C505     		.uleb128 .L265-.LFB1200
 5309 032b 00       		.uleb128 0
 5310 032c 8503     		.uleb128 .LEHB115-.LFB1200
 5311 032e 60       		.uleb128 .LEHE115-.LEHB115
 5312 032f B105     		.uleb128 .L266-.LFB1200
 5313 0331 00       		.uleb128 0
 5314 0332 EF03     		.uleb128 .LEHB116-.LFB1200
 5315 0334 05       		.uleb128 .LEHE116-.LEHB116
 5316 0335 C505     		.uleb128 .L265-.LFB1200
 5317 0337 00       		.uleb128 0
 5318 0338 8F04     		.uleb128 .LEHB117-.LFB1200
 5319 033a 8801     		.uleb128 .LEHE117-.LEHB117
 5320 033c D805     		.uleb128 .L267-.LFB1200
 5321 033e 00       		.uleb128 0
 5322 033f 9705     		.uleb128 .LEHB118-.LFB1200
 5323 0341 1A       		.uleb128 .LEHE118-.LEHB118
 5324 0342 00       		.uleb128 0
 5325 0343 00       		.uleb128 0
 5326 0344 D305     		.uleb128 .LEHB119-.LFB1200
 5327 0346 05       		.uleb128 .LEHE119-.LEHB119
 5328 0347 00       		.uleb128 0
 5329 0348 00       		.uleb128 0
 5330 0349 E605     		.uleb128 .LEHB120-.LFB1200
 5331 034b 05       		.uleb128 .LEHE120-.LEHB120
 5332 034c 00       		.uleb128 0
 5333 034d 00       		.uleb128 0
 5334              	.LLSDACSE1200:
 5335 034e 03       		.byte	0x3
 5336 034f 00       		.byte	0
 5337 0350 02       		.byte	0x2
 5338 0351 7D       		.byte	0x7d
 5339 0352 01       		.byte	0x1
 5340 0353 7D       		.byte	0x7d
 5341 0354 00       		.byte	0
 5342 0355 7D       		.byte	0x7d
 5343 0356 0000     		.align 4
 5344 0358 00000000 		.long	0
 5345              	
 5346 035c 00000000 		.long	DW.ref._ZTISt9exception-.
 5347 0360 00000000 		.long	DW.ref._ZTIN8UnitTest15AssertExceptionE-.
 5348              	.LLSDATT1200:
 5349              		.text
 5351 24ef 90       		.align 2
 5353              	_ZN12_GLOBAL__N_148FixtureDtorThrowsFixtureDtorThrowsTestNameHelper7RunImplEv:
 5354              	.LFB1204:
 139:TestTestMacros.cpp **** {
 5355              		.loc 6 139 0 is_stmt 1
 5356              		.cfi_startproc
 5357 24f0 55       		pushq	%rbp
 5358              		.cfi_def_cfa_offset 16
 5359              		.cfi_offset 6, -16
 5360 24f1 4889E5   		movq	%rsp, %rbp
 5361              		.cfi_def_cfa_register 6
 5362 24f4 48897DF8 		movq	%rdi, -8(%rbp)
 140:TestTestMacros.cpp **** }
 5363              		.loc 6 140 0
 5364 24f8 90       		nop
 5365 24f9 5D       		popq	%rbp
 5366              		.cfi_def_cfa 7, 8
 5367 24fa C3       		ret
 5368              		.cfi_endproc
 5369              	.LFE1204:
 5371              		.section	.rodata
 5372 0a61 00000000 		.align 8
 5372      000000
 5373              	.LC56:
 5374 0a68 46697874 		.string	"FixturesWithThrowingDtorsAreFailures"
 5374      75726573 
 5374      57697468 
 5374      5468726F 
 5374      77696E67 
 5375              		.text
 5376 24fb 90       		.align 2
 5378              	_ZN12_GLOBAL__N_140TestFixturesWithThrowingDtorsAreFailuresC2Ev:
 5379              	.LFB1206:
 141:TestTestMacros.cpp **** 
 142:TestTestMacros.cpp **** TEST(FixturesWithThrowingDtorsAreFailures)
 5380              		.loc 6 142 0
 5381              		.cfi_startproc
 5382 24fc 55       		pushq	%rbp
 5383              		.cfi_def_cfa_offset 16
 5384              		.cfi_offset 6, -16
 5385 24fd 4889E5   		movq	%rsp, %rbp
 5386              		.cfi_def_cfa_register 6
 5387 2500 53       		pushq	%rbx
 5388 2501 4883EC18 		subq	$24, %rsp
 5389              		.cfi_offset 3, -24
 5390 2505 48897DE8 		movq	%rdi, -24(%rbp)
 5391              	.LBB80:
 5392              		.loc 6 142 0
 5393 2509 488B5DE8 		movq	-24(%rbp), %rbx
 5394 250d E8000000 		call	_ZN13UnitTestSuite12GetSuiteNameEv
 5394      00
 5395 2512 41B88E00 		movl	$142, %r8d
 5395      0000
 5396 2518 488D0D00 		leaq	.LC2(%rip), %rcx
 5396      000000
 5397 251f 4889C2   		movq	%rax, %rdx
 5398 2522 488D3500 		leaq	.LC56(%rip), %rsi
 5398      000000
 5399 2529 4889DF   		movq	%rbx, %rdi
 5400 252c E8000000 		call	_ZN8UnitTest4TestC2EPKcS2_S2_i@PLT
 5400      00
 5401 2531 488D1500 		leaq	16+_ZTVN12_GLOBAL__N_140TestFixturesWithThrowingDtorsAreFailuresE(%rip), %rdx
 5401      000000
 5402 2538 488B45E8 		movq	-24(%rbp), %rax
 5403 253c 488910   		movq	%rdx, (%rax)
 5404              	.LBE80:
 5405 253f 90       		nop
 5406 2540 4883C418 		addq	$24, %rsp
 5407 2544 5B       		popq	%rbx
 5408 2545 5D       		popq	%rbp
 5409              		.cfi_def_cfa 7, 8
 5410 2546 C3       		ret
 5411              		.cfi_endproc
 5412              	.LFE1206:
 5414              		.set	_ZN12_GLOBAL__N_140TestFixturesWithThrowingDtorsAreFailuresC1Ev,_ZN12_GLOBAL__N_140TestFixtur
 5415              		.local	_ZN12_GLOBAL__N_148testFixturesWithThrowingDtorsAreFailuresInstanceE
 5416              		.comm	_ZN12_GLOBAL__N_148testFixturesWithThrowingDtorsAreFailuresInstanceE,56,32
 5417              		.local	_ZN12_GLOBAL__N_141adderFixturesWithThrowingDtorsAreFailuresE
 5418              		.comm	_ZN12_GLOBAL__N_141adderFixturesWithThrowingDtorsAreFailuresE,1,1
 5419              		.section	.rodata
 5420 0a8d 000000   		.align 8
 5421              	.LC57:
 5422 0a90 7468726F 		.string	"throwingFixtureTestList2.GetHead() != NULL"
 5422      77696E67 
 5422      46697874 
 5422      75726554 
 5422      6573744C 
 5423              	.LC58:
 5424 0abb 7768696C 		.string	"while destroying fixture"
 5424      65206465 
 5424      7374726F 
 5424      79696E67 
 5424      20666978 
 5425 0ad4 00000000 		.align 8
 5426              	.LC59:
 5427 0ad8 73747273 		.string	"strstr(reporter.lastFailedMessage, \"while destroying fixture\")"
 5427      74722872 
 5427      65706F72 
 5427      7465722E 
 5427      6C617374 
 5428 0b17 00       		.align 8
 5429              	.LC60:
 5430 0b18 556E6861 		.string	"Unhandled exception in CHECK(throwingFixtureTestList2.GetHead() != NULL)"
 5430      6E646C65 
 5430      64206578 
 5430      63657074 
 5430      696F6E20 
 5431 0b61 00000000 		.align 8
 5431      000000
 5432              	.LC61:
 5433 0b68 556E6861 		.string	"Unhandled exception in CHECK(strstr(reporter.lastFailedMessage, \"while destroying fixtur
 5433      6E646C65 
 5433      64206578 
 5433      63657074 
 5433      696F6E20 
 5434              		.text
 5435 2547 90       		.align 2
 5437              	_ZNK12_GLOBAL__N_140TestFixturesWithThrowingDtorsAreFailures7RunImplEv:
 5438              	.LFB1208:
 143:TestTestMacros.cpp **** {
 5439              		.loc 6 143 0
 5440              		.cfi_startproc
 5441              		.cfi_personality 0x9b,DW.ref.__gxx_personality_v0
 5442              		.cfi_lsda 0x1b,.LLSDA1208
 5443 2548 55       		pushq	%rbp
 5444              		.cfi_def_cfa_offset 16
 5445              		.cfi_offset 6, -16
 5446 2549 4889E5   		movq	%rsp, %rbp
 5447              		.cfi_def_cfa_register 6
 5448 254c 53       		pushq	%rbx
 5449 254d 4881ECA8 		subq	$2216, %rsp
 5449      080000
 5450              		.cfi_offset 3, -24
 5451 2554 4889BD58 		movq	%rdi, -2216(%rbp)
 5451      F7FFFF
 5452              		.loc 6 143 0
 5453 255b 64488B04 		movq	%fs:40, %rax
 5453      25280000 
 5453      00
 5454 2564 488945E8 		movq	%rax, -24(%rbp)
 5455 2568 31C0     		xorl	%eax, %eax
 144:TestTestMacros.cpp **** 	CHECK(throwingFixtureTestList2.GetHead() != NULL);
 5456              		.loc 6 144 0
 5457 256a 488D3D00 		leaq	_ZN12_GLOBAL__N_124throwingFixtureTestList2E(%rip), %rdi
 5457      000000
 5458              	.LEHB121:
 5459 2571 E8000000 		call	_ZNK8UnitTest8TestList7GetHeadEv@PLT
 5459      00
 5460 2576 4885C0   		testq	%rax, %rax
 5461 2579 0F95C0   		setne	%al
 5462 257c 0FB6C0   		movzbl	%al, %eax
 5463 257f 89C7     		movl	%eax, %edi
 5464 2581 E8000000 		call	_ZN8UnitTest5CheckIbEEbT_
 5464      00
 5465 2586 83F001   		xorl	$1, %eax
 5466 2589 84C0     		testb	%al, %al
 5467 258b 7440     		je	.L272
 5468              		.loc 6 144 0 is_stmt 0 discriminator 2
 5469 258d E8000000 		call	_ZN8UnitTest11CurrentTest7ResultsEv@PLT
 5469      00
 5470 2592 488B18   		movq	(%rax), %rbx
 5471 2595 E8000000 		call	_ZN8UnitTest11CurrentTest7DetailsEv@PLT
 5471      00
 5472              		.loc 6 144 0 discriminator 3
 5473 259a 488B08   		movq	(%rax), %rcx
 5474 259d 488D8590 		leaq	-2160(%rbp), %rax
 5474      F7FFFF
 5475 25a4 BA900000 		movl	$144, %edx
 5475      00
 5476 25a9 4889CE   		movq	%rcx, %rsi
 5477 25ac 4889C7   		movq	%rax, %rdi
 5478 25af E8000000 		call	_ZN8UnitTest11TestDetailsC1ERKS0_i@PLT
 5478      00
 5479              		.loc 6 144 0 discriminator 5
 5480 25b4 488D8590 		leaq	-2160(%rbp), %rax
 5480      F7FFFF
 5481 25bb 488D1500 		leaq	.LC57(%rip), %rdx
 5481      000000
 5482 25c2 4889C6   		movq	%rax, %rsi
 5483 25c5 4889DF   		movq	%rbx, %rdi
 5484 25c8 E8000000 		call	_ZN8UnitTest11TestResults13OnTestFailureERKNS_11TestDetailsEPKc@PLT
 5484      00
 5485              	.LEHE121:
 5486              	.L272:
 145:TestTestMacros.cpp **** 
 146:TestTestMacros.cpp **** 	RecordingReporter reporter;
 5487              		.loc 6 146 0 is_stmt 1
 5488 25cd 488D85B0 		leaq	-2128(%rbp), %rax
 5488      F7FFFF
 5489 25d4 4889C7   		movq	%rax, %rdi
 5490 25d7 E8000000 		call	_ZN17RecordingReporterC1Ev
 5490      00
 147:TestTestMacros.cpp **** 	TestResults result(&reporter);
 5491              		.loc 6 147 0
 5492 25dc 488D95B0 		leaq	-2128(%rbp), %rdx
 5492      F7FFFF
 5493 25e3 488D8570 		leaq	-2192(%rbp), %rax
 5493      F7FFFF
 5494 25ea 4889D6   		movq	%rdx, %rsi
 5495 25ed 4889C7   		movq	%rax, %rdi
 5496              	.LEHB122:
 5497 25f0 E8000000 		call	_ZN8UnitTest11TestResultsC1EPNS_12TestReporterE@PLT
 5497      00
 5498              	.LBB81:
 148:TestTestMacros.cpp **** 	{
 149:TestTestMacros.cpp **** 		ScopedCurrentTest scopedResult(result);
 5499              		.loc 6 149 0
 5500 25f5 488D8D70 		leaq	-2192(%rbp), %rcx
 5500      F7FFFF
 5501 25fc 488D8590 		leaq	-2160(%rbp), %rax
 5501      F7FFFF
 5502 2603 BA000000 		movl	$0, %edx
 5502      00
 5503 2608 4889CE   		movq	%rcx, %rsi
 5504 260b 4889C7   		movq	%rax, %rdi
 5505 260e E8000000 		call	_ZN17ScopedCurrentTestC1ERN8UnitTest11TestResultsEPKNS0_11TestDetailsE
 5505      00
 5506              	.LEHE122:
 150:TestTestMacros.cpp **** 		throwingFixtureTestList2.GetHead()->Run();
 5507              		.loc 6 150 0
 5508 2613 488D3D00 		leaq	_ZN12_GLOBAL__N_124throwingFixtureTestList2E(%rip), %rdi
 5508      000000
 5509              	.LEHB123:
 5510 261a E8000000 		call	_ZNK8UnitTest8TestList7GetHeadEv@PLT
 5510      00
 5511 261f 4889C7   		movq	%rax, %rdi
 5512 2622 E8000000 		call	_ZN8UnitTest4Test3RunEv@PLT
 5512      00
 5513              	.LEHE123:
 149:TestTestMacros.cpp **** 		throwingFixtureTestList2.GetHead()->Run();
 5514              		.loc 6 149 0
 5515 2627 488D8590 		leaq	-2160(%rbp), %rax
 5515      F7FFFF
 5516 262e 4889C7   		movq	%rax, %rdi
 5517              	.LEHB124:
 5518 2631 E8000000 		call	_ZN17ScopedCurrentTestD1Ev
 5518      00
 5519              	.LBE81:
 151:TestTestMacros.cpp **** 	}
 152:TestTestMacros.cpp **** 
 153:TestTestMacros.cpp **** 	int const failureCount = result.GetFailedTestCount();
 5520              		.loc 6 153 0
 5521 2636 488D8570 		leaq	-2192(%rbp), %rax
 5521      F7FFFF
 5522 263d 4889C7   		movq	%rax, %rdi
 5523 2640 E8000000 		call	_ZNK8UnitTest11TestResults18GetFailedTestCountEv@PLT
 5523      00
 5524              	.LEHE124:
 5525 2645 898568F7 		movl	%eax, -2200(%rbp)
 5525      FFFF
 5526              	.LEHB125:
 154:TestTestMacros.cpp **** 	CHECK_EQUAL(1, failureCount);
 5527              		.loc 6 154 0
 5528 264b E8000000 		call	_ZN8UnitTest11CurrentTest7DetailsEv@PLT
 5528      00
 5529              		.loc 6 154 0 is_stmt 0 discriminator 1
 5530 2650 488B08   		movq	(%rax), %rcx
 5531 2653 488D8590 		leaq	-2160(%rbp), %rax
 5531      F7FFFF
 5532 265a BA9A0000 		movl	$154, %edx
 5532      00
 5533 265f 4889CE   		movq	%rcx, %rsi
 5534 2662 4889C7   		movq	%rax, %rdi
 5535 2665 E8000000 		call	_ZN8UnitTest11TestDetailsC1ERKS0_i@PLT
 5535      00
 5536              	.LEHE125:
 5537              		.loc 6 154 0 discriminator 2
 5538 266a C7856CF7 		movl	$1, -2196(%rbp)
 5538      FFFF0100 
 5538      0000
 5539              	.LEHB126:
 5540 2674 E8000000 		call	_ZN8UnitTest11CurrentTest7ResultsEv@PLT
 5540      00
 5541 2679 488B00   		movq	(%rax), %rax
 5542 267c 488D8D90 		leaq	-2160(%rbp), %rcx
 5542      F7FFFF
 5543 2683 488D9568 		leaq	-2200(%rbp), %rdx
 5543      F7FFFF
 5544 268a 488DB56C 		leaq	-2196(%rbp), %rsi
 5544      F7FFFF
 5545 2691 4889C7   		movq	%rax, %rdi
 5546 2694 E8000000 		call	_ZN8UnitTest10CheckEqualIiiEEvRNS_11TestResultsERKT_RKT0_RKNS_11TestDetailsE
 5546      00
 5547              	.LEHE126:
 5548              	.L280:
 155:TestTestMacros.cpp **** 	CHECK(strstr(reporter.lastFailedMessage, "while destroying fixture"));
 5549              		.loc 6 155 0 is_stmt 1
 5550 2699 488D85B0 		leaq	-2128(%rbp), %rax
 5550      F7FFFF
 5551 26a0 48051405 		addq	$1300, %rax
 5551      0000
 5552 26a6 488D3500 		leaq	.LC58(%rip), %rsi
 5552      000000
 5553 26ad 4889C7   		movq	%rax, %rdi
 5554 26b0 E8000000 		call	strstr@PLT
 5554      00
 5555 26b5 4889C7   		movq	%rax, %rdi
 5556 26b8 E8000000 		call	_ZN8UnitTest5CheckIPcEEbT_
 5556      00
 5557 26bd 83F001   		xorl	$1, %eax
 5558 26c0 84C0     		testb	%al, %al
 5559 26c2 7440     		je	.L273
 5560              	.LEHB127:
 5561              		.loc 6 155 0 is_stmt 0 discriminator 1
 5562 26c4 E8000000 		call	_ZN8UnitTest11CurrentTest7ResultsEv@PLT
 5562      00
 5563 26c9 488B18   		movq	(%rax), %rbx
 5564 26cc E8000000 		call	_ZN8UnitTest11CurrentTest7DetailsEv@PLT
 5564      00
 5565              		.loc 6 155 0 discriminator 2
 5566 26d1 488B08   		movq	(%rax), %rcx
 5567 26d4 488D8590 		leaq	-2160(%rbp), %rax
 5567      F7FFFF
 5568 26db BA9B0000 		movl	$155, %edx
 5568      00
 5569 26e0 4889CE   		movq	%rcx, %rsi
 5570 26e3 4889C7   		movq	%rax, %rdi
 5571 26e6 E8000000 		call	_ZN8UnitTest11TestDetailsC1ERKS0_i@PLT
 5571      00
 5572              		.loc 6 155 0 discriminator 4
 5573 26eb 488D8590 		leaq	-2160(%rbp), %rax
 5573      F7FFFF
 5574 26f2 488D1500 		leaq	.LC59(%rip), %rdx
 5574      000000
 5575 26f9 4889C6   		movq	%rax, %rsi
 5576 26fc 4889DF   		movq	%rbx, %rdi
 5577 26ff E8000000 		call	_ZN8UnitTest11TestResults13OnTestFailureERKNS_11TestDetailsEPKc@PLT
 5577      00
 5578              	.LEHE127:
 5579              	.L273:
 146:TestTestMacros.cpp **** 	TestResults result(&reporter);
 5580              		.loc 6 146 0 is_stmt 1
 5581 2704 488D85B0 		leaq	-2128(%rbp), %rax
 5581      F7FFFF
 5582 270b 4889C7   		movq	%rax, %rdi
 5583              	.LEHB128:
 5584 270e E8000000 		call	_ZN17RecordingReporterD1Ev
 5584      00
 5585              	.LEHE128:
 156:TestTestMacros.cpp **** }
 5586              		.loc 6 156 0
 5587 2713 90       		nop
 5588 2714 488B45E8 		movq	-24(%rbp), %rax
 5589 2718 64483304 		xorq	%fs:40, %rax
 5589      25280000 
 5589      00
 5590 2721 0F845D01 		je	.L284
 5590      0000
 5591 2727 E9530100 		jmp	.L294
 5591      00
 5592              	.L285:
 144:TestTestMacros.cpp **** 
 5593              		.loc 6 144 0
 5594 272c 4889C7   		movq	%rax, %rdi
 5595 272f E8000000 		call	__cxa_begin_catch@PLT
 5595      00
 5596              	.LEHB129:
 5597 2734 E8000000 		call	_ZN8UnitTest11CurrentTest7ResultsEv@PLT
 5597      00
 5598 2739 488B18   		movq	(%rax), %rbx
 5599 273c E8000000 		call	_ZN8UnitTest11CurrentTest7DetailsEv@PLT
 5599      00
 144:TestTestMacros.cpp **** 
 5600              		.loc 6 144 0 is_stmt 0 discriminator 9
 5601 2741 488B08   		movq	(%rax), %rcx
 5602 2744 488D8590 		leaq	-2160(%rbp), %rax
 5602      F7FFFF
 5603 274b BA900000 		movl	$144, %edx
 5603      00
 5604 2750 4889CE   		movq	%rcx, %rsi
 5605 2753 4889C7   		movq	%rax, %rdi
 5606 2756 E8000000 		call	_ZN8UnitTest11TestDetailsC1ERKS0_i@PLT
 5606      00
 144:TestTestMacros.cpp **** 
 5607              		.loc 6 144 0 discriminator 13
 5608 275b 488D8590 		leaq	-2160(%rbp), %rax
 5608      F7FFFF
 5609 2762 488D1500 		leaq	.LC60(%rip), %rdx
 5609      000000
 5610 2769 4889C6   		movq	%rax, %rsi
 5611 276c 4889DF   		movq	%rbx, %rdi
 5612 276f E8000000 		call	_ZN8UnitTest11TestResults13OnTestFailureERKNS_11TestDetailsEPKc@PLT
 5612      00
 5613              	.LEHE129:
 5614              	.LEHB130:
 144:TestTestMacros.cpp **** 
 5615              		.loc 6 144 0 discriminator 15
 5616 2774 E8000000 		call	__cxa_end_catch@PLT
 5616      00
 5617              	.LEHE130:
 5618 2779 E94FFEFF 		jmp	.L272
 5618      FF
 5619              	.L286:
 5620 277e 4889C3   		movq	%rax, %rbx
 144:TestTestMacros.cpp **** 
 5621              		.loc 6 144 0
 5622 2781 E8000000 		call	__cxa_end_catch@PLT
 5622      00
 5623 2786 4889D8   		movq	%rbx, %rax
 5624 2789 4889C7   		movq	%rax, %rdi
 5625              	.LEHB131:
 5626 278c E8000000 		call	_Unwind_Resume@PLT
 5626      00
 5627              	.LEHE131:
 5628              	.L288:
 5629 2791 4889C3   		movq	%rax, %rbx
 5630              	.LBB82:
 149:TestTestMacros.cpp **** 		throwingFixtureTestList2.GetHead()->Run();
 5631              		.loc 6 149 0 is_stmt 1
 5632 2794 488D8590 		leaq	-2160(%rbp), %rax
 5632      F7FFFF
 5633 279b 4889C7   		movq	%rax, %rdi
 5634 279e E8000000 		call	_ZN17ScopedCurrentTestD1Ev
 5634      00
 5635 27a3 E9BD0000 		jmp	.L277
 5635      00
 5636              	.L290:
 5637 27a8 EB00     		jmp	.L279
 5638              	.L289:
 5639              	.L279:
 5640              	.LBE82:
 154:TestTestMacros.cpp **** 	CHECK(strstr(reporter.lastFailedMessage, "while destroying fixture"));
 5641              		.loc 6 154 0
 5642 27aa 4889C7   		movq	%rax, %rdi
 5643 27ad E8000000 		call	__cxa_begin_catch@PLT
 5643      00
 5644              	.LEHB132:
 5645 27b2 E8000000 		call	_ZN8UnitTest11CurrentTest7ResultsEv@PLT
 5645      00
 5646 27b7 488B18   		movq	(%rax), %rbx
 5647 27ba E8000000 		call	_ZN8UnitTest11CurrentTest7DetailsEv@PLT
 5647      00
 154:TestTestMacros.cpp **** 	CHECK(strstr(reporter.lastFailedMessage, "while destroying fixture"));
 5648              		.loc 6 154 0 is_stmt 0 discriminator 8
 5649 27bf 488B08   		movq	(%rax), %rcx
 5650 27c2 488D8590 		leaq	-2160(%rbp), %rax
 5650      F7FFFF
 5651 27c9 BA9A0000 		movl	$154, %edx
 5651      00
 5652 27ce 4889CE   		movq	%rcx, %rsi
 5653 27d1 4889C7   		movq	%rax, %rdi
 5654 27d4 E8000000 		call	_ZN8UnitTest11TestDetailsC1ERKS0_i@PLT
 5654      00
 154:TestTestMacros.cpp **** 	CHECK(strstr(reporter.lastFailedMessage, "while destroying fixture"));
 5655              		.loc 6 154 0 discriminator 12
 5656 27d9 488D8590 		leaq	-2160(%rbp), %rax
 5656      F7FFFF
 5657 27e0 488D1500 		leaq	.LC51(%rip), %rdx
 5657      000000
 5658 27e7 4889C6   		movq	%rax, %rsi
 5659 27ea 4889DF   		movq	%rbx, %rdi
 5660 27ed E8000000 		call	_ZN8UnitTest11TestResults13OnTestFailureERKNS_11TestDetailsEPKc@PLT
 5660      00
 5661              	.LEHE132:
 5662              	.LEHB133:
 154:TestTestMacros.cpp **** 	CHECK(strstr(reporter.lastFailedMessage, "while destroying fixture"));
 5663              		.loc 6 154 0 discriminator 14
 5664 27f2 E8000000 		call	__cxa_end_catch@PLT
 5664      00
 5665              	.LEHE133:
 154:TestTestMacros.cpp **** 	CHECK(strstr(reporter.lastFailedMessage, "while destroying fixture"));
 5666              		.loc 6 154 0
 5667 27f7 E99DFEFF 		jmp	.L280
 5667      FF
 5668              	.L291:
 5669 27fc 4889C3   		movq	%rax, %rbx
 5670 27ff E8000000 		call	__cxa_end_catch@PLT
 5670      00
 5671 2804 EB5F     		jmp	.L277
 5672              	.L292:
 155:TestTestMacros.cpp **** }
 5673              		.loc 6 155 0 is_stmt 1
 5674 2806 4889C7   		movq	%rax, %rdi
 5675 2809 E8000000 		call	__cxa_begin_catch@PLT
 5675      00
 5676              	.LEHB134:
 5677 280e E8000000 		call	_ZN8UnitTest11CurrentTest7ResultsEv@PLT
 5677      00
 5678 2813 488B18   		movq	(%rax), %rbx
 5679 2816 E8000000 		call	_ZN8UnitTest11CurrentTest7DetailsEv@PLT
 5679      00
 155:TestTestMacros.cpp **** }
 5680              		.loc 6 155 0 is_stmt 0 discriminator 8
 5681 281b 488B08   		movq	(%rax), %rcx
 5682 281e 488D8590 		leaq	-2160(%rbp), %rax
 5682      F7FFFF
 5683 2825 BA9B0000 		movl	$155, %edx
 5683      00
 5684 282a 4889CE   		movq	%rcx, %rsi
 5685 282d 4889C7   		movq	%rax, %rdi
 5686 2830 E8000000 		call	_ZN8UnitTest11TestDetailsC1ERKS0_i@PLT
 5686      00
 155:TestTestMacros.cpp **** }
 5687              		.loc 6 155 0 discriminator 12
 5688 2835 488D8590 		leaq	-2160(%rbp), %rax
 5688      F7FFFF
 5689 283c 488D1500 		leaq	.LC61(%rip), %rdx
 5689      000000
 5690 2843 4889C6   		movq	%rax, %rsi
 5691 2846 4889DF   		movq	%rbx, %rdi
 5692 2849 E8000000 		call	_ZN8UnitTest11TestResults13OnTestFailureERKNS_11TestDetailsEPKc@PLT
 5692      00
 5693              	.LEHE134:
 5694              	.LEHB135:
 155:TestTestMacros.cpp **** }
 5695              		.loc 6 155 0 discriminator 14
 5696 284e E8000000 		call	__cxa_end_catch@PLT
 5696      00
 5697              	.LEHE135:
 155:TestTestMacros.cpp **** }
 5698              		.loc 6 155 0
 5699 2853 E9ACFEFF 		jmp	.L273
 5699      FF
 5700              	.L293:
 5701 2858 4889C3   		movq	%rax, %rbx
 5702 285b E8000000 		call	__cxa_end_catch@PLT
 5702      00
 5703 2860 EB03     		jmp	.L277
 5704              	.L287:
 5705 2862 4889C3   		movq	%rax, %rbx
 5706              	.L277:
 146:TestTestMacros.cpp **** 	TestResults result(&reporter);
 5707              		.loc 6 146 0 is_stmt 1
 5708 2865 488D85B0 		leaq	-2128(%rbp), %rax
 5708      F7FFFF
 5709 286c 4889C7   		movq	%rax, %rdi
 5710 286f E8000000 		call	_ZN17RecordingReporterD1Ev
 5710      00
 5711 2874 4889D8   		movq	%rbx, %rax
 5712 2877 4889C7   		movq	%rax, %rdi
 5713              	.LEHB136:
 5714 287a E8000000 		call	_Unwind_Resume@PLT
 5714      00
 5715              	.LEHE136:
 5716              	.L294:
 5717              		.loc 6 156 0
 5718 287f E8000000 		call	__stack_chk_fail@PLT
 5718      00
 5719              	.L284:
 5720 2884 4881C4A8 		addq	$2216, %rsp
 5720      080000
 5721 288b 5B       		popq	%rbx
 5722 288c 5D       		popq	%rbp
 5723              		.cfi_def_cfa 7, 8
 5724 288d C3       		ret
 5725              		.cfi_endproc
 5726              	.LFE1208:
 5727              		.section	.gcc_except_table
 5728              		.align 4
 5729              	.LLSDA1208:
 5730 0364 FF       		.byte	0xff
 5731 0365 9B       		.byte	0x9b
 5732 0366 65       		.uleb128 .LLSDATT1208-.LLSDATTD1208
 5733              	.LLSDATTD1208:
 5734 0367 01       		.byte	0x1
 5735 0368 5B       		.uleb128 .LLSDACSE1208-.LLSDACSB1208
 5736              	.LLSDACSB1208:
 5737 0369 29       		.uleb128 .LEHB121-.LFB1208
 5738 036a 5C       		.uleb128 .LEHE121-.LEHB121
 5739 036b E403     		.uleb128 .L285-.LFB1208
 5740 036d 01       		.uleb128 0x1
 5741 036e A801     		.uleb128 .LEHB122-.LFB1208
 5742 0370 23       		.uleb128 .LEHE122-.LEHB122
 5743 0371 9A06     		.uleb128 .L287-.LFB1208
 5744 0373 00       		.uleb128 0
 5745 0374 D201     		.uleb128 .LEHB123-.LFB1208
 5746 0376 0D       		.uleb128 .LEHE123-.LEHB123
 5747 0377 C904     		.uleb128 .L288-.LFB1208
 5748 0379 00       		.uleb128 0
 5749 037a E901     		.uleb128 .LEHB124-.LFB1208
 5750 037c 14       		.uleb128 .LEHE124-.LEHB124
 5751 037d 9A06     		.uleb128 .L287-.LFB1208
 5752 037f 00       		.uleb128 0
 5753 0380 8302     		.uleb128 .LEHB125-.LFB1208
 5754 0382 1F       		.uleb128 .LEHE125-.LEHB125
 5755 0383 E204     		.uleb128 .L289-.LFB1208
 5756 0385 01       		.uleb128 0x1
 5757 0386 AC02     		.uleb128 .LEHB126-.LFB1208
 5758 0388 25       		.uleb128 .LEHE126-.LEHB126
 5759 0389 E004     		.uleb128 .L290-.LFB1208
 5760 038b 01       		.uleb128 0x1
 5761 038c FC02     		.uleb128 .LEHB127-.LFB1208
 5762 038e 40       		.uleb128 .LEHE127-.LEHB127
 5763 038f BE05     		.uleb128 .L292-.LFB1208
 5764 0391 01       		.uleb128 0x1
 5765 0392 C603     		.uleb128 .LEHB128-.LFB1208
 5766 0394 05       		.uleb128 .LEHE128-.LEHB128
 5767 0395 00       		.uleb128 0
 5768 0396 00       		.uleb128 0
 5769 0397 EC03     		.uleb128 .LEHB129-.LFB1208
 5770 0399 40       		.uleb128 .LEHE129-.LEHB129
 5771 039a B604     		.uleb128 .L286-.LFB1208
 5772 039c 00       		.uleb128 0
 5773 039d AC04     		.uleb128 .LEHB130-.LFB1208
 5774 039f 05       		.uleb128 .LEHE130-.LEHB130
 5775 03a0 00       		.uleb128 0
 5776 03a1 00       		.uleb128 0
 5777 03a2 C404     		.uleb128 .LEHB131-.LFB1208
 5778 03a4 05       		.uleb128 .LEHE131-.LEHB131
 5779 03a5 00       		.uleb128 0
 5780 03a6 00       		.uleb128 0
 5781 03a7 EA04     		.uleb128 .LEHB132-.LFB1208
 5782 03a9 40       		.uleb128 .LEHE132-.LEHB132
 5783 03aa B405     		.uleb128 .L291-.LFB1208
 5784 03ac 00       		.uleb128 0
 5785 03ad AA05     		.uleb128 .LEHB133-.LFB1208
 5786 03af 05       		.uleb128 .LEHE133-.LEHB133
 5787 03b0 9A06     		.uleb128 .L287-.LFB1208
 5788 03b2 00       		.uleb128 0
 5789 03b3 C605     		.uleb128 .LEHB134-.LFB1208
 5790 03b5 40       		.uleb128 .LEHE134-.LEHB134
 5791 03b6 9006     		.uleb128 .L293-.LFB1208
 5792 03b8 00       		.uleb128 0
 5793 03b9 8606     		.uleb128 .LEHB135-.LFB1208
 5794 03bb 05       		.uleb128 .LEHE135-.LEHB135
 5795 03bc 9A06     		.uleb128 .L287-.LFB1208
 5796 03be 00       		.uleb128 0
 5797 03bf B206     		.uleb128 .LEHB136-.LFB1208
 5798 03c1 05       		.uleb128 .LEHE136-.LEHB136
 5799 03c2 00       		.uleb128 0
 5800 03c3 00       		.uleb128 0
 5801              	.LLSDACSE1208:
 5802 03c4 01       		.byte	0x1
 5803 03c5 00       		.byte	0
 5804 03c6 0000     		.align 4
 5805 03c8 00000000 		.long	0
 5806              	
 5807              	.LLSDATT1208:
 5808              		.text
 5810              		.section	.rodata
 5811 0bc5 000000   		.align 4
 5814              	_ZN12_GLOBAL__N_1L11FailingLineE:
 5815 0bc8 7B000000 		.long	123
 5816              	.LC62:
 5817 0bcc 66696C65 		.string	"file"
 5817      00
 5818              	.LC63:
 5819 0bd1 61737365 		.string	"assert failure"
 5819      72742066 
 5819      61696C75 
 5819      726500
 5820              		.text
 5821              		.align 2
 5823              	_ZN12_GLOBAL__N_118FixtureCtorAssertsC2Ev:
 5824              	.LFB1210:
 157:TestTestMacros.cpp **** 
 158:TestTestMacros.cpp **** const int FailingLine = 123;
 159:TestTestMacros.cpp **** 
 160:TestTestMacros.cpp **** struct FixtureCtorAsserts
 161:TestTestMacros.cpp **** {
 162:TestTestMacros.cpp **** 	FixtureCtorAsserts()
 5825              		.loc 6 162 0
 5826              		.cfi_startproc
 5827 288e 55       		pushq	%rbp
 5828              		.cfi_def_cfa_offset 16
 5829              		.cfi_offset 6, -16
 5830 288f 4889E5   		movq	%rsp, %rbp
 5831              		.cfi_def_cfa_register 6
 5832 2892 4883EC10 		subq	$16, %rsp
 5833 2896 48897DF8 		movq	%rdi, -8(%rbp)
 5834              	.LBB83:
 163:TestTestMacros.cpp **** 	{
 164:TestTestMacros.cpp **** 		UnitTest::ReportAssert("assert failure", "file", FailingLine);
 5835              		.loc 6 164 0
 5836 289a BA7B0000 		movl	$123, %edx
 5836      00
 5837 289f 488D3500 		leaq	.LC62(%rip), %rsi
 5837      000000
 5838 28a6 488D3D00 		leaq	.LC63(%rip), %rdi
 5838      000000
 5839 28ad E8000000 		call	_ZN8UnitTest12ReportAssertEPKcS1_i@PLT
 5839      00
 5840              	.LBE83:
 165:TestTestMacros.cpp **** 	}
 5841              		.loc 6 165 0
 5842 28b2 90       		nop
 5843 28b3 C9       		leave
 5844              		.cfi_def_cfa 7, 8
 5845 28b4 C3       		ret
 5846              		.cfi_endproc
 5847              	.LFE1210:
 5849              		.local	_ZN12_GLOBAL__N_125ctorAssertFixtureTestListE
 5850              		.comm	_ZN12_GLOBAL__N_125ctorAssertFixtureTestListE,16,16
 5851 28b5 90       		.align 2
 5853              	_ZN12_GLOBAL__N_159FixtureCtorAssertsCorrectlyReportsAssertFailureInCtorHelperC2ERKN8UnitTest11Test
 5854              	.LFB1213:
 166:TestTestMacros.cpp **** };
 167:TestTestMacros.cpp **** 
 168:TestTestMacros.cpp **** TestList ctorAssertFixtureTestList;
 169:TestTestMacros.cpp **** TEST_FIXTURE_EX(FixtureCtorAsserts, CorrectlyReportsAssertFailureInCtor, ctorAssertFixtureTestList)
 5855              		.loc 6 169 0
 5856              		.cfi_startproc
 5857 28b6 55       		pushq	%rbp
 5858              		.cfi_def_cfa_offset 16
 5859              		.cfi_offset 6, -16
 5860 28b7 4889E5   		movq	%rsp, %rbp
 5861              		.cfi_def_cfa_register 6
 5862 28ba 4883EC10 		subq	$16, %rsp
 5863 28be 48897DF8 		movq	%rdi, -8(%rbp)
 5864 28c2 488975F0 		movq	%rsi, -16(%rbp)
 5865              	.LBB84:
 5866              		.loc 6 169 0
 5867 28c6 488B45F8 		movq	-8(%rbp), %rax
 5868 28ca 4889C7   		movq	%rax, %rdi
 5869 28cd E8BCFFFF 		call	_ZN12_GLOBAL__N_118FixtureCtorAssertsC2Ev
 5869      FF
 5870 28d2 488B45F8 		movq	-8(%rbp), %rax
 5871 28d6 488B55F0 		movq	-16(%rbp), %rdx
 5872 28da 488910   		movq	%rdx, (%rax)
 5873              	.LBE84:
 5874 28dd 90       		nop
 5875 28de C9       		leave
 5876              		.cfi_def_cfa 7, 8
 5877 28df C3       		ret
 5878              		.cfi_endproc
 5879              	.LFE1213:
 5881              		.set	_ZN12_GLOBAL__N_159FixtureCtorAssertsCorrectlyReportsAssertFailureInCtorHelperC1ERKN8UnitTest
 5882              		.section	.rodata
 5883              		.align 8
 5884              	.LC64:
 5885 0be0 436F7272 		.string	"CorrectlyReportsAssertFailureInCtor"
 5885      6563746C 
 5885      79526570 
 5885      6F727473 
 5885      41737365 
 5886              		.text
 5887              		.align 2
 5889              	_ZN12_GLOBAL__N_157TestFixtureCtorAssertsCorrectlyReportsAssertFailureInCtorC2Ev:
 5890              	.LFB1216:
 5891              		.loc 6 169 0
 5892              		.cfi_startproc
 5893 28e0 55       		pushq	%rbp
 5894              		.cfi_def_cfa_offset 16
 5895              		.cfi_offset 6, -16
 5896 28e1 4889E5   		movq	%rsp, %rbp
 5897              		.cfi_def_cfa_register 6
 5898 28e4 53       		pushq	%rbx
 5899 28e5 4883EC18 		subq	$24, %rsp
 5900              		.cfi_offset 3, -24
 5901 28e9 48897DE8 		movq	%rdi, -24(%rbp)
 5902              	.LBB85:
 5903              		.loc 6 169 0
 5904 28ed 488B5DE8 		movq	-24(%rbp), %rbx
 5905 28f1 E8000000 		call	_ZN13UnitTestSuite12GetSuiteNameEv
 5905      00
 5906 28f6 41B8A900 		movl	$169, %r8d
 5906      0000
 5907 28fc 488D0D00 		leaq	.LC2(%rip), %rcx
 5907      000000
 5908 2903 4889C2   		movq	%rax, %rdx
 5909 2906 488D3500 		leaq	.LC64(%rip), %rsi
 5909      000000
 5910 290d 4889DF   		movq	%rbx, %rdi
 5911 2910 E8000000 		call	_ZN8UnitTest4TestC2EPKcS2_S2_i@PLT
 5911      00
 5912 2915 488D1500 		leaq	16+_ZTVN12_GLOBAL__N_157TestFixtureCtorAssertsCorrectlyReportsAssertFailureInCtorE(%rip), %rd
 5912      000000
 5913 291c 488B45E8 		movq	-24(%rbp), %rax
 5914 2920 488910   		movq	%rdx, (%rax)
 5915              	.LBE85:
 5916 2923 90       		nop
 5917 2924 4883C418 		addq	$24, %rsp
 5918 2928 5B       		popq	%rbx
 5919 2929 5D       		popq	%rbp
 5920              		.cfi_def_cfa 7, 8
 5921 292a C3       		ret
 5922              		.cfi_endproc
 5923              	.LFE1216:
 5925              		.set	_ZN12_GLOBAL__N_157TestFixtureCtorAssertsCorrectlyReportsAssertFailureInCtorC1Ev,_ZN12_GLOBAL
 5926              		.local	_ZN12_GLOBAL__N_165testFixtureCtorAssertsCorrectlyReportsAssertFailureInCtorInstanceE
 5927              		.comm	_ZN12_GLOBAL__N_165testFixtureCtorAssertsCorrectlyReportsAssertFailureInCtorInstanceE,56,32
 5928              		.local	_ZN12_GLOBAL__N_158adderFixtureCtorAssertsCorrectlyReportsAssertFailureInCtorE
 5929              		.comm	_ZN12_GLOBAL__N_158adderFixtureCtorAssertsCorrectlyReportsAssertFailureInCtorE,1,1
 5930              		.section	.rodata
 5931 0c04 00000000 		.align 8
 5932              	.LC65:
 5933 0c08 556E6861 		.string	"Unhandled exception while destroying fixture FixtureCtorAsserts"
 5933      6E646C65 
 5933      64206578 
 5933      63657074 
 5933      696F6E20 
 5934              		.align 8
 5935              	.LC66:
 5936 0c48 556E6861 		.string	"Unhandled exception while constructing fixture FixtureCtorAsserts"
 5936      6E646C65 
 5936      64206578 
 5936      63657074 
 5936      696F6E20 
 5937              		.text
 5938 292b 90       		.align 2
 5940              	_ZNK12_GLOBAL__N_157TestFixtureCtorAssertsCorrectlyReportsAssertFailureInCtor7RunImplEv:
 5941              	.LFB1218:
 5942              		.loc 6 169 0
 5943              		.cfi_startproc
 5944              		.cfi_personality 0x9b,DW.ref.__gxx_personality_v0
 5945              		.cfi_lsda 0x1b,.LLSDA1218
 5946 292c 55       		pushq	%rbp
 5947              		.cfi_def_cfa_offset 16
 5948              		.cfi_offset 6, -16
 5949 292d 4889E5   		movq	%rsp, %rbp
 5950              		.cfi_def_cfa_register 6
 5951 2930 4155     		pushq	%r13
 5952 2932 4154     		pushq	%r12
 5953 2934 53       		pushq	%rbx
 5954 2935 4881ECF8 		subq	$504, %rsp
 5954      010000
 5955              		.cfi_offset 13, -24
 5956              		.cfi_offset 12, -32
 5957              		.cfi_offset 3, -40
 5958 293c 4889BDF8 		movq	%rdi, -520(%rbp)
 5958      FDFFFF
 5959              		.loc 6 169 0
 5960 2943 64488B04 		movq	%fs:40, %rax
 5960      25280000 
 5960      00
 5961 294c 488945D8 		movq	%rax, -40(%rbp)
 5962 2950 31C0     		xorl	%eax, %eax
 5963 2952 C6850FFE 		movb	$0, -497(%rbp)
 5963      FFFF00
 5964              	.LBB86:
 5965 2959 488B85F8 		movq	-520(%rbp), %rax
 5965      FDFFFF
 5966 2960 488D5008 		leaq	8(%rax), %rdx
 5967 2964 488D8520 		leaq	-480(%rbp), %rax
 5967      FEFFFF
 5968 296b 4889D6   		movq	%rdx, %rsi
 5969 296e 4889C7   		movq	%rax, %rdi
 5970              	.LEHB137:
 5971 2971 E840FFFF 		call	_ZN12_GLOBAL__N_159FixtureCtorAssertsCorrectlyReportsAssertFailureInCtorHelperC1ERKN8UnitTest
 5971      FF
 5972              		.loc 6 169 0 is_stmt 0 discriminator 1
 5973 2976 C6850FFE 		movb	$1, -497(%rbp)
 5973      FFFF01
 5974 297d 488B85F8 		movq	-520(%rbp), %rax
 5974      FDFFFF
 5975 2984 488D5008 		leaq	8(%rax), %rdx
 5976 2988 488D8520 		leaq	-480(%rbp), %rax
 5976      FEFFFF
 5977 298f 4889D6   		movq	%rdx, %rsi
 5978 2992 4889C7   		movq	%rax, %rdi
 5979 2995 E8A21700 		call	_ZN8UnitTest11ExecuteTestIN12_GLOBAL__N_159FixtureCtorAssertsCorrectlyReportsAssertFailureInC
 5979      00
 5980              	.LEHE137:
 5981              	.LBE86:
 5982              		.loc 6 169 0
 5983 299a E94C0200 		jmp	.L298
 5983      00
 5984              	.L311:
 5985 299f 4883FA01 		cmpq	$1, %rdx
 5986 29a3 740F     		je	.L301
 5987 29a5 4883FA02 		cmpq	$2, %rdx
 5988 29a9 0F84A700 		je	.L302
 5988      0000
 5989 29af E94A0100 		jmp	.L316
 5989      00
 5990              	.L301:
 5991              	.LBB87:
 5992 29b4 4889C7   		movq	%rax, %rdi
 5993 29b7 E8000000 		call	__cxa_begin_catch@PLT
 5993      00
 5994 29bc 48898518 		movq	%rax, -488(%rbp)
 5994      FEFFFF
 5995              	.LEHB138:
 5996 29c3 E8000000 		call	_ZN8UnitTest11CurrentTest7ResultsEv@PLT
 5996      00
 5997 29c8 488B18   		movq	(%rax), %rbx
 5998 29cb 488B8518 		movq	-488(%rbp), %rax
 5998      FEFFFF
 5999 29d2 488B00   		movq	(%rax), %rax
 6000 29d5 4883C010 		addq	$16, %rax
 6001 29d9 488B00   		movq	(%rax), %rax
 6002 29dc 488B9518 		movq	-488(%rbp), %rdx
 6002      FEFFFF
 6003 29e3 4889D7   		movq	%rdx, %rdi
 6004 29e6 FFD0     		call	*%rax
 6005              	.LVL12:
 6006 29e8 4989C4   		movq	%rax, %r12
 6007 29eb 488B8518 		movq	-488(%rbp), %rax
 6007      FEFFFF
 6008 29f2 4889C7   		movq	%rax, %rdi
 6009 29f5 E8000000 		call	_ZNK8UnitTest15AssertException10LineNumberEv@PLT
 6009      00
 6010              		.loc 6 169 0 discriminator 3
 6011 29fa 4189C5   		movl	%eax, %r13d
 6012 29fd 488B8518 		movq	-488(%rbp), %rax
 6012      FEFFFF
 6013 2a04 4889C7   		movq	%rax, %rdi
 6014 2a07 E8000000 		call	_ZNK8UnitTest15AssertException8FilenameEv@PLT
 6014      00
 6015              		.loc 6 169 0 discriminator 5
 6016 2a0c 4889C1   		movq	%rax, %rcx
 6017 2a0f 488B85F8 		movq	-520(%rbp), %rax
 6017      FDFFFF
 6018 2a16 488B5008 		movq	8(%rax), %rdx
 6019 2a1a 488B85F8 		movq	-520(%rbp), %rax
 6019      FDFFFF
 6020 2a21 488B7010 		movq	16(%rax), %rsi
 6021 2a25 488D8520 		leaq	-480(%rbp), %rax
 6021      FEFFFF
 6022 2a2c 4589E8   		movl	%r13d, %r8d
 6023 2a2f 4889C7   		movq	%rax, %rdi
 6024 2a32 E8000000 		call	_ZN8UnitTest11TestDetailsC1EPKcS2_S2_i@PLT
 6024      00
 6025              		.loc 6 169 0 discriminator 9
 6026 2a37 488D8520 		leaq	-480(%rbp), %rax
 6026      FEFFFF
 6027 2a3e 4C89E2   		movq	%r12, %rdx
 6028 2a41 4889C6   		movq	%rax, %rsi
 6029 2a44 4889DF   		movq	%rbx, %rdi
 6030 2a47 E8000000 		call	_ZN8UnitTest11TestResults13OnTestFailureERKNS_11TestDetailsEPKc@PLT
 6030      00
 6031              	.LEHE138:
 6032              		.loc 6 169 0 discriminator 11
 6033 2a4c E8000000 		call	__cxa_end_catch@PLT
 6033      00
 6034              	.LBE87:
 6035 2a51 E9950100 		jmp	.L298
 6035      00
 6036              	.L302:
 6037              	.LBB88:
 6038              		.loc 6 169 0
 6039 2a56 4889C7   		movq	%rax, %rdi
 6040 2a59 E8000000 		call	__cxa_begin_catch@PLT
 6040      00
 6041 2a5e 48898510 		movq	%rax, -496(%rbp)
 6041      FEFFFF
 6042              	.LBB89:
 6043 2a65 488D8540 		leaq	-448(%rbp), %rax
 6043      FEFFFF
 6044 2a6c 4889C7   		movq	%rax, %rdi
 6045              	.LEHB139:
 6046 2a6f E8000000 		call	_ZN8UnitTest15MemoryOutStreamC1Ev
 6046      00
 6047              	.LEHE139:
 6048              		.loc 6 169 0 discriminator 13
 6049 2a74 488D8540 		leaq	-448(%rbp), %rax
 6049      FEFFFF
 6050 2a7b 488D3500 		leaq	.LC11(%rip), %rsi
 6050      000000
 6051 2a82 4889C7   		movq	%rax, %rdi
 6052              	.LEHB140:
 6053 2a85 E8000000 		call	_ZStlsISt11char_traitsIcEERSt13basic_ostreamIcT_ES5_PKc@PLT
 6053      00
 6054 2a8a 4889C3   		movq	%rax, %rbx
 6055 2a8d 488B8510 		movq	-496(%rbp), %rax
 6055      FEFFFF
 6056 2a94 488B00   		movq	(%rax), %rax
 6057 2a97 4883C010 		addq	$16, %rax
 6058 2a9b 488B00   		movq	(%rax), %rax
 6059 2a9e 488B9510 		movq	-496(%rbp), %rdx
 6059      FEFFFF
 6060 2aa5 4889D7   		movq	%rdx, %rdi
 6061 2aa8 FFD0     		call	*%rax
 6062              	.LVL13:
 6063 2aaa 4889C6   		movq	%rax, %rsi
 6064 2aad 4889DF   		movq	%rbx, %rdi
 6065 2ab0 E8000000 		call	_ZStlsISt11char_traitsIcEERSt13basic_ostreamIcT_ES5_PKc@PLT
 6065      00
 6066              		.loc 6 169 0 discriminator 17
 6067 2ab5 E8000000 		call	_ZN8UnitTest11CurrentTest7ResultsEv@PLT
 6067      00
 6068 2aba 488B18   		movq	(%rax), %rbx
 6069 2abd 488D8540 		leaq	-448(%rbp), %rax
 6069      FEFFFF
 6070 2ac4 4889C7   		movq	%rax, %rdi
 6071 2ac7 E8000000 		call	_ZNK8UnitTest15MemoryOutStream7GetTextEv@PLT
 6071      00
 6072              		.loc 6 169 0 discriminator 19
 6073 2acc 4889C2   		movq	%rax, %rdx
 6074 2acf 488B85F8 		movq	-520(%rbp), %rax
 6074      FDFFFF
 6075 2ad6 4883C008 		addq	$8, %rax
 6076 2ada 4889C6   		movq	%rax, %rsi
 6077 2add 4889DF   		movq	%rbx, %rdi
 6078 2ae0 E8000000 		call	_ZN8UnitTest11TestResults13OnTestFailureERKNS_11TestDetailsEPKc@PLT
 6078      00
 6079              	.LEHE140:
 6080              		.loc 6 169 0 discriminator 23
 6081 2ae5 488D8540 		leaq	-448(%rbp), %rax
 6081      FEFFFF
 6082 2aec 4889C7   		movq	%rax, %rdi
 6083              	.LEHB141:
 6084 2aef E8000000 		call	_ZN8UnitTest15MemoryOutStreamD1Ev
 6084      00
 6085              	.LEHE141:
 6086              	.LBE89:
 6087              		.loc 6 169 0 discriminator 24
 6088 2af4 E8000000 		call	__cxa_end_catch@PLT
 6088      00
 6089              	.LBE88:
 6090 2af9 E9ED0000 		jmp	.L298
 6090      00
 6091              	.L316:
 6092              		.loc 6 169 0
 6093 2afe 4889C7   		movq	%rax, %rdi
 6094 2b01 E8000000 		call	__cxa_begin_catch@PLT
 6094      00
 6095 2b06 80BD0FFE 		cmpb	$0, -497(%rbp)
 6095      FFFF00
 6096 2b0d 7445     		je	.L304
 6097              	.LEHB142:
 6098              		.loc 6 169 0 discriminator 26
 6099 2b0f E8000000 		call	_ZN8UnitTest11CurrentTest7ResultsEv@PLT
 6099      00
 6100 2b14 488B18   		movq	(%rax), %rbx
 6101 2b17 488B85F8 		movq	-520(%rbp), %rax
 6101      FDFFFF
 6102 2b1e 488D4808 		leaq	8(%rax), %rcx
 6103 2b22 488D8520 		leaq	-480(%rbp), %rax
 6103      FEFFFF
 6104 2b29 BAA90000 		movl	$169, %edx
 6104      00
 6105 2b2e 4889CE   		movq	%rcx, %rsi
 6106 2b31 4889C7   		movq	%rax, %rdi
 6107 2b34 E8000000 		call	_ZN8UnitTest11TestDetailsC1ERKS0_i@PLT
 6107      00
 6108              		.loc 6 169 0 discriminator 31
 6109 2b39 488D8520 		leaq	-480(%rbp), %rax
 6109      FEFFFF
 6110 2b40 488D1500 		leaq	.LC65(%rip), %rdx
 6110      000000
 6111 2b47 4889C6   		movq	%rax, %rsi
 6112 2b4a 4889DF   		movq	%rbx, %rdi
 6113 2b4d E8000000 		call	_ZN8UnitTest11TestResults13OnTestFailureERKNS_11TestDetailsEPKc@PLT
 6113      00
 6114 2b52 EB43     		jmp	.L305
 6115              	.L304:
 6116              		.loc 6 169 0 discriminator 27
 6117 2b54 E8000000 		call	_ZN8UnitTest11CurrentTest7ResultsEv@PLT
 6117      00
 6118 2b59 488B18   		movq	(%rax), %rbx
 6119 2b5c 488B85F8 		movq	-520(%rbp), %rax
 6119      FDFFFF
 6120 2b63 488D4808 		leaq	8(%rax), %rcx
 6121 2b67 488D8520 		leaq	-480(%rbp), %rax
 6121      FEFFFF
 6122 2b6e BAA90000 		movl	$169, %edx
 6122      00
 6123 2b73 4889CE   		movq	%rcx, %rsi
 6124 2b76 4889C7   		movq	%rax, %rdi
 6125 2b79 E8000000 		call	_ZN8UnitTest11TestDetailsC1ERKS0_i@PLT
 6125      00
 6126              		.loc 6 169 0 discriminator 38
 6127 2b7e 488D8520 		leaq	-480(%rbp), %rax
 6127      FEFFFF
 6128 2b85 488D1500 		leaq	.LC66(%rip), %rdx
 6128      000000
 6129 2b8c 4889C6   		movq	%rax, %rsi
 6130 2b8f 4889DF   		movq	%rbx, %rdi
 6131 2b92 E8000000 		call	_ZN8UnitTest11TestResults13OnTestFailureERKNS_11TestDetailsEPKc@PLT
 6131      00
 6132              	.LEHE142:
 6133              	.L305:
 6134              	.LEHB143:
 6135              		.loc 6 169 0 discriminator 41
 6136 2b97 E8000000 		call	__cxa_end_catch@PLT
 6136      00
 6137 2b9c EB4D     		jmp	.L298
 6138              	.L312:
 6139 2b9e 4889C3   		movq	%rax, %rbx
 6140              	.LBB91:
 6141              		.loc 6 169 0
 6142 2ba1 E8000000 		call	__cxa_end_catch@PLT
 6142      00
 6143 2ba6 4889D8   		movq	%rbx, %rax
 6144 2ba9 4889C7   		movq	%rax, %rdi
 6145 2bac E8000000 		call	_Unwind_Resume@PLT
 6145      00
 6146              	.LEHE143:
 6147              	.L314:
 6148 2bb1 4889C3   		movq	%rax, %rbx
 6149              	.LBE91:
 6150              	.LBB92:
 6151              	.LBB90:
 6152 2bb4 488D8540 		leaq	-448(%rbp), %rax
 6152      FEFFFF
 6153 2bbb 4889C7   		movq	%rax, %rdi
 6154 2bbe E8000000 		call	_ZN8UnitTest15MemoryOutStreamD1Ev
 6154      00
 6155 2bc3 EB03     		jmp	.L308
 6156              	.L313:
 6157 2bc5 4889C3   		movq	%rax, %rbx
 6158              	.L308:
 6159              	.LBE90:
 6160 2bc8 E8000000 		call	__cxa_end_catch@PLT
 6160      00
 6161 2bcd 4889D8   		movq	%rbx, %rax
 6162 2bd0 4889C7   		movq	%rax, %rdi
 6163              	.LEHB144:
 6164 2bd3 E8000000 		call	_Unwind_Resume@PLT
 6164      00
 6165              	.LEHE144:
 6166              	.L315:
 6167 2bd8 4889C3   		movq	%rax, %rbx
 6168              	.LBE92:
 6169 2bdb E8000000 		call	__cxa_end_catch@PLT
 6169      00
 6170 2be0 4889D8   		movq	%rbx, %rax
 6171 2be3 4889C7   		movq	%rax, %rdi
 6172              	.LEHB145:
 6173 2be6 E8000000 		call	_Unwind_Resume@PLT
 6173      00
 6174              	.LEHE145:
 6175              	.L298:
 6176 2beb 488B45D8 		movq	-40(%rbp), %rax
 6177 2bef 64483304 		xorq	%fs:40, %rax
 6177      25280000 
 6177      00
 6178 2bf8 7405     		je	.L310
 6179 2bfa E8000000 		call	__stack_chk_fail@PLT
 6179      00
 6180              	.L310:
 6181 2bff 4881C4F8 		addq	$504, %rsp
 6181      010000
 6182 2c06 5B       		popq	%rbx
 6183 2c07 415C     		popq	%r12
 6184 2c09 415D     		popq	%r13
 6185 2c0b 5D       		popq	%rbp
 6186              		.cfi_def_cfa 7, 8
 6187 2c0c C3       		ret
 6188              		.cfi_endproc
 6189              	.LFE1218:
 6190              		.section	.gcc_except_table
 6191              		.align 4
 6192              	.LLSDA1218:
 6193 03cc FF       		.byte	0xff
 6194 03cd 9B       		.byte	0x9b
 6195 03ce 49       		.uleb128 .LLSDATT1218-.LLSDATTD1218
 6196              	.LLSDATTD1218:
 6197 03cf 01       		.byte	0x1
 6198 03d0 33       		.uleb128 .LLSDACSE1218-.LLSDACSB1218
 6199              	.LLSDACSB1218:
 6200 03d1 45       		.uleb128 .LEHB137-.LFB1218
 6201 03d2 29       		.uleb128 .LEHE137-.LEHB137
 6202 03d3 73       		.uleb128 .L311-.LFB1218
 6203 03d4 05       		.uleb128 0x5
 6204 03d5 9701     		.uleb128 .LEHB138-.LFB1218
 6205 03d7 8901     		.uleb128 .LEHE138-.LEHB138
 6206 03d9 F204     		.uleb128 .L312-.LFB1218
 6207 03db 00       		.uleb128 0
 6208 03dc C302     		.uleb128 .LEHB139-.LFB1218
 6209 03de 05       		.uleb128 .LEHE139-.LEHB139
 6210 03df 9905     		.uleb128 .L313-.LFB1218
 6211 03e1 00       		.uleb128 0
 6212 03e2 D902     		.uleb128 .LEHB140-.LFB1218
 6213 03e4 60       		.uleb128 .LEHE140-.LEHB140
 6214 03e5 8505     		.uleb128 .L314-.LFB1218
 6215 03e7 00       		.uleb128 0
 6216 03e8 C303     		.uleb128 .LEHB141-.LFB1218
 6217 03ea 05       		.uleb128 .LEHE141-.LEHB141
 6218 03eb 9905     		.uleb128 .L313-.LFB1218
 6219 03ed 00       		.uleb128 0
 6220 03ee E303     		.uleb128 .LEHB142-.LFB1218
 6221 03f0 8801     		.uleb128 .LEHE142-.LEHB142
 6222 03f2 AC05     		.uleb128 .L315-.LFB1218
 6223 03f4 00       		.uleb128 0
 6224 03f5 EB04     		.uleb128 .LEHB143-.LFB1218
 6225 03f7 1A       		.uleb128 .LEHE143-.LEHB143
 6226 03f8 00       		.uleb128 0
 6227 03f9 00       		.uleb128 0
 6228 03fa A705     		.uleb128 .LEHB144-.LFB1218
 6229 03fc 05       		.uleb128 .LEHE144-.LEHB144
 6230 03fd 00       		.uleb128 0
 6231 03fe 00       		.uleb128 0
 6232 03ff BA05     		.uleb128 .LEHB145-.LFB1218
 6233 0401 05       		.uleb128 .LEHE145-.LEHB145
 6234 0402 00       		.uleb128 0
 6235 0403 00       		.uleb128 0
 6236              	.LLSDACSE1218:
 6237 0404 03       		.byte	0x3
 6238 0405 00       		.byte	0
 6239 0406 02       		.byte	0x2
 6240 0407 7D       		.byte	0x7d
 6241 0408 01       		.byte	0x1
 6242 0409 7D       		.byte	0x7d
 6243 040a 0000     		.align 4
 6244 040c 00000000 		.long	0
 6245              	
 6246 0410 00000000 		.long	DW.ref._ZTISt9exception-.
 6247 0414 00000000 		.long	DW.ref._ZTIN8UnitTest15AssertExceptionE-.
 6248              	.LLSDATT1218:
 6249              		.text
 6251 2c0d 90       		.align 2
 6253              	_ZN12_GLOBAL__N_159FixtureCtorAssertsCorrectlyReportsAssertFailureInCtorHelper7RunImplEv:
 6254              	.LFB1219:
 170:TestTestMacros.cpp **** {
 6255              		.loc 6 170 0 is_stmt 1
 6256              		.cfi_startproc
 6257 2c0e 55       		pushq	%rbp
 6258              		.cfi_def_cfa_offset 16
 6259              		.cfi_offset 6, -16
 6260 2c0f 4889E5   		movq	%rsp, %rbp
 6261              		.cfi_def_cfa_register 6
 6262 2c12 48897DF8 		movq	%rdi, -8(%rbp)
 171:TestTestMacros.cpp **** }
 6263              		.loc 6 171 0
 6264 2c16 90       		nop
 6265 2c17 5D       		popq	%rbp
 6266              		.cfi_def_cfa 7, 8
 6267 2c18 C3       		ret
 6268              		.cfi_endproc
 6269              	.LFE1219:
 6271              		.section	.rodata
 6272 0c8a 00000000 		.align 8
 6272      0000
 6273              	.LC67:
 6274 0c90 436F7272 		.string	"CorrectlyReportsFixturesWithCtorsThatAssert"
 6274      6563746C 
 6274      79526570 
 6274      6F727473 
 6274      46697874 
 6275              		.text
 6276 2c19 90       		.align 2
 6278              	_ZN12_GLOBAL__N_147TestCorrectlyReportsFixturesWithCtorsThatAssertC2Ev:
 6279              	.LFB1221:
 172:TestTestMacros.cpp **** 
 173:TestTestMacros.cpp **** TEST(CorrectlyReportsFixturesWithCtorsThatAssert)
 6280              		.loc 6 173 0
 6281              		.cfi_startproc
 6282 2c1a 55       		pushq	%rbp
 6283              		.cfi_def_cfa_offset 16
 6284              		.cfi_offset 6, -16
 6285 2c1b 4889E5   		movq	%rsp, %rbp
 6286              		.cfi_def_cfa_register 6
 6287 2c1e 53       		pushq	%rbx
 6288 2c1f 4883EC18 		subq	$24, %rsp
 6289              		.cfi_offset 3, -24
 6290 2c23 48897DE8 		movq	%rdi, -24(%rbp)
 6291              	.LBB93:
 6292              		.loc 6 173 0
 6293 2c27 488B5DE8 		movq	-24(%rbp), %rbx
 6294 2c2b E8000000 		call	_ZN13UnitTestSuite12GetSuiteNameEv
 6294      00
 6295 2c30 41B8AD00 		movl	$173, %r8d
 6295      0000
 6296 2c36 488D0D00 		leaq	.LC2(%rip), %rcx
 6296      000000
 6297 2c3d 4889C2   		movq	%rax, %rdx
 6298 2c40 488D3500 		leaq	.LC67(%rip), %rsi
 6298      000000
 6299 2c47 4889DF   		movq	%rbx, %rdi
 6300 2c4a E8000000 		call	_ZN8UnitTest4TestC2EPKcS2_S2_i@PLT
 6300      00
 6301 2c4f 488D1500 		leaq	16+_ZTVN12_GLOBAL__N_147TestCorrectlyReportsFixturesWithCtorsThatAssertE(%rip), %rdx
 6301      000000
 6302 2c56 488B45E8 		movq	-24(%rbp), %rax
 6303 2c5a 488910   		movq	%rdx, (%rax)
 6304              	.LBE93:
 6305 2c5d 90       		nop
 6306 2c5e 4883C418 		addq	$24, %rsp
 6307 2c62 5B       		popq	%rbx
 6308 2c63 5D       		popq	%rbp
 6309              		.cfi_def_cfa 7, 8
 6310 2c64 C3       		ret
 6311              		.cfi_endproc
 6312              	.LFE1221:
 6314              		.set	_ZN12_GLOBAL__N_147TestCorrectlyReportsFixturesWithCtorsThatAssertC1Ev,_ZN12_GLOBAL__N_147Tes
 6315              		.local	_ZN12_GLOBAL__N_155testCorrectlyReportsFixturesWithCtorsThatAssertInstanceE
 6316              		.comm	_ZN12_GLOBAL__N_155testCorrectlyReportsFixturesWithCtorsThatAssertInstanceE,56,32
 6317              		.local	_ZN12_GLOBAL__N_148adderCorrectlyReportsFixturesWithCtorsThatAssertE
 6318              		.comm	_ZN12_GLOBAL__N_148adderCorrectlyReportsFixturesWithCtorsThatAssertE,1,1
 6319              		.section	.rodata
 6320 0cbc 00000000 		.align 8
 6321              	.LC68:
 6322 0cc0 73747273 		.string	"strstr(reporter.lastFailedMessage, \"assert failure\")"
 6322      74722872 
 6322      65706F72 
 6322      7465722E 
 6322      6C617374 
 6323 0cf5 000000   		.align 8
 6324              	.LC69:
 6325 0cf8 556E6861 		.string	"Unhandled exception in CHECK_EQUAL(FailingLine, reporter.lastFailedLine)"
 6325      6E646C65 
 6325      64206578 
 6325      63657074 
 6325      696F6E20 
 6326 0d41 00000000 		.align 8
 6326      000000
 6327              	.LC70:
 6328 0d48 556E6861 		.string	"Unhandled exception in CHECK(strstr(reporter.lastFailedMessage, \"assert failure\"))"
 6328      6E646C65 
 6328      64206578 
 6328      63657074 
 6328      696F6E20 
 6329              		.text
 6330 2c65 90       		.align 2
 6332              	_ZNK12_GLOBAL__N_147TestCorrectlyReportsFixturesWithCtorsThatAssert7RunImplEv:
 6333              	.LFB1223:
 174:TestTestMacros.cpp **** {
 6334              		.loc 6 174 0
 6335              		.cfi_startproc
 6336              		.cfi_personality 0x9b,DW.ref.__gxx_personality_v0
 6337              		.cfi_lsda 0x1b,.LLSDA1223
 6338 2c66 55       		pushq	%rbp
 6339              		.cfi_def_cfa_offset 16
 6340              		.cfi_offset 6, -16
 6341 2c67 4889E5   		movq	%rsp, %rbp
 6342              		.cfi_def_cfa_register 6
 6343 2c6a 53       		pushq	%rbx
 6344 2c6b 4881ECA8 		subq	$2216, %rsp
 6344      080000
 6345              		.cfi_offset 3, -24
 6346 2c72 4889BD58 		movq	%rdi, -2216(%rbp)
 6346      F7FFFF
 6347              		.loc 6 174 0
 6348 2c79 64488B04 		movq	%fs:40, %rax
 6348      25280000 
 6348      00
 6349 2c82 488945E8 		movq	%rax, -24(%rbp)
 6350 2c86 31C0     		xorl	%eax, %eax
 175:TestTestMacros.cpp **** 	RecordingReporter reporter;
 6351              		.loc 6 175 0
 6352 2c88 488D85B0 		leaq	-2128(%rbp), %rax
 6352      F7FFFF
 6353 2c8f 4889C7   		movq	%rax, %rdi
 6354 2c92 E8000000 		call	_ZN17RecordingReporterC1Ev
 6354      00
 176:TestTestMacros.cpp **** 	TestResults result(&reporter);
 6355              		.loc 6 176 0
 6356 2c97 488D95B0 		leaq	-2128(%rbp), %rdx
 6356      F7FFFF
 6357 2c9e 488D8570 		leaq	-2192(%rbp), %rax
 6357      F7FFFF
 6358 2ca5 4889D6   		movq	%rdx, %rsi
 6359 2ca8 4889C7   		movq	%rax, %rdi
 6360              	.LEHB146:
 6361 2cab E8000000 		call	_ZN8UnitTest11TestResultsC1EPNS_12TestReporterE@PLT
 6361      00
 6362              	.LBB94:
 177:TestTestMacros.cpp **** 	{
 178:TestTestMacros.cpp **** 		ScopedCurrentTest scopedResults(result);
 6363              		.loc 6 178 0
 6364 2cb0 488D8D70 		leaq	-2192(%rbp), %rcx
 6364      F7FFFF
 6365 2cb7 488D8590 		leaq	-2160(%rbp), %rax
 6365      F7FFFF
 6366 2cbe BA000000 		movl	$0, %edx
 6366      00
 6367 2cc3 4889CE   		movq	%rcx, %rsi
 6368 2cc6 4889C7   		movq	%rax, %rdi
 6369 2cc9 E8000000 		call	_ZN17ScopedCurrentTestC1ERN8UnitTest11TestResultsEPKNS0_11TestDetailsE
 6369      00
 6370              	.LEHE146:
 179:TestTestMacros.cpp **** 		ctorAssertFixtureTestList.GetHead()->Run();
 6371              		.loc 6 179 0
 6372 2cce 488D3D00 		leaq	_ZN12_GLOBAL__N_125ctorAssertFixtureTestListE(%rip), %rdi
 6372      000000
 6373              	.LEHB147:
 6374 2cd5 E8000000 		call	_ZNK8UnitTest8TestList7GetHeadEv@PLT
 6374      00
 6375 2cda 4889C7   		movq	%rax, %rdi
 6376 2cdd E8000000 		call	_ZN8UnitTest4Test3RunEv@PLT
 6376      00
 6377              	.LEHE147:
 178:TestTestMacros.cpp **** 		ctorAssertFixtureTestList.GetHead()->Run();
 6378              		.loc 6 178 0
 6379 2ce2 488D8590 		leaq	-2160(%rbp), %rax
 6379      F7FFFF
 6380 2ce9 4889C7   		movq	%rax, %rdi
 6381              	.LEHB148:
 6382 2cec E8000000 		call	_ZN17ScopedCurrentTestD1Ev
 6382      00
 6383              	.LBE94:
 180:TestTestMacros.cpp **** 	}
 181:TestTestMacros.cpp **** 
 182:TestTestMacros.cpp **** 	const int failureCount = result.GetFailedTestCount();
 6384              		.loc 6 182 0
 6385 2cf1 488D8570 		leaq	-2192(%rbp), %rax
 6385      F7FFFF
 6386 2cf8 4889C7   		movq	%rax, %rdi
 6387 2cfb E8000000 		call	_ZNK8UnitTest11TestResults18GetFailedTestCountEv@PLT
 6387      00
 6388              	.LEHE148:
 6389 2d00 898568F7 		movl	%eax, -2200(%rbp)
 6389      FFFF
 6390              	.LEHB149:
 183:TestTestMacros.cpp **** 	CHECK_EQUAL(1, failureCount);
 6391              		.loc 6 183 0
 6392 2d06 E8000000 		call	_ZN8UnitTest11CurrentTest7DetailsEv@PLT
 6392      00
 6393              		.loc 6 183 0 is_stmt 0 discriminator 1
 6394 2d0b 488B08   		movq	(%rax), %rcx
 6395 2d0e 488D8590 		leaq	-2160(%rbp), %rax
 6395      F7FFFF
 6396 2d15 BAB70000 		movl	$183, %edx
 6396      00
 6397 2d1a 4889CE   		movq	%rcx, %rsi
 6398 2d1d 4889C7   		movq	%rax, %rdi
 6399 2d20 E8000000 		call	_ZN8UnitTest11TestDetailsC1ERKS0_i@PLT
 6399      00
 6400              	.LEHE149:
 6401              		.loc 6 183 0 discriminator 2
 6402 2d25 C7856CF7 		movl	$1, -2196(%rbp)
 6402      FFFF0100 
 6402      0000
 6403              	.LEHB150:
 6404 2d2f E8000000 		call	_ZN8UnitTest11CurrentTest7ResultsEv@PLT
 6404      00
 6405 2d34 488B00   		movq	(%rax), %rax
 6406 2d37 488D8D90 		leaq	-2160(%rbp), %rcx
 6406      F7FFFF
 6407 2d3e 488D9568 		leaq	-2200(%rbp), %rdx
 6407      F7FFFF
 6408 2d45 488DB56C 		leaq	-2196(%rbp), %rsi
 6408      F7FFFF
 6409 2d4c 4889C7   		movq	%rax, %rdi
 6410 2d4f E8000000 		call	_ZN8UnitTest10CheckEqualIiiEEvRNS_11TestResultsERKT_RKT0_RKNS_11TestDetailsE
 6410      00
 6411              	.LEHE150:
 6412              	.L325:
 6413              	.LEHB151:
 184:TestTestMacros.cpp **** 	CHECK_EQUAL(FailingLine, reporter.lastFailedLine);
 6414              		.loc 6 184 0 is_stmt 1
 6415 2d54 E8000000 		call	_ZN8UnitTest11CurrentTest7DetailsEv@PLT
 6415      00
 6416 2d59 488B08   		movq	(%rax), %rcx
 6417 2d5c 488D8590 		leaq	-2160(%rbp), %rax
 6417      F7FFFF
 6418 2d63 BAB80000 		movl	$184, %edx
 6418      00
 6419 2d68 4889CE   		movq	%rcx, %rsi
 6420 2d6b 4889C7   		movq	%rax, %rdi
 6421 2d6e E8000000 		call	_ZN8UnitTest11TestDetailsC1ERKS0_i@PLT
 6421      00
 6422              		.loc 6 184 0 is_stmt 0 discriminator 2
 6423 2d73 E8000000 		call	_ZN8UnitTest11CurrentTest7ResultsEv@PLT
 6423      00
 6424 2d78 488B00   		movq	(%rax), %rax
 6425 2d7b 488D9590 		leaq	-2160(%rbp), %rdx
 6425      F7FFFF
 6426 2d82 488D8DB0 		leaq	-2128(%rbp), %rcx
 6426      F7FFFF
 6427 2d89 488DB110 		leaq	784(%rcx), %rsi
 6427      030000
 6428 2d90 4889D1   		movq	%rdx, %rcx
 6429 2d93 4889F2   		movq	%rsi, %rdx
 6430 2d96 488D3500 		leaq	_ZN12_GLOBAL__N_1L11FailingLineE(%rip), %rsi
 6430      000000
 6431 2d9d 4889C7   		movq	%rax, %rdi
 6432 2da0 E8000000 		call	_ZN8UnitTest10CheckEqualIiiEEvRNS_11TestResultsERKT_RKT0_RKNS_11TestDetailsE
 6432      00
 6433              	.LEHE151:
 6434              	.L328:
 185:TestTestMacros.cpp **** 	CHECK(strstr(reporter.lastFailedMessage, "assert failure"));
 6435              		.loc 6 185 0 is_stmt 1
 6436 2da5 488D85B0 		leaq	-2128(%rbp), %rax
 6436      F7FFFF
 6437 2dac 48051405 		addq	$1300, %rax
 6437      0000
 6438 2db2 488D3500 		leaq	.LC63(%rip), %rsi
 6438      000000
 6439 2db9 4889C7   		movq	%rax, %rdi
 6440 2dbc E8000000 		call	strstr@PLT
 6440      00
 6441 2dc1 4889C7   		movq	%rax, %rdi
 6442 2dc4 E8000000 		call	_ZN8UnitTest5CheckIPcEEbT_
 6442      00
 6443 2dc9 83F001   		xorl	$1, %eax
 6444 2dcc 84C0     		testb	%al, %al
 6445 2dce 7440     		je	.L320
 6446              	.LEHB152:
 6447              		.loc 6 185 0 is_stmt 0 discriminator 1
 6448 2dd0 E8000000 		call	_ZN8UnitTest11CurrentTest7ResultsEv@PLT
 6448      00
 6449 2dd5 488B18   		movq	(%rax), %rbx
 6450 2dd8 E8000000 		call	_ZN8UnitTest11CurrentTest7DetailsEv@PLT
 6450      00
 6451              		.loc 6 185 0 discriminator 2
 6452 2ddd 488B08   		movq	(%rax), %rcx
 6453 2de0 488D8590 		leaq	-2160(%rbp), %rax
 6453      F7FFFF
 6454 2de7 BAB90000 		movl	$185, %edx
 6454      00
 6455 2dec 4889CE   		movq	%rcx, %rsi
 6456 2def 4889C7   		movq	%rax, %rdi
 6457 2df2 E8000000 		call	_ZN8UnitTest11TestDetailsC1ERKS0_i@PLT
 6457      00
 6458              		.loc 6 185 0 discriminator 4
 6459 2df7 488D8590 		leaq	-2160(%rbp), %rax
 6459      F7FFFF
 6460 2dfe 488D1500 		leaq	.LC68(%rip), %rdx
 6460      000000
 6461 2e05 4889C6   		movq	%rax, %rsi
 6462 2e08 4889DF   		movq	%rbx, %rdi
 6463 2e0b E8000000 		call	_ZN8UnitTest11TestResults13OnTestFailureERKNS_11TestDetailsEPKc@PLT
 6463      00
 6464              	.LEHE152:
 6465              	.L320:
 175:TestTestMacros.cpp **** 	TestResults result(&reporter);
 6466              		.loc 6 175 0 is_stmt 1
 6467 2e10 488D85B0 		leaq	-2128(%rbp), %rax
 6467      F7FFFF
 6468 2e17 4889C7   		movq	%rax, %rdi
 6469              	.LEHB153:
 6470 2e1a E8000000 		call	_ZN17RecordingReporterD1Ev
 6470      00
 6471              	.LEHE153:
 186:TestTestMacros.cpp **** }
 6472              		.loc 6 186 0
 6473 2e1f 90       		nop
 6474 2e20 488B45E8 		movq	-24(%rbp), %rax
 6475 2e24 64483304 		xorq	%fs:40, %rax
 6475      25280000 
 6475      00
 6476 2e2d 0F845701 		je	.L332
 6476      0000
 6477 2e33 E94D0100 		jmp	.L342
 6477      00
 6478              	.L334:
 6479 2e38 4889C3   		movq	%rax, %rbx
 6480              	.LBB95:
 178:TestTestMacros.cpp **** 		ctorAssertFixtureTestList.GetHead()->Run();
 6481              		.loc 6 178 0
 6482 2e3b 488D8590 		leaq	-2160(%rbp), %rax
 6482      F7FFFF
 6483 2e42 4889C7   		movq	%rax, %rdi
 6484 2e45 E8000000 		call	_ZN17ScopedCurrentTestD1Ev
 6484      00
 6485 2e4a E91C0100 		jmp	.L322
 6485      00
 6486              	.L336:
 6487 2e4f EB00     		jmp	.L324
 6488              	.L335:
 6489              	.L324:
 6490              	.LBE95:
 183:TestTestMacros.cpp **** 	CHECK_EQUAL(FailingLine, reporter.lastFailedLine);
 6491              		.loc 6 183 0
 6492 2e51 4889C7   		movq	%rax, %rdi
 6493 2e54 E8000000 		call	__cxa_begin_catch@PLT
 6493      00
 6494              	.LEHB154:
 6495 2e59 E8000000 		call	_ZN8UnitTest11CurrentTest7ResultsEv@PLT
 6495      00
 6496 2e5e 488B18   		movq	(%rax), %rbx
 6497 2e61 E8000000 		call	_ZN8UnitTest11CurrentTest7DetailsEv@PLT
 6497      00
 183:TestTestMacros.cpp **** 	CHECK_EQUAL(FailingLine, reporter.lastFailedLine);
 6498              		.loc 6 183 0 is_stmt 0 discriminator 8
 6499 2e66 488B08   		movq	(%rax), %rcx
 6500 2e69 488D8590 		leaq	-2160(%rbp), %rax
 6500      F7FFFF
 6501 2e70 BAB70000 		movl	$183, %edx
 6501      00
 6502 2e75 4889CE   		movq	%rcx, %rsi
 6503 2e78 4889C7   		movq	%rax, %rdi
 6504 2e7b E8000000 		call	_ZN8UnitTest11TestDetailsC1ERKS0_i@PLT
 6504      00
 183:TestTestMacros.cpp **** 	CHECK_EQUAL(FailingLine, reporter.lastFailedLine);
 6505              		.loc 6 183 0 discriminator 12
 6506 2e80 488D8590 		leaq	-2160(%rbp), %rax
 6506      F7FFFF
 6507 2e87 488D1500 		leaq	.LC51(%rip), %rdx
 6507      000000
 6508 2e8e 4889C6   		movq	%rax, %rsi
 6509 2e91 4889DF   		movq	%rbx, %rdi
 6510 2e94 E8000000 		call	_ZN8UnitTest11TestResults13OnTestFailureERKNS_11TestDetailsEPKc@PLT
 6510      00
 6511              	.LEHE154:
 6512              	.LEHB155:
 183:TestTestMacros.cpp **** 	CHECK_EQUAL(FailingLine, reporter.lastFailedLine);
 6513              		.loc 6 183 0 discriminator 14
 6514 2e99 E8000000 		call	__cxa_end_catch@PLT
 6514      00
 6515              	.LEHE155:
 183:TestTestMacros.cpp **** 	CHECK_EQUAL(FailingLine, reporter.lastFailedLine);
 6516              		.loc 6 183 0
 6517 2e9e E9B1FEFF 		jmp	.L325
 6517      FF
 6518              	.L337:
 6519 2ea3 4889C3   		movq	%rax, %rbx
 6520 2ea6 E8000000 		call	__cxa_end_catch@PLT
 6520      00
 6521 2eab E9BB0000 		jmp	.L322
 6521      00
 6522              	.L338:
 184:TestTestMacros.cpp **** 	CHECK(strstr(reporter.lastFailedMessage, "assert failure"));
 6523              		.loc 6 184 0 is_stmt 1
 6524 2eb0 4889C7   		movq	%rax, %rdi
 6525 2eb3 E8000000 		call	__cxa_begin_catch@PLT
 6525      00
 6526              	.LEHB156:
 6527 2eb8 E8000000 		call	_ZN8UnitTest11CurrentTest7ResultsEv@PLT
 6527      00
 6528 2ebd 488B18   		movq	(%rax), %rbx
 6529 2ec0 E8000000 		call	_ZN8UnitTest11CurrentTest7DetailsEv@PLT
 6529      00
 184:TestTestMacros.cpp **** 	CHECK(strstr(reporter.lastFailedMessage, "assert failure"));
 6530              		.loc 6 184 0 is_stmt 0 discriminator 8
 6531 2ec5 488B08   		movq	(%rax), %rcx
 6532 2ec8 488D8590 		leaq	-2160(%rbp), %rax
 6532      F7FFFF
 6533 2ecf BAB80000 		movl	$184, %edx
 6533      00
 6534 2ed4 4889CE   		movq	%rcx, %rsi
 6535 2ed7 4889C7   		movq	%rax, %rdi
 6536 2eda E8000000 		call	_ZN8UnitTest11TestDetailsC1ERKS0_i@PLT
 6536      00
 184:TestTestMacros.cpp **** 	CHECK(strstr(reporter.lastFailedMessage, "assert failure"));
 6537              		.loc 6 184 0 discriminator 12
 6538 2edf 488D8590 		leaq	-2160(%rbp), %rax
 6538      F7FFFF
 6539 2ee6 488D1500 		leaq	.LC69(%rip), %rdx
 6539      000000
 6540 2eed 4889C6   		movq	%rax, %rsi
 6541 2ef0 4889DF   		movq	%rbx, %rdi
 6542 2ef3 E8000000 		call	_ZN8UnitTest11TestResults13OnTestFailureERKNS_11TestDetailsEPKc@PLT
 6542      00
 6543              	.LEHE156:
 6544              	.LEHB157:
 184:TestTestMacros.cpp **** 	CHECK(strstr(reporter.lastFailedMessage, "assert failure"));
 6545              		.loc 6 184 0 discriminator 14
 6546 2ef8 E8000000 		call	__cxa_end_catch@PLT
 6546      00
 6547              	.LEHE157:
 184:TestTestMacros.cpp **** 	CHECK(strstr(reporter.lastFailedMessage, "assert failure"));
 6548              		.loc 6 184 0
 6549 2efd E9A3FEFF 		jmp	.L328
 6549      FF
 6550              	.L339:
 6551 2f02 4889C3   		movq	%rax, %rbx
 6552 2f05 E8000000 		call	__cxa_end_catch@PLT
 6552      00
 6553 2f0a EB5F     		jmp	.L322
 6554              	.L340:
 185:TestTestMacros.cpp **** }
 6555              		.loc 6 185 0 is_stmt 1
 6556 2f0c 4889C7   		movq	%rax, %rdi
 6557 2f0f E8000000 		call	__cxa_begin_catch@PLT
 6557      00
 6558              	.LEHB158:
 6559 2f14 E8000000 		call	_ZN8UnitTest11CurrentTest7ResultsEv@PLT
 6559      00
 6560 2f19 488B18   		movq	(%rax), %rbx
 6561 2f1c E8000000 		call	_ZN8UnitTest11CurrentTest7DetailsEv@PLT
 6561      00
 185:TestTestMacros.cpp **** }
 6562              		.loc 6 185 0 is_stmt 0 discriminator 8
 6563 2f21 488B08   		movq	(%rax), %rcx
 6564 2f24 488D8590 		leaq	-2160(%rbp), %rax
 6564      F7FFFF
 6565 2f2b BAB90000 		movl	$185, %edx
 6565      00
 6566 2f30 4889CE   		movq	%rcx, %rsi
 6567 2f33 4889C7   		movq	%rax, %rdi
 6568 2f36 E8000000 		call	_ZN8UnitTest11TestDetailsC1ERKS0_i@PLT
 6568      00
 185:TestTestMacros.cpp **** }
 6569              		.loc 6 185 0 discriminator 12
 6570 2f3b 488D8590 		leaq	-2160(%rbp), %rax
 6570      F7FFFF
 6571 2f42 488D1500 		leaq	.LC70(%rip), %rdx
 6571      000000
 6572 2f49 4889C6   		movq	%rax, %rsi
 6573 2f4c 4889DF   		movq	%rbx, %rdi
 6574 2f4f E8000000 		call	_ZN8UnitTest11TestResults13OnTestFailureERKNS_11TestDetailsEPKc@PLT
 6574      00
 6575              	.LEHE158:
 6576              	.LEHB159:
 185:TestTestMacros.cpp **** }
 6577              		.loc 6 185 0 discriminator 14
 6578 2f54 E8000000 		call	__cxa_end_catch@PLT
 6578      00
 6579              	.LEHE159:
 185:TestTestMacros.cpp **** }
 6580              		.loc 6 185 0
 6581 2f59 E9B2FEFF 		jmp	.L320
 6581      FF
 6582              	.L341:
 6583 2f5e 4889C3   		movq	%rax, %rbx
 6584 2f61 E8000000 		call	__cxa_end_catch@PLT
 6584      00
 6585 2f66 EB03     		jmp	.L322
 6586              	.L333:
 6587 2f68 4889C3   		movq	%rax, %rbx
 6588              	.L322:
 175:TestTestMacros.cpp **** 	TestResults result(&reporter);
 6589              		.loc 6 175 0 is_stmt 1
 6590 2f6b 488D85B0 		leaq	-2128(%rbp), %rax
 6590      F7FFFF
 6591 2f72 4889C7   		movq	%rax, %rdi
 6592 2f75 E8000000 		call	_ZN17RecordingReporterD1Ev
 6592      00
 6593 2f7a 4889D8   		movq	%rbx, %rax
 6594 2f7d 4889C7   		movq	%rax, %rdi
 6595              	.LEHB160:
 6596 2f80 E8000000 		call	_Unwind_Resume@PLT
 6596      00
 6597              	.LEHE160:
 6598              	.L342:
 6599              		.loc 6 186 0
 6600 2f85 E8000000 		call	__stack_chk_fail@PLT
 6600      00
 6601              	.L332:
 6602 2f8a 4881C4A8 		addq	$2216, %rsp
 6602      080000
 6603 2f91 5B       		popq	%rbx
 6604 2f92 5D       		popq	%rbp
 6605              		.cfi_def_cfa 7, 8
 6606 2f93 C3       		ret
 6607              		.cfi_endproc
 6608              	.LFE1223:
 6609              		.section	.gcc_except_table
 6610              		.align 4
 6611              	.LLSDA1223:
 6612 0418 FF       		.byte	0xff
 6613 0419 9B       		.byte	0x9b
 6614 041a 61       		.uleb128 .LLSDATT1223-.LLSDATTD1223
 6615              	.LLSDATTD1223:
 6616 041b 01       		.byte	0x1
 6617 041c 56       		.uleb128 .LLSDACSE1223-.LLSDACSB1223
 6618              	.LLSDACSB1223:
 6619 041d 45       		.uleb128 .LEHB146-.LFB1223
 6620 041e 23       		.uleb128 .LEHE146-.LEHB146
 6621 041f 8206     		.uleb128 .L333-.LFB1223
 6622 0421 00       		.uleb128 0
 6623 0422 6F       		.uleb128 .LEHB147-.LFB1223
 6624 0423 0D       		.uleb128 .LEHE147-.LEHB147
 6625 0424 D203     		.uleb128 .L334-.LFB1223
 6626 0426 00       		.uleb128 0
 6627 0427 8601     		.uleb128 .LEHB148-.LFB1223
 6628 0429 14       		.uleb128 .LEHE148-.LEHB148
 6629 042a 8206     		.uleb128 .L333-.LFB1223
 6630 042c 00       		.uleb128 0
 6631 042d A001     		.uleb128 .LEHB149-.LFB1223
 6632 042f 1F       		.uleb128 .LEHE149-.LEHB149
 6633 0430 EB03     		.uleb128 .L335-.LFB1223
 6634 0432 01       		.uleb128 0x1
 6635 0433 C901     		.uleb128 .LEHB150-.LFB1223
 6636 0435 25       		.uleb128 .LEHE150-.LEHB150
 6637 0436 E903     		.uleb128 .L336-.LFB1223
 6638 0438 01       		.uleb128 0x1
 6639 0439 EE01     		.uleb128 .LEHB151-.LFB1223
 6640 043b 51       		.uleb128 .LEHE151-.LEHB151
 6641 043c CA04     		.uleb128 .L338-.LFB1223
 6642 043e 01       		.uleb128 0x1
 6643 043f EA02     		.uleb128 .LEHB152-.LFB1223
 6644 0441 40       		.uleb128 .LEHE152-.LEHB152
 6645 0442 A605     		.uleb128 .L340-.LFB1223
 6646 0444 01       		.uleb128 0x1
 6647 0445 B403     		.uleb128 .LEHB153-.LFB1223
 6648 0447 05       		.uleb128 .LEHE153-.LEHB153
 6649 0448 00       		.uleb128 0
 6650 0449 00       		.uleb128 0
 6651 044a F303     		.uleb128 .LEHB154-.LFB1223
 6652 044c 40       		.uleb128 .LEHE154-.LEHB154
 6653 044d BD04     		.uleb128 .L337-.LFB1223
 6654 044f 00       		.uleb128 0
 6655 0450 B304     		.uleb128 .LEHB155-.LFB1223
 6656 0452 05       		.uleb128 .LEHE155-.LEHB155
 6657 0453 8206     		.uleb128 .L333-.LFB1223
 6658 0455 00       		.uleb128 0
 6659 0456 D204     		.uleb128 .LEHB156-.LFB1223
 6660 0458 40       		.uleb128 .LEHE156-.LEHB156
 6661 0459 9C05     		.uleb128 .L339-.LFB1223
 6662 045b 00       		.uleb128 0
 6663 045c 9205     		.uleb128 .LEHB157-.LFB1223
 6664 045e 05       		.uleb128 .LEHE157-.LEHB157
 6665 045f 8206     		.uleb128 .L333-.LFB1223
 6666 0461 00       		.uleb128 0
 6667 0462 AE05     		.uleb128 .LEHB158-.LFB1223
 6668 0464 40       		.uleb128 .LEHE158-.LEHB158
 6669 0465 F805     		.uleb128 .L341-.LFB1223
 6670 0467 00       		.uleb128 0
 6671 0468 EE05     		.uleb128 .LEHB159-.LFB1223
 6672 046a 05       		.uleb128 .LEHE159-.LEHB159
 6673 046b 8206     		.uleb128 .L333-.LFB1223
 6674 046d 00       		.uleb128 0
 6675 046e 9A06     		.uleb128 .LEHB160-.LFB1223
 6676 0470 05       		.uleb128 .LEHE160-.LEHB160
 6677 0471 00       		.uleb128 0
 6678 0472 00       		.uleb128 0
 6679              	.LLSDACSE1223:
 6680 0473 01       		.byte	0x1
 6681 0474 00       		.byte	0
 6682 0475 000000   		.align 4
 6683 0478 00000000 		.long	0
 6684              	
 6685              	.LLSDATT1223:
 6686              		.text
 6688              		.section	.rodata
 6689              	.LC71:
 6690 0d9b 53616D65 		.string	"SameTestSuite"
 6690      54657374 
 6690      53756974 
 6690      6500
 6691              		.section	.text._ZN18SuiteSameTestSuite13UnitTestSuite12GetSuiteNameEv,"axG",@progbits,_ZN18SuiteSa
 6692              		.weak	_ZN18SuiteSameTestSuite13UnitTestSuite12GetSuiteNameEv
 6694              	_ZN18SuiteSameTestSuite13UnitTestSuite12GetSuiteNameEv:
 6695              	.LFB1224:
 187:TestTestMacros.cpp **** 
 188:TestTestMacros.cpp **** }
 189:TestTestMacros.cpp **** 
 190:TestTestMacros.cpp **** // We're really testing if it's possible to use the same suite in two files
 191:TestTestMacros.cpp **** // to compile and link successfuly (TestTestSuite.cpp has suite with the same name)
 192:TestTestMacros.cpp **** // Note: we are outside of the anonymous namespace
 193:TestTestMacros.cpp **** SUITE(SameTestSuite)
 6696              		.loc 6 193 0
 6697              		.cfi_startproc
 6698 0000 55       		pushq	%rbp
 6699              		.cfi_def_cfa_offset 16
 6700              		.cfi_offset 6, -16
 6701 0001 4889E5   		movq	%rsp, %rbp
 6702              		.cfi_def_cfa_register 6
 6703              		.loc 6 193 0
 6704 0004 488D0500 		leaq	.LC71(%rip), %rax
 6704      000000
 6705 000b 5D       		popq	%rbp
 6706              		.cfi_def_cfa 7, 8
 6707 000c C3       		ret
 6708              		.cfi_endproc
 6709              	.LFE1224:
 6711              		.section	.rodata
 6712              	.LC72:
 6713 0da9 44756D6D 		.string	"DummyTest1"
 6713      79546573 
 6713      743100
 6714              		.section	.text._ZN18SuiteSameTestSuite14TestDummyTest1C2Ev,"axG",@progbits,_ZN18SuiteSameTestSuite
 6715              		.align 2
 6716              		.weak	_ZN18SuiteSameTestSuite14TestDummyTest1C2Ev
 6718              	_ZN18SuiteSameTestSuite14TestDummyTest1C2Ev:
 6719              	.LFB1226:
 194:TestTestMacros.cpp **** {
 195:TestTestMacros.cpp **** 	TEST(DummyTest1)
 6720              		.loc 6 195 0
 6721              		.cfi_startproc
 6722 0000 55       		pushq	%rbp
 6723              		.cfi_def_cfa_offset 16
 6724              		.cfi_offset 6, -16
 6725 0001 4889E5   		movq	%rsp, %rbp
 6726              		.cfi_def_cfa_register 6
 6727 0004 53       		pushq	%rbx
 6728 0005 4883EC18 		subq	$24, %rsp
 6729              		.cfi_offset 3, -24
 6730 0009 48897DE8 		movq	%rdi, -24(%rbp)
 6731              	.LBB96:
 6732              		.loc 6 195 0
 6733 000d 488B5DE8 		movq	-24(%rbp), %rbx
 6734 0011 E8000000 		call	_ZN18SuiteSameTestSuite13UnitTestSuite12GetSuiteNameEv
 6734      00
 6735 0016 41B8C300 		movl	$195, %r8d
 6735      0000
 6736 001c 488D0D00 		leaq	.LC2(%rip), %rcx
 6736      000000
 6737 0023 4889C2   		movq	%rax, %rdx
 6738 0026 488D3500 		leaq	.LC72(%rip), %rsi
 6738      000000
 6739 002d 4889DF   		movq	%rbx, %rdi
 6740 0030 E8000000 		call	_ZN8UnitTest4TestC2EPKcS2_S2_i@PLT
 6740      00
 6741 0035 488D1500 		leaq	16+_ZTVN18SuiteSameTestSuite14TestDummyTest1E(%rip), %rdx
 6741      000000
 6742 003c 488B45E8 		movq	-24(%rbp), %rax
 6743 0040 488910   		movq	%rdx, (%rax)
 6744              	.LBE96:
 6745 0043 90       		nop
 6746 0044 4883C418 		addq	$24, %rsp
 6747 0048 5B       		popq	%rbx
 6748 0049 5D       		popq	%rbp
 6749              		.cfi_def_cfa 7, 8
 6750 004a C3       		ret
 6751              		.cfi_endproc
 6752              	.LFE1226:
 6754              		.weak	_ZN18SuiteSameTestSuite14TestDummyTest1C1Ev
 6755              		.set	_ZN18SuiteSameTestSuite14TestDummyTest1C1Ev,_ZN18SuiteSameTestSuite14TestDummyTest1C2Ev
 6756              		.globl	_ZN18SuiteSameTestSuite22testDummyTest1InstanceE
 6757              		.bss
 6758              		.align 32
 6761              	_ZN18SuiteSameTestSuite22testDummyTest1InstanceE:
 6762 0000 00000000 		.zero	56
 6762      00000000 
 6762      00000000 
 6762      00000000 
 6762      00000000 
 6763              		.globl	_ZN18SuiteSameTestSuite15adderDummyTest1E
 6766              	_ZN18SuiteSameTestSuite15adderDummyTest1E:
 6767 0038 00       		.zero	1
 6768              		.text
 6769              		.align 2
 6770              		.globl	_ZNK18SuiteSameTestSuite14TestDummyTest17RunImplEv
 6772              	_ZNK18SuiteSameTestSuite14TestDummyTest17RunImplEv:
 6773              	.LFB1228:
 196:TestTestMacros.cpp **** 	{
 6774              		.loc 6 196 0
 6775              		.cfi_startproc
 6776 2f94 55       		pushq	%rbp
 6777              		.cfi_def_cfa_offset 16
 6778              		.cfi_offset 6, -16
 6779 2f95 4889E5   		movq	%rsp, %rbp
 6780              		.cfi_def_cfa_register 6
 6781 2f98 48897DF8 		movq	%rdi, -8(%rbp)
 197:TestTestMacros.cpp **** 	}
 6782              		.loc 6 197 0
 6783 2f9c 90       		nop
 6784 2f9d 5D       		popq	%rbp
 6785              		.cfi_def_cfa 7, 8
 6786 2f9e C3       		ret
 6787              		.cfi_endproc
 6788              	.LFE1228:
 6790              		.section	.rodata
 6791 0db4 00000000 		.align 8
 6792              	.LC73:
 6793 0db8 43757272 		.string	"CurrentTestDetailsContainCurrentTestInfo"
 6793      656E7454 
 6793      65737444 
 6793      65746169 
 6793      6C73436F 
 6794              		.section	.text._ZN44TestCurrentTestDetailsContainCurrentTestInfoC2Ev,"axG",@progbits,_ZN44TestCurr
 6795              		.align 2
 6796              		.weak	_ZN44TestCurrentTestDetailsContainCurrentTestInfoC2Ev
 6798              	_ZN44TestCurrentTestDetailsContainCurrentTestInfoC2Ev:
 6799              	.LFB1230:
 198:TestTestMacros.cpp **** }
 199:TestTestMacros.cpp **** 
 200:TestTestMacros.cpp **** #define CUR_TEST_NAME CurrentTestDetailsContainCurrentTestInfo
 201:TestTestMacros.cpp **** #define INNER_STRINGIFY(X) #X
 202:TestTestMacros.cpp **** #define STRINGIFY(X) INNER_STRINGIFY(X)
 203:TestTestMacros.cpp **** 
 204:TestTestMacros.cpp **** TEST(CUR_TEST_NAME)
 6800              		.loc 6 204 0
 6801              		.cfi_startproc
 6802 0000 55       		pushq	%rbp
 6803              		.cfi_def_cfa_offset 16
 6804              		.cfi_offset 6, -16
 6805 0001 4889E5   		movq	%rsp, %rbp
 6806              		.cfi_def_cfa_register 6
 6807 0004 53       		pushq	%rbx
 6808 0005 4883EC18 		subq	$24, %rsp
 6809              		.cfi_offset 3, -24
 6810 0009 48897DE8 		movq	%rdi, -24(%rbp)
 6811              	.LBB97:
 6812              		.loc 6 204 0
 6813 000d 488B5DE8 		movq	-24(%rbp), %rbx
 6814 0011 E8000000 		call	_ZN13UnitTestSuite12GetSuiteNameEv
 6814      00
 6815 0016 41B8CC00 		movl	$204, %r8d
 6815      0000
 6816 001c 488D0D00 		leaq	.LC2(%rip), %rcx
 6816      000000
 6817 0023 4889C2   		movq	%rax, %rdx
 6818 0026 488D3500 		leaq	.LC73(%rip), %rsi
 6818      000000
 6819 002d 4889DF   		movq	%rbx, %rdi
 6820 0030 E8000000 		call	_ZN8UnitTest4TestC2EPKcS2_S2_i@PLT
 6820      00
 6821 0035 488D1500 		leaq	16+_ZTV44TestCurrentTestDetailsContainCurrentTestInfo(%rip), %rdx
 6821      000000
 6822 003c 488B45E8 		movq	-24(%rbp), %rax
 6823 0040 488910   		movq	%rdx, (%rax)
 6824              	.LBE97:
 6825 0043 90       		nop
 6826 0044 4883C418 		addq	$24, %rsp
 6827 0048 5B       		popq	%rbx
 6828 0049 5D       		popq	%rbp
 6829              		.cfi_def_cfa 7, 8
 6830 004a C3       		ret
 6831              		.cfi_endproc
 6832              	.LFE1230:
 6834              		.weak	_ZN44TestCurrentTestDetailsContainCurrentTestInfoC1Ev
 6835              		.set	_ZN44TestCurrentTestDetailsContainCurrentTestInfoC1Ev,_ZN44TestCurrentTestDetailsContainCurre
 6836              		.globl	testCurrentTestDetailsContainCurrentTestInfoInstance
 6837              		.bss
 6838 0039 00000000 		.align 32
 6838      000000
 6841              	testCurrentTestDetailsContainCurrentTestInfoInstance:
 6842 0040 00000000 		.zero	56
 6842      00000000 
 6842      00000000 
 6842      00000000 
 6842      00000000 
 6843              		.globl	adderCurrentTestDetailsContainCurrentTestInfo
 6846              	adderCurrentTestDetailsContainCurrentTestInfo:
 6847 0078 00       		.zero	1
 6848              		.section	.rodata
 6849 0de1 00000000 		.align 8
 6849      000000
 6850              	.LC74:
 6851 0de8 556E6861 		.string	"Unhandled exception in CHECK_EQUAL(STRINGIFY(CUR_TEST_NAME), details->testName)"
 6851      6E646C65 
 6851      64206578 
 6851      63657074 
 6851      696F6E20 
 6852              		.text
 6853 2f9f 90       		.align 2
 6854              		.globl	_ZNK44TestCurrentTestDetailsContainCurrentTestInfo7RunImplEv
 6856              	_ZNK44TestCurrentTestDetailsContainCurrentTestInfo7RunImplEv:
 6857              	.LFB1232:
 205:TestTestMacros.cpp **** {
 6858              		.loc 6 205 0
 6859              		.cfi_startproc
 6860              		.cfi_personality 0x9b,DW.ref.__gxx_personality_v0
 6861              		.cfi_lsda 0x1b,.LLSDA1232
 6862 2fa0 55       		pushq	%rbp
 6863              		.cfi_def_cfa_offset 16
 6864              		.cfi_offset 6, -16
 6865 2fa1 4889E5   		movq	%rsp, %rbp
 6866              		.cfi_def_cfa_register 6
 6867 2fa4 53       		pushq	%rbx
 6868 2fa5 4883EC58 		subq	$88, %rsp
 6869              		.cfi_offset 3, -24
 6870 2fa9 48897DA8 		movq	%rdi, -88(%rbp)
 6871              		.loc 6 205 0
 6872 2fad 64488B04 		movq	%fs:40, %rax
 6872      25280000 
 6872      00
 6873 2fb6 488945E8 		movq	%rax, -24(%rbp)
 6874 2fba 31C0     		xorl	%eax, %eax
 6875              	.LEHB161:
 206:TestTestMacros.cpp **** 	const UnitTest::TestDetails* details = CurrentTest::Details();
 6876              		.loc 6 206 0
 6877 2fbc E8000000 		call	_ZN8UnitTest11CurrentTest7DetailsEv@PLT
 6877      00
 6878              	.LEHE161:
 6879 2fc1 488B00   		movq	(%rax), %rax
 6880 2fc4 488945B8 		movq	%rax, -72(%rbp)
 6881              	.LEHB162:
 207:TestTestMacros.cpp **** 	CHECK_EQUAL(STRINGIFY(CUR_TEST_NAME), details->testName);
 6882              		.loc 6 207 0
 6883 2fc8 E8000000 		call	_ZN8UnitTest11CurrentTest7DetailsEv@PLT
 6883      00
 6884 2fcd 488B08   		movq	(%rax), %rcx
 6885 2fd0 488D45C0 		leaq	-64(%rbp), %rax
 6886 2fd4 BACF0000 		movl	$207, %edx
 6886      00
 6887 2fd9 4889CE   		movq	%rcx, %rsi
 6888 2fdc 4889C7   		movq	%rax, %rdi
 6889 2fdf E8000000 		call	_ZN8UnitTest11TestDetailsC1ERKS0_i@PLT
 6889      00
 6890              		.loc 6 207 0 is_stmt 0 discriminator 2
 6891 2fe4 488B45B8 		movq	-72(%rbp), %rax
 6892 2fe8 488B5808 		movq	8(%rax), %rbx
 6893 2fec E8000000 		call	_ZN8UnitTest11CurrentTest7ResultsEv@PLT
 6893      00
 6894 2ff1 488B00   		movq	(%rax), %rax
 6895 2ff4 488D55C0 		leaq	-64(%rbp), %rdx
 6896 2ff8 4889D1   		movq	%rdx, %rcx
 6897 2ffb 4889DA   		movq	%rbx, %rdx
 6898 2ffe 488D3500 		leaq	.LC73(%rip), %rsi
 6898      000000
 6899 3005 4889C7   		movq	%rax, %rdi
 6900 3008 E8000000 		call	_ZN8UnitTest10CheckEqualERNS_11TestResultsEPKcS3_RKNS_11TestDetailsE@PLT
 6900      00
 6901              	.LEHE162:
 208:TestTestMacros.cpp **** }
 6902              		.loc 6 208 0 is_stmt 1
 6903 300d EB5C     		jmp	.L348
 6904              	.L353:
 207:TestTestMacros.cpp **** 	CHECK_EQUAL(STRINGIFY(CUR_TEST_NAME), details->testName);
 6905              		.loc 6 207 0
 6906 300f 4889C7   		movq	%rax, %rdi
 6907 3012 E8000000 		call	__cxa_begin_catch@PLT
 6907      00
 6908              	.LEHB163:
 6909 3017 E8000000 		call	_ZN8UnitTest11CurrentTest7ResultsEv@PLT
 6909      00
 6910 301c 488B18   		movq	(%rax), %rbx
 6911 301f E8000000 		call	_ZN8UnitTest11CurrentTest7DetailsEv@PLT
 6911      00
 207:TestTestMacros.cpp **** 	CHECK_EQUAL(STRINGIFY(CUR_TEST_NAME), details->testName);
 6912              		.loc 6 207 0 is_stmt 0 discriminator 8
 6913 3024 488B08   		movq	(%rax), %rcx
 6914 3027 488D45C0 		leaq	-64(%rbp), %rax
 6915 302b BACF0000 		movl	$207, %edx
 6915      00
 6916 3030 4889CE   		movq	%rcx, %rsi
 6917 3033 4889C7   		movq	%rax, %rdi
 6918 3036 E8000000 		call	_ZN8UnitTest11TestDetailsC1ERKS0_i@PLT
 6918      00
 207:TestTestMacros.cpp **** 	CHECK_EQUAL(STRINGIFY(CUR_TEST_NAME), details->testName);
 6919              		.loc 6 207 0 discriminator 12
 6920 303b 488D45C0 		leaq	-64(%rbp), %rax
 6921 303f 488D1500 		leaq	.LC74(%rip), %rdx
 6921      000000
 6922 3046 4889C6   		movq	%rax, %rsi
 6923 3049 4889DF   		movq	%rbx, %rdi
 6924 304c E8000000 		call	_ZN8UnitTest11TestResults13OnTestFailureERKNS_11TestDetailsEPKc@PLT
 6924      00
 6925              	.LEHE163:
 6926              	.LEHB164:
 207:TestTestMacros.cpp **** 	CHECK_EQUAL(STRINGIFY(CUR_TEST_NAME), details->testName);
 6927              		.loc 6 207 0 discriminator 14
 6928 3051 E8000000 		call	__cxa_end_catch@PLT
 6928      00
 6929              	.LEHE164:
 6930              		.loc 6 208 0 is_stmt 1 discriminator 14
 6931 3056 EB13     		jmp	.L348
 6932              	.L354:
 6933 3058 4889C3   		movq	%rax, %rbx
 207:TestTestMacros.cpp **** 	CHECK_EQUAL(STRINGIFY(CUR_TEST_NAME), details->testName);
 6934              		.loc 6 207 0
 6935 305b E8000000 		call	__cxa_end_catch@PLT
 6935      00
 6936 3060 4889D8   		movq	%rbx, %rax
 6937 3063 4889C7   		movq	%rax, %rdi
 6938              	.LEHB165:
 6939 3066 E8000000 		call	_Unwind_Resume@PLT
 6939      00
 6940              	.LEHE165:
 6941              	.L348:
 6942              		.loc 6 208 0
 6943 306b 488B45E8 		movq	-24(%rbp), %rax
 6944 306f 64483304 		xorq	%fs:40, %rax
 6944      25280000 
 6944      00
 6945 3078 7405     		je	.L352
 6946 307a E8000000 		call	__stack_chk_fail@PLT
 6946      00
 6947              	.L352:
 6948 307f 4883C458 		addq	$88, %rsp
 6949 3083 5B       		popq	%rbx
 6950 3084 5D       		popq	%rbp
 6951              		.cfi_def_cfa 7, 8
 6952 3085 C3       		ret
 6953              		.cfi_endproc
 6954              	.LFE1232:
 6955              		.section	.gcc_except_table
 6956              		.align 4
 6957              	.LLSDA1232:
 6958 047c FF       		.byte	0xff
 6959 047d 9B       		.byte	0x9b
 6960 047e 21       		.uleb128 .LLSDATT1232-.LLSDATTD1232
 6961              	.LLSDATTD1232:
 6962 047f 01       		.byte	0x1
 6963 0480 17       		.uleb128 .LLSDACSE1232-.LLSDACSB1232
 6964              	.LLSDACSB1232:
 6965 0481 1C       		.uleb128 .LEHB161-.LFB1232
 6966 0482 05       		.uleb128 .LEHE161-.LEHB161
 6967 0483 00       		.uleb128 0
 6968 0484 00       		.uleb128 0
 6969 0485 28       		.uleb128 .LEHB162-.LFB1232
 6970 0486 45       		.uleb128 .LEHE162-.LEHB162
 6971 0487 6F       		.uleb128 .L353-.LFB1232
 6972 0488 01       		.uleb128 0x1
 6973 0489 77       		.uleb128 .LEHB163-.LFB1232
 6974 048a 3A       		.uleb128 .LEHE163-.LEHB163
 6975 048b B801     		.uleb128 .L354-.LFB1232
 6976 048d 00       		.uleb128 0
 6977 048e B101     		.uleb128 .LEHB164-.LFB1232
 6978 0490 05       		.uleb128 .LEHE164-.LEHB164
 6979 0491 00       		.uleb128 0
 6980 0492 00       		.uleb128 0
 6981 0493 C601     		.uleb128 .LEHB165-.LFB1232
 6982 0495 05       		.uleb128 .LEHE165-.LEHB165
 6983 0496 00       		.uleb128 0
 6984 0497 00       		.uleb128 0
 6985              	.LLSDACSE1232:
 6986 0498 01       		.byte	0x1
 6987 0499 00       		.byte	0
 6988 049a 0000     		.align 4
 6989 049c 00000000 		.long	0
 6990              	
 6991              	.LLSDATT1232:
 6992              		.text
 6994              		.section	.text._ZN8UnitTest5CheckIbEEbT_,"axG",@progbits,_ZN8UnitTest5CheckIbEEbT_,comdat
 6995              		.weak	_ZN8UnitTest5CheckIbEEbT_
 6997              	_ZN8UnitTest5CheckIbEEbT_:
 6998              	.LFB1260:
 6999              		.file 7 "../Checks.h"
   1:../Checks.h   **** #ifndef UNITTEST_CHECKS_H
   2:../Checks.h   **** #define UNITTEST_CHECKS_H
   3:../Checks.h   **** 
   4:../Checks.h   **** #include "Config.h"
   5:../Checks.h   **** #include "TestResults.h"
   6:../Checks.h   **** #include "MemoryOutStream.h"
   7:../Checks.h   **** 
   8:../Checks.h   **** namespace UnitTest {
   9:../Checks.h   **** 
  10:../Checks.h   **** 
  11:../Checks.h   **** template< typename Value >
  12:../Checks.h   **** bool Check(Value const value)
 7000              		.loc 7 12 0
 7001              		.cfi_startproc
 7002 0000 55       		pushq	%rbp
 7003              		.cfi_def_cfa_offset 16
 7004              		.cfi_offset 6, -16
 7005 0001 4889E5   		movq	%rsp, %rbp
 7006              		.cfi_def_cfa_register 6
 7007 0004 89F8     		movl	%edi, %eax
 7008 0006 8845FC   		movb	%al, -4(%rbp)
  13:../Checks.h   **** {
  14:../Checks.h   ****     return !!value; // doing double negative to avoid silly VS warnings
 7009              		.loc 7 14 0
 7010 0009 0FB645FC 		movzbl	-4(%rbp), %eax
  15:../Checks.h   **** }
 7011              		.loc 7 15 0
 7012 000d 5D       		popq	%rbp
 7013              		.cfi_def_cfa 7, 8
 7014 000e C3       		ret
 7015              		.cfi_endproc
 7016              	.LFE1260:
 7018              		.section	.rodata
 7019              	.LC75:
 7020 0e38 556E6861 		.string	"Unhandled system exception"
 7020      6E646C65 
 7020      64207379 
 7020      7374656D 
 7020      20657863 
 7021              	.LC76:
 7022 0e53 556E6861 		.string	"Unhandled exception: Crash!"
 7022      6E646C65 
 7022      64206578 
 7022      63657074 
 7022      696F6E3A 
 7023              		.text
 7025              	_ZN8UnitTest11ExecuteTestIN12_GLOBAL__N_134ThrowingThingieDummyTestNameHelperEEEvRT_RKNS_11TestDeta
 7026              	.LFB1261:
 7027              		.file 8 "../ExecuteTest.h"
   1:../ExecuteTest.h **** #ifndef UNITTEST_EXECUTE_TEST_H
   2:../ExecuteTest.h **** #define UNITTEST_EXECUTE_TEST_H
   3:../ExecuteTest.h **** 
   4:../ExecuteTest.h **** #include "TestDetails.h"
   5:../ExecuteTest.h **** #include "MemoryOutStream.h"
   6:../ExecuteTest.h **** #include "AssertException.h"
   7:../ExecuteTest.h **** #include "CurrentTest.h"
   8:../ExecuteTest.h **** 
   9:../ExecuteTest.h **** #ifdef UNITTEST_POSIX
  10:../ExecuteTest.h **** 	#include "PosixUtils/SignalTranslator.h"
  11:../ExecuteTest.h **** #endif
  12:../ExecuteTest.h **** 
  13:../ExecuteTest.h **** namespace UnitTest {
  14:../ExecuteTest.h **** 
  15:../ExecuteTest.h **** template< typename T >
  16:../ExecuteTest.h **** void ExecuteTest(T& testObject, TestDetails const& details)
 7028              		.loc 8 16 0
 7029              		.cfi_startproc
 7030              		.cfi_personality 0x9b,DW.ref.__gxx_personality_v0
 7031              		.cfi_lsda 0x1b,.LLSDA1261
 7032 3086 55       		pushq	%rbp
 7033              		.cfi_def_cfa_offset 16
 7034              		.cfi_offset 6, -16
 7035 3087 4889E5   		movq	%rsp, %rbp
 7036              		.cfi_def_cfa_register 6
 7037 308a 4155     		pushq	%r13
 7038 308c 4154     		pushq	%r12
 7039 308e 53       		pushq	%rbx
 7040 308f 4881EC58 		subq	$1624, %rsp
 7040      060000
 7041              		.cfi_offset 13, -24
 7042              		.cfi_offset 12, -32
 7043              		.cfi_offset 3, -40
 7044 3096 4889BD98 		movq	%rdi, -1640(%rbp)
 7044      F9FFFF
 7045 309d 4889B590 		movq	%rsi, -1648(%rbp)
 7045      F9FFFF
 7046              		.loc 8 16 0
 7047 30a4 64488B04 		movq	%fs:40, %rax
 7047      25280000 
 7047      00
 7048 30ad 488945D8 		movq	%rax, -40(%rbp)
 7049 30b1 31C0     		xorl	%eax, %eax
 7050              	.LEHB166:
  17:../ExecuteTest.h **** {
  18:../ExecuteTest.h **** 	CurrentTest::Details() = &details;
 7051              		.loc 8 18 0
 7052 30b3 E8000000 		call	_ZN8UnitTest11CurrentTest7DetailsEv@PLT
 7052      00
 7053              	.LEHE166:
 7054 30b8 4889C2   		movq	%rax, %rdx
 7055 30bb 488B8590 		movq	-1648(%rbp), %rax
 7055      F9FFFF
 7056 30c2 488902   		movq	%rax, (%rdx)
 7057              	.LBB98:
  19:../ExecuteTest.h **** 
  20:../ExecuteTest.h **** 	try
  21:../ExecuteTest.h **** 	{
  22:../ExecuteTest.h **** #ifdef UNITTEST_POSIX
  23:../ExecuteTest.h **** 		UNITTEST_THROW_SIGNALS
 7058              		.loc 8 23 0
 7059 30c5 488D8570 		leaq	-1168(%rbp), %rax
 7059      FBFFFF
 7060 30cc 4889C7   		movq	%rax, %rdi
 7061              	.LEHB167:
 7062 30cf E8000000 		call	_ZN8UnitTest16SignalTranslatorC1Ev@PLT
 7062      00
 7063              	.LEHE167:
 7064              		.loc 8 23 0 is_stmt 0 discriminator 1
 7065 30d4 488B0500 		movq	_ZN8UnitTest16SignalTranslator12s_jumpTargetE(%rip), %rax
 7065      000000
 7066 30db BE010000 		movl	$1, %esi
 7066      00
 7067 30e0 4889C7   		movq	%rax, %rdi
 7068 30e3 E8000000 		call	__sigsetjmp@PLT
 7068      00
 7069 30e8 85C0     		testl	%eax, %eax
 7070 30ea 0F95C0   		setne	%al
 7071 30ed 84C0     		testb	%al, %al
 7072 30ef 7428     		je	.L359
 7073              		.loc 8 23 0 discriminator 4
 7074 30f1 BF080000 		movl	$8, %edi
 7074      00
 7075 30f6 E8000000 		call	__cxa_allocate_exception@PLT
 7075      00
 7076 30fb 488D1500 		leaq	.LC75(%rip), %rdx
 7076      000000
 7077 3102 488910   		movq	%rdx, (%rax)
 7078 3105 BA000000 		movl	$0, %edx
 7078      00
 7079 310a 488D3500 		leaq	_ZTIPKc(%rip), %rsi
 7079      000000
 7080 3111 4889C7   		movq	%rax, %rdi
 7081              	.LEHB168:
 7082 3114 E8000000 		call	__cxa_throw@PLT
 7082      00
 7083              	.LEHE168:
 7084              	.L359:
  24:../ExecuteTest.h **** #endif
  25:../ExecuteTest.h **** 		testObject.RunImpl();
 7085              		.loc 8 25 0 is_stmt 1
 7086 3119 488B8598 		movq	-1640(%rbp), %rax
 7086      F9FFFF
 7087 3120 4889C7   		movq	%rax, %rdi
 7088 3123 E8DCD4FF 		call	_ZN12_GLOBAL__N_134ThrowingThingieDummyTestNameHelper7RunImplEv
 7088      FF
  23:../ExecuteTest.h **** #endif
 7089              		.loc 8 23 0
 7090 3128 488D8570 		leaq	-1168(%rbp), %rax
 7090      FBFFFF
 7091 312f 4889C7   		movq	%rax, %rdi
 7092              	.LEHB169:
 7093 3132 E8000000 		call	_ZN8UnitTest16SignalTranslatorD1Ev@PLT
 7093      00
 7094              	.LEHE169:
 7095              	.LBE98:
  26:../ExecuteTest.h **** 	}
  27:../ExecuteTest.h **** 	catch (AssertException const& e)
  28:../ExecuteTest.h **** 	{
  29:../ExecuteTest.h **** 		CurrentTest::Results()->OnTestFailure(
  30:../ExecuteTest.h **** 			TestDetails(details.testName, details.suiteName, e.Filename(), e.LineNumber()), e.what());
  31:../ExecuteTest.h **** 	}
  32:../ExecuteTest.h **** 	catch (std::exception const& e)
  33:../ExecuteTest.h **** 	{
  34:../ExecuteTest.h **** 		MemoryOutStream stream;
  35:../ExecuteTest.h **** 		stream << "Unhandled exception: " << e.what();
  36:../ExecuteTest.h **** 		CurrentTest::Results()->OnTestFailure(details, stream.GetText());
  37:../ExecuteTest.h **** 	}
  38:../ExecuteTest.h **** 	catch (...)
  39:../ExecuteTest.h **** 	{
  40:../ExecuteTest.h **** 		CurrentTest::Results()->OnTestFailure(details, "Unhandled exception: Crash!");
  41:../ExecuteTest.h **** 	}
  42:../ExecuteTest.h **** }
 7096              		.loc 8 42 0
 7097 3137 E9F10100 		jmp	.L357
 7097      00
 7098              	.L372:
 7099 313c 4989C4   		movq	%rax, %r12
 7100 313f 4889D3   		movq	%rdx, %rbx
 7101              	.LBB99:
  23:../ExecuteTest.h **** #endif
 7102              		.loc 8 23 0
 7103 3142 488D8570 		leaq	-1168(%rbp), %rax
 7103      FBFFFF
 7104 3149 4889C7   		movq	%rax, %rdi
 7105 314c E8000000 		call	_ZN8UnitTest16SignalTranslatorD1Ev@PLT
 7105      00
 7106 3151 4C89E0   		movq	%r12, %rax
 7107 3154 4889DA   		movq	%rbx, %rdx
 7108 3157 EB00     		jmp	.L361
 7109              	.L371:
 7110              	.L361:
 7111 3159 4883FA01 		cmpq	$1, %rdx
 7112 315d 740F     		je	.L363
 7113 315f 4883FA02 		cmpq	$2, %rdx
 7114 3163 0F84A600 		je	.L364
 7114      0000
 7115 3169 E9420100 		jmp	.L377
 7115      00
 7116              	.L363:
 7117              	.LBE99:
 7118              	.LBB100:
  27:../ExecuteTest.h **** 	{
 7119              		.loc 8 27 0
 7120 316e 4889C7   		movq	%rax, %rdi
 7121 3171 E8000000 		call	__cxa_begin_catch@PLT
 7121      00
 7122 3176 488985A8 		movq	%rax, -1624(%rbp)
 7122      F9FFFF
 7123              	.LEHB170:
  29:../ExecuteTest.h **** 			TestDetails(details.testName, details.suiteName, e.Filename(), e.LineNumber()), e.what());
 7124              		.loc 8 29 0
 7125 317d E8000000 		call	_ZN8UnitTest11CurrentTest7ResultsEv@PLT
 7125      00
  29:../ExecuteTest.h **** 			TestDetails(details.testName, details.suiteName, e.Filename(), e.LineNumber()), e.what());
 7126              		.loc 8 29 0 is_stmt 0 discriminator 1
 7127 3182 488B18   		movq	(%rax), %rbx
  30:../ExecuteTest.h **** 	}
 7128              		.loc 8 30 0 is_stmt 1 discriminator 1
 7129 3185 488B85A8 		movq	-1624(%rbp), %rax
 7129      F9FFFF
 7130 318c 488B00   		movq	(%rax), %rax
 7131 318f 4883C010 		addq	$16, %rax
 7132 3193 488B00   		movq	(%rax), %rax
  29:../ExecuteTest.h **** 			TestDetails(details.testName, details.suiteName, e.Filename(), e.LineNumber()), e.what());
 7133              		.loc 8 29 0 discriminator 1
 7134 3196 488B95A8 		movq	-1624(%rbp), %rdx
 7134      F9FFFF
 7135 319d 4889D7   		movq	%rdx, %rdi
 7136 31a0 FFD0     		call	*%rax
 7137              	.LVL14:
 7138 31a2 4989C4   		movq	%rax, %r12
 7139 31a5 488B85A8 		movq	-1624(%rbp), %rax
 7139      F9FFFF
 7140 31ac 4889C7   		movq	%rax, %rdi
 7141 31af E8000000 		call	_ZNK8UnitTest15AssertException10LineNumberEv@PLT
 7141      00
  29:../ExecuteTest.h **** 			TestDetails(details.testName, details.suiteName, e.Filename(), e.LineNumber()), e.what());
 7142              		.loc 8 29 0 is_stmt 0 discriminator 2
 7143 31b4 4189C5   		movl	%eax, %r13d
 7144 31b7 488B85A8 		movq	-1624(%rbp), %rax
 7144      F9FFFF
 7145 31be 4889C7   		movq	%rax, %rdi
 7146 31c1 E8000000 		call	_ZNK8UnitTest15AssertException8FilenameEv@PLT
 7146      00
  29:../ExecuteTest.h **** 			TestDetails(details.testName, details.suiteName, e.Filename(), e.LineNumber()), e.what());
 7147              		.loc 8 29 0 discriminator 3
 7148 31c6 4889C1   		movq	%rax, %rcx
  30:../ExecuteTest.h **** 	}
 7149              		.loc 8 30 0 is_stmt 1 discriminator 3
 7150 31c9 488B8590 		movq	-1648(%rbp), %rax
 7150      F9FFFF
 7151 31d0 488B10   		movq	(%rax), %rdx
 7152 31d3 488B8590 		movq	-1648(%rbp), %rax
 7152      F9FFFF
 7153 31da 488B7008 		movq	8(%rax), %rsi
  29:../ExecuteTest.h **** 			TestDetails(details.testName, details.suiteName, e.Filename(), e.LineNumber()), e.what());
 7154              		.loc 8 29 0 discriminator 3
 7155 31de 488D85B0 		leaq	-1616(%rbp), %rax
 7155      F9FFFF
 7156 31e5 4589E8   		movl	%r13d, %r8d
 7157 31e8 4889C7   		movq	%rax, %rdi
 7158 31eb E8000000 		call	_ZN8UnitTest11TestDetailsC1EPKcS2_S2_i@PLT
 7158      00
  29:../ExecuteTest.h **** 			TestDetails(details.testName, details.suiteName, e.Filename(), e.LineNumber()), e.what());
 7159              		.loc 8 29 0 is_stmt 0 discriminator 5
 7160 31f0 488D85B0 		leaq	-1616(%rbp), %rax
 7160      F9FFFF
 7161 31f7 4C89E2   		movq	%r12, %rdx
 7162 31fa 4889C6   		movq	%rax, %rsi
 7163 31fd 4889DF   		movq	%rbx, %rdi
 7164 3200 E8000000 		call	_ZN8UnitTest11TestResults13OnTestFailureERKNS_11TestDetailsEPKc@PLT
 7164      00
 7165              	.LEHE170:
  27:../ExecuteTest.h **** 	{
 7166              		.loc 8 27 0 is_stmt 1 discriminator 7
 7167 3205 E8000000 		call	__cxa_end_catch@PLT
 7167      00
 7168              	.LBE100:
 7169              		.loc 8 42 0 discriminator 7
 7170 320a E91E0100 		jmp	.L357
 7170      00
 7171              	.L364:
 7172              	.LBB101:
  32:../ExecuteTest.h **** 	{
 7173              		.loc 8 32 0
 7174 320f 4889C7   		movq	%rax, %rdi
 7175 3212 E8000000 		call	__cxa_begin_catch@PLT
 7175      00
 7176 3217 488985A0 		movq	%rax, -1632(%rbp)
 7176      F9FFFF
 7177              	.LBB102:
  34:../ExecuteTest.h **** 		stream << "Unhandled exception: " << e.what();
 7178              		.loc 8 34 0
 7179 321e 488D85D0 		leaq	-1584(%rbp), %rax
 7179      F9FFFF
 7180 3225 4889C7   		movq	%rax, %rdi
 7181              	.LEHB171:
 7182 3228 E8000000 		call	_ZN8UnitTest15MemoryOutStreamC1Ev
 7182      00
 7183              	.LEHE171:
  35:../ExecuteTest.h **** 		CurrentTest::Results()->OnTestFailure(details, stream.GetText());
 7184              		.loc 8 35 0
 7185 322d 488D85D0 		leaq	-1584(%rbp), %rax
 7185      F9FFFF
 7186 3234 488D3500 		leaq	.LC11(%rip), %rsi
 7186      000000
 7187 323b 4889C7   		movq	%rax, %rdi
 7188              	.LEHB172:
 7189 323e E8000000 		call	_ZStlsISt11char_traitsIcEERSt13basic_ostreamIcT_ES5_PKc@PLT
 7189      00
 7190 3243 4889C3   		movq	%rax, %rbx
 7191 3246 488B85A0 		movq	-1632(%rbp), %rax
 7191      F9FFFF
 7192 324d 488B00   		movq	(%rax), %rax
 7193 3250 4883C010 		addq	$16, %rax
 7194 3254 488B00   		movq	(%rax), %rax
 7195 3257 488B95A0 		movq	-1632(%rbp), %rdx
 7195      F9FFFF
 7196 325e 4889D7   		movq	%rdx, %rdi
 7197 3261 FFD0     		call	*%rax
 7198              	.LVL15:
 7199 3263 4889C6   		movq	%rax, %rsi
 7200 3266 4889DF   		movq	%rbx, %rdi
 7201 3269 E8000000 		call	_ZStlsISt11char_traitsIcEERSt13basic_ostreamIcT_ES5_PKc@PLT
 7201      00
  36:../ExecuteTest.h **** 	}
 7202              		.loc 8 36 0
 7203 326e E8000000 		call	_ZN8UnitTest11CurrentTest7ResultsEv@PLT
 7203      00
 7204 3273 488B18   		movq	(%rax), %rbx
 7205 3276 488D85D0 		leaq	-1584(%rbp), %rax
 7205      F9FFFF
 7206 327d 4889C7   		movq	%rax, %rdi
 7207 3280 E8000000 		call	_ZNK8UnitTest15MemoryOutStream7GetTextEv@PLT
 7207      00
  36:../ExecuteTest.h **** 	}
 7208              		.loc 8 36 0 is_stmt 0 discriminator 1
 7209 3285 4889C2   		movq	%rax, %rdx
 7210 3288 488B8590 		movq	-1648(%rbp), %rax
 7210      F9FFFF
 7211 328f 4889C6   		movq	%rax, %rsi
 7212 3292 4889DF   		movq	%rbx, %rdi
 7213 3295 E8000000 		call	_ZN8UnitTest11TestResults13OnTestFailureERKNS_11TestDetailsEPKc@PLT
 7213      00
 7214              	.LEHE172:
  34:../ExecuteTest.h **** 		stream << "Unhandled exception: " << e.what();
 7215              		.loc 8 34 0 is_stmt 1
 7216 329a 488D85D0 		leaq	-1584(%rbp), %rax
 7216      F9FFFF
 7217 32a1 4889C7   		movq	%rax, %rdi
 7218              	.LEHB173:
 7219 32a4 E8000000 		call	_ZN8UnitTest15MemoryOutStreamD1Ev
 7219      00
 7220              	.LEHE173:
 7221              	.LBE102:
  32:../ExecuteTest.h **** 	{
 7222              		.loc 8 32 0
 7223 32a9 E8000000 		call	__cxa_end_catch@PLT
 7223      00
 7224              	.LBE101:
 7225              		.loc 8 42 0
 7226 32ae EB7D     		jmp	.L357
 7227              	.L377:
  38:../ExecuteTest.h **** 	{
 7228              		.loc 8 38 0
 7229 32b0 4889C7   		movq	%rax, %rdi
 7230 32b3 E8000000 		call	__cxa_begin_catch@PLT
 7230      00
 7231              	.LEHB174:
  40:../ExecuteTest.h **** 	}
 7232              		.loc 8 40 0
 7233 32b8 E8000000 		call	_ZN8UnitTest11CurrentTest7ResultsEv@PLT
 7233      00
 7234 32bd 488B00   		movq	(%rax), %rax
 7235 32c0 488B8D90 		movq	-1648(%rbp), %rcx
 7235      F9FFFF
 7236 32c7 488D1500 		leaq	.LC76(%rip), %rdx
 7236      000000
 7237 32ce 4889CE   		movq	%rcx, %rsi
 7238 32d1 4889C7   		movq	%rax, %rdi
 7239 32d4 E8000000 		call	_ZN8UnitTest11TestResults13OnTestFailureERKNS_11TestDetailsEPKc@PLT
 7239      00
 7240              	.LEHE174:
 7241              	.LEHB175:
  38:../ExecuteTest.h **** 	{
 7242              		.loc 8 38 0
 7243 32d9 E8000000 		call	__cxa_end_catch@PLT
 7243      00
 7244              		.loc 8 42 0
 7245 32de EB4D     		jmp	.L357
 7246              	.L373:
 7247 32e0 4889C3   		movq	%rax, %rbx
 7248              	.LBB104:
  27:../ExecuteTest.h **** 	{
 7249              		.loc 8 27 0
 7250 32e3 E8000000 		call	__cxa_end_catch@PLT
 7250      00
 7251 32e8 4889D8   		movq	%rbx, %rax
 7252 32eb 4889C7   		movq	%rax, %rdi
 7253 32ee E8000000 		call	_Unwind_Resume@PLT
 7253      00
 7254              	.LEHE175:
 7255              	.L375:
 7256 32f3 4889C3   		movq	%rax, %rbx
 7257              	.LBE104:
 7258              	.LBB105:
 7259              	.LBB103:
  34:../ExecuteTest.h **** 		stream << "Unhandled exception: " << e.what();
 7260              		.loc 8 34 0
 7261 32f6 488D85D0 		leaq	-1584(%rbp), %rax
 7261      F9FFFF
 7262 32fd 4889C7   		movq	%rax, %rdi
 7263 3300 E8000000 		call	_ZN8UnitTest15MemoryOutStreamD1Ev
 7263      00
 7264 3305 EB03     		jmp	.L368
 7265              	.L374:
 7266 3307 4889C3   		movq	%rax, %rbx
 7267              	.L368:
 7268              	.LBE103:
  32:../ExecuteTest.h **** 	{
 7269              		.loc 8 32 0
 7270 330a E8000000 		call	__cxa_end_catch@PLT
 7270      00
 7271 330f 4889D8   		movq	%rbx, %rax
 7272 3312 4889C7   		movq	%rax, %rdi
 7273              	.LEHB176:
 7274 3315 E8000000 		call	_Unwind_Resume@PLT
 7274      00
 7275              	.LEHE176:
 7276              	.L376:
 7277 331a 4889C3   		movq	%rax, %rbx
 7278              	.LBE105:
  38:../ExecuteTest.h **** 	{
 7279              		.loc 8 38 0
 7280 331d E8000000 		call	__cxa_end_catch@PLT
 7280      00
 7281 3322 4889D8   		movq	%rbx, %rax
 7282 3325 4889C7   		movq	%rax, %rdi
 7283              	.LEHB177:
 7284 3328 E8000000 		call	_Unwind_Resume@PLT
 7284      00
 7285              	.LEHE177:
 7286              	.L357:
 7287              		.loc 8 42 0
 7288 332d 488B45D8 		movq	-40(%rbp), %rax
 7289 3331 64483304 		xorq	%fs:40, %rax
 7289      25280000 
 7289      00
 7290 333a 7405     		je	.L370
 7291 333c E8000000 		call	__stack_chk_fail@PLT
 7291      00
 7292              	.L370:
 7293 3341 4881C458 		addq	$1624, %rsp
 7293      060000
 7294 3348 5B       		popq	%rbx
 7295 3349 415C     		popq	%r12
 7296 334b 415D     		popq	%r13
 7297 334d 5D       		popq	%rbp
 7298              		.cfi_def_cfa 7, 8
 7299 334e C3       		ret
 7300              		.cfi_endproc
 7301              	.LFE1261:
 7302              		.section	.gcc_except_table
 7303              		.align 4
 7304              	.LLSDA1261:
 7305 04a0 FF       		.byte	0xff
 7306 04a1 9B       		.byte	0x9b
 7307 04a2 59       		.uleb128 .LLSDATT1261-.LLSDATTD1261
 7308              	.LLSDATTD1261:
 7309 04a3 01       		.byte	0x1
 7310 04a4 43       		.uleb128 .LLSDACSE1261-.LLSDACSB1261
 7311              	.LLSDACSB1261:
 7312 04a5 2D       		.uleb128 .LEHB166-.LFB1261
 7313 04a6 05       		.uleb128 .LEHE166-.LEHB166
 7314 04a7 00       		.uleb128 0
 7315 04a8 00       		.uleb128 0
 7316 04a9 49       		.uleb128 .LEHB167-.LFB1261
 7317 04aa 05       		.uleb128 .LEHE167-.LEHB167
 7318 04ab D301     		.uleb128 .L371-.LFB1261
 7319 04ad 05       		.uleb128 0x5
 7320 04ae 8E01     		.uleb128 .LEHB168-.LFB1261
 7321 04b0 05       		.uleb128 .LEHE168-.LEHB168
 7322 04b1 B601     		.uleb128 .L372-.LFB1261
 7323 04b3 07       		.uleb128 0x7
 7324 04b4 AC01     		.uleb128 .LEHB169-.LFB1261
 7325 04b6 05       		.uleb128 .LEHE169-.LEHB169
 7326 04b7 D301     		.uleb128 .L371-.LFB1261
 7327 04b9 05       		.uleb128 0x5
 7328 04ba F701     		.uleb128 .LEHB170-.LFB1261
 7329 04bc 8801     		.uleb128 .LEHE170-.LEHB170
 7330 04be DA04     		.uleb128 .L373-.LFB1261
 7331 04c0 00       		.uleb128 0
 7332 04c1 A203     		.uleb128 .LEHB171-.LFB1261
 7333 04c3 05       		.uleb128 .LEHE171-.LEHB171
 7334 04c4 8105     		.uleb128 .L374-.LFB1261
 7335 04c6 00       		.uleb128 0
 7336 04c7 B803     		.uleb128 .LEHB172-.LFB1261
 7337 04c9 5C       		.uleb128 .LEHE172-.LEHB172
 7338 04ca ED04     		.uleb128 .L375-.LFB1261
 7339 04cc 00       		.uleb128 0
 7340 04cd 9E04     		.uleb128 .LEHB173-.LFB1261
 7341 04cf 05       		.uleb128 .LEHE173-.LEHB173
 7342 04d0 8105     		.uleb128 .L374-.LFB1261
 7343 04d2 00       		.uleb128 0
 7344 04d3 B204     		.uleb128 .LEHB174-.LFB1261
 7345 04d5 21       		.uleb128 .LEHE174-.LEHB174
 7346 04d6 9405     		.uleb128 .L376-.LFB1261
 7347 04d8 00       		.uleb128 0
 7348 04d9 D304     		.uleb128 .LEHB175-.LFB1261
 7349 04db 1A       		.uleb128 .LEHE175-.LEHB175
 7350 04dc 00       		.uleb128 0
 7351 04dd 00       		.uleb128 0
 7352 04de 8F05     		.uleb128 .LEHB176-.LFB1261
 7353 04e0 05       		.uleb128 .LEHE176-.LEHB176
 7354 04e1 00       		.uleb128 0
 7355 04e2 00       		.uleb128 0
 7356 04e3 A205     		.uleb128 .LEHB177-.LFB1261
 7357 04e5 05       		.uleb128 .LEHE177-.LEHB177
 7358 04e6 00       		.uleb128 0
 7359 04e7 00       		.uleb128 0
 7360              	.LLSDACSE1261:
 7361 04e8 03       		.byte	0x3
 7362 04e9 00       		.byte	0
 7363 04ea 02       		.byte	0x2
 7364 04eb 7D       		.byte	0x7d
 7365 04ec 01       		.byte	0x1
 7366 04ed 7D       		.byte	0x7d
 7367 04ee 00       		.byte	0
 7368 04ef 7D       		.byte	0x7d
 7369              		.align 4
 7370 04f0 00000000 		.long	0
 7371              	
 7372 04f4 00000000 		.long	DW.ref._ZTISt9exception-.
 7373 04f8 00000000 		.long	DW.ref._ZTIN8UnitTest15AssertExceptionE-.
 7374              	.LLSDATT1261:
 7375              		.text
 7377              		.section	.text._ZN8UnitTest5CheckIPcEEbT_,"axG",@progbits,_ZN8UnitTest5CheckIPcEEbT_,comdat
 7378              		.weak	_ZN8UnitTest5CheckIPcEEbT_
 7380              	_ZN8UnitTest5CheckIPcEEbT_:
 7381              	.LFB1263:
  12:../Checks.h   **** {
 7382              		.loc 7 12 0
 7383              		.cfi_startproc
 7384 0000 55       		pushq	%rbp
 7385              		.cfi_def_cfa_offset 16
 7386              		.cfi_offset 6, -16
 7387 0001 4889E5   		movq	%rsp, %rbp
 7388              		.cfi_def_cfa_register 6
 7389 0004 48897DF8 		movq	%rdi, -8(%rbp)
  14:../Checks.h   **** }
 7390              		.loc 7 14 0
 7391 0008 48837DF8 		cmpq	$0, -8(%rbp)
 7391      00
 7392 000d 0F95C0   		setne	%al
 7393              		.loc 7 15 0
 7394 0010 5D       		popq	%rbp
 7395              		.cfi_def_cfa 7, 8
 7396 0011 C3       		ret
 7397              		.cfi_endproc
 7398              	.LFE1263:
 7400              		.text
 7402              	_ZN8UnitTest11ExecuteTestIN12_GLOBAL__N_115SuiteTestSuite165DummyFixtureSimilarlyNamedFixtureTestsI
 7403              	.LFB1264:
  16:../ExecuteTest.h **** {
 7404              		.loc 8 16 0
 7405              		.cfi_startproc
 7406              		.cfi_personality 0x9b,DW.ref.__gxx_personality_v0
 7407              		.cfi_lsda 0x1b,.LLSDA1264
 7408 334f 55       		pushq	%rbp
 7409              		.cfi_def_cfa_offset 16
 7410              		.cfi_offset 6, -16
 7411 3350 4889E5   		movq	%rsp, %rbp
 7412              		.cfi_def_cfa_register 6
 7413 3353 4155     		pushq	%r13
 7414 3355 4154     		pushq	%r12
 7415 3357 53       		pushq	%rbx
 7416 3358 4881EC58 		subq	$1624, %rsp
 7416      060000
 7417              		.cfi_offset 13, -24
 7418              		.cfi_offset 12, -32
 7419              		.cfi_offset 3, -40
 7420 335f 4889BD98 		movq	%rdi, -1640(%rbp)
 7420      F9FFFF
 7421 3366 4889B590 		movq	%rsi, -1648(%rbp)
 7421      F9FFFF
  16:../ExecuteTest.h **** {
 7422              		.loc 8 16 0
 7423 336d 64488B04 		movq	%fs:40, %rax
 7423      25280000 
 7423      00
 7424 3376 488945D8 		movq	%rax, -40(%rbp)
 7425 337a 31C0     		xorl	%eax, %eax
 7426              	.LEHB178:
  18:../ExecuteTest.h **** 
 7427              		.loc 8 18 0
 7428 337c E8000000 		call	_ZN8UnitTest11CurrentTest7DetailsEv@PLT
 7428      00
 7429              	.LEHE178:
 7430 3381 4889C2   		movq	%rax, %rdx
 7431 3384 488B8590 		movq	-1648(%rbp), %rax
 7431      F9FFFF
 7432 338b 488902   		movq	%rax, (%rdx)
 7433              	.LBB106:
  23:../ExecuteTest.h **** #endif
 7434              		.loc 8 23 0
 7435 338e 488D8570 		leaq	-1168(%rbp), %rax
 7435      FBFFFF
 7436 3395 4889C7   		movq	%rax, %rdi
 7437              	.LEHB179:
 7438 3398 E8000000 		call	_ZN8UnitTest16SignalTranslatorC1Ev@PLT
 7438      00
 7439              	.LEHE179:
  23:../ExecuteTest.h **** #endif
 7440              		.loc 8 23 0 is_stmt 0 discriminator 1
 7441 339d 488B0500 		movq	_ZN8UnitTest16SignalTranslator12s_jumpTargetE(%rip), %rax
 7441      000000
 7442 33a4 BE010000 		movl	$1, %esi
 7442      00
 7443 33a9 4889C7   		movq	%rax, %rdi
 7444 33ac E8000000 		call	__sigsetjmp@PLT
 7444      00
 7445 33b1 85C0     		testl	%eax, %eax
 7446 33b3 0F95C0   		setne	%al
 7447 33b6 84C0     		testb	%al, %al
 7448 33b8 7428     		je	.L382
  23:../ExecuteTest.h **** #endif
 7449              		.loc 8 23 0 discriminator 4
 7450 33ba BF080000 		movl	$8, %edi
 7450      00
 7451 33bf E8000000 		call	__cxa_allocate_exception@PLT
 7451      00
 7452 33c4 488D1500 		leaq	.LC75(%rip), %rdx
 7452      000000
 7453 33cb 488910   		movq	%rdx, (%rax)
 7454 33ce BA000000 		movl	$0, %edx
 7454      00
 7455 33d3 488D3500 		leaq	_ZTIPKc(%rip), %rsi
 7455      000000
 7456 33da 4889C7   		movq	%rax, %rdi
 7457              	.LEHB180:
 7458 33dd E8000000 		call	__cxa_throw@PLT
 7458      00
 7459              	.LEHE180:
 7460              	.L382:
  25:../ExecuteTest.h **** 	}
 7461              		.loc 8 25 0 is_stmt 1
 7462 33e2 488B8598 		movq	-1640(%rbp), %rax
 7462      F9FFFF
 7463 33e9 4889C7   		movq	%rax, %rdi
 7464 33ec E869D9FF 		call	_ZN12_GLOBAL__N_115SuiteTestSuite165DummyFixtureSimilarlyNamedFixtureTestsInDifferentSuitesWo
 7464      FF
  23:../ExecuteTest.h **** #endif
 7465              		.loc 8 23 0
 7466 33f1 488D8570 		leaq	-1168(%rbp), %rax
 7466      FBFFFF
 7467 33f8 4889C7   		movq	%rax, %rdi
 7468              	.LEHB181:
 7469 33fb E8000000 		call	_ZN8UnitTest16SignalTranslatorD1Ev@PLT
 7469      00
 7470              	.LEHE181:
 7471              	.LBE106:
 7472              		.loc 8 42 0
 7473 3400 E9F10100 		jmp	.L380
 7473      00
 7474              	.L395:
 7475 3405 4989C4   		movq	%rax, %r12
 7476 3408 4889D3   		movq	%rdx, %rbx
 7477              	.LBB107:
  23:../ExecuteTest.h **** #endif
 7478              		.loc 8 23 0
 7479 340b 488D8570 		leaq	-1168(%rbp), %rax
 7479      FBFFFF
 7480 3412 4889C7   		movq	%rax, %rdi
 7481 3415 E8000000 		call	_ZN8UnitTest16SignalTranslatorD1Ev@PLT
 7481      00
 7482 341a 4C89E0   		movq	%r12, %rax
 7483 341d 4889DA   		movq	%rbx, %rdx
 7484 3420 EB00     		jmp	.L384
 7485              	.L394:
 7486              	.L384:
 7487 3422 4883FA01 		cmpq	$1, %rdx
 7488 3426 740F     		je	.L386
 7489 3428 4883FA02 		cmpq	$2, %rdx
 7490 342c 0F84A600 		je	.L387
 7490      0000
 7491 3432 E9420100 		jmp	.L400
 7491      00
 7492              	.L386:
 7493              	.LBE107:
 7494              	.LBB108:
  27:../ExecuteTest.h **** 	{
 7495              		.loc 8 27 0
 7496 3437 4889C7   		movq	%rax, %rdi
 7497 343a E8000000 		call	__cxa_begin_catch@PLT
 7497      00
 7498 343f 488985A8 		movq	%rax, -1624(%rbp)
 7498      F9FFFF
 7499              	.LEHB182:
  29:../ExecuteTest.h **** 			TestDetails(details.testName, details.suiteName, e.Filename(), e.LineNumber()), e.what());
 7500              		.loc 8 29 0
 7501 3446 E8000000 		call	_ZN8UnitTest11CurrentTest7ResultsEv@PLT
 7501      00
  29:../ExecuteTest.h **** 			TestDetails(details.testName, details.suiteName, e.Filename(), e.LineNumber()), e.what());
 7502              		.loc 8 29 0 is_stmt 0 discriminator 1
 7503 344b 488B18   		movq	(%rax), %rbx
  30:../ExecuteTest.h **** 	}
 7504              		.loc 8 30 0 is_stmt 1 discriminator 1
 7505 344e 488B85A8 		movq	-1624(%rbp), %rax
 7505      F9FFFF
 7506 3455 488B00   		movq	(%rax), %rax
 7507 3458 4883C010 		addq	$16, %rax
 7508 345c 488B00   		movq	(%rax), %rax
  29:../ExecuteTest.h **** 			TestDetails(details.testName, details.suiteName, e.Filename(), e.LineNumber()), e.what());
 7509              		.loc 8 29 0 discriminator 1
 7510 345f 488B95A8 		movq	-1624(%rbp), %rdx
 7510      F9FFFF
 7511 3466 4889D7   		movq	%rdx, %rdi
 7512 3469 FFD0     		call	*%rax
 7513              	.LVL16:
 7514 346b 4989C4   		movq	%rax, %r12
 7515 346e 488B85A8 		movq	-1624(%rbp), %rax
 7515      F9FFFF
 7516 3475 4889C7   		movq	%rax, %rdi
 7517 3478 E8000000 		call	_ZNK8UnitTest15AssertException10LineNumberEv@PLT
 7517      00
  29:../ExecuteTest.h **** 			TestDetails(details.testName, details.suiteName, e.Filename(), e.LineNumber()), e.what());
 7518              		.loc 8 29 0 is_stmt 0 discriminator 2
 7519 347d 4189C5   		movl	%eax, %r13d
 7520 3480 488B85A8 		movq	-1624(%rbp), %rax
 7520      F9FFFF
 7521 3487 4889C7   		movq	%rax, %rdi
 7522 348a E8000000 		call	_ZNK8UnitTest15AssertException8FilenameEv@PLT
 7522      00
  29:../ExecuteTest.h **** 			TestDetails(details.testName, details.suiteName, e.Filename(), e.LineNumber()), e.what());
 7523              		.loc 8 29 0 discriminator 3
 7524 348f 4889C1   		movq	%rax, %rcx
  30:../ExecuteTest.h **** 	}
 7525              		.loc 8 30 0 is_stmt 1 discriminator 3
 7526 3492 488B8590 		movq	-1648(%rbp), %rax
 7526      F9FFFF
 7527 3499 488B10   		movq	(%rax), %rdx
 7528 349c 488B8590 		movq	-1648(%rbp), %rax
 7528      F9FFFF
 7529 34a3 488B7008 		movq	8(%rax), %rsi
  29:../ExecuteTest.h **** 			TestDetails(details.testName, details.suiteName, e.Filename(), e.LineNumber()), e.what());
 7530              		.loc 8 29 0 discriminator 3
 7531 34a7 488D85B0 		leaq	-1616(%rbp), %rax
 7531      F9FFFF
 7532 34ae 4589E8   		movl	%r13d, %r8d
 7533 34b1 4889C7   		movq	%rax, %rdi
 7534 34b4 E8000000 		call	_ZN8UnitTest11TestDetailsC1EPKcS2_S2_i@PLT
 7534      00
  29:../ExecuteTest.h **** 			TestDetails(details.testName, details.suiteName, e.Filename(), e.LineNumber()), e.what());
 7535              		.loc 8 29 0 is_stmt 0 discriminator 5
 7536 34b9 488D85B0 		leaq	-1616(%rbp), %rax
 7536      F9FFFF
 7537 34c0 4C89E2   		movq	%r12, %rdx
 7538 34c3 4889C6   		movq	%rax, %rsi
 7539 34c6 4889DF   		movq	%rbx, %rdi
 7540 34c9 E8000000 		call	_ZN8UnitTest11TestResults13OnTestFailureERKNS_11TestDetailsEPKc@PLT
 7540      00
 7541              	.LEHE182:
  27:../ExecuteTest.h **** 	{
 7542              		.loc 8 27 0 is_stmt 1 discriminator 7
 7543 34ce E8000000 		call	__cxa_end_catch@PLT
 7543      00
 7544              	.LBE108:
 7545              		.loc 8 42 0 discriminator 7
 7546 34d3 E91E0100 		jmp	.L380
 7546      00
 7547              	.L387:
 7548              	.LBB109:
  32:../ExecuteTest.h **** 	{
 7549              		.loc 8 32 0
 7550 34d8 4889C7   		movq	%rax, %rdi
 7551 34db E8000000 		call	__cxa_begin_catch@PLT
 7551      00
 7552 34e0 488985A0 		movq	%rax, -1632(%rbp)
 7552      F9FFFF
 7553              	.LBB110:
  34:../ExecuteTest.h **** 		stream << "Unhandled exception: " << e.what();
 7554              		.loc 8 34 0
 7555 34e7 488D85D0 		leaq	-1584(%rbp), %rax
 7555      F9FFFF
 7556 34ee 4889C7   		movq	%rax, %rdi
 7557              	.LEHB183:
 7558 34f1 E8000000 		call	_ZN8UnitTest15MemoryOutStreamC1Ev
 7558      00
 7559              	.LEHE183:
  35:../ExecuteTest.h **** 		CurrentTest::Results()->OnTestFailure(details, stream.GetText());
 7560              		.loc 8 35 0
 7561 34f6 488D85D0 		leaq	-1584(%rbp), %rax
 7561      F9FFFF
 7562 34fd 488D3500 		leaq	.LC11(%rip), %rsi
 7562      000000
 7563 3504 4889C7   		movq	%rax, %rdi
 7564              	.LEHB184:
 7565 3507 E8000000 		call	_ZStlsISt11char_traitsIcEERSt13basic_ostreamIcT_ES5_PKc@PLT
 7565      00
 7566 350c 4889C3   		movq	%rax, %rbx
 7567 350f 488B85A0 		movq	-1632(%rbp), %rax
 7567      F9FFFF
 7568 3516 488B00   		movq	(%rax), %rax
 7569 3519 4883C010 		addq	$16, %rax
 7570 351d 488B00   		movq	(%rax), %rax
 7571 3520 488B95A0 		movq	-1632(%rbp), %rdx
 7571      F9FFFF
 7572 3527 4889D7   		movq	%rdx, %rdi
 7573 352a FFD0     		call	*%rax
 7574              	.LVL17:
 7575 352c 4889C6   		movq	%rax, %rsi
 7576 352f 4889DF   		movq	%rbx, %rdi
 7577 3532 E8000000 		call	_ZStlsISt11char_traitsIcEERSt13basic_ostreamIcT_ES5_PKc@PLT
 7577      00
  36:../ExecuteTest.h **** 	}
 7578              		.loc 8 36 0
 7579 3537 E8000000 		call	_ZN8UnitTest11CurrentTest7ResultsEv@PLT
 7579      00
 7580 353c 488B18   		movq	(%rax), %rbx
 7581 353f 488D85D0 		leaq	-1584(%rbp), %rax
 7581      F9FFFF
 7582 3546 4889C7   		movq	%rax, %rdi
 7583 3549 E8000000 		call	_ZNK8UnitTest15MemoryOutStream7GetTextEv@PLT
 7583      00
  36:../ExecuteTest.h **** 	}
 7584              		.loc 8 36 0 is_stmt 0 discriminator 1
 7585 354e 4889C2   		movq	%rax, %rdx
 7586 3551 488B8590 		movq	-1648(%rbp), %rax
 7586      F9FFFF
 7587 3558 4889C6   		movq	%rax, %rsi
 7588 355b 4889DF   		movq	%rbx, %rdi
 7589 355e E8000000 		call	_ZN8UnitTest11TestResults13OnTestFailureERKNS_11TestDetailsEPKc@PLT
 7589      00
 7590              	.LEHE184:
  34:../ExecuteTest.h **** 		stream << "Unhandled exception: " << e.what();
 7591              		.loc 8 34 0 is_stmt 1
 7592 3563 488D85D0 		leaq	-1584(%rbp), %rax
 7592      F9FFFF
 7593 356a 4889C7   		movq	%rax, %rdi
 7594              	.LEHB185:
 7595 356d E8000000 		call	_ZN8UnitTest15MemoryOutStreamD1Ev
 7595      00
 7596              	.LEHE185:
 7597              	.LBE110:
  32:../ExecuteTest.h **** 	{
 7598              		.loc 8 32 0
 7599 3572 E8000000 		call	__cxa_end_catch@PLT
 7599      00
 7600              	.LBE109:
 7601              		.loc 8 42 0
 7602 3577 EB7D     		jmp	.L380
 7603              	.L400:
  38:../ExecuteTest.h **** 	{
 7604              		.loc 8 38 0
 7605 3579 4889C7   		movq	%rax, %rdi
 7606 357c E8000000 		call	__cxa_begin_catch@PLT
 7606      00
 7607              	.LEHB186:
  40:../ExecuteTest.h **** 	}
 7608              		.loc 8 40 0
 7609 3581 E8000000 		call	_ZN8UnitTest11CurrentTest7ResultsEv@PLT
 7609      00
 7610 3586 488B00   		movq	(%rax), %rax
 7611 3589 488B8D90 		movq	-1648(%rbp), %rcx
 7611      F9FFFF
 7612 3590 488D1500 		leaq	.LC76(%rip), %rdx
 7612      000000
 7613 3597 4889CE   		movq	%rcx, %rsi
 7614 359a 4889C7   		movq	%rax, %rdi
 7615 359d E8000000 		call	_ZN8UnitTest11TestResults13OnTestFailureERKNS_11TestDetailsEPKc@PLT
 7615      00
 7616              	.LEHE186:
 7617              	.LEHB187:
  38:../ExecuteTest.h **** 	{
 7618              		.loc 8 38 0
 7619 35a2 E8000000 		call	__cxa_end_catch@PLT
 7619      00
 7620              		.loc 8 42 0
 7621 35a7 EB4D     		jmp	.L380
 7622              	.L396:
 7623 35a9 4889C3   		movq	%rax, %rbx
 7624              	.LBB112:
  27:../ExecuteTest.h **** 	{
 7625              		.loc 8 27 0
 7626 35ac E8000000 		call	__cxa_end_catch@PLT
 7626      00
 7627 35b1 4889D8   		movq	%rbx, %rax
 7628 35b4 4889C7   		movq	%rax, %rdi
 7629 35b7 E8000000 		call	_Unwind_Resume@PLT
 7629      00
 7630              	.LEHE187:
 7631              	.L398:
 7632 35bc 4889C3   		movq	%rax, %rbx
 7633              	.LBE112:
 7634              	.LBB113:
 7635              	.LBB111:
  34:../ExecuteTest.h **** 		stream << "Unhandled exception: " << e.what();
 7636              		.loc 8 34 0
 7637 35bf 488D85D0 		leaq	-1584(%rbp), %rax
 7637      F9FFFF
 7638 35c6 4889C7   		movq	%rax, %rdi
 7639 35c9 E8000000 		call	_ZN8UnitTest15MemoryOutStreamD1Ev
 7639      00
 7640 35ce EB03     		jmp	.L391
 7641              	.L397:
 7642 35d0 4889C3   		movq	%rax, %rbx
 7643              	.L391:
 7644              	.LBE111:
  32:../ExecuteTest.h **** 	{
 7645              		.loc 8 32 0
 7646 35d3 E8000000 		call	__cxa_end_catch@PLT
 7646      00
 7647 35d8 4889D8   		movq	%rbx, %rax
 7648 35db 4889C7   		movq	%rax, %rdi
 7649              	.LEHB188:
 7650 35de E8000000 		call	_Unwind_Resume@PLT
 7650      00
 7651              	.LEHE188:
 7652              	.L399:
 7653 35e3 4889C3   		movq	%rax, %rbx
 7654              	.LBE113:
  38:../ExecuteTest.h **** 	{
 7655              		.loc 8 38 0
 7656 35e6 E8000000 		call	__cxa_end_catch@PLT
 7656      00
 7657 35eb 4889D8   		movq	%rbx, %rax
 7658 35ee 4889C7   		movq	%rax, %rdi
 7659              	.LEHB189:
 7660 35f1 E8000000 		call	_Unwind_Resume@PLT
 7660      00
 7661              	.LEHE189:
 7662              	.L380:
 7663              		.loc 8 42 0
 7664 35f6 488B45D8 		movq	-40(%rbp), %rax
 7665 35fa 64483304 		xorq	%fs:40, %rax
 7665      25280000 
 7665      00
 7666 3603 7405     		je	.L393
 7667 3605 E8000000 		call	__stack_chk_fail@PLT
 7667      00
 7668              	.L393:
 7669 360a 4881C458 		addq	$1624, %rsp
 7669      060000
 7670 3611 5B       		popq	%rbx
 7671 3612 415C     		popq	%r12
 7672 3614 415D     		popq	%r13
 7673 3616 5D       		popq	%rbp
 7674              		.cfi_def_cfa 7, 8
 7675 3617 C3       		ret
 7676              		.cfi_endproc
 7677              	.LFE1264:
 7678              		.section	.gcc_except_table
 7679              		.align 4
 7680              	.LLSDA1264:
 7681 04fc FF       		.byte	0xff
 7682 04fd 9B       		.byte	0x9b
 7683 04fe 59       		.uleb128 .LLSDATT1264-.LLSDATTD1264
 7684              	.LLSDATTD1264:
 7685 04ff 01       		.byte	0x1
 7686 0500 43       		.uleb128 .LLSDACSE1264-.LLSDACSB1264
 7687              	.LLSDACSB1264:
 7688 0501 2D       		.uleb128 .LEHB178-.LFB1264
 7689 0502 05       		.uleb128 .LEHE178-.LEHB178
 7690 0503 00       		.uleb128 0
 7691 0504 00       		.uleb128 0
 7692 0505 49       		.uleb128 .LEHB179-.LFB1264
 7693 0506 05       		.uleb128 .LEHE179-.LEHB179
 7694 0507 D301     		.uleb128 .L394-.LFB1264
 7695 0509 05       		.uleb128 0x5
 7696 050a 8E01     		.uleb128 .LEHB180-.LFB1264
 7697 050c 05       		.uleb128 .LEHE180-.LEHB180
 7698 050d B601     		.uleb128 .L395-.LFB1264
 7699 050f 07       		.uleb128 0x7
 7700 0510 AC01     		.uleb128 .LEHB181-.LFB1264
 7701 0512 05       		.uleb128 .LEHE181-.LEHB181
 7702 0513 D301     		.uleb128 .L394-.LFB1264
 7703 0515 05       		.uleb128 0x5
 7704 0516 F701     		.uleb128 .LEHB182-.LFB1264
 7705 0518 8801     		.uleb128 .LEHE182-.LEHB182
 7706 051a DA04     		.uleb128 .L396-.LFB1264
 7707 051c 00       		.uleb128 0
 7708 051d A203     		.uleb128 .LEHB183-.LFB1264
 7709 051f 05       		.uleb128 .LEHE183-.LEHB183
 7710 0520 8105     		.uleb128 .L397-.LFB1264
 7711 0522 00       		.uleb128 0
 7712 0523 B803     		.uleb128 .LEHB184-.LFB1264
 7713 0525 5C       		.uleb128 .LEHE184-.LEHB184
 7714 0526 ED04     		.uleb128 .L398-.LFB1264
 7715 0528 00       		.uleb128 0
 7716 0529 9E04     		.uleb128 .LEHB185-.LFB1264
 7717 052b 05       		.uleb128 .LEHE185-.LEHB185
 7718 052c 8105     		.uleb128 .L397-.LFB1264
 7719 052e 00       		.uleb128 0
 7720 052f B204     		.uleb128 .LEHB186-.LFB1264
 7721 0531 21       		.uleb128 .LEHE186-.LEHB186
 7722 0532 9405     		.uleb128 .L399-.LFB1264
 7723 0534 00       		.uleb128 0
 7724 0535 D304     		.uleb128 .LEHB187-.LFB1264
 7725 0537 1A       		.uleb128 .LEHE187-.LEHB187
 7726 0538 00       		.uleb128 0
 7727 0539 00       		.uleb128 0
 7728 053a 8F05     		.uleb128 .LEHB188-.LFB1264
 7729 053c 05       		.uleb128 .LEHE188-.LEHB188
 7730 053d 00       		.uleb128 0
 7731 053e 00       		.uleb128 0
 7732 053f A205     		.uleb128 .LEHB189-.LFB1264
 7733 0541 05       		.uleb128 .LEHE189-.LEHB189
 7734 0542 00       		.uleb128 0
 7735 0543 00       		.uleb128 0
 7736              	.LLSDACSE1264:
 7737 0544 03       		.byte	0x3
 7738 0545 00       		.byte	0
 7739 0546 02       		.byte	0x2
 7740 0547 7D       		.byte	0x7d
 7741 0548 01       		.byte	0x1
 7742 0549 7D       		.byte	0x7d
 7743 054a 00       		.byte	0
 7744 054b 7D       		.byte	0x7d
 7745              		.align 4
 7746 054c 00000000 		.long	0
 7747              	
 7748 0550 00000000 		.long	DW.ref._ZTISt9exception-.
 7749 0554 00000000 		.long	DW.ref._ZTIN8UnitTest15AssertExceptionE-.
 7750              	.LLSDATT1264:
 7751              		.text
 7754              	_ZN8UnitTest11ExecuteTestIN12_GLOBAL__N_115SuiteTestSuite265DummyFixtureSimilarlyNamedFixtureTestsI
 7755              	.LFB1265:
  16:../ExecuteTest.h **** {
 7756              		.loc 8 16 0
 7757              		.cfi_startproc
 7758              		.cfi_personality 0x9b,DW.ref.__gxx_personality_v0
 7759              		.cfi_lsda 0x1b,.LLSDA1265
 7760 3618 55       		pushq	%rbp
 7761              		.cfi_def_cfa_offset 16
 7762              		.cfi_offset 6, -16
 7763 3619 4889E5   		movq	%rsp, %rbp
 7764              		.cfi_def_cfa_register 6
 7765 361c 4155     		pushq	%r13
 7766 361e 4154     		pushq	%r12
 7767 3620 53       		pushq	%rbx
 7768 3621 4881EC58 		subq	$1624, %rsp
 7768      060000
 7769              		.cfi_offset 13, -24
 7770              		.cfi_offset 12, -32
 7771              		.cfi_offset 3, -40
 7772 3628 4889BD98 		movq	%rdi, -1640(%rbp)
 7772      F9FFFF
 7773 362f 4889B590 		movq	%rsi, -1648(%rbp)
 7773      F9FFFF
  16:../ExecuteTest.h **** {
 7774              		.loc 8 16 0
 7775 3636 64488B04 		movq	%fs:40, %rax
 7775      25280000 
 7775      00
 7776 363f 488945D8 		movq	%rax, -40(%rbp)
 7777 3643 31C0     		xorl	%eax, %eax
 7778              	.LEHB190:
  18:../ExecuteTest.h **** 
 7779              		.loc 8 18 0
 7780 3645 E8000000 		call	_ZN8UnitTest11CurrentTest7DetailsEv@PLT
 7780      00
 7781              	.LEHE190:
 7782 364a 4889C2   		movq	%rax, %rdx
 7783 364d 488B8590 		movq	-1648(%rbp), %rax
 7783      F9FFFF
 7784 3654 488902   		movq	%rax, (%rdx)
 7785              	.LBB114:
  23:../ExecuteTest.h **** #endif
 7786              		.loc 8 23 0
 7787 3657 488D8570 		leaq	-1168(%rbp), %rax
 7787      FBFFFF
 7788 365e 4889C7   		movq	%rax, %rdi
 7789              	.LEHB191:
 7790 3661 E8000000 		call	_ZN8UnitTest16SignalTranslatorC1Ev@PLT
 7790      00
 7791              	.LEHE191:
  23:../ExecuteTest.h **** #endif
 7792              		.loc 8 23 0 is_stmt 0 discriminator 1
 7793 3666 488B0500 		movq	_ZN8UnitTest16SignalTranslator12s_jumpTargetE(%rip), %rax
 7793      000000
 7794 366d BE010000 		movl	$1, %esi
 7794      00
 7795 3672 4889C7   		movq	%rax, %rdi
 7796 3675 E8000000 		call	__sigsetjmp@PLT
 7796      00
 7797 367a 85C0     		testl	%eax, %eax
 7798 367c 0F95C0   		setne	%al
 7799 367f 84C0     		testb	%al, %al
 7800 3681 7428     		je	.L403
  23:../ExecuteTest.h **** #endif
 7801              		.loc 8 23 0 discriminator 4
 7802 3683 BF080000 		movl	$8, %edi
 7802      00
 7803 3688 E8000000 		call	__cxa_allocate_exception@PLT
 7803      00
 7804 368d 488D1500 		leaq	.LC75(%rip), %rdx
 7804      000000
 7805 3694 488910   		movq	%rdx, (%rax)
 7806 3697 BA000000 		movl	$0, %edx
 7806      00
 7807 369c 488D3500 		leaq	_ZTIPKc(%rip), %rsi
 7807      000000
 7808 36a3 4889C7   		movq	%rax, %rdi
 7809              	.LEHB192:
 7810 36a6 E8000000 		call	__cxa_throw@PLT
 7810      00
 7811              	.LEHE192:
 7812              	.L403:
  25:../ExecuteTest.h **** 	}
 7813              		.loc 8 25 0 is_stmt 1
 7814 36ab 488B8598 		movq	-1640(%rbp), %rax
 7814      F9FFFF
 7815 36b2 4889C7   		movq	%rax, %rdi
 7816 36b5 E85ADAFF 		call	_ZN12_GLOBAL__N_115SuiteTestSuite265DummyFixtureSimilarlyNamedFixtureTestsInDifferentSuitesWo
 7816      FF
  23:../ExecuteTest.h **** #endif
 7817              		.loc 8 23 0
 7818 36ba 488D8570 		leaq	-1168(%rbp), %rax
 7818      FBFFFF
 7819 36c1 4889C7   		movq	%rax, %rdi
 7820              	.LEHB193:
 7821 36c4 E8000000 		call	_ZN8UnitTest16SignalTranslatorD1Ev@PLT
 7821      00
 7822              	.LEHE193:
 7823              	.LBE114:
 7824              		.loc 8 42 0
 7825 36c9 E9F10100 		jmp	.L401
 7825      00
 7826              	.L416:
 7827 36ce 4989C4   		movq	%rax, %r12
 7828 36d1 4889D3   		movq	%rdx, %rbx
 7829              	.LBB115:
  23:../ExecuteTest.h **** #endif
 7830              		.loc 8 23 0
 7831 36d4 488D8570 		leaq	-1168(%rbp), %rax
 7831      FBFFFF
 7832 36db 4889C7   		movq	%rax, %rdi
 7833 36de E8000000 		call	_ZN8UnitTest16SignalTranslatorD1Ev@PLT
 7833      00
 7834 36e3 4C89E0   		movq	%r12, %rax
 7835 36e6 4889DA   		movq	%rbx, %rdx
 7836 36e9 EB00     		jmp	.L405
 7837              	.L415:
 7838              	.L405:
 7839 36eb 4883FA01 		cmpq	$1, %rdx
 7840 36ef 740F     		je	.L407
 7841 36f1 4883FA02 		cmpq	$2, %rdx
 7842 36f5 0F84A600 		je	.L408
 7842      0000
 7843 36fb E9420100 		jmp	.L421
 7843      00
 7844              	.L407:
 7845              	.LBE115:
 7846              	.LBB116:
  27:../ExecuteTest.h **** 	{
 7847              		.loc 8 27 0
 7848 3700 4889C7   		movq	%rax, %rdi
 7849 3703 E8000000 		call	__cxa_begin_catch@PLT
 7849      00
 7850 3708 488985A8 		movq	%rax, -1624(%rbp)
 7850      F9FFFF
 7851              	.LEHB194:
  29:../ExecuteTest.h **** 			TestDetails(details.testName, details.suiteName, e.Filename(), e.LineNumber()), e.what());
 7852              		.loc 8 29 0
 7853 370f E8000000 		call	_ZN8UnitTest11CurrentTest7ResultsEv@PLT
 7853      00
  29:../ExecuteTest.h **** 			TestDetails(details.testName, details.suiteName, e.Filename(), e.LineNumber()), e.what());
 7854              		.loc 8 29 0 is_stmt 0 discriminator 1
 7855 3714 488B18   		movq	(%rax), %rbx
  30:../ExecuteTest.h **** 	}
 7856              		.loc 8 30 0 is_stmt 1 discriminator 1
 7857 3717 488B85A8 		movq	-1624(%rbp), %rax
 7857      F9FFFF
 7858 371e 488B00   		movq	(%rax), %rax
 7859 3721 4883C010 		addq	$16, %rax
 7860 3725 488B00   		movq	(%rax), %rax
  29:../ExecuteTest.h **** 			TestDetails(details.testName, details.suiteName, e.Filename(), e.LineNumber()), e.what());
 7861              		.loc 8 29 0 discriminator 1
 7862 3728 488B95A8 		movq	-1624(%rbp), %rdx
 7862      F9FFFF
 7863 372f 4889D7   		movq	%rdx, %rdi
 7864 3732 FFD0     		call	*%rax
 7865              	.LVL18:
 7866 3734 4989C4   		movq	%rax, %r12
 7867 3737 488B85A8 		movq	-1624(%rbp), %rax
 7867      F9FFFF
 7868 373e 4889C7   		movq	%rax, %rdi
 7869 3741 E8000000 		call	_ZNK8UnitTest15AssertException10LineNumberEv@PLT
 7869      00
  29:../ExecuteTest.h **** 			TestDetails(details.testName, details.suiteName, e.Filename(), e.LineNumber()), e.what());
 7870              		.loc 8 29 0 is_stmt 0 discriminator 2
 7871 3746 4189C5   		movl	%eax, %r13d
 7872 3749 488B85A8 		movq	-1624(%rbp), %rax
 7872      F9FFFF
 7873 3750 4889C7   		movq	%rax, %rdi
 7874 3753 E8000000 		call	_ZNK8UnitTest15AssertException8FilenameEv@PLT
 7874      00
  29:../ExecuteTest.h **** 			TestDetails(details.testName, details.suiteName, e.Filename(), e.LineNumber()), e.what());
 7875              		.loc 8 29 0 discriminator 3
 7876 3758 4889C1   		movq	%rax, %rcx
  30:../ExecuteTest.h **** 	}
 7877              		.loc 8 30 0 is_stmt 1 discriminator 3
 7878 375b 488B8590 		movq	-1648(%rbp), %rax
 7878      F9FFFF
 7879 3762 488B10   		movq	(%rax), %rdx
 7880 3765 488B8590 		movq	-1648(%rbp), %rax
 7880      F9FFFF
 7881 376c 488B7008 		movq	8(%rax), %rsi
  29:../ExecuteTest.h **** 			TestDetails(details.testName, details.suiteName, e.Filename(), e.LineNumber()), e.what());
 7882              		.loc 8 29 0 discriminator 3
 7883 3770 488D85B0 		leaq	-1616(%rbp), %rax
 7883      F9FFFF
 7884 3777 4589E8   		movl	%r13d, %r8d
 7885 377a 4889C7   		movq	%rax, %rdi
 7886 377d E8000000 		call	_ZN8UnitTest11TestDetailsC1EPKcS2_S2_i@PLT
 7886      00
  29:../ExecuteTest.h **** 			TestDetails(details.testName, details.suiteName, e.Filename(), e.LineNumber()), e.what());
 7887              		.loc 8 29 0 is_stmt 0 discriminator 5
 7888 3782 488D85B0 		leaq	-1616(%rbp), %rax
 7888      F9FFFF
 7889 3789 4C89E2   		movq	%r12, %rdx
 7890 378c 4889C6   		movq	%rax, %rsi
 7891 378f 4889DF   		movq	%rbx, %rdi
 7892 3792 E8000000 		call	_ZN8UnitTest11TestResults13OnTestFailureERKNS_11TestDetailsEPKc@PLT
 7892      00
 7893              	.LEHE194:
  27:../ExecuteTest.h **** 	{
 7894              		.loc 8 27 0 is_stmt 1 discriminator 7
 7895 3797 E8000000 		call	__cxa_end_catch@PLT
 7895      00
 7896              	.LBE116:
 7897              		.loc 8 42 0 discriminator 7
 7898 379c E91E0100 		jmp	.L401
 7898      00
 7899              	.L408:
 7900              	.LBB117:
  32:../ExecuteTest.h **** 	{
 7901              		.loc 8 32 0
 7902 37a1 4889C7   		movq	%rax, %rdi
 7903 37a4 E8000000 		call	__cxa_begin_catch@PLT
 7903      00
 7904 37a9 488985A0 		movq	%rax, -1632(%rbp)
 7904      F9FFFF
 7905              	.LBB118:
  34:../ExecuteTest.h **** 		stream << "Unhandled exception: " << e.what();
 7906              		.loc 8 34 0
 7907 37b0 488D85D0 		leaq	-1584(%rbp), %rax
 7907      F9FFFF
 7908 37b7 4889C7   		movq	%rax, %rdi
 7909              	.LEHB195:
 7910 37ba E8000000 		call	_ZN8UnitTest15MemoryOutStreamC1Ev
 7910      00
 7911              	.LEHE195:
  35:../ExecuteTest.h **** 		CurrentTest::Results()->OnTestFailure(details, stream.GetText());
 7912              		.loc 8 35 0
 7913 37bf 488D85D0 		leaq	-1584(%rbp), %rax
 7913      F9FFFF
 7914 37c6 488D3500 		leaq	.LC11(%rip), %rsi
 7914      000000
 7915 37cd 4889C7   		movq	%rax, %rdi
 7916              	.LEHB196:
 7917 37d0 E8000000 		call	_ZStlsISt11char_traitsIcEERSt13basic_ostreamIcT_ES5_PKc@PLT
 7917      00
 7918 37d5 4889C3   		movq	%rax, %rbx
 7919 37d8 488B85A0 		movq	-1632(%rbp), %rax
 7919      F9FFFF
 7920 37df 488B00   		movq	(%rax), %rax
 7921 37e2 4883C010 		addq	$16, %rax
 7922 37e6 488B00   		movq	(%rax), %rax
 7923 37e9 488B95A0 		movq	-1632(%rbp), %rdx
 7923      F9FFFF
 7924 37f0 4889D7   		movq	%rdx, %rdi
 7925 37f3 FFD0     		call	*%rax
 7926              	.LVL19:
 7927 37f5 4889C6   		movq	%rax, %rsi
 7928 37f8 4889DF   		movq	%rbx, %rdi
 7929 37fb E8000000 		call	_ZStlsISt11char_traitsIcEERSt13basic_ostreamIcT_ES5_PKc@PLT
 7929      00
  36:../ExecuteTest.h **** 	}
 7930              		.loc 8 36 0
 7931 3800 E8000000 		call	_ZN8UnitTest11CurrentTest7ResultsEv@PLT
 7931      00
 7932 3805 488B18   		movq	(%rax), %rbx
 7933 3808 488D85D0 		leaq	-1584(%rbp), %rax
 7933      F9FFFF
 7934 380f 4889C7   		movq	%rax, %rdi
 7935 3812 E8000000 		call	_ZNK8UnitTest15MemoryOutStream7GetTextEv@PLT
 7935      00
  36:../ExecuteTest.h **** 	}
 7936              		.loc 8 36 0 is_stmt 0 discriminator 1
 7937 3817 4889C2   		movq	%rax, %rdx
 7938 381a 488B8590 		movq	-1648(%rbp), %rax
 7938      F9FFFF
 7939 3821 4889C6   		movq	%rax, %rsi
 7940 3824 4889DF   		movq	%rbx, %rdi
 7941 3827 E8000000 		call	_ZN8UnitTest11TestResults13OnTestFailureERKNS_11TestDetailsEPKc@PLT
 7941      00
 7942              	.LEHE196:
  34:../ExecuteTest.h **** 		stream << "Unhandled exception: " << e.what();
 7943              		.loc 8 34 0 is_stmt 1
 7944 382c 488D85D0 		leaq	-1584(%rbp), %rax
 7944      F9FFFF
 7945 3833 4889C7   		movq	%rax, %rdi
 7946              	.LEHB197:
 7947 3836 E8000000 		call	_ZN8UnitTest15MemoryOutStreamD1Ev
 7947      00
 7948              	.LEHE197:
 7949              	.LBE118:
  32:../ExecuteTest.h **** 	{
 7950              		.loc 8 32 0
 7951 383b E8000000 		call	__cxa_end_catch@PLT
 7951      00
 7952              	.LBE117:
 7953              		.loc 8 42 0
 7954 3840 EB7D     		jmp	.L401
 7955              	.L421:
  38:../ExecuteTest.h **** 	{
 7956              		.loc 8 38 0
 7957 3842 4889C7   		movq	%rax, %rdi
 7958 3845 E8000000 		call	__cxa_begin_catch@PLT
 7958      00
 7959              	.LEHB198:
  40:../ExecuteTest.h **** 	}
 7960              		.loc 8 40 0
 7961 384a E8000000 		call	_ZN8UnitTest11CurrentTest7ResultsEv@PLT
 7961      00
 7962 384f 488B00   		movq	(%rax), %rax
 7963 3852 488B8D90 		movq	-1648(%rbp), %rcx
 7963      F9FFFF
 7964 3859 488D1500 		leaq	.LC76(%rip), %rdx
 7964      000000
 7965 3860 4889CE   		movq	%rcx, %rsi
 7966 3863 4889C7   		movq	%rax, %rdi
 7967 3866 E8000000 		call	_ZN8UnitTest11TestResults13OnTestFailureERKNS_11TestDetailsEPKc@PLT
 7967      00
 7968              	.LEHE198:
 7969              	.LEHB199:
  38:../ExecuteTest.h **** 	{
 7970              		.loc 8 38 0
 7971 386b E8000000 		call	__cxa_end_catch@PLT
 7971      00
 7972              		.loc 8 42 0
 7973 3870 EB4D     		jmp	.L401
 7974              	.L417:
 7975 3872 4889C3   		movq	%rax, %rbx
 7976              	.LBB120:
  27:../ExecuteTest.h **** 	{
 7977              		.loc 8 27 0
 7978 3875 E8000000 		call	__cxa_end_catch@PLT
 7978      00
 7979 387a 4889D8   		movq	%rbx, %rax
 7980 387d 4889C7   		movq	%rax, %rdi
 7981 3880 E8000000 		call	_Unwind_Resume@PLT
 7981      00
 7982              	.LEHE199:
 7983              	.L419:
 7984 3885 4889C3   		movq	%rax, %rbx
 7985              	.LBE120:
 7986              	.LBB121:
 7987              	.LBB119:
  34:../ExecuteTest.h **** 		stream << "Unhandled exception: " << e.what();
 7988              		.loc 8 34 0
 7989 3888 488D85D0 		leaq	-1584(%rbp), %rax
 7989      F9FFFF
 7990 388f 4889C7   		movq	%rax, %rdi
 7991 3892 E8000000 		call	_ZN8UnitTest15MemoryOutStreamD1Ev
 7991      00
 7992 3897 EB03     		jmp	.L412
 7993              	.L418:
 7994 3899 4889C3   		movq	%rax, %rbx
 7995              	.L412:
 7996              	.LBE119:
  32:../ExecuteTest.h **** 	{
 7997              		.loc 8 32 0
 7998 389c E8000000 		call	__cxa_end_catch@PLT
 7998      00
 7999 38a1 4889D8   		movq	%rbx, %rax
 8000 38a4 4889C7   		movq	%rax, %rdi
 8001              	.LEHB200:
 8002 38a7 E8000000 		call	_Unwind_Resume@PLT
 8002      00
 8003              	.LEHE200:
 8004              	.L420:
 8005 38ac 4889C3   		movq	%rax, %rbx
 8006              	.LBE121:
  38:../ExecuteTest.h **** 	{
 8007              		.loc 8 38 0
 8008 38af E8000000 		call	__cxa_end_catch@PLT
 8008      00
 8009 38b4 4889D8   		movq	%rbx, %rax
 8010 38b7 4889C7   		movq	%rax, %rdi
 8011              	.LEHB201:
 8012 38ba E8000000 		call	_Unwind_Resume@PLT
 8012      00
 8013              	.LEHE201:
 8014              	.L401:
 8015              		.loc 8 42 0
 8016 38bf 488B45D8 		movq	-40(%rbp), %rax
 8017 38c3 64483304 		xorq	%fs:40, %rax
 8017      25280000 
 8017      00
 8018 38cc 7405     		je	.L414
 8019 38ce E8000000 		call	__stack_chk_fail@PLT
 8019      00
 8020              	.L414:
 8021 38d3 4881C458 		addq	$1624, %rsp
 8021      060000
 8022 38da 5B       		popq	%rbx
 8023 38db 415C     		popq	%r12
 8024 38dd 415D     		popq	%r13
 8025 38df 5D       		popq	%rbp
 8026              		.cfi_def_cfa 7, 8
 8027 38e0 C3       		ret
 8028              		.cfi_endproc
 8029              	.LFE1265:
 8030              		.section	.gcc_except_table
 8031              		.align 4
 8032              	.LLSDA1265:
 8033 0558 FF       		.byte	0xff
 8034 0559 9B       		.byte	0x9b
 8035 055a 59       		.uleb128 .LLSDATT1265-.LLSDATTD1265
 8036              	.LLSDATTD1265:
 8037 055b 01       		.byte	0x1
 8038 055c 43       		.uleb128 .LLSDACSE1265-.LLSDACSB1265
 8039              	.LLSDACSB1265:
 8040 055d 2D       		.uleb128 .LEHB190-.LFB1265
 8041 055e 05       		.uleb128 .LEHE190-.LEHB190
 8042 055f 00       		.uleb128 0
 8043 0560 00       		.uleb128 0
 8044 0561 49       		.uleb128 .LEHB191-.LFB1265
 8045 0562 05       		.uleb128 .LEHE191-.LEHB191
 8046 0563 D301     		.uleb128 .L415-.LFB1265
 8047 0565 05       		.uleb128 0x5
 8048 0566 8E01     		.uleb128 .LEHB192-.LFB1265
 8049 0568 05       		.uleb128 .LEHE192-.LEHB192
 8050 0569 B601     		.uleb128 .L416-.LFB1265
 8051 056b 07       		.uleb128 0x7
 8052 056c AC01     		.uleb128 .LEHB193-.LFB1265
 8053 056e 05       		.uleb128 .LEHE193-.LEHB193
 8054 056f D301     		.uleb128 .L415-.LFB1265
 8055 0571 05       		.uleb128 0x5
 8056 0572 F701     		.uleb128 .LEHB194-.LFB1265
 8057 0574 8801     		.uleb128 .LEHE194-.LEHB194
 8058 0576 DA04     		.uleb128 .L417-.LFB1265
 8059 0578 00       		.uleb128 0
 8060 0579 A203     		.uleb128 .LEHB195-.LFB1265
 8061 057b 05       		.uleb128 .LEHE195-.LEHB195
 8062 057c 8105     		.uleb128 .L418-.LFB1265
 8063 057e 00       		.uleb128 0
 8064 057f B803     		.uleb128 .LEHB196-.LFB1265
 8065 0581 5C       		.uleb128 .LEHE196-.LEHB196
 8066 0582 ED04     		.uleb128 .L419-.LFB1265
 8067 0584 00       		.uleb128 0
 8068 0585 9E04     		.uleb128 .LEHB197-.LFB1265
 8069 0587 05       		.uleb128 .LEHE197-.LEHB197
 8070 0588 8105     		.uleb128 .L418-.LFB1265
 8071 058a 00       		.uleb128 0
 8072 058b B204     		.uleb128 .LEHB198-.LFB1265
 8073 058d 21       		.uleb128 .LEHE198-.LEHB198
 8074 058e 9405     		.uleb128 .L420-.LFB1265
 8075 0590 00       		.uleb128 0
 8076 0591 D304     		.uleb128 .LEHB199-.LFB1265
 8077 0593 1A       		.uleb128 .LEHE199-.LEHB199
 8078 0594 00       		.uleb128 0
 8079 0595 00       		.uleb128 0
 8080 0596 8F05     		.uleb128 .LEHB200-.LFB1265
 8081 0598 05       		.uleb128 .LEHE200-.LEHB200
 8082 0599 00       		.uleb128 0
 8083 059a 00       		.uleb128 0
 8084 059b A205     		.uleb128 .LEHB201-.LFB1265
 8085 059d 05       		.uleb128 .LEHE201-.LEHB201
 8086 059e 00       		.uleb128 0
 8087 059f 00       		.uleb128 0
 8088              	.LLSDACSE1265:
 8089 05a0 03       		.byte	0x3
 8090 05a1 00       		.byte	0
 8091 05a2 02       		.byte	0x2
 8092 05a3 7D       		.byte	0x7d
 8093 05a4 01       		.byte	0x1
 8094 05a5 7D       		.byte	0x7d
 8095 05a6 00       		.byte	0
 8096 05a7 7D       		.byte	0x7d
 8097              		.align 4
 8098 05a8 00000000 		.long	0
 8099              	
 8100 05ac 00000000 		.long	DW.ref._ZTISt9exception-.
 8101 05b0 00000000 		.long	DW.ref._ZTIN8UnitTest15AssertExceptionE-.
 8102              	.LLSDATT1265:
 8103              		.text
 8106              	_ZN8UnitTest11ExecuteTestIN12_GLOBAL__N_134DummyFixtureMacroTestHelper2HelperEEEvRT_RKNS_11TestDeta
 8107              	.LFB1266:
  16:../ExecuteTest.h **** {
 8108              		.loc 8 16 0
 8109              		.cfi_startproc
 8110              		.cfi_personality 0x9b,DW.ref.__gxx_personality_v0
 8111              		.cfi_lsda 0x1b,.LLSDA1266
 8112 38e1 55       		pushq	%rbp
 8113              		.cfi_def_cfa_offset 16
 8114              		.cfi_offset 6, -16
 8115 38e2 4889E5   		movq	%rsp, %rbp
 8116              		.cfi_def_cfa_register 6
 8117 38e5 4155     		pushq	%r13
 8118 38e7 4154     		pushq	%r12
 8119 38e9 53       		pushq	%rbx
 8120 38ea 4881EC58 		subq	$1624, %rsp
 8120      060000
 8121              		.cfi_offset 13, -24
 8122              		.cfi_offset 12, -32
 8123              		.cfi_offset 3, -40
 8124 38f1 4889BD98 		movq	%rdi, -1640(%rbp)
 8124      F9FFFF
 8125 38f8 4889B590 		movq	%rsi, -1648(%rbp)
 8125      F9FFFF
  16:../ExecuteTest.h **** {
 8126              		.loc 8 16 0
 8127 38ff 64488B04 		movq	%fs:40, %rax
 8127      25280000 
 8127      00
 8128 3908 488945D8 		movq	%rax, -40(%rbp)
 8129 390c 31C0     		xorl	%eax, %eax
 8130              	.LEHB202:
  18:../ExecuteTest.h **** 
 8131              		.loc 8 18 0
 8132 390e E8000000 		call	_ZN8UnitTest11CurrentTest7DetailsEv@PLT
 8132      00
 8133              	.LEHE202:
 8134 3913 4889C2   		movq	%rax, %rdx
 8135 3916 488B8590 		movq	-1648(%rbp), %rax
 8135      F9FFFF
 8136 391d 488902   		movq	%rax, (%rdx)
 8137              	.LBB122:
  23:../ExecuteTest.h **** #endif
 8138              		.loc 8 23 0
 8139 3920 488D8570 		leaq	-1168(%rbp), %rax
 8139      FBFFFF
 8140 3927 4889C7   		movq	%rax, %rdi
 8141              	.LEHB203:
 8142 392a E8000000 		call	_ZN8UnitTest16SignalTranslatorC1Ev@PLT
 8142      00
 8143              	.LEHE203:
  23:../ExecuteTest.h **** #endif
 8144              		.loc 8 23 0 is_stmt 0 discriminator 1
 8145 392f 488B0500 		movq	_ZN8UnitTest16SignalTranslator12s_jumpTargetE(%rip), %rax
 8145      000000
 8146 3936 BE010000 		movl	$1, %esi
 8146      00
 8147 393b 4889C7   		movq	%rax, %rdi
 8148 393e E8000000 		call	__sigsetjmp@PLT
 8148      00
 8149 3943 85C0     		testl	%eax, %eax
 8150 3945 0F95C0   		setne	%al
 8151 3948 84C0     		testb	%al, %al
 8152 394a 7428     		je	.L424
  23:../ExecuteTest.h **** #endif
 8153              		.loc 8 23 0 discriminator 4
 8154 394c BF080000 		movl	$8, %edi
 8154      00
 8155 3951 E8000000 		call	__cxa_allocate_exception@PLT
 8155      00
 8156 3956 488D1500 		leaq	.LC75(%rip), %rdx
 8156      000000
 8157 395d 488910   		movq	%rdx, (%rax)
 8158 3960 BA000000 		movl	$0, %edx
 8158      00
 8159 3965 488D3500 		leaq	_ZTIPKc(%rip), %rsi
 8159      000000
 8160 396c 4889C7   		movq	%rax, %rdi
 8161              	.LEHB204:
 8162 396f E8000000 		call	__cxa_throw@PLT
 8162      00
 8163              	.LEHE204:
 8164              	.L424:
  25:../ExecuteTest.h **** 	}
 8165              		.loc 8 25 0 is_stmt 1
 8166 3974 488B8598 		movq	-1640(%rbp), %rax
 8166      F9FFFF
 8167 397b 4889C7   		movq	%rax, %rdi
 8168 397e E8D9DDFF 		call	_ZN12_GLOBAL__N_134DummyFixtureMacroTestHelper2Helper7RunImplEv
 8168      FF
  23:../ExecuteTest.h **** #endif
 8169              		.loc 8 23 0
 8170 3983 488D8570 		leaq	-1168(%rbp), %rax
 8170      FBFFFF
 8171 398a 4889C7   		movq	%rax, %rdi
 8172              	.LEHB205:
 8173 398d E8000000 		call	_ZN8UnitTest16SignalTranslatorD1Ev@PLT
 8173      00
 8174              	.LEHE205:
 8175              	.LBE122:
 8176              		.loc 8 42 0
 8177 3992 E9F10100 		jmp	.L422
 8177      00
 8178              	.L437:
 8179 3997 4989C4   		movq	%rax, %r12
 8180 399a 4889D3   		movq	%rdx, %rbx
 8181              	.LBB123:
  23:../ExecuteTest.h **** #endif
 8182              		.loc 8 23 0
 8183 399d 488D8570 		leaq	-1168(%rbp), %rax
 8183      FBFFFF
 8184 39a4 4889C7   		movq	%rax, %rdi
 8185 39a7 E8000000 		call	_ZN8UnitTest16SignalTranslatorD1Ev@PLT
 8185      00
 8186 39ac 4C89E0   		movq	%r12, %rax
 8187 39af 4889DA   		movq	%rbx, %rdx
 8188 39b2 EB00     		jmp	.L426
 8189              	.L436:
 8190              	.L426:
 8191 39b4 4883FA01 		cmpq	$1, %rdx
 8192 39b8 740F     		je	.L428
 8193 39ba 4883FA02 		cmpq	$2, %rdx
 8194 39be 0F84A600 		je	.L429
 8194      0000
 8195 39c4 E9420100 		jmp	.L442
 8195      00
 8196              	.L428:
 8197              	.LBE123:
 8198              	.LBB124:
  27:../ExecuteTest.h **** 	{
 8199              		.loc 8 27 0
 8200 39c9 4889C7   		movq	%rax, %rdi
 8201 39cc E8000000 		call	__cxa_begin_catch@PLT
 8201      00
 8202 39d1 488985A8 		movq	%rax, -1624(%rbp)
 8202      F9FFFF
 8203              	.LEHB206:
  29:../ExecuteTest.h **** 			TestDetails(details.testName, details.suiteName, e.Filename(), e.LineNumber()), e.what());
 8204              		.loc 8 29 0
 8205 39d8 E8000000 		call	_ZN8UnitTest11CurrentTest7ResultsEv@PLT
 8205      00
  29:../ExecuteTest.h **** 			TestDetails(details.testName, details.suiteName, e.Filename(), e.LineNumber()), e.what());
 8206              		.loc 8 29 0 is_stmt 0 discriminator 1
 8207 39dd 488B18   		movq	(%rax), %rbx
  30:../ExecuteTest.h **** 	}
 8208              		.loc 8 30 0 is_stmt 1 discriminator 1
 8209 39e0 488B85A8 		movq	-1624(%rbp), %rax
 8209      F9FFFF
 8210 39e7 488B00   		movq	(%rax), %rax
 8211 39ea 4883C010 		addq	$16, %rax
 8212 39ee 488B00   		movq	(%rax), %rax
  29:../ExecuteTest.h **** 			TestDetails(details.testName, details.suiteName, e.Filename(), e.LineNumber()), e.what());
 8213              		.loc 8 29 0 discriminator 1
 8214 39f1 488B95A8 		movq	-1624(%rbp), %rdx
 8214      F9FFFF
 8215 39f8 4889D7   		movq	%rdx, %rdi
 8216 39fb FFD0     		call	*%rax
 8217              	.LVL20:
 8218 39fd 4989C4   		movq	%rax, %r12
 8219 3a00 488B85A8 		movq	-1624(%rbp), %rax
 8219      F9FFFF
 8220 3a07 4889C7   		movq	%rax, %rdi
 8221 3a0a E8000000 		call	_ZNK8UnitTest15AssertException10LineNumberEv@PLT
 8221      00
  29:../ExecuteTest.h **** 			TestDetails(details.testName, details.suiteName, e.Filename(), e.LineNumber()), e.what());
 8222              		.loc 8 29 0 is_stmt 0 discriminator 2
 8223 3a0f 4189C5   		movl	%eax, %r13d
 8224 3a12 488B85A8 		movq	-1624(%rbp), %rax
 8224      F9FFFF
 8225 3a19 4889C7   		movq	%rax, %rdi
 8226 3a1c E8000000 		call	_ZNK8UnitTest15AssertException8FilenameEv@PLT
 8226      00
  29:../ExecuteTest.h **** 			TestDetails(details.testName, details.suiteName, e.Filename(), e.LineNumber()), e.what());
 8227              		.loc 8 29 0 discriminator 3
 8228 3a21 4889C1   		movq	%rax, %rcx
  30:../ExecuteTest.h **** 	}
 8229              		.loc 8 30 0 is_stmt 1 discriminator 3
 8230 3a24 488B8590 		movq	-1648(%rbp), %rax
 8230      F9FFFF
 8231 3a2b 488B10   		movq	(%rax), %rdx
 8232 3a2e 488B8590 		movq	-1648(%rbp), %rax
 8232      F9FFFF
 8233 3a35 488B7008 		movq	8(%rax), %rsi
  29:../ExecuteTest.h **** 			TestDetails(details.testName, details.suiteName, e.Filename(), e.LineNumber()), e.what());
 8234              		.loc 8 29 0 discriminator 3
 8235 3a39 488D85B0 		leaq	-1616(%rbp), %rax
 8235      F9FFFF
 8236 3a40 4589E8   		movl	%r13d, %r8d
 8237 3a43 4889C7   		movq	%rax, %rdi
 8238 3a46 E8000000 		call	_ZN8UnitTest11TestDetailsC1EPKcS2_S2_i@PLT
 8238      00
  29:../ExecuteTest.h **** 			TestDetails(details.testName, details.suiteName, e.Filename(), e.LineNumber()), e.what());
 8239              		.loc 8 29 0 is_stmt 0 discriminator 5
 8240 3a4b 488D85B0 		leaq	-1616(%rbp), %rax
 8240      F9FFFF
 8241 3a52 4C89E2   		movq	%r12, %rdx
 8242 3a55 4889C6   		movq	%rax, %rsi
 8243 3a58 4889DF   		movq	%rbx, %rdi
 8244 3a5b E8000000 		call	_ZN8UnitTest11TestResults13OnTestFailureERKNS_11TestDetailsEPKc@PLT
 8244      00
 8245              	.LEHE206:
  27:../ExecuteTest.h **** 	{
 8246              		.loc 8 27 0 is_stmt 1 discriminator 7
 8247 3a60 E8000000 		call	__cxa_end_catch@PLT
 8247      00
 8248              	.LBE124:
 8249              		.loc 8 42 0 discriminator 7
 8250 3a65 E91E0100 		jmp	.L422
 8250      00
 8251              	.L429:
 8252              	.LBB125:
  32:../ExecuteTest.h **** 	{
 8253              		.loc 8 32 0
 8254 3a6a 4889C7   		movq	%rax, %rdi
 8255 3a6d E8000000 		call	__cxa_begin_catch@PLT
 8255      00
 8256 3a72 488985A0 		movq	%rax, -1632(%rbp)
 8256      F9FFFF
 8257              	.LBB126:
  34:../ExecuteTest.h **** 		stream << "Unhandled exception: " << e.what();
 8258              		.loc 8 34 0
 8259 3a79 488D85D0 		leaq	-1584(%rbp), %rax
 8259      F9FFFF
 8260 3a80 4889C7   		movq	%rax, %rdi
 8261              	.LEHB207:
 8262 3a83 E8000000 		call	_ZN8UnitTest15MemoryOutStreamC1Ev
 8262      00
 8263              	.LEHE207:
  35:../ExecuteTest.h **** 		CurrentTest::Results()->OnTestFailure(details, stream.GetText());
 8264              		.loc 8 35 0
 8265 3a88 488D85D0 		leaq	-1584(%rbp), %rax
 8265      F9FFFF
 8266 3a8f 488D3500 		leaq	.LC11(%rip), %rsi
 8266      000000
 8267 3a96 4889C7   		movq	%rax, %rdi
 8268              	.LEHB208:
 8269 3a99 E8000000 		call	_ZStlsISt11char_traitsIcEERSt13basic_ostreamIcT_ES5_PKc@PLT
 8269      00
 8270 3a9e 4889C3   		movq	%rax, %rbx
 8271 3aa1 488B85A0 		movq	-1632(%rbp), %rax
 8271      F9FFFF
 8272 3aa8 488B00   		movq	(%rax), %rax
 8273 3aab 4883C010 		addq	$16, %rax
 8274 3aaf 488B00   		movq	(%rax), %rax
 8275 3ab2 488B95A0 		movq	-1632(%rbp), %rdx
 8275      F9FFFF
 8276 3ab9 4889D7   		movq	%rdx, %rdi
 8277 3abc FFD0     		call	*%rax
 8278              	.LVL21:
 8279 3abe 4889C6   		movq	%rax, %rsi
 8280 3ac1 4889DF   		movq	%rbx, %rdi
 8281 3ac4 E8000000 		call	_ZStlsISt11char_traitsIcEERSt13basic_ostreamIcT_ES5_PKc@PLT
 8281      00
  36:../ExecuteTest.h **** 	}
 8282              		.loc 8 36 0
 8283 3ac9 E8000000 		call	_ZN8UnitTest11CurrentTest7ResultsEv@PLT
 8283      00
 8284 3ace 488B18   		movq	(%rax), %rbx
 8285 3ad1 488D85D0 		leaq	-1584(%rbp), %rax
 8285      F9FFFF
 8286 3ad8 4889C7   		movq	%rax, %rdi
 8287 3adb E8000000 		call	_ZNK8UnitTest15MemoryOutStream7GetTextEv@PLT
 8287      00
  36:../ExecuteTest.h **** 	}
 8288              		.loc 8 36 0 is_stmt 0 discriminator 1
 8289 3ae0 4889C2   		movq	%rax, %rdx
 8290 3ae3 488B8590 		movq	-1648(%rbp), %rax
 8290      F9FFFF
 8291 3aea 4889C6   		movq	%rax, %rsi
 8292 3aed 4889DF   		movq	%rbx, %rdi
 8293 3af0 E8000000 		call	_ZN8UnitTest11TestResults13OnTestFailureERKNS_11TestDetailsEPKc@PLT
 8293      00
 8294              	.LEHE208:
  34:../ExecuteTest.h **** 		stream << "Unhandled exception: " << e.what();
 8295              		.loc 8 34 0 is_stmt 1
 8296 3af5 488D85D0 		leaq	-1584(%rbp), %rax
 8296      F9FFFF
 8297 3afc 4889C7   		movq	%rax, %rdi
 8298              	.LEHB209:
 8299 3aff E8000000 		call	_ZN8UnitTest15MemoryOutStreamD1Ev
 8299      00
 8300              	.LEHE209:
 8301              	.LBE126:
  32:../ExecuteTest.h **** 	{
 8302              		.loc 8 32 0
 8303 3b04 E8000000 		call	__cxa_end_catch@PLT
 8303      00
 8304              	.LBE125:
 8305              		.loc 8 42 0
 8306 3b09 EB7D     		jmp	.L422
 8307              	.L442:
  38:../ExecuteTest.h **** 	{
 8308              		.loc 8 38 0
 8309 3b0b 4889C7   		movq	%rax, %rdi
 8310 3b0e E8000000 		call	__cxa_begin_catch@PLT
 8310      00
 8311              	.LEHB210:
  40:../ExecuteTest.h **** 	}
 8312              		.loc 8 40 0
 8313 3b13 E8000000 		call	_ZN8UnitTest11CurrentTest7ResultsEv@PLT
 8313      00
 8314 3b18 488B00   		movq	(%rax), %rax
 8315 3b1b 488B8D90 		movq	-1648(%rbp), %rcx
 8315      F9FFFF
 8316 3b22 488D1500 		leaq	.LC76(%rip), %rdx
 8316      000000
 8317 3b29 4889CE   		movq	%rcx, %rsi
 8318 3b2c 4889C7   		movq	%rax, %rdi
 8319 3b2f E8000000 		call	_ZN8UnitTest11TestResults13OnTestFailureERKNS_11TestDetailsEPKc@PLT
 8319      00
 8320              	.LEHE210:
 8321              	.LEHB211:
  38:../ExecuteTest.h **** 	{
 8322              		.loc 8 38 0
 8323 3b34 E8000000 		call	__cxa_end_catch@PLT
 8323      00
 8324              		.loc 8 42 0
 8325 3b39 EB4D     		jmp	.L422
 8326              	.L438:
 8327 3b3b 4889C3   		movq	%rax, %rbx
 8328              	.LBB128:
  27:../ExecuteTest.h **** 	{
 8329              		.loc 8 27 0
 8330 3b3e E8000000 		call	__cxa_end_catch@PLT
 8330      00
 8331 3b43 4889D8   		movq	%rbx, %rax
 8332 3b46 4889C7   		movq	%rax, %rdi
 8333 3b49 E8000000 		call	_Unwind_Resume@PLT
 8333      00
 8334              	.LEHE211:
 8335              	.L440:
 8336 3b4e 4889C3   		movq	%rax, %rbx
 8337              	.LBE128:
 8338              	.LBB129:
 8339              	.LBB127:
  34:../ExecuteTest.h **** 		stream << "Unhandled exception: " << e.what();
 8340              		.loc 8 34 0
 8341 3b51 488D85D0 		leaq	-1584(%rbp), %rax
 8341      F9FFFF
 8342 3b58 4889C7   		movq	%rax, %rdi
 8343 3b5b E8000000 		call	_ZN8UnitTest15MemoryOutStreamD1Ev
 8343      00
 8344 3b60 EB03     		jmp	.L433
 8345              	.L439:
 8346 3b62 4889C3   		movq	%rax, %rbx
 8347              	.L433:
 8348              	.LBE127:
  32:../ExecuteTest.h **** 	{
 8349              		.loc 8 32 0
 8350 3b65 E8000000 		call	__cxa_end_catch@PLT
 8350      00
 8351 3b6a 4889D8   		movq	%rbx, %rax
 8352 3b6d 4889C7   		movq	%rax, %rdi
 8353              	.LEHB212:
 8354 3b70 E8000000 		call	_Unwind_Resume@PLT
 8354      00
 8355              	.LEHE212:
 8356              	.L441:
 8357 3b75 4889C3   		movq	%rax, %rbx
 8358              	.LBE129:
  38:../ExecuteTest.h **** 	{
 8359              		.loc 8 38 0
 8360 3b78 E8000000 		call	__cxa_end_catch@PLT
 8360      00
 8361 3b7d 4889D8   		movq	%rbx, %rax
 8362 3b80 4889C7   		movq	%rax, %rdi
 8363              	.LEHB213:
 8364 3b83 E8000000 		call	_Unwind_Resume@PLT
 8364      00
 8365              	.LEHE213:
 8366              	.L422:
 8367              		.loc 8 42 0
 8368 3b88 488B45D8 		movq	-40(%rbp), %rax
 8369 3b8c 64483304 		xorq	%fs:40, %rax
 8369      25280000 
 8369      00
 8370 3b95 7405     		je	.L435
 8371 3b97 E8000000 		call	__stack_chk_fail@PLT
 8371      00
 8372              	.L435:
 8373 3b9c 4881C458 		addq	$1624, %rsp
 8373      060000
 8374 3ba3 5B       		popq	%rbx
 8375 3ba4 415C     		popq	%r12
 8376 3ba6 415D     		popq	%r13
 8377 3ba8 5D       		popq	%rbp
 8378              		.cfi_def_cfa 7, 8
 8379 3ba9 C3       		ret
 8380              		.cfi_endproc
 8381              	.LFE1266:
 8382              		.section	.gcc_except_table
 8383              		.align 4
 8384              	.LLSDA1266:
 8385 05b4 FF       		.byte	0xff
 8386 05b5 9B       		.byte	0x9b
 8387 05b6 59       		.uleb128 .LLSDATT1266-.LLSDATTD1266
 8388              	.LLSDATTD1266:
 8389 05b7 01       		.byte	0x1
 8390 05b8 43       		.uleb128 .LLSDACSE1266-.LLSDACSB1266
 8391              	.LLSDACSB1266:
 8392 05b9 2D       		.uleb128 .LEHB202-.LFB1266
 8393 05ba 05       		.uleb128 .LEHE202-.LEHB202
 8394 05bb 00       		.uleb128 0
 8395 05bc 00       		.uleb128 0
 8396 05bd 49       		.uleb128 .LEHB203-.LFB1266
 8397 05be 05       		.uleb128 .LEHE203-.LEHB203
 8398 05bf D301     		.uleb128 .L436-.LFB1266
 8399 05c1 05       		.uleb128 0x5
 8400 05c2 8E01     		.uleb128 .LEHB204-.LFB1266
 8401 05c4 05       		.uleb128 .LEHE204-.LEHB204
 8402 05c5 B601     		.uleb128 .L437-.LFB1266
 8403 05c7 07       		.uleb128 0x7
 8404 05c8 AC01     		.uleb128 .LEHB205-.LFB1266
 8405 05ca 05       		.uleb128 .LEHE205-.LEHB205
 8406 05cb D301     		.uleb128 .L436-.LFB1266
 8407 05cd 05       		.uleb128 0x5
 8408 05ce F701     		.uleb128 .LEHB206-.LFB1266
 8409 05d0 8801     		.uleb128 .LEHE206-.LEHB206
 8410 05d2 DA04     		.uleb128 .L438-.LFB1266
 8411 05d4 00       		.uleb128 0
 8412 05d5 A203     		.uleb128 .LEHB207-.LFB1266
 8413 05d7 05       		.uleb128 .LEHE207-.LEHB207
 8414 05d8 8105     		.uleb128 .L439-.LFB1266
 8415 05da 00       		.uleb128 0
 8416 05db B803     		.uleb128 .LEHB208-.LFB1266
 8417 05dd 5C       		.uleb128 .LEHE208-.LEHB208
 8418 05de ED04     		.uleb128 .L440-.LFB1266
 8419 05e0 00       		.uleb128 0
 8420 05e1 9E04     		.uleb128 .LEHB209-.LFB1266
 8421 05e3 05       		.uleb128 .LEHE209-.LEHB209
 8422 05e4 8105     		.uleb128 .L439-.LFB1266
 8423 05e6 00       		.uleb128 0
 8424 05e7 B204     		.uleb128 .LEHB210-.LFB1266
 8425 05e9 21       		.uleb128 .LEHE210-.LEHB210
 8426 05ea 9405     		.uleb128 .L441-.LFB1266
 8427 05ec 00       		.uleb128 0
 8428 05ed D304     		.uleb128 .LEHB211-.LFB1266
 8429 05ef 1A       		.uleb128 .LEHE211-.LEHB211
 8430 05f0 00       		.uleb128 0
 8431 05f1 00       		.uleb128 0
 8432 05f2 8F05     		.uleb128 .LEHB212-.LFB1266
 8433 05f4 05       		.uleb128 .LEHE212-.LEHB212
 8434 05f5 00       		.uleb128 0
 8435 05f6 00       		.uleb128 0
 8436 05f7 A205     		.uleb128 .LEHB213-.LFB1266
 8437 05f9 05       		.uleb128 .LEHE213-.LEHB213
 8438 05fa 00       		.uleb128 0
 8439 05fb 00       		.uleb128 0
 8440              	.LLSDACSE1266:
 8441 05fc 03       		.byte	0x3
 8442 05fd 00       		.byte	0
 8443 05fe 02       		.byte	0x2
 8444 05ff 7D       		.byte	0x7d
 8445 0600 01       		.byte	0x1
 8446 0601 7D       		.byte	0x7d
 8447 0602 00       		.byte	0
 8448 0603 7D       		.byte	0x7d
 8449              		.align 4
 8450 0604 00000000 		.long	0
 8451              	
 8452 0608 00000000 		.long	DW.ref._ZTISt9exception-.
 8453 060c 00000000 		.long	DW.ref._ZTIN8UnitTest15AssertExceptionE-.
 8454              	.LLSDATT1266:
 8455              		.text
 8458              	_ZN8UnitTest11ExecuteTestIN12_GLOBAL__N_148FixtureCtorThrowsFixtureCtorThrowsTestNameHelperEEEvRT_R
 8459              	.LFB1267:
  16:../ExecuteTest.h **** {
 8460              		.loc 8 16 0
 8461              		.cfi_startproc
 8462              		.cfi_personality 0x9b,DW.ref.__gxx_personality_v0
 8463              		.cfi_lsda 0x1b,.LLSDA1267
 8464 3baa 55       		pushq	%rbp
 8465              		.cfi_def_cfa_offset 16
 8466              		.cfi_offset 6, -16
 8467 3bab 4889E5   		movq	%rsp, %rbp
 8468              		.cfi_def_cfa_register 6
 8469 3bae 4155     		pushq	%r13
 8470 3bb0 4154     		pushq	%r12
 8471 3bb2 53       		pushq	%rbx
 8472 3bb3 4881EC58 		subq	$1624, %rsp
 8472      060000
 8473              		.cfi_offset 13, -24
 8474              		.cfi_offset 12, -32
 8475              		.cfi_offset 3, -40
 8476 3bba 4889BD98 		movq	%rdi, -1640(%rbp)
 8476      F9FFFF
 8477 3bc1 4889B590 		movq	%rsi, -1648(%rbp)
 8477      F9FFFF
  16:../ExecuteTest.h **** {
 8478              		.loc 8 16 0
 8479 3bc8 64488B04 		movq	%fs:40, %rax
 8479      25280000 
 8479      00
 8480 3bd1 488945D8 		movq	%rax, -40(%rbp)
 8481 3bd5 31C0     		xorl	%eax, %eax
 8482              	.LEHB214:
  18:../ExecuteTest.h **** 
 8483              		.loc 8 18 0
 8484 3bd7 E8000000 		call	_ZN8UnitTest11CurrentTest7DetailsEv@PLT
 8484      00
 8485              	.LEHE214:
 8486 3bdc 4889C2   		movq	%rax, %rdx
 8487 3bdf 488B8590 		movq	-1648(%rbp), %rax
 8487      F9FFFF
 8488 3be6 488902   		movq	%rax, (%rdx)
 8489              	.LBB130:
  23:../ExecuteTest.h **** #endif
 8490              		.loc 8 23 0
 8491 3be9 488D8570 		leaq	-1168(%rbp), %rax
 8491      FBFFFF
 8492 3bf0 4889C7   		movq	%rax, %rdi
 8493              	.LEHB215:
 8494 3bf3 E8000000 		call	_ZN8UnitTest16SignalTranslatorC1Ev@PLT
 8494      00
 8495              	.LEHE215:
  23:../ExecuteTest.h **** #endif
 8496              		.loc 8 23 0 is_stmt 0 discriminator 1
 8497 3bf8 488B0500 		movq	_ZN8UnitTest16SignalTranslator12s_jumpTargetE(%rip), %rax
 8497      000000
 8498 3bff BE010000 		movl	$1, %esi
 8498      00
 8499 3c04 4889C7   		movq	%rax, %rdi
 8500 3c07 E8000000 		call	__sigsetjmp@PLT
 8500      00
 8501 3c0c 85C0     		testl	%eax, %eax
 8502 3c0e 0F95C0   		setne	%al
 8503 3c11 84C0     		testb	%al, %al
 8504 3c13 7428     		je	.L445
  23:../ExecuteTest.h **** #endif
 8505              		.loc 8 23 0 discriminator 4
 8506 3c15 BF080000 		movl	$8, %edi
 8506      00
 8507 3c1a E8000000 		call	__cxa_allocate_exception@PLT
 8507      00
 8508 3c1f 488D1500 		leaq	.LC75(%rip), %rdx
 8508      000000
 8509 3c26 488910   		movq	%rdx, (%rax)
 8510 3c29 BA000000 		movl	$0, %edx
 8510      00
 8511 3c2e 488D3500 		leaq	_ZTIPKc(%rip), %rsi
 8511      000000
 8512 3c35 4889C7   		movq	%rax, %rdi
 8513              	.LEHB216:
 8514 3c38 E8000000 		call	__cxa_throw@PLT
 8514      00
 8515              	.LEHE216:
 8516              	.L445:
  25:../ExecuteTest.h **** 	}
 8517              		.loc 8 25 0 is_stmt 1
 8518 3c3d 488B8598 		movq	-1640(%rbp), %rax
 8518      F9FFFF
 8519 3c44 4889C7   		movq	%rax, %rdi
 8520 3c47 E842E1FF 		call	_ZN12_GLOBAL__N_148FixtureCtorThrowsFixtureCtorThrowsTestNameHelper7RunImplEv
 8520      FF
  23:../ExecuteTest.h **** #endif
 8521              		.loc 8 23 0
 8522 3c4c 488D8570 		leaq	-1168(%rbp), %rax
 8522      FBFFFF
 8523 3c53 4889C7   		movq	%rax, %rdi
 8524              	.LEHB217:
 8525 3c56 E8000000 		call	_ZN8UnitTest16SignalTranslatorD1Ev@PLT
 8525      00
 8526              	.LEHE217:
 8527              	.LBE130:
 8528              		.loc 8 42 0
 8529 3c5b E9F10100 		jmp	.L443
 8529      00
 8530              	.L458:
 8531 3c60 4989C4   		movq	%rax, %r12
 8532 3c63 4889D3   		movq	%rdx, %rbx
 8533              	.LBB131:
  23:../ExecuteTest.h **** #endif
 8534              		.loc 8 23 0
 8535 3c66 488D8570 		leaq	-1168(%rbp), %rax
 8535      FBFFFF
 8536 3c6d 4889C7   		movq	%rax, %rdi
 8537 3c70 E8000000 		call	_ZN8UnitTest16SignalTranslatorD1Ev@PLT
 8537      00
 8538 3c75 4C89E0   		movq	%r12, %rax
 8539 3c78 4889DA   		movq	%rbx, %rdx
 8540 3c7b EB00     		jmp	.L447
 8541              	.L457:
 8542              	.L447:
 8543 3c7d 4883FA01 		cmpq	$1, %rdx
 8544 3c81 740F     		je	.L449
 8545 3c83 4883FA02 		cmpq	$2, %rdx
 8546 3c87 0F84A600 		je	.L450
 8546      0000
 8547 3c8d E9420100 		jmp	.L463
 8547      00
 8548              	.L449:
 8549              	.LBE131:
 8550              	.LBB132:
  27:../ExecuteTest.h **** 	{
 8551              		.loc 8 27 0
 8552 3c92 4889C7   		movq	%rax, %rdi
 8553 3c95 E8000000 		call	__cxa_begin_catch@PLT
 8553      00
 8554 3c9a 488985A8 		movq	%rax, -1624(%rbp)
 8554      F9FFFF
 8555              	.LEHB218:
  29:../ExecuteTest.h **** 			TestDetails(details.testName, details.suiteName, e.Filename(), e.LineNumber()), e.what());
 8556              		.loc 8 29 0
 8557 3ca1 E8000000 		call	_ZN8UnitTest11CurrentTest7ResultsEv@PLT
 8557      00
  29:../ExecuteTest.h **** 			TestDetails(details.testName, details.suiteName, e.Filename(), e.LineNumber()), e.what());
 8558              		.loc 8 29 0 is_stmt 0 discriminator 1
 8559 3ca6 488B18   		movq	(%rax), %rbx
  30:../ExecuteTest.h **** 	}
 8560              		.loc 8 30 0 is_stmt 1 discriminator 1
 8561 3ca9 488B85A8 		movq	-1624(%rbp), %rax
 8561      F9FFFF
 8562 3cb0 488B00   		movq	(%rax), %rax
 8563 3cb3 4883C010 		addq	$16, %rax
 8564 3cb7 488B00   		movq	(%rax), %rax
  29:../ExecuteTest.h **** 			TestDetails(details.testName, details.suiteName, e.Filename(), e.LineNumber()), e.what());
 8565              		.loc 8 29 0 discriminator 1
 8566 3cba 488B95A8 		movq	-1624(%rbp), %rdx
 8566      F9FFFF
 8567 3cc1 4889D7   		movq	%rdx, %rdi
 8568 3cc4 FFD0     		call	*%rax
 8569              	.LVL22:
 8570 3cc6 4989C4   		movq	%rax, %r12
 8571 3cc9 488B85A8 		movq	-1624(%rbp), %rax
 8571      F9FFFF
 8572 3cd0 4889C7   		movq	%rax, %rdi
 8573 3cd3 E8000000 		call	_ZNK8UnitTest15AssertException10LineNumberEv@PLT
 8573      00
  29:../ExecuteTest.h **** 			TestDetails(details.testName, details.suiteName, e.Filename(), e.LineNumber()), e.what());
 8574              		.loc 8 29 0 is_stmt 0 discriminator 2
 8575 3cd8 4189C5   		movl	%eax, %r13d
 8576 3cdb 488B85A8 		movq	-1624(%rbp), %rax
 8576      F9FFFF
 8577 3ce2 4889C7   		movq	%rax, %rdi
 8578 3ce5 E8000000 		call	_ZNK8UnitTest15AssertException8FilenameEv@PLT
 8578      00
  29:../ExecuteTest.h **** 			TestDetails(details.testName, details.suiteName, e.Filename(), e.LineNumber()), e.what());
 8579              		.loc 8 29 0 discriminator 3
 8580 3cea 4889C1   		movq	%rax, %rcx
  30:../ExecuteTest.h **** 	}
 8581              		.loc 8 30 0 is_stmt 1 discriminator 3
 8582 3ced 488B8590 		movq	-1648(%rbp), %rax
 8582      F9FFFF
 8583 3cf4 488B10   		movq	(%rax), %rdx
 8584 3cf7 488B8590 		movq	-1648(%rbp), %rax
 8584      F9FFFF
 8585 3cfe 488B7008 		movq	8(%rax), %rsi
  29:../ExecuteTest.h **** 			TestDetails(details.testName, details.suiteName, e.Filename(), e.LineNumber()), e.what());
 8586              		.loc 8 29 0 discriminator 3
 8587 3d02 488D85B0 		leaq	-1616(%rbp), %rax
 8587      F9FFFF
 8588 3d09 4589E8   		movl	%r13d, %r8d
 8589 3d0c 4889C7   		movq	%rax, %rdi
 8590 3d0f E8000000 		call	_ZN8UnitTest11TestDetailsC1EPKcS2_S2_i@PLT
 8590      00
  29:../ExecuteTest.h **** 			TestDetails(details.testName, details.suiteName, e.Filename(), e.LineNumber()), e.what());
 8591              		.loc 8 29 0 is_stmt 0 discriminator 5
 8592 3d14 488D85B0 		leaq	-1616(%rbp), %rax
 8592      F9FFFF
 8593 3d1b 4C89E2   		movq	%r12, %rdx
 8594 3d1e 4889C6   		movq	%rax, %rsi
 8595 3d21 4889DF   		movq	%rbx, %rdi
 8596 3d24 E8000000 		call	_ZN8UnitTest11TestResults13OnTestFailureERKNS_11TestDetailsEPKc@PLT
 8596      00
 8597              	.LEHE218:
  27:../ExecuteTest.h **** 	{
 8598              		.loc 8 27 0 is_stmt 1 discriminator 7
 8599 3d29 E8000000 		call	__cxa_end_catch@PLT
 8599      00
 8600              	.LBE132:
 8601              		.loc 8 42 0 discriminator 7
 8602 3d2e E91E0100 		jmp	.L443
 8602      00
 8603              	.L450:
 8604              	.LBB133:
  32:../ExecuteTest.h **** 	{
 8605              		.loc 8 32 0
 8606 3d33 4889C7   		movq	%rax, %rdi
 8607 3d36 E8000000 		call	__cxa_begin_catch@PLT
 8607      00
 8608 3d3b 488985A0 		movq	%rax, -1632(%rbp)
 8608      F9FFFF
 8609              	.LBB134:
  34:../ExecuteTest.h **** 		stream << "Unhandled exception: " << e.what();
 8610              		.loc 8 34 0
 8611 3d42 488D85D0 		leaq	-1584(%rbp), %rax
 8611      F9FFFF
 8612 3d49 4889C7   		movq	%rax, %rdi
 8613              	.LEHB219:
 8614 3d4c E8000000 		call	_ZN8UnitTest15MemoryOutStreamC1Ev
 8614      00
 8615              	.LEHE219:
  35:../ExecuteTest.h **** 		CurrentTest::Results()->OnTestFailure(details, stream.GetText());
 8616              		.loc 8 35 0
 8617 3d51 488D85D0 		leaq	-1584(%rbp), %rax
 8617      F9FFFF
 8618 3d58 488D3500 		leaq	.LC11(%rip), %rsi
 8618      000000
 8619 3d5f 4889C7   		movq	%rax, %rdi
 8620              	.LEHB220:
 8621 3d62 E8000000 		call	_ZStlsISt11char_traitsIcEERSt13basic_ostreamIcT_ES5_PKc@PLT
 8621      00
 8622 3d67 4889C3   		movq	%rax, %rbx
 8623 3d6a 488B85A0 		movq	-1632(%rbp), %rax
 8623      F9FFFF
 8624 3d71 488B00   		movq	(%rax), %rax
 8625 3d74 4883C010 		addq	$16, %rax
 8626 3d78 488B00   		movq	(%rax), %rax
 8627 3d7b 488B95A0 		movq	-1632(%rbp), %rdx
 8627      F9FFFF
 8628 3d82 4889D7   		movq	%rdx, %rdi
 8629 3d85 FFD0     		call	*%rax
 8630              	.LVL23:
 8631 3d87 4889C6   		movq	%rax, %rsi
 8632 3d8a 4889DF   		movq	%rbx, %rdi
 8633 3d8d E8000000 		call	_ZStlsISt11char_traitsIcEERSt13basic_ostreamIcT_ES5_PKc@PLT
 8633      00
  36:../ExecuteTest.h **** 	}
 8634              		.loc 8 36 0
 8635 3d92 E8000000 		call	_ZN8UnitTest11CurrentTest7ResultsEv@PLT
 8635      00
 8636 3d97 488B18   		movq	(%rax), %rbx
 8637 3d9a 488D85D0 		leaq	-1584(%rbp), %rax
 8637      F9FFFF
 8638 3da1 4889C7   		movq	%rax, %rdi
 8639 3da4 E8000000 		call	_ZNK8UnitTest15MemoryOutStream7GetTextEv@PLT
 8639      00
  36:../ExecuteTest.h **** 	}
 8640              		.loc 8 36 0 is_stmt 0 discriminator 1
 8641 3da9 4889C2   		movq	%rax, %rdx
 8642 3dac 488B8590 		movq	-1648(%rbp), %rax
 8642      F9FFFF
 8643 3db3 4889C6   		movq	%rax, %rsi
 8644 3db6 4889DF   		movq	%rbx, %rdi
 8645 3db9 E8000000 		call	_ZN8UnitTest11TestResults13OnTestFailureERKNS_11TestDetailsEPKc@PLT
 8645      00
 8646              	.LEHE220:
  34:../ExecuteTest.h **** 		stream << "Unhandled exception: " << e.what();
 8647              		.loc 8 34 0 is_stmt 1
 8648 3dbe 488D85D0 		leaq	-1584(%rbp), %rax
 8648      F9FFFF
 8649 3dc5 4889C7   		movq	%rax, %rdi
 8650              	.LEHB221:
 8651 3dc8 E8000000 		call	_ZN8UnitTest15MemoryOutStreamD1Ev
 8651      00
 8652              	.LEHE221:
 8653              	.LBE134:
  32:../ExecuteTest.h **** 	{
 8654              		.loc 8 32 0
 8655 3dcd E8000000 		call	__cxa_end_catch@PLT
 8655      00
 8656              	.LBE133:
 8657              		.loc 8 42 0
 8658 3dd2 EB7D     		jmp	.L443
 8659              	.L463:
  38:../ExecuteTest.h **** 	{
 8660              		.loc 8 38 0
 8661 3dd4 4889C7   		movq	%rax, %rdi
 8662 3dd7 E8000000 		call	__cxa_begin_catch@PLT
 8662      00
 8663              	.LEHB222:
  40:../ExecuteTest.h **** 	}
 8664              		.loc 8 40 0
 8665 3ddc E8000000 		call	_ZN8UnitTest11CurrentTest7ResultsEv@PLT
 8665      00
 8666 3de1 488B00   		movq	(%rax), %rax
 8667 3de4 488B8D90 		movq	-1648(%rbp), %rcx
 8667      F9FFFF
 8668 3deb 488D1500 		leaq	.LC76(%rip), %rdx
 8668      000000
 8669 3df2 4889CE   		movq	%rcx, %rsi
 8670 3df5 4889C7   		movq	%rax, %rdi
 8671 3df8 E8000000 		call	_ZN8UnitTest11TestResults13OnTestFailureERKNS_11TestDetailsEPKc@PLT
 8671      00
 8672              	.LEHE222:
 8673              	.LEHB223:
  38:../ExecuteTest.h **** 	{
 8674              		.loc 8 38 0
 8675 3dfd E8000000 		call	__cxa_end_catch@PLT
 8675      00
 8676              		.loc 8 42 0
 8677 3e02 EB4D     		jmp	.L443
 8678              	.L459:
 8679 3e04 4889C3   		movq	%rax, %rbx
 8680              	.LBB136:
  27:../ExecuteTest.h **** 	{
 8681              		.loc 8 27 0
 8682 3e07 E8000000 		call	__cxa_end_catch@PLT
 8682      00
 8683 3e0c 4889D8   		movq	%rbx, %rax
 8684 3e0f 4889C7   		movq	%rax, %rdi
 8685 3e12 E8000000 		call	_Unwind_Resume@PLT
 8685      00
 8686              	.LEHE223:
 8687              	.L461:
 8688 3e17 4889C3   		movq	%rax, %rbx
 8689              	.LBE136:
 8690              	.LBB137:
 8691              	.LBB135:
  34:../ExecuteTest.h **** 		stream << "Unhandled exception: " << e.what();
 8692              		.loc 8 34 0
 8693 3e1a 488D85D0 		leaq	-1584(%rbp), %rax
 8693      F9FFFF
 8694 3e21 4889C7   		movq	%rax, %rdi
 8695 3e24 E8000000 		call	_ZN8UnitTest15MemoryOutStreamD1Ev
 8695      00
 8696 3e29 EB03     		jmp	.L454
 8697              	.L460:
 8698 3e2b 4889C3   		movq	%rax, %rbx
 8699              	.L454:
 8700              	.LBE135:
  32:../ExecuteTest.h **** 	{
 8701              		.loc 8 32 0
 8702 3e2e E8000000 		call	__cxa_end_catch@PLT
 8702      00
 8703 3e33 4889D8   		movq	%rbx, %rax
 8704 3e36 4889C7   		movq	%rax, %rdi
 8705              	.LEHB224:
 8706 3e39 E8000000 		call	_Unwind_Resume@PLT
 8706      00
 8707              	.LEHE224:
 8708              	.L462:
 8709 3e3e 4889C3   		movq	%rax, %rbx
 8710              	.LBE137:
  38:../ExecuteTest.h **** 	{
 8711              		.loc 8 38 0
 8712 3e41 E8000000 		call	__cxa_end_catch@PLT
 8712      00
 8713 3e46 4889D8   		movq	%rbx, %rax
 8714 3e49 4889C7   		movq	%rax, %rdi
 8715              	.LEHB225:
 8716 3e4c E8000000 		call	_Unwind_Resume@PLT
 8716      00
 8717              	.LEHE225:
 8718              	.L443:
 8719              		.loc 8 42 0
 8720 3e51 488B45D8 		movq	-40(%rbp), %rax
 8721 3e55 64483304 		xorq	%fs:40, %rax
 8721      25280000 
 8721      00
 8722 3e5e 7405     		je	.L456
 8723 3e60 E8000000 		call	__stack_chk_fail@PLT
 8723      00
 8724              	.L456:
 8725 3e65 4881C458 		addq	$1624, %rsp
 8725      060000
 8726 3e6c 5B       		popq	%rbx
 8727 3e6d 415C     		popq	%r12
 8728 3e6f 415D     		popq	%r13
 8729 3e71 5D       		popq	%rbp
 8730              		.cfi_def_cfa 7, 8
 8731 3e72 C3       		ret
 8732              		.cfi_endproc
 8733              	.LFE1267:
 8734              		.section	.gcc_except_table
 8735              		.align 4
 8736              	.LLSDA1267:
 8737 0610 FF       		.byte	0xff
 8738 0611 9B       		.byte	0x9b
 8739 0612 59       		.uleb128 .LLSDATT1267-.LLSDATTD1267
 8740              	.LLSDATTD1267:
 8741 0613 01       		.byte	0x1
 8742 0614 43       		.uleb128 .LLSDACSE1267-.LLSDACSB1267
 8743              	.LLSDACSB1267:
 8744 0615 2D       		.uleb128 .LEHB214-.LFB1267
 8745 0616 05       		.uleb128 .LEHE214-.LEHB214
 8746 0617 00       		.uleb128 0
 8747 0618 00       		.uleb128 0
 8748 0619 49       		.uleb128 .LEHB215-.LFB1267
 8749 061a 05       		.uleb128 .LEHE215-.LEHB215
 8750 061b D301     		.uleb128 .L457-.LFB1267
 8751 061d 05       		.uleb128 0x5
 8752 061e 8E01     		.uleb128 .LEHB216-.LFB1267
 8753 0620 05       		.uleb128 .LEHE216-.LEHB216
 8754 0621 B601     		.uleb128 .L458-.LFB1267
 8755 0623 07       		.uleb128 0x7
 8756 0624 AC01     		.uleb128 .LEHB217-.LFB1267
 8757 0626 05       		.uleb128 .LEHE217-.LEHB217
 8758 0627 D301     		.uleb128 .L457-.LFB1267
 8759 0629 05       		.uleb128 0x5
 8760 062a F701     		.uleb128 .LEHB218-.LFB1267
 8761 062c 8801     		.uleb128 .LEHE218-.LEHB218
 8762 062e DA04     		.uleb128 .L459-.LFB1267
 8763 0630 00       		.uleb128 0
 8764 0631 A203     		.uleb128 .LEHB219-.LFB1267
 8765 0633 05       		.uleb128 .LEHE219-.LEHB219
 8766 0634 8105     		.uleb128 .L460-.LFB1267
 8767 0636 00       		.uleb128 0
 8768 0637 B803     		.uleb128 .LEHB220-.LFB1267
 8769 0639 5C       		.uleb128 .LEHE220-.LEHB220
 8770 063a ED04     		.uleb128 .L461-.LFB1267
 8771 063c 00       		.uleb128 0
 8772 063d 9E04     		.uleb128 .LEHB221-.LFB1267
 8773 063f 05       		.uleb128 .LEHE221-.LEHB221
 8774 0640 8105     		.uleb128 .L460-.LFB1267
 8775 0642 00       		.uleb128 0
 8776 0643 B204     		.uleb128 .LEHB222-.LFB1267
 8777 0645 21       		.uleb128 .LEHE222-.LEHB222
 8778 0646 9405     		.uleb128 .L462-.LFB1267
 8779 0648 00       		.uleb128 0
 8780 0649 D304     		.uleb128 .LEHB223-.LFB1267
 8781 064b 1A       		.uleb128 .LEHE223-.LEHB223
 8782 064c 00       		.uleb128 0
 8783 064d 00       		.uleb128 0
 8784 064e 8F05     		.uleb128 .LEHB224-.LFB1267
 8785 0650 05       		.uleb128 .LEHE224-.LEHB224
 8786 0651 00       		.uleb128 0
 8787 0652 00       		.uleb128 0
 8788 0653 A205     		.uleb128 .LEHB225-.LFB1267
 8789 0655 05       		.uleb128 .LEHE225-.LEHB225
 8790 0656 00       		.uleb128 0
 8791 0657 00       		.uleb128 0
 8792              	.LLSDACSE1267:
 8793 0658 03       		.byte	0x3
 8794 0659 00       		.byte	0
 8795 065a 02       		.byte	0x2
 8796 065b 7D       		.byte	0x7d
 8797 065c 01       		.byte	0x1
 8798 065d 7D       		.byte	0x7d
 8799 065e 00       		.byte	0
 8800 065f 7D       		.byte	0x7d
 8801              		.align 4
 8802 0660 00000000 		.long	0
 8803              	
 8804 0664 00000000 		.long	DW.ref._ZTISt9exception-.
 8805 0668 00000000 		.long	DW.ref._ZTIN8UnitTest15AssertExceptionE-.
 8806              	.LLSDATT1267:
 8807              		.text
 8809              		.section	.rodata
 8810              	.LC77:
 8811 0e6f 45787065 		.string	"Expected "
 8811      63746564 
 8811      2000
 8812              	.LC78:
 8813 0e79 20627574 		.string	" but was "
 8813      20776173 
 8813      2000
 8814              		.section	.text._ZN8UnitTest10CheckEqualIiiEEvRNS_11TestResultsERKT_RKT0_RKNS_11TestDetailsE,"axG",
 8815              		.weak	_ZN8UnitTest10CheckEqualIiiEEvRNS_11TestResultsERKT_RKT0_RKNS_11TestDetailsE
 8817              	_ZN8UnitTest10CheckEqualIiiEEvRNS_11TestResultsERKT_RKT0_RKNS_11TestDetailsE:
 8818              	.LFB1268:
  16:../Checks.h   **** 
  17:../Checks.h   **** 
  18:../Checks.h   **** template< typename Expected, typename Actual >
  19:../Checks.h   **** void CheckEqual(TestResults& results, Expected const& expected, Actual const& actual, TestDetails c
 8819              		.loc 7 19 0
 8820              		.cfi_startproc
 8821              		.cfi_personality 0x9b,DW.ref.__gxx_personality_v0
 8822              		.cfi_lsda 0x1b,.LLSDA1268
 8823 0000 55       		pushq	%rbp
 8824              		.cfi_def_cfa_offset 16
 8825              		.cfi_offset 6, -16
 8826 0001 4889E5   		movq	%rsp, %rbp
 8827              		.cfi_def_cfa_register 6
 8828 0004 53       		pushq	%rbx
 8829 0005 4881ECC8 		subq	$456, %rsp
 8829      010000
 8830              		.cfi_offset 3, -24
 8831 000c 4889BD48 		movq	%rdi, -440(%rbp)
 8831      FEFFFF
 8832 0013 4889B540 		movq	%rsi, -448(%rbp)
 8832      FEFFFF
 8833 001a 48899538 		movq	%rdx, -456(%rbp)
 8833      FEFFFF
 8834 0021 48898D30 		movq	%rcx, -464(%rbp)
 8834      FEFFFF
 8835              		.loc 7 19 0
 8836 0028 64488B04 		movq	%fs:40, %rax
 8836      25280000 
 8836      00
 8837 0031 488945E8 		movq	%rax, -24(%rbp)
 8838 0035 31C0     		xorl	%eax, %eax
 8839              	.LBB138:
  20:../Checks.h   **** {
  21:../Checks.h   ****     if (!(expected == actual))
 8840              		.loc 7 21 0
 8841 0037 488B8540 		movq	-448(%rbp), %rax
 8841      FEFFFF
 8842 003e 8B10     		movl	(%rax), %edx
 8843 0040 488B8538 		movq	-456(%rbp), %rax
 8843      FEFFFF
 8844 0047 8B00     		movl	(%rax), %eax
 8845 0049 39C2     		cmpl	%eax, %edx
 8846 004b 0F84B900 		je	.L469
 8846      0000
 8847              	.LBB139:
  22:../Checks.h   ****     {
  23:../Checks.h   ****         UnitTest::MemoryOutStream stream;
 8848              		.loc 7 23 0
 8849 0051 488D8550 		leaq	-432(%rbp), %rax
 8849      FEFFFF
 8850 0058 4889C7   		movq	%rax, %rdi
 8851              	.LEHB226:
 8852 005b E8000000 		call	_ZN8UnitTest15MemoryOutStreamC1Ev
 8852      00
 8853              	.LEHE226:
  24:../Checks.h   ****         stream << "Expected " << expected << " but was " << actual;
 8854              		.loc 7 24 0
 8855 0060 488D8550 		leaq	-432(%rbp), %rax
 8855      FEFFFF
 8856 0067 488D3500 		leaq	.LC77(%rip), %rsi
 8856      000000
 8857 006e 4889C7   		movq	%rax, %rdi
 8858              	.LEHB227:
 8859 0071 E8000000 		call	_ZStlsISt11char_traitsIcEERSt13basic_ostreamIcT_ES5_PKc@PLT
 8859      00
 8860 0076 4889C2   		movq	%rax, %rdx
 8861 0079 488B8540 		movq	-448(%rbp), %rax
 8861      FEFFFF
 8862 0080 8B00     		movl	(%rax), %eax
 8863 0082 89C6     		movl	%eax, %esi
 8864 0084 4889D7   		movq	%rdx, %rdi
 8865 0087 E8000000 		call	_ZNSolsEi@PLT
 8865      00
 8866              		.loc 7 24 0 is_stmt 0 discriminator 1
 8867 008c 488D3500 		leaq	.LC78(%rip), %rsi
 8867      000000
 8868 0093 4889C7   		movq	%rax, %rdi
 8869 0096 E8000000 		call	_ZStlsISt11char_traitsIcEERSt13basic_ostreamIcT_ES5_PKc@PLT
 8869      00
 8870              		.loc 7 24 0 discriminator 2
 8871 009b 4889C2   		movq	%rax, %rdx
 8872 009e 488B8538 		movq	-456(%rbp), %rax
 8872      FEFFFF
 8873 00a5 8B00     		movl	(%rax), %eax
 8874 00a7 89C6     		movl	%eax, %esi
 8875 00a9 4889D7   		movq	%rdx, %rdi
 8876 00ac E8000000 		call	_ZNSolsEi@PLT
 8876      00
  25:../Checks.h   **** 
  26:../Checks.h   ****         results.OnTestFailure(details, stream.GetText());
 8877              		.loc 7 26 0 is_stmt 1
 8878 00b1 488D8550 		leaq	-432(%rbp), %rax
 8878      FEFFFF
 8879 00b8 4889C7   		movq	%rax, %rdi
 8880 00bb E8000000 		call	_ZNK8UnitTest15MemoryOutStream7GetTextEv@PLT
 8880      00
 8881 00c0 4889C2   		movq	%rax, %rdx
 8882 00c3 488B8D30 		movq	-464(%rbp), %rcx
 8882      FEFFFF
 8883 00ca 488B8548 		movq	-440(%rbp), %rax
 8883      FEFFFF
 8884 00d1 4889CE   		movq	%rcx, %rsi
 8885 00d4 4889C7   		movq	%rax, %rdi
 8886 00d7 E8000000 		call	_ZN8UnitTest11TestResults13OnTestFailureERKNS_11TestDetailsEPKc@PLT
 8886      00
 8887              	.LEHE227:
  23:../Checks.h   ****         stream << "Expected " << expected << " but was " << actual;
 8888              		.loc 7 23 0
 8889 00dc 488D8550 		leaq	-432(%rbp), %rax
 8889      FEFFFF
 8890 00e3 4889C7   		movq	%rax, %rdi
 8891              	.LEHB228:
 8892 00e6 E8000000 		call	_ZN8UnitTest15MemoryOutStreamD1Ev
 8892      00
 8893              	.LEHE228:
 8894              	.LBE139:
 8895              	.LBE138:
  27:../Checks.h   ****     }
  28:../Checks.h   **** }
 8896              		.loc 7 28 0
 8897 00eb EB1D     		jmp	.L469
 8898              	.L468:
 8899 00ed 4889C3   		movq	%rax, %rbx
 8900              	.LBB141:
 8901              	.LBB140:
  23:../Checks.h   ****         stream << "Expected " << expected << " but was " << actual;
 8902              		.loc 7 23 0
 8903 00f0 488D8550 		leaq	-432(%rbp), %rax
 8903      FEFFFF
 8904 00f7 4889C7   		movq	%rax, %rdi
 8905 00fa E8000000 		call	_ZN8UnitTest15MemoryOutStreamD1Ev
 8905      00
 8906 00ff 4889D8   		movq	%rbx, %rax
 8907 0102 4889C7   		movq	%rax, %rdi
 8908              	.LEHB229:
 8909 0105 E8000000 		call	_Unwind_Resume@PLT
 8909      00
 8910              	.LEHE229:
 8911              	.L469:
 8912              	.LBE140:
 8913              	.LBE141:
 8914              		.loc 7 28 0
 8915 010a 90       		nop
 8916 010b 488B45E8 		movq	-24(%rbp), %rax
 8917 010f 64483304 		xorq	%fs:40, %rax
 8917      25280000 
 8917      00
 8918 0118 7405     		je	.L467
 8919 011a E8000000 		call	__stack_chk_fail@PLT
 8919      00
 8920              	.L467:
 8921 011f 4881C4C8 		addq	$456, %rsp
 8921      010000
 8922 0126 5B       		popq	%rbx
 8923 0127 5D       		popq	%rbp
 8924              		.cfi_def_cfa 7, 8
 8925 0128 C3       		ret
 8926              		.cfi_endproc
 8927              	.LFE1268:
 8928              		.section	.gcc_except_table
 8929              	.LLSDA1268:
 8930 066c FF       		.byte	0xff
 8931 066d FF       		.byte	0xff
 8932 066e 01       		.byte	0x1
 8933 066f 13       		.uleb128 .LLSDACSE1268-.LLSDACSB1268
 8934              	.LLSDACSB1268:
 8935 0670 5B       		.uleb128 .LEHB226-.LFB1268
 8936 0671 05       		.uleb128 .LEHE226-.LEHB226
 8937 0672 00       		.uleb128 0
 8938 0673 00       		.uleb128 0
 8939 0674 71       		.uleb128 .LEHB227-.LFB1268
 8940 0675 6B       		.uleb128 .LEHE227-.LEHB227
 8941 0676 ED01     		.uleb128 .L468-.LFB1268
 8942 0678 00       		.uleb128 0
 8943 0679 E601     		.uleb128 .LEHB228-.LFB1268
 8944 067b 05       		.uleb128 .LEHE228-.LEHB228
 8945 067c 00       		.uleb128 0
 8946 067d 00       		.uleb128 0
 8947 067e 8502     		.uleb128 .LEHB229-.LFB1268
 8948 0680 05       		.uleb128 .LEHE229-.LEHB229
 8949 0681 00       		.uleb128 0
 8950 0682 00       		.uleb128 0
 8951              	.LLSDACSE1268:
 8952              		.section	.text._ZN8UnitTest10CheckEqualIiiEEvRNS_11TestResultsERKT_RKT0_RKNS_11TestDetailsE,"axG",
 8954              		.text
 8956              	_ZN8UnitTest11ExecuteTestIN12_GLOBAL__N_148FixtureDtorThrowsFixtureDtorThrowsTestNameHelperEEEvRT_R
 8957              	.LFB1269:
  16:../ExecuteTest.h **** {
 8958              		.loc 8 16 0
 8959              		.cfi_startproc
 8960              		.cfi_personality 0x9b,DW.ref.__gxx_personality_v0
 8961              		.cfi_lsda 0x1b,.LLSDA1269
 8962 3e73 55       		pushq	%rbp
 8963              		.cfi_def_cfa_offset 16
 8964              		.cfi_offset 6, -16
 8965 3e74 4889E5   		movq	%rsp, %rbp
 8966              		.cfi_def_cfa_register 6
 8967 3e77 4155     		pushq	%r13
 8968 3e79 4154     		pushq	%r12
 8969 3e7b 53       		pushq	%rbx
 8970 3e7c 4881EC58 		subq	$1624, %rsp
 8970      060000
 8971              		.cfi_offset 13, -24
 8972              		.cfi_offset 12, -32
 8973              		.cfi_offset 3, -40
 8974 3e83 4889BD98 		movq	%rdi, -1640(%rbp)
 8974      F9FFFF
 8975 3e8a 4889B590 		movq	%rsi, -1648(%rbp)
 8975      F9FFFF
  16:../ExecuteTest.h **** {
 8976              		.loc 8 16 0
 8977 3e91 64488B04 		movq	%fs:40, %rax
 8977      25280000 
 8977      00
 8978 3e9a 488945D8 		movq	%rax, -40(%rbp)
 8979 3e9e 31C0     		xorl	%eax, %eax
 8980              	.LEHB230:
  18:../ExecuteTest.h **** 
 8981              		.loc 8 18 0
 8982 3ea0 E8000000 		call	_ZN8UnitTest11CurrentTest7DetailsEv@PLT
 8982      00
 8983              	.LEHE230:
 8984 3ea5 4889C2   		movq	%rax, %rdx
 8985 3ea8 488B8590 		movq	-1648(%rbp), %rax
 8985      F9FFFF
 8986 3eaf 488902   		movq	%rax, (%rdx)
 8987              	.LBB142:
  23:../ExecuteTest.h **** #endif
 8988              		.loc 8 23 0
 8989 3eb2 488D8570 		leaq	-1168(%rbp), %rax
 8989      FBFFFF
 8990 3eb9 4889C7   		movq	%rax, %rdi
 8991              	.LEHB231:
 8992 3ebc E8000000 		call	_ZN8UnitTest16SignalTranslatorC1Ev@PLT
 8992      00
 8993              	.LEHE231:
  23:../ExecuteTest.h **** #endif
 8994              		.loc 8 23 0 is_stmt 0 discriminator 1
 8995 3ec1 488B0500 		movq	_ZN8UnitTest16SignalTranslator12s_jumpTargetE(%rip), %rax
 8995      000000
 8996 3ec8 BE010000 		movl	$1, %esi
 8996      00
 8997 3ecd 4889C7   		movq	%rax, %rdi
 8998 3ed0 E8000000 		call	__sigsetjmp@PLT
 8998      00
 8999 3ed5 85C0     		testl	%eax, %eax
 9000 3ed7 0F95C0   		setne	%al
 9001 3eda 84C0     		testb	%al, %al
 9002 3edc 7428     		je	.L472
  23:../ExecuteTest.h **** #endif
 9003              		.loc 8 23 0 discriminator 4
 9004 3ede BF080000 		movl	$8, %edi
 9004      00
 9005 3ee3 E8000000 		call	__cxa_allocate_exception@PLT
 9005      00
 9006 3ee8 488D1500 		leaq	.LC75(%rip), %rdx
 9006      000000
 9007 3eef 488910   		movq	%rdx, (%rax)
 9008 3ef2 BA000000 		movl	$0, %edx
 9008      00
 9009 3ef7 488D3500 		leaq	_ZTIPKc(%rip), %rsi
 9009      000000
 9010 3efe 4889C7   		movq	%rax, %rdi
 9011              	.LEHB232:
 9012 3f01 E8000000 		call	__cxa_throw@PLT
 9012      00
 9013              	.LEHE232:
 9014              	.L472:
  25:../ExecuteTest.h **** 	}
 9015              		.loc 8 25 0 is_stmt 1
 9016 3f06 488B8598 		movq	-1640(%rbp), %rax
 9016      F9FFFF
 9017 3f0d 4889C7   		movq	%rax, %rdi
 9018 3f10 E8DBE5FF 		call	_ZN12_GLOBAL__N_148FixtureDtorThrowsFixtureDtorThrowsTestNameHelper7RunImplEv
 9018      FF
  23:../ExecuteTest.h **** #endif
 9019              		.loc 8 23 0
 9020 3f15 488D8570 		leaq	-1168(%rbp), %rax
 9020      FBFFFF
 9021 3f1c 4889C7   		movq	%rax, %rdi
 9022              	.LEHB233:
 9023 3f1f E8000000 		call	_ZN8UnitTest16SignalTranslatorD1Ev@PLT
 9023      00
 9024              	.LEHE233:
 9025              	.LBE142:
 9026              		.loc 8 42 0
 9027 3f24 E9F10100 		jmp	.L470
 9027      00
 9028              	.L485:
 9029 3f29 4989C4   		movq	%rax, %r12
 9030 3f2c 4889D3   		movq	%rdx, %rbx
 9031              	.LBB143:
  23:../ExecuteTest.h **** #endif
 9032              		.loc 8 23 0
 9033 3f2f 488D8570 		leaq	-1168(%rbp), %rax
 9033      FBFFFF
 9034 3f36 4889C7   		movq	%rax, %rdi
 9035 3f39 E8000000 		call	_ZN8UnitTest16SignalTranslatorD1Ev@PLT
 9035      00
 9036 3f3e 4C89E0   		movq	%r12, %rax
 9037 3f41 4889DA   		movq	%rbx, %rdx
 9038 3f44 EB00     		jmp	.L474
 9039              	.L484:
 9040              	.L474:
 9041 3f46 4883FA01 		cmpq	$1, %rdx
 9042 3f4a 740F     		je	.L476
 9043 3f4c 4883FA02 		cmpq	$2, %rdx
 9044 3f50 0F84A600 		je	.L477
 9044      0000
 9045 3f56 E9420100 		jmp	.L490
 9045      00
 9046              	.L476:
 9047              	.LBE143:
 9048              	.LBB144:
  27:../ExecuteTest.h **** 	{
 9049              		.loc 8 27 0
 9050 3f5b 4889C7   		movq	%rax, %rdi
 9051 3f5e E8000000 		call	__cxa_begin_catch@PLT
 9051      00
 9052 3f63 488985A8 		movq	%rax, -1624(%rbp)
 9052      F9FFFF
 9053              	.LEHB234:
  29:../ExecuteTest.h **** 			TestDetails(details.testName, details.suiteName, e.Filename(), e.LineNumber()), e.what());
 9054              		.loc 8 29 0
 9055 3f6a E8000000 		call	_ZN8UnitTest11CurrentTest7ResultsEv@PLT
 9055      00
  29:../ExecuteTest.h **** 			TestDetails(details.testName, details.suiteName, e.Filename(), e.LineNumber()), e.what());
 9056              		.loc 8 29 0 is_stmt 0 discriminator 1
 9057 3f6f 488B18   		movq	(%rax), %rbx
  30:../ExecuteTest.h **** 	}
 9058              		.loc 8 30 0 is_stmt 1 discriminator 1
 9059 3f72 488B85A8 		movq	-1624(%rbp), %rax
 9059      F9FFFF
 9060 3f79 488B00   		movq	(%rax), %rax
 9061 3f7c 4883C010 		addq	$16, %rax
 9062 3f80 488B00   		movq	(%rax), %rax
  29:../ExecuteTest.h **** 			TestDetails(details.testName, details.suiteName, e.Filename(), e.LineNumber()), e.what());
 9063              		.loc 8 29 0 discriminator 1
 9064 3f83 488B95A8 		movq	-1624(%rbp), %rdx
 9064      F9FFFF
 9065 3f8a 4889D7   		movq	%rdx, %rdi
 9066 3f8d FFD0     		call	*%rax
 9067              	.LVL24:
 9068 3f8f 4989C4   		movq	%rax, %r12
 9069 3f92 488B85A8 		movq	-1624(%rbp), %rax
 9069      F9FFFF
 9070 3f99 4889C7   		movq	%rax, %rdi
 9071 3f9c E8000000 		call	_ZNK8UnitTest15AssertException10LineNumberEv@PLT
 9071      00
  29:../ExecuteTest.h **** 			TestDetails(details.testName, details.suiteName, e.Filename(), e.LineNumber()), e.what());
 9072              		.loc 8 29 0 is_stmt 0 discriminator 2
 9073 3fa1 4189C5   		movl	%eax, %r13d
 9074 3fa4 488B85A8 		movq	-1624(%rbp), %rax
 9074      F9FFFF
 9075 3fab 4889C7   		movq	%rax, %rdi
 9076 3fae E8000000 		call	_ZNK8UnitTest15AssertException8FilenameEv@PLT
 9076      00
  29:../ExecuteTest.h **** 			TestDetails(details.testName, details.suiteName, e.Filename(), e.LineNumber()), e.what());
 9077              		.loc 8 29 0 discriminator 3
 9078 3fb3 4889C1   		movq	%rax, %rcx
  30:../ExecuteTest.h **** 	}
 9079              		.loc 8 30 0 is_stmt 1 discriminator 3
 9080 3fb6 488B8590 		movq	-1648(%rbp), %rax
 9080      F9FFFF
 9081 3fbd 488B10   		movq	(%rax), %rdx
 9082 3fc0 488B8590 		movq	-1648(%rbp), %rax
 9082      F9FFFF
 9083 3fc7 488B7008 		movq	8(%rax), %rsi
  29:../ExecuteTest.h **** 			TestDetails(details.testName, details.suiteName, e.Filename(), e.LineNumber()), e.what());
 9084              		.loc 8 29 0 discriminator 3
 9085 3fcb 488D85B0 		leaq	-1616(%rbp), %rax
 9085      F9FFFF
 9086 3fd2 4589E8   		movl	%r13d, %r8d
 9087 3fd5 4889C7   		movq	%rax, %rdi
 9088 3fd8 E8000000 		call	_ZN8UnitTest11TestDetailsC1EPKcS2_S2_i@PLT
 9088      00
  29:../ExecuteTest.h **** 			TestDetails(details.testName, details.suiteName, e.Filename(), e.LineNumber()), e.what());
 9089              		.loc 8 29 0 is_stmt 0 discriminator 5
 9090 3fdd 488D85B0 		leaq	-1616(%rbp), %rax
 9090      F9FFFF
 9091 3fe4 4C89E2   		movq	%r12, %rdx
 9092 3fe7 4889C6   		movq	%rax, %rsi
 9093 3fea 4889DF   		movq	%rbx, %rdi
 9094 3fed E8000000 		call	_ZN8UnitTest11TestResults13OnTestFailureERKNS_11TestDetailsEPKc@PLT
 9094      00
 9095              	.LEHE234:
  27:../ExecuteTest.h **** 	{
 9096              		.loc 8 27 0 is_stmt 1 discriminator 7
 9097 3ff2 E8000000 		call	__cxa_end_catch@PLT
 9097      00
 9098              	.LBE144:
 9099              		.loc 8 42 0 discriminator 7
 9100 3ff7 E91E0100 		jmp	.L470
 9100      00
 9101              	.L477:
 9102              	.LBB145:
  32:../ExecuteTest.h **** 	{
 9103              		.loc 8 32 0
 9104 3ffc 4889C7   		movq	%rax, %rdi
 9105 3fff E8000000 		call	__cxa_begin_catch@PLT
 9105      00
 9106 4004 488985A0 		movq	%rax, -1632(%rbp)
 9106      F9FFFF
 9107              	.LBB146:
  34:../ExecuteTest.h **** 		stream << "Unhandled exception: " << e.what();
 9108              		.loc 8 34 0
 9109 400b 488D85D0 		leaq	-1584(%rbp), %rax
 9109      F9FFFF
 9110 4012 4889C7   		movq	%rax, %rdi
 9111              	.LEHB235:
 9112 4015 E8000000 		call	_ZN8UnitTest15MemoryOutStreamC1Ev
 9112      00
 9113              	.LEHE235:
  35:../ExecuteTest.h **** 		CurrentTest::Results()->OnTestFailure(details, stream.GetText());
 9114              		.loc 8 35 0
 9115 401a 488D85D0 		leaq	-1584(%rbp), %rax
 9115      F9FFFF
 9116 4021 488D3500 		leaq	.LC11(%rip), %rsi
 9116      000000
 9117 4028 4889C7   		movq	%rax, %rdi
 9118              	.LEHB236:
 9119 402b E8000000 		call	_ZStlsISt11char_traitsIcEERSt13basic_ostreamIcT_ES5_PKc@PLT
 9119      00
 9120 4030 4889C3   		movq	%rax, %rbx
 9121 4033 488B85A0 		movq	-1632(%rbp), %rax
 9121      F9FFFF
 9122 403a 488B00   		movq	(%rax), %rax
 9123 403d 4883C010 		addq	$16, %rax
 9124 4041 488B00   		movq	(%rax), %rax
 9125 4044 488B95A0 		movq	-1632(%rbp), %rdx
 9125      F9FFFF
 9126 404b 4889D7   		movq	%rdx, %rdi
 9127 404e FFD0     		call	*%rax
 9128              	.LVL25:
 9129 4050 4889C6   		movq	%rax, %rsi
 9130 4053 4889DF   		movq	%rbx, %rdi
 9131 4056 E8000000 		call	_ZStlsISt11char_traitsIcEERSt13basic_ostreamIcT_ES5_PKc@PLT
 9131      00
  36:../ExecuteTest.h **** 	}
 9132              		.loc 8 36 0
 9133 405b E8000000 		call	_ZN8UnitTest11CurrentTest7ResultsEv@PLT
 9133      00
 9134 4060 488B18   		movq	(%rax), %rbx
 9135 4063 488D85D0 		leaq	-1584(%rbp), %rax
 9135      F9FFFF
 9136 406a 4889C7   		movq	%rax, %rdi
 9137 406d E8000000 		call	_ZNK8UnitTest15MemoryOutStream7GetTextEv@PLT
 9137      00
  36:../ExecuteTest.h **** 	}
 9138              		.loc 8 36 0 is_stmt 0 discriminator 1
 9139 4072 4889C2   		movq	%rax, %rdx
 9140 4075 488B8590 		movq	-1648(%rbp), %rax
 9140      F9FFFF
 9141 407c 4889C6   		movq	%rax, %rsi
 9142 407f 4889DF   		movq	%rbx, %rdi
 9143 4082 E8000000 		call	_ZN8UnitTest11TestResults13OnTestFailureERKNS_11TestDetailsEPKc@PLT
 9143      00
 9144              	.LEHE236:
  34:../ExecuteTest.h **** 		stream << "Unhandled exception: " << e.what();
 9145              		.loc 8 34 0 is_stmt 1
 9146 4087 488D85D0 		leaq	-1584(%rbp), %rax
 9146      F9FFFF
 9147 408e 4889C7   		movq	%rax, %rdi
 9148              	.LEHB237:
 9149 4091 E8000000 		call	_ZN8UnitTest15MemoryOutStreamD1Ev
 9149      00
 9150              	.LEHE237:
 9151              	.LBE146:
  32:../ExecuteTest.h **** 	{
 9152              		.loc 8 32 0
 9153 4096 E8000000 		call	__cxa_end_catch@PLT
 9153      00
 9154              	.LBE145:
 9155              		.loc 8 42 0
 9156 409b EB7D     		jmp	.L470
 9157              	.L490:
  38:../ExecuteTest.h **** 	{
 9158              		.loc 8 38 0
 9159 409d 4889C7   		movq	%rax, %rdi
 9160 40a0 E8000000 		call	__cxa_begin_catch@PLT
 9160      00
 9161              	.LEHB238:
  40:../ExecuteTest.h **** 	}
 9162              		.loc 8 40 0
 9163 40a5 E8000000 		call	_ZN8UnitTest11CurrentTest7ResultsEv@PLT
 9163      00
 9164 40aa 488B00   		movq	(%rax), %rax
 9165 40ad 488B8D90 		movq	-1648(%rbp), %rcx
 9165      F9FFFF
 9166 40b4 488D1500 		leaq	.LC76(%rip), %rdx
 9166      000000
 9167 40bb 4889CE   		movq	%rcx, %rsi
 9168 40be 4889C7   		movq	%rax, %rdi
 9169 40c1 E8000000 		call	_ZN8UnitTest11TestResults13OnTestFailureERKNS_11TestDetailsEPKc@PLT
 9169      00
 9170              	.LEHE238:
 9171              	.LEHB239:
  38:../ExecuteTest.h **** 	{
 9172              		.loc 8 38 0
 9173 40c6 E8000000 		call	__cxa_end_catch@PLT
 9173      00
 9174              		.loc 8 42 0
 9175 40cb EB4D     		jmp	.L470
 9176              	.L486:
 9177 40cd 4889C3   		movq	%rax, %rbx
 9178              	.LBB148:
  27:../ExecuteTest.h **** 	{
 9179              		.loc 8 27 0
 9180 40d0 E8000000 		call	__cxa_end_catch@PLT
 9180      00
 9181 40d5 4889D8   		movq	%rbx, %rax
 9182 40d8 4889C7   		movq	%rax, %rdi
 9183 40db E8000000 		call	_Unwind_Resume@PLT
 9183      00
 9184              	.LEHE239:
 9185              	.L488:
 9186 40e0 4889C3   		movq	%rax, %rbx
 9187              	.LBE148:
 9188              	.LBB149:
 9189              	.LBB147:
  34:../ExecuteTest.h **** 		stream << "Unhandled exception: " << e.what();
 9190              		.loc 8 34 0
 9191 40e3 488D85D0 		leaq	-1584(%rbp), %rax
 9191      F9FFFF
 9192 40ea 4889C7   		movq	%rax, %rdi
 9193 40ed E8000000 		call	_ZN8UnitTest15MemoryOutStreamD1Ev
 9193      00
 9194 40f2 EB03     		jmp	.L481
 9195              	.L487:
 9196 40f4 4889C3   		movq	%rax, %rbx
 9197              	.L481:
 9198              	.LBE147:
  32:../ExecuteTest.h **** 	{
 9199              		.loc 8 32 0
 9200 40f7 E8000000 		call	__cxa_end_catch@PLT
 9200      00
 9201 40fc 4889D8   		movq	%rbx, %rax
 9202 40ff 4889C7   		movq	%rax, %rdi
 9203              	.LEHB240:
 9204 4102 E8000000 		call	_Unwind_Resume@PLT
 9204      00
 9205              	.LEHE240:
 9206              	.L489:
 9207 4107 4889C3   		movq	%rax, %rbx
 9208              	.LBE149:
  38:../ExecuteTest.h **** 	{
 9209              		.loc 8 38 0
 9210 410a E8000000 		call	__cxa_end_catch@PLT
 9210      00
 9211 410f 4889D8   		movq	%rbx, %rax
 9212 4112 4889C7   		movq	%rax, %rdi
 9213              	.LEHB241:
 9214 4115 E8000000 		call	_Unwind_Resume@PLT
 9214      00
 9215              	.LEHE241:
 9216              	.L470:
 9217              		.loc 8 42 0
 9218 411a 488B45D8 		movq	-40(%rbp), %rax
 9219 411e 64483304 		xorq	%fs:40, %rax
 9219      25280000 
 9219      00
 9220 4127 7405     		je	.L483
 9221 4129 E8000000 		call	__stack_chk_fail@PLT
 9221      00
 9222              	.L483:
 9223 412e 4881C458 		addq	$1624, %rsp
 9223      060000
 9224 4135 5B       		popq	%rbx
 9225 4136 415C     		popq	%r12
 9226 4138 415D     		popq	%r13
 9227 413a 5D       		popq	%rbp
 9228              		.cfi_def_cfa 7, 8
 9229 413b C3       		ret
 9230              		.cfi_endproc
 9231              	.LFE1269:
 9232              		.section	.gcc_except_table
 9233 0683 00       		.align 4
 9234              	.LLSDA1269:
 9235 0684 FF       		.byte	0xff
 9236 0685 9B       		.byte	0x9b
 9237 0686 59       		.uleb128 .LLSDATT1269-.LLSDATTD1269
 9238              	.LLSDATTD1269:
 9239 0687 01       		.byte	0x1
 9240 0688 43       		.uleb128 .LLSDACSE1269-.LLSDACSB1269
 9241              	.LLSDACSB1269:
 9242 0689 2D       		.uleb128 .LEHB230-.LFB1269
 9243 068a 05       		.uleb128 .LEHE230-.LEHB230
 9244 068b 00       		.uleb128 0
 9245 068c 00       		.uleb128 0
 9246 068d 49       		.uleb128 .LEHB231-.LFB1269
 9247 068e 05       		.uleb128 .LEHE231-.LEHB231
 9248 068f D301     		.uleb128 .L484-.LFB1269
 9249 0691 05       		.uleb128 0x5
 9250 0692 8E01     		.uleb128 .LEHB232-.LFB1269
 9251 0694 05       		.uleb128 .LEHE232-.LEHB232
 9252 0695 B601     		.uleb128 .L485-.LFB1269
 9253 0697 07       		.uleb128 0x7
 9254 0698 AC01     		.uleb128 .LEHB233-.LFB1269
 9255 069a 05       		.uleb128 .LEHE233-.LEHB233
 9256 069b D301     		.uleb128 .L484-.LFB1269
 9257 069d 05       		.uleb128 0x5
 9258 069e F701     		.uleb128 .LEHB234-.LFB1269
 9259 06a0 8801     		.uleb128 .LEHE234-.LEHB234
 9260 06a2 DA04     		.uleb128 .L486-.LFB1269
 9261 06a4 00       		.uleb128 0
 9262 06a5 A203     		.uleb128 .LEHB235-.LFB1269
 9263 06a7 05       		.uleb128 .LEHE235-.LEHB235
 9264 06a8 8105     		.uleb128 .L487-.LFB1269
 9265 06aa 00       		.uleb128 0
 9266 06ab B803     		.uleb128 .LEHB236-.LFB1269
 9267 06ad 5C       		.uleb128 .LEHE236-.LEHB236
 9268 06ae ED04     		.uleb128 .L488-.LFB1269
 9269 06b0 00       		.uleb128 0
 9270 06b1 9E04     		.uleb128 .LEHB237-.LFB1269
 9271 06b3 05       		.uleb128 .LEHE237-.LEHB237
 9272 06b4 8105     		.uleb128 .L487-.LFB1269
 9273 06b6 00       		.uleb128 0
 9274 06b7 B204     		.uleb128 .LEHB238-.LFB1269
 9275 06b9 21       		.uleb128 .LEHE238-.LEHB238
 9276 06ba 9405     		.uleb128 .L489-.LFB1269
 9277 06bc 00       		.uleb128 0
 9278 06bd D304     		.uleb128 .LEHB239-.LFB1269
 9279 06bf 1A       		.uleb128 .LEHE239-.LEHB239
 9280 06c0 00       		.uleb128 0
 9281 06c1 00       		.uleb128 0
 9282 06c2 8F05     		.uleb128 .LEHB240-.LFB1269
 9283 06c4 05       		.uleb128 .LEHE240-.LEHB240
 9284 06c5 00       		.uleb128 0
 9285 06c6 00       		.uleb128 0
 9286 06c7 A205     		.uleb128 .LEHB241-.LFB1269
 9287 06c9 05       		.uleb128 .LEHE241-.LEHB241
 9288 06ca 00       		.uleb128 0
 9289 06cb 00       		.uleb128 0
 9290              	.LLSDACSE1269:
 9291 06cc 03       		.byte	0x3
 9292 06cd 00       		.byte	0
 9293 06ce 02       		.byte	0x2
 9294 06cf 7D       		.byte	0x7d
 9295 06d0 01       		.byte	0x1
 9296 06d1 7D       		.byte	0x7d
 9297 06d2 00       		.byte	0
 9298 06d3 7D       		.byte	0x7d
 9299              		.align 4
 9300 06d4 00000000 		.long	0
 9301              	
 9302 06d8 00000000 		.long	DW.ref._ZTISt9exception-.
 9303 06dc 00000000 		.long	DW.ref._ZTIN8UnitTest15AssertExceptionE-.
 9304              	.LLSDATT1269:
 9305              		.text
 9308              	_ZN8UnitTest11ExecuteTestIN12_GLOBAL__N_159FixtureCtorAssertsCorrectlyReportsAssertFailureInCtorHel
 9309              	.LFB1270:
  16:../ExecuteTest.h **** {
 9310              		.loc 8 16 0
 9311              		.cfi_startproc
 9312              		.cfi_personality 0x9b,DW.ref.__gxx_personality_v0
 9313              		.cfi_lsda 0x1b,.LLSDA1270
 9314 413c 55       		pushq	%rbp
 9315              		.cfi_def_cfa_offset 16
 9316              		.cfi_offset 6, -16
 9317 413d 4889E5   		movq	%rsp, %rbp
 9318              		.cfi_def_cfa_register 6
 9319 4140 4155     		pushq	%r13
 9320 4142 4154     		pushq	%r12
 9321 4144 53       		pushq	%rbx
 9322 4145 4881EC58 		subq	$1624, %rsp
 9322      060000
 9323              		.cfi_offset 13, -24
 9324              		.cfi_offset 12, -32
 9325              		.cfi_offset 3, -40
 9326 414c 4889BD98 		movq	%rdi, -1640(%rbp)
 9326      F9FFFF
 9327 4153 4889B590 		movq	%rsi, -1648(%rbp)
 9327      F9FFFF
  16:../ExecuteTest.h **** {
 9328              		.loc 8 16 0
 9329 415a 64488B04 		movq	%fs:40, %rax
 9329      25280000 
 9329      00
 9330 4163 488945D8 		movq	%rax, -40(%rbp)
 9331 4167 31C0     		xorl	%eax, %eax
 9332              	.LEHB242:
  18:../ExecuteTest.h **** 
 9333              		.loc 8 18 0
 9334 4169 E8000000 		call	_ZN8UnitTest11CurrentTest7DetailsEv@PLT
 9334      00
 9335              	.LEHE242:
 9336 416e 4889C2   		movq	%rax, %rdx
 9337 4171 488B8590 		movq	-1648(%rbp), %rax
 9337      F9FFFF
 9338 4178 488902   		movq	%rax, (%rdx)
 9339              	.LBB150:
  23:../ExecuteTest.h **** #endif
 9340              		.loc 8 23 0
 9341 417b 488D8570 		leaq	-1168(%rbp), %rax
 9341      FBFFFF
 9342 4182 4889C7   		movq	%rax, %rdi
 9343              	.LEHB243:
 9344 4185 E8000000 		call	_ZN8UnitTest16SignalTranslatorC1Ev@PLT
 9344      00
 9345              	.LEHE243:
  23:../ExecuteTest.h **** #endif
 9346              		.loc 8 23 0 is_stmt 0 discriminator 1
 9347 418a 488B0500 		movq	_ZN8UnitTest16SignalTranslator12s_jumpTargetE(%rip), %rax
 9347      000000
 9348 4191 BE010000 		movl	$1, %esi
 9348      00
 9349 4196 4889C7   		movq	%rax, %rdi
 9350 4199 E8000000 		call	__sigsetjmp@PLT
 9350      00
 9351 419e 85C0     		testl	%eax, %eax
 9352 41a0 0F95C0   		setne	%al
 9353 41a3 84C0     		testb	%al, %al
 9354 41a5 7428     		je	.L493
  23:../ExecuteTest.h **** #endif
 9355              		.loc 8 23 0 discriminator 4
 9356 41a7 BF080000 		movl	$8, %edi
 9356      00
 9357 41ac E8000000 		call	__cxa_allocate_exception@PLT
 9357      00
 9358 41b1 488D1500 		leaq	.LC75(%rip), %rdx
 9358      000000
 9359 41b8 488910   		movq	%rdx, (%rax)
 9360 41bb BA000000 		movl	$0, %edx
 9360      00
 9361 41c0 488D3500 		leaq	_ZTIPKc(%rip), %rsi
 9361      000000
 9362 41c7 4889C7   		movq	%rax, %rdi
 9363              	.LEHB244:
 9364 41ca E8000000 		call	__cxa_throw@PLT
 9364      00
 9365              	.LEHE244:
 9366              	.L493:
  25:../ExecuteTest.h **** 	}
 9367              		.loc 8 25 0 is_stmt 1
 9368 41cf 488B8598 		movq	-1640(%rbp), %rax
 9368      F9FFFF
 9369 41d6 4889C7   		movq	%rax, %rdi
 9370 41d9 E830EAFF 		call	_ZN12_GLOBAL__N_159FixtureCtorAssertsCorrectlyReportsAssertFailureInCtorHelper7RunImplEv
 9370      FF
  23:../ExecuteTest.h **** #endif
 9371              		.loc 8 23 0
 9372 41de 488D8570 		leaq	-1168(%rbp), %rax
 9372      FBFFFF
 9373 41e5 4889C7   		movq	%rax, %rdi
 9374              	.LEHB245:
 9375 41e8 E8000000 		call	_ZN8UnitTest16SignalTranslatorD1Ev@PLT
 9375      00
 9376              	.LEHE245:
 9377              	.LBE150:
 9378              		.loc 8 42 0
 9379 41ed E9F10100 		jmp	.L491
 9379      00
 9380              	.L506:
 9381 41f2 4989C4   		movq	%rax, %r12
 9382 41f5 4889D3   		movq	%rdx, %rbx
 9383              	.LBB151:
  23:../ExecuteTest.h **** #endif
 9384              		.loc 8 23 0
 9385 41f8 488D8570 		leaq	-1168(%rbp), %rax
 9385      FBFFFF
 9386 41ff 4889C7   		movq	%rax, %rdi
 9387 4202 E8000000 		call	_ZN8UnitTest16SignalTranslatorD1Ev@PLT
 9387      00
 9388 4207 4C89E0   		movq	%r12, %rax
 9389 420a 4889DA   		movq	%rbx, %rdx
 9390 420d EB00     		jmp	.L495
 9391              	.L505:
 9392              	.L495:
 9393 420f 4883FA01 		cmpq	$1, %rdx
 9394 4213 740F     		je	.L497
 9395 4215 4883FA02 		cmpq	$2, %rdx
 9396 4219 0F84A600 		je	.L498
 9396      0000
 9397 421f E9420100 		jmp	.L511
 9397      00
 9398              	.L497:
 9399              	.LBE151:
 9400              	.LBB152:
  27:../ExecuteTest.h **** 	{
 9401              		.loc 8 27 0
 9402 4224 4889C7   		movq	%rax, %rdi
 9403 4227 E8000000 		call	__cxa_begin_catch@PLT
 9403      00
 9404 422c 488985A8 		movq	%rax, -1624(%rbp)
 9404      F9FFFF
 9405              	.LEHB246:
  29:../ExecuteTest.h **** 			TestDetails(details.testName, details.suiteName, e.Filename(), e.LineNumber()), e.what());
 9406              		.loc 8 29 0
 9407 4233 E8000000 		call	_ZN8UnitTest11CurrentTest7ResultsEv@PLT
 9407      00
  29:../ExecuteTest.h **** 			TestDetails(details.testName, details.suiteName, e.Filename(), e.LineNumber()), e.what());
 9408              		.loc 8 29 0 is_stmt 0 discriminator 1
 9409 4238 488B18   		movq	(%rax), %rbx
  30:../ExecuteTest.h **** 	}
 9410              		.loc 8 30 0 is_stmt 1 discriminator 1
 9411 423b 488B85A8 		movq	-1624(%rbp), %rax
 9411      F9FFFF
 9412 4242 488B00   		movq	(%rax), %rax
 9413 4245 4883C010 		addq	$16, %rax
 9414 4249 488B00   		movq	(%rax), %rax
  29:../ExecuteTest.h **** 			TestDetails(details.testName, details.suiteName, e.Filename(), e.LineNumber()), e.what());
 9415              		.loc 8 29 0 discriminator 1
 9416 424c 488B95A8 		movq	-1624(%rbp), %rdx
 9416      F9FFFF
 9417 4253 4889D7   		movq	%rdx, %rdi
 9418 4256 FFD0     		call	*%rax
 9419              	.LVL26:
 9420 4258 4989C4   		movq	%rax, %r12
 9421 425b 488B85A8 		movq	-1624(%rbp), %rax
 9421      F9FFFF
 9422 4262 4889C7   		movq	%rax, %rdi
 9423 4265 E8000000 		call	_ZNK8UnitTest15AssertException10LineNumberEv@PLT
 9423      00
  29:../ExecuteTest.h **** 			TestDetails(details.testName, details.suiteName, e.Filename(), e.LineNumber()), e.what());
 9424              		.loc 8 29 0 is_stmt 0 discriminator 2
 9425 426a 4189C5   		movl	%eax, %r13d
 9426 426d 488B85A8 		movq	-1624(%rbp), %rax
 9426      F9FFFF
 9427 4274 4889C7   		movq	%rax, %rdi
 9428 4277 E8000000 		call	_ZNK8UnitTest15AssertException8FilenameEv@PLT
 9428      00
  29:../ExecuteTest.h **** 			TestDetails(details.testName, details.suiteName, e.Filename(), e.LineNumber()), e.what());
 9429              		.loc 8 29 0 discriminator 3
 9430 427c 4889C1   		movq	%rax, %rcx
  30:../ExecuteTest.h **** 	}
 9431              		.loc 8 30 0 is_stmt 1 discriminator 3
 9432 427f 488B8590 		movq	-1648(%rbp), %rax
 9432      F9FFFF
 9433 4286 488B10   		movq	(%rax), %rdx
 9434 4289 488B8590 		movq	-1648(%rbp), %rax
 9434      F9FFFF
 9435 4290 488B7008 		movq	8(%rax), %rsi
  29:../ExecuteTest.h **** 			TestDetails(details.testName, details.suiteName, e.Filename(), e.LineNumber()), e.what());
 9436              		.loc 8 29 0 discriminator 3
 9437 4294 488D85B0 		leaq	-1616(%rbp), %rax
 9437      F9FFFF
 9438 429b 4589E8   		movl	%r13d, %r8d
 9439 429e 4889C7   		movq	%rax, %rdi
 9440 42a1 E8000000 		call	_ZN8UnitTest11TestDetailsC1EPKcS2_S2_i@PLT
 9440      00
  29:../ExecuteTest.h **** 			TestDetails(details.testName, details.suiteName, e.Filename(), e.LineNumber()), e.what());
 9441              		.loc 8 29 0 is_stmt 0 discriminator 5
 9442 42a6 488D85B0 		leaq	-1616(%rbp), %rax
 9442      F9FFFF
 9443 42ad 4C89E2   		movq	%r12, %rdx
 9444 42b0 4889C6   		movq	%rax, %rsi
 9445 42b3 4889DF   		movq	%rbx, %rdi
 9446 42b6 E8000000 		call	_ZN8UnitTest11TestResults13OnTestFailureERKNS_11TestDetailsEPKc@PLT
 9446      00
 9447              	.LEHE246:
  27:../ExecuteTest.h **** 	{
 9448              		.loc 8 27 0 is_stmt 1 discriminator 7
 9449 42bb E8000000 		call	__cxa_end_catch@PLT
 9449      00
 9450              	.LBE152:
 9451              		.loc 8 42 0 discriminator 7
 9452 42c0 E91E0100 		jmp	.L491
 9452      00
 9453              	.L498:
 9454              	.LBB153:
  32:../ExecuteTest.h **** 	{
 9455              		.loc 8 32 0
 9456 42c5 4889C7   		movq	%rax, %rdi
 9457 42c8 E8000000 		call	__cxa_begin_catch@PLT
 9457      00
 9458 42cd 488985A0 		movq	%rax, -1632(%rbp)
 9458      F9FFFF
 9459              	.LBB154:
  34:../ExecuteTest.h **** 		stream << "Unhandled exception: " << e.what();
 9460              		.loc 8 34 0
 9461 42d4 488D85D0 		leaq	-1584(%rbp), %rax
 9461      F9FFFF
 9462 42db 4889C7   		movq	%rax, %rdi
 9463              	.LEHB247:
 9464 42de E8000000 		call	_ZN8UnitTest15MemoryOutStreamC1Ev
 9464      00
 9465              	.LEHE247:
  35:../ExecuteTest.h **** 		CurrentTest::Results()->OnTestFailure(details, stream.GetText());
 9466              		.loc 8 35 0
 9467 42e3 488D85D0 		leaq	-1584(%rbp), %rax
 9467      F9FFFF
 9468 42ea 488D3500 		leaq	.LC11(%rip), %rsi
 9468      000000
 9469 42f1 4889C7   		movq	%rax, %rdi
 9470              	.LEHB248:
 9471 42f4 E8000000 		call	_ZStlsISt11char_traitsIcEERSt13basic_ostreamIcT_ES5_PKc@PLT
 9471      00
 9472 42f9 4889C3   		movq	%rax, %rbx
 9473 42fc 488B85A0 		movq	-1632(%rbp), %rax
 9473      F9FFFF
 9474 4303 488B00   		movq	(%rax), %rax
 9475 4306 4883C010 		addq	$16, %rax
 9476 430a 488B00   		movq	(%rax), %rax
 9477 430d 488B95A0 		movq	-1632(%rbp), %rdx
 9477      F9FFFF
 9478 4314 4889D7   		movq	%rdx, %rdi
 9479 4317 FFD0     		call	*%rax
 9480              	.LVL27:
 9481 4319 4889C6   		movq	%rax, %rsi
 9482 431c 4889DF   		movq	%rbx, %rdi
 9483 431f E8000000 		call	_ZStlsISt11char_traitsIcEERSt13basic_ostreamIcT_ES5_PKc@PLT
 9483      00
  36:../ExecuteTest.h **** 	}
 9484              		.loc 8 36 0
 9485 4324 E8000000 		call	_ZN8UnitTest11CurrentTest7ResultsEv@PLT
 9485      00
 9486 4329 488B18   		movq	(%rax), %rbx
 9487 432c 488D85D0 		leaq	-1584(%rbp), %rax
 9487      F9FFFF
 9488 4333 4889C7   		movq	%rax, %rdi
 9489 4336 E8000000 		call	_ZNK8UnitTest15MemoryOutStream7GetTextEv@PLT
 9489      00
  36:../ExecuteTest.h **** 	}
 9490              		.loc 8 36 0 is_stmt 0 discriminator 1
 9491 433b 4889C2   		movq	%rax, %rdx
 9492 433e 488B8590 		movq	-1648(%rbp), %rax
 9492      F9FFFF
 9493 4345 4889C6   		movq	%rax, %rsi
 9494 4348 4889DF   		movq	%rbx, %rdi
 9495 434b E8000000 		call	_ZN8UnitTest11TestResults13OnTestFailureERKNS_11TestDetailsEPKc@PLT
 9495      00
 9496              	.LEHE248:
  34:../ExecuteTest.h **** 		stream << "Unhandled exception: " << e.what();
 9497              		.loc 8 34 0 is_stmt 1
 9498 4350 488D85D0 		leaq	-1584(%rbp), %rax
 9498      F9FFFF
 9499 4357 4889C7   		movq	%rax, %rdi
 9500              	.LEHB249:
 9501 435a E8000000 		call	_ZN8UnitTest15MemoryOutStreamD1Ev
 9501      00
 9502              	.LEHE249:
 9503              	.LBE154:
  32:../ExecuteTest.h **** 	{
 9504              		.loc 8 32 0
 9505 435f E8000000 		call	__cxa_end_catch@PLT
 9505      00
 9506              	.LBE153:
 9507              		.loc 8 42 0
 9508 4364 EB7D     		jmp	.L491
 9509              	.L511:
  38:../ExecuteTest.h **** 	{
 9510              		.loc 8 38 0
 9511 4366 4889C7   		movq	%rax, %rdi
 9512 4369 E8000000 		call	__cxa_begin_catch@PLT
 9512      00
 9513              	.LEHB250:
  40:../ExecuteTest.h **** 	}
 9514              		.loc 8 40 0
 9515 436e E8000000 		call	_ZN8UnitTest11CurrentTest7ResultsEv@PLT
 9515      00
 9516 4373 488B00   		movq	(%rax), %rax
 9517 4376 488B8D90 		movq	-1648(%rbp), %rcx
 9517      F9FFFF
 9518 437d 488D1500 		leaq	.LC76(%rip), %rdx
 9518      000000
 9519 4384 4889CE   		movq	%rcx, %rsi
 9520 4387 4889C7   		movq	%rax, %rdi
 9521 438a E8000000 		call	_ZN8UnitTest11TestResults13OnTestFailureERKNS_11TestDetailsEPKc@PLT
 9521      00
 9522              	.LEHE250:
 9523              	.LEHB251:
  38:../ExecuteTest.h **** 	{
 9524              		.loc 8 38 0
 9525 438f E8000000 		call	__cxa_end_catch@PLT
 9525      00
 9526              		.loc 8 42 0
 9527 4394 EB4D     		jmp	.L491
 9528              	.L507:
 9529 4396 4889C3   		movq	%rax, %rbx
 9530              	.LBB156:
  27:../ExecuteTest.h **** 	{
 9531              		.loc 8 27 0
 9532 4399 E8000000 		call	__cxa_end_catch@PLT
 9532      00
 9533 439e 4889D8   		movq	%rbx, %rax
 9534 43a1 4889C7   		movq	%rax, %rdi
 9535 43a4 E8000000 		call	_Unwind_Resume@PLT
 9535      00
 9536              	.LEHE251:
 9537              	.L509:
 9538 43a9 4889C3   		movq	%rax, %rbx
 9539              	.LBE156:
 9540              	.LBB157:
 9541              	.LBB155:
  34:../ExecuteTest.h **** 		stream << "Unhandled exception: " << e.what();
 9542              		.loc 8 34 0
 9543 43ac 488D85D0 		leaq	-1584(%rbp), %rax
 9543      F9FFFF
 9544 43b3 4889C7   		movq	%rax, %rdi
 9545 43b6 E8000000 		call	_ZN8UnitTest15MemoryOutStreamD1Ev
 9545      00
 9546 43bb EB03     		jmp	.L502
 9547              	.L508:
 9548 43bd 4889C3   		movq	%rax, %rbx
 9549              	.L502:
 9550              	.LBE155:
  32:../ExecuteTest.h **** 	{
 9551              		.loc 8 32 0
 9552 43c0 E8000000 		call	__cxa_end_catch@PLT
 9552      00
 9553 43c5 4889D8   		movq	%rbx, %rax
 9554 43c8 4889C7   		movq	%rax, %rdi
 9555              	.LEHB252:
 9556 43cb E8000000 		call	_Unwind_Resume@PLT
 9556      00
 9557              	.LEHE252:
 9558              	.L510:
 9559 43d0 4889C3   		movq	%rax, %rbx
 9560              	.LBE157:
  38:../ExecuteTest.h **** 	{
 9561              		.loc 8 38 0
 9562 43d3 E8000000 		call	__cxa_end_catch@PLT
 9562      00
 9563 43d8 4889D8   		movq	%rbx, %rax
 9564 43db 4889C7   		movq	%rax, %rdi
 9565              	.LEHB253:
 9566 43de E8000000 		call	_Unwind_Resume@PLT
 9566      00
 9567              	.LEHE253:
 9568              	.L491:
 9569              		.loc 8 42 0
 9570 43e3 488B45D8 		movq	-40(%rbp), %rax
 9571 43e7 64483304 		xorq	%fs:40, %rax
 9571      25280000 
 9571      00
 9572 43f0 7405     		je	.L504
 9573 43f2 E8000000 		call	__stack_chk_fail@PLT
 9573      00
 9574              	.L504:
 9575 43f7 4881C458 		addq	$1624, %rsp
 9575      060000
 9576 43fe 5B       		popq	%rbx
 9577 43ff 415C     		popq	%r12
 9578 4401 415D     		popq	%r13
 9579 4403 5D       		popq	%rbp
 9580              		.cfi_def_cfa 7, 8
 9581 4404 C3       		ret
 9582              		.cfi_endproc
 9583              	.LFE1270:
 9584              		.section	.gcc_except_table
 9585              		.align 4
 9586              	.LLSDA1270:
 9587 06e0 FF       		.byte	0xff
 9588 06e1 9B       		.byte	0x9b
 9589 06e2 59       		.uleb128 .LLSDATT1270-.LLSDATTD1270
 9590              	.LLSDATTD1270:
 9591 06e3 01       		.byte	0x1
 9592 06e4 43       		.uleb128 .LLSDACSE1270-.LLSDACSB1270
 9593              	.LLSDACSB1270:
 9594 06e5 2D       		.uleb128 .LEHB242-.LFB1270
 9595 06e6 05       		.uleb128 .LEHE242-.LEHB242
 9596 06e7 00       		.uleb128 0
 9597 06e8 00       		.uleb128 0
 9598 06e9 49       		.uleb128 .LEHB243-.LFB1270
 9599 06ea 05       		.uleb128 .LEHE243-.LEHB243
 9600 06eb D301     		.uleb128 .L505-.LFB1270
 9601 06ed 05       		.uleb128 0x5
 9602 06ee 8E01     		.uleb128 .LEHB244-.LFB1270
 9603 06f0 05       		.uleb128 .LEHE244-.LEHB244
 9604 06f1 B601     		.uleb128 .L506-.LFB1270
 9605 06f3 07       		.uleb128 0x7
 9606 06f4 AC01     		.uleb128 .LEHB245-.LFB1270
 9607 06f6 05       		.uleb128 .LEHE245-.LEHB245
 9608 06f7 D301     		.uleb128 .L505-.LFB1270
 9609 06f9 05       		.uleb128 0x5
 9610 06fa F701     		.uleb128 .LEHB246-.LFB1270
 9611 06fc 8801     		.uleb128 .LEHE246-.LEHB246
 9612 06fe DA04     		.uleb128 .L507-.LFB1270
 9613 0700 00       		.uleb128 0
 9614 0701 A203     		.uleb128 .LEHB247-.LFB1270
 9615 0703 05       		.uleb128 .LEHE247-.LEHB247
 9616 0704 8105     		.uleb128 .L508-.LFB1270
 9617 0706 00       		.uleb128 0
 9618 0707 B803     		.uleb128 .LEHB248-.LFB1270
 9619 0709 5C       		.uleb128 .LEHE248-.LEHB248
 9620 070a ED04     		.uleb128 .L509-.LFB1270
 9621 070c 00       		.uleb128 0
 9622 070d 9E04     		.uleb128 .LEHB249-.LFB1270
 9623 070f 05       		.uleb128 .LEHE249-.LEHB249
 9624 0710 8105     		.uleb128 .L508-.LFB1270
 9625 0712 00       		.uleb128 0
 9626 0713 B204     		.uleb128 .LEHB250-.LFB1270
 9627 0715 21       		.uleb128 .LEHE250-.LEHB250
 9628 0716 9405     		.uleb128 .L510-.LFB1270
 9629 0718 00       		.uleb128 0
 9630 0719 D304     		.uleb128 .LEHB251-.LFB1270
 9631 071b 1A       		.uleb128 .LEHE251-.LEHB251
 9632 071c 00       		.uleb128 0
 9633 071d 00       		.uleb128 0
 9634 071e 8F05     		.uleb128 .LEHB252-.LFB1270
 9635 0720 05       		.uleb128 .LEHE252-.LEHB252
 9636 0721 00       		.uleb128 0
 9637 0722 00       		.uleb128 0
 9638 0723 A205     		.uleb128 .LEHB253-.LFB1270
 9639 0725 05       		.uleb128 .LEHE253-.LEHB253
 9640 0726 00       		.uleb128 0
 9641 0727 00       		.uleb128 0
 9642              	.LLSDACSE1270:
 9643 0728 03       		.byte	0x3
 9644 0729 00       		.byte	0
 9645 072a 02       		.byte	0x2
 9646 072b 7D       		.byte	0x7d
 9647 072c 01       		.byte	0x1
 9648 072d 7D       		.byte	0x7d
 9649 072e 00       		.byte	0
 9650 072f 7D       		.byte	0x7d
 9651              		.align 4
 9652 0730 00000000 		.long	0
 9653              	
 9654 0734 00000000 		.long	DW.ref._ZTISt9exception-.
 9655 0738 00000000 		.long	DW.ref._ZTIN8UnitTest15AssertExceptionE-.
 9656              	.LLSDATT1270:
 9657              		.text
 9659              		.weak	_ZTV44TestCurrentTestDetailsContainCurrentTestInfo
 9660              		.section	.data.rel.ro.local._ZTV44TestCurrentTestDetailsContainCurrentTestInfo,"awG",@progbits,_ZT
 9661              		.align 8
 9664              	_ZTV44TestCurrentTestDetailsContainCurrentTestInfo:
 9665 0000 00000000 		.quad	0
 9665      00000000 
 9666 0008 00000000 		.quad	_ZTI44TestCurrentTestDetailsContainCurrentTestInfo
 9666      00000000 
 9667 0010 00000000 		.quad	_ZN44TestCurrentTestDetailsContainCurrentTestInfoD1Ev
 9667      00000000 
 9668 0018 00000000 		.quad	_ZN44TestCurrentTestDetailsContainCurrentTestInfoD0Ev
 9668      00000000 
 9669 0020 00000000 		.quad	_ZNK44TestCurrentTestDetailsContainCurrentTestInfo7RunImplEv
 9669      00000000 
 9670              		.section	.text._ZN44TestCurrentTestDetailsContainCurrentTestInfoD2Ev,"axG",@progbits,_ZN44TestCurr
 9671              		.align 2
 9672              		.weak	_ZN44TestCurrentTestDetailsContainCurrentTestInfoD2Ev
 9674              	_ZN44TestCurrentTestDetailsContainCurrentTestInfoD2Ev:
 9675              	.LFB1323:
 204:TestTestMacros.cpp **** {
 9676              		.loc 6 204 0
 9677              		.cfi_startproc
 9678 0000 55       		pushq	%rbp
 9679              		.cfi_def_cfa_offset 16
 9680              		.cfi_offset 6, -16
 9681 0001 4889E5   		movq	%rsp, %rbp
 9682              		.cfi_def_cfa_register 6
 9683 0004 4883EC10 		subq	$16, %rsp
 9684 0008 48897DF8 		movq	%rdi, -8(%rbp)
 9685              	.LBB158:
 204:TestTestMacros.cpp **** {
 9686              		.loc 6 204 0
 9687 000c 488D1500 		leaq	16+_ZTV44TestCurrentTestDetailsContainCurrentTestInfo(%rip), %rdx
 9687      000000
 9688 0013 488B45F8 		movq	-8(%rbp), %rax
 9689 0017 488910   		movq	%rdx, (%rax)
 9690 001a 488B45F8 		movq	-8(%rbp), %rax
 9691 001e 4889C7   		movq	%rax, %rdi
 9692 0021 E8000000 		call	_ZN8UnitTest4TestD2Ev@PLT
 9692      00
 9693              	.LBE158:
 9694 0026 90       		nop
 9695 0027 C9       		leave
 9696              		.cfi_def_cfa 7, 8
 9697 0028 C3       		ret
 9698              		.cfi_endproc
 9699              	.LFE1323:
 9701              		.weak	_ZN44TestCurrentTestDetailsContainCurrentTestInfoD1Ev
 9702              		.set	_ZN44TestCurrentTestDetailsContainCurrentTestInfoD1Ev,_ZN44TestCurrentTestDetailsContainCurre
 9703              		.section	.text._ZN44TestCurrentTestDetailsContainCurrentTestInfoD0Ev,"axG",@progbits,_ZN44TestCurr
 9704              		.align 2
 9705              		.weak	_ZN44TestCurrentTestDetailsContainCurrentTestInfoD0Ev
 9707              	_ZN44TestCurrentTestDetailsContainCurrentTestInfoD0Ev:
 9708              	.LFB1325:
 204:TestTestMacros.cpp **** {
 9709              		.loc 6 204 0
 9710              		.cfi_startproc
 9711              		.cfi_personality 0x9b,DW.ref.__gxx_personality_v0
 9712              		.cfi_lsda 0x1b,.LLSDA1325
 9713 0000 55       		pushq	%rbp
 9714              		.cfi_def_cfa_offset 16
 9715              		.cfi_offset 6, -16
 9716 0001 4889E5   		movq	%rsp, %rbp
 9717              		.cfi_def_cfa_register 6
 9718 0004 53       		pushq	%rbx
 9719 0005 4883EC18 		subq	$24, %rsp
 9720              		.cfi_offset 3, -24
 9721 0009 48897DE8 		movq	%rdi, -24(%rbp)
 204:TestTestMacros.cpp **** {
 9722              		.loc 6 204 0
 9723 000d 488B45E8 		movq	-24(%rbp), %rax
 9724 0011 4889C7   		movq	%rax, %rdi
 9725              	.LEHB254:
 9726 0014 E8000000 		call	_ZN44TestCurrentTestDetailsContainCurrentTestInfoD1Ev
 9726      00
 9727              	.LEHE254:
 204:TestTestMacros.cpp **** {
 9728              		.loc 6 204 0 is_stmt 0 discriminator 2
 9729 0019 488B45E8 		movq	-24(%rbp), %rax
 9730 001d 4889C7   		movq	%rax, %rdi
 9731 0020 E8000000 		call	_ZdlPv@PLT
 9731      00
 9732 0025 EB1A     		jmp	.L516
 9733              	.L515:
 9734 0027 4889C3   		movq	%rax, %rbx
 204:TestTestMacros.cpp **** {
 9735              		.loc 6 204 0
 9736 002a 488B45E8 		movq	-24(%rbp), %rax
 9737 002e 4889C7   		movq	%rax, %rdi
 9738 0031 E8000000 		call	_ZdlPv@PLT
 9738      00
 9739 0036 4889D8   		movq	%rbx, %rax
 9740 0039 4889C7   		movq	%rax, %rdi
 9741              	.LEHB255:
 9742 003c E8000000 		call	_Unwind_Resume@PLT
 9742      00
 9743              	.LEHE255:
 9744              	.L516:
 9745 0041 4883C418 		addq	$24, %rsp
 9746 0045 5B       		popq	%rbx
 9747 0046 5D       		popq	%rbp
 9748              		.cfi_def_cfa 7, 8
 9749 0047 C3       		ret
 9750              		.cfi_endproc
 9751              	.LFE1325:
 9752              		.section	.gcc_except_table
 9753              	.LLSDA1325:
 9754 073c FF       		.byte	0xff
 9755 073d FF       		.byte	0xff
 9756 073e 01       		.byte	0x1
 9757 073f 08       		.uleb128 .LLSDACSE1325-.LLSDACSB1325
 9758              	.LLSDACSB1325:
 9759 0740 14       		.uleb128 .LEHB254-.LFB1325
 9760 0741 05       		.uleb128 .LEHE254-.LEHB254
 9761 0742 27       		.uleb128 .L515-.LFB1325
 9762 0743 00       		.uleb128 0
 9763 0744 3C       		.uleb128 .LEHB255-.LFB1325
 9764 0745 05       		.uleb128 .LEHE255-.LEHB255
 9765 0746 00       		.uleb128 0
 9766 0747 00       		.uleb128 0
 9767              	.LLSDACSE1325:
 9768              		.section	.text._ZN44TestCurrentTestDetailsContainCurrentTestInfoD0Ev,"axG",@progbits,_ZN44TestCurr
 9770              		.weak	_ZTVN18SuiteSameTestSuite14TestDummyTest1E
 9771              		.section	.data.rel.ro.local._ZTVN18SuiteSameTestSuite14TestDummyTest1E,"awG",@progbits,_ZTVN18Suit
 9772              		.align 8
 9775              	_ZTVN18SuiteSameTestSuite14TestDummyTest1E:
 9776 0000 00000000 		.quad	0
 9776      00000000 
 9777 0008 00000000 		.quad	_ZTIN18SuiteSameTestSuite14TestDummyTest1E
 9777      00000000 
 9778 0010 00000000 		.quad	_ZN18SuiteSameTestSuite14TestDummyTest1D1Ev
 9778      00000000 
 9779 0018 00000000 		.quad	_ZN18SuiteSameTestSuite14TestDummyTest1D0Ev
 9779      00000000 
 9780 0020 00000000 		.quad	_ZNK18SuiteSameTestSuite14TestDummyTest17RunImplEv
 9780      00000000 
 9781              		.section	.text._ZN18SuiteSameTestSuite14TestDummyTest1D2Ev,"axG",@progbits,_ZN18SuiteSameTestSuite
 9782              		.align 2
 9783              		.weak	_ZN18SuiteSameTestSuite14TestDummyTest1D2Ev
 9785              	_ZN18SuiteSameTestSuite14TestDummyTest1D2Ev:
 9786              	.LFB1327:
 195:TestTestMacros.cpp **** 	{
 9787              		.loc 6 195 0 is_stmt 1
 9788              		.cfi_startproc
 9789 0000 55       		pushq	%rbp
 9790              		.cfi_def_cfa_offset 16
 9791              		.cfi_offset 6, -16
 9792 0001 4889E5   		movq	%rsp, %rbp
 9793              		.cfi_def_cfa_register 6
 9794 0004 4883EC10 		subq	$16, %rsp
 9795 0008 48897DF8 		movq	%rdi, -8(%rbp)
 9796              	.LBB159:
 195:TestTestMacros.cpp **** 	{
 9797              		.loc 6 195 0
 9798 000c 488D1500 		leaq	16+_ZTVN18SuiteSameTestSuite14TestDummyTest1E(%rip), %rdx
 9798      000000
 9799 0013 488B45F8 		movq	-8(%rbp), %rax
 9800 0017 488910   		movq	%rdx, (%rax)
 9801 001a 488B45F8 		movq	-8(%rbp), %rax
 9802 001e 4889C7   		movq	%rax, %rdi
 9803 0021 E8000000 		call	_ZN8UnitTest4TestD2Ev@PLT
 9803      00
 9804              	.LBE159:
 9805 0026 90       		nop
 9806 0027 C9       		leave
 9807              		.cfi_def_cfa 7, 8
 9808 0028 C3       		ret
 9809              		.cfi_endproc
 9810              	.LFE1327:
 9812              		.weak	_ZN18SuiteSameTestSuite14TestDummyTest1D1Ev
 9813              		.set	_ZN18SuiteSameTestSuite14TestDummyTest1D1Ev,_ZN18SuiteSameTestSuite14TestDummyTest1D2Ev
 9814              		.section	.text._ZN18SuiteSameTestSuite14TestDummyTest1D0Ev,"axG",@progbits,_ZN18SuiteSameTestSuite
 9815              		.align 2
 9816              		.weak	_ZN18SuiteSameTestSuite14TestDummyTest1D0Ev
 9818              	_ZN18SuiteSameTestSuite14TestDummyTest1D0Ev:
 9819              	.LFB1329:
 195:TestTestMacros.cpp **** 	{
 9820              		.loc 6 195 0
 9821              		.cfi_startproc
 9822              		.cfi_personality 0x9b,DW.ref.__gxx_personality_v0
 9823              		.cfi_lsda 0x1b,.LLSDA1329
 9824 0000 55       		pushq	%rbp
 9825              		.cfi_def_cfa_offset 16
 9826              		.cfi_offset 6, -16
 9827 0001 4889E5   		movq	%rsp, %rbp
 9828              		.cfi_def_cfa_register 6
 9829 0004 53       		pushq	%rbx
 9830 0005 4883EC18 		subq	$24, %rsp
 9831              		.cfi_offset 3, -24
 9832 0009 48897DE8 		movq	%rdi, -24(%rbp)
 195:TestTestMacros.cpp **** 	{
 9833              		.loc 6 195 0
 9834 000d 488B45E8 		movq	-24(%rbp), %rax
 9835 0011 4889C7   		movq	%rax, %rdi
 9836              	.LEHB256:
 9837 0014 E8000000 		call	_ZN18SuiteSameTestSuite14TestDummyTest1D1Ev
 9837      00
 9838              	.LEHE256:
 195:TestTestMacros.cpp **** 	{
 9839              		.loc 6 195 0 is_stmt 0 discriminator 2
 9840 0019 488B45E8 		movq	-24(%rbp), %rax
 9841 001d 4889C7   		movq	%rax, %rdi
 9842 0020 E8000000 		call	_ZdlPv@PLT
 9842      00
 9843 0025 EB1A     		jmp	.L521
 9844              	.L520:
 9845 0027 4889C3   		movq	%rax, %rbx
 195:TestTestMacros.cpp **** 	{
 9846              		.loc 6 195 0
 9847 002a 488B45E8 		movq	-24(%rbp), %rax
 9848 002e 4889C7   		movq	%rax, %rdi
 9849 0031 E8000000 		call	_ZdlPv@PLT
 9849      00
 9850 0036 4889D8   		movq	%rbx, %rax
 9851 0039 4889C7   		movq	%rax, %rdi
 9852              	.LEHB257:
 9853 003c E8000000 		call	_Unwind_Resume@PLT
 9853      00
 9854              	.LEHE257:
 9855              	.L521:
 9856 0041 4883C418 		addq	$24, %rsp
 9857 0045 5B       		popq	%rbx
 9858 0046 5D       		popq	%rbp
 9859              		.cfi_def_cfa 7, 8
 9860 0047 C3       		ret
 9861              		.cfi_endproc
 9862              	.LFE1329:
 9863              		.section	.gcc_except_table
 9864              	.LLSDA1329:
 9865 0748 FF       		.byte	0xff
 9866 0749 FF       		.byte	0xff
 9867 074a 01       		.byte	0x1
 9868 074b 08       		.uleb128 .LLSDACSE1329-.LLSDACSB1329
 9869              	.LLSDACSB1329:
 9870 074c 14       		.uleb128 .LEHB256-.LFB1329
 9871 074d 05       		.uleb128 .LEHE256-.LEHB256
 9872 074e 27       		.uleb128 .L520-.LFB1329
 9873 074f 00       		.uleb128 0
 9874 0750 3C       		.uleb128 .LEHB257-.LFB1329
 9875 0751 05       		.uleb128 .LEHE257-.LEHB257
 9876 0752 00       		.uleb128 0
 9877 0753 00       		.uleb128 0
 9878              	.LLSDACSE1329:
 9879              		.section	.text._ZN18SuiteSameTestSuite14TestDummyTest1D0Ev,"axG",@progbits,_ZN18SuiteSameTestSuite
 9881              		.section	.data.rel.ro.local,"aw",@progbits
 9882              		.align 8
 9885              	_ZTVN12_GLOBAL__N_147TestCorrectlyReportsFixturesWithCtorsThatAssertE:
 9886 0000 00000000 		.quad	0
 9886      00000000 
 9887 0008 00000000 		.quad	_ZTIN12_GLOBAL__N_147TestCorrectlyReportsFixturesWithCtorsThatAssertE
 9887      00000000 
 9888 0010 00000000 		.quad	_ZN12_GLOBAL__N_147TestCorrectlyReportsFixturesWithCtorsThatAssertD1Ev
 9888      00000000 
 9889 0018 00000000 		.quad	_ZN12_GLOBAL__N_147TestCorrectlyReportsFixturesWithCtorsThatAssertD0Ev
 9889      00000000 
 9890 0020 00000000 		.quad	_ZNK12_GLOBAL__N_147TestCorrectlyReportsFixturesWithCtorsThatAssert7RunImplEv
 9890      00000000 
 9891              		.text
 9892 4405 90       		.align 2
 9894              	_ZN12_GLOBAL__N_147TestCorrectlyReportsFixturesWithCtorsThatAssertD2Ev:
 9895              	.LFB1331:
 173:TestTestMacros.cpp **** {
 9896              		.loc 6 173 0 is_stmt 1
 9897              		.cfi_startproc
 9898 4406 55       		pushq	%rbp
 9899              		.cfi_def_cfa_offset 16
 9900              		.cfi_offset 6, -16
 9901 4407 4889E5   		movq	%rsp, %rbp
 9902              		.cfi_def_cfa_register 6
 9903 440a 4883EC10 		subq	$16, %rsp
 9904 440e 48897DF8 		movq	%rdi, -8(%rbp)
 9905              	.LBB160:
 173:TestTestMacros.cpp **** {
 9906              		.loc 6 173 0
 9907 4412 488D1500 		leaq	16+_ZTVN12_GLOBAL__N_147TestCorrectlyReportsFixturesWithCtorsThatAssertE(%rip), %rdx
 9907      000000
 9908 4419 488B45F8 		movq	-8(%rbp), %rax
 9909 441d 488910   		movq	%rdx, (%rax)
 9910 4420 488B45F8 		movq	-8(%rbp), %rax
 9911 4424 4889C7   		movq	%rax, %rdi
 9912 4427 E8000000 		call	_ZN8UnitTest4TestD2Ev@PLT
 9912      00
 9913              	.LBE160:
 9914 442c 90       		nop
 9915 442d C9       		leave
 9916              		.cfi_def_cfa 7, 8
 9917 442e C3       		ret
 9918              		.cfi_endproc
 9919              	.LFE1331:
 9921              		.set	_ZN12_GLOBAL__N_147TestCorrectlyReportsFixturesWithCtorsThatAssertD1Ev,_ZN12_GLOBAL__N_147Tes
 9922 442f 90       		.align 2
 9924              	_ZN12_GLOBAL__N_147TestCorrectlyReportsFixturesWithCtorsThatAssertD0Ev:
 9925              	.LFB1333:
 173:TestTestMacros.cpp **** {
 9926              		.loc 6 173 0
 9927              		.cfi_startproc
 9928              		.cfi_personality 0x9b,DW.ref.__gxx_personality_v0
 9929              		.cfi_lsda 0x1b,.LLSDA1333
 9930 4430 55       		pushq	%rbp
 9931              		.cfi_def_cfa_offset 16
 9932              		.cfi_offset 6, -16
 9933 4431 4889E5   		movq	%rsp, %rbp
 9934              		.cfi_def_cfa_register 6
 9935 4434 53       		pushq	%rbx
 9936 4435 4883EC18 		subq	$24, %rsp
 9937              		.cfi_offset 3, -24
 9938 4439 48897DE8 		movq	%rdi, -24(%rbp)
 173:TestTestMacros.cpp **** {
 9939              		.loc 6 173 0
 9940 443d 488B45E8 		movq	-24(%rbp), %rax
 9941 4441 4889C7   		movq	%rax, %rdi
 9942              	.LEHB258:
 9943 4444 E8BDFFFF 		call	_ZN12_GLOBAL__N_147TestCorrectlyReportsFixturesWithCtorsThatAssertD1Ev
 9943      FF
 9944              	.LEHE258:
 173:TestTestMacros.cpp **** {
 9945              		.loc 6 173 0 is_stmt 0 discriminator 2
 9946 4449 488B45E8 		movq	-24(%rbp), %rax
 9947 444d 4889C7   		movq	%rax, %rdi
 9948 4450 E8000000 		call	_ZdlPv@PLT
 9948      00
 9949 4455 EB1A     		jmp	.L526
 9950              	.L525:
 9951 4457 4889C3   		movq	%rax, %rbx
 173:TestTestMacros.cpp **** {
 9952              		.loc 6 173 0
 9953 445a 488B45E8 		movq	-24(%rbp), %rax
 9954 445e 4889C7   		movq	%rax, %rdi
 9955 4461 E8000000 		call	_ZdlPv@PLT
 9955      00
 9956 4466 4889D8   		movq	%rbx, %rax
 9957 4469 4889C7   		movq	%rax, %rdi
 9958              	.LEHB259:
 9959 446c E8000000 		call	_Unwind_Resume@PLT
 9959      00
 9960              	.LEHE259:
 9961              	.L526:
 9962 4471 4883C418 		addq	$24, %rsp
 9963 4475 5B       		popq	%rbx
 9964 4476 5D       		popq	%rbp
 9965              		.cfi_def_cfa 7, 8
 9966 4477 C3       		ret
 9967              		.cfi_endproc
 9968              	.LFE1333:
 9969              		.section	.gcc_except_table
 9970              	.LLSDA1333:
 9971 0754 FF       		.byte	0xff
 9972 0755 FF       		.byte	0xff
 9973 0756 01       		.byte	0x1
 9974 0757 08       		.uleb128 .LLSDACSE1333-.LLSDACSB1333
 9975              	.LLSDACSB1333:
 9976 0758 14       		.uleb128 .LEHB258-.LFB1333
 9977 0759 05       		.uleb128 .LEHE258-.LEHB258
 9978 075a 27       		.uleb128 .L525-.LFB1333
 9979 075b 00       		.uleb128 0
 9980 075c 3C       		.uleb128 .LEHB259-.LFB1333
 9981 075d 05       		.uleb128 .LEHE259-.LEHB259
 9982 075e 00       		.uleb128 0
 9983 075f 00       		.uleb128 0
 9984              	.LLSDACSE1333:
 9985              		.text
 9987              		.section	.data.rel.ro.local
 9988              		.align 8
 9991              	_ZTVN12_GLOBAL__N_157TestFixtureCtorAssertsCorrectlyReportsAssertFailureInCtorE:
 9992 0028 00000000 		.quad	0
 9992      00000000 
 9993 0030 00000000 		.quad	_ZTIN12_GLOBAL__N_157TestFixtureCtorAssertsCorrectlyReportsAssertFailureInCtorE
 9993      00000000 
 9994 0038 00000000 		.quad	_ZN12_GLOBAL__N_157TestFixtureCtorAssertsCorrectlyReportsAssertFailureInCtorD1Ev
 9994      00000000 
 9995 0040 00000000 		.quad	_ZN12_GLOBAL__N_157TestFixtureCtorAssertsCorrectlyReportsAssertFailureInCtorD0Ev
 9995      00000000 
 9996 0048 00000000 		.quad	_ZNK12_GLOBAL__N_157TestFixtureCtorAssertsCorrectlyReportsAssertFailureInCtor7RunImplEv
 9996      00000000 
 9997              		.text
 9998              		.align 2
 10000              	_ZN12_GLOBAL__N_157TestFixtureCtorAssertsCorrectlyReportsAssertFailureInCtorD2Ev:
 10001              	.LFB1335:
 169:TestTestMacros.cpp **** {
 10002              		.loc 6 169 0 is_stmt 1
 10003              		.cfi_startproc
 10004 4478 55       		pushq	%rbp
 10005              		.cfi_def_cfa_offset 16
 10006              		.cfi_offset 6, -16
 10007 4479 4889E5   		movq	%rsp, %rbp
 10008              		.cfi_def_cfa_register 6
 10009 447c 4883EC10 		subq	$16, %rsp
 10010 4480 48897DF8 		movq	%rdi, -8(%rbp)
 10011              	.LBB161:
 169:TestTestMacros.cpp **** {
 10012              		.loc 6 169 0
 10013 4484 488D1500 		leaq	16+_ZTVN12_GLOBAL__N_157TestFixtureCtorAssertsCorrectlyReportsAssertFailureInCtorE(%rip), %rd
 10013      000000
 10014 448b 488B45F8 		movq	-8(%rbp), %rax
 10015 448f 488910   		movq	%rdx, (%rax)
 10016 4492 488B45F8 		movq	-8(%rbp), %rax
 10017 4496 4889C7   		movq	%rax, %rdi
 10018 4499 E8000000 		call	_ZN8UnitTest4TestD2Ev@PLT
 10018      00
 10019              	.LBE161:
 10020 449e 90       		nop
 10021 449f C9       		leave
 10022              		.cfi_def_cfa 7, 8
 10023 44a0 C3       		ret
 10024              		.cfi_endproc
 10025              	.LFE1335:
 10027              		.set	_ZN12_GLOBAL__N_157TestFixtureCtorAssertsCorrectlyReportsAssertFailureInCtorD1Ev,_ZN12_GLOBAL
 10028 44a1 90       		.align 2
 10030              	_ZN12_GLOBAL__N_157TestFixtureCtorAssertsCorrectlyReportsAssertFailureInCtorD0Ev:
 10031              	.LFB1337:
 169:TestTestMacros.cpp **** {
 10032              		.loc 6 169 0
 10033              		.cfi_startproc
 10034              		.cfi_personality 0x9b,DW.ref.__gxx_personality_v0
 10035              		.cfi_lsda 0x1b,.LLSDA1337
 10036 44a2 55       		pushq	%rbp
 10037              		.cfi_def_cfa_offset 16
 10038              		.cfi_offset 6, -16
 10039 44a3 4889E5   		movq	%rsp, %rbp
 10040              		.cfi_def_cfa_register 6
 10041 44a6 53       		pushq	%rbx
 10042 44a7 4883EC18 		subq	$24, %rsp
 10043              		.cfi_offset 3, -24
 10044 44ab 48897DE8 		movq	%rdi, -24(%rbp)
 169:TestTestMacros.cpp **** {
 10045              		.loc 6 169 0
 10046 44af 488B45E8 		movq	-24(%rbp), %rax
 10047 44b3 4889C7   		movq	%rax, %rdi
 10048              	.LEHB260:
 10049 44b6 E8BDFFFF 		call	_ZN12_GLOBAL__N_157TestFixtureCtorAssertsCorrectlyReportsAssertFailureInCtorD1Ev
 10049      FF
 10050              	.LEHE260:
 169:TestTestMacros.cpp **** {
 10051              		.loc 6 169 0 is_stmt 0 discriminator 2
 10052 44bb 488B45E8 		movq	-24(%rbp), %rax
 10053 44bf 4889C7   		movq	%rax, %rdi
 10054 44c2 E8000000 		call	_ZdlPv@PLT
 10054      00
 10055 44c7 EB1A     		jmp	.L531
 10056              	.L530:
 10057 44c9 4889C3   		movq	%rax, %rbx
 169:TestTestMacros.cpp **** {
 10058              		.loc 6 169 0
 10059 44cc 488B45E8 		movq	-24(%rbp), %rax
 10060 44d0 4889C7   		movq	%rax, %rdi
 10061 44d3 E8000000 		call	_ZdlPv@PLT
 10061      00
 10062 44d8 4889D8   		movq	%rbx, %rax
 10063 44db 4889C7   		movq	%rax, %rdi
 10064              	.LEHB261:
 10065 44de E8000000 		call	_Unwind_Resume@PLT
 10065      00
 10066              	.LEHE261:
 10067              	.L531:
 10068 44e3 4883C418 		addq	$24, %rsp
 10069 44e7 5B       		popq	%rbx
 10070 44e8 5D       		popq	%rbp
 10071              		.cfi_def_cfa 7, 8
 10072 44e9 C3       		ret
 10073              		.cfi_endproc
 10074              	.LFE1337:
 10075              		.section	.gcc_except_table
 10076              	.LLSDA1337:
 10077 0760 FF       		.byte	0xff
 10078 0761 FF       		.byte	0xff
 10079 0762 01       		.byte	0x1
 10080 0763 08       		.uleb128 .LLSDACSE1337-.LLSDACSB1337
 10081              	.LLSDACSB1337:
 10082 0764 14       		.uleb128 .LEHB260-.LFB1337
 10083 0765 05       		.uleb128 .LEHE260-.LEHB260
 10084 0766 27       		.uleb128 .L530-.LFB1337
 10085 0767 00       		.uleb128 0
 10086 0768 3C       		.uleb128 .LEHB261-.LFB1337
 10087 0769 05       		.uleb128 .LEHE261-.LEHB261
 10088 076a 00       		.uleb128 0
 10089 076b 00       		.uleb128 0
 10090              	.LLSDACSE1337:
 10091              		.text
 10093              		.section	.data.rel.ro.local
 10094              		.align 8
 10097              	_ZTVN12_GLOBAL__N_140TestFixturesWithThrowingDtorsAreFailuresE:
 10098 0050 00000000 		.quad	0
 10098      00000000 
 10099 0058 00000000 		.quad	_ZTIN12_GLOBAL__N_140TestFixturesWithThrowingDtorsAreFailuresE
 10099      00000000 
 10100 0060 00000000 		.quad	_ZN12_GLOBAL__N_140TestFixturesWithThrowingDtorsAreFailuresD1Ev
 10100      00000000 
 10101 0068 00000000 		.quad	_ZN12_GLOBAL__N_140TestFixturesWithThrowingDtorsAreFailuresD0Ev
 10101      00000000 
 10102 0070 00000000 		.quad	_ZNK12_GLOBAL__N_140TestFixturesWithThrowingDtorsAreFailures7RunImplEv
 10102      00000000 
 10103              		.text
 10104              		.align 2
 10106              	_ZN12_GLOBAL__N_140TestFixturesWithThrowingDtorsAreFailuresD2Ev:
 10107              	.LFB1339:
 142:TestTestMacros.cpp **** {
 10108              		.loc 6 142 0 is_stmt 1
 10109              		.cfi_startproc
 10110 44ea 55       		pushq	%rbp
 10111              		.cfi_def_cfa_offset 16
 10112              		.cfi_offset 6, -16
 10113 44eb 4889E5   		movq	%rsp, %rbp
 10114              		.cfi_def_cfa_register 6
 10115 44ee 4883EC10 		subq	$16, %rsp
 10116 44f2 48897DF8 		movq	%rdi, -8(%rbp)
 10117              	.LBB162:
 142:TestTestMacros.cpp **** {
 10118              		.loc 6 142 0
 10119 44f6 488D1500 		leaq	16+_ZTVN12_GLOBAL__N_140TestFixturesWithThrowingDtorsAreFailuresE(%rip), %rdx
 10119      000000
 10120 44fd 488B45F8 		movq	-8(%rbp), %rax
 10121 4501 488910   		movq	%rdx, (%rax)
 10122 4504 488B45F8 		movq	-8(%rbp), %rax
 10123 4508 4889C7   		movq	%rax, %rdi
 10124 450b E8000000 		call	_ZN8UnitTest4TestD2Ev@PLT
 10124      00
 10125              	.LBE162:
 10126 4510 90       		nop
 10127 4511 C9       		leave
 10128              		.cfi_def_cfa 7, 8
 10129 4512 C3       		ret
 10130              		.cfi_endproc
 10131              	.LFE1339:
 10133              		.set	_ZN12_GLOBAL__N_140TestFixturesWithThrowingDtorsAreFailuresD1Ev,_ZN12_GLOBAL__N_140TestFixtur
 10134 4513 90       		.align 2
 10136              	_ZN12_GLOBAL__N_140TestFixturesWithThrowingDtorsAreFailuresD0Ev:
 10137              	.LFB1341:
 142:TestTestMacros.cpp **** {
 10138              		.loc 6 142 0
 10139              		.cfi_startproc
 10140              		.cfi_personality 0x9b,DW.ref.__gxx_personality_v0
 10141              		.cfi_lsda 0x1b,.LLSDA1341
 10142 4514 55       		pushq	%rbp
 10143              		.cfi_def_cfa_offset 16
 10144              		.cfi_offset 6, -16
 10145 4515 4889E5   		movq	%rsp, %rbp
 10146              		.cfi_def_cfa_register 6
 10147 4518 53       		pushq	%rbx
 10148 4519 4883EC18 		subq	$24, %rsp
 10149              		.cfi_offset 3, -24
 10150 451d 48897DE8 		movq	%rdi, -24(%rbp)
 142:TestTestMacros.cpp **** {
 10151              		.loc 6 142 0
 10152 4521 488B45E8 		movq	-24(%rbp), %rax
 10153 4525 4889C7   		movq	%rax, %rdi
 10154              	.LEHB262:
 10155 4528 E8BDFFFF 		call	_ZN12_GLOBAL__N_140TestFixturesWithThrowingDtorsAreFailuresD1Ev
 10155      FF
 10156              	.LEHE262:
 142:TestTestMacros.cpp **** {
 10157              		.loc 6 142 0 is_stmt 0 discriminator 2
 10158 452d 488B45E8 		movq	-24(%rbp), %rax
 10159 4531 4889C7   		movq	%rax, %rdi
 10160 4534 E8000000 		call	_ZdlPv@PLT
 10160      00
 10161 4539 EB1A     		jmp	.L536
 10162              	.L535:
 10163 453b 4889C3   		movq	%rax, %rbx
 142:TestTestMacros.cpp **** {
 10164              		.loc 6 142 0
 10165 453e 488B45E8 		movq	-24(%rbp), %rax
 10166 4542 4889C7   		movq	%rax, %rdi
 10167 4545 E8000000 		call	_ZdlPv@PLT
 10167      00
 10168 454a 4889D8   		movq	%rbx, %rax
 10169 454d 4889C7   		movq	%rax, %rdi
 10170              	.LEHB263:
 10171 4550 E8000000 		call	_Unwind_Resume@PLT
 10171      00
 10172              	.LEHE263:
 10173              	.L536:
 10174 4555 4883C418 		addq	$24, %rsp
 10175 4559 5B       		popq	%rbx
 10176 455a 5D       		popq	%rbp
 10177              		.cfi_def_cfa 7, 8
 10178 455b C3       		ret
 10179              		.cfi_endproc
 10180              	.LFE1341:
 10181              		.section	.gcc_except_table
 10182              	.LLSDA1341:
 10183 076c FF       		.byte	0xff
 10184 076d FF       		.byte	0xff
 10185 076e 01       		.byte	0x1
 10186 076f 08       		.uleb128 .LLSDACSE1341-.LLSDACSB1341
 10187              	.LLSDACSB1341:
 10188 0770 14       		.uleb128 .LEHB262-.LFB1341
 10189 0771 05       		.uleb128 .LEHE262-.LEHB262
 10190 0772 27       		.uleb128 .L535-.LFB1341
 10191 0773 00       		.uleb128 0
 10192 0774 3C       		.uleb128 .LEHB263-.LFB1341
 10193 0775 05       		.uleb128 .LEHE263-.LEHB263
 10194 0776 00       		.uleb128 0
 10195 0777 00       		.uleb128 0
 10196              	.LLSDACSE1341:
 10197              		.text
 10199              		.section	.data.rel.ro.local
 10200              		.align 8
 10203              	_ZTVN12_GLOBAL__N_146TestFixtureDtorThrowsFixtureDtorThrowsTestNameE:
 10204 0078 00000000 		.quad	0
 10204      00000000 
 10205 0080 00000000 		.quad	_ZTIN12_GLOBAL__N_146TestFixtureDtorThrowsFixtureDtorThrowsTestNameE
 10205      00000000 
 10206 0088 00000000 		.quad	_ZN12_GLOBAL__N_146TestFixtureDtorThrowsFixtureDtorThrowsTestNameD1Ev
 10206      00000000 
 10207 0090 00000000 		.quad	_ZN12_GLOBAL__N_146TestFixtureDtorThrowsFixtureDtorThrowsTestNameD0Ev
 10207      00000000 
 10208 0098 00000000 		.quad	_ZNK12_GLOBAL__N_146TestFixtureDtorThrowsFixtureDtorThrowsTestName7RunImplEv
 10208      00000000 
 10209              		.text
 10210              		.align 2
 10212              	_ZN12_GLOBAL__N_146TestFixtureDtorThrowsFixtureDtorThrowsTestNameD2Ev:
 10213              	.LFB1343:
 138:TestTestMacros.cpp **** {
 10214              		.loc 6 138 0 is_stmt 1
 10215              		.cfi_startproc
 10216 455c 55       		pushq	%rbp
 10217              		.cfi_def_cfa_offset 16
 10218              		.cfi_offset 6, -16
 10219 455d 4889E5   		movq	%rsp, %rbp
 10220              		.cfi_def_cfa_register 6
 10221 4560 4883EC10 		subq	$16, %rsp
 10222 4564 48897DF8 		movq	%rdi, -8(%rbp)
 10223              	.LBB163:
 138:TestTestMacros.cpp **** {
 10224              		.loc 6 138 0
 10225 4568 488D1500 		leaq	16+_ZTVN12_GLOBAL__N_146TestFixtureDtorThrowsFixtureDtorThrowsTestNameE(%rip), %rdx
 10225      000000
 10226 456f 488B45F8 		movq	-8(%rbp), %rax
 10227 4573 488910   		movq	%rdx, (%rax)
 10228 4576 488B45F8 		movq	-8(%rbp), %rax
 10229 457a 4889C7   		movq	%rax, %rdi
 10230 457d E8000000 		call	_ZN8UnitTest4TestD2Ev@PLT
 10230      00
 10231              	.LBE163:
 10232 4582 90       		nop
 10233 4583 C9       		leave
 10234              		.cfi_def_cfa 7, 8
 10235 4584 C3       		ret
 10236              		.cfi_endproc
 10237              	.LFE1343:
 10239              		.set	_ZN12_GLOBAL__N_146TestFixtureDtorThrowsFixtureDtorThrowsTestNameD1Ev,_ZN12_GLOBAL__N_146Test
 10240 4585 90       		.align 2
 10242              	_ZN12_GLOBAL__N_146TestFixtureDtorThrowsFixtureDtorThrowsTestNameD0Ev:
 10243              	.LFB1345:
 138:TestTestMacros.cpp **** {
 10244              		.loc 6 138 0
 10245              		.cfi_startproc
 10246              		.cfi_personality 0x9b,DW.ref.__gxx_personality_v0
 10247              		.cfi_lsda 0x1b,.LLSDA1345
 10248 4586 55       		pushq	%rbp
 10249              		.cfi_def_cfa_offset 16
 10250              		.cfi_offset 6, -16
 10251 4587 4889E5   		movq	%rsp, %rbp
 10252              		.cfi_def_cfa_register 6
 10253 458a 53       		pushq	%rbx
 10254 458b 4883EC18 		subq	$24, %rsp
 10255              		.cfi_offset 3, -24
 10256 458f 48897DE8 		movq	%rdi, -24(%rbp)
 138:TestTestMacros.cpp **** {
 10257              		.loc 6 138 0
 10258 4593 488B45E8 		movq	-24(%rbp), %rax
 10259 4597 4889C7   		movq	%rax, %rdi
 10260              	.LEHB264:
 10261 459a E8BDFFFF 		call	_ZN12_GLOBAL__N_146TestFixtureDtorThrowsFixtureDtorThrowsTestNameD1Ev
 10261      FF
 10262              	.LEHE264:
 138:TestTestMacros.cpp **** {
 10263              		.loc 6 138 0 is_stmt 0 discriminator 2
 10264 459f 488B45E8 		movq	-24(%rbp), %rax
 10265 45a3 4889C7   		movq	%rax, %rdi
 10266 45a6 E8000000 		call	_ZdlPv@PLT
 10266      00
 10267 45ab EB1A     		jmp	.L541
 10268              	.L540:
 10269 45ad 4889C3   		movq	%rax, %rbx
 138:TestTestMacros.cpp **** {
 10270              		.loc 6 138 0
 10271 45b0 488B45E8 		movq	-24(%rbp), %rax
 10272 45b4 4889C7   		movq	%rax, %rdi
 10273 45b7 E8000000 		call	_ZdlPv@PLT
 10273      00
 10274 45bc 4889D8   		movq	%rbx, %rax
 10275 45bf 4889C7   		movq	%rax, %rdi
 10276              	.LEHB265:
 10277 45c2 E8000000 		call	_Unwind_Resume@PLT
 10277      00
 10278              	.LEHE265:
 10279              	.L541:
 10280 45c7 4883C418 		addq	$24, %rsp
 10281 45cb 5B       		popq	%rbx
 10282 45cc 5D       		popq	%rbp
 10283              		.cfi_def_cfa 7, 8
 10284 45cd C3       		ret
 10285              		.cfi_endproc
 10286              	.LFE1345:
 10287              		.section	.gcc_except_table
 10288              	.LLSDA1345:
 10289 0778 FF       		.byte	0xff
 10290 0779 FF       		.byte	0xff
 10291 077a 01       		.byte	0x1
 10292 077b 08       		.uleb128 .LLSDACSE1345-.LLSDACSB1345
 10293              	.LLSDACSB1345:
 10294 077c 14       		.uleb128 .LEHB264-.LFB1345
 10295 077d 05       		.uleb128 .LEHE264-.LEHB264
 10296 077e 27       		.uleb128 .L540-.LFB1345
 10297 077f 00       		.uleb128 0
 10298 0780 3C       		.uleb128 .LEHB265-.LFB1345
 10299 0781 05       		.uleb128 .LEHE265-.LEHB265
 10300 0782 00       		.uleb128 0
 10301 0783 00       		.uleb128 0
 10302              	.LLSDACSE1345:
 10303              		.text
 10305              		.section	.data.rel.ro.local
 10306              		.align 8
 10309              	_ZTVN12_GLOBAL__N_140TestFixturesWithThrowingCtorsAreFailuresE:
 10310 00a0 00000000 		.quad	0
 10310      00000000 
 10311 00a8 00000000 		.quad	_ZTIN12_GLOBAL__N_140TestFixturesWithThrowingCtorsAreFailuresE
 10311      00000000 
 10312 00b0 00000000 		.quad	_ZN12_GLOBAL__N_140TestFixturesWithThrowingCtorsAreFailuresD1Ev
 10312      00000000 
 10313 00b8 00000000 		.quad	_ZN12_GLOBAL__N_140TestFixturesWithThrowingCtorsAreFailuresD0Ev
 10313      00000000 
 10314 00c0 00000000 		.quad	_ZNK12_GLOBAL__N_140TestFixturesWithThrowingCtorsAreFailures7RunImplEv
 10314      00000000 
 10315              		.text
 10316              		.align 2
 10318              	_ZN12_GLOBAL__N_140TestFixturesWithThrowingCtorsAreFailuresD2Ev:
 10319              	.LFB1347:
 117:TestTestMacros.cpp **** {
 10320              		.loc 6 117 0 is_stmt 1
 10321              		.cfi_startproc
 10322 45ce 55       		pushq	%rbp
 10323              		.cfi_def_cfa_offset 16
 10324              		.cfi_offset 6, -16
 10325 45cf 4889E5   		movq	%rsp, %rbp
 10326              		.cfi_def_cfa_register 6
 10327 45d2 4883EC10 		subq	$16, %rsp
 10328 45d6 48897DF8 		movq	%rdi, -8(%rbp)
 10329              	.LBB164:
 117:TestTestMacros.cpp **** {
 10330              		.loc 6 117 0
 10331 45da 488D1500 		leaq	16+_ZTVN12_GLOBAL__N_140TestFixturesWithThrowingCtorsAreFailuresE(%rip), %rdx
 10331      000000
 10332 45e1 488B45F8 		movq	-8(%rbp), %rax
 10333 45e5 488910   		movq	%rdx, (%rax)
 10334 45e8 488B45F8 		movq	-8(%rbp), %rax
 10335 45ec 4889C7   		movq	%rax, %rdi
 10336 45ef E8000000 		call	_ZN8UnitTest4TestD2Ev@PLT
 10336      00
 10337              	.LBE164:
 10338 45f4 90       		nop
 10339 45f5 C9       		leave
 10340              		.cfi_def_cfa 7, 8
 10341 45f6 C3       		ret
 10342              		.cfi_endproc
 10343              	.LFE1347:
 10345              		.set	_ZN12_GLOBAL__N_140TestFixturesWithThrowingCtorsAreFailuresD1Ev,_ZN12_GLOBAL__N_140TestFixtur
 10346 45f7 90       		.align 2
 10348              	_ZN12_GLOBAL__N_140TestFixturesWithThrowingCtorsAreFailuresD0Ev:
 10349              	.LFB1349:
 117:TestTestMacros.cpp **** {
 10350              		.loc 6 117 0
 10351              		.cfi_startproc
 10352              		.cfi_personality 0x9b,DW.ref.__gxx_personality_v0
 10353              		.cfi_lsda 0x1b,.LLSDA1349
 10354 45f8 55       		pushq	%rbp
 10355              		.cfi_def_cfa_offset 16
 10356              		.cfi_offset 6, -16
 10357 45f9 4889E5   		movq	%rsp, %rbp
 10358              		.cfi_def_cfa_register 6
 10359 45fc 53       		pushq	%rbx
 10360 45fd 4883EC18 		subq	$24, %rsp
 10361              		.cfi_offset 3, -24
 10362 4601 48897DE8 		movq	%rdi, -24(%rbp)
 117:TestTestMacros.cpp **** {
 10363              		.loc 6 117 0
 10364 4605 488B45E8 		movq	-24(%rbp), %rax
 10365 4609 4889C7   		movq	%rax, %rdi
 10366              	.LEHB266:
 10367 460c E8BDFFFF 		call	_ZN12_GLOBAL__N_140TestFixturesWithThrowingCtorsAreFailuresD1Ev
 10367      FF
 10368              	.LEHE266:
 117:TestTestMacros.cpp **** {
 10369              		.loc 6 117 0 is_stmt 0 discriminator 2
 10370 4611 488B45E8 		movq	-24(%rbp), %rax
 10371 4615 4889C7   		movq	%rax, %rdi
 10372 4618 E8000000 		call	_ZdlPv@PLT
 10372      00
 10373 461d EB1A     		jmp	.L546
 10374              	.L545:
 10375 461f 4889C3   		movq	%rax, %rbx
 117:TestTestMacros.cpp **** {
 10376              		.loc 6 117 0
 10377 4622 488B45E8 		movq	-24(%rbp), %rax
 10378 4626 4889C7   		movq	%rax, %rdi
 10379 4629 E8000000 		call	_ZdlPv@PLT
 10379      00
 10380 462e 4889D8   		movq	%rbx, %rax
 10381 4631 4889C7   		movq	%rax, %rdi
 10382              	.LEHB267:
 10383 4634 E8000000 		call	_Unwind_Resume@PLT
 10383      00
 10384              	.LEHE267:
 10385              	.L546:
 10386 4639 4883C418 		addq	$24, %rsp
 10387 463d 5B       		popq	%rbx
 10388 463e 5D       		popq	%rbp
 10389              		.cfi_def_cfa 7, 8
 10390 463f C3       		ret
 10391              		.cfi_endproc
 10392              	.LFE1349:
 10393              		.section	.gcc_except_table
 10394              	.LLSDA1349:
 10395 0784 FF       		.byte	0xff
 10396 0785 FF       		.byte	0xff
 10397 0786 01       		.byte	0x1
 10398 0787 08       		.uleb128 .LLSDACSE1349-.LLSDACSB1349
 10399              	.LLSDACSB1349:
 10400 0788 14       		.uleb128 .LEHB266-.LFB1349
 10401 0789 05       		.uleb128 .LEHE266-.LEHB266
 10402 078a 27       		.uleb128 .L545-.LFB1349
 10403 078b 00       		.uleb128 0
 10404 078c 3C       		.uleb128 .LEHB267-.LFB1349
 10405 078d 05       		.uleb128 .LEHE267-.LEHB267
 10406 078e 00       		.uleb128 0
 10407 078f 00       		.uleb128 0
 10408              	.LLSDACSE1349:
 10409              		.text
 10411              		.section	.data.rel.ro.local
 10412              		.align 8
 10415              	_ZTVN12_GLOBAL__N_146TestFixtureCtorThrowsFixtureCtorThrowsTestNameE:
 10416 00c8 00000000 		.quad	0
 10416      00000000 
 10417 00d0 00000000 		.quad	_ZTIN12_GLOBAL__N_146TestFixtureCtorThrowsFixtureCtorThrowsTestNameE
 10417      00000000 
 10418 00d8 00000000 		.quad	_ZN12_GLOBAL__N_146TestFixtureCtorThrowsFixtureCtorThrowsTestNameD1Ev
 10418      00000000 
 10419 00e0 00000000 		.quad	_ZN12_GLOBAL__N_146TestFixtureCtorThrowsFixtureCtorThrowsTestNameD0Ev
 10419      00000000 
 10420 00e8 00000000 		.quad	_ZNK12_GLOBAL__N_146TestFixtureCtorThrowsFixtureCtorThrowsTestName7RunImplEv
 10420      00000000 
 10421              		.text
 10422              		.align 2
 10424              	_ZN12_GLOBAL__N_146TestFixtureCtorThrowsFixtureCtorThrowsTestNameD2Ev:
 10425              	.LFB1351:
 113:TestTestMacros.cpp **** {
 10426              		.loc 6 113 0 is_stmt 1
 10427              		.cfi_startproc
 10428 4640 55       		pushq	%rbp
 10429              		.cfi_def_cfa_offset 16
 10430              		.cfi_offset 6, -16
 10431 4641 4889E5   		movq	%rsp, %rbp
 10432              		.cfi_def_cfa_register 6
 10433 4644 4883EC10 		subq	$16, %rsp
 10434 4648 48897DF8 		movq	%rdi, -8(%rbp)
 10435              	.LBB165:
 113:TestTestMacros.cpp **** {
 10436              		.loc 6 113 0
 10437 464c 488D1500 		leaq	16+_ZTVN12_GLOBAL__N_146TestFixtureCtorThrowsFixtureCtorThrowsTestNameE(%rip), %rdx
 10437      000000
 10438 4653 488B45F8 		movq	-8(%rbp), %rax
 10439 4657 488910   		movq	%rdx, (%rax)
 10440 465a 488B45F8 		movq	-8(%rbp), %rax
 10441 465e 4889C7   		movq	%rax, %rdi
 10442 4661 E8000000 		call	_ZN8UnitTest4TestD2Ev@PLT
 10442      00
 10443              	.LBE165:
 10444 4666 90       		nop
 10445 4667 C9       		leave
 10446              		.cfi_def_cfa 7, 8
 10447 4668 C3       		ret
 10448              		.cfi_endproc
 10449              	.LFE1351:
 10451              		.set	_ZN12_GLOBAL__N_146TestFixtureCtorThrowsFixtureCtorThrowsTestNameD1Ev,_ZN12_GLOBAL__N_146Test
 10452 4669 90       		.align 2
 10454              	_ZN12_GLOBAL__N_146TestFixtureCtorThrowsFixtureCtorThrowsTestNameD0Ev:
 10455              	.LFB1353:
 113:TestTestMacros.cpp **** {
 10456              		.loc 6 113 0
 10457              		.cfi_startproc
 10458              		.cfi_personality 0x9b,DW.ref.__gxx_personality_v0
 10459              		.cfi_lsda 0x1b,.LLSDA1353
 10460 466a 55       		pushq	%rbp
 10461              		.cfi_def_cfa_offset 16
 10462              		.cfi_offset 6, -16
 10463 466b 4889E5   		movq	%rsp, %rbp
 10464              		.cfi_def_cfa_register 6
 10465 466e 53       		pushq	%rbx
 10466 466f 4883EC18 		subq	$24, %rsp
 10467              		.cfi_offset 3, -24
 10468 4673 48897DE8 		movq	%rdi, -24(%rbp)
 113:TestTestMacros.cpp **** {
 10469              		.loc 6 113 0
 10470 4677 488B45E8 		movq	-24(%rbp), %rax
 10471 467b 4889C7   		movq	%rax, %rdi
 10472              	.LEHB268:
 10473 467e E8BDFFFF 		call	_ZN12_GLOBAL__N_146TestFixtureCtorThrowsFixtureCtorThrowsTestNameD1Ev
 10473      FF
 10474              	.LEHE268:
 113:TestTestMacros.cpp **** {
 10475              		.loc 6 113 0 is_stmt 0 discriminator 2
 10476 4683 488B45E8 		movq	-24(%rbp), %rax
 10477 4687 4889C7   		movq	%rax, %rdi
 10478 468a E8000000 		call	_ZdlPv@PLT
 10478      00
 10479 468f EB1A     		jmp	.L551
 10480              	.L550:
 10481 4691 4889C3   		movq	%rax, %rbx
 113:TestTestMacros.cpp **** {
 10482              		.loc 6 113 0
 10483 4694 488B45E8 		movq	-24(%rbp), %rax
 10484 4698 4889C7   		movq	%rax, %rdi
 10485 469b E8000000 		call	_ZdlPv@PLT
 10485      00
 10486 46a0 4889D8   		movq	%rbx, %rax
 10487 46a3 4889C7   		movq	%rax, %rdi
 10488              	.LEHB269:
 10489 46a6 E8000000 		call	_Unwind_Resume@PLT
 10489      00
 10490              	.LEHE269:
 10491              	.L551:
 10492 46ab 4883C418 		addq	$24, %rsp
 10493 46af 5B       		popq	%rbx
 10494 46b0 5D       		popq	%rbp
 10495              		.cfi_def_cfa 7, 8
 10496 46b1 C3       		ret
 10497              		.cfi_endproc
 10498              	.LFE1353:
 10499              		.section	.gcc_except_table
 10500              	.LLSDA1353:
 10501 0790 FF       		.byte	0xff
 10502 0791 FF       		.byte	0xff
 10503 0792 01       		.byte	0x1
 10504 0793 08       		.uleb128 .LLSDACSE1353-.LLSDACSB1353
 10505              	.LLSDACSB1353:
 10506 0794 14       		.uleb128 .LEHB268-.LFB1353
 10507 0795 05       		.uleb128 .LEHE268-.LEHB268
 10508 0796 27       		.uleb128 .L550-.LFB1353
 10509 0797 00       		.uleb128 0
 10510 0798 3C       		.uleb128 .LEHB269-.LFB1353
 10511 0799 05       		.uleb128 .LEHE269-.LEHB269
 10512 079a 00       		.uleb128 0
 10513 079b 00       		.uleb128 0
 10514              	.LLSDACSE1353:
 10515              		.text
 10517              		.section	.data.rel.ro.local
 10518              		.align 8
 10521              	_ZTVN12_GLOBAL__N_153TestTestAddedWithTEST_FIXTURE_EXMacroGetsDefaultSuiteE:
 10522 00f0 00000000 		.quad	0
 10522      00000000 
 10523 00f8 00000000 		.quad	_ZTIN12_GLOBAL__N_153TestTestAddedWithTEST_FIXTURE_EXMacroGetsDefaultSuiteE
 10523      00000000 
 10524 0100 00000000 		.quad	_ZN12_GLOBAL__N_153TestTestAddedWithTEST_FIXTURE_EXMacroGetsDefaultSuiteD1Ev
 10524      00000000 
 10525 0108 00000000 		.quad	_ZN12_GLOBAL__N_153TestTestAddedWithTEST_FIXTURE_EXMacroGetsDefaultSuiteD0Ev
 10525      00000000 
 10526 0110 00000000 		.quad	_ZNK12_GLOBAL__N_153TestTestAddedWithTEST_FIXTURE_EXMacroGetsDefaultSuite7RunImplEv
 10526      00000000 
 10527              		.text
 10528              		.align 2
 10530              	_ZN12_GLOBAL__N_153TestTestAddedWithTEST_FIXTURE_EXMacroGetsDefaultSuiteD2Ev:
 10531              	.LFB1355:
 100:TestTestMacros.cpp **** {
 10532              		.loc 6 100 0 is_stmt 1
 10533              		.cfi_startproc
 10534 46b2 55       		pushq	%rbp
 10535              		.cfi_def_cfa_offset 16
 10536              		.cfi_offset 6, -16
 10537 46b3 4889E5   		movq	%rsp, %rbp
 10538              		.cfi_def_cfa_register 6
 10539 46b6 4883EC10 		subq	$16, %rsp
 10540 46ba 48897DF8 		movq	%rdi, -8(%rbp)
 10541              	.LBB166:
 100:TestTestMacros.cpp **** {
 10542              		.loc 6 100 0
 10543 46be 488D1500 		leaq	16+_ZTVN12_GLOBAL__N_153TestTestAddedWithTEST_FIXTURE_EXMacroGetsDefaultSuiteE(%rip), %rdx
 10543      000000
 10544 46c5 488B45F8 		movq	-8(%rbp), %rax
 10545 46c9 488910   		movq	%rdx, (%rax)
 10546 46cc 488B45F8 		movq	-8(%rbp), %rax
 10547 46d0 4889C7   		movq	%rax, %rdi
 10548 46d3 E8000000 		call	_ZN8UnitTest4TestD2Ev@PLT
 10548      00
 10549              	.LBE166:
 10550 46d8 90       		nop
 10551 46d9 C9       		leave
 10552              		.cfi_def_cfa 7, 8
 10553 46da C3       		ret
 10554              		.cfi_endproc
 10555              	.LFE1355:
 10557              		.set	_ZN12_GLOBAL__N_153TestTestAddedWithTEST_FIXTURE_EXMacroGetsDefaultSuiteD1Ev,_ZN12_GLOBAL__N_
 10558 46db 90       		.align 2
 10560              	_ZN12_GLOBAL__N_153TestTestAddedWithTEST_FIXTURE_EXMacroGetsDefaultSuiteD0Ev:
 10561              	.LFB1357:
 100:TestTestMacros.cpp **** {
 10562              		.loc 6 100 0
 10563              		.cfi_startproc
 10564              		.cfi_personality 0x9b,DW.ref.__gxx_personality_v0
 10565              		.cfi_lsda 0x1b,.LLSDA1357
 10566 46dc 55       		pushq	%rbp
 10567              		.cfi_def_cfa_offset 16
 10568              		.cfi_offset 6, -16
 10569 46dd 4889E5   		movq	%rsp, %rbp
 10570              		.cfi_def_cfa_register 6
 10571 46e0 53       		pushq	%rbx
 10572 46e1 4883EC18 		subq	$24, %rsp
 10573              		.cfi_offset 3, -24
 10574 46e5 48897DE8 		movq	%rdi, -24(%rbp)
 100:TestTestMacros.cpp **** {
 10575              		.loc 6 100 0
 10576 46e9 488B45E8 		movq	-24(%rbp), %rax
 10577 46ed 4889C7   		movq	%rax, %rdi
 10578              	.LEHB270:
 10579 46f0 E8BDFFFF 		call	_ZN12_GLOBAL__N_153TestTestAddedWithTEST_FIXTURE_EXMacroGetsDefaultSuiteD1Ev
 10579      FF
 10580              	.LEHE270:
 100:TestTestMacros.cpp **** {
 10581              		.loc 6 100 0 is_stmt 0 discriminator 2
 10582 46f5 488B45E8 		movq	-24(%rbp), %rax
 10583 46f9 4889C7   		movq	%rax, %rdi
 10584 46fc E8000000 		call	_ZdlPv@PLT
 10584      00
 10585 4701 EB1A     		jmp	.L556
 10586              	.L555:
 10587 4703 4889C3   		movq	%rax, %rbx
 100:TestTestMacros.cpp **** {
 10588              		.loc 6 100 0
 10589 4706 488B45E8 		movq	-24(%rbp), %rax
 10590 470a 4889C7   		movq	%rax, %rdi
 10591 470d E8000000 		call	_ZdlPv@PLT
 10591      00
 10592 4712 4889D8   		movq	%rbx, %rax
 10593 4715 4889C7   		movq	%rax, %rdi
 10594              	.LEHB271:
 10595 4718 E8000000 		call	_Unwind_Resume@PLT
 10595      00
 10596              	.LEHE271:
 10597              	.L556:
 10598 471d 4883C418 		addq	$24, %rsp
 10599 4721 5B       		popq	%rbx
 10600 4722 5D       		popq	%rbp
 10601              		.cfi_def_cfa 7, 8
 10602 4723 C3       		ret
 10603              		.cfi_endproc
 10604              	.LFE1357:
 10605              		.section	.gcc_except_table
 10606              	.LLSDA1357:
 10607 079c FF       		.byte	0xff
 10608 079d FF       		.byte	0xff
 10609 079e 01       		.byte	0x1
 10610 079f 08       		.uleb128 .LLSDACSE1357-.LLSDACSB1357
 10611              	.LLSDACSB1357:
 10612 07a0 14       		.uleb128 .LEHB270-.LFB1357
 10613 07a1 05       		.uleb128 .LEHE270-.LEHB270
 10614 07a2 27       		.uleb128 .L555-.LFB1357
 10615 07a3 00       		.uleb128 0
 10616 07a4 3C       		.uleb128 .LEHB271-.LFB1357
 10617 07a5 05       		.uleb128 .LEHE271-.LEHB271
 10618 07a6 00       		.uleb128 0
 10619 07a7 00       		.uleb128 0
 10620              	.LLSDACSE1357:
 10621              		.text
 10623              		.section	.data.rel.ro.local
 10624              		.align 8
 10627              	_ZTVN12_GLOBAL__N_132TestDummyFixtureMacroTestHelper2E:
 10628 0118 00000000 		.quad	0
 10628      00000000 
 10629 0120 00000000 		.quad	_ZTIN12_GLOBAL__N_132TestDummyFixtureMacroTestHelper2E
 10629      00000000 
 10630 0128 00000000 		.quad	_ZN12_GLOBAL__N_132TestDummyFixtureMacroTestHelper2D1Ev
 10630      00000000 
 10631 0130 00000000 		.quad	_ZN12_GLOBAL__N_132TestDummyFixtureMacroTestHelper2D0Ev
 10631      00000000 
 10632 0138 00000000 		.quad	_ZNK12_GLOBAL__N_132TestDummyFixtureMacroTestHelper27RunImplEv
 10632      00000000 
 10633              		.text
 10634              		.align 2
 10636              	_ZN12_GLOBAL__N_132TestDummyFixtureMacroTestHelper2D2Ev:
 10637              	.LFB1359:
  96:TestTestMacros.cpp **** {
 10638              		.loc 6 96 0 is_stmt 1
 10639              		.cfi_startproc
 10640 4724 55       		pushq	%rbp
 10641              		.cfi_def_cfa_offset 16
 10642              		.cfi_offset 6, -16
 10643 4725 4889E5   		movq	%rsp, %rbp
 10644              		.cfi_def_cfa_register 6
 10645 4728 4883EC10 		subq	$16, %rsp
 10646 472c 48897DF8 		movq	%rdi, -8(%rbp)
 10647              	.LBB167:
  96:TestTestMacros.cpp **** {
 10648              		.loc 6 96 0
 10649 4730 488D1500 		leaq	16+_ZTVN12_GLOBAL__N_132TestDummyFixtureMacroTestHelper2E(%rip), %rdx
 10649      000000
 10650 4737 488B45F8 		movq	-8(%rbp), %rax
 10651 473b 488910   		movq	%rdx, (%rax)
 10652 473e 488B45F8 		movq	-8(%rbp), %rax
 10653 4742 4889C7   		movq	%rax, %rdi
 10654 4745 E8000000 		call	_ZN8UnitTest4TestD2Ev@PLT
 10654      00
 10655              	.LBE167:
 10656 474a 90       		nop
 10657 474b C9       		leave
 10658              		.cfi_def_cfa 7, 8
 10659 474c C3       		ret
 10660              		.cfi_endproc
 10661              	.LFE1359:
 10663              		.set	_ZN12_GLOBAL__N_132TestDummyFixtureMacroTestHelper2D1Ev,_ZN12_GLOBAL__N_132TestDummyFixtureMa
 10664 474d 90       		.align 2
 10666              	_ZN12_GLOBAL__N_132TestDummyFixtureMacroTestHelper2D0Ev:
 10667              	.LFB1361:
  96:TestTestMacros.cpp **** {
 10668              		.loc 6 96 0
 10669              		.cfi_startproc
 10670              		.cfi_personality 0x9b,DW.ref.__gxx_personality_v0
 10671              		.cfi_lsda 0x1b,.LLSDA1361
 10672 474e 55       		pushq	%rbp
 10673              		.cfi_def_cfa_offset 16
 10674              		.cfi_offset 6, -16
 10675 474f 4889E5   		movq	%rsp, %rbp
 10676              		.cfi_def_cfa_register 6
 10677 4752 53       		pushq	%rbx
 10678 4753 4883EC18 		subq	$24, %rsp
 10679              		.cfi_offset 3, -24
 10680 4757 48897DE8 		movq	%rdi, -24(%rbp)
  96:TestTestMacros.cpp **** {
 10681              		.loc 6 96 0
 10682 475b 488B45E8 		movq	-24(%rbp), %rax
 10683 475f 4889C7   		movq	%rax, %rdi
 10684              	.LEHB272:
 10685 4762 E8BDFFFF 		call	_ZN12_GLOBAL__N_132TestDummyFixtureMacroTestHelper2D1Ev
 10685      FF
 10686              	.LEHE272:
  96:TestTestMacros.cpp **** {
 10687              		.loc 6 96 0 is_stmt 0 discriminator 2
 10688 4767 488B45E8 		movq	-24(%rbp), %rax
 10689 476b 4889C7   		movq	%rax, %rdi
 10690 476e E8000000 		call	_ZdlPv@PLT
 10690      00
 10691 4773 EB1A     		jmp	.L561
 10692              	.L560:
 10693 4775 4889C3   		movq	%rax, %rbx
  96:TestTestMacros.cpp **** {
 10694              		.loc 6 96 0
 10695 4778 488B45E8 		movq	-24(%rbp), %rax
 10696 477c 4889C7   		movq	%rax, %rdi
 10697 477f E8000000 		call	_ZdlPv@PLT
 10697      00
 10698 4784 4889D8   		movq	%rbx, %rax
 10699 4787 4889C7   		movq	%rax, %rdi
 10700              	.LEHB273:
 10701 478a E8000000 		call	_Unwind_Resume@PLT
 10701      00
 10702              	.LEHE273:
 10703              	.L561:
 10704 478f 4883C418 		addq	$24, %rsp
 10705 4793 5B       		popq	%rbx
 10706 4794 5D       		popq	%rbp
 10707              		.cfi_def_cfa 7, 8
 10708 4795 C3       		ret
 10709              		.cfi_endproc
 10710              	.LFE1361:
 10711              		.section	.gcc_except_table
 10712              	.LLSDA1361:
 10713 07a8 FF       		.byte	0xff
 10714 07a9 FF       		.byte	0xff
 10715 07aa 01       		.byte	0x1
 10716 07ab 08       		.uleb128 .LLSDACSE1361-.LLSDACSB1361
 10717              	.LLSDACSB1361:
 10718 07ac 14       		.uleb128 .LEHB272-.LFB1361
 10719 07ad 05       		.uleb128 .LEHE272-.LEHB272
 10720 07ae 27       		.uleb128 .L560-.LFB1361
 10721 07af 00       		.uleb128 0
 10722 07b0 3C       		.uleb128 .LEHB273-.LFB1361
 10723 07b1 05       		.uleb128 .LEHE273-.LEHB273
 10724 07b2 00       		.uleb128 0
 10725 07b3 00       		.uleb128 0
 10726              	.LLSDACSE1361:
 10727              		.text
 10729              		.section	.data.rel.ro.local
 10730              		.align 8
 10733              	_ZTVN12_GLOBAL__N_145TestTestAddedWithTEST_EXMacroGetsDefaultSuiteE:
 10734 0140 00000000 		.quad	0
 10734      00000000 
 10735 0148 00000000 		.quad	_ZTIN12_GLOBAL__N_145TestTestAddedWithTEST_EXMacroGetsDefaultSuiteE
 10735      00000000 
 10736 0150 00000000 		.quad	_ZN12_GLOBAL__N_145TestTestAddedWithTEST_EXMacroGetsDefaultSuiteD1Ev
 10736      00000000 
 10737 0158 00000000 		.quad	_ZN12_GLOBAL__N_145TestTestAddedWithTEST_EXMacroGetsDefaultSuiteD0Ev
 10737      00000000 
 10738 0160 00000000 		.quad	_ZNK12_GLOBAL__N_145TestTestAddedWithTEST_EXMacroGetsDefaultSuite7RunImplEv
 10738      00000000 
 10739              		.text
 10740              		.align 2
 10742              	_ZN12_GLOBAL__N_145TestTestAddedWithTEST_EXMacroGetsDefaultSuiteD2Ev:
 10743              	.LFB1363:
  88:TestTestMacros.cpp **** {
 10744              		.loc 6 88 0 is_stmt 1
 10745              		.cfi_startproc
 10746 4796 55       		pushq	%rbp
 10747              		.cfi_def_cfa_offset 16
 10748              		.cfi_offset 6, -16
 10749 4797 4889E5   		movq	%rsp, %rbp
 10750              		.cfi_def_cfa_register 6
 10751 479a 4883EC10 		subq	$16, %rsp
 10752 479e 48897DF8 		movq	%rdi, -8(%rbp)
 10753              	.LBB168:
  88:TestTestMacros.cpp **** {
 10754              		.loc 6 88 0
 10755 47a2 488D1500 		leaq	16+_ZTVN12_GLOBAL__N_145TestTestAddedWithTEST_EXMacroGetsDefaultSuiteE(%rip), %rdx
 10755      000000
 10756 47a9 488B45F8 		movq	-8(%rbp), %rax
 10757 47ad 488910   		movq	%rdx, (%rax)
 10758 47b0 488B45F8 		movq	-8(%rbp), %rax
 10759 47b4 4889C7   		movq	%rax, %rdi
 10760 47b7 E8000000 		call	_ZN8UnitTest4TestD2Ev@PLT
 10760      00
 10761              	.LBE168:
 10762 47bc 90       		nop
 10763 47bd C9       		leave
 10764              		.cfi_def_cfa 7, 8
 10765 47be C3       		ret
 10766              		.cfi_endproc
 10767              	.LFE1363:
 10769              		.set	_ZN12_GLOBAL__N_145TestTestAddedWithTEST_EXMacroGetsDefaultSuiteD1Ev,_ZN12_GLOBAL__N_145TestT
 10770 47bf 90       		.align 2
 10772              	_ZN12_GLOBAL__N_145TestTestAddedWithTEST_EXMacroGetsDefaultSuiteD0Ev:
 10773              	.LFB1365:
  88:TestTestMacros.cpp **** {
 10774              		.loc 6 88 0
 10775              		.cfi_startproc
 10776              		.cfi_personality 0x9b,DW.ref.__gxx_personality_v0
 10777              		.cfi_lsda 0x1b,.LLSDA1365
 10778 47c0 55       		pushq	%rbp
 10779              		.cfi_def_cfa_offset 16
 10780              		.cfi_offset 6, -16
 10781 47c1 4889E5   		movq	%rsp, %rbp
 10782              		.cfi_def_cfa_register 6
 10783 47c4 53       		pushq	%rbx
 10784 47c5 4883EC18 		subq	$24, %rsp
 10785              		.cfi_offset 3, -24
 10786 47c9 48897DE8 		movq	%rdi, -24(%rbp)
  88:TestTestMacros.cpp **** {
 10787              		.loc 6 88 0
 10788 47cd 488B45E8 		movq	-24(%rbp), %rax
 10789 47d1 4889C7   		movq	%rax, %rdi
 10790              	.LEHB274:
 10791 47d4 E8BDFFFF 		call	_ZN12_GLOBAL__N_145TestTestAddedWithTEST_EXMacroGetsDefaultSuiteD1Ev
 10791      FF
 10792              	.LEHE274:
  88:TestTestMacros.cpp **** {
 10793              		.loc 6 88 0 is_stmt 0 discriminator 2
 10794 47d9 488B45E8 		movq	-24(%rbp), %rax
 10795 47dd 4889C7   		movq	%rax, %rdi
 10796 47e0 E8000000 		call	_ZdlPv@PLT
 10796      00
 10797 47e5 EB1A     		jmp	.L566
 10798              	.L565:
 10799 47e7 4889C3   		movq	%rax, %rbx
  88:TestTestMacros.cpp **** {
 10800              		.loc 6 88 0
 10801 47ea 488B45E8 		movq	-24(%rbp), %rax
 10802 47ee 4889C7   		movq	%rax, %rdi
 10803 47f1 E8000000 		call	_ZdlPv@PLT
 10803      00
 10804 47f6 4889D8   		movq	%rbx, %rax
 10805 47f9 4889C7   		movq	%rax, %rdi
 10806              	.LEHB275:
 10807 47fc E8000000 		call	_Unwind_Resume@PLT
 10807      00
 10808              	.LEHE275:
 10809              	.L566:
 10810 4801 4883C418 		addq	$24, %rsp
 10811 4805 5B       		popq	%rbx
 10812 4806 5D       		popq	%rbp
 10813              		.cfi_def_cfa 7, 8
 10814 4807 C3       		ret
 10815              		.cfi_endproc
 10816              	.LFE1365:
 10817              		.section	.gcc_except_table
 10818              	.LLSDA1365:
 10819 07b4 FF       		.byte	0xff
 10820 07b5 FF       		.byte	0xff
 10821 07b6 01       		.byte	0x1
 10822 07b7 08       		.uleb128 .LLSDACSE1365-.LLSDACSB1365
 10823              	.LLSDACSB1365:
 10824 07b8 14       		.uleb128 .LEHB274-.LFB1365
 10825 07b9 05       		.uleb128 .LEHE274-.LEHB274
 10826 07ba 27       		.uleb128 .L565-.LFB1365
 10827 07bb 00       		.uleb128 0
 10828 07bc 3C       		.uleb128 .LEHB275-.LFB1365
 10829 07bd 05       		.uleb128 .LEHE275-.LEHB275
 10830 07be 00       		.uleb128 0
 10831 07bf 00       		.uleb128 0
 10832              	.LLSDACSE1365:
 10833              		.text
 10835              		.section	.data.rel.ro.local
 10836              		.align 8
 10839              	_ZTVN12_GLOBAL__N_120TestMacroTestHelper1E:
 10840 0168 00000000 		.quad	0
 10840      00000000 
 10841 0170 00000000 		.quad	_ZTIN12_GLOBAL__N_120TestMacroTestHelper1E
 10841      00000000 
 10842 0178 00000000 		.quad	_ZN12_GLOBAL__N_120TestMacroTestHelper1D1Ev
 10842      00000000 
 10843 0180 00000000 		.quad	_ZN12_GLOBAL__N_120TestMacroTestHelper1D0Ev
 10843      00000000 
 10844 0188 00000000 		.quad	_ZNK12_GLOBAL__N_120TestMacroTestHelper17RunImplEv
 10844      00000000 
 10845              		.text
 10846              		.align 2
 10848              	_ZN12_GLOBAL__N_120TestMacroTestHelper1D2Ev:
 10849              	.LFB1367:
  84:TestTestMacros.cpp **** {
 10850              		.loc 6 84 0 is_stmt 1
 10851              		.cfi_startproc
 10852 4808 55       		pushq	%rbp
 10853              		.cfi_def_cfa_offset 16
 10854              		.cfi_offset 6, -16
 10855 4809 4889E5   		movq	%rsp, %rbp
 10856              		.cfi_def_cfa_register 6
 10857 480c 4883EC10 		subq	$16, %rsp
 10858 4810 48897DF8 		movq	%rdi, -8(%rbp)
 10859              	.LBB169:
  84:TestTestMacros.cpp **** {
 10860              		.loc 6 84 0
 10861 4814 488D1500 		leaq	16+_ZTVN12_GLOBAL__N_120TestMacroTestHelper1E(%rip), %rdx
 10861      000000
 10862 481b 488B45F8 		movq	-8(%rbp), %rax
 10863 481f 488910   		movq	%rdx, (%rax)
 10864 4822 488B45F8 		movq	-8(%rbp), %rax
 10865 4826 4889C7   		movq	%rax, %rdi
 10866 4829 E8000000 		call	_ZN8UnitTest4TestD2Ev@PLT
 10866      00
 10867              	.LBE169:
 10868 482e 90       		nop
 10869 482f C9       		leave
 10870              		.cfi_def_cfa 7, 8
 10871 4830 C3       		ret
 10872              		.cfi_endproc
 10873              	.LFE1367:
 10875              		.set	_ZN12_GLOBAL__N_120TestMacroTestHelper1D1Ev,_ZN12_GLOBAL__N_120TestMacroTestHelper1D2Ev
 10876 4831 90       		.align 2
 10878              	_ZN12_GLOBAL__N_120TestMacroTestHelper1D0Ev:
 10879              	.LFB1369:
  84:TestTestMacros.cpp **** {
 10880              		.loc 6 84 0
 10881              		.cfi_startproc
 10882              		.cfi_personality 0x9b,DW.ref.__gxx_personality_v0
 10883              		.cfi_lsda 0x1b,.LLSDA1369
 10884 4832 55       		pushq	%rbp
 10885              		.cfi_def_cfa_offset 16
 10886              		.cfi_offset 6, -16
 10887 4833 4889E5   		movq	%rsp, %rbp
 10888              		.cfi_def_cfa_register 6
 10889 4836 53       		pushq	%rbx
 10890 4837 4883EC18 		subq	$24, %rsp
 10891              		.cfi_offset 3, -24
 10892 483b 48897DE8 		movq	%rdi, -24(%rbp)
  84:TestTestMacros.cpp **** {
 10893              		.loc 6 84 0
 10894 483f 488B45E8 		movq	-24(%rbp), %rax
 10895 4843 4889C7   		movq	%rax, %rdi
 10896              	.LEHB276:
 10897 4846 E8BDFFFF 		call	_ZN12_GLOBAL__N_120TestMacroTestHelper1D1Ev
 10897      FF
 10898              	.LEHE276:
  84:TestTestMacros.cpp **** {
 10899              		.loc 6 84 0 is_stmt 0 discriminator 2
 10900 484b 488B45E8 		movq	-24(%rbp), %rax
 10901 484f 4889C7   		movq	%rax, %rdi
 10902 4852 E8000000 		call	_ZdlPv@PLT
 10902      00
 10903 4857 EB1A     		jmp	.L571
 10904              	.L570:
 10905 4859 4889C3   		movq	%rax, %rbx
  84:TestTestMacros.cpp **** {
 10906              		.loc 6 84 0
 10907 485c 488B45E8 		movq	-24(%rbp), %rax
 10908 4860 4889C7   		movq	%rax, %rdi
 10909 4863 E8000000 		call	_ZdlPv@PLT
 10909      00
 10910 4868 4889D8   		movq	%rbx, %rax
 10911 486b 4889C7   		movq	%rax, %rdi
 10912              	.LEHB277:
 10913 486e E8000000 		call	_Unwind_Resume@PLT
 10913      00
 10914              	.LEHE277:
 10915              	.L571:
 10916 4873 4883C418 		addq	$24, %rsp
 10917 4877 5B       		popq	%rbx
 10918 4878 5D       		popq	%rbp
 10919              		.cfi_def_cfa 7, 8
 10920 4879 C3       		ret
 10921              		.cfi_endproc
 10922              	.LFE1369:
 10923              		.section	.gcc_except_table
 10924              	.LLSDA1369:
 10925 07c0 FF       		.byte	0xff
 10926 07c1 FF       		.byte	0xff
 10927 07c2 01       		.byte	0x1
 10928 07c3 08       		.uleb128 .LLSDACSE1369-.LLSDACSB1369
 10929              	.LLSDACSB1369:
 10930 07c4 14       		.uleb128 .LEHB276-.LFB1369
 10931 07c5 05       		.uleb128 .LEHE276-.LEHB276
 10932 07c6 27       		.uleb128 .L570-.LFB1369
 10933 07c7 00       		.uleb128 0
 10934 07c8 3C       		.uleb128 .LEHB277-.LFB1369
 10935 07c9 05       		.uleb128 .LEHE277-.LEHB277
 10936 07ca 00       		.uleb128 0
 10937 07cb 00       		.uleb128 0
 10938              	.LLSDACSE1369:
 10939              		.text
 10941              		.section	.data.rel.ro.local
 10942              		.align 8
 10945              	_ZTVN12_GLOBAL__N_115SuiteTestSuite263TestDummyFixtureSimilarlyNamedFixtureTestsInDifferentSuitesWo
 10946 0190 00000000 		.quad	0
 10946      00000000 
 10947 0198 00000000 		.quad	_ZTIN12_GLOBAL__N_115SuiteTestSuite263TestDummyFixtureSimilarlyNamedFixtureTestsInDifferentS
 10947      00000000 
 10948 01a0 00000000 		.quad	_ZN12_GLOBAL__N_115SuiteTestSuite263TestDummyFixtureSimilarlyNamedFixtureTestsInDifferentSui
 10948      00000000 
 10949 01a8 00000000 		.quad	_ZN12_GLOBAL__N_115SuiteTestSuite263TestDummyFixtureSimilarlyNamedFixtureTestsInDifferentSui
 10949      00000000 
 10950 01b0 00000000 		.quad	_ZNK12_GLOBAL__N_115SuiteTestSuite263TestDummyFixtureSimilarlyNamedFixtureTestsInDifferentSu
 10950      00000000 
 10951              		.text
 10952              		.align 2
 10954              	_ZN12_GLOBAL__N_115SuiteTestSuite263TestDummyFixtureSimilarlyNamedFixtureTestsInDifferentSuitesWork
 10955              	.LFB1371:
  78:TestTestMacros.cpp **** 	{
 10956              		.loc 6 78 0 is_stmt 1
 10957              		.cfi_startproc
 10958 487a 55       		pushq	%rbp
 10959              		.cfi_def_cfa_offset 16
 10960              		.cfi_offset 6, -16
 10961 487b 4889E5   		movq	%rsp, %rbp
 10962              		.cfi_def_cfa_register 6
 10963 487e 4883EC10 		subq	$16, %rsp
 10964 4882 48897DF8 		movq	%rdi, -8(%rbp)
 10965              	.LBB170:
  78:TestTestMacros.cpp **** 	{
 10966              		.loc 6 78 0
 10967 4886 488D1500 		leaq	16+_ZTVN12_GLOBAL__N_115SuiteTestSuite263TestDummyFixtureSimilarlyNamedFixtureTestsInDifferen
 10967      000000
 10968 488d 488B45F8 		movq	-8(%rbp), %rax
 10969 4891 488910   		movq	%rdx, (%rax)
 10970 4894 488B45F8 		movq	-8(%rbp), %rax
 10971 4898 4889C7   		movq	%rax, %rdi
 10972 489b E8000000 		call	_ZN8UnitTest4TestD2Ev@PLT
 10972      00
 10973              	.LBE170:
 10974 48a0 90       		nop
 10975 48a1 C9       		leave
 10976              		.cfi_def_cfa 7, 8
 10977 48a2 C3       		ret
 10978              		.cfi_endproc
 10979              	.LFE1371:
 10981              		.set	_ZN12_GLOBAL__N_115SuiteTestSuite263TestDummyFixtureSimilarlyNamedFixtureTestsInDifferentSuit
 10982 48a3 90       		.align 2
 10984              	_ZN12_GLOBAL__N_115SuiteTestSuite263TestDummyFixtureSimilarlyNamedFixtureTestsInDifferentSuitesWork
 10985              	.LFB1373:
  78:TestTestMacros.cpp **** 	{
 10986              		.loc 6 78 0
 10987              		.cfi_startproc
 10988              		.cfi_personality 0x9b,DW.ref.__gxx_personality_v0
 10989              		.cfi_lsda 0x1b,.LLSDA1373
 10990 48a4 55       		pushq	%rbp
 10991              		.cfi_def_cfa_offset 16
 10992              		.cfi_offset 6, -16
 10993 48a5 4889E5   		movq	%rsp, %rbp
 10994              		.cfi_def_cfa_register 6
 10995 48a8 53       		pushq	%rbx
 10996 48a9 4883EC18 		subq	$24, %rsp
 10997              		.cfi_offset 3, -24
 10998 48ad 48897DE8 		movq	%rdi, -24(%rbp)
  78:TestTestMacros.cpp **** 	{
 10999              		.loc 6 78 0
 11000 48b1 488B45E8 		movq	-24(%rbp), %rax
 11001 48b5 4889C7   		movq	%rax, %rdi
 11002              	.LEHB278:
 11003 48b8 E8BDFFFF 		call	_ZN12_GLOBAL__N_115SuiteTestSuite263TestDummyFixtureSimilarlyNamedFixtureTestsInDifferentSuit
 11003      FF
 11004              	.LEHE278:
  78:TestTestMacros.cpp **** 	{
 11005              		.loc 6 78 0 is_stmt 0 discriminator 2
 11006 48bd 488B45E8 		movq	-24(%rbp), %rax
 11007 48c1 4889C7   		movq	%rax, %rdi
 11008 48c4 E8000000 		call	_ZdlPv@PLT
 11008      00
 11009 48c9 EB1A     		jmp	.L576
 11010              	.L575:
 11011 48cb 4889C3   		movq	%rax, %rbx
  78:TestTestMacros.cpp **** 	{
 11012              		.loc 6 78 0
 11013 48ce 488B45E8 		movq	-24(%rbp), %rax
 11014 48d2 4889C7   		movq	%rax, %rdi
 11015 48d5 E8000000 		call	_ZdlPv@PLT
 11015      00
 11016 48da 4889D8   		movq	%rbx, %rax
 11017 48dd 4889C7   		movq	%rax, %rdi
 11018              	.LEHB279:
 11019 48e0 E8000000 		call	_Unwind_Resume@PLT
 11019      00
 11020              	.LEHE279:
 11021              	.L576:
 11022 48e5 4883C418 		addq	$24, %rsp
 11023 48e9 5B       		popq	%rbx
 11024 48ea 5D       		popq	%rbp
 11025              		.cfi_def_cfa 7, 8
 11026 48eb C3       		ret
 11027              		.cfi_endproc
 11028              	.LFE1373:
 11029              		.section	.gcc_except_table
 11030              	.LLSDA1373:
 11031 07cc FF       		.byte	0xff
 11032 07cd FF       		.byte	0xff
 11033 07ce 01       		.byte	0x1
 11034 07cf 08       		.uleb128 .LLSDACSE1373-.LLSDACSB1373
 11035              	.LLSDACSB1373:
 11036 07d0 14       		.uleb128 .LEHB278-.LFB1373
 11037 07d1 05       		.uleb128 .LEHE278-.LEHB278
 11038 07d2 27       		.uleb128 .L575-.LFB1373
 11039 07d3 00       		.uleb128 0
 11040 07d4 3C       		.uleb128 .LEHB279-.LFB1373
 11041 07d5 05       		.uleb128 .LEHE279-.LEHB279
 11042 07d6 00       		.uleb128 0
 11043 07d7 00       		.uleb128 0
 11044              	.LLSDACSE1373:
 11045              		.text
 11047              		.section	.data.rel.ro.local
 11048              		.align 8
 11051              	_ZTVN12_GLOBAL__N_115SuiteTestSuite244TestSimilarlyNamedTestsInDifferentSuitesWorkE:
 11052 01b8 00000000 		.quad	0
 11052      00000000 
 11053 01c0 00000000 		.quad	_ZTIN12_GLOBAL__N_115SuiteTestSuite244TestSimilarlyNamedTestsInDifferentSuitesWorkE
 11053      00000000 
 11054 01c8 00000000 		.quad	_ZN12_GLOBAL__N_115SuiteTestSuite244TestSimilarlyNamedTestsInDifferentSuitesWorkD1Ev
 11054      00000000 
 11055 01d0 00000000 		.quad	_ZN12_GLOBAL__N_115SuiteTestSuite244TestSimilarlyNamedTestsInDifferentSuitesWorkD0Ev
 11055      00000000 
 11056 01d8 00000000 		.quad	_ZNK12_GLOBAL__N_115SuiteTestSuite244TestSimilarlyNamedTestsInDifferentSuitesWork7RunImplEv
 11056      00000000 
 11057              		.text
 11058              		.align 2
 11060              	_ZN12_GLOBAL__N_115SuiteTestSuite244TestSimilarlyNamedTestsInDifferentSuitesWorkD2Ev:
 11061              	.LFB1375:
  74:TestTestMacros.cpp **** 	{
 11062              		.loc 6 74 0 is_stmt 1
 11063              		.cfi_startproc
 11064 48ec 55       		pushq	%rbp
 11065              		.cfi_def_cfa_offset 16
 11066              		.cfi_offset 6, -16
 11067 48ed 4889E5   		movq	%rsp, %rbp
 11068              		.cfi_def_cfa_register 6
 11069 48f0 4883EC10 		subq	$16, %rsp
 11070 48f4 48897DF8 		movq	%rdi, -8(%rbp)
 11071              	.LBB171:
  74:TestTestMacros.cpp **** 	{
 11072              		.loc 6 74 0
 11073 48f8 488D1500 		leaq	16+_ZTVN12_GLOBAL__N_115SuiteTestSuite244TestSimilarlyNamedTestsInDifferentSuitesWorkE(%rip),
 11073      000000
 11074 48ff 488B45F8 		movq	-8(%rbp), %rax
 11075 4903 488910   		movq	%rdx, (%rax)
 11076 4906 488B45F8 		movq	-8(%rbp), %rax
 11077 490a 4889C7   		movq	%rax, %rdi
 11078 490d E8000000 		call	_ZN8UnitTest4TestD2Ev@PLT
 11078      00
 11079              	.LBE171:
 11080 4912 90       		nop
 11081 4913 C9       		leave
 11082              		.cfi_def_cfa 7, 8
 11083 4914 C3       		ret
 11084              		.cfi_endproc
 11085              	.LFE1375:
 11087              		.set	_ZN12_GLOBAL__N_115SuiteTestSuite244TestSimilarlyNamedTestsInDifferentSuitesWorkD1Ev,_ZN12_GL
 11088 4915 90       		.align 2
 11090              	_ZN12_GLOBAL__N_115SuiteTestSuite244TestSimilarlyNamedTestsInDifferentSuitesWorkD0Ev:
 11091              	.LFB1377:
  74:TestTestMacros.cpp **** 	{
 11092              		.loc 6 74 0
 11093              		.cfi_startproc
 11094              		.cfi_personality 0x9b,DW.ref.__gxx_personality_v0
 11095              		.cfi_lsda 0x1b,.LLSDA1377
 11096 4916 55       		pushq	%rbp
 11097              		.cfi_def_cfa_offset 16
 11098              		.cfi_offset 6, -16
 11099 4917 4889E5   		movq	%rsp, %rbp
 11100              		.cfi_def_cfa_register 6
 11101 491a 53       		pushq	%rbx
 11102 491b 4883EC18 		subq	$24, %rsp
 11103              		.cfi_offset 3, -24
 11104 491f 48897DE8 		movq	%rdi, -24(%rbp)
  74:TestTestMacros.cpp **** 	{
 11105              		.loc 6 74 0
 11106 4923 488B45E8 		movq	-24(%rbp), %rax
 11107 4927 4889C7   		movq	%rax, %rdi
 11108              	.LEHB280:
 11109 492a E8BDFFFF 		call	_ZN12_GLOBAL__N_115SuiteTestSuite244TestSimilarlyNamedTestsInDifferentSuitesWorkD1Ev
 11109      FF
 11110              	.LEHE280:
  74:TestTestMacros.cpp **** 	{
 11111              		.loc 6 74 0 is_stmt 0 discriminator 2
 11112 492f 488B45E8 		movq	-24(%rbp), %rax
 11113 4933 4889C7   		movq	%rax, %rdi
 11114 4936 E8000000 		call	_ZdlPv@PLT
 11114      00
 11115 493b EB1A     		jmp	.L581
 11116              	.L580:
 11117 493d 4889C3   		movq	%rax, %rbx
  74:TestTestMacros.cpp **** 	{
 11118              		.loc 6 74 0
 11119 4940 488B45E8 		movq	-24(%rbp), %rax
 11120 4944 4889C7   		movq	%rax, %rdi
 11121 4947 E8000000 		call	_ZdlPv@PLT
 11121      00
 11122 494c 4889D8   		movq	%rbx, %rax
 11123 494f 4889C7   		movq	%rax, %rdi
 11124              	.LEHB281:
 11125 4952 E8000000 		call	_Unwind_Resume@PLT
 11125      00
 11126              	.LEHE281:
 11127              	.L581:
 11128 4957 4883C418 		addq	$24, %rsp
 11129 495b 5B       		popq	%rbx
 11130 495c 5D       		popq	%rbp
 11131              		.cfi_def_cfa 7, 8
 11132 495d C3       		ret
 11133              		.cfi_endproc
 11134              	.LFE1377:
 11135              		.section	.gcc_except_table
 11136              	.LLSDA1377:
 11137 07d8 FF       		.byte	0xff
 11138 07d9 FF       		.byte	0xff
 11139 07da 01       		.byte	0x1
 11140 07db 08       		.uleb128 .LLSDACSE1377-.LLSDACSB1377
 11141              	.LLSDACSB1377:
 11142 07dc 14       		.uleb128 .LEHB280-.LFB1377
 11143 07dd 05       		.uleb128 .LEHE280-.LEHB280
 11144 07de 27       		.uleb128 .L580-.LFB1377
 11145 07df 00       		.uleb128 0
 11146 07e0 3C       		.uleb128 .LEHB281-.LFB1377
 11147 07e1 05       		.uleb128 .LEHE281-.LEHB281
 11148 07e2 00       		.uleb128 0
 11149 07e3 00       		.uleb128 0
 11150              	.LLSDACSE1377:
 11151              		.text
 11153              		.section	.data.rel.ro.local
 11154              		.align 8
 11157              	_ZTVN12_GLOBAL__N_115SuiteTestSuite163TestDummyFixtureSimilarlyNamedFixtureTestsInDifferentSuitesWo
 11158 01e0 00000000 		.quad	0
 11158      00000000 
 11159 01e8 00000000 		.quad	_ZTIN12_GLOBAL__N_115SuiteTestSuite163TestDummyFixtureSimilarlyNamedFixtureTestsInDifferentS
 11159      00000000 
 11160 01f0 00000000 		.quad	_ZN12_GLOBAL__N_115SuiteTestSuite163TestDummyFixtureSimilarlyNamedFixtureTestsInDifferentSui
 11160      00000000 
 11161 01f8 00000000 		.quad	_ZN12_GLOBAL__N_115SuiteTestSuite163TestDummyFixtureSimilarlyNamedFixtureTestsInDifferentSui
 11161      00000000 
 11162 0200 00000000 		.quad	_ZNK12_GLOBAL__N_115SuiteTestSuite163TestDummyFixtureSimilarlyNamedFixtureTestsInDifferentSu
 11162      00000000 
 11163              		.text
 11164              		.align 2
 11166              	_ZN12_GLOBAL__N_115SuiteTestSuite163TestDummyFixtureSimilarlyNamedFixtureTestsInDifferentSuitesWork
 11167              	.LFB1379:
  67:TestTestMacros.cpp **** 	{
 11168              		.loc 6 67 0 is_stmt 1
 11169              		.cfi_startproc
 11170 495e 55       		pushq	%rbp
 11171              		.cfi_def_cfa_offset 16
 11172              		.cfi_offset 6, -16
 11173 495f 4889E5   		movq	%rsp, %rbp
 11174              		.cfi_def_cfa_register 6
 11175 4962 4883EC10 		subq	$16, %rsp
 11176 4966 48897DF8 		movq	%rdi, -8(%rbp)
 11177              	.LBB172:
  67:TestTestMacros.cpp **** 	{
 11178              		.loc 6 67 0
 11179 496a 488D1500 		leaq	16+_ZTVN12_GLOBAL__N_115SuiteTestSuite163TestDummyFixtureSimilarlyNamedFixtureTestsInDifferen
 11179      000000
 11180 4971 488B45F8 		movq	-8(%rbp), %rax
 11181 4975 488910   		movq	%rdx, (%rax)
 11182 4978 488B45F8 		movq	-8(%rbp), %rax
 11183 497c 4889C7   		movq	%rax, %rdi
 11184 497f E8000000 		call	_ZN8UnitTest4TestD2Ev@PLT
 11184      00
 11185              	.LBE172:
 11186 4984 90       		nop
 11187 4985 C9       		leave
 11188              		.cfi_def_cfa 7, 8
 11189 4986 C3       		ret
 11190              		.cfi_endproc
 11191              	.LFE1379:
 11193              		.set	_ZN12_GLOBAL__N_115SuiteTestSuite163TestDummyFixtureSimilarlyNamedFixtureTestsInDifferentSuit
 11194 4987 90       		.align 2
 11196              	_ZN12_GLOBAL__N_115SuiteTestSuite163TestDummyFixtureSimilarlyNamedFixtureTestsInDifferentSuitesWork
 11197              	.LFB1381:
  67:TestTestMacros.cpp **** 	{
 11198              		.loc 6 67 0
 11199              		.cfi_startproc
 11200              		.cfi_personality 0x9b,DW.ref.__gxx_personality_v0
 11201              		.cfi_lsda 0x1b,.LLSDA1381
 11202 4988 55       		pushq	%rbp
 11203              		.cfi_def_cfa_offset 16
 11204              		.cfi_offset 6, -16
 11205 4989 4889E5   		movq	%rsp, %rbp
 11206              		.cfi_def_cfa_register 6
 11207 498c 53       		pushq	%rbx
 11208 498d 4883EC18 		subq	$24, %rsp
 11209              		.cfi_offset 3, -24
 11210 4991 48897DE8 		movq	%rdi, -24(%rbp)
  67:TestTestMacros.cpp **** 	{
 11211              		.loc 6 67 0
 11212 4995 488B45E8 		movq	-24(%rbp), %rax
 11213 4999 4889C7   		movq	%rax, %rdi
 11214              	.LEHB282:
 11215 499c E8BDFFFF 		call	_ZN12_GLOBAL__N_115SuiteTestSuite163TestDummyFixtureSimilarlyNamedFixtureTestsInDifferentSuit
 11215      FF
 11216              	.LEHE282:
  67:TestTestMacros.cpp **** 	{
 11217              		.loc 6 67 0 is_stmt 0 discriminator 2
 11218 49a1 488B45E8 		movq	-24(%rbp), %rax
 11219 49a5 4889C7   		movq	%rax, %rdi
 11220 49a8 E8000000 		call	_ZdlPv@PLT
 11220      00
 11221 49ad EB1A     		jmp	.L586
 11222              	.L585:
 11223 49af 4889C3   		movq	%rax, %rbx
  67:TestTestMacros.cpp **** 	{
 11224              		.loc 6 67 0
 11225 49b2 488B45E8 		movq	-24(%rbp), %rax
 11226 49b6 4889C7   		movq	%rax, %rdi
 11227 49b9 E8000000 		call	_ZdlPv@PLT
 11227      00
 11228 49be 4889D8   		movq	%rbx, %rax
 11229 49c1 4889C7   		movq	%rax, %rdi
 11230              	.LEHB283:
 11231 49c4 E8000000 		call	_Unwind_Resume@PLT
 11231      00
 11232              	.LEHE283:
 11233              	.L586:
 11234 49c9 4883C418 		addq	$24, %rsp
 11235 49cd 5B       		popq	%rbx
 11236 49ce 5D       		popq	%rbp
 11237              		.cfi_def_cfa 7, 8
 11238 49cf C3       		ret
 11239              		.cfi_endproc
 11240              	.LFE1381:
 11241              		.section	.gcc_except_table
 11242              	.LLSDA1381:
 11243 07e4 FF       		.byte	0xff
 11244 07e5 FF       		.byte	0xff
 11245 07e6 01       		.byte	0x1
 11246 07e7 08       		.uleb128 .LLSDACSE1381-.LLSDACSB1381
 11247              	.LLSDACSB1381:
 11248 07e8 14       		.uleb128 .LEHB282-.LFB1381
 11249 07e9 05       		.uleb128 .LEHE282-.LEHB282
 11250 07ea 27       		.uleb128 .L585-.LFB1381
 11251 07eb 00       		.uleb128 0
 11252 07ec 3C       		.uleb128 .LEHB283-.LFB1381
 11253 07ed 05       		.uleb128 .LEHE283-.LEHB283
 11254 07ee 00       		.uleb128 0
 11255 07ef 00       		.uleb128 0
 11256              	.LLSDACSE1381:
 11257              		.text
 11259              		.section	.data.rel.ro.local
 11260              		.align 8
 11263              	_ZTVN12_GLOBAL__N_115SuiteTestSuite144TestSimilarlyNamedTestsInDifferentSuitesWorkE:
 11264 0208 00000000 		.quad	0
 11264      00000000 
 11265 0210 00000000 		.quad	_ZTIN12_GLOBAL__N_115SuiteTestSuite144TestSimilarlyNamedTestsInDifferentSuitesWorkE
 11265      00000000 
 11266 0218 00000000 		.quad	_ZN12_GLOBAL__N_115SuiteTestSuite144TestSimilarlyNamedTestsInDifferentSuitesWorkD1Ev
 11266      00000000 
 11267 0220 00000000 		.quad	_ZN12_GLOBAL__N_115SuiteTestSuite144TestSimilarlyNamedTestsInDifferentSuitesWorkD0Ev
 11267      00000000 
 11268 0228 00000000 		.quad	_ZNK12_GLOBAL__N_115SuiteTestSuite144TestSimilarlyNamedTestsInDifferentSuitesWork7RunImplEv
 11268      00000000 
 11269              		.text
 11270              		.align 2
 11272              	_ZN12_GLOBAL__N_115SuiteTestSuite144TestSimilarlyNamedTestsInDifferentSuitesWorkD2Ev:
 11273              	.LFB1383:
  63:TestTestMacros.cpp **** 	{
 11274              		.loc 6 63 0 is_stmt 1
 11275              		.cfi_startproc
 11276 49d0 55       		pushq	%rbp
 11277              		.cfi_def_cfa_offset 16
 11278              		.cfi_offset 6, -16
 11279 49d1 4889E5   		movq	%rsp, %rbp
 11280              		.cfi_def_cfa_register 6
 11281 49d4 4883EC10 		subq	$16, %rsp
 11282 49d8 48897DF8 		movq	%rdi, -8(%rbp)
 11283              	.LBB173:
  63:TestTestMacros.cpp **** 	{
 11284              		.loc 6 63 0
 11285 49dc 488D1500 		leaq	16+_ZTVN12_GLOBAL__N_115SuiteTestSuite144TestSimilarlyNamedTestsInDifferentSuitesWorkE(%rip),
 11285      000000
 11286 49e3 488B45F8 		movq	-8(%rbp), %rax
 11287 49e7 488910   		movq	%rdx, (%rax)
 11288 49ea 488B45F8 		movq	-8(%rbp), %rax
 11289 49ee 4889C7   		movq	%rax, %rdi
 11290 49f1 E8000000 		call	_ZN8UnitTest4TestD2Ev@PLT
 11290      00
 11291              	.LBE173:
 11292 49f6 90       		nop
 11293 49f7 C9       		leave
 11294              		.cfi_def_cfa 7, 8
 11295 49f8 C3       		ret
 11296              		.cfi_endproc
 11297              	.LFE1383:
 11299              		.set	_ZN12_GLOBAL__N_115SuiteTestSuite144TestSimilarlyNamedTestsInDifferentSuitesWorkD1Ev,_ZN12_GL
 11300 49f9 90       		.align 2
 11302              	_ZN12_GLOBAL__N_115SuiteTestSuite144TestSimilarlyNamedTestsInDifferentSuitesWorkD0Ev:
 11303              	.LFB1385:
  63:TestTestMacros.cpp **** 	{
 11304              		.loc 6 63 0
 11305              		.cfi_startproc
 11306              		.cfi_personality 0x9b,DW.ref.__gxx_personality_v0
 11307              		.cfi_lsda 0x1b,.LLSDA1385
 11308 49fa 55       		pushq	%rbp
 11309              		.cfi_def_cfa_offset 16
 11310              		.cfi_offset 6, -16
 11311 49fb 4889E5   		movq	%rsp, %rbp
 11312              		.cfi_def_cfa_register 6
 11313 49fe 53       		pushq	%rbx
 11314 49ff 4883EC18 		subq	$24, %rsp
 11315              		.cfi_offset 3, -24
 11316 4a03 48897DE8 		movq	%rdi, -24(%rbp)
  63:TestTestMacros.cpp **** 	{
 11317              		.loc 6 63 0
 11318 4a07 488B45E8 		movq	-24(%rbp), %rax
 11319 4a0b 4889C7   		movq	%rax, %rdi
 11320              	.LEHB284:
 11321 4a0e E8BDFFFF 		call	_ZN12_GLOBAL__N_115SuiteTestSuite144TestSimilarlyNamedTestsInDifferentSuitesWorkD1Ev
 11321      FF
 11322              	.LEHE284:
  63:TestTestMacros.cpp **** 	{
 11323              		.loc 6 63 0 is_stmt 0 discriminator 2
 11324 4a13 488B45E8 		movq	-24(%rbp), %rax
 11325 4a17 4889C7   		movq	%rax, %rdi
 11326 4a1a E8000000 		call	_ZdlPv@PLT
 11326      00
 11327 4a1f EB1A     		jmp	.L591
 11328              	.L590:
 11329 4a21 4889C3   		movq	%rax, %rbx
  63:TestTestMacros.cpp **** 	{
 11330              		.loc 6 63 0
 11331 4a24 488B45E8 		movq	-24(%rbp), %rax
 11332 4a28 4889C7   		movq	%rax, %rdi
 11333 4a2b E8000000 		call	_ZdlPv@PLT
 11333      00
 11334 4a30 4889D8   		movq	%rbx, %rax
 11335 4a33 4889C7   		movq	%rax, %rdi
 11336              	.LEHB285:
 11337 4a36 E8000000 		call	_Unwind_Resume@PLT
 11337      00
 11338              	.LEHE285:
 11339              	.L591:
 11340 4a3b 4883C418 		addq	$24, %rsp
 11341 4a3f 5B       		popq	%rbx
 11342 4a40 5D       		popq	%rbp
 11343              		.cfi_def_cfa 7, 8
 11344 4a41 C3       		ret
 11345              		.cfi_endproc
 11346              	.LFE1385:
 11347              		.section	.gcc_except_table
 11348              	.LLSDA1385:
 11349 07f0 FF       		.byte	0xff
 11350 07f1 FF       		.byte	0xff
 11351 07f2 01       		.byte	0x1
 11352 07f3 08       		.uleb128 .LLSDACSE1385-.LLSDACSB1385
 11353              	.LLSDACSB1385:
 11354 07f4 14       		.uleb128 .LEHB284-.LFB1385
 11355 07f5 05       		.uleb128 .LEHE284-.LEHB284
 11356 07f6 27       		.uleb128 .L590-.LFB1385
 11357 07f7 00       		.uleb128 0
 11358 07f8 3C       		.uleb128 .LEHB285-.LFB1385
 11359 07f9 05       		.uleb128 .LEHE285-.LEHB285
 11360 07fa 00       		.uleb128 0
 11361 07fb 00       		.uleb128 0
 11362              	.LLSDACSE1385:
 11363              		.text
 11365              		.section	.data.rel.ro.local
 11366              		.align 8
 11369              	_ZTVN12_GLOBAL__N_157TestExceptionsInFixtureAreReportedAsHappeningInTheFixtureE:
 11370 0230 00000000 		.quad	0
 11370      00000000 
 11371 0238 00000000 		.quad	_ZTIN12_GLOBAL__N_157TestExceptionsInFixtureAreReportedAsHappeningInTheFixtureE
 11371      00000000 
 11372 0240 00000000 		.quad	_ZN12_GLOBAL__N_157TestExceptionsInFixtureAreReportedAsHappeningInTheFixtureD1Ev
 11372      00000000 
 11373 0248 00000000 		.quad	_ZN12_GLOBAL__N_157TestExceptionsInFixtureAreReportedAsHappeningInTheFixtureD0Ev
 11373      00000000 
 11374 0250 00000000 		.quad	_ZNK12_GLOBAL__N_157TestExceptionsInFixtureAreReportedAsHappeningInTheFixture7RunImplEv
 11374      00000000 
 11375              		.text
 11376              		.align 2
 11378              	_ZN12_GLOBAL__N_157TestExceptionsInFixtureAreReportedAsHappeningInTheFixtureD2Ev:
 11379              	.LFB1387:
  41:TestTestMacros.cpp **** {
 11380              		.loc 6 41 0 is_stmt 1
 11381              		.cfi_startproc
 11382 4a42 55       		pushq	%rbp
 11383              		.cfi_def_cfa_offset 16
 11384              		.cfi_offset 6, -16
 11385 4a43 4889E5   		movq	%rsp, %rbp
 11386              		.cfi_def_cfa_register 6
 11387 4a46 4883EC10 		subq	$16, %rsp
 11388 4a4a 48897DF8 		movq	%rdi, -8(%rbp)
 11389              	.LBB174:
  41:TestTestMacros.cpp **** {
 11390              		.loc 6 41 0
 11391 4a4e 488D1500 		leaq	16+_ZTVN12_GLOBAL__N_157TestExceptionsInFixtureAreReportedAsHappeningInTheFixtureE(%rip), %rd
 11391      000000
 11392 4a55 488B45F8 		movq	-8(%rbp), %rax
 11393 4a59 488910   		movq	%rdx, (%rax)
 11394 4a5c 488B45F8 		movq	-8(%rbp), %rax
 11395 4a60 4889C7   		movq	%rax, %rdi
 11396 4a63 E8000000 		call	_ZN8UnitTest4TestD2Ev@PLT
 11396      00
 11397              	.LBE174:
 11398 4a68 90       		nop
 11399 4a69 C9       		leave
 11400              		.cfi_def_cfa 7, 8
 11401 4a6a C3       		ret
 11402              		.cfi_endproc
 11403              	.LFE1387:
 11405              		.set	_ZN12_GLOBAL__N_157TestExceptionsInFixtureAreReportedAsHappeningInTheFixtureD1Ev,_ZN12_GLOBAL
 11406 4a6b 90       		.align 2
 11408              	_ZN12_GLOBAL__N_157TestExceptionsInFixtureAreReportedAsHappeningInTheFixtureD0Ev:
 11409              	.LFB1389:
  41:TestTestMacros.cpp **** {
 11410              		.loc 6 41 0
 11411              		.cfi_startproc
 11412              		.cfi_personality 0x9b,DW.ref.__gxx_personality_v0
 11413              		.cfi_lsda 0x1b,.LLSDA1389
 11414 4a6c 55       		pushq	%rbp
 11415              		.cfi_def_cfa_offset 16
 11416              		.cfi_offset 6, -16
 11417 4a6d 4889E5   		movq	%rsp, %rbp
 11418              		.cfi_def_cfa_register 6
 11419 4a70 53       		pushq	%rbx
 11420 4a71 4883EC18 		subq	$24, %rsp
 11421              		.cfi_offset 3, -24
 11422 4a75 48897DE8 		movq	%rdi, -24(%rbp)
  41:TestTestMacros.cpp **** {
 11423              		.loc 6 41 0
 11424 4a79 488B45E8 		movq	-24(%rbp), %rax
 11425 4a7d 4889C7   		movq	%rax, %rdi
 11426              	.LEHB286:
 11427 4a80 E8BDFFFF 		call	_ZN12_GLOBAL__N_157TestExceptionsInFixtureAreReportedAsHappeningInTheFixtureD1Ev
 11427      FF
 11428              	.LEHE286:
  41:TestTestMacros.cpp **** {
 11429              		.loc 6 41 0 is_stmt 0 discriminator 2
 11430 4a85 488B45E8 		movq	-24(%rbp), %rax
 11431 4a89 4889C7   		movq	%rax, %rdi
 11432 4a8c E8000000 		call	_ZdlPv@PLT
 11432      00
 11433 4a91 EB1A     		jmp	.L596
 11434              	.L595:
 11435 4a93 4889C3   		movq	%rax, %rbx
  41:TestTestMacros.cpp **** {
 11436              		.loc 6 41 0
 11437 4a96 488B45E8 		movq	-24(%rbp), %rax
 11438 4a9a 4889C7   		movq	%rax, %rdi
 11439 4a9d E8000000 		call	_ZdlPv@PLT
 11439      00
 11440 4aa2 4889D8   		movq	%rbx, %rax
 11441 4aa5 4889C7   		movq	%rax, %rdi
 11442              	.LEHB287:
 11443 4aa8 E8000000 		call	_Unwind_Resume@PLT
 11443      00
 11444              	.LEHE287:
 11445              	.L596:
 11446 4aad 4883C418 		addq	$24, %rsp
 11447 4ab1 5B       		popq	%rbx
 11448 4ab2 5D       		popq	%rbp
 11449              		.cfi_def_cfa 7, 8
 11450 4ab3 C3       		ret
 11451              		.cfi_endproc
 11452              	.LFE1389:
 11453              		.section	.gcc_except_table
 11454              	.LLSDA1389:
 11455 07fc FF       		.byte	0xff
 11456 07fd FF       		.byte	0xff
 11457 07fe 01       		.byte	0x1
 11458 07ff 08       		.uleb128 .LLSDACSE1389-.LLSDACSB1389
 11459              	.LLSDACSB1389:
 11460 0800 14       		.uleb128 .LEHB286-.LFB1389
 11461 0801 05       		.uleb128 .LEHE286-.LEHB286
 11462 0802 27       		.uleb128 .L595-.LFB1389
 11463 0803 00       		.uleb128 0
 11464 0804 3C       		.uleb128 .LEHB287-.LFB1389
 11465 0805 05       		.uleb128 .LEHE287-.LEHB287
 11466 0806 00       		.uleb128 0
 11467 0807 00       		.uleb128 0
 11468              	.LLSDACSE1389:
 11469              		.text
 11471              		.section	.data.rel.ro.local
 11472              		.align 8
 11475              	_ZTVN12_GLOBAL__N_132TestThrowingThingieDummyTestNameE:
 11476 0258 00000000 		.quad	0
 11476      00000000 
 11477 0260 00000000 		.quad	_ZTIN12_GLOBAL__N_132TestThrowingThingieDummyTestNameE
 11477      00000000 
 11478 0268 00000000 		.quad	_ZN12_GLOBAL__N_132TestThrowingThingieDummyTestNameD1Ev
 11478      00000000 
 11479 0270 00000000 		.quad	_ZN12_GLOBAL__N_132TestThrowingThingieDummyTestNameD0Ev
 11479      00000000 
 11480 0278 00000000 		.quad	_ZNK12_GLOBAL__N_132TestThrowingThingieDummyTestName7RunImplEv
 11480      00000000 
 11481              		.text
 11482              		.align 2
 11484              	_ZN12_GLOBAL__N_132TestThrowingThingieDummyTestNameD2Ev:
 11485              	.LFB1391:
  37:TestTestMacros.cpp **** {
 11486              		.loc 6 37 0 is_stmt 1
 11487              		.cfi_startproc
 11488 4ab4 55       		pushq	%rbp
 11489              		.cfi_def_cfa_offset 16
 11490              		.cfi_offset 6, -16
 11491 4ab5 4889E5   		movq	%rsp, %rbp
 11492              		.cfi_def_cfa_register 6
 11493 4ab8 4883EC10 		subq	$16, %rsp
 11494 4abc 48897DF8 		movq	%rdi, -8(%rbp)
 11495              	.LBB175:
  37:TestTestMacros.cpp **** {
 11496              		.loc 6 37 0
 11497 4ac0 488D1500 		leaq	16+_ZTVN12_GLOBAL__N_132TestThrowingThingieDummyTestNameE(%rip), %rdx
 11497      000000
 11498 4ac7 488B45F8 		movq	-8(%rbp), %rax
 11499 4acb 488910   		movq	%rdx, (%rax)
 11500 4ace 488B45F8 		movq	-8(%rbp), %rax
 11501 4ad2 4889C7   		movq	%rax, %rdi
 11502 4ad5 E8000000 		call	_ZN8UnitTest4TestD2Ev@PLT
 11502      00
 11503              	.LBE175:
 11504 4ada 90       		nop
 11505 4adb C9       		leave
 11506              		.cfi_def_cfa 7, 8
 11507 4adc C3       		ret
 11508              		.cfi_endproc
 11509              	.LFE1391:
 11511              		.set	_ZN12_GLOBAL__N_132TestThrowingThingieDummyTestNameD1Ev,_ZN12_GLOBAL__N_132TestThrowingThingi
 11512 4add 90       		.align 2
 11514              	_ZN12_GLOBAL__N_132TestThrowingThingieDummyTestNameD0Ev:
 11515              	.LFB1393:
  37:TestTestMacros.cpp **** {
 11516              		.loc 6 37 0
 11517              		.cfi_startproc
 11518              		.cfi_personality 0x9b,DW.ref.__gxx_personality_v0
 11519              		.cfi_lsda 0x1b,.LLSDA1393
 11520 4ade 55       		pushq	%rbp
 11521              		.cfi_def_cfa_offset 16
 11522              		.cfi_offset 6, -16
 11523 4adf 4889E5   		movq	%rsp, %rbp
 11524              		.cfi_def_cfa_register 6
 11525 4ae2 53       		pushq	%rbx
 11526 4ae3 4883EC18 		subq	$24, %rsp
 11527              		.cfi_offset 3, -24
 11528 4ae7 48897DE8 		movq	%rdi, -24(%rbp)
  37:TestTestMacros.cpp **** {
 11529              		.loc 6 37 0
 11530 4aeb 488B45E8 		movq	-24(%rbp), %rax
 11531 4aef 4889C7   		movq	%rax, %rdi
 11532              	.LEHB288:
 11533 4af2 E8BDFFFF 		call	_ZN12_GLOBAL__N_132TestThrowingThingieDummyTestNameD1Ev
 11533      FF
 11534              	.LEHE288:
  37:TestTestMacros.cpp **** {
 11535              		.loc 6 37 0 is_stmt 0 discriminator 2
 11536 4af7 488B45E8 		movq	-24(%rbp), %rax
 11537 4afb 4889C7   		movq	%rax, %rdi
 11538 4afe E8000000 		call	_ZdlPv@PLT
 11538      00
 11539 4b03 EB1A     		jmp	.L601
 11540              	.L600:
 11541 4b05 4889C3   		movq	%rax, %rbx
  37:TestTestMacros.cpp **** {
 11542              		.loc 6 37 0
 11543 4b08 488B45E8 		movq	-24(%rbp), %rax
 11544 4b0c 4889C7   		movq	%rax, %rdi
 11545 4b0f E8000000 		call	_ZdlPv@PLT
 11545      00
 11546 4b14 4889D8   		movq	%rbx, %rax
 11547 4b17 4889C7   		movq	%rax, %rdi
 11548              	.LEHB289:
 11549 4b1a E8000000 		call	_Unwind_Resume@PLT
 11549      00
 11550              	.LEHE289:
 11551              	.L601:
 11552 4b1f 4883C418 		addq	$24, %rsp
 11553 4b23 5B       		popq	%rbx
 11554 4b24 5D       		popq	%rbp
 11555              		.cfi_def_cfa 7, 8
 11556 4b25 C3       		ret
 11557              		.cfi_endproc
 11558              	.LFE1393:
 11559              		.section	.gcc_except_table
 11560              	.LLSDA1393:
 11561 0808 FF       		.byte	0xff
 11562 0809 FF       		.byte	0xff
 11563 080a 01       		.byte	0x1
 11564 080b 08       		.uleb128 .LLSDACSE1393-.LLSDACSB1393
 11565              	.LLSDACSB1393:
 11566 080c 14       		.uleb128 .LEHB288-.LFB1393
 11567 080d 05       		.uleb128 .LEHE288-.LEHB288
 11568 080e 27       		.uleb128 .L600-.LFB1393
 11569 080f 00       		.uleb128 0
 11570 0810 3C       		.uleb128 .LEHB289-.LFB1393
 11571 0811 05       		.uleb128 .LEHE289-.LEHB289
 11572 0812 00       		.uleb128 0
 11573 0813 00       		.uleb128 0
 11574              	.LLSDACSE1393:
 11575              		.text
 11577              		.section	.data.rel.ro.local
 11578              		.align 8
 11581              	_ZTVN12_GLOBAL__N_138TestTestsAreAddedToTheListThroughMacroE:
 11582 0280 00000000 		.quad	0
 11582      00000000 
 11583 0288 00000000 		.quad	_ZTIN12_GLOBAL__N_138TestTestsAreAddedToTheListThroughMacroE
 11583      00000000 
 11584 0290 00000000 		.quad	_ZN12_GLOBAL__N_138TestTestsAreAddedToTheListThroughMacroD1Ev
 11584      00000000 
 11585 0298 00000000 		.quad	_ZN12_GLOBAL__N_138TestTestsAreAddedToTheListThroughMacroD0Ev
 11585      00000000 
 11586 02a0 00000000 		.quad	_ZNK12_GLOBAL__N_138TestTestsAreAddedToTheListThroughMacro7RunImplEv
 11586      00000000 
 11587              		.text
 11588              		.align 2
 11590              	_ZN12_GLOBAL__N_138TestTestsAreAddedToTheListThroughMacroD2Ev:
 11591              	.LFB1395:
  19:TestTestMacros.cpp **** {
 11592              		.loc 6 19 0 is_stmt 1
 11593              		.cfi_startproc
 11594 4b26 55       		pushq	%rbp
 11595              		.cfi_def_cfa_offset 16
 11596              		.cfi_offset 6, -16
 11597 4b27 4889E5   		movq	%rsp, %rbp
 11598              		.cfi_def_cfa_register 6
 11599 4b2a 4883EC10 		subq	$16, %rsp
 11600 4b2e 48897DF8 		movq	%rdi, -8(%rbp)
 11601              	.LBB176:
  19:TestTestMacros.cpp **** {
 11602              		.loc 6 19 0
 11603 4b32 488D1500 		leaq	16+_ZTVN12_GLOBAL__N_138TestTestsAreAddedToTheListThroughMacroE(%rip), %rdx
 11603      000000
 11604 4b39 488B45F8 		movq	-8(%rbp), %rax
 11605 4b3d 488910   		movq	%rdx, (%rax)
 11606 4b40 488B45F8 		movq	-8(%rbp), %rax
 11607 4b44 4889C7   		movq	%rax, %rdi
 11608 4b47 E8000000 		call	_ZN8UnitTest4TestD2Ev@PLT
 11608      00
 11609              	.LBE176:
 11610 4b4c 90       		nop
 11611 4b4d C9       		leave
 11612              		.cfi_def_cfa 7, 8
 11613 4b4e C3       		ret
 11614              		.cfi_endproc
 11615              	.LFE1395:
 11617              		.set	_ZN12_GLOBAL__N_138TestTestsAreAddedToTheListThroughMacroD1Ev,_ZN12_GLOBAL__N_138TestTestsAre
 11618 4b4f 90       		.align 2
 11620              	_ZN12_GLOBAL__N_138TestTestsAreAddedToTheListThroughMacroD0Ev:
 11621              	.LFB1397:
  19:TestTestMacros.cpp **** {
 11622              		.loc 6 19 0
 11623              		.cfi_startproc
 11624              		.cfi_personality 0x9b,DW.ref.__gxx_personality_v0
 11625              		.cfi_lsda 0x1b,.LLSDA1397
 11626 4b50 55       		pushq	%rbp
 11627              		.cfi_def_cfa_offset 16
 11628              		.cfi_offset 6, -16
 11629 4b51 4889E5   		movq	%rsp, %rbp
 11630              		.cfi_def_cfa_register 6
 11631 4b54 53       		pushq	%rbx
 11632 4b55 4883EC18 		subq	$24, %rsp
 11633              		.cfi_offset 3, -24
 11634 4b59 48897DE8 		movq	%rdi, -24(%rbp)
  19:TestTestMacros.cpp **** {
 11635              		.loc 6 19 0
 11636 4b5d 488B45E8 		movq	-24(%rbp), %rax
 11637 4b61 4889C7   		movq	%rax, %rdi
 11638              	.LEHB290:
 11639 4b64 E8BDFFFF 		call	_ZN12_GLOBAL__N_138TestTestsAreAddedToTheListThroughMacroD1Ev
 11639      FF
 11640              	.LEHE290:
  19:TestTestMacros.cpp **** {
 11641              		.loc 6 19 0 is_stmt 0 discriminator 2
 11642 4b69 488B45E8 		movq	-24(%rbp), %rax
 11643 4b6d 4889C7   		movq	%rax, %rdi
 11644 4b70 E8000000 		call	_ZdlPv@PLT
 11644      00
 11645 4b75 EB1A     		jmp	.L606
 11646              	.L605:
 11647 4b77 4889C3   		movq	%rax, %rbx
  19:TestTestMacros.cpp **** {
 11648              		.loc 6 19 0
 11649 4b7a 488B45E8 		movq	-24(%rbp), %rax
 11650 4b7e 4889C7   		movq	%rax, %rdi
 11651 4b81 E8000000 		call	_ZdlPv@PLT
 11651      00
 11652 4b86 4889D8   		movq	%rbx, %rax
 11653 4b89 4889C7   		movq	%rax, %rdi
 11654              	.LEHB291:
 11655 4b8c E8000000 		call	_Unwind_Resume@PLT
 11655      00
 11656              	.LEHE291:
 11657              	.L606:
 11658 4b91 4883C418 		addq	$24, %rsp
 11659 4b95 5B       		popq	%rbx
 11660 4b96 5D       		popq	%rbp
 11661              		.cfi_def_cfa 7, 8
 11662 4b97 C3       		ret
 11663              		.cfi_endproc
 11664              	.LFE1397:
 11665              		.section	.gcc_except_table
 11666              	.LLSDA1397:
 11667 0814 FF       		.byte	0xff
 11668 0815 FF       		.byte	0xff
 11669 0816 01       		.byte	0x1
 11670 0817 08       		.uleb128 .LLSDACSE1397-.LLSDACSB1397
 11671              	.LLSDACSB1397:
 11672 0818 14       		.uleb128 .LEHB290-.LFB1397
 11673 0819 05       		.uleb128 .LEHE290-.LEHB290
 11674 081a 27       		.uleb128 .L605-.LFB1397
 11675 081b 00       		.uleb128 0
 11676 081c 3C       		.uleb128 .LEHB291-.LFB1397
 11677 081d 05       		.uleb128 .LEHE291-.LEHB291
 11678 081e 00       		.uleb128 0
 11679 081f 00       		.uleb128 0
 11680              	.LLSDACSE1397:
 11681              		.text
 11683              		.section	.data.rel.ro.local
 11684              		.align 8
 11687              	_ZTVN12_GLOBAL__N_113TestDummyTestE:
 11688 02a8 00000000 		.quad	0
 11688      00000000 
 11689 02b0 00000000 		.quad	_ZTIN12_GLOBAL__N_113TestDummyTestE
 11689      00000000 
 11690 02b8 00000000 		.quad	_ZN12_GLOBAL__N_113TestDummyTestD1Ev
 11690      00000000 
 11691 02c0 00000000 		.quad	_ZN12_GLOBAL__N_113TestDummyTestD0Ev
 11691      00000000 
 11692 02c8 00000000 		.quad	_ZNK12_GLOBAL__N_113TestDummyTest7RunImplEv
 11692      00000000 
 11693              		.text
 11694              		.align 2
 11696              	_ZN12_GLOBAL__N_113TestDummyTestD2Ev:
 11697              	.LFB1399:
  15:TestTestMacros.cpp **** {
 11698              		.loc 6 15 0 is_stmt 1
 11699              		.cfi_startproc
 11700 4b98 55       		pushq	%rbp
 11701              		.cfi_def_cfa_offset 16
 11702              		.cfi_offset 6, -16
 11703 4b99 4889E5   		movq	%rsp, %rbp
 11704              		.cfi_def_cfa_register 6
 11705 4b9c 4883EC10 		subq	$16, %rsp
 11706 4ba0 48897DF8 		movq	%rdi, -8(%rbp)
 11707              	.LBB177:
  15:TestTestMacros.cpp **** {
 11708              		.loc 6 15 0
 11709 4ba4 488D1500 		leaq	16+_ZTVN12_GLOBAL__N_113TestDummyTestE(%rip), %rdx
 11709      000000
 11710 4bab 488B45F8 		movq	-8(%rbp), %rax
 11711 4baf 488910   		movq	%rdx, (%rax)
 11712 4bb2 488B45F8 		movq	-8(%rbp), %rax
 11713 4bb6 4889C7   		movq	%rax, %rdi
 11714 4bb9 E8000000 		call	_ZN8UnitTest4TestD2Ev@PLT
 11714      00
 11715              	.LBE177:
 11716 4bbe 90       		nop
 11717 4bbf C9       		leave
 11718              		.cfi_def_cfa 7, 8
 11719 4bc0 C3       		ret
 11720              		.cfi_endproc
 11721              	.LFE1399:
 11723              		.set	_ZN12_GLOBAL__N_113TestDummyTestD1Ev,_ZN12_GLOBAL__N_113TestDummyTestD2Ev
 11724 4bc1 90       		.align 2
 11726              	_ZN12_GLOBAL__N_113TestDummyTestD0Ev:
 11727              	.LFB1401:
  15:TestTestMacros.cpp **** {
 11728              		.loc 6 15 0
 11729              		.cfi_startproc
 11730              		.cfi_personality 0x9b,DW.ref.__gxx_personality_v0
 11731              		.cfi_lsda 0x1b,.LLSDA1401
 11732 4bc2 55       		pushq	%rbp
 11733              		.cfi_def_cfa_offset 16
 11734              		.cfi_offset 6, -16
 11735 4bc3 4889E5   		movq	%rsp, %rbp
 11736              		.cfi_def_cfa_register 6
 11737 4bc6 53       		pushq	%rbx
 11738 4bc7 4883EC18 		subq	$24, %rsp
 11739              		.cfi_offset 3, -24
 11740 4bcb 48897DE8 		movq	%rdi, -24(%rbp)
  15:TestTestMacros.cpp **** {
 11741              		.loc 6 15 0
 11742 4bcf 488B45E8 		movq	-24(%rbp), %rax
 11743 4bd3 4889C7   		movq	%rax, %rdi
 11744              	.LEHB292:
 11745 4bd6 E8BDFFFF 		call	_ZN12_GLOBAL__N_113TestDummyTestD1Ev
 11745      FF
 11746              	.LEHE292:
  15:TestTestMacros.cpp **** {
 11747              		.loc 6 15 0 is_stmt 0 discriminator 2
 11748 4bdb 488B45E8 		movq	-24(%rbp), %rax
 11749 4bdf 4889C7   		movq	%rax, %rdi
 11750 4be2 E8000000 		call	_ZdlPv@PLT
 11750      00
 11751 4be7 EB1A     		jmp	.L611
 11752              	.L610:
 11753 4be9 4889C3   		movq	%rax, %rbx
  15:TestTestMacros.cpp **** {
 11754              		.loc 6 15 0
 11755 4bec 488B45E8 		movq	-24(%rbp), %rax
 11756 4bf0 4889C7   		movq	%rax, %rdi
 11757 4bf3 E8000000 		call	_ZdlPv@PLT
 11757      00
 11758 4bf8 4889D8   		movq	%rbx, %rax
 11759 4bfb 4889C7   		movq	%rax, %rdi
 11760              	.LEHB293:
 11761 4bfe E8000000 		call	_Unwind_Resume@PLT
 11761      00
 11762              	.LEHE293:
 11763              	.L611:
 11764 4c03 4883C418 		addq	$24, %rsp
 11765 4c07 5B       		popq	%rbx
 11766 4c08 5D       		popq	%rbp
 11767              		.cfi_def_cfa 7, 8
 11768 4c09 C3       		ret
 11769              		.cfi_endproc
 11770              	.LFE1401:
 11771              		.section	.gcc_except_table
 11772              	.LLSDA1401:
 11773 0820 FF       		.byte	0xff
 11774 0821 FF       		.byte	0xff
 11775 0822 01       		.byte	0x1
 11776 0823 08       		.uleb128 .LLSDACSE1401-.LLSDACSB1401
 11777              	.LLSDACSB1401:
 11778 0824 14       		.uleb128 .LEHB292-.LFB1401
 11779 0825 05       		.uleb128 .LEHE292-.LEHB292
 11780 0826 27       		.uleb128 .L610-.LFB1401
 11781 0827 00       		.uleb128 0
 11782 0828 3C       		.uleb128 .LEHB293-.LFB1401
 11783 0829 05       		.uleb128 .LEHE293-.LEHB293
 11784 082a 00       		.uleb128 0
 11785 082b 00       		.uleb128 0
 11786              	.LLSDACSE1401:
 11787              		.text
 11789              		.weak	_ZTV17RecordingReporter
 11790              		.section	.data.rel.ro.local._ZTV17RecordingReporter,"awG",@progbits,_ZTV17RecordingReporter,comdat
 11791              		.align 8
 11794              	_ZTV17RecordingReporter:
 11795 0000 00000000 		.quad	0
 11795      00000000 
 11796 0008 00000000 		.quad	_ZTI17RecordingReporter
 11796      00000000 
 11797 0010 00000000 		.quad	_ZN17RecordingReporterD1Ev
 11797      00000000 
 11798 0018 00000000 		.quad	_ZN17RecordingReporterD0Ev
 11798      00000000 
 11799 0020 00000000 		.quad	_ZN17RecordingReporter15ReportTestStartERKN8UnitTest11TestDetailsE
 11799      00000000 
 11800 0028 00000000 		.quad	_ZN17RecordingReporter13ReportFailureERKN8UnitTest11TestDetailsEPKc
 11800      00000000 
 11801 0030 00000000 		.quad	_ZN17RecordingReporter16ReportTestFinishERKN8UnitTest11TestDetailsEf
 11801      00000000 
 11802 0038 00000000 		.quad	_ZN17RecordingReporter13ReportSummaryEiiif
 11802      00000000 
 11803              		.section	.text._ZN17RecordingReporterD2Ev,"axG",@progbits,_ZN17RecordingReporterD5Ev,comdat
 11804              		.align 2
 11805              		.weak	_ZN17RecordingReporterD2Ev
 11807              	_ZN17RecordingReporterD2Ev:
 11808              	.LFB1403:
   9:RecordingReporter.h **** {
 11809              		.loc 4 9 0 is_stmt 1
 11810              		.cfi_startproc
 11811 0000 55       		pushq	%rbp
 11812              		.cfi_def_cfa_offset 16
 11813              		.cfi_offset 6, -16
 11814 0001 4889E5   		movq	%rsp, %rbp
 11815              		.cfi_def_cfa_register 6
 11816 0004 4883EC10 		subq	$16, %rsp
 11817 0008 48897DF8 		movq	%rdi, -8(%rbp)
 11818              	.LBB178:
   9:RecordingReporter.h **** {
 11819              		.loc 4 9 0
 11820 000c 488D1500 		leaq	16+_ZTV17RecordingReporter(%rip), %rdx
 11820      000000
 11821 0013 488B45F8 		movq	-8(%rbp), %rax
 11822 0017 488910   		movq	%rdx, (%rax)
 11823 001a 488B45F8 		movq	-8(%rbp), %rax
 11824 001e 4889C7   		movq	%rax, %rdi
 11825 0021 E8000000 		call	_ZN8UnitTest12TestReporterD2Ev@PLT
 11825      00
 11826              	.LBE178:
 11827 0026 90       		nop
 11828 0027 C9       		leave
 11829              		.cfi_def_cfa 7, 8
 11830 0028 C3       		ret
 11831              		.cfi_endproc
 11832              	.LFE1403:
 11834              		.weak	_ZN17RecordingReporterD1Ev
 11835              		.set	_ZN17RecordingReporterD1Ev,_ZN17RecordingReporterD2Ev
 11836              		.section	.text._ZN17RecordingReporterD0Ev,"axG",@progbits,_ZN17RecordingReporterD5Ev,comdat
 11837              		.align 2
 11838              		.weak	_ZN17RecordingReporterD0Ev
 11840              	_ZN17RecordingReporterD0Ev:
 11841              	.LFB1405:
   9:RecordingReporter.h **** {
 11842              		.loc 4 9 0
 11843              		.cfi_startproc
 11844              		.cfi_personality 0x9b,DW.ref.__gxx_personality_v0
 11845              		.cfi_lsda 0x1b,.LLSDA1405
 11846 0000 55       		pushq	%rbp
 11847              		.cfi_def_cfa_offset 16
 11848              		.cfi_offset 6, -16
 11849 0001 4889E5   		movq	%rsp, %rbp
 11850              		.cfi_def_cfa_register 6
 11851 0004 53       		pushq	%rbx
 11852 0005 4883EC18 		subq	$24, %rsp
 11853              		.cfi_offset 3, -24
 11854 0009 48897DE8 		movq	%rdi, -24(%rbp)
   9:RecordingReporter.h **** {
 11855              		.loc 4 9 0
 11856 000d 488B45E8 		movq	-24(%rbp), %rax
 11857 0011 4889C7   		movq	%rax, %rdi
 11858              	.LEHB294:
 11859 0014 E8000000 		call	_ZN17RecordingReporterD1Ev
 11859      00
 11860              	.LEHE294:
   9:RecordingReporter.h **** {
 11861              		.loc 4 9 0 is_stmt 0 discriminator 2
 11862 0019 488B45E8 		movq	-24(%rbp), %rax
 11863 001d 4889C7   		movq	%rax, %rdi
 11864 0020 E8000000 		call	_ZdlPv@PLT
 11864      00
 11865 0025 EB1A     		jmp	.L616
 11866              	.L615:
 11867 0027 4889C3   		movq	%rax, %rbx
   9:RecordingReporter.h **** {
 11868              		.loc 4 9 0
 11869 002a 488B45E8 		movq	-24(%rbp), %rax
 11870 002e 4889C7   		movq	%rax, %rdi
 11871 0031 E8000000 		call	_ZdlPv@PLT
 11871      00
 11872 0036 4889D8   		movq	%rbx, %rax
 11873 0039 4889C7   		movq	%rax, %rdi
 11874              	.LEHB295:
 11875 003c E8000000 		call	_Unwind_Resume@PLT
 11875      00
 11876              	.LEHE295:
 11877              	.L616:
 11878 0041 4883C418 		addq	$24, %rsp
 11879 0045 5B       		popq	%rbx
 11880 0046 5D       		popq	%rbp
 11881              		.cfi_def_cfa 7, 8
 11882 0047 C3       		ret
 11883              		.cfi_endproc
 11884              	.LFE1405:
 11885              		.section	.gcc_except_table
 11886              	.LLSDA1405:
 11887 082c FF       		.byte	0xff
 11888 082d FF       		.byte	0xff
 11889 082e 01       		.byte	0x1
 11890 082f 08       		.uleb128 .LLSDACSE1405-.LLSDACSB1405
 11891              	.LLSDACSB1405:
 11892 0830 14       		.uleb128 .LEHB294-.LFB1405
 11893 0831 05       		.uleb128 .LEHE294-.LEHB294
 11894 0832 27       		.uleb128 .L615-.LFB1405
 11895 0833 00       		.uleb128 0
 11896 0834 3C       		.uleb128 .LEHB295-.LFB1405
 11897 0835 05       		.uleb128 .LEHE295-.LEHB295
 11898 0836 00       		.uleb128 0
 11899 0837 00       		.uleb128 0
 11900              	.LLSDACSE1405:
 11901              		.section	.text._ZN17RecordingReporterD0Ev,"axG",@progbits,_ZN17RecordingReporterD5Ev,comdat
 11903              		.weak	_ZTVN8UnitTest15MemoryOutStreamE
 11904              		.section	.data.rel.ro.local._ZTVN8UnitTest15MemoryOutStreamE,"awG",@progbits,_ZTVN8UnitTest15Memor
 11905              		.align 8
 11908              	_ZTVN8UnitTest15MemoryOutStreamE:
 11909 0000 90000000 		.quad	144
 11909      00000000 
 11910 0008 00000000 		.quad	0
 11910      00000000 
 11911 0010 00000000 		.quad	_ZTIN8UnitTest15MemoryOutStreamE
 11911      00000000 
 11912 0018 00000000 		.quad	_ZN8UnitTest15MemoryOutStreamD1Ev
 11912      00000000 
 11913 0020 00000000 		.quad	_ZN8UnitTest15MemoryOutStreamD0Ev
 11913      00000000 
 11914 0028 70FFFFFF 		.quad	-144
 11914      FFFFFFFF 
 11915 0030 70FFFFFF 		.quad	-144
 11915      FFFFFFFF 
 11916 0038 00000000 		.quad	_ZTIN8UnitTest15MemoryOutStreamE
 11916      00000000 
 11917 0040 00000000 		.quad	_ZTv0_n24_N8UnitTest15MemoryOutStreamD1Ev
 11917      00000000 
 11918 0048 00000000 		.quad	_ZTv0_n24_N8UnitTest15MemoryOutStreamD0Ev
 11918      00000000 
 11919              		.weak	_ZTTN8UnitTest15MemoryOutStreamE
 11920              		.section	.data.rel.ro.local._ZTTN8UnitTest15MemoryOutStreamE,"awG",@progbits,_ZTVN8UnitTest15Memor
 11921              		.align 8
 11924              	_ZTTN8UnitTest15MemoryOutStreamE:
 11925 0000 00000000 		.quad	_ZTVN8UnitTest15MemoryOutStreamE+24
 11925      00000000 
 11926 0008 00000000 		.quad	_ZTCN8UnitTest15MemoryOutStreamE0_NSt7__cxx1119basic_ostringstreamIcSt11char_traitsIcESaIcEE
 11926      00000000 
 11927 0010 00000000 		.quad	_ZTCN8UnitTest15MemoryOutStreamE0_So+24
 11927      00000000 
 11928 0018 00000000 		.quad	_ZTCN8UnitTest15MemoryOutStreamE0_So+64
 11928      00000000 
 11929 0020 00000000 		.quad	_ZTCN8UnitTest15MemoryOutStreamE0_NSt7__cxx1119basic_ostringstreamIcSt11char_traitsIcESaIcEE
 11929      00000000 
 11930 0028 00000000 		.quad	_ZTVN8UnitTest15MemoryOutStreamE+64
 11930      00000000 
 11931              		.hidden	_ZTCN8UnitTest15MemoryOutStreamE0_NSt7__cxx1119basic_ostringstreamIcSt11char_traitsIcESaIc
 11932              		.weak	_ZTCN8UnitTest15MemoryOutStreamE0_NSt7__cxx1119basic_ostringstreamIcSt11char_traitsIcESaIcEE
 11933              		.section	.data.rel.ro._ZTCN8UnitTest15MemoryOutStreamE0_NSt7__cxx1119basic_ostringstreamIcSt11char
 11934              		.align 8
 11937              	_ZTCN8UnitTest15MemoryOutStreamE0_NSt7__cxx1119basic_ostringstreamIcSt11char_traitsIcESaIcEEE:
 11938 0000 90000000 		.quad	144
 11938      00000000 
 11939 0008 00000000 		.quad	0
 11939      00000000 
 11940 0010 00000000 		.quad	_ZTINSt7__cxx1119basic_ostringstreamIcSt11char_traitsIcESaIcEEE
 11940      00000000 
 11941 0018 00000000 		.quad	0
 11941      00000000 
 11942 0020 00000000 		.quad	0
 11942      00000000 
 11943 0028 70FFFFFF 		.quad	-144
 11943      FFFFFFFF 
 11944 0030 70FFFFFF 		.quad	-144
 11944      FFFFFFFF 
 11945 0038 00000000 		.quad	_ZTINSt7__cxx1119basic_ostringstreamIcSt11char_traitsIcESaIcEEE
 11945      00000000 
 11946 0040 00000000 		.quad	0
 11946      00000000 
 11947 0048 00000000 		.quad	0
 11947      00000000 
 11948              		.hidden	_ZTCN8UnitTest15MemoryOutStreamE0_So
 11949              		.weak	_ZTCN8UnitTest15MemoryOutStreamE0_So
 11950              		.section	.data.rel.ro._ZTCN8UnitTest15MemoryOutStreamE0_So,"awG",@progbits,_ZTVN8UnitTest15MemoryO
 11951              		.align 8
 11954              	_ZTCN8UnitTest15MemoryOutStreamE0_So:
 11955 0000 90000000 		.quad	144
 11955      00000000 
 11956 0008 00000000 		.quad	0
 11956      00000000 
 11957 0010 00000000 		.quad	_ZTISo
 11957      00000000 
 11958 0018 00000000 		.quad	0
 11958      00000000 
 11959 0020 00000000 		.quad	0
 11959      00000000 
 11960 0028 70FFFFFF 		.quad	-144
 11960      FFFFFFFF 
 11961 0030 70FFFFFF 		.quad	-144
 11961      FFFFFFFF 
 11962 0038 00000000 		.quad	_ZTISo
 11962      00000000 
 11963 0040 00000000 		.quad	0
 11963      00000000 
 11964 0048 00000000 		.quad	0
 11964      00000000 
 11965              		.section	.text._ZN8UnitTest15MemoryOutStreamD1Ev,"axG",@progbits,_ZN8UnitTest15MemoryOutStreamD1Ev
 11966              		.align 2
 11967              		.weak	_ZN8UnitTest15MemoryOutStreamD1Ev
 11969              	_ZN8UnitTest15MemoryOutStreamD1Ev:
 11970              	.LFB1408:
  13:../MemoryOutStream.h **** {
 11971              		.loc 2 13 0 is_stmt 1
 11972              		.cfi_startproc
 11973              		.cfi_personality 0x9b,DW.ref.__gxx_personality_v0
 11974              		.cfi_lsda 0x1b,.LLSDA1408
 11975 0000 55       		pushq	%rbp
 11976              		.cfi_def_cfa_offset 16
 11977              		.cfi_offset 6, -16
 11978 0001 4889E5   		movq	%rsp, %rbp
 11979              		.cfi_def_cfa_register 6
 11980 0004 53       		pushq	%rbx
 11981 0005 4883EC18 		subq	$24, %rsp
 11982              		.cfi_offset 3, -24
 11983 0009 48897DE8 		movq	%rdi, -24(%rbp)
 11984              	.LBB179:
  13:../MemoryOutStream.h **** {
 11985              		.loc 2 13 0
 11986 000d 488D1500 		leaq	24+_ZTVN8UnitTest15MemoryOutStreamE(%rip), %rdx
 11986      000000
 11987 0014 488B45E8 		movq	-24(%rbp), %rax
 11988 0018 488910   		movq	%rdx, (%rax)
 11989 001b 488B45E8 		movq	-24(%rbp), %rax
 11990 001f 488D9090 		leaq	144(%rax), %rdx
 11990      000000
 11991 0026 488D0500 		leaq	64+_ZTVN8UnitTest15MemoryOutStreamE(%rip), %rax
 11991      000000
 11992 002d 488902   		movq	%rax, (%rdx)
 11993 0030 488B45E8 		movq	-24(%rbp), %rax
 11994 0034 4883C070 		addq	$112, %rax
 11995 0038 4889C7   		movq	%rax, %rdi
 11996              	.LEHB296:
 11997 003b E8000000 		call	_ZNSt7__cxx1112basic_stringIcSt11char_traitsIcESaIcEED1Ev@PLT
 11997      00
 11998              	.LEHE296:
  13:../MemoryOutStream.h **** {
 11999              		.loc 2 13 0 is_stmt 0 discriminator 2
 12000 0040 488B45E8 		movq	-24(%rbp), %rax
 12001 0044 488D1500 		leaq	8+_ZTTN8UnitTest15MemoryOutStreamE(%rip), %rdx
 12001      000000
 12002 004b 4889D6   		movq	%rdx, %rsi
 12003 004e 4889C7   		movq	%rax, %rdi
 12004              	.LEHB297:
 12005 0051 E8000000 		call	_ZNSt7__cxx1119basic_ostringstreamIcSt11char_traitsIcESaIcEED2Ev@PLT
 12005      00
 12006              	.LEHE297:
  13:../MemoryOutStream.h **** {
 12007              		.loc 2 13 0 discriminator 4
 12008 0056 488B45E8 		movq	-24(%rbp), %rax
 12009 005a 48059000 		addq	$144, %rax
 12009      0000
 12010 0060 4889C7   		movq	%rax, %rdi
 12011              	.LEHB298:
 12012 0063 E8000000 		call	_ZNSt9basic_iosIcSt11char_traitsIcEED2Ev@PLT
 12012      00
 12013              	.LEHE298:
 12014              	.LBE179:
 12015 0068 EB3B     		jmp	.L622
 12016              	.L620:
 12017 006a 4889C3   		movq	%rax, %rbx
 12018              	.LBB180:
  13:../MemoryOutStream.h **** {
 12019              		.loc 2 13 0
 12020 006d 488B45E8 		movq	-24(%rbp), %rax
 12021 0071 488D1500 		leaq	8+_ZTTN8UnitTest15MemoryOutStreamE(%rip), %rdx
 12021      000000
 12022 0078 4889D6   		movq	%rdx, %rsi
 12023 007b 4889C7   		movq	%rax, %rdi
 12024 007e E8000000 		call	_ZNSt7__cxx1119basic_ostringstreamIcSt11char_traitsIcESaIcEED2Ev@PLT
 12024      00
 12025 0083 EB03     		jmp	.L619
 12026              	.L621:
 12027 0085 4889C3   		movq	%rax, %rbx
 12028              	.L619:
  13:../MemoryOutStream.h **** {
 12029              		.loc 2 13 0 discriminator 3
 12030 0088 488B45E8 		movq	-24(%rbp), %rax
 12031 008c 48059000 		addq	$144, %rax
 12031      0000
 12032 0092 4889C7   		movq	%rax, %rdi
 12033 0095 E8000000 		call	_ZNSt9basic_iosIcSt11char_traitsIcEED2Ev@PLT
 12033      00
 12034 009a 4889D8   		movq	%rbx, %rax
 12035 009d 4889C7   		movq	%rax, %rdi
 12036              	.LEHB299:
 12037 00a0 E8000000 		call	_Unwind_Resume@PLT
 12037      00
 12038              	.LEHE299:
 12039              	.L622:
 12040              	.LBE180:
  13:../MemoryOutStream.h **** {
 12041              		.loc 2 13 0
 12042 00a5 4883C418 		addq	$24, %rsp
 12043 00a9 5B       		popq	%rbx
 12044 00aa 5D       		popq	%rbp
 12045              		.cfi_def_cfa 7, 8
 12046 00ab C3       		ret
 12047              		.cfi_endproc
 12048              	.LFE1408:
 12049              		.section	.gcc_except_table
 12050              	.LLSDA1408:
 12051 0838 FF       		.byte	0xff
 12052 0839 FF       		.byte	0xff
 12053 083a 01       		.byte	0x1
 12054 083b 12       		.uleb128 .LLSDACSE1408-.LLSDACSB1408
 12055              	.LLSDACSB1408:
 12056 083c 3B       		.uleb128 .LEHB296-.LFB1408
 12057 083d 05       		.uleb128 .LEHE296-.LEHB296
 12058 083e 6A       		.uleb128 .L620-.LFB1408
 12059 083f 00       		.uleb128 0
 12060 0840 51       		.uleb128 .LEHB297-.LFB1408
 12061 0841 05       		.uleb128 .LEHE297-.LEHB297
 12062 0842 8501     		.uleb128 .L621-.LFB1408
 12063 0844 00       		.uleb128 0
 12064 0845 63       		.uleb128 .LEHB298-.LFB1408
 12065 0846 05       		.uleb128 .LEHE298-.LEHB298
 12066 0847 00       		.uleb128 0
 12067 0848 00       		.uleb128 0
 12068 0849 A001     		.uleb128 .LEHB299-.LFB1408
 12069 084b 05       		.uleb128 .LEHE299-.LEHB299
 12070 084c 00       		.uleb128 0
 12071 084d 00       		.uleb128 0
 12072              	.LLSDACSE1408:
 12073              		.section	.text._ZN8UnitTest15MemoryOutStreamD1Ev,"axG",@progbits,_ZN8UnitTest15MemoryOutStreamD1Ev
 12075              		.set	.LTHUNK0,_ZN8UnitTest15MemoryOutStreamD1Ev
 12076              		.weak	_ZTv0_n24_N8UnitTest15MemoryOutStreamD1Ev
 12078              	_ZTv0_n24_N8UnitTest15MemoryOutStreamD1Ev:
 12079              	.LFB1412:
  13:../MemoryOutStream.h **** {
 12080              		.loc 2 13 0 is_stmt 1
 12081              		.cfi_startproc
 12082 00ac 4C8B17   		movq	(%rdi), %r10
 12083 00af 49037AE8 		addq	-24(%r10), %rdi
 12084 00b3 E948FFFF 		jmp	.LTHUNK0
 12084      FF
 12085              		.cfi_endproc
 12086              	.LFE1412:
 12088              		.section	.text._ZN8UnitTest15MemoryOutStreamD0Ev,"axG",@progbits,_ZN8UnitTest15MemoryOutStreamD0Ev
 12089              		.align 2
 12090              		.weak	_ZN8UnitTest15MemoryOutStreamD0Ev
 12092              	_ZN8UnitTest15MemoryOutStreamD0Ev:
 12093              	.LFB1409:
  13:../MemoryOutStream.h **** {
 12094              		.loc 2 13 0
 12095              		.cfi_startproc
 12096              		.cfi_personality 0x9b,DW.ref.__gxx_personality_v0
 12097              		.cfi_lsda 0x1b,.LLSDA1409
 12098 0000 55       		pushq	%rbp
 12099              		.cfi_def_cfa_offset 16
 12100              		.cfi_offset 6, -16
 12101 0001 4889E5   		movq	%rsp, %rbp
 12102              		.cfi_def_cfa_register 6
 12103 0004 53       		pushq	%rbx
 12104 0005 4883EC18 		subq	$24, %rsp
 12105              		.cfi_offset 3, -24
 12106 0009 48897DE8 		movq	%rdi, -24(%rbp)
  13:../MemoryOutStream.h **** {
 12107              		.loc 2 13 0
 12108 000d 488B45E8 		movq	-24(%rbp), %rax
 12109 0011 4889C7   		movq	%rax, %rdi
 12110              	.LEHB300:
 12111 0014 E8000000 		call	_ZN8UnitTest15MemoryOutStreamD1Ev
 12111      00
 12112              	.LEHE300:
  13:../MemoryOutStream.h **** {
 12113              		.loc 2 13 0 is_stmt 0 discriminator 2
 12114 0019 488B45E8 		movq	-24(%rbp), %rax
 12115 001d 4889C7   		movq	%rax, %rdi
 12116 0020 E8000000 		call	_ZdlPv@PLT
 12116      00
 12117 0025 EB1A     		jmp	.L626
 12118              	.L625:
 12119 0027 4889C3   		movq	%rax, %rbx
  13:../MemoryOutStream.h **** {
 12120              		.loc 2 13 0
 12121 002a 488B45E8 		movq	-24(%rbp), %rax
 12122 002e 4889C7   		movq	%rax, %rdi
 12123 0031 E8000000 		call	_ZdlPv@PLT
 12123      00
 12124 0036 4889D8   		movq	%rbx, %rax
 12125 0039 4889C7   		movq	%rax, %rdi
 12126              	.LEHB301:
 12127 003c E8000000 		call	_Unwind_Resume@PLT
 12127      00
 12128              	.LEHE301:
 12129              	.L626:
 12130 0041 4883C418 		addq	$24, %rsp
 12131 0045 5B       		popq	%rbx
 12132 0046 5D       		popq	%rbp
 12133              		.cfi_def_cfa 7, 8
 12134 0047 C3       		ret
 12135              		.cfi_endproc
 12136              	.LFE1409:
 12137              		.section	.gcc_except_table
 12138              	.LLSDA1409:
 12139 084e FF       		.byte	0xff
 12140 084f FF       		.byte	0xff
 12141 0850 01       		.byte	0x1
 12142 0851 08       		.uleb128 .LLSDACSE1409-.LLSDACSB1409
 12143              	.LLSDACSB1409:
 12144 0852 14       		.uleb128 .LEHB300-.LFB1409
 12145 0853 05       		.uleb128 .LEHE300-.LEHB300
 12146 0854 27       		.uleb128 .L625-.LFB1409
 12147 0855 00       		.uleb128 0
 12148 0856 3C       		.uleb128 .LEHB301-.LFB1409
 12149 0857 05       		.uleb128 .LEHE301-.LEHB301
 12150 0858 00       		.uleb128 0
 12151 0859 00       		.uleb128 0
 12152              	.LLSDACSE1409:
 12153              		.section	.text._ZN8UnitTest15MemoryOutStreamD0Ev,"axG",@progbits,_ZN8UnitTest15MemoryOutStreamD0Ev
 12155              		.set	.LTHUNK1,_ZN8UnitTest15MemoryOutStreamD0Ev
 12156              		.weak	_ZTv0_n24_N8UnitTest15MemoryOutStreamD0Ev
 12158              	_ZTv0_n24_N8UnitTest15MemoryOutStreamD0Ev:
 12159              	.LFB1413:
  13:../MemoryOutStream.h **** {
 12160              		.loc 2 13 0 is_stmt 1
 12161              		.cfi_startproc
 12162 0048 4C8B17   		movq	(%rdi), %r10
 12163 004b 49037AE8 		addq	-24(%r10), %rdi
 12164 004f EBAF     		jmp	.LTHUNK1
 12165              		.cfi_endproc
 12166              	.LFE1413:
 12168              		.weak	_ZTI44TestCurrentTestDetailsContainCurrentTestInfo
 12169              		.section	.data.rel.ro._ZTI44TestCurrentTestDetailsContainCurrentTestInfo,"awG",@progbits,_ZTI44Tes
 12170              		.align 8
 12173              	_ZTI44TestCurrentTestDetailsContainCurrentTestInfo:
 12174 0000 00000000 		.quad	_ZTVN10__cxxabiv120__si_class_type_infoE+16
 12174      00000000 
 12175 0008 00000000 		.quad	_ZTS44TestCurrentTestDetailsContainCurrentTestInfo
 12175      00000000 
 12176 0010 00000000 		.quad	_ZTIN8UnitTest4TestE
 12176      00000000 
 12177              		.weak	_ZTS44TestCurrentTestDetailsContainCurrentTestInfo
 12178              		.section	.rodata._ZTS44TestCurrentTestDetailsContainCurrentTestInfo,"aG",@progbits,_ZTS44TestCurre
 12179              		.align 32
 12182              	_ZTS44TestCurrentTestDetailsContainCurrentTestInfo:
 12183 0000 34345465 		.string	"44TestCurrentTestDetailsContainCurrentTestInfo"
 12183      73744375 
 12183      7272656E 
 12183      74546573 
 12183      74446574 
 12184              		.weak	_ZTIN18SuiteSameTestSuite14TestDummyTest1E
 12185              		.section	.data.rel.ro._ZTIN18SuiteSameTestSuite14TestDummyTest1E,"awG",@progbits,_ZTIN18SuiteSameT
 12186              		.align 8
 12189              	_ZTIN18SuiteSameTestSuite14TestDummyTest1E:
 12190 0000 00000000 		.quad	_ZTVN10__cxxabiv120__si_class_type_infoE+16
 12190      00000000 
 12191 0008 00000000 		.quad	_ZTSN18SuiteSameTestSuite14TestDummyTest1E
 12191      00000000 
 12192 0010 00000000 		.quad	_ZTIN8UnitTest4TestE
 12192      00000000 
 12193              		.weak	_ZTSN18SuiteSameTestSuite14TestDummyTest1E
 12194              		.section	.rodata._ZTSN18SuiteSameTestSuite14TestDummyTest1E,"aG",@progbits,_ZTSN18SuiteSameTestSui
 12195              		.align 32
 12198              	_ZTSN18SuiteSameTestSuite14TestDummyTest1E:
 12199 0000 4E313853 		.string	"N18SuiteSameTestSuite14TestDummyTest1E"
 12199      75697465 
 12199      53616D65 
 12199      54657374 
 12199      53756974 
 12200              		.section	.rodata
 12201 0e83 00000000 		.align 32
 12201      00000000 
 12201      00000000 
 12201      00000000 
 12201      00000000 
 12204              	_ZTSN12_GLOBAL__N_147TestCorrectlyReportsFixturesWithCtorsThatAssertE:
 12205 0ea0 2A4E3132 		.string	"*N12_GLOBAL__N_147TestCorrectlyReportsFixturesWithCtorsThatAssertE"
 12205      5F474C4F 
 12205      42414C5F 
 12205      5F4E5F31 
 12205      34375465 
 12206              		.section	.data.rel.ro,"aw",@progbits
 12207              		.align 8
 12210              	_ZTIN12_GLOBAL__N_147TestCorrectlyReportsFixturesWithCtorsThatAssertE:
 12211 0000 00000000 		.quad	_ZTVN10__cxxabiv120__si_class_type_infoE+16
 12211      00000000 
 12212 0008 00000000 		.quad	_ZTSN12_GLOBAL__N_147TestCorrectlyReportsFixturesWithCtorsThatAssertE
 12212      00000000 
 12213 0010 00000000 		.quad	_ZTIN8UnitTest4TestE
 12213      00000000 
 12214              		.section	.rodata
 12215 0ee3 00000000 		.align 32
 12215      00000000 
 12215      00000000 
 12215      00000000 
 12215      00000000 
 12218              	_ZTSN12_GLOBAL__N_157TestFixtureCtorAssertsCorrectlyReportsAssertFailureInCtorE:
 12219 0f00 2A4E3132 		.string	"*N12_GLOBAL__N_157TestFixtureCtorAssertsCorrectlyReportsAssertFailureInCtorE"
 12219      5F474C4F 
 12219      42414C5F 
 12219      5F4E5F31 
 12219      35375465 
 12220              		.section	.data.rel.ro
 12221              		.align 8
 12224              	_ZTIN12_GLOBAL__N_157TestFixtureCtorAssertsCorrectlyReportsAssertFailureInCtorE:
 12225 0018 00000000 		.quad	_ZTVN10__cxxabiv120__si_class_type_infoE+16
 12225      00000000 
 12226 0020 00000000 		.quad	_ZTSN12_GLOBAL__N_157TestFixtureCtorAssertsCorrectlyReportsAssertFailureInCtorE
 12226      00000000 
 12227 0028 00000000 		.quad	_ZTIN8UnitTest4TestE
 12227      00000000 
 12228              		.section	.rodata
 12229 0f4d 00000000 		.align 32
 12229      00000000 
 12229      00000000 
 12229      00000000 
 12229      000000
 12232              	_ZTSN12_GLOBAL__N_140TestFixturesWithThrowingDtorsAreFailuresE:
 12233 0f60 2A4E3132 		.string	"*N12_GLOBAL__N_140TestFixturesWithThrowingDtorsAreFailuresE"
 12233      5F474C4F 
 12233      42414C5F 
 12233      5F4E5F31 
 12233      34305465 
 12234              		.section	.data.rel.ro
 12235              		.align 8
 12238              	_ZTIN12_GLOBAL__N_140TestFixturesWithThrowingDtorsAreFailuresE:
 12239 0030 00000000 		.quad	_ZTVN10__cxxabiv120__si_class_type_infoE+16
 12239      00000000 
 12240 0038 00000000 		.quad	_ZTSN12_GLOBAL__N_140TestFixturesWithThrowingDtorsAreFailuresE
 12240      00000000 
 12241 0040 00000000 		.quad	_ZTIN8UnitTest4TestE
 12241      00000000 
 12242              		.section	.rodata
 12243 0f9c 00000000 		.align 32
 12246              	_ZTSN12_GLOBAL__N_146TestFixtureDtorThrowsFixtureDtorThrowsTestNameE:
 12247 0fa0 2A4E3132 		.string	"*N12_GLOBAL__N_146TestFixtureDtorThrowsFixtureDtorThrowsTestNameE"
 12247      5F474C4F 
 12247      42414C5F 
 12247      5F4E5F31 
 12247      34365465 
 12248              		.section	.data.rel.ro
 12249              		.align 8
 12252              	_ZTIN12_GLOBAL__N_146TestFixtureDtorThrowsFixtureDtorThrowsTestNameE:
 12253 0048 00000000 		.quad	_ZTVN10__cxxabiv120__si_class_type_infoE+16
 12253      00000000 
 12254 0050 00000000 		.quad	_ZTSN12_GLOBAL__N_146TestFixtureDtorThrowsFixtureDtorThrowsTestNameE
 12254      00000000 
 12255 0058 00000000 		.quad	_ZTIN8UnitTest4TestE
 12255      00000000 
 12256              		.section	.rodata
 12257 0fe2 00000000 		.align 32
 12257      00000000 
 12257      00000000 
 12257      00000000 
 12257      00000000 
 12260              	_ZTSN12_GLOBAL__N_140TestFixturesWithThrowingCtorsAreFailuresE:
 12261 1000 2A4E3132 		.string	"*N12_GLOBAL__N_140TestFixturesWithThrowingCtorsAreFailuresE"
 12261      5F474C4F 
 12261      42414C5F 
 12261      5F4E5F31 
 12261      34305465 
 12262              		.section	.data.rel.ro
 12263              		.align 8
 12266              	_ZTIN12_GLOBAL__N_140TestFixturesWithThrowingCtorsAreFailuresE:
 12267 0060 00000000 		.quad	_ZTVN10__cxxabiv120__si_class_type_infoE+16
 12267      00000000 
 12268 0068 00000000 		.quad	_ZTSN12_GLOBAL__N_140TestFixturesWithThrowingCtorsAreFailuresE
 12268      00000000 
 12269 0070 00000000 		.quad	_ZTIN8UnitTest4TestE
 12269      00000000 
 12270              		.section	.rodata
 12271 103c 00000000 		.align 32
 12274              	_ZTSN12_GLOBAL__N_146TestFixtureCtorThrowsFixtureCtorThrowsTestNameE:
 12275 1040 2A4E3132 		.string	"*N12_GLOBAL__N_146TestFixtureCtorThrowsFixtureCtorThrowsTestNameE"
 12275      5F474C4F 
 12275      42414C5F 
 12275      5F4E5F31 
 12275      34365465 
 12276              		.section	.data.rel.ro
 12277              		.align 8
 12280              	_ZTIN12_GLOBAL__N_146TestFixtureCtorThrowsFixtureCtorThrowsTestNameE:
 12281 0078 00000000 		.quad	_ZTVN10__cxxabiv120__si_class_type_infoE+16
 12281      00000000 
 12282 0080 00000000 		.quad	_ZTSN12_GLOBAL__N_146TestFixtureCtorThrowsFixtureCtorThrowsTestNameE
 12282      00000000 
 12283 0088 00000000 		.quad	_ZTIN8UnitTest4TestE
 12283      00000000 
 12284              		.section	.rodata
 12285 1082 00000000 		.align 32
 12285      00000000 
 12285      00000000 
 12285      00000000 
 12285      00000000 
 12288              	_ZTSN12_GLOBAL__N_153TestTestAddedWithTEST_FIXTURE_EXMacroGetsDefaultSuiteE:
 12289 10a0 2A4E3132 		.string	"*N12_GLOBAL__N_153TestTestAddedWithTEST_FIXTURE_EXMacroGetsDefaultSuiteE"
 12289      5F474C4F 
 12289      42414C5F 
 12289      5F4E5F31 
 12289      35335465 
 12290              		.section	.data.rel.ro
 12291              		.align 8
 12294              	_ZTIN12_GLOBAL__N_153TestTestAddedWithTEST_FIXTURE_EXMacroGetsDefaultSuiteE:
 12295 0090 00000000 		.quad	_ZTVN10__cxxabiv120__si_class_type_infoE+16
 12295      00000000 
 12296 0098 00000000 		.quad	_ZTSN12_GLOBAL__N_153TestTestAddedWithTEST_FIXTURE_EXMacroGetsDefaultSuiteE
 12296      00000000 
 12297 00a0 00000000 		.quad	_ZTIN8UnitTest4TestE
 12297      00000000 
 12298              		.section	.rodata
 12299 10e9 00000000 		.align 32
 12299      00000000 
 12299      00000000 
 12299      00000000 
 12299      00000000 
 12302              	_ZTSN12_GLOBAL__N_132TestDummyFixtureMacroTestHelper2E:
 12303 1100 2A4E3132 		.string	"*N12_GLOBAL__N_132TestDummyFixtureMacroTestHelper2E"
 12303      5F474C4F 
 12303      42414C5F 
 12303      5F4E5F31 
 12303      33325465 
 12304              		.section	.data.rel.ro
 12305              		.align 8
 12308              	_ZTIN12_GLOBAL__N_132TestDummyFixtureMacroTestHelper2E:
 12309 00a8 00000000 		.quad	_ZTVN10__cxxabiv120__si_class_type_infoE+16
 12309      00000000 
 12310 00b0 00000000 		.quad	_ZTSN12_GLOBAL__N_132TestDummyFixtureMacroTestHelper2E
 12310      00000000 
 12311 00b8 00000000 		.quad	_ZTIN8UnitTest4TestE
 12311      00000000 
 12312              		.section	.rodata
 12313 1134 00000000 		.align 32
 12313      00000000 
 12313      00000000 
 12316              	_ZTSN12_GLOBAL__N_145TestTestAddedWithTEST_EXMacroGetsDefaultSuiteE:
 12317 1140 2A4E3132 		.string	"*N12_GLOBAL__N_145TestTestAddedWithTEST_EXMacroGetsDefaultSuiteE"
 12317      5F474C4F 
 12317      42414C5F 
 12317      5F4E5F31 
 12317      34355465 
 12318              		.section	.data.rel.ro
 12319              		.align 8
 12322              	_ZTIN12_GLOBAL__N_145TestTestAddedWithTEST_EXMacroGetsDefaultSuiteE:
 12323 00c0 00000000 		.quad	_ZTVN10__cxxabiv120__si_class_type_infoE+16
 12323      00000000 
 12324 00c8 00000000 		.quad	_ZTSN12_GLOBAL__N_145TestTestAddedWithTEST_EXMacroGetsDefaultSuiteE
 12324      00000000 
 12325 00d0 00000000 		.quad	_ZTIN8UnitTest4TestE
 12325      00000000 
 12326              		.section	.rodata
 12327 1181 00000000 		.align 32
 12327      00000000 
 12327      00000000 
 12327      00000000 
 12327      00000000 
 12330              	_ZTSN12_GLOBAL__N_120TestMacroTestHelper1E:
 12331 11a0 2A4E3132 		.string	"*N12_GLOBAL__N_120TestMacroTestHelper1E"
 12331      5F474C4F 
 12331      42414C5F 
 12331      5F4E5F31 
 12331      32305465 
 12332              		.section	.data.rel.ro
 12333              		.align 8
 12336              	_ZTIN12_GLOBAL__N_120TestMacroTestHelper1E:
 12337 00d8 00000000 		.quad	_ZTVN10__cxxabiv120__si_class_type_infoE+16
 12337      00000000 
 12338 00e0 00000000 		.quad	_ZTSN12_GLOBAL__N_120TestMacroTestHelper1E
 12338      00000000 
 12339 00e8 00000000 		.quad	_ZTIN8UnitTest4TestE
 12339      00000000 
 12340              		.section	.rodata
 12341 11c8 00000000 		.align 32
 12341      00000000 
 12341      00000000 
 12341      00000000 
 12341      00000000 
 12344              	_ZTSN12_GLOBAL__N_115SuiteTestSuite263TestDummyFixtureSimilarlyNamedFixtureTestsInDifferentSuitesWo
 12345 11e0 2A4E3132 		.string	"*N12_GLOBAL__N_115SuiteTestSuite263TestDummyFixtureSimilarlyNamedFixtureTestsInDifferentS
 12345      5F474C4F 
 12345      42414C5F 
 12345      5F4E5F31 
 12345      31355375 
 12346              		.section	.data.rel.ro
 12347              		.align 8
 12350              	_ZTIN12_GLOBAL__N_115SuiteTestSuite263TestDummyFixtureSimilarlyNamedFixtureTestsInDifferentSuitesWo
 12351 00f0 00000000 		.quad	_ZTVN10__cxxabiv120__si_class_type_infoE+16
 12351      00000000 
 12352 00f8 00000000 		.quad	_ZTSN12_GLOBAL__N_115SuiteTestSuite263TestDummyFixtureSimilarlyNamedFixtureTestsInDifferentS
 12352      00000000 
 12353 0100 00000000 		.quad	_ZTIN8UnitTest4TestE
 12353      00000000 
 12354              		.section	.rodata
 12355 1244 00000000 		.align 32
 12355      00000000 
 12355      00000000 
 12355      00000000 
 12355      00000000 
 12358              	_ZTSN12_GLOBAL__N_115SuiteTestSuite244TestSimilarlyNamedTestsInDifferentSuitesWorkE:
 12359 1260 2A4E3132 		.string	"*N12_GLOBAL__N_115SuiteTestSuite244TestSimilarlyNamedTestsInDifferentSuitesWorkE"
 12359      5F474C4F 
 12359      42414C5F 
 12359      5F4E5F31 
 12359      31355375 
 12360              		.section	.data.rel.ro
 12361              		.align 8
 12364              	_ZTIN12_GLOBAL__N_115SuiteTestSuite244TestSimilarlyNamedTestsInDifferentSuitesWorkE:
 12365 0108 00000000 		.quad	_ZTVN10__cxxabiv120__si_class_type_infoE+16
 12365      00000000 
 12366 0110 00000000 		.quad	_ZTSN12_GLOBAL__N_115SuiteTestSuite244TestSimilarlyNamedTestsInDifferentSuitesWorkE
 12366      00000000 
 12367 0118 00000000 		.quad	_ZTIN8UnitTest4TestE
 12367      00000000 
 12368              		.section	.rodata
 12369 12b1 00000000 		.align 32
 12369      00000000 
 12369      00000000 
 12369      000000
 12372              	_ZTSN12_GLOBAL__N_115SuiteTestSuite163TestDummyFixtureSimilarlyNamedFixtureTestsInDifferentSuitesWo
 12373 12c0 2A4E3132 		.string	"*N12_GLOBAL__N_115SuiteTestSuite163TestDummyFixtureSimilarlyNamedFixtureTestsInDifferentS
 12373      5F474C4F 
 12373      42414C5F 
 12373      5F4E5F31 
 12373      31355375 
 12374              		.section	.data.rel.ro
 12375              		.align 8
 12378              	_ZTIN12_GLOBAL__N_115SuiteTestSuite163TestDummyFixtureSimilarlyNamedFixtureTestsInDifferentSuitesWo
 12379 0120 00000000 		.quad	_ZTVN10__cxxabiv120__si_class_type_infoE+16
 12379      00000000 
 12380 0128 00000000 		.quad	_ZTSN12_GLOBAL__N_115SuiteTestSuite163TestDummyFixtureSimilarlyNamedFixtureTestsInDifferentS
 12380      00000000 
 12381 0130 00000000 		.quad	_ZTIN8UnitTest4TestE
 12381      00000000 
 12382              		.section	.rodata
 12383 1324 00000000 		.align 32
 12383      00000000 
 12383      00000000 
 12383      00000000 
 12383      00000000 
 12386              	_ZTSN12_GLOBAL__N_115SuiteTestSuite144TestSimilarlyNamedTestsInDifferentSuitesWorkE:
 12387 1340 2A4E3132 		.string	"*N12_GLOBAL__N_115SuiteTestSuite144TestSimilarlyNamedTestsInDifferentSuitesWorkE"
 12387      5F474C4F 
 12387      42414C5F 
 12387      5F4E5F31 
 12387      31355375 
 12388              		.section	.data.rel.ro
 12389              		.align 8
 12392              	_ZTIN12_GLOBAL__N_115SuiteTestSuite144TestSimilarlyNamedTestsInDifferentSuitesWorkE:
 12393 0138 00000000 		.quad	_ZTVN10__cxxabiv120__si_class_type_infoE+16
 12393      00000000 
 12394 0140 00000000 		.quad	_ZTSN12_GLOBAL__N_115SuiteTestSuite144TestSimilarlyNamedTestsInDifferentSuitesWorkE
 12394      00000000 
 12395 0148 00000000 		.quad	_ZTIN8UnitTest4TestE
 12395      00000000 
 12396              		.section	.rodata
 12397 1391 00000000 		.align 32
 12397      00000000 
 12397      00000000 
 12397      000000
 12400              	_ZTSN12_GLOBAL__N_157TestExceptionsInFixtureAreReportedAsHappeningInTheFixtureE:
 12401 13a0 2A4E3132 		.string	"*N12_GLOBAL__N_157TestExceptionsInFixtureAreReportedAsHappeningInTheFixtureE"
 12401      5F474C4F 
 12401      42414C5F 
 12401      5F4E5F31 
 12401      35375465 
 12402              		.section	.data.rel.ro
 12403              		.align 8
 12406              	_ZTIN12_GLOBAL__N_157TestExceptionsInFixtureAreReportedAsHappeningInTheFixtureE:
 12407 0150 00000000 		.quad	_ZTVN10__cxxabiv120__si_class_type_infoE+16
 12407      00000000 
 12408 0158 00000000 		.quad	_ZTSN12_GLOBAL__N_157TestExceptionsInFixtureAreReportedAsHappeningInTheFixtureE
 12408      00000000 
 12409 0160 00000000 		.quad	_ZTIN8UnitTest4TestE
 12409      00000000 
 12410              		.section	.rodata
 12411 13ed 00000000 		.align 32
 12411      00000000 
 12411      00000000 
 12411      00000000 
 12411      000000
 12414              	_ZTSN12_GLOBAL__N_132TestThrowingThingieDummyTestNameE:
 12415 1400 2A4E3132 		.string	"*N12_GLOBAL__N_132TestThrowingThingieDummyTestNameE"
 12415      5F474C4F 
 12415      42414C5F 
 12415      5F4E5F31 
 12415      33325465 
 12416              		.section	.data.rel.ro
 12417              		.align 8
 12420              	_ZTIN12_GLOBAL__N_132TestThrowingThingieDummyTestNameE:
 12421 0168 00000000 		.quad	_ZTVN10__cxxabiv120__si_class_type_infoE+16
 12421      00000000 
 12422 0170 00000000 		.quad	_ZTSN12_GLOBAL__N_132TestThrowingThingieDummyTestNameE
 12422      00000000 
 12423 0178 00000000 		.quad	_ZTIN8UnitTest4TestE
 12423      00000000 
 12424              		.section	.rodata
 12425 1434 00000000 		.align 32
 12425      00000000 
 12425      00000000 
 12428              	_ZTSN12_GLOBAL__N_138TestTestsAreAddedToTheListThroughMacroE:
 12429 1440 2A4E3132 		.string	"*N12_GLOBAL__N_138TestTestsAreAddedToTheListThroughMacroE"
 12429      5F474C4F 
 12429      42414C5F 
 12429      5F4E5F31 
 12429      33385465 
 12430              		.section	.data.rel.ro
 12431              		.align 8
 12434              	_ZTIN12_GLOBAL__N_138TestTestsAreAddedToTheListThroughMacroE:
 12435 0180 00000000 		.quad	_ZTVN10__cxxabiv120__si_class_type_infoE+16
 12435      00000000 
 12436 0188 00000000 		.quad	_ZTSN12_GLOBAL__N_138TestTestsAreAddedToTheListThroughMacroE
 12436      00000000 
 12437 0190 00000000 		.quad	_ZTIN8UnitTest4TestE
 12437      00000000 
 12438              		.section	.rodata
 12439 147a 00000000 		.align 32
 12439      0000
 12442              	_ZTSN12_GLOBAL__N_113TestDummyTestE:
 12443 1480 2A4E3132 		.string	"*N12_GLOBAL__N_113TestDummyTestE"
 12443      5F474C4F 
 12443      42414C5F 
 12443      5F4E5F31 
 12443      31335465 
 12444              		.section	.data.rel.ro
 12445              		.align 8
 12448              	_ZTIN12_GLOBAL__N_113TestDummyTestE:
 12449 0198 00000000 		.quad	_ZTVN10__cxxabiv120__si_class_type_infoE+16
 12449      00000000 
 12450 01a0 00000000 		.quad	_ZTSN12_GLOBAL__N_113TestDummyTestE
 12450      00000000 
 12451 01a8 00000000 		.quad	_ZTIN8UnitTest4TestE
 12451      00000000 
 12452              		.weak	_ZTI17RecordingReporter
 12453              		.section	.data.rel.ro._ZTI17RecordingReporter,"awG",@progbits,_ZTI17RecordingReporter,comdat
 12454              		.align 8
 12457              	_ZTI17RecordingReporter:
 12458 0000 00000000 		.quad	_ZTVN10__cxxabiv120__si_class_type_infoE+16
 12458      00000000 
 12459 0008 00000000 		.quad	_ZTS17RecordingReporter
 12459      00000000 
 12460 0010 00000000 		.quad	_ZTIN8UnitTest12TestReporterE
 12460      00000000 
 12461              		.weak	_ZTS17RecordingReporter
 12462              		.section	.rodata._ZTS17RecordingReporter,"aG",@progbits,_ZTS17RecordingReporter,comdat
 12463              		.align 16
 12466              	_ZTS17RecordingReporter:
 12467 0000 31375265 		.string	"17RecordingReporter"
 12467      636F7264 
 12467      696E6752 
 12467      65706F72 
 12467      74657200 
 12468              		.weak	_ZTIN8UnitTest15MemoryOutStreamE
 12469              		.section	.data.rel.ro._ZTIN8UnitTest15MemoryOutStreamE,"awG",@progbits,_ZTIN8UnitTest15MemoryOutSt
 12470              		.align 8
 12473              	_ZTIN8UnitTest15MemoryOutStreamE:
 12474 0000 00000000 		.quad	_ZTVN10__cxxabiv120__si_class_type_infoE+16
 12474      00000000 
 12475 0008 00000000 		.quad	_ZTSN8UnitTest15MemoryOutStreamE
 12475      00000000 
 12476 0010 00000000 		.quad	_ZTINSt7__cxx1119basic_ostringstreamIcSt11char_traitsIcESaIcEEE
 12476      00000000 
 12477              		.weak	_ZTSN8UnitTest15MemoryOutStreamE
 12478              		.section	.rodata._ZTSN8UnitTest15MemoryOutStreamE,"aG",@progbits,_ZTSN8UnitTest15MemoryOutStreamE,
 12479              		.align 16
 12482              	_ZTSN8UnitTest15MemoryOutStreamE:
 12483 0000 4E38556E 		.string	"N8UnitTest15MemoryOutStreamE"
 12483      69745465 
 12483      73743135 
 12483      4D656D6F 
 12483      72794F75 
 12484              		.text
 12486              	_Z41__static_initialization_and_destruction_0ii:
 12487              	.LFB1410:
 12488              		.loc 6 208 0
 12489              		.cfi_startproc
 12490 4c0a 55       		pushq	%rbp
 12491              		.cfi_def_cfa_offset 16
 12492              		.cfi_offset 6, -16
 12493 4c0b 4889E5   		movq	%rsp, %rbp
 12494              		.cfi_def_cfa_register 6
 12495 4c0e 4883EC10 		subq	$16, %rsp
 12496 4c12 897DFC   		movl	%edi, -4(%rbp)
 12497 4c15 8975F8   		movl	%esi, -8(%rbp)
 12498              		.loc 6 208 0
 12499 4c18 837DFC01 		cmpl	$1, -4(%rbp)
 12500 4c1c 0F856E05 		jne	.L629
 12500      0000
 12501              		.loc 6 208 0 is_stmt 0 discriminator 1
 12502 4c22 817DF8FF 		cmpl	$65535, -8(%rbp)
 12502      FF0000
 12503 4c29 0F856105 		jne	.L629
 12503      0000
  14:TestTestMacros.cpp **** TEST_EX(DummyTest, list1)
 12504              		.loc 6 14 0 is_stmt 1
 12505 4c2f 488D3D00 		leaq	_ZN12_GLOBAL__N_15list1E(%rip), %rdi
 12505      000000
 12506 4c36 E8000000 		call	_ZN8UnitTest8TestListC1Ev@PLT
 12506      00
  15:TestTestMacros.cpp **** {
 12507              		.loc 6 15 0
 12508 4c3b 488D3D00 		leaq	_ZN12_GLOBAL__N_121testDummyTestInstanceE(%rip), %rdi
 12508      000000
 12509 4c42 E8B9B3FF 		call	_ZN12_GLOBAL__N_113TestDummyTestC1Ev
 12509      FF
 12510 4c47 488D1500 		leaq	__dso_handle(%rip), %rdx
 12510      000000
 12511 4c4e 488D3500 		leaq	_ZN12_GLOBAL__N_121testDummyTestInstanceE(%rip), %rsi
 12511      000000
 12512 4c55 488D3D3C 		leaq	_ZN12_GLOBAL__N_113TestDummyTestD1Ev(%rip), %rdi
 12512      FFFFFF
 12513 4c5c E8000000 		call	__cxa_atexit@PLT
 12513      00
 12514 4c61 488D1500 		leaq	_ZN12_GLOBAL__N_121testDummyTestInstanceE(%rip), %rdx
 12514      000000
 12515 4c68 488D3500 		leaq	_ZN12_GLOBAL__N_15list1E(%rip), %rsi
 12515      000000
 12516 4c6f 488D3D00 		leaq	_ZN12_GLOBAL__N_114adderDummyTestE(%rip), %rdi
 12516      000000
 12517 4c76 E8000000 		call	_ZN8UnitTest9ListAdderC1ERNS_8TestListEPNS_4TestE@PLT
 12517      00
  19:TestTestMacros.cpp **** {
 12518              		.loc 6 19 0
 12519 4c7b 488D3D00 		leaq	_ZN12_GLOBAL__N_146testTestsAreAddedToTheListThroughMacroInstanceE(%rip), %rdi
 12519      000000
 12520 4c82 E8D1B3FF 		call	_ZN12_GLOBAL__N_138TestTestsAreAddedToTheListThroughMacroC1Ev
 12520      FF
 12521 4c87 488D1500 		leaq	__dso_handle(%rip), %rdx
 12521      000000
 12522 4c8e 488D3500 		leaq	_ZN12_GLOBAL__N_146testTestsAreAddedToTheListThroughMacroInstanceE(%rip), %rsi
 12522      000000
 12523 4c95 488D3D8A 		leaq	_ZN12_GLOBAL__N_138TestTestsAreAddedToTheListThroughMacroD1Ev(%rip), %rdi
 12523      FEFFFF
 12524 4c9c E8000000 		call	__cxa_atexit@PLT
 12524      00
 12525 4ca1 E8000000 		call	_ZN8UnitTest4Test11GetTestListEv@PLT
 12525      00
 12526 4ca6 488D1500 		leaq	_ZN12_GLOBAL__N_146testTestsAreAddedToTheListThroughMacroInstanceE(%rip), %rdx
 12526      000000
 12527 4cad 4889C6   		movq	%rax, %rsi
 12528 4cb0 488D3D00 		leaq	_ZN12_GLOBAL__N_139adderTestsAreAddedToTheListThroughMacroE(%rip), %rdi
 12528      000000
 12529 4cb7 E8000000 		call	_ZN8UnitTest9ListAdderC1ERNS_8TestListEPNS_4TestE@PLT
 12529      00
  36:TestTestMacros.cpp **** TEST_FIXTURE_EX(ThrowingThingie, DummyTestName, list2)
 12530              		.loc 6 36 0
 12531 4cbc 488D3D00 		leaq	_ZN12_GLOBAL__N_15list2E(%rip), %rdi
 12531      000000
 12532 4cc3 E8000000 		call	_ZN8UnitTest8TestListC1Ev@PLT
 12532      00
  37:TestTestMacros.cpp **** {
 12533              		.loc 6 37 0
 12534 4cc8 488D3D00 		leaq	_ZN12_GLOBAL__N_140testThrowingThingieDummyTestNameInstanceE(%rip), %rdi
 12534      000000
 12535 4ccf E802B6FF 		call	_ZN12_GLOBAL__N_132TestThrowingThingieDummyTestNameC1Ev
 12535      FF
 12536 4cd4 488D1500 		leaq	__dso_handle(%rip), %rdx
 12536      000000
 12537 4cdb 488D3500 		leaq	_ZN12_GLOBAL__N_140testThrowingThingieDummyTestNameInstanceE(%rip), %rsi
 12537      000000
 12538 4ce2 488D3DCB 		leaq	_ZN12_GLOBAL__N_132TestThrowingThingieDummyTestNameD1Ev(%rip), %rdi
 12538      FDFFFF
 12539 4ce9 E8000000 		call	__cxa_atexit@PLT
 12539      00
 12540 4cee 488D1500 		leaq	_ZN12_GLOBAL__N_140testThrowingThingieDummyTestNameInstanceE(%rip), %rdx
 12540      000000
 12541 4cf5 488D3500 		leaq	_ZN12_GLOBAL__N_15list2E(%rip), %rsi
 12541      000000
 12542 4cfc 488D3D00 		leaq	_ZN12_GLOBAL__N_133adderThrowingThingieDummyTestNameE(%rip), %rdi
 12542      000000
 12543 4d03 E8000000 		call	_ZN8UnitTest9ListAdderC1ERNS_8TestListEPNS_4TestE@PLT
 12543      00
  41:TestTestMacros.cpp **** {
 12544              		.loc 6 41 0
 12545 4d08 488D3D00 		leaq	_ZN12_GLOBAL__N_165testExceptionsInFixtureAreReportedAsHappeningInTheFixtureInstanceE(%rip), 
 12545      000000
 12546 4d0f E8FCB8FF 		call	_ZN12_GLOBAL__N_157TestExceptionsInFixtureAreReportedAsHappeningInTheFixtureC1Ev
 12546      FF
 12547 4d14 488D1500 		leaq	__dso_handle(%rip), %rdx
 12547      000000
 12548 4d1b 488D3500 		leaq	_ZN12_GLOBAL__N_165testExceptionsInFixtureAreReportedAsHappeningInTheFixtureInstanceE(%rip), 
 12548      000000
 12549 4d22 488D3D19 		leaq	_ZN12_GLOBAL__N_157TestExceptionsInFixtureAreReportedAsHappeningInTheFixtureD1Ev(%rip), %rdi
 12549      FDFFFF
 12550 4d29 E8000000 		call	__cxa_atexit@PLT
 12550      00
 12551 4d2e E8000000 		call	_ZN8UnitTest4Test11GetTestListEv@PLT
 12551      00
 12552 4d33 488D1500 		leaq	_ZN12_GLOBAL__N_165testExceptionsInFixtureAreReportedAsHappeningInTheFixtureInstanceE(%rip), 
 12552      000000
 12553 4d3a 4889C6   		movq	%rax, %rsi
 12554 4d3d 488D3D00 		leaq	_ZN12_GLOBAL__N_158adderExceptionsInFixtureAreReportedAsHappeningInTheFixtureE(%rip), %rdi
 12554      000000
 12555 4d44 E8000000 		call	_ZN8UnitTest9ListAdderC1ERNS_8TestListEPNS_4TestE@PLT
 12555      00
  63:TestTestMacros.cpp **** 	{
 12556              		.loc 6 63 0
 12557 4d49 488D3D00 		leaq	_ZN12_GLOBAL__N_115SuiteTestSuite152testSimilarlyNamedTestsInDifferentSuitesWorkInstanceE(%ri
 12557      000000
 12558 4d50 E863BCFF 		call	_ZN12_GLOBAL__N_115SuiteTestSuite144TestSimilarlyNamedTestsInDifferentSuitesWorkC1Ev
 12558      FF
 12559 4d55 488D1500 		leaq	__dso_handle(%rip), %rdx
 12559      000000
 12560 4d5c 488D3500 		leaq	_ZN12_GLOBAL__N_115SuiteTestSuite152testSimilarlyNamedTestsInDifferentSuitesWorkInstanceE(%ri
 12560      000000
 12561 4d63 488D3D66 		leaq	_ZN12_GLOBAL__N_115SuiteTestSuite144TestSimilarlyNamedTestsInDifferentSuitesWorkD1Ev(%rip), %
 12561      FCFFFF
 12562 4d6a E8000000 		call	__cxa_atexit@PLT
 12562      00
 12563 4d6f E8000000 		call	_ZN8UnitTest4Test11GetTestListEv@PLT
 12563      00
 12564 4d74 488D1500 		leaq	_ZN12_GLOBAL__N_115SuiteTestSuite152testSimilarlyNamedTestsInDifferentSuitesWorkInstanceE(%ri
 12564      000000
 12565 4d7b 4889C6   		movq	%rax, %rsi
 12566 4d7e 488D3D00 		leaq	_ZN12_GLOBAL__N_115SuiteTestSuite145adderSimilarlyNamedTestsInDifferentSuitesWorkE(%rip), %rd
 12566      000000
 12567 4d85 E8000000 		call	_ZN8UnitTest9ListAdderC1ERNS_8TestListEPNS_4TestE@PLT
 12567      00
  67:TestTestMacros.cpp **** 	{
 12568              		.loc 6 67 0
 12569 4d8a 488D3D00 		leaq	_ZN12_GLOBAL__N_115SuiteTestSuite171testDummyFixtureSimilarlyNamedFixtureTestsInDifferentSuit
 12569      000000
 12570 4d91 E896BCFF 		call	_ZN12_GLOBAL__N_115SuiteTestSuite163TestDummyFixtureSimilarlyNamedFixtureTestsInDifferentSuit
 12570      FF
 12571 4d96 488D1500 		leaq	__dso_handle(%rip), %rdx
 12571      000000
 12572 4d9d 488D3500 		leaq	_ZN12_GLOBAL__N_115SuiteTestSuite171testDummyFixtureSimilarlyNamedFixtureTestsInDifferentSuit
 12572      000000
 12573 4da4 488D3DB3 		leaq	_ZN12_GLOBAL__N_115SuiteTestSuite163TestDummyFixtureSimilarlyNamedFixtureTestsInDifferentSuit
 12573      FBFFFF
 12574 4dab E8000000 		call	__cxa_atexit@PLT
 12574      00
 12575 4db0 E8000000 		call	_ZN8UnitTest4Test11GetTestListEv@PLT
 12575      00
 12576 4db5 488D1500 		leaq	_ZN12_GLOBAL__N_115SuiteTestSuite171testDummyFixtureSimilarlyNamedFixtureTestsInDifferentSuit
 12576      000000
 12577 4dbc 4889C6   		movq	%rax, %rsi
 12578 4dbf 488D3D00 		leaq	_ZN12_GLOBAL__N_115SuiteTestSuite164adderDummyFixtureSimilarlyNamedFixtureTestsInDifferentSui
 12578      000000
 12579 4dc6 E8000000 		call	_ZN8UnitTest9ListAdderC1ERNS_8TestListEPNS_4TestE@PLT
 12579      00
  74:TestTestMacros.cpp **** 	{
 12580              		.loc 6 74 0
 12581 4dcb 488D3D00 		leaq	_ZN12_GLOBAL__N_115SuiteTestSuite252testSimilarlyNamedTestsInDifferentSuitesWorkInstanceE(%ri
 12581      000000
 12582 4dd2 E89BBFFF 		call	_ZN12_GLOBAL__N_115SuiteTestSuite244TestSimilarlyNamedTestsInDifferentSuitesWorkC1Ev
 12582      FF
 12583 4dd7 488D1500 		leaq	__dso_handle(%rip), %rdx
 12583      000000
 12584 4dde 488D3500 		leaq	_ZN12_GLOBAL__N_115SuiteTestSuite252testSimilarlyNamedTestsInDifferentSuitesWorkInstanceE(%ri
 12584      000000
 12585 4de5 488D3D00 		leaq	_ZN12_GLOBAL__N_115SuiteTestSuite244TestSimilarlyNamedTestsInDifferentSuitesWorkD1Ev(%rip), %
 12585      FBFFFF
 12586 4dec E8000000 		call	__cxa_atexit@PLT
 12586      00
 12587 4df1 E8000000 		call	_ZN8UnitTest4Test11GetTestListEv@PLT
 12587      00
 12588 4df6 488D1500 		leaq	_ZN12_GLOBAL__N_115SuiteTestSuite252testSimilarlyNamedTestsInDifferentSuitesWorkInstanceE(%ri
 12588      000000
 12589 4dfd 4889C6   		movq	%rax, %rsi
 12590 4e00 488D3D00 		leaq	_ZN12_GLOBAL__N_115SuiteTestSuite245adderSimilarlyNamedTestsInDifferentSuitesWorkE(%rip), %rd
 12590      000000
 12591 4e07 E8000000 		call	_ZN8UnitTest9ListAdderC1ERNS_8TestListEPNS_4TestE@PLT
 12591      00
  78:TestTestMacros.cpp **** 	{
 12592              		.loc 6 78 0
 12593 4e0c 488D3D00 		leaq	_ZN12_GLOBAL__N_115SuiteTestSuite271testDummyFixtureSimilarlyNamedFixtureTestsInDifferentSuit
 12593      000000
 12594 4e13 E8CEBFFF 		call	_ZN12_GLOBAL__N_115SuiteTestSuite263TestDummyFixtureSimilarlyNamedFixtureTestsInDifferentSuit
 12594      FF
 12595 4e18 488D1500 		leaq	__dso_handle(%rip), %rdx
 12595      000000
 12596 4e1f 488D3500 		leaq	_ZN12_GLOBAL__N_115SuiteTestSuite271testDummyFixtureSimilarlyNamedFixtureTestsInDifferentSuit
 12596      000000
 12597 4e26 488D3D4D 		leaq	_ZN12_GLOBAL__N_115SuiteTestSuite263TestDummyFixtureSimilarlyNamedFixtureTestsInDifferentSuit
 12597      FAFFFF
 12598 4e2d E8000000 		call	__cxa_atexit@PLT
 12598      00
 12599 4e32 E8000000 		call	_ZN8UnitTest4Test11GetTestListEv@PLT
 12599      00
 12600 4e37 488D1500 		leaq	_ZN12_GLOBAL__N_115SuiteTestSuite271testDummyFixtureSimilarlyNamedFixtureTestsInDifferentSuit
 12600      000000
 12601 4e3e 4889C6   		movq	%rax, %rsi
 12602 4e41 488D3D00 		leaq	_ZN12_GLOBAL__N_115SuiteTestSuite264adderDummyFixtureSimilarlyNamedFixtureTestsInDifferentSui
 12602      000000
 12603 4e48 E8000000 		call	_ZN8UnitTest9ListAdderC1ERNS_8TestListEPNS_4TestE@PLT
 12603      00
  83:TestTestMacros.cpp **** TEST_EX(MacroTestHelper1, macroTestList1)
 12604              		.loc 6 83 0
 12605 4e4d 488D3D00 		leaq	_ZN12_GLOBAL__N_114macroTestList1E(%rip), %rdi
 12605      000000
 12606 4e54 E8000000 		call	_ZN8UnitTest8TestListC1Ev@PLT
 12606      00
  84:TestTestMacros.cpp **** {
 12607              		.loc 6 84 0
 12608 4e59 488D3D00 		leaq	_ZN12_GLOBAL__N_128testMacroTestHelper1InstanceE(%rip), %rdi
 12608      000000
 12609 4e60 E8BBC2FF 		call	_ZN12_GLOBAL__N_120TestMacroTestHelper1C1Ev
 12609      FF
 12610 4e65 488D1500 		leaq	__dso_handle(%rip), %rdx
 12610      000000
 12611 4e6c 488D3500 		leaq	_ZN12_GLOBAL__N_128testMacroTestHelper1InstanceE(%rip), %rsi
 12611      000000
 12612 4e73 488D3D8E 		leaq	_ZN12_GLOBAL__N_120TestMacroTestHelper1D1Ev(%rip), %rdi
 12612      F9FFFF
 12613 4e7a E8000000 		call	__cxa_atexit@PLT
 12613      00
 12614 4e7f 488D1500 		leaq	_ZN12_GLOBAL__N_128testMacroTestHelper1InstanceE(%rip), %rdx
 12614      000000
 12615 4e86 488D3500 		leaq	_ZN12_GLOBAL__N_114macroTestList1E(%rip), %rsi
 12615      000000
 12616 4e8d 488D3D00 		leaq	_ZN12_GLOBAL__N_121adderMacroTestHelper1E(%rip), %rdi
 12616      000000
 12617 4e94 E8000000 		call	_ZN8UnitTest9ListAdderC1ERNS_8TestListEPNS_4TestE@PLT
 12617      00
  88:TestTestMacros.cpp **** {
 12618              		.loc 6 88 0
 12619 4e99 488D3D00 		leaq	_ZN12_GLOBAL__N_153testTestAddedWithTEST_EXMacroGetsDefaultSuiteInstanceE(%rip), %rdi
 12619      000000
 12620 4ea0 E8D3C2FF 		call	_ZN12_GLOBAL__N_145TestTestAddedWithTEST_EXMacroGetsDefaultSuiteC1Ev
 12620      FF
 12621 4ea5 488D1500 		leaq	__dso_handle(%rip), %rdx
 12621      000000
 12622 4eac 488D3500 		leaq	_ZN12_GLOBAL__N_153testTestAddedWithTEST_EXMacroGetsDefaultSuiteInstanceE(%rip), %rsi
 12622      000000
 12623 4eb3 488D3DDC 		leaq	_ZN12_GLOBAL__N_145TestTestAddedWithTEST_EXMacroGetsDefaultSuiteD1Ev(%rip), %rdi
 12623      F8FFFF
 12624 4eba E8000000 		call	__cxa_atexit@PLT
 12624      00
 12625 4ebf E8000000 		call	_ZN8UnitTest4Test11GetTestListEv@PLT
 12625      00
 12626 4ec4 488D1500 		leaq	_ZN12_GLOBAL__N_153testTestAddedWithTEST_EXMacroGetsDefaultSuiteInstanceE(%rip), %rdx
 12626      000000
 12627 4ecb 4889C6   		movq	%rax, %rsi
 12628 4ece 488D3D00 		leaq	_ZN12_GLOBAL__N_146adderTestAddedWithTEST_EXMacroGetsDefaultSuiteE(%rip), %rdi
 12628      000000
 12629 4ed5 E8000000 		call	_ZN8UnitTest9ListAdderC1ERNS_8TestListEPNS_4TestE@PLT
 12629      00
  95:TestTestMacros.cpp **** TEST_FIXTURE_EX(DummyFixture, MacroTestHelper2, macroTestList2)
 12630              		.loc 6 95 0
 12631 4eda 488D3D00 		leaq	_ZN12_GLOBAL__N_114macroTestList2E(%rip), %rdi
 12631      000000
 12632 4ee1 E8000000 		call	_ZN8UnitTest8TestListC1Ev@PLT
 12632      00
  96:TestTestMacros.cpp **** {
 12633              		.loc 6 96 0
 12634 4ee6 488D3D00 		leaq	_ZN12_GLOBAL__N_140testDummyFixtureMacroTestHelper2InstanceE(%rip), %rdi
 12634      000000
 12635 4eed E83CC5FF 		call	_ZN12_GLOBAL__N_132TestDummyFixtureMacroTestHelper2C1Ev
 12635      FF
 12636 4ef2 488D1500 		leaq	__dso_handle(%rip), %rdx
 12636      000000
 12637 4ef9 488D3500 		leaq	_ZN12_GLOBAL__N_140testDummyFixtureMacroTestHelper2InstanceE(%rip), %rsi
 12637      000000
 12638 4f00 488D3D1D 		leaq	_ZN12_GLOBAL__N_132TestDummyFixtureMacroTestHelper2D1Ev(%rip), %rdi
 12638      F8FFFF
 12639 4f07 E8000000 		call	__cxa_atexit@PLT
 12639      00
 12640 4f0c 488D1500 		leaq	_ZN12_GLOBAL__N_140testDummyFixtureMacroTestHelper2InstanceE(%rip), %rdx
 12640      000000
 12641 4f13 488D3500 		leaq	_ZN12_GLOBAL__N_114macroTestList2E(%rip), %rsi
 12641      000000
 12642 4f1a 488D3D00 		leaq	_ZN12_GLOBAL__N_133adderDummyFixtureMacroTestHelper2E(%rip), %rdi
 12642      000000
 12643 4f21 E8000000 		call	_ZN8UnitTest9ListAdderC1ERNS_8TestListEPNS_4TestE@PLT
 12643      00
 100:TestTestMacros.cpp **** {
 12644              		.loc 6 100 0
 12645 4f26 488D3D00 		leaq	_ZN12_GLOBAL__N_161testTestAddedWithTEST_FIXTURE_EXMacroGetsDefaultSuiteInstanceE(%rip), %rdi
 12645      000000
 12646 4f2d E836C8FF 		call	_ZN12_GLOBAL__N_153TestTestAddedWithTEST_FIXTURE_EXMacroGetsDefaultSuiteC1Ev
 12646      FF
 12647 4f32 488D1500 		leaq	__dso_handle(%rip), %rdx
 12647      000000
 12648 4f39 488D3500 		leaq	_ZN12_GLOBAL__N_161testTestAddedWithTEST_FIXTURE_EXMacroGetsDefaultSuiteInstanceE(%rip), %rsi
 12648      000000
 12649 4f40 488D3D6B 		leaq	_ZN12_GLOBAL__N_153TestTestAddedWithTEST_FIXTURE_EXMacroGetsDefaultSuiteD1Ev(%rip), %rdi
 12649      F7FFFF
 12650 4f47 E8000000 		call	__cxa_atexit@PLT
 12650      00
 12651 4f4c E8000000 		call	_ZN8UnitTest4Test11GetTestListEv@PLT
 12651      00
 12652 4f51 488D1500 		leaq	_ZN12_GLOBAL__N_161testTestAddedWithTEST_FIXTURE_EXMacroGetsDefaultSuiteInstanceE(%rip), %rdx
 12652      000000
 12653 4f58 4889C6   		movq	%rax, %rsi
 12654 4f5b 488D3D00 		leaq	_ZN12_GLOBAL__N_154adderTestAddedWithTEST_FIXTURE_EXMacroGetsDefaultSuiteE(%rip), %rdi
 12654      000000
 12655 4f62 E8000000 		call	_ZN8UnitTest9ListAdderC1ERNS_8TestListEPNS_4TestE@PLT
 12655      00
 112:TestTestMacros.cpp **** TEST_FIXTURE_EX(FixtureCtorThrows, FixtureCtorThrowsTestName, throwingFixtureTestList1)
 12656              		.loc 6 112 0
 12657 4f67 488D3D00 		leaq	_ZN12_GLOBAL__N_124throwingFixtureTestList1E(%rip), %rdi
 12657      000000
 12658 4f6e E8000000 		call	_ZN8UnitTest8TestListC1Ev@PLT
 12658      00
 113:TestTestMacros.cpp **** {
 12659              		.loc 6 113 0
 12660 4f73 488D3D00 		leaq	_ZN12_GLOBAL__N_154testFixtureCtorThrowsFixtureCtorThrowsTestNameInstanceE(%rip), %rdi
 12660      000000
 12661 4f7a E8E1CAFF 		call	_ZN12_GLOBAL__N_146TestFixtureCtorThrowsFixtureCtorThrowsTestNameC1Ev
 12661      FF
 12662 4f7f 488D1500 		leaq	__dso_handle(%rip), %rdx
 12662      000000
 12663 4f86 488D3500 		leaq	_ZN12_GLOBAL__N_154testFixtureCtorThrowsFixtureCtorThrowsTestNameInstanceE(%rip), %rsi
 12663      000000
 12664 4f8d 488D3DAC 		leaq	_ZN12_GLOBAL__N_146TestFixtureCtorThrowsFixtureCtorThrowsTestNameD1Ev(%rip), %rdi
 12664      F6FFFF
 12665 4f94 E8000000 		call	__cxa_atexit@PLT
 12665      00
 12666 4f99 488D1500 		leaq	_ZN12_GLOBAL__N_154testFixtureCtorThrowsFixtureCtorThrowsTestNameInstanceE(%rip), %rdx
 12666      000000
 12667 4fa0 488D3500 		leaq	_ZN12_GLOBAL__N_124throwingFixtureTestList1E(%rip), %rsi
 12667      000000
 12668 4fa7 488D3D00 		leaq	_ZN12_GLOBAL__N_147adderFixtureCtorThrowsFixtureCtorThrowsTestNameE(%rip), %rdi
 12668      000000
 12669 4fae E8000000 		call	_ZN8UnitTest9ListAdderC1ERNS_8TestListEPNS_4TestE@PLT
 12669      00
 117:TestTestMacros.cpp **** {
 12670              		.loc 6 117 0
 12671 4fb3 488D3D00 		leaq	_ZN12_GLOBAL__N_148testFixturesWithThrowingCtorsAreFailuresInstanceE(%rip), %rdi
 12671      000000
 12672 4fba E8DBCDFF 		call	_ZN12_GLOBAL__N_140TestFixturesWithThrowingCtorsAreFailuresC1Ev
 12672      FF
 12673 4fbf 488D1500 		leaq	__dso_handle(%rip), %rdx
 12673      000000
 12674 4fc6 488D3500 		leaq	_ZN12_GLOBAL__N_148testFixturesWithThrowingCtorsAreFailuresInstanceE(%rip), %rsi
 12674      000000
 12675 4fcd 488D3DFA 		leaq	_ZN12_GLOBAL__N_140TestFixturesWithThrowingCtorsAreFailuresD1Ev(%rip), %rdi
 12675      F5FFFF
 12676 4fd4 E8000000 		call	__cxa_atexit@PLT
 12676      00
 12677 4fd9 E8000000 		call	_ZN8UnitTest4Test11GetTestListEv@PLT
 12677      00
 12678 4fde 488D1500 		leaq	_ZN12_GLOBAL__N_148testFixturesWithThrowingCtorsAreFailuresInstanceE(%rip), %rdx
 12678      000000
 12679 4fe5 4889C6   		movq	%rax, %rsi
 12680 4fe8 488D3D00 		leaq	_ZN12_GLOBAL__N_141adderFixturesWithThrowingCtorsAreFailuresE(%rip), %rdi
 12680      000000
 12681 4fef E8000000 		call	_ZN8UnitTest9ListAdderC1ERNS_8TestListEPNS_4TestE@PLT
 12681      00
 137:TestTestMacros.cpp **** TEST_FIXTURE_EX(FixtureDtorThrows, FixtureDtorThrowsTestName, throwingFixtureTestList2)
 12682              		.loc 6 137 0
 12683 4ff4 488D3D00 		leaq	_ZN12_GLOBAL__N_124throwingFixtureTestList2E(%rip), %rdi
 12683      000000
 12684 4ffb E8000000 		call	_ZN8UnitTest8TestListC1Ev@PLT
 12684      00
 138:TestTestMacros.cpp **** {
 12685              		.loc 6 138 0
 12686 5000 488D3D00 		leaq	_ZN12_GLOBAL__N_154testFixtureDtorThrowsFixtureDtorThrowsTestNameInstanceE(%rip), %rdi
 12686      000000
 12687 5007 E86ED1FF 		call	_ZN12_GLOBAL__N_146TestFixtureDtorThrowsFixtureDtorThrowsTestNameC1Ev
 12687      FF
 12688 500c 488D1500 		leaq	__dso_handle(%rip), %rdx
 12688      000000
 12689 5013 488D3500 		leaq	_ZN12_GLOBAL__N_154testFixtureDtorThrowsFixtureDtorThrowsTestNameInstanceE(%rip), %rsi
 12689      000000
 12690 501a 488D3D3B 		leaq	_ZN12_GLOBAL__N_146TestFixtureDtorThrowsFixtureDtorThrowsTestNameD1Ev(%rip), %rdi
 12690      F5FFFF
 12691 5021 E8000000 		call	__cxa_atexit@PLT
 12691      00
 12692 5026 488D1500 		leaq	_ZN12_GLOBAL__N_154testFixtureDtorThrowsFixtureDtorThrowsTestNameInstanceE(%rip), %rdx
 12692      000000
 12693 502d 488D3500 		leaq	_ZN12_GLOBAL__N_124throwingFixtureTestList2E(%rip), %rsi
 12693      000000
 12694 5034 488D3D00 		leaq	_ZN12_GLOBAL__N_147adderFixtureDtorThrowsFixtureDtorThrowsTestNameE(%rip), %rdi
 12694      000000
 12695 503b E8000000 		call	_ZN8UnitTest9ListAdderC1ERNS_8TestListEPNS_4TestE@PLT
 12695      00
 142:TestTestMacros.cpp **** {
 12696              		.loc 6 142 0
 12697 5040 488D3D00 		leaq	_ZN12_GLOBAL__N_148testFixturesWithThrowingDtorsAreFailuresInstanceE(%rip), %rdi
 12697      000000
 12698 5047 E8B0D4FF 		call	_ZN12_GLOBAL__N_140TestFixturesWithThrowingDtorsAreFailuresC1Ev
 12698      FF
 12699 504c 488D1500 		leaq	__dso_handle(%rip), %rdx
 12699      000000
 12700 5053 488D3500 		leaq	_ZN12_GLOBAL__N_148testFixturesWithThrowingDtorsAreFailuresInstanceE(%rip), %rsi
 12700      000000
 12701 505a 488D3D89 		leaq	_ZN12_GLOBAL__N_140TestFixturesWithThrowingDtorsAreFailuresD1Ev(%rip), %rdi
 12701      F4FFFF
 12702 5061 E8000000 		call	__cxa_atexit@PLT
 12702      00
 12703 5066 E8000000 		call	_ZN8UnitTest4Test11GetTestListEv@PLT
 12703      00
 12704 506b 488D1500 		leaq	_ZN12_GLOBAL__N_148testFixturesWithThrowingDtorsAreFailuresInstanceE(%rip), %rdx
 12704      000000
 12705 5072 4889C6   		movq	%rax, %rsi
 12706 5075 488D3D00 		leaq	_ZN12_GLOBAL__N_141adderFixturesWithThrowingDtorsAreFailuresE(%rip), %rdi
 12706      000000
 12707 507c E8000000 		call	_ZN8UnitTest9ListAdderC1ERNS_8TestListEPNS_4TestE@PLT
 12707      00
 168:TestTestMacros.cpp **** TEST_FIXTURE_EX(FixtureCtorAsserts, CorrectlyReportsAssertFailureInCtor, ctorAssertFixtureTestList)
 12708              		.loc 6 168 0
 12709 5081 488D3D00 		leaq	_ZN12_GLOBAL__N_125ctorAssertFixtureTestListE(%rip), %rdi
 12709      000000
 12710 5088 E8000000 		call	_ZN8UnitTest8TestListC1Ev@PLT
 12710      00
 169:TestTestMacros.cpp **** {
 12711              		.loc 6 169 0
 12712 508d 488D3D00 		leaq	_ZN12_GLOBAL__N_165testFixtureCtorAssertsCorrectlyReportsAssertFailureInCtorInstanceE(%rip), 
 12712      000000
 12713 5094 E847D8FF 		call	_ZN12_GLOBAL__N_157TestFixtureCtorAssertsCorrectlyReportsAssertFailureInCtorC1Ev
 12713      FF
 12714 5099 488D1500 		leaq	__dso_handle(%rip), %rdx
 12714      000000
 12715 50a0 488D3500 		leaq	_ZN12_GLOBAL__N_165testFixtureCtorAssertsCorrectlyReportsAssertFailureInCtorInstanceE(%rip), 
 12715      000000
 12716 50a7 488D3DCA 		leaq	_ZN12_GLOBAL__N_157TestFixtureCtorAssertsCorrectlyReportsAssertFailureInCtorD1Ev(%rip), %rdi
 12716      F3FFFF
 12717 50ae E8000000 		call	__cxa_atexit@PLT
 12717      00
 12718 50b3 488D1500 		leaq	_ZN12_GLOBAL__N_165testFixtureCtorAssertsCorrectlyReportsAssertFailureInCtorInstanceE(%rip), 
 12718      000000
 12719 50ba 488D3500 		leaq	_ZN12_GLOBAL__N_125ctorAssertFixtureTestListE(%rip), %rsi
 12719      000000
 12720 50c1 488D3D00 		leaq	_ZN12_GLOBAL__N_158adderFixtureCtorAssertsCorrectlyReportsAssertFailureInCtorE(%rip), %rdi
 12720      000000
 12721 50c8 E8000000 		call	_ZN8UnitTest9ListAdderC1ERNS_8TestListEPNS_4TestE@PLT
 12721      00
 173:TestTestMacros.cpp **** {
 12722              		.loc 6 173 0
 12723 50cd 488D3D00 		leaq	_ZN12_GLOBAL__N_155testCorrectlyReportsFixturesWithCtorsThatAssertInstanceE(%rip), %rdi
 12723      000000
 12724 50d4 E841DBFF 		call	_ZN12_GLOBAL__N_147TestCorrectlyReportsFixturesWithCtorsThatAssertC1Ev
 12724      FF
 12725 50d9 488D1500 		leaq	__dso_handle(%rip), %rdx
 12725      000000
 12726 50e0 488D3500 		leaq	_ZN12_GLOBAL__N_155testCorrectlyReportsFixturesWithCtorsThatAssertInstanceE(%rip), %rsi
 12726      000000
 12727 50e7 488D3D18 		leaq	_ZN12_GLOBAL__N_147TestCorrectlyReportsFixturesWithCtorsThatAssertD1Ev(%rip), %rdi
 12727      F3FFFF
 12728 50ee E8000000 		call	__cxa_atexit@PLT
 12728      00
 12729 50f3 E8000000 		call	_ZN8UnitTest4Test11GetTestListEv@PLT
 12729      00
 12730 50f8 488D1500 		leaq	_ZN12_GLOBAL__N_155testCorrectlyReportsFixturesWithCtorsThatAssertInstanceE(%rip), %rdx
 12730      000000
 12731 50ff 4889C6   		movq	%rax, %rsi
 12732 5102 488D3D00 		leaq	_ZN12_GLOBAL__N_148adderCorrectlyReportsFixturesWithCtorsThatAssertE(%rip), %rdi
 12732      000000
 12733 5109 E8000000 		call	_ZN8UnitTest9ListAdderC1ERNS_8TestListEPNS_4TestE@PLT
 12733      00
 195:TestTestMacros.cpp **** 	{
 12734              		.loc 6 195 0
 12735 510e 488D3D00 		leaq	_ZN18SuiteSameTestSuite22testDummyTest1InstanceE(%rip), %rdi
 12735      000000
 12736 5115 E8000000 		call	_ZN18SuiteSameTestSuite14TestDummyTest1C1Ev
 12736      00
 12737 511a 488D1500 		leaq	__dso_handle(%rip), %rdx
 12737      000000
 12738 5121 488D3500 		leaq	_ZN18SuiteSameTestSuite22testDummyTest1InstanceE(%rip), %rsi
 12738      000000
 12739 5128 488D3D00 		leaq	_ZN18SuiteSameTestSuite14TestDummyTest1D1Ev(%rip), %rdi
 12739      000000
 12740 512f E8000000 		call	__cxa_atexit@PLT
 12740      00
 12741 5134 E8000000 		call	_ZN8UnitTest4Test11GetTestListEv@PLT
 12741      00
 12742 5139 488D1500 		leaq	_ZN18SuiteSameTestSuite22testDummyTest1InstanceE(%rip), %rdx
 12742      000000
 12743 5140 4889C6   		movq	%rax, %rsi
 12744 5143 488D3D00 		leaq	_ZN18SuiteSameTestSuite15adderDummyTest1E(%rip), %rdi
 12744      000000
 12745 514a E8000000 		call	_ZN8UnitTest9ListAdderC1ERNS_8TestListEPNS_4TestE@PLT
 12745      00
 204:TestTestMacros.cpp **** {
 12746              		.loc 6 204 0
 12747 514f 488D3D00 		leaq	testCurrentTestDetailsContainCurrentTestInfoInstance(%rip), %rdi
 12747      000000
 12748 5156 E8000000 		call	_ZN44TestCurrentTestDetailsContainCurrentTestInfoC1Ev
 12748      00
 12749 515b 488D1500 		leaq	__dso_handle(%rip), %rdx
 12749      000000
 12750 5162 488D3500 		leaq	testCurrentTestDetailsContainCurrentTestInfoInstance(%rip), %rsi
 12750      000000
 12751 5169 488D3D00 		leaq	_ZN44TestCurrentTestDetailsContainCurrentTestInfoD1Ev(%rip), %rdi
 12751      000000
 12752 5170 E8000000 		call	__cxa_atexit@PLT
 12752      00
 12753 5175 E8000000 		call	_ZN8UnitTest4Test11GetTestListEv@PLT
 12753      00
 12754 517a 488D1500 		leaq	testCurrentTestDetailsContainCurrentTestInfoInstance(%rip), %rdx
 12754      000000
 12755 5181 4889C6   		movq	%rax, %rsi
 12756 5184 488D3D00 		leaq	adderCurrentTestDetailsContainCurrentTestInfo(%rip), %rdi
 12756      000000
 12757 518b E8000000 		call	_ZN8UnitTest9ListAdderC1ERNS_8TestListEPNS_4TestE@PLT
 12757      00
 12758              	.L629:
 12759              		.loc 6 208 0
 12760 5190 90       		nop
 12761 5191 C9       		leave
 12762              		.cfi_def_cfa 7, 8
 12763 5192 C3       		ret
 12764              		.cfi_endproc
 12765              	.LFE1410:
 12768              	_GLOBAL__sub_I__ZN18SuiteSameTestSuite22testDummyTest1InstanceE:
 12769              	.LFB1411:
 12770              		.loc 6 208 0
 12771              		.cfi_startproc
 12772 5193 55       		pushq	%rbp
 12773              		.cfi_def_cfa_offset 16
 12774              		.cfi_offset 6, -16
 12775 5194 4889E5   		movq	%rsp, %rbp
 12776              		.cfi_def_cfa_register 6
 12777              		.loc 6 208 0
 12778 5197 BEFFFF00 		movl	$65535, %esi
 12778      00
 12779 519c BF010000 		movl	$1, %edi
 12779      00
 12780 51a1 E864FAFF 		call	_Z41__static_initialization_and_destruction_0ii
 12780      FF
 12781 51a6 5D       		popq	%rbp
 12782              		.cfi_def_cfa 7, 8
 12783 51a7 C3       		ret
 12784              		.cfi_endproc
 12785              	.LFE1411:
 12787              		.section	.init_array,"aw"
 12788              		.align 8
 12789 0000 00000000 		.quad	_GLOBAL__sub_I__ZN18SuiteSameTestSuite22testDummyTest1InstanceE
 12789      00000000 
 12790              		.text
 12791              	.Letext0:
 12792              		.file 9 "../TestDetails.h"
 12793              		.file 10 "../TestList.h"
 12794              		.file 11 "../TestResults.h"
 12795              		.file 12 "../PosixUtils/SignalTranslator.h"
 12796              		.file 13 "/usr/include/x86_64-linux-gnu/c++/7/bits/c++config.h"
 12797              		.file 14 "/usr/include/c++/7/bits/basic_string.h"
 12798              		.file 15 "/usr/include/c++/7/bits/basic_string.tcc"
 12799              		.file 16 "/usr/include/c++/7/bits/stringfwd.h"
 12800              		.file 17 "/usr/include/c++/7/cwchar"
 12801              		.file 18 "/usr/include/c++/7/bits/char_traits.h"
 12802              		.file 19 "/usr/include/c++/7/clocale"
 12803              		.file 20 "/usr/include/c++/7/bits/allocator.h"
 12804              		.file 21 "/usr/include/c++/7/cwctype"
 12805              		.file 22 "/usr/include/c++/7/cstring"
 12806              		.file 23 "/usr/include/c++/7/debug/debug.h"
 12807              		.file 24 "/usr/include/c++/7/bits/predefined_ops.h"
 12808              		.file 25 "/usr/include/c++/7/ext/new_allocator.h"
 12809              		.file 26 "/usr/include/c++/7/ext/numeric_traits.h"
 12810              		.file 27 "/usr/include/c++/7/ext/alloc_traits.h"
 12811              		.file 28 "/usr/lib/gcc/x86_64-linux-gnu/7/include/stddef.h"
 12812              		.file 29 "<built-in>"
 12813              		.file 30 "/usr/include/x86_64-linux-gnu/bits/types/wint_t.h"
 12814              		.file 31 "/usr/include/x86_64-linux-gnu/bits/types/__mbstate_t.h"
 12815              		.file 32 "/usr/include/x86_64-linux-gnu/bits/types/mbstate_t.h"
 12816              		.file 33 "/usr/include/x86_64-linux-gnu/bits/types/__FILE.h"
 12817              		.file 34 "/usr/include/wchar.h"
 12818              		.file 35 "/usr/include/x86_64-linux-gnu/bits/types/struct_tm.h"
 12819              		.file 36 "/usr/include/locale.h"
 12820              		.file 37 "/usr/include/x86_64-linux-gnu/bits/types.h"
 12821              		.file 38 "/usr/include/time.h"
 12822              		.file 39 "/usr/include/x86_64-linux-gnu/bits/setjmp.h"
 12823              		.file 40 "/usr/include/x86_64-linux-gnu/bits/wctype-wchar.h"
 12824              		.file 41 "/usr/include/wctype.h"
 12825              		.file 42 "/usr/include/x86_64-linux-gnu/bits/types/__sigset_t.h"
 12826              		.file 43 "/usr/include/setjmp.h"
 12827              		.file 44 "/usr/include/x86_64-linux-gnu/bits/types/sigval_t.h"
 12828              		.file 45 "/usr/include/x86_64-linux-gnu/bits/types/siginfo_t.h"
 12829              		.file 46 "/usr/include/signal.h"
 12830              		.file 47 "/usr/include/x86_64-linux-gnu/bits/sigaction.h"
 12831              		.file 48 "/usr/include/x86_64-linux-gnu/sys/time.h"
 12832              		.file 49 "/usr/include/string.h"
 12833              		.file 50 "/usr/include/c++/7/new"
 30554              		.align 8
 30557              	DW.ref._ZTIN8UnitTest15AssertExceptionE:
 30558 0000 00000000 		.quad	_ZTIN8UnitTest15AssertExceptionE
 30558      00000000 
 30559              		.hidden	DW.ref._ZTISt9exception
 30560              		.weak	DW.ref._ZTISt9exception
 30561              		.section	.data.DW.ref._ZTISt9exception,"awG",@progbits,DW.ref._ZTISt9exception,comdat
 30562              		.align 8
 30565              	DW.ref._ZTISt9exception:
 30566 0000 00000000 		.quad	_ZTISt9exception
 30566      00000000 
 30567              		.hidden	DW.ref.__gxx_personality_v0
 30568              		.weak	DW.ref.__gxx_personality_v0
 30569              		.section	.data.DW.ref.__gxx_personality_v0,"awG",@progbits,DW.ref.__gxx_personality_v0,comdat
 30570              		.align 8
 30573              	DW.ref.__gxx_personality_v0:
 30574 0000 00000000 		.quad	__gxx_personality_v0
 30574      00000000 
 30575              		.hidden	__dso_handle
 30576              		.ident	"GCC: (Ubuntu 7.2.0-8ubuntu3.2) 7.2.0"
 30577              		.section	.note.GNU-stack,"",@progbits
DEFINED SYMBOLS
                            *ABS*:0000000000000000 TestTestMacros.cpp
     /tmp/ccqN9HkG.s:10     .text._ZN13UnitTestSuite12GetSuiteNameEv:0000000000000000 _ZN13UnitTestSuite12GetSuiteNameEv
     /tmp/ccqN9HkG.s:33     .text._ZN8UnitTest15MemoryOutStreamC1Ev:0000000000000000 _ZN8UnitTest15MemoryOutStreamC1Ev
     /tmp/ccqN9HkG.s:30573  .data.DW.ref.__gxx_personality_v0:0000000000000000 DW.ref.__gxx_personality_v0
     /tmp/ccqN9HkG.s:11924  .data.rel.ro.local._ZTTN8UnitTest15MemoryOutStreamE:0000000000000000 _ZTTN8UnitTest15MemoryOutStreamE
     /tmp/ccqN9HkG.s:11908  .data.rel.ro.local._ZTVN8UnitTest15MemoryOutStreamE:0000000000000000 _ZTVN8UnitTest15MemoryOutStreamE
     /tmp/ccqN9HkG.s:145    .text._ZN8UnitTest12TestReporterC2Ev:0000000000000000 _ZN8UnitTest12TestReporterC2Ev
     /tmp/ccqN9HkG.s:145    .text._ZN8UnitTest12TestReporterC2Ev:0000000000000000 _ZN8UnitTest12TestReporterC1Ev
     /tmp/ccqN9HkG.s:175    .text._ZN17RecordingReporterC2Ev:0000000000000000 _ZN17RecordingReporterC2Ev
     /tmp/ccqN9HkG.s:11794  .data.rel.ro.local._ZTV17RecordingReporter:0000000000000000 _ZTV17RecordingReporter
     /tmp/ccqN9HkG.s:175    .text._ZN17RecordingReporterC2Ev:0000000000000000 _ZN17RecordingReporterC1Ev
     /tmp/ccqN9HkG.s:254    .text._ZN17RecordingReporter15ReportTestStartERKN8UnitTest11TestDetailsE:0000000000000000 _ZN17RecordingReporter15ReportTestStartERKN8UnitTest11TestDetailsE
     /tmp/ccqN9HkG.s:300    .text._ZN17RecordingReporter13ReportFailureERKN8UnitTest11TestDetailsEPKc:0000000000000000 _ZN17RecordingReporter13ReportFailureERKN8UnitTest11TestDetailsEPKc
     /tmp/ccqN9HkG.s:367    .text._ZN17RecordingReporter16ReportTestFinishERKN8UnitTest11TestDetailsEf:0000000000000000 _ZN17RecordingReporter16ReportTestFinishERKN8UnitTest11TestDetailsEf
     /tmp/ccqN9HkG.s:418    .text._ZN17RecordingReporter13ReportSummaryEiiif:0000000000000000 _ZN17RecordingReporter13ReportSummaryEiiif
     /tmp/ccqN9HkG.s:460    .text._ZN17ScopedCurrentTestC2ERN8UnitTest11TestResultsEPKNS0_11TestDetailsE:0000000000000000 _ZN17ScopedCurrentTestC2ERN8UnitTest11TestResultsEPKNS0_11TestDetailsE
     /tmp/ccqN9HkG.s:460    .text._ZN17ScopedCurrentTestC2ERN8UnitTest11TestResultsEPKNS0_11TestDetailsE:0000000000000000 _ZN17ScopedCurrentTestC1ERN8UnitTest11TestResultsEPKNS0_11TestDetailsE
     /tmp/ccqN9HkG.s:514    .text._ZN17ScopedCurrentTestD2Ev:0000000000000000 _ZN17ScopedCurrentTestD2Ev
     /tmp/ccqN9HkG.s:514    .text._ZN17ScopedCurrentTestD2Ev:0000000000000000 _ZN17ScopedCurrentTestD1Ev
     /tmp/ccqN9HkG.s:550    .bss:0000000000000080 _ZN12_GLOBAL__N_15list1E
     /tmp/ccqN9HkG.s:559    .text:0000000000000000 _ZN12_GLOBAL__N_113TestDummyTestC2Ev
     /tmp/ccqN9HkG.s:11687  .data.rel.ro.local:00000000000002a8 _ZTVN12_GLOBAL__N_113TestDummyTestE
     /tmp/ccqN9HkG.s:559    .text:0000000000000000 _ZN12_GLOBAL__N_113TestDummyTestC1Ev
     /tmp/ccqN9HkG.s:598    .bss:00000000000000a0 _ZN12_GLOBAL__N_121testDummyTestInstanceE
     /tmp/ccqN9HkG.s:598    .bss:00000000000000d8 _ZN12_GLOBAL__N_114adderDummyTestE
     /tmp/ccqN9HkG.s:603    .text:000000000000004c _ZNK12_GLOBAL__N_113TestDummyTest7RunImplEv
     /tmp/ccqN9HkG.s:628    .text:0000000000000058 _ZN12_GLOBAL__N_138TestTestsAreAddedToTheListThroughMacroC2Ev
     /tmp/ccqN9HkG.s:11581  .data.rel.ro.local:0000000000000280 _ZTVN12_GLOBAL__N_138TestTestsAreAddedToTheListThroughMacroE
     /tmp/ccqN9HkG.s:628    .text:0000000000000058 _ZN12_GLOBAL__N_138TestTestsAreAddedToTheListThroughMacroC1Ev
     /tmp/ccqN9HkG.s:666    .bss:00000000000000e0 _ZN12_GLOBAL__N_146testTestsAreAddedToTheListThroughMacroInstanceE
     /tmp/ccqN9HkG.s:666    .bss:0000000000000118 _ZN12_GLOBAL__N_139adderTestsAreAddedToTheListThroughMacroE
     /tmp/ccqN9HkG.s:683    .text:00000000000000a4 _ZNK12_GLOBAL__N_138TestTestsAreAddedToTheListThroughMacro7RunImplEv
     /tmp/ccqN9HkG.s:6997   .text._ZN8UnitTest5CheckIbEEbT_:0000000000000000 _ZN8UnitTest5CheckIbEEbT_
     /tmp/ccqN9HkG.s:911    .text:000000000000025e _ZN12_GLOBAL__N_115ThrowingThingieC2Ev
     /tmp/ccqN9HkG.s:952    .bss:0000000000000120 _ZN12_GLOBAL__N_15list2E
     /tmp/ccqN9HkG.s:955    .text:00000000000002aa _ZN12_GLOBAL__N_134ThrowingThingieDummyTestNameHelperC2ERKN8UnitTest11TestDetailsE
     /tmp/ccqN9HkG.s:955    .text:00000000000002aa _ZN12_GLOBAL__N_134ThrowingThingieDummyTestNameHelperC1ERKN8UnitTest11TestDetailsE
     /tmp/ccqN9HkG.s:990    .text:00000000000002d6 _ZN12_GLOBAL__N_132TestThrowingThingieDummyTestNameC2Ev
     /tmp/ccqN9HkG.s:11475  .data.rel.ro.local:0000000000000258 _ZTVN12_GLOBAL__N_132TestThrowingThingieDummyTestNameE
     /tmp/ccqN9HkG.s:990    .text:00000000000002d6 _ZN12_GLOBAL__N_132TestThrowingThingieDummyTestNameC1Ev
     /tmp/ccqN9HkG.s:1028   .bss:0000000000000140 _ZN12_GLOBAL__N_140testThrowingThingieDummyTestNameInstanceE
     /tmp/ccqN9HkG.s:1028   .bss:0000000000000178 _ZN12_GLOBAL__N_133adderThrowingThingieDummyTestNameE
     /tmp/ccqN9HkG.s:1043   .text:0000000000000322 _ZNK12_GLOBAL__N_132TestThrowingThingieDummyTestName7RunImplEv
     /tmp/ccqN9HkG.s:7025   .text:0000000000003086 _ZN8UnitTest11ExecuteTestIN12_GLOBAL__N_134ThrowingThingieDummyTestNameHelperEEEvRT_RKNS_11TestDetailsE
     /tmp/ccqN9HkG.s:11969  .text._ZN8UnitTest15MemoryOutStreamD1Ev:0000000000000000 _ZN8UnitTest15MemoryOutStreamD1Ev
     /tmp/ccqN9HkG.s:30565  .data.DW.ref._ZTISt9exception:0000000000000000 DW.ref._ZTISt9exception
     /tmp/ccqN9HkG.s:30557  .data.DW.ref._ZTIN8UnitTest15AssertExceptionE:0000000000000000 DW.ref._ZTIN8UnitTest15AssertExceptionE
     /tmp/ccqN9HkG.s:1356   .text:0000000000000604 _ZN12_GLOBAL__N_134ThrowingThingieDummyTestNameHelper7RunImplEv
     /tmp/ccqN9HkG.s:1381   .text:0000000000000610 _ZN12_GLOBAL__N_157TestExceptionsInFixtureAreReportedAsHappeningInTheFixtureC2Ev
     /tmp/ccqN9HkG.s:11369  .data.rel.ro.local:0000000000000230 _ZTVN12_GLOBAL__N_157TestExceptionsInFixtureAreReportedAsHappeningInTheFixtureE
     /tmp/ccqN9HkG.s:1381   .text:0000000000000610 _ZN12_GLOBAL__N_157TestExceptionsInFixtureAreReportedAsHappeningInTheFixtureC1Ev
     /tmp/ccqN9HkG.s:1419   .bss:0000000000000180 _ZN12_GLOBAL__N_165testExceptionsInFixtureAreReportedAsHappeningInTheFixtureInstanceE
     /tmp/ccqN9HkG.s:1419   .bss:00000000000001b8 _ZN12_GLOBAL__N_158adderExceptionsInFixtureAreReportedAsHappeningInTheFixtureE
     /tmp/ccqN9HkG.s:1450   .text:000000000000065c _ZNK12_GLOBAL__N_157TestExceptionsInFixtureAreReportedAsHappeningInTheFixture7RunImplEv
     /tmp/ccqN9HkG.s:7380   .text._ZN8UnitTest5CheckIPcEEbT_:0000000000000000 _ZN8UnitTest5CheckIPcEEbT_
     /tmp/ccqN9HkG.s:11807  .text._ZN17RecordingReporterD2Ev:0000000000000000 _ZN17RecordingReporterD1Ev
     /tmp/ccqN9HkG.s:1816   .text:00000000000009aa _ZN12_GLOBAL__N_115SuiteTestSuite113UnitTestSuite12GetSuiteNameEv
     /tmp/ccqN9HkG.s:1840   .text:00000000000009b8 _ZN12_GLOBAL__N_115SuiteTestSuite144TestSimilarlyNamedTestsInDifferentSuitesWorkC2Ev
     /tmp/ccqN9HkG.s:11263  .data.rel.ro.local:0000000000000208 _ZTVN12_GLOBAL__N_115SuiteTestSuite144TestSimilarlyNamedTestsInDifferentSuitesWorkE
     /tmp/ccqN9HkG.s:1840   .text:00000000000009b8 _ZN12_GLOBAL__N_115SuiteTestSuite144TestSimilarlyNamedTestsInDifferentSuitesWorkC1Ev
     /tmp/ccqN9HkG.s:1878   .bss:00000000000001c0 _ZN12_GLOBAL__N_115SuiteTestSuite152testSimilarlyNamedTestsInDifferentSuitesWorkInstanceE
     /tmp/ccqN9HkG.s:1878   .bss:00000000000001f8 _ZN12_GLOBAL__N_115SuiteTestSuite145adderSimilarlyNamedTestsInDifferentSuitesWorkE
     /tmp/ccqN9HkG.s:1883   .text:0000000000000a04 _ZNK12_GLOBAL__N_115SuiteTestSuite144TestSimilarlyNamedTestsInDifferentSuitesWork7RunImplEv
     /tmp/ccqN9HkG.s:1903   .text:0000000000000a10 _ZN12_GLOBAL__N_115SuiteTestSuite165DummyFixtureSimilarlyNamedFixtureTestsInDifferentSuitesWorkHelperC2ERKN8UnitTest11TestDetailsE
     /tmp/ccqN9HkG.s:1903   .text:0000000000000a10 _ZN12_GLOBAL__N_115SuiteTestSuite165DummyFixtureSimilarlyNamedFixtureTestsInDifferentSuitesWorkHelperC1ERKN8UnitTest11TestDetailsE
     /tmp/ccqN9HkG.s:1935   .text:0000000000000a2c _ZN12_GLOBAL__N_115SuiteTestSuite163TestDummyFixtureSimilarlyNamedFixtureTestsInDifferentSuitesWorkC2Ev
     /tmp/ccqN9HkG.s:11157  .data.rel.ro.local:00000000000001e0 _ZTVN12_GLOBAL__N_115SuiteTestSuite163TestDummyFixtureSimilarlyNamedFixtureTestsInDifferentSuitesWorkE
     /tmp/ccqN9HkG.s:1935   .text:0000000000000a2c _ZN12_GLOBAL__N_115SuiteTestSuite163TestDummyFixtureSimilarlyNamedFixtureTestsInDifferentSuitesWorkC1Ev
     /tmp/ccqN9HkG.s:1973   .bss:0000000000000200 _ZN12_GLOBAL__N_115SuiteTestSuite171testDummyFixtureSimilarlyNamedFixtureTestsInDifferentSuitesWorkInstanceE
     /tmp/ccqN9HkG.s:1973   .bss:0000000000000238 _ZN12_GLOBAL__N_115SuiteTestSuite164adderDummyFixtureSimilarlyNamedFixtureTestsInDifferentSuitesWorkE
     /tmp/ccqN9HkG.s:1986   .text:0000000000000a78 _ZNK12_GLOBAL__N_115SuiteTestSuite163TestDummyFixtureSimilarlyNamedFixtureTestsInDifferentSuitesWork7RunImplEv
     /tmp/ccqN9HkG.s:7402   .text:000000000000334f _ZN8UnitTest11ExecuteTestIN12_GLOBAL__N_115SuiteTestSuite165DummyFixtureSimilarlyNamedFixtureTestsInDifferentSuitesWorkHelperEEEvRT_RKNS_11TestDetailsE
     /tmp/ccqN9HkG.s:2297   .text:0000000000000d5a _ZN12_GLOBAL__N_115SuiteTestSuite165DummyFixtureSimilarlyNamedFixtureTestsInDifferentSuitesWorkHelper7RunImplEv
     /tmp/ccqN9HkG.s:2320   .text:0000000000000d65 _ZN12_GLOBAL__N_115SuiteTestSuite213UnitTestSuite12GetSuiteNameEv
     /tmp/ccqN9HkG.s:2339   .text:0000000000000d72 _ZN12_GLOBAL__N_115SuiteTestSuite244TestSimilarlyNamedTestsInDifferentSuitesWorkC2Ev
     /tmp/ccqN9HkG.s:11051  .data.rel.ro.local:00000000000001b8 _ZTVN12_GLOBAL__N_115SuiteTestSuite244TestSimilarlyNamedTestsInDifferentSuitesWorkE
     /tmp/ccqN9HkG.s:2339   .text:0000000000000d72 _ZN12_GLOBAL__N_115SuiteTestSuite244TestSimilarlyNamedTestsInDifferentSuitesWorkC1Ev
     /tmp/ccqN9HkG.s:2377   .bss:0000000000000240 _ZN12_GLOBAL__N_115SuiteTestSuite252testSimilarlyNamedTestsInDifferentSuitesWorkInstanceE
     /tmp/ccqN9HkG.s:2377   .bss:0000000000000278 _ZN12_GLOBAL__N_115SuiteTestSuite245adderSimilarlyNamedTestsInDifferentSuitesWorkE
     /tmp/ccqN9HkG.s:2382   .text:0000000000000dbe _ZNK12_GLOBAL__N_115SuiteTestSuite244TestSimilarlyNamedTestsInDifferentSuitesWork7RunImplEv
     /tmp/ccqN9HkG.s:2402   .text:0000000000000dca _ZN12_GLOBAL__N_115SuiteTestSuite265DummyFixtureSimilarlyNamedFixtureTestsInDifferentSuitesWorkHelperC2ERKN8UnitTest11TestDetailsE
     /tmp/ccqN9HkG.s:2402   .text:0000000000000dca _ZN12_GLOBAL__N_115SuiteTestSuite265DummyFixtureSimilarlyNamedFixtureTestsInDifferentSuitesWorkHelperC1ERKN8UnitTest11TestDetailsE
     /tmp/ccqN9HkG.s:2429   .text:0000000000000de6 _ZN12_GLOBAL__N_115SuiteTestSuite263TestDummyFixtureSimilarlyNamedFixtureTestsInDifferentSuitesWorkC2Ev
     /tmp/ccqN9HkG.s:10945  .data.rel.ro.local:0000000000000190 _ZTVN12_GLOBAL__N_115SuiteTestSuite263TestDummyFixtureSimilarlyNamedFixtureTestsInDifferentSuitesWorkE
     /tmp/ccqN9HkG.s:2429   .text:0000000000000de6 _ZN12_GLOBAL__N_115SuiteTestSuite263TestDummyFixtureSimilarlyNamedFixtureTestsInDifferentSuitesWorkC1Ev
     /tmp/ccqN9HkG.s:2467   .bss:0000000000000280 _ZN12_GLOBAL__N_115SuiteTestSuite271testDummyFixtureSimilarlyNamedFixtureTestsInDifferentSuitesWorkInstanceE
     /tmp/ccqN9HkG.s:2467   .bss:00000000000002b8 _ZN12_GLOBAL__N_115SuiteTestSuite264adderDummyFixtureSimilarlyNamedFixtureTestsInDifferentSuitesWorkE
     /tmp/ccqN9HkG.s:2472   .text:0000000000000e32 _ZNK12_GLOBAL__N_115SuiteTestSuite263TestDummyFixtureSimilarlyNamedFixtureTestsInDifferentSuitesWork7RunImplEv
     /tmp/ccqN9HkG.s:7754   .text:0000000000003618 _ZN8UnitTest11ExecuteTestIN12_GLOBAL__N_115SuiteTestSuite265DummyFixtureSimilarlyNamedFixtureTestsInDifferentSuitesWorkHelperEEEvRT_RKNS_11TestDetailsE
     /tmp/ccqN9HkG.s:2783   .text:0000000000001114 _ZN12_GLOBAL__N_115SuiteTestSuite265DummyFixtureSimilarlyNamedFixtureTestsInDifferentSuitesWorkHelper7RunImplEv
     /tmp/ccqN9HkG.s:2802   .bss:00000000000002c0 _ZN12_GLOBAL__N_114macroTestList1E
     /tmp/ccqN9HkG.s:2809   .text:0000000000001120 _ZN12_GLOBAL__N_120TestMacroTestHelper1C2Ev
     /tmp/ccqN9HkG.s:10839  .data.rel.ro.local:0000000000000168 _ZTVN12_GLOBAL__N_120TestMacroTestHelper1E
     /tmp/ccqN9HkG.s:2809   .text:0000000000001120 _ZN12_GLOBAL__N_120TestMacroTestHelper1C1Ev
     /tmp/ccqN9HkG.s:2847   .bss:00000000000002e0 _ZN12_GLOBAL__N_128testMacroTestHelper1InstanceE
     /tmp/ccqN9HkG.s:2847   .bss:0000000000000318 _ZN12_GLOBAL__N_121adderMacroTestHelper1E
     /tmp/ccqN9HkG.s:2852   .text:000000000000116c _ZNK12_GLOBAL__N_120TestMacroTestHelper17RunImplEv
     /tmp/ccqN9HkG.s:2877   .text:0000000000001178 _ZN12_GLOBAL__N_145TestTestAddedWithTEST_EXMacroGetsDefaultSuiteC2Ev
     /tmp/ccqN9HkG.s:10733  .data.rel.ro.local:0000000000000140 _ZTVN12_GLOBAL__N_145TestTestAddedWithTEST_EXMacroGetsDefaultSuiteE
     /tmp/ccqN9HkG.s:2877   .text:0000000000001178 _ZN12_GLOBAL__N_145TestTestAddedWithTEST_EXMacroGetsDefaultSuiteC1Ev
     /tmp/ccqN9HkG.s:2915   .bss:0000000000000320 _ZN12_GLOBAL__N_153testTestAddedWithTEST_EXMacroGetsDefaultSuiteInstanceE
     /tmp/ccqN9HkG.s:2915   .bss:0000000000000358 _ZN12_GLOBAL__N_146adderTestAddedWithTEST_EXMacroGetsDefaultSuiteE
     /tmp/ccqN9HkG.s:2934   .text:00000000000011c4 _ZNK12_GLOBAL__N_145TestTestAddedWithTEST_EXMacroGetsDefaultSuite7RunImplEv
     /tmp/ccqN9HkG.s:3224   .bss:0000000000000360 _ZN12_GLOBAL__N_114macroTestList2E
     /tmp/ccqN9HkG.s:3227   .text:0000000000001412 _ZN12_GLOBAL__N_134DummyFixtureMacroTestHelper2HelperC2ERKN8UnitTest11TestDetailsE
     /tmp/ccqN9HkG.s:3227   .text:0000000000001412 _ZN12_GLOBAL__N_134DummyFixtureMacroTestHelper2HelperC1ERKN8UnitTest11TestDetailsE
     /tmp/ccqN9HkG.s:3258   .text:000000000000142e _ZN12_GLOBAL__N_132TestDummyFixtureMacroTestHelper2C2Ev
     /tmp/ccqN9HkG.s:10627  .data.rel.ro.local:0000000000000118 _ZTVN12_GLOBAL__N_132TestDummyFixtureMacroTestHelper2E
     /tmp/ccqN9HkG.s:3258   .text:000000000000142e _ZN12_GLOBAL__N_132TestDummyFixtureMacroTestHelper2C1Ev
     /tmp/ccqN9HkG.s:3296   .bss:0000000000000380 _ZN12_GLOBAL__N_140testDummyFixtureMacroTestHelper2InstanceE
     /tmp/ccqN9HkG.s:3296   .bss:00000000000003b8 _ZN12_GLOBAL__N_133adderDummyFixtureMacroTestHelper2E
     /tmp/ccqN9HkG.s:3301   .text:000000000000147a _ZNK12_GLOBAL__N_132TestDummyFixtureMacroTestHelper27RunImplEv
     /tmp/ccqN9HkG.s:8106   .text:00000000000038e1 _ZN8UnitTest11ExecuteTestIN12_GLOBAL__N_134DummyFixtureMacroTestHelper2HelperEEEvRT_RKNS_11TestDetailsE
     /tmp/ccqN9HkG.s:3612   .text:000000000000175c _ZN12_GLOBAL__N_134DummyFixtureMacroTestHelper2Helper7RunImplEv
     /tmp/ccqN9HkG.s:3637   .text:0000000000001768 _ZN12_GLOBAL__N_153TestTestAddedWithTEST_FIXTURE_EXMacroGetsDefaultSuiteC2Ev
     /tmp/ccqN9HkG.s:10521  .data.rel.ro.local:00000000000000f0 _ZTVN12_GLOBAL__N_153TestTestAddedWithTEST_FIXTURE_EXMacroGetsDefaultSuiteE
     /tmp/ccqN9HkG.s:3637   .text:0000000000001768 _ZN12_GLOBAL__N_153TestTestAddedWithTEST_FIXTURE_EXMacroGetsDefaultSuiteC1Ev
     /tmp/ccqN9HkG.s:3675   .bss:00000000000003c0 _ZN12_GLOBAL__N_161testTestAddedWithTEST_FIXTURE_EXMacroGetsDefaultSuiteInstanceE
     /tmp/ccqN9HkG.s:3675   .bss:00000000000003f8 _ZN12_GLOBAL__N_154adderTestAddedWithTEST_FIXTURE_EXMacroGetsDefaultSuiteE
     /tmp/ccqN9HkG.s:3694   .text:00000000000017b4 _ZNK12_GLOBAL__N_153TestTestAddedWithTEST_FIXTURE_EXMacroGetsDefaultSuite7RunImplEv
     /tmp/ccqN9HkG.s:3989   .text:0000000000001a02 _ZN12_GLOBAL__N_117FixtureCtorThrowsC2Ev
     /tmp/ccqN9HkG.s:4015   .bss:0000000000000400 _ZN12_GLOBAL__N_124throwingFixtureTestList1E
     /tmp/ccqN9HkG.s:4018   .text:0000000000001a36 _ZN12_GLOBAL__N_148FixtureCtorThrowsFixtureCtorThrowsTestNameHelperC2ERKN8UnitTest11TestDetailsE
     /tmp/ccqN9HkG.s:4018   .text:0000000000001a36 _ZN12_GLOBAL__N_148FixtureCtorThrowsFixtureCtorThrowsTestNameHelperC1ERKN8UnitTest11TestDetailsE
     /tmp/ccqN9HkG.s:4053   .text:0000000000001a60 _ZN12_GLOBAL__N_146TestFixtureCtorThrowsFixtureCtorThrowsTestNameC2Ev
     /tmp/ccqN9HkG.s:10415  .data.rel.ro.local:00000000000000c8 _ZTVN12_GLOBAL__N_146TestFixtureCtorThrowsFixtureCtorThrowsTestNameE
     /tmp/ccqN9HkG.s:4053   .text:0000000000001a60 _ZN12_GLOBAL__N_146TestFixtureCtorThrowsFixtureCtorThrowsTestNameC1Ev
     /tmp/ccqN9HkG.s:4091   .bss:0000000000000420 _ZN12_GLOBAL__N_154testFixtureCtorThrowsFixtureCtorThrowsTestNameInstanceE
     /tmp/ccqN9HkG.s:4091   .bss:0000000000000458 _ZN12_GLOBAL__N_147adderFixtureCtorThrowsFixtureCtorThrowsTestNameE
     /tmp/ccqN9HkG.s:4104   .text:0000000000001aac _ZNK12_GLOBAL__N_146TestFixtureCtorThrowsFixtureCtorThrowsTestName7RunImplEv
     /tmp/ccqN9HkG.s:8458   .text:0000000000003baa _ZN8UnitTest11ExecuteTestIN12_GLOBAL__N_148FixtureCtorThrowsFixtureCtorThrowsTestNameHelperEEEvRT_RKNS_11TestDetailsE
     /tmp/ccqN9HkG.s:4417   .text:0000000000001d8e _ZN12_GLOBAL__N_148FixtureCtorThrowsFixtureCtorThrowsTestNameHelper7RunImplEv
     /tmp/ccqN9HkG.s:4442   .text:0000000000001d9a _ZN12_GLOBAL__N_140TestFixturesWithThrowingCtorsAreFailuresC2Ev
     /tmp/ccqN9HkG.s:10309  .data.rel.ro.local:00000000000000a0 _ZTVN12_GLOBAL__N_140TestFixturesWithThrowingCtorsAreFailuresE
     /tmp/ccqN9HkG.s:4442   .text:0000000000001d9a _ZN12_GLOBAL__N_140TestFixturesWithThrowingCtorsAreFailuresC1Ev
     /tmp/ccqN9HkG.s:4480   .bss:0000000000000460 _ZN12_GLOBAL__N_148testFixturesWithThrowingCtorsAreFailuresInstanceE
     /tmp/ccqN9HkG.s:4480   .bss:0000000000000498 _ZN12_GLOBAL__N_141adderFixturesWithThrowingCtorsAreFailuresE
     /tmp/ccqN9HkG.s:4504   .text:0000000000001de6 _ZNK12_GLOBAL__N_140TestFixturesWithThrowingCtorsAreFailures7RunImplEv
     /tmp/ccqN9HkG.s:8817   .text._ZN8UnitTest10CheckEqualIiiEEvRNS_11TestResultsERKT_RKT0_RKNS_11TestDetailsE:0000000000000000 _ZN8UnitTest10CheckEqualIiiEEvRNS_11TestResultsERKT_RKT0_RKNS_11TestDetailsE
     /tmp/ccqN9HkG.s:4879   .text:000000000000212c _ZN12_GLOBAL__N_117FixtureDtorThrowsD2Ev
     /tmp/ccqN9HkG.s:4905   .bss:00000000000004a0 _ZN12_GLOBAL__N_124throwingFixtureTestList2E
     /tmp/ccqN9HkG.s:4908   .text:0000000000002160 _ZN12_GLOBAL__N_148FixtureDtorThrowsFixtureDtorThrowsTestNameHelperC2ERKN8UnitTest11TestDetailsE
     /tmp/ccqN9HkG.s:4908   .text:0000000000002160 _ZN12_GLOBAL__N_148FixtureDtorThrowsFixtureDtorThrowsTestNameHelperC1ERKN8UnitTest11TestDetailsE
     /tmp/ccqN9HkG.s:4939   .text:000000000000217a _ZN12_GLOBAL__N_146TestFixtureDtorThrowsFixtureDtorThrowsTestNameC2Ev
     /tmp/ccqN9HkG.s:10203  .data.rel.ro.local:0000000000000078 _ZTVN12_GLOBAL__N_146TestFixtureDtorThrowsFixtureDtorThrowsTestNameE
     /tmp/ccqN9HkG.s:4939   .text:000000000000217a _ZN12_GLOBAL__N_146TestFixtureDtorThrowsFixtureDtorThrowsTestNameC1Ev
     /tmp/ccqN9HkG.s:4977   .bss:00000000000004c0 _ZN12_GLOBAL__N_154testFixtureDtorThrowsFixtureDtorThrowsTestNameInstanceE
     /tmp/ccqN9HkG.s:4977   .bss:00000000000004f8 _ZN12_GLOBAL__N_147adderFixtureDtorThrowsFixtureDtorThrowsTestNameE
     /tmp/ccqN9HkG.s:4982   .text:00000000000021c6 _ZN12_GLOBAL__N_148FixtureDtorThrowsFixtureDtorThrowsTestNameHelperD2Ev
     /tmp/ccqN9HkG.s:4982   .text:00000000000021c6 _ZN12_GLOBAL__N_148FixtureDtorThrowsFixtureDtorThrowsTestNameHelperD1Ev
     /tmp/ccqN9HkG.s:5017   .text:00000000000021e2 _ZNK12_GLOBAL__N_146TestFixtureDtorThrowsFixtureDtorThrowsTestName7RunImplEv
     /tmp/ccqN9HkG.s:8956   .text:0000000000003e73 _ZN8UnitTest11ExecuteTestIN12_GLOBAL__N_148FixtureDtorThrowsFixtureDtorThrowsTestNameHelperEEEvRT_RKNS_11TestDetailsE
     /tmp/ccqN9HkG.s:5353   .text:00000000000024f0 _ZN12_GLOBAL__N_148FixtureDtorThrowsFixtureDtorThrowsTestNameHelper7RunImplEv
     /tmp/ccqN9HkG.s:5378   .text:00000000000024fc _ZN12_GLOBAL__N_140TestFixturesWithThrowingDtorsAreFailuresC2Ev
     /tmp/ccqN9HkG.s:10097  .data.rel.ro.local:0000000000000050 _ZTVN12_GLOBAL__N_140TestFixturesWithThrowingDtorsAreFailuresE
     /tmp/ccqN9HkG.s:5378   .text:00000000000024fc _ZN12_GLOBAL__N_140TestFixturesWithThrowingDtorsAreFailuresC1Ev
     /tmp/ccqN9HkG.s:5416   .bss:0000000000000500 _ZN12_GLOBAL__N_148testFixturesWithThrowingDtorsAreFailuresInstanceE
     /tmp/ccqN9HkG.s:5416   .bss:0000000000000538 _ZN12_GLOBAL__N_141adderFixturesWithThrowingDtorsAreFailuresE
     /tmp/ccqN9HkG.s:5437   .text:0000000000002548 _ZNK12_GLOBAL__N_140TestFixturesWithThrowingDtorsAreFailures7RunImplEv
     /tmp/ccqN9HkG.s:5814   .rodata:0000000000000bc8 _ZN12_GLOBAL__N_1L11FailingLineE
     /tmp/ccqN9HkG.s:5823   .text:000000000000288e _ZN12_GLOBAL__N_118FixtureCtorAssertsC2Ev
     /tmp/ccqN9HkG.s:5850   .bss:0000000000000540 _ZN12_GLOBAL__N_125ctorAssertFixtureTestListE
     /tmp/ccqN9HkG.s:5853   .text:00000000000028b6 _ZN12_GLOBAL__N_159FixtureCtorAssertsCorrectlyReportsAssertFailureInCtorHelperC2ERKN8UnitTest11TestDetailsE
     /tmp/ccqN9HkG.s:5853   .text:00000000000028b6 _ZN12_GLOBAL__N_159FixtureCtorAssertsCorrectlyReportsAssertFailureInCtorHelperC1ERKN8UnitTest11TestDetailsE
     /tmp/ccqN9HkG.s:5889   .text:00000000000028e0 _ZN12_GLOBAL__N_157TestFixtureCtorAssertsCorrectlyReportsAssertFailureInCtorC2Ev
     /tmp/ccqN9HkG.s:9991   .data.rel.ro.local:0000000000000028 _ZTVN12_GLOBAL__N_157TestFixtureCtorAssertsCorrectlyReportsAssertFailureInCtorE
     /tmp/ccqN9HkG.s:5889   .text:00000000000028e0 _ZN12_GLOBAL__N_157TestFixtureCtorAssertsCorrectlyReportsAssertFailureInCtorC1Ev
     /tmp/ccqN9HkG.s:5927   .bss:0000000000000560 _ZN12_GLOBAL__N_165testFixtureCtorAssertsCorrectlyReportsAssertFailureInCtorInstanceE
     /tmp/ccqN9HkG.s:5927   .bss:0000000000000598 _ZN12_GLOBAL__N_158adderFixtureCtorAssertsCorrectlyReportsAssertFailureInCtorE
     /tmp/ccqN9HkG.s:5940   .text:000000000000292c _ZNK12_GLOBAL__N_157TestFixtureCtorAssertsCorrectlyReportsAssertFailureInCtor7RunImplEv
     /tmp/ccqN9HkG.s:9308   .text:000000000000413c _ZN8UnitTest11ExecuteTestIN12_GLOBAL__N_159FixtureCtorAssertsCorrectlyReportsAssertFailureInCtorHelperEEEvRT_RKNS_11TestDetailsE
     /tmp/ccqN9HkG.s:6253   .text:0000000000002c0e _ZN12_GLOBAL__N_159FixtureCtorAssertsCorrectlyReportsAssertFailureInCtorHelper7RunImplEv
     /tmp/ccqN9HkG.s:6278   .text:0000000000002c1a _ZN12_GLOBAL__N_147TestCorrectlyReportsFixturesWithCtorsThatAssertC2Ev
     /tmp/ccqN9HkG.s:9885   .data.rel.ro.local:0000000000000000 _ZTVN12_GLOBAL__N_147TestCorrectlyReportsFixturesWithCtorsThatAssertE
     /tmp/ccqN9HkG.s:6278   .text:0000000000002c1a _ZN12_GLOBAL__N_147TestCorrectlyReportsFixturesWithCtorsThatAssertC1Ev
     /tmp/ccqN9HkG.s:6316   .bss:00000000000005a0 _ZN12_GLOBAL__N_155testCorrectlyReportsFixturesWithCtorsThatAssertInstanceE
     /tmp/ccqN9HkG.s:6316   .bss:00000000000005d8 _ZN12_GLOBAL__N_148adderCorrectlyReportsFixturesWithCtorsThatAssertE
     /tmp/ccqN9HkG.s:6332   .text:0000000000002c66 _ZNK12_GLOBAL__N_147TestCorrectlyReportsFixturesWithCtorsThatAssert7RunImplEv
     /tmp/ccqN9HkG.s:6694   .text._ZN18SuiteSameTestSuite13UnitTestSuite12GetSuiteNameEv:0000000000000000 _ZN18SuiteSameTestSuite13UnitTestSuite12GetSuiteNameEv
     /tmp/ccqN9HkG.s:6718   .text._ZN18SuiteSameTestSuite14TestDummyTest1C2Ev:0000000000000000 _ZN18SuiteSameTestSuite14TestDummyTest1C2Ev
     /tmp/ccqN9HkG.s:9775   .data.rel.ro.local._ZTVN18SuiteSameTestSuite14TestDummyTest1E:0000000000000000 _ZTVN18SuiteSameTestSuite14TestDummyTest1E
     /tmp/ccqN9HkG.s:6718   .text._ZN18SuiteSameTestSuite14TestDummyTest1C2Ev:0000000000000000 _ZN18SuiteSameTestSuite14TestDummyTest1C1Ev
     /tmp/ccqN9HkG.s:6761   .bss:0000000000000000 _ZN18SuiteSameTestSuite22testDummyTest1InstanceE
     /tmp/ccqN9HkG.s:6766   .bss:0000000000000038 _ZN18SuiteSameTestSuite15adderDummyTest1E
     /tmp/ccqN9HkG.s:6772   .text:0000000000002f94 _ZNK18SuiteSameTestSuite14TestDummyTest17RunImplEv
     /tmp/ccqN9HkG.s:6798   .text._ZN44TestCurrentTestDetailsContainCurrentTestInfoC2Ev:0000000000000000 _ZN44TestCurrentTestDetailsContainCurrentTestInfoC2Ev
     /tmp/ccqN9HkG.s:9664   .data.rel.ro.local._ZTV44TestCurrentTestDetailsContainCurrentTestInfo:0000000000000000 _ZTV44TestCurrentTestDetailsContainCurrentTestInfo
     /tmp/ccqN9HkG.s:6798   .text._ZN44TestCurrentTestDetailsContainCurrentTestInfoC2Ev:0000000000000000 _ZN44TestCurrentTestDetailsContainCurrentTestInfoC1Ev
     /tmp/ccqN9HkG.s:6841   .bss:0000000000000040 testCurrentTestDetailsContainCurrentTestInfoInstance
     /tmp/ccqN9HkG.s:6846   .bss:0000000000000078 adderCurrentTestDetailsContainCurrentTestInfo
     /tmp/ccqN9HkG.s:6856   .text:0000000000002fa0 _ZNK44TestCurrentTestDetailsContainCurrentTestInfo7RunImplEv
     /tmp/ccqN9HkG.s:12173  .data.rel.ro._ZTI44TestCurrentTestDetailsContainCurrentTestInfo:0000000000000000 _ZTI44TestCurrentTestDetailsContainCurrentTestInfo
     /tmp/ccqN9HkG.s:9674   .text._ZN44TestCurrentTestDetailsContainCurrentTestInfoD2Ev:0000000000000000 _ZN44TestCurrentTestDetailsContainCurrentTestInfoD1Ev
     /tmp/ccqN9HkG.s:9707   .text._ZN44TestCurrentTestDetailsContainCurrentTestInfoD0Ev:0000000000000000 _ZN44TestCurrentTestDetailsContainCurrentTestInfoD0Ev
     /tmp/ccqN9HkG.s:9674   .text._ZN44TestCurrentTestDetailsContainCurrentTestInfoD2Ev:0000000000000000 _ZN44TestCurrentTestDetailsContainCurrentTestInfoD2Ev
     /tmp/ccqN9HkG.s:12189  .data.rel.ro._ZTIN18SuiteSameTestSuite14TestDummyTest1E:0000000000000000 _ZTIN18SuiteSameTestSuite14TestDummyTest1E
     /tmp/ccqN9HkG.s:9785   .text._ZN18SuiteSameTestSuite14TestDummyTest1D2Ev:0000000000000000 _ZN18SuiteSameTestSuite14TestDummyTest1D1Ev
     /tmp/ccqN9HkG.s:9818   .text._ZN18SuiteSameTestSuite14TestDummyTest1D0Ev:0000000000000000 _ZN18SuiteSameTestSuite14TestDummyTest1D0Ev
     /tmp/ccqN9HkG.s:9785   .text._ZN18SuiteSameTestSuite14TestDummyTest1D2Ev:0000000000000000 _ZN18SuiteSameTestSuite14TestDummyTest1D2Ev
     /tmp/ccqN9HkG.s:12210  .data.rel.ro:0000000000000000 _ZTIN12_GLOBAL__N_147TestCorrectlyReportsFixturesWithCtorsThatAssertE
     /tmp/ccqN9HkG.s:9894   .text:0000000000004406 _ZN12_GLOBAL__N_147TestCorrectlyReportsFixturesWithCtorsThatAssertD1Ev
     /tmp/ccqN9HkG.s:9924   .text:0000000000004430 _ZN12_GLOBAL__N_147TestCorrectlyReportsFixturesWithCtorsThatAssertD0Ev
     /tmp/ccqN9HkG.s:9894   .text:0000000000004406 _ZN12_GLOBAL__N_147TestCorrectlyReportsFixturesWithCtorsThatAssertD2Ev
     /tmp/ccqN9HkG.s:12224  .data.rel.ro:0000000000000018 _ZTIN12_GLOBAL__N_157TestFixtureCtorAssertsCorrectlyReportsAssertFailureInCtorE
     /tmp/ccqN9HkG.s:10000  .text:0000000000004478 _ZN12_GLOBAL__N_157TestFixtureCtorAssertsCorrectlyReportsAssertFailureInCtorD1Ev
     /tmp/ccqN9HkG.s:10030  .text:00000000000044a2 _ZN12_GLOBAL__N_157TestFixtureCtorAssertsCorrectlyReportsAssertFailureInCtorD0Ev
     /tmp/ccqN9HkG.s:10000  .text:0000000000004478 _ZN12_GLOBAL__N_157TestFixtureCtorAssertsCorrectlyReportsAssertFailureInCtorD2Ev
     /tmp/ccqN9HkG.s:12238  .data.rel.ro:0000000000000030 _ZTIN12_GLOBAL__N_140TestFixturesWithThrowingDtorsAreFailuresE
     /tmp/ccqN9HkG.s:10106  .text:00000000000044ea _ZN12_GLOBAL__N_140TestFixturesWithThrowingDtorsAreFailuresD1Ev
     /tmp/ccqN9HkG.s:10136  .text:0000000000004514 _ZN12_GLOBAL__N_140TestFixturesWithThrowingDtorsAreFailuresD0Ev
     /tmp/ccqN9HkG.s:10106  .text:00000000000044ea _ZN12_GLOBAL__N_140TestFixturesWithThrowingDtorsAreFailuresD2Ev
     /tmp/ccqN9HkG.s:12252  .data.rel.ro:0000000000000048 _ZTIN12_GLOBAL__N_146TestFixtureDtorThrowsFixtureDtorThrowsTestNameE
     /tmp/ccqN9HkG.s:10212  .text:000000000000455c _ZN12_GLOBAL__N_146TestFixtureDtorThrowsFixtureDtorThrowsTestNameD1Ev
     /tmp/ccqN9HkG.s:10242  .text:0000000000004586 _ZN12_GLOBAL__N_146TestFixtureDtorThrowsFixtureDtorThrowsTestNameD0Ev
     /tmp/ccqN9HkG.s:10212  .text:000000000000455c _ZN12_GLOBAL__N_146TestFixtureDtorThrowsFixtureDtorThrowsTestNameD2Ev
     /tmp/ccqN9HkG.s:12266  .data.rel.ro:0000000000000060 _ZTIN12_GLOBAL__N_140TestFixturesWithThrowingCtorsAreFailuresE
     /tmp/ccqN9HkG.s:10318  .text:00000000000045ce _ZN12_GLOBAL__N_140TestFixturesWithThrowingCtorsAreFailuresD1Ev
     /tmp/ccqN9HkG.s:10348  .text:00000000000045f8 _ZN12_GLOBAL__N_140TestFixturesWithThrowingCtorsAreFailuresD0Ev
     /tmp/ccqN9HkG.s:10318  .text:00000000000045ce _ZN12_GLOBAL__N_140TestFixturesWithThrowingCtorsAreFailuresD2Ev
     /tmp/ccqN9HkG.s:12280  .data.rel.ro:0000000000000078 _ZTIN12_GLOBAL__N_146TestFixtureCtorThrowsFixtureCtorThrowsTestNameE
     /tmp/ccqN9HkG.s:10424  .text:0000000000004640 _ZN12_GLOBAL__N_146TestFixtureCtorThrowsFixtureCtorThrowsTestNameD1Ev
     /tmp/ccqN9HkG.s:10454  .text:000000000000466a _ZN12_GLOBAL__N_146TestFixtureCtorThrowsFixtureCtorThrowsTestNameD0Ev
     /tmp/ccqN9HkG.s:10424  .text:0000000000004640 _ZN12_GLOBAL__N_146TestFixtureCtorThrowsFixtureCtorThrowsTestNameD2Ev
     /tmp/ccqN9HkG.s:12294  .data.rel.ro:0000000000000090 _ZTIN12_GLOBAL__N_153TestTestAddedWithTEST_FIXTURE_EXMacroGetsDefaultSuiteE
     /tmp/ccqN9HkG.s:10530  .text:00000000000046b2 _ZN12_GLOBAL__N_153TestTestAddedWithTEST_FIXTURE_EXMacroGetsDefaultSuiteD1Ev
     /tmp/ccqN9HkG.s:10560  .text:00000000000046dc _ZN12_GLOBAL__N_153TestTestAddedWithTEST_FIXTURE_EXMacroGetsDefaultSuiteD0Ev
     /tmp/ccqN9HkG.s:10530  .text:00000000000046b2 _ZN12_GLOBAL__N_153TestTestAddedWithTEST_FIXTURE_EXMacroGetsDefaultSuiteD2Ev
     /tmp/ccqN9HkG.s:12308  .data.rel.ro:00000000000000a8 _ZTIN12_GLOBAL__N_132TestDummyFixtureMacroTestHelper2E
     /tmp/ccqN9HkG.s:10636  .text:0000000000004724 _ZN12_GLOBAL__N_132TestDummyFixtureMacroTestHelper2D1Ev
     /tmp/ccqN9HkG.s:10666  .text:000000000000474e _ZN12_GLOBAL__N_132TestDummyFixtureMacroTestHelper2D0Ev
     /tmp/ccqN9HkG.s:10636  .text:0000000000004724 _ZN12_GLOBAL__N_132TestDummyFixtureMacroTestHelper2D2Ev
     /tmp/ccqN9HkG.s:12322  .data.rel.ro:00000000000000c0 _ZTIN12_GLOBAL__N_145TestTestAddedWithTEST_EXMacroGetsDefaultSuiteE
     /tmp/ccqN9HkG.s:10742  .text:0000000000004796 _ZN12_GLOBAL__N_145TestTestAddedWithTEST_EXMacroGetsDefaultSuiteD1Ev
     /tmp/ccqN9HkG.s:10772  .text:00000000000047c0 _ZN12_GLOBAL__N_145TestTestAddedWithTEST_EXMacroGetsDefaultSuiteD0Ev
     /tmp/ccqN9HkG.s:10742  .text:0000000000004796 _ZN12_GLOBAL__N_145TestTestAddedWithTEST_EXMacroGetsDefaultSuiteD2Ev
     /tmp/ccqN9HkG.s:12336  .data.rel.ro:00000000000000d8 _ZTIN12_GLOBAL__N_120TestMacroTestHelper1E
     /tmp/ccqN9HkG.s:10848  .text:0000000000004808 _ZN12_GLOBAL__N_120TestMacroTestHelper1D1Ev
     /tmp/ccqN9HkG.s:10878  .text:0000000000004832 _ZN12_GLOBAL__N_120TestMacroTestHelper1D0Ev
     /tmp/ccqN9HkG.s:10848  .text:0000000000004808 _ZN12_GLOBAL__N_120TestMacroTestHelper1D2Ev
     /tmp/ccqN9HkG.s:12350  .data.rel.ro:00000000000000f0 _ZTIN12_GLOBAL__N_115SuiteTestSuite263TestDummyFixtureSimilarlyNamedFixtureTestsInDifferentSuitesWorkE
     /tmp/ccqN9HkG.s:10954  .text:000000000000487a _ZN12_GLOBAL__N_115SuiteTestSuite263TestDummyFixtureSimilarlyNamedFixtureTestsInDifferentSuitesWorkD1Ev
     /tmp/ccqN9HkG.s:10984  .text:00000000000048a4 _ZN12_GLOBAL__N_115SuiteTestSuite263TestDummyFixtureSimilarlyNamedFixtureTestsInDifferentSuitesWorkD0Ev
     /tmp/ccqN9HkG.s:10954  .text:000000000000487a _ZN12_GLOBAL__N_115SuiteTestSuite263TestDummyFixtureSimilarlyNamedFixtureTestsInDifferentSuitesWorkD2Ev
     /tmp/ccqN9HkG.s:12364  .data.rel.ro:0000000000000108 _ZTIN12_GLOBAL__N_115SuiteTestSuite244TestSimilarlyNamedTestsInDifferentSuitesWorkE
     /tmp/ccqN9HkG.s:11060  .text:00000000000048ec _ZN12_GLOBAL__N_115SuiteTestSuite244TestSimilarlyNamedTestsInDifferentSuitesWorkD1Ev
     /tmp/ccqN9HkG.s:11090  .text:0000000000004916 _ZN12_GLOBAL__N_115SuiteTestSuite244TestSimilarlyNamedTestsInDifferentSuitesWorkD0Ev
     /tmp/ccqN9HkG.s:11060  .text:00000000000048ec _ZN12_GLOBAL__N_115SuiteTestSuite244TestSimilarlyNamedTestsInDifferentSuitesWorkD2Ev
     /tmp/ccqN9HkG.s:12378  .data.rel.ro:0000000000000120 _ZTIN12_GLOBAL__N_115SuiteTestSuite163TestDummyFixtureSimilarlyNamedFixtureTestsInDifferentSuitesWorkE
     /tmp/ccqN9HkG.s:11166  .text:000000000000495e _ZN12_GLOBAL__N_115SuiteTestSuite163TestDummyFixtureSimilarlyNamedFixtureTestsInDifferentSuitesWorkD1Ev
     /tmp/ccqN9HkG.s:11196  .text:0000000000004988 _ZN12_GLOBAL__N_115SuiteTestSuite163TestDummyFixtureSimilarlyNamedFixtureTestsInDifferentSuitesWorkD0Ev
     /tmp/ccqN9HkG.s:11166  .text:000000000000495e _ZN12_GLOBAL__N_115SuiteTestSuite163TestDummyFixtureSimilarlyNamedFixtureTestsInDifferentSuitesWorkD2Ev
     /tmp/ccqN9HkG.s:12392  .data.rel.ro:0000000000000138 _ZTIN12_GLOBAL__N_115SuiteTestSuite144TestSimilarlyNamedTestsInDifferentSuitesWorkE
     /tmp/ccqN9HkG.s:11272  .text:00000000000049d0 _ZN12_GLOBAL__N_115SuiteTestSuite144TestSimilarlyNamedTestsInDifferentSuitesWorkD1Ev
     /tmp/ccqN9HkG.s:11302  .text:00000000000049fa _ZN12_GLOBAL__N_115SuiteTestSuite144TestSimilarlyNamedTestsInDifferentSuitesWorkD0Ev
     /tmp/ccqN9HkG.s:11272  .text:00000000000049d0 _ZN12_GLOBAL__N_115SuiteTestSuite144TestSimilarlyNamedTestsInDifferentSuitesWorkD2Ev
     /tmp/ccqN9HkG.s:12406  .data.rel.ro:0000000000000150 _ZTIN12_GLOBAL__N_157TestExceptionsInFixtureAreReportedAsHappeningInTheFixtureE
     /tmp/ccqN9HkG.s:11378  .text:0000000000004a42 _ZN12_GLOBAL__N_157TestExceptionsInFixtureAreReportedAsHappeningInTheFixtureD1Ev
     /tmp/ccqN9HkG.s:11408  .text:0000000000004a6c _ZN12_GLOBAL__N_157TestExceptionsInFixtureAreReportedAsHappeningInTheFixtureD0Ev
     /tmp/ccqN9HkG.s:11378  .text:0000000000004a42 _ZN12_GLOBAL__N_157TestExceptionsInFixtureAreReportedAsHappeningInTheFixtureD2Ev
     /tmp/ccqN9HkG.s:12420  .data.rel.ro:0000000000000168 _ZTIN12_GLOBAL__N_132TestThrowingThingieDummyTestNameE
     /tmp/ccqN9HkG.s:11484  .text:0000000000004ab4 _ZN12_GLOBAL__N_132TestThrowingThingieDummyTestNameD1Ev
     /tmp/ccqN9HkG.s:11514  .text:0000000000004ade _ZN12_GLOBAL__N_132TestThrowingThingieDummyTestNameD0Ev
     /tmp/ccqN9HkG.s:11484  .text:0000000000004ab4 _ZN12_GLOBAL__N_132TestThrowingThingieDummyTestNameD2Ev
     /tmp/ccqN9HkG.s:12434  .data.rel.ro:0000000000000180 _ZTIN12_GLOBAL__N_138TestTestsAreAddedToTheListThroughMacroE
     /tmp/ccqN9HkG.s:11590  .text:0000000000004b26 _ZN12_GLOBAL__N_138TestTestsAreAddedToTheListThroughMacroD1Ev
     /tmp/ccqN9HkG.s:11620  .text:0000000000004b50 _ZN12_GLOBAL__N_138TestTestsAreAddedToTheListThroughMacroD0Ev
     /tmp/ccqN9HkG.s:11590  .text:0000000000004b26 _ZN12_GLOBAL__N_138TestTestsAreAddedToTheListThroughMacroD2Ev
     /tmp/ccqN9HkG.s:12448  .data.rel.ro:0000000000000198 _ZTIN12_GLOBAL__N_113TestDummyTestE
     /tmp/ccqN9HkG.s:11696  .text:0000000000004b98 _ZN12_GLOBAL__N_113TestDummyTestD1Ev
     /tmp/ccqN9HkG.s:11726  .text:0000000000004bc2 _ZN12_GLOBAL__N_113TestDummyTestD0Ev
     /tmp/ccqN9HkG.s:11696  .text:0000000000004b98 _ZN12_GLOBAL__N_113TestDummyTestD2Ev
     /tmp/ccqN9HkG.s:12457  .data.rel.ro._ZTI17RecordingReporter:0000000000000000 _ZTI17RecordingReporter
     /tmp/ccqN9HkG.s:11840  .text._ZN17RecordingReporterD0Ev:0000000000000000 _ZN17RecordingReporterD0Ev
     /tmp/ccqN9HkG.s:11807  .text._ZN17RecordingReporterD2Ev:0000000000000000 _ZN17RecordingReporterD2Ev
     /tmp/ccqN9HkG.s:12473  .data.rel.ro._ZTIN8UnitTest15MemoryOutStreamE:0000000000000000 _ZTIN8UnitTest15MemoryOutStreamE
     /tmp/ccqN9HkG.s:12092  .text._ZN8UnitTest15MemoryOutStreamD0Ev:0000000000000000 _ZN8UnitTest15MemoryOutStreamD0Ev
     /tmp/ccqN9HkG.s:12078  .text._ZN8UnitTest15MemoryOutStreamD1Ev:00000000000000ac _ZTv0_n24_N8UnitTest15MemoryOutStreamD1Ev
     /tmp/ccqN9HkG.s:12158  .text._ZN8UnitTest15MemoryOutStreamD0Ev:0000000000000048 _ZTv0_n24_N8UnitTest15MemoryOutStreamD0Ev
     /tmp/ccqN9HkG.s:11937  .data.rel.ro._ZTCN8UnitTest15MemoryOutStreamE0_NSt7__cxx1119basic_ostringstreamIcSt11char_traitsIcESaIcEEE:0000000000000000 _ZTCN8UnitTest15MemoryOutStreamE0_NSt7__cxx1119basic_ostringstreamIcSt11char_traitsIcESaIcEEE
     /tmp/ccqN9HkG.s:11954  .data.rel.ro._ZTCN8UnitTest15MemoryOutStreamE0_So:0000000000000000 _ZTCN8UnitTest15MemoryOutStreamE0_So
     /tmp/ccqN9HkG.s:12182  .rodata._ZTS44TestCurrentTestDetailsContainCurrentTestInfo:0000000000000000 _ZTS44TestCurrentTestDetailsContainCurrentTestInfo
     /tmp/ccqN9HkG.s:12198  .rodata._ZTSN18SuiteSameTestSuite14TestDummyTest1E:0000000000000000 _ZTSN18SuiteSameTestSuite14TestDummyTest1E
     /tmp/ccqN9HkG.s:12204  .rodata:0000000000000ea0 _ZTSN12_GLOBAL__N_147TestCorrectlyReportsFixturesWithCtorsThatAssertE
     /tmp/ccqN9HkG.s:12218  .rodata:0000000000000f00 _ZTSN12_GLOBAL__N_157TestFixtureCtorAssertsCorrectlyReportsAssertFailureInCtorE
     /tmp/ccqN9HkG.s:12232  .rodata:0000000000000f60 _ZTSN12_GLOBAL__N_140TestFixturesWithThrowingDtorsAreFailuresE
     /tmp/ccqN9HkG.s:12246  .rodata:0000000000000fa0 _ZTSN12_GLOBAL__N_146TestFixtureDtorThrowsFixtureDtorThrowsTestNameE
     /tmp/ccqN9HkG.s:12260  .rodata:0000000000001000 _ZTSN12_GLOBAL__N_140TestFixturesWithThrowingCtorsAreFailuresE
     /tmp/ccqN9HkG.s:12274  .rodata:0000000000001040 _ZTSN12_GLOBAL__N_146TestFixtureCtorThrowsFixtureCtorThrowsTestNameE
     /tmp/ccqN9HkG.s:12288  .rodata:00000000000010a0 _ZTSN12_GLOBAL__N_153TestTestAddedWithTEST_FIXTURE_EXMacroGetsDefaultSuiteE
     /tmp/ccqN9HkG.s:12302  .rodata:0000000000001100 _ZTSN12_GLOBAL__N_132TestDummyFixtureMacroTestHelper2E
     /tmp/ccqN9HkG.s:12316  .rodata:0000000000001140 _ZTSN12_GLOBAL__N_145TestTestAddedWithTEST_EXMacroGetsDefaultSuiteE
     /tmp/ccqN9HkG.s:12330  .rodata:00000000000011a0 _ZTSN12_GLOBAL__N_120TestMacroTestHelper1E
     /tmp/ccqN9HkG.s:12344  .rodata:00000000000011e0 _ZTSN12_GLOBAL__N_115SuiteTestSuite263TestDummyFixtureSimilarlyNamedFixtureTestsInDifferentSuitesWorkE
     /tmp/ccqN9HkG.s:12358  .rodata:0000000000001260 _ZTSN12_GLOBAL__N_115SuiteTestSuite244TestSimilarlyNamedTestsInDifferentSuitesWorkE
     /tmp/ccqN9HkG.s:12372  .rodata:00000000000012c0 _ZTSN12_GLOBAL__N_115SuiteTestSuite163TestDummyFixtureSimilarlyNamedFixtureTestsInDifferentSuitesWorkE
     /tmp/ccqN9HkG.s:12386  .rodata:0000000000001340 _ZTSN12_GLOBAL__N_115SuiteTestSuite144TestSimilarlyNamedTestsInDifferentSuitesWorkE
     /tmp/ccqN9HkG.s:12400  .rodata:00000000000013a0 _ZTSN12_GLOBAL__N_157TestExceptionsInFixtureAreReportedAsHappeningInTheFixtureE
     /tmp/ccqN9HkG.s:12414  .rodata:0000000000001400 _ZTSN12_GLOBAL__N_132TestThrowingThingieDummyTestNameE
     /tmp/ccqN9HkG.s:12428  .rodata:0000000000001440 _ZTSN12_GLOBAL__N_138TestTestsAreAddedToTheListThroughMacroE
     /tmp/ccqN9HkG.s:12442  .rodata:0000000000001480 _ZTSN12_GLOBAL__N_113TestDummyTestE
     /tmp/ccqN9HkG.s:12466  .rodata._ZTS17RecordingReporter:0000000000000000 _ZTS17RecordingReporter
     /tmp/ccqN9HkG.s:12482  .rodata._ZTSN8UnitTest15MemoryOutStreamE:0000000000000000 _ZTSN8UnitTest15MemoryOutStreamE
     /tmp/ccqN9HkG.s:12486  .text:0000000000004c0a _Z41__static_initialization_and_destruction_0ii
     /tmp/ccqN9HkG.s:12768  .text:0000000000005193 _GLOBAL__sub_I__ZN18SuiteSameTestSuite22testDummyTest1InstanceE
                           .group:0000000000000000 _ZN8UnitTest12TestReporterC5Ev
                           .group:0000000000000000 _ZN17RecordingReporterC5Ev
                           .group:0000000000000000 _ZN17ScopedCurrentTestC5ERN8UnitTest11TestResultsEPKNS0_11TestDetailsE
                           .group:0000000000000000 _ZN17ScopedCurrentTestD5Ev
                           .group:0000000000000000 _ZN18SuiteSameTestSuite14TestDummyTest1C5Ev
                           .group:0000000000000000 _ZN44TestCurrentTestDetailsContainCurrentTestInfoC5Ev
                           .group:0000000000000000 _ZN44TestCurrentTestDetailsContainCurrentTestInfoD5Ev
                           .group:0000000000000000 _ZN18SuiteSameTestSuite14TestDummyTest1D5Ev
                           .group:0000000000000000 _ZN17RecordingReporterD5Ev

UNDEFINED SYMBOLS
_GLOBAL_OFFSET_TABLE_
_ZNSt9basic_iosIcSt11char_traitsIcEEC2Ev
_ZNSt7__cxx1119basic_ostringstreamIcSt11char_traitsIcESaIcEEC2ESt13_Ios_Openmode
_ZNSt7__cxx1112basic_stringIcSt11char_traitsIcESaIcEEC1Ev
_ZNSt7__cxx1119basic_ostringstreamIcSt11char_traitsIcESaIcEED2Ev
_ZNSt9basic_iosIcSt11char_traitsIcEED2Ev
_Unwind_Resume
__gxx_personality_v0
_ZTVN8UnitTest12TestReporterE
strcpy
_ZN8UnitTest11CurrentTest7ResultsEv
_ZN8UnitTest11CurrentTest7DetailsEv
_ZN8UnitTest4TestC2EPKcS2_S2_i
_ZNK8UnitTest8TestList7GetHeadEv
_ZN8UnitTest11TestDetailsC1ERKS0_i
_ZN8UnitTest11TestResults13OnTestFailureERKNS_11TestDetailsEPKc
__cxa_begin_catch
__cxa_end_catch
__stack_chk_fail
__cxa_allocate_exception
_ZTIPKc
__cxa_throw
_ZNK8UnitTest15AssertException10LineNumberEv
_ZNK8UnitTest15AssertException8FilenameEv
_ZN8UnitTest11TestDetailsC1EPKcS2_S2_i
_ZStlsISt11char_traitsIcEERSt13basic_ostreamIcT_ES5_PKc
_ZNK8UnitTest15MemoryOutStream7GetTextEv
_ZN8UnitTest11TestResultsC1EPNS_12TestReporterE
_ZN8UnitTest4Test3RunEv
strstr
_ZN8UnitTest10CheckEqualERNS_11TestResultsEPKcS3_RKNS_11TestDetailsE
_ZNK8UnitTest11TestResults18GetFailedTestCountEv
_ZN8UnitTest12ReportAssertEPKcS1_i
_ZN8UnitTest16SignalTranslatorC1Ev
_ZN8UnitTest16SignalTranslator12s_jumpTargetE
__sigsetjmp
_ZN8UnitTest16SignalTranslatorD1Ev
_ZNSolsEi
_ZN8UnitTest4TestD2Ev
_ZdlPv
_ZN8UnitTest12TestReporterD2Ev
_ZTINSt7__cxx1119basic_ostringstreamIcSt11char_traitsIcESaIcEEE
_ZTISo
_ZNSt7__cxx1112basic_stringIcSt11char_traitsIcESaIcEED1Ev
_ZTVN10__cxxabiv120__si_class_type_infoE
_ZTIN8UnitTest4TestE
_ZTIN8UnitTest12TestReporterE
_ZN8UnitTest8TestListC1Ev
__dso_handle
__cxa_atexit
_ZN8UnitTest9ListAdderC1ERNS_8TestListEPNS_4TestE
_ZN8UnitTest4Test11GetTestListEv
_ZTIN8UnitTest15AssertExceptionE
_ZTISt9exception
