   1              		.file	"TestCurrentTest.cpp"
   2              		.text
   3              	.Ltext0:
   4              		.section	.rodata
   5              	.LC0:
   6 0000 44656661 		.string	"DefaultSuite"
   6      756C7453 
   6      75697465 
   6      00
   7              		.section	.text._ZN13UnitTestSuite12GetSuiteNameEv,"axG",@progbits,_ZN13UnitTestSuite12GetSuiteName
   8              		.weak	_ZN13UnitTestSuite12GetSuiteNameEv
  10              	_ZN13UnitTestSuite12GetSuiteNameEv:
  11              	.LFB0:
  12              		.file 1 "../TestSuite.h"
   1:../TestSuite.h **** #ifndef UNITTEST_TESTSUITE_H
   2:../TestSuite.h **** #define UNITTEST_TESTSUITE_H
   3:../TestSuite.h **** 
   4:../TestSuite.h **** namespace UnitTestSuite {
   5:../TestSuite.h **** 
   6:../TestSuite.h ****     inline char const* GetSuiteName ()
   7:../TestSuite.h ****     {
  13              		.loc 1 7 0
  14              		.cfi_startproc
  15 0000 55       		pushq	%rbp
  16              		.cfi_def_cfa_offset 16
  17              		.cfi_offset 6, -16
  18 0001 4889E5   		movq	%rsp, %rbp
  19              		.cfi_def_cfa_register 6
   8:../TestSuite.h ****         return "DefaultSuite";
  20              		.loc 1 8 0
  21 0004 488D0500 		leaq	.LC0(%rip), %rax
  21      000000
   9:../TestSuite.h ****     }
  22              		.loc 1 9 0
  23 000b 5D       		popq	%rbp
  24              		.cfi_def_cfa 7, 8
  25 000c C3       		ret
  26              		.cfi_endproc
  27              	.LFE0:
  29              		.section	.text._ZN17ScopedCurrentTestC2Ev,"axG",@progbits,_ZN17ScopedCurrentTestC5Ev,comdat
  30              		.align 2
  31              		.weak	_ZN17ScopedCurrentTestC2Ev
  33              	_ZN17ScopedCurrentTestC2Ev:
  34              	.LFB1089:
  35              		.file 2 "ScopedCurrentTest.h"
   1:ScopedCurrentTest.h **** #ifndef UNITTEST_SCOPEDCURRENTTEST_H
   2:ScopedCurrentTest.h **** #define UNITTEST_SCOPEDCURRENTTEST_H
   3:ScopedCurrentTest.h **** 
   4:ScopedCurrentTest.h **** #include "../CurrentTest.h"
   5:ScopedCurrentTest.h **** #include <cstddef>
   6:ScopedCurrentTest.h **** 
   7:ScopedCurrentTest.h **** class ScopedCurrentTest
   8:ScopedCurrentTest.h **** {
   9:ScopedCurrentTest.h **** public:
  10:ScopedCurrentTest.h **** 	ScopedCurrentTest()
  36              		.loc 2 10 0
  37              		.cfi_startproc
  38 0000 55       		pushq	%rbp
  39              		.cfi_def_cfa_offset 16
  40              		.cfi_offset 6, -16
  41 0001 4889E5   		movq	%rsp, %rbp
  42              		.cfi_def_cfa_register 6
  43 0004 4883EC10 		subq	$16, %rsp
  44 0008 48897DF8 		movq	%rdi, -8(%rbp)
  45              	.LBB2:
  11:ScopedCurrentTest.h **** 		: m_oldTestResults(UnitTest::CurrentTest::Results())
  46              		.loc 2 11 0
  47 000c E8000000 		call	_ZN8UnitTest11CurrentTest7ResultsEv@PLT
  47      00
  48 0011 488B10   		movq	(%rax), %rdx
  12:ScopedCurrentTest.h **** 		, m_oldTestDetails(UnitTest::CurrentTest::Details())
  49              		.loc 2 12 0
  50 0014 488B45F8 		movq	-8(%rbp), %rax
  51 0018 488910   		movq	%rdx, (%rax)
  52 001b E8000000 		call	_ZN8UnitTest11CurrentTest7DetailsEv@PLT
  52      00
  53 0020 488B10   		movq	(%rax), %rdx
  54 0023 488B45F8 		movq	-8(%rbp), %rax
  55 0027 48895008 		movq	%rdx, 8(%rax)
  56              	.LBE2:
  13:ScopedCurrentTest.h **** 	{
  14:ScopedCurrentTest.h **** 	}
  57              		.loc 2 14 0
  58 002b 90       		nop
  59 002c C9       		leave
  60              		.cfi_def_cfa 7, 8
  61 002d C3       		ret
  62              		.cfi_endproc
  63              	.LFE1089:
  65              		.weak	_ZN17ScopedCurrentTestC1Ev
  66              		.set	_ZN17ScopedCurrentTestC1Ev,_ZN17ScopedCurrentTestC2Ev
  67              		.section	.text._ZN17ScopedCurrentTestD2Ev,"axG",@progbits,_ZN17ScopedCurrentTestD5Ev,comdat
  68              		.align 2
  69              		.weak	_ZN17ScopedCurrentTestD2Ev
  71              	_ZN17ScopedCurrentTestD2Ev:
  72              	.LFB1095:
  15:ScopedCurrentTest.h **** 
  16:ScopedCurrentTest.h **** 	explicit ScopedCurrentTest(UnitTest::TestResults& newResults, const UnitTest::TestDetails* newDeta
  17:ScopedCurrentTest.h **** 		: m_oldTestResults(UnitTest::CurrentTest::Results())
  18:ScopedCurrentTest.h **** 		, m_oldTestDetails(UnitTest::CurrentTest::Details())
  19:ScopedCurrentTest.h **** 	{
  20:ScopedCurrentTest.h **** 		UnitTest::CurrentTest::Results() = &newResults;
  21:ScopedCurrentTest.h **** 
  22:ScopedCurrentTest.h **** 		if (newDetails != NULL)
  23:ScopedCurrentTest.h **** 			UnitTest::CurrentTest::Details() = newDetails;
  24:ScopedCurrentTest.h **** 	}
  25:ScopedCurrentTest.h **** 
  26:ScopedCurrentTest.h **** 	~ScopedCurrentTest()
  73              		.loc 2 26 0
  74              		.cfi_startproc
  75 0000 55       		pushq	%rbp
  76              		.cfi_def_cfa_offset 16
  77              		.cfi_offset 6, -16
  78 0001 4889E5   		movq	%rsp, %rbp
  79              		.cfi_def_cfa_register 6
  80 0004 4883EC10 		subq	$16, %rsp
  81 0008 48897DF8 		movq	%rdi, -8(%rbp)
  82              	.LBB3:
  27:ScopedCurrentTest.h **** 	{
  28:ScopedCurrentTest.h **** 		UnitTest::CurrentTest::Results() = m_oldTestResults;
  83              		.loc 2 28 0
  84 000c E8000000 		call	_ZN8UnitTest11CurrentTest7ResultsEv@PLT
  84      00
  85 0011 4889C2   		movq	%rax, %rdx
  86 0014 488B45F8 		movq	-8(%rbp), %rax
  87 0018 488B00   		movq	(%rax), %rax
  88 001b 488902   		movq	%rax, (%rdx)
  29:ScopedCurrentTest.h **** 		UnitTest::CurrentTest::Details() = m_oldTestDetails;
  89              		.loc 2 29 0
  90 001e E8000000 		call	_ZN8UnitTest11CurrentTest7DetailsEv@PLT
  90      00
  91 0023 4889C2   		movq	%rax, %rdx
  92 0026 488B45F8 		movq	-8(%rbp), %rax
  93 002a 488B4008 		movq	8(%rax), %rax
  94 002e 488902   		movq	%rax, (%rdx)
  95              	.LBE3:
  30:ScopedCurrentTest.h **** 	}
  96              		.loc 2 30 0
  97 0031 90       		nop
  98 0032 C9       		leave
  99              		.cfi_def_cfa 7, 8
 100 0033 C3       		ret
 101              		.cfi_endproc
 102              	.LFE1095:
 104              		.weak	_ZN17ScopedCurrentTestD1Ev
 105              		.set	_ZN17ScopedCurrentTestD1Ev,_ZN17ScopedCurrentTestD2Ev
 106              		.section	.rodata
 107              	.LC1:
 108 000d 54657374 		.string	"TestCurrentTest.cpp"
 108      43757272 
 108      656E7454 
 108      6573742E 
 108      63707000 
 109              	.LC2:
 110 0021 43616E53 		.string	"CanSetandGetDetails"
 110      6574616E 
 110      64476574 
 110      44657461 
 110      696C7300 
 111              		.text
 112              		.align 2
 114              	_ZN12_GLOBAL__N_123TestCanSetandGetDetailsC2Ev:
 115              	.LFB1098:
 116              		.file 3 "TestCurrentTest.cpp"
   1:TestCurrentTest.cpp **** #include "../UnitTest++.h"
   2:TestCurrentTest.cpp **** #include "../CurrentTest.h"
   3:TestCurrentTest.cpp **** #include "ScopedCurrentTest.h"
   4:TestCurrentTest.cpp **** 
   5:TestCurrentTest.cpp **** namespace 
   6:TestCurrentTest.cpp **** {
   7:TestCurrentTest.cpp **** 
   8:TestCurrentTest.cpp **** TEST(CanSetandGetDetails)
 117              		.loc 3 8 0
 118              		.cfi_startproc
 119 0000 55       		pushq	%rbp
 120              		.cfi_def_cfa_offset 16
 121              		.cfi_offset 6, -16
 122 0001 4889E5   		movq	%rsp, %rbp
 123              		.cfi_def_cfa_register 6
 124 0004 53       		pushq	%rbx
 125 0005 4883EC18 		subq	$24, %rsp
 126              		.cfi_offset 3, -24
 127 0009 48897DE8 		movq	%rdi, -24(%rbp)
 128              	.LBB4:
 129              		.loc 3 8 0
 130 000d 488B5DE8 		movq	-24(%rbp), %rbx
 131 0011 E8000000 		call	_ZN13UnitTestSuite12GetSuiteNameEv
 131      00
 132 0016 41B80800 		movl	$8, %r8d
 132      0000
 133 001c 488D0D00 		leaq	.LC1(%rip), %rcx
 133      000000
 134 0023 4889C2   		movq	%rax, %rdx
 135 0026 488D3500 		leaq	.LC2(%rip), %rsi
 135      000000
 136 002d 4889DF   		movq	%rbx, %rdi
 137 0030 E8000000 		call	_ZN8UnitTest4TestC2EPKcS2_S2_i@PLT
 137      00
 138 0035 488D1500 		leaq	16+_ZTVN12_GLOBAL__N_123TestCanSetandGetDetailsE(%rip), %rdx
 138      000000
 139 003c 488B45E8 		movq	-24(%rbp), %rax
 140 0040 488910   		movq	%rdx, (%rax)
 141              	.LBE4:
 142 0043 90       		nop
 143 0044 4883C418 		addq	$24, %rsp
 144 0048 5B       		popq	%rbx
 145 0049 5D       		popq	%rbp
 146              		.cfi_def_cfa 7, 8
 147 004a C3       		ret
 148              		.cfi_endproc
 149              	.LFE1098:
 151              		.set	_ZN12_GLOBAL__N_123TestCanSetandGetDetailsC1Ev,_ZN12_GLOBAL__N_123TestCanSetandGetDetailsC2Ev
 152              		.local	_ZN12_GLOBAL__N_131testCanSetandGetDetailsInstanceE
 153              		.comm	_ZN12_GLOBAL__N_131testCanSetandGetDetailsInstanceE,56,32
 154              		.local	_ZN12_GLOBAL__N_124adderCanSetandGetDetailsE
 155              		.comm	_ZN12_GLOBAL__N_124adderCanSetandGetDetailsE,1,1
 156              		.section	.rodata
 157              	.LC3:
 158 0035 6F6B00   		.string	"ok"
 159              		.align 8
 160              	.LC4:
 161 0038 556E6861 		.string	"Unhandled exception in CHECK(ok)"
 161      6E646C65 
 161      64206578 
 161      63657074 
 161      696F6E20 
 162              		.text
 163 004b 90       		.align 2
 165              	_ZNK12_GLOBAL__N_123TestCanSetandGetDetails7RunImplEv:
 166              	.LFB1100:
   9:TestCurrentTest.cpp **** {
 167              		.loc 3 9 0
 168              		.cfi_startproc
 169              		.cfi_personality 0x9b,DW.ref.__gxx_personality_v0
 170              		.cfi_lsda 0x1b,.LLSDA1100
 171 004c 55       		pushq	%rbp
 172              		.cfi_def_cfa_offset 16
 173              		.cfi_offset 6, -16
 174 004d 4889E5   		movq	%rsp, %rbp
 175              		.cfi_def_cfa_register 6
 176 0050 53       		pushq	%rbx
 177 0051 4883EC58 		subq	$88, %rsp
 178              		.cfi_offset 3, -24
 179 0055 48897DA8 		movq	%rdi, -88(%rbp)
 180              		.loc 3 9 0
 181 0059 64488B04 		movq	%fs:40, %rax
 181      25280000 
 181      00
 182 0062 488945E8 		movq	%rax, -24(%rbp)
 183 0066 31C0     		xorl	%eax, %eax
  10:TestCurrentTest.cpp **** 	bool ok = false;
 184              		.loc 3 10 0
 185 0068 C645B700 		movb	$0, -73(%rbp)
 186              	.LBB5:
  11:TestCurrentTest.cpp **** 	{
  12:TestCurrentTest.cpp **** 		ScopedCurrentTest scopedTest;
 187              		.loc 3 12 0
 188 006c 488D45C0 		leaq	-64(%rbp), %rax
 189 0070 4889C7   		movq	%rax, %rdi
 190              	.LEHB0:
 191 0073 E8000000 		call	_ZN17ScopedCurrentTestC1Ev
 191      00
 192              	.LEHE0:
  13:TestCurrentTest.cpp **** 
  14:TestCurrentTest.cpp **** 		const UnitTest::TestDetails* details = reinterpret_cast< const UnitTest::TestDetails* >(12345);
 193              		.loc 3 14 0
 194 0078 48C745B8 		movq	$12345, -72(%rbp)
 194      39300000 
 195              	.LEHB1:
  15:TestCurrentTest.cpp **** 		UnitTest::CurrentTest::Details() = details;
 196              		.loc 3 15 0
 197 0080 E8000000 		call	_ZN8UnitTest11CurrentTest7DetailsEv@PLT
 197      00
 198 0085 4889C2   		movq	%rax, %rdx
 199 0088 488B45B8 		movq	-72(%rbp), %rax
 200 008c 488902   		movq	%rax, (%rdx)
  16:TestCurrentTest.cpp **** 
  17:TestCurrentTest.cpp **** 		ok = (UnitTest::CurrentTest::Details() == details);
 201              		.loc 3 17 0
 202 008f E8000000 		call	_ZN8UnitTest11CurrentTest7DetailsEv@PLT
 202      00
 203              	.LEHE1:
 204              		.loc 3 17 0 is_stmt 0 discriminator 1
 205 0094 488B00   		movq	(%rax), %rax
 206 0097 483945B8 		cmpq	%rax, -72(%rbp)
 207 009b 0F94C0   		sete	%al
 208 009e 8845B7   		movb	%al, -73(%rbp)
  12:TestCurrentTest.cpp **** 
 209              		.loc 3 12 0 is_stmt 1 discriminator 1
 210 00a1 488D45C0 		leaq	-64(%rbp), %rax
 211 00a5 4889C7   		movq	%rax, %rdi
 212              	.LEHB2:
 213 00a8 E8000000 		call	_ZN17ScopedCurrentTestD1Ev
 213      00
 214              	.LEHE2:
 215              	.LBE5:
  18:TestCurrentTest.cpp **** 	}
  19:TestCurrentTest.cpp **** 
  20:TestCurrentTest.cpp **** 	CHECK(ok);
 216              		.loc 3 20 0 discriminator 1
 217 00ad 0FB645B7 		movzbl	-73(%rbp), %eax
 218 00b1 89C7     		movl	%eax, %edi
 219 00b3 E8000000 		call	_ZN8UnitTest5CheckIbEEbT_
 219      00
 220 00b8 83F001   		xorl	$1, %eax
 221 00bb 84C0     		testb	%al, %al
 222 00bd 0F84B200 		je	.L15
 222      0000
 223              	.LEHB3:
 224 00c3 E8000000 		call	_ZN8UnitTest11CurrentTest7ResultsEv@PLT
 224      00
 225 00c8 488B18   		movq	(%rax), %rbx
 226 00cb E8000000 		call	_ZN8UnitTest11CurrentTest7DetailsEv@PLT
 226      00
 227              		.loc 3 20 0 is_stmt 0 discriminator 2
 228 00d0 488B08   		movq	(%rax), %rcx
 229 00d3 488D45C0 		leaq	-64(%rbp), %rax
 230 00d7 BA140000 		movl	$20, %edx
 230      00
 231 00dc 4889CE   		movq	%rcx, %rsi
 232 00df 4889C7   		movq	%rax, %rdi
 233 00e2 E8000000 		call	_ZN8UnitTest11TestDetailsC1ERKS0_i@PLT
 233      00
 234              		.loc 3 20 0 discriminator 4
 235 00e7 488D45C0 		leaq	-64(%rbp), %rax
 236 00eb 488D1500 		leaq	.LC3(%rip), %rdx
 236      000000
 237 00f2 4889C6   		movq	%rax, %rsi
 238 00f5 4889DF   		movq	%rbx, %rdi
 239 00f8 E8000000 		call	_ZN8UnitTest11TestResults13OnTestFailureERKNS_11TestDetailsEPKc@PLT
 239      00
 240              	.LEHE3:
  21:TestCurrentTest.cpp **** }
 241              		.loc 3 21 0 is_stmt 1
 242 00fd EB76     		jmp	.L15
 243              	.L12:
 244 00ff 4889C3   		movq	%rax, %rbx
 245              	.LBB6:
  12:TestCurrentTest.cpp **** 
 246              		.loc 3 12 0
 247 0102 488D45C0 		leaq	-64(%rbp), %rax
 248 0106 4889C7   		movq	%rax, %rdi
 249 0109 E8000000 		call	_ZN17ScopedCurrentTestD1Ev
 249      00
 250 010e 4889D8   		movq	%rbx, %rax
 251 0111 4889C7   		movq	%rax, %rdi
 252              	.LEHB4:
 253 0114 E8000000 		call	_Unwind_Resume@PLT
 253      00
 254              	.LEHE4:
 255              	.L13:
 256              	.LBE6:
  20:TestCurrentTest.cpp **** }
 257              		.loc 3 20 0
 258 0119 4889C7   		movq	%rax, %rdi
 259 011c E8000000 		call	__cxa_begin_catch@PLT
 259      00
 260              	.LEHB5:
 261 0121 E8000000 		call	_ZN8UnitTest11CurrentTest7ResultsEv@PLT
 261      00
 262 0126 488B18   		movq	(%rax), %rbx
 263 0129 E8000000 		call	_ZN8UnitTest11CurrentTest7DetailsEv@PLT
 263      00
  20:TestCurrentTest.cpp **** }
 264              		.loc 3 20 0 is_stmt 0 discriminator 8
 265 012e 488B08   		movq	(%rax), %rcx
 266 0131 488D45C0 		leaq	-64(%rbp), %rax
 267 0135 BA140000 		movl	$20, %edx
 267      00
 268 013a 4889CE   		movq	%rcx, %rsi
 269 013d 4889C7   		movq	%rax, %rdi
 270 0140 E8000000 		call	_ZN8UnitTest11TestDetailsC1ERKS0_i@PLT
 270      00
  20:TestCurrentTest.cpp **** }
 271              		.loc 3 20 0 discriminator 12
 272 0145 488D45C0 		leaq	-64(%rbp), %rax
 273 0149 488D1500 		leaq	.LC4(%rip), %rdx
 273      000000
 274 0150 4889C6   		movq	%rax, %rsi
 275 0153 4889DF   		movq	%rbx, %rdi
 276 0156 E8000000 		call	_ZN8UnitTest11TestResults13OnTestFailureERKNS_11TestDetailsEPKc@PLT
 276      00
 277              	.LEHE5:
 278              	.LEHB6:
  20:TestCurrentTest.cpp **** }
 279              		.loc 3 20 0 discriminator 14
 280 015b E8000000 		call	__cxa_end_catch@PLT
 280      00
 281              	.LEHE6:
 282              		.loc 3 21 0 is_stmt 1 discriminator 14
 283 0160 EB13     		jmp	.L15
 284              	.L14:
 285 0162 4889C3   		movq	%rax, %rbx
  20:TestCurrentTest.cpp **** }
 286              		.loc 3 20 0
 287 0165 E8000000 		call	__cxa_end_catch@PLT
 287      00
 288 016a 4889D8   		movq	%rbx, %rax
 289 016d 4889C7   		movq	%rax, %rdi
 290              	.LEHB7:
 291 0170 E8000000 		call	_Unwind_Resume@PLT
 291      00
 292              	.LEHE7:
 293              	.L15:
 294              		.loc 3 21 0
 295 0175 90       		nop
 296 0176 488B45E8 		movq	-24(%rbp), %rax
 297 017a 64483304 		xorq	%fs:40, %rax
 297      25280000 
 297      00
 298 0183 7405     		je	.L11
 299 0185 E8000000 		call	__stack_chk_fail@PLT
 299      00
 300              	.L11:
 301 018a 4883C458 		addq	$88, %rsp
 302 018e 5B       		popq	%rbx
 303 018f 5D       		popq	%rbp
 304              		.cfi_def_cfa 7, 8
 305 0190 C3       		ret
 306              		.cfi_endproc
 307              	.LFE1100:
 308              		.globl	__gxx_personality_v0
 309              		.section	.gcc_except_table,"a",@progbits
 310              		.align 4
 311              	.LLSDA1100:
 312 0000 FF       		.byte	0xff
 313 0001 9B       		.byte	0x9b
 314 0002 31       		.uleb128 .LLSDATT1100-.LLSDATTD1100
 315              	.LLSDATTD1100:
 316 0003 01       		.byte	0x1
 317 0004 27       		.uleb128 .LLSDACSE1100-.LLSDACSB1100
 318              	.LLSDACSB1100:
 319 0005 27       		.uleb128 .LEHB0-.LFB1100
 320 0006 05       		.uleb128 .LEHE0-.LEHB0
 321 0007 00       		.uleb128 0
 322 0008 00       		.uleb128 0
 323 0009 34       		.uleb128 .LEHB1-.LFB1100
 324 000a 14       		.uleb128 .LEHE1-.LEHB1
 325 000b B301     		.uleb128 .L12-.LFB1100
 326 000d 00       		.uleb128 0
 327 000e 5C       		.uleb128 .LEHB2-.LFB1100
 328 000f 05       		.uleb128 .LEHE2-.LEHB2
 329 0010 00       		.uleb128 0
 330 0011 00       		.uleb128 0
 331 0012 77       		.uleb128 .LEHB3-.LFB1100
 332 0013 3A       		.uleb128 .LEHE3-.LEHB3
 333 0014 CD01     		.uleb128 .L13-.LFB1100
 334 0016 01       		.uleb128 0x1
 335 0017 C801     		.uleb128 .LEHB4-.LFB1100
 336 0019 05       		.uleb128 .LEHE4-.LEHB4
 337 001a 00       		.uleb128 0
 338 001b 00       		.uleb128 0
 339 001c D501     		.uleb128 .LEHB5-.LFB1100
 340 001e 3A       		.uleb128 .LEHE5-.LEHB5
 341 001f 9602     		.uleb128 .L14-.LFB1100
 342 0021 00       		.uleb128 0
 343 0022 8F02     		.uleb128 .LEHB6-.LFB1100
 344 0024 05       		.uleb128 .LEHE6-.LEHB6
 345 0025 00       		.uleb128 0
 346 0026 00       		.uleb128 0
 347 0027 A402     		.uleb128 .LEHB7-.LFB1100
 348 0029 05       		.uleb128 .LEHE7-.LEHB7
 349 002a 00       		.uleb128 0
 350 002b 00       		.uleb128 0
 351              	.LLSDACSE1100:
 352 002c 01       		.byte	0x1
 353 002d 00       		.byte	0
 354 002e 0000     		.align 4
 355 0030 00000000 		.long	0
 356              	
 357              	.LLSDATT1100:
 358              		.text
 360              		.section	.rodata
 361              	.LC5:
 362 0059 43616E53 		.string	"CanSetAndGetResults"
 362      6574416E 
 362      64476574 
 362      52657375 
 362      6C747300 
 363              		.text
 364 0191 90       		.align 2
 366              	_ZN12_GLOBAL__N_123TestCanSetAndGetResultsC2Ev:
 367              	.LFB1102:
  22:TestCurrentTest.cpp **** 
  23:TestCurrentTest.cpp **** TEST(CanSetAndGetResults)
 368              		.loc 3 23 0
 369              		.cfi_startproc
 370 0192 55       		pushq	%rbp
 371              		.cfi_def_cfa_offset 16
 372              		.cfi_offset 6, -16
 373 0193 4889E5   		movq	%rsp, %rbp
 374              		.cfi_def_cfa_register 6
 375 0196 53       		pushq	%rbx
 376 0197 4883EC18 		subq	$24, %rsp
 377              		.cfi_offset 3, -24
 378 019b 48897DE8 		movq	%rdi, -24(%rbp)
 379              	.LBB7:
 380              		.loc 3 23 0
 381 019f 488B5DE8 		movq	-24(%rbp), %rbx
 382 01a3 E8000000 		call	_ZN13UnitTestSuite12GetSuiteNameEv
 382      00
 383 01a8 41B81700 		movl	$23, %r8d
 383      0000
 384 01ae 488D0D00 		leaq	.LC1(%rip), %rcx
 384      000000
 385 01b5 4889C2   		movq	%rax, %rdx
 386 01b8 488D3500 		leaq	.LC5(%rip), %rsi
 386      000000
 387 01bf 4889DF   		movq	%rbx, %rdi
 388 01c2 E8000000 		call	_ZN8UnitTest4TestC2EPKcS2_S2_i@PLT
 388      00
 389 01c7 488D1500 		leaq	16+_ZTVN12_GLOBAL__N_123TestCanSetAndGetResultsE(%rip), %rdx
 389      000000
 390 01ce 488B45E8 		movq	-24(%rbp), %rax
 391 01d2 488910   		movq	%rdx, (%rax)
 392              	.LBE7:
 393 01d5 90       		nop
 394 01d6 4883C418 		addq	$24, %rsp
 395 01da 5B       		popq	%rbx
 396 01db 5D       		popq	%rbp
 397              		.cfi_def_cfa 7, 8
 398 01dc C3       		ret
 399              		.cfi_endproc
 400              	.LFE1102:
 402              		.set	_ZN12_GLOBAL__N_123TestCanSetAndGetResultsC1Ev,_ZN12_GLOBAL__N_123TestCanSetAndGetResultsC2Ev
 403              		.local	_ZN12_GLOBAL__N_131testCanSetAndGetResultsInstanceE
 404              		.comm	_ZN12_GLOBAL__N_131testCanSetAndGetResultsInstanceE,56,32
 405              		.local	_ZN12_GLOBAL__N_124adderCanSetAndGetResultsE
 406              		.comm	_ZN12_GLOBAL__N_124adderCanSetAndGetResultsE,1,1
 407 01dd 90       		.align 2
 409              	_ZNK12_GLOBAL__N_123TestCanSetAndGetResults7RunImplEv:
 410              	.LFB1104:
  24:TestCurrentTest.cpp **** {
 411              		.loc 3 24 0
 412              		.cfi_startproc
 413              		.cfi_personality 0x9b,DW.ref.__gxx_personality_v0
 414              		.cfi_lsda 0x1b,.LLSDA1104
 415 01de 55       		pushq	%rbp
 416              		.cfi_def_cfa_offset 16
 417              		.cfi_offset 6, -16
 418 01df 4889E5   		movq	%rsp, %rbp
 419              		.cfi_def_cfa_register 6
 420 01e2 53       		pushq	%rbx
 421 01e3 4883EC68 		subq	$104, %rsp
 422              		.cfi_offset 3, -24
 423 01e7 48897D98 		movq	%rdi, -104(%rbp)
 424              		.loc 3 24 0
 425 01eb 64488B04 		movq	%fs:40, %rax
 425      25280000 
 425      00
 426 01f4 488945E8 		movq	%rax, -24(%rbp)
 427 01f8 31C0     		xorl	%eax, %eax
  25:TestCurrentTest.cpp **** 	bool ok = false;
 428              		.loc 3 25 0
 429 01fa C645AF00 		movb	$0, -81(%rbp)
 430              	.LBB8:
  26:TestCurrentTest.cpp **** 	{
  27:TestCurrentTest.cpp **** 		ScopedCurrentTest scopedTest;
 431              		.loc 3 27 0
 432 01fe 488D45B0 		leaq	-80(%rbp), %rax
 433 0202 4889C7   		movq	%rax, %rdi
 434              	.LEHB8:
 435 0205 E8000000 		call	_ZN17ScopedCurrentTestC1Ev
 435      00
 436              	.LEHE8:
  28:TestCurrentTest.cpp **** 
  29:TestCurrentTest.cpp **** 		UnitTest::TestResults results;
 437              		.loc 3 29 0
 438 020a 488D45C0 		leaq	-64(%rbp), %rax
 439 020e BE000000 		movl	$0, %esi
 439      00
 440 0213 4889C7   		movq	%rax, %rdi
 441              	.LEHB9:
 442 0216 E8000000 		call	_ZN8UnitTest11TestResultsC1EPNS_12TestReporterE@PLT
 442      00
  30:TestCurrentTest.cpp **** 		UnitTest::CurrentTest::Results() = &results;
 443              		.loc 3 30 0
 444 021b E8000000 		call	_ZN8UnitTest11CurrentTest7ResultsEv@PLT
 444      00
 445 0220 4889C2   		movq	%rax, %rdx
 446 0223 488D45C0 		leaq	-64(%rbp), %rax
 447 0227 488902   		movq	%rax, (%rdx)
  31:TestCurrentTest.cpp **** 
  32:TestCurrentTest.cpp **** 		ok = (UnitTest::CurrentTest::Results() == &results);
 448              		.loc 3 32 0
 449 022a E8000000 		call	_ZN8UnitTest11CurrentTest7ResultsEv@PLT
 449      00
 450              	.LEHE9:
 451              		.loc 3 32 0 is_stmt 0 discriminator 1
 452 022f 488B10   		movq	(%rax), %rdx
 453 0232 488D45C0 		leaq	-64(%rbp), %rax
 454 0236 4839C2   		cmpq	%rax, %rdx
 455 0239 0F94C0   		sete	%al
 456 023c 8845AF   		movb	%al, -81(%rbp)
  27:TestCurrentTest.cpp **** 
 457              		.loc 3 27 0 is_stmt 1 discriminator 1
 458 023f 488D45B0 		leaq	-80(%rbp), %rax
 459 0243 4889C7   		movq	%rax, %rdi
 460              	.LEHB10:
 461 0246 E8000000 		call	_ZN17ScopedCurrentTestD1Ev
 461      00
 462              	.LEHE10:
 463              	.LBE8:
  33:TestCurrentTest.cpp **** 	}
  34:TestCurrentTest.cpp **** 
  35:TestCurrentTest.cpp **** 	CHECK(ok);
 464              		.loc 3 35 0 discriminator 1
 465 024b 0FB645AF 		movzbl	-81(%rbp), %eax
 466 024f 89C7     		movl	%eax, %edi
 467 0251 E8000000 		call	_ZN8UnitTest5CheckIbEEbT_
 467      00
 468 0256 83F001   		xorl	$1, %eax
 469 0259 84C0     		testb	%al, %al
 470 025b 0F84B200 		je	.L26
 470      0000
 471              	.LEHB11:
 472 0261 E8000000 		call	_ZN8UnitTest11CurrentTest7ResultsEv@PLT
 472      00
 473 0266 488B18   		movq	(%rax), %rbx
 474 0269 E8000000 		call	_ZN8UnitTest11CurrentTest7DetailsEv@PLT
 474      00
 475              		.loc 3 35 0 is_stmt 0 discriminator 2
 476 026e 488B08   		movq	(%rax), %rcx
 477 0271 488D45C0 		leaq	-64(%rbp), %rax
 478 0275 BA230000 		movl	$35, %edx
 478      00
 479 027a 4889CE   		movq	%rcx, %rsi
 480 027d 4889C7   		movq	%rax, %rdi
 481 0280 E8000000 		call	_ZN8UnitTest11TestDetailsC1ERKS0_i@PLT
 481      00
 482              		.loc 3 35 0 discriminator 4
 483 0285 488D45C0 		leaq	-64(%rbp), %rax
 484 0289 488D1500 		leaq	.LC3(%rip), %rdx
 484      000000
 485 0290 4889C6   		movq	%rax, %rsi
 486 0293 4889DF   		movq	%rbx, %rdi
 487 0296 E8000000 		call	_ZN8UnitTest11TestResults13OnTestFailureERKNS_11TestDetailsEPKc@PLT
 487      00
 488              	.LEHE11:
  36:TestCurrentTest.cpp **** }
 489              		.loc 3 36 0 is_stmt 1
 490 029b EB76     		jmp	.L26
 491              	.L23:
 492 029d 4889C3   		movq	%rax, %rbx
 493              	.LBB9:
  27:TestCurrentTest.cpp **** 
 494              		.loc 3 27 0
 495 02a0 488D45B0 		leaq	-80(%rbp), %rax
 496 02a4 4889C7   		movq	%rax, %rdi
 497 02a7 E8000000 		call	_ZN17ScopedCurrentTestD1Ev
 497      00
 498 02ac 4889D8   		movq	%rbx, %rax
 499 02af 4889C7   		movq	%rax, %rdi
 500              	.LEHB12:
 501 02b2 E8000000 		call	_Unwind_Resume@PLT
 501      00
 502              	.LEHE12:
 503              	.L24:
 504              	.LBE9:
  35:TestCurrentTest.cpp **** }
 505              		.loc 3 35 0
 506 02b7 4889C7   		movq	%rax, %rdi
 507 02ba E8000000 		call	__cxa_begin_catch@PLT
 507      00
 508              	.LEHB13:
 509 02bf E8000000 		call	_ZN8UnitTest11CurrentTest7ResultsEv@PLT
 509      00
 510 02c4 488B18   		movq	(%rax), %rbx
 511 02c7 E8000000 		call	_ZN8UnitTest11CurrentTest7DetailsEv@PLT
 511      00
  35:TestCurrentTest.cpp **** }
 512              		.loc 3 35 0 is_stmt 0 discriminator 8
 513 02cc 488B08   		movq	(%rax), %rcx
 514 02cf 488D45C0 		leaq	-64(%rbp), %rax
 515 02d3 BA230000 		movl	$35, %edx
 515      00
 516 02d8 4889CE   		movq	%rcx, %rsi
 517 02db 4889C7   		movq	%rax, %rdi
 518 02de E8000000 		call	_ZN8UnitTest11TestDetailsC1ERKS0_i@PLT
 518      00
  35:TestCurrentTest.cpp **** }
 519              		.loc 3 35 0 discriminator 12
 520 02e3 488D45C0 		leaq	-64(%rbp), %rax
 521 02e7 488D1500 		leaq	.LC4(%rip), %rdx
 521      000000
 522 02ee 4889C6   		movq	%rax, %rsi
 523 02f1 4889DF   		movq	%rbx, %rdi
 524 02f4 E8000000 		call	_ZN8UnitTest11TestResults13OnTestFailureERKNS_11TestDetailsEPKc@PLT
 524      00
 525              	.LEHE13:
 526              	.LEHB14:
  35:TestCurrentTest.cpp **** }
 527              		.loc 3 35 0 discriminator 14
 528 02f9 E8000000 		call	__cxa_end_catch@PLT
 528      00
 529              	.LEHE14:
 530              		.loc 3 36 0 is_stmt 1 discriminator 14
 531 02fe EB13     		jmp	.L26
 532              	.L25:
 533 0300 4889C3   		movq	%rax, %rbx
  35:TestCurrentTest.cpp **** }
 534              		.loc 3 35 0
 535 0303 E8000000 		call	__cxa_end_catch@PLT
 535      00
 536 0308 4889D8   		movq	%rbx, %rax
 537 030b 4889C7   		movq	%rax, %rdi
 538              	.LEHB15:
 539 030e E8000000 		call	_Unwind_Resume@PLT
 539      00
 540              	.LEHE15:
 541              	.L26:
 542              		.loc 3 36 0
 543 0313 90       		nop
 544 0314 488B45E8 		movq	-24(%rbp), %rax
 545 0318 64483304 		xorq	%fs:40, %rax
 545      25280000 
 545      00
 546 0321 7405     		je	.L22
 547 0323 E8000000 		call	__stack_chk_fail@PLT
 547      00
 548              	.L22:
 549 0328 4883C468 		addq	$104, %rsp
 550 032c 5B       		popq	%rbx
 551 032d 5D       		popq	%rbp
 552              		.cfi_def_cfa 7, 8
 553 032e C3       		ret
 554              		.cfi_endproc
 555              	.LFE1104:
 556              		.section	.gcc_except_table
 557              		.align 4
 558              	.LLSDA1104:
 559 0034 FF       		.byte	0xff
 560 0035 9B       		.byte	0x9b
 561 0036 31       		.uleb128 .LLSDATT1104-.LLSDATTD1104
 562              	.LLSDATTD1104:
 563 0037 01       		.byte	0x1
 564 0038 28       		.uleb128 .LLSDACSE1104-.LLSDACSB1104
 565              	.LLSDACSB1104:
 566 0039 27       		.uleb128 .LEHB8-.LFB1104
 567 003a 05       		.uleb128 .LEHE8-.LEHB8
 568 003b 00       		.uleb128 0
 569 003c 00       		.uleb128 0
 570 003d 38       		.uleb128 .LEHB9-.LFB1104
 571 003e 19       		.uleb128 .LEHE9-.LEHB9
 572 003f BF01     		.uleb128 .L23-.LFB1104
 573 0041 00       		.uleb128 0
 574 0042 68       		.uleb128 .LEHB10-.LFB1104
 575 0043 05       		.uleb128 .LEHE10-.LEHB10
 576 0044 00       		.uleb128 0
 577 0045 00       		.uleb128 0
 578 0046 8301     		.uleb128 .LEHB11-.LFB1104
 579 0048 3A       		.uleb128 .LEHE11-.LEHB11
 580 0049 D901     		.uleb128 .L24-.LFB1104
 581 004b 01       		.uleb128 0x1
 582 004c D401     		.uleb128 .LEHB12-.LFB1104
 583 004e 05       		.uleb128 .LEHE12-.LEHB12
 584 004f 00       		.uleb128 0
 585 0050 00       		.uleb128 0
 586 0051 E101     		.uleb128 .LEHB13-.LFB1104
 587 0053 3A       		.uleb128 .LEHE13-.LEHB13
 588 0054 A202     		.uleb128 .L25-.LFB1104
 589 0056 00       		.uleb128 0
 590 0057 9B02     		.uleb128 .LEHB14-.LFB1104
 591 0059 05       		.uleb128 .LEHE14-.LEHB14
 592 005a 00       		.uleb128 0
 593 005b 00       		.uleb128 0
 594 005c B002     		.uleb128 .LEHB15-.LFB1104
 595 005e 05       		.uleb128 .LEHE15-.LEHB15
 596 005f 00       		.uleb128 0
 597 0060 00       		.uleb128 0
 598              	.LLSDACSE1104:
 599 0061 01       		.byte	0x1
 600 0062 00       		.byte	0
 601 0063 00       		.align 4
 602 0064 00000000 		.long	0
 603              	
 604              	.LLSDATT1104:
 605              		.text
 607              		.section	.text._ZN8UnitTest5CheckIbEEbT_,"axG",@progbits,_ZN8UnitTest5CheckIbEEbT_,comdat
 608              		.weak	_ZN8UnitTest5CheckIbEEbT_
 610              	_ZN8UnitTest5CheckIbEEbT_:
 611              	.LFB1132:
 612              		.file 4 "../Checks.h"
   1:../Checks.h   **** #ifndef UNITTEST_CHECKS_H
   2:../Checks.h   **** #define UNITTEST_CHECKS_H
   3:../Checks.h   **** 
   4:../Checks.h   **** #include "Config.h"
   5:../Checks.h   **** #include "TestResults.h"
   6:../Checks.h   **** #include "MemoryOutStream.h"
   7:../Checks.h   **** 
   8:../Checks.h   **** namespace UnitTest {
   9:../Checks.h   **** 
  10:../Checks.h   **** 
  11:../Checks.h   **** template< typename Value >
  12:../Checks.h   **** bool Check(Value const value)
 613              		.loc 4 12 0
 614              		.cfi_startproc
 615 0000 55       		pushq	%rbp
 616              		.cfi_def_cfa_offset 16
 617              		.cfi_offset 6, -16
 618 0001 4889E5   		movq	%rsp, %rbp
 619              		.cfi_def_cfa_register 6
 620 0004 89F8     		movl	%edi, %eax
 621 0006 8845FC   		movb	%al, -4(%rbp)
  13:../Checks.h   **** {
  14:../Checks.h   ****     return !!value; // doing double negative to avoid silly VS warnings
 622              		.loc 4 14 0
 623 0009 0FB645FC 		movzbl	-4(%rbp), %eax
  15:../Checks.h   **** }
 624              		.loc 4 15 0
 625 000d 5D       		popq	%rbp
 626              		.cfi_def_cfa 7, 8
 627 000e C3       		ret
 628              		.cfi_endproc
 629              	.LFE1132:
 631              		.section	.data.rel.ro.local,"aw",@progbits
 632              		.align 8
 635              	_ZTVN12_GLOBAL__N_123TestCanSetAndGetResultsE:
 636 0000 00000000 		.quad	0
 636      00000000 
 637 0008 00000000 		.quad	_ZTIN12_GLOBAL__N_123TestCanSetAndGetResultsE
 637      00000000 
 638 0010 00000000 		.quad	_ZN12_GLOBAL__N_123TestCanSetAndGetResultsD1Ev
 638      00000000 
 639 0018 00000000 		.quad	_ZN12_GLOBAL__N_123TestCanSetAndGetResultsD0Ev
 639      00000000 
 640 0020 00000000 		.quad	_ZNK12_GLOBAL__N_123TestCanSetAndGetResults7RunImplEv
 640      00000000 
 641              		.text
 642 032f 90       		.align 2
 644              	_ZN12_GLOBAL__N_123TestCanSetAndGetResultsD2Ev:
 645              	.LFB1183:
  23:TestCurrentTest.cpp **** {
 646              		.loc 3 23 0
 647              		.cfi_startproc
 648 0330 55       		pushq	%rbp
 649              		.cfi_def_cfa_offset 16
 650              		.cfi_offset 6, -16
 651 0331 4889E5   		movq	%rsp, %rbp
 652              		.cfi_def_cfa_register 6
 653 0334 4883EC10 		subq	$16, %rsp
 654 0338 48897DF8 		movq	%rdi, -8(%rbp)
 655              	.LBB10:
  23:TestCurrentTest.cpp **** {
 656              		.loc 3 23 0
 657 033c 488D1500 		leaq	16+_ZTVN12_GLOBAL__N_123TestCanSetAndGetResultsE(%rip), %rdx
 657      000000
 658 0343 488B45F8 		movq	-8(%rbp), %rax
 659 0347 488910   		movq	%rdx, (%rax)
 660 034a 488B45F8 		movq	-8(%rbp), %rax
 661 034e 4889C7   		movq	%rax, %rdi
 662 0351 E8000000 		call	_ZN8UnitTest4TestD2Ev@PLT
 662      00
 663              	.LBE10:
 664 0356 90       		nop
 665 0357 C9       		leave
 666              		.cfi_def_cfa 7, 8
 667 0358 C3       		ret
 668              		.cfi_endproc
 669              	.LFE1183:
 671              		.set	_ZN12_GLOBAL__N_123TestCanSetAndGetResultsD1Ev,_ZN12_GLOBAL__N_123TestCanSetAndGetResultsD2Ev
 672 0359 90       		.align 2
 674              	_ZN12_GLOBAL__N_123TestCanSetAndGetResultsD0Ev:
 675              	.LFB1185:
  23:TestCurrentTest.cpp **** {
 676              		.loc 3 23 0
 677              		.cfi_startproc
 678              		.cfi_personality 0x9b,DW.ref.__gxx_personality_v0
 679              		.cfi_lsda 0x1b,.LLSDA1185
 680 035a 55       		pushq	%rbp
 681              		.cfi_def_cfa_offset 16
 682              		.cfi_offset 6, -16
 683 035b 4889E5   		movq	%rsp, %rbp
 684              		.cfi_def_cfa_register 6
 685 035e 53       		pushq	%rbx
 686 035f 4883EC18 		subq	$24, %rsp
 687              		.cfi_offset 3, -24
 688 0363 48897DE8 		movq	%rdi, -24(%rbp)
  23:TestCurrentTest.cpp **** {
 689              		.loc 3 23 0
 690 0367 488B45E8 		movq	-24(%rbp), %rax
 691 036b 4889C7   		movq	%rax, %rdi
 692              	.LEHB16:
 693 036e E8BDFFFF 		call	_ZN12_GLOBAL__N_123TestCanSetAndGetResultsD1Ev
 693      FF
 694              	.LEHE16:
  23:TestCurrentTest.cpp **** {
 695              		.loc 3 23 0 is_stmt 0 discriminator 2
 696 0373 488B45E8 		movq	-24(%rbp), %rax
 697 0377 4889C7   		movq	%rax, %rdi
 698 037a E8000000 		call	_ZdlPv@PLT
 698      00
 699 037f EB1A     		jmp	.L33
 700              	.L32:
 701 0381 4889C3   		movq	%rax, %rbx
  23:TestCurrentTest.cpp **** {
 702              		.loc 3 23 0
 703 0384 488B45E8 		movq	-24(%rbp), %rax
 704 0388 4889C7   		movq	%rax, %rdi
 705 038b E8000000 		call	_ZdlPv@PLT
 705      00
 706 0390 4889D8   		movq	%rbx, %rax
 707 0393 4889C7   		movq	%rax, %rdi
 708              	.LEHB17:
 709 0396 E8000000 		call	_Unwind_Resume@PLT
 709      00
 710              	.LEHE17:
 711              	.L33:
 712 039b 4883C418 		addq	$24, %rsp
 713 039f 5B       		popq	%rbx
 714 03a0 5D       		popq	%rbp
 715              		.cfi_def_cfa 7, 8
 716 03a1 C3       		ret
 717              		.cfi_endproc
 718              	.LFE1185:
 719              		.section	.gcc_except_table
 720              	.LLSDA1185:
 721 0068 FF       		.byte	0xff
 722 0069 FF       		.byte	0xff
 723 006a 01       		.byte	0x1
 724 006b 08       		.uleb128 .LLSDACSE1185-.LLSDACSB1185
 725              	.LLSDACSB1185:
 726 006c 14       		.uleb128 .LEHB16-.LFB1185
 727 006d 05       		.uleb128 .LEHE16-.LEHB16
 728 006e 27       		.uleb128 .L32-.LFB1185
 729 006f 00       		.uleb128 0
 730 0070 3C       		.uleb128 .LEHB17-.LFB1185
 731 0071 05       		.uleb128 .LEHE17-.LEHB17
 732 0072 00       		.uleb128 0
 733 0073 00       		.uleb128 0
 734              	.LLSDACSE1185:
 735              		.text
 737              		.section	.data.rel.ro.local
 738              		.align 8
 741              	_ZTVN12_GLOBAL__N_123TestCanSetandGetDetailsE:
 742 0028 00000000 		.quad	0
 742      00000000 
 743 0030 00000000 		.quad	_ZTIN12_GLOBAL__N_123TestCanSetandGetDetailsE
 743      00000000 
 744 0038 00000000 		.quad	_ZN12_GLOBAL__N_123TestCanSetandGetDetailsD1Ev
 744      00000000 
 745 0040 00000000 		.quad	_ZN12_GLOBAL__N_123TestCanSetandGetDetailsD0Ev
 745      00000000 
 746 0048 00000000 		.quad	_ZNK12_GLOBAL__N_123TestCanSetandGetDetails7RunImplEv
 746      00000000 
 747              		.text
 748              		.align 2
 750              	_ZN12_GLOBAL__N_123TestCanSetandGetDetailsD2Ev:
 751              	.LFB1187:
   8:TestCurrentTest.cpp **** {
 752              		.loc 3 8 0 is_stmt 1
 753              		.cfi_startproc
 754 03a2 55       		pushq	%rbp
 755              		.cfi_def_cfa_offset 16
 756              		.cfi_offset 6, -16
 757 03a3 4889E5   		movq	%rsp, %rbp
 758              		.cfi_def_cfa_register 6
 759 03a6 4883EC10 		subq	$16, %rsp
 760 03aa 48897DF8 		movq	%rdi, -8(%rbp)
 761              	.LBB11:
   8:TestCurrentTest.cpp **** {
 762              		.loc 3 8 0
 763 03ae 488D1500 		leaq	16+_ZTVN12_GLOBAL__N_123TestCanSetandGetDetailsE(%rip), %rdx
 763      000000
 764 03b5 488B45F8 		movq	-8(%rbp), %rax
 765 03b9 488910   		movq	%rdx, (%rax)
 766 03bc 488B45F8 		movq	-8(%rbp), %rax
 767 03c0 4889C7   		movq	%rax, %rdi
 768 03c3 E8000000 		call	_ZN8UnitTest4TestD2Ev@PLT
 768      00
 769              	.LBE11:
 770 03c8 90       		nop
 771 03c9 C9       		leave
 772              		.cfi_def_cfa 7, 8
 773 03ca C3       		ret
 774              		.cfi_endproc
 775              	.LFE1187:
 777              		.set	_ZN12_GLOBAL__N_123TestCanSetandGetDetailsD1Ev,_ZN12_GLOBAL__N_123TestCanSetandGetDetailsD2Ev
 778 03cb 90       		.align 2
 780              	_ZN12_GLOBAL__N_123TestCanSetandGetDetailsD0Ev:
 781              	.LFB1189:
   8:TestCurrentTest.cpp **** {
 782              		.loc 3 8 0
 783              		.cfi_startproc
 784              		.cfi_personality 0x9b,DW.ref.__gxx_personality_v0
 785              		.cfi_lsda 0x1b,.LLSDA1189
 786 03cc 55       		pushq	%rbp
 787              		.cfi_def_cfa_offset 16
 788              		.cfi_offset 6, -16
 789 03cd 4889E5   		movq	%rsp, %rbp
 790              		.cfi_def_cfa_register 6
 791 03d0 53       		pushq	%rbx
 792 03d1 4883EC18 		subq	$24, %rsp
 793              		.cfi_offset 3, -24
 794 03d5 48897DE8 		movq	%rdi, -24(%rbp)
   8:TestCurrentTest.cpp **** {
 795              		.loc 3 8 0
 796 03d9 488B45E8 		movq	-24(%rbp), %rax
 797 03dd 4889C7   		movq	%rax, %rdi
 798              	.LEHB18:
 799 03e0 E8BDFFFF 		call	_ZN12_GLOBAL__N_123TestCanSetandGetDetailsD1Ev
 799      FF
 800              	.LEHE18:
   8:TestCurrentTest.cpp **** {
 801              		.loc 3 8 0 is_stmt 0 discriminator 2
 802 03e5 488B45E8 		movq	-24(%rbp), %rax
 803 03e9 4889C7   		movq	%rax, %rdi
 804 03ec E8000000 		call	_ZdlPv@PLT
 804      00
 805 03f1 EB1A     		jmp	.L38
 806              	.L37:
 807 03f3 4889C3   		movq	%rax, %rbx
   8:TestCurrentTest.cpp **** {
 808              		.loc 3 8 0
 809 03f6 488B45E8 		movq	-24(%rbp), %rax
 810 03fa 4889C7   		movq	%rax, %rdi
 811 03fd E8000000 		call	_ZdlPv@PLT
 811      00
 812 0402 4889D8   		movq	%rbx, %rax
 813 0405 4889C7   		movq	%rax, %rdi
 814              	.LEHB19:
 815 0408 E8000000 		call	_Unwind_Resume@PLT
 815      00
 816              	.LEHE19:
 817              	.L38:
 818 040d 4883C418 		addq	$24, %rsp
 819 0411 5B       		popq	%rbx
 820 0412 5D       		popq	%rbp
 821              		.cfi_def_cfa 7, 8
 822 0413 C3       		ret
 823              		.cfi_endproc
 824              	.LFE1189:
 825              		.section	.gcc_except_table
 826              	.LLSDA1189:
 827 0074 FF       		.byte	0xff
 828 0075 FF       		.byte	0xff
 829 0076 01       		.byte	0x1
 830 0077 08       		.uleb128 .LLSDACSE1189-.LLSDACSB1189
 831              	.LLSDACSB1189:
 832 0078 14       		.uleb128 .LEHB18-.LFB1189
 833 0079 05       		.uleb128 .LEHE18-.LEHB18
 834 007a 27       		.uleb128 .L37-.LFB1189
 835 007b 00       		.uleb128 0
 836 007c 3C       		.uleb128 .LEHB19-.LFB1189
 837 007d 05       		.uleb128 .LEHE19-.LEHB19
 838 007e 00       		.uleb128 0
 839 007f 00       		.uleb128 0
 840              	.LLSDACSE1189:
 841              		.text
 843              		.section	.rodata
 844 006d 00000000 		.align 32
 844      00000000 
 844      00000000 
 844      00000000 
 844      000000
 847              	_ZTSN12_GLOBAL__N_123TestCanSetAndGetResultsE:
 848 0080 2A4E3132 		.string	"*N12_GLOBAL__N_123TestCanSetAndGetResultsE"
 848      5F474C4F 
 848      42414C5F 
 848      5F4E5F31 
 848      32335465 
 849              		.section	.data.rel.ro,"aw",@progbits
 850              		.align 8
 853              	_ZTIN12_GLOBAL__N_123TestCanSetAndGetResultsE:
 854 0000 00000000 		.quad	_ZTVN10__cxxabiv120__si_class_type_infoE+16
 854      00000000 
 855 0008 00000000 		.quad	_ZTSN12_GLOBAL__N_123TestCanSetAndGetResultsE
 855      00000000 
 856 0010 00000000 		.quad	_ZTIN8UnitTest4TestE
 856      00000000 
 857              		.section	.rodata
 858 00ab 00000000 		.align 32
 858      00000000 
 858      00000000 
 858      00000000 
 858      00000000 
 861              	_ZTSN12_GLOBAL__N_123TestCanSetandGetDetailsE:
 862 00c0 2A4E3132 		.string	"*N12_GLOBAL__N_123TestCanSetandGetDetailsE"
 862      5F474C4F 
 862      42414C5F 
 862      5F4E5F31 
 862      32335465 
 863              		.section	.data.rel.ro
 864              		.align 8
 867              	_ZTIN12_GLOBAL__N_123TestCanSetandGetDetailsE:
 868 0018 00000000 		.quad	_ZTVN10__cxxabiv120__si_class_type_infoE+16
 868      00000000 
 869 0020 00000000 		.quad	_ZTSN12_GLOBAL__N_123TestCanSetandGetDetailsE
 869      00000000 
 870 0028 00000000 		.quad	_ZTIN8UnitTest4TestE
 870      00000000 
 871              		.text
 873              	_Z41__static_initialization_and_destruction_0ii:
 874              	.LFB1194:
  37:TestCurrentTest.cpp **** 
  38:TestCurrentTest.cpp **** }
 875              		.loc 3 38 0 is_stmt 1
 876              		.cfi_startproc
 877 0414 55       		pushq	%rbp
 878              		.cfi_def_cfa_offset 16
 879              		.cfi_offset 6, -16
 880 0415 4889E5   		movq	%rsp, %rbp
 881              		.cfi_def_cfa_register 6
 882 0418 4883EC10 		subq	$16, %rsp
 883 041c 897DFC   		movl	%edi, -4(%rbp)
 884 041f 8975F8   		movl	%esi, -8(%rbp)
 885              		.loc 3 38 0
 886 0422 837DFC01 		cmpl	$1, -4(%rbp)
 887 0426 0F858F00 		jne	.L41
 887      0000
 888              		.loc 3 38 0 is_stmt 0 discriminator 1
 889 042c 817DF8FF 		cmpl	$65535, -8(%rbp)
 889      FF0000
 890 0433 0F858200 		jne	.L41
 890      0000
   8:TestCurrentTest.cpp **** {
 891              		.loc 3 8 0 is_stmt 1
 892 0439 488D3D00 		leaq	_ZN12_GLOBAL__N_131testCanSetandGetDetailsInstanceE(%rip), %rdi
 892      000000
 893 0440 E8BBFBFF 		call	_ZN12_GLOBAL__N_123TestCanSetandGetDetailsC1Ev
 893      FF
 894 0445 488D1500 		leaq	__dso_handle(%rip), %rdx
 894      000000
 895 044c 488D3500 		leaq	_ZN12_GLOBAL__N_131testCanSetandGetDetailsInstanceE(%rip), %rsi
 895      000000
 896 0453 488D3D48 		leaq	_ZN12_GLOBAL__N_123TestCanSetandGetDetailsD1Ev(%rip), %rdi
 896      FFFFFF
 897 045a E8000000 		call	__cxa_atexit@PLT
 897      00
 898 045f E8000000 		call	_ZN8UnitTest4Test11GetTestListEv@PLT
 898      00
 899 0464 488D1500 		leaq	_ZN12_GLOBAL__N_131testCanSetandGetDetailsInstanceE(%rip), %rdx
 899      000000
 900 046b 4889C6   		movq	%rax, %rsi
 901 046e 488D3D00 		leaq	_ZN12_GLOBAL__N_124adderCanSetandGetDetailsE(%rip), %rdi
 901      000000
 902 0475 E8000000 		call	_ZN8UnitTest9ListAdderC1ERNS_8TestListEPNS_4TestE@PLT
 902      00
  23:TestCurrentTest.cpp **** {
 903              		.loc 3 23 0
 904 047a 488D3D00 		leaq	_ZN12_GLOBAL__N_131testCanSetAndGetResultsInstanceE(%rip), %rdi
 904      000000
 905 0481 E80CFDFF 		call	_ZN12_GLOBAL__N_123TestCanSetAndGetResultsC1Ev
 905      FF
 906 0486 488D1500 		leaq	__dso_handle(%rip), %rdx
 906      000000
 907 048d 488D3500 		leaq	_ZN12_GLOBAL__N_131testCanSetAndGetResultsInstanceE(%rip), %rsi
 907      000000
 908 0494 488D3D95 		leaq	_ZN12_GLOBAL__N_123TestCanSetAndGetResultsD1Ev(%rip), %rdi
 908      FEFFFF
 909 049b E8000000 		call	__cxa_atexit@PLT
 909      00
 910 04a0 E8000000 		call	_ZN8UnitTest4Test11GetTestListEv@PLT
 910      00
 911 04a5 488D1500 		leaq	_ZN12_GLOBAL__N_131testCanSetAndGetResultsInstanceE(%rip), %rdx
 911      000000
 912 04ac 4889C6   		movq	%rax, %rsi
 913 04af 488D3D00 		leaq	_ZN12_GLOBAL__N_124adderCanSetAndGetResultsE(%rip), %rdi
 913      000000
 914 04b6 E8000000 		call	_ZN8UnitTest9ListAdderC1ERNS_8TestListEPNS_4TestE@PLT
 914      00
 915              	.L41:
 916              		.loc 3 38 0
 917 04bb 90       		nop
 918 04bc C9       		leave
 919              		.cfi_def_cfa 7, 8
 920 04bd C3       		ret
 921              		.cfi_endproc
 922              	.LFE1194:
 925              	_GLOBAL__sub_I_TestCurrentTest.cpp:
 926              	.LFB1195:
 927              		.loc 3 38 0
 928              		.cfi_startproc
 929 04be 55       		pushq	%rbp
 930              		.cfi_def_cfa_offset 16
 931              		.cfi_offset 6, -16
 932 04bf 4889E5   		movq	%rsp, %rbp
 933              		.cfi_def_cfa_register 6
 934              		.loc 3 38 0
 935 04c2 BEFFFF00 		movl	$65535, %esi
 935      00
 936 04c7 BF010000 		movl	$1, %edi
 936      00
 937 04cc E843FFFF 		call	_Z41__static_initialization_and_destruction_0ii
 937      FF
 938 04d1 5D       		popq	%rbp
 939              		.cfi_def_cfa 7, 8
 940 04d2 C3       		ret
 941              		.cfi_endproc
 942              	.LFE1195:
 944              		.section	.init_array,"aw"
 945              		.align 8
 946 0000 00000000 		.quad	_GLOBAL__sub_I_TestCurrentTest.cpp
 946      00000000 
 947              		.text
 948              	.Letext0:
 949              		.file 5 "../TestDetails.h"
 950              		.file 6 "../TestList.h"
 951              		.file 7 "../TestResults.h"
 952              		.file 8 "/usr/include/c++/7/cwchar"
 953              		.file 9 "/usr/include/x86_64-linux-gnu/c++/7/bits/c++config.h"
 954              		.file 10 "/usr/include/c++/7/debug/debug.h"
 955              		.file 11 "/usr/include/c++/7/clocale"
 956              		.file 12 "/usr/include/c++/7/cwctype"
 957              		.file 13 "/usr/include/c++/7/bits/predefined_ops.h"
 958              		.file 14 "/usr/include/c++/7/ext/new_allocator.h"
 959              		.file 15 "/usr/include/c++/7/ext/numeric_traits.h"
 960              		.file 16 "/usr/lib/gcc/x86_64-linux-gnu/7/include/stddef.h"
 961              		.file 17 "<built-in>"
 962              		.file 18 "/usr/include/x86_64-linux-gnu/bits/types/wint_t.h"
 963              		.file 19 "/usr/include/x86_64-linux-gnu/bits/types/__mbstate_t.h"
 964              		.file 20 "/usr/include/x86_64-linux-gnu/bits/types/mbstate_t.h"
 965              		.file 21 "/usr/include/x86_64-linux-gnu/bits/types/__FILE.h"
 966              		.file 22 "/usr/include/wchar.h"
 967              		.file 23 "/usr/include/x86_64-linux-gnu/bits/types/struct_tm.h"
 968              		.file 24 "/usr/include/locale.h"
 969              		.file 25 "/usr/include/x86_64-linux-gnu/bits/types.h"
 970              		.file 26 "/usr/include/time.h"
 971              		.file 27 "/usr/include/x86_64-linux-gnu/bits/wctype-wchar.h"
 972              		.file 28 "/usr/include/wctype.h"
 973              		.file 29 "/usr/include/signal.h"
 974              		.file 30 "/usr/include/x86_64-linux-gnu/sys/time.h"
 975              		.file 31 "/usr/include/c++/7/new"
 5861              		.align 8
 5864              	DW.ref.__gxx_personality_v0:
 5865 0000 00000000 		.quad	__gxx_personality_v0
 5865      00000000 
 5866              		.hidden	__dso_handle
 5867              		.ident	"GCC: (Ubuntu 7.2.0-8ubuntu3.2) 7.2.0"
 5868              		.section	.note.GNU-stack,"",@progbits
DEFINED SYMBOLS
                            *ABS*:0000000000000000 TestCurrentTest.cpp
     /tmp/cclYK2nm.s:10     .text._ZN13UnitTestSuite12GetSuiteNameEv:0000000000000000 _ZN13UnitTestSuite12GetSuiteNameEv
     /tmp/cclYK2nm.s:33     .text._ZN17ScopedCurrentTestC2Ev:0000000000000000 _ZN17ScopedCurrentTestC2Ev
     /tmp/cclYK2nm.s:33     .text._ZN17ScopedCurrentTestC2Ev:0000000000000000 _ZN17ScopedCurrentTestC1Ev
     /tmp/cclYK2nm.s:71     .text._ZN17ScopedCurrentTestD2Ev:0000000000000000 _ZN17ScopedCurrentTestD2Ev
     /tmp/cclYK2nm.s:71     .text._ZN17ScopedCurrentTestD2Ev:0000000000000000 _ZN17ScopedCurrentTestD1Ev
     /tmp/cclYK2nm.s:114    .text:0000000000000000 _ZN12_GLOBAL__N_123TestCanSetandGetDetailsC2Ev
     /tmp/cclYK2nm.s:741    .data.rel.ro.local:0000000000000028 _ZTVN12_GLOBAL__N_123TestCanSetandGetDetailsE
     /tmp/cclYK2nm.s:114    .text:0000000000000000 _ZN12_GLOBAL__N_123TestCanSetandGetDetailsC1Ev
     /tmp/cclYK2nm.s:153    .bss:0000000000000000 _ZN12_GLOBAL__N_131testCanSetandGetDetailsInstanceE
     /tmp/cclYK2nm.s:153    .bss:0000000000000038 _ZN12_GLOBAL__N_124adderCanSetandGetDetailsE
     /tmp/cclYK2nm.s:165    .text:000000000000004c _ZNK12_GLOBAL__N_123TestCanSetandGetDetails7RunImplEv
     /tmp/cclYK2nm.s:5864   .data.DW.ref.__gxx_personality_v0:0000000000000000 DW.ref.__gxx_personality_v0
     /tmp/cclYK2nm.s:610    .text._ZN8UnitTest5CheckIbEEbT_:0000000000000000 _ZN8UnitTest5CheckIbEEbT_
     /tmp/cclYK2nm.s:366    .text:0000000000000192 _ZN12_GLOBAL__N_123TestCanSetAndGetResultsC2Ev
     /tmp/cclYK2nm.s:635    .data.rel.ro.local:0000000000000000 _ZTVN12_GLOBAL__N_123TestCanSetAndGetResultsE
     /tmp/cclYK2nm.s:366    .text:0000000000000192 _ZN12_GLOBAL__N_123TestCanSetAndGetResultsC1Ev
     /tmp/cclYK2nm.s:404    .bss:0000000000000040 _ZN12_GLOBAL__N_131testCanSetAndGetResultsInstanceE
     /tmp/cclYK2nm.s:404    .bss:0000000000000078 _ZN12_GLOBAL__N_124adderCanSetAndGetResultsE
     /tmp/cclYK2nm.s:409    .text:00000000000001de _ZNK12_GLOBAL__N_123TestCanSetAndGetResults7RunImplEv
     /tmp/cclYK2nm.s:853    .data.rel.ro:0000000000000000 _ZTIN12_GLOBAL__N_123TestCanSetAndGetResultsE
     /tmp/cclYK2nm.s:644    .text:0000000000000330 _ZN12_GLOBAL__N_123TestCanSetAndGetResultsD1Ev
     /tmp/cclYK2nm.s:674    .text:000000000000035a _ZN12_GLOBAL__N_123TestCanSetAndGetResultsD0Ev
     /tmp/cclYK2nm.s:644    .text:0000000000000330 _ZN12_GLOBAL__N_123TestCanSetAndGetResultsD2Ev
     /tmp/cclYK2nm.s:867    .data.rel.ro:0000000000000018 _ZTIN12_GLOBAL__N_123TestCanSetandGetDetailsE
     /tmp/cclYK2nm.s:750    .text:00000000000003a2 _ZN12_GLOBAL__N_123TestCanSetandGetDetailsD1Ev
     /tmp/cclYK2nm.s:780    .text:00000000000003cc _ZN12_GLOBAL__N_123TestCanSetandGetDetailsD0Ev
     /tmp/cclYK2nm.s:750    .text:00000000000003a2 _ZN12_GLOBAL__N_123TestCanSetandGetDetailsD2Ev
     /tmp/cclYK2nm.s:847    .rodata:0000000000000080 _ZTSN12_GLOBAL__N_123TestCanSetAndGetResultsE
     /tmp/cclYK2nm.s:861    .rodata:00000000000000c0 _ZTSN12_GLOBAL__N_123TestCanSetandGetDetailsE
     /tmp/cclYK2nm.s:873    .text:0000000000000414 _Z41__static_initialization_and_destruction_0ii
     /tmp/cclYK2nm.s:925    .text:00000000000004be _GLOBAL__sub_I_TestCurrentTest.cpp
                           .group:0000000000000000 _ZN17ScopedCurrentTestC5Ev
                           .group:0000000000000000 _ZN17ScopedCurrentTestD5Ev

UNDEFINED SYMBOLS
_GLOBAL_OFFSET_TABLE_
_ZN8UnitTest11CurrentTest7ResultsEv
_ZN8UnitTest11CurrentTest7DetailsEv
_ZN8UnitTest4TestC2EPKcS2_S2_i
_ZN8UnitTest11TestDetailsC1ERKS0_i
_ZN8UnitTest11TestResults13OnTestFailureERKNS_11TestDetailsEPKc
_Unwind_Resume
__cxa_begin_catch
__cxa_end_catch
__stack_chk_fail
__gxx_personality_v0
_ZN8UnitTest11TestResultsC1EPNS_12TestReporterE
_ZN8UnitTest4TestD2Ev
_ZdlPv
_ZTVN10__cxxabiv120__si_class_type_infoE
_ZTIN8UnitTest4TestE
__dso_handle
__cxa_atexit
_ZN8UnitTest4Test11GetTestListEv
_ZN8UnitTest9ListAdderC1ERNS_8TestListEPNS_4TestE
