   1              		.file	"TestTest.cpp"
   2              		.text
   3              	.Ltext0:
   4              		.section	.rodata
   5              	.LC0:
   6 0000 44656661 		.string	"DefaultSuite"
   6      756C7453 
   6      75697465 
   6      00
   7              		.section	.text._ZN13UnitTestSuite12GetSuiteNameEv,"axG",@progbits,_ZN13UnitTestSuite12GetSuiteName
   8              		.weak	_ZN13UnitTestSuite12GetSuiteNameEv
  10              	_ZN13UnitTestSuite12GetSuiteNameEv:
  11              	.LFB0:
  12              		.file 1 "../TestSuite.h"
   1:../TestSuite.h **** #ifndef UNITTEST_TESTSUITE_H
   2:../TestSuite.h **** #define UNITTEST_TESTSUITE_H
   3:../TestSuite.h **** 
   4:../TestSuite.h **** namespace UnitTestSuite {
   5:../TestSuite.h **** 
   6:../TestSuite.h ****     inline char const* GetSuiteName ()
   7:../TestSuite.h ****     {
  13              		.loc 1 7 0
  14              		.cfi_startproc
  15 0000 55       		pushq	%rbp
  16              		.cfi_def_cfa_offset 16
  17              		.cfi_offset 6, -16
  18 0001 4889E5   		movq	%rsp, %rbp
  19              		.cfi_def_cfa_register 6
   8:../TestSuite.h ****         return "DefaultSuite";
  20              		.loc 1 8 0
  21 0004 488D0500 		leaq	.LC0(%rip), %rax
  21      000000
   9:../TestSuite.h ****     }
  22              		.loc 1 9 0
  23 000b 5D       		popq	%rbp
  24              		.cfi_def_cfa 7, 8
  25 000c C3       		ret
  26              		.cfi_endproc
  27              	.LFE0:
  29              		.section	.text._ZN8UnitTest15MemoryOutStreamC1Ev,"axG",@progbits,_ZN8UnitTest15MemoryOutStreamC1Ev
  30              		.align 2
  31              		.weak	_ZN8UnitTest15MemoryOutStreamC1Ev
  33              	_ZN8UnitTest15MemoryOutStreamC1Ev:
  34              	.LFB1076:
  35              		.file 2 "../MemoryOutStream.h"
   1:../MemoryOutStream.h **** #ifndef UNITTEST_MEMORYOUTSTREAM_H
   2:../MemoryOutStream.h **** #define UNITTEST_MEMORYOUTSTREAM_H
   3:../MemoryOutStream.h **** 
   4:../MemoryOutStream.h **** #include "Config.h"
   5:../MemoryOutStream.h **** 
   6:../MemoryOutStream.h **** #ifndef UNITTEST_USE_CUSTOM_STREAMS
   7:../MemoryOutStream.h **** 
   8:../MemoryOutStream.h **** #include <sstream>
   9:../MemoryOutStream.h **** 
  10:../MemoryOutStream.h **** namespace UnitTest
  11:../MemoryOutStream.h **** {
  12:../MemoryOutStream.h **** 
  13:../MemoryOutStream.h **** class MemoryOutStream : public std::ostringstream
  14:../MemoryOutStream.h **** {
  15:../MemoryOutStream.h **** public:
  16:../MemoryOutStream.h ****     MemoryOutStream() {}
  36              		.loc 2 16 0
  37              		.cfi_startproc
  38              		.cfi_personality 0x9b,DW.ref.__gxx_personality_v0
  39              		.cfi_lsda 0x1b,.LLSDA1076
  40 0000 55       		pushq	%rbp
  41              		.cfi_def_cfa_offset 16
  42              		.cfi_offset 6, -16
  43 0001 4889E5   		movq	%rsp, %rbp
  44              		.cfi_def_cfa_register 6
  45 0004 53       		pushq	%rbx
  46 0005 4883EC18 		subq	$24, %rsp
  47              		.cfi_offset 3, -24
  48 0009 48897DE8 		movq	%rdi, -24(%rbp)
  49              	.LBB2:
  50              		.loc 2 16 0
  51 000d 488B45E8 		movq	-24(%rbp), %rax
  52 0011 48059000 		addq	$144, %rax
  52      0000
  53 0017 4889C7   		movq	%rax, %rdi
  54              	.LEHB0:
  55 001a E8000000 		call	_ZNSt9basic_iosIcSt11char_traitsIcEEC2Ev@PLT
  55      00
  56              	.LEHE0:
  57 001f 488B45E8 		movq	-24(%rbp), %rax
  58 0023 488D0D00 		leaq	8+_ZTTN8UnitTest15MemoryOutStreamE(%rip), %rcx
  58      000000
  59 002a BA100000 		movl	$16, %edx
  59      00
  60 002f 4889CE   		movq	%rcx, %rsi
  61 0032 4889C7   		movq	%rax, %rdi
  62              	.LEHB1:
  63 0035 E8000000 		call	_ZNSt7__cxx1119basic_ostringstreamIcSt11char_traitsIcESaIcEEC2ESt13_Ios_Openmode@PLT
  63      00
  64              	.LEHE1:
  65              		.loc 2 16 0 is_stmt 0 discriminator 8
  66 003a 488D1500 		leaq	24+_ZTVN8UnitTest15MemoryOutStreamE(%rip), %rdx
  66      000000
  67 0041 488B45E8 		movq	-24(%rbp), %rax
  68 0045 488910   		movq	%rdx, (%rax)
  69 0048 488B45E8 		movq	-24(%rbp), %rax
  70 004c 488D9090 		leaq	144(%rax), %rdx
  70      000000
  71 0053 488D0500 		leaq	64+_ZTVN8UnitTest15MemoryOutStreamE(%rip), %rax
  71      000000
  72 005a 488902   		movq	%rax, (%rdx)
  73 005d 488B45E8 		movq	-24(%rbp), %rax
  74 0061 4883C070 		addq	$112, %rax
  75 0065 4889C7   		movq	%rax, %rdi
  76              	.LEHB2:
  77 0068 E8000000 		call	_ZNSt7__cxx1112basic_stringIcSt11char_traitsIcESaIcEEC1Ev@PLT
  77      00
  78              	.LEHE2:
  79              	.LBE2:
  80              		.loc 2 16 0
  81 006d EB3B     		jmp	.L9
  82              	.L7:
  83 006f 4889C3   		movq	%rax, %rbx
  84              	.LBB3:
  85 0072 488B45E8 		movq	-24(%rbp), %rax
  86 0076 488D1500 		leaq	8+_ZTTN8UnitTest15MemoryOutStreamE(%rip), %rdx
  86      000000
  87 007d 4889D6   		movq	%rdx, %rsi
  88 0080 4889C7   		movq	%rax, %rdi
  89 0083 E8000000 		call	_ZNSt7__cxx1119basic_ostringstreamIcSt11char_traitsIcESaIcEED2Ev@PLT
  89      00
  90 0088 EB03     		jmp	.L8
  91              	.L6:
  92 008a 4889C3   		movq	%rax, %rbx
  93              	.L8:
  94              		.loc 2 16 0 discriminator 11
  95 008d 488B45E8 		movq	-24(%rbp), %rax
  96 0091 48059000 		addq	$144, %rax
  96      0000
  97 0097 4889C7   		movq	%rax, %rdi
  98 009a E8000000 		call	_ZNSt9basic_iosIcSt11char_traitsIcEED2Ev@PLT
  98      00
  99 009f 4889D8   		movq	%rbx, %rax
 100 00a2 4889C7   		movq	%rax, %rdi
 101              	.LEHB3:
 102 00a5 E8000000 		call	_Unwind_Resume@PLT
 102      00
 103              	.LEHE3:
 104              	.L9:
 105              	.LBE3:
 106              		.loc 2 16 0
 107 00aa 4883C418 		addq	$24, %rsp
 108 00ae 5B       		popq	%rbx
 109 00af 5D       		popq	%rbp
 110              		.cfi_def_cfa 7, 8
 111 00b0 C3       		ret
 112              		.cfi_endproc
 113              	.LFE1076:
 114              		.globl	__gxx_personality_v0
 115              		.section	.gcc_except_table._ZN8UnitTest15MemoryOutStreamC1Ev,"aG",@progbits,_ZN8UnitTest15MemoryOu
 116              	.LLSDA1076:
 117 0000 FF       		.byte	0xff
 118 0001 FF       		.byte	0xff
 119 0002 01       		.byte	0x1
 120 0003 12       		.uleb128 .LLSDACSE1076-.LLSDACSB1076
 121              	.LLSDACSB1076:
 122 0004 1A       		.uleb128 .LEHB0-.LFB1076
 123 0005 05       		.uleb128 .LEHE0-.LEHB0
 124 0006 00       		.uleb128 0
 125 0007 00       		.uleb128 0
 126 0008 35       		.uleb128 .LEHB1-.LFB1076
 127 0009 05       		.uleb128 .LEHE1-.LEHB1
 128 000a 8A01     		.uleb128 .L6-.LFB1076
 129 000c 00       		.uleb128 0
 130 000d 68       		.uleb128 .LEHB2-.LFB1076
 131 000e 05       		.uleb128 .LEHE2-.LEHB2
 132 000f 6F       		.uleb128 .L7-.LFB1076
 133 0010 00       		.uleb128 0
 134 0011 A501     		.uleb128 .LEHB3-.LFB1076
 135 0013 05       		.uleb128 .LEHE3-.LEHB3
 136 0014 00       		.uleb128 0
 137 0015 00       		.uleb128 0
 138              	.LLSDACSE1076:
 139              		.section	.text._ZN8UnitTest15MemoryOutStreamC1Ev,"axG",@progbits,_ZN8UnitTest15MemoryOutStreamC1Ev
 141              		.section	.text._ZN17ScopedCurrentTestC2ERN8UnitTest11TestResultsEPKNS0_11TestDetailsE,"axG",@progb
 142              		.align 2
 143              		.weak	_ZN17ScopedCurrentTestC2ERN8UnitTest11TestResultsEPKNS0_11TestDetailsE
 145              	_ZN17ScopedCurrentTestC2ERN8UnitTest11TestResultsEPKNS0_11TestDetailsE:
 146              	.LFB1092:
 147              		.file 3 "ScopedCurrentTest.h"
   1:ScopedCurrentTest.h **** #ifndef UNITTEST_SCOPEDCURRENTTEST_H
   2:ScopedCurrentTest.h **** #define UNITTEST_SCOPEDCURRENTTEST_H
   3:ScopedCurrentTest.h **** 
   4:ScopedCurrentTest.h **** #include "../CurrentTest.h"
   5:ScopedCurrentTest.h **** #include <cstddef>
   6:ScopedCurrentTest.h **** 
   7:ScopedCurrentTest.h **** class ScopedCurrentTest
   8:ScopedCurrentTest.h **** {
   9:ScopedCurrentTest.h **** public:
  10:ScopedCurrentTest.h **** 	ScopedCurrentTest()
  11:ScopedCurrentTest.h **** 		: m_oldTestResults(UnitTest::CurrentTest::Results())
  12:ScopedCurrentTest.h **** 		, m_oldTestDetails(UnitTest::CurrentTest::Details())
  13:ScopedCurrentTest.h **** 	{
  14:ScopedCurrentTest.h **** 	}
  15:ScopedCurrentTest.h **** 
  16:ScopedCurrentTest.h **** 	explicit ScopedCurrentTest(UnitTest::TestResults& newResults, const UnitTest::TestDetails* newDeta
 148              		.loc 3 16 0 is_stmt 1
 149              		.cfi_startproc
 150 0000 55       		pushq	%rbp
 151              		.cfi_def_cfa_offset 16
 152              		.cfi_offset 6, -16
 153 0001 4889E5   		movq	%rsp, %rbp
 154              		.cfi_def_cfa_register 6
 155 0004 4883EC20 		subq	$32, %rsp
 156 0008 48897DF8 		movq	%rdi, -8(%rbp)
 157 000c 488975F0 		movq	%rsi, -16(%rbp)
 158 0010 488955E8 		movq	%rdx, -24(%rbp)
 159              	.LBB4:
  17:ScopedCurrentTest.h **** 		: m_oldTestResults(UnitTest::CurrentTest::Results())
 160              		.loc 3 17 0
 161 0014 E8000000 		call	_ZN8UnitTest11CurrentTest7ResultsEv@PLT
 161      00
 162 0019 488B10   		movq	(%rax), %rdx
  18:ScopedCurrentTest.h **** 		, m_oldTestDetails(UnitTest::CurrentTest::Details())
 163              		.loc 3 18 0
 164 001c 488B45F8 		movq	-8(%rbp), %rax
 165 0020 488910   		movq	%rdx, (%rax)
 166 0023 E8000000 		call	_ZN8UnitTest11CurrentTest7DetailsEv@PLT
 166      00
 167 0028 488B10   		movq	(%rax), %rdx
 168 002b 488B45F8 		movq	-8(%rbp), %rax
 169 002f 48895008 		movq	%rdx, 8(%rax)
  19:ScopedCurrentTest.h **** 	{
  20:ScopedCurrentTest.h **** 		UnitTest::CurrentTest::Results() = &newResults;
 170              		.loc 3 20 0
 171 0033 E8000000 		call	_ZN8UnitTest11CurrentTest7ResultsEv@PLT
 171      00
 172 0038 4889C2   		movq	%rax, %rdx
 173 003b 488B45F0 		movq	-16(%rbp), %rax
 174 003f 488902   		movq	%rax, (%rdx)
  21:ScopedCurrentTest.h **** 
  22:ScopedCurrentTest.h **** 		if (newDetails != NULL)
 175              		.loc 3 22 0
 176 0042 48837DE8 		cmpq	$0, -24(%rbp)
 176      00
 177 0047 740F     		je	.L12
  23:ScopedCurrentTest.h **** 			UnitTest::CurrentTest::Details() = newDetails;
 178              		.loc 3 23 0
 179 0049 E8000000 		call	_ZN8UnitTest11CurrentTest7DetailsEv@PLT
 179      00
 180 004e 4889C2   		movq	%rax, %rdx
 181 0051 488B45E8 		movq	-24(%rbp), %rax
 182 0055 488902   		movq	%rax, (%rdx)
 183              	.L12:
 184              	.LBE4:
  24:ScopedCurrentTest.h **** 	}
 185              		.loc 3 24 0
 186 0058 90       		nop
 187 0059 C9       		leave
 188              		.cfi_def_cfa 7, 8
 189 005a C3       		ret
 190              		.cfi_endproc
 191              	.LFE1092:
 193              		.weak	_ZN17ScopedCurrentTestC1ERN8UnitTest11TestResultsEPKNS0_11TestDetailsE
 194              		.set	_ZN17ScopedCurrentTestC1ERN8UnitTest11TestResultsEPKNS0_11TestDetailsE,_ZN17ScopedCurrentTest
 195              		.section	.text._ZN17ScopedCurrentTestD2Ev,"axG",@progbits,_ZN17ScopedCurrentTestD5Ev,comdat
 196              		.align 2
 197              		.weak	_ZN17ScopedCurrentTestD2Ev
 199              	_ZN17ScopedCurrentTestD2Ev:
 200              	.LFB1095:
  25:ScopedCurrentTest.h **** 
  26:ScopedCurrentTest.h **** 	~ScopedCurrentTest()
 201              		.loc 3 26 0
 202              		.cfi_startproc
 203 0000 55       		pushq	%rbp
 204              		.cfi_def_cfa_offset 16
 205              		.cfi_offset 6, -16
 206 0001 4889E5   		movq	%rsp, %rbp
 207              		.cfi_def_cfa_register 6
 208 0004 4883EC10 		subq	$16, %rsp
 209 0008 48897DF8 		movq	%rdi, -8(%rbp)
 210              	.LBB5:
  27:ScopedCurrentTest.h **** 	{
  28:ScopedCurrentTest.h **** 		UnitTest::CurrentTest::Results() = m_oldTestResults;
 211              		.loc 3 28 0
 212 000c E8000000 		call	_ZN8UnitTest11CurrentTest7ResultsEv@PLT
 212      00
 213 0011 4889C2   		movq	%rax, %rdx
 214 0014 488B45F8 		movq	-8(%rbp), %rax
 215 0018 488B00   		movq	(%rax), %rax
 216 001b 488902   		movq	%rax, (%rdx)
  29:ScopedCurrentTest.h **** 		UnitTest::CurrentTest::Details() = m_oldTestDetails;
 217              		.loc 3 29 0
 218 001e E8000000 		call	_ZN8UnitTest11CurrentTest7DetailsEv@PLT
 218      00
 219 0023 4889C2   		movq	%rax, %rdx
 220 0026 488B45F8 		movq	-8(%rbp), %rax
 221 002a 488B4008 		movq	8(%rax), %rax
 222 002e 488902   		movq	%rax, (%rdx)
 223              	.LBE5:
  30:ScopedCurrentTest.h **** 	}
 224              		.loc 3 30 0
 225 0031 90       		nop
 226 0032 C9       		leave
 227              		.cfi_def_cfa 7, 8
 228 0033 C3       		ret
 229              		.cfi_endproc
 230              	.LFE1095:
 232              		.weak	_ZN17ScopedCurrentTestD1Ev
 233              		.set	_ZN17ScopedCurrentTestD1Ev,_ZN17ScopedCurrentTestD2Ev
 234              		.section	.rodata
 235              	.LC1:
 236 000d 54657374 		.string	"TestTest.cpp"
 236      54657374 
 236      2E637070 
 236      00
 237              	.LC2:
 238 001a 50617373 		.string	"PassingTestHasNoFailures"
 238      696E6754 
 238      65737448 
 238      61734E6F 
 238      4661696C 
 239              		.text
 240              		.align 2
 242              	_ZN12_GLOBAL__N_128TestPassingTestHasNoFailuresC2Ev:
 243              	.LFB1098:
 244              		.file 4 "TestTest.cpp"
   1:TestTest.cpp  **** #include "../UnitTest++.h"
   2:TestTest.cpp  **** #include "../TestReporter.h"
   3:TestTest.cpp  **** #include "../TimeHelpers.h"
   4:TestTest.cpp  **** #include "ScopedCurrentTest.h"
   5:TestTest.cpp  **** 
   6:TestTest.cpp  **** using namespace UnitTest;
   7:TestTest.cpp  **** 
   8:TestTest.cpp  **** namespace {
   9:TestTest.cpp  **** 
  10:TestTest.cpp  **** TEST(PassingTestHasNoFailures)
 245              		.loc 4 10 0
 246              		.cfi_startproc
 247 0000 55       		pushq	%rbp
 248              		.cfi_def_cfa_offset 16
 249              		.cfi_offset 6, -16
 250 0001 4889E5   		movq	%rsp, %rbp
 251              		.cfi_def_cfa_register 6
 252 0004 53       		pushq	%rbx
 253 0005 4883EC18 		subq	$24, %rsp
 254              		.cfi_offset 3, -24
 255 0009 48897DE8 		movq	%rdi, -24(%rbp)
 256              	.LBB6:
 257              		.loc 4 10 0
 258 000d 488B5DE8 		movq	-24(%rbp), %rbx
 259 0011 E8000000 		call	_ZN13UnitTestSuite12GetSuiteNameEv
 259      00
 260 0016 41B80A00 		movl	$10, %r8d
 260      0000
 261 001c 488D0D00 		leaq	.LC1(%rip), %rcx
 261      000000
 262 0023 4889C2   		movq	%rax, %rdx
 263 0026 488D3500 		leaq	.LC2(%rip), %rsi
 263      000000
 264 002d 4889DF   		movq	%rbx, %rdi
 265 0030 E8000000 		call	_ZN8UnitTest4TestC2EPKcS2_S2_i@PLT
 265      00
 266 0035 488D1500 		leaq	16+_ZTVN12_GLOBAL__N_128TestPassingTestHasNoFailuresE(%rip), %rdx
 266      000000
 267 003c 488B45E8 		movq	-24(%rbp), %rax
 268 0040 488910   		movq	%rdx, (%rax)
 269              	.LBE6:
 270 0043 90       		nop
 271 0044 4883C418 		addq	$24, %rsp
 272 0048 5B       		popq	%rbx
 273 0049 5D       		popq	%rbp
 274              		.cfi_def_cfa 7, 8
 275 004a C3       		ret
 276              		.cfi_endproc
 277              	.LFE1098:
 279              		.set	_ZN12_GLOBAL__N_128TestPassingTestHasNoFailuresC1Ev,_ZN12_GLOBAL__N_128TestPassingTestHasNoFa
 280              		.local	_ZN12_GLOBAL__N_136testPassingTestHasNoFailuresInstanceE
 281              		.comm	_ZN12_GLOBAL__N_136testPassingTestHasNoFailuresInstanceE,56,32
 282              		.local	_ZN12_GLOBAL__N_129adderPassingTestHasNoFailuresE
 283              		.comm	_ZN12_GLOBAL__N_129adderPassingTestHasNoFailuresE,1,1
 284              		.section	.rodata
 285              	.LC3:
 286 0033 00       		.string	""
 287              	.LC4:
 288 0034 70617373 		.string	"passing"
 288      696E6700 
 289              		.text
 290 004b 90       		.align 2
 292              	_ZZNK12_GLOBAL__N_128TestPassingTestHasNoFailures7RunImplEvEN11PassingTestC2Ev:
 293              	.LFB1102:
  11:TestTest.cpp  **** {
  12:TestTest.cpp  ****     class PassingTest : public Test
  13:TestTest.cpp  ****     {
  14:TestTest.cpp  ****     public:
  15:TestTest.cpp  ****         PassingTest() : Test("passing") {}
 294              		.loc 4 15 0
 295              		.cfi_startproc
 296 004c 55       		pushq	%rbp
 297              		.cfi_def_cfa_offset 16
 298              		.cfi_offset 6, -16
 299 004d 4889E5   		movq	%rsp, %rbp
 300              		.cfi_def_cfa_register 6
 301 0050 4883EC10 		subq	$16, %rsp
 302 0054 48897DF8 		movq	%rdi, -8(%rbp)
 303              	.LBB7:
 304              		.loc 4 15 0
 305 0058 488B45F8 		movq	-8(%rbp), %rax
 306 005c 41B80000 		movl	$0, %r8d
 306      0000
 307 0062 488D0D00 		leaq	.LC3(%rip), %rcx
 307      000000
 308 0069 488D1500 		leaq	.LC0(%rip), %rdx
 308      000000
 309 0070 488D3500 		leaq	.LC4(%rip), %rsi
 309      000000
 310 0077 4889C7   		movq	%rax, %rdi
 311 007a E8000000 		call	_ZN8UnitTest4TestC2EPKcS2_S2_i@PLT
 311      00
 312 007f 488D1500 		leaq	16+_ZTVZNK12_GLOBAL__N_128TestPassingTestHasNoFailures7RunImplEvE11PassingTest(%rip), %rdx
 312      000000
 313 0086 488B45F8 		movq	-8(%rbp), %rax
 314 008a 488910   		movq	%rdx, (%rax)
 315              	.LBE7:
 316 008d 90       		nop
 317 008e C9       		leave
 318              		.cfi_def_cfa 7, 8
 319 008f C3       		ret
 320              		.cfi_endproc
 321              	.LFE1102:
 323              		.set	_ZZNK12_GLOBAL__N_128TestPassingTestHasNoFailures7RunImplEvEN11PassingTestC1Ev,_ZZNK12_GLOBAL
 324              		.section	.rodata
 325              	.LC5:
 326 003c 74727565 		.string	"true"
 326      00
 327 0041 00000000 		.align 8
 327      000000
 328              	.LC6:
 329 0048 556E6861 		.string	"Unhandled exception in CHECK(true)"
 329      6E646C65 
 329      64206578 
 329      63657074 
 329      696F6E20 
 330              		.text
 331              		.align 2
 333              	_ZZNK12_GLOBAL__N_128TestPassingTestHasNoFailures7RunImplEvENK11PassingTest7RunImplEv:
 334              	.LFB1104:
  16:TestTest.cpp  ****         virtual void RunImpl() const
 335              		.loc 4 16 0
 336              		.cfi_startproc
 337              		.cfi_personality 0x9b,DW.ref.__gxx_personality_v0
 338              		.cfi_lsda 0x1b,.LLSDA1104
 339 0090 55       		pushq	%rbp
 340              		.cfi_def_cfa_offset 16
 341              		.cfi_offset 6, -16
 342 0091 4889E5   		movq	%rsp, %rbp
 343              		.cfi_def_cfa_register 6
 344 0094 53       		pushq	%rbx
 345 0095 4883EC48 		subq	$72, %rsp
 346              		.cfi_offset 3, -24
 347 0099 48897DB8 		movq	%rdi, -72(%rbp)
 348              		.loc 4 16 0
 349 009d 64488B04 		movq	%fs:40, %rax
 349      25280000 
 349      00
 350 00a6 488945E8 		movq	%rax, -24(%rbp)
 351 00aa 31C0     		xorl	%eax, %eax
  17:TestTest.cpp  ****         {
  18:TestTest.cpp  ****             CHECK(true);
 352              		.loc 4 18 0
 353 00ac BF010000 		movl	$1, %edi
 353      00
 354 00b1 E8000000 		call	_ZN8UnitTest5CheckIbEEbT_
 354      00
 355 00b6 83F001   		xorl	$1, %eax
 356 00b9 84C0     		testb	%al, %al
 357 00bb 0F849800 		je	.L23
 357      0000
 358              	.LEHB4:
 359              		.loc 4 18 0 is_stmt 0 discriminator 1
 360 00c1 E8000000 		call	_ZN8UnitTest11CurrentTest7ResultsEv@PLT
 360      00
 361 00c6 488B18   		movq	(%rax), %rbx
 362 00c9 E8000000 		call	_ZN8UnitTest11CurrentTest7DetailsEv@PLT
 362      00
 363              		.loc 4 18 0 discriminator 2
 364 00ce 488B08   		movq	(%rax), %rcx
 365 00d1 488D45C0 		leaq	-64(%rbp), %rax
 366 00d5 BA120000 		movl	$18, %edx
 366      00
 367 00da 4889CE   		movq	%rcx, %rsi
 368 00dd 4889C7   		movq	%rax, %rdi
 369 00e0 E8000000 		call	_ZN8UnitTest11TestDetailsC1ERKS0_i@PLT
 369      00
 370              		.loc 4 18 0 discriminator 4
 371 00e5 488D45C0 		leaq	-64(%rbp), %rax
 372 00e9 488D1500 		leaq	.LC5(%rip), %rdx
 372      000000
 373 00f0 4889C6   		movq	%rax, %rsi
 374 00f3 4889DF   		movq	%rbx, %rdi
 375 00f6 E8000000 		call	_ZN8UnitTest11TestResults13OnTestFailureERKNS_11TestDetailsEPKc@PLT
 375      00
 376              	.LEHE4:
  19:TestTest.cpp  ****         }
 377              		.loc 4 19 0 is_stmt 1
 378 00fb EB5C     		jmp	.L23
 379              	.L21:
  18:TestTest.cpp  ****         }
 380              		.loc 4 18 0
 381 00fd 4889C7   		movq	%rax, %rdi
 382 0100 E8000000 		call	__cxa_begin_catch@PLT
 382      00
 383              	.LEHB5:
 384 0105 E8000000 		call	_ZN8UnitTest11CurrentTest7ResultsEv@PLT
 384      00
 385 010a 488B18   		movq	(%rax), %rbx
 386 010d E8000000 		call	_ZN8UnitTest11CurrentTest7DetailsEv@PLT
 386      00
  18:TestTest.cpp  ****         }
 387              		.loc 4 18 0 is_stmt 0 discriminator 8
 388 0112 488B08   		movq	(%rax), %rcx
 389 0115 488D45C0 		leaq	-64(%rbp), %rax
 390 0119 BA120000 		movl	$18, %edx
 390      00
 391 011e 4889CE   		movq	%rcx, %rsi
 392 0121 4889C7   		movq	%rax, %rdi
 393 0124 E8000000 		call	_ZN8UnitTest11TestDetailsC1ERKS0_i@PLT
 393      00
  18:TestTest.cpp  ****         }
 394              		.loc 4 18 0 discriminator 12
 395 0129 488D45C0 		leaq	-64(%rbp), %rax
 396 012d 488D1500 		leaq	.LC6(%rip), %rdx
 396      000000
 397 0134 4889C6   		movq	%rax, %rsi
 398 0137 4889DF   		movq	%rbx, %rdi
 399 013a E8000000 		call	_ZN8UnitTest11TestResults13OnTestFailureERKNS_11TestDetailsEPKc@PLT
 399      00
 400              	.LEHE5:
 401              	.LEHB6:
  18:TestTest.cpp  ****         }
 402              		.loc 4 18 0 discriminator 14
 403 013f E8000000 		call	__cxa_end_catch@PLT
 403      00
 404              	.LEHE6:
 405              		.loc 4 19 0 is_stmt 1 discriminator 14
 406 0144 EB13     		jmp	.L23
 407              	.L22:
 408 0146 4889C3   		movq	%rax, %rbx
  18:TestTest.cpp  ****         }
 409              		.loc 4 18 0
 410 0149 E8000000 		call	__cxa_end_catch@PLT
 410      00
 411 014e 4889D8   		movq	%rbx, %rax
 412 0151 4889C7   		movq	%rax, %rdi
 413              	.LEHB7:
 414 0154 E8000000 		call	_Unwind_Resume@PLT
 414      00
 415              	.LEHE7:
 416              	.L23:
 417              		.loc 4 19 0
 418 0159 90       		nop
 419 015a 488B45E8 		movq	-24(%rbp), %rax
 420 015e 64483304 		xorq	%fs:40, %rax
 420      25280000 
 420      00
 421 0167 7405     		je	.L20
 422 0169 E8000000 		call	__stack_chk_fail@PLT
 422      00
 423              	.L20:
 424 016e 4883C448 		addq	$72, %rsp
 425 0172 5B       		popq	%rbx
 426 0173 5D       		popq	%rbp
 427              		.cfi_def_cfa 7, 8
 428 0174 C3       		ret
 429              		.cfi_endproc
 430              	.LFE1104:
 431              		.section	.gcc_except_table,"a",@progbits
 432              		.align 4
 433              	.LLSDA1104:
 434 0000 FF       		.byte	0xff
 435 0001 9B       		.byte	0x9b
 436 0002 1D       		.uleb128 .LLSDATT1104-.LLSDATTD1104
 437              	.LLSDATTD1104:
 438 0003 01       		.byte	0x1
 439 0004 13       		.uleb128 .LLSDACSE1104-.LLSDACSB1104
 440              	.LLSDACSB1104:
 441 0005 31       		.uleb128 .LEHB4-.LFB1104
 442 0006 3A       		.uleb128 .LEHE4-.LEHB4
 443 0007 6D       		.uleb128 .L21-.LFB1104
 444 0008 01       		.uleb128 0x1
 445 0009 75       		.uleb128 .LEHB5-.LFB1104
 446 000a 3A       		.uleb128 .LEHE5-.LEHB5
 447 000b B601     		.uleb128 .L22-.LFB1104
 448 000d 00       		.uleb128 0
 449 000e AF01     		.uleb128 .LEHB6-.LFB1104
 450 0010 05       		.uleb128 .LEHE6-.LEHB6
 451 0011 00       		.uleb128 0
 452 0012 00       		.uleb128 0
 453 0013 C401     		.uleb128 .LEHB7-.LFB1104
 454 0015 05       		.uleb128 .LEHE7-.LEHB7
 455 0016 00       		.uleb128 0
 456 0017 00       		.uleb128 0
 457              	.LLSDACSE1104:
 458 0018 01       		.byte	0x1
 459 0019 00       		.byte	0
 460 001a 0000     		.align 4
 461 001c 00000000 		.long	0
 462              	
 463              	.LLSDATT1104:
 464              		.text
 466              		.section	.rodata
 467 006b 00000000 		.align 8
 467      00
 468              	.LC7:
 469 0070 556E6861 		.string	"Unhandled exception in CHECK_EQUAL(0, results.GetFailureCount())"
 469      6E646C65 
 469      64206578 
 469      63657074 
 469      696F6E20 
 470              		.text
 471 0175 90       		.align 2
 473              	_ZNK12_GLOBAL__N_128TestPassingTestHasNoFailures7RunImplEv:
 474              	.LFB1100:
  11:TestTest.cpp  ****     class PassingTest : public Test
 475              		.loc 4 11 0
 476              		.cfi_startproc
 477              		.cfi_personality 0x9b,DW.ref.__gxx_personality_v0
 478              		.cfi_lsda 0x1b,.LLSDA1100
 479 0176 55       		pushq	%rbp
 480              		.cfi_def_cfa_offset 16
 481              		.cfi_offset 6, -16
 482 0177 4889E5   		movq	%rsp, %rbp
 483              		.cfi_def_cfa_register 6
 484 017a 53       		pushq	%rbx
 485 017b 4881EC98 		subq	$152, %rsp
 485      000000
 486              		.cfi_offset 3, -24
 487 0182 4889BD68 		movq	%rdi, -152(%rbp)
 487      FFFFFF
  11:TestTest.cpp  ****     class PassingTest : public Test
 488              		.loc 4 11 0
 489 0189 64488B04 		movq	%fs:40, %rax
 489      25280000 
 489      00
 490 0192 488945E8 		movq	%rax, -24(%rbp)
 491 0196 31C0     		xorl	%eax, %eax
  20:TestTest.cpp  ****     };
  21:TestTest.cpp  **** 
  22:TestTest.cpp  ****     TestResults results;
 492              		.loc 4 22 0
 493 0198 488D4590 		leaq	-112(%rbp), %rax
 494 019c BE000000 		movl	$0, %esi
 494      00
 495 01a1 4889C7   		movq	%rax, %rdi
 496              	.LEHB8:
 497 01a4 E8000000 		call	_ZN8UnitTest11TestResultsC1EPNS_12TestReporterE@PLT
 497      00
 498              	.LBB8:
  23:TestTest.cpp  **** 	{
  24:TestTest.cpp  **** 		ScopedCurrentTest scopedResults(results);
 499              		.loc 4 24 0
 500 01a9 488D4D90 		leaq	-112(%rbp), %rcx
 501 01ad 488D4580 		leaq	-128(%rbp), %rax
 502 01b1 BA000000 		movl	$0, %edx
 502      00
 503 01b6 4889CE   		movq	%rcx, %rsi
 504 01b9 4889C7   		movq	%rax, %rdi
 505 01bc E8000000 		call	_ZN17ScopedCurrentTestC1ERN8UnitTest11TestResultsEPKNS0_11TestDetailsE
 505      00
 506              	.LEHE8:
  25:TestTest.cpp  **** 		PassingTest().Run();
 507              		.loc 4 25 0
 508 01c1 488D45B0 		leaq	-80(%rbp), %rax
 509 01c5 4889C7   		movq	%rax, %rdi
 510              	.LEHB9:
 511 01c8 E87FFEFF 		call	_ZZNK12_GLOBAL__N_128TestPassingTestHasNoFailures7RunImplEvEN11PassingTestC1Ev
 511      FF
 512              	.LEHE9:
 513              		.loc 4 25 0 is_stmt 0 discriminator 1
 514 01cd 488D45B0 		leaq	-80(%rbp), %rax
 515 01d1 4889C7   		movq	%rax, %rdi
 516              	.LEHB10:
 517 01d4 E8000000 		call	_ZN8UnitTest4Test3RunEv@PLT
 517      00
 518              	.LEHE10:
 519              		.loc 4 25 0 discriminator 3
 520 01d9 488D45B0 		leaq	-80(%rbp), %rax
 521 01dd 4889C7   		movq	%rax, %rdi
 522              	.LEHB11:
 523 01e0 E87D1300 		call	_ZZNK12_GLOBAL__N_128TestPassingTestHasNoFailures7RunImplEvEN11PassingTestD1Ev
 523      00
 524              	.LEHE11:
  24:TestTest.cpp  **** 		PassingTest().Run();
 525              		.loc 4 24 0 is_stmt 1 discriminator 5
 526 01e5 488D4580 		leaq	-128(%rbp), %rax
 527 01e9 4889C7   		movq	%rax, %rdi
 528              	.LEHB12:
 529 01ec E8000000 		call	_ZN17ScopedCurrentTestD1Ev
 529      00
 530              	.LEHE12:
 531              	.LEHB13:
 532              	.LBE8:
  26:TestTest.cpp  **** 	}
  27:TestTest.cpp  **** 
  28:TestTest.cpp  ****     CHECK_EQUAL(0, results.GetFailureCount());
 533              		.loc 4 28 0 discriminator 5
 534 01f1 E8000000 		call	_ZN8UnitTest11CurrentTest7DetailsEv@PLT
 534      00
 535 01f6 488B08   		movq	(%rax), %rcx
 536 01f9 488D45B0 		leaq	-80(%rbp), %rax
 537 01fd BA1C0000 		movl	$28, %edx
 537      00
 538 0202 4889CE   		movq	%rcx, %rsi
 539 0205 4889C7   		movq	%rax, %rdi
 540 0208 E8000000 		call	_ZN8UnitTest11TestDetailsC1ERKS0_i@PLT
 540      00
 541              		.loc 4 28 0 is_stmt 0 discriminator 2
 542 020d 488D4590 		leaq	-112(%rbp), %rax
 543 0211 4889C7   		movq	%rax, %rdi
 544 0214 E8000000 		call	_ZNK8UnitTest11TestResults15GetFailureCountEv@PLT
 544      00
 545              	.LEHE13:
 546 0219 894580   		movl	%eax, -128(%rbp)
 547 021c C7857CFF 		movl	$0, -132(%rbp)
 547      FFFF0000 
 547      0000
 548              	.LEHB14:
 549 0226 E8000000 		call	_ZN8UnitTest11CurrentTest7ResultsEv@PLT
 549      00
 550              		.loc 4 28 0 discriminator 4
 551 022b 488B00   		movq	(%rax), %rax
 552 022e 488D4DB0 		leaq	-80(%rbp), %rcx
 553 0232 488D5580 		leaq	-128(%rbp), %rdx
 554 0236 488DB57C 		leaq	-132(%rbp), %rsi
 554      FFFFFF
 555 023d 4889C7   		movq	%rax, %rdi
 556 0240 E8000000 		call	_ZN8UnitTest10CheckEqualIiiEEvRNS_11TestResultsERKT_RKT0_RKNS_11TestDetailsE
 556      00
 557              	.LEHE14:
  29:TestTest.cpp  **** }
 558              		.loc 4 29 0 is_stmt 1
 559 0245 E9890000 		jmp	.L24
 559      00
 560              	.L33:
 561 024a 4889C3   		movq	%rax, %rbx
 562              	.LBB9:
  25:TestTest.cpp  **** 	}
 563              		.loc 4 25 0
 564 024d 488D45B0 		leaq	-80(%rbp), %rax
 565 0251 4889C7   		movq	%rax, %rdi
 566 0254 E8091300 		call	_ZZNK12_GLOBAL__N_128TestPassingTestHasNoFailures7RunImplEvEN11PassingTestD1Ev
 566      00
 567 0259 EB03     		jmp	.L26
 568              	.L32:
 569 025b 4889C3   		movq	%rax, %rbx
 570              	.L26:
  24:TestTest.cpp  **** 		PassingTest().Run();
 571              		.loc 4 24 0
 572 025e 488D4580 		leaq	-128(%rbp), %rax
 573 0262 4889C7   		movq	%rax, %rdi
 574 0265 E8000000 		call	_ZN17ScopedCurrentTestD1Ev
 574      00
 575 026a 4889D8   		movq	%rbx, %rax
 576 026d 4889C7   		movq	%rax, %rdi
 577              	.LEHB15:
 578 0270 E8000000 		call	_Unwind_Resume@PLT
 578      00
 579              	.LEHE15:
 580              	.L35:
 581 0275 EB00     		jmp	.L28
 582              	.L34:
 583              	.L28:
 584              	.LBE9:
  28:TestTest.cpp  **** }
 585              		.loc 4 28 0
 586 0277 4889C7   		movq	%rax, %rdi
 587 027a E8000000 		call	__cxa_begin_catch@PLT
 587      00
 588              	.LEHB16:
 589 027f E8000000 		call	_ZN8UnitTest11CurrentTest7ResultsEv@PLT
 589      00
 590 0284 488B18   		movq	(%rax), %rbx
 591 0287 E8000000 		call	_ZN8UnitTest11CurrentTest7DetailsEv@PLT
 591      00
  28:TestTest.cpp  **** }
 592              		.loc 4 28 0 is_stmt 0 discriminator 10
 593 028c 488B08   		movq	(%rax), %rcx
 594 028f 488D45B0 		leaq	-80(%rbp), %rax
 595 0293 BA1C0000 		movl	$28, %edx
 595      00
 596 0298 4889CE   		movq	%rcx, %rsi
 597 029b 4889C7   		movq	%rax, %rdi
 598 029e E8000000 		call	_ZN8UnitTest11TestDetailsC1ERKS0_i@PLT
 598      00
  28:TestTest.cpp  **** }
 599              		.loc 4 28 0 discriminator 14
 600 02a3 488D45B0 		leaq	-80(%rbp), %rax
 601 02a7 488D1500 		leaq	.LC7(%rip), %rdx
 601      000000
 602 02ae 4889C6   		movq	%rax, %rsi
 603 02b1 4889DF   		movq	%rbx, %rdi
 604 02b4 E8000000 		call	_ZN8UnitTest11TestResults13OnTestFailureERKNS_11TestDetailsEPKc@PLT
 604      00
 605              	.LEHE16:
 606              	.LEHB17:
  28:TestTest.cpp  **** }
 607              		.loc 4 28 0 discriminator 16
 608 02b9 E8000000 		call	__cxa_end_catch@PLT
 608      00
 609              	.LEHE17:
 610              		.loc 4 29 0 is_stmt 1 discriminator 16
 611 02be EB13     		jmp	.L24
 612              	.L36:
 613 02c0 4889C3   		movq	%rax, %rbx
  28:TestTest.cpp  **** }
 614              		.loc 4 28 0
 615 02c3 E8000000 		call	__cxa_end_catch@PLT
 615      00
 616 02c8 4889D8   		movq	%rbx, %rax
 617 02cb 4889C7   		movq	%rax, %rdi
 618              	.LEHB18:
 619 02ce E8000000 		call	_Unwind_Resume@PLT
 619      00
 620              	.LEHE18:
 621              	.L24:
 622              		.loc 4 29 0
 623 02d3 488B45E8 		movq	-24(%rbp), %rax
 624 02d7 64483304 		xorq	%fs:40, %rax
 624      25280000 
 624      00
 625 02e0 7405     		je	.L31
 626 02e2 E8000000 		call	__stack_chk_fail@PLT
 626      00
 627              	.L31:
 628 02e7 4881C498 		addq	$152, %rsp
 628      000000
 629 02ee 5B       		popq	%rbx
 630 02ef 5D       		popq	%rbp
 631              		.cfi_def_cfa 7, 8
 632 02f0 C3       		ret
 633              		.cfi_endproc
 634              	.LFE1100:
 635              		.section	.gcc_except_table
 636              		.align 4
 637              	.LLSDA1100:
 638 0020 FF       		.byte	0xff
 639 0021 9B       		.byte	0x9b
 640 0022 41       		.uleb128 .LLSDATT1100-.LLSDATTD1100
 641              	.LLSDATTD1100:
 642 0023 01       		.byte	0x1
 643 0024 37       		.uleb128 .LLSDACSE1100-.LLSDACSB1100
 644              	.LLSDACSB1100:
 645 0025 2E       		.uleb128 .LEHB8-.LFB1100
 646 0026 1D       		.uleb128 .LEHE8-.LEHB8
 647 0027 00       		.uleb128 0
 648 0028 00       		.uleb128 0
 649 0029 52       		.uleb128 .LEHB9-.LFB1100
 650 002a 05       		.uleb128 .LEHE9-.LEHB9
 651 002b E501     		.uleb128 .L32-.LFB1100
 652 002d 00       		.uleb128 0
 653 002e 5E       		.uleb128 .LEHB10-.LFB1100
 654 002f 05       		.uleb128 .LEHE10-.LEHB10
 655 0030 D401     		.uleb128 .L33-.LFB1100
 656 0032 00       		.uleb128 0
 657 0033 6A       		.uleb128 .LEHB11-.LFB1100
 658 0034 05       		.uleb128 .LEHE11-.LEHB11
 659 0035 E501     		.uleb128 .L32-.LFB1100
 660 0037 00       		.uleb128 0
 661 0038 76       		.uleb128 .LEHB12-.LFB1100
 662 0039 05       		.uleb128 .LEHE12-.LEHB12
 663 003a 00       		.uleb128 0
 664 003b 00       		.uleb128 0
 665 003c 7B       		.uleb128 .LEHB13-.LFB1100
 666 003d 28       		.uleb128 .LEHE13-.LEHB13
 667 003e 8102     		.uleb128 .L34-.LFB1100
 668 0040 01       		.uleb128 0x1
 669 0041 B001     		.uleb128 .LEHB14-.LFB1100
 670 0043 1F       		.uleb128 .LEHE14-.LEHB14
 671 0044 FF01     		.uleb128 .L35-.LFB1100
 672 0046 03       		.uleb128 0x3
 673 0047 FA01     		.uleb128 .LEHB15-.LFB1100
 674 0049 05       		.uleb128 .LEHE15-.LEHB15
 675 004a 00       		.uleb128 0
 676 004b 00       		.uleb128 0
 677 004c 8902     		.uleb128 .LEHB16-.LFB1100
 678 004e 3A       		.uleb128 .LEHE16-.LEHB16
 679 004f CA02     		.uleb128 .L36-.LFB1100
 680 0051 00       		.uleb128 0
 681 0052 C302     		.uleb128 .LEHB17-.LFB1100
 682 0054 05       		.uleb128 .LEHE17-.LEHB17
 683 0055 00       		.uleb128 0
 684 0056 00       		.uleb128 0
 685 0057 D802     		.uleb128 .LEHB18-.LFB1100
 686 0059 05       		.uleb128 .LEHE18-.LEHB18
 687 005a 00       		.uleb128 0
 688 005b 00       		.uleb128 0
 689              	.LLSDACSE1100:
 690 005c 01       		.byte	0x1
 691 005d 00       		.byte	0
 692 005e 00       		.byte	0
 693 005f 7D       		.byte	0x7d
 694              		.align 4
 695 0060 00000000 		.long	0
 696              	
 697              	.LLSDATT1100:
 698              		.text
 700              		.section	.rodata
 701              	.LC8:
 702 00b1 4661696C 		.string	"FailingTestHasFailures"
 702      696E6754 
 702      65737448 
 702      61734661 
 702      696C7572 
 703              		.text
 704 02f1 90       		.align 2
 706              	_ZN12_GLOBAL__N_126TestFailingTestHasFailuresC2Ev:
 707              	.LFB1106:
  30:TestTest.cpp  **** 
  31:TestTest.cpp  **** 
  32:TestTest.cpp  **** TEST(FailingTestHasFailures)
 708              		.loc 4 32 0
 709              		.cfi_startproc
 710 02f2 55       		pushq	%rbp
 711              		.cfi_def_cfa_offset 16
 712              		.cfi_offset 6, -16
 713 02f3 4889E5   		movq	%rsp, %rbp
 714              		.cfi_def_cfa_register 6
 715 02f6 53       		pushq	%rbx
 716 02f7 4883EC18 		subq	$24, %rsp
 717              		.cfi_offset 3, -24
 718 02fb 48897DE8 		movq	%rdi, -24(%rbp)
 719              	.LBB10:
 720              		.loc 4 32 0
 721 02ff 488B5DE8 		movq	-24(%rbp), %rbx
 722 0303 E8000000 		call	_ZN13UnitTestSuite12GetSuiteNameEv
 722      00
 723 0308 41B82000 		movl	$32, %r8d
 723      0000
 724 030e 488D0D00 		leaq	.LC1(%rip), %rcx
 724      000000
 725 0315 4889C2   		movq	%rax, %rdx
 726 0318 488D3500 		leaq	.LC8(%rip), %rsi
 726      000000
 727 031f 4889DF   		movq	%rbx, %rdi
 728 0322 E8000000 		call	_ZN8UnitTest4TestC2EPKcS2_S2_i@PLT
 728      00
 729 0327 488D1500 		leaq	16+_ZTVN12_GLOBAL__N_126TestFailingTestHasFailuresE(%rip), %rdx
 729      000000
 730 032e 488B45E8 		movq	-24(%rbp), %rax
 731 0332 488910   		movq	%rdx, (%rax)
 732              	.LBE10:
 733 0335 90       		nop
 734 0336 4883C418 		addq	$24, %rsp
 735 033a 5B       		popq	%rbx
 736 033b 5D       		popq	%rbp
 737              		.cfi_def_cfa 7, 8
 738 033c C3       		ret
 739              		.cfi_endproc
 740              	.LFE1106:
 742              		.set	_ZN12_GLOBAL__N_126TestFailingTestHasFailuresC1Ev,_ZN12_GLOBAL__N_126TestFailingTestHasFailur
 743              		.local	_ZN12_GLOBAL__N_134testFailingTestHasFailuresInstanceE
 744              		.comm	_ZN12_GLOBAL__N_134testFailingTestHasFailuresInstanceE,56,32
 745              		.local	_ZN12_GLOBAL__N_127adderFailingTestHasFailuresE
 746              		.comm	_ZN12_GLOBAL__N_127adderFailingTestHasFailuresE,1,1
 747              		.section	.rodata
 748              	.LC9:
 749 00c8 6661696C 		.string	"failing"
 749      696E6700 
 750              		.text
 751 033d 90       		.align 2
 753              	_ZZNK12_GLOBAL__N_126TestFailingTestHasFailures7RunImplEvEN11FailingTestC2Ev:
 754              	.LFB1110:
  33:TestTest.cpp  **** {
  34:TestTest.cpp  ****     class FailingTest : public Test
  35:TestTest.cpp  ****     {
  36:TestTest.cpp  ****     public:
  37:TestTest.cpp  ****         FailingTest() : Test("failing") {}
 755              		.loc 4 37 0
 756              		.cfi_startproc
 757 033e 55       		pushq	%rbp
 758              		.cfi_def_cfa_offset 16
 759              		.cfi_offset 6, -16
 760 033f 4889E5   		movq	%rsp, %rbp
 761              		.cfi_def_cfa_register 6
 762 0342 4883EC10 		subq	$16, %rsp
 763 0346 48897DF8 		movq	%rdi, -8(%rbp)
 764              	.LBB11:
 765              		.loc 4 37 0
 766 034a 488B45F8 		movq	-8(%rbp), %rax
 767 034e 41B80000 		movl	$0, %r8d
 767      0000
 768 0354 488D0D00 		leaq	.LC3(%rip), %rcx
 768      000000
 769 035b 488D1500 		leaq	.LC0(%rip), %rdx
 769      000000
 770 0362 488D3500 		leaq	.LC9(%rip), %rsi
 770      000000
 771 0369 4889C7   		movq	%rax, %rdi
 772 036c E8000000 		call	_ZN8UnitTest4TestC2EPKcS2_S2_i@PLT
 772      00
 773 0371 488D1500 		leaq	16+_ZTVZNK12_GLOBAL__N_126TestFailingTestHasFailures7RunImplEvE11FailingTest(%rip), %rdx
 773      000000
 774 0378 488B45F8 		movq	-8(%rbp), %rax
 775 037c 488910   		movq	%rdx, (%rax)
 776              	.LBE11:
 777 037f 90       		nop
 778 0380 C9       		leave
 779              		.cfi_def_cfa 7, 8
 780 0381 C3       		ret
 781              		.cfi_endproc
 782              	.LFE1110:
 784              		.set	_ZZNK12_GLOBAL__N_126TestFailingTestHasFailures7RunImplEvEN11FailingTestC1Ev,_ZZNK12_GLOBAL__
 785              		.section	.rodata
 786              	.LC10:
 787 00d0 66616C73 		.string	"false"
 787      6500
 788 00d6 0000     		.align 8
 789              	.LC11:
 790 00d8 556E6861 		.string	"Unhandled exception in CHECK(false)"
 790      6E646C65 
 790      64206578 
 790      63657074 
 790      696F6E20 
 791              		.text
 792              		.align 2
 794              	_ZZNK12_GLOBAL__N_126TestFailingTestHasFailures7RunImplEvENK11FailingTest7RunImplEv:
 795              	.LFB1112:
  38:TestTest.cpp  ****         virtual void RunImpl() const
 796              		.loc 4 38 0
 797              		.cfi_startproc
 798              		.cfi_personality 0x9b,DW.ref.__gxx_personality_v0
 799              		.cfi_lsda 0x1b,.LLSDA1112
 800 0382 55       		pushq	%rbp
 801              		.cfi_def_cfa_offset 16
 802              		.cfi_offset 6, -16
 803 0383 4889E5   		movq	%rsp, %rbp
 804              		.cfi_def_cfa_register 6
 805 0386 53       		pushq	%rbx
 806 0387 4883EC48 		subq	$72, %rsp
 807              		.cfi_offset 3, -24
 808 038b 48897DB8 		movq	%rdi, -72(%rbp)
 809              		.loc 4 38 0
 810 038f 64488B04 		movq	%fs:40, %rax
 810      25280000 
 810      00
 811 0398 488945E8 		movq	%rax, -24(%rbp)
 812 039c 31C0     		xorl	%eax, %eax
  39:TestTest.cpp  ****         {
  40:TestTest.cpp  ****             CHECK(false);
 813              		.loc 4 40 0
 814 039e BF000000 		movl	$0, %edi
 814      00
 815 03a3 E8000000 		call	_ZN8UnitTest5CheckIbEEbT_
 815      00
 816 03a8 83F001   		xorl	$1, %eax
 817 03ab 84C0     		testb	%al, %al
 818 03ad 0F849800 		je	.L46
 818      0000
 819              	.LEHB19:
 820              		.loc 4 40 0 is_stmt 0 discriminator 1
 821 03b3 E8000000 		call	_ZN8UnitTest11CurrentTest7ResultsEv@PLT
 821      00
 822 03b8 488B18   		movq	(%rax), %rbx
 823 03bb E8000000 		call	_ZN8UnitTest11CurrentTest7DetailsEv@PLT
 823      00
 824              		.loc 4 40 0 discriminator 2
 825 03c0 488B08   		movq	(%rax), %rcx
 826 03c3 488D45C0 		leaq	-64(%rbp), %rax
 827 03c7 BA280000 		movl	$40, %edx
 827      00
 828 03cc 4889CE   		movq	%rcx, %rsi
 829 03cf 4889C7   		movq	%rax, %rdi
 830 03d2 E8000000 		call	_ZN8UnitTest11TestDetailsC1ERKS0_i@PLT
 830      00
 831              		.loc 4 40 0 discriminator 4
 832 03d7 488D45C0 		leaq	-64(%rbp), %rax
 833 03db 488D1500 		leaq	.LC10(%rip), %rdx
 833      000000
 834 03e2 4889C6   		movq	%rax, %rsi
 835 03e5 4889DF   		movq	%rbx, %rdi
 836 03e8 E8000000 		call	_ZN8UnitTest11TestResults13OnTestFailureERKNS_11TestDetailsEPKc@PLT
 836      00
 837              	.LEHE19:
  41:TestTest.cpp  ****         }
 838              		.loc 4 41 0 is_stmt 1
 839 03ed EB5C     		jmp	.L46
 840              	.L44:
  40:TestTest.cpp  ****         }
 841              		.loc 4 40 0
 842 03ef 4889C7   		movq	%rax, %rdi
 843 03f2 E8000000 		call	__cxa_begin_catch@PLT
 843      00
 844              	.LEHB20:
 845 03f7 E8000000 		call	_ZN8UnitTest11CurrentTest7ResultsEv@PLT
 845      00
 846 03fc 488B18   		movq	(%rax), %rbx
 847 03ff E8000000 		call	_ZN8UnitTest11CurrentTest7DetailsEv@PLT
 847      00
  40:TestTest.cpp  ****         }
 848              		.loc 4 40 0 is_stmt 0 discriminator 8
 849 0404 488B08   		movq	(%rax), %rcx
 850 0407 488D45C0 		leaq	-64(%rbp), %rax
 851 040b BA280000 		movl	$40, %edx
 851      00
 852 0410 4889CE   		movq	%rcx, %rsi
 853 0413 4889C7   		movq	%rax, %rdi
 854 0416 E8000000 		call	_ZN8UnitTest11TestDetailsC1ERKS0_i@PLT
 854      00
  40:TestTest.cpp  ****         }
 855              		.loc 4 40 0 discriminator 12
 856 041b 488D45C0 		leaq	-64(%rbp), %rax
 857 041f 488D1500 		leaq	.LC11(%rip), %rdx
 857      000000
 858 0426 4889C6   		movq	%rax, %rsi
 859 0429 4889DF   		movq	%rbx, %rdi
 860 042c E8000000 		call	_ZN8UnitTest11TestResults13OnTestFailureERKNS_11TestDetailsEPKc@PLT
 860      00
 861              	.LEHE20:
 862              	.LEHB21:
  40:TestTest.cpp  ****         }
 863              		.loc 4 40 0 discriminator 14
 864 0431 E8000000 		call	__cxa_end_catch@PLT
 864      00
 865              	.LEHE21:
 866              		.loc 4 41 0 is_stmt 1 discriminator 14
 867 0436 EB13     		jmp	.L46
 868              	.L45:
 869 0438 4889C3   		movq	%rax, %rbx
  40:TestTest.cpp  ****         }
 870              		.loc 4 40 0
 871 043b E8000000 		call	__cxa_end_catch@PLT
 871      00
 872 0440 4889D8   		movq	%rbx, %rax
 873 0443 4889C7   		movq	%rax, %rdi
 874              	.LEHB22:
 875 0446 E8000000 		call	_Unwind_Resume@PLT
 875      00
 876              	.LEHE22:
 877              	.L46:
 878              		.loc 4 41 0
 879 044b 90       		nop
 880 044c 488B45E8 		movq	-24(%rbp), %rax
 881 0450 64483304 		xorq	%fs:40, %rax
 881      25280000 
 881      00
 882 0459 7405     		je	.L43
 883 045b E8000000 		call	__stack_chk_fail@PLT
 883      00
 884              	.L43:
 885 0460 4883C448 		addq	$72, %rsp
 886 0464 5B       		popq	%rbx
 887 0465 5D       		popq	%rbp
 888              		.cfi_def_cfa 7, 8
 889 0466 C3       		ret
 890              		.cfi_endproc
 891              	.LFE1112:
 892              		.section	.gcc_except_table
 893              		.align 4
 894              	.LLSDA1112:
 895 0064 FF       		.byte	0xff
 896 0065 9B       		.byte	0x9b
 897 0066 1D       		.uleb128 .LLSDATT1112-.LLSDATTD1112
 898              	.LLSDATTD1112:
 899 0067 01       		.byte	0x1
 900 0068 13       		.uleb128 .LLSDACSE1112-.LLSDACSB1112
 901              	.LLSDACSB1112:
 902 0069 31       		.uleb128 .LEHB19-.LFB1112
 903 006a 3A       		.uleb128 .LEHE19-.LEHB19
 904 006b 6D       		.uleb128 .L44-.LFB1112
 905 006c 01       		.uleb128 0x1
 906 006d 75       		.uleb128 .LEHB20-.LFB1112
 907 006e 3A       		.uleb128 .LEHE20-.LEHB20
 908 006f B601     		.uleb128 .L45-.LFB1112
 909 0071 00       		.uleb128 0
 910 0072 AF01     		.uleb128 .LEHB21-.LFB1112
 911 0074 05       		.uleb128 .LEHE21-.LEHB21
 912 0075 00       		.uleb128 0
 913 0076 00       		.uleb128 0
 914 0077 C401     		.uleb128 .LEHB22-.LFB1112
 915 0079 05       		.uleb128 .LEHE22-.LEHB22
 916 007a 00       		.uleb128 0
 917 007b 00       		.uleb128 0
 918              	.LLSDACSE1112:
 919 007c 01       		.byte	0x1
 920 007d 00       		.byte	0
 921 007e 0000     		.align 4
 922 0080 00000000 		.long	0
 923              	
 924              	.LLSDATT1112:
 925              		.text
 927              		.section	.rodata
 928 00fc 00000000 		.align 8
 929              	.LC12:
 930 0100 556E6861 		.string	"Unhandled exception in CHECK_EQUAL(1, results.GetFailureCount())"
 930      6E646C65 
 930      64206578 
 930      63657074 
 930      696F6E20 
 931              		.text
 932 0467 90       		.align 2
 934              	_ZNK12_GLOBAL__N_126TestFailingTestHasFailures7RunImplEv:
 935              	.LFB1108:
  33:TestTest.cpp  ****     class FailingTest : public Test
 936              		.loc 4 33 0
 937              		.cfi_startproc
 938              		.cfi_personality 0x9b,DW.ref.__gxx_personality_v0
 939              		.cfi_lsda 0x1b,.LLSDA1108
 940 0468 55       		pushq	%rbp
 941              		.cfi_def_cfa_offset 16
 942              		.cfi_offset 6, -16
 943 0469 4889E5   		movq	%rsp, %rbp
 944              		.cfi_def_cfa_register 6
 945 046c 53       		pushq	%rbx
 946 046d 4881EC98 		subq	$152, %rsp
 946      000000
 947              		.cfi_offset 3, -24
 948 0474 4889BD68 		movq	%rdi, -152(%rbp)
 948      FFFFFF
  33:TestTest.cpp  ****     class FailingTest : public Test
 949              		.loc 4 33 0
 950 047b 64488B04 		movq	%fs:40, %rax
 950      25280000 
 950      00
 951 0484 488945E8 		movq	%rax, -24(%rbp)
 952 0488 31C0     		xorl	%eax, %eax
  42:TestTest.cpp  ****     };
  43:TestTest.cpp  **** 
  44:TestTest.cpp  ****     TestResults results;
 953              		.loc 4 44 0
 954 048a 488D4590 		leaq	-112(%rbp), %rax
 955 048e BE000000 		movl	$0, %esi
 955      00
 956 0493 4889C7   		movq	%rax, %rdi
 957              	.LEHB23:
 958 0496 E8000000 		call	_ZN8UnitTest11TestResultsC1EPNS_12TestReporterE@PLT
 958      00
 959              	.LBB12:
  45:TestTest.cpp  **** 	{
  46:TestTest.cpp  **** 		ScopedCurrentTest scopedResults(results);
 960              		.loc 4 46 0
 961 049b 488D4D90 		leaq	-112(%rbp), %rcx
 962 049f 488D4580 		leaq	-128(%rbp), %rax
 963 04a3 BA000000 		movl	$0, %edx
 963      00
 964 04a8 4889CE   		movq	%rcx, %rsi
 965 04ab 4889C7   		movq	%rax, %rdi
 966 04ae E8000000 		call	_ZN17ScopedCurrentTestC1ERN8UnitTest11TestResultsEPKNS0_11TestDetailsE
 966      00
 967              	.LEHE23:
  47:TestTest.cpp  **** 		FailingTest().Run();
 968              		.loc 4 47 0
 969 04b3 488D45B0 		leaq	-80(%rbp), %rax
 970 04b7 4889C7   		movq	%rax, %rdi
 971              	.LEHB24:
 972 04ba E87FFEFF 		call	_ZZNK12_GLOBAL__N_126TestFailingTestHasFailures7RunImplEvEN11FailingTestC1Ev
 972      FF
 973              	.LEHE24:
 974              		.loc 4 47 0 is_stmt 0 discriminator 1
 975 04bf 488D45B0 		leaq	-80(%rbp), %rax
 976 04c3 4889C7   		movq	%rax, %rdi
 977              	.LEHB25:
 978 04c6 E8000000 		call	_ZN8UnitTest4Test3RunEv@PLT
 978      00
 979              	.LEHE25:
 980              		.loc 4 47 0 discriminator 3
 981 04cb 488D45B0 		leaq	-80(%rbp), %rax
 982 04cf 4889C7   		movq	%rax, %rdi
 983              	.LEHB26:
 984 04d2 E8A70F00 		call	_ZZNK12_GLOBAL__N_126TestFailingTestHasFailures7RunImplEvEN11FailingTestD1Ev
 984      00
 985              	.LEHE26:
  46:TestTest.cpp  **** 		FailingTest().Run();
 986              		.loc 4 46 0 is_stmt 1 discriminator 5
 987 04d7 488D4580 		leaq	-128(%rbp), %rax
 988 04db 4889C7   		movq	%rax, %rdi
 989              	.LEHB27:
 990 04de E8000000 		call	_ZN17ScopedCurrentTestD1Ev
 990      00
 991              	.LEHE27:
 992              	.LEHB28:
 993              	.LBE12:
  48:TestTest.cpp  **** 	}
  49:TestTest.cpp  **** 
  50:TestTest.cpp  ****     CHECK_EQUAL(1, results.GetFailureCount());
 994              		.loc 4 50 0 discriminator 5
 995 04e3 E8000000 		call	_ZN8UnitTest11CurrentTest7DetailsEv@PLT
 995      00
 996 04e8 488B08   		movq	(%rax), %rcx
 997 04eb 488D45B0 		leaq	-80(%rbp), %rax
 998 04ef BA320000 		movl	$50, %edx
 998      00
 999 04f4 4889CE   		movq	%rcx, %rsi
 1000 04f7 4889C7   		movq	%rax, %rdi
 1001 04fa E8000000 		call	_ZN8UnitTest11TestDetailsC1ERKS0_i@PLT
 1001      00
 1002              		.loc 4 50 0 is_stmt 0 discriminator 2
 1003 04ff 488D4590 		leaq	-112(%rbp), %rax
 1004 0503 4889C7   		movq	%rax, %rdi
 1005 0506 E8000000 		call	_ZNK8UnitTest11TestResults15GetFailureCountEv@PLT
 1005      00
 1006              	.LEHE28:
 1007 050b 894580   		movl	%eax, -128(%rbp)
 1008 050e C7857CFF 		movl	$1, -132(%rbp)
 1008      FFFF0100 
 1008      0000
 1009              	.LEHB29:
 1010 0518 E8000000 		call	_ZN8UnitTest11CurrentTest7ResultsEv@PLT
 1010      00
 1011              		.loc 4 50 0 discriminator 4
 1012 051d 488B00   		movq	(%rax), %rax
 1013 0520 488D4DB0 		leaq	-80(%rbp), %rcx
 1014 0524 488D5580 		leaq	-128(%rbp), %rdx
 1015 0528 488DB57C 		leaq	-132(%rbp), %rsi
 1015      FFFFFF
 1016 052f 4889C7   		movq	%rax, %rdi
 1017 0532 E8000000 		call	_ZN8UnitTest10CheckEqualIiiEEvRNS_11TestResultsERKT_RKT0_RKNS_11TestDetailsE
 1017      00
 1018              	.LEHE29:
  51:TestTest.cpp  **** }
 1019              		.loc 4 51 0 is_stmt 1
 1020 0537 E9890000 		jmp	.L47
 1020      00
 1021              	.L56:
 1022 053c 4889C3   		movq	%rax, %rbx
 1023              	.LBB13:
  47:TestTest.cpp  **** 	}
 1024              		.loc 4 47 0
 1025 053f 488D45B0 		leaq	-80(%rbp), %rax
 1026 0543 4889C7   		movq	%rax, %rdi
 1027 0546 E8330F00 		call	_ZZNK12_GLOBAL__N_126TestFailingTestHasFailures7RunImplEvEN11FailingTestD1Ev
 1027      00
 1028 054b EB03     		jmp	.L49
 1029              	.L55:
 1030 054d 4889C3   		movq	%rax, %rbx
 1031              	.L49:
  46:TestTest.cpp  **** 		FailingTest().Run();
 1032              		.loc 4 46 0
 1033 0550 488D4580 		leaq	-128(%rbp), %rax
 1034 0554 4889C7   		movq	%rax, %rdi
 1035 0557 E8000000 		call	_ZN17ScopedCurrentTestD1Ev
 1035      00
 1036 055c 4889D8   		movq	%rbx, %rax
 1037 055f 4889C7   		movq	%rax, %rdi
 1038              	.LEHB30:
 1039 0562 E8000000 		call	_Unwind_Resume@PLT
 1039      00
 1040              	.LEHE30:
 1041              	.L58:
 1042 0567 EB00     		jmp	.L51
 1043              	.L57:
 1044              	.L51:
 1045              	.LBE13:
  50:TestTest.cpp  **** }
 1046              		.loc 4 50 0
 1047 0569 4889C7   		movq	%rax, %rdi
 1048 056c E8000000 		call	__cxa_begin_catch@PLT
 1048      00
 1049              	.LEHB31:
 1050 0571 E8000000 		call	_ZN8UnitTest11CurrentTest7ResultsEv@PLT
 1050      00
 1051 0576 488B18   		movq	(%rax), %rbx
 1052 0579 E8000000 		call	_ZN8UnitTest11CurrentTest7DetailsEv@PLT
 1052      00
  50:TestTest.cpp  **** }
 1053              		.loc 4 50 0 is_stmt 0 discriminator 10
 1054 057e 488B08   		movq	(%rax), %rcx
 1055 0581 488D45B0 		leaq	-80(%rbp), %rax
 1056 0585 BA320000 		movl	$50, %edx
 1056      00
 1057 058a 4889CE   		movq	%rcx, %rsi
 1058 058d 4889C7   		movq	%rax, %rdi
 1059 0590 E8000000 		call	_ZN8UnitTest11TestDetailsC1ERKS0_i@PLT
 1059      00
  50:TestTest.cpp  **** }
 1060              		.loc 4 50 0 discriminator 14
 1061 0595 488D45B0 		leaq	-80(%rbp), %rax
 1062 0599 488D1500 		leaq	.LC12(%rip), %rdx
 1062      000000
 1063 05a0 4889C6   		movq	%rax, %rsi
 1064 05a3 4889DF   		movq	%rbx, %rdi
 1065 05a6 E8000000 		call	_ZN8UnitTest11TestResults13OnTestFailureERKNS_11TestDetailsEPKc@PLT
 1065      00
 1066              	.LEHE31:
 1067              	.LEHB32:
  50:TestTest.cpp  **** }
 1068              		.loc 4 50 0 discriminator 16
 1069 05ab E8000000 		call	__cxa_end_catch@PLT
 1069      00
 1070              	.LEHE32:
 1071              		.loc 4 51 0 is_stmt 1 discriminator 16
 1072 05b0 EB13     		jmp	.L47
 1073              	.L59:
 1074 05b2 4889C3   		movq	%rax, %rbx
  50:TestTest.cpp  **** }
 1075              		.loc 4 50 0
 1076 05b5 E8000000 		call	__cxa_end_catch@PLT
 1076      00
 1077 05ba 4889D8   		movq	%rbx, %rax
 1078 05bd 4889C7   		movq	%rax, %rdi
 1079              	.LEHB33:
 1080 05c0 E8000000 		call	_Unwind_Resume@PLT
 1080      00
 1081              	.LEHE33:
 1082              	.L47:
 1083              		.loc 4 51 0
 1084 05c5 488B45E8 		movq	-24(%rbp), %rax
 1085 05c9 64483304 		xorq	%fs:40, %rax
 1085      25280000 
 1085      00
 1086 05d2 7405     		je	.L54
 1087 05d4 E8000000 		call	__stack_chk_fail@PLT
 1087      00
 1088              	.L54:
 1089 05d9 4881C498 		addq	$152, %rsp
 1089      000000
 1090 05e0 5B       		popq	%rbx
 1091 05e1 5D       		popq	%rbp
 1092              		.cfi_def_cfa 7, 8
 1093 05e2 C3       		ret
 1094              		.cfi_endproc
 1095              	.LFE1108:
 1096              		.section	.gcc_except_table
 1097              		.align 4
 1098              	.LLSDA1108:
 1099 0084 FF       		.byte	0xff
 1100 0085 9B       		.byte	0x9b
 1101 0086 41       		.uleb128 .LLSDATT1108-.LLSDATTD1108
 1102              	.LLSDATTD1108:
 1103 0087 01       		.byte	0x1
 1104 0088 37       		.uleb128 .LLSDACSE1108-.LLSDACSB1108
 1105              	.LLSDACSB1108:
 1106 0089 2E       		.uleb128 .LEHB23-.LFB1108
 1107 008a 1D       		.uleb128 .LEHE23-.LEHB23
 1108 008b 00       		.uleb128 0
 1109 008c 00       		.uleb128 0
 1110 008d 52       		.uleb128 .LEHB24-.LFB1108
 1111 008e 05       		.uleb128 .LEHE24-.LEHB24
 1112 008f E501     		.uleb128 .L55-.LFB1108
 1113 0091 00       		.uleb128 0
 1114 0092 5E       		.uleb128 .LEHB25-.LFB1108
 1115 0093 05       		.uleb128 .LEHE25-.LEHB25
 1116 0094 D401     		.uleb128 .L56-.LFB1108
 1117 0096 00       		.uleb128 0
 1118 0097 6A       		.uleb128 .LEHB26-.LFB1108
 1119 0098 05       		.uleb128 .LEHE26-.LEHB26
 1120 0099 E501     		.uleb128 .L55-.LFB1108
 1121 009b 00       		.uleb128 0
 1122 009c 76       		.uleb128 .LEHB27-.LFB1108
 1123 009d 05       		.uleb128 .LEHE27-.LEHB27
 1124 009e 00       		.uleb128 0
 1125 009f 00       		.uleb128 0
 1126 00a0 7B       		.uleb128 .LEHB28-.LFB1108
 1127 00a1 28       		.uleb128 .LEHE28-.LEHB28
 1128 00a2 8102     		.uleb128 .L57-.LFB1108
 1129 00a4 01       		.uleb128 0x1
 1130 00a5 B001     		.uleb128 .LEHB29-.LFB1108
 1131 00a7 1F       		.uleb128 .LEHE29-.LEHB29
 1132 00a8 FF01     		.uleb128 .L58-.LFB1108
 1133 00aa 03       		.uleb128 0x3
 1134 00ab FA01     		.uleb128 .LEHB30-.LFB1108
 1135 00ad 05       		.uleb128 .LEHE30-.LEHB30
 1136 00ae 00       		.uleb128 0
 1137 00af 00       		.uleb128 0
 1138 00b0 8902     		.uleb128 .LEHB31-.LFB1108
 1139 00b2 3A       		.uleb128 .LEHE31-.LEHB31
 1140 00b3 CA02     		.uleb128 .L59-.LFB1108
 1141 00b5 00       		.uleb128 0
 1142 00b6 C302     		.uleb128 .LEHB32-.LFB1108
 1143 00b8 05       		.uleb128 .LEHE32-.LEHB32
 1144 00b9 00       		.uleb128 0
 1145 00ba 00       		.uleb128 0
 1146 00bb D802     		.uleb128 .LEHB33-.LFB1108
 1147 00bd 05       		.uleb128 .LEHE33-.LEHB33
 1148 00be 00       		.uleb128 0
 1149 00bf 00       		.uleb128 0
 1150              	.LLSDACSE1108:
 1151 00c0 01       		.byte	0x1
 1152 00c1 00       		.byte	0
 1153 00c2 00       		.byte	0
 1154 00c3 7D       		.byte	0x7d
 1155              		.align 4
 1156 00c4 00000000 		.long	0
 1157              	
 1158              	.LLSDATT1108:
 1159              		.text
 1161              		.section	.rodata
 1162 0141 00000000 		.align 8
 1162      000000
 1163              	.LC13:
 1164 0148 5468726F 		.string	"ThrowingTestsAreReportedAsFailures"
 1164      77696E67 
 1164      54657374 
 1164      73417265 
 1164      5265706F 
 1165              		.text
 1166 05e3 90       		.align 2
 1168              	_ZN12_GLOBAL__N_138TestThrowingTestsAreReportedAsFailuresC2Ev:
 1169              	.LFB1114:
  52:TestTest.cpp  **** 
  53:TestTest.cpp  **** 
  54:TestTest.cpp  **** TEST(ThrowingTestsAreReportedAsFailures)
 1170              		.loc 4 54 0
 1171              		.cfi_startproc
 1172 05e4 55       		pushq	%rbp
 1173              		.cfi_def_cfa_offset 16
 1174              		.cfi_offset 6, -16
 1175 05e5 4889E5   		movq	%rsp, %rbp
 1176              		.cfi_def_cfa_register 6
 1177 05e8 53       		pushq	%rbx
 1178 05e9 4883EC18 		subq	$24, %rsp
 1179              		.cfi_offset 3, -24
 1180 05ed 48897DE8 		movq	%rdi, -24(%rbp)
 1181              	.LBB14:
 1182              		.loc 4 54 0
 1183 05f1 488B5DE8 		movq	-24(%rbp), %rbx
 1184 05f5 E8000000 		call	_ZN13UnitTestSuite12GetSuiteNameEv
 1184      00
 1185 05fa 41B83600 		movl	$54, %r8d
 1185      0000
 1186 0600 488D0D00 		leaq	.LC1(%rip), %rcx
 1186      000000
 1187 0607 4889C2   		movq	%rax, %rdx
 1188 060a 488D3500 		leaq	.LC13(%rip), %rsi
 1188      000000
 1189 0611 4889DF   		movq	%rbx, %rdi
 1190 0614 E8000000 		call	_ZN8UnitTest4TestC2EPKcS2_S2_i@PLT
 1190      00
 1191 0619 488D1500 		leaq	16+_ZTVN12_GLOBAL__N_138TestThrowingTestsAreReportedAsFailuresE(%rip), %rdx
 1191      000000
 1192 0620 488B45E8 		movq	-24(%rbp), %rax
 1193 0624 488910   		movq	%rdx, (%rax)
 1194              	.LBE14:
 1195 0627 90       		nop
 1196 0628 4883C418 		addq	$24, %rsp
 1197 062c 5B       		popq	%rbx
 1198 062d 5D       		popq	%rbp
 1199              		.cfi_def_cfa 7, 8
 1200 062e C3       		ret
 1201              		.cfi_endproc
 1202              	.LFE1114:
 1204              		.set	_ZN12_GLOBAL__N_138TestThrowingTestsAreReportedAsFailuresC1Ev,_ZN12_GLOBAL__N_138TestThrowing
 1205              		.local	_ZN12_GLOBAL__N_146testThrowingTestsAreReportedAsFailuresInstanceE
 1206              		.comm	_ZN12_GLOBAL__N_146testThrowingTestsAreReportedAsFailuresInstanceE,56,32
 1207              		.local	_ZN12_GLOBAL__N_139adderThrowingTestsAreReportedAsFailuresE
 1208              		.comm	_ZN12_GLOBAL__N_139adderThrowingTestsAreReportedAsFailuresE,1,1
 1209              		.section	.rodata
 1210              	.LC14:
 1211 016b 7468726F 		.string	"throwing"
 1211      77696E67 
 1211      00
 1212              		.text
 1213 062f 90       		.align 2
 1215              	_ZZNK12_GLOBAL__N_138TestThrowingTestsAreReportedAsFailures7RunImplEvEN12CrashingTestC2Ev:
 1216              	.LFB1118:
  55:TestTest.cpp  **** {
  56:TestTest.cpp  ****     class CrashingTest : public Test
  57:TestTest.cpp  ****     {
  58:TestTest.cpp  ****     public:
  59:TestTest.cpp  ****         CrashingTest() : Test("throwing") {}
 1217              		.loc 4 59 0
 1218              		.cfi_startproc
 1219 0630 55       		pushq	%rbp
 1220              		.cfi_def_cfa_offset 16
 1221              		.cfi_offset 6, -16
 1222 0631 4889E5   		movq	%rsp, %rbp
 1223              		.cfi_def_cfa_register 6
 1224 0634 4883EC10 		subq	$16, %rsp
 1225 0638 48897DF8 		movq	%rdi, -8(%rbp)
 1226              	.LBB15:
 1227              		.loc 4 59 0
 1228 063c 488B45F8 		movq	-8(%rbp), %rax
 1229 0640 41B80000 		movl	$0, %r8d
 1229      0000
 1230 0646 488D0D00 		leaq	.LC3(%rip), %rcx
 1230      000000
 1231 064d 488D1500 		leaq	.LC0(%rip), %rdx
 1231      000000
 1232 0654 488D3500 		leaq	.LC14(%rip), %rsi
 1232      000000
 1233 065b 4889C7   		movq	%rax, %rdi
 1234 065e E8000000 		call	_ZN8UnitTest4TestC2EPKcS2_S2_i@PLT
 1234      00
 1235 0663 488D1500 		leaq	16+_ZTVZNK12_GLOBAL__N_138TestThrowingTestsAreReportedAsFailures7RunImplEvE12CrashingTest(%ri
 1235      000000
 1236 066a 488B45F8 		movq	-8(%rbp), %rax
 1237 066e 488910   		movq	%rdx, (%rax)
 1238              	.LBE15:
 1239 0671 90       		nop
 1240 0672 C9       		leave
 1241              		.cfi_def_cfa 7, 8
 1242 0673 C3       		ret
 1243              		.cfi_endproc
 1244              	.LFE1118:
 1246              		.set	_ZZNK12_GLOBAL__N_138TestThrowingTestsAreReportedAsFailures7RunImplEvEN12CrashingTestC1Ev,_ZZ
 1247              		.section	.rodata
 1248              	.LC15:
 1249 0174 426C6168 		.string	"Blah"
 1249      00
 1250              		.text
 1251              		.align 2
 1253              	_ZZNK12_GLOBAL__N_138TestThrowingTestsAreReportedAsFailures7RunImplEvENK12CrashingTest7RunImplEv:
 1254              	.LFB1120:
  60:TestTest.cpp  ****         virtual void RunImpl() const
 1255              		.loc 4 60 0
 1256              		.cfi_startproc
 1257 0674 55       		pushq	%rbp
 1258              		.cfi_def_cfa_offset 16
 1259              		.cfi_offset 6, -16
 1260 0675 4889E5   		movq	%rsp, %rbp
 1261              		.cfi_def_cfa_register 6
 1262 0678 4883EC10 		subq	$16, %rsp
 1263 067c 48897DF8 		movq	%rdi, -8(%rbp)
  61:TestTest.cpp  ****         {
  62:TestTest.cpp  ****             throw "Blah";
 1264              		.loc 4 62 0
 1265 0680 BF080000 		movl	$8, %edi
 1265      00
 1266 0685 E8000000 		call	__cxa_allocate_exception@PLT
 1266      00
 1267 068a 488D1500 		leaq	.LC15(%rip), %rdx
 1267      000000
 1268 0691 488910   		movq	%rdx, (%rax)
 1269 0694 BA000000 		movl	$0, %edx
 1269      00
 1270 0699 488D3500 		leaq	_ZTIPKc(%rip), %rsi
 1270      000000
 1271 06a0 4889C7   		movq	%rax, %rdi
 1272 06a3 E8000000 		call	__cxa_throw@PLT
 1272      00
 1273              		.cfi_endproc
 1274              	.LFE1120:
 1276              		.align 2
 1278              	_ZNK12_GLOBAL__N_138TestThrowingTestsAreReportedAsFailures7RunImplEv:
 1279              	.LFB1116:
  55:TestTest.cpp  ****     class CrashingTest : public Test
 1280              		.loc 4 55 0
 1281              		.cfi_startproc
 1282              		.cfi_personality 0x9b,DW.ref.__gxx_personality_v0
 1283              		.cfi_lsda 0x1b,.LLSDA1116
 1284 06a8 55       		pushq	%rbp
 1285              		.cfi_def_cfa_offset 16
 1286              		.cfi_offset 6, -16
 1287 06a9 4889E5   		movq	%rsp, %rbp
 1288              		.cfi_def_cfa_register 6
 1289 06ac 53       		pushq	%rbx
 1290 06ad 4881EC98 		subq	$152, %rsp
 1290      000000
 1291              		.cfi_offset 3, -24
 1292 06b4 4889BD68 		movq	%rdi, -152(%rbp)
 1292      FFFFFF
  55:TestTest.cpp  ****     class CrashingTest : public Test
 1293              		.loc 4 55 0
 1294 06bb 64488B04 		movq	%fs:40, %rax
 1294      25280000 
 1294      00
 1295 06c4 488945E8 		movq	%rax, -24(%rbp)
 1296 06c8 31C0     		xorl	%eax, %eax
  63:TestTest.cpp  ****         }
  64:TestTest.cpp  ****     };
  65:TestTest.cpp  ****  
  66:TestTest.cpp  ****     TestResults results;
 1297              		.loc 4 66 0
 1298 06ca 488D4590 		leaq	-112(%rbp), %rax
 1299 06ce BE000000 		movl	$0, %esi
 1299      00
 1300 06d3 4889C7   		movq	%rax, %rdi
 1301              	.LEHB34:
 1302 06d6 E8000000 		call	_ZN8UnitTest11TestResultsC1EPNS_12TestReporterE@PLT
 1302      00
 1303              	.LBB16:
  67:TestTest.cpp  **** 	{
  68:TestTest.cpp  **** 		ScopedCurrentTest scopedResult(results);
 1304              		.loc 4 68 0
 1305 06db 488D4D90 		leaq	-112(%rbp), %rcx
 1306 06df 488D4580 		leaq	-128(%rbp), %rax
 1307 06e3 BA000000 		movl	$0, %edx
 1307      00
 1308 06e8 4889CE   		movq	%rcx, %rsi
 1309 06eb 4889C7   		movq	%rax, %rdi
 1310 06ee E8000000 		call	_ZN17ScopedCurrentTestC1ERN8UnitTest11TestResultsEPKNS0_11TestDetailsE
 1310      00
 1311              	.LEHE34:
  69:TestTest.cpp  **** 		CrashingTest().Run();
 1312              		.loc 4 69 0
 1313 06f3 488D45B0 		leaq	-80(%rbp), %rax
 1314 06f7 4889C7   		movq	%rax, %rdi
 1315              	.LEHB35:
 1316 06fa E831FFFF 		call	_ZZNK12_GLOBAL__N_138TestThrowingTestsAreReportedAsFailures7RunImplEvEN12CrashingTestC1Ev
 1316      FF
 1317              	.LEHE35:
 1318              		.loc 4 69 0 is_stmt 0 discriminator 1
 1319 06ff 488D45B0 		leaq	-80(%rbp), %rax
 1320 0703 4889C7   		movq	%rax, %rdi
 1321              	.LEHB36:
 1322 0706 E8000000 		call	_ZN8UnitTest4Test3RunEv@PLT
 1322      00
 1323              	.LEHE36:
 1324              		.loc 4 69 0 discriminator 3
 1325 070b 488D45B0 		leaq	-80(%rbp), %rax
 1326 070f 4889C7   		movq	%rax, %rdi
 1327              	.LEHB37:
 1328 0712 E8830C00 		call	_ZZNK12_GLOBAL__N_138TestThrowingTestsAreReportedAsFailures7RunImplEvEN12CrashingTestD1Ev
 1328      00
 1329              	.LEHE37:
  68:TestTest.cpp  **** 		CrashingTest().Run();
 1330              		.loc 4 68 0 is_stmt 1 discriminator 5
 1331 0717 488D4580 		leaq	-128(%rbp), %rax
 1332 071b 4889C7   		movq	%rax, %rdi
 1333              	.LEHB38:
 1334 071e E8000000 		call	_ZN17ScopedCurrentTestD1Ev
 1334      00
 1335              	.LEHE38:
 1336              	.LEHB39:
 1337              	.LBE16:
  70:TestTest.cpp  **** 	}
  71:TestTest.cpp  **** 
  72:TestTest.cpp  **** 	CHECK_EQUAL(1, results.GetFailureCount());
 1338              		.loc 4 72 0 discriminator 5
 1339 0723 E8000000 		call	_ZN8UnitTest11CurrentTest7DetailsEv@PLT
 1339      00
 1340 0728 488B08   		movq	(%rax), %rcx
 1341 072b 488D45B0 		leaq	-80(%rbp), %rax
 1342 072f BA480000 		movl	$72, %edx
 1342      00
 1343 0734 4889CE   		movq	%rcx, %rsi
 1344 0737 4889C7   		movq	%rax, %rdi
 1345 073a E8000000 		call	_ZN8UnitTest11TestDetailsC1ERKS0_i@PLT
 1345      00
 1346              		.loc 4 72 0 is_stmt 0 discriminator 2
 1347 073f 488D4590 		leaq	-112(%rbp), %rax
 1348 0743 4889C7   		movq	%rax, %rdi
 1349 0746 E8000000 		call	_ZNK8UnitTest11TestResults15GetFailureCountEv@PLT
 1349      00
 1350              	.LEHE39:
 1351 074b 894580   		movl	%eax, -128(%rbp)
 1352 074e C7857CFF 		movl	$1, -132(%rbp)
 1352      FFFF0100 
 1352      0000
 1353              	.LEHB40:
 1354 0758 E8000000 		call	_ZN8UnitTest11CurrentTest7ResultsEv@PLT
 1354      00
 1355              		.loc 4 72 0 discriminator 4
 1356 075d 488B00   		movq	(%rax), %rax
 1357 0760 488D4DB0 		leaq	-80(%rbp), %rcx
 1358 0764 488D5580 		leaq	-128(%rbp), %rdx
 1359 0768 488DB57C 		leaq	-132(%rbp), %rsi
 1359      FFFFFF
 1360 076f 4889C7   		movq	%rax, %rdi
 1361 0772 E8000000 		call	_ZN8UnitTest10CheckEqualIiiEEvRNS_11TestResultsERKT_RKT0_RKNS_11TestDetailsE
 1361      00
 1362              	.LEHE40:
  73:TestTest.cpp  **** }
 1363              		.loc 4 73 0 is_stmt 1
 1364 0777 E9890000 		jmp	.L63
 1364      00
 1365              	.L72:
 1366 077c 4889C3   		movq	%rax, %rbx
 1367              	.LBB17:
  69:TestTest.cpp  **** 	}
 1368              		.loc 4 69 0
 1369 077f 488D45B0 		leaq	-80(%rbp), %rax
 1370 0783 4889C7   		movq	%rax, %rdi
 1371 0786 E80F0C00 		call	_ZZNK12_GLOBAL__N_138TestThrowingTestsAreReportedAsFailures7RunImplEvEN12CrashingTestD1Ev
 1371      00
 1372 078b EB03     		jmp	.L65
 1373              	.L71:
 1374 078d 4889C3   		movq	%rax, %rbx
 1375              	.L65:
  68:TestTest.cpp  **** 		CrashingTest().Run();
 1376              		.loc 4 68 0
 1377 0790 488D4580 		leaq	-128(%rbp), %rax
 1378 0794 4889C7   		movq	%rax, %rdi
 1379 0797 E8000000 		call	_ZN17ScopedCurrentTestD1Ev
 1379      00
 1380 079c 4889D8   		movq	%rbx, %rax
 1381 079f 4889C7   		movq	%rax, %rdi
 1382              	.LEHB41:
 1383 07a2 E8000000 		call	_Unwind_Resume@PLT
 1383      00
 1384              	.LEHE41:
 1385              	.L74:
 1386 07a7 EB00     		jmp	.L67
 1387              	.L73:
 1388              	.L67:
 1389              	.LBE17:
  72:TestTest.cpp  **** }
 1390              		.loc 4 72 0
 1391 07a9 4889C7   		movq	%rax, %rdi
 1392 07ac E8000000 		call	__cxa_begin_catch@PLT
 1392      00
 1393              	.LEHB42:
 1394 07b1 E8000000 		call	_ZN8UnitTest11CurrentTest7ResultsEv@PLT
 1394      00
 1395 07b6 488B18   		movq	(%rax), %rbx
 1396 07b9 E8000000 		call	_ZN8UnitTest11CurrentTest7DetailsEv@PLT
 1396      00
  72:TestTest.cpp  **** }
 1397              		.loc 4 72 0 is_stmt 0 discriminator 10
 1398 07be 488B08   		movq	(%rax), %rcx
 1399 07c1 488D45B0 		leaq	-80(%rbp), %rax
 1400 07c5 BA480000 		movl	$72, %edx
 1400      00
 1401 07ca 4889CE   		movq	%rcx, %rsi
 1402 07cd 4889C7   		movq	%rax, %rdi
 1403 07d0 E8000000 		call	_ZN8UnitTest11TestDetailsC1ERKS0_i@PLT
 1403      00
  72:TestTest.cpp  **** }
 1404              		.loc 4 72 0 discriminator 14
 1405 07d5 488D45B0 		leaq	-80(%rbp), %rax
 1406 07d9 488D1500 		leaq	.LC12(%rip), %rdx
 1406      000000
 1407 07e0 4889C6   		movq	%rax, %rsi
 1408 07e3 4889DF   		movq	%rbx, %rdi
 1409 07e6 E8000000 		call	_ZN8UnitTest11TestResults13OnTestFailureERKNS_11TestDetailsEPKc@PLT
 1409      00
 1410              	.LEHE42:
 1411              	.LEHB43:
  72:TestTest.cpp  **** }
 1412              		.loc 4 72 0 discriminator 16
 1413 07eb E8000000 		call	__cxa_end_catch@PLT
 1413      00
 1414              	.LEHE43:
 1415              		.loc 4 73 0 is_stmt 1 discriminator 16
 1416 07f0 EB13     		jmp	.L63
 1417              	.L75:
 1418 07f2 4889C3   		movq	%rax, %rbx
  72:TestTest.cpp  **** }
 1419              		.loc 4 72 0
 1420 07f5 E8000000 		call	__cxa_end_catch@PLT
 1420      00
 1421 07fa 4889D8   		movq	%rbx, %rax
 1422 07fd 4889C7   		movq	%rax, %rdi
 1423              	.LEHB44:
 1424 0800 E8000000 		call	_Unwind_Resume@PLT
 1424      00
 1425              	.LEHE44:
 1426              	.L63:
 1427              		.loc 4 73 0
 1428 0805 488B45E8 		movq	-24(%rbp), %rax
 1429 0809 64483304 		xorq	%fs:40, %rax
 1429      25280000 
 1429      00
 1430 0812 7405     		je	.L70
 1431 0814 E8000000 		call	__stack_chk_fail@PLT
 1431      00
 1432              	.L70:
 1433 0819 4881C498 		addq	$152, %rsp
 1433      000000
 1434 0820 5B       		popq	%rbx
 1435 0821 5D       		popq	%rbp
 1436              		.cfi_def_cfa 7, 8
 1437 0822 C3       		ret
 1438              		.cfi_endproc
 1439              	.LFE1116:
 1440              		.section	.gcc_except_table
 1441              		.align 4
 1442              	.LLSDA1116:
 1443 00c8 FF       		.byte	0xff
 1444 00c9 9B       		.byte	0x9b
 1445 00ca 41       		.uleb128 .LLSDATT1116-.LLSDATTD1116
 1446              	.LLSDATTD1116:
 1447 00cb 01       		.byte	0x1
 1448 00cc 37       		.uleb128 .LLSDACSE1116-.LLSDACSB1116
 1449              	.LLSDACSB1116:
 1450 00cd 2E       		.uleb128 .LEHB34-.LFB1116
 1451 00ce 1D       		.uleb128 .LEHE34-.LEHB34
 1452 00cf 00       		.uleb128 0
 1453 00d0 00       		.uleb128 0
 1454 00d1 52       		.uleb128 .LEHB35-.LFB1116
 1455 00d2 05       		.uleb128 .LEHE35-.LEHB35
 1456 00d3 E501     		.uleb128 .L71-.LFB1116
 1457 00d5 00       		.uleb128 0
 1458 00d6 5E       		.uleb128 .LEHB36-.LFB1116
 1459 00d7 05       		.uleb128 .LEHE36-.LEHB36
 1460 00d8 D401     		.uleb128 .L72-.LFB1116
 1461 00da 00       		.uleb128 0
 1462 00db 6A       		.uleb128 .LEHB37-.LFB1116
 1463 00dc 05       		.uleb128 .LEHE37-.LEHB37
 1464 00dd E501     		.uleb128 .L71-.LFB1116
 1465 00df 00       		.uleb128 0
 1466 00e0 76       		.uleb128 .LEHB38-.LFB1116
 1467 00e1 05       		.uleb128 .LEHE38-.LEHB38
 1468 00e2 00       		.uleb128 0
 1469 00e3 00       		.uleb128 0
 1470 00e4 7B       		.uleb128 .LEHB39-.LFB1116
 1471 00e5 28       		.uleb128 .LEHE39-.LEHB39
 1472 00e6 8102     		.uleb128 .L73-.LFB1116
 1473 00e8 01       		.uleb128 0x1
 1474 00e9 B001     		.uleb128 .LEHB40-.LFB1116
 1475 00eb 1F       		.uleb128 .LEHE40-.LEHB40
 1476 00ec FF01     		.uleb128 .L74-.LFB1116
 1477 00ee 03       		.uleb128 0x3
 1478 00ef FA01     		.uleb128 .LEHB41-.LFB1116
 1479 00f1 05       		.uleb128 .LEHE41-.LEHB41
 1480 00f2 00       		.uleb128 0
 1481 00f3 00       		.uleb128 0
 1482 00f4 8902     		.uleb128 .LEHB42-.LFB1116
 1483 00f6 3A       		.uleb128 .LEHE42-.LEHB42
 1484 00f7 CA02     		.uleb128 .L75-.LFB1116
 1485 00f9 00       		.uleb128 0
 1486 00fa C302     		.uleb128 .LEHB43-.LFB1116
 1487 00fc 05       		.uleb128 .LEHE43-.LEHB43
 1488 00fd 00       		.uleb128 0
 1489 00fe 00       		.uleb128 0
 1490 00ff D802     		.uleb128 .LEHB44-.LFB1116
 1491 0101 05       		.uleb128 .LEHE44-.LEHB44
 1492 0102 00       		.uleb128 0
 1493 0103 00       		.uleb128 0
 1494              	.LLSDACSE1116:
 1495 0104 01       		.byte	0x1
 1496 0105 00       		.byte	0
 1497 0106 00       		.byte	0
 1498 0107 7D       		.byte	0x7d
 1499              		.align 4
 1500 0108 00000000 		.long	0
 1501              	
 1502              	.LLSDATT1116:
 1503              		.text
 1505              		.section	.rodata
 1506 0179 00000000 		.align 8
 1506      000000
 1507              	.LC16:
 1508 0180 43726173 		.string	"CrashingTestsAreReportedAsFailures"
 1508      68696E67 
 1508      54657374 
 1508      73417265 
 1508      5265706F 
 1509              		.text
 1510 0823 90       		.align 2
 1512              	_ZN12_GLOBAL__N_138TestCrashingTestsAreReportedAsFailuresC2Ev:
 1513              	.LFB1122:
  74:TestTest.cpp  **** 
  75:TestTest.cpp  **** 
  76:TestTest.cpp  **** #ifndef UNITTEST_MINGW
  77:TestTest.cpp  **** TEST(CrashingTestsAreReportedAsFailures)
 1514              		.loc 4 77 0
 1515              		.cfi_startproc
 1516 0824 55       		pushq	%rbp
 1517              		.cfi_def_cfa_offset 16
 1518              		.cfi_offset 6, -16
 1519 0825 4889E5   		movq	%rsp, %rbp
 1520              		.cfi_def_cfa_register 6
 1521 0828 53       		pushq	%rbx
 1522 0829 4883EC18 		subq	$24, %rsp
 1523              		.cfi_offset 3, -24
 1524 082d 48897DE8 		movq	%rdi, -24(%rbp)
 1525              	.LBB18:
 1526              		.loc 4 77 0
 1527 0831 488B5DE8 		movq	-24(%rbp), %rbx
 1528 0835 E8000000 		call	_ZN13UnitTestSuite12GetSuiteNameEv
 1528      00
 1529 083a 41B84D00 		movl	$77, %r8d
 1529      0000
 1530 0840 488D0D00 		leaq	.LC1(%rip), %rcx
 1530      000000
 1531 0847 4889C2   		movq	%rax, %rdx
 1532 084a 488D3500 		leaq	.LC16(%rip), %rsi
 1532      000000
 1533 0851 4889DF   		movq	%rbx, %rdi
 1534 0854 E8000000 		call	_ZN8UnitTest4TestC2EPKcS2_S2_i@PLT
 1534      00
 1535 0859 488D1500 		leaq	16+_ZTVN12_GLOBAL__N_138TestCrashingTestsAreReportedAsFailuresE(%rip), %rdx
 1535      000000
 1536 0860 488B45E8 		movq	-24(%rbp), %rax
 1537 0864 488910   		movq	%rdx, (%rax)
 1538              	.LBE18:
 1539 0867 90       		nop
 1540 0868 4883C418 		addq	$24, %rsp
 1541 086c 5B       		popq	%rbx
 1542 086d 5D       		popq	%rbp
 1543              		.cfi_def_cfa 7, 8
 1544 086e C3       		ret
 1545              		.cfi_endproc
 1546              	.LFE1122:
 1548              		.set	_ZN12_GLOBAL__N_138TestCrashingTestsAreReportedAsFailuresC1Ev,_ZN12_GLOBAL__N_138TestCrashing
 1549              		.local	_ZN12_GLOBAL__N_146testCrashingTestsAreReportedAsFailuresInstanceE
 1550              		.comm	_ZN12_GLOBAL__N_146testCrashingTestsAreReportedAsFailuresInstanceE,56,32
 1551              		.local	_ZN12_GLOBAL__N_139adderCrashingTestsAreReportedAsFailuresE
 1552              		.comm	_ZN12_GLOBAL__N_139adderCrashingTestsAreReportedAsFailuresE,1,1
 1553              		.section	.rodata
 1554              	.LC17:
 1555 01a3 63726173 		.string	"crashing"
 1555      68696E67 
 1555      00
 1556              		.text
 1557 086f 90       		.align 2
 1559              	_ZZNK12_GLOBAL__N_138TestCrashingTestsAreReportedAsFailures7RunImplEvEN12CrashingTestC2Ev:
 1560              	.LFB1126:
  78:TestTest.cpp  **** {
  79:TestTest.cpp  ****     class CrashingTest : public Test
  80:TestTest.cpp  ****     {
  81:TestTest.cpp  ****     public:
  82:TestTest.cpp  ****         CrashingTest() : Test("crashing") {}
 1561              		.loc 4 82 0
 1562              		.cfi_startproc
 1563 0870 55       		pushq	%rbp
 1564              		.cfi_def_cfa_offset 16
 1565              		.cfi_offset 6, -16
 1566 0871 4889E5   		movq	%rsp, %rbp
 1567              		.cfi_def_cfa_register 6
 1568 0874 4883EC10 		subq	$16, %rsp
 1569 0878 48897DF8 		movq	%rdi, -8(%rbp)
 1570              	.LBB19:
 1571              		.loc 4 82 0
 1572 087c 488B45F8 		movq	-8(%rbp), %rax
 1573 0880 41B80000 		movl	$0, %r8d
 1573      0000
 1574 0886 488D0D00 		leaq	.LC3(%rip), %rcx
 1574      000000
 1575 088d 488D1500 		leaq	.LC0(%rip), %rdx
 1575      000000
 1576 0894 488D3500 		leaq	.LC17(%rip), %rsi
 1576      000000
 1577 089b 4889C7   		movq	%rax, %rdi
 1578 089e E8000000 		call	_ZN8UnitTest4TestC2EPKcS2_S2_i@PLT
 1578      00
 1579 08a3 488D1500 		leaq	16+_ZTVZNK12_GLOBAL__N_138TestCrashingTestsAreReportedAsFailures7RunImplEvE12CrashingTest(%ri
 1579      000000
 1580 08aa 488B45F8 		movq	-8(%rbp), %rax
 1581 08ae 488910   		movq	%rdx, (%rax)
 1582              	.LBE19:
 1583 08b1 90       		nop
 1584 08b2 C9       		leave
 1585              		.cfi_def_cfa 7, 8
 1586 08b3 C3       		ret
 1587              		.cfi_endproc
 1588              	.LFE1126:
 1590              		.set	_ZZNK12_GLOBAL__N_138TestCrashingTestsAreReportedAsFailures7RunImplEvEN12CrashingTestC1Ev,_ZZ
 1591              		.align 2
 1593              	_ZZNK12_GLOBAL__N_138TestCrashingTestsAreReportedAsFailures7RunImplEvENK12CrashingTest7RunImplEv:
 1594              	.LFB1128:
  83:TestTest.cpp  ****         virtual void RunImpl() const
 1595              		.loc 4 83 0
 1596              		.cfi_startproc
 1597 08b4 55       		pushq	%rbp
 1598              		.cfi_def_cfa_offset 16
 1599              		.cfi_offset 6, -16
 1600 08b5 4889E5   		movq	%rsp, %rbp
 1601              		.cfi_def_cfa_register 6
 1602 08b8 48897DE8 		movq	%rdi, -24(%rbp)
  84:TestTest.cpp  ****         {
  85:TestTest.cpp  ****             int *p = NULL;
 1603              		.loc 4 85 0
 1604 08bc 48C745F8 		movq	$0, -8(%rbp)
 1604      00000000 
  86:TestTest.cpp  ****             *p = 42;
 1605              		.loc 4 86 0
 1606 08c4 488B45F8 		movq	-8(%rbp), %rax
 1607 08c8 C7002A00 		movl	$42, (%rax)
 1607      0000
  87:TestTest.cpp  ****             // TODO: restore this jump to NULL when QEMU-Linaro fixes hanging issue
  88:TestTest.cpp  ****             // reinterpret_cast< void (*)() >(0)();
  89:TestTest.cpp  ****         }
 1608              		.loc 4 89 0
 1609 08ce 90       		nop
 1610 08cf 5D       		popq	%rbp
 1611              		.cfi_def_cfa 7, 8
 1612 08d0 C3       		ret
 1613              		.cfi_endproc
 1614              	.LFE1128:
 1616 08d1 90       		.align 2
 1618              	_ZNK12_GLOBAL__N_138TestCrashingTestsAreReportedAsFailures7RunImplEv:
 1619              	.LFB1124:
  78:TestTest.cpp  ****     class CrashingTest : public Test
 1620              		.loc 4 78 0
 1621              		.cfi_startproc
 1622              		.cfi_personality 0x9b,DW.ref.__gxx_personality_v0
 1623              		.cfi_lsda 0x1b,.LLSDA1124
 1624 08d2 55       		pushq	%rbp
 1625              		.cfi_def_cfa_offset 16
 1626              		.cfi_offset 6, -16
 1627 08d3 4889E5   		movq	%rsp, %rbp
 1628              		.cfi_def_cfa_register 6
 1629 08d6 53       		pushq	%rbx
 1630 08d7 4881EC98 		subq	$152, %rsp
 1630      000000
 1631              		.cfi_offset 3, -24
 1632 08de 4889BD68 		movq	%rdi, -152(%rbp)
 1632      FFFFFF
  78:TestTest.cpp  ****     class CrashingTest : public Test
 1633              		.loc 4 78 0
 1634 08e5 64488B04 		movq	%fs:40, %rax
 1634      25280000 
 1634      00
 1635 08ee 488945E8 		movq	%rax, -24(%rbp)
 1636 08f2 31C0     		xorl	%eax, %eax
  90:TestTest.cpp  ****     };
  91:TestTest.cpp  **** 
  92:TestTest.cpp  ****     TestResults results;
 1637              		.loc 4 92 0
 1638 08f4 488D4590 		leaq	-112(%rbp), %rax
 1639 08f8 BE000000 		movl	$0, %esi
 1639      00
 1640 08fd 4889C7   		movq	%rax, %rdi
 1641              	.LEHB45:
 1642 0900 E8000000 		call	_ZN8UnitTest11TestResultsC1EPNS_12TestReporterE@PLT
 1642      00
 1643              	.LBB20:
  93:TestTest.cpp  **** 	{
  94:TestTest.cpp  **** 		ScopedCurrentTest scopedResult(results);
 1644              		.loc 4 94 0
 1645 0905 488D4D90 		leaq	-112(%rbp), %rcx
 1646 0909 488D4580 		leaq	-128(%rbp), %rax
 1647 090d BA000000 		movl	$0, %edx
 1647      00
 1648 0912 4889CE   		movq	%rcx, %rsi
 1649 0915 4889C7   		movq	%rax, %rdi
 1650 0918 E8000000 		call	_ZN17ScopedCurrentTestC1ERN8UnitTest11TestResultsEPKNS0_11TestDetailsE
 1650      00
 1651              	.LEHE45:
  95:TestTest.cpp  **** 		CrashingTest().Run();
 1652              		.loc 4 95 0
 1653 091d 488D45B0 		leaq	-80(%rbp), %rax
 1654 0921 4889C7   		movq	%rax, %rdi
 1655              	.LEHB46:
 1656 0924 E847FFFF 		call	_ZZNK12_GLOBAL__N_138TestCrashingTestsAreReportedAsFailures7RunImplEvEN12CrashingTestC1Ev
 1656      FF
 1657              	.LEHE46:
 1658              		.loc 4 95 0 is_stmt 0 discriminator 1
 1659 0929 488D45B0 		leaq	-80(%rbp), %rax
 1660 092d 4889C7   		movq	%rax, %rdi
 1661              	.LEHB47:
 1662 0930 E8000000 		call	_ZN8UnitTest4Test3RunEv@PLT
 1662      00
 1663              	.LEHE47:
 1664              		.loc 4 95 0 discriminator 3
 1665 0935 488D45B0 		leaq	-80(%rbp), %rax
 1666 0939 4889C7   		movq	%rax, %rdi
 1667              	.LEHB48:
 1668 093c E8750900 		call	_ZZNK12_GLOBAL__N_138TestCrashingTestsAreReportedAsFailures7RunImplEvEN12CrashingTestD1Ev
 1668      00
 1669              	.LEHE48:
  94:TestTest.cpp  **** 		CrashingTest().Run();
 1670              		.loc 4 94 0 is_stmt 1 discriminator 5
 1671 0941 488D4580 		leaq	-128(%rbp), %rax
 1672 0945 4889C7   		movq	%rax, %rdi
 1673              	.LEHB49:
 1674 0948 E8000000 		call	_ZN17ScopedCurrentTestD1Ev
 1674      00
 1675              	.LEHE49:
 1676              	.LEHB50:
 1677              	.LBE20:
  96:TestTest.cpp  **** 	}
  97:TestTest.cpp  **** 
  98:TestTest.cpp  **** 	CHECK_EQUAL(1, results.GetFailureCount());
 1678              		.loc 4 98 0 discriminator 5
 1679 094d E8000000 		call	_ZN8UnitTest11CurrentTest7DetailsEv@PLT
 1679      00
 1680 0952 488B08   		movq	(%rax), %rcx
 1681 0955 488D45B0 		leaq	-80(%rbp), %rax
 1682 0959 BA620000 		movl	$98, %edx
 1682      00
 1683 095e 4889CE   		movq	%rcx, %rsi
 1684 0961 4889C7   		movq	%rax, %rdi
 1685 0964 E8000000 		call	_ZN8UnitTest11TestDetailsC1ERKS0_i@PLT
 1685      00
 1686              		.loc 4 98 0 is_stmt 0 discriminator 2
 1687 0969 488D4590 		leaq	-112(%rbp), %rax
 1688 096d 4889C7   		movq	%rax, %rdi
 1689 0970 E8000000 		call	_ZNK8UnitTest11TestResults15GetFailureCountEv@PLT
 1689      00
 1690              	.LEHE50:
 1691 0975 894580   		movl	%eax, -128(%rbp)
 1692 0978 C7857CFF 		movl	$1, -132(%rbp)
 1692      FFFF0100 
 1692      0000
 1693              	.LEHB51:
 1694 0982 E8000000 		call	_ZN8UnitTest11CurrentTest7ResultsEv@PLT
 1694      00
 1695              		.loc 4 98 0 discriminator 4
 1696 0987 488B00   		movq	(%rax), %rax
 1697 098a 488D4DB0 		leaq	-80(%rbp), %rcx
 1698 098e 488D5580 		leaq	-128(%rbp), %rdx
 1699 0992 488DB57C 		leaq	-132(%rbp), %rsi
 1699      FFFFFF
 1700 0999 4889C7   		movq	%rax, %rdi
 1701 099c E8000000 		call	_ZN8UnitTest10CheckEqualIiiEEvRNS_11TestResultsERKT_RKT0_RKNS_11TestDetailsE
 1701      00
 1702              	.LEHE51:
  99:TestTest.cpp  **** }
 1703              		.loc 4 99 0 is_stmt 1
 1704 09a1 E9890000 		jmp	.L79
 1704      00
 1705              	.L88:
 1706 09a6 4889C3   		movq	%rax, %rbx
 1707              	.LBB21:
  95:TestTest.cpp  **** 	}
 1708              		.loc 4 95 0
 1709 09a9 488D45B0 		leaq	-80(%rbp), %rax
 1710 09ad 4889C7   		movq	%rax, %rdi
 1711 09b0 E8010900 		call	_ZZNK12_GLOBAL__N_138TestCrashingTestsAreReportedAsFailures7RunImplEvEN12CrashingTestD1Ev
 1711      00
 1712 09b5 EB03     		jmp	.L81
 1713              	.L87:
 1714 09b7 4889C3   		movq	%rax, %rbx
 1715              	.L81:
  94:TestTest.cpp  **** 		CrashingTest().Run();
 1716              		.loc 4 94 0
 1717 09ba 488D4580 		leaq	-128(%rbp), %rax
 1718 09be 4889C7   		movq	%rax, %rdi
 1719 09c1 E8000000 		call	_ZN17ScopedCurrentTestD1Ev
 1719      00
 1720 09c6 4889D8   		movq	%rbx, %rax
 1721 09c9 4889C7   		movq	%rax, %rdi
 1722              	.LEHB52:
 1723 09cc E8000000 		call	_Unwind_Resume@PLT
 1723      00
 1724              	.LEHE52:
 1725              	.L90:
 1726 09d1 EB00     		jmp	.L83
 1727              	.L89:
 1728              	.L83:
 1729              	.LBE21:
  98:TestTest.cpp  **** }
 1730              		.loc 4 98 0
 1731 09d3 4889C7   		movq	%rax, %rdi
 1732 09d6 E8000000 		call	__cxa_begin_catch@PLT
 1732      00
 1733              	.LEHB53:
 1734 09db E8000000 		call	_ZN8UnitTest11CurrentTest7ResultsEv@PLT
 1734      00
 1735 09e0 488B18   		movq	(%rax), %rbx
 1736 09e3 E8000000 		call	_ZN8UnitTest11CurrentTest7DetailsEv@PLT
 1736      00
  98:TestTest.cpp  **** }
 1737              		.loc 4 98 0 is_stmt 0 discriminator 10
 1738 09e8 488B08   		movq	(%rax), %rcx
 1739 09eb 488D45B0 		leaq	-80(%rbp), %rax
 1740 09ef BA620000 		movl	$98, %edx
 1740      00
 1741 09f4 4889CE   		movq	%rcx, %rsi
 1742 09f7 4889C7   		movq	%rax, %rdi
 1743 09fa E8000000 		call	_ZN8UnitTest11TestDetailsC1ERKS0_i@PLT
 1743      00
  98:TestTest.cpp  **** }
 1744              		.loc 4 98 0 discriminator 14
 1745 09ff 488D45B0 		leaq	-80(%rbp), %rax
 1746 0a03 488D1500 		leaq	.LC12(%rip), %rdx
 1746      000000
 1747 0a0a 4889C6   		movq	%rax, %rsi
 1748 0a0d 4889DF   		movq	%rbx, %rdi
 1749 0a10 E8000000 		call	_ZN8UnitTest11TestResults13OnTestFailureERKNS_11TestDetailsEPKc@PLT
 1749      00
 1750              	.LEHE53:
 1751              	.LEHB54:
  98:TestTest.cpp  **** }
 1752              		.loc 4 98 0 discriminator 16
 1753 0a15 E8000000 		call	__cxa_end_catch@PLT
 1753      00
 1754              	.LEHE54:
 1755              		.loc 4 99 0 is_stmt 1 discriminator 16
 1756 0a1a EB13     		jmp	.L79
 1757              	.L91:
 1758 0a1c 4889C3   		movq	%rax, %rbx
  98:TestTest.cpp  **** }
 1759              		.loc 4 98 0
 1760 0a1f E8000000 		call	__cxa_end_catch@PLT
 1760      00
 1761 0a24 4889D8   		movq	%rbx, %rax
 1762 0a27 4889C7   		movq	%rax, %rdi
 1763              	.LEHB55:
 1764 0a2a E8000000 		call	_Unwind_Resume@PLT
 1764      00
 1765              	.LEHE55:
 1766              	.L79:
 1767              		.loc 4 99 0
 1768 0a2f 488B45E8 		movq	-24(%rbp), %rax
 1769 0a33 64483304 		xorq	%fs:40, %rax
 1769      25280000 
 1769      00
 1770 0a3c 7405     		je	.L86
 1771 0a3e E8000000 		call	__stack_chk_fail@PLT
 1771      00
 1772              	.L86:
 1773 0a43 4881C498 		addq	$152, %rsp
 1773      000000
 1774 0a4a 5B       		popq	%rbx
 1775 0a4b 5D       		popq	%rbp
 1776              		.cfi_def_cfa 7, 8
 1777 0a4c C3       		ret
 1778              		.cfi_endproc
 1779              	.LFE1124:
 1780              		.section	.gcc_except_table
 1781              		.align 4
 1782              	.LLSDA1124:
 1783 010c FF       		.byte	0xff
 1784 010d 9B       		.byte	0x9b
 1785 010e 41       		.uleb128 .LLSDATT1124-.LLSDATTD1124
 1786              	.LLSDATTD1124:
 1787 010f 01       		.byte	0x1
 1788 0110 37       		.uleb128 .LLSDACSE1124-.LLSDACSB1124
 1789              	.LLSDACSB1124:
 1790 0111 2E       		.uleb128 .LEHB45-.LFB1124
 1791 0112 1D       		.uleb128 .LEHE45-.LEHB45
 1792 0113 00       		.uleb128 0
 1793 0114 00       		.uleb128 0
 1794 0115 52       		.uleb128 .LEHB46-.LFB1124
 1795 0116 05       		.uleb128 .LEHE46-.LEHB46
 1796 0117 E501     		.uleb128 .L87-.LFB1124
 1797 0119 00       		.uleb128 0
 1798 011a 5E       		.uleb128 .LEHB47-.LFB1124
 1799 011b 05       		.uleb128 .LEHE47-.LEHB47
 1800 011c D401     		.uleb128 .L88-.LFB1124
 1801 011e 00       		.uleb128 0
 1802 011f 6A       		.uleb128 .LEHB48-.LFB1124
 1803 0120 05       		.uleb128 .LEHE48-.LEHB48
 1804 0121 E501     		.uleb128 .L87-.LFB1124
 1805 0123 00       		.uleb128 0
 1806 0124 76       		.uleb128 .LEHB49-.LFB1124
 1807 0125 05       		.uleb128 .LEHE49-.LEHB49
 1808 0126 00       		.uleb128 0
 1809 0127 00       		.uleb128 0
 1810 0128 7B       		.uleb128 .LEHB50-.LFB1124
 1811 0129 28       		.uleb128 .LEHE50-.LEHB50
 1812 012a 8102     		.uleb128 .L89-.LFB1124
 1813 012c 01       		.uleb128 0x1
 1814 012d B001     		.uleb128 .LEHB51-.LFB1124
 1815 012f 1F       		.uleb128 .LEHE51-.LEHB51
 1816 0130 FF01     		.uleb128 .L90-.LFB1124
 1817 0132 03       		.uleb128 0x3
 1818 0133 FA01     		.uleb128 .LEHB52-.LFB1124
 1819 0135 05       		.uleb128 .LEHE52-.LEHB52
 1820 0136 00       		.uleb128 0
 1821 0137 00       		.uleb128 0
 1822 0138 8902     		.uleb128 .LEHB53-.LFB1124
 1823 013a 3A       		.uleb128 .LEHE53-.LEHB53
 1824 013b CA02     		.uleb128 .L91-.LFB1124
 1825 013d 00       		.uleb128 0
 1826 013e C302     		.uleb128 .LEHB54-.LFB1124
 1827 0140 05       		.uleb128 .LEHE54-.LEHB54
 1828 0141 00       		.uleb128 0
 1829 0142 00       		.uleb128 0
 1830 0143 D802     		.uleb128 .LEHB55-.LFB1124
 1831 0145 05       		.uleb128 .LEHE55-.LEHB55
 1832 0146 00       		.uleb128 0
 1833 0147 00       		.uleb128 0
 1834              	.LLSDACSE1124:
 1835 0148 01       		.byte	0x1
 1836 0149 00       		.byte	0
 1837 014a 00       		.byte	0
 1838 014b 7D       		.byte	0x7d
 1839              		.align 4
 1840 014c 00000000 		.long	0
 1841              	
 1842              	.LLSDATT1124:
 1843              		.text
 1845              		.section	.rodata
 1846 01ac 00000000 		.align 8
 1847              	.LC18:
 1848 01b0 54657374 		.string	"TestWithUnspecifiedSuiteGetsDefaultSuite"
 1848      57697468 
 1848      556E7370 
 1848      65636966 
 1848      69656453 
 1849              		.text
 1850 0a4d 90       		.align 2
 1852              	_ZN12_GLOBAL__N_144TestTestWithUnspecifiedSuiteGetsDefaultSuiteC2Ev:
 1853              	.LFB1130:
 100:TestTest.cpp  **** #endif
 101:TestTest.cpp  **** 
 102:TestTest.cpp  **** TEST(TestWithUnspecifiedSuiteGetsDefaultSuite)
 1854              		.loc 4 102 0
 1855              		.cfi_startproc
 1856 0a4e 55       		pushq	%rbp
 1857              		.cfi_def_cfa_offset 16
 1858              		.cfi_offset 6, -16
 1859 0a4f 4889E5   		movq	%rsp, %rbp
 1860              		.cfi_def_cfa_register 6
 1861 0a52 53       		pushq	%rbx
 1862 0a53 4883EC18 		subq	$24, %rsp
 1863              		.cfi_offset 3, -24
 1864 0a57 48897DE8 		movq	%rdi, -24(%rbp)
 1865              	.LBB22:
 1866              		.loc 4 102 0
 1867 0a5b 488B5DE8 		movq	-24(%rbp), %rbx
 1868 0a5f E8000000 		call	_ZN13UnitTestSuite12GetSuiteNameEv
 1868      00
 1869 0a64 41B86600 		movl	$102, %r8d
 1869      0000
 1870 0a6a 488D0D00 		leaq	.LC1(%rip), %rcx
 1870      000000
 1871 0a71 4889C2   		movq	%rax, %rdx
 1872 0a74 488D3500 		leaq	.LC18(%rip), %rsi
 1872      000000
 1873 0a7b 4889DF   		movq	%rbx, %rdi
 1874 0a7e E8000000 		call	_ZN8UnitTest4TestC2EPKcS2_S2_i@PLT
 1874      00
 1875 0a83 488D1500 		leaq	16+_ZTVN12_GLOBAL__N_144TestTestWithUnspecifiedSuiteGetsDefaultSuiteE(%rip), %rdx
 1875      000000
 1876 0a8a 488B45E8 		movq	-24(%rbp), %rax
 1877 0a8e 488910   		movq	%rdx, (%rax)
 1878              	.LBE22:
 1879 0a91 90       		nop
 1880 0a92 4883C418 		addq	$24, %rsp
 1881 0a96 5B       		popq	%rbx
 1882 0a97 5D       		popq	%rbp
 1883              		.cfi_def_cfa 7, 8
 1884 0a98 C3       		ret
 1885              		.cfi_endproc
 1886              	.LFE1130:
 1888              		.set	_ZN12_GLOBAL__N_144TestTestWithUnspecifiedSuiteGetsDefaultSuiteC1Ev,_ZN12_GLOBAL__N_144TestTe
 1889              		.local	_ZN12_GLOBAL__N_152testTestWithUnspecifiedSuiteGetsDefaultSuiteInstanceE
 1890              		.comm	_ZN12_GLOBAL__N_152testTestWithUnspecifiedSuiteGetsDefaultSuiteInstanceE,56,32
 1891              		.local	_ZN12_GLOBAL__N_145adderTestWithUnspecifiedSuiteGetsDefaultSuiteE
 1892              		.comm	_ZN12_GLOBAL__N_145adderTestWithUnspecifiedSuiteGetsDefaultSuiteE,1,1
 1893              		.section	.rodata
 1894              	.LC19:
 1895 01d9 74657374 		.string	"test"
 1895      00
 1896 01de 0000     		.align 8
 1897              	.LC20:
 1898 01e0 74657374 		.string	"test.m_details.suiteName != NULL"
 1898      2E6D5F64 
 1898      65746169 
 1898      6C732E73 
 1898      75697465 
 1899 0201 00000000 		.align 8
 1899      000000
 1900              	.LC21:
 1901 0208 556E6861 		.string	"Unhandled exception in CHECK(test.m_details.suiteName != NULL)"
 1901      6E646C65 
 1901      64206578 
 1901      63657074 
 1901      696F6E20 
 1902 0247 00       		.align 8
 1903              	.LC22:
 1904 0248 556E6861 		.string	"Unhandled exception in CHECK_EQUAL(\"DefaultSuite\", test.m_details.suiteName)"
 1904      6E646C65 
 1904      64206578 
 1904      63657074 
 1904      696F6E20 
 1905              		.text
 1906 0a99 90       		.align 2
 1908              	_ZNK12_GLOBAL__N_144TestTestWithUnspecifiedSuiteGetsDefaultSuite7RunImplEv:
 1909              	.LFB1132:
 103:TestTest.cpp  **** {
 1910              		.loc 4 103 0
 1911              		.cfi_startproc
 1912              		.cfi_personality 0x9b,DW.ref.__gxx_personality_v0
 1913              		.cfi_lsda 0x1b,.LLSDA1132
 1914 0a9a 55       		pushq	%rbp
 1915              		.cfi_def_cfa_offset 16
 1916              		.cfi_offset 6, -16
 1917 0a9b 4889E5   		movq	%rsp, %rbp
 1918              		.cfi_def_cfa_register 6
 1919 0a9e 53       		pushq	%rbx
 1920 0a9f 4883EC78 		subq	$120, %rsp
 1921              		.cfi_offset 3, -24
 1922 0aa3 48897D88 		movq	%rdi, -120(%rbp)
 1923              		.loc 4 103 0
 1924 0aa7 64488B04 		movq	%fs:40, %rax
 1924      25280000 
 1924      00
 1925 0ab0 488945E8 		movq	%rax, -24(%rbp)
 1926 0ab4 31C0     		xorl	%eax, %eax
 104:TestTest.cpp  ****     Test test("test");
 1927              		.loc 4 104 0
 1928 0ab6 488D45B0 		leaq	-80(%rbp), %rax
 1929 0aba 41B80000 		movl	$0, %r8d
 1929      0000
 1930 0ac0 488D0D00 		leaq	.LC3(%rip), %rcx
 1930      000000
 1931 0ac7 488D1500 		leaq	.LC0(%rip), %rdx
 1931      000000
 1932 0ace 488D3500 		leaq	.LC19(%rip), %rsi
 1932      000000
 1933 0ad5 4889C7   		movq	%rax, %rdi
 1934              	.LEHB56:
 1935 0ad8 E8000000 		call	_ZN8UnitTest4TestC1EPKcS2_S2_i@PLT
 1935      00
 1936              	.LEHE56:
 105:TestTest.cpp  ****     CHECK(test.m_details.suiteName != NULL);
 1937              		.loc 4 105 0
 1938 0add 488B45B8 		movq	-72(%rbp), %rax
 1939 0ae1 4885C0   		testq	%rax, %rax
 1940 0ae4 0F95C0   		setne	%al
 1941 0ae7 0FB6C0   		movzbl	%al, %eax
 1942 0aea 89C7     		movl	%eax, %edi
 1943 0aec E8000000 		call	_ZN8UnitTest5CheckIbEEbT_
 1943      00
 1944 0af1 83F001   		xorl	$1, %eax
 1945 0af4 84C0     		testb	%al, %al
 1946 0af6 743A     		je	.L94
 1947              	.LEHB57:
 1948              		.loc 4 105 0 is_stmt 0 discriminator 1
 1949 0af8 E8000000 		call	_ZN8UnitTest11CurrentTest7ResultsEv@PLT
 1949      00
 1950 0afd 488B18   		movq	(%rax), %rbx
 1951 0b00 E8000000 		call	_ZN8UnitTest11CurrentTest7DetailsEv@PLT
 1951      00
 1952              		.loc 4 105 0 discriminator 2
 1953 0b05 488B08   		movq	(%rax), %rcx
 1954 0b08 488D4590 		leaq	-112(%rbp), %rax
 1955 0b0c BA690000 		movl	$105, %edx
 1955      00
 1956 0b11 4889CE   		movq	%rcx, %rsi
 1957 0b14 4889C7   		movq	%rax, %rdi
 1958 0b17 E8000000 		call	_ZN8UnitTest11TestDetailsC1ERKS0_i@PLT
 1958      00
 1959              		.loc 4 105 0 discriminator 4
 1960 0b1c 488D4590 		leaq	-112(%rbp), %rax
 1961 0b20 488D1500 		leaq	.LC20(%rip), %rdx
 1961      000000
 1962 0b27 4889C6   		movq	%rax, %rsi
 1963 0b2a 4889DF   		movq	%rbx, %rdi
 1964 0b2d E8000000 		call	_ZN8UnitTest11TestResults13OnTestFailureERKNS_11TestDetailsEPKc@PLT
 1964      00
 1965              	.LEHE57:
 1966              	.L94:
 1967              	.LEHB58:
 106:TestTest.cpp  ****     CHECK_EQUAL("DefaultSuite", test.m_details.suiteName);
 1968              		.loc 4 106 0 is_stmt 1
 1969 0b32 E8000000 		call	_ZN8UnitTest11CurrentTest7DetailsEv@PLT
 1969      00
 1970 0b37 488B08   		movq	(%rax), %rcx
 1971 0b3a 488D4590 		leaq	-112(%rbp), %rax
 1972 0b3e BA6A0000 		movl	$106, %edx
 1972      00
 1973 0b43 4889CE   		movq	%rcx, %rsi
 1974 0b46 4889C7   		movq	%rax, %rdi
 1975 0b49 E8000000 		call	_ZN8UnitTest11TestDetailsC1ERKS0_i@PLT
 1975      00
 1976              		.loc 4 106 0 is_stmt 0 discriminator 2
 1977 0b4e 488B5DB8 		movq	-72(%rbp), %rbx
 1978 0b52 E8000000 		call	_ZN8UnitTest11CurrentTest7ResultsEv@PLT
 1978      00
 1979 0b57 488B00   		movq	(%rax), %rax
 1980 0b5a 488D5590 		leaq	-112(%rbp), %rdx
 1981 0b5e 4889D1   		movq	%rdx, %rcx
 1982 0b61 4889DA   		movq	%rbx, %rdx
 1983 0b64 488D3500 		leaq	.LC0(%rip), %rsi
 1983      000000
 1984 0b6b 4889C7   		movq	%rax, %rdi
 1985 0b6e E8000000 		call	_ZN8UnitTest10CheckEqualERNS_11TestResultsEPKcS3_RKNS_11TestDetailsE@PLT
 1985      00
 1986              	.LEHE58:
 1987              	.L99:
 104:TestTest.cpp  ****     Test test("test");
 1988              		.loc 4 104 0 is_stmt 1
 1989 0b73 488D45B0 		leaq	-80(%rbp), %rax
 1990 0b77 4889C7   		movq	%rax, %rdi
 1991              	.LEHB59:
 1992 0b7a E8000000 		call	_ZN8UnitTest4TestD1Ev@PLT
 1992      00
 1993              	.LEHE59:
 107:TestTest.cpp  **** }
 1994              		.loc 4 107 0
 1995 0b7f 90       		nop
 1996 0b80 488B45E8 		movq	-24(%rbp), %rax
 1997 0b84 64483304 		xorq	%fs:40, %rax
 1997      25280000 
 1997      00
 1998 0b8d 0F84D000 		je	.L101
 1998      0000
 1999 0b93 E9C60000 		jmp	.L107
 1999      00
 2000              	.L102:
 105:TestTest.cpp  ****     CHECK(test.m_details.suiteName != NULL);
 2001              		.loc 4 105 0
 2002 0b98 4889C7   		movq	%rax, %rdi
 2003 0b9b E8000000 		call	__cxa_begin_catch@PLT
 2003      00
 2004              	.LEHB60:
 2005 0ba0 E8000000 		call	_ZN8UnitTest11CurrentTest7ResultsEv@PLT
 2005      00
 2006 0ba5 488B18   		movq	(%rax), %rbx
 2007 0ba8 E8000000 		call	_ZN8UnitTest11CurrentTest7DetailsEv@PLT
 2007      00
 105:TestTest.cpp  ****     CHECK(test.m_details.suiteName != NULL);
 2008              		.loc 4 105 0 is_stmt 0 discriminator 8
 2009 0bad 488B08   		movq	(%rax), %rcx
 2010 0bb0 488D4590 		leaq	-112(%rbp), %rax
 2011 0bb4 BA690000 		movl	$105, %edx
 2011      00
 2012 0bb9 4889CE   		movq	%rcx, %rsi
 2013 0bbc 4889C7   		movq	%rax, %rdi
 2014 0bbf E8000000 		call	_ZN8UnitTest11TestDetailsC1ERKS0_i@PLT
 2014      00
 105:TestTest.cpp  ****     CHECK(test.m_details.suiteName != NULL);
 2015              		.loc 4 105 0 discriminator 12
 2016 0bc4 488D4590 		leaq	-112(%rbp), %rax
 2017 0bc8 488D1500 		leaq	.LC21(%rip), %rdx
 2017      000000
 2018 0bcf 4889C6   		movq	%rax, %rsi
 2019 0bd2 4889DF   		movq	%rbx, %rdi
 2020 0bd5 E8000000 		call	_ZN8UnitTest11TestResults13OnTestFailureERKNS_11TestDetailsEPKc@PLT
 2020      00
 2021              	.LEHE60:
 2022              	.LEHB61:
 105:TestTest.cpp  ****     CHECK(test.m_details.suiteName != NULL);
 2023              		.loc 4 105 0 discriminator 14
 2024 0bda E8000000 		call	__cxa_end_catch@PLT
 2024      00
 2025              	.LEHE61:
 105:TestTest.cpp  ****     CHECK(test.m_details.suiteName != NULL);
 2026              		.loc 4 105 0
 2027 0bdf E94EFFFF 		jmp	.L94
 2027      FF
 2028              	.L104:
 2029 0be4 4889C3   		movq	%rax, %rbx
 2030 0be7 E8000000 		call	__cxa_end_catch@PLT
 2030      00
 2031 0bec EB59     		jmp	.L97
 2032              	.L105:
 106:TestTest.cpp  ****     CHECK_EQUAL("DefaultSuite", test.m_details.suiteName);
 2033              		.loc 4 106 0 is_stmt 1
 2034 0bee 4889C7   		movq	%rax, %rdi
 2035 0bf1 E8000000 		call	__cxa_begin_catch@PLT
 2035      00
 2036              	.LEHB62:
 2037 0bf6 E8000000 		call	_ZN8UnitTest11CurrentTest7ResultsEv@PLT
 2037      00
 2038 0bfb 488B18   		movq	(%rax), %rbx
 2039 0bfe E8000000 		call	_ZN8UnitTest11CurrentTest7DetailsEv@PLT
 2039      00
 106:TestTest.cpp  ****     CHECK_EQUAL("DefaultSuite", test.m_details.suiteName);
 2040              		.loc 4 106 0 is_stmt 0 discriminator 8
 2041 0c03 488B08   		movq	(%rax), %rcx
 2042 0c06 488D4590 		leaq	-112(%rbp), %rax
 2043 0c0a BA6A0000 		movl	$106, %edx
 2043      00
 2044 0c0f 4889CE   		movq	%rcx, %rsi
 2045 0c12 4889C7   		movq	%rax, %rdi
 2046 0c15 E8000000 		call	_ZN8UnitTest11TestDetailsC1ERKS0_i@PLT
 2046      00
 106:TestTest.cpp  ****     CHECK_EQUAL("DefaultSuite", test.m_details.suiteName);
 2047              		.loc 4 106 0 discriminator 12
 2048 0c1a 488D4590 		leaq	-112(%rbp), %rax
 2049 0c1e 488D1500 		leaq	.LC22(%rip), %rdx
 2049      000000
 2050 0c25 4889C6   		movq	%rax, %rsi
 2051 0c28 4889DF   		movq	%rbx, %rdi
 2052 0c2b E8000000 		call	_ZN8UnitTest11TestResults13OnTestFailureERKNS_11TestDetailsEPKc@PLT
 2052      00
 2053              	.LEHE62:
 2054              	.LEHB63:
 106:TestTest.cpp  ****     CHECK_EQUAL("DefaultSuite", test.m_details.suiteName);
 2055              		.loc 4 106 0 discriminator 14
 2056 0c30 E8000000 		call	__cxa_end_catch@PLT
 2056      00
 2057              	.LEHE63:
 106:TestTest.cpp  ****     CHECK_EQUAL("DefaultSuite", test.m_details.suiteName);
 2058              		.loc 4 106 0
 2059 0c35 E939FFFF 		jmp	.L99
 2059      FF
 2060              	.L106:
 2061 0c3a 4889C3   		movq	%rax, %rbx
 2062 0c3d E8000000 		call	__cxa_end_catch@PLT
 2062      00
 2063 0c42 EB03     		jmp	.L97
 2064              	.L103:
 2065 0c44 4889C3   		movq	%rax, %rbx
 2066              	.L97:
 104:TestTest.cpp  ****     CHECK(test.m_details.suiteName != NULL);
 2067              		.loc 4 104 0 is_stmt 1
 2068 0c47 488D45B0 		leaq	-80(%rbp), %rax
 2069 0c4b 4889C7   		movq	%rax, %rdi
 2070 0c4e E8000000 		call	_ZN8UnitTest4TestD1Ev@PLT
 2070      00
 2071 0c53 4889D8   		movq	%rbx, %rax
 2072 0c56 4889C7   		movq	%rax, %rdi
 2073              	.LEHB64:
 2074 0c59 E8000000 		call	_Unwind_Resume@PLT
 2074      00
 2075              	.LEHE64:
 2076              	.L107:
 2077              		.loc 4 107 0
 2078 0c5e E8000000 		call	__stack_chk_fail@PLT
 2078      00
 2079              	.L101:
 2080 0c63 4883C478 		addq	$120, %rsp
 2081 0c67 5B       		popq	%rbx
 2082 0c68 5D       		popq	%rbp
 2083              		.cfi_def_cfa 7, 8
 2084 0c69 C3       		ret
 2085              		.cfi_endproc
 2086              	.LFE1132:
 2087              		.section	.gcc_except_table
 2088              		.align 4
 2089              	.LLSDA1132:
 2090 0150 FF       		.byte	0xff
 2091 0151 9B       		.byte	0x9b
 2092 0152 39       		.uleb128 .LLSDATT1132-.LLSDATTD1132
 2093              	.LLSDATTD1132:
 2094 0153 01       		.byte	0x1
 2095 0154 31       		.uleb128 .LLSDACSE1132-.LLSDACSB1132
 2096              	.LLSDACSB1132:
 2097 0155 3E       		.uleb128 .LEHB56-.LFB1132
 2098 0156 05       		.uleb128 .LEHE56-.LEHB56
 2099 0157 00       		.uleb128 0
 2100 0158 00       		.uleb128 0
 2101 0159 5E       		.uleb128 .LEHB57-.LFB1132
 2102 015a 3A       		.uleb128 .LEHE57-.LEHB57
 2103 015b FE01     		.uleb128 .L102-.LFB1132
 2104 015d 01       		.uleb128 0x1
 2105 015e 9801     		.uleb128 .LEHB58-.LFB1132
 2106 0160 41       		.uleb128 .LEHE58-.LEHB58
 2107 0161 D402     		.uleb128 .L105-.LFB1132
 2108 0163 01       		.uleb128 0x1
 2109 0164 E001     		.uleb128 .LEHB59-.LFB1132
 2110 0166 05       		.uleb128 .LEHE59-.LEHB59
 2111 0167 00       		.uleb128 0
 2112 0168 00       		.uleb128 0
 2113 0169 8602     		.uleb128 .LEHB60-.LFB1132
 2114 016b 3A       		.uleb128 .LEHE60-.LEHB60
 2115 016c CA02     		.uleb128 .L104-.LFB1132
 2116 016e 00       		.uleb128 0
 2117 016f C002     		.uleb128 .LEHB61-.LFB1132
 2118 0171 05       		.uleb128 .LEHE61-.LEHB61
 2119 0172 AA03     		.uleb128 .L103-.LFB1132
 2120 0174 00       		.uleb128 0
 2121 0175 DC02     		.uleb128 .LEHB62-.LFB1132
 2122 0177 3A       		.uleb128 .LEHE62-.LEHB62
 2123 0178 A003     		.uleb128 .L106-.LFB1132
 2124 017a 00       		.uleb128 0
 2125 017b 9603     		.uleb128 .LEHB63-.LFB1132
 2126 017d 05       		.uleb128 .LEHE63-.LEHB63
 2127 017e AA03     		.uleb128 .L103-.LFB1132
 2128 0180 00       		.uleb128 0
 2129 0181 BF03     		.uleb128 .LEHB64-.LFB1132
 2130 0183 05       		.uleb128 .LEHE64-.LEHB64
 2131 0184 00       		.uleb128 0
 2132 0185 00       		.uleb128 0
 2133              	.LLSDACSE1132:
 2134 0186 01       		.byte	0x1
 2135 0187 00       		.byte	0
 2136              		.align 4
 2137 0188 00000000 		.long	0
 2138              	
 2139              	.LLSDATT1132:
 2140              		.text
 2142              		.section	.rodata
 2143 0295 000000   		.align 8
 2144              	.LC23:
 2145 0298 54657374 		.string	"TestReflectsSpecifiedSuiteName"
 2145      5265666C 
 2145      65637473 
 2145      53706563 
 2145      69666965 
 2146              		.text
 2147              		.align 2
 2149              	_ZN12_GLOBAL__N_134TestTestReflectsSpecifiedSuiteNameC2Ev:
 2150              	.LFB1134:
 108:TestTest.cpp  **** 
 109:TestTest.cpp  **** TEST(TestReflectsSpecifiedSuiteName)
 2151              		.loc 4 109 0
 2152              		.cfi_startproc
 2153 0c6a 55       		pushq	%rbp
 2154              		.cfi_def_cfa_offset 16
 2155              		.cfi_offset 6, -16
 2156 0c6b 4889E5   		movq	%rsp, %rbp
 2157              		.cfi_def_cfa_register 6
 2158 0c6e 53       		pushq	%rbx
 2159 0c6f 4883EC18 		subq	$24, %rsp
 2160              		.cfi_offset 3, -24
 2161 0c73 48897DE8 		movq	%rdi, -24(%rbp)
 2162              	.LBB23:
 2163              		.loc 4 109 0
 2164 0c77 488B5DE8 		movq	-24(%rbp), %rbx
 2165 0c7b E8000000 		call	_ZN13UnitTestSuite12GetSuiteNameEv
 2165      00
 2166 0c80 41B86D00 		movl	$109, %r8d
 2166      0000
 2167 0c86 488D0D00 		leaq	.LC1(%rip), %rcx
 2167      000000
 2168 0c8d 4889C2   		movq	%rax, %rdx
 2169 0c90 488D3500 		leaq	.LC23(%rip), %rsi
 2169      000000
 2170 0c97 4889DF   		movq	%rbx, %rdi
 2171 0c9a E8000000 		call	_ZN8UnitTest4TestC2EPKcS2_S2_i@PLT
 2171      00
 2172 0c9f 488D1500 		leaq	16+_ZTVN12_GLOBAL__N_134TestTestReflectsSpecifiedSuiteNameE(%rip), %rdx
 2172      000000
 2173 0ca6 488B45E8 		movq	-24(%rbp), %rax
 2174 0caa 488910   		movq	%rdx, (%rax)
 2175              	.LBE23:
 2176 0cad 90       		nop
 2177 0cae 4883C418 		addq	$24, %rsp
 2178 0cb2 5B       		popq	%rbx
 2179 0cb3 5D       		popq	%rbp
 2180              		.cfi_def_cfa 7, 8
 2181 0cb4 C3       		ret
 2182              		.cfi_endproc
 2183              	.LFE1134:
 2185              		.set	_ZN12_GLOBAL__N_134TestTestReflectsSpecifiedSuiteNameC1Ev,_ZN12_GLOBAL__N_134TestTestReflects
 2186              		.local	_ZN12_GLOBAL__N_142testTestReflectsSpecifiedSuiteNameInstanceE
 2187              		.comm	_ZN12_GLOBAL__N_142testTestReflectsSpecifiedSuiteNameInstanceE,56,32
 2188              		.local	_ZN12_GLOBAL__N_135adderTestReflectsSpecifiedSuiteNameE
 2189              		.comm	_ZN12_GLOBAL__N_135adderTestReflectsSpecifiedSuiteNameE,1,1
 2190              		.section	.rodata
 2191              	.LC24:
 2192 02b7 74657374 		.string	"testSuite"
 2192      53756974 
 2192      6500
 2193 02c1 00000000 		.align 8
 2193      000000
 2194              	.LC25:
 2195 02c8 556E6861 		.string	"Unhandled exception in CHECK_EQUAL(\"testSuite\", test.m_details.suiteName)"
 2195      6E646C65 
 2195      64206578 
 2195      63657074 
 2195      696F6E20 
 2196              		.text
 2197 0cb5 90       		.align 2
 2199              	_ZNK12_GLOBAL__N_134TestTestReflectsSpecifiedSuiteName7RunImplEv:
 2200              	.LFB1136:
 110:TestTest.cpp  **** {
 2201              		.loc 4 110 0
 2202              		.cfi_startproc
 2203              		.cfi_personality 0x9b,DW.ref.__gxx_personality_v0
 2204              		.cfi_lsda 0x1b,.LLSDA1136
 2205 0cb6 55       		pushq	%rbp
 2206              		.cfi_def_cfa_offset 16
 2207              		.cfi_offset 6, -16
 2208 0cb7 4889E5   		movq	%rsp, %rbp
 2209              		.cfi_def_cfa_register 6
 2210 0cba 53       		pushq	%rbx
 2211 0cbb 4883EC78 		subq	$120, %rsp
 2212              		.cfi_offset 3, -24
 2213 0cbf 48897D88 		movq	%rdi, -120(%rbp)
 2214              		.loc 4 110 0
 2215 0cc3 64488B04 		movq	%fs:40, %rax
 2215      25280000 
 2215      00
 2216 0ccc 488945E8 		movq	%rax, -24(%rbp)
 2217 0cd0 31C0     		xorl	%eax, %eax
 111:TestTest.cpp  ****     Test test("test", "testSuite");
 2218              		.loc 4 111 0
 2219 0cd2 488D45B0 		leaq	-80(%rbp), %rax
 2220 0cd6 41B80000 		movl	$0, %r8d
 2220      0000
 2221 0cdc 488D0D00 		leaq	.LC3(%rip), %rcx
 2221      000000
 2222 0ce3 488D1500 		leaq	.LC24(%rip), %rdx
 2222      000000
 2223 0cea 488D3500 		leaq	.LC19(%rip), %rsi
 2223      000000
 2224 0cf1 4889C7   		movq	%rax, %rdi
 2225              	.LEHB65:
 2226 0cf4 E8000000 		call	_ZN8UnitTest4TestC1EPKcS2_S2_i@PLT
 2226      00
 2227              	.LEHE65:
 112:TestTest.cpp  ****     CHECK(test.m_details.suiteName != NULL);
 2228              		.loc 4 112 0
 2229 0cf9 488B45B8 		movq	-72(%rbp), %rax
 2230 0cfd 4885C0   		testq	%rax, %rax
 2231 0d00 0F95C0   		setne	%al
 2232 0d03 0FB6C0   		movzbl	%al, %eax
 2233 0d06 89C7     		movl	%eax, %edi
 2234 0d08 E8000000 		call	_ZN8UnitTest5CheckIbEEbT_
 2234      00
 2235 0d0d 83F001   		xorl	$1, %eax
 2236 0d10 84C0     		testb	%al, %al
 2237 0d12 743A     		je	.L110
 2238              	.LEHB66:
 2239              		.loc 4 112 0 is_stmt 0 discriminator 1
 2240 0d14 E8000000 		call	_ZN8UnitTest11CurrentTest7ResultsEv@PLT
 2240      00
 2241 0d19 488B18   		movq	(%rax), %rbx
 2242 0d1c E8000000 		call	_ZN8UnitTest11CurrentTest7DetailsEv@PLT
 2242      00
 2243              		.loc 4 112 0 discriminator 2
 2244 0d21 488B08   		movq	(%rax), %rcx
 2245 0d24 488D4590 		leaq	-112(%rbp), %rax
 2246 0d28 BA700000 		movl	$112, %edx
 2246      00
 2247 0d2d 4889CE   		movq	%rcx, %rsi
 2248 0d30 4889C7   		movq	%rax, %rdi
 2249 0d33 E8000000 		call	_ZN8UnitTest11TestDetailsC1ERKS0_i@PLT
 2249      00
 2250              		.loc 4 112 0 discriminator 4
 2251 0d38 488D4590 		leaq	-112(%rbp), %rax
 2252 0d3c 488D1500 		leaq	.LC20(%rip), %rdx
 2252      000000
 2253 0d43 4889C6   		movq	%rax, %rsi
 2254 0d46 4889DF   		movq	%rbx, %rdi
 2255 0d49 E8000000 		call	_ZN8UnitTest11TestResults13OnTestFailureERKNS_11TestDetailsEPKc@PLT
 2255      00
 2256              	.LEHE66:
 2257              	.L110:
 2258              	.LEHB67:
 113:TestTest.cpp  ****     CHECK_EQUAL("testSuite", test.m_details.suiteName);
 2259              		.loc 4 113 0 is_stmt 1
 2260 0d4e E8000000 		call	_ZN8UnitTest11CurrentTest7DetailsEv@PLT
 2260      00
 2261 0d53 488B08   		movq	(%rax), %rcx
 2262 0d56 488D4590 		leaq	-112(%rbp), %rax
 2263 0d5a BA710000 		movl	$113, %edx
 2263      00
 2264 0d5f 4889CE   		movq	%rcx, %rsi
 2265 0d62 4889C7   		movq	%rax, %rdi
 2266 0d65 E8000000 		call	_ZN8UnitTest11TestDetailsC1ERKS0_i@PLT
 2266      00
 2267              		.loc 4 113 0 is_stmt 0 discriminator 2
 2268 0d6a 488B5DB8 		movq	-72(%rbp), %rbx
 2269 0d6e E8000000 		call	_ZN8UnitTest11CurrentTest7ResultsEv@PLT
 2269      00
 2270 0d73 488B00   		movq	(%rax), %rax
 2271 0d76 488D5590 		leaq	-112(%rbp), %rdx
 2272 0d7a 4889D1   		movq	%rdx, %rcx
 2273 0d7d 4889DA   		movq	%rbx, %rdx
 2274 0d80 488D3500 		leaq	.LC24(%rip), %rsi
 2274      000000
 2275 0d87 4889C7   		movq	%rax, %rdi
 2276 0d8a E8000000 		call	_ZN8UnitTest10CheckEqualERNS_11TestResultsEPKcS3_RKNS_11TestDetailsE@PLT
 2276      00
 2277              	.LEHE67:
 2278              	.L115:
 111:TestTest.cpp  ****     Test test("test", "testSuite");
 2279              		.loc 4 111 0 is_stmt 1
 2280 0d8f 488D45B0 		leaq	-80(%rbp), %rax
 2281 0d93 4889C7   		movq	%rax, %rdi
 2282              	.LEHB68:
 2283 0d96 E8000000 		call	_ZN8UnitTest4TestD1Ev@PLT
 2283      00
 2284              	.LEHE68:
 114:TestTest.cpp  **** }
 2285              		.loc 4 114 0
 2286 0d9b 90       		nop
 2287 0d9c 488B45E8 		movq	-24(%rbp), %rax
 2288 0da0 64483304 		xorq	%fs:40, %rax
 2288      25280000 
 2288      00
 2289 0da9 0F84D000 		je	.L117
 2289      0000
 2290 0daf E9C60000 		jmp	.L123
 2290      00
 2291              	.L118:
 112:TestTest.cpp  ****     CHECK(test.m_details.suiteName != NULL);
 2292              		.loc 4 112 0
 2293 0db4 4889C7   		movq	%rax, %rdi
 2294 0db7 E8000000 		call	__cxa_begin_catch@PLT
 2294      00
 2295              	.LEHB69:
 2296 0dbc E8000000 		call	_ZN8UnitTest11CurrentTest7ResultsEv@PLT
 2296      00
 2297 0dc1 488B18   		movq	(%rax), %rbx
 2298 0dc4 E8000000 		call	_ZN8UnitTest11CurrentTest7DetailsEv@PLT
 2298      00
 112:TestTest.cpp  ****     CHECK(test.m_details.suiteName != NULL);
 2299              		.loc 4 112 0 is_stmt 0 discriminator 8
 2300 0dc9 488B08   		movq	(%rax), %rcx
 2301 0dcc 488D4590 		leaq	-112(%rbp), %rax
 2302 0dd0 BA700000 		movl	$112, %edx
 2302      00
 2303 0dd5 4889CE   		movq	%rcx, %rsi
 2304 0dd8 4889C7   		movq	%rax, %rdi
 2305 0ddb E8000000 		call	_ZN8UnitTest11TestDetailsC1ERKS0_i@PLT
 2305      00
 112:TestTest.cpp  ****     CHECK(test.m_details.suiteName != NULL);
 2306              		.loc 4 112 0 discriminator 12
 2307 0de0 488D4590 		leaq	-112(%rbp), %rax
 2308 0de4 488D1500 		leaq	.LC21(%rip), %rdx
 2308      000000
 2309 0deb 4889C6   		movq	%rax, %rsi
 2310 0dee 4889DF   		movq	%rbx, %rdi
 2311 0df1 E8000000 		call	_ZN8UnitTest11TestResults13OnTestFailureERKNS_11TestDetailsEPKc@PLT
 2311      00
 2312              	.LEHE69:
 2313              	.LEHB70:
 112:TestTest.cpp  ****     CHECK(test.m_details.suiteName != NULL);
 2314              		.loc 4 112 0 discriminator 14
 2315 0df6 E8000000 		call	__cxa_end_catch@PLT
 2315      00
 2316              	.LEHE70:
 112:TestTest.cpp  ****     CHECK(test.m_details.suiteName != NULL);
 2317              		.loc 4 112 0
 2318 0dfb E94EFFFF 		jmp	.L110
 2318      FF
 2319              	.L120:
 2320 0e00 4889C3   		movq	%rax, %rbx
 2321 0e03 E8000000 		call	__cxa_end_catch@PLT
 2321      00
 2322 0e08 EB59     		jmp	.L113
 2323              	.L121:
 113:TestTest.cpp  ****     CHECK_EQUAL("testSuite", test.m_details.suiteName);
 2324              		.loc 4 113 0 is_stmt 1
 2325 0e0a 4889C7   		movq	%rax, %rdi
 2326 0e0d E8000000 		call	__cxa_begin_catch@PLT
 2326      00
 2327              	.LEHB71:
 2328 0e12 E8000000 		call	_ZN8UnitTest11CurrentTest7ResultsEv@PLT
 2328      00
 2329 0e17 488B18   		movq	(%rax), %rbx
 2330 0e1a E8000000 		call	_ZN8UnitTest11CurrentTest7DetailsEv@PLT
 2330      00
 113:TestTest.cpp  ****     CHECK_EQUAL("testSuite", test.m_details.suiteName);
 2331              		.loc 4 113 0 is_stmt 0 discriminator 8
 2332 0e1f 488B08   		movq	(%rax), %rcx
 2333 0e22 488D4590 		leaq	-112(%rbp), %rax
 2334 0e26 BA710000 		movl	$113, %edx
 2334      00
 2335 0e2b 4889CE   		movq	%rcx, %rsi
 2336 0e2e 4889C7   		movq	%rax, %rdi
 2337 0e31 E8000000 		call	_ZN8UnitTest11TestDetailsC1ERKS0_i@PLT
 2337      00
 113:TestTest.cpp  ****     CHECK_EQUAL("testSuite", test.m_details.suiteName);
 2338              		.loc 4 113 0 discriminator 12
 2339 0e36 488D4590 		leaq	-112(%rbp), %rax
 2340 0e3a 488D1500 		leaq	.LC25(%rip), %rdx
 2340      000000
 2341 0e41 4889C6   		movq	%rax, %rsi
 2342 0e44 4889DF   		movq	%rbx, %rdi
 2343 0e47 E8000000 		call	_ZN8UnitTest11TestResults13OnTestFailureERKNS_11TestDetailsEPKc@PLT
 2343      00
 2344              	.LEHE71:
 2345              	.LEHB72:
 113:TestTest.cpp  ****     CHECK_EQUAL("testSuite", test.m_details.suiteName);
 2346              		.loc 4 113 0 discriminator 14
 2347 0e4c E8000000 		call	__cxa_end_catch@PLT
 2347      00
 2348              	.LEHE72:
 113:TestTest.cpp  ****     CHECK_EQUAL("testSuite", test.m_details.suiteName);
 2349              		.loc 4 113 0
 2350 0e51 E939FFFF 		jmp	.L115
 2350      FF
 2351              	.L122:
 2352 0e56 4889C3   		movq	%rax, %rbx
 2353 0e59 E8000000 		call	__cxa_end_catch@PLT
 2353      00
 2354 0e5e EB03     		jmp	.L113
 2355              	.L119:
 2356 0e60 4889C3   		movq	%rax, %rbx
 2357              	.L113:
 111:TestTest.cpp  ****     CHECK(test.m_details.suiteName != NULL);
 2358              		.loc 4 111 0 is_stmt 1
 2359 0e63 488D45B0 		leaq	-80(%rbp), %rax
 2360 0e67 4889C7   		movq	%rax, %rdi
 2361 0e6a E8000000 		call	_ZN8UnitTest4TestD1Ev@PLT
 2361      00
 2362 0e6f 4889D8   		movq	%rbx, %rax
 2363 0e72 4889C7   		movq	%rax, %rdi
 2364              	.LEHB73:
 2365 0e75 E8000000 		call	_Unwind_Resume@PLT
 2365      00
 2366              	.LEHE73:
 2367              	.L123:
 2368              		.loc 4 114 0
 2369 0e7a E8000000 		call	__stack_chk_fail@PLT
 2369      00
 2370              	.L117:
 2371 0e7f 4883C478 		addq	$120, %rsp
 2372 0e83 5B       		popq	%rbx
 2373 0e84 5D       		popq	%rbp
 2374              		.cfi_def_cfa 7, 8
 2375 0e85 C3       		ret
 2376              		.cfi_endproc
 2377              	.LFE1136:
 2378              		.section	.gcc_except_table
 2379              		.align 4
 2380              	.LLSDA1136:
 2381 018c FF       		.byte	0xff
 2382 018d 9B       		.byte	0x9b
 2383 018e 39       		.uleb128 .LLSDATT1136-.LLSDATTD1136
 2384              	.LLSDATTD1136:
 2385 018f 01       		.byte	0x1
 2386 0190 31       		.uleb128 .LLSDACSE1136-.LLSDACSB1136
 2387              	.LLSDACSB1136:
 2388 0191 3E       		.uleb128 .LEHB65-.LFB1136
 2389 0192 05       		.uleb128 .LEHE65-.LEHB65
 2390 0193 00       		.uleb128 0
 2391 0194 00       		.uleb128 0
 2392 0195 5E       		.uleb128 .LEHB66-.LFB1136
 2393 0196 3A       		.uleb128 .LEHE66-.LEHB66
 2394 0197 FE01     		.uleb128 .L118-.LFB1136
 2395 0199 01       		.uleb128 0x1
 2396 019a 9801     		.uleb128 .LEHB67-.LFB1136
 2397 019c 41       		.uleb128 .LEHE67-.LEHB67
 2398 019d D402     		.uleb128 .L121-.LFB1136
 2399 019f 01       		.uleb128 0x1
 2400 01a0 E001     		.uleb128 .LEHB68-.LFB1136
 2401 01a2 05       		.uleb128 .LEHE68-.LEHB68
 2402 01a3 00       		.uleb128 0
 2403 01a4 00       		.uleb128 0
 2404 01a5 8602     		.uleb128 .LEHB69-.LFB1136
 2405 01a7 3A       		.uleb128 .LEHE69-.LEHB69
 2406 01a8 CA02     		.uleb128 .L120-.LFB1136
 2407 01aa 00       		.uleb128 0
 2408 01ab C002     		.uleb128 .LEHB70-.LFB1136
 2409 01ad 05       		.uleb128 .LEHE70-.LEHB70
 2410 01ae AA03     		.uleb128 .L119-.LFB1136
 2411 01b0 00       		.uleb128 0
 2412 01b1 DC02     		.uleb128 .LEHB71-.LFB1136
 2413 01b3 3A       		.uleb128 .LEHE71-.LEHB71
 2414 01b4 A003     		.uleb128 .L122-.LFB1136
 2415 01b6 00       		.uleb128 0
 2416 01b7 9603     		.uleb128 .LEHB72-.LFB1136
 2417 01b9 05       		.uleb128 .LEHE72-.LEHB72
 2418 01ba AA03     		.uleb128 .L119-.LFB1136
 2419 01bc 00       		.uleb128 0
 2420 01bd BF03     		.uleb128 .LEHB73-.LFB1136
 2421 01bf 05       		.uleb128 .LEHE73-.LEHB73
 2422 01c0 00       		.uleb128 0
 2423 01c1 00       		.uleb128 0
 2424              	.LLSDACSE1136:
 2425 01c2 01       		.byte	0x1
 2426 01c3 00       		.byte	0
 2427              		.align 4
 2428 01c4 00000000 		.long	0
 2429              	
 2430              	.LLSDATT1136:
 2431              		.text
 2434              	_ZN12_GLOBAL__N_14FailEv:
 2435              	.LFB1137:
 115:TestTest.cpp  **** 
 116:TestTest.cpp  **** void Fail()
 117:TestTest.cpp  **** {
 2436              		.loc 4 117 0
 2437              		.cfi_startproc
 2438              		.cfi_personality 0x9b,DW.ref.__gxx_personality_v0
 2439              		.cfi_lsda 0x1b,.LLSDA1137
 2440 0e86 55       		pushq	%rbp
 2441              		.cfi_def_cfa_offset 16
 2442              		.cfi_offset 6, -16
 2443 0e87 4889E5   		movq	%rsp, %rbp
 2444              		.cfi_def_cfa_register 6
 2445 0e8a 53       		pushq	%rbx
 2446 0e8b 4883EC38 		subq	$56, %rsp
 2447              		.cfi_offset 3, -24
 2448              		.loc 4 117 0
 2449 0e8f 64488B04 		movq	%fs:40, %rax
 2449      25280000 
 2449      00
 2450 0e98 488945E8 		movq	%rax, -24(%rbp)
 2451 0e9c 31C0     		xorl	%eax, %eax
 118:TestTest.cpp  **** 	CHECK(false);
 2452              		.loc 4 118 0
 2453 0e9e BF000000 		movl	$0, %edi
 2453      00
 2454 0ea3 E8000000 		call	_ZN8UnitTest5CheckIbEEbT_
 2454      00
 2455 0ea8 83F001   		xorl	$1, %eax
 2456 0eab 84C0     		testb	%al, %al
 2457 0ead 0F849800 		je	.L131
 2457      0000
 2458              	.LEHB74:
 2459              		.loc 4 118 0 is_stmt 0 discriminator 1
 2460 0eb3 E8000000 		call	_ZN8UnitTest11CurrentTest7ResultsEv@PLT
 2460      00
 2461 0eb8 488B18   		movq	(%rax), %rbx
 2462 0ebb E8000000 		call	_ZN8UnitTest11CurrentTest7DetailsEv@PLT
 2462      00
 2463              		.loc 4 118 0 discriminator 2
 2464 0ec0 488B08   		movq	(%rax), %rcx
 2465 0ec3 488D45C0 		leaq	-64(%rbp), %rax
 2466 0ec7 BA760000 		movl	$118, %edx
 2466      00
 2467 0ecc 4889CE   		movq	%rcx, %rsi
 2468 0ecf 4889C7   		movq	%rax, %rdi
 2469 0ed2 E8000000 		call	_ZN8UnitTest11TestDetailsC1ERKS0_i@PLT
 2469      00
 2470              		.loc 4 118 0 discriminator 4
 2471 0ed7 488D45C0 		leaq	-64(%rbp), %rax
 2472 0edb 488D1500 		leaq	.LC10(%rip), %rdx
 2472      000000
 2473 0ee2 4889C6   		movq	%rax, %rsi
 2474 0ee5 4889DF   		movq	%rbx, %rdi
 2475 0ee8 E8000000 		call	_ZN8UnitTest11TestResults13OnTestFailureERKNS_11TestDetailsEPKc@PLT
 2475      00
 2476              	.LEHE74:
 119:TestTest.cpp  **** }
 2477              		.loc 4 119 0 is_stmt 1
 2478 0eed EB5C     		jmp	.L131
 2479              	.L129:
 118:TestTest.cpp  **** 	CHECK(false);
 2480              		.loc 4 118 0
 2481 0eef 4889C7   		movq	%rax, %rdi
 2482 0ef2 E8000000 		call	__cxa_begin_catch@PLT
 2482      00
 2483              	.LEHB75:
 2484 0ef7 E8000000 		call	_ZN8UnitTest11CurrentTest7ResultsEv@PLT
 2484      00
 2485 0efc 488B18   		movq	(%rax), %rbx
 2486 0eff E8000000 		call	_ZN8UnitTest11CurrentTest7DetailsEv@PLT
 2486      00
 118:TestTest.cpp  **** 	CHECK(false);
 2487              		.loc 4 118 0 is_stmt 0 discriminator 8
 2488 0f04 488B08   		movq	(%rax), %rcx
 2489 0f07 488D45C0 		leaq	-64(%rbp), %rax
 2490 0f0b BA760000 		movl	$118, %edx
 2490      00
 2491 0f10 4889CE   		movq	%rcx, %rsi
 2492 0f13 4889C7   		movq	%rax, %rdi
 2493 0f16 E8000000 		call	_ZN8UnitTest11TestDetailsC1ERKS0_i@PLT
 2493      00
 118:TestTest.cpp  **** 	CHECK(false);
 2494              		.loc 4 118 0 discriminator 12
 2495 0f1b 488D45C0 		leaq	-64(%rbp), %rax
 2496 0f1f 488D1500 		leaq	.LC11(%rip), %rdx
 2496      000000
 2497 0f26 4889C6   		movq	%rax, %rsi
 2498 0f29 4889DF   		movq	%rbx, %rdi
 2499 0f2c E8000000 		call	_ZN8UnitTest11TestResults13OnTestFailureERKNS_11TestDetailsEPKc@PLT
 2499      00
 2500              	.LEHE75:
 2501              	.LEHB76:
 118:TestTest.cpp  **** 	CHECK(false);
 2502              		.loc 4 118 0 discriminator 14
 2503 0f31 E8000000 		call	__cxa_end_catch@PLT
 2503      00
 2504              	.LEHE76:
 2505              		.loc 4 119 0 is_stmt 1 discriminator 14
 2506 0f36 EB13     		jmp	.L131
 2507              	.L130:
 2508 0f38 4889C3   		movq	%rax, %rbx
 118:TestTest.cpp  **** 	CHECK(false);
 2509              		.loc 4 118 0
 2510 0f3b E8000000 		call	__cxa_end_catch@PLT
 2510      00
 2511 0f40 4889D8   		movq	%rbx, %rax
 2512 0f43 4889C7   		movq	%rax, %rdi
 2513              	.LEHB77:
 2514 0f46 E8000000 		call	_Unwind_Resume@PLT
 2514      00
 2515              	.LEHE77:
 2516              	.L131:
 2517              		.loc 4 119 0
 2518 0f4b 90       		nop
 2519 0f4c 488B45E8 		movq	-24(%rbp), %rax
 2520 0f50 64483304 		xorq	%fs:40, %rax
 2520      25280000 
 2520      00
 2521 0f59 7405     		je	.L128
 2522 0f5b E8000000 		call	__stack_chk_fail@PLT
 2522      00
 2523              	.L128:
 2524 0f60 4883C438 		addq	$56, %rsp
 2525 0f64 5B       		popq	%rbx
 2526 0f65 5D       		popq	%rbp
 2527              		.cfi_def_cfa 7, 8
 2528 0f66 C3       		ret
 2529              		.cfi_endproc
 2530              	.LFE1137:
 2531              		.section	.gcc_except_table
 2532              		.align 4
 2533              	.LLSDA1137:
 2534 01c8 FF       		.byte	0xff
 2535 01c9 9B       		.byte	0x9b
 2536 01ca 1D       		.uleb128 .LLSDATT1137-.LLSDATTD1137
 2537              	.LLSDATTD1137:
 2538 01cb 01       		.byte	0x1
 2539 01cc 13       		.uleb128 .LLSDACSE1137-.LLSDACSB1137
 2540              	.LLSDACSB1137:
 2541 01cd 2D       		.uleb128 .LEHB74-.LFB1137
 2542 01ce 3A       		.uleb128 .LEHE74-.LEHB74
 2543 01cf 69       		.uleb128 .L129-.LFB1137
 2544 01d0 01       		.uleb128 0x1
 2545 01d1 71       		.uleb128 .LEHB75-.LFB1137
 2546 01d2 3A       		.uleb128 .LEHE75-.LEHB75
 2547 01d3 B201     		.uleb128 .L130-.LFB1137
 2548 01d5 00       		.uleb128 0
 2549 01d6 AB01     		.uleb128 .LEHB76-.LFB1137
 2550 01d8 05       		.uleb128 .LEHE76-.LEHB76
 2551 01d9 00       		.uleb128 0
 2552 01da 00       		.uleb128 0
 2553 01db C001     		.uleb128 .LEHB77-.LFB1137
 2554 01dd 05       		.uleb128 .LEHE77-.LEHB77
 2555 01de 00       		.uleb128 0
 2556 01df 00       		.uleb128 0
 2557              	.LLSDACSE1137:
 2558 01e0 01       		.byte	0x1
 2559 01e1 00       		.byte	0
 2560 01e2 0000     		.align 4
 2561 01e4 00000000 		.long	0
 2562              	
 2563              	.LLSDATT1137:
 2564              		.text
 2566              		.section	.rodata
 2567 0312 00000000 		.align 8
 2567      0000
 2568              	.LC26:
 2569 0318 4F75744F 		.string	"OutOfCoreCHECKMacrosCanFailTests"
 2569      66436F72 
 2569      65434845 
 2569      434B4D61 
 2569      63726F73 
 2570              		.text
 2571 0f67 90       		.align 2
 2573              	_ZN12_GLOBAL__N_136TestOutOfCoreCHECKMacrosCanFailTestsC2Ev:
 2574              	.LFB1139:
 120:TestTest.cpp  **** 
 121:TestTest.cpp  **** TEST(OutOfCoreCHECKMacrosCanFailTests)
 2575              		.loc 4 121 0
 2576              		.cfi_startproc
 2577 0f68 55       		pushq	%rbp
 2578              		.cfi_def_cfa_offset 16
 2579              		.cfi_offset 6, -16
 2580 0f69 4889E5   		movq	%rsp, %rbp
 2581              		.cfi_def_cfa_register 6
 2582 0f6c 53       		pushq	%rbx
 2583 0f6d 4883EC18 		subq	$24, %rsp
 2584              		.cfi_offset 3, -24
 2585 0f71 48897DE8 		movq	%rdi, -24(%rbp)
 2586              	.LBB24:
 2587              		.loc 4 121 0
 2588 0f75 488B5DE8 		movq	-24(%rbp), %rbx
 2589 0f79 E8000000 		call	_ZN13UnitTestSuite12GetSuiteNameEv
 2589      00
 2590 0f7e 41B87900 		movl	$121, %r8d
 2590      0000
 2591 0f84 488D0D00 		leaq	.LC1(%rip), %rcx
 2591      000000
 2592 0f8b 4889C2   		movq	%rax, %rdx
 2593 0f8e 488D3500 		leaq	.LC26(%rip), %rsi
 2593      000000
 2594 0f95 4889DF   		movq	%rbx, %rdi
 2595 0f98 E8000000 		call	_ZN8UnitTest4TestC2EPKcS2_S2_i@PLT
 2595      00
 2596 0f9d 488D1500 		leaq	16+_ZTVN12_GLOBAL__N_136TestOutOfCoreCHECKMacrosCanFailTestsE(%rip), %rdx
 2596      000000
 2597 0fa4 488B45E8 		movq	-24(%rbp), %rax
 2598 0fa8 488910   		movq	%rdx, (%rax)
 2599              	.LBE24:
 2600 0fab 90       		nop
 2601 0fac 4883C418 		addq	$24, %rsp
 2602 0fb0 5B       		popq	%rbx
 2603 0fb1 5D       		popq	%rbp
 2604              		.cfi_def_cfa 7, 8
 2605 0fb2 C3       		ret
 2606              		.cfi_endproc
 2607              	.LFE1139:
 2609              		.set	_ZN12_GLOBAL__N_136TestOutOfCoreCHECKMacrosCanFailTestsC1Ev,_ZN12_GLOBAL__N_136TestOutOfCoreC
 2610              		.local	_ZN12_GLOBAL__N_144testOutOfCoreCHECKMacrosCanFailTestsInstanceE
 2611              		.comm	_ZN12_GLOBAL__N_144testOutOfCoreCHECKMacrosCanFailTestsInstanceE,56,32
 2612              		.local	_ZN12_GLOBAL__N_137adderOutOfCoreCHECKMacrosCanFailTestsE
 2613              		.comm	_ZN12_GLOBAL__N_137adderOutOfCoreCHECKMacrosCanFailTestsE,1,1
 2614 0fb3 90       		.align 2
 2616              	_ZNK12_GLOBAL__N_136TestOutOfCoreCHECKMacrosCanFailTests7RunImplEv:
 2617              	.LFB1141:
 122:TestTest.cpp  **** {
 2618              		.loc 4 122 0
 2619              		.cfi_startproc
 2620              		.cfi_personality 0x9b,DW.ref.__gxx_personality_v0
 2621              		.cfi_lsda 0x1b,.LLSDA1141
 2622 0fb4 55       		pushq	%rbp
 2623              		.cfi_def_cfa_offset 16
 2624              		.cfi_offset 6, -16
 2625 0fb5 4889E5   		movq	%rsp, %rbp
 2626              		.cfi_def_cfa_register 6
 2627 0fb8 53       		pushq	%rbx
 2628 0fb9 4883EC78 		subq	$120, %rsp
 2629              		.cfi_offset 3, -24
 2630 0fbd 48897D88 		movq	%rdi, -120(%rbp)
 2631              		.loc 4 122 0
 2632 0fc1 64488B04 		movq	%fs:40, %rax
 2632      25280000 
 2632      00
 2633 0fca 488945E8 		movq	%rax, -24(%rbp)
 2634 0fce 31C0     		xorl	%eax, %eax
 123:TestTest.cpp  **** 	TestResults results;
 2635              		.loc 4 123 0
 2636 0fd0 488D45A0 		leaq	-96(%rbp), %rax
 2637 0fd4 BE000000 		movl	$0, %esi
 2637      00
 2638 0fd9 4889C7   		movq	%rax, %rdi
 2639              	.LEHB78:
 2640 0fdc E8000000 		call	_ZN8UnitTest11TestResultsC1EPNS_12TestReporterE@PLT
 2640      00
 2641              	.LBB25:
 124:TestTest.cpp  **** 	{
 125:TestTest.cpp  **** 		ScopedCurrentTest scopedResult(results);
 2642              		.loc 4 125 0
 2643 0fe1 488D4DA0 		leaq	-96(%rbp), %rcx
 2644 0fe5 488D45C0 		leaq	-64(%rbp), %rax
 2645 0fe9 BA000000 		movl	$0, %edx
 2645      00
 2646 0fee 4889CE   		movq	%rcx, %rsi
 2647 0ff1 4889C7   		movq	%rax, %rdi
 2648 0ff4 E8000000 		call	_ZN17ScopedCurrentTestC1ERN8UnitTest11TestResultsEPKNS0_11TestDetailsE
 2648      00
 2649              	.LEHE78:
 2650              	.LEHB79:
 126:TestTest.cpp  **** 		Fail();
 2651              		.loc 4 126 0
 2652 0ff9 E888FEFF 		call	_ZN12_GLOBAL__N_14FailEv
 2652      FF
 2653              	.LEHE79:
 125:TestTest.cpp  **** 		Fail();
 2654              		.loc 4 125 0
 2655 0ffe 488D45C0 		leaq	-64(%rbp), %rax
 2656 1002 4889C7   		movq	%rax, %rdi
 2657              	.LEHB80:
 2658 1005 E8000000 		call	_ZN17ScopedCurrentTestD1Ev
 2658      00
 2659              	.LEHE80:
 2660              	.LEHB81:
 2661              	.LBE25:
 127:TestTest.cpp  **** 	}
 128:TestTest.cpp  **** 
 129:TestTest.cpp  **** 	CHECK_EQUAL(1, results.GetFailureCount());
 2662              		.loc 4 129 0
 2663 100a E8000000 		call	_ZN8UnitTest11CurrentTest7DetailsEv@PLT
 2663      00
 2664 100f 488B08   		movq	(%rax), %rcx
 2665 1012 488D45C0 		leaq	-64(%rbp), %rax
 2666 1016 BA810000 		movl	$129, %edx
 2666      00
 2667 101b 4889CE   		movq	%rcx, %rsi
 2668 101e 4889C7   		movq	%rax, %rdi
 2669 1021 E8000000 		call	_ZN8UnitTest11TestDetailsC1ERKS0_i@PLT
 2669      00
 2670              		.loc 4 129 0 is_stmt 0 discriminator 2
 2671 1026 488D45A0 		leaq	-96(%rbp), %rax
 2672 102a 4889C7   		movq	%rax, %rdi
 2673 102d E8000000 		call	_ZNK8UnitTest11TestResults15GetFailureCountEv@PLT
 2673      00
 2674              	.LEHE81:
 2675 1032 89459C   		movl	%eax, -100(%rbp)
 2676 1035 C7459801 		movl	$1, -104(%rbp)
 2676      000000
 2677              	.LEHB82:
 2678 103c E8000000 		call	_ZN8UnitTest11CurrentTest7ResultsEv@PLT
 2678      00
 2679              		.loc 4 129 0 discriminator 4
 2680 1041 488B00   		movq	(%rax), %rax
 2681 1044 488D4DC0 		leaq	-64(%rbp), %rcx
 2682 1048 488D559C 		leaq	-100(%rbp), %rdx
 2683 104c 488D7598 		leaq	-104(%rbp), %rsi
 2684 1050 4889C7   		movq	%rax, %rdi
 2685 1053 E8000000 		call	_ZN8UnitTest10CheckEqualIiiEEvRNS_11TestResultsERKT_RKT0_RKNS_11TestDetailsE
 2685      00
 2686              	.LEHE82:
 130:TestTest.cpp  **** }
 2687              		.loc 4 130 0 is_stmt 1
 2688 1058 EB78     		jmp	.L133
 2689              	.L140:
 2690 105a 4889C3   		movq	%rax, %rbx
 2691              	.LBB26:
 125:TestTest.cpp  **** 		Fail();
 2692              		.loc 4 125 0
 2693 105d 488D45C0 		leaq	-64(%rbp), %rax
 2694 1061 4889C7   		movq	%rax, %rdi
 2695 1064 E8000000 		call	_ZN17ScopedCurrentTestD1Ev
 2695      00
 2696 1069 4889D8   		movq	%rbx, %rax
 2697 106c 4889C7   		movq	%rax, %rdi
 2698              	.LEHB83:
 2699 106f E8000000 		call	_Unwind_Resume@PLT
 2699      00
 2700              	.LEHE83:
 2701              	.L142:
 2702 1074 EB00     		jmp	.L136
 2703              	.L141:
 2704              	.L136:
 2705              	.LBE26:
 129:TestTest.cpp  **** }
 2706              		.loc 4 129 0
 2707 1076 4889C7   		movq	%rax, %rdi
 2708 1079 E8000000 		call	__cxa_begin_catch@PLT
 2708      00
 2709              	.LEHB84:
 2710 107e E8000000 		call	_ZN8UnitTest11CurrentTest7ResultsEv@PLT
 2710      00
 2711 1083 488B18   		movq	(%rax), %rbx
 2712 1086 E8000000 		call	_ZN8UnitTest11CurrentTest7DetailsEv@PLT
 2712      00
 129:TestTest.cpp  **** }
 2713              		.loc 4 129 0 is_stmt 0 discriminator 10
 2714 108b 488B08   		movq	(%rax), %rcx
 2715 108e 488D45C0 		leaq	-64(%rbp), %rax
 2716 1092 BA810000 		movl	$129, %edx
 2716      00
 2717 1097 4889CE   		movq	%rcx, %rsi
 2718 109a 4889C7   		movq	%rax, %rdi
 2719 109d E8000000 		call	_ZN8UnitTest11TestDetailsC1ERKS0_i@PLT
 2719      00
 129:TestTest.cpp  **** }
 2720              		.loc 4 129 0 discriminator 14
 2721 10a2 488D45C0 		leaq	-64(%rbp), %rax
 2722 10a6 488D1500 		leaq	.LC12(%rip), %rdx
 2722      000000
 2723 10ad 4889C6   		movq	%rax, %rsi
 2724 10b0 4889DF   		movq	%rbx, %rdi
 2725 10b3 E8000000 		call	_ZN8UnitTest11TestResults13OnTestFailureERKNS_11TestDetailsEPKc@PLT
 2725      00
 2726              	.LEHE84:
 2727              	.LEHB85:
 129:TestTest.cpp  **** }
 2728              		.loc 4 129 0 discriminator 16
 2729 10b8 E8000000 		call	__cxa_end_catch@PLT
 2729      00
 2730              	.LEHE85:
 2731              		.loc 4 130 0 is_stmt 1 discriminator 16
 2732 10bd EB13     		jmp	.L133
 2733              	.L143:
 2734 10bf 4889C3   		movq	%rax, %rbx
 129:TestTest.cpp  **** }
 2735              		.loc 4 129 0
 2736 10c2 E8000000 		call	__cxa_end_catch@PLT
 2736      00
 2737 10c7 4889D8   		movq	%rbx, %rax
 2738 10ca 4889C7   		movq	%rax, %rdi
 2739              	.LEHB86:
 2740 10cd E8000000 		call	_Unwind_Resume@PLT
 2740      00
 2741              	.LEHE86:
 2742              	.L133:
 2743              		.loc 4 130 0
 2744 10d2 488B45E8 		movq	-24(%rbp), %rax
 2745 10d6 64483304 		xorq	%fs:40, %rax
 2745      25280000 
 2745      00
 2746 10df 7405     		je	.L139
 2747 10e1 E8000000 		call	__stack_chk_fail@PLT
 2747      00
 2748              	.L139:
 2749 10e6 4883C478 		addq	$120, %rsp
 2750 10ea 5B       		popq	%rbx
 2751 10eb 5D       		popq	%rbp
 2752              		.cfi_def_cfa 7, 8
 2753 10ec C3       		ret
 2754              		.cfi_endproc
 2755              	.LFE1141:
 2756              		.section	.gcc_except_table
 2757              		.align 4
 2758              	.LLSDA1141:
 2759 01e8 FF       		.byte	0xff
 2760 01e9 9B       		.byte	0x9b
 2761 01ea 39       		.uleb128 .LLSDATT1141-.LLSDATTD1141
 2762              	.LLSDATTD1141:
 2763 01eb 01       		.byte	0x1
 2764 01ec 2D       		.uleb128 .LLSDACSE1141-.LLSDACSB1141
 2765              	.LLSDACSB1141:
 2766 01ed 28       		.uleb128 .LEHB78-.LFB1141
 2767 01ee 1D       		.uleb128 .LEHE78-.LEHB78
 2768 01ef 00       		.uleb128 0
 2769 01f0 00       		.uleb128 0
 2770 01f1 45       		.uleb128 .LEHB79-.LFB1141
 2771 01f2 05       		.uleb128 .LEHE79-.LEHB79
 2772 01f3 A601     		.uleb128 .L140-.LFB1141
 2773 01f5 00       		.uleb128 0
 2774 01f6 51       		.uleb128 .LEHB80-.LFB1141
 2775 01f7 05       		.uleb128 .LEHE80-.LEHB80
 2776 01f8 00       		.uleb128 0
 2777 01f9 00       		.uleb128 0
 2778 01fa 56       		.uleb128 .LEHB81-.LFB1141
 2779 01fb 28       		.uleb128 .LEHE81-.LEHB81
 2780 01fc C201     		.uleb128 .L141-.LFB1141
 2781 01fe 01       		.uleb128 0x1
 2782 01ff 8801     		.uleb128 .LEHB82-.LFB1141
 2783 0201 1C       		.uleb128 .LEHE82-.LEHB82
 2784 0202 C001     		.uleb128 .L142-.LFB1141
 2785 0204 03       		.uleb128 0x3
 2786 0205 BB01     		.uleb128 .LEHB83-.LFB1141
 2787 0207 05       		.uleb128 .LEHE83-.LEHB83
 2788 0208 00       		.uleb128 0
 2789 0209 00       		.uleb128 0
 2790 020a CA01     		.uleb128 .LEHB84-.LFB1141
 2791 020c 3A       		.uleb128 .LEHE84-.LEHB84
 2792 020d 8B02     		.uleb128 .L143-.LFB1141
 2793 020f 00       		.uleb128 0
 2794 0210 8402     		.uleb128 .LEHB85-.LFB1141
 2795 0212 05       		.uleb128 .LEHE85-.LEHB85
 2796 0213 00       		.uleb128 0
 2797 0214 00       		.uleb128 0
 2798 0215 9902     		.uleb128 .LEHB86-.LFB1141
 2799 0217 05       		.uleb128 .LEHE86-.LEHB86
 2800 0218 00       		.uleb128 0
 2801 0219 00       		.uleb128 0
 2802              	.LLSDACSE1141:
 2803 021a 01       		.byte	0x1
 2804 021b 00       		.byte	0
 2805 021c 00       		.byte	0
 2806 021d 7D       		.byte	0x7d
 2807 021e 0000     		.align 4
 2808 0220 00000000 		.long	0
 2809              	
 2810              	.LLSDATT1141:
 2811              		.text
 2813              		.section	.text._ZN8UnitTest5CheckIbEEbT_,"axG",@progbits,_ZN8UnitTest5CheckIbEEbT_,comdat
 2814              		.weak	_ZN8UnitTest5CheckIbEEbT_
 2816              	_ZN8UnitTest5CheckIbEEbT_:
 2817              	.LFB1169:
 2818              		.file 5 "../Checks.h"
   1:../Checks.h   **** #ifndef UNITTEST_CHECKS_H
   2:../Checks.h   **** #define UNITTEST_CHECKS_H
   3:../Checks.h   **** 
   4:../Checks.h   **** #include "Config.h"
   5:../Checks.h   **** #include "TestResults.h"
   6:../Checks.h   **** #include "MemoryOutStream.h"
   7:../Checks.h   **** 
   8:../Checks.h   **** namespace UnitTest {
   9:../Checks.h   **** 
  10:../Checks.h   **** 
  11:../Checks.h   **** template< typename Value >
  12:../Checks.h   **** bool Check(Value const value)
 2819              		.loc 5 12 0
 2820              		.cfi_startproc
 2821 0000 55       		pushq	%rbp
 2822              		.cfi_def_cfa_offset 16
 2823              		.cfi_offset 6, -16
 2824 0001 4889E5   		movq	%rsp, %rbp
 2825              		.cfi_def_cfa_register 6
 2826 0004 89F8     		movl	%edi, %eax
 2827 0006 8845FC   		movb	%al, -4(%rbp)
  13:../Checks.h   **** {
  14:../Checks.h   ****     return !!value; // doing double negative to avoid silly VS warnings
 2828              		.loc 5 14 0
 2829 0009 0FB645FC 		movzbl	-4(%rbp), %eax
  15:../Checks.h   **** }
 2830              		.loc 5 15 0
 2831 000d 5D       		popq	%rbp
 2832              		.cfi_def_cfa 7, 8
 2833 000e C3       		ret
 2834              		.cfi_endproc
 2835              	.LFE1169:
 2837              		.section	.text._ZN8UnitTest15MemoryOutStreamD1Ev,"axG",@progbits,_ZN8UnitTest15MemoryOutStreamD1Ev
 2838              		.align 2
 2839              		.weak	_ZN8UnitTest15MemoryOutStreamD1Ev
 2841              	_ZN8UnitTest15MemoryOutStreamD1Ev:
 2842              	.LFB1173:
  13:../MemoryOutStream.h **** {
 2843              		.loc 2 13 0
 2844              		.cfi_startproc
 2845              		.cfi_personality 0x9b,DW.ref.__gxx_personality_v0
 2846              		.cfi_lsda 0x1b,.LLSDA1173
 2847 0000 55       		pushq	%rbp
 2848              		.cfi_def_cfa_offset 16
 2849              		.cfi_offset 6, -16
 2850 0001 4889E5   		movq	%rsp, %rbp
 2851              		.cfi_def_cfa_register 6
 2852 0004 53       		pushq	%rbx
 2853 0005 4883EC18 		subq	$24, %rsp
 2854              		.cfi_offset 3, -24
 2855 0009 48897DE8 		movq	%rdi, -24(%rbp)
 2856              	.LBB27:
  13:../MemoryOutStream.h **** {
 2857              		.loc 2 13 0
 2858 000d 488D1500 		leaq	24+_ZTVN8UnitTest15MemoryOutStreamE(%rip), %rdx
 2858      000000
 2859 0014 488B45E8 		movq	-24(%rbp), %rax
 2860 0018 488910   		movq	%rdx, (%rax)
 2861 001b 488B45E8 		movq	-24(%rbp), %rax
 2862 001f 488D9090 		leaq	144(%rax), %rdx
 2862      000000
 2863 0026 488D0500 		leaq	64+_ZTVN8UnitTest15MemoryOutStreamE(%rip), %rax
 2863      000000
 2864 002d 488902   		movq	%rax, (%rdx)
 2865 0030 488B45E8 		movq	-24(%rbp), %rax
 2866 0034 4883C070 		addq	$112, %rax
 2867 0038 4889C7   		movq	%rax, %rdi
 2868              	.LEHB87:
 2869 003b E8000000 		call	_ZNSt7__cxx1112basic_stringIcSt11char_traitsIcESaIcEED1Ev@PLT
 2869      00
 2870              	.LEHE87:
  13:../MemoryOutStream.h **** {
 2871              		.loc 2 13 0 is_stmt 0 discriminator 2
 2872 0040 488B45E8 		movq	-24(%rbp), %rax
 2873 0044 488D1500 		leaq	8+_ZTTN8UnitTest15MemoryOutStreamE(%rip), %rdx
 2873      000000
 2874 004b 4889D6   		movq	%rdx, %rsi
 2875 004e 4889C7   		movq	%rax, %rdi
 2876              	.LEHB88:
 2877 0051 E8000000 		call	_ZNSt7__cxx1119basic_ostringstreamIcSt11char_traitsIcESaIcEED2Ev@PLT
 2877      00
 2878              	.LEHE88:
  13:../MemoryOutStream.h **** {
 2879              		.loc 2 13 0 discriminator 4
 2880 0056 488B45E8 		movq	-24(%rbp), %rax
 2881 005a 48059000 		addq	$144, %rax
 2881      0000
 2882 0060 4889C7   		movq	%rax, %rdi
 2883              	.LEHB89:
 2884 0063 E8000000 		call	_ZNSt9basic_iosIcSt11char_traitsIcEED2Ev@PLT
 2884      00
 2885              	.LEHE89:
 2886              	.LBE27:
 2887 0068 EB3B     		jmp	.L151
 2888              	.L149:
 2889 006a 4889C3   		movq	%rax, %rbx
 2890              	.LBB28:
  13:../MemoryOutStream.h **** {
 2891              		.loc 2 13 0
 2892 006d 488B45E8 		movq	-24(%rbp), %rax
 2893 0071 488D1500 		leaq	8+_ZTTN8UnitTest15MemoryOutStreamE(%rip), %rdx
 2893      000000
 2894 0078 4889D6   		movq	%rdx, %rsi
 2895 007b 4889C7   		movq	%rax, %rdi
 2896 007e E8000000 		call	_ZNSt7__cxx1119basic_ostringstreamIcSt11char_traitsIcESaIcEED2Ev@PLT
 2896      00
 2897 0083 EB03     		jmp	.L148
 2898              	.L150:
 2899 0085 4889C3   		movq	%rax, %rbx
 2900              	.L148:
  13:../MemoryOutStream.h **** {
 2901              		.loc 2 13 0 discriminator 3
 2902 0088 488B45E8 		movq	-24(%rbp), %rax
 2903 008c 48059000 		addq	$144, %rax
 2903      0000
 2904 0092 4889C7   		movq	%rax, %rdi
 2905 0095 E8000000 		call	_ZNSt9basic_iosIcSt11char_traitsIcEED2Ev@PLT
 2905      00
 2906 009a 4889D8   		movq	%rbx, %rax
 2907 009d 4889C7   		movq	%rax, %rdi
 2908              	.LEHB90:
 2909 00a0 E8000000 		call	_Unwind_Resume@PLT
 2909      00
 2910              	.LEHE90:
 2911              	.L151:
 2912              	.LBE28:
  13:../MemoryOutStream.h **** {
 2913              		.loc 2 13 0
 2914 00a5 4883C418 		addq	$24, %rsp
 2915 00a9 5B       		popq	%rbx
 2916 00aa 5D       		popq	%rbp
 2917              		.cfi_def_cfa 7, 8
 2918 00ab C3       		ret
 2919              		.cfi_endproc
 2920              	.LFE1173:
 2921              		.section	.gcc_except_table
 2922              	.LLSDA1173:
 2923 0224 FF       		.byte	0xff
 2924 0225 FF       		.byte	0xff
 2925 0226 01       		.byte	0x1
 2926 0227 12       		.uleb128 .LLSDACSE1173-.LLSDACSB1173
 2927              	.LLSDACSB1173:
 2928 0228 3B       		.uleb128 .LEHB87-.LFB1173
 2929 0229 05       		.uleb128 .LEHE87-.LEHB87
 2930 022a 6A       		.uleb128 .L149-.LFB1173
 2931 022b 00       		.uleb128 0
 2932 022c 51       		.uleb128 .LEHB88-.LFB1173
 2933 022d 05       		.uleb128 .LEHE88-.LEHB88
 2934 022e 8501     		.uleb128 .L150-.LFB1173
 2935 0230 00       		.uleb128 0
 2936 0231 63       		.uleb128 .LEHB89-.LFB1173
 2937 0232 05       		.uleb128 .LEHE89-.LEHB89
 2938 0233 00       		.uleb128 0
 2939 0234 00       		.uleb128 0
 2940 0235 A001     		.uleb128 .LEHB90-.LFB1173
 2941 0237 05       		.uleb128 .LEHE90-.LEHB90
 2942 0238 00       		.uleb128 0
 2943 0239 00       		.uleb128 0
 2944              	.LLSDACSE1173:
 2945              		.section	.text._ZN8UnitTest15MemoryOutStreamD1Ev,"axG",@progbits,_ZN8UnitTest15MemoryOutStreamD1Ev
 2947              		.set	.LTHUNK0,_ZN8UnitTest15MemoryOutStreamD1Ev
 2948              		.weak	_ZTv0_n24_N8UnitTest15MemoryOutStreamD1Ev
 2950              	_ZTv0_n24_N8UnitTest15MemoryOutStreamD1Ev:
 2951              	.LFB1273:
  13:../MemoryOutStream.h **** {
 2952              		.loc 2 13 0 is_stmt 1
 2953              		.cfi_startproc
 2954 00ac 4C8B17   		movq	(%rdi), %r10
 2955 00af 49037AE8 		addq	-24(%r10), %rdi
 2956 00b3 E948FFFF 		jmp	.LTHUNK0
 2956      FF
 2957              		.cfi_endproc
 2958              	.LFE1273:
 2960              		.section	.text._ZN8UnitTest15MemoryOutStreamD0Ev,"axG",@progbits,_ZN8UnitTest15MemoryOutStreamD0Ev
 2961              		.align 2
 2962              		.weak	_ZN8UnitTest15MemoryOutStreamD0Ev
 2964              	_ZN8UnitTest15MemoryOutStreamD0Ev:
 2965              	.LFB1174:
  13:../MemoryOutStream.h **** {
 2966              		.loc 2 13 0
 2967              		.cfi_startproc
 2968              		.cfi_personality 0x9b,DW.ref.__gxx_personality_v0
 2969              		.cfi_lsda 0x1b,.LLSDA1174
 2970 0000 55       		pushq	%rbp
 2971              		.cfi_def_cfa_offset 16
 2972              		.cfi_offset 6, -16
 2973 0001 4889E5   		movq	%rsp, %rbp
 2974              		.cfi_def_cfa_register 6
 2975 0004 53       		pushq	%rbx
 2976 0005 4883EC18 		subq	$24, %rsp
 2977              		.cfi_offset 3, -24
 2978 0009 48897DE8 		movq	%rdi, -24(%rbp)
  13:../MemoryOutStream.h **** {
 2979              		.loc 2 13 0
 2980 000d 488B45E8 		movq	-24(%rbp), %rax
 2981 0011 4889C7   		movq	%rax, %rdi
 2982              	.LEHB91:
 2983 0014 E8000000 		call	_ZN8UnitTest15MemoryOutStreamD1Ev
 2983      00
 2984              	.LEHE91:
  13:../MemoryOutStream.h **** {
 2985              		.loc 2 13 0 is_stmt 0 discriminator 2
 2986 0019 488B45E8 		movq	-24(%rbp), %rax
 2987 001d 4889C7   		movq	%rax, %rdi
 2988 0020 E8000000 		call	_ZdlPv@PLT
 2988      00
 2989 0025 EB1A     		jmp	.L155
 2990              	.L154:
 2991 0027 4889C3   		movq	%rax, %rbx
  13:../MemoryOutStream.h **** {
 2992              		.loc 2 13 0
 2993 002a 488B45E8 		movq	-24(%rbp), %rax
 2994 002e 4889C7   		movq	%rax, %rdi
 2995 0031 E8000000 		call	_ZdlPv@PLT
 2995      00
 2996 0036 4889D8   		movq	%rbx, %rax
 2997 0039 4889C7   		movq	%rax, %rdi
 2998              	.LEHB92:
 2999 003c E8000000 		call	_Unwind_Resume@PLT
 2999      00
 3000              	.LEHE92:
 3001              	.L155:
 3002 0041 4883C418 		addq	$24, %rsp
 3003 0045 5B       		popq	%rbx
 3004 0046 5D       		popq	%rbp
 3005              		.cfi_def_cfa 7, 8
 3006 0047 C3       		ret
 3007              		.cfi_endproc
 3008              	.LFE1174:
 3009              		.section	.gcc_except_table
 3010              	.LLSDA1174:
 3011 023a FF       		.byte	0xff
 3012 023b FF       		.byte	0xff
 3013 023c 01       		.byte	0x1
 3014 023d 08       		.uleb128 .LLSDACSE1174-.LLSDACSB1174
 3015              	.LLSDACSB1174:
 3016 023e 14       		.uleb128 .LEHB91-.LFB1174
 3017 023f 05       		.uleb128 .LEHE91-.LEHB91
 3018 0240 27       		.uleb128 .L154-.LFB1174
 3019 0241 00       		.uleb128 0
 3020 0242 3C       		.uleb128 .LEHB92-.LFB1174
 3021 0243 05       		.uleb128 .LEHE92-.LEHB92
 3022 0244 00       		.uleb128 0
 3023 0245 00       		.uleb128 0
 3024              	.LLSDACSE1174:
 3025              		.section	.text._ZN8UnitTest15MemoryOutStreamD0Ev,"axG",@progbits,_ZN8UnitTest15MemoryOutStreamD0Ev
 3027              		.set	.LTHUNK1,_ZN8UnitTest15MemoryOutStreamD0Ev
 3028              		.weak	_ZTv0_n24_N8UnitTest15MemoryOutStreamD0Ev
 3030              	_ZTv0_n24_N8UnitTest15MemoryOutStreamD0Ev:
 3031              	.LFB1274:
  13:../MemoryOutStream.h **** {
 3032              		.loc 2 13 0 is_stmt 1
 3033              		.cfi_startproc
 3034 0048 4C8B17   		movq	(%rdi), %r10
 3035 004b 49037AE8 		addq	-24(%r10), %rdi
 3036 004f EBAF     		jmp	.LTHUNK1
 3037              		.cfi_endproc
 3038              	.LFE1274:
 3040              		.section	.rodata
 3041              	.LC27:
 3042 0339 45787065 		.string	"Expected "
 3042      63746564 
 3042      2000
 3043              	.LC28:
 3044 0343 20627574 		.string	" but was "
 3044      20776173 
 3044      2000
 3045              		.section	.text._ZN8UnitTest10CheckEqualIiiEEvRNS_11TestResultsERKT_RKT0_RKNS_11TestDetailsE,"axG",
 3046              		.weak	_ZN8UnitTest10CheckEqualIiiEEvRNS_11TestResultsERKT_RKT0_RKNS_11TestDetailsE
 3048              	_ZN8UnitTest10CheckEqualIiiEEvRNS_11TestResultsERKT_RKT0_RKNS_11TestDetailsE:
 3049              	.LFB1170:
  16:../Checks.h   **** 
  17:../Checks.h   **** 
  18:../Checks.h   **** template< typename Expected, typename Actual >
  19:../Checks.h   **** void CheckEqual(TestResults& results, Expected const& expected, Actual const& actual, TestDetails c
 3050              		.loc 5 19 0
 3051              		.cfi_startproc
 3052              		.cfi_personality 0x9b,DW.ref.__gxx_personality_v0
 3053              		.cfi_lsda 0x1b,.LLSDA1170
 3054 0000 55       		pushq	%rbp
 3055              		.cfi_def_cfa_offset 16
 3056              		.cfi_offset 6, -16
 3057 0001 4889E5   		movq	%rsp, %rbp
 3058              		.cfi_def_cfa_register 6
 3059 0004 53       		pushq	%rbx
 3060 0005 4881ECC8 		subq	$456, %rsp
 3060      010000
 3061              		.cfi_offset 3, -24
 3062 000c 4889BD48 		movq	%rdi, -440(%rbp)
 3062      FEFFFF
 3063 0013 4889B540 		movq	%rsi, -448(%rbp)
 3063      FEFFFF
 3064 001a 48899538 		movq	%rdx, -456(%rbp)
 3064      FEFFFF
 3065 0021 48898D30 		movq	%rcx, -464(%rbp)
 3065      FEFFFF
 3066              		.loc 5 19 0
 3067 0028 64488B04 		movq	%fs:40, %rax
 3067      25280000 
 3067      00
 3068 0031 488945E8 		movq	%rax, -24(%rbp)
 3069 0035 31C0     		xorl	%eax, %eax
 3070              	.LBB29:
  20:../Checks.h   **** {
  21:../Checks.h   ****     if (!(expected == actual))
 3071              		.loc 5 21 0
 3072 0037 488B8540 		movq	-448(%rbp), %rax
 3072      FEFFFF
 3073 003e 8B10     		movl	(%rax), %edx
 3074 0040 488B8538 		movq	-456(%rbp), %rax
 3074      FEFFFF
 3075 0047 8B00     		movl	(%rax), %eax
 3076 0049 39C2     		cmpl	%eax, %edx
 3077 004b 0F84B900 		je	.L161
 3077      0000
 3078              	.LBB30:
  22:../Checks.h   ****     {
  23:../Checks.h   ****         UnitTest::MemoryOutStream stream;
 3079              		.loc 5 23 0
 3080 0051 488D8550 		leaq	-432(%rbp), %rax
 3080      FEFFFF
 3081 0058 4889C7   		movq	%rax, %rdi
 3082              	.LEHB93:
 3083 005b E8000000 		call	_ZN8UnitTest15MemoryOutStreamC1Ev
 3083      00
 3084              	.LEHE93:
  24:../Checks.h   ****         stream << "Expected " << expected << " but was " << actual;
 3085              		.loc 5 24 0
 3086 0060 488D8550 		leaq	-432(%rbp), %rax
 3086      FEFFFF
 3087 0067 488D3500 		leaq	.LC27(%rip), %rsi
 3087      000000
 3088 006e 4889C7   		movq	%rax, %rdi
 3089              	.LEHB94:
 3090 0071 E8000000 		call	_ZStlsISt11char_traitsIcEERSt13basic_ostreamIcT_ES5_PKc@PLT
 3090      00
 3091 0076 4889C2   		movq	%rax, %rdx
 3092 0079 488B8540 		movq	-448(%rbp), %rax
 3092      FEFFFF
 3093 0080 8B00     		movl	(%rax), %eax
 3094 0082 89C6     		movl	%eax, %esi
 3095 0084 4889D7   		movq	%rdx, %rdi
 3096 0087 E8000000 		call	_ZNSolsEi@PLT
 3096      00
 3097              		.loc 5 24 0 is_stmt 0 discriminator 1
 3098 008c 488D3500 		leaq	.LC28(%rip), %rsi
 3098      000000
 3099 0093 4889C7   		movq	%rax, %rdi
 3100 0096 E8000000 		call	_ZStlsISt11char_traitsIcEERSt13basic_ostreamIcT_ES5_PKc@PLT
 3100      00
 3101              		.loc 5 24 0 discriminator 2
 3102 009b 4889C2   		movq	%rax, %rdx
 3103 009e 488B8538 		movq	-456(%rbp), %rax
 3103      FEFFFF
 3104 00a5 8B00     		movl	(%rax), %eax
 3105 00a7 89C6     		movl	%eax, %esi
 3106 00a9 4889D7   		movq	%rdx, %rdi
 3107 00ac E8000000 		call	_ZNSolsEi@PLT
 3107      00
  25:../Checks.h   **** 
  26:../Checks.h   ****         results.OnTestFailure(details, stream.GetText());
 3108              		.loc 5 26 0 is_stmt 1
 3109 00b1 488D8550 		leaq	-432(%rbp), %rax
 3109      FEFFFF
 3110 00b8 4889C7   		movq	%rax, %rdi
 3111 00bb E8000000 		call	_ZNK8UnitTest15MemoryOutStream7GetTextEv@PLT
 3111      00
 3112 00c0 4889C2   		movq	%rax, %rdx
 3113 00c3 488B8D30 		movq	-464(%rbp), %rcx
 3113      FEFFFF
 3114 00ca 488B8548 		movq	-440(%rbp), %rax
 3114      FEFFFF
 3115 00d1 4889CE   		movq	%rcx, %rsi
 3116 00d4 4889C7   		movq	%rax, %rdi
 3117 00d7 E8000000 		call	_ZN8UnitTest11TestResults13OnTestFailureERKNS_11TestDetailsEPKc@PLT
 3117      00
 3118              	.LEHE94:
  23:../Checks.h   ****         stream << "Expected " << expected << " but was " << actual;
 3119              		.loc 5 23 0
 3120 00dc 488D8550 		leaq	-432(%rbp), %rax
 3120      FEFFFF
 3121 00e3 4889C7   		movq	%rax, %rdi
 3122              	.LEHB95:
 3123 00e6 E8000000 		call	_ZN8UnitTest15MemoryOutStreamD1Ev
 3123      00
 3124              	.LEHE95:
 3125              	.LBE30:
 3126              	.LBE29:
  27:../Checks.h   ****     }
  28:../Checks.h   **** }
 3127              		.loc 5 28 0
 3128 00eb EB1D     		jmp	.L161
 3129              	.L160:
 3130 00ed 4889C3   		movq	%rax, %rbx
 3131              	.LBB32:
 3132              	.LBB31:
  23:../Checks.h   ****         stream << "Expected " << expected << " but was " << actual;
 3133              		.loc 5 23 0
 3134 00f0 488D8550 		leaq	-432(%rbp), %rax
 3134      FEFFFF
 3135 00f7 4889C7   		movq	%rax, %rdi
 3136 00fa E8000000 		call	_ZN8UnitTest15MemoryOutStreamD1Ev
 3136      00
 3137 00ff 4889D8   		movq	%rbx, %rax
 3138 0102 4889C7   		movq	%rax, %rdi
 3139              	.LEHB96:
 3140 0105 E8000000 		call	_Unwind_Resume@PLT
 3140      00
 3141              	.LEHE96:
 3142              	.L161:
 3143              	.LBE31:
 3144              	.LBE32:
 3145              		.loc 5 28 0
 3146 010a 90       		nop
 3147 010b 488B45E8 		movq	-24(%rbp), %rax
 3148 010f 64483304 		xorq	%fs:40, %rax
 3148      25280000 
 3148      00
 3149 0118 7405     		je	.L159
 3150 011a E8000000 		call	__stack_chk_fail@PLT
 3150      00
 3151              	.L159:
 3152 011f 4881C4C8 		addq	$456, %rsp
 3152      010000
 3153 0126 5B       		popq	%rbx
 3154 0127 5D       		popq	%rbp
 3155              		.cfi_def_cfa 7, 8
 3156 0128 C3       		ret
 3157              		.cfi_endproc
 3158              	.LFE1170:
 3159              		.section	.gcc_except_table
 3160              	.LLSDA1170:
 3161 0246 FF       		.byte	0xff
 3162 0247 FF       		.byte	0xff
 3163 0248 01       		.byte	0x1
 3164 0249 13       		.uleb128 .LLSDACSE1170-.LLSDACSB1170
 3165              	.LLSDACSB1170:
 3166 024a 5B       		.uleb128 .LEHB93-.LFB1170
 3167 024b 05       		.uleb128 .LEHE93-.LEHB93
 3168 024c 00       		.uleb128 0
 3169 024d 00       		.uleb128 0
 3170 024e 71       		.uleb128 .LEHB94-.LFB1170
 3171 024f 6B       		.uleb128 .LEHE94-.LEHB94
 3172 0250 ED01     		.uleb128 .L160-.LFB1170
 3173 0252 00       		.uleb128 0
 3174 0253 E601     		.uleb128 .LEHB95-.LFB1170
 3175 0255 05       		.uleb128 .LEHE95-.LEHB95
 3176 0256 00       		.uleb128 0
 3177 0257 00       		.uleb128 0
 3178 0258 8502     		.uleb128 .LEHB96-.LFB1170
 3179 025a 05       		.uleb128 .LEHE96-.LEHB96
 3180 025b 00       		.uleb128 0
 3181 025c 00       		.uleb128 0
 3182              	.LLSDACSE1170:
 3183              		.section	.text._ZN8UnitTest10CheckEqualIiiEEvRNS_11TestResultsERKT_RKT0_RKNS_11TestDetailsE,"axG",
 3185              		.section	.data.rel.ro.local,"aw",@progbits
 3186              		.align 8
 3189              	_ZTVN12_GLOBAL__N_136TestOutOfCoreCHECKMacrosCanFailTestsE:
 3190 0000 00000000 		.quad	0
 3190      00000000 
 3191 0008 00000000 		.quad	_ZTIN12_GLOBAL__N_136TestOutOfCoreCHECKMacrosCanFailTestsE
 3191      00000000 
 3192 0010 00000000 		.quad	_ZN12_GLOBAL__N_136TestOutOfCoreCHECKMacrosCanFailTestsD1Ev
 3192      00000000 
 3193 0018 00000000 		.quad	_ZN12_GLOBAL__N_136TestOutOfCoreCHECKMacrosCanFailTestsD0Ev
 3193      00000000 
 3194 0020 00000000 		.quad	_ZNK12_GLOBAL__N_136TestOutOfCoreCHECKMacrosCanFailTests7RunImplEv
 3194      00000000 
 3195              		.text
 3196 10ed 90       		.align 2
 3198              	_ZN12_GLOBAL__N_136TestOutOfCoreCHECKMacrosCanFailTestsD2Ev:
 3199              	.LFB1228:
 121:TestTest.cpp  **** {
 3200              		.loc 4 121 0
 3201              		.cfi_startproc
 3202 10ee 55       		pushq	%rbp
 3203              		.cfi_def_cfa_offset 16
 3204              		.cfi_offset 6, -16
 3205 10ef 4889E5   		movq	%rsp, %rbp
 3206              		.cfi_def_cfa_register 6
 3207 10f2 4883EC10 		subq	$16, %rsp
 3208 10f6 48897DF8 		movq	%rdi, -8(%rbp)
 3209              	.LBB33:
 121:TestTest.cpp  **** {
 3210              		.loc 4 121 0
 3211 10fa 488D1500 		leaq	16+_ZTVN12_GLOBAL__N_136TestOutOfCoreCHECKMacrosCanFailTestsE(%rip), %rdx
 3211      000000
 3212 1101 488B45F8 		movq	-8(%rbp), %rax
 3213 1105 488910   		movq	%rdx, (%rax)
 3214 1108 488B45F8 		movq	-8(%rbp), %rax
 3215 110c 4889C7   		movq	%rax, %rdi
 3216 110f E8000000 		call	_ZN8UnitTest4TestD2Ev@PLT
 3216      00
 3217              	.LBE33:
 3218 1114 90       		nop
 3219 1115 C9       		leave
 3220              		.cfi_def_cfa 7, 8
 3221 1116 C3       		ret
 3222              		.cfi_endproc
 3223              	.LFE1228:
 3225              		.set	_ZN12_GLOBAL__N_136TestOutOfCoreCHECKMacrosCanFailTestsD1Ev,_ZN12_GLOBAL__N_136TestOutOfCoreC
 3226 1117 90       		.align 2
 3228              	_ZN12_GLOBAL__N_136TestOutOfCoreCHECKMacrosCanFailTestsD0Ev:
 3229              	.LFB1230:
 121:TestTest.cpp  **** {
 3230              		.loc 4 121 0
 3231              		.cfi_startproc
 3232              		.cfi_personality 0x9b,DW.ref.__gxx_personality_v0
 3233              		.cfi_lsda 0x1b,.LLSDA1230
 3234 1118 55       		pushq	%rbp
 3235              		.cfi_def_cfa_offset 16
 3236              		.cfi_offset 6, -16
 3237 1119 4889E5   		movq	%rsp, %rbp
 3238              		.cfi_def_cfa_register 6
 3239 111c 53       		pushq	%rbx
 3240 111d 4883EC18 		subq	$24, %rsp
 3241              		.cfi_offset 3, -24
 3242 1121 48897DE8 		movq	%rdi, -24(%rbp)
 121:TestTest.cpp  **** {
 3243              		.loc 4 121 0
 3244 1125 488B45E8 		movq	-24(%rbp), %rax
 3245 1129 4889C7   		movq	%rax, %rdi
 3246              	.LEHB97:
 3247 112c E8BDFFFF 		call	_ZN12_GLOBAL__N_136TestOutOfCoreCHECKMacrosCanFailTestsD1Ev
 3247      FF
 3248              	.LEHE97:
 121:TestTest.cpp  **** {
 3249              		.loc 4 121 0 is_stmt 0 discriminator 2
 3250 1131 488B45E8 		movq	-24(%rbp), %rax
 3251 1135 4889C7   		movq	%rax, %rdi
 3252 1138 E8000000 		call	_ZdlPv@PLT
 3252      00
 3253 113d EB1A     		jmp	.L166
 3254              	.L165:
 3255 113f 4889C3   		movq	%rax, %rbx
 121:TestTest.cpp  **** {
 3256              		.loc 4 121 0
 3257 1142 488B45E8 		movq	-24(%rbp), %rax
 3258 1146 4889C7   		movq	%rax, %rdi
 3259 1149 E8000000 		call	_ZdlPv@PLT
 3259      00
 3260 114e 4889D8   		movq	%rbx, %rax
 3261 1151 4889C7   		movq	%rax, %rdi
 3262              	.LEHB98:
 3263 1154 E8000000 		call	_Unwind_Resume@PLT
 3263      00
 3264              	.LEHE98:
 3265              	.L166:
 3266 1159 4883C418 		addq	$24, %rsp
 3267 115d 5B       		popq	%rbx
 3268 115e 5D       		popq	%rbp
 3269              		.cfi_def_cfa 7, 8
 3270 115f C3       		ret
 3271              		.cfi_endproc
 3272              	.LFE1230:
 3273              		.section	.gcc_except_table
 3274              	.LLSDA1230:
 3275 025d FF       		.byte	0xff
 3276 025e FF       		.byte	0xff
 3277 025f 01       		.byte	0x1
 3278 0260 08       		.uleb128 .LLSDACSE1230-.LLSDACSB1230
 3279              	.LLSDACSB1230:
 3280 0261 14       		.uleb128 .LEHB97-.LFB1230
 3281 0262 05       		.uleb128 .LEHE97-.LEHB97
 3282 0263 27       		.uleb128 .L165-.LFB1230
 3283 0264 00       		.uleb128 0
 3284 0265 3C       		.uleb128 .LEHB98-.LFB1230
 3285 0266 05       		.uleb128 .LEHE98-.LEHB98
 3286 0267 00       		.uleb128 0
 3287 0268 00       		.uleb128 0
 3288              	.LLSDACSE1230:
 3289              		.text
 3291              		.section	.data.rel.ro.local
 3292              		.align 8
 3295              	_ZTVN12_GLOBAL__N_134TestTestReflectsSpecifiedSuiteNameE:
 3296 0028 00000000 		.quad	0
 3296      00000000 
 3297 0030 00000000 		.quad	_ZTIN12_GLOBAL__N_134TestTestReflectsSpecifiedSuiteNameE
 3297      00000000 
 3298 0038 00000000 		.quad	_ZN12_GLOBAL__N_134TestTestReflectsSpecifiedSuiteNameD1Ev
 3298      00000000 
 3299 0040 00000000 		.quad	_ZN12_GLOBAL__N_134TestTestReflectsSpecifiedSuiteNameD0Ev
 3299      00000000 
 3300 0048 00000000 		.quad	_ZNK12_GLOBAL__N_134TestTestReflectsSpecifiedSuiteName7RunImplEv
 3300      00000000 
 3301              		.text
 3302              		.align 2
 3304              	_ZN12_GLOBAL__N_134TestTestReflectsSpecifiedSuiteNameD2Ev:
 3305              	.LFB1232:
 109:TestTest.cpp  **** {
 3306              		.loc 4 109 0 is_stmt 1
 3307              		.cfi_startproc
 3308 1160 55       		pushq	%rbp
 3309              		.cfi_def_cfa_offset 16
 3310              		.cfi_offset 6, -16
 3311 1161 4889E5   		movq	%rsp, %rbp
 3312              		.cfi_def_cfa_register 6
 3313 1164 4883EC10 		subq	$16, %rsp
 3314 1168 48897DF8 		movq	%rdi, -8(%rbp)
 3315              	.LBB34:
 109:TestTest.cpp  **** {
 3316              		.loc 4 109 0
 3317 116c 488D1500 		leaq	16+_ZTVN12_GLOBAL__N_134TestTestReflectsSpecifiedSuiteNameE(%rip), %rdx
 3317      000000
 3318 1173 488B45F8 		movq	-8(%rbp), %rax
 3319 1177 488910   		movq	%rdx, (%rax)
 3320 117a 488B45F8 		movq	-8(%rbp), %rax
 3321 117e 4889C7   		movq	%rax, %rdi
 3322 1181 E8000000 		call	_ZN8UnitTest4TestD2Ev@PLT
 3322      00
 3323              	.LBE34:
 3324 1186 90       		nop
 3325 1187 C9       		leave
 3326              		.cfi_def_cfa 7, 8
 3327 1188 C3       		ret
 3328              		.cfi_endproc
 3329              	.LFE1232:
 3331              		.set	_ZN12_GLOBAL__N_134TestTestReflectsSpecifiedSuiteNameD1Ev,_ZN12_GLOBAL__N_134TestTestReflects
 3332 1189 90       		.align 2
 3334              	_ZN12_GLOBAL__N_134TestTestReflectsSpecifiedSuiteNameD0Ev:
 3335              	.LFB1234:
 109:TestTest.cpp  **** {
 3336              		.loc 4 109 0
 3337              		.cfi_startproc
 3338              		.cfi_personality 0x9b,DW.ref.__gxx_personality_v0
 3339              		.cfi_lsda 0x1b,.LLSDA1234
 3340 118a 55       		pushq	%rbp
 3341              		.cfi_def_cfa_offset 16
 3342              		.cfi_offset 6, -16
 3343 118b 4889E5   		movq	%rsp, %rbp
 3344              		.cfi_def_cfa_register 6
 3345 118e 53       		pushq	%rbx
 3346 118f 4883EC18 		subq	$24, %rsp
 3347              		.cfi_offset 3, -24
 3348 1193 48897DE8 		movq	%rdi, -24(%rbp)
 109:TestTest.cpp  **** {
 3349              		.loc 4 109 0
 3350 1197 488B45E8 		movq	-24(%rbp), %rax
 3351 119b 4889C7   		movq	%rax, %rdi
 3352              	.LEHB99:
 3353 119e E8BDFFFF 		call	_ZN12_GLOBAL__N_134TestTestReflectsSpecifiedSuiteNameD1Ev
 3353      FF
 3354              	.LEHE99:
 109:TestTest.cpp  **** {
 3355              		.loc 4 109 0 is_stmt 0 discriminator 2
 3356 11a3 488B45E8 		movq	-24(%rbp), %rax
 3357 11a7 4889C7   		movq	%rax, %rdi
 3358 11aa E8000000 		call	_ZdlPv@PLT
 3358      00
 3359 11af EB1A     		jmp	.L171
 3360              	.L170:
 3361 11b1 4889C3   		movq	%rax, %rbx
 109:TestTest.cpp  **** {
 3362              		.loc 4 109 0
 3363 11b4 488B45E8 		movq	-24(%rbp), %rax
 3364 11b8 4889C7   		movq	%rax, %rdi
 3365 11bb E8000000 		call	_ZdlPv@PLT
 3365      00
 3366 11c0 4889D8   		movq	%rbx, %rax
 3367 11c3 4889C7   		movq	%rax, %rdi
 3368              	.LEHB100:
 3369 11c6 E8000000 		call	_Unwind_Resume@PLT
 3369      00
 3370              	.LEHE100:
 3371              	.L171:
 3372 11cb 4883C418 		addq	$24, %rsp
 3373 11cf 5B       		popq	%rbx
 3374 11d0 5D       		popq	%rbp
 3375              		.cfi_def_cfa 7, 8
 3376 11d1 C3       		ret
 3377              		.cfi_endproc
 3378              	.LFE1234:
 3379              		.section	.gcc_except_table
 3380              	.LLSDA1234:
 3381 0269 FF       		.byte	0xff
 3382 026a FF       		.byte	0xff
 3383 026b 01       		.byte	0x1
 3384 026c 08       		.uleb128 .LLSDACSE1234-.LLSDACSB1234
 3385              	.LLSDACSB1234:
 3386 026d 14       		.uleb128 .LEHB99-.LFB1234
 3387 026e 05       		.uleb128 .LEHE99-.LEHB99
 3388 026f 27       		.uleb128 .L170-.LFB1234
 3389 0270 00       		.uleb128 0
 3390 0271 3C       		.uleb128 .LEHB100-.LFB1234
 3391 0272 05       		.uleb128 .LEHE100-.LEHB100
 3392 0273 00       		.uleb128 0
 3393 0274 00       		.uleb128 0
 3394              	.LLSDACSE1234:
 3395              		.text
 3397              		.section	.data.rel.ro.local
 3398              		.align 8
 3401              	_ZTVN12_GLOBAL__N_144TestTestWithUnspecifiedSuiteGetsDefaultSuiteE:
 3402 0050 00000000 		.quad	0
 3402      00000000 
 3403 0058 00000000 		.quad	_ZTIN12_GLOBAL__N_144TestTestWithUnspecifiedSuiteGetsDefaultSuiteE
 3403      00000000 
 3404 0060 00000000 		.quad	_ZN12_GLOBAL__N_144TestTestWithUnspecifiedSuiteGetsDefaultSuiteD1Ev
 3404      00000000 
 3405 0068 00000000 		.quad	_ZN12_GLOBAL__N_144TestTestWithUnspecifiedSuiteGetsDefaultSuiteD0Ev
 3405      00000000 
 3406 0070 00000000 		.quad	_ZNK12_GLOBAL__N_144TestTestWithUnspecifiedSuiteGetsDefaultSuite7RunImplEv
 3406      00000000 
 3407              		.text
 3408              		.align 2
 3410              	_ZN12_GLOBAL__N_144TestTestWithUnspecifiedSuiteGetsDefaultSuiteD2Ev:
 3411              	.LFB1236:
 102:TestTest.cpp  **** {
 3412              		.loc 4 102 0 is_stmt 1
 3413              		.cfi_startproc
 3414 11d2 55       		pushq	%rbp
 3415              		.cfi_def_cfa_offset 16
 3416              		.cfi_offset 6, -16
 3417 11d3 4889E5   		movq	%rsp, %rbp
 3418              		.cfi_def_cfa_register 6
 3419 11d6 4883EC10 		subq	$16, %rsp
 3420 11da 48897DF8 		movq	%rdi, -8(%rbp)
 3421              	.LBB35:
 102:TestTest.cpp  **** {
 3422              		.loc 4 102 0
 3423 11de 488D1500 		leaq	16+_ZTVN12_GLOBAL__N_144TestTestWithUnspecifiedSuiteGetsDefaultSuiteE(%rip), %rdx
 3423      000000
 3424 11e5 488B45F8 		movq	-8(%rbp), %rax
 3425 11e9 488910   		movq	%rdx, (%rax)
 3426 11ec 488B45F8 		movq	-8(%rbp), %rax
 3427 11f0 4889C7   		movq	%rax, %rdi
 3428 11f3 E8000000 		call	_ZN8UnitTest4TestD2Ev@PLT
 3428      00
 3429              	.LBE35:
 3430 11f8 90       		nop
 3431 11f9 C9       		leave
 3432              		.cfi_def_cfa 7, 8
 3433 11fa C3       		ret
 3434              		.cfi_endproc
 3435              	.LFE1236:
 3437              		.set	_ZN12_GLOBAL__N_144TestTestWithUnspecifiedSuiteGetsDefaultSuiteD1Ev,_ZN12_GLOBAL__N_144TestTe
 3438 11fb 90       		.align 2
 3440              	_ZN12_GLOBAL__N_144TestTestWithUnspecifiedSuiteGetsDefaultSuiteD0Ev:
 3441              	.LFB1238:
 102:TestTest.cpp  **** {
 3442              		.loc 4 102 0
 3443              		.cfi_startproc
 3444              		.cfi_personality 0x9b,DW.ref.__gxx_personality_v0
 3445              		.cfi_lsda 0x1b,.LLSDA1238
 3446 11fc 55       		pushq	%rbp
 3447              		.cfi_def_cfa_offset 16
 3448              		.cfi_offset 6, -16
 3449 11fd 4889E5   		movq	%rsp, %rbp
 3450              		.cfi_def_cfa_register 6
 3451 1200 53       		pushq	%rbx
 3452 1201 4883EC18 		subq	$24, %rsp
 3453              		.cfi_offset 3, -24
 3454 1205 48897DE8 		movq	%rdi, -24(%rbp)
 102:TestTest.cpp  **** {
 3455              		.loc 4 102 0
 3456 1209 488B45E8 		movq	-24(%rbp), %rax
 3457 120d 4889C7   		movq	%rax, %rdi
 3458              	.LEHB101:
 3459 1210 E8BDFFFF 		call	_ZN12_GLOBAL__N_144TestTestWithUnspecifiedSuiteGetsDefaultSuiteD1Ev
 3459      FF
 3460              	.LEHE101:
 102:TestTest.cpp  **** {
 3461              		.loc 4 102 0 is_stmt 0 discriminator 2
 3462 1215 488B45E8 		movq	-24(%rbp), %rax
 3463 1219 4889C7   		movq	%rax, %rdi
 3464 121c E8000000 		call	_ZdlPv@PLT
 3464      00
 3465 1221 EB1A     		jmp	.L176
 3466              	.L175:
 3467 1223 4889C3   		movq	%rax, %rbx
 102:TestTest.cpp  **** {
 3468              		.loc 4 102 0
 3469 1226 488B45E8 		movq	-24(%rbp), %rax
 3470 122a 4889C7   		movq	%rax, %rdi
 3471 122d E8000000 		call	_ZdlPv@PLT
 3471      00
 3472 1232 4889D8   		movq	%rbx, %rax
 3473 1235 4889C7   		movq	%rax, %rdi
 3474              	.LEHB102:
 3475 1238 E8000000 		call	_Unwind_Resume@PLT
 3475      00
 3476              	.LEHE102:
 3477              	.L176:
 3478 123d 4883C418 		addq	$24, %rsp
 3479 1241 5B       		popq	%rbx
 3480 1242 5D       		popq	%rbp
 3481              		.cfi_def_cfa 7, 8
 3482 1243 C3       		ret
 3483              		.cfi_endproc
 3484              	.LFE1238:
 3485              		.section	.gcc_except_table
 3486              	.LLSDA1238:
 3487 0275 FF       		.byte	0xff
 3488 0276 FF       		.byte	0xff
 3489 0277 01       		.byte	0x1
 3490 0278 08       		.uleb128 .LLSDACSE1238-.LLSDACSB1238
 3491              	.LLSDACSB1238:
 3492 0279 14       		.uleb128 .LEHB101-.LFB1238
 3493 027a 05       		.uleb128 .LEHE101-.LEHB101
 3494 027b 27       		.uleb128 .L175-.LFB1238
 3495 027c 00       		.uleb128 0
 3496 027d 3C       		.uleb128 .LEHB102-.LFB1238
 3497 027e 05       		.uleb128 .LEHE102-.LEHB102
 3498 027f 00       		.uleb128 0
 3499 0280 00       		.uleb128 0
 3500              	.LLSDACSE1238:
 3501              		.text
 3503              		.section	.data.rel.ro.local
 3504              		.align 8
 3507              	_ZTVN12_GLOBAL__N_138TestCrashingTestsAreReportedAsFailuresE:
 3508 0078 00000000 		.quad	0
 3508      00000000 
 3509 0080 00000000 		.quad	_ZTIN12_GLOBAL__N_138TestCrashingTestsAreReportedAsFailuresE
 3509      00000000 
 3510 0088 00000000 		.quad	_ZN12_GLOBAL__N_138TestCrashingTestsAreReportedAsFailuresD1Ev
 3510      00000000 
 3511 0090 00000000 		.quad	_ZN12_GLOBAL__N_138TestCrashingTestsAreReportedAsFailuresD0Ev
 3511      00000000 
 3512 0098 00000000 		.quad	_ZNK12_GLOBAL__N_138TestCrashingTestsAreReportedAsFailures7RunImplEv
 3512      00000000 
 3513              		.text
 3514              		.align 2
 3516              	_ZN12_GLOBAL__N_138TestCrashingTestsAreReportedAsFailuresD2Ev:
 3517              	.LFB1240:
  77:TestTest.cpp  **** {
 3518              		.loc 4 77 0 is_stmt 1
 3519              		.cfi_startproc
 3520 1244 55       		pushq	%rbp
 3521              		.cfi_def_cfa_offset 16
 3522              		.cfi_offset 6, -16
 3523 1245 4889E5   		movq	%rsp, %rbp
 3524              		.cfi_def_cfa_register 6
 3525 1248 4883EC10 		subq	$16, %rsp
 3526 124c 48897DF8 		movq	%rdi, -8(%rbp)
 3527              	.LBB36:
  77:TestTest.cpp  **** {
 3528              		.loc 4 77 0
 3529 1250 488D1500 		leaq	16+_ZTVN12_GLOBAL__N_138TestCrashingTestsAreReportedAsFailuresE(%rip), %rdx
 3529      000000
 3530 1257 488B45F8 		movq	-8(%rbp), %rax
 3531 125b 488910   		movq	%rdx, (%rax)
 3532 125e 488B45F8 		movq	-8(%rbp), %rax
 3533 1262 4889C7   		movq	%rax, %rdi
 3534 1265 E8000000 		call	_ZN8UnitTest4TestD2Ev@PLT
 3534      00
 3535              	.LBE36:
 3536 126a 90       		nop
 3537 126b C9       		leave
 3538              		.cfi_def_cfa 7, 8
 3539 126c C3       		ret
 3540              		.cfi_endproc
 3541              	.LFE1240:
 3543              		.set	_ZN12_GLOBAL__N_138TestCrashingTestsAreReportedAsFailuresD1Ev,_ZN12_GLOBAL__N_138TestCrashing
 3544 126d 90       		.align 2
 3546              	_ZN12_GLOBAL__N_138TestCrashingTestsAreReportedAsFailuresD0Ev:
 3547              	.LFB1242:
  77:TestTest.cpp  **** {
 3548              		.loc 4 77 0
 3549              		.cfi_startproc
 3550              		.cfi_personality 0x9b,DW.ref.__gxx_personality_v0
 3551              		.cfi_lsda 0x1b,.LLSDA1242
 3552 126e 55       		pushq	%rbp
 3553              		.cfi_def_cfa_offset 16
 3554              		.cfi_offset 6, -16
 3555 126f 4889E5   		movq	%rsp, %rbp
 3556              		.cfi_def_cfa_register 6
 3557 1272 53       		pushq	%rbx
 3558 1273 4883EC18 		subq	$24, %rsp
 3559              		.cfi_offset 3, -24
 3560 1277 48897DE8 		movq	%rdi, -24(%rbp)
  77:TestTest.cpp  **** {
 3561              		.loc 4 77 0
 3562 127b 488B45E8 		movq	-24(%rbp), %rax
 3563 127f 4889C7   		movq	%rax, %rdi
 3564              	.LEHB103:
 3565 1282 E8BDFFFF 		call	_ZN12_GLOBAL__N_138TestCrashingTestsAreReportedAsFailuresD1Ev
 3565      FF
 3566              	.LEHE103:
  77:TestTest.cpp  **** {
 3567              		.loc 4 77 0 is_stmt 0 discriminator 2
 3568 1287 488B45E8 		movq	-24(%rbp), %rax
 3569 128b 4889C7   		movq	%rax, %rdi
 3570 128e E8000000 		call	_ZdlPv@PLT
 3570      00
 3571 1293 EB1A     		jmp	.L181
 3572              	.L180:
 3573 1295 4889C3   		movq	%rax, %rbx
  77:TestTest.cpp  **** {
 3574              		.loc 4 77 0
 3575 1298 488B45E8 		movq	-24(%rbp), %rax
 3576 129c 4889C7   		movq	%rax, %rdi
 3577 129f E8000000 		call	_ZdlPv@PLT
 3577      00
 3578 12a4 4889D8   		movq	%rbx, %rax
 3579 12a7 4889C7   		movq	%rax, %rdi
 3580              	.LEHB104:
 3581 12aa E8000000 		call	_Unwind_Resume@PLT
 3581      00
 3582              	.LEHE104:
 3583              	.L181:
 3584 12af 4883C418 		addq	$24, %rsp
 3585 12b3 5B       		popq	%rbx
 3586 12b4 5D       		popq	%rbp
 3587              		.cfi_def_cfa 7, 8
 3588 12b5 C3       		ret
 3589              		.cfi_endproc
 3590              	.LFE1242:
 3591              		.section	.gcc_except_table
 3592              	.LLSDA1242:
 3593 0281 FF       		.byte	0xff
 3594 0282 FF       		.byte	0xff
 3595 0283 01       		.byte	0x1
 3596 0284 08       		.uleb128 .LLSDACSE1242-.LLSDACSB1242
 3597              	.LLSDACSB1242:
 3598 0285 14       		.uleb128 .LEHB103-.LFB1242
 3599 0286 05       		.uleb128 .LEHE103-.LEHB103
 3600 0287 27       		.uleb128 .L180-.LFB1242
 3601 0288 00       		.uleb128 0
 3602 0289 3C       		.uleb128 .LEHB104-.LFB1242
 3603 028a 05       		.uleb128 .LEHE104-.LEHB104
 3604 028b 00       		.uleb128 0
 3605 028c 00       		.uleb128 0
 3606              	.LLSDACSE1242:
 3607              		.text
 3609              		.section	.data.rel.ro.local
 3610              		.align 8
 3613              	_ZTVZNK12_GLOBAL__N_138TestCrashingTestsAreReportedAsFailures7RunImplEvE12CrashingTest:
 3614 00a0 00000000 		.quad	0
 3614      00000000 
 3615 00a8 00000000 		.quad	_ZTIZNK12_GLOBAL__N_138TestCrashingTestsAreReportedAsFailures7RunImplEvE12CrashingTest
 3615      00000000 
 3616 00b0 00000000 		.quad	_ZZNK12_GLOBAL__N_138TestCrashingTestsAreReportedAsFailures7RunImplEvEN12CrashingTestD1Ev
 3616      00000000 
 3617 00b8 00000000 		.quad	_ZZNK12_GLOBAL__N_138TestCrashingTestsAreReportedAsFailures7RunImplEvEN12CrashingTestD0Ev
 3617      00000000 
 3618 00c0 00000000 		.quad	_ZZNK12_GLOBAL__N_138TestCrashingTestsAreReportedAsFailures7RunImplEvENK12CrashingTest7RunIm
 3618      00000000 
 3619              		.text
 3620              		.align 2
 3622              	_ZZNK12_GLOBAL__N_138TestCrashingTestsAreReportedAsFailures7RunImplEvEN12CrashingTestD2Ev:
 3623              	.LFB1244:
  79:TestTest.cpp  ****     {
 3624              		.loc 4 79 0 is_stmt 1
 3625              		.cfi_startproc
 3626 12b6 55       		pushq	%rbp
 3627              		.cfi_def_cfa_offset 16
 3628              		.cfi_offset 6, -16
 3629 12b7 4889E5   		movq	%rsp, %rbp
 3630              		.cfi_def_cfa_register 6
 3631 12ba 4883EC10 		subq	$16, %rsp
 3632 12be 48897DF8 		movq	%rdi, -8(%rbp)
 3633              	.LBB37:
  79:TestTest.cpp  ****     {
 3634              		.loc 4 79 0
 3635 12c2 488D1500 		leaq	16+_ZTVZNK12_GLOBAL__N_138TestCrashingTestsAreReportedAsFailures7RunImplEvE12CrashingTest(%ri
 3635      000000
 3636 12c9 488B45F8 		movq	-8(%rbp), %rax
 3637 12cd 488910   		movq	%rdx, (%rax)
 3638 12d0 488B45F8 		movq	-8(%rbp), %rax
 3639 12d4 4889C7   		movq	%rax, %rdi
 3640 12d7 E8000000 		call	_ZN8UnitTest4TestD2Ev@PLT
 3640      00
 3641              	.LBE37:
 3642 12dc 90       		nop
 3643 12dd C9       		leave
 3644              		.cfi_def_cfa 7, 8
 3645 12de C3       		ret
 3646              		.cfi_endproc
 3647              	.LFE1244:
 3649              		.set	_ZZNK12_GLOBAL__N_138TestCrashingTestsAreReportedAsFailures7RunImplEvEN12CrashingTestD1Ev,_ZZ
 3650 12df 90       		.align 2
 3652              	_ZZNK12_GLOBAL__N_138TestCrashingTestsAreReportedAsFailures7RunImplEvEN12CrashingTestD0Ev:
 3653              	.LFB1246:
  79:TestTest.cpp  ****     {
 3654              		.loc 4 79 0
 3655              		.cfi_startproc
 3656              		.cfi_personality 0x9b,DW.ref.__gxx_personality_v0
 3657              		.cfi_lsda 0x1b,.LLSDA1246
 3658 12e0 55       		pushq	%rbp
 3659              		.cfi_def_cfa_offset 16
 3660              		.cfi_offset 6, -16
 3661 12e1 4889E5   		movq	%rsp, %rbp
 3662              		.cfi_def_cfa_register 6
 3663 12e4 53       		pushq	%rbx
 3664 12e5 4883EC18 		subq	$24, %rsp
 3665              		.cfi_offset 3, -24
 3666 12e9 48897DE8 		movq	%rdi, -24(%rbp)
  79:TestTest.cpp  ****     {
 3667              		.loc 4 79 0
 3668 12ed 488B45E8 		movq	-24(%rbp), %rax
 3669 12f1 4889C7   		movq	%rax, %rdi
 3670              	.LEHB105:
 3671 12f4 E8BDFFFF 		call	_ZZNK12_GLOBAL__N_138TestCrashingTestsAreReportedAsFailures7RunImplEvEN12CrashingTestD1Ev
 3671      FF
 3672              	.LEHE105:
  79:TestTest.cpp  ****     {
 3673              		.loc 4 79 0 is_stmt 0 discriminator 2
 3674 12f9 488B45E8 		movq	-24(%rbp), %rax
 3675 12fd 4889C7   		movq	%rax, %rdi
 3676 1300 E8000000 		call	_ZdlPv@PLT
 3676      00
 3677 1305 EB1A     		jmp	.L186
 3678              	.L185:
 3679 1307 4889C3   		movq	%rax, %rbx
  79:TestTest.cpp  ****     {
 3680              		.loc 4 79 0
 3681 130a 488B45E8 		movq	-24(%rbp), %rax
 3682 130e 4889C7   		movq	%rax, %rdi
 3683 1311 E8000000 		call	_ZdlPv@PLT
 3683      00
 3684 1316 4889D8   		movq	%rbx, %rax
 3685 1319 4889C7   		movq	%rax, %rdi
 3686              	.LEHB106:
 3687 131c E8000000 		call	_Unwind_Resume@PLT
 3687      00
 3688              	.LEHE106:
 3689              	.L186:
 3690 1321 4883C418 		addq	$24, %rsp
 3691 1325 5B       		popq	%rbx
 3692 1326 5D       		popq	%rbp
 3693              		.cfi_def_cfa 7, 8
 3694 1327 C3       		ret
 3695              		.cfi_endproc
 3696              	.LFE1246:
 3697              		.section	.gcc_except_table
 3698              	.LLSDA1246:
 3699 028d FF       		.byte	0xff
 3700 028e FF       		.byte	0xff
 3701 028f 01       		.byte	0x1
 3702 0290 08       		.uleb128 .LLSDACSE1246-.LLSDACSB1246
 3703              	.LLSDACSB1246:
 3704 0291 14       		.uleb128 .LEHB105-.LFB1246
 3705 0292 05       		.uleb128 .LEHE105-.LEHB105
 3706 0293 27       		.uleb128 .L185-.LFB1246
 3707 0294 00       		.uleb128 0
 3708 0295 3C       		.uleb128 .LEHB106-.LFB1246
 3709 0296 05       		.uleb128 .LEHE106-.LEHB106
 3710 0297 00       		.uleb128 0
 3711 0298 00       		.uleb128 0
 3712              	.LLSDACSE1246:
 3713              		.text
 3715              		.section	.data.rel.ro.local
 3716              		.align 8
 3719              	_ZTVN12_GLOBAL__N_138TestThrowingTestsAreReportedAsFailuresE:
 3720 00c8 00000000 		.quad	0
 3720      00000000 
 3721 00d0 00000000 		.quad	_ZTIN12_GLOBAL__N_138TestThrowingTestsAreReportedAsFailuresE
 3721      00000000 
 3722 00d8 00000000 		.quad	_ZN12_GLOBAL__N_138TestThrowingTestsAreReportedAsFailuresD1Ev
 3722      00000000 
 3723 00e0 00000000 		.quad	_ZN12_GLOBAL__N_138TestThrowingTestsAreReportedAsFailuresD0Ev
 3723      00000000 
 3724 00e8 00000000 		.quad	_ZNK12_GLOBAL__N_138TestThrowingTestsAreReportedAsFailures7RunImplEv
 3724      00000000 
 3725              		.text
 3726              		.align 2
 3728              	_ZN12_GLOBAL__N_138TestThrowingTestsAreReportedAsFailuresD2Ev:
 3729              	.LFB1248:
  54:TestTest.cpp  **** {
 3730              		.loc 4 54 0 is_stmt 1
 3731              		.cfi_startproc
 3732 1328 55       		pushq	%rbp
 3733              		.cfi_def_cfa_offset 16
 3734              		.cfi_offset 6, -16
 3735 1329 4889E5   		movq	%rsp, %rbp
 3736              		.cfi_def_cfa_register 6
 3737 132c 4883EC10 		subq	$16, %rsp
 3738 1330 48897DF8 		movq	%rdi, -8(%rbp)
 3739              	.LBB38:
  54:TestTest.cpp  **** {
 3740              		.loc 4 54 0
 3741 1334 488D1500 		leaq	16+_ZTVN12_GLOBAL__N_138TestThrowingTestsAreReportedAsFailuresE(%rip), %rdx
 3741      000000
 3742 133b 488B45F8 		movq	-8(%rbp), %rax
 3743 133f 488910   		movq	%rdx, (%rax)
 3744 1342 488B45F8 		movq	-8(%rbp), %rax
 3745 1346 4889C7   		movq	%rax, %rdi
 3746 1349 E8000000 		call	_ZN8UnitTest4TestD2Ev@PLT
 3746      00
 3747              	.LBE38:
 3748 134e 90       		nop
 3749 134f C9       		leave
 3750              		.cfi_def_cfa 7, 8
 3751 1350 C3       		ret
 3752              		.cfi_endproc
 3753              	.LFE1248:
 3755              		.set	_ZN12_GLOBAL__N_138TestThrowingTestsAreReportedAsFailuresD1Ev,_ZN12_GLOBAL__N_138TestThrowing
 3756 1351 90       		.align 2
 3758              	_ZN12_GLOBAL__N_138TestThrowingTestsAreReportedAsFailuresD0Ev:
 3759              	.LFB1250:
  54:TestTest.cpp  **** {
 3760              		.loc 4 54 0
 3761              		.cfi_startproc
 3762              		.cfi_personality 0x9b,DW.ref.__gxx_personality_v0
 3763              		.cfi_lsda 0x1b,.LLSDA1250
 3764 1352 55       		pushq	%rbp
 3765              		.cfi_def_cfa_offset 16
 3766              		.cfi_offset 6, -16
 3767 1353 4889E5   		movq	%rsp, %rbp
 3768              		.cfi_def_cfa_register 6
 3769 1356 53       		pushq	%rbx
 3770 1357 4883EC18 		subq	$24, %rsp
 3771              		.cfi_offset 3, -24
 3772 135b 48897DE8 		movq	%rdi, -24(%rbp)
  54:TestTest.cpp  **** {
 3773              		.loc 4 54 0
 3774 135f 488B45E8 		movq	-24(%rbp), %rax
 3775 1363 4889C7   		movq	%rax, %rdi
 3776              	.LEHB107:
 3777 1366 E8BDFFFF 		call	_ZN12_GLOBAL__N_138TestThrowingTestsAreReportedAsFailuresD1Ev
 3777      FF
 3778              	.LEHE107:
  54:TestTest.cpp  **** {
 3779              		.loc 4 54 0 is_stmt 0 discriminator 2
 3780 136b 488B45E8 		movq	-24(%rbp), %rax
 3781 136f 4889C7   		movq	%rax, %rdi
 3782 1372 E8000000 		call	_ZdlPv@PLT
 3782      00
 3783 1377 EB1A     		jmp	.L191
 3784              	.L190:
 3785 1379 4889C3   		movq	%rax, %rbx
  54:TestTest.cpp  **** {
 3786              		.loc 4 54 0
 3787 137c 488B45E8 		movq	-24(%rbp), %rax
 3788 1380 4889C7   		movq	%rax, %rdi
 3789 1383 E8000000 		call	_ZdlPv@PLT
 3789      00
 3790 1388 4889D8   		movq	%rbx, %rax
 3791 138b 4889C7   		movq	%rax, %rdi
 3792              	.LEHB108:
 3793 138e E8000000 		call	_Unwind_Resume@PLT
 3793      00
 3794              	.LEHE108:
 3795              	.L191:
 3796 1393 4883C418 		addq	$24, %rsp
 3797 1397 5B       		popq	%rbx
 3798 1398 5D       		popq	%rbp
 3799              		.cfi_def_cfa 7, 8
 3800 1399 C3       		ret
 3801              		.cfi_endproc
 3802              	.LFE1250:
 3803              		.section	.gcc_except_table
 3804              	.LLSDA1250:
 3805 0299 FF       		.byte	0xff
 3806 029a FF       		.byte	0xff
 3807 029b 01       		.byte	0x1
 3808 029c 08       		.uleb128 .LLSDACSE1250-.LLSDACSB1250
 3809              	.LLSDACSB1250:
 3810 029d 14       		.uleb128 .LEHB107-.LFB1250
 3811 029e 05       		.uleb128 .LEHE107-.LEHB107
 3812 029f 27       		.uleb128 .L190-.LFB1250
 3813 02a0 00       		.uleb128 0
 3814 02a1 3C       		.uleb128 .LEHB108-.LFB1250
 3815 02a2 05       		.uleb128 .LEHE108-.LEHB108
 3816 02a3 00       		.uleb128 0
 3817 02a4 00       		.uleb128 0
 3818              	.LLSDACSE1250:
 3819              		.text
 3821              		.section	.data.rel.ro.local
 3822              		.align 8
 3825              	_ZTVZNK12_GLOBAL__N_138TestThrowingTestsAreReportedAsFailures7RunImplEvE12CrashingTest:
 3826 00f0 00000000 		.quad	0
 3826      00000000 
 3827 00f8 00000000 		.quad	_ZTIZNK12_GLOBAL__N_138TestThrowingTestsAreReportedAsFailures7RunImplEvE12CrashingTest
 3827      00000000 
 3828 0100 00000000 		.quad	_ZZNK12_GLOBAL__N_138TestThrowingTestsAreReportedAsFailures7RunImplEvEN12CrashingTestD1Ev
 3828      00000000 
 3829 0108 00000000 		.quad	_ZZNK12_GLOBAL__N_138TestThrowingTestsAreReportedAsFailures7RunImplEvEN12CrashingTestD0Ev
 3829      00000000 
 3830 0110 00000000 		.quad	_ZZNK12_GLOBAL__N_138TestThrowingTestsAreReportedAsFailures7RunImplEvENK12CrashingTest7RunIm
 3830      00000000 
 3831              		.text
 3832              		.align 2
 3834              	_ZZNK12_GLOBAL__N_138TestThrowingTestsAreReportedAsFailures7RunImplEvEN12CrashingTestD2Ev:
 3835              	.LFB1252:
  56:TestTest.cpp  ****     {
 3836              		.loc 4 56 0 is_stmt 1
 3837              		.cfi_startproc
 3838 139a 55       		pushq	%rbp
 3839              		.cfi_def_cfa_offset 16
 3840              		.cfi_offset 6, -16
 3841 139b 4889E5   		movq	%rsp, %rbp
 3842              		.cfi_def_cfa_register 6
 3843 139e 4883EC10 		subq	$16, %rsp
 3844 13a2 48897DF8 		movq	%rdi, -8(%rbp)
 3845              	.LBB39:
  56:TestTest.cpp  ****     {
 3846              		.loc 4 56 0
 3847 13a6 488D1500 		leaq	16+_ZTVZNK12_GLOBAL__N_138TestThrowingTestsAreReportedAsFailures7RunImplEvE12CrashingTest(%ri
 3847      000000
 3848 13ad 488B45F8 		movq	-8(%rbp), %rax
 3849 13b1 488910   		movq	%rdx, (%rax)
 3850 13b4 488B45F8 		movq	-8(%rbp), %rax
 3851 13b8 4889C7   		movq	%rax, %rdi
 3852 13bb E8000000 		call	_ZN8UnitTest4TestD2Ev@PLT
 3852      00
 3853              	.LBE39:
 3854 13c0 90       		nop
 3855 13c1 C9       		leave
 3856              		.cfi_def_cfa 7, 8
 3857 13c2 C3       		ret
 3858              		.cfi_endproc
 3859              	.LFE1252:
 3861              		.set	_ZZNK12_GLOBAL__N_138TestThrowingTestsAreReportedAsFailures7RunImplEvEN12CrashingTestD1Ev,_ZZ
 3862 13c3 90       		.align 2
 3864              	_ZZNK12_GLOBAL__N_138TestThrowingTestsAreReportedAsFailures7RunImplEvEN12CrashingTestD0Ev:
 3865              	.LFB1254:
  56:TestTest.cpp  ****     {
 3866              		.loc 4 56 0
 3867              		.cfi_startproc
 3868              		.cfi_personality 0x9b,DW.ref.__gxx_personality_v0
 3869              		.cfi_lsda 0x1b,.LLSDA1254
 3870 13c4 55       		pushq	%rbp
 3871              		.cfi_def_cfa_offset 16
 3872              		.cfi_offset 6, -16
 3873 13c5 4889E5   		movq	%rsp, %rbp
 3874              		.cfi_def_cfa_register 6
 3875 13c8 53       		pushq	%rbx
 3876 13c9 4883EC18 		subq	$24, %rsp
 3877              		.cfi_offset 3, -24
 3878 13cd 48897DE8 		movq	%rdi, -24(%rbp)
  56:TestTest.cpp  ****     {
 3879              		.loc 4 56 0
 3880 13d1 488B45E8 		movq	-24(%rbp), %rax
 3881 13d5 4889C7   		movq	%rax, %rdi
 3882              	.LEHB109:
 3883 13d8 E8BDFFFF 		call	_ZZNK12_GLOBAL__N_138TestThrowingTestsAreReportedAsFailures7RunImplEvEN12CrashingTestD1Ev
 3883      FF
 3884              	.LEHE109:
  56:TestTest.cpp  ****     {
 3885              		.loc 4 56 0 is_stmt 0 discriminator 2
 3886 13dd 488B45E8 		movq	-24(%rbp), %rax
 3887 13e1 4889C7   		movq	%rax, %rdi
 3888 13e4 E8000000 		call	_ZdlPv@PLT
 3888      00
 3889 13e9 EB1A     		jmp	.L196
 3890              	.L195:
 3891 13eb 4889C3   		movq	%rax, %rbx
  56:TestTest.cpp  ****     {
 3892              		.loc 4 56 0
 3893 13ee 488B45E8 		movq	-24(%rbp), %rax
 3894 13f2 4889C7   		movq	%rax, %rdi
 3895 13f5 E8000000 		call	_ZdlPv@PLT
 3895      00
 3896 13fa 4889D8   		movq	%rbx, %rax
 3897 13fd 4889C7   		movq	%rax, %rdi
 3898              	.LEHB110:
 3899 1400 E8000000 		call	_Unwind_Resume@PLT
 3899      00
 3900              	.LEHE110:
 3901              	.L196:
 3902 1405 4883C418 		addq	$24, %rsp
 3903 1409 5B       		popq	%rbx
 3904 140a 5D       		popq	%rbp
 3905              		.cfi_def_cfa 7, 8
 3906 140b C3       		ret
 3907              		.cfi_endproc
 3908              	.LFE1254:
 3909              		.section	.gcc_except_table
 3910              	.LLSDA1254:
 3911 02a5 FF       		.byte	0xff
 3912 02a6 FF       		.byte	0xff
 3913 02a7 01       		.byte	0x1
 3914 02a8 08       		.uleb128 .LLSDACSE1254-.LLSDACSB1254
 3915              	.LLSDACSB1254:
 3916 02a9 14       		.uleb128 .LEHB109-.LFB1254
 3917 02aa 05       		.uleb128 .LEHE109-.LEHB109
 3918 02ab 27       		.uleb128 .L195-.LFB1254
 3919 02ac 00       		.uleb128 0
 3920 02ad 3C       		.uleb128 .LEHB110-.LFB1254
 3921 02ae 05       		.uleb128 .LEHE110-.LEHB110
 3922 02af 00       		.uleb128 0
 3923 02b0 00       		.uleb128 0
 3924              	.LLSDACSE1254:
 3925              		.text
 3927              		.section	.data.rel.ro.local
 3928              		.align 8
 3931              	_ZTVN12_GLOBAL__N_126TestFailingTestHasFailuresE:
 3932 0118 00000000 		.quad	0
 3932      00000000 
 3933 0120 00000000 		.quad	_ZTIN12_GLOBAL__N_126TestFailingTestHasFailuresE
 3933      00000000 
 3934 0128 00000000 		.quad	_ZN12_GLOBAL__N_126TestFailingTestHasFailuresD1Ev
 3934      00000000 
 3935 0130 00000000 		.quad	_ZN12_GLOBAL__N_126TestFailingTestHasFailuresD0Ev
 3935      00000000 
 3936 0138 00000000 		.quad	_ZNK12_GLOBAL__N_126TestFailingTestHasFailures7RunImplEv
 3936      00000000 
 3937              		.text
 3938              		.align 2
 3940              	_ZN12_GLOBAL__N_126TestFailingTestHasFailuresD2Ev:
 3941              	.LFB1256:
  32:TestTest.cpp  **** {
 3942              		.loc 4 32 0 is_stmt 1
 3943              		.cfi_startproc
 3944 140c 55       		pushq	%rbp
 3945              		.cfi_def_cfa_offset 16
 3946              		.cfi_offset 6, -16
 3947 140d 4889E5   		movq	%rsp, %rbp
 3948              		.cfi_def_cfa_register 6
 3949 1410 4883EC10 		subq	$16, %rsp
 3950 1414 48897DF8 		movq	%rdi, -8(%rbp)
 3951              	.LBB40:
  32:TestTest.cpp  **** {
 3952              		.loc 4 32 0
 3953 1418 488D1500 		leaq	16+_ZTVN12_GLOBAL__N_126TestFailingTestHasFailuresE(%rip), %rdx
 3953      000000
 3954 141f 488B45F8 		movq	-8(%rbp), %rax
 3955 1423 488910   		movq	%rdx, (%rax)
 3956 1426 488B45F8 		movq	-8(%rbp), %rax
 3957 142a 4889C7   		movq	%rax, %rdi
 3958 142d E8000000 		call	_ZN8UnitTest4TestD2Ev@PLT
 3958      00
 3959              	.LBE40:
 3960 1432 90       		nop
 3961 1433 C9       		leave
 3962              		.cfi_def_cfa 7, 8
 3963 1434 C3       		ret
 3964              		.cfi_endproc
 3965              	.LFE1256:
 3967              		.set	_ZN12_GLOBAL__N_126TestFailingTestHasFailuresD1Ev,_ZN12_GLOBAL__N_126TestFailingTestHasFailur
 3968 1435 90       		.align 2
 3970              	_ZN12_GLOBAL__N_126TestFailingTestHasFailuresD0Ev:
 3971              	.LFB1258:
  32:TestTest.cpp  **** {
 3972              		.loc 4 32 0
 3973              		.cfi_startproc
 3974              		.cfi_personality 0x9b,DW.ref.__gxx_personality_v0
 3975              		.cfi_lsda 0x1b,.LLSDA1258
 3976 1436 55       		pushq	%rbp
 3977              		.cfi_def_cfa_offset 16
 3978              		.cfi_offset 6, -16
 3979 1437 4889E5   		movq	%rsp, %rbp
 3980              		.cfi_def_cfa_register 6
 3981 143a 53       		pushq	%rbx
 3982 143b 4883EC18 		subq	$24, %rsp
 3983              		.cfi_offset 3, -24
 3984 143f 48897DE8 		movq	%rdi, -24(%rbp)
  32:TestTest.cpp  **** {
 3985              		.loc 4 32 0
 3986 1443 488B45E8 		movq	-24(%rbp), %rax
 3987 1447 4889C7   		movq	%rax, %rdi
 3988              	.LEHB111:
 3989 144a E8BDFFFF 		call	_ZN12_GLOBAL__N_126TestFailingTestHasFailuresD1Ev
 3989      FF
 3990              	.LEHE111:
  32:TestTest.cpp  **** {
 3991              		.loc 4 32 0 is_stmt 0 discriminator 2
 3992 144f 488B45E8 		movq	-24(%rbp), %rax
 3993 1453 4889C7   		movq	%rax, %rdi
 3994 1456 E8000000 		call	_ZdlPv@PLT
 3994      00
 3995 145b EB1A     		jmp	.L201
 3996              	.L200:
 3997 145d 4889C3   		movq	%rax, %rbx
  32:TestTest.cpp  **** {
 3998              		.loc 4 32 0
 3999 1460 488B45E8 		movq	-24(%rbp), %rax
 4000 1464 4889C7   		movq	%rax, %rdi
 4001 1467 E8000000 		call	_ZdlPv@PLT
 4001      00
 4002 146c 4889D8   		movq	%rbx, %rax
 4003 146f 4889C7   		movq	%rax, %rdi
 4004              	.LEHB112:
 4005 1472 E8000000 		call	_Unwind_Resume@PLT
 4005      00
 4006              	.LEHE112:
 4007              	.L201:
 4008 1477 4883C418 		addq	$24, %rsp
 4009 147b 5B       		popq	%rbx
 4010 147c 5D       		popq	%rbp
 4011              		.cfi_def_cfa 7, 8
 4012 147d C3       		ret
 4013              		.cfi_endproc
 4014              	.LFE1258:
 4015              		.section	.gcc_except_table
 4016              	.LLSDA1258:
 4017 02b1 FF       		.byte	0xff
 4018 02b2 FF       		.byte	0xff
 4019 02b3 01       		.byte	0x1
 4020 02b4 08       		.uleb128 .LLSDACSE1258-.LLSDACSB1258
 4021              	.LLSDACSB1258:
 4022 02b5 14       		.uleb128 .LEHB111-.LFB1258
 4023 02b6 05       		.uleb128 .LEHE111-.LEHB111
 4024 02b7 27       		.uleb128 .L200-.LFB1258
 4025 02b8 00       		.uleb128 0
 4026 02b9 3C       		.uleb128 .LEHB112-.LFB1258
 4027 02ba 05       		.uleb128 .LEHE112-.LEHB112
 4028 02bb 00       		.uleb128 0
 4029 02bc 00       		.uleb128 0
 4030              	.LLSDACSE1258:
 4031              		.text
 4033              		.section	.data.rel.ro.local
 4034              		.align 8
 4037              	_ZTVZNK12_GLOBAL__N_126TestFailingTestHasFailures7RunImplEvE11FailingTest:
 4038 0140 00000000 		.quad	0
 4038      00000000 
 4039 0148 00000000 		.quad	_ZTIZNK12_GLOBAL__N_126TestFailingTestHasFailures7RunImplEvE11FailingTest
 4039      00000000 
 4040 0150 00000000 		.quad	_ZZNK12_GLOBAL__N_126TestFailingTestHasFailures7RunImplEvEN11FailingTestD1Ev
 4040      00000000 
 4041 0158 00000000 		.quad	_ZZNK12_GLOBAL__N_126TestFailingTestHasFailures7RunImplEvEN11FailingTestD0Ev
 4041      00000000 
 4042 0160 00000000 		.quad	_ZZNK12_GLOBAL__N_126TestFailingTestHasFailures7RunImplEvENK11FailingTest7RunImplEv
 4042      00000000 
 4043              		.text
 4044              		.align 2
 4046              	_ZZNK12_GLOBAL__N_126TestFailingTestHasFailures7RunImplEvEN11FailingTestD2Ev:
 4047              	.LFB1260:
  34:TestTest.cpp  ****     {
 4048              		.loc 4 34 0 is_stmt 1
 4049              		.cfi_startproc
 4050 147e 55       		pushq	%rbp
 4051              		.cfi_def_cfa_offset 16
 4052              		.cfi_offset 6, -16
 4053 147f 4889E5   		movq	%rsp, %rbp
 4054              		.cfi_def_cfa_register 6
 4055 1482 4883EC10 		subq	$16, %rsp
 4056 1486 48897DF8 		movq	%rdi, -8(%rbp)
 4057              	.LBB41:
  34:TestTest.cpp  ****     {
 4058              		.loc 4 34 0
 4059 148a 488D1500 		leaq	16+_ZTVZNK12_GLOBAL__N_126TestFailingTestHasFailures7RunImplEvE11FailingTest(%rip), %rdx
 4059      000000
 4060 1491 488B45F8 		movq	-8(%rbp), %rax
 4061 1495 488910   		movq	%rdx, (%rax)
 4062 1498 488B45F8 		movq	-8(%rbp), %rax
 4063 149c 4889C7   		movq	%rax, %rdi
 4064 149f E8000000 		call	_ZN8UnitTest4TestD2Ev@PLT
 4064      00
 4065              	.LBE41:
 4066 14a4 90       		nop
 4067 14a5 C9       		leave
 4068              		.cfi_def_cfa 7, 8
 4069 14a6 C3       		ret
 4070              		.cfi_endproc
 4071              	.LFE1260:
 4073              		.set	_ZZNK12_GLOBAL__N_126TestFailingTestHasFailures7RunImplEvEN11FailingTestD1Ev,_ZZNK12_GLOBAL__
 4074 14a7 90       		.align 2
 4076              	_ZZNK12_GLOBAL__N_126TestFailingTestHasFailures7RunImplEvEN11FailingTestD0Ev:
 4077              	.LFB1262:
  34:TestTest.cpp  ****     {
 4078              		.loc 4 34 0
 4079              		.cfi_startproc
 4080              		.cfi_personality 0x9b,DW.ref.__gxx_personality_v0
 4081              		.cfi_lsda 0x1b,.LLSDA1262
 4082 14a8 55       		pushq	%rbp
 4083              		.cfi_def_cfa_offset 16
 4084              		.cfi_offset 6, -16
 4085 14a9 4889E5   		movq	%rsp, %rbp
 4086              		.cfi_def_cfa_register 6
 4087 14ac 53       		pushq	%rbx
 4088 14ad 4883EC18 		subq	$24, %rsp
 4089              		.cfi_offset 3, -24
 4090 14b1 48897DE8 		movq	%rdi, -24(%rbp)
  34:TestTest.cpp  ****     {
 4091              		.loc 4 34 0
 4092 14b5 488B45E8 		movq	-24(%rbp), %rax
 4093 14b9 4889C7   		movq	%rax, %rdi
 4094              	.LEHB113:
 4095 14bc E8BDFFFF 		call	_ZZNK12_GLOBAL__N_126TestFailingTestHasFailures7RunImplEvEN11FailingTestD1Ev
 4095      FF
 4096              	.LEHE113:
  34:TestTest.cpp  ****     {
 4097              		.loc 4 34 0 is_stmt 0 discriminator 2
 4098 14c1 488B45E8 		movq	-24(%rbp), %rax
 4099 14c5 4889C7   		movq	%rax, %rdi
 4100 14c8 E8000000 		call	_ZdlPv@PLT
 4100      00
 4101 14cd EB1A     		jmp	.L206
 4102              	.L205:
 4103 14cf 4889C3   		movq	%rax, %rbx
  34:TestTest.cpp  ****     {
 4104              		.loc 4 34 0
 4105 14d2 488B45E8 		movq	-24(%rbp), %rax
 4106 14d6 4889C7   		movq	%rax, %rdi
 4107 14d9 E8000000 		call	_ZdlPv@PLT
 4107      00
 4108 14de 4889D8   		movq	%rbx, %rax
 4109 14e1 4889C7   		movq	%rax, %rdi
 4110              	.LEHB114:
 4111 14e4 E8000000 		call	_Unwind_Resume@PLT
 4111      00
 4112              	.LEHE114:
 4113              	.L206:
 4114 14e9 4883C418 		addq	$24, %rsp
 4115 14ed 5B       		popq	%rbx
 4116 14ee 5D       		popq	%rbp
 4117              		.cfi_def_cfa 7, 8
 4118 14ef C3       		ret
 4119              		.cfi_endproc
 4120              	.LFE1262:
 4121              		.section	.gcc_except_table
 4122              	.LLSDA1262:
 4123 02bd FF       		.byte	0xff
 4124 02be FF       		.byte	0xff
 4125 02bf 01       		.byte	0x1
 4126 02c0 08       		.uleb128 .LLSDACSE1262-.LLSDACSB1262
 4127              	.LLSDACSB1262:
 4128 02c1 14       		.uleb128 .LEHB113-.LFB1262
 4129 02c2 05       		.uleb128 .LEHE113-.LEHB113
 4130 02c3 27       		.uleb128 .L205-.LFB1262
 4131 02c4 00       		.uleb128 0
 4132 02c5 3C       		.uleb128 .LEHB114-.LFB1262
 4133 02c6 05       		.uleb128 .LEHE114-.LEHB114
 4134 02c7 00       		.uleb128 0
 4135 02c8 00       		.uleb128 0
 4136              	.LLSDACSE1262:
 4137              		.text
 4139              		.section	.data.rel.ro.local
 4140              		.align 8
 4143              	_ZTVN12_GLOBAL__N_128TestPassingTestHasNoFailuresE:
 4144 0168 00000000 		.quad	0
 4144      00000000 
 4145 0170 00000000 		.quad	_ZTIN12_GLOBAL__N_128TestPassingTestHasNoFailuresE
 4145      00000000 
 4146 0178 00000000 		.quad	_ZN12_GLOBAL__N_128TestPassingTestHasNoFailuresD1Ev
 4146      00000000 
 4147 0180 00000000 		.quad	_ZN12_GLOBAL__N_128TestPassingTestHasNoFailuresD0Ev
 4147      00000000 
 4148 0188 00000000 		.quad	_ZNK12_GLOBAL__N_128TestPassingTestHasNoFailures7RunImplEv
 4148      00000000 
 4149              		.text
 4150              		.align 2
 4152              	_ZN12_GLOBAL__N_128TestPassingTestHasNoFailuresD2Ev:
 4153              	.LFB1264:
  10:TestTest.cpp  **** {
 4154              		.loc 4 10 0 is_stmt 1
 4155              		.cfi_startproc
 4156 14f0 55       		pushq	%rbp
 4157              		.cfi_def_cfa_offset 16
 4158              		.cfi_offset 6, -16
 4159 14f1 4889E5   		movq	%rsp, %rbp
 4160              		.cfi_def_cfa_register 6
 4161 14f4 4883EC10 		subq	$16, %rsp
 4162 14f8 48897DF8 		movq	%rdi, -8(%rbp)
 4163              	.LBB42:
  10:TestTest.cpp  **** {
 4164              		.loc 4 10 0
 4165 14fc 488D1500 		leaq	16+_ZTVN12_GLOBAL__N_128TestPassingTestHasNoFailuresE(%rip), %rdx
 4165      000000
 4166 1503 488B45F8 		movq	-8(%rbp), %rax
 4167 1507 488910   		movq	%rdx, (%rax)
 4168 150a 488B45F8 		movq	-8(%rbp), %rax
 4169 150e 4889C7   		movq	%rax, %rdi
 4170 1511 E8000000 		call	_ZN8UnitTest4TestD2Ev@PLT
 4170      00
 4171              	.LBE42:
 4172 1516 90       		nop
 4173 1517 C9       		leave
 4174              		.cfi_def_cfa 7, 8
 4175 1518 C3       		ret
 4176              		.cfi_endproc
 4177              	.LFE1264:
 4179              		.set	_ZN12_GLOBAL__N_128TestPassingTestHasNoFailuresD1Ev,_ZN12_GLOBAL__N_128TestPassingTestHasNoFa
 4180 1519 90       		.align 2
 4182              	_ZN12_GLOBAL__N_128TestPassingTestHasNoFailuresD0Ev:
 4183              	.LFB1266:
  10:TestTest.cpp  **** {
 4184              		.loc 4 10 0
 4185              		.cfi_startproc
 4186              		.cfi_personality 0x9b,DW.ref.__gxx_personality_v0
 4187              		.cfi_lsda 0x1b,.LLSDA1266
 4188 151a 55       		pushq	%rbp
 4189              		.cfi_def_cfa_offset 16
 4190              		.cfi_offset 6, -16
 4191 151b 4889E5   		movq	%rsp, %rbp
 4192              		.cfi_def_cfa_register 6
 4193 151e 53       		pushq	%rbx
 4194 151f 4883EC18 		subq	$24, %rsp
 4195              		.cfi_offset 3, -24
 4196 1523 48897DE8 		movq	%rdi, -24(%rbp)
  10:TestTest.cpp  **** {
 4197              		.loc 4 10 0
 4198 1527 488B45E8 		movq	-24(%rbp), %rax
 4199 152b 4889C7   		movq	%rax, %rdi
 4200              	.LEHB115:
 4201 152e E8BDFFFF 		call	_ZN12_GLOBAL__N_128TestPassingTestHasNoFailuresD1Ev
 4201      FF
 4202              	.LEHE115:
  10:TestTest.cpp  **** {
 4203              		.loc 4 10 0 is_stmt 0 discriminator 2
 4204 1533 488B45E8 		movq	-24(%rbp), %rax
 4205 1537 4889C7   		movq	%rax, %rdi
 4206 153a E8000000 		call	_ZdlPv@PLT
 4206      00
 4207 153f EB1A     		jmp	.L211
 4208              	.L210:
 4209 1541 4889C3   		movq	%rax, %rbx
  10:TestTest.cpp  **** {
 4210              		.loc 4 10 0
 4211 1544 488B45E8 		movq	-24(%rbp), %rax
 4212 1548 4889C7   		movq	%rax, %rdi
 4213 154b E8000000 		call	_ZdlPv@PLT
 4213      00
 4214 1550 4889D8   		movq	%rbx, %rax
 4215 1553 4889C7   		movq	%rax, %rdi
 4216              	.LEHB116:
 4217 1556 E8000000 		call	_Unwind_Resume@PLT
 4217      00
 4218              	.LEHE116:
 4219              	.L211:
 4220 155b 4883C418 		addq	$24, %rsp
 4221 155f 5B       		popq	%rbx
 4222 1560 5D       		popq	%rbp
 4223              		.cfi_def_cfa 7, 8
 4224 1561 C3       		ret
 4225              		.cfi_endproc
 4226              	.LFE1266:
 4227              		.section	.gcc_except_table
 4228              	.LLSDA1266:
 4229 02c9 FF       		.byte	0xff
 4230 02ca FF       		.byte	0xff
 4231 02cb 01       		.byte	0x1
 4232 02cc 08       		.uleb128 .LLSDACSE1266-.LLSDACSB1266
 4233              	.LLSDACSB1266:
 4234 02cd 14       		.uleb128 .LEHB115-.LFB1266
 4235 02ce 05       		.uleb128 .LEHE115-.LEHB115
 4236 02cf 27       		.uleb128 .L210-.LFB1266
 4237 02d0 00       		.uleb128 0
 4238 02d1 3C       		.uleb128 .LEHB116-.LFB1266
 4239 02d2 05       		.uleb128 .LEHE116-.LEHB116
 4240 02d3 00       		.uleb128 0
 4241 02d4 00       		.uleb128 0
 4242              	.LLSDACSE1266:
 4243              		.text
 4245              		.section	.data.rel.ro.local
 4246              		.align 8
 4249              	_ZTVZNK12_GLOBAL__N_128TestPassingTestHasNoFailures7RunImplEvE11PassingTest:
 4250 0190 00000000 		.quad	0
 4250      00000000 
 4251 0198 00000000 		.quad	_ZTIZNK12_GLOBAL__N_128TestPassingTestHasNoFailures7RunImplEvE11PassingTest
 4251      00000000 
 4252 01a0 00000000 		.quad	_ZZNK12_GLOBAL__N_128TestPassingTestHasNoFailures7RunImplEvEN11PassingTestD1Ev
 4252      00000000 
 4253 01a8 00000000 		.quad	_ZZNK12_GLOBAL__N_128TestPassingTestHasNoFailures7RunImplEvEN11PassingTestD0Ev
 4253      00000000 
 4254 01b0 00000000 		.quad	_ZZNK12_GLOBAL__N_128TestPassingTestHasNoFailures7RunImplEvENK11PassingTest7RunImplEv
 4254      00000000 
 4255              		.text
 4256              		.align 2
 4258              	_ZZNK12_GLOBAL__N_128TestPassingTestHasNoFailures7RunImplEvEN11PassingTestD2Ev:
 4259              	.LFB1268:
  12:TestTest.cpp  ****     {
 4260              		.loc 4 12 0 is_stmt 1
 4261              		.cfi_startproc
 4262 1562 55       		pushq	%rbp
 4263              		.cfi_def_cfa_offset 16
 4264              		.cfi_offset 6, -16
 4265 1563 4889E5   		movq	%rsp, %rbp
 4266              		.cfi_def_cfa_register 6
 4267 1566 4883EC10 		subq	$16, %rsp
 4268 156a 48897DF8 		movq	%rdi, -8(%rbp)
 4269              	.LBB43:
  12:TestTest.cpp  ****     {
 4270              		.loc 4 12 0
 4271 156e 488D1500 		leaq	16+_ZTVZNK12_GLOBAL__N_128TestPassingTestHasNoFailures7RunImplEvE11PassingTest(%rip), %rdx
 4271      000000
 4272 1575 488B45F8 		movq	-8(%rbp), %rax
 4273 1579 488910   		movq	%rdx, (%rax)
 4274 157c 488B45F8 		movq	-8(%rbp), %rax
 4275 1580 4889C7   		movq	%rax, %rdi
 4276 1583 E8000000 		call	_ZN8UnitTest4TestD2Ev@PLT
 4276      00
 4277              	.LBE43:
 4278 1588 90       		nop
 4279 1589 C9       		leave
 4280              		.cfi_def_cfa 7, 8
 4281 158a C3       		ret
 4282              		.cfi_endproc
 4283              	.LFE1268:
 4285              		.set	_ZZNK12_GLOBAL__N_128TestPassingTestHasNoFailures7RunImplEvEN11PassingTestD1Ev,_ZZNK12_GLOBAL
 4286 158b 90       		.align 2
 4288              	_ZZNK12_GLOBAL__N_128TestPassingTestHasNoFailures7RunImplEvEN11PassingTestD0Ev:
 4289              	.LFB1270:
  12:TestTest.cpp  ****     {
 4290              		.loc 4 12 0
 4291              		.cfi_startproc
 4292              		.cfi_personality 0x9b,DW.ref.__gxx_personality_v0
 4293              		.cfi_lsda 0x1b,.LLSDA1270
 4294 158c 55       		pushq	%rbp
 4295              		.cfi_def_cfa_offset 16
 4296              		.cfi_offset 6, -16
 4297 158d 4889E5   		movq	%rsp, %rbp
 4298              		.cfi_def_cfa_register 6
 4299 1590 53       		pushq	%rbx
 4300 1591 4883EC18 		subq	$24, %rsp
 4301              		.cfi_offset 3, -24
 4302 1595 48897DE8 		movq	%rdi, -24(%rbp)
  12:TestTest.cpp  ****     {
 4303              		.loc 4 12 0
 4304 1599 488B45E8 		movq	-24(%rbp), %rax
 4305 159d 4889C7   		movq	%rax, %rdi
 4306              	.LEHB117:
 4307 15a0 E8BDFFFF 		call	_ZZNK12_GLOBAL__N_128TestPassingTestHasNoFailures7RunImplEvEN11PassingTestD1Ev
 4307      FF
 4308              	.LEHE117:
  12:TestTest.cpp  ****     {
 4309              		.loc 4 12 0 is_stmt 0 discriminator 2
 4310 15a5 488B45E8 		movq	-24(%rbp), %rax
 4311 15a9 4889C7   		movq	%rax, %rdi
 4312 15ac E8000000 		call	_ZdlPv@PLT
 4312      00
 4313 15b1 EB1A     		jmp	.L216
 4314              	.L215:
 4315 15b3 4889C3   		movq	%rax, %rbx
  12:TestTest.cpp  ****     {
 4316              		.loc 4 12 0
 4317 15b6 488B45E8 		movq	-24(%rbp), %rax
 4318 15ba 4889C7   		movq	%rax, %rdi
 4319 15bd E8000000 		call	_ZdlPv@PLT
 4319      00
 4320 15c2 4889D8   		movq	%rbx, %rax
 4321 15c5 4889C7   		movq	%rax, %rdi
 4322              	.LEHB118:
 4323 15c8 E8000000 		call	_Unwind_Resume@PLT
 4323      00
 4324              	.LEHE118:
 4325              	.L216:
 4326 15cd 4883C418 		addq	$24, %rsp
 4327 15d1 5B       		popq	%rbx
 4328 15d2 5D       		popq	%rbp
 4329              		.cfi_def_cfa 7, 8
 4330 15d3 C3       		ret
 4331              		.cfi_endproc
 4332              	.LFE1270:
 4333              		.section	.gcc_except_table
 4334              	.LLSDA1270:
 4335 02d5 FF       		.byte	0xff
 4336 02d6 FF       		.byte	0xff
 4337 02d7 01       		.byte	0x1
 4338 02d8 08       		.uleb128 .LLSDACSE1270-.LLSDACSB1270
 4339              	.LLSDACSB1270:
 4340 02d9 14       		.uleb128 .LEHB117-.LFB1270
 4341 02da 05       		.uleb128 .LEHE117-.LEHB117
 4342 02db 27       		.uleb128 .L215-.LFB1270
 4343 02dc 00       		.uleb128 0
 4344 02dd 3C       		.uleb128 .LEHB118-.LFB1270
 4345 02de 05       		.uleb128 .LEHE118-.LEHB118
 4346 02df 00       		.uleb128 0
 4347 02e0 00       		.uleb128 0
 4348              	.LLSDACSE1270:
 4349              		.text
 4351              		.weak	_ZTVN8UnitTest15MemoryOutStreamE
 4352              		.section	.data.rel.ro.local._ZTVN8UnitTest15MemoryOutStreamE,"awG",@progbits,_ZTVN8UnitTest15Memor
 4353              		.align 8
 4356              	_ZTVN8UnitTest15MemoryOutStreamE:
 4357 0000 90000000 		.quad	144
 4357      00000000 
 4358 0008 00000000 		.quad	0
 4358      00000000 
 4359 0010 00000000 		.quad	_ZTIN8UnitTest15MemoryOutStreamE
 4359      00000000 
 4360 0018 00000000 		.quad	_ZN8UnitTest15MemoryOutStreamD1Ev
 4360      00000000 
 4361 0020 00000000 		.quad	_ZN8UnitTest15MemoryOutStreamD0Ev
 4361      00000000 
 4362 0028 70FFFFFF 		.quad	-144
 4362      FFFFFFFF 
 4363 0030 70FFFFFF 		.quad	-144
 4363      FFFFFFFF 
 4364 0038 00000000 		.quad	_ZTIN8UnitTest15MemoryOutStreamE
 4364      00000000 
 4365 0040 00000000 		.quad	_ZTv0_n24_N8UnitTest15MemoryOutStreamD1Ev
 4365      00000000 
 4366 0048 00000000 		.quad	_ZTv0_n24_N8UnitTest15MemoryOutStreamD0Ev
 4366      00000000 
 4367              		.weak	_ZTTN8UnitTest15MemoryOutStreamE
 4368              		.section	.data.rel.ro.local._ZTTN8UnitTest15MemoryOutStreamE,"awG",@progbits,_ZTVN8UnitTest15Memor
 4369              		.align 8
 4372              	_ZTTN8UnitTest15MemoryOutStreamE:
 4373 0000 00000000 		.quad	_ZTVN8UnitTest15MemoryOutStreamE+24
 4373      00000000 
 4374 0008 00000000 		.quad	_ZTCN8UnitTest15MemoryOutStreamE0_NSt7__cxx1119basic_ostringstreamIcSt11char_traitsIcESaIcEE
 4374      00000000 
 4375 0010 00000000 		.quad	_ZTCN8UnitTest15MemoryOutStreamE0_So+24
 4375      00000000 
 4376 0018 00000000 		.quad	_ZTCN8UnitTest15MemoryOutStreamE0_So+64
 4376      00000000 
 4377 0020 00000000 		.quad	_ZTCN8UnitTest15MemoryOutStreamE0_NSt7__cxx1119basic_ostringstreamIcSt11char_traitsIcESaIcEE
 4377      00000000 
 4378 0028 00000000 		.quad	_ZTVN8UnitTest15MemoryOutStreamE+64
 4378      00000000 
 4379              		.hidden	_ZTCN8UnitTest15MemoryOutStreamE0_NSt7__cxx1119basic_ostringstreamIcSt11char_traitsIcESaIc
 4380              		.weak	_ZTCN8UnitTest15MemoryOutStreamE0_NSt7__cxx1119basic_ostringstreamIcSt11char_traitsIcESaIcEE
 4381              		.section	.data.rel.ro._ZTCN8UnitTest15MemoryOutStreamE0_NSt7__cxx1119basic_ostringstreamIcSt11char
 4382              		.align 8
 4385              	_ZTCN8UnitTest15MemoryOutStreamE0_NSt7__cxx1119basic_ostringstreamIcSt11char_traitsIcESaIcEEE:
 4386 0000 90000000 		.quad	144
 4386      00000000 
 4387 0008 00000000 		.quad	0
 4387      00000000 
 4388 0010 00000000 		.quad	_ZTINSt7__cxx1119basic_ostringstreamIcSt11char_traitsIcESaIcEEE
 4388      00000000 
 4389 0018 00000000 		.quad	0
 4389      00000000 
 4390 0020 00000000 		.quad	0
 4390      00000000 
 4391 0028 70FFFFFF 		.quad	-144
 4391      FFFFFFFF 
 4392 0030 70FFFFFF 		.quad	-144
 4392      FFFFFFFF 
 4393 0038 00000000 		.quad	_ZTINSt7__cxx1119basic_ostringstreamIcSt11char_traitsIcESaIcEEE
 4393      00000000 
 4394 0040 00000000 		.quad	0
 4394      00000000 
 4395 0048 00000000 		.quad	0
 4395      00000000 
 4396              		.hidden	_ZTCN8UnitTest15MemoryOutStreamE0_So
 4397              		.weak	_ZTCN8UnitTest15MemoryOutStreamE0_So
 4398              		.section	.data.rel.ro._ZTCN8UnitTest15MemoryOutStreamE0_So,"awG",@progbits,_ZTVN8UnitTest15MemoryO
 4399              		.align 8
 4402              	_ZTCN8UnitTest15MemoryOutStreamE0_So:
 4403 0000 90000000 		.quad	144
 4403      00000000 
 4404 0008 00000000 		.quad	0
 4404      00000000 
 4405 0010 00000000 		.quad	_ZTISo
 4405      00000000 
 4406 0018 00000000 		.quad	0
 4406      00000000 
 4407 0020 00000000 		.quad	0
 4407      00000000 
 4408 0028 70FFFFFF 		.quad	-144
 4408      FFFFFFFF 
 4409 0030 70FFFFFF 		.quad	-144
 4409      FFFFFFFF 
 4410 0038 00000000 		.quad	_ZTISo
 4410      00000000 
 4411 0040 00000000 		.quad	0
 4411      00000000 
 4412 0048 00000000 		.quad	0
 4412      00000000 
 4413              		.section	.rodata
 4414 034d 00000000 		.align 32
 4414      00000000 
 4414      00000000 
 4414      00000000 
 4414      000000
 4417              	_ZTSN12_GLOBAL__N_136TestOutOfCoreCHECKMacrosCanFailTestsE:
 4418 0360 2A4E3132 		.string	"*N12_GLOBAL__N_136TestOutOfCoreCHECKMacrosCanFailTestsE"
 4418      5F474C4F 
 4418      42414C5F 
 4418      5F4E5F31 
 4418      33365465 
 4419              		.section	.data.rel.ro,"aw",@progbits
 4420              		.align 8
 4423              	_ZTIN12_GLOBAL__N_136TestOutOfCoreCHECKMacrosCanFailTestsE:
 4424 0000 00000000 		.quad	_ZTVN10__cxxabiv120__si_class_type_infoE+16
 4424      00000000 
 4425 0008 00000000 		.quad	_ZTSN12_GLOBAL__N_136TestOutOfCoreCHECKMacrosCanFailTestsE
 4425      00000000 
 4426 0010 00000000 		.quad	_ZTIN8UnitTest4TestE
 4426      00000000 
 4427              		.section	.rodata
 4428 0398 00000000 		.align 32
 4428      00000000 
 4431              	_ZTSN12_GLOBAL__N_134TestTestReflectsSpecifiedSuiteNameE:
 4432 03a0 2A4E3132 		.string	"*N12_GLOBAL__N_134TestTestReflectsSpecifiedSuiteNameE"
 4432      5F474C4F 
 4432      42414C5F 
 4432      5F4E5F31 
 4432      33345465 
 4433              		.section	.data.rel.ro
 4434              		.align 8
 4437              	_ZTIN12_GLOBAL__N_134TestTestReflectsSpecifiedSuiteNameE:
 4438 0018 00000000 		.quad	_ZTVN10__cxxabiv120__si_class_type_infoE+16
 4438      00000000 
 4439 0020 00000000 		.quad	_ZTSN12_GLOBAL__N_134TestTestReflectsSpecifiedSuiteNameE
 4439      00000000 
 4440 0028 00000000 		.quad	_ZTIN8UnitTest4TestE
 4440      00000000 
 4441              		.section	.rodata
 4442 03d6 00000000 		.align 32
 4442      00000000 
 4442      0000
 4445              	_ZTSN12_GLOBAL__N_144TestTestWithUnspecifiedSuiteGetsDefaultSuiteE:
 4446 03e0 2A4E3132 		.string	"*N12_GLOBAL__N_144TestTestWithUnspecifiedSuiteGetsDefaultSuiteE"
 4446      5F474C4F 
 4446      42414C5F 
 4446      5F4E5F31 
 4446      34345465 
 4447              		.section	.data.rel.ro
 4448              		.align 8
 4451              	_ZTIN12_GLOBAL__N_144TestTestWithUnspecifiedSuiteGetsDefaultSuiteE:
 4452 0030 00000000 		.quad	_ZTVN10__cxxabiv120__si_class_type_infoE+16
 4452      00000000 
 4453 0038 00000000 		.quad	_ZTSN12_GLOBAL__N_144TestTestWithUnspecifiedSuiteGetsDefaultSuiteE
 4453      00000000 
 4454 0040 00000000 		.quad	_ZTIN8UnitTest4TestE
 4454      00000000 
 4455              		.section	.rodata
 4456              		.align 32
 4459              	_ZTSZNK12_GLOBAL__N_138TestCrashingTestsAreReportedAsFailures7RunImplEvE12CrashingTest:
 4460 0420 2A5A4E4B 		.string	"*ZNK12_GLOBAL__N_138TestCrashingTestsAreReportedAsFailures7RunImplEvE12CrashingTest"
 4460      31325F47 
 4460      4C4F4241 
 4460      4C5F5F4E 
 4460      5F313338 
 4461              		.section	.data.rel.ro
 4462              		.align 8
 4465              	_ZTIZNK12_GLOBAL__N_138TestCrashingTestsAreReportedAsFailures7RunImplEvE12CrashingTest:
 4466 0048 00000000 		.quad	_ZTVN10__cxxabiv120__si_class_type_infoE+16
 4466      00000000 
 4467 0050 00000000 		.quad	_ZTSZNK12_GLOBAL__N_138TestCrashingTestsAreReportedAsFailures7RunImplEvE12CrashingTest
 4467      00000000 
 4468 0058 00000000 		.quad	_ZTIN8UnitTest4TestE
 4468      00000000 
 4469              		.section	.rodata
 4470 0474 00000000 		.align 32
 4470      00000000 
 4470      00000000 
 4473              	_ZTSN12_GLOBAL__N_138TestCrashingTestsAreReportedAsFailuresE:
 4474 0480 2A4E3132 		.string	"*N12_GLOBAL__N_138TestCrashingTestsAreReportedAsFailuresE"
 4474      5F474C4F 
 4474      42414C5F 
 4474      5F4E5F31 
 4474      33385465 
 4475              		.section	.data.rel.ro
 4476              		.align 8
 4479              	_ZTIN12_GLOBAL__N_138TestCrashingTestsAreReportedAsFailuresE:
 4480 0060 00000000 		.quad	_ZTVN10__cxxabiv120__si_class_type_infoE+16
 4480      00000000 
 4481 0068 00000000 		.quad	_ZTSN12_GLOBAL__N_138TestCrashingTestsAreReportedAsFailuresE
 4481      00000000 
 4482 0070 00000000 		.quad	_ZTIN8UnitTest4TestE
 4482      00000000 
 4483              		.section	.rodata
 4484 04ba 00000000 		.align 32
 4484      0000
 4487              	_ZTSZNK12_GLOBAL__N_138TestThrowingTestsAreReportedAsFailures7RunImplEvE12CrashingTest:
 4488 04c0 2A5A4E4B 		.string	"*ZNK12_GLOBAL__N_138TestThrowingTestsAreReportedAsFailures7RunImplEvE12CrashingTest"
 4488      31325F47 
 4488      4C4F4241 
 4488      4C5F5F4E 
 4488      5F313338 
 4489              		.section	.data.rel.ro
 4490              		.align 8
 4493              	_ZTIZNK12_GLOBAL__N_138TestThrowingTestsAreReportedAsFailures7RunImplEvE12CrashingTest:
 4494 0078 00000000 		.quad	_ZTVN10__cxxabiv120__si_class_type_infoE+16
 4494      00000000 
 4495 0080 00000000 		.quad	_ZTSZNK12_GLOBAL__N_138TestThrowingTestsAreReportedAsFailures7RunImplEvE12CrashingTest
 4495      00000000 
 4496 0088 00000000 		.quad	_ZTIN8UnitTest4TestE
 4496      00000000 
 4497              		.section	.rodata
 4498 0514 00000000 		.align 32
 4498      00000000 
 4498      00000000 
 4501              	_ZTSN12_GLOBAL__N_138TestThrowingTestsAreReportedAsFailuresE:
 4502 0520 2A4E3132 		.string	"*N12_GLOBAL__N_138TestThrowingTestsAreReportedAsFailuresE"
 4502      5F474C4F 
 4502      42414C5F 
 4502      5F4E5F31 
 4502      33385465 
 4503              		.section	.data.rel.ro
 4504              		.align 8
 4507              	_ZTIN12_GLOBAL__N_138TestThrowingTestsAreReportedAsFailuresE:
 4508 0090 00000000 		.quad	_ZTVN10__cxxabiv120__si_class_type_infoE+16
 4508      00000000 
 4509 0098 00000000 		.quad	_ZTSN12_GLOBAL__N_138TestThrowingTestsAreReportedAsFailuresE
 4509      00000000 
 4510 00a0 00000000 		.quad	_ZTIN8UnitTest4TestE
 4510      00000000 
 4511              		.section	.rodata
 4512 055a 00000000 		.align 32
 4512      0000
 4515              	_ZTSZNK12_GLOBAL__N_126TestFailingTestHasFailures7RunImplEvE11FailingTest:
 4516 0560 2A5A4E4B 		.string	"*ZNK12_GLOBAL__N_126TestFailingTestHasFailures7RunImplEvE11FailingTest"
 4516      31325F47 
 4516      4C4F4241 
 4516      4C5F5F4E 
 4516      5F313236 
 4517              		.section	.data.rel.ro
 4518              		.align 8
 4521              	_ZTIZNK12_GLOBAL__N_126TestFailingTestHasFailures7RunImplEvE11FailingTest:
 4522 00a8 00000000 		.quad	_ZTVN10__cxxabiv120__si_class_type_infoE+16
 4522      00000000 
 4523 00b0 00000000 		.quad	_ZTSZNK12_GLOBAL__N_126TestFailingTestHasFailures7RunImplEvE11FailingTest
 4523      00000000 
 4524 00b8 00000000 		.quad	_ZTIN8UnitTest4TestE
 4524      00000000 
 4525              		.section	.rodata
 4526 05a7 00000000 		.align 32
 4526      00000000 
 4526      00000000 
 4526      00000000 
 4526      00000000 
 4529              	_ZTSN12_GLOBAL__N_126TestFailingTestHasFailuresE:
 4530 05c0 2A4E3132 		.string	"*N12_GLOBAL__N_126TestFailingTestHasFailuresE"
 4530      5F474C4F 
 4530      42414C5F 
 4530      5F4E5F31 
 4530      32365465 
 4531              		.section	.data.rel.ro
 4532              		.align 8
 4535              	_ZTIN12_GLOBAL__N_126TestFailingTestHasFailuresE:
 4536 00c0 00000000 		.quad	_ZTVN10__cxxabiv120__si_class_type_infoE+16
 4536      00000000 
 4537 00c8 00000000 		.quad	_ZTSN12_GLOBAL__N_126TestFailingTestHasFailuresE
 4537      00000000 
 4538 00d0 00000000 		.quad	_ZTIN8UnitTest4TestE
 4538      00000000 
 4539              		.section	.rodata
 4540 05ee 00000000 		.align 32
 4540      00000000 
 4540      00000000 
 4540      00000000 
 4540      0000
 4543              	_ZTSZNK12_GLOBAL__N_128TestPassingTestHasNoFailures7RunImplEvE11PassingTest:
 4544 0600 2A5A4E4B 		.string	"*ZNK12_GLOBAL__N_128TestPassingTestHasNoFailures7RunImplEvE11PassingTest"
 4544      31325F47 
 4544      4C4F4241 
 4544      4C5F5F4E 
 4544      5F313238 
 4545              		.section	.data.rel.ro
 4546              		.align 8
 4549              	_ZTIZNK12_GLOBAL__N_128TestPassingTestHasNoFailures7RunImplEvE11PassingTest:
 4550 00d8 00000000 		.quad	_ZTVN10__cxxabiv120__si_class_type_infoE+16
 4550      00000000 
 4551 00e0 00000000 		.quad	_ZTSZNK12_GLOBAL__N_128TestPassingTestHasNoFailures7RunImplEvE11PassingTest
 4551      00000000 
 4552 00e8 00000000 		.quad	_ZTIN8UnitTest4TestE
 4552      00000000 
 4553              		.section	.rodata
 4554 0649 00000000 		.align 32
 4554      00000000 
 4554      00000000 
 4554      00000000 
 4554      00000000 
 4557              	_ZTSN12_GLOBAL__N_128TestPassingTestHasNoFailuresE:
 4558 0660 2A4E3132 		.string	"*N12_GLOBAL__N_128TestPassingTestHasNoFailuresE"
 4558      5F474C4F 
 4558      42414C5F 
 4558      5F4E5F31 
 4558      32385465 
 4559              		.section	.data.rel.ro
 4560              		.align 8
 4563              	_ZTIN12_GLOBAL__N_128TestPassingTestHasNoFailuresE:
 4564 00f0 00000000 		.quad	_ZTVN10__cxxabiv120__si_class_type_infoE+16
 4564      00000000 
 4565 00f8 00000000 		.quad	_ZTSN12_GLOBAL__N_128TestPassingTestHasNoFailuresE
 4565      00000000 
 4566 0100 00000000 		.quad	_ZTIN8UnitTest4TestE
 4566      00000000 
 4567              		.weak	_ZTIN8UnitTest15MemoryOutStreamE
 4568              		.section	.data.rel.ro._ZTIN8UnitTest15MemoryOutStreamE,"awG",@progbits,_ZTIN8UnitTest15MemoryOutSt
 4569              		.align 8
 4572              	_ZTIN8UnitTest15MemoryOutStreamE:
 4573 0000 00000000 		.quad	_ZTVN10__cxxabiv120__si_class_type_infoE+16
 4573      00000000 
 4574 0008 00000000 		.quad	_ZTSN8UnitTest15MemoryOutStreamE
 4574      00000000 
 4575 0010 00000000 		.quad	_ZTINSt7__cxx1119basic_ostringstreamIcSt11char_traitsIcESaIcEEE
 4575      00000000 
 4576              		.weak	_ZTSN8UnitTest15MemoryOutStreamE
 4577              		.section	.rodata._ZTSN8UnitTest15MemoryOutStreamE,"aG",@progbits,_ZTSN8UnitTest15MemoryOutStreamE,
 4578              		.align 16
 4581              	_ZTSN8UnitTest15MemoryOutStreamE:
 4582 0000 4E38556E 		.string	"N8UnitTest15MemoryOutStreamE"
 4582      69745465 
 4582      73743135 
 4582      4D656D6F 
 4582      72794F75 
 4583              		.text
 4585              	_Z41__static_initialization_and_destruction_0ii:
 4586              	.LFB1271:
 131:TestTest.cpp  **** 
 132:TestTest.cpp  **** }
 4587              		.loc 4 132 0 is_stmt 1
 4588              		.cfi_startproc
 4589 15d4 55       		pushq	%rbp
 4590              		.cfi_def_cfa_offset 16
 4591              		.cfi_offset 6, -16
 4592 15d5 4889E5   		movq	%rsp, %rbp
 4593              		.cfi_def_cfa_register 6
 4594 15d8 4883EC10 		subq	$16, %rsp
 4595 15dc 897DFC   		movl	%edi, -4(%rbp)
 4596 15df 8975F8   		movl	%esi, -8(%rbp)
 4597              		.loc 4 132 0
 4598 15e2 837DFC01 		cmpl	$1, -4(%rbp)
 4599 15e6 0F85D401 		jne	.L219
 4599      0000
 4600              		.loc 4 132 0 is_stmt 0 discriminator 1
 4601 15ec 817DF8FF 		cmpl	$65535, -8(%rbp)
 4601      FF0000
 4602 15f3 0F85C701 		jne	.L219
 4602      0000
  10:TestTest.cpp  **** {
 4603              		.loc 4 10 0 is_stmt 1
 4604 15f9 488D3D00 		leaq	_ZN12_GLOBAL__N_136testPassingTestHasNoFailuresInstanceE(%rip), %rdi
 4604      000000
 4605 1600 E8FBE9FF 		call	_ZN12_GLOBAL__N_128TestPassingTestHasNoFailuresC1Ev
 4605      FF
 4606 1605 488D1500 		leaq	__dso_handle(%rip), %rdx
 4606      000000
 4607 160c 488D3500 		leaq	_ZN12_GLOBAL__N_136testPassingTestHasNoFailuresInstanceE(%rip), %rsi
 4607      000000
 4608 1613 488D3DD6 		leaq	_ZN12_GLOBAL__N_128TestPassingTestHasNoFailuresD1Ev(%rip), %rdi
 4608      FEFFFF
 4609 161a E8000000 		call	__cxa_atexit@PLT
 4609      00
 4610 161f E8000000 		call	_ZN8UnitTest4Test11GetTestListEv@PLT
 4610      00
 4611 1624 488D1500 		leaq	_ZN12_GLOBAL__N_136testPassingTestHasNoFailuresInstanceE(%rip), %rdx
 4611      000000
 4612 162b 4889C6   		movq	%rax, %rsi
 4613 162e 488D3D00 		leaq	_ZN12_GLOBAL__N_129adderPassingTestHasNoFailuresE(%rip), %rdi
 4613      000000
 4614 1635 E8000000 		call	_ZN8UnitTest9ListAdderC1ERNS_8TestListEPNS_4TestE@PLT
 4614      00
  32:TestTest.cpp  **** {
 4615              		.loc 4 32 0
 4616 163a 488D3D00 		leaq	_ZN12_GLOBAL__N_134testFailingTestHasFailuresInstanceE(%rip), %rdi
 4616      000000
 4617 1641 E8ACECFF 		call	_ZN12_GLOBAL__N_126TestFailingTestHasFailuresC1Ev
 4617      FF
 4618 1646 488D1500 		leaq	__dso_handle(%rip), %rdx
 4618      000000
 4619 164d 488D3500 		leaq	_ZN12_GLOBAL__N_134testFailingTestHasFailuresInstanceE(%rip), %rsi
 4619      000000
 4620 1654 488D3DB1 		leaq	_ZN12_GLOBAL__N_126TestFailingTestHasFailuresD1Ev(%rip), %rdi
 4620      FDFFFF
 4621 165b E8000000 		call	__cxa_atexit@PLT
 4621      00
 4622 1660 E8000000 		call	_ZN8UnitTest4Test11GetTestListEv@PLT
 4622      00
 4623 1665 488D1500 		leaq	_ZN12_GLOBAL__N_134testFailingTestHasFailuresInstanceE(%rip), %rdx
 4623      000000
 4624 166c 4889C6   		movq	%rax, %rsi
 4625 166f 488D3D00 		leaq	_ZN12_GLOBAL__N_127adderFailingTestHasFailuresE(%rip), %rdi
 4625      000000
 4626 1676 E8000000 		call	_ZN8UnitTest9ListAdderC1ERNS_8TestListEPNS_4TestE@PLT
 4626      00
  54:TestTest.cpp  **** {
 4627              		.loc 4 54 0
 4628 167b 488D3D00 		leaq	_ZN12_GLOBAL__N_146testThrowingTestsAreReportedAsFailuresInstanceE(%rip), %rdi
 4628      000000
 4629 1682 E85DEFFF 		call	_ZN12_GLOBAL__N_138TestThrowingTestsAreReportedAsFailuresC1Ev
 4629      FF
 4630 1687 488D1500 		leaq	__dso_handle(%rip), %rdx
 4630      000000
 4631 168e 488D3500 		leaq	_ZN12_GLOBAL__N_146testThrowingTestsAreReportedAsFailuresInstanceE(%rip), %rsi
 4631      000000
 4632 1695 488D3D8C 		leaq	_ZN12_GLOBAL__N_138TestThrowingTestsAreReportedAsFailuresD1Ev(%rip), %rdi
 4632      FCFFFF
 4633 169c E8000000 		call	__cxa_atexit@PLT
 4633      00
 4634 16a1 E8000000 		call	_ZN8UnitTest4Test11GetTestListEv@PLT
 4634      00
 4635 16a6 488D1500 		leaq	_ZN12_GLOBAL__N_146testThrowingTestsAreReportedAsFailuresInstanceE(%rip), %rdx
 4635      000000
 4636 16ad 4889C6   		movq	%rax, %rsi
 4637 16b0 488D3D00 		leaq	_ZN12_GLOBAL__N_139adderThrowingTestsAreReportedAsFailuresE(%rip), %rdi
 4637      000000
 4638 16b7 E8000000 		call	_ZN8UnitTest9ListAdderC1ERNS_8TestListEPNS_4TestE@PLT
 4638      00
  77:TestTest.cpp  **** {
 4639              		.loc 4 77 0
 4640 16bc 488D3D00 		leaq	_ZN12_GLOBAL__N_146testCrashingTestsAreReportedAsFailuresInstanceE(%rip), %rdi
 4640      000000
 4641 16c3 E85CF1FF 		call	_ZN12_GLOBAL__N_138TestCrashingTestsAreReportedAsFailuresC1Ev
 4641      FF
 4642 16c8 488D1500 		leaq	__dso_handle(%rip), %rdx
 4642      000000
 4643 16cf 488D3500 		leaq	_ZN12_GLOBAL__N_146testCrashingTestsAreReportedAsFailuresInstanceE(%rip), %rsi
 4643      000000
 4644 16d6 488D3D67 		leaq	_ZN12_GLOBAL__N_138TestCrashingTestsAreReportedAsFailuresD1Ev(%rip), %rdi
 4644      FBFFFF
 4645 16dd E8000000 		call	__cxa_atexit@PLT
 4645      00
 4646 16e2 E8000000 		call	_ZN8UnitTest4Test11GetTestListEv@PLT
 4646      00
 4647 16e7 488D1500 		leaq	_ZN12_GLOBAL__N_146testCrashingTestsAreReportedAsFailuresInstanceE(%rip), %rdx
 4647      000000
 4648 16ee 4889C6   		movq	%rax, %rsi
 4649 16f1 488D3D00 		leaq	_ZN12_GLOBAL__N_139adderCrashingTestsAreReportedAsFailuresE(%rip), %rdi
 4649      000000
 4650 16f8 E8000000 		call	_ZN8UnitTest9ListAdderC1ERNS_8TestListEPNS_4TestE@PLT
 4650      00
 102:TestTest.cpp  **** {
 4651              		.loc 4 102 0
 4652 16fd 488D3D00 		leaq	_ZN12_GLOBAL__N_152testTestWithUnspecifiedSuiteGetsDefaultSuiteInstanceE(%rip), %rdi
 4652      000000
 4653 1704 E845F3FF 		call	_ZN12_GLOBAL__N_144TestTestWithUnspecifiedSuiteGetsDefaultSuiteC1Ev
 4653      FF
 4654 1709 488D1500 		leaq	__dso_handle(%rip), %rdx
 4654      000000
 4655 1710 488D3500 		leaq	_ZN12_GLOBAL__N_152testTestWithUnspecifiedSuiteGetsDefaultSuiteInstanceE(%rip), %rsi
 4655      000000
 4656 1717 488D3DB4 		leaq	_ZN12_GLOBAL__N_144TestTestWithUnspecifiedSuiteGetsDefaultSuiteD1Ev(%rip), %rdi
 4656      FAFFFF
 4657 171e E8000000 		call	__cxa_atexit@PLT
 4657      00
 4658 1723 E8000000 		call	_ZN8UnitTest4Test11GetTestListEv@PLT
 4658      00
 4659 1728 488D1500 		leaq	_ZN12_GLOBAL__N_152testTestWithUnspecifiedSuiteGetsDefaultSuiteInstanceE(%rip), %rdx
 4659      000000
 4660 172f 4889C6   		movq	%rax, %rsi
 4661 1732 488D3D00 		leaq	_ZN12_GLOBAL__N_145adderTestWithUnspecifiedSuiteGetsDefaultSuiteE(%rip), %rdi
 4661      000000
 4662 1739 E8000000 		call	_ZN8UnitTest9ListAdderC1ERNS_8TestListEPNS_4TestE@PLT
 4662      00
 109:TestTest.cpp  **** {
 4663              		.loc 4 109 0
 4664 173e 488D3D00 		leaq	_ZN12_GLOBAL__N_142testTestReflectsSpecifiedSuiteNameInstanceE(%rip), %rdi
 4664      000000
 4665 1745 E820F5FF 		call	_ZN12_GLOBAL__N_134TestTestReflectsSpecifiedSuiteNameC1Ev
 4665      FF
 4666 174a 488D1500 		leaq	__dso_handle(%rip), %rdx
 4666      000000
 4667 1751 488D3500 		leaq	_ZN12_GLOBAL__N_142testTestReflectsSpecifiedSuiteNameInstanceE(%rip), %rsi
 4667      000000
 4668 1758 488D3D01 		leaq	_ZN12_GLOBAL__N_134TestTestReflectsSpecifiedSuiteNameD1Ev(%rip), %rdi
 4668      FAFFFF
 4669 175f E8000000 		call	__cxa_atexit@PLT
 4669      00
 4670 1764 E8000000 		call	_ZN8UnitTest4Test11GetTestListEv@PLT
 4670      00
 4671 1769 488D1500 		leaq	_ZN12_GLOBAL__N_142testTestReflectsSpecifiedSuiteNameInstanceE(%rip), %rdx
 4671      000000
 4672 1770 4889C6   		movq	%rax, %rsi
 4673 1773 488D3D00 		leaq	_ZN12_GLOBAL__N_135adderTestReflectsSpecifiedSuiteNameE(%rip), %rdi
 4673      000000
 4674 177a E8000000 		call	_ZN8UnitTest9ListAdderC1ERNS_8TestListEPNS_4TestE@PLT
 4674      00
 121:TestTest.cpp  **** {
 4675              		.loc 4 121 0
 4676 177f 488D3D00 		leaq	_ZN12_GLOBAL__N_144testOutOfCoreCHECKMacrosCanFailTestsInstanceE(%rip), %rdi
 4676      000000
 4677 1786 E8DDF7FF 		call	_ZN12_GLOBAL__N_136TestOutOfCoreCHECKMacrosCanFailTestsC1Ev
 4677      FF
 4678 178b 488D1500 		leaq	__dso_handle(%rip), %rdx
 4678      000000
 4679 1792 488D3500 		leaq	_ZN12_GLOBAL__N_144testOutOfCoreCHECKMacrosCanFailTestsInstanceE(%rip), %rsi
 4679      000000
 4680 1799 488D3D4E 		leaq	_ZN12_GLOBAL__N_136TestOutOfCoreCHECKMacrosCanFailTestsD1Ev(%rip), %rdi
 4680      F9FFFF
 4681 17a0 E8000000 		call	__cxa_atexit@PLT
 4681      00
 4682 17a5 E8000000 		call	_ZN8UnitTest4Test11GetTestListEv@PLT
 4682      00
 4683 17aa 488D1500 		leaq	_ZN12_GLOBAL__N_144testOutOfCoreCHECKMacrosCanFailTestsInstanceE(%rip), %rdx
 4683      000000
 4684 17b1 4889C6   		movq	%rax, %rsi
 4685 17b4 488D3D00 		leaq	_ZN12_GLOBAL__N_137adderOutOfCoreCHECKMacrosCanFailTestsE(%rip), %rdi
 4685      000000
 4686 17bb E8000000 		call	_ZN8UnitTest9ListAdderC1ERNS_8TestListEPNS_4TestE@PLT
 4686      00
 4687              	.L219:
 4688              		.loc 4 132 0
 4689 17c0 90       		nop
 4690 17c1 C9       		leave
 4691              		.cfi_def_cfa 7, 8
 4692 17c2 C3       		ret
 4693              		.cfi_endproc
 4694              	.LFE1271:
 4697              	_GLOBAL__sub_I_TestTest.cpp:
 4698              	.LFB1272:
 4699              		.loc 4 132 0
 4700              		.cfi_startproc
 4701 17c3 55       		pushq	%rbp
 4702              		.cfi_def_cfa_offset 16
 4703              		.cfi_offset 6, -16
 4704 17c4 4889E5   		movq	%rsp, %rbp
 4705              		.cfi_def_cfa_register 6
 4706              		.loc 4 132 0
 4707 17c7 BEFFFF00 		movl	$65535, %esi
 4707      00
 4708 17cc BF010000 		movl	$1, %edi
 4708      00
 4709 17d1 E8FEFDFF 		call	_Z41__static_initialization_and_destruction_0ii
 4709      FF
 4710 17d6 5D       		popq	%rbp
 4711              		.cfi_def_cfa 7, 8
 4712 17d7 C3       		ret
 4713              		.cfi_endproc
 4714              	.LFE1272:
 4716              		.section	.init_array,"aw"
 4717              		.align 8
 4718 0000 00000000 		.quad	_GLOBAL__sub_I_TestTest.cpp
 4718      00000000 
 4719              		.text
 4720              	.Letext0:
 4721              		.file 6 "../TestDetails.h"
 4722              		.file 7 "../TestList.h"
 4723              		.file 8 "../TestResults.h"
 4724              		.file 9 "/usr/include/x86_64-linux-gnu/c++/7/bits/c++config.h"
 4725              		.file 10 "/usr/include/c++/7/bits/basic_string.h"
 4726              		.file 11 "/usr/include/c++/7/bits/basic_string.tcc"
 4727              		.file 12 "/usr/include/c++/7/bits/stringfwd.h"
 4728              		.file 13 "/usr/include/c++/7/cwchar"
 4729              		.file 14 "/usr/include/c++/7/bits/char_traits.h"
 4730              		.file 15 "/usr/include/c++/7/clocale"
 4731              		.file 16 "/usr/include/c++/7/bits/allocator.h"
 4732              		.file 17 "/usr/include/c++/7/cwctype"
 4733              		.file 18 "/usr/include/c++/7/debug/debug.h"
 4734              		.file 19 "/usr/include/c++/7/bits/predefined_ops.h"
 4735              		.file 20 "/usr/include/c++/7/ext/new_allocator.h"
 4736              		.file 21 "/usr/include/c++/7/ext/numeric_traits.h"
 4737              		.file 22 "/usr/include/c++/7/ext/alloc_traits.h"
 4738              		.file 23 "/usr/lib/gcc/x86_64-linux-gnu/7/include/stddef.h"
 4739              		.file 24 "<built-in>"
 4740              		.file 25 "/usr/include/x86_64-linux-gnu/bits/types/wint_t.h"
 4741              		.file 26 "/usr/include/x86_64-linux-gnu/bits/types/__mbstate_t.h"
 4742              		.file 27 "/usr/include/x86_64-linux-gnu/bits/types/mbstate_t.h"
 4743              		.file 28 "/usr/include/x86_64-linux-gnu/bits/types/__FILE.h"
 4744              		.file 29 "/usr/include/wchar.h"
 4745              		.file 30 "/usr/include/x86_64-linux-gnu/bits/types/struct_tm.h"
 4746              		.file 31 "/usr/include/locale.h"
 4747              		.file 32 "/usr/include/x86_64-linux-gnu/bits/types.h"
 4748              		.file 33 "/usr/include/time.h"
 4749              		.file 34 "/usr/include/x86_64-linux-gnu/bits/wctype-wchar.h"
 4750              		.file 35 "/usr/include/wctype.h"
 4751              		.file 36 "/usr/include/signal.h"
 4752              		.file 37 "/usr/include/x86_64-linux-gnu/sys/time.h"
 4753              		.file 38 "/usr/include/c++/7/new"
 15988              		.align 8
 15991              	DW.ref.__gxx_personality_v0:
 15992 0000 00000000 		.quad	__gxx_personality_v0
 15992      00000000 
 15993              		.hidden	__dso_handle
 15994              		.ident	"GCC: (Ubuntu 7.2.0-8ubuntu3.2) 7.2.0"
 15995              		.section	.note.GNU-stack,"",@progbits