   1              		.file	"TestXmlTestReporter.cpp"
   2              		.text
   3              	.Ltext0:
   4              		.section	.rodata
   5              	.LC0:
   6 0000 44656661 		.string	"DefaultSuite"
   6      756C7453 
   6      75697465 
   6      00
   7              		.section	.text._ZN13UnitTestSuite12GetSuiteNameEv,"axG",@progbits,_ZN13UnitTestSuite12GetSuiteName
   8              		.weak	_ZN13UnitTestSuite12GetSuiteNameEv
  10              	_ZN13UnitTestSuite12GetSuiteNameEv:
  11              	.LFB0:
  12              		.file 1 "../TestSuite.h"
   1:../TestSuite.h **** #ifndef UNITTEST_TESTSUITE_H
   2:../TestSuite.h **** #define UNITTEST_TESTSUITE_H
   3:../TestSuite.h **** 
   4:../TestSuite.h **** namespace UnitTestSuite {
   5:../TestSuite.h **** 
   6:../TestSuite.h ****     inline char const* GetSuiteName ()
   7:../TestSuite.h ****     {
  13              		.loc 1 7 0
  14              		.cfi_startproc
  15 0000 55       		pushq	%rbp
  16              		.cfi_def_cfa_offset 16
  17              		.cfi_offset 6, -16
  18 0001 4889E5   		movq	%rsp, %rbp
  19              		.cfi_def_cfa_register 6
   8:../TestSuite.h ****         return "DefaultSuite";
  20              		.loc 1 8 0
  21 0004 488D0500 		leaq	.LC0(%rip), %rax
  21      000000
   9:../TestSuite.h ****     }
  22              		.loc 1 9 0
  23 000b 5D       		popq	%rbp
  24              		.cfi_def_cfa 7, 8
  25 000c C3       		ret
  26              		.cfi_endproc
  27              	.LFE0:
  29              		.section	.text._ZN8UnitTest15MemoryOutStreamC1Ev,"axG",@progbits,_ZN8UnitTest15MemoryOutStreamC1Ev
  30              		.align 2
  31              		.weak	_ZN8UnitTest15MemoryOutStreamC1Ev
  33              	_ZN8UnitTest15MemoryOutStreamC1Ev:
  34              	.LFB1076:
  35              		.file 2 "../MemoryOutStream.h"
   1:../MemoryOutStream.h **** #ifndef UNITTEST_MEMORYOUTSTREAM_H
   2:../MemoryOutStream.h **** #define UNITTEST_MEMORYOUTSTREAM_H
   3:../MemoryOutStream.h **** 
   4:../MemoryOutStream.h **** #include "Config.h"
   5:../MemoryOutStream.h **** 
   6:../MemoryOutStream.h **** #ifndef UNITTEST_USE_CUSTOM_STREAMS
   7:../MemoryOutStream.h **** 
   8:../MemoryOutStream.h **** #include <sstream>
   9:../MemoryOutStream.h **** 
  10:../MemoryOutStream.h **** namespace UnitTest
  11:../MemoryOutStream.h **** {
  12:../MemoryOutStream.h **** 
  13:../MemoryOutStream.h **** class MemoryOutStream : public std::ostringstream
  14:../MemoryOutStream.h **** {
  15:../MemoryOutStream.h **** public:
  16:../MemoryOutStream.h ****     MemoryOutStream() {}
  36              		.loc 2 16 0
  37              		.cfi_startproc
  38              		.cfi_personality 0x9b,DW.ref.__gxx_personality_v0
  39              		.cfi_lsda 0x1b,.LLSDA1076
  40 0000 55       		pushq	%rbp
  41              		.cfi_def_cfa_offset 16
  42              		.cfi_offset 6, -16
  43 0001 4889E5   		movq	%rsp, %rbp
  44              		.cfi_def_cfa_register 6
  45 0004 53       		pushq	%rbx
  46 0005 4883EC18 		subq	$24, %rsp
  47              		.cfi_offset 3, -24
  48 0009 48897DE8 		movq	%rdi, -24(%rbp)
  49              	.LBB2:
  50              		.loc 2 16 0
  51 000d 488B45E8 		movq	-24(%rbp), %rax
  52 0011 48059000 		addq	$144, %rax
  52      0000
  53 0017 4889C7   		movq	%rax, %rdi
  54              	.LEHB0:
  55 001a E8000000 		call	_ZNSt9basic_iosIcSt11char_traitsIcEEC2Ev@PLT
  55      00
  56              	.LEHE0:
  57 001f 488B45E8 		movq	-24(%rbp), %rax
  58 0023 488D0D00 		leaq	8+_ZTTN8UnitTest15MemoryOutStreamE(%rip), %rcx
  58      000000
  59 002a BA100000 		movl	$16, %edx
  59      00
  60 002f 4889CE   		movq	%rcx, %rsi
  61 0032 4889C7   		movq	%rax, %rdi
  62              	.LEHB1:
  63 0035 E8000000 		call	_ZNSt7__cxx1119basic_ostringstreamIcSt11char_traitsIcESaIcEEC2ESt13_Ios_Openmode@PLT
  63      00
  64              	.LEHE1:
  65              		.loc 2 16 0 is_stmt 0 discriminator 8
  66 003a 488D1500 		leaq	24+_ZTVN8UnitTest15MemoryOutStreamE(%rip), %rdx
  66      000000
  67 0041 488B45E8 		movq	-24(%rbp), %rax
  68 0045 488910   		movq	%rdx, (%rax)
  69 0048 488B45E8 		movq	-24(%rbp), %rax
  70 004c 488D9090 		leaq	144(%rax), %rdx
  70      000000
  71 0053 488D0500 		leaq	64+_ZTVN8UnitTest15MemoryOutStreamE(%rip), %rax
  71      000000
  72 005a 488902   		movq	%rax, (%rdx)
  73 005d 488B45E8 		movq	-24(%rbp), %rax
  74 0061 4883C070 		addq	$112, %rax
  75 0065 4889C7   		movq	%rax, %rdi
  76              	.LEHB2:
  77 0068 E8000000 		call	_ZNSt7__cxx1112basic_stringIcSt11char_traitsIcESaIcEEC1Ev@PLT
  77      00
  78              	.LEHE2:
  79              	.LBE2:
  80              		.loc 2 16 0
  81 006d EB3B     		jmp	.L9
  82              	.L7:
  83 006f 4889C3   		movq	%rax, %rbx
  84              	.LBB3:
  85 0072 488B45E8 		movq	-24(%rbp), %rax
  86 0076 488D1500 		leaq	8+_ZTTN8UnitTest15MemoryOutStreamE(%rip), %rdx
  86      000000
  87 007d 4889D6   		movq	%rdx, %rsi
  88 0080 4889C7   		movq	%rax, %rdi
  89 0083 E8000000 		call	_ZNSt7__cxx1119basic_ostringstreamIcSt11char_traitsIcESaIcEED2Ev@PLT
  89      00
  90 0088 EB03     		jmp	.L8
  91              	.L6:
  92 008a 4889C3   		movq	%rax, %rbx
  93              	.L8:
  94              		.loc 2 16 0 discriminator 11
  95 008d 488B45E8 		movq	-24(%rbp), %rax
  96 0091 48059000 		addq	$144, %rax
  96      0000
  97 0097 4889C7   		movq	%rax, %rdi
  98 009a E8000000 		call	_ZNSt9basic_iosIcSt11char_traitsIcEED2Ev@PLT
  98      00
  99 009f 4889D8   		movq	%rbx, %rax
 100 00a2 4889C7   		movq	%rax, %rdi
 101              	.LEHB3:
 102 00a5 E8000000 		call	_Unwind_Resume@PLT
 102      00
 103              	.LEHE3:
 104              	.L9:
 105              	.LBE3:
 106              		.loc 2 16 0
 107 00aa 4883C418 		addq	$24, %rsp
 108 00ae 5B       		popq	%rbx
 109 00af 5D       		popq	%rbp
 110              		.cfi_def_cfa 7, 8
 111 00b0 C3       		ret
 112              		.cfi_endproc
 113              	.LFE1076:
 114              		.globl	__gxx_personality_v0
 115              		.section	.gcc_except_table._ZN8UnitTest15MemoryOutStreamC1Ev,"aG",@progbits,_ZN8UnitTest15MemoryOu
 116              	.LLSDA1076:
 117 0000 FF       		.byte	0xff
 118 0001 FF       		.byte	0xff
 119 0002 01       		.byte	0x1
 120 0003 12       		.uleb128 .LLSDACSE1076-.LLSDACSB1076
 121              	.LLSDACSB1076:
 122 0004 1A       		.uleb128 .LEHB0-.LFB1076
 123 0005 05       		.uleb128 .LEHE0-.LEHB0
 124 0006 00       		.uleb128 0
 125 0007 00       		.uleb128 0
 126 0008 35       		.uleb128 .LEHB1-.LFB1076
 127 0009 05       		.uleb128 .LEHE1-.LEHB1
 128 000a 8A01     		.uleb128 .L6-.LFB1076
 129 000c 00       		.uleb128 0
 130 000d 68       		.uleb128 .LEHB2-.LFB1076
 131 000e 05       		.uleb128 .LEHE2-.LEHB2
 132 000f 6F       		.uleb128 .L7-.LFB1076
 133 0010 00       		.uleb128 0
 134 0011 A501     		.uleb128 .LEHB3-.LFB1076
 135 0013 05       		.uleb128 .LEHE3-.LEHB3
 136 0014 00       		.uleb128 0
 137 0015 00       		.uleb128 0
 138              	.LLSDACSE1076:
 139              		.section	.text._ZN8UnitTest15MemoryOutStreamC1Ev,"axG",@progbits,_ZN8UnitTest15MemoryOutStreamC1Ev
 141              		.text
 142              		.align 2
 144              	_ZN12_GLOBAL__N_122XmlTestReporterFixtureC2Ev:
 145              	.LFB1356:
 146              		.file 3 "TestXmlTestReporter.cpp"
   1:TestXmlTestReporter.cpp **** #include "../UnitTest++.h"
   2:TestXmlTestReporter.cpp **** #include "../XmlTestReporter.h"
   3:TestXmlTestReporter.cpp **** 
   4:TestXmlTestReporter.cpp **** #include <sstream>
   5:TestXmlTestReporter.cpp **** 
   6:TestXmlTestReporter.cpp **** using namespace UnitTest;
   7:TestXmlTestReporter.cpp **** using std::ostringstream;
   8:TestXmlTestReporter.cpp **** 
   9:TestXmlTestReporter.cpp **** namespace
  10:TestXmlTestReporter.cpp **** {
  11:TestXmlTestReporter.cpp **** 
  12:TestXmlTestReporter.cpp **** #ifdef UNITTEST_USE_CUSTOM_STREAMS
  13:TestXmlTestReporter.cpp **** 
  14:TestXmlTestReporter.cpp **** // Overload to let MemoryOutStream accept std::string
  15:TestXmlTestReporter.cpp **** MemoryOutStream& operator<<(MemoryOutStream& s, const std::string& value)
  16:TestXmlTestReporter.cpp **** {
  17:TestXmlTestReporter.cpp ****     s << value.c_str();
  18:TestXmlTestReporter.cpp ****     return s;
  19:TestXmlTestReporter.cpp **** }
  20:TestXmlTestReporter.cpp **** 
  21:TestXmlTestReporter.cpp **** #endif
  22:TestXmlTestReporter.cpp **** 
  23:TestXmlTestReporter.cpp **** struct XmlTestReporterFixture
  24:TestXmlTestReporter.cpp **** {
  25:TestXmlTestReporter.cpp ****     XmlTestReporterFixture()
 147              		.loc 3 25 0 is_stmt 1
 148              		.cfi_startproc
 149              		.cfi_personality 0x9b,DW.ref.__gxx_personality_v0
 150              		.cfi_lsda 0x1b,.LLSDA1356
 151 0000 55       		pushq	%rbp
 152              		.cfi_def_cfa_offset 16
 153              		.cfi_offset 6, -16
 154 0001 4889E5   		movq	%rsp, %rbp
 155              		.cfi_def_cfa_register 6
 156 0004 53       		pushq	%rbx
 157 0005 4883EC18 		subq	$24, %rsp
 158              		.cfi_offset 3, -24
 159 0009 48897DE8 		movq	%rdi, -24(%rbp)
 160              	.LBB4:
  26:TestXmlTestReporter.cpp ****         : reporter(output)
 161              		.loc 3 26 0
 162 000d 488B45E8 		movq	-24(%rbp), %rax
 163 0011 BE100000 		movl	$16, %esi
 163      00
 164 0016 4889C7   		movq	%rax, %rdi
 165              	.LEHB4:
 166 0019 E8000000 		call	_ZNSt7__cxx1119basic_ostringstreamIcSt11char_traitsIcESaIcEEC1ESt13_Ios_Openmode@PLT
 166      00
 167              	.LEHE4:
 168 001e 488B45E8 		movq	-24(%rbp), %rax
 169 0022 488D9078 		leaq	376(%rax), %rdx
 169      010000
 170 0029 488B45E8 		movq	-24(%rbp), %rax
 171 002d 4889C6   		movq	%rax, %rsi
 172 0030 4889D7   		movq	%rdx, %rdi
 173              	.LEHB5:
 174 0033 E8000000 		call	_ZN8UnitTest15XmlTestReporterC1ERSo@PLT
 174      00
 175              	.LEHE5:
 176              	.LBE4:
  27:TestXmlTestReporter.cpp ****     {
  28:TestXmlTestReporter.cpp ****     }
 177              		.loc 3 28 0
 178 0038 EB1A     		jmp	.L13
 179              	.L12:
 180 003a 4889C3   		movq	%rax, %rbx
 181              	.LBB5:
  26:TestXmlTestReporter.cpp ****         : reporter(output)
 182              		.loc 3 26 0
 183 003d 488B45E8 		movq	-24(%rbp), %rax
 184 0041 4889C7   		movq	%rax, %rdi
 185 0044 E8000000 		call	_ZNSt7__cxx1119basic_ostringstreamIcSt11char_traitsIcESaIcEED1Ev@PLT
 185      00
 186 0049 4889D8   		movq	%rbx, %rax
 187 004c 4889C7   		movq	%rax, %rdi
 188              	.LEHB6:
 189 004f E8000000 		call	_Unwind_Resume@PLT
 189      00
 190              	.LEHE6:
 191              	.L13:
 192              	.LBE5:
 193              		.loc 3 28 0
 194 0054 4883C418 		addq	$24, %rsp
 195 0058 5B       		popq	%rbx
 196 0059 5D       		popq	%rbp
 197              		.cfi_def_cfa 7, 8
 198 005a C3       		ret
 199              		.cfi_endproc
 200              	.LFE1356:
 201              		.section	.gcc_except_table,"a",@progbits
 202              	.LLSDA1356:
 203 0000 FF       		.byte	0xff
 204 0001 FF       		.byte	0xff
 205 0002 01       		.byte	0x1
 206 0003 0C       		.uleb128 .LLSDACSE1356-.LLSDACSB1356
 207              	.LLSDACSB1356:
 208 0004 19       		.uleb128 .LEHB4-.LFB1356
 209 0005 05       		.uleb128 .LEHE4-.LEHB4
 210 0006 00       		.uleb128 0
 211 0007 00       		.uleb128 0
 212 0008 33       		.uleb128 .LEHB5-.LFB1356
 213 0009 05       		.uleb128 .LEHE5-.LEHB5
 214 000a 3A       		.uleb128 .L12-.LFB1356
 215 000b 00       		.uleb128 0
 216 000c 4F       		.uleb128 .LEHB6-.LFB1356
 217 000d 05       		.uleb128 .LEHE6-.LEHB6
 218 000e 00       		.uleb128 0
 219 000f 00       		.uleb128 0
 220              	.LLSDACSE1356:
 221              		.text
 223 005b 90       		.align 2
 225              	_ZN12_GLOBAL__N_122XmlTestReporterFixtureD2Ev:
 226              	.LFB1360:
  23:TestXmlTestReporter.cpp **** {
 227              		.loc 3 23 0
 228              		.cfi_startproc
 229              		.cfi_personality 0x9b,DW.ref.__gxx_personality_v0
 230              		.cfi_lsda 0x1b,.LLSDA1360
 231 005c 55       		pushq	%rbp
 232              		.cfi_def_cfa_offset 16
 233              		.cfi_offset 6, -16
 234 005d 4889E5   		movq	%rsp, %rbp
 235              		.cfi_def_cfa_register 6
 236 0060 53       		pushq	%rbx
 237 0061 4883EC18 		subq	$24, %rsp
 238              		.cfi_offset 3, -24
 239 0065 48897DE8 		movq	%rdi, -24(%rbp)
 240              	.LBB6:
  23:TestXmlTestReporter.cpp **** {
 241              		.loc 3 23 0
 242 0069 488B45E8 		movq	-24(%rbp), %rax
 243 006d 48057801 		addq	$376, %rax
 243      0000
 244 0073 4889C7   		movq	%rax, %rdi
 245              	.LEHB7:
 246 0076 E8000000 		call	_ZN8UnitTest15XmlTestReporterD1Ev
 246      00
 247              	.LEHE7:
  23:TestXmlTestReporter.cpp **** {
 248              		.loc 3 23 0 is_stmt 0 discriminator 2
 249 007b 488B45E8 		movq	-24(%rbp), %rax
 250 007f 4889C7   		movq	%rax, %rdi
 251              	.LEHB8:
 252 0082 E8000000 		call	_ZNSt7__cxx1119basic_ostringstreamIcSt11char_traitsIcESaIcEED1Ev@PLT
 252      00
 253              	.LEHE8:
 254              	.LBE6:
 255 0087 EB1A     		jmp	.L17
 256              	.L16:
 257 0089 4889C3   		movq	%rax, %rbx
 258              	.LBB7:
  23:TestXmlTestReporter.cpp **** {
 259              		.loc 3 23 0
 260 008c 488B45E8 		movq	-24(%rbp), %rax
 261 0090 4889C7   		movq	%rax, %rdi
 262 0093 E8000000 		call	_ZNSt7__cxx1119basic_ostringstreamIcSt11char_traitsIcESaIcEED1Ev@PLT
 262      00
 263 0098 4889D8   		movq	%rbx, %rax
 264 009b 4889C7   		movq	%rax, %rdi
 265              	.LEHB9:
 266 009e E8000000 		call	_Unwind_Resume@PLT
 266      00
 267              	.LEHE9:
 268              	.L17:
 269              	.LBE7:
 270 00a3 4883C418 		addq	$24, %rsp
 271 00a7 5B       		popq	%rbx
 272 00a8 5D       		popq	%rbp
 273              		.cfi_def_cfa 7, 8
 274 00a9 C3       		ret
 275              		.cfi_endproc
 276              	.LFE1360:
 277              		.section	.gcc_except_table
 278              	.LLSDA1360:
 279 0010 FF       		.byte	0xff
 280 0011 FF       		.byte	0xff
 281 0012 01       		.byte	0x1
 282 0013 0C       		.uleb128 .LLSDACSE1360-.LLSDACSB1360
 283              	.LLSDACSB1360:
 284 0014 1A       		.uleb128 .LEHB7-.LFB1360
 285 0015 05       		.uleb128 .LEHE7-.LEHB7
 286 0016 2D       		.uleb128 .L16-.LFB1360
 287 0017 00       		.uleb128 0
 288 0018 26       		.uleb128 .LEHB8-.LFB1360
 289 0019 05       		.uleb128 .LEHE8-.LEHB8
 290 001a 00       		.uleb128 0
 291 001b 00       		.uleb128 0
 292 001c 42       		.uleb128 .LEHB9-.LFB1360
 293 001d 05       		.uleb128 .LEHE9-.LEHB9
 294 001e 00       		.uleb128 0
 295 001f 00       		.uleb128 0
 296              	.LLSDACSE1360:
 297              		.text
 299              		.align 2
 301              	_ZN12_GLOBAL__N_156XmlTestReporterFixtureMultipleCharactersAreEscapedHelperC2ERKN8UnitTest11TestDet
 302              	.LFB1362:
  29:TestXmlTestReporter.cpp **** 
  30:TestXmlTestReporter.cpp ****     ostringstream output;
  31:TestXmlTestReporter.cpp ****     XmlTestReporter reporter;
  32:TestXmlTestReporter.cpp **** };
  33:TestXmlTestReporter.cpp **** 
  34:TestXmlTestReporter.cpp **** TEST_FIXTURE(XmlTestReporterFixture, MultipleCharactersAreEscaped)
 303              		.loc 3 34 0 is_stmt 1
 304              		.cfi_startproc
 305 00aa 55       		pushq	%rbp
 306              		.cfi_def_cfa_offset 16
 307              		.cfi_offset 6, -16
 308 00ab 4889E5   		movq	%rsp, %rbp
 309              		.cfi_def_cfa_register 6
 310 00ae 4883EC10 		subq	$16, %rsp
 311 00b2 48897DF8 		movq	%rdi, -8(%rbp)
 312 00b6 488975F0 		movq	%rsi, -16(%rbp)
 313              	.LBB8:
 314              		.loc 3 34 0
 315 00ba 488B45F8 		movq	-8(%rbp), %rax
 316 00be 4889C7   		movq	%rax, %rdi
 317 00c1 E83AFFFF 		call	_ZN12_GLOBAL__N_122XmlTestReporterFixtureC2Ev
 317      FF
 318 00c6 488B45F8 		movq	-8(%rbp), %rax
 319 00ca 488B55F0 		movq	-16(%rbp), %rdx
 320 00ce 488990A0 		movq	%rdx, 416(%rax)
 320      010000
 321              	.LBE8:
 322 00d5 90       		nop
 323 00d6 C9       		leave
 324              		.cfi_def_cfa 7, 8
 325 00d7 C3       		ret
 326              		.cfi_endproc
 327              	.LFE1362:
 329              		.set	_ZN12_GLOBAL__N_156XmlTestReporterFixtureMultipleCharactersAreEscapedHelperC1ERKN8UnitTest11T
 330              		.section	.rodata
 331              	.LC1:
 332 000d 54657374 		.string	"TestXmlTestReporter.cpp"
 332      586D6C54 
 332      65737452 
 332      65706F72 
 332      7465722E 
 333              	.LC2:
 334 0025 4D756C74 		.string	"MultipleCharactersAreEscaped"
 334      69706C65 
 334      43686172 
 334      61637465 
 334      72734172 
 335              		.text
 336              		.align 2
 338              	_ZN12_GLOBAL__N_154TestXmlTestReporterFixtureMultipleCharactersAreEscapedC2Ev:
 339              	.LFB1365:
 340              		.loc 3 34 0
 341              		.cfi_startproc
 342 00d8 55       		pushq	%rbp
 343              		.cfi_def_cfa_offset 16
 344              		.cfi_offset 6, -16
 345 00d9 4889E5   		movq	%rsp, %rbp
 346              		.cfi_def_cfa_register 6
 347 00dc 53       		pushq	%rbx
 348 00dd 4883EC18 		subq	$24, %rsp
 349              		.cfi_offset 3, -24
 350 00e1 48897DE8 		movq	%rdi, -24(%rbp)
 351              	.LBB9:
 352              		.loc 3 34 0
 353 00e5 488B5DE8 		movq	-24(%rbp), %rbx
 354 00e9 E8000000 		call	_ZN13UnitTestSuite12GetSuiteNameEv
 354      00
 355 00ee 41B82200 		movl	$34, %r8d
 355      0000
 356 00f4 488D0D00 		leaq	.LC1(%rip), %rcx
 356      000000
 357 00fb 4889C2   		movq	%rax, %rdx
 358 00fe 488D3500 		leaq	.LC2(%rip), %rsi
 358      000000
 359 0105 4889DF   		movq	%rbx, %rdi
 360 0108 E8000000 		call	_ZN8UnitTest4TestC2EPKcS2_S2_i@PLT
 360      00
 361 010d 488D1500 		leaq	16+_ZTVN12_GLOBAL__N_154TestXmlTestReporterFixtureMultipleCharactersAreEscapedE(%rip), %rdx
 361      000000
 362 0114 488B45E8 		movq	-24(%rbp), %rax
 363 0118 488910   		movq	%rdx, (%rax)
 364              	.LBE9:
 365 011b 90       		nop
 366 011c 4883C418 		addq	$24, %rsp
 367 0120 5B       		popq	%rbx
 368 0121 5D       		popq	%rbp
 369              		.cfi_def_cfa 7, 8
 370 0122 C3       		ret
 371              		.cfi_endproc
 372              	.LFE1365:
 374              		.set	_ZN12_GLOBAL__N_154TestXmlTestReporterFixtureMultipleCharactersAreEscapedC1Ev,_ZN12_GLOBAL__N
 375              		.local	_ZN12_GLOBAL__N_162testXmlTestReporterFixtureMultipleCharactersAreEscapedInstanceE
 376              		.comm	_ZN12_GLOBAL__N_162testXmlTestReporterFixtureMultipleCharactersAreEscapedInstanceE,56,32
 377              		.local	_ZN12_GLOBAL__N_155adderXmlTestReporterFixtureMultipleCharactersAreEscapedE
 378              		.comm	_ZN12_GLOBAL__N_155adderXmlTestReporterFixtureMultipleCharactersAreEscapedE,1,1
 379 0123 90       		.align 2
 381              	_ZN12_GLOBAL__N_156XmlTestReporterFixtureMultipleCharactersAreEscapedHelperD2Ev:
 382              	.LFB1369:
 383              		.loc 3 34 0
 384              		.cfi_startproc
 385 0124 55       		pushq	%rbp
 386              		.cfi_def_cfa_offset 16
 387              		.cfi_offset 6, -16
 388 0125 4889E5   		movq	%rsp, %rbp
 389              		.cfi_def_cfa_register 6
 390 0128 4883EC10 		subq	$16, %rsp
 391 012c 48897DF8 		movq	%rdi, -8(%rbp)
 392              	.LBB10:
 393              		.loc 3 34 0
 394 0130 488B45F8 		movq	-8(%rbp), %rax
 395 0134 4889C7   		movq	%rax, %rdi
 396 0137 E820FFFF 		call	_ZN12_GLOBAL__N_122XmlTestReporterFixtureD2Ev
 396      FF
 397              	.LBE10:
 398 013c 90       		nop
 399 013d C9       		leave
 400              		.cfi_def_cfa 7, 8
 401 013e C3       		ret
 402              		.cfi_endproc
 403              	.LFE1369:
 405              		.set	_ZN12_GLOBAL__N_156XmlTestReporterFixtureMultipleCharactersAreEscapedHelperD1Ev,_ZN12_GLOBAL_
 406              		.section	.rodata
 407              	.LC3:
 408 0042 556E6861 		.string	"Unhandled exception: "
 408      6E646C65 
 408      64206578 
 408      63657074 
 408      696F6E3A 
 409              		.align 8
 410              	.LC4:
 411 0058 556E6861 		.string	"Unhandled exception while destroying fixture XmlTestReporterFixture"
 411      6E646C65 
 411      64206578 
 411      63657074 
 411      696F6E20 
 412 009c 00000000 		.align 8
 413              	.LC5:
 414 00a0 556E6861 		.string	"Unhandled exception while constructing fixture XmlTestReporterFixture"
 414      6E646C65 
 414      64206578 
 414      63657074 
 414      696F6E20 
 415              		.text
 416 013f 90       		.align 2
 418              	_ZNK12_GLOBAL__N_154TestXmlTestReporterFixtureMultipleCharactersAreEscaped7RunImplEv:
 419              	.LFB1367:
 420              		.loc 3 34 0
 421              		.cfi_startproc
 422              		.cfi_personality 0x9b,DW.ref.__gxx_personality_v0
 423              		.cfi_lsda 0x1b,.LLSDA1367
 424 0140 55       		pushq	%rbp
 425              		.cfi_def_cfa_offset 16
 426              		.cfi_offset 6, -16
 427 0141 4889E5   		movq	%rsp, %rbp
 428              		.cfi_def_cfa_register 6
 429 0144 4155     		pushq	%r13
 430 0146 4154     		pushq	%r12
 431 0148 53       		pushq	%rbx
 432 0149 4881EC08 		subq	$520, %rsp
 432      020000
 433              		.cfi_offset 13, -24
 434              		.cfi_offset 12, -32
 435              		.cfi_offset 3, -40
 436 0150 4889BDE8 		movq	%rdi, -536(%rbp)
 436      FDFFFF
 437              		.loc 3 34 0
 438 0157 64488B04 		movq	%fs:40, %rax
 438      25280000 
 438      00
 439 0160 488945D8 		movq	%rax, -40(%rbp)
 440 0164 31C0     		xorl	%eax, %eax
 441 0166 C685FFFD 		movb	$0, -513(%rbp)
 441      FFFF00
 442              	.LBB11:
 443 016d 488B85E8 		movq	-536(%rbp), %rax
 443      FDFFFF
 444 0174 488D5008 		leaq	8(%rax), %rdx
 445 0178 488D8530 		leaq	-464(%rbp), %rax
 445      FEFFFF
 446 017f 4889D6   		movq	%rdx, %rsi
 447 0182 4889C7   		movq	%rax, %rdi
 448              	.LEHB10:
 449 0185 E820FFFF 		call	_ZN12_GLOBAL__N_156XmlTestReporterFixtureMultipleCharactersAreEscapedHelperC1ERKN8UnitTest11T
 449      FF
 450              	.LEHE10:
 451              		.loc 3 34 0 is_stmt 0 discriminator 1
 452 018a C685FFFD 		movb	$1, -513(%rbp)
 452      FFFF01
 453 0191 488B85E8 		movq	-536(%rbp), %rax
 453      FDFFFF
 454 0198 488D5008 		leaq	8(%rax), %rdx
 455 019c 488D8530 		leaq	-464(%rbp), %rax
 455      FEFFFF
 456 01a3 4889D6   		movq	%rdx, %rsi
 457 01a6 4889C7   		movq	%rax, %rdi
 458              	.LEHB11:
 459 01a9 E8952B00 		call	_ZN8UnitTest11ExecuteTestIN12_GLOBAL__N_156XmlTestReporterFixtureMultipleCharactersAreEscaped
 459      00
 460              	.LEHE11:
 461              		.loc 3 34 0 discriminator 3
 462 01ae 488D8530 		leaq	-464(%rbp), %rax
 462      FEFFFF
 463 01b5 4889C7   		movq	%rax, %rdi
 464              	.LEHB12:
 465 01b8 E867FFFF 		call	_ZN12_GLOBAL__N_156XmlTestReporterFixtureMultipleCharactersAreEscapedHelperD1Ev
 465      FF
 466              	.LEHE12:
 467              	.LBE11:
 468              		.loc 3 34 0
 469 01bd E9690200 		jmp	.L21
 469      00
 470              	.L36:
 471 01c2 4989C4   		movq	%rax, %r12
 472 01c5 4889D3   		movq	%rdx, %rbx
 473              	.LBB12:
 474 01c8 488D8530 		leaq	-464(%rbp), %rax
 474      FEFFFF
 475 01cf 4889C7   		movq	%rax, %rdi
 476 01d2 E84DFFFF 		call	_ZN12_GLOBAL__N_156XmlTestReporterFixtureMultipleCharactersAreEscapedHelperD1Ev
 476      FF
 477 01d7 4C89E0   		movq	%r12, %rax
 478 01da 4889DA   		movq	%rbx, %rdx
 479 01dd EB00     		jmp	.L23
 480              	.L35:
 481              	.L23:
 482 01df 4883FA01 		cmpq	$1, %rdx
 483 01e3 740F     		je	.L25
 484 01e5 4883FA02 		cmpq	$2, %rdx
 485 01e9 0F84A700 		je	.L26
 485      0000
 486 01ef E94A0100 		jmp	.L41
 486      00
 487              	.L25:
 488              	.LBE12:
 489              	.LBB13:
 490 01f4 4889C7   		movq	%rax, %rdi
 491 01f7 E8000000 		call	__cxa_begin_catch@PLT
 491      00
 492 01fc 48898508 		movq	%rax, -504(%rbp)
 492      FEFFFF
 493              	.LEHB13:
 494 0203 E8000000 		call	_ZN8UnitTest11CurrentTest7ResultsEv@PLT
 494      00
 495 0208 488B18   		movq	(%rax), %rbx
 496 020b 488B8508 		movq	-504(%rbp), %rax
 496      FEFFFF
 497 0212 488B00   		movq	(%rax), %rax
 498 0215 4883C010 		addq	$16, %rax
 499 0219 488B00   		movq	(%rax), %rax
 500 021c 488B9508 		movq	-504(%rbp), %rdx
 500      FEFFFF
 501 0223 4889D7   		movq	%rdx, %rdi
 502 0226 FFD0     		call	*%rax
 503              	.LVL0:
 504 0228 4989C4   		movq	%rax, %r12
 505 022b 488B8508 		movq	-504(%rbp), %rax
 505      FEFFFF
 506 0232 4889C7   		movq	%rax, %rdi
 507 0235 E8000000 		call	_ZNK8UnitTest15AssertException10LineNumberEv@PLT
 507      00
 508              		.loc 3 34 0 discriminator 5
 509 023a 4189C5   		movl	%eax, %r13d
 510 023d 488B8508 		movq	-504(%rbp), %rax
 510      FEFFFF
 511 0244 4889C7   		movq	%rax, %rdi
 512 0247 E8000000 		call	_ZNK8UnitTest15AssertException8FilenameEv@PLT
 512      00
 513              		.loc 3 34 0 discriminator 7
 514 024c 4889C1   		movq	%rax, %rcx
 515 024f 488B85E8 		movq	-536(%rbp), %rax
 515      FDFFFF
 516 0256 488B5008 		movq	8(%rax), %rdx
 517 025a 488B85E8 		movq	-536(%rbp), %rax
 517      FDFFFF
 518 0261 488B7010 		movq	16(%rax), %rsi
 519 0265 488D8510 		leaq	-496(%rbp), %rax
 519      FEFFFF
 520 026c 4589E8   		movl	%r13d, %r8d
 521 026f 4889C7   		movq	%rax, %rdi
 522 0272 E8000000 		call	_ZN8UnitTest11TestDetailsC1EPKcS2_S2_i@PLT
 522      00
 523              		.loc 3 34 0 discriminator 11
 524 0277 488D8510 		leaq	-496(%rbp), %rax
 524      FEFFFF
 525 027e 4C89E2   		movq	%r12, %rdx
 526 0281 4889C6   		movq	%rax, %rsi
 527 0284 4889DF   		movq	%rbx, %rdi
 528 0287 E8000000 		call	_ZN8UnitTest11TestResults13OnTestFailureERKNS_11TestDetailsEPKc@PLT
 528      00
 529              	.LEHE13:
 530              		.loc 3 34 0 discriminator 13
 531 028c E8000000 		call	__cxa_end_catch@PLT
 531      00
 532              	.LBE13:
 533 0291 E9950100 		jmp	.L21
 533      00
 534              	.L26:
 535              	.LBB14:
 536              		.loc 3 34 0
 537 0296 4889C7   		movq	%rax, %rdi
 538 0299 E8000000 		call	__cxa_begin_catch@PLT
 538      00
 539 029e 48898500 		movq	%rax, -512(%rbp)
 539      FEFFFF
 540              	.LBB15:
 541 02a5 488D8530 		leaq	-464(%rbp), %rax
 541      FEFFFF
 542 02ac 4889C7   		movq	%rax, %rdi
 543              	.LEHB14:
 544 02af E8000000 		call	_ZN8UnitTest15MemoryOutStreamC1Ev
 544      00
 545              	.LEHE14:
 546              		.loc 3 34 0 discriminator 15
 547 02b4 488D8530 		leaq	-464(%rbp), %rax
 547      FEFFFF
 548 02bb 488D3500 		leaq	.LC3(%rip), %rsi
 548      000000
 549 02c2 4889C7   		movq	%rax, %rdi
 550              	.LEHB15:
 551 02c5 E8000000 		call	_ZStlsISt11char_traitsIcEERSt13basic_ostreamIcT_ES5_PKc@PLT
 551      00
 552 02ca 4889C3   		movq	%rax, %rbx
 553 02cd 488B8500 		movq	-512(%rbp), %rax
 553      FEFFFF
 554 02d4 488B00   		movq	(%rax), %rax
 555 02d7 4883C010 		addq	$16, %rax
 556 02db 488B00   		movq	(%rax), %rax
 557 02de 488B9500 		movq	-512(%rbp), %rdx
 557      FEFFFF
 558 02e5 4889D7   		movq	%rdx, %rdi
 559 02e8 FFD0     		call	*%rax
 560              	.LVL1:
 561 02ea 4889C6   		movq	%rax, %rsi
 562 02ed 4889DF   		movq	%rbx, %rdi
 563 02f0 E8000000 		call	_ZStlsISt11char_traitsIcEERSt13basic_ostreamIcT_ES5_PKc@PLT
 563      00
 564              		.loc 3 34 0 discriminator 19
 565 02f5 E8000000 		call	_ZN8UnitTest11CurrentTest7ResultsEv@PLT
 565      00
 566 02fa 488B18   		movq	(%rax), %rbx
 567 02fd 488D8530 		leaq	-464(%rbp), %rax
 567      FEFFFF
 568 0304 4889C7   		movq	%rax, %rdi
 569 0307 E8000000 		call	_ZNK8UnitTest15MemoryOutStream7GetTextEv@PLT
 569      00
 570              		.loc 3 34 0 discriminator 21
 571 030c 4889C2   		movq	%rax, %rdx
 572 030f 488B85E8 		movq	-536(%rbp), %rax
 572      FDFFFF
 573 0316 4883C008 		addq	$8, %rax
 574 031a 4889C6   		movq	%rax, %rsi
 575 031d 4889DF   		movq	%rbx, %rdi
 576 0320 E8000000 		call	_ZN8UnitTest11TestResults13OnTestFailureERKNS_11TestDetailsEPKc@PLT
 576      00
 577              	.LEHE15:
 578              		.loc 3 34 0 discriminator 25
 579 0325 488D8530 		leaq	-464(%rbp), %rax
 579      FEFFFF
 580 032c 4889C7   		movq	%rax, %rdi
 581              	.LEHB16:
 582 032f E8000000 		call	_ZN8UnitTest15MemoryOutStreamD1Ev
 582      00
 583              	.LEHE16:
 584              	.LBE15:
 585              		.loc 3 34 0 discriminator 26
 586 0334 E8000000 		call	__cxa_end_catch@PLT
 586      00
 587              	.LBE14:
 588 0339 E9ED0000 		jmp	.L21
 588      00
 589              	.L41:
 590              		.loc 3 34 0
 591 033e 4889C7   		movq	%rax, %rdi
 592 0341 E8000000 		call	__cxa_begin_catch@PLT
 592      00
 593 0346 80BDFFFD 		cmpb	$0, -513(%rbp)
 593      FFFF00
 594 034d 7445     		je	.L28
 595              	.LEHB17:
 596              		.loc 3 34 0 discriminator 28
 597 034f E8000000 		call	_ZN8UnitTest11CurrentTest7ResultsEv@PLT
 597      00
 598 0354 488B18   		movq	(%rax), %rbx
 599 0357 488B85E8 		movq	-536(%rbp), %rax
 599      FDFFFF
 600 035e 488D4808 		leaq	8(%rax), %rcx
 601 0362 488D8510 		leaq	-496(%rbp), %rax
 601      FEFFFF
 602 0369 BA220000 		movl	$34, %edx
 602      00
 603 036e 4889CE   		movq	%rcx, %rsi
 604 0371 4889C7   		movq	%rax, %rdi
 605 0374 E8000000 		call	_ZN8UnitTest11TestDetailsC1ERKS0_i@PLT
 605      00
 606              		.loc 3 34 0 discriminator 33
 607 0379 488D8510 		leaq	-496(%rbp), %rax
 607      FEFFFF
 608 0380 488D1500 		leaq	.LC4(%rip), %rdx
 608      000000
 609 0387 4889C6   		movq	%rax, %rsi
 610 038a 4889DF   		movq	%rbx, %rdi
 611 038d E8000000 		call	_ZN8UnitTest11TestResults13OnTestFailureERKNS_11TestDetailsEPKc@PLT
 611      00
 612 0392 EB43     		jmp	.L29
 613              	.L28:
 614              		.loc 3 34 0 discriminator 29
 615 0394 E8000000 		call	_ZN8UnitTest11CurrentTest7ResultsEv@PLT
 615      00
 616 0399 488B18   		movq	(%rax), %rbx
 617 039c 488B85E8 		movq	-536(%rbp), %rax
 617      FDFFFF
 618 03a3 488D4808 		leaq	8(%rax), %rcx
 619 03a7 488D8510 		leaq	-496(%rbp), %rax
 619      FEFFFF
 620 03ae BA220000 		movl	$34, %edx
 620      00
 621 03b3 4889CE   		movq	%rcx, %rsi
 622 03b6 4889C7   		movq	%rax, %rdi
 623 03b9 E8000000 		call	_ZN8UnitTest11TestDetailsC1ERKS0_i@PLT
 623      00
 624              		.loc 3 34 0 discriminator 40
 625 03be 488D8510 		leaq	-496(%rbp), %rax
 625      FEFFFF
 626 03c5 488D1500 		leaq	.LC5(%rip), %rdx
 626      000000
 627 03cc 4889C6   		movq	%rax, %rsi
 628 03cf 4889DF   		movq	%rbx, %rdi
 629 03d2 E8000000 		call	_ZN8UnitTest11TestResults13OnTestFailureERKNS_11TestDetailsEPKc@PLT
 629      00
 630              	.LEHE17:
 631              	.L29:
 632              	.LEHB18:
 633              		.loc 3 34 0 discriminator 43
 634 03d7 E8000000 		call	__cxa_end_catch@PLT
 634      00
 635 03dc EB4D     		jmp	.L21
 636              	.L37:
 637 03de 4889C3   		movq	%rax, %rbx
 638              	.LBB17:
 639              		.loc 3 34 0
 640 03e1 E8000000 		call	__cxa_end_catch@PLT
 640      00
 641 03e6 4889D8   		movq	%rbx, %rax
 642 03e9 4889C7   		movq	%rax, %rdi
 643 03ec E8000000 		call	_Unwind_Resume@PLT
 643      00
 644              	.LEHE18:
 645              	.L39:
 646 03f1 4889C3   		movq	%rax, %rbx
 647              	.LBE17:
 648              	.LBB18:
 649              	.LBB16:
 650 03f4 488D8530 		leaq	-464(%rbp), %rax
 650      FEFFFF
 651 03fb 4889C7   		movq	%rax, %rdi
 652 03fe E8000000 		call	_ZN8UnitTest15MemoryOutStreamD1Ev
 652      00
 653 0403 EB03     		jmp	.L32
 654              	.L38:
 655 0405 4889C3   		movq	%rax, %rbx
 656              	.L32:
 657              	.LBE16:
 658 0408 E8000000 		call	__cxa_end_catch@PLT
 658      00
 659 040d 4889D8   		movq	%rbx, %rax
 660 0410 4889C7   		movq	%rax, %rdi
 661              	.LEHB19:
 662 0413 E8000000 		call	_Unwind_Resume@PLT
 662      00
 663              	.LEHE19:
 664              	.L40:
 665 0418 4889C3   		movq	%rax, %rbx
 666              	.LBE18:
 667 041b E8000000 		call	__cxa_end_catch@PLT
 667      00
 668 0420 4889D8   		movq	%rbx, %rax
 669 0423 4889C7   		movq	%rax, %rdi
 670              	.LEHB20:
 671 0426 E8000000 		call	_Unwind_Resume@PLT
 671      00
 672              	.LEHE20:
 673              	.L21:
 674 042b 488B45D8 		movq	-40(%rbp), %rax
 675 042f 64483304 		xorq	%fs:40, %rax
 675      25280000 
 675      00
 676 0438 7405     		je	.L34
 677 043a E8000000 		call	__stack_chk_fail@PLT
 677      00
 678              	.L34:
 679 043f 4881C408 		addq	$520, %rsp
 679      020000
 680 0446 5B       		popq	%rbx
 681 0447 415C     		popq	%r12
 682 0449 415D     		popq	%r13
 683 044b 5D       		popq	%rbp
 684              		.cfi_def_cfa 7, 8
 685 044c C3       		ret
 686              		.cfi_endproc
 687              	.LFE1367:
 688              		.section	.gcc_except_table
 689              		.align 4
 690              	.LLSDA1367:
 691 0020 FF       		.byte	0xff
 692 0021 9B       		.byte	0x9b
 693 0022 55       		.uleb128 .LLSDATT1367-.LLSDATTD1367
 694              	.LLSDATTD1367:
 695 0023 01       		.byte	0x1
 696 0024 3E       		.uleb128 .LLSDACSE1367-.LLSDACSB1367
 697              	.LLSDACSB1367:
 698 0025 45       		.uleb128 .LEHB10-.LFB1367
 699 0026 05       		.uleb128 .LEHE10-.LEHB10
 700 0027 9F01     		.uleb128 .L35-.LFB1367
 701 0029 05       		.uleb128 0x5
 702 002a 69       		.uleb128 .LEHB11-.LFB1367
 703 002b 05       		.uleb128 .LEHE11-.LEHB11
 704 002c 8201     		.uleb128 .L36-.LFB1367
 705 002e 07       		.uleb128 0x7
 706 002f 78       		.uleb128 .LEHB12-.LFB1367
 707 0030 05       		.uleb128 .LEHE12-.LEHB12
 708 0031 9F01     		.uleb128 .L35-.LFB1367
 709 0033 05       		.uleb128 0x5
 710 0034 C301     		.uleb128 .LEHB13-.LFB1367
 711 0036 8901     		.uleb128 .LEHE13-.LEHB13
 712 0038 9E05     		.uleb128 .L37-.LFB1367
 713 003a 00       		.uleb128 0
 714 003b EF02     		.uleb128 .LEHB14-.LFB1367
 715 003d 05       		.uleb128 .LEHE14-.LEHB14
 716 003e C505     		.uleb128 .L38-.LFB1367
 717 0040 00       		.uleb128 0
 718 0041 8503     		.uleb128 .LEHB15-.LFB1367
 719 0043 60       		.uleb128 .LEHE15-.LEHB15
 720 0044 B105     		.uleb128 .L39-.LFB1367
 721 0046 00       		.uleb128 0
 722 0047 EF03     		.uleb128 .LEHB16-.LFB1367
 723 0049 05       		.uleb128 .LEHE16-.LEHB16
 724 004a C505     		.uleb128 .L38-.LFB1367
 725 004c 00       		.uleb128 0
 726 004d 8F04     		.uleb128 .LEHB17-.LFB1367
 727 004f 8801     		.uleb128 .LEHE17-.LEHB17
 728 0051 D805     		.uleb128 .L40-.LFB1367
 729 0053 00       		.uleb128 0
 730 0054 9705     		.uleb128 .LEHB18-.LFB1367
 731 0056 1A       		.uleb128 .LEHE18-.LEHB18
 732 0057 00       		.uleb128 0
 733 0058 00       		.uleb128 0
 734 0059 D305     		.uleb128 .LEHB19-.LFB1367
 735 005b 05       		.uleb128 .LEHE19-.LEHB19
 736 005c 00       		.uleb128 0
 737 005d 00       		.uleb128 0
 738 005e E605     		.uleb128 .LEHB20-.LFB1367
 739 0060 05       		.uleb128 .LEHE20-.LEHB20
 740 0061 00       		.uleb128 0
 741 0062 00       		.uleb128 0
 742              	.LLSDACSE1367:
 743 0063 03       		.byte	0x3
 744 0064 00       		.byte	0
 745 0065 02       		.byte	0x2
 746 0066 7D       		.byte	0x7d
 747 0067 01       		.byte	0x1
 748 0068 7D       		.byte	0x7d
 749 0069 00       		.byte	0
 750 006a 7D       		.byte	0x7d
 751 006b 00       		.align 4
 752 006c 00000000 		.long	0
 753              	
 754 0070 00000000 		.long	DW.ref._ZTISt9exception-.
 755 0074 00000000 		.long	DW.ref._ZTIN8UnitTest15AssertExceptionE-.
 756              	.LLSDATT1367:
 757              		.text
 759              		.section	.rodata
 760              	.LC6:
 761 00e6 66696C65 		.string	"filename.h"
 761      6E616D65 
 761      2E6800
 762              	.LC7:
 763 00f1 73756974 		.string	"suite"
 763      6500
 764              	.LC8:
 765 00f7 54657374 		.string	"TestName"
 765      4E616D65 
 765      00
 766              	.LC9:
 767 0100 22222727 		.string	"\"\"''&&<<>>"
 767      26263C3C 
 767      3E3E00
 768 010b 00000000 		.align 8
 768      00
 769              	.LC11:
 770 0110 3C3F786D 		.string	"<?xml version=\"1.0\"?><unittest-results tests=\"1\" failedtests=\"2\" failures=\"3\" tim
 770      6C207665 
 770      7273696F 
 770      6E3D2231 
 770      2E30223F 
 771 020d 000000   		.align 8
 772              	.LC12:
 773 0210 556E6861 		.string	"Unhandled exception in CHECK_EQUAL(expected, output.str())"
 773      6E646C65 
 773      64206578 
 773      63657074 
 773      696F6E20 
 774              		.text
 775 044d 90       		.align 2
 777              	_ZN12_GLOBAL__N_156XmlTestReporterFixtureMultipleCharactersAreEscapedHelper7RunImplEv:
 778              	.LFB1371:
  35:TestXmlTestReporter.cpp **** {
 779              		.loc 3 35 0 is_stmt 1
 780              		.cfi_startproc
 781              		.cfi_personality 0x9b,DW.ref.__gxx_personality_v0
 782              		.cfi_lsda 0x1b,.LLSDA1371
 783 044e 55       		pushq	%rbp
 784              		.cfi_def_cfa_offset 16
 785              		.cfi_offset 6, -16
 786 044f 4889E5   		movq	%rsp, %rbp
 787              		.cfi_def_cfa_register 6
 788 0452 53       		pushq	%rbx
 789 0453 4881EC98 		subq	$152, %rsp
 789      000000
 790              		.cfi_offset 3, -24
 791 045a 4889BD68 		movq	%rdi, -152(%rbp)
 791      FFFFFF
 792              		.loc 3 35 0
 793 0461 64488B04 		movq	%fs:40, %rax
 793      25280000 
 793      00
 794 046a 488945E8 		movq	%rax, -24(%rbp)
 795 046e 31C0     		xorl	%eax, %eax
  36:TestXmlTestReporter.cpp ****     TestDetails const details("TestName", "suite", "filename.h", 4321);
 796              		.loc 3 36 0
 797 0470 488D4580 		leaq	-128(%rbp), %rax
 798 0474 41B8E110 		movl	$4321, %r8d
 798      0000
 799 047a 488D0D00 		leaq	.LC6(%rip), %rcx
 799      000000
 800 0481 488D1500 		leaq	.LC7(%rip), %rdx
 800      000000
 801 0488 488D3500 		leaq	.LC8(%rip), %rsi
 801      000000
 802 048f 4889C7   		movq	%rax, %rdi
 803              	.LEHB21:
 804 0492 E8000000 		call	_ZN8UnitTest11TestDetailsC1EPKcS2_S2_i@PLT
 804      00
  37:TestXmlTestReporter.cpp **** 
  38:TestXmlTestReporter.cpp ****     reporter.ReportTestStart(details);
 805              		.loc 3 38 0
 806 0497 488B8568 		movq	-152(%rbp), %rax
 806      FFFFFF
 807 049e 488D9078 		leaq	376(%rax), %rdx
 807      010000
 808 04a5 488D4580 		leaq	-128(%rbp), %rax
 809 04a9 4889C6   		movq	%rax, %rsi
 810 04ac 4889D7   		movq	%rdx, %rdi
 811 04af E8000000 		call	_ZN8UnitTest20DeferredTestReporter15ReportTestStartERKNS_11TestDetailsE@PLT
 811      00
  39:TestXmlTestReporter.cpp ****     reporter.ReportFailure(details, "\"\"\'\'&&<<>>");
 812              		.loc 3 39 0
 813 04b4 488B8568 		movq	-152(%rbp), %rax
 813      FFFFFF
 814 04bb 488D8878 		leaq	376(%rax), %rcx
 814      010000
 815 04c2 488D4580 		leaq	-128(%rbp), %rax
 816 04c6 488D1500 		leaq	.LC9(%rip), %rdx
 816      000000
 817 04cd 4889C6   		movq	%rax, %rsi
 818 04d0 4889CF   		movq	%rcx, %rdi
 819 04d3 E8000000 		call	_ZN8UnitTest20DeferredTestReporter13ReportFailureERKNS_11TestDetailsEPKc@PLT
 819      00
  40:TestXmlTestReporter.cpp ****     reporter.ReportTestFinish(details, 0.1f);
 820              		.loc 3 40 0
 821 04d8 488B8568 		movq	-152(%rbp), %rax
 821      FFFFFF
 822 04df 488D9078 		leaq	376(%rax), %rdx
 822      010000
 823 04e6 488D4580 		leaq	-128(%rbp), %rax
 824 04ea F30F1005 		movss	.LC10(%rip), %xmm0
 824      00000000 
 825 04f2 4889C6   		movq	%rax, %rsi
 826 04f5 4889D7   		movq	%rdx, %rdi
 827 04f8 E8000000 		call	_ZN8UnitTest20DeferredTestReporter16ReportTestFinishERKNS_11TestDetailsEf@PLT
 827      00
  41:TestXmlTestReporter.cpp ****     reporter.ReportSummary(1, 2, 3, 0.1f);
 828              		.loc 3 41 0
 829 04fd 488B8568 		movq	-152(%rbp), %rax
 829      FFFFFF
 830 0504 48057801 		addq	$376, %rax
 830      0000
 831 050a F30F1005 		movss	.LC10(%rip), %xmm0
 831      00000000 
 832 0512 B9030000 		movl	$3, %ecx
 832      00
 833 0517 BA020000 		movl	$2, %edx
 833      00
 834 051c BE010000 		movl	$1, %esi
 834      00
 835 0521 4889C7   		movq	%rax, %rdi
 836 0524 E8000000 		call	_ZN8UnitTest15XmlTestReporter13ReportSummaryEiiif@PLT
 836      00
 837              	.LEHE21:
  42:TestXmlTestReporter.cpp **** 
  43:TestXmlTestReporter.cpp ****     char const* expected =
 838              		.loc 3 43 0
 839 0529 488D0500 		leaq	.LC11(%rip), %rax
 839      000000
 840 0530 48898578 		movq	%rax, -136(%rbp)
 840      FFFFFF
 841              	.LEHB22:
  44:TestXmlTestReporter.cpp ****         "<?xml version=\"1.0\"?>"
  45:TestXmlTestReporter.cpp ****         "<unittest-results tests=\"1\" failedtests=\"2\" failures=\"3\" time=\"0.1\">"
  46:TestXmlTestReporter.cpp ****         "<test suite=\"suite\" name=\"TestName\" time=\"0.1\">"
  47:TestXmlTestReporter.cpp ****         "<failure message=\"filename.h(4321) : "
  48:TestXmlTestReporter.cpp ****         "&quot;&quot;&apos;&apos;&amp;&amp;&lt;&lt;&gt;&gt;\"/>"
  49:TestXmlTestReporter.cpp ****         "</test>"
  50:TestXmlTestReporter.cpp ****         "</unittest-results>";
  51:TestXmlTestReporter.cpp **** 
  52:TestXmlTestReporter.cpp ****     CHECK_EQUAL(expected, output.str());
 842              		.loc 3 52 0
 843 0537 E8000000 		call	_ZN8UnitTest11CurrentTest7DetailsEv@PLT
 843      00
 844 053c 488B08   		movq	(%rax), %rcx
 845 053f 488D45A0 		leaq	-96(%rbp), %rax
 846 0543 BA340000 		movl	$52, %edx
 846      00
 847 0548 4889CE   		movq	%rcx, %rsi
 848 054b 4889C7   		movq	%rax, %rdi
 849 054e E8000000 		call	_ZN8UnitTest11TestDetailsC1ERKS0_i@PLT
 849      00
 850              		.loc 3 52 0 is_stmt 0 discriminator 2
 851 0553 488B9568 		movq	-152(%rbp), %rdx
 851      FFFFFF
 852 055a 488D45C0 		leaq	-64(%rbp), %rax
 853 055e 4889D6   		movq	%rdx, %rsi
 854 0561 4889C7   		movq	%rax, %rdi
 855 0564 E8000000 		call	_ZNKSt7__cxx1119basic_ostringstreamIcSt11char_traitsIcESaIcEE3strEv@PLT
 855      00
 856              	.LEHE22:
 857              	.LEHB23:
 858              		.loc 3 52 0 discriminator 4
 859 0569 E8000000 		call	_ZN8UnitTest11CurrentTest7ResultsEv@PLT
 859      00
 860 056e 488B00   		movq	(%rax), %rax
 861 0571 488D4DA0 		leaq	-96(%rbp), %rcx
 862 0575 488D55C0 		leaq	-64(%rbp), %rdx
 863 0579 488DB578 		leaq	-136(%rbp), %rsi
 863      FFFFFF
 864 0580 4889C7   		movq	%rax, %rdi
 865 0583 E8000000 		call	_ZN8UnitTest10CheckEqualIPKcNSt7__cxx1112basic_stringIcSt11char_traitsIcESaIcEEEEEvRNS_11Test
 865      00
 866              	.LEHE23:
 867              		.loc 3 52 0 discriminator 8
 868 0588 488D45C0 		leaq	-64(%rbp), %rax
 869 058c 4889C7   		movq	%rax, %rdi
 870              	.LEHB24:
 871 058f E8000000 		call	_ZNSt7__cxx1112basic_stringIcSt11char_traitsIcESaIcEED1Ev@PLT
 871      00
 872              	.LEHE24:
  53:TestXmlTestReporter.cpp **** }
 873              		.loc 3 53 0 is_stmt 1
 874 0594 EB70     		jmp	.L42
 875              	.L49:
 876 0596 4889C3   		movq	%rax, %rbx
  52:TestXmlTestReporter.cpp **** }
 877              		.loc 3 52 0
 878 0599 488D45C0 		leaq	-64(%rbp), %rax
 879 059d 4889C7   		movq	%rax, %rdi
 880 05a0 E8000000 		call	_ZNSt7__cxx1112basic_stringIcSt11char_traitsIcESaIcEED1Ev@PLT
 880      00
 881 05a5 4889D8   		movq	%rbx, %rax
 882 05a8 EB00     		jmp	.L44
 883              	.L48:
 884              	.L44:
 885 05aa 4889C7   		movq	%rax, %rdi
 886 05ad E8000000 		call	__cxa_begin_catch@PLT
 886      00
 887              	.LEHB25:
 888 05b2 E8000000 		call	_ZN8UnitTest11CurrentTest7ResultsEv@PLT
 888      00
 889 05b7 488B18   		movq	(%rax), %rbx
 890 05ba E8000000 		call	_ZN8UnitTest11CurrentTest7DetailsEv@PLT
 890      00
  52:TestXmlTestReporter.cpp **** }
 891              		.loc 3 52 0 is_stmt 0 discriminator 12
 892 05bf 488B08   		movq	(%rax), %rcx
 893 05c2 488D45A0 		leaq	-96(%rbp), %rax
 894 05c6 BA340000 		movl	$52, %edx
 894      00
 895 05cb 4889CE   		movq	%rcx, %rsi
 896 05ce 4889C7   		movq	%rax, %rdi
 897 05d1 E8000000 		call	_ZN8UnitTest11TestDetailsC1ERKS0_i@PLT
 897      00
  52:TestXmlTestReporter.cpp **** }
 898              		.loc 3 52 0 discriminator 16
 899 05d6 488D45A0 		leaq	-96(%rbp), %rax
 900 05da 488D1500 		leaq	.LC12(%rip), %rdx
 900      000000
 901 05e1 4889C6   		movq	%rax, %rsi
 902 05e4 4889DF   		movq	%rbx, %rdi
 903 05e7 E8000000 		call	_ZN8UnitTest11TestResults13OnTestFailureERKNS_11TestDetailsEPKc@PLT
 903      00
 904              	.LEHE25:
 905              	.LEHB26:
  52:TestXmlTestReporter.cpp **** }
 906              		.loc 3 52 0 discriminator 18
 907 05ec E8000000 		call	__cxa_end_catch@PLT
 907      00
 908              	.LEHE26:
 909              		.loc 3 53 0 is_stmt 1 discriminator 18
 910 05f1 EB13     		jmp	.L42
 911              	.L50:
 912 05f3 4889C3   		movq	%rax, %rbx
  52:TestXmlTestReporter.cpp **** }
 913              		.loc 3 52 0
 914 05f6 E8000000 		call	__cxa_end_catch@PLT
 914      00
 915 05fb 4889D8   		movq	%rbx, %rax
 916 05fe 4889C7   		movq	%rax, %rdi
 917              	.LEHB27:
 918 0601 E8000000 		call	_Unwind_Resume@PLT
 918      00
 919              	.LEHE27:
 920              	.L42:
 921              		.loc 3 53 0
 922 0606 488B45E8 		movq	-24(%rbp), %rax
 923 060a 64483304 		xorq	%fs:40, %rax
 923      25280000 
 923      00
 924 0613 7405     		je	.L47
 925 0615 E8000000 		call	__stack_chk_fail@PLT
 925      00
 926              	.L47:
 927 061a 4881C498 		addq	$152, %rsp
 927      000000
 928 0621 5B       		popq	%rbx
 929 0622 5D       		popq	%rbp
 930              		.cfi_def_cfa 7, 8
 931 0623 C3       		ret
 932              		.cfi_endproc
 933              	.LFE1371:
 934              		.section	.gcc_except_table
 935              		.align 4
 936              	.LLSDA1371:
 937 0078 FF       		.byte	0xff
 938 0079 9B       		.byte	0x9b
 939 007a 31       		.uleb128 .LLSDATT1371-.LLSDATTD1371
 940              	.LLSDATTD1371:
 941 007b 01       		.byte	0x1
 942 007c 27       		.uleb128 .LLSDACSE1371-.LLSDACSB1371
 943              	.LLSDACSB1371:
 944 007d 44       		.uleb128 .LEHB21-.LFB1371
 945 007e 9701     		.uleb128 .LEHE21-.LEHB21
 946 0080 00       		.uleb128 0
 947 0081 00       		.uleb128 0
 948 0082 E901     		.uleb128 .LEHB22-.LFB1371
 949 0084 32       		.uleb128 .LEHE22-.LEHB22
 950 0085 DC02     		.uleb128 .L48-.LFB1371
 951 0087 01       		.uleb128 0x1
 952 0088 9B02     		.uleb128 .LEHB23-.LFB1371
 953 008a 1F       		.uleb128 .LEHE23-.LEHB23
 954 008b C802     		.uleb128 .L49-.LFB1371
 955 008d 03       		.uleb128 0x3
 956 008e C102     		.uleb128 .LEHB24-.LFB1371
 957 0090 05       		.uleb128 .LEHE24-.LEHB24
 958 0091 DC02     		.uleb128 .L48-.LFB1371
 959 0093 01       		.uleb128 0x1
 960 0094 E402     		.uleb128 .LEHB25-.LFB1371
 961 0096 3A       		.uleb128 .LEHE25-.LEHB25
 962 0097 A503     		.uleb128 .L50-.LFB1371
 963 0099 00       		.uleb128 0
 964 009a 9E03     		.uleb128 .LEHB26-.LFB1371
 965 009c 05       		.uleb128 .LEHE26-.LEHB26
 966 009d 00       		.uleb128 0
 967 009e 00       		.uleb128 0
 968 009f B303     		.uleb128 .LEHB27-.LFB1371
 969 00a1 05       		.uleb128 .LEHE27-.LEHB27
 970 00a2 00       		.uleb128 0
 971 00a3 00       		.uleb128 0
 972              	.LLSDACSE1371:
 973 00a4 01       		.byte	0x1
 974 00a5 00       		.byte	0
 975 00a6 00       		.byte	0
 976 00a7 7D       		.byte	0x7d
 977              		.align 4
 978 00a8 00000000 		.long	0
 979              	
 980              	.LLSDATT1371:
 981              		.text
 983              		.align 2
 985              	_ZN12_GLOBAL__N_168XmlTestReporterFixtureOutputIsCachedUntilReportSummaryIsCalledHelperC2ERKN8UnitT
 986              	.LFB1373:
  54:TestXmlTestReporter.cpp **** 
  55:TestXmlTestReporter.cpp **** TEST_FIXTURE(XmlTestReporterFixture, OutputIsCachedUntilReportSummaryIsCalled)
 987              		.loc 3 55 0
 988              		.cfi_startproc
 989 0624 55       		pushq	%rbp
 990              		.cfi_def_cfa_offset 16
 991              		.cfi_offset 6, -16
 992 0625 4889E5   		movq	%rsp, %rbp
 993              		.cfi_def_cfa_register 6
 994 0628 4883EC10 		subq	$16, %rsp
 995 062c 48897DF8 		movq	%rdi, -8(%rbp)
 996 0630 488975F0 		movq	%rsi, -16(%rbp)
 997              	.LBB19:
 998              		.loc 3 55 0
 999 0634 488B45F8 		movq	-8(%rbp), %rax
 1000 0638 4889C7   		movq	%rax, %rdi
 1001 063b E8C0F9FF 		call	_ZN12_GLOBAL__N_122XmlTestReporterFixtureC2Ev
 1001      FF
 1002 0640 488B45F8 		movq	-8(%rbp), %rax
 1003 0644 488B55F0 		movq	-16(%rbp), %rdx
 1004 0648 488990A0 		movq	%rdx, 416(%rax)
 1004      010000
 1005              	.LBE19:
 1006 064f 90       		nop
 1007 0650 C9       		leave
 1008              		.cfi_def_cfa 7, 8
 1009 0651 C3       		ret
 1010              		.cfi_endproc
 1011              	.LFE1373:
 1013              		.set	_ZN12_GLOBAL__N_168XmlTestReporterFixtureOutputIsCachedUntilReportSummaryIsCalledHelperC1ERKN
 1014              		.section	.rodata
 1015 024b 00000000 		.align 8
 1015      00
 1016              	.LC13:
 1017 0250 4F757470 		.string	"OutputIsCachedUntilReportSummaryIsCalled"
 1017      75744973 
 1017      43616368 
 1017      6564556E 
 1017      74696C52 
 1018              		.text
 1019              		.align 2
 1021              	_ZN12_GLOBAL__N_166TestXmlTestReporterFixtureOutputIsCachedUntilReportSummaryIsCalledC2Ev:
 1022              	.LFB1376:
 1023              		.loc 3 55 0
 1024              		.cfi_startproc
 1025 0652 55       		pushq	%rbp
 1026              		.cfi_def_cfa_offset 16
 1027              		.cfi_offset 6, -16
 1028 0653 4889E5   		movq	%rsp, %rbp
 1029              		.cfi_def_cfa_register 6
 1030 0656 53       		pushq	%rbx
 1031 0657 4883EC18 		subq	$24, %rsp
 1032              		.cfi_offset 3, -24
 1033 065b 48897DE8 		movq	%rdi, -24(%rbp)
 1034              	.LBB20:
 1035              		.loc 3 55 0
 1036 065f 488B5DE8 		movq	-24(%rbp), %rbx
 1037 0663 E8000000 		call	_ZN13UnitTestSuite12GetSuiteNameEv
 1037      00
 1038 0668 41B83700 		movl	$55, %r8d
 1038      0000
 1039 066e 488D0D00 		leaq	.LC1(%rip), %rcx
 1039      000000
 1040 0675 4889C2   		movq	%rax, %rdx
 1041 0678 488D3500 		leaq	.LC13(%rip), %rsi
 1041      000000
 1042 067f 4889DF   		movq	%rbx, %rdi
 1043 0682 E8000000 		call	_ZN8UnitTest4TestC2EPKcS2_S2_i@PLT
 1043      00
 1044 0687 488D1500 		leaq	16+_ZTVN12_GLOBAL__N_166TestXmlTestReporterFixtureOutputIsCachedUntilReportSummaryIsCalledE(%
 1044      000000
 1045 068e 488B45E8 		movq	-24(%rbp), %rax
 1046 0692 488910   		movq	%rdx, (%rax)
 1047              	.LBE20:
 1048 0695 90       		nop
 1049 0696 4883C418 		addq	$24, %rsp
 1050 069a 5B       		popq	%rbx
 1051 069b 5D       		popq	%rbp
 1052              		.cfi_def_cfa 7, 8
 1053 069c C3       		ret
 1054              		.cfi_endproc
 1055              	.LFE1376:
 1057              		.set	_ZN12_GLOBAL__N_166TestXmlTestReporterFixtureOutputIsCachedUntilReportSummaryIsCalledC1Ev,_ZN
 1058              		.local	_ZN12_GLOBAL__N_174testXmlTestReporterFixtureOutputIsCachedUntilReportSummaryIsCalledInstan
 1059              		.comm	_ZN12_GLOBAL__N_174testXmlTestReporterFixtureOutputIsCachedUntilReportSummaryIsCalledInstanc
 1060              		.local	_ZN12_GLOBAL__N_167adderXmlTestReporterFixtureOutputIsCachedUntilReportSummaryIsCalledE
 1061              		.comm	_ZN12_GLOBAL__N_167adderXmlTestReporterFixtureOutputIsCachedUntilReportSummaryIsCalledE,1,1
 1062 069d 90       		.align 2
 1064              	_ZN12_GLOBAL__N_168XmlTestReporterFixtureOutputIsCachedUntilReportSummaryIsCalledHelperD2Ev:
 1065              	.LFB1380:
 1066              		.loc 3 55 0
 1067              		.cfi_startproc
 1068 069e 55       		pushq	%rbp
 1069              		.cfi_def_cfa_offset 16
 1070              		.cfi_offset 6, -16
 1071 069f 4889E5   		movq	%rsp, %rbp
 1072              		.cfi_def_cfa_register 6
 1073 06a2 4883EC10 		subq	$16, %rsp
 1074 06a6 48897DF8 		movq	%rdi, -8(%rbp)
 1075              	.LBB21:
 1076              		.loc 3 55 0
 1077 06aa 488B45F8 		movq	-8(%rbp), %rax
 1078 06ae 4889C7   		movq	%rax, %rdi
 1079 06b1 E8A6F9FF 		call	_ZN12_GLOBAL__N_122XmlTestReporterFixtureD2Ev
 1079      FF
 1080              	.LBE21:
 1081 06b6 90       		nop
 1082 06b7 C9       		leave
 1083              		.cfi_def_cfa 7, 8
 1084 06b8 C3       		ret
 1085              		.cfi_endproc
 1086              	.LFE1380:
 1088              		.set	_ZN12_GLOBAL__N_168XmlTestReporterFixtureOutputIsCachedUntilReportSummaryIsCalledHelperD1Ev,_
 1089 06b9 90       		.align 2
 1091              	_ZNK12_GLOBAL__N_166TestXmlTestReporterFixtureOutputIsCachedUntilReportSummaryIsCalled7RunImplEv:
 1092              	.LFB1378:
 1093              		.loc 3 55 0
 1094              		.cfi_startproc
 1095              		.cfi_personality 0x9b,DW.ref.__gxx_personality_v0
 1096              		.cfi_lsda 0x1b,.LLSDA1378
 1097 06ba 55       		pushq	%rbp
 1098              		.cfi_def_cfa_offset 16
 1099              		.cfi_offset 6, -16
 1100 06bb 4889E5   		movq	%rsp, %rbp
 1101              		.cfi_def_cfa_register 6
 1102 06be 4155     		pushq	%r13
 1103 06c0 4154     		pushq	%r12
 1104 06c2 53       		pushq	%rbx
 1105 06c3 4881EC08 		subq	$520, %rsp
 1105      020000
 1106              		.cfi_offset 13, -24
 1107              		.cfi_offset 12, -32
 1108              		.cfi_offset 3, -40
 1109 06ca 4889BDE8 		movq	%rdi, -536(%rbp)
 1109      FDFFFF
 1110              		.loc 3 55 0
 1111 06d1 64488B04 		movq	%fs:40, %rax
 1111      25280000 
 1111      00
 1112 06da 488945D8 		movq	%rax, -40(%rbp)
 1113 06de 31C0     		xorl	%eax, %eax
 1114 06e0 C685FFFD 		movb	$0, -513(%rbp)
 1114      FFFF00
 1115              	.LBB22:
 1116 06e7 488B85E8 		movq	-536(%rbp), %rax
 1116      FDFFFF
 1117 06ee 488D5008 		leaq	8(%rax), %rdx
 1118 06f2 488D8530 		leaq	-464(%rbp), %rax
 1118      FEFFFF
 1119 06f9 4889D6   		movq	%rdx, %rsi
 1120 06fc 4889C7   		movq	%rax, %rdi
 1121              	.LEHB28:
 1122 06ff E820FFFF 		call	_ZN12_GLOBAL__N_168XmlTestReporterFixtureOutputIsCachedUntilReportSummaryIsCalledHelperC1ERKN
 1122      FF
 1123              	.LEHE28:
 1124              		.loc 3 55 0 is_stmt 0 discriminator 1
 1125 0704 C685FFFD 		movb	$1, -513(%rbp)
 1125      FFFF01
 1126 070b 488B85E8 		movq	-536(%rbp), %rax
 1126      FDFFFF
 1127 0712 488D5008 		leaq	8(%rax), %rdx
 1128 0716 488D8530 		leaq	-464(%rbp), %rax
 1128      FEFFFF
 1129 071d 4889D6   		movq	%rdx, %rsi
 1130 0720 4889C7   		movq	%rax, %rdi
 1131              	.LEHB29:
 1132 0723 E8E42800 		call	_ZN8UnitTest11ExecuteTestIN12_GLOBAL__N_168XmlTestReporterFixtureOutputIsCachedUntilReportSum
 1132      00
 1133              	.LEHE29:
 1134              		.loc 3 55 0 discriminator 3
 1135 0728 488D8530 		leaq	-464(%rbp), %rax
 1135      FEFFFF
 1136 072f 4889C7   		movq	%rax, %rdi
 1137              	.LEHB30:
 1138 0732 E867FFFF 		call	_ZN12_GLOBAL__N_168XmlTestReporterFixtureOutputIsCachedUntilReportSummaryIsCalledHelperD1Ev
 1138      FF
 1139              	.LEHE30:
 1140              	.LBE22:
 1141              		.loc 3 55 0
 1142 0737 E9690200 		jmp	.L54
 1142      00
 1143              	.L69:
 1144 073c 4989C4   		movq	%rax, %r12
 1145 073f 4889D3   		movq	%rdx, %rbx
 1146              	.LBB23:
 1147 0742 488D8530 		leaq	-464(%rbp), %rax
 1147      FEFFFF
 1148 0749 4889C7   		movq	%rax, %rdi
 1149 074c E84DFFFF 		call	_ZN12_GLOBAL__N_168XmlTestReporterFixtureOutputIsCachedUntilReportSummaryIsCalledHelperD1Ev
 1149      FF
 1150 0751 4C89E0   		movq	%r12, %rax
 1151 0754 4889DA   		movq	%rbx, %rdx
 1152 0757 EB00     		jmp	.L56
 1153              	.L68:
 1154              	.L56:
 1155 0759 4883FA01 		cmpq	$1, %rdx
 1156 075d 740F     		je	.L58
 1157 075f 4883FA02 		cmpq	$2, %rdx
 1158 0763 0F84A700 		je	.L59
 1158      0000
 1159 0769 E94A0100 		jmp	.L74
 1159      00
 1160              	.L58:
 1161              	.LBE23:
 1162              	.LBB24:
 1163 076e 4889C7   		movq	%rax, %rdi
 1164 0771 E8000000 		call	__cxa_begin_catch@PLT
 1164      00
 1165 0776 48898508 		movq	%rax, -504(%rbp)
 1165      FEFFFF
 1166              	.LEHB31:
 1167 077d E8000000 		call	_ZN8UnitTest11CurrentTest7ResultsEv@PLT
 1167      00
 1168 0782 488B18   		movq	(%rax), %rbx
 1169 0785 488B8508 		movq	-504(%rbp), %rax
 1169      FEFFFF
 1170 078c 488B00   		movq	(%rax), %rax
 1171 078f 4883C010 		addq	$16, %rax
 1172 0793 488B00   		movq	(%rax), %rax
 1173 0796 488B9508 		movq	-504(%rbp), %rdx
 1173      FEFFFF
 1174 079d 4889D7   		movq	%rdx, %rdi
 1175 07a0 FFD0     		call	*%rax
 1176              	.LVL2:
 1177 07a2 4989C4   		movq	%rax, %r12
 1178 07a5 488B8508 		movq	-504(%rbp), %rax
 1178      FEFFFF
 1179 07ac 4889C7   		movq	%rax, %rdi
 1180 07af E8000000 		call	_ZNK8UnitTest15AssertException10LineNumberEv@PLT
 1180      00
 1181              		.loc 3 55 0 discriminator 5
 1182 07b4 4189C5   		movl	%eax, %r13d
 1183 07b7 488B8508 		movq	-504(%rbp), %rax
 1183      FEFFFF
 1184 07be 4889C7   		movq	%rax, %rdi
 1185 07c1 E8000000 		call	_ZNK8UnitTest15AssertException8FilenameEv@PLT
 1185      00
 1186              		.loc 3 55 0 discriminator 7
 1187 07c6 4889C1   		movq	%rax, %rcx
 1188 07c9 488B85E8 		movq	-536(%rbp), %rax
 1188      FDFFFF
 1189 07d0 488B5008 		movq	8(%rax), %rdx
 1190 07d4 488B85E8 		movq	-536(%rbp), %rax
 1190      FDFFFF
 1191 07db 488B7010 		movq	16(%rax), %rsi
 1192 07df 488D8510 		leaq	-496(%rbp), %rax
 1192      FEFFFF
 1193 07e6 4589E8   		movl	%r13d, %r8d
 1194 07e9 4889C7   		movq	%rax, %rdi
 1195 07ec E8000000 		call	_ZN8UnitTest11TestDetailsC1EPKcS2_S2_i@PLT
 1195      00
 1196              		.loc 3 55 0 discriminator 11
 1197 07f1 488D8510 		leaq	-496(%rbp), %rax
 1197      FEFFFF
 1198 07f8 4C89E2   		movq	%r12, %rdx
 1199 07fb 4889C6   		movq	%rax, %rsi
 1200 07fe 4889DF   		movq	%rbx, %rdi
 1201 0801 E8000000 		call	_ZN8UnitTest11TestResults13OnTestFailureERKNS_11TestDetailsEPKc@PLT
 1201      00
 1202              	.LEHE31:
 1203              		.loc 3 55 0 discriminator 13
 1204 0806 E8000000 		call	__cxa_end_catch@PLT
 1204      00
 1205              	.LBE24:
 1206 080b E9950100 		jmp	.L54
 1206      00
 1207              	.L59:
 1208              	.LBB25:
 1209              		.loc 3 55 0
 1210 0810 4889C7   		movq	%rax, %rdi
 1211 0813 E8000000 		call	__cxa_begin_catch@PLT
 1211      00
 1212 0818 48898500 		movq	%rax, -512(%rbp)
 1212      FEFFFF
 1213              	.LBB26:
 1214 081f 488D8530 		leaq	-464(%rbp), %rax
 1214      FEFFFF
 1215 0826 4889C7   		movq	%rax, %rdi
 1216              	.LEHB32:
 1217 0829 E8000000 		call	_ZN8UnitTest15MemoryOutStreamC1Ev
 1217      00
 1218              	.LEHE32:
 1219              		.loc 3 55 0 discriminator 15
 1220 082e 488D8530 		leaq	-464(%rbp), %rax
 1220      FEFFFF
 1221 0835 488D3500 		leaq	.LC3(%rip), %rsi
 1221      000000
 1222 083c 4889C7   		movq	%rax, %rdi
 1223              	.LEHB33:
 1224 083f E8000000 		call	_ZStlsISt11char_traitsIcEERSt13basic_ostreamIcT_ES5_PKc@PLT
 1224      00
 1225 0844 4889C3   		movq	%rax, %rbx
 1226 0847 488B8500 		movq	-512(%rbp), %rax
 1226      FEFFFF
 1227 084e 488B00   		movq	(%rax), %rax
 1228 0851 4883C010 		addq	$16, %rax
 1229 0855 488B00   		movq	(%rax), %rax
 1230 0858 488B9500 		movq	-512(%rbp), %rdx
 1230      FEFFFF
 1231 085f 4889D7   		movq	%rdx, %rdi
 1232 0862 FFD0     		call	*%rax
 1233              	.LVL3:
 1234 0864 4889C6   		movq	%rax, %rsi
 1235 0867 4889DF   		movq	%rbx, %rdi
 1236 086a E8000000 		call	_ZStlsISt11char_traitsIcEERSt13basic_ostreamIcT_ES5_PKc@PLT
 1236      00
 1237              		.loc 3 55 0 discriminator 19
 1238 086f E8000000 		call	_ZN8UnitTest11CurrentTest7ResultsEv@PLT
 1238      00
 1239 0874 488B18   		movq	(%rax), %rbx
 1240 0877 488D8530 		leaq	-464(%rbp), %rax
 1240      FEFFFF
 1241 087e 4889C7   		movq	%rax, %rdi
 1242 0881 E8000000 		call	_ZNK8UnitTest15MemoryOutStream7GetTextEv@PLT
 1242      00
 1243              		.loc 3 55 0 discriminator 21
 1244 0886 4889C2   		movq	%rax, %rdx
 1245 0889 488B85E8 		movq	-536(%rbp), %rax
 1245      FDFFFF
 1246 0890 4883C008 		addq	$8, %rax
 1247 0894 4889C6   		movq	%rax, %rsi
 1248 0897 4889DF   		movq	%rbx, %rdi
 1249 089a E8000000 		call	_ZN8UnitTest11TestResults13OnTestFailureERKNS_11TestDetailsEPKc@PLT
 1249      00
 1250              	.LEHE33:
 1251              		.loc 3 55 0 discriminator 25
 1252 089f 488D8530 		leaq	-464(%rbp), %rax
 1252      FEFFFF
 1253 08a6 4889C7   		movq	%rax, %rdi
 1254              	.LEHB34:
 1255 08a9 E8000000 		call	_ZN8UnitTest15MemoryOutStreamD1Ev
 1255      00
 1256              	.LEHE34:
 1257              	.LBE26:
 1258              		.loc 3 55 0 discriminator 26
 1259 08ae E8000000 		call	__cxa_end_catch@PLT
 1259      00
 1260              	.LBE25:
 1261 08b3 E9ED0000 		jmp	.L54
 1261      00
 1262              	.L74:
 1263              		.loc 3 55 0
 1264 08b8 4889C7   		movq	%rax, %rdi
 1265 08bb E8000000 		call	__cxa_begin_catch@PLT
 1265      00
 1266 08c0 80BDFFFD 		cmpb	$0, -513(%rbp)
 1266      FFFF00
 1267 08c7 7445     		je	.L61
 1268              	.LEHB35:
 1269              		.loc 3 55 0 discriminator 28
 1270 08c9 E8000000 		call	_ZN8UnitTest11CurrentTest7ResultsEv@PLT
 1270      00
 1271 08ce 488B18   		movq	(%rax), %rbx
 1272 08d1 488B85E8 		movq	-536(%rbp), %rax
 1272      FDFFFF
 1273 08d8 488D4808 		leaq	8(%rax), %rcx
 1274 08dc 488D8510 		leaq	-496(%rbp), %rax
 1274      FEFFFF
 1275 08e3 BA370000 		movl	$55, %edx
 1275      00
 1276 08e8 4889CE   		movq	%rcx, %rsi
 1277 08eb 4889C7   		movq	%rax, %rdi
 1278 08ee E8000000 		call	_ZN8UnitTest11TestDetailsC1ERKS0_i@PLT
 1278      00
 1279              		.loc 3 55 0 discriminator 33
 1280 08f3 488D8510 		leaq	-496(%rbp), %rax
 1280      FEFFFF
 1281 08fa 488D1500 		leaq	.LC4(%rip), %rdx
 1281      000000
 1282 0901 4889C6   		movq	%rax, %rsi
 1283 0904 4889DF   		movq	%rbx, %rdi
 1284 0907 E8000000 		call	_ZN8UnitTest11TestResults13OnTestFailureERKNS_11TestDetailsEPKc@PLT
 1284      00
 1285 090c EB43     		jmp	.L62
 1286              	.L61:
 1287              		.loc 3 55 0 discriminator 29
 1288 090e E8000000 		call	_ZN8UnitTest11CurrentTest7ResultsEv@PLT
 1288      00
 1289 0913 488B18   		movq	(%rax), %rbx
 1290 0916 488B85E8 		movq	-536(%rbp), %rax
 1290      FDFFFF
 1291 091d 488D4808 		leaq	8(%rax), %rcx
 1292 0921 488D8510 		leaq	-496(%rbp), %rax
 1292      FEFFFF
 1293 0928 BA370000 		movl	$55, %edx
 1293      00
 1294 092d 4889CE   		movq	%rcx, %rsi
 1295 0930 4889C7   		movq	%rax, %rdi
 1296 0933 E8000000 		call	_ZN8UnitTest11TestDetailsC1ERKS0_i@PLT
 1296      00
 1297              		.loc 3 55 0 discriminator 40
 1298 0938 488D8510 		leaq	-496(%rbp), %rax
 1298      FEFFFF
 1299 093f 488D1500 		leaq	.LC5(%rip), %rdx
 1299      000000
 1300 0946 4889C6   		movq	%rax, %rsi
 1301 0949 4889DF   		movq	%rbx, %rdi
 1302 094c E8000000 		call	_ZN8UnitTest11TestResults13OnTestFailureERKNS_11TestDetailsEPKc@PLT
 1302      00
 1303              	.LEHE35:
 1304              	.L62:
 1305              	.LEHB36:
 1306              		.loc 3 55 0 discriminator 43
 1307 0951 E8000000 		call	__cxa_end_catch@PLT
 1307      00
 1308 0956 EB4D     		jmp	.L54
 1309              	.L70:
 1310 0958 4889C3   		movq	%rax, %rbx
 1311              	.LBB28:
 1312              		.loc 3 55 0
 1313 095b E8000000 		call	__cxa_end_catch@PLT
 1313      00
 1314 0960 4889D8   		movq	%rbx, %rax
 1315 0963 4889C7   		movq	%rax, %rdi
 1316 0966 E8000000 		call	_Unwind_Resume@PLT
 1316      00
 1317              	.LEHE36:
 1318              	.L72:
 1319 096b 4889C3   		movq	%rax, %rbx
 1320              	.LBE28:
 1321              	.LBB29:
 1322              	.LBB27:
 1323 096e 488D8530 		leaq	-464(%rbp), %rax
 1323      FEFFFF
 1324 0975 4889C7   		movq	%rax, %rdi
 1325 0978 E8000000 		call	_ZN8UnitTest15MemoryOutStreamD1Ev
 1325      00
 1326 097d EB03     		jmp	.L65
 1327              	.L71:
 1328 097f 4889C3   		movq	%rax, %rbx
 1329              	.L65:
 1330              	.LBE27:
 1331 0982 E8000000 		call	__cxa_end_catch@PLT
 1331      00
 1332 0987 4889D8   		movq	%rbx, %rax
 1333 098a 4889C7   		movq	%rax, %rdi
 1334              	.LEHB37:
 1335 098d E8000000 		call	_Unwind_Resume@PLT
 1335      00
 1336              	.LEHE37:
 1337              	.L73:
 1338 0992 4889C3   		movq	%rax, %rbx
 1339              	.LBE29:
 1340 0995 E8000000 		call	__cxa_end_catch@PLT
 1340      00
 1341 099a 4889D8   		movq	%rbx, %rax
 1342 099d 4889C7   		movq	%rax, %rdi
 1343              	.LEHB38:
 1344 09a0 E8000000 		call	_Unwind_Resume@PLT
 1344      00
 1345              	.LEHE38:
 1346              	.L54:
 1347 09a5 488B45D8 		movq	-40(%rbp), %rax
 1348 09a9 64483304 		xorq	%fs:40, %rax
 1348      25280000 
 1348      00
 1349 09b2 7405     		je	.L67
 1350 09b4 E8000000 		call	__stack_chk_fail@PLT
 1350      00
 1351              	.L67:
 1352 09b9 4881C408 		addq	$520, %rsp
 1352      020000
 1353 09c0 5B       		popq	%rbx
 1354 09c1 415C     		popq	%r12
 1355 09c3 415D     		popq	%r13
 1356 09c5 5D       		popq	%rbp
 1357              		.cfi_def_cfa 7, 8
 1358 09c6 C3       		ret
 1359              		.cfi_endproc
 1360              	.LFE1378:
 1361              		.section	.gcc_except_table
 1362              		.align 4
 1363              	.LLSDA1378:
 1364 00ac FF       		.byte	0xff
 1365 00ad 9B       		.byte	0x9b
 1366 00ae 55       		.uleb128 .LLSDATT1378-.LLSDATTD1378
 1367              	.LLSDATTD1378:
 1368 00af 01       		.byte	0x1
 1369 00b0 3E       		.uleb128 .LLSDACSE1378-.LLSDACSB1378
 1370              	.LLSDACSB1378:
 1371 00b1 45       		.uleb128 .LEHB28-.LFB1378
 1372 00b2 05       		.uleb128 .LEHE28-.LEHB28
 1373 00b3 9F01     		.uleb128 .L68-.LFB1378
 1374 00b5 05       		.uleb128 0x5
 1375 00b6 69       		.uleb128 .LEHB29-.LFB1378
 1376 00b7 05       		.uleb128 .LEHE29-.LEHB29
 1377 00b8 8201     		.uleb128 .L69-.LFB1378
 1378 00ba 07       		.uleb128 0x7
 1379 00bb 78       		.uleb128 .LEHB30-.LFB1378
 1380 00bc 05       		.uleb128 .LEHE30-.LEHB30
 1381 00bd 9F01     		.uleb128 .L68-.LFB1378
 1382 00bf 05       		.uleb128 0x5
 1383 00c0 C301     		.uleb128 .LEHB31-.LFB1378
 1384 00c2 8901     		.uleb128 .LEHE31-.LEHB31
 1385 00c4 9E05     		.uleb128 .L70-.LFB1378
 1386 00c6 00       		.uleb128 0
 1387 00c7 EF02     		.uleb128 .LEHB32-.LFB1378
 1388 00c9 05       		.uleb128 .LEHE32-.LEHB32
 1389 00ca C505     		.uleb128 .L71-.LFB1378
 1390 00cc 00       		.uleb128 0
 1391 00cd 8503     		.uleb128 .LEHB33-.LFB1378
 1392 00cf 60       		.uleb128 .LEHE33-.LEHB33
 1393 00d0 B105     		.uleb128 .L72-.LFB1378
 1394 00d2 00       		.uleb128 0
 1395 00d3 EF03     		.uleb128 .LEHB34-.LFB1378
 1396 00d5 05       		.uleb128 .LEHE34-.LEHB34
 1397 00d6 C505     		.uleb128 .L71-.LFB1378
 1398 00d8 00       		.uleb128 0
 1399 00d9 8F04     		.uleb128 .LEHB35-.LFB1378
 1400 00db 8801     		.uleb128 .LEHE35-.LEHB35
 1401 00dd D805     		.uleb128 .L73-.LFB1378
 1402 00df 00       		.uleb128 0
 1403 00e0 9705     		.uleb128 .LEHB36-.LFB1378
 1404 00e2 1A       		.uleb128 .LEHE36-.LEHB36
 1405 00e3 00       		.uleb128 0
 1406 00e4 00       		.uleb128 0
 1407 00e5 D305     		.uleb128 .LEHB37-.LFB1378
 1408 00e7 05       		.uleb128 .LEHE37-.LEHB37
 1409 00e8 00       		.uleb128 0
 1410 00e9 00       		.uleb128 0
 1411 00ea E605     		.uleb128 .LEHB38-.LFB1378
 1412 00ec 05       		.uleb128 .LEHE38-.LEHB38
 1413 00ed 00       		.uleb128 0
 1414 00ee 00       		.uleb128 0
 1415              	.LLSDACSE1378:
 1416 00ef 03       		.byte	0x3
 1417 00f0 00       		.byte	0
 1418 00f1 02       		.byte	0x2
 1419 00f2 7D       		.byte	0x7d
 1420 00f3 01       		.byte	0x1
 1421 00f4 7D       		.byte	0x7d
 1422 00f5 00       		.byte	0
 1423 00f6 7D       		.byte	0x7d
 1424 00f7 00       		.align 4
 1425 00f8 00000000 		.long	0
 1426              	
 1427 00fc 00000000 		.long	DW.ref._ZTISt9exception-.
 1428 0100 00000000 		.long	DW.ref._ZTIN8UnitTest15AssertExceptionE-.
 1429              	.LLSDATT1378:
 1430              		.text
 1432              		.section	.rodata
 1433              	.LC14:
 1434 0279 00       		.string	""
 1435              	.LC15:
 1436 027a 6D657373 		.string	"message"
 1436      61676500 
 1437              	.LC17:
 1438 0282 6F757470 		.string	"output.str().empty()"
 1438      75742E73 
 1438      74722829 
 1438      2E656D70 
 1438      74792829 
 1439              	.LC18:
 1440 0297 216F7574 		.string	"!output.str().empty()"
 1440      7075742E 
 1440      73747228 
 1440      292E656D 
 1440      70747928 
 1441 02ad 000000   		.align 8
 1442              	.LC19:
 1443 02b0 556E6861 		.string	"Unhandled exception in CHECK(output.str().empty())"
 1443      6E646C65 
 1443      64206578 
 1443      63657074 
 1443      696F6E20 
 1444 02e3 00000000 		.align 8
 1444      00
 1445              	.LC20:
 1446 02e8 556E6861 		.string	"Unhandled exception in CHECK(!output.str().empty())"
 1446      6E646C65 
 1446      64206578 
 1446      63657074 
 1446      696F6E20 
 1447              		.text
 1448 09c7 90       		.align 2
 1450              	_ZN12_GLOBAL__N_168XmlTestReporterFixtureOutputIsCachedUntilReportSummaryIsCalledHelper7RunImplEv:
 1451              	.LFB1382:
  56:TestXmlTestReporter.cpp **** {
 1452              		.loc 3 56 0 is_stmt 1
 1453              		.cfi_startproc
 1454              		.cfi_personality 0x9b,DW.ref.__gxx_personality_v0
 1455              		.cfi_lsda 0x1b,.LLSDA1382
 1456 09c8 55       		pushq	%rbp
 1457              		.cfi_def_cfa_offset 16
 1458              		.cfi_offset 6, -16
 1459 09c9 4889E5   		movq	%rsp, %rbp
 1460              		.cfi_def_cfa_register 6
 1461 09cc 53       		pushq	%rbx
 1462 09cd 4881EC88 		subq	$136, %rsp
 1462      000000
 1463              		.cfi_offset 3, -24
 1464 09d4 4889BD78 		movq	%rdi, -136(%rbp)
 1464      FFFFFF
 1465              		.loc 3 56 0
 1466 09db 64488B04 		movq	%fs:40, %rax
 1466      25280000 
 1466      00
 1467 09e4 488945E8 		movq	%rax, -24(%rbp)
 1468 09e8 31C0     		xorl	%eax, %eax
  57:TestXmlTestReporter.cpp ****     TestDetails const details("", "", "", 0);
 1469              		.loc 3 57 0
 1470 09ea 488D4580 		leaq	-128(%rbp), %rax
 1471 09ee 41B80000 		movl	$0, %r8d
 1471      0000
 1472 09f4 488D0D00 		leaq	.LC14(%rip), %rcx
 1472      000000
 1473 09fb 488D1500 		leaq	.LC14(%rip), %rdx
 1473      000000
 1474 0a02 488D3500 		leaq	.LC14(%rip), %rsi
 1474      000000
 1475 0a09 4889C7   		movq	%rax, %rdi
 1476              	.LEHB39:
 1477 0a0c E8000000 		call	_ZN8UnitTest11TestDetailsC1EPKcS2_S2_i@PLT
 1477      00
  58:TestXmlTestReporter.cpp **** 
  59:TestXmlTestReporter.cpp ****     reporter.ReportTestStart(details);
 1478              		.loc 3 59 0
 1479 0a11 488B8578 		movq	-136(%rbp), %rax
 1479      FFFFFF
 1480 0a18 488D9078 		leaq	376(%rax), %rdx
 1480      010000
 1481 0a1f 488D4580 		leaq	-128(%rbp), %rax
 1482 0a23 4889C6   		movq	%rax, %rsi
 1483 0a26 4889D7   		movq	%rdx, %rdi
 1484 0a29 E8000000 		call	_ZN8UnitTest20DeferredTestReporter15ReportTestStartERKNS_11TestDetailsE@PLT
 1484      00
  60:TestXmlTestReporter.cpp ****     reporter.ReportFailure(details, "message");
 1485              		.loc 3 60 0
 1486 0a2e 488B8578 		movq	-136(%rbp), %rax
 1486      FFFFFF
 1487 0a35 488D8878 		leaq	376(%rax), %rcx
 1487      010000
 1488 0a3c 488D4580 		leaq	-128(%rbp), %rax
 1489 0a40 488D1500 		leaq	.LC15(%rip), %rdx
 1489      000000
 1490 0a47 4889C6   		movq	%rax, %rsi
 1491 0a4a 4889CF   		movq	%rcx, %rdi
 1492 0a4d E8000000 		call	_ZN8UnitTest20DeferredTestReporter13ReportFailureERKNS_11TestDetailsEPKc@PLT
 1492      00
  61:TestXmlTestReporter.cpp ****     reporter.ReportTestFinish(details, 1.0F);
 1493              		.loc 3 61 0
 1494 0a52 488B8578 		movq	-136(%rbp), %rax
 1494      FFFFFF
 1495 0a59 488D9078 		leaq	376(%rax), %rdx
 1495      010000
 1496 0a60 488D4580 		leaq	-128(%rbp), %rax
 1497 0a64 F30F1005 		movss	.LC16(%rip), %xmm0
 1497      00000000 
 1498 0a6c 4889C6   		movq	%rax, %rsi
 1499 0a6f 4889D7   		movq	%rdx, %rdi
 1500 0a72 E8000000 		call	_ZN8UnitTest20DeferredTestReporter16ReportTestFinishERKNS_11TestDetailsEf@PLT
 1500      00
 1501              	.LEHE39:
  62:TestXmlTestReporter.cpp ****     CHECK(output.str().empty());
 1502              		.loc 3 62 0
 1503 0a77 488B9578 		movq	-136(%rbp), %rdx
 1503      FFFFFF
 1504 0a7e 488D45C0 		leaq	-64(%rbp), %rax
 1505 0a82 4889D6   		movq	%rdx, %rsi
 1506 0a85 4889C7   		movq	%rax, %rdi
 1507              	.LEHB40:
 1508 0a88 E8000000 		call	_ZNKSt7__cxx1119basic_ostringstreamIcSt11char_traitsIcESaIcEE3strEv@PLT
 1508      00
 1509              	.LEHE40:
 1510              		.loc 3 62 0 is_stmt 0 discriminator 1
 1511 0a8d 488D45C0 		leaq	-64(%rbp), %rax
 1512 0a91 4889C7   		movq	%rax, %rdi
 1513              	.LEHB41:
 1514 0a94 E8000000 		call	_ZNKSt7__cxx1112basic_stringIcSt11char_traitsIcESaIcEE5emptyEv@PLT
 1514      00
 1515              	.LEHE41:
 1516 0a99 0FB6C0   		movzbl	%al, %eax
 1517 0a9c 89C7     		movl	%eax, %edi
 1518 0a9e E8000000 		call	_ZN8UnitTest5CheckIbEEbT_
 1518      00
 1519 0aa3 83F001   		xorl	$1, %eax
 1520 0aa6 89C3     		movl	%eax, %ebx
 1521 0aa8 488D45C0 		leaq	-64(%rbp), %rax
 1522 0aac 4889C7   		movq	%rax, %rdi
 1523              	.LEHB42:
 1524 0aaf E8000000 		call	_ZNSt7__cxx1112basic_stringIcSt11char_traitsIcESaIcEED1Ev@PLT
 1524      00
 1525              		.loc 3 62 0 discriminator 5
 1526 0ab4 84DB     		testb	%bl, %bl
 1527 0ab6 743A     		je	.L76
 1528              		.loc 3 62 0 discriminator 6
 1529 0ab8 E8000000 		call	_ZN8UnitTest11CurrentTest7ResultsEv@PLT
 1529      00
 1530 0abd 488B18   		movq	(%rax), %rbx
 1531 0ac0 E8000000 		call	_ZN8UnitTest11CurrentTest7DetailsEv@PLT
 1531      00
 1532              		.loc 3 62 0 discriminator 7
 1533 0ac5 488B08   		movq	(%rax), %rcx
 1534 0ac8 488D45A0 		leaq	-96(%rbp), %rax
 1535 0acc BA3E0000 		movl	$62, %edx
 1535      00
 1536 0ad1 4889CE   		movq	%rcx, %rsi
 1537 0ad4 4889C7   		movq	%rax, %rdi
 1538 0ad7 E8000000 		call	_ZN8UnitTest11TestDetailsC1ERKS0_i@PLT
 1538      00
 1539              		.loc 3 62 0 discriminator 9
 1540 0adc 488D45A0 		leaq	-96(%rbp), %rax
 1541 0ae0 488D1500 		leaq	.LC17(%rip), %rdx
 1541      000000
 1542 0ae7 4889C6   		movq	%rax, %rsi
 1543 0aea 4889DF   		movq	%rbx, %rdi
 1544 0aed E8000000 		call	_ZN8UnitTest11TestResults13OnTestFailureERKNS_11TestDetailsEPKc@PLT
 1544      00
 1545              	.LEHE42:
 1546              	.L76:
  63:TestXmlTestReporter.cpp **** 
  64:TestXmlTestReporter.cpp ****     reporter.ReportSummary(1, 1, 1, 1.0f);
 1547              		.loc 3 64 0 is_stmt 1
 1548 0af2 488B8578 		movq	-136(%rbp), %rax
 1548      FFFFFF
 1549 0af9 48057801 		addq	$376, %rax
 1549      0000
 1550 0aff F30F1005 		movss	.LC16(%rip), %xmm0
 1550      00000000 
 1551 0b07 B9010000 		movl	$1, %ecx
 1551      00
 1552 0b0c BA010000 		movl	$1, %edx
 1552      00
 1553 0b11 BE010000 		movl	$1, %esi
 1553      00
 1554 0b16 4889C7   		movq	%rax, %rdi
 1555              	.LEHB43:
 1556 0b19 E8000000 		call	_ZN8UnitTest15XmlTestReporter13ReportSummaryEiiif@PLT
 1556      00
 1557              	.LEHE43:
  65:TestXmlTestReporter.cpp ****     CHECK(!output.str().empty());
 1558              		.loc 3 65 0
 1559 0b1e 488B9578 		movq	-136(%rbp), %rdx
 1559      FFFFFF
 1560 0b25 488D45C0 		leaq	-64(%rbp), %rax
 1561 0b29 4889D6   		movq	%rdx, %rsi
 1562 0b2c 4889C7   		movq	%rax, %rdi
 1563              	.LEHB44:
 1564 0b2f E8000000 		call	_ZNKSt7__cxx1119basic_ostringstreamIcSt11char_traitsIcESaIcEE3strEv@PLT
 1564      00
 1565              	.LEHE44:
 1566              		.loc 3 65 0 is_stmt 0 discriminator 1
 1567 0b34 488D45C0 		leaq	-64(%rbp), %rax
 1568 0b38 4889C7   		movq	%rax, %rdi
 1569              	.LEHB45:
 1570 0b3b E8000000 		call	_ZNKSt7__cxx1112basic_stringIcSt11char_traitsIcESaIcEE5emptyEv@PLT
 1570      00
 1571              	.LEHE45:
 1572 0b40 83F001   		xorl	$1, %eax
 1573 0b43 0FB6C0   		movzbl	%al, %eax
 1574 0b46 89C7     		movl	%eax, %edi
 1575 0b48 E8000000 		call	_ZN8UnitTest5CheckIbEEbT_
 1575      00
 1576 0b4d 83F001   		xorl	$1, %eax
 1577 0b50 89C3     		movl	%eax, %ebx
 1578 0b52 488D45C0 		leaq	-64(%rbp), %rax
 1579 0b56 4889C7   		movq	%rax, %rdi
 1580              	.LEHB46:
 1581 0b59 E8000000 		call	_ZNSt7__cxx1112basic_stringIcSt11char_traitsIcESaIcEED1Ev@PLT
 1581      00
 1582              		.loc 3 65 0 discriminator 5
 1583 0b5e 84DB     		testb	%bl, %bl
 1584 0b60 0F842201 		je	.L91
 1584      0000
 1585              		.loc 3 65 0 discriminator 6
 1586 0b66 E8000000 		call	_ZN8UnitTest11CurrentTest7ResultsEv@PLT
 1586      00
 1587 0b6b 488B18   		movq	(%rax), %rbx
 1588 0b6e E8000000 		call	_ZN8UnitTest11CurrentTest7DetailsEv@PLT
 1588      00
 1589              		.loc 3 65 0 discriminator 7
 1590 0b73 488B08   		movq	(%rax), %rcx
 1591 0b76 488D45A0 		leaq	-96(%rbp), %rax
 1592 0b7a BA410000 		movl	$65, %edx
 1592      00
 1593 0b7f 4889CE   		movq	%rcx, %rsi
 1594 0b82 4889C7   		movq	%rax, %rdi
 1595 0b85 E8000000 		call	_ZN8UnitTest11TestDetailsC1ERKS0_i@PLT
 1595      00
 1596              		.loc 3 65 0 discriminator 9
 1597 0b8a 488D45A0 		leaq	-96(%rbp), %rax
 1598 0b8e 488D1500 		leaq	.LC18(%rip), %rdx
 1598      000000
 1599 0b95 4889C6   		movq	%rax, %rsi
 1600 0b98 4889DF   		movq	%rbx, %rdi
 1601 0b9b E8000000 		call	_ZN8UnitTest11TestResults13OnTestFailureERKNS_11TestDetailsEPKc@PLT
 1601      00
 1602              	.LEHE46:
  66:TestXmlTestReporter.cpp **** }
 1603              		.loc 3 66 0 is_stmt 1
 1604 0ba0 E9E30000 		jmp	.L91
 1604      00
 1605              	.L86:
 1606 0ba5 4889C3   		movq	%rax, %rbx
  62:TestXmlTestReporter.cpp **** 
 1607              		.loc 3 62 0
 1608 0ba8 488D45C0 		leaq	-64(%rbp), %rax
 1609 0bac 4889C7   		movq	%rax, %rdi
 1610 0baf E8000000 		call	_ZNSt7__cxx1112basic_stringIcSt11char_traitsIcESaIcEED1Ev@PLT
 1610      00
 1611 0bb4 4889D8   		movq	%rbx, %rax
 1612 0bb7 EB00     		jmp	.L79
 1613              	.L85:
 1614              	.L79:
 1615 0bb9 4889C7   		movq	%rax, %rdi
 1616 0bbc E8000000 		call	__cxa_begin_catch@PLT
 1616      00
 1617              	.LEHB47:
 1618 0bc1 E8000000 		call	_ZN8UnitTest11CurrentTest7ResultsEv@PLT
 1618      00
 1619 0bc6 488B18   		movq	(%rax), %rbx
 1620 0bc9 E8000000 		call	_ZN8UnitTest11CurrentTest7DetailsEv@PLT
 1620      00
  62:TestXmlTestReporter.cpp **** 
 1621              		.loc 3 62 0 is_stmt 0 discriminator 13
 1622 0bce 488B08   		movq	(%rax), %rcx
 1623 0bd1 488D45A0 		leaq	-96(%rbp), %rax
 1624 0bd5 BA3E0000 		movl	$62, %edx
 1624      00
 1625 0bda 4889CE   		movq	%rcx, %rsi
 1626 0bdd 4889C7   		movq	%rax, %rdi
 1627 0be0 E8000000 		call	_ZN8UnitTest11TestDetailsC1ERKS0_i@PLT
 1627      00
  62:TestXmlTestReporter.cpp **** 
 1628              		.loc 3 62 0 discriminator 17
 1629 0be5 488D45A0 		leaq	-96(%rbp), %rax
 1630 0be9 488D1500 		leaq	.LC19(%rip), %rdx
 1630      000000
 1631 0bf0 4889C6   		movq	%rax, %rsi
 1632 0bf3 4889DF   		movq	%rbx, %rdi
 1633 0bf6 E8000000 		call	_ZN8UnitTest11TestResults13OnTestFailureERKNS_11TestDetailsEPKc@PLT
 1633      00
 1634              	.LEHE47:
 1635              	.LEHB48:
  62:TestXmlTestReporter.cpp **** 
 1636              		.loc 3 62 0 discriminator 19
 1637 0bfb E8000000 		call	__cxa_end_catch@PLT
 1637      00
 1638              	.LEHE48:
 1639 0c00 E9EDFEFF 		jmp	.L76
 1639      FF
 1640              	.L87:
 1641 0c05 4889C3   		movq	%rax, %rbx
  62:TestXmlTestReporter.cpp **** 
 1642              		.loc 3 62 0
 1643 0c08 E8000000 		call	__cxa_end_catch@PLT
 1643      00
 1644 0c0d 4889D8   		movq	%rbx, %rax
 1645 0c10 4889C7   		movq	%rax, %rdi
 1646              	.LEHB49:
 1647 0c13 E8000000 		call	_Unwind_Resume@PLT
 1647      00
 1648              	.LEHE49:
 1649              	.L89:
 1650 0c18 4889C3   		movq	%rax, %rbx
  65:TestXmlTestReporter.cpp ****     CHECK(!output.str().empty());
 1651              		.loc 3 65 0 is_stmt 1
 1652 0c1b 488D45C0 		leaq	-64(%rbp), %rax
 1653 0c1f 4889C7   		movq	%rax, %rdi
 1654 0c22 E8000000 		call	_ZNSt7__cxx1112basic_stringIcSt11char_traitsIcESaIcEED1Ev@PLT
 1654      00
 1655 0c27 4889D8   		movq	%rbx, %rax
 1656 0c2a EB00     		jmp	.L82
 1657              	.L88:
 1658              	.L82:
 1659 0c2c 4889C7   		movq	%rax, %rdi
 1660 0c2f E8000000 		call	__cxa_begin_catch@PLT
 1660      00
 1661              	.LEHB50:
 1662 0c34 E8000000 		call	_ZN8UnitTest11CurrentTest7ResultsEv@PLT
 1662      00
 1663 0c39 488B18   		movq	(%rax), %rbx
 1664 0c3c E8000000 		call	_ZN8UnitTest11CurrentTest7DetailsEv@PLT
 1664      00
  65:TestXmlTestReporter.cpp ****     CHECK(!output.str().empty());
 1665              		.loc 3 65 0 is_stmt 0 discriminator 13
 1666 0c41 488B08   		movq	(%rax), %rcx
 1667 0c44 488D45A0 		leaq	-96(%rbp), %rax
 1668 0c48 BA410000 		movl	$65, %edx
 1668      00
 1669 0c4d 4889CE   		movq	%rcx, %rsi
 1670 0c50 4889C7   		movq	%rax, %rdi
 1671 0c53 E8000000 		call	_ZN8UnitTest11TestDetailsC1ERKS0_i@PLT
 1671      00
  65:TestXmlTestReporter.cpp ****     CHECK(!output.str().empty());
 1672              		.loc 3 65 0 discriminator 17
 1673 0c58 488D45A0 		leaq	-96(%rbp), %rax
 1674 0c5c 488D1500 		leaq	.LC20(%rip), %rdx
 1674      000000
 1675 0c63 4889C6   		movq	%rax, %rsi
 1676 0c66 4889DF   		movq	%rbx, %rdi
 1677 0c69 E8000000 		call	_ZN8UnitTest11TestResults13OnTestFailureERKNS_11TestDetailsEPKc@PLT
 1677      00
 1678              	.LEHE50:
 1679              	.LEHB51:
  65:TestXmlTestReporter.cpp ****     CHECK(!output.str().empty());
 1680              		.loc 3 65 0 discriminator 19
 1681 0c6e E8000000 		call	__cxa_end_catch@PLT
 1681      00
 1682              	.LEHE51:
 1683              		.loc 3 66 0 is_stmt 1 discriminator 19
 1684 0c73 EB13     		jmp	.L91
 1685              	.L90:
 1686 0c75 4889C3   		movq	%rax, %rbx
  65:TestXmlTestReporter.cpp ****     CHECK(!output.str().empty());
 1687              		.loc 3 65 0
 1688 0c78 E8000000 		call	__cxa_end_catch@PLT
 1688      00
 1689 0c7d 4889D8   		movq	%rbx, %rax
 1690 0c80 4889C7   		movq	%rax, %rdi
 1691              	.LEHB52:
 1692 0c83 E8000000 		call	_Unwind_Resume@PLT
 1692      00
 1693              	.LEHE52:
 1694              	.L91:
 1695              		.loc 3 66 0
 1696 0c88 90       		nop
 1697 0c89 488B45E8 		movq	-24(%rbp), %rax
 1698 0c8d 64483304 		xorq	%fs:40, %rax
 1698      25280000 
 1698      00
 1699 0c96 7405     		je	.L84
 1700 0c98 E8000000 		call	__stack_chk_fail@PLT
 1700      00
 1701              	.L84:
 1702 0c9d 4881C488 		addq	$136, %rsp
 1702      000000
 1703 0ca4 5B       		popq	%rbx
 1704 0ca5 5D       		popq	%rbp
 1705              		.cfi_def_cfa 7, 8
 1706 0ca6 C3       		ret
 1707              		.cfi_endproc
 1708              	.LFE1382:
 1709              		.section	.gcc_except_table
 1710              		.align 4
 1711              	.LLSDA1382:
 1712 0104 FF       		.byte	0xff
 1713 0105 9B       		.byte	0x9b
 1714 0106 59       		.uleb128 .LLSDATT1382-.LLSDATTD1382
 1715              	.LLSDATTD1382:
 1716 0107 01       		.byte	0x1
 1717 0108 4D       		.uleb128 .LLSDACSE1382-.LLSDACSB1382
 1718              	.LLSDACSB1382:
 1719 0109 44       		.uleb128 .LEHB39-.LFB1382
 1720 010a 6B       		.uleb128 .LEHE39-.LEHB39
 1721 010b 00       		.uleb128 0
 1722 010c 00       		.uleb128 0
 1723 010d C001     		.uleb128 .LEHB40-.LFB1382
 1724 010f 05       		.uleb128 .LEHE40-.LEHB40
 1725 0110 F103     		.uleb128 .L85-.LFB1382
 1726 0112 01       		.uleb128 0x1
 1727 0113 CC01     		.uleb128 .LEHB41-.LFB1382
 1728 0115 05       		.uleb128 .LEHE41-.LEHB41
 1729 0116 DD03     		.uleb128 .L86-.LFB1382
 1730 0118 03       		.uleb128 0x3
 1731 0119 E701     		.uleb128 .LEHB42-.LFB1382
 1732 011b 43       		.uleb128 .LEHE42-.LEHB42
 1733 011c F103     		.uleb128 .L85-.LFB1382
 1734 011e 01       		.uleb128 0x1
 1735 011f D102     		.uleb128 .LEHB43-.LFB1382
 1736 0121 05       		.uleb128 .LEHE43-.LEHB43
 1737 0122 00       		.uleb128 0
 1738 0123 00       		.uleb128 0
 1739 0124 E702     		.uleb128 .LEHB44-.LFB1382
 1740 0126 05       		.uleb128 .LEHE44-.LEHB44
 1741 0127 E404     		.uleb128 .L88-.LFB1382
 1742 0129 01       		.uleb128 0x1
 1743 012a F302     		.uleb128 .LEHB45-.LFB1382
 1744 012c 05       		.uleb128 .LEHE45-.LEHB45
 1745 012d D004     		.uleb128 .L89-.LFB1382
 1746 012f 03       		.uleb128 0x3
 1747 0130 9103     		.uleb128 .LEHB46-.LFB1382
 1748 0132 47       		.uleb128 .LEHE46-.LEHB46
 1749 0133 E404     		.uleb128 .L88-.LFB1382
 1750 0135 01       		.uleb128 0x1
 1751 0136 F903     		.uleb128 .LEHB47-.LFB1382
 1752 0138 3A       		.uleb128 .LEHE47-.LEHB47
 1753 0139 BD04     		.uleb128 .L87-.LFB1382
 1754 013b 00       		.uleb128 0
 1755 013c B304     		.uleb128 .LEHB48-.LFB1382
 1756 013e 05       		.uleb128 .LEHE48-.LEHB48
 1757 013f 00       		.uleb128 0
 1758 0140 00       		.uleb128 0
 1759 0141 CB04     		.uleb128 .LEHB49-.LFB1382
 1760 0143 05       		.uleb128 .LEHE49-.LEHB49
 1761 0144 00       		.uleb128 0
 1762 0145 00       		.uleb128 0
 1763 0146 EC04     		.uleb128 .LEHB50-.LFB1382
 1764 0148 3A       		.uleb128 .LEHE50-.LEHB50
 1765 0149 AD05     		.uleb128 .L90-.LFB1382
 1766 014b 00       		.uleb128 0
 1767 014c A605     		.uleb128 .LEHB51-.LFB1382
 1768 014e 05       		.uleb128 .LEHE51-.LEHB51
 1769 014f 00       		.uleb128 0
 1770 0150 00       		.uleb128 0
 1771 0151 BB05     		.uleb128 .LEHB52-.LFB1382
 1772 0153 05       		.uleb128 .LEHE52-.LEHB52
 1773 0154 00       		.uleb128 0
 1774 0155 00       		.uleb128 0
 1775              	.LLSDACSE1382:
 1776 0156 01       		.byte	0x1
 1777 0157 00       		.byte	0
 1778 0158 00       		.byte	0
 1779 0159 7D       		.byte	0x7d
 1780 015a 0000     		.align 4
 1781 015c 00000000 		.long	0
 1782              	
 1783              	.LLSDATT1382:
 1784              		.text
 1786 0ca7 90       		.align 2
 1788              	_ZN12_GLOBAL__N_152XmlTestReporterFixtureEmptyReportSummaryFormatHelperC2ERKN8UnitTest11TestDetails
 1789              	.LFB1384:
  67:TestXmlTestReporter.cpp **** 
  68:TestXmlTestReporter.cpp **** TEST_FIXTURE(XmlTestReporterFixture, EmptyReportSummaryFormat)
 1790              		.loc 3 68 0
 1791              		.cfi_startproc
 1792 0ca8 55       		pushq	%rbp
 1793              		.cfi_def_cfa_offset 16
 1794              		.cfi_offset 6, -16
 1795 0ca9 4889E5   		movq	%rsp, %rbp
 1796              		.cfi_def_cfa_register 6
 1797 0cac 4883EC10 		subq	$16, %rsp
 1798 0cb0 48897DF8 		movq	%rdi, -8(%rbp)
 1799 0cb4 488975F0 		movq	%rsi, -16(%rbp)
 1800              	.LBB30:
 1801              		.loc 3 68 0
 1802 0cb8 488B45F8 		movq	-8(%rbp), %rax
 1803 0cbc 4889C7   		movq	%rax, %rdi
 1804 0cbf E83CF3FF 		call	_ZN12_GLOBAL__N_122XmlTestReporterFixtureC2Ev
 1804      FF
 1805 0cc4 488B45F8 		movq	-8(%rbp), %rax
 1806 0cc8 488B55F0 		movq	-16(%rbp), %rdx
 1807 0ccc 488990A0 		movq	%rdx, 416(%rax)
 1807      010000
 1808              	.LBE30:
 1809 0cd3 90       		nop
 1810 0cd4 C9       		leave
 1811              		.cfi_def_cfa 7, 8
 1812 0cd5 C3       		ret
 1813              		.cfi_endproc
 1814              	.LFE1384:
 1816              		.set	_ZN12_GLOBAL__N_152XmlTestReporterFixtureEmptyReportSummaryFormatHelperC1ERKN8UnitTest11TestD
 1817              		.section	.rodata
 1818              	.LC21:
 1819 031c 456D7074 		.string	"EmptyReportSummaryFormat"
 1819      79526570 
 1819      6F727453 
 1819      756D6D61 
 1819      7279466F 
 1820              		.text
 1821              		.align 2
 1823              	_ZN12_GLOBAL__N_150TestXmlTestReporterFixtureEmptyReportSummaryFormatC2Ev:
 1824              	.LFB1387:
 1825              		.loc 3 68 0
 1826              		.cfi_startproc
 1827 0cd6 55       		pushq	%rbp
 1828              		.cfi_def_cfa_offset 16
 1829              		.cfi_offset 6, -16
 1830 0cd7 4889E5   		movq	%rsp, %rbp
 1831              		.cfi_def_cfa_register 6
 1832 0cda 53       		pushq	%rbx
 1833 0cdb 4883EC18 		subq	$24, %rsp
 1834              		.cfi_offset 3, -24
 1835 0cdf 48897DE8 		movq	%rdi, -24(%rbp)
 1836              	.LBB31:
 1837              		.loc 3 68 0
 1838 0ce3 488B5DE8 		movq	-24(%rbp), %rbx
 1839 0ce7 E8000000 		call	_ZN13UnitTestSuite12GetSuiteNameEv
 1839      00
 1840 0cec 41B84400 		movl	$68, %r8d
 1840      0000
 1841 0cf2 488D0D00 		leaq	.LC1(%rip), %rcx
 1841      000000
 1842 0cf9 4889C2   		movq	%rax, %rdx
 1843 0cfc 488D3500 		leaq	.LC21(%rip), %rsi
 1843      000000
 1844 0d03 4889DF   		movq	%rbx, %rdi
 1845 0d06 E8000000 		call	_ZN8UnitTest4TestC2EPKcS2_S2_i@PLT
 1845      00
 1846 0d0b 488D1500 		leaq	16+_ZTVN12_GLOBAL__N_150TestXmlTestReporterFixtureEmptyReportSummaryFormatE(%rip), %rdx
 1846      000000
 1847 0d12 488B45E8 		movq	-24(%rbp), %rax
 1848 0d16 488910   		movq	%rdx, (%rax)
 1849              	.LBE31:
 1850 0d19 90       		nop
 1851 0d1a 4883C418 		addq	$24, %rsp
 1852 0d1e 5B       		popq	%rbx
 1853 0d1f 5D       		popq	%rbp
 1854              		.cfi_def_cfa 7, 8
 1855 0d20 C3       		ret
 1856              		.cfi_endproc
 1857              	.LFE1387:
 1859              		.set	_ZN12_GLOBAL__N_150TestXmlTestReporterFixtureEmptyReportSummaryFormatC1Ev,_ZN12_GLOBAL__N_150
 1860              		.local	_ZN12_GLOBAL__N_158testXmlTestReporterFixtureEmptyReportSummaryFormatInstanceE
 1861              		.comm	_ZN12_GLOBAL__N_158testXmlTestReporterFixtureEmptyReportSummaryFormatInstanceE,56,32
 1862              		.local	_ZN12_GLOBAL__N_151adderXmlTestReporterFixtureEmptyReportSummaryFormatE
 1863              		.comm	_ZN12_GLOBAL__N_151adderXmlTestReporterFixtureEmptyReportSummaryFormatE,1,1
 1864 0d21 90       		.align 2
 1866              	_ZN12_GLOBAL__N_152XmlTestReporterFixtureEmptyReportSummaryFormatHelperD2Ev:
 1867              	.LFB1391:
 1868              		.loc 3 68 0
 1869              		.cfi_startproc
 1870 0d22 55       		pushq	%rbp
 1871              		.cfi_def_cfa_offset 16
 1872              		.cfi_offset 6, -16
 1873 0d23 4889E5   		movq	%rsp, %rbp
 1874              		.cfi_def_cfa_register 6
 1875 0d26 4883EC10 		subq	$16, %rsp
 1876 0d2a 48897DF8 		movq	%rdi, -8(%rbp)
 1877              	.LBB32:
 1878              		.loc 3 68 0
 1879 0d2e 488B45F8 		movq	-8(%rbp), %rax
 1880 0d32 4889C7   		movq	%rax, %rdi
 1881 0d35 E822F3FF 		call	_ZN12_GLOBAL__N_122XmlTestReporterFixtureD2Ev
 1881      FF
 1882              	.LBE32:
 1883 0d3a 90       		nop
 1884 0d3b C9       		leave
 1885              		.cfi_def_cfa 7, 8
 1886 0d3c C3       		ret
 1887              		.cfi_endproc
 1888              	.LFE1391:
 1890              		.set	_ZN12_GLOBAL__N_152XmlTestReporterFixtureEmptyReportSummaryFormatHelperD1Ev,_ZN12_GLOBAL__N_1
 1891 0d3d 90       		.align 2
 1893              	_ZNK12_GLOBAL__N_150TestXmlTestReporterFixtureEmptyReportSummaryFormat7RunImplEv:
 1894              	.LFB1389:
 1895              		.loc 3 68 0
 1896              		.cfi_startproc
 1897              		.cfi_personality 0x9b,DW.ref.__gxx_personality_v0
 1898              		.cfi_lsda 0x1b,.LLSDA1389
 1899 0d3e 55       		pushq	%rbp
 1900              		.cfi_def_cfa_offset 16
 1901              		.cfi_offset 6, -16
 1902 0d3f 4889E5   		movq	%rsp, %rbp
 1903              		.cfi_def_cfa_register 6
 1904 0d42 4155     		pushq	%r13
 1905 0d44 4154     		pushq	%r12
 1906 0d46 53       		pushq	%rbx
 1907 0d47 4881EC08 		subq	$520, %rsp
 1907      020000
 1908              		.cfi_offset 13, -24
 1909              		.cfi_offset 12, -32
 1910              		.cfi_offset 3, -40
 1911 0d4e 4889BDE8 		movq	%rdi, -536(%rbp)
 1911      FDFFFF
 1912              		.loc 3 68 0
 1913 0d55 64488B04 		movq	%fs:40, %rax
 1913      25280000 
 1913      00
 1914 0d5e 488945D8 		movq	%rax, -40(%rbp)
 1915 0d62 31C0     		xorl	%eax, %eax
 1916 0d64 C685FFFD 		movb	$0, -513(%rbp)
 1916      FFFF00
 1917              	.LBB33:
 1918 0d6b 488B85E8 		movq	-536(%rbp), %rax
 1918      FDFFFF
 1919 0d72 488D5008 		leaq	8(%rax), %rdx
 1920 0d76 488D8530 		leaq	-464(%rbp), %rax
 1920      FEFFFF
 1921 0d7d 4889D6   		movq	%rdx, %rsi
 1922 0d80 4889C7   		movq	%rax, %rdi
 1923              	.LEHB53:
 1924 0d83 E820FFFF 		call	_ZN12_GLOBAL__N_152XmlTestReporterFixtureEmptyReportSummaryFormatHelperC1ERKN8UnitTest11TestD
 1924      FF
 1925              	.LEHE53:
 1926              		.loc 3 68 0 is_stmt 0 discriminator 1
 1927 0d88 C685FFFD 		movb	$1, -513(%rbp)
 1927      FFFF01
 1928 0d8f 488B85E8 		movq	-536(%rbp), %rax
 1928      FDFFFF
 1929 0d96 488D5008 		leaq	8(%rax), %rdx
 1930 0d9a 488D8530 		leaq	-464(%rbp), %rax
 1930      FEFFFF
 1931 0da1 4889D6   		movq	%rdx, %rsi
 1932 0da4 4889C7   		movq	%rax, %rdi
 1933              	.LEHB54:
 1934 0da7 E8292500 		call	_ZN8UnitTest11ExecuteTestIN12_GLOBAL__N_152XmlTestReporterFixtureEmptyReportSummaryFormatHelp
 1934      00
 1935              	.LEHE54:
 1936              		.loc 3 68 0 discriminator 3
 1937 0dac 488D8530 		leaq	-464(%rbp), %rax
 1937      FEFFFF
 1938 0db3 4889C7   		movq	%rax, %rdi
 1939              	.LEHB55:
 1940 0db6 E867FFFF 		call	_ZN12_GLOBAL__N_152XmlTestReporterFixtureEmptyReportSummaryFormatHelperD1Ev
 1940      FF
 1941              	.LEHE55:
 1942              	.LBE33:
 1943              		.loc 3 68 0
 1944 0dbb E9690200 		jmp	.L95
 1944      00
 1945              	.L110:
 1946 0dc0 4989C4   		movq	%rax, %r12
 1947 0dc3 4889D3   		movq	%rdx, %rbx
 1948              	.LBB34:
 1949 0dc6 488D8530 		leaq	-464(%rbp), %rax
 1949      FEFFFF
 1950 0dcd 4889C7   		movq	%rax, %rdi
 1951 0dd0 E84DFFFF 		call	_ZN12_GLOBAL__N_152XmlTestReporterFixtureEmptyReportSummaryFormatHelperD1Ev
 1951      FF
 1952 0dd5 4C89E0   		movq	%r12, %rax
 1953 0dd8 4889DA   		movq	%rbx, %rdx
 1954 0ddb EB00     		jmp	.L97
 1955              	.L109:
 1956              	.L97:
 1957 0ddd 4883FA01 		cmpq	$1, %rdx
 1958 0de1 740F     		je	.L99
 1959 0de3 4883FA02 		cmpq	$2, %rdx
 1960 0de7 0F84A700 		je	.L100
 1960      0000
 1961 0ded E94A0100 		jmp	.L115
 1961      00
 1962              	.L99:
 1963              	.LBE34:
 1964              	.LBB35:
 1965 0df2 4889C7   		movq	%rax, %rdi
 1966 0df5 E8000000 		call	__cxa_begin_catch@PLT
 1966      00
 1967 0dfa 48898508 		movq	%rax, -504(%rbp)
 1967      FEFFFF
 1968              	.LEHB56:
 1969 0e01 E8000000 		call	_ZN8UnitTest11CurrentTest7ResultsEv@PLT
 1969      00
 1970 0e06 488B18   		movq	(%rax), %rbx
 1971 0e09 488B8508 		movq	-504(%rbp), %rax
 1971      FEFFFF
 1972 0e10 488B00   		movq	(%rax), %rax
 1973 0e13 4883C010 		addq	$16, %rax
 1974 0e17 488B00   		movq	(%rax), %rax
 1975 0e1a 488B9508 		movq	-504(%rbp), %rdx
 1975      FEFFFF
 1976 0e21 4889D7   		movq	%rdx, %rdi
 1977 0e24 FFD0     		call	*%rax
 1978              	.LVL4:
 1979 0e26 4989C4   		movq	%rax, %r12
 1980 0e29 488B8508 		movq	-504(%rbp), %rax
 1980      FEFFFF
 1981 0e30 4889C7   		movq	%rax, %rdi
 1982 0e33 E8000000 		call	_ZNK8UnitTest15AssertException10LineNumberEv@PLT
 1982      00
 1983              		.loc 3 68 0 discriminator 5
 1984 0e38 4189C5   		movl	%eax, %r13d
 1985 0e3b 488B8508 		movq	-504(%rbp), %rax
 1985      FEFFFF
 1986 0e42 4889C7   		movq	%rax, %rdi
 1987 0e45 E8000000 		call	_ZNK8UnitTest15AssertException8FilenameEv@PLT
 1987      00
 1988              		.loc 3 68 0 discriminator 7
 1989 0e4a 4889C1   		movq	%rax, %rcx
 1990 0e4d 488B85E8 		movq	-536(%rbp), %rax
 1990      FDFFFF
 1991 0e54 488B5008 		movq	8(%rax), %rdx
 1992 0e58 488B85E8 		movq	-536(%rbp), %rax
 1992      FDFFFF
 1993 0e5f 488B7010 		movq	16(%rax), %rsi
 1994 0e63 488D8510 		leaq	-496(%rbp), %rax
 1994      FEFFFF
 1995 0e6a 4589E8   		movl	%r13d, %r8d
 1996 0e6d 4889C7   		movq	%rax, %rdi
 1997 0e70 E8000000 		call	_ZN8UnitTest11TestDetailsC1EPKcS2_S2_i@PLT
 1997      00
 1998              		.loc 3 68 0 discriminator 11
 1999 0e75 488D8510 		leaq	-496(%rbp), %rax
 1999      FEFFFF
 2000 0e7c 4C89E2   		movq	%r12, %rdx
 2001 0e7f 4889C6   		movq	%rax, %rsi
 2002 0e82 4889DF   		movq	%rbx, %rdi
 2003 0e85 E8000000 		call	_ZN8UnitTest11TestResults13OnTestFailureERKNS_11TestDetailsEPKc@PLT
 2003      00
 2004              	.LEHE56:
 2005              		.loc 3 68 0 discriminator 13
 2006 0e8a E8000000 		call	__cxa_end_catch@PLT
 2006      00
 2007              	.LBE35:
 2008 0e8f E9950100 		jmp	.L95
 2008      00
 2009              	.L100:
 2010              	.LBB36:
 2011              		.loc 3 68 0
 2012 0e94 4889C7   		movq	%rax, %rdi
 2013 0e97 E8000000 		call	__cxa_begin_catch@PLT
 2013      00
 2014 0e9c 48898500 		movq	%rax, -512(%rbp)
 2014      FEFFFF
 2015              	.LBB37:
 2016 0ea3 488D8530 		leaq	-464(%rbp), %rax
 2016      FEFFFF
 2017 0eaa 4889C7   		movq	%rax, %rdi
 2018              	.LEHB57:
 2019 0ead E8000000 		call	_ZN8UnitTest15MemoryOutStreamC1Ev
 2019      00
 2020              	.LEHE57:
 2021              		.loc 3 68 0 discriminator 15
 2022 0eb2 488D8530 		leaq	-464(%rbp), %rax
 2022      FEFFFF
 2023 0eb9 488D3500 		leaq	.LC3(%rip), %rsi
 2023      000000
 2024 0ec0 4889C7   		movq	%rax, %rdi
 2025              	.LEHB58:
 2026 0ec3 E8000000 		call	_ZStlsISt11char_traitsIcEERSt13basic_ostreamIcT_ES5_PKc@PLT
 2026      00
 2027 0ec8 4889C3   		movq	%rax, %rbx
 2028 0ecb 488B8500 		movq	-512(%rbp), %rax
 2028      FEFFFF
 2029 0ed2 488B00   		movq	(%rax), %rax
 2030 0ed5 4883C010 		addq	$16, %rax
 2031 0ed9 488B00   		movq	(%rax), %rax
 2032 0edc 488B9500 		movq	-512(%rbp), %rdx
 2032      FEFFFF
 2033 0ee3 4889D7   		movq	%rdx, %rdi
 2034 0ee6 FFD0     		call	*%rax
 2035              	.LVL5:
 2036 0ee8 4889C6   		movq	%rax, %rsi
 2037 0eeb 4889DF   		movq	%rbx, %rdi
 2038 0eee E8000000 		call	_ZStlsISt11char_traitsIcEERSt13basic_ostreamIcT_ES5_PKc@PLT
 2038      00
 2039              		.loc 3 68 0 discriminator 19
 2040 0ef3 E8000000 		call	_ZN8UnitTest11CurrentTest7ResultsEv@PLT
 2040      00
 2041 0ef8 488B18   		movq	(%rax), %rbx
 2042 0efb 488D8530 		leaq	-464(%rbp), %rax
 2042      FEFFFF
 2043 0f02 4889C7   		movq	%rax, %rdi
 2044 0f05 E8000000 		call	_ZNK8UnitTest15MemoryOutStream7GetTextEv@PLT
 2044      00
 2045              		.loc 3 68 0 discriminator 21
 2046 0f0a 4889C2   		movq	%rax, %rdx
 2047 0f0d 488B85E8 		movq	-536(%rbp), %rax
 2047      FDFFFF
 2048 0f14 4883C008 		addq	$8, %rax
 2049 0f18 4889C6   		movq	%rax, %rsi
 2050 0f1b 4889DF   		movq	%rbx, %rdi
 2051 0f1e E8000000 		call	_ZN8UnitTest11TestResults13OnTestFailureERKNS_11TestDetailsEPKc@PLT
 2051      00
 2052              	.LEHE58:
 2053              		.loc 3 68 0 discriminator 25
 2054 0f23 488D8530 		leaq	-464(%rbp), %rax
 2054      FEFFFF
 2055 0f2a 4889C7   		movq	%rax, %rdi
 2056              	.LEHB59:
 2057 0f2d E8000000 		call	_ZN8UnitTest15MemoryOutStreamD1Ev
 2057      00
 2058              	.LEHE59:
 2059              	.LBE37:
 2060              		.loc 3 68 0 discriminator 26
 2061 0f32 E8000000 		call	__cxa_end_catch@PLT
 2061      00
 2062              	.LBE36:
 2063 0f37 E9ED0000 		jmp	.L95
 2063      00
 2064              	.L115:
 2065              		.loc 3 68 0
 2066 0f3c 4889C7   		movq	%rax, %rdi
 2067 0f3f E8000000 		call	__cxa_begin_catch@PLT
 2067      00
 2068 0f44 80BDFFFD 		cmpb	$0, -513(%rbp)
 2068      FFFF00
 2069 0f4b 7445     		je	.L102
 2070              	.LEHB60:
 2071              		.loc 3 68 0 discriminator 28
 2072 0f4d E8000000 		call	_ZN8UnitTest11CurrentTest7ResultsEv@PLT
 2072      00
 2073 0f52 488B18   		movq	(%rax), %rbx
 2074 0f55 488B85E8 		movq	-536(%rbp), %rax
 2074      FDFFFF
 2075 0f5c 488D4808 		leaq	8(%rax), %rcx
 2076 0f60 488D8510 		leaq	-496(%rbp), %rax
 2076      FEFFFF
 2077 0f67 BA440000 		movl	$68, %edx
 2077      00
 2078 0f6c 4889CE   		movq	%rcx, %rsi
 2079 0f6f 4889C7   		movq	%rax, %rdi
 2080 0f72 E8000000 		call	_ZN8UnitTest11TestDetailsC1ERKS0_i@PLT
 2080      00
 2081              		.loc 3 68 0 discriminator 33
 2082 0f77 488D8510 		leaq	-496(%rbp), %rax
 2082      FEFFFF
 2083 0f7e 488D1500 		leaq	.LC4(%rip), %rdx
 2083      000000
 2084 0f85 4889C6   		movq	%rax, %rsi
 2085 0f88 4889DF   		movq	%rbx, %rdi
 2086 0f8b E8000000 		call	_ZN8UnitTest11TestResults13OnTestFailureERKNS_11TestDetailsEPKc@PLT
 2086      00
 2087 0f90 EB43     		jmp	.L103
 2088              	.L102:
 2089              		.loc 3 68 0 discriminator 29
 2090 0f92 E8000000 		call	_ZN8UnitTest11CurrentTest7ResultsEv@PLT
 2090      00
 2091 0f97 488B18   		movq	(%rax), %rbx
 2092 0f9a 488B85E8 		movq	-536(%rbp), %rax
 2092      FDFFFF
 2093 0fa1 488D4808 		leaq	8(%rax), %rcx
 2094 0fa5 488D8510 		leaq	-496(%rbp), %rax
 2094      FEFFFF
 2095 0fac BA440000 		movl	$68, %edx
 2095      00
 2096 0fb1 4889CE   		movq	%rcx, %rsi
 2097 0fb4 4889C7   		movq	%rax, %rdi
 2098 0fb7 E8000000 		call	_ZN8UnitTest11TestDetailsC1ERKS0_i@PLT
 2098      00
 2099              		.loc 3 68 0 discriminator 40
 2100 0fbc 488D8510 		leaq	-496(%rbp), %rax
 2100      FEFFFF
 2101 0fc3 488D1500 		leaq	.LC5(%rip), %rdx
 2101      000000
 2102 0fca 4889C6   		movq	%rax, %rsi
 2103 0fcd 4889DF   		movq	%rbx, %rdi
 2104 0fd0 E8000000 		call	_ZN8UnitTest11TestResults13OnTestFailureERKNS_11TestDetailsEPKc@PLT
 2104      00
 2105              	.LEHE60:
 2106              	.L103:
 2107              	.LEHB61:
 2108              		.loc 3 68 0 discriminator 43
 2109 0fd5 E8000000 		call	__cxa_end_catch@PLT
 2109      00
 2110 0fda EB4D     		jmp	.L95
 2111              	.L111:
 2112 0fdc 4889C3   		movq	%rax, %rbx
 2113              	.LBB39:
 2114              		.loc 3 68 0
 2115 0fdf E8000000 		call	__cxa_end_catch@PLT
 2115      00
 2116 0fe4 4889D8   		movq	%rbx, %rax
 2117 0fe7 4889C7   		movq	%rax, %rdi
 2118 0fea E8000000 		call	_Unwind_Resume@PLT
 2118      00
 2119              	.LEHE61:
 2120              	.L113:
 2121 0fef 4889C3   		movq	%rax, %rbx
 2122              	.LBE39:
 2123              	.LBB40:
 2124              	.LBB38:
 2125 0ff2 488D8530 		leaq	-464(%rbp), %rax
 2125      FEFFFF
 2126 0ff9 4889C7   		movq	%rax, %rdi
 2127 0ffc E8000000 		call	_ZN8UnitTest15MemoryOutStreamD1Ev
 2127      00
 2128 1001 EB03     		jmp	.L106
 2129              	.L112:
 2130 1003 4889C3   		movq	%rax, %rbx
 2131              	.L106:
 2132              	.LBE38:
 2133 1006 E8000000 		call	__cxa_end_catch@PLT
 2133      00
 2134 100b 4889D8   		movq	%rbx, %rax
 2135 100e 4889C7   		movq	%rax, %rdi
 2136              	.LEHB62:
 2137 1011 E8000000 		call	_Unwind_Resume@PLT
 2137      00
 2138              	.LEHE62:
 2139              	.L114:
 2140 1016 4889C3   		movq	%rax, %rbx
 2141              	.LBE40:
 2142 1019 E8000000 		call	__cxa_end_catch@PLT
 2142      00
 2143 101e 4889D8   		movq	%rbx, %rax
 2144 1021 4889C7   		movq	%rax, %rdi
 2145              	.LEHB63:
 2146 1024 E8000000 		call	_Unwind_Resume@PLT
 2146      00
 2147              	.LEHE63:
 2148              	.L95:
 2149 1029 488B45D8 		movq	-40(%rbp), %rax
 2150 102d 64483304 		xorq	%fs:40, %rax
 2150      25280000 
 2150      00
 2151 1036 7405     		je	.L108
 2152 1038 E8000000 		call	__stack_chk_fail@PLT
 2152      00
 2153              	.L108:
 2154 103d 4881C408 		addq	$520, %rsp
 2154      020000
 2155 1044 5B       		popq	%rbx
 2156 1045 415C     		popq	%r12
 2157 1047 415D     		popq	%r13
 2158 1049 5D       		popq	%rbp
 2159              		.cfi_def_cfa 7, 8
 2160 104a C3       		ret
 2161              		.cfi_endproc
 2162              	.LFE1389:
 2163              		.section	.gcc_except_table
 2164              		.align 4
 2165              	.LLSDA1389:
 2166 0160 FF       		.byte	0xff
 2167 0161 9B       		.byte	0x9b
 2168 0162 55       		.uleb128 .LLSDATT1389-.LLSDATTD1389
 2169              	.LLSDATTD1389:
 2170 0163 01       		.byte	0x1
 2171 0164 3E       		.uleb128 .LLSDACSE1389-.LLSDACSB1389
 2172              	.LLSDACSB1389:
 2173 0165 45       		.uleb128 .LEHB53-.LFB1389
 2174 0166 05       		.uleb128 .LEHE53-.LEHB53
 2175 0167 9F01     		.uleb128 .L109-.LFB1389
 2176 0169 05       		.uleb128 0x5
 2177 016a 69       		.uleb128 .LEHB54-.LFB1389
 2178 016b 05       		.uleb128 .LEHE54-.LEHB54
 2179 016c 8201     		.uleb128 .L110-.LFB1389
 2180 016e 07       		.uleb128 0x7
 2181 016f 78       		.uleb128 .LEHB55-.LFB1389
 2182 0170 05       		.uleb128 .LEHE55-.LEHB55
 2183 0171 9F01     		.uleb128 .L109-.LFB1389
 2184 0173 05       		.uleb128 0x5
 2185 0174 C301     		.uleb128 .LEHB56-.LFB1389
 2186 0176 8901     		.uleb128 .LEHE56-.LEHB56
 2187 0178 9E05     		.uleb128 .L111-.LFB1389
 2188 017a 00       		.uleb128 0
 2189 017b EF02     		.uleb128 .LEHB57-.LFB1389
 2190 017d 05       		.uleb128 .LEHE57-.LEHB57
 2191 017e C505     		.uleb128 .L112-.LFB1389
 2192 0180 00       		.uleb128 0
 2193 0181 8503     		.uleb128 .LEHB58-.LFB1389
 2194 0183 60       		.uleb128 .LEHE58-.LEHB58
 2195 0184 B105     		.uleb128 .L113-.LFB1389
 2196 0186 00       		.uleb128 0
 2197 0187 EF03     		.uleb128 .LEHB59-.LFB1389
 2198 0189 05       		.uleb128 .LEHE59-.LEHB59
 2199 018a C505     		.uleb128 .L112-.LFB1389
 2200 018c 00       		.uleb128 0
 2201 018d 8F04     		.uleb128 .LEHB60-.LFB1389
 2202 018f 8801     		.uleb128 .LEHE60-.LEHB60
 2203 0191 D805     		.uleb128 .L114-.LFB1389
 2204 0193 00       		.uleb128 0
 2205 0194 9705     		.uleb128 .LEHB61-.LFB1389
 2206 0196 1A       		.uleb128 .LEHE61-.LEHB61
 2207 0197 00       		.uleb128 0
 2208 0198 00       		.uleb128 0
 2209 0199 D305     		.uleb128 .LEHB62-.LFB1389
 2210 019b 05       		.uleb128 .LEHE62-.LEHB62
 2211 019c 00       		.uleb128 0
 2212 019d 00       		.uleb128 0
 2213 019e E605     		.uleb128 .LEHB63-.LFB1389
 2214 01a0 05       		.uleb128 .LEHE63-.LEHB63
 2215 01a1 00       		.uleb128 0
 2216 01a2 00       		.uleb128 0
 2217              	.LLSDACSE1389:
 2218 01a3 03       		.byte	0x3
 2219 01a4 00       		.byte	0
 2220 01a5 02       		.byte	0x2
 2221 01a6 7D       		.byte	0x7d
 2222 01a7 01       		.byte	0x1
 2223 01a8 7D       		.byte	0x7d
 2224 01a9 00       		.byte	0
 2225 01aa 7D       		.byte	0x7d
 2226 01ab 00       		.align 4
 2227 01ac 00000000 		.long	0
 2228              	
 2229 01b0 00000000 		.long	DW.ref._ZTISt9exception-.
 2230 01b4 00000000 		.long	DW.ref._ZTIN8UnitTest15AssertExceptionE-.
 2231              	.LLSDATT1389:
 2232              		.text
 2234              		.section	.rodata
 2235 0335 000000   		.align 8
 2236              	.LC22:
 2237 0338 3C3F786D 		.string	"<?xml version=\"1.0\"?><unittest-results tests=\"0\" failedtests=\"0\" failures=\"0\" tim
 2237      6C207665 
 2237      7273696F 
 2237      6E3D2231 
 2237      2E30223F 
 2238              		.text
 2239 104b 90       		.align 2
 2241              	_ZN12_GLOBAL__N_152XmlTestReporterFixtureEmptyReportSummaryFormatHelper7RunImplEv:
 2242              	.LFB1393:
  69:TestXmlTestReporter.cpp **** {
 2243              		.loc 3 69 0 is_stmt 1
 2244              		.cfi_startproc
 2245              		.cfi_personality 0x9b,DW.ref.__gxx_personality_v0
 2246              		.cfi_lsda 0x1b,.LLSDA1393
 2247 104c 55       		pushq	%rbp
 2248              		.cfi_def_cfa_offset 16
 2249              		.cfi_offset 6, -16
 2250 104d 4889E5   		movq	%rsp, %rbp
 2251              		.cfi_def_cfa_register 6
 2252 1050 53       		pushq	%rbx
 2253 1051 4883EC78 		subq	$120, %rsp
 2254              		.cfi_offset 3, -24
 2255 1055 48897D88 		movq	%rdi, -120(%rbp)
 2256              		.loc 3 69 0
 2257 1059 64488B04 		movq	%fs:40, %rax
 2257      25280000 
 2257      00
 2258 1062 488945E8 		movq	%rax, -24(%rbp)
 2259 1066 31C0     		xorl	%eax, %eax
  70:TestXmlTestReporter.cpp ****     reporter.ReportSummary(0, 0, 0, 0.1f);
 2260              		.loc 3 70 0
 2261 1068 488B4588 		movq	-120(%rbp), %rax
 2262 106c 48057801 		addq	$376, %rax
 2262      0000
 2263 1072 F30F1005 		movss	.LC10(%rip), %xmm0
 2263      00000000 
 2264 107a B9000000 		movl	$0, %ecx
 2264      00
 2265 107f BA000000 		movl	$0, %edx
 2265      00
 2266 1084 BE000000 		movl	$0, %esi
 2266      00
 2267 1089 4889C7   		movq	%rax, %rdi
 2268              	.LEHB64:
 2269 108c E8000000 		call	_ZN8UnitTest15XmlTestReporter13ReportSummaryEiiif@PLT
 2269      00
 2270              	.LEHE64:
  71:TestXmlTestReporter.cpp **** 
  72:TestXmlTestReporter.cpp ****     const char *expected =
 2271              		.loc 3 72 0
 2272 1091 488D0500 		leaq	.LC22(%rip), %rax
 2272      000000
 2273 1098 48894598 		movq	%rax, -104(%rbp)
 2274              	.LEHB65:
  73:TestXmlTestReporter.cpp **** "<?xml version=\"1.0\"?>"
  74:TestXmlTestReporter.cpp **** "<unittest-results tests=\"0\" failedtests=\"0\" failures=\"0\" time=\"0.1\">"
  75:TestXmlTestReporter.cpp **** "</unittest-results>";
  76:TestXmlTestReporter.cpp **** 
  77:TestXmlTestReporter.cpp ****     CHECK_EQUAL(expected, output.str());
 2275              		.loc 3 77 0
 2276 109c E8000000 		call	_ZN8UnitTest11CurrentTest7DetailsEv@PLT
 2276      00
 2277 10a1 488B08   		movq	(%rax), %rcx
 2278 10a4 488D45A0 		leaq	-96(%rbp), %rax
 2279 10a8 BA4D0000 		movl	$77, %edx
 2279      00
 2280 10ad 4889CE   		movq	%rcx, %rsi
 2281 10b0 4889C7   		movq	%rax, %rdi
 2282 10b3 E8000000 		call	_ZN8UnitTest11TestDetailsC1ERKS0_i@PLT
 2282      00
 2283              		.loc 3 77 0 is_stmt 0 discriminator 2
 2284 10b8 488B5588 		movq	-120(%rbp), %rdx
 2285 10bc 488D45C0 		leaq	-64(%rbp), %rax
 2286 10c0 4889D6   		movq	%rdx, %rsi
 2287 10c3 4889C7   		movq	%rax, %rdi
 2288 10c6 E8000000 		call	_ZNKSt7__cxx1119basic_ostringstreamIcSt11char_traitsIcESaIcEE3strEv@PLT
 2288      00
 2289              	.LEHE65:
 2290              	.LEHB66:
 2291              		.loc 3 77 0 discriminator 4
 2292 10cb E8000000 		call	_ZN8UnitTest11CurrentTest7ResultsEv@PLT
 2292      00
 2293 10d0 488B00   		movq	(%rax), %rax
 2294 10d3 488D4DA0 		leaq	-96(%rbp), %rcx
 2295 10d7 488D55C0 		leaq	-64(%rbp), %rdx
 2296 10db 488D7598 		leaq	-104(%rbp), %rsi
 2297 10df 4889C7   		movq	%rax, %rdi
 2298 10e2 E8000000 		call	_ZN8UnitTest10CheckEqualIPKcNSt7__cxx1112basic_stringIcSt11char_traitsIcESaIcEEEEEvRNS_11Test
 2298      00
 2299              	.LEHE66:
 2300              		.loc 3 77 0 discriminator 8
 2301 10e7 488D45C0 		leaq	-64(%rbp), %rax
 2302 10eb 4889C7   		movq	%rax, %rdi
 2303              	.LEHB67:
 2304 10ee E8000000 		call	_ZNSt7__cxx1112basic_stringIcSt11char_traitsIcESaIcEED1Ev@PLT
 2304      00
 2305              	.LEHE67:
  78:TestXmlTestReporter.cpp **** }
 2306              		.loc 3 78 0 is_stmt 1
 2307 10f3 EB70     		jmp	.L116
 2308              	.L123:
 2309 10f5 4889C3   		movq	%rax, %rbx
  77:TestXmlTestReporter.cpp **** }
 2310              		.loc 3 77 0
 2311 10f8 488D45C0 		leaq	-64(%rbp), %rax
 2312 10fc 4889C7   		movq	%rax, %rdi
 2313 10ff E8000000 		call	_ZNSt7__cxx1112basic_stringIcSt11char_traitsIcESaIcEED1Ev@PLT
 2313      00
 2314 1104 4889D8   		movq	%rbx, %rax
 2315 1107 EB00     		jmp	.L118
 2316              	.L122:
 2317              	.L118:
 2318 1109 4889C7   		movq	%rax, %rdi
 2319 110c E8000000 		call	__cxa_begin_catch@PLT
 2319      00
 2320              	.LEHB68:
 2321 1111 E8000000 		call	_ZN8UnitTest11CurrentTest7ResultsEv@PLT
 2321      00
 2322 1116 488B18   		movq	(%rax), %rbx
 2323 1119 E8000000 		call	_ZN8UnitTest11CurrentTest7DetailsEv@PLT
 2323      00
  77:TestXmlTestReporter.cpp **** }
 2324              		.loc 3 77 0 is_stmt 0 discriminator 12
 2325 111e 488B08   		movq	(%rax), %rcx
 2326 1121 488D45A0 		leaq	-96(%rbp), %rax
 2327 1125 BA4D0000 		movl	$77, %edx
 2327      00
 2328 112a 4889CE   		movq	%rcx, %rsi
 2329 112d 4889C7   		movq	%rax, %rdi
 2330 1130 E8000000 		call	_ZN8UnitTest11TestDetailsC1ERKS0_i@PLT
 2330      00
  77:TestXmlTestReporter.cpp **** }
 2331              		.loc 3 77 0 discriminator 16
 2332 1135 488D45A0 		leaq	-96(%rbp), %rax
 2333 1139 488D1500 		leaq	.LC12(%rip), %rdx
 2333      000000
 2334 1140 4889C6   		movq	%rax, %rsi
 2335 1143 4889DF   		movq	%rbx, %rdi
 2336 1146 E8000000 		call	_ZN8UnitTest11TestResults13OnTestFailureERKNS_11TestDetailsEPKc@PLT
 2336      00
 2337              	.LEHE68:
 2338              	.LEHB69:
  77:TestXmlTestReporter.cpp **** }
 2339              		.loc 3 77 0 discriminator 18
 2340 114b E8000000 		call	__cxa_end_catch@PLT
 2340      00
 2341              	.LEHE69:
 2342              		.loc 3 78 0 is_stmt 1 discriminator 18
 2343 1150 EB13     		jmp	.L116
 2344              	.L124:
 2345 1152 4889C3   		movq	%rax, %rbx
  77:TestXmlTestReporter.cpp **** }
 2346              		.loc 3 77 0
 2347 1155 E8000000 		call	__cxa_end_catch@PLT
 2347      00
 2348 115a 4889D8   		movq	%rbx, %rax
 2349 115d 4889C7   		movq	%rax, %rdi
 2350              	.LEHB70:
 2351 1160 E8000000 		call	_Unwind_Resume@PLT
 2351      00
 2352              	.LEHE70:
 2353              	.L116:
 2354              		.loc 3 78 0
 2355 1165 488B45E8 		movq	-24(%rbp), %rax
 2356 1169 64483304 		xorq	%fs:40, %rax
 2356      25280000 
 2356      00
 2357 1172 7405     		je	.L121
 2358 1174 E8000000 		call	__stack_chk_fail@PLT
 2358      00
 2359              	.L121:
 2360 1179 4883C478 		addq	$120, %rsp
 2361 117d 5B       		popq	%rbx
 2362 117e 5D       		popq	%rbp
 2363              		.cfi_def_cfa 7, 8
 2364 117f C3       		ret
 2365              		.cfi_endproc
 2366              	.LFE1393:
 2367              		.section	.gcc_except_table
 2368              		.align 4
 2369              	.LLSDA1393:
 2370 01b8 FF       		.byte	0xff
 2371 01b9 9B       		.byte	0x9b
 2372 01ba 31       		.uleb128 .LLSDATT1393-.LLSDATTD1393
 2373              	.LLSDATTD1393:
 2374 01bb 01       		.byte	0x1
 2375 01bc 24       		.uleb128 .LLSDACSE1393-.LLSDACSB1393
 2376              	.LLSDACSB1393:
 2377 01bd 40       		.uleb128 .LEHB64-.LFB1393
 2378 01be 05       		.uleb128 .LEHE64-.LEHB64
 2379 01bf 00       		.uleb128 0
 2380 01c0 00       		.uleb128 0
 2381 01c1 50       		.uleb128 .LEHB65-.LFB1393
 2382 01c2 2F       		.uleb128 .LEHE65-.LEHB65
 2383 01c3 BD01     		.uleb128 .L122-.LFB1393
 2384 01c5 01       		.uleb128 0x1
 2385 01c6 7F       		.uleb128 .LEHB66-.LFB1393
 2386 01c7 1C       		.uleb128 .LEHE66-.LEHB66
 2387 01c8 A901     		.uleb128 .L123-.LFB1393
 2388 01ca 03       		.uleb128 0x3
 2389 01cb A201     		.uleb128 .LEHB67-.LFB1393
 2390 01cd 05       		.uleb128 .LEHE67-.LEHB67
 2391 01ce BD01     		.uleb128 .L122-.LFB1393
 2392 01d0 01       		.uleb128 0x1
 2393 01d1 C501     		.uleb128 .LEHB68-.LFB1393
 2394 01d3 3A       		.uleb128 .LEHE68-.LEHB68
 2395 01d4 8602     		.uleb128 .L124-.LFB1393
 2396 01d6 00       		.uleb128 0
 2397 01d7 FF01     		.uleb128 .LEHB69-.LFB1393
 2398 01d9 05       		.uleb128 .LEHE69-.LEHB69
 2399 01da 00       		.uleb128 0
 2400 01db 00       		.uleb128 0
 2401 01dc 9402     		.uleb128 .LEHB70-.LFB1393
 2402 01de 05       		.uleb128 .LEHE70-.LEHB70
 2403 01df 00       		.uleb128 0
 2404 01e0 00       		.uleb128 0
 2405              	.LLSDACSE1393:
 2406 01e1 01       		.byte	0x1
 2407 01e2 00       		.byte	0
 2408 01e3 00       		.byte	0
 2409 01e4 7D       		.byte	0x7d
 2410 01e5 000000   		.align 4
 2411 01e8 00000000 		.long	0
 2412              	
 2413              	.LLSDATT1393:
 2414              		.text
 2416              		.align 2
 2418              	_ZN12_GLOBAL__N_167XmlTestReporterFixtureSingleSuccessfulTestReportSummaryFormatHelperC2ERKN8UnitTe
 2419              	.LFB1395:
  79:TestXmlTestReporter.cpp **** 
  80:TestXmlTestReporter.cpp **** TEST_FIXTURE(XmlTestReporterFixture, SingleSuccessfulTestReportSummaryFormat)
 2420              		.loc 3 80 0
 2421              		.cfi_startproc
 2422 1180 55       		pushq	%rbp
 2423              		.cfi_def_cfa_offset 16
 2424              		.cfi_offset 6, -16
 2425 1181 4889E5   		movq	%rsp, %rbp
 2426              		.cfi_def_cfa_register 6
 2427 1184 4883EC10 		subq	$16, %rsp
 2428 1188 48897DF8 		movq	%rdi, -8(%rbp)
 2429 118c 488975F0 		movq	%rsi, -16(%rbp)
 2430              	.LBB41:
 2431              		.loc 3 80 0
 2432 1190 488B45F8 		movq	-8(%rbp), %rax
 2433 1194 4889C7   		movq	%rax, %rdi
 2434 1197 E864EEFF 		call	_ZN12_GLOBAL__N_122XmlTestReporterFixtureC2Ev
 2434      FF
 2435 119c 488B45F8 		movq	-8(%rbp), %rax
 2436 11a0 488B55F0 		movq	-16(%rbp), %rdx
 2437 11a4 488990A0 		movq	%rdx, 416(%rax)
 2437      010000
 2438              	.LBE41:
 2439 11ab 90       		nop
 2440 11ac C9       		leave
 2441              		.cfi_def_cfa 7, 8
 2442 11ad C3       		ret
 2443              		.cfi_endproc
 2444              	.LFE1395:
 2446              		.set	_ZN12_GLOBAL__N_167XmlTestReporterFixtureSingleSuccessfulTestReportSummaryFormatHelperC1ERKN8
 2447              		.section	.rodata
 2448 03a5 000000   		.align 8
 2449              	.LC23:
 2450 03a8 53696E67 		.string	"SingleSuccessfulTestReportSummaryFormat"
 2450      6C655375 
 2450      63636573 
 2450      7366756C 
 2450      54657374 
 2451              		.text
 2452              		.align 2
 2454              	_ZN12_GLOBAL__N_165TestXmlTestReporterFixtureSingleSuccessfulTestReportSummaryFormatC2Ev:
 2455              	.LFB1398:
 2456              		.loc 3 80 0
 2457              		.cfi_startproc
 2458 11ae 55       		pushq	%rbp
 2459              		.cfi_def_cfa_offset 16
 2460              		.cfi_offset 6, -16
 2461 11af 4889E5   		movq	%rsp, %rbp
 2462              		.cfi_def_cfa_register 6
 2463 11b2 53       		pushq	%rbx
 2464 11b3 4883EC18 		subq	$24, %rsp
 2465              		.cfi_offset 3, -24
 2466 11b7 48897DE8 		movq	%rdi, -24(%rbp)
 2467              	.LBB42:
 2468              		.loc 3 80 0
 2469 11bb 488B5DE8 		movq	-24(%rbp), %rbx
 2470 11bf E8000000 		call	_ZN13UnitTestSuite12GetSuiteNameEv
 2470      00
 2471 11c4 41B85000 		movl	$80, %r8d
 2471      0000
 2472 11ca 488D0D00 		leaq	.LC1(%rip), %rcx
 2472      000000
 2473 11d1 4889C2   		movq	%rax, %rdx
 2474 11d4 488D3500 		leaq	.LC23(%rip), %rsi
 2474      000000
 2475 11db 4889DF   		movq	%rbx, %rdi
 2476 11de E8000000 		call	_ZN8UnitTest4TestC2EPKcS2_S2_i@PLT
 2476      00
 2477 11e3 488D1500 		leaq	16+_ZTVN12_GLOBAL__N_165TestXmlTestReporterFixtureSingleSuccessfulTestReportSummaryFormatE(%r
 2477      000000
 2478 11ea 488B45E8 		movq	-24(%rbp), %rax
 2479 11ee 488910   		movq	%rdx, (%rax)
 2480              	.LBE42:
 2481 11f1 90       		nop
 2482 11f2 4883C418 		addq	$24, %rsp
 2483 11f6 5B       		popq	%rbx
 2484 11f7 5D       		popq	%rbp
 2485              		.cfi_def_cfa 7, 8
 2486 11f8 C3       		ret
 2487              		.cfi_endproc
 2488              	.LFE1398:
 2490              		.set	_ZN12_GLOBAL__N_165TestXmlTestReporterFixtureSingleSuccessfulTestReportSummaryFormatC1Ev,_ZN1
 2491              		.local	_ZN12_GLOBAL__N_173testXmlTestReporterFixtureSingleSuccessfulTestReportSummaryFormatInstanc
 2492              		.comm	_ZN12_GLOBAL__N_173testXmlTestReporterFixtureSingleSuccessfulTestReportSummaryFormatInstance
 2493              		.local	_ZN12_GLOBAL__N_166adderXmlTestReporterFixtureSingleSuccessfulTestReportSummaryFormatE
 2494              		.comm	_ZN12_GLOBAL__N_166adderXmlTestReporterFixtureSingleSuccessfulTestReportSummaryFormatE,1,1
 2495 11f9 90       		.align 2
 2497              	_ZN12_GLOBAL__N_167XmlTestReporterFixtureSingleSuccessfulTestReportSummaryFormatHelperD2Ev:
 2498              	.LFB1402:
 2499              		.loc 3 80 0
 2500              		.cfi_startproc
 2501 11fa 55       		pushq	%rbp
 2502              		.cfi_def_cfa_offset 16
 2503              		.cfi_offset 6, -16
 2504 11fb 4889E5   		movq	%rsp, %rbp
 2505              		.cfi_def_cfa_register 6
 2506 11fe 4883EC10 		subq	$16, %rsp
 2507 1202 48897DF8 		movq	%rdi, -8(%rbp)
 2508              	.LBB43:
 2509              		.loc 3 80 0
 2510 1206 488B45F8 		movq	-8(%rbp), %rax
 2511 120a 4889C7   		movq	%rax, %rdi
 2512 120d E84AEEFF 		call	_ZN12_GLOBAL__N_122XmlTestReporterFixtureD2Ev
 2512      FF
 2513              	.LBE43:
 2514 1212 90       		nop
 2515 1213 C9       		leave
 2516              		.cfi_def_cfa 7, 8
 2517 1214 C3       		ret
 2518              		.cfi_endproc
 2519              	.LFE1402:
 2521              		.set	_ZN12_GLOBAL__N_167XmlTestReporterFixtureSingleSuccessfulTestReportSummaryFormatHelperD1Ev,_Z
 2522 1215 90       		.align 2
 2524              	_ZNK12_GLOBAL__N_165TestXmlTestReporterFixtureSingleSuccessfulTestReportSummaryFormat7RunImplEv:
 2525              	.LFB1400:
 2526              		.loc 3 80 0
 2527              		.cfi_startproc
 2528              		.cfi_personality 0x9b,DW.ref.__gxx_personality_v0
 2529              		.cfi_lsda 0x1b,.LLSDA1400
 2530 1216 55       		pushq	%rbp
 2531              		.cfi_def_cfa_offset 16
 2532              		.cfi_offset 6, -16
 2533 1217 4889E5   		movq	%rsp, %rbp
 2534              		.cfi_def_cfa_register 6
 2535 121a 4155     		pushq	%r13
 2536 121c 4154     		pushq	%r12
 2537 121e 53       		pushq	%rbx
 2538 121f 4881EC08 		subq	$520, %rsp
 2538      020000
 2539              		.cfi_offset 13, -24
 2540              		.cfi_offset 12, -32
 2541              		.cfi_offset 3, -40
 2542 1226 4889BDE8 		movq	%rdi, -536(%rbp)
 2542      FDFFFF
 2543              		.loc 3 80 0
 2544 122d 64488B04 		movq	%fs:40, %rax
 2544      25280000 
 2544      00
 2545 1236 488945D8 		movq	%rax, -40(%rbp)
 2546 123a 31C0     		xorl	%eax, %eax
 2547 123c C685FFFD 		movb	$0, -513(%rbp)
 2547      FFFF00
 2548              	.LBB44:
 2549 1243 488B85E8 		movq	-536(%rbp), %rax
 2549      FDFFFF
 2550 124a 488D5008 		leaq	8(%rax), %rdx
 2551 124e 488D8530 		leaq	-464(%rbp), %rax
 2551      FEFFFF
 2552 1255 4889D6   		movq	%rdx, %rsi
 2553 1258 4889C7   		movq	%rax, %rdi
 2554              	.LEHB71:
 2555 125b E820FFFF 		call	_ZN12_GLOBAL__N_167XmlTestReporterFixtureSingleSuccessfulTestReportSummaryFormatHelperC1ERKN8
 2555      FF
 2556              	.LEHE71:
 2557              		.loc 3 80 0 is_stmt 0 discriminator 1
 2558 1260 C685FFFD 		movb	$1, -513(%rbp)
 2558      FFFF01
 2559 1267 488B85E8 		movq	-536(%rbp), %rax
 2559      FDFFFF
 2560 126e 488D5008 		leaq	8(%rax), %rdx
 2561 1272 488D8530 		leaq	-464(%rbp), %rax
 2561      FEFFFF
 2562 1279 4889D6   		movq	%rdx, %rsi
 2563 127c 4889C7   		movq	%rax, %rdi
 2564              	.LEHB72:
 2565 127f E81A2300 		call	_ZN8UnitTest11ExecuteTestIN12_GLOBAL__N_167XmlTestReporterFixtureSingleSuccessfulTestReportSu
 2565      00
 2566              	.LEHE72:
 2567              		.loc 3 80 0 discriminator 3
 2568 1284 488D8530 		leaq	-464(%rbp), %rax
 2568      FEFFFF
 2569 128b 4889C7   		movq	%rax, %rdi
 2570              	.LEHB73:
 2571 128e E867FFFF 		call	_ZN12_GLOBAL__N_167XmlTestReporterFixtureSingleSuccessfulTestReportSummaryFormatHelperD1Ev
 2571      FF
 2572              	.LEHE73:
 2573              	.LBE44:
 2574              		.loc 3 80 0
 2575 1293 E9690200 		jmp	.L128
 2575      00
 2576              	.L143:
 2577 1298 4989C4   		movq	%rax, %r12
 2578 129b 4889D3   		movq	%rdx, %rbx
 2579              	.LBB45:
 2580 129e 488D8530 		leaq	-464(%rbp), %rax
 2580      FEFFFF
 2581 12a5 4889C7   		movq	%rax, %rdi
 2582 12a8 E84DFFFF 		call	_ZN12_GLOBAL__N_167XmlTestReporterFixtureSingleSuccessfulTestReportSummaryFormatHelperD1Ev
 2582      FF
 2583 12ad 4C89E0   		movq	%r12, %rax
 2584 12b0 4889DA   		movq	%rbx, %rdx
 2585 12b3 EB00     		jmp	.L130
 2586              	.L142:
 2587              	.L130:
 2588 12b5 4883FA01 		cmpq	$1, %rdx
 2589 12b9 740F     		je	.L132
 2590 12bb 4883FA02 		cmpq	$2, %rdx
 2591 12bf 0F84A700 		je	.L133
 2591      0000
 2592 12c5 E94A0100 		jmp	.L148
 2592      00
 2593              	.L132:
 2594              	.LBE45:
 2595              	.LBB46:
 2596 12ca 4889C7   		movq	%rax, %rdi
 2597 12cd E8000000 		call	__cxa_begin_catch@PLT
 2597      00
 2598 12d2 48898508 		movq	%rax, -504(%rbp)
 2598      FEFFFF
 2599              	.LEHB74:
 2600 12d9 E8000000 		call	_ZN8UnitTest11CurrentTest7ResultsEv@PLT
 2600      00
 2601 12de 488B18   		movq	(%rax), %rbx
 2602 12e1 488B8508 		movq	-504(%rbp), %rax
 2602      FEFFFF
 2603 12e8 488B00   		movq	(%rax), %rax
 2604 12eb 4883C010 		addq	$16, %rax
 2605 12ef 488B00   		movq	(%rax), %rax
 2606 12f2 488B9508 		movq	-504(%rbp), %rdx
 2606      FEFFFF
 2607 12f9 4889D7   		movq	%rdx, %rdi
 2608 12fc FFD0     		call	*%rax
 2609              	.LVL6:
 2610 12fe 4989C4   		movq	%rax, %r12
 2611 1301 488B8508 		movq	-504(%rbp), %rax
 2611      FEFFFF
 2612 1308 4889C7   		movq	%rax, %rdi
 2613 130b E8000000 		call	_ZNK8UnitTest15AssertException10LineNumberEv@PLT
 2613      00
 2614              		.loc 3 80 0 discriminator 5
 2615 1310 4189C5   		movl	%eax, %r13d
 2616 1313 488B8508 		movq	-504(%rbp), %rax
 2616      FEFFFF
 2617 131a 4889C7   		movq	%rax, %rdi
 2618 131d E8000000 		call	_ZNK8UnitTest15AssertException8FilenameEv@PLT
 2618      00
 2619              		.loc 3 80 0 discriminator 7
 2620 1322 4889C1   		movq	%rax, %rcx
 2621 1325 488B85E8 		movq	-536(%rbp), %rax
 2621      FDFFFF
 2622 132c 488B5008 		movq	8(%rax), %rdx
 2623 1330 488B85E8 		movq	-536(%rbp), %rax
 2623      FDFFFF
 2624 1337 488B7010 		movq	16(%rax), %rsi
 2625 133b 488D8510 		leaq	-496(%rbp), %rax
 2625      FEFFFF
 2626 1342 4589E8   		movl	%r13d, %r8d
 2627 1345 4889C7   		movq	%rax, %rdi
 2628 1348 E8000000 		call	_ZN8UnitTest11TestDetailsC1EPKcS2_S2_i@PLT
 2628      00
 2629              		.loc 3 80 0 discriminator 11
 2630 134d 488D8510 		leaq	-496(%rbp), %rax
 2630      FEFFFF
 2631 1354 4C89E2   		movq	%r12, %rdx
 2632 1357 4889C6   		movq	%rax, %rsi
 2633 135a 4889DF   		movq	%rbx, %rdi
 2634 135d E8000000 		call	_ZN8UnitTest11TestResults13OnTestFailureERKNS_11TestDetailsEPKc@PLT
 2634      00
 2635              	.LEHE74:
 2636              		.loc 3 80 0 discriminator 13
 2637 1362 E8000000 		call	__cxa_end_catch@PLT
 2637      00
 2638              	.LBE46:
 2639 1367 E9950100 		jmp	.L128
 2639      00
 2640              	.L133:
 2641              	.LBB47:
 2642              		.loc 3 80 0
 2643 136c 4889C7   		movq	%rax, %rdi
 2644 136f E8000000 		call	__cxa_begin_catch@PLT
 2644      00
 2645 1374 48898500 		movq	%rax, -512(%rbp)
 2645      FEFFFF
 2646              	.LBB48:
 2647 137b 488D8530 		leaq	-464(%rbp), %rax
 2647      FEFFFF
 2648 1382 4889C7   		movq	%rax, %rdi
 2649              	.LEHB75:
 2650 1385 E8000000 		call	_ZN8UnitTest15MemoryOutStreamC1Ev
 2650      00
 2651              	.LEHE75:
 2652              		.loc 3 80 0 discriminator 15
 2653 138a 488D8530 		leaq	-464(%rbp), %rax
 2653      FEFFFF
 2654 1391 488D3500 		leaq	.LC3(%rip), %rsi
 2654      000000
 2655 1398 4889C7   		movq	%rax, %rdi
 2656              	.LEHB76:
 2657 139b E8000000 		call	_ZStlsISt11char_traitsIcEERSt13basic_ostreamIcT_ES5_PKc@PLT
 2657      00
 2658 13a0 4889C3   		movq	%rax, %rbx
 2659 13a3 488B8500 		movq	-512(%rbp), %rax
 2659      FEFFFF
 2660 13aa 488B00   		movq	(%rax), %rax
 2661 13ad 4883C010 		addq	$16, %rax
 2662 13b1 488B00   		movq	(%rax), %rax
 2663 13b4 488B9500 		movq	-512(%rbp), %rdx
 2663      FEFFFF
 2664 13bb 4889D7   		movq	%rdx, %rdi
 2665 13be FFD0     		call	*%rax
 2666              	.LVL7:
 2667 13c0 4889C6   		movq	%rax, %rsi
 2668 13c3 4889DF   		movq	%rbx, %rdi
 2669 13c6 E8000000 		call	_ZStlsISt11char_traitsIcEERSt13basic_ostreamIcT_ES5_PKc@PLT
 2669      00
 2670              		.loc 3 80 0 discriminator 19
 2671 13cb E8000000 		call	_ZN8UnitTest11CurrentTest7ResultsEv@PLT
 2671      00
 2672 13d0 488B18   		movq	(%rax), %rbx
 2673 13d3 488D8530 		leaq	-464(%rbp), %rax
 2673      FEFFFF
 2674 13da 4889C7   		movq	%rax, %rdi
 2675 13dd E8000000 		call	_ZNK8UnitTest15MemoryOutStream7GetTextEv@PLT
 2675      00
 2676              		.loc 3 80 0 discriminator 21
 2677 13e2 4889C2   		movq	%rax, %rdx
 2678 13e5 488B85E8 		movq	-536(%rbp), %rax
 2678      FDFFFF
 2679 13ec 4883C008 		addq	$8, %rax
 2680 13f0 4889C6   		movq	%rax, %rsi
 2681 13f3 4889DF   		movq	%rbx, %rdi
 2682 13f6 E8000000 		call	_ZN8UnitTest11TestResults13OnTestFailureERKNS_11TestDetailsEPKc@PLT
 2682      00
 2683              	.LEHE76:
 2684              		.loc 3 80 0 discriminator 25
 2685 13fb 488D8530 		leaq	-464(%rbp), %rax
 2685      FEFFFF
 2686 1402 4889C7   		movq	%rax, %rdi
 2687              	.LEHB77:
 2688 1405 E8000000 		call	_ZN8UnitTest15MemoryOutStreamD1Ev
 2688      00
 2689              	.LEHE77:
 2690              	.LBE48:
 2691              		.loc 3 80 0 discriminator 26
 2692 140a E8000000 		call	__cxa_end_catch@PLT
 2692      00
 2693              	.LBE47:
 2694 140f E9ED0000 		jmp	.L128
 2694      00
 2695              	.L148:
 2696              		.loc 3 80 0
 2697 1414 4889C7   		movq	%rax, %rdi
 2698 1417 E8000000 		call	__cxa_begin_catch@PLT
 2698      00
 2699 141c 80BDFFFD 		cmpb	$0, -513(%rbp)
 2699      FFFF00
 2700 1423 7445     		je	.L135
 2701              	.LEHB78:
 2702              		.loc 3 80 0 discriminator 28
 2703 1425 E8000000 		call	_ZN8UnitTest11CurrentTest7ResultsEv@PLT
 2703      00
 2704 142a 488B18   		movq	(%rax), %rbx
 2705 142d 488B85E8 		movq	-536(%rbp), %rax
 2705      FDFFFF
 2706 1434 488D4808 		leaq	8(%rax), %rcx
 2707 1438 488D8510 		leaq	-496(%rbp), %rax
 2707      FEFFFF
 2708 143f BA500000 		movl	$80, %edx
 2708      00
 2709 1444 4889CE   		movq	%rcx, %rsi
 2710 1447 4889C7   		movq	%rax, %rdi
 2711 144a E8000000 		call	_ZN8UnitTest11TestDetailsC1ERKS0_i@PLT
 2711      00
 2712              		.loc 3 80 0 discriminator 33
 2713 144f 488D8510 		leaq	-496(%rbp), %rax
 2713      FEFFFF
 2714 1456 488D1500 		leaq	.LC4(%rip), %rdx
 2714      000000
 2715 145d 4889C6   		movq	%rax, %rsi
 2716 1460 4889DF   		movq	%rbx, %rdi
 2717 1463 E8000000 		call	_ZN8UnitTest11TestResults13OnTestFailureERKNS_11TestDetailsEPKc@PLT
 2717      00
 2718 1468 EB43     		jmp	.L136
 2719              	.L135:
 2720              		.loc 3 80 0 discriminator 29
 2721 146a E8000000 		call	_ZN8UnitTest11CurrentTest7ResultsEv@PLT
 2721      00
 2722 146f 488B18   		movq	(%rax), %rbx
 2723 1472 488B85E8 		movq	-536(%rbp), %rax
 2723      FDFFFF
 2724 1479 488D4808 		leaq	8(%rax), %rcx
 2725 147d 488D8510 		leaq	-496(%rbp), %rax
 2725      FEFFFF
 2726 1484 BA500000 		movl	$80, %edx
 2726      00
 2727 1489 4889CE   		movq	%rcx, %rsi
 2728 148c 4889C7   		movq	%rax, %rdi
 2729 148f E8000000 		call	_ZN8UnitTest11TestDetailsC1ERKS0_i@PLT
 2729      00
 2730              		.loc 3 80 0 discriminator 40
 2731 1494 488D8510 		leaq	-496(%rbp), %rax
 2731      FEFFFF
 2732 149b 488D1500 		leaq	.LC5(%rip), %rdx
 2732      000000
 2733 14a2 4889C6   		movq	%rax, %rsi
 2734 14a5 4889DF   		movq	%rbx, %rdi
 2735 14a8 E8000000 		call	_ZN8UnitTest11TestResults13OnTestFailureERKNS_11TestDetailsEPKc@PLT
 2735      00
 2736              	.LEHE78:
 2737              	.L136:
 2738              	.LEHB79:
 2739              		.loc 3 80 0 discriminator 43
 2740 14ad E8000000 		call	__cxa_end_catch@PLT
 2740      00
 2741 14b2 EB4D     		jmp	.L128
 2742              	.L144:
 2743 14b4 4889C3   		movq	%rax, %rbx
 2744              	.LBB50:
 2745              		.loc 3 80 0
 2746 14b7 E8000000 		call	__cxa_end_catch@PLT
 2746      00
 2747 14bc 4889D8   		movq	%rbx, %rax
 2748 14bf 4889C7   		movq	%rax, %rdi
 2749 14c2 E8000000 		call	_Unwind_Resume@PLT
 2749      00
 2750              	.LEHE79:
 2751              	.L146:
 2752 14c7 4889C3   		movq	%rax, %rbx
 2753              	.LBE50:
 2754              	.LBB51:
 2755              	.LBB49:
 2756 14ca 488D8530 		leaq	-464(%rbp), %rax
 2756      FEFFFF
 2757 14d1 4889C7   		movq	%rax, %rdi
 2758 14d4 E8000000 		call	_ZN8UnitTest15MemoryOutStreamD1Ev
 2758      00
 2759 14d9 EB03     		jmp	.L139
 2760              	.L145:
 2761 14db 4889C3   		movq	%rax, %rbx
 2762              	.L139:
 2763              	.LBE49:
 2764 14de E8000000 		call	__cxa_end_catch@PLT
 2764      00
 2765 14e3 4889D8   		movq	%rbx, %rax
 2766 14e6 4889C7   		movq	%rax, %rdi
 2767              	.LEHB80:
 2768 14e9 E8000000 		call	_Unwind_Resume@PLT
 2768      00
 2769              	.LEHE80:
 2770              	.L147:
 2771 14ee 4889C3   		movq	%rax, %rbx
 2772              	.LBE51:
 2773 14f1 E8000000 		call	__cxa_end_catch@PLT
 2773      00
 2774 14f6 4889D8   		movq	%rbx, %rax
 2775 14f9 4889C7   		movq	%rax, %rdi
 2776              	.LEHB81:
 2777 14fc E8000000 		call	_Unwind_Resume@PLT
 2777      00
 2778              	.LEHE81:
 2779              	.L128:
 2780 1501 488B45D8 		movq	-40(%rbp), %rax
 2781 1505 64483304 		xorq	%fs:40, %rax
 2781      25280000 
 2781      00
 2782 150e 7405     		je	.L141
 2783 1510 E8000000 		call	__stack_chk_fail@PLT
 2783      00
 2784              	.L141:
 2785 1515 4881C408 		addq	$520, %rsp
 2785      020000
 2786 151c 5B       		popq	%rbx
 2787 151d 415C     		popq	%r12
 2788 151f 415D     		popq	%r13
 2789 1521 5D       		popq	%rbp
 2790              		.cfi_def_cfa 7, 8
 2791 1522 C3       		ret
 2792              		.cfi_endproc
 2793              	.LFE1400:
 2794              		.section	.gcc_except_table
 2795              		.align 4
 2796              	.LLSDA1400:
 2797 01ec FF       		.byte	0xff
 2798 01ed 9B       		.byte	0x9b
 2799 01ee 55       		.uleb128 .LLSDATT1400-.LLSDATTD1400
 2800              	.LLSDATTD1400:
 2801 01ef 01       		.byte	0x1
 2802 01f0 3E       		.uleb128 .LLSDACSE1400-.LLSDACSB1400
 2803              	.LLSDACSB1400:
 2804 01f1 45       		.uleb128 .LEHB71-.LFB1400
 2805 01f2 05       		.uleb128 .LEHE71-.LEHB71
 2806 01f3 9F01     		.uleb128 .L142-.LFB1400
 2807 01f5 05       		.uleb128 0x5
 2808 01f6 69       		.uleb128 .LEHB72-.LFB1400
 2809 01f7 05       		.uleb128 .LEHE72-.LEHB72
 2810 01f8 8201     		.uleb128 .L143-.LFB1400
 2811 01fa 07       		.uleb128 0x7
 2812 01fb 78       		.uleb128 .LEHB73-.LFB1400
 2813 01fc 05       		.uleb128 .LEHE73-.LEHB73
 2814 01fd 9F01     		.uleb128 .L142-.LFB1400
 2815 01ff 05       		.uleb128 0x5
 2816 0200 C301     		.uleb128 .LEHB74-.LFB1400
 2817 0202 8901     		.uleb128 .LEHE74-.LEHB74
 2818 0204 9E05     		.uleb128 .L144-.LFB1400
 2819 0206 00       		.uleb128 0
 2820 0207 EF02     		.uleb128 .LEHB75-.LFB1400
 2821 0209 05       		.uleb128 .LEHE75-.LEHB75
 2822 020a C505     		.uleb128 .L145-.LFB1400
 2823 020c 00       		.uleb128 0
 2824 020d 8503     		.uleb128 .LEHB76-.LFB1400
 2825 020f 60       		.uleb128 .LEHE76-.LEHB76
 2826 0210 B105     		.uleb128 .L146-.LFB1400
 2827 0212 00       		.uleb128 0
 2828 0213 EF03     		.uleb128 .LEHB77-.LFB1400
 2829 0215 05       		.uleb128 .LEHE77-.LEHB77
 2830 0216 C505     		.uleb128 .L145-.LFB1400
 2831 0218 00       		.uleb128 0
 2832 0219 8F04     		.uleb128 .LEHB78-.LFB1400
 2833 021b 8801     		.uleb128 .LEHE78-.LEHB78
 2834 021d D805     		.uleb128 .L147-.LFB1400
 2835 021f 00       		.uleb128 0
 2836 0220 9705     		.uleb128 .LEHB79-.LFB1400
 2837 0222 1A       		.uleb128 .LEHE79-.LEHB79
 2838 0223 00       		.uleb128 0
 2839 0224 00       		.uleb128 0
 2840 0225 D305     		.uleb128 .LEHB80-.LFB1400
 2841 0227 05       		.uleb128 .LEHE80-.LEHB80
 2842 0228 00       		.uleb128 0
 2843 0229 00       		.uleb128 0
 2844 022a E605     		.uleb128 .LEHB81-.LFB1400
 2845 022c 05       		.uleb128 .LEHE81-.LEHB81
 2846 022d 00       		.uleb128 0
 2847 022e 00       		.uleb128 0
 2848              	.LLSDACSE1400:
 2849 022f 03       		.byte	0x3
 2850 0230 00       		.byte	0
 2851 0231 02       		.byte	0x2
 2852 0232 7D       		.byte	0x7d
 2853 0233 01       		.byte	0x1
 2854 0234 7D       		.byte	0x7d
 2855 0235 00       		.byte	0
 2856 0236 7D       		.byte	0x7d
 2857 0237 00       		.align 4
 2858 0238 00000000 		.long	0
 2859              	
 2860 023c 00000000 		.long	DW.ref._ZTISt9exception-.
 2861 0240 00000000 		.long	DW.ref._ZTIN8UnitTest15AssertExceptionE-.
 2862              	.LLSDATT1400:
 2863              		.text
 2865              		.section	.rodata
 2866              		.align 8
 2867              	.LC24:
 2868 03d0 3C3F786D 		.string	"<?xml version=\"1.0\"?><unittest-results tests=\"1\" failedtests=\"0\" failures=\"0\" tim
 2868      6C207665 
 2868      7273696F 
 2868      6E3D2231 
 2868      2E30223F 
 2869              		.text
 2870 1523 90       		.align 2
 2872              	_ZN12_GLOBAL__N_167XmlTestReporterFixtureSingleSuccessfulTestReportSummaryFormatHelper7RunImplEv:
 2873              	.LFB1404:
  81:TestXmlTestReporter.cpp **** {
 2874              		.loc 3 81 0 is_stmt 1
 2875              		.cfi_startproc
 2876              		.cfi_personality 0x9b,DW.ref.__gxx_personality_v0
 2877              		.cfi_lsda 0x1b,.LLSDA1404
 2878 1524 55       		pushq	%rbp
 2879              		.cfi_def_cfa_offset 16
 2880              		.cfi_offset 6, -16
 2881 1525 4889E5   		movq	%rsp, %rbp
 2882              		.cfi_def_cfa_register 6
 2883 1528 53       		pushq	%rbx
 2884 1529 4881EC98 		subq	$152, %rsp
 2884      000000
 2885              		.cfi_offset 3, -24
 2886 1530 4889BD68 		movq	%rdi, -152(%rbp)
 2886      FFFFFF
 2887              		.loc 3 81 0
 2888 1537 64488B04 		movq	%fs:40, %rax
 2888      25280000 
 2888      00
 2889 1540 488945E8 		movq	%rax, -24(%rbp)
 2890 1544 31C0     		xorl	%eax, %eax
  82:TestXmlTestReporter.cpp ****     TestDetails const details("TestName", "DefaultSuite", "", 0);
 2891              		.loc 3 82 0
 2892 1546 488D4580 		leaq	-128(%rbp), %rax
 2893 154a 41B80000 		movl	$0, %r8d
 2893      0000
 2894 1550 488D0D00 		leaq	.LC14(%rip), %rcx
 2894      000000
 2895 1557 488D1500 		leaq	.LC0(%rip), %rdx
 2895      000000
 2896 155e 488D3500 		leaq	.LC8(%rip), %rsi
 2896      000000
 2897 1565 4889C7   		movq	%rax, %rdi
 2898              	.LEHB82:
 2899 1568 E8000000 		call	_ZN8UnitTest11TestDetailsC1EPKcS2_S2_i@PLT
 2899      00
  83:TestXmlTestReporter.cpp **** 
  84:TestXmlTestReporter.cpp ****     reporter.ReportTestStart(details);
 2900              		.loc 3 84 0
 2901 156d 488B8568 		movq	-152(%rbp), %rax
 2901      FFFFFF
 2902 1574 488D9078 		leaq	376(%rax), %rdx
 2902      010000
 2903 157b 488D4580 		leaq	-128(%rbp), %rax
 2904 157f 4889C6   		movq	%rax, %rsi
 2905 1582 4889D7   		movq	%rdx, %rdi
 2906 1585 E8000000 		call	_ZN8UnitTest20DeferredTestReporter15ReportTestStartERKNS_11TestDetailsE@PLT
 2906      00
  85:TestXmlTestReporter.cpp ****     reporter.ReportSummary(1, 0, 0, 0.1f);
 2907              		.loc 3 85 0
 2908 158a 488B8568 		movq	-152(%rbp), %rax
 2908      FFFFFF
 2909 1591 48057801 		addq	$376, %rax
 2909      0000
 2910 1597 F30F1005 		movss	.LC10(%rip), %xmm0
 2910      00000000 
 2911 159f B9000000 		movl	$0, %ecx
 2911      00
 2912 15a4 BA000000 		movl	$0, %edx
 2912      00
 2913 15a9 BE010000 		movl	$1, %esi
 2913      00
 2914 15ae 4889C7   		movq	%rax, %rdi
 2915 15b1 E8000000 		call	_ZN8UnitTest15XmlTestReporter13ReportSummaryEiiif@PLT
 2915      00
 2916              	.LEHE82:
  86:TestXmlTestReporter.cpp **** 
  87:TestXmlTestReporter.cpp ****     const char *expected =
 2917              		.loc 3 87 0
 2918 15b6 488D0500 		leaq	.LC24(%rip), %rax
 2918      000000
 2919 15bd 48898578 		movq	%rax, -136(%rbp)
 2919      FFFFFF
 2920              	.LEHB83:
  88:TestXmlTestReporter.cpp **** "<?xml version=\"1.0\"?>"
  89:TestXmlTestReporter.cpp **** "<unittest-results tests=\"1\" failedtests=\"0\" failures=\"0\" time=\"0.1\">"
  90:TestXmlTestReporter.cpp **** "<test suite=\"DefaultSuite\" name=\"TestName\" time=\"0\"/>"
  91:TestXmlTestReporter.cpp **** "</unittest-results>";
  92:TestXmlTestReporter.cpp **** 
  93:TestXmlTestReporter.cpp ****     CHECK_EQUAL(expected, output.str());
 2921              		.loc 3 93 0
 2922 15c4 E8000000 		call	_ZN8UnitTest11CurrentTest7DetailsEv@PLT
 2922      00
 2923 15c9 488B08   		movq	(%rax), %rcx
 2924 15cc 488D45A0 		leaq	-96(%rbp), %rax
 2925 15d0 BA5D0000 		movl	$93, %edx
 2925      00
 2926 15d5 4889CE   		movq	%rcx, %rsi
 2927 15d8 4889C7   		movq	%rax, %rdi
 2928 15db E8000000 		call	_ZN8UnitTest11TestDetailsC1ERKS0_i@PLT
 2928      00
 2929              		.loc 3 93 0 is_stmt 0 discriminator 2
 2930 15e0 488B9568 		movq	-152(%rbp), %rdx
 2930      FFFFFF
 2931 15e7 488D45C0 		leaq	-64(%rbp), %rax
 2932 15eb 4889D6   		movq	%rdx, %rsi
 2933 15ee 4889C7   		movq	%rax, %rdi
 2934 15f1 E8000000 		call	_ZNKSt7__cxx1119basic_ostringstreamIcSt11char_traitsIcESaIcEE3strEv@PLT
 2934      00
 2935              	.LEHE83:
 2936              	.LEHB84:
 2937              		.loc 3 93 0 discriminator 4
 2938 15f6 E8000000 		call	_ZN8UnitTest11CurrentTest7ResultsEv@PLT
 2938      00
 2939 15fb 488B00   		movq	(%rax), %rax
 2940 15fe 488D4DA0 		leaq	-96(%rbp), %rcx
 2941 1602 488D55C0 		leaq	-64(%rbp), %rdx
 2942 1606 488DB578 		leaq	-136(%rbp), %rsi
 2942      FFFFFF
 2943 160d 4889C7   		movq	%rax, %rdi
 2944 1610 E8000000 		call	_ZN8UnitTest10CheckEqualIPKcNSt7__cxx1112basic_stringIcSt11char_traitsIcESaIcEEEEEvRNS_11Test
 2944      00
 2945              	.LEHE84:
 2946              		.loc 3 93 0 discriminator 8
 2947 1615 488D45C0 		leaq	-64(%rbp), %rax
 2948 1619 4889C7   		movq	%rax, %rdi
 2949              	.LEHB85:
 2950 161c E8000000 		call	_ZNSt7__cxx1112basic_stringIcSt11char_traitsIcESaIcEED1Ev@PLT
 2950      00
 2951              	.LEHE85:
  94:TestXmlTestReporter.cpp **** }
 2952              		.loc 3 94 0 is_stmt 1
 2953 1621 EB70     		jmp	.L149
 2954              	.L156:
 2955 1623 4889C3   		movq	%rax, %rbx
  93:TestXmlTestReporter.cpp **** }
 2956              		.loc 3 93 0
 2957 1626 488D45C0 		leaq	-64(%rbp), %rax
 2958 162a 4889C7   		movq	%rax, %rdi
 2959 162d E8000000 		call	_ZNSt7__cxx1112basic_stringIcSt11char_traitsIcESaIcEED1Ev@PLT
 2959      00
 2960 1632 4889D8   		movq	%rbx, %rax
 2961 1635 EB00     		jmp	.L151
 2962              	.L155:
 2963              	.L151:
 2964 1637 4889C7   		movq	%rax, %rdi
 2965 163a E8000000 		call	__cxa_begin_catch@PLT
 2965      00
 2966              	.LEHB86:
 2967 163f E8000000 		call	_ZN8UnitTest11CurrentTest7ResultsEv@PLT
 2967      00
 2968 1644 488B18   		movq	(%rax), %rbx
 2969 1647 E8000000 		call	_ZN8UnitTest11CurrentTest7DetailsEv@PLT
 2969      00
  93:TestXmlTestReporter.cpp **** }
 2970              		.loc 3 93 0 is_stmt 0 discriminator 12
 2971 164c 488B08   		movq	(%rax), %rcx
 2972 164f 488D45A0 		leaq	-96(%rbp), %rax
 2973 1653 BA5D0000 		movl	$93, %edx
 2973      00
 2974 1658 4889CE   		movq	%rcx, %rsi
 2975 165b 4889C7   		movq	%rax, %rdi
 2976 165e E8000000 		call	_ZN8UnitTest11TestDetailsC1ERKS0_i@PLT
 2976      00
  93:TestXmlTestReporter.cpp **** }
 2977              		.loc 3 93 0 discriminator 16
 2978 1663 488D45A0 		leaq	-96(%rbp), %rax
 2979 1667 488D1500 		leaq	.LC12(%rip), %rdx
 2979      000000
 2980 166e 4889C6   		movq	%rax, %rsi
 2981 1671 4889DF   		movq	%rbx, %rdi
 2982 1674 E8000000 		call	_ZN8UnitTest11TestResults13OnTestFailureERKNS_11TestDetailsEPKc@PLT
 2982      00
 2983              	.LEHE86:
 2984              	.LEHB87:
  93:TestXmlTestReporter.cpp **** }
 2985              		.loc 3 93 0 discriminator 18
 2986 1679 E8000000 		call	__cxa_end_catch@PLT
 2986      00
 2987              	.LEHE87:
 2988              		.loc 3 94 0 is_stmt 1 discriminator 18
 2989 167e EB13     		jmp	.L149
 2990              	.L157:
 2991 1680 4889C3   		movq	%rax, %rbx
  93:TestXmlTestReporter.cpp **** }
 2992              		.loc 3 93 0
 2993 1683 E8000000 		call	__cxa_end_catch@PLT
 2993      00
 2994 1688 4889D8   		movq	%rbx, %rax
 2995 168b 4889C7   		movq	%rax, %rdi
 2996              	.LEHB88:
 2997 168e E8000000 		call	_Unwind_Resume@PLT
 2997      00
 2998              	.LEHE88:
 2999              	.L149:
 3000              		.loc 3 94 0
 3001 1693 488B45E8 		movq	-24(%rbp), %rax
 3002 1697 64483304 		xorq	%fs:40, %rax
 3002      25280000 
 3002      00
 3003 16a0 7405     		je	.L154
 3004 16a2 E8000000 		call	__stack_chk_fail@PLT
 3004      00
 3005              	.L154:
 3006 16a7 4881C498 		addq	$152, %rsp
 3006      000000
 3007 16ae 5B       		popq	%rbx
 3008 16af 5D       		popq	%rbp
 3009              		.cfi_def_cfa 7, 8
 3010 16b0 C3       		ret
 3011              		.cfi_endproc
 3012              	.LFE1404:
 3013              		.section	.gcc_except_table
 3014              		.align 4
 3015              	.LLSDA1404:
 3016 0244 FF       		.byte	0xff
 3017 0245 9B       		.byte	0x9b
 3018 0246 31       		.uleb128 .LLSDATT1404-.LLSDATTD1404
 3019              	.LLSDATTD1404:
 3020 0247 01       		.byte	0x1
 3021 0248 26       		.uleb128 .LLSDACSE1404-.LLSDACSB1404
 3022              	.LLSDACSB1404:
 3023 0249 44       		.uleb128 .LEHB82-.LFB1404
 3024 024a 4E       		.uleb128 .LEHE82-.LEHB82
 3025 024b 00       		.uleb128 0
 3026 024c 00       		.uleb128 0
 3027 024d A001     		.uleb128 .LEHB83-.LFB1404
 3028 024f 32       		.uleb128 .LEHE83-.LEHB83
 3029 0250 9302     		.uleb128 .L155-.LFB1404
 3030 0252 01       		.uleb128 0x1
 3031 0253 D201     		.uleb128 .LEHB84-.LFB1404
 3032 0255 1F       		.uleb128 .LEHE84-.LEHB84
 3033 0256 FF01     		.uleb128 .L156-.LFB1404
 3034 0258 03       		.uleb128 0x3
 3035 0259 F801     		.uleb128 .LEHB85-.LFB1404
 3036 025b 05       		.uleb128 .LEHE85-.LEHB85
 3037 025c 9302     		.uleb128 .L155-.LFB1404
 3038 025e 01       		.uleb128 0x1
 3039 025f 9B02     		.uleb128 .LEHB86-.LFB1404
 3040 0261 3A       		.uleb128 .LEHE86-.LEHB86
 3041 0262 DC02     		.uleb128 .L157-.LFB1404
 3042 0264 00       		.uleb128 0
 3043 0265 D502     		.uleb128 .LEHB87-.LFB1404
 3044 0267 05       		.uleb128 .LEHE87-.LEHB87
 3045 0268 00       		.uleb128 0
 3046 0269 00       		.uleb128 0
 3047 026a EA02     		.uleb128 .LEHB88-.LFB1404
 3048 026c 05       		.uleb128 .LEHE88-.LEHB88
 3049 026d 00       		.uleb128 0
 3050 026e 00       		.uleb128 0
 3051              	.LLSDACSE1404:
 3052 026f 01       		.byte	0x1
 3053 0270 00       		.byte	0
 3054 0271 00       		.byte	0
 3055 0272 7D       		.byte	0x7d
 3056 0273 00       		.align 4
 3057 0274 00000000 		.long	0
 3058              	
 3059              	.LLSDATT1404:
 3060              		.text
 3062 16b1 90       		.align 2
 3064              	_ZN12_GLOBAL__N_163XmlTestReporterFixtureSingleFailedTestReportSummaryFormatHelperC2ERKN8UnitTest11
 3065              	.LFB1406:
  95:TestXmlTestReporter.cpp **** 
  96:TestXmlTestReporter.cpp **** TEST_FIXTURE(XmlTestReporterFixture, SingleFailedTestReportSummaryFormat)
 3066              		.loc 3 96 0
 3067              		.cfi_startproc
 3068 16b2 55       		pushq	%rbp
 3069              		.cfi_def_cfa_offset 16
 3070              		.cfi_offset 6, -16
 3071 16b3 4889E5   		movq	%rsp, %rbp
 3072              		.cfi_def_cfa_register 6
 3073 16b6 4883EC10 		subq	$16, %rsp
 3074 16ba 48897DF8 		movq	%rdi, -8(%rbp)
 3075 16be 488975F0 		movq	%rsi, -16(%rbp)
 3076              	.LBB52:
 3077              		.loc 3 96 0
 3078 16c2 488B45F8 		movq	-8(%rbp), %rax
 3079 16c6 4889C7   		movq	%rax, %rdi
 3080 16c9 E832E9FF 		call	_ZN12_GLOBAL__N_122XmlTestReporterFixtureC2Ev
 3080      FF
 3081 16ce 488B45F8 		movq	-8(%rbp), %rax
 3082 16d2 488B55F0 		movq	-16(%rbp), %rdx
 3083 16d6 488990A0 		movq	%rdx, 416(%rax)
 3083      010000
 3084              	.LBE52:
 3085 16dd 90       		nop
 3086 16de C9       		leave
 3087              		.cfi_def_cfa 7, 8
 3088 16df C3       		ret
 3089              		.cfi_endproc
 3090              	.LFE1406:
 3092              		.set	_ZN12_GLOBAL__N_163XmlTestReporterFixtureSingleFailedTestReportSummaryFormatHelperC1ERKN8Unit
 3093              		.section	.rodata
 3094 0472 00000000 		.align 8
 3094      0000
 3095              	.LC25:
 3096 0478 53696E67 		.string	"SingleFailedTestReportSummaryFormat"
 3096      6C654661 
 3096      696C6564 
 3096      54657374 
 3096      5265706F 
 3097              		.text
 3098              		.align 2
 3100              	_ZN12_GLOBAL__N_161TestXmlTestReporterFixtureSingleFailedTestReportSummaryFormatC2Ev:
 3101              	.LFB1409:
 3102              		.loc 3 96 0
 3103              		.cfi_startproc
 3104 16e0 55       		pushq	%rbp
 3105              		.cfi_def_cfa_offset 16
 3106              		.cfi_offset 6, -16
 3107 16e1 4889E5   		movq	%rsp, %rbp
 3108              		.cfi_def_cfa_register 6
 3109 16e4 53       		pushq	%rbx
 3110 16e5 4883EC18 		subq	$24, %rsp
 3111              		.cfi_offset 3, -24
 3112 16e9 48897DE8 		movq	%rdi, -24(%rbp)
 3113              	.LBB53:
 3114              		.loc 3 96 0
 3115 16ed 488B5DE8 		movq	-24(%rbp), %rbx
 3116 16f1 E8000000 		call	_ZN13UnitTestSuite12GetSuiteNameEv
 3116      00
 3117 16f6 41B86000 		movl	$96, %r8d
 3117      0000
 3118 16fc 488D0D00 		leaq	.LC1(%rip), %rcx
 3118      000000
 3119 1703 4889C2   		movq	%rax, %rdx
 3120 1706 488D3500 		leaq	.LC25(%rip), %rsi
 3120      000000
 3121 170d 4889DF   		movq	%rbx, %rdi
 3122 1710 E8000000 		call	_ZN8UnitTest4TestC2EPKcS2_S2_i@PLT
 3122      00
 3123 1715 488D1500 		leaq	16+_ZTVN12_GLOBAL__N_161TestXmlTestReporterFixtureSingleFailedTestReportSummaryFormatE(%rip),
 3123      000000
 3124 171c 488B45E8 		movq	-24(%rbp), %rax
 3125 1720 488910   		movq	%rdx, (%rax)
 3126              	.LBE53:
 3127 1723 90       		nop
 3128 1724 4883C418 		addq	$24, %rsp
 3129 1728 5B       		popq	%rbx
 3130 1729 5D       		popq	%rbp
 3131              		.cfi_def_cfa 7, 8
 3132 172a C3       		ret
 3133              		.cfi_endproc
 3134              	.LFE1409:
 3136              		.set	_ZN12_GLOBAL__N_161TestXmlTestReporterFixtureSingleFailedTestReportSummaryFormatC1Ev,_ZN12_GL
 3137              		.local	_ZN12_GLOBAL__N_169testXmlTestReporterFixtureSingleFailedTestReportSummaryFormatInstanceE
 3138              		.comm	_ZN12_GLOBAL__N_169testXmlTestReporterFixtureSingleFailedTestReportSummaryFormatInstanceE,56
 3139              		.local	_ZN12_GLOBAL__N_162adderXmlTestReporterFixtureSingleFailedTestReportSummaryFormatE
 3140              		.comm	_ZN12_GLOBAL__N_162adderXmlTestReporterFixtureSingleFailedTestReportSummaryFormatE,1,1
 3141 172b 90       		.align 2
 3143              	_ZN12_GLOBAL__N_163XmlTestReporterFixtureSingleFailedTestReportSummaryFormatHelperD2Ev:
 3144              	.LFB1413:
 3145              		.loc 3 96 0
 3146              		.cfi_startproc
 3147 172c 55       		pushq	%rbp
 3148              		.cfi_def_cfa_offset 16
 3149              		.cfi_offset 6, -16
 3150 172d 4889E5   		movq	%rsp, %rbp
 3151              		.cfi_def_cfa_register 6
 3152 1730 4883EC10 		subq	$16, %rsp
 3153 1734 48897DF8 		movq	%rdi, -8(%rbp)
 3154              	.LBB54:
 3155              		.loc 3 96 0
 3156 1738 488B45F8 		movq	-8(%rbp), %rax
 3157 173c 4889C7   		movq	%rax, %rdi
 3158 173f E818E9FF 		call	_ZN12_GLOBAL__N_122XmlTestReporterFixtureD2Ev
 3158      FF
 3159              	.LBE54:
 3160 1744 90       		nop
 3161 1745 C9       		leave
 3162              		.cfi_def_cfa 7, 8
 3163 1746 C3       		ret
 3164              		.cfi_endproc
 3165              	.LFE1413:
 3167              		.set	_ZN12_GLOBAL__N_163XmlTestReporterFixtureSingleFailedTestReportSummaryFormatHelperD1Ev,_ZN12_
 3168 1747 90       		.align 2
 3170              	_ZNK12_GLOBAL__N_161TestXmlTestReporterFixtureSingleFailedTestReportSummaryFormat7RunImplEv:
 3171              	.LFB1411:
 3172              		.loc 3 96 0
 3173              		.cfi_startproc
 3174              		.cfi_personality 0x9b,DW.ref.__gxx_personality_v0
 3175              		.cfi_lsda 0x1b,.LLSDA1411
 3176 1748 55       		pushq	%rbp
 3177              		.cfi_def_cfa_offset 16
 3178              		.cfi_offset 6, -16
 3179 1749 4889E5   		movq	%rsp, %rbp
 3180              		.cfi_def_cfa_register 6
 3181 174c 4155     		pushq	%r13
 3182 174e 4154     		pushq	%r12
 3183 1750 53       		pushq	%rbx
 3184 1751 4881EC08 		subq	$520, %rsp
 3184      020000
 3185              		.cfi_offset 13, -24
 3186              		.cfi_offset 12, -32
 3187              		.cfi_offset 3, -40
 3188 1758 4889BDE8 		movq	%rdi, -536(%rbp)
 3188      FDFFFF
 3189              		.loc 3 96 0
 3190 175f 64488B04 		movq	%fs:40, %rax
 3190      25280000 
 3190      00
 3191 1768 488945D8 		movq	%rax, -40(%rbp)
 3192 176c 31C0     		xorl	%eax, %eax
 3193 176e C685FFFD 		movb	$0, -513(%rbp)
 3193      FFFF00
 3194              	.LBB55:
 3195 1775 488B85E8 		movq	-536(%rbp), %rax
 3195      FDFFFF
 3196 177c 488D5008 		leaq	8(%rax), %rdx
 3197 1780 488D8530 		leaq	-464(%rbp), %rax
 3197      FEFFFF
 3198 1787 4889D6   		movq	%rdx, %rsi
 3199 178a 4889C7   		movq	%rax, %rdi
 3200              	.LEHB89:
 3201 178d E820FFFF 		call	_ZN12_GLOBAL__N_163XmlTestReporterFixtureSingleFailedTestReportSummaryFormatHelperC1ERKN8Unit
 3201      FF
 3202              	.LEHE89:
 3203              		.loc 3 96 0 is_stmt 0 discriminator 1
 3204 1792 C685FFFD 		movb	$1, -513(%rbp)
 3204      FFFF01
 3205 1799 488B85E8 		movq	-536(%rbp), %rax
 3205      FDFFFF
 3206 17a0 488D5008 		leaq	8(%rax), %rdx
 3207 17a4 488D8530 		leaq	-464(%rbp), %rax
 3207      FEFFFF
 3208 17ab 4889D6   		movq	%rdx, %rsi
 3209 17ae 4889C7   		movq	%rax, %rdi
 3210              	.LEHB90:
 3211 17b1 E8B12000 		call	_ZN8UnitTest11ExecuteTestIN12_GLOBAL__N_163XmlTestReporterFixtureSingleFailedTestReportSummar
 3211      00
 3212              	.LEHE90:
 3213              		.loc 3 96 0 discriminator 3
 3214 17b6 488D8530 		leaq	-464(%rbp), %rax
 3214      FEFFFF
 3215 17bd 4889C7   		movq	%rax, %rdi
 3216              	.LEHB91:
 3217 17c0 E867FFFF 		call	_ZN12_GLOBAL__N_163XmlTestReporterFixtureSingleFailedTestReportSummaryFormatHelperD1Ev
 3217      FF
 3218              	.LEHE91:
 3219              	.LBE55:
 3220              		.loc 3 96 0
 3221 17c5 E9690200 		jmp	.L161
 3221      00
 3222              	.L176:
 3223 17ca 4989C4   		movq	%rax, %r12
 3224 17cd 4889D3   		movq	%rdx, %rbx
 3225              	.LBB56:
 3226 17d0 488D8530 		leaq	-464(%rbp), %rax
 3226      FEFFFF
 3227 17d7 4889C7   		movq	%rax, %rdi
 3228 17da E84DFFFF 		call	_ZN12_GLOBAL__N_163XmlTestReporterFixtureSingleFailedTestReportSummaryFormatHelperD1Ev
 3228      FF
 3229 17df 4C89E0   		movq	%r12, %rax
 3230 17e2 4889DA   		movq	%rbx, %rdx
 3231 17e5 EB00     		jmp	.L163
 3232              	.L175:
 3233              	.L163:
 3234 17e7 4883FA01 		cmpq	$1, %rdx
 3235 17eb 740F     		je	.L165
 3236 17ed 4883FA02 		cmpq	$2, %rdx
 3237 17f1 0F84A700 		je	.L166
 3237      0000
 3238 17f7 E94A0100 		jmp	.L181
 3238      00
 3239              	.L165:
 3240              	.LBE56:
 3241              	.LBB57:
 3242 17fc 4889C7   		movq	%rax, %rdi
 3243 17ff E8000000 		call	__cxa_begin_catch@PLT
 3243      00
 3244 1804 48898508 		movq	%rax, -504(%rbp)
 3244      FEFFFF
 3245              	.LEHB92:
 3246 180b E8000000 		call	_ZN8UnitTest11CurrentTest7ResultsEv@PLT
 3246      00
 3247 1810 488B18   		movq	(%rax), %rbx
 3248 1813 488B8508 		movq	-504(%rbp), %rax
 3248      FEFFFF
 3249 181a 488B00   		movq	(%rax), %rax
 3250 181d 4883C010 		addq	$16, %rax
 3251 1821 488B00   		movq	(%rax), %rax
 3252 1824 488B9508 		movq	-504(%rbp), %rdx
 3252      FEFFFF
 3253 182b 4889D7   		movq	%rdx, %rdi
 3254 182e FFD0     		call	*%rax
 3255              	.LVL8:
 3256 1830 4989C4   		movq	%rax, %r12
 3257 1833 488B8508 		movq	-504(%rbp), %rax
 3257      FEFFFF
 3258 183a 4889C7   		movq	%rax, %rdi
 3259 183d E8000000 		call	_ZNK8UnitTest15AssertException10LineNumberEv@PLT
 3259      00
 3260              		.loc 3 96 0 discriminator 5
 3261 1842 4189C5   		movl	%eax, %r13d
 3262 1845 488B8508 		movq	-504(%rbp), %rax
 3262      FEFFFF
 3263 184c 4889C7   		movq	%rax, %rdi
 3264 184f E8000000 		call	_ZNK8UnitTest15AssertException8FilenameEv@PLT
 3264      00
 3265              		.loc 3 96 0 discriminator 7
 3266 1854 4889C1   		movq	%rax, %rcx
 3267 1857 488B85E8 		movq	-536(%rbp), %rax
 3267      FDFFFF
 3268 185e 488B5008 		movq	8(%rax), %rdx
 3269 1862 488B85E8 		movq	-536(%rbp), %rax
 3269      FDFFFF
 3270 1869 488B7010 		movq	16(%rax), %rsi
 3271 186d 488D8510 		leaq	-496(%rbp), %rax
 3271      FEFFFF
 3272 1874 4589E8   		movl	%r13d, %r8d
 3273 1877 4889C7   		movq	%rax, %rdi
 3274 187a E8000000 		call	_ZN8UnitTest11TestDetailsC1EPKcS2_S2_i@PLT
 3274      00
 3275              		.loc 3 96 0 discriminator 11
 3276 187f 488D8510 		leaq	-496(%rbp), %rax
 3276      FEFFFF
 3277 1886 4C89E2   		movq	%r12, %rdx
 3278 1889 4889C6   		movq	%rax, %rsi
 3279 188c 4889DF   		movq	%rbx, %rdi
 3280 188f E8000000 		call	_ZN8UnitTest11TestResults13OnTestFailureERKNS_11TestDetailsEPKc@PLT
 3280      00
 3281              	.LEHE92:
 3282              		.loc 3 96 0 discriminator 13
 3283 1894 E8000000 		call	__cxa_end_catch@PLT
 3283      00
 3284              	.LBE57:
 3285 1899 E9950100 		jmp	.L161
 3285      00
 3286              	.L166:
 3287              	.LBB58:
 3288              		.loc 3 96 0
 3289 189e 4889C7   		movq	%rax, %rdi
 3290 18a1 E8000000 		call	__cxa_begin_catch@PLT
 3290      00
 3291 18a6 48898500 		movq	%rax, -512(%rbp)
 3291      FEFFFF
 3292              	.LBB59:
 3293 18ad 488D8530 		leaq	-464(%rbp), %rax
 3293      FEFFFF
 3294 18b4 4889C7   		movq	%rax, %rdi
 3295              	.LEHB93:
 3296 18b7 E8000000 		call	_ZN8UnitTest15MemoryOutStreamC1Ev
 3296      00
 3297              	.LEHE93:
 3298              		.loc 3 96 0 discriminator 15
 3299 18bc 488D8530 		leaq	-464(%rbp), %rax
 3299      FEFFFF
 3300 18c3 488D3500 		leaq	.LC3(%rip), %rsi
 3300      000000
 3301 18ca 4889C7   		movq	%rax, %rdi
 3302              	.LEHB94:
 3303 18cd E8000000 		call	_ZStlsISt11char_traitsIcEERSt13basic_ostreamIcT_ES5_PKc@PLT
 3303      00
 3304 18d2 4889C3   		movq	%rax, %rbx
 3305 18d5 488B8500 		movq	-512(%rbp), %rax
 3305      FEFFFF
 3306 18dc 488B00   		movq	(%rax), %rax
 3307 18df 4883C010 		addq	$16, %rax
 3308 18e3 488B00   		movq	(%rax), %rax
 3309 18e6 488B9500 		movq	-512(%rbp), %rdx
 3309      FEFFFF
 3310 18ed 4889D7   		movq	%rdx, %rdi
 3311 18f0 FFD0     		call	*%rax
 3312              	.LVL9:
 3313 18f2 4889C6   		movq	%rax, %rsi
 3314 18f5 4889DF   		movq	%rbx, %rdi
 3315 18f8 E8000000 		call	_ZStlsISt11char_traitsIcEERSt13basic_ostreamIcT_ES5_PKc@PLT
 3315      00
 3316              		.loc 3 96 0 discriminator 19
 3317 18fd E8000000 		call	_ZN8UnitTest11CurrentTest7ResultsEv@PLT
 3317      00
 3318 1902 488B18   		movq	(%rax), %rbx
 3319 1905 488D8530 		leaq	-464(%rbp), %rax
 3319      FEFFFF
 3320 190c 4889C7   		movq	%rax, %rdi
 3321 190f E8000000 		call	_ZNK8UnitTest15MemoryOutStream7GetTextEv@PLT
 3321      00
 3322              		.loc 3 96 0 discriminator 21
 3323 1914 4889C2   		movq	%rax, %rdx
 3324 1917 488B85E8 		movq	-536(%rbp), %rax
 3324      FDFFFF
 3325 191e 4883C008 		addq	$8, %rax
 3326 1922 4889C6   		movq	%rax, %rsi
 3327 1925 4889DF   		movq	%rbx, %rdi
 3328 1928 E8000000 		call	_ZN8UnitTest11TestResults13OnTestFailureERKNS_11TestDetailsEPKc@PLT
 3328      00
 3329              	.LEHE94:
 3330              		.loc 3 96 0 discriminator 25
 3331 192d 488D8530 		leaq	-464(%rbp), %rax
 3331      FEFFFF
 3332 1934 4889C7   		movq	%rax, %rdi
 3333              	.LEHB95:
 3334 1937 E8000000 		call	_ZN8UnitTest15MemoryOutStreamD1Ev
 3334      00
 3335              	.LEHE95:
 3336              	.LBE59:
 3337              		.loc 3 96 0 discriminator 26
 3338 193c E8000000 		call	__cxa_end_catch@PLT
 3338      00
 3339              	.LBE58:
 3340 1941 E9ED0000 		jmp	.L161
 3340      00
 3341              	.L181:
 3342              		.loc 3 96 0
 3343 1946 4889C7   		movq	%rax, %rdi
 3344 1949 E8000000 		call	__cxa_begin_catch@PLT
 3344      00
 3345 194e 80BDFFFD 		cmpb	$0, -513(%rbp)
 3345      FFFF00
 3346 1955 7445     		je	.L168
 3347              	.LEHB96:
 3348              		.loc 3 96 0 discriminator 28
 3349 1957 E8000000 		call	_ZN8UnitTest11CurrentTest7ResultsEv@PLT
 3349      00
 3350 195c 488B18   		movq	(%rax), %rbx
 3351 195f 488B85E8 		movq	-536(%rbp), %rax
 3351      FDFFFF
 3352 1966 488D4808 		leaq	8(%rax), %rcx
 3353 196a 488D8510 		leaq	-496(%rbp), %rax
 3353      FEFFFF
 3354 1971 BA600000 		movl	$96, %edx
 3354      00
 3355 1976 4889CE   		movq	%rcx, %rsi
 3356 1979 4889C7   		movq	%rax, %rdi
 3357 197c E8000000 		call	_ZN8UnitTest11TestDetailsC1ERKS0_i@PLT
 3357      00
 3358              		.loc 3 96 0 discriminator 33
 3359 1981 488D8510 		leaq	-496(%rbp), %rax
 3359      FEFFFF
 3360 1988 488D1500 		leaq	.LC4(%rip), %rdx
 3360      000000
 3361 198f 4889C6   		movq	%rax, %rsi
 3362 1992 4889DF   		movq	%rbx, %rdi
 3363 1995 E8000000 		call	_ZN8UnitTest11TestResults13OnTestFailureERKNS_11TestDetailsEPKc@PLT
 3363      00
 3364 199a EB43     		jmp	.L169
 3365              	.L168:
 3366              		.loc 3 96 0 discriminator 29
 3367 199c E8000000 		call	_ZN8UnitTest11CurrentTest7ResultsEv@PLT
 3367      00
 3368 19a1 488B18   		movq	(%rax), %rbx
 3369 19a4 488B85E8 		movq	-536(%rbp), %rax
 3369      FDFFFF
 3370 19ab 488D4808 		leaq	8(%rax), %rcx
 3371 19af 488D8510 		leaq	-496(%rbp), %rax
 3371      FEFFFF
 3372 19b6 BA600000 		movl	$96, %edx
 3372      00
 3373 19bb 4889CE   		movq	%rcx, %rsi
 3374 19be 4889C7   		movq	%rax, %rdi
 3375 19c1 E8000000 		call	_ZN8UnitTest11TestDetailsC1ERKS0_i@PLT
 3375      00
 3376              		.loc 3 96 0 discriminator 40
 3377 19c6 488D8510 		leaq	-496(%rbp), %rax
 3377      FEFFFF
 3378 19cd 488D1500 		leaq	.LC5(%rip), %rdx
 3378      000000
 3379 19d4 4889C6   		movq	%rax, %rsi
 3380 19d7 4889DF   		movq	%rbx, %rdi
 3381 19da E8000000 		call	_ZN8UnitTest11TestResults13OnTestFailureERKNS_11TestDetailsEPKc@PLT
 3381      00
 3382              	.LEHE96:
 3383              	.L169:
 3384              	.LEHB97:
 3385              		.loc 3 96 0 discriminator 43
 3386 19df E8000000 		call	__cxa_end_catch@PLT
 3386      00
 3387 19e4 EB4D     		jmp	.L161
 3388              	.L177:
 3389 19e6 4889C3   		movq	%rax, %rbx
 3390              	.LBB61:
 3391              		.loc 3 96 0
 3392 19e9 E8000000 		call	__cxa_end_catch@PLT
 3392      00
 3393 19ee 4889D8   		movq	%rbx, %rax
 3394 19f1 4889C7   		movq	%rax, %rdi
 3395 19f4 E8000000 		call	_Unwind_Resume@PLT
 3395      00
 3396              	.LEHE97:
 3397              	.L179:
 3398 19f9 4889C3   		movq	%rax, %rbx
 3399              	.LBE61:
 3400              	.LBB62:
 3401              	.LBB60:
 3402 19fc 488D8530 		leaq	-464(%rbp), %rax
 3402      FEFFFF
 3403 1a03 4889C7   		movq	%rax, %rdi
 3404 1a06 E8000000 		call	_ZN8UnitTest15MemoryOutStreamD1Ev
 3404      00
 3405 1a0b EB03     		jmp	.L172
 3406              	.L178:
 3407 1a0d 4889C3   		movq	%rax, %rbx
 3408              	.L172:
 3409              	.LBE60:
 3410 1a10 E8000000 		call	__cxa_end_catch@PLT
 3410      00
 3411 1a15 4889D8   		movq	%rbx, %rax
 3412 1a18 4889C7   		movq	%rax, %rdi
 3413              	.LEHB98:
 3414 1a1b E8000000 		call	_Unwind_Resume@PLT
 3414      00
 3415              	.LEHE98:
 3416              	.L180:
 3417 1a20 4889C3   		movq	%rax, %rbx
 3418              	.LBE62:
 3419 1a23 E8000000 		call	__cxa_end_catch@PLT
 3419      00
 3420 1a28 4889D8   		movq	%rbx, %rax
 3421 1a2b 4889C7   		movq	%rax, %rdi
 3422              	.LEHB99:
 3423 1a2e E8000000 		call	_Unwind_Resume@PLT
 3423      00
 3424              	.LEHE99:
 3425              	.L161:
 3426 1a33 488B45D8 		movq	-40(%rbp), %rax
 3427 1a37 64483304 		xorq	%fs:40, %rax
 3427      25280000 
 3427      00
 3428 1a40 7405     		je	.L174
 3429 1a42 E8000000 		call	__stack_chk_fail@PLT
 3429      00
 3430              	.L174:
 3431 1a47 4881C408 		addq	$520, %rsp
 3431      020000
 3432 1a4e 5B       		popq	%rbx
 3433 1a4f 415C     		popq	%r12
 3434 1a51 415D     		popq	%r13
 3435 1a53 5D       		popq	%rbp
 3436              		.cfi_def_cfa 7, 8
 3437 1a54 C3       		ret
 3438              		.cfi_endproc
 3439              	.LFE1411:
 3440              		.section	.gcc_except_table
 3441              		.align 4
 3442              	.LLSDA1411:
 3443 0278 FF       		.byte	0xff
 3444 0279 9B       		.byte	0x9b
 3445 027a 55       		.uleb128 .LLSDATT1411-.LLSDATTD1411
 3446              	.LLSDATTD1411:
 3447 027b 01       		.byte	0x1
 3448 027c 3E       		.uleb128 .LLSDACSE1411-.LLSDACSB1411
 3449              	.LLSDACSB1411:
 3450 027d 45       		.uleb128 .LEHB89-.LFB1411
 3451 027e 05       		.uleb128 .LEHE89-.LEHB89
 3452 027f 9F01     		.uleb128 .L175-.LFB1411
 3453 0281 05       		.uleb128 0x5
 3454 0282 69       		.uleb128 .LEHB90-.LFB1411
 3455 0283 05       		.uleb128 .LEHE90-.LEHB90
 3456 0284 8201     		.uleb128 .L176-.LFB1411
 3457 0286 07       		.uleb128 0x7
 3458 0287 78       		.uleb128 .LEHB91-.LFB1411
 3459 0288 05       		.uleb128 .LEHE91-.LEHB91
 3460 0289 9F01     		.uleb128 .L175-.LFB1411
 3461 028b 05       		.uleb128 0x5
 3462 028c C301     		.uleb128 .LEHB92-.LFB1411
 3463 028e 8901     		.uleb128 .LEHE92-.LEHB92
 3464 0290 9E05     		.uleb128 .L177-.LFB1411
 3465 0292 00       		.uleb128 0
 3466 0293 EF02     		.uleb128 .LEHB93-.LFB1411
 3467 0295 05       		.uleb128 .LEHE93-.LEHB93
 3468 0296 C505     		.uleb128 .L178-.LFB1411
 3469 0298 00       		.uleb128 0
 3470 0299 8503     		.uleb128 .LEHB94-.LFB1411
 3471 029b 60       		.uleb128 .LEHE94-.LEHB94
 3472 029c B105     		.uleb128 .L179-.LFB1411
 3473 029e 00       		.uleb128 0
 3474 029f EF03     		.uleb128 .LEHB95-.LFB1411
 3475 02a1 05       		.uleb128 .LEHE95-.LEHB95
 3476 02a2 C505     		.uleb128 .L178-.LFB1411
 3477 02a4 00       		.uleb128 0
 3478 02a5 8F04     		.uleb128 .LEHB96-.LFB1411
 3479 02a7 8801     		.uleb128 .LEHE96-.LEHB96
 3480 02a9 D805     		.uleb128 .L180-.LFB1411
 3481 02ab 00       		.uleb128 0
 3482 02ac 9705     		.uleb128 .LEHB97-.LFB1411
 3483 02ae 1A       		.uleb128 .LEHE97-.LEHB97
 3484 02af 00       		.uleb128 0
 3485 02b0 00       		.uleb128 0
 3486 02b1 D305     		.uleb128 .LEHB98-.LFB1411
 3487 02b3 05       		.uleb128 .LEHE98-.LEHB98
 3488 02b4 00       		.uleb128 0
 3489 02b5 00       		.uleb128 0
 3490 02b6 E605     		.uleb128 .LEHB99-.LFB1411
 3491 02b8 05       		.uleb128 .LEHE99-.LEHB99
 3492 02b9 00       		.uleb128 0
 3493 02ba 00       		.uleb128 0
 3494              	.LLSDACSE1411:
 3495 02bb 03       		.byte	0x3
 3496 02bc 00       		.byte	0
 3497 02bd 02       		.byte	0x2
 3498 02be 7D       		.byte	0x7d
 3499 02bf 01       		.byte	0x1
 3500 02c0 7D       		.byte	0x7d
 3501 02c1 00       		.byte	0
 3502 02c2 7D       		.byte	0x7d
 3503 02c3 00       		.align 4
 3504 02c4 00000000 		.long	0
 3505              	
 3506 02c8 00000000 		.long	DW.ref._ZTISt9exception-.
 3507 02cc 00000000 		.long	DW.ref._ZTIN8UnitTest15AssertExceptionE-.
 3508              	.LLSDATT1411:
 3509              		.text
 3511              		.section	.rodata
 3512              	.LC26:
 3513 049c 41204669 		.string	"A File"
 3513      6C6500
 3514              	.LC27:
 3515 04a3 41205465 		.string	"A Test"
 3515      737400
 3516              	.LC28:
 3517 04aa 41204661 		.string	"A Failure"
 3517      696C7572 
 3517      6500
 3518 04b4 00000000 		.align 8
 3519              	.LC29:
 3520 04b8 3C3F786D 		.string	"<?xml version=\"1.0\"?><unittest-results tests=\"1\" failedtests=\"1\" failures=\"1\" tim
 3520      6C207665 
 3520      7273696F 
 3520      6E3D2231 
 3520      2E30223F 
 3521              		.text
 3522 1a55 90       		.align 2
 3524              	_ZN12_GLOBAL__N_163XmlTestReporterFixtureSingleFailedTestReportSummaryFormatHelper7RunImplEv:
 3525              	.LFB1415:
  97:TestXmlTestReporter.cpp **** {
 3526              		.loc 3 97 0 is_stmt 1
 3527              		.cfi_startproc
 3528              		.cfi_personality 0x9b,DW.ref.__gxx_personality_v0
 3529              		.cfi_lsda 0x1b,.LLSDA1415
 3530 1a56 55       		pushq	%rbp
 3531              		.cfi_def_cfa_offset 16
 3532              		.cfi_offset 6, -16
 3533 1a57 4889E5   		movq	%rsp, %rbp
 3534              		.cfi_def_cfa_register 6
 3535 1a5a 53       		pushq	%rbx
 3536 1a5b 4881EC98 		subq	$152, %rsp
 3536      000000
 3537              		.cfi_offset 3, -24
 3538 1a62 4889BD68 		movq	%rdi, -152(%rbp)
 3538      FFFFFF
 3539              		.loc 3 97 0
 3540 1a69 64488B04 		movq	%fs:40, %rax
 3540      25280000 
 3540      00
 3541 1a72 488945E8 		movq	%rax, -24(%rbp)
 3542 1a76 31C0     		xorl	%eax, %eax
  98:TestXmlTestReporter.cpp ****     TestDetails const details("A Test", "suite", "A File", 4321);
 3543              		.loc 3 98 0
 3544 1a78 488D4580 		leaq	-128(%rbp), %rax
 3545 1a7c 41B8E110 		movl	$4321, %r8d
 3545      0000
 3546 1a82 488D0D00 		leaq	.LC26(%rip), %rcx
 3546      000000
 3547 1a89 488D1500 		leaq	.LC7(%rip), %rdx
 3547      000000
 3548 1a90 488D3500 		leaq	.LC27(%rip), %rsi
 3548      000000
 3549 1a97 4889C7   		movq	%rax, %rdi
 3550              	.LEHB100:
 3551 1a9a E8000000 		call	_ZN8UnitTest11TestDetailsC1EPKcS2_S2_i@PLT
 3551      00
  99:TestXmlTestReporter.cpp **** 
 100:TestXmlTestReporter.cpp ****     reporter.ReportTestStart(details);
 3552              		.loc 3 100 0
 3553 1a9f 488B8568 		movq	-152(%rbp), %rax
 3553      FFFFFF
 3554 1aa6 488D9078 		leaq	376(%rax), %rdx
 3554      010000
 3555 1aad 488D4580 		leaq	-128(%rbp), %rax
 3556 1ab1 4889C6   		movq	%rax, %rsi
 3557 1ab4 4889D7   		movq	%rdx, %rdi
 3558 1ab7 E8000000 		call	_ZN8UnitTest20DeferredTestReporter15ReportTestStartERKNS_11TestDetailsE@PLT
 3558      00
 101:TestXmlTestReporter.cpp ****     reporter.ReportFailure(details, "A Failure");
 3559              		.loc 3 101 0
 3560 1abc 488B8568 		movq	-152(%rbp), %rax
 3560      FFFFFF
 3561 1ac3 488D8878 		leaq	376(%rax), %rcx
 3561      010000
 3562 1aca 488D4580 		leaq	-128(%rbp), %rax
 3563 1ace 488D1500 		leaq	.LC28(%rip), %rdx
 3563      000000
 3564 1ad5 4889C6   		movq	%rax, %rsi
 3565 1ad8 4889CF   		movq	%rcx, %rdi
 3566 1adb E8000000 		call	_ZN8UnitTest20DeferredTestReporter13ReportFailureERKNS_11TestDetailsEPKc@PLT
 3566      00
 102:TestXmlTestReporter.cpp ****     reporter.ReportSummary(1, 1, 1, 0.1f);
 3567              		.loc 3 102 0
 3568 1ae0 488B8568 		movq	-152(%rbp), %rax
 3568      FFFFFF
 3569 1ae7 48057801 		addq	$376, %rax
 3569      0000
 3570 1aed F30F1005 		movss	.LC10(%rip), %xmm0
 3570      00000000 
 3571 1af5 B9010000 		movl	$1, %ecx
 3571      00
 3572 1afa BA010000 		movl	$1, %edx
 3572      00
 3573 1aff BE010000 		movl	$1, %esi
 3573      00
 3574 1b04 4889C7   		movq	%rax, %rdi
 3575 1b07 E8000000 		call	_ZN8UnitTest15XmlTestReporter13ReportSummaryEiiif@PLT
 3575      00
 3576              	.LEHE100:
 103:TestXmlTestReporter.cpp **** 
 104:TestXmlTestReporter.cpp ****     const char *expected =
 3577              		.loc 3 104 0
 3578 1b0c 488D0500 		leaq	.LC29(%rip), %rax
 3578      000000
 3579 1b13 48898578 		movq	%rax, -136(%rbp)
 3579      FFFFFF
 3580              	.LEHB101:
 105:TestXmlTestReporter.cpp ****         "<?xml version=\"1.0\"?>"
 106:TestXmlTestReporter.cpp ****         "<unittest-results tests=\"1\" failedtests=\"1\" failures=\"1\" time=\"0.1\">"
 107:TestXmlTestReporter.cpp ****         "<test suite=\"suite\" name=\"A Test\" time=\"0\">"
 108:TestXmlTestReporter.cpp ****         "<failure message=\"A File(4321) : A Failure\"/>"
 109:TestXmlTestReporter.cpp ****         "</test>"
 110:TestXmlTestReporter.cpp ****         "</unittest-results>";
 111:TestXmlTestReporter.cpp **** 
 112:TestXmlTestReporter.cpp ****     CHECK_EQUAL(expected, output.str());
 3581              		.loc 3 112 0
 3582 1b1a E8000000 		call	_ZN8UnitTest11CurrentTest7DetailsEv@PLT
 3582      00
 3583 1b1f 488B08   		movq	(%rax), %rcx
 3584 1b22 488D45A0 		leaq	-96(%rbp), %rax
 3585 1b26 BA700000 		movl	$112, %edx
 3585      00
 3586 1b2b 4889CE   		movq	%rcx, %rsi
 3587 1b2e 4889C7   		movq	%rax, %rdi
 3588 1b31 E8000000 		call	_ZN8UnitTest11TestDetailsC1ERKS0_i@PLT
 3588      00
 3589              		.loc 3 112 0 is_stmt 0 discriminator 2
 3590 1b36 488B9568 		movq	-152(%rbp), %rdx
 3590      FFFFFF
 3591 1b3d 488D45C0 		leaq	-64(%rbp), %rax
 3592 1b41 4889D6   		movq	%rdx, %rsi
 3593 1b44 4889C7   		movq	%rax, %rdi
 3594 1b47 E8000000 		call	_ZNKSt7__cxx1119basic_ostringstreamIcSt11char_traitsIcESaIcEE3strEv@PLT
 3594      00
 3595              	.LEHE101:
 3596              	.LEHB102:
 3597              		.loc 3 112 0 discriminator 4
 3598 1b4c E8000000 		call	_ZN8UnitTest11CurrentTest7ResultsEv@PLT
 3598      00
 3599 1b51 488B00   		movq	(%rax), %rax
 3600 1b54 488D4DA0 		leaq	-96(%rbp), %rcx
 3601 1b58 488D55C0 		leaq	-64(%rbp), %rdx
 3602 1b5c 488DB578 		leaq	-136(%rbp), %rsi
 3602      FFFFFF
 3603 1b63 4889C7   		movq	%rax, %rdi
 3604 1b66 E8000000 		call	_ZN8UnitTest10CheckEqualIPKcNSt7__cxx1112basic_stringIcSt11char_traitsIcESaIcEEEEEvRNS_11Test
 3604      00
 3605              	.LEHE102:
 3606              		.loc 3 112 0 discriminator 8
 3607 1b6b 488D45C0 		leaq	-64(%rbp), %rax
 3608 1b6f 4889C7   		movq	%rax, %rdi
 3609              	.LEHB103:
 3610 1b72 E8000000 		call	_ZNSt7__cxx1112basic_stringIcSt11char_traitsIcESaIcEED1Ev@PLT
 3610      00
 3611              	.LEHE103:
 113:TestXmlTestReporter.cpp **** }
 3612              		.loc 3 113 0 is_stmt 1
 3613 1b77 EB70     		jmp	.L182
 3614              	.L189:
 3615 1b79 4889C3   		movq	%rax, %rbx
 112:TestXmlTestReporter.cpp **** }
 3616              		.loc 3 112 0
 3617 1b7c 488D45C0 		leaq	-64(%rbp), %rax
 3618 1b80 4889C7   		movq	%rax, %rdi
 3619 1b83 E8000000 		call	_ZNSt7__cxx1112basic_stringIcSt11char_traitsIcESaIcEED1Ev@PLT
 3619      00
 3620 1b88 4889D8   		movq	%rbx, %rax
 3621 1b8b EB00     		jmp	.L184
 3622              	.L188:
 3623              	.L184:
 3624 1b8d 4889C7   		movq	%rax, %rdi
 3625 1b90 E8000000 		call	__cxa_begin_catch@PLT
 3625      00
 3626              	.LEHB104:
 3627 1b95 E8000000 		call	_ZN8UnitTest11CurrentTest7ResultsEv@PLT
 3627      00
 3628 1b9a 488B18   		movq	(%rax), %rbx
 3629 1b9d E8000000 		call	_ZN8UnitTest11CurrentTest7DetailsEv@PLT
 3629      00
 112:TestXmlTestReporter.cpp **** }
 3630              		.loc 3 112 0 is_stmt 0 discriminator 12
 3631 1ba2 488B08   		movq	(%rax), %rcx
 3632 1ba5 488D45A0 		leaq	-96(%rbp), %rax
 3633 1ba9 BA700000 		movl	$112, %edx
 3633      00
 3634 1bae 4889CE   		movq	%rcx, %rsi
 3635 1bb1 4889C7   		movq	%rax, %rdi
 3636 1bb4 E8000000 		call	_ZN8UnitTest11TestDetailsC1ERKS0_i@PLT
 3636      00
 112:TestXmlTestReporter.cpp **** }
 3637              		.loc 3 112 0 discriminator 16
 3638 1bb9 488D45A0 		leaq	-96(%rbp), %rax
 3639 1bbd 488D1500 		leaq	.LC12(%rip), %rdx
 3639      000000
 3640 1bc4 4889C6   		movq	%rax, %rsi
 3641 1bc7 4889DF   		movq	%rbx, %rdi
 3642 1bca E8000000 		call	_ZN8UnitTest11TestResults13OnTestFailureERKNS_11TestDetailsEPKc@PLT
 3642      00
 3643              	.LEHE104:
 3644              	.LEHB105:
 112:TestXmlTestReporter.cpp **** }
 3645              		.loc 3 112 0 discriminator 18
 3646 1bcf E8000000 		call	__cxa_end_catch@PLT
 3646      00
 3647              	.LEHE105:
 3648              		.loc 3 113 0 is_stmt 1 discriminator 18
 3649 1bd4 EB13     		jmp	.L182
 3650              	.L190:
 3651 1bd6 4889C3   		movq	%rax, %rbx
 112:TestXmlTestReporter.cpp **** }
 3652              		.loc 3 112 0
 3653 1bd9 E8000000 		call	__cxa_end_catch@PLT
 3653      00
 3654 1bde 4889D8   		movq	%rbx, %rax
 3655 1be1 4889C7   		movq	%rax, %rdi
 3656              	.LEHB106:
 3657 1be4 E8000000 		call	_Unwind_Resume@PLT
 3657      00
 3658              	.LEHE106:
 3659              	.L182:
 3660              		.loc 3 113 0
 3661 1be9 488B45E8 		movq	-24(%rbp), %rax
 3662 1bed 64483304 		xorq	%fs:40, %rax
 3662      25280000 
 3662      00
 3663 1bf6 7405     		je	.L187
 3664 1bf8 E8000000 		call	__stack_chk_fail@PLT
 3664      00
 3665              	.L187:
 3666 1bfd 4881C498 		addq	$152, %rsp
 3666      000000
 3667 1c04 5B       		popq	%rbx
 3668 1c05 5D       		popq	%rbp
 3669              		.cfi_def_cfa 7, 8
 3670 1c06 C3       		ret
 3671              		.cfi_endproc
 3672              	.LFE1415:
 3673              		.section	.gcc_except_table
 3674              		.align 4
 3675              	.LLSDA1415:
 3676 02d0 FF       		.byte	0xff
 3677 02d1 9B       		.byte	0x9b
 3678 02d2 31       		.uleb128 .LLSDATT1415-.LLSDATTD1415
 3679              	.LLSDATTD1415:
 3680 02d3 01       		.byte	0x1
 3681 02d4 26       		.uleb128 .LLSDACSE1415-.LLSDACSB1415
 3682              	.LLSDACSB1415:
 3683 02d5 44       		.uleb128 .LEHB100-.LFB1415
 3684 02d6 72       		.uleb128 .LEHE100-.LEHB100
 3685 02d7 00       		.uleb128 0
 3686 02d8 00       		.uleb128 0
 3687 02d9 C401     		.uleb128 .LEHB101-.LFB1415
 3688 02db 32       		.uleb128 .LEHE101-.LEHB101
 3689 02dc B702     		.uleb128 .L188-.LFB1415
 3690 02de 01       		.uleb128 0x1
 3691 02df F601     		.uleb128 .LEHB102-.LFB1415
 3692 02e1 1F       		.uleb128 .LEHE102-.LEHB102
 3693 02e2 A302     		.uleb128 .L189-.LFB1415
 3694 02e4 03       		.uleb128 0x3
 3695 02e5 9C02     		.uleb128 .LEHB103-.LFB1415
 3696 02e7 05       		.uleb128 .LEHE103-.LEHB103
 3697 02e8 B702     		.uleb128 .L188-.LFB1415
 3698 02ea 01       		.uleb128 0x1
 3699 02eb BF02     		.uleb128 .LEHB104-.LFB1415
 3700 02ed 3A       		.uleb128 .LEHE104-.LEHB104
 3701 02ee 8003     		.uleb128 .L190-.LFB1415
 3702 02f0 00       		.uleb128 0
 3703 02f1 F902     		.uleb128 .LEHB105-.LFB1415
 3704 02f3 05       		.uleb128 .LEHE105-.LEHB105
 3705 02f4 00       		.uleb128 0
 3706 02f5 00       		.uleb128 0
 3707 02f6 8E03     		.uleb128 .LEHB106-.LFB1415
 3708 02f8 05       		.uleb128 .LEHE106-.LEHB106
 3709 02f9 00       		.uleb128 0
 3710 02fa 00       		.uleb128 0
 3711              	.LLSDACSE1415:
 3712 02fb 01       		.byte	0x1
 3713 02fc 00       		.byte	0
 3714 02fd 00       		.byte	0
 3715 02fe 7D       		.byte	0x7d
 3716 02ff 00       		.align 4
 3717 0300 00000000 		.long	0
 3718              	
 3719              	.LLSDATT1415:
 3720              		.text
 3722 1c07 90       		.align 2
 3724              	_ZN12_GLOBAL__N_154XmlTestReporterFixtureFailureMessageIsXMLEscapedHelperC2ERKN8UnitTest11TestDetai
 3725              	.LFB1417:
 114:TestXmlTestReporter.cpp **** 
 115:TestXmlTestReporter.cpp **** TEST_FIXTURE(XmlTestReporterFixture, FailureMessageIsXMLEscaped)
 3726              		.loc 3 115 0
 3727              		.cfi_startproc
 3728 1c08 55       		pushq	%rbp
 3729              		.cfi_def_cfa_offset 16
 3730              		.cfi_offset 6, -16
 3731 1c09 4889E5   		movq	%rsp, %rbp
 3732              		.cfi_def_cfa_register 6
 3733 1c0c 4883EC10 		subq	$16, %rsp
 3734 1c10 48897DF8 		movq	%rdi, -8(%rbp)
 3735 1c14 488975F0 		movq	%rsi, -16(%rbp)
 3736              	.LBB63:
 3737              		.loc 3 115 0
 3738 1c18 488B45F8 		movq	-8(%rbp), %rax
 3739 1c1c 4889C7   		movq	%rax, %rdi
 3740 1c1f E8DCE3FF 		call	_ZN12_GLOBAL__N_122XmlTestReporterFixtureC2Ev
 3740      FF
 3741 1c24 488B45F8 		movq	-8(%rbp), %rax
 3742 1c28 488B55F0 		movq	-16(%rbp), %rdx
 3743 1c2c 488990A0 		movq	%rdx, 416(%rax)
 3743      010000
 3744              	.LBE63:
 3745 1c33 90       		nop
 3746 1c34 C9       		leave
 3747              		.cfi_def_cfa 7, 8
 3748 1c35 C3       		ret
 3749              		.cfi_endproc
 3750              	.LFE1417:
 3752              		.set	_ZN12_GLOBAL__N_154XmlTestReporterFixtureFailureMessageIsXMLEscapedHelperC1ERKN8UnitTest11Tes
 3753              		.section	.rodata
 3754              	.LC30:
 3755 0584 4661696C 		.string	"FailureMessageIsXMLEscaped"
 3755      7572654D 
 3755      65737361 
 3755      67654973 
 3755      584D4C45 
 3756              		.text
 3757              		.align 2
 3759              	_ZN12_GLOBAL__N_152TestXmlTestReporterFixtureFailureMessageIsXMLEscapedC2Ev:
 3760              	.LFB1420:
 3761              		.loc 3 115 0
 3762              		.cfi_startproc
 3763 1c36 55       		pushq	%rbp
 3764              		.cfi_def_cfa_offset 16
 3765              		.cfi_offset 6, -16
 3766 1c37 4889E5   		movq	%rsp, %rbp
 3767              		.cfi_def_cfa_register 6
 3768 1c3a 53       		pushq	%rbx
 3769 1c3b 4883EC18 		subq	$24, %rsp
 3770              		.cfi_offset 3, -24
 3771 1c3f 48897DE8 		movq	%rdi, -24(%rbp)
 3772              	.LBB64:
 3773              		.loc 3 115 0
 3774 1c43 488B5DE8 		movq	-24(%rbp), %rbx
 3775 1c47 E8000000 		call	_ZN13UnitTestSuite12GetSuiteNameEv
 3775      00
 3776 1c4c 41B87300 		movl	$115, %r8d
 3776      0000
 3777 1c52 488D0D00 		leaq	.LC1(%rip), %rcx
 3777      000000
 3778 1c59 4889C2   		movq	%rax, %rdx
 3779 1c5c 488D3500 		leaq	.LC30(%rip), %rsi
 3779      000000
 3780 1c63 4889DF   		movq	%rbx, %rdi
 3781 1c66 E8000000 		call	_ZN8UnitTest4TestC2EPKcS2_S2_i@PLT
 3781      00
 3782 1c6b 488D1500 		leaq	16+_ZTVN12_GLOBAL__N_152TestXmlTestReporterFixtureFailureMessageIsXMLEscapedE(%rip), %rdx
 3782      000000
 3783 1c72 488B45E8 		movq	-24(%rbp), %rax
 3784 1c76 488910   		movq	%rdx, (%rax)
 3785              	.LBE64:
 3786 1c79 90       		nop
 3787 1c7a 4883C418 		addq	$24, %rsp
 3788 1c7e 5B       		popq	%rbx
 3789 1c7f 5D       		popq	%rbp
 3790              		.cfi_def_cfa 7, 8
 3791 1c80 C3       		ret
 3792              		.cfi_endproc
 3793              	.LFE1420:
 3795              		.set	_ZN12_GLOBAL__N_152TestXmlTestReporterFixtureFailureMessageIsXMLEscapedC1Ev,_ZN12_GLOBAL__N_1
 3796              		.local	_ZN12_GLOBAL__N_160testXmlTestReporterFixtureFailureMessageIsXMLEscapedInstanceE
 3797              		.comm	_ZN12_GLOBAL__N_160testXmlTestReporterFixtureFailureMessageIsXMLEscapedInstanceE,56,32
 3798              		.local	_ZN12_GLOBAL__N_153adderXmlTestReporterFixtureFailureMessageIsXMLEscapedE
 3799              		.comm	_ZN12_GLOBAL__N_153adderXmlTestReporterFixtureFailureMessageIsXMLEscapedE,1,1
 3800 1c81 90       		.align 2
 3802              	_ZN12_GLOBAL__N_154XmlTestReporterFixtureFailureMessageIsXMLEscapedHelperD2Ev:
 3803              	.LFB1424:
 3804              		.loc 3 115 0
 3805              		.cfi_startproc
 3806 1c82 55       		pushq	%rbp
 3807              		.cfi_def_cfa_offset 16
 3808              		.cfi_offset 6, -16
 3809 1c83 4889E5   		movq	%rsp, %rbp
 3810              		.cfi_def_cfa_register 6
 3811 1c86 4883EC10 		subq	$16, %rsp
 3812 1c8a 48897DF8 		movq	%rdi, -8(%rbp)
 3813              	.LBB65:
 3814              		.loc 3 115 0
 3815 1c8e 488B45F8 		movq	-8(%rbp), %rax
 3816 1c92 4889C7   		movq	%rax, %rdi
 3817 1c95 E8C2E3FF 		call	_ZN12_GLOBAL__N_122XmlTestReporterFixtureD2Ev
 3817      FF
 3818              	.LBE65:
 3819 1c9a 90       		nop
 3820 1c9b C9       		leave
 3821              		.cfi_def_cfa 7, 8
 3822 1c9c C3       		ret
 3823              		.cfi_endproc
 3824              	.LFE1424:
 3826              		.set	_ZN12_GLOBAL__N_154XmlTestReporterFixtureFailureMessageIsXMLEscapedHelperD1Ev,_ZN12_GLOBAL__N
 3827 1c9d 90       		.align 2
 3829              	_ZNK12_GLOBAL__N_152TestXmlTestReporterFixtureFailureMessageIsXMLEscaped7RunImplEv:
 3830              	.LFB1422:
 3831              		.loc 3 115 0
 3832              		.cfi_startproc
 3833              		.cfi_personality 0x9b,DW.ref.__gxx_personality_v0
 3834              		.cfi_lsda 0x1b,.LLSDA1422
 3835 1c9e 55       		pushq	%rbp
 3836              		.cfi_def_cfa_offset 16
 3837              		.cfi_offset 6, -16
 3838 1c9f 4889E5   		movq	%rsp, %rbp
 3839              		.cfi_def_cfa_register 6
 3840 1ca2 4155     		pushq	%r13
 3841 1ca4 4154     		pushq	%r12
 3842 1ca6 53       		pushq	%rbx
 3843 1ca7 4881EC08 		subq	$520, %rsp
 3843      020000
 3844              		.cfi_offset 13, -24
 3845              		.cfi_offset 12, -32
 3846              		.cfi_offset 3, -40
 3847 1cae 4889BDE8 		movq	%rdi, -536(%rbp)
 3847      FDFFFF
 3848              		.loc 3 115 0
 3849 1cb5 64488B04 		movq	%fs:40, %rax
 3849      25280000 
 3849      00
 3850 1cbe 488945D8 		movq	%rax, -40(%rbp)
 3851 1cc2 31C0     		xorl	%eax, %eax
 3852 1cc4 C685FFFD 		movb	$0, -513(%rbp)
 3852      FFFF00
 3853              	.LBB66:
 3854 1ccb 488B85E8 		movq	-536(%rbp), %rax
 3854      FDFFFF
 3855 1cd2 488D5008 		leaq	8(%rax), %rdx
 3856 1cd6 488D8530 		leaq	-464(%rbp), %rax
 3856      FEFFFF
 3857 1cdd 4889D6   		movq	%rdx, %rsi
 3858 1ce0 4889C7   		movq	%rax, %rdi
 3859              	.LEHB107:
 3860 1ce3 E820FFFF 		call	_ZN12_GLOBAL__N_154XmlTestReporterFixtureFailureMessageIsXMLEscapedHelperC1ERKN8UnitTest11Tes
 3860      FF
 3861              	.LEHE107:
 3862              		.loc 3 115 0 is_stmt 0 discriminator 1
 3863 1ce8 C685FFFD 		movb	$1, -513(%rbp)
 3863      FFFF01
 3864 1cef 488B85E8 		movq	-536(%rbp), %rax
 3864      FDFFFF
 3865 1cf6 488D5008 		leaq	8(%rax), %rdx
 3866 1cfa 488D8530 		leaq	-464(%rbp), %rax
 3866      FEFFFF
 3867 1d01 4889D6   		movq	%rdx, %rsi
 3868 1d04 4889C7   		movq	%rax, %rdi
 3869              	.LEHB108:
 3870 1d07 E8241E00 		call	_ZN8UnitTest11ExecuteTestIN12_GLOBAL__N_154XmlTestReporterFixtureFailureMessageIsXMLEscapedHe
 3870      00
 3871              	.LEHE108:
 3872              		.loc 3 115 0 discriminator 3
 3873 1d0c 488D8530 		leaq	-464(%rbp), %rax
 3873      FEFFFF
 3874 1d13 4889C7   		movq	%rax, %rdi
 3875              	.LEHB109:
 3876 1d16 E867FFFF 		call	_ZN12_GLOBAL__N_154XmlTestReporterFixtureFailureMessageIsXMLEscapedHelperD1Ev
 3876      FF
 3877              	.LEHE109:
 3878              	.LBE66:
 3879              		.loc 3 115 0
 3880 1d1b E9690200 		jmp	.L194
 3880      00
 3881              	.L209:
 3882 1d20 4989C4   		movq	%rax, %r12
 3883 1d23 4889D3   		movq	%rdx, %rbx
 3884              	.LBB67:
 3885 1d26 488D8530 		leaq	-464(%rbp), %rax
 3885      FEFFFF
 3886 1d2d 4889C7   		movq	%rax, %rdi
 3887 1d30 E84DFFFF 		call	_ZN12_GLOBAL__N_154XmlTestReporterFixtureFailureMessageIsXMLEscapedHelperD1Ev
 3887      FF
 3888 1d35 4C89E0   		movq	%r12, %rax
 3889 1d38 4889DA   		movq	%rbx, %rdx
 3890 1d3b EB00     		jmp	.L196
 3891              	.L208:
 3892              	.L196:
 3893 1d3d 4883FA01 		cmpq	$1, %rdx
 3894 1d41 740F     		je	.L198
 3895 1d43 4883FA02 		cmpq	$2, %rdx
 3896 1d47 0F84A700 		je	.L199
 3896      0000
 3897 1d4d E94A0100 		jmp	.L214
 3897      00
 3898              	.L198:
 3899              	.LBE67:
 3900              	.LBB68:
 3901 1d52 4889C7   		movq	%rax, %rdi
 3902 1d55 E8000000 		call	__cxa_begin_catch@PLT
 3902      00
 3903 1d5a 48898508 		movq	%rax, -504(%rbp)
 3903      FEFFFF
 3904              	.LEHB110:
 3905 1d61 E8000000 		call	_ZN8UnitTest11CurrentTest7ResultsEv@PLT
 3905      00
 3906 1d66 488B18   		movq	(%rax), %rbx
 3907 1d69 488B8508 		movq	-504(%rbp), %rax
 3907      FEFFFF
 3908 1d70 488B00   		movq	(%rax), %rax
 3909 1d73 4883C010 		addq	$16, %rax
 3910 1d77 488B00   		movq	(%rax), %rax
 3911 1d7a 488B9508 		movq	-504(%rbp), %rdx
 3911      FEFFFF
 3912 1d81 4889D7   		movq	%rdx, %rdi
 3913 1d84 FFD0     		call	*%rax
 3914              	.LVL10:
 3915 1d86 4989C4   		movq	%rax, %r12
 3916 1d89 488B8508 		movq	-504(%rbp), %rax
 3916      FEFFFF
 3917 1d90 4889C7   		movq	%rax, %rdi
 3918 1d93 E8000000 		call	_ZNK8UnitTest15AssertException10LineNumberEv@PLT
 3918      00
 3919              		.loc 3 115 0 discriminator 5
 3920 1d98 4189C5   		movl	%eax, %r13d
 3921 1d9b 488B8508 		movq	-504(%rbp), %rax
 3921      FEFFFF
 3922 1da2 4889C7   		movq	%rax, %rdi
 3923 1da5 E8000000 		call	_ZNK8UnitTest15AssertException8FilenameEv@PLT
 3923      00
 3924              		.loc 3 115 0 discriminator 7
 3925 1daa 4889C1   		movq	%rax, %rcx
 3926 1dad 488B85E8 		movq	-536(%rbp), %rax
 3926      FDFFFF
 3927 1db4 488B5008 		movq	8(%rax), %rdx
 3928 1db8 488B85E8 		movq	-536(%rbp), %rax
 3928      FDFFFF
 3929 1dbf 488B7010 		movq	16(%rax), %rsi
 3930 1dc3 488D8510 		leaq	-496(%rbp), %rax
 3930      FEFFFF
 3931 1dca 4589E8   		movl	%r13d, %r8d
 3932 1dcd 4889C7   		movq	%rax, %rdi
 3933 1dd0 E8000000 		call	_ZN8UnitTest11TestDetailsC1EPKcS2_S2_i@PLT
 3933      00
 3934              		.loc 3 115 0 discriminator 11
 3935 1dd5 488D8510 		leaq	-496(%rbp), %rax
 3935      FEFFFF
 3936 1ddc 4C89E2   		movq	%r12, %rdx
 3937 1ddf 4889C6   		movq	%rax, %rsi
 3938 1de2 4889DF   		movq	%rbx, %rdi
 3939 1de5 E8000000 		call	_ZN8UnitTest11TestResults13OnTestFailureERKNS_11TestDetailsEPKc@PLT
 3939      00
 3940              	.LEHE110:
 3941              		.loc 3 115 0 discriminator 13
 3942 1dea E8000000 		call	__cxa_end_catch@PLT
 3942      00
 3943              	.LBE68:
 3944 1def E9950100 		jmp	.L194
 3944      00
 3945              	.L199:
 3946              	.LBB69:
 3947              		.loc 3 115 0
 3948 1df4 4889C7   		movq	%rax, %rdi
 3949 1df7 E8000000 		call	__cxa_begin_catch@PLT
 3949      00
 3950 1dfc 48898500 		movq	%rax, -512(%rbp)
 3950      FEFFFF
 3951              	.LBB70:
 3952 1e03 488D8530 		leaq	-464(%rbp), %rax
 3952      FEFFFF
 3953 1e0a 4889C7   		movq	%rax, %rdi
 3954              	.LEHB111:
 3955 1e0d E8000000 		call	_ZN8UnitTest15MemoryOutStreamC1Ev
 3955      00
 3956              	.LEHE111:
 3957              		.loc 3 115 0 discriminator 15
 3958 1e12 488D8530 		leaq	-464(%rbp), %rax
 3958      FEFFFF
 3959 1e19 488D3500 		leaq	.LC3(%rip), %rsi
 3959      000000
 3960 1e20 4889C7   		movq	%rax, %rdi
 3961              	.LEHB112:
 3962 1e23 E8000000 		call	_ZStlsISt11char_traitsIcEERSt13basic_ostreamIcT_ES5_PKc@PLT
 3962      00
 3963 1e28 4889C3   		movq	%rax, %rbx
 3964 1e2b 488B8500 		movq	-512(%rbp), %rax
 3964      FEFFFF
 3965 1e32 488B00   		movq	(%rax), %rax
 3966 1e35 4883C010 		addq	$16, %rax
 3967 1e39 488B00   		movq	(%rax), %rax
 3968 1e3c 488B9500 		movq	-512(%rbp), %rdx
 3968      FEFFFF
 3969 1e43 4889D7   		movq	%rdx, %rdi
 3970 1e46 FFD0     		call	*%rax
 3971              	.LVL11:
 3972 1e48 4889C6   		movq	%rax, %rsi
 3973 1e4b 4889DF   		movq	%rbx, %rdi
 3974 1e4e E8000000 		call	_ZStlsISt11char_traitsIcEERSt13basic_ostreamIcT_ES5_PKc@PLT
 3974      00
 3975              		.loc 3 115 0 discriminator 19
 3976 1e53 E8000000 		call	_ZN8UnitTest11CurrentTest7ResultsEv@PLT
 3976      00
 3977 1e58 488B18   		movq	(%rax), %rbx
 3978 1e5b 488D8530 		leaq	-464(%rbp), %rax
 3978      FEFFFF
 3979 1e62 4889C7   		movq	%rax, %rdi
 3980 1e65 E8000000 		call	_ZNK8UnitTest15MemoryOutStream7GetTextEv@PLT
 3980      00
 3981              		.loc 3 115 0 discriminator 21
 3982 1e6a 4889C2   		movq	%rax, %rdx
 3983 1e6d 488B85E8 		movq	-536(%rbp), %rax
 3983      FDFFFF
 3984 1e74 4883C008 		addq	$8, %rax
 3985 1e78 4889C6   		movq	%rax, %rsi
 3986 1e7b 4889DF   		movq	%rbx, %rdi
 3987 1e7e E8000000 		call	_ZN8UnitTest11TestResults13OnTestFailureERKNS_11TestDetailsEPKc@PLT
 3987      00
 3988              	.LEHE112:
 3989              		.loc 3 115 0 discriminator 25
 3990 1e83 488D8530 		leaq	-464(%rbp), %rax
 3990      FEFFFF
 3991 1e8a 4889C7   		movq	%rax, %rdi
 3992              	.LEHB113:
 3993 1e8d E8000000 		call	_ZN8UnitTest15MemoryOutStreamD1Ev
 3993      00
 3994              	.LEHE113:
 3995              	.LBE70:
 3996              		.loc 3 115 0 discriminator 26
 3997 1e92 E8000000 		call	__cxa_end_catch@PLT
 3997      00
 3998              	.LBE69:
 3999 1e97 E9ED0000 		jmp	.L194
 3999      00
 4000              	.L214:
 4001              		.loc 3 115 0
 4002 1e9c 4889C7   		movq	%rax, %rdi
 4003 1e9f E8000000 		call	__cxa_begin_catch@PLT
 4003      00
 4004 1ea4 80BDFFFD 		cmpb	$0, -513(%rbp)
 4004      FFFF00
 4005 1eab 7445     		je	.L201
 4006              	.LEHB114:
 4007              		.loc 3 115 0 discriminator 28
 4008 1ead E8000000 		call	_ZN8UnitTest11CurrentTest7ResultsEv@PLT
 4008      00
 4009 1eb2 488B18   		movq	(%rax), %rbx
 4010 1eb5 488B85E8 		movq	-536(%rbp), %rax
 4010      FDFFFF
 4011 1ebc 488D4808 		leaq	8(%rax), %rcx
 4012 1ec0 488D8510 		leaq	-496(%rbp), %rax
 4012      FEFFFF
 4013 1ec7 BA730000 		movl	$115, %edx
 4013      00
 4014 1ecc 4889CE   		movq	%rcx, %rsi
 4015 1ecf 4889C7   		movq	%rax, %rdi
 4016 1ed2 E8000000 		call	_ZN8UnitTest11TestDetailsC1ERKS0_i@PLT
 4016      00
 4017              		.loc 3 115 0 discriminator 33
 4018 1ed7 488D8510 		leaq	-496(%rbp), %rax
 4018      FEFFFF
 4019 1ede 488D1500 		leaq	.LC4(%rip), %rdx
 4019      000000
 4020 1ee5 4889C6   		movq	%rax, %rsi
 4021 1ee8 4889DF   		movq	%rbx, %rdi
 4022 1eeb E8000000 		call	_ZN8UnitTest11TestResults13OnTestFailureERKNS_11TestDetailsEPKc@PLT
 4022      00
 4023 1ef0 EB43     		jmp	.L202
 4024              	.L201:
 4025              		.loc 3 115 0 discriminator 29
 4026 1ef2 E8000000 		call	_ZN8UnitTest11CurrentTest7ResultsEv@PLT
 4026      00
 4027 1ef7 488B18   		movq	(%rax), %rbx
 4028 1efa 488B85E8 		movq	-536(%rbp), %rax
 4028      FDFFFF
 4029 1f01 488D4808 		leaq	8(%rax), %rcx
 4030 1f05 488D8510 		leaq	-496(%rbp), %rax
 4030      FEFFFF
 4031 1f0c BA730000 		movl	$115, %edx
 4031      00
 4032 1f11 4889CE   		movq	%rcx, %rsi
 4033 1f14 4889C7   		movq	%rax, %rdi
 4034 1f17 E8000000 		call	_ZN8UnitTest11TestDetailsC1ERKS0_i@PLT
 4034      00
 4035              		.loc 3 115 0 discriminator 40
 4036 1f1c 488D8510 		leaq	-496(%rbp), %rax
 4036      FEFFFF
 4037 1f23 488D1500 		leaq	.LC5(%rip), %rdx
 4037      000000
 4038 1f2a 4889C6   		movq	%rax, %rsi
 4039 1f2d 4889DF   		movq	%rbx, %rdi
 4040 1f30 E8000000 		call	_ZN8UnitTest11TestResults13OnTestFailureERKNS_11TestDetailsEPKc@PLT
 4040      00
 4041              	.LEHE114:
 4042              	.L202:
 4043              	.LEHB115:
 4044              		.loc 3 115 0 discriminator 43
 4045 1f35 E8000000 		call	__cxa_end_catch@PLT
 4045      00
 4046 1f3a EB4D     		jmp	.L194
 4047              	.L210:
 4048 1f3c 4889C3   		movq	%rax, %rbx
 4049              	.LBB72:
 4050              		.loc 3 115 0
 4051 1f3f E8000000 		call	__cxa_end_catch@PLT
 4051      00
 4052 1f44 4889D8   		movq	%rbx, %rax
 4053 1f47 4889C7   		movq	%rax, %rdi
 4054 1f4a E8000000 		call	_Unwind_Resume@PLT
 4054      00
 4055              	.LEHE115:
 4056              	.L212:
 4057 1f4f 4889C3   		movq	%rax, %rbx
 4058              	.LBE72:
 4059              	.LBB73:
 4060              	.LBB71:
 4061 1f52 488D8530 		leaq	-464(%rbp), %rax
 4061      FEFFFF
 4062 1f59 4889C7   		movq	%rax, %rdi
 4063 1f5c E8000000 		call	_ZN8UnitTest15MemoryOutStreamD1Ev
 4063      00
 4064 1f61 EB03     		jmp	.L205
 4065              	.L211:
 4066 1f63 4889C3   		movq	%rax, %rbx
 4067              	.L205:
 4068              	.LBE71:
 4069 1f66 E8000000 		call	__cxa_end_catch@PLT
 4069      00
 4070 1f6b 4889D8   		movq	%rbx, %rax
 4071 1f6e 4889C7   		movq	%rax, %rdi
 4072              	.LEHB116:
 4073 1f71 E8000000 		call	_Unwind_Resume@PLT
 4073      00
 4074              	.LEHE116:
 4075              	.L213:
 4076 1f76 4889C3   		movq	%rax, %rbx
 4077              	.LBE73:
 4078 1f79 E8000000 		call	__cxa_end_catch@PLT
 4078      00
 4079 1f7e 4889D8   		movq	%rbx, %rax
 4080 1f81 4889C7   		movq	%rax, %rdi
 4081              	.LEHB117:
 4082 1f84 E8000000 		call	_Unwind_Resume@PLT
 4082      00
 4083              	.LEHE117:
 4084              	.L194:
 4085 1f89 488B45D8 		movq	-40(%rbp), %rax
 4086 1f8d 64483304 		xorq	%fs:40, %rax
 4086      25280000 
 4086      00
 4087 1f96 7405     		je	.L207
 4088 1f98 E8000000 		call	__stack_chk_fail@PLT
 4088      00
 4089              	.L207:
 4090 1f9d 4881C408 		addq	$520, %rsp
 4090      020000
 4091 1fa4 5B       		popq	%rbx
 4092 1fa5 415C     		popq	%r12
 4093 1fa7 415D     		popq	%r13
 4094 1fa9 5D       		popq	%rbp
 4095              		.cfi_def_cfa 7, 8
 4096 1faa C3       		ret
 4097              		.cfi_endproc
 4098              	.LFE1422:
 4099              		.section	.gcc_except_table
 4100              		.align 4
 4101              	.LLSDA1422:
 4102 0304 FF       		.byte	0xff
 4103 0305 9B       		.byte	0x9b
 4104 0306 55       		.uleb128 .LLSDATT1422-.LLSDATTD1422
 4105              	.LLSDATTD1422:
 4106 0307 01       		.byte	0x1
 4107 0308 3E       		.uleb128 .LLSDACSE1422-.LLSDACSB1422
 4108              	.LLSDACSB1422:
 4109 0309 45       		.uleb128 .LEHB107-.LFB1422
 4110 030a 05       		.uleb128 .LEHE107-.LEHB107
 4111 030b 9F01     		.uleb128 .L208-.LFB1422
 4112 030d 05       		.uleb128 0x5
 4113 030e 69       		.uleb128 .LEHB108-.LFB1422
 4114 030f 05       		.uleb128 .LEHE108-.LEHB108
 4115 0310 8201     		.uleb128 .L209-.LFB1422
 4116 0312 07       		.uleb128 0x7
 4117 0313 78       		.uleb128 .LEHB109-.LFB1422
 4118 0314 05       		.uleb128 .LEHE109-.LEHB109
 4119 0315 9F01     		.uleb128 .L208-.LFB1422
 4120 0317 05       		.uleb128 0x5
 4121 0318 C301     		.uleb128 .LEHB110-.LFB1422
 4122 031a 8901     		.uleb128 .LEHE110-.LEHB110
 4123 031c 9E05     		.uleb128 .L210-.LFB1422
 4124 031e 00       		.uleb128 0
 4125 031f EF02     		.uleb128 .LEHB111-.LFB1422
 4126 0321 05       		.uleb128 .LEHE111-.LEHB111
 4127 0322 C505     		.uleb128 .L211-.LFB1422
 4128 0324 00       		.uleb128 0
 4129 0325 8503     		.uleb128 .LEHB112-.LFB1422
 4130 0327 60       		.uleb128 .LEHE112-.LEHB112
 4131 0328 B105     		.uleb128 .L212-.LFB1422
 4132 032a 00       		.uleb128 0
 4133 032b EF03     		.uleb128 .LEHB113-.LFB1422
 4134 032d 05       		.uleb128 .LEHE113-.LEHB113
 4135 032e C505     		.uleb128 .L211-.LFB1422
 4136 0330 00       		.uleb128 0
 4137 0331 8F04     		.uleb128 .LEHB114-.LFB1422
 4138 0333 8801     		.uleb128 .LEHE114-.LEHB114
 4139 0335 D805     		.uleb128 .L213-.LFB1422
 4140 0337 00       		.uleb128 0
 4141 0338 9705     		.uleb128 .LEHB115-.LFB1422
 4142 033a 1A       		.uleb128 .LEHE115-.LEHB115
 4143 033b 00       		.uleb128 0
 4144 033c 00       		.uleb128 0
 4145 033d D305     		.uleb128 .LEHB116-.LFB1422
 4146 033f 05       		.uleb128 .LEHE116-.LEHB116
 4147 0340 00       		.uleb128 0
 4148 0341 00       		.uleb128 0
 4149 0342 E605     		.uleb128 .LEHB117-.LFB1422
 4150 0344 05       		.uleb128 .LEHE117-.LEHB117
 4151 0345 00       		.uleb128 0
 4152 0346 00       		.uleb128 0
 4153              	.LLSDACSE1422:
 4154 0347 03       		.byte	0x3
 4155 0348 00       		.byte	0
 4156 0349 02       		.byte	0x2
 4157 034a 7D       		.byte	0x7d
 4158 034b 01       		.byte	0x1
 4159 034c 7D       		.byte	0x7d
 4160 034d 00       		.byte	0
 4161 034e 7D       		.byte	0x7d
 4162 034f 00       		.align 4
 4163 0350 00000000 		.long	0
 4164              	
 4165 0354 00000000 		.long	DW.ref._ZTISt9exception-.
 4166 0358 00000000 		.long	DW.ref._ZTIN8UnitTest15AssertExceptionE-.
 4167              	.LLSDATT1422:
 4168              		.text
 4170              		.section	.rodata
 4171              	.LC31:
 4172 059f 2227263C 		.string	"\"'&<>"
 4172      3E00
 4173 05a5 000000   		.align 8
 4174              	.LC32:
 4175 05a8 3C3F786D 		.string	"<?xml version=\"1.0\"?><unittest-results tests=\"1\" failedtests=\"1\" failures=\"1\" tim
 4175      6C207665 
 4175      7273696F 
 4175      6E3D2231 
 4175      2E30223F 
 4176              		.text
 4177 1fab 90       		.align 2
 4179              	_ZN12_GLOBAL__N_154XmlTestReporterFixtureFailureMessageIsXMLEscapedHelper7RunImplEv:
 4180              	.LFB1426:
 116:TestXmlTestReporter.cpp **** {
 4181              		.loc 3 116 0 is_stmt 1
 4182              		.cfi_startproc
 4183              		.cfi_personality 0x9b,DW.ref.__gxx_personality_v0
 4184              		.cfi_lsda 0x1b,.LLSDA1426
 4185 1fac 55       		pushq	%rbp
 4186              		.cfi_def_cfa_offset 16
 4187              		.cfi_offset 6, -16
 4188 1fad 4889E5   		movq	%rsp, %rbp
 4189              		.cfi_def_cfa_register 6
 4190 1fb0 53       		pushq	%rbx
 4191 1fb1 4881EC98 		subq	$152, %rsp
 4191      000000
 4192              		.cfi_offset 3, -24
 4193 1fb8 4889BD68 		movq	%rdi, -152(%rbp)
 4193      FFFFFF
 4194              		.loc 3 116 0
 4195 1fbf 64488B04 		movq	%fs:40, %rax
 4195      25280000 
 4195      00
 4196 1fc8 488945E8 		movq	%rax, -24(%rbp)
 4197 1fcc 31C0     		xorl	%eax, %eax
 117:TestXmlTestReporter.cpp ****     TestDetails const details("TestName", "suite", "filename.h", 4321);
 4198              		.loc 3 117 0
 4199 1fce 488D4580 		leaq	-128(%rbp), %rax
 4200 1fd2 41B8E110 		movl	$4321, %r8d
 4200      0000
 4201 1fd8 488D0D00 		leaq	.LC6(%rip), %rcx
 4201      000000
 4202 1fdf 488D1500 		leaq	.LC7(%rip), %rdx
 4202      000000
 4203 1fe6 488D3500 		leaq	.LC8(%rip), %rsi
 4203      000000
 4204 1fed 4889C7   		movq	%rax, %rdi
 4205              	.LEHB118:
 4206 1ff0 E8000000 		call	_ZN8UnitTest11TestDetailsC1EPKcS2_S2_i@PLT
 4206      00
 118:TestXmlTestReporter.cpp **** 
 119:TestXmlTestReporter.cpp ****     reporter.ReportTestStart(details);
 4207              		.loc 3 119 0
 4208 1ff5 488B8568 		movq	-152(%rbp), %rax
 4208      FFFFFF
 4209 1ffc 488D9078 		leaq	376(%rax), %rdx
 4209      010000
 4210 2003 488D4580 		leaq	-128(%rbp), %rax
 4211 2007 4889C6   		movq	%rax, %rsi
 4212 200a 4889D7   		movq	%rdx, %rdi
 4213 200d E8000000 		call	_ZN8UnitTest20DeferredTestReporter15ReportTestStartERKNS_11TestDetailsE@PLT
 4213      00
 120:TestXmlTestReporter.cpp ****     reporter.ReportFailure(details, "\"\'&<>");
 4214              		.loc 3 120 0
 4215 2012 488B8568 		movq	-152(%rbp), %rax
 4215      FFFFFF
 4216 2019 488D8878 		leaq	376(%rax), %rcx
 4216      010000
 4217 2020 488D4580 		leaq	-128(%rbp), %rax
 4218 2024 488D1500 		leaq	.LC31(%rip), %rdx
 4218      000000
 4219 202b 4889C6   		movq	%rax, %rsi
 4220 202e 4889CF   		movq	%rcx, %rdi
 4221 2031 E8000000 		call	_ZN8UnitTest20DeferredTestReporter13ReportFailureERKNS_11TestDetailsEPKc@PLT
 4221      00
 121:TestXmlTestReporter.cpp ****     reporter.ReportTestFinish(details, 0.1f);
 4222              		.loc 3 121 0
 4223 2036 488B8568 		movq	-152(%rbp), %rax
 4223      FFFFFF
 4224 203d 488D9078 		leaq	376(%rax), %rdx
 4224      010000
 4225 2044 488D4580 		leaq	-128(%rbp), %rax
 4226 2048 F30F1005 		movss	.LC10(%rip), %xmm0
 4226      00000000 
 4227 2050 4889C6   		movq	%rax, %rsi
 4228 2053 4889D7   		movq	%rdx, %rdi
 4229 2056 E8000000 		call	_ZN8UnitTest20DeferredTestReporter16ReportTestFinishERKNS_11TestDetailsEf@PLT
 4229      00
 122:TestXmlTestReporter.cpp ****     reporter.ReportSummary(1, 1, 1, 0.1f);
 4230              		.loc 3 122 0
 4231 205b 488B8568 		movq	-152(%rbp), %rax
 4231      FFFFFF
 4232 2062 48057801 		addq	$376, %rax
 4232      0000
 4233 2068 F30F1005 		movss	.LC10(%rip), %xmm0
 4233      00000000 
 4234 2070 B9010000 		movl	$1, %ecx
 4234      00
 4235 2075 BA010000 		movl	$1, %edx
 4235      00
 4236 207a BE010000 		movl	$1, %esi
 4236      00
 4237 207f 4889C7   		movq	%rax, %rdi
 4238 2082 E8000000 		call	_ZN8UnitTest15XmlTestReporter13ReportSummaryEiiif@PLT
 4238      00
 4239              	.LEHE118:
 123:TestXmlTestReporter.cpp **** 
 124:TestXmlTestReporter.cpp ****     char const* expected =
 4240              		.loc 3 124 0
 4241 2087 488D0500 		leaq	.LC32(%rip), %rax
 4241      000000
 4242 208e 48898578 		movq	%rax, -136(%rbp)
 4242      FFFFFF
 4243              	.LEHB119:
 125:TestXmlTestReporter.cpp ****         "<?xml version=\"1.0\"?>"
 126:TestXmlTestReporter.cpp ****         "<unittest-results tests=\"1\" failedtests=\"1\" failures=\"1\" time=\"0.1\">"
 127:TestXmlTestReporter.cpp ****         "<test suite=\"suite\" name=\"TestName\" time=\"0.1\">"
 128:TestXmlTestReporter.cpp ****         "<failure message=\"filename.h(4321) : &quot;&apos;&amp;&lt;&gt;\"/>"
 129:TestXmlTestReporter.cpp ****         "</test>"
 130:TestXmlTestReporter.cpp ****         "</unittest-results>";
 131:TestXmlTestReporter.cpp **** 
 132:TestXmlTestReporter.cpp ****     CHECK_EQUAL(expected, output.str());
 4244              		.loc 3 132 0
 4245 2095 E8000000 		call	_ZN8UnitTest11CurrentTest7DetailsEv@PLT
 4245      00
 4246 209a 488B08   		movq	(%rax), %rcx
 4247 209d 488D45A0 		leaq	-96(%rbp), %rax
 4248 20a1 BA840000 		movl	$132, %edx
 4248      00
 4249 20a6 4889CE   		movq	%rcx, %rsi
 4250 20a9 4889C7   		movq	%rax, %rdi
 4251 20ac E8000000 		call	_ZN8UnitTest11TestDetailsC1ERKS0_i@PLT
 4251      00
 4252              		.loc 3 132 0 is_stmt 0 discriminator 2
 4253 20b1 488B9568 		movq	-152(%rbp), %rdx
 4253      FFFFFF
 4254 20b8 488D45C0 		leaq	-64(%rbp), %rax
 4255 20bc 4889D6   		movq	%rdx, %rsi
 4256 20bf 4889C7   		movq	%rax, %rdi
 4257 20c2 E8000000 		call	_ZNKSt7__cxx1119basic_ostringstreamIcSt11char_traitsIcESaIcEE3strEv@PLT
 4257      00
 4258              	.LEHE119:
 4259              	.LEHB120:
 4260              		.loc 3 132 0 discriminator 4
 4261 20c7 E8000000 		call	_ZN8UnitTest11CurrentTest7ResultsEv@PLT
 4261      00
 4262 20cc 488B00   		movq	(%rax), %rax
 4263 20cf 488D4DA0 		leaq	-96(%rbp), %rcx
 4264 20d3 488D55C0 		leaq	-64(%rbp), %rdx
 4265 20d7 488DB578 		leaq	-136(%rbp), %rsi
 4265      FFFFFF
 4266 20de 4889C7   		movq	%rax, %rdi
 4267 20e1 E8000000 		call	_ZN8UnitTest10CheckEqualIPKcNSt7__cxx1112basic_stringIcSt11char_traitsIcESaIcEEEEEvRNS_11Test
 4267      00
 4268              	.LEHE120:
 4269              		.loc 3 132 0 discriminator 8
 4270 20e6 488D45C0 		leaq	-64(%rbp), %rax
 4271 20ea 4889C7   		movq	%rax, %rdi
 4272              	.LEHB121:
 4273 20ed E8000000 		call	_ZNSt7__cxx1112basic_stringIcSt11char_traitsIcESaIcEED1Ev@PLT
 4273      00
 4274              	.LEHE121:
 133:TestXmlTestReporter.cpp **** }
 4275              		.loc 3 133 0 is_stmt 1
 4276 20f2 EB70     		jmp	.L215
 4277              	.L222:
 4278 20f4 4889C3   		movq	%rax, %rbx
 132:TestXmlTestReporter.cpp **** }
 4279              		.loc 3 132 0
 4280 20f7 488D45C0 		leaq	-64(%rbp), %rax
 4281 20fb 4889C7   		movq	%rax, %rdi
 4282 20fe E8000000 		call	_ZNSt7__cxx1112basic_stringIcSt11char_traitsIcESaIcEED1Ev@PLT
 4282      00
 4283 2103 4889D8   		movq	%rbx, %rax
 4284 2106 EB00     		jmp	.L217
 4285              	.L221:
 4286              	.L217:
 4287 2108 4889C7   		movq	%rax, %rdi
 4288 210b E8000000 		call	__cxa_begin_catch@PLT
 4288      00
 4289              	.LEHB122:
 4290 2110 E8000000 		call	_ZN8UnitTest11CurrentTest7ResultsEv@PLT
 4290      00
 4291 2115 488B18   		movq	(%rax), %rbx
 4292 2118 E8000000 		call	_ZN8UnitTest11CurrentTest7DetailsEv@PLT
 4292      00
 132:TestXmlTestReporter.cpp **** }
 4293              		.loc 3 132 0 is_stmt 0 discriminator 12
 4294 211d 488B08   		movq	(%rax), %rcx
 4295 2120 488D45A0 		leaq	-96(%rbp), %rax
 4296 2124 BA840000 		movl	$132, %edx
 4296      00
 4297 2129 4889CE   		movq	%rcx, %rsi
 4298 212c 4889C7   		movq	%rax, %rdi
 4299 212f E8000000 		call	_ZN8UnitTest11TestDetailsC1ERKS0_i@PLT
 4299      00
 132:TestXmlTestReporter.cpp **** }
 4300              		.loc 3 132 0 discriminator 16
 4301 2134 488D45A0 		leaq	-96(%rbp), %rax
 4302 2138 488D1500 		leaq	.LC12(%rip), %rdx
 4302      000000
 4303 213f 4889C6   		movq	%rax, %rsi
 4304 2142 4889DF   		movq	%rbx, %rdi
 4305 2145 E8000000 		call	_ZN8UnitTest11TestResults13OnTestFailureERKNS_11TestDetailsEPKc@PLT
 4305      00
 4306              	.LEHE122:
 4307              	.LEHB123:
 132:TestXmlTestReporter.cpp **** }
 4308              		.loc 3 132 0 discriminator 18
 4309 214a E8000000 		call	__cxa_end_catch@PLT
 4309      00
 4310              	.LEHE123:
 4311              		.loc 3 133 0 is_stmt 1 discriminator 18
 4312 214f EB13     		jmp	.L215
 4313              	.L223:
 4314 2151 4889C3   		movq	%rax, %rbx
 132:TestXmlTestReporter.cpp **** }
 4315              		.loc 3 132 0
 4316 2154 E8000000 		call	__cxa_end_catch@PLT
 4316      00
 4317 2159 4889D8   		movq	%rbx, %rax
 4318 215c 4889C7   		movq	%rax, %rdi
 4319              	.LEHB124:
 4320 215f E8000000 		call	_Unwind_Resume@PLT
 4320      00
 4321              	.LEHE124:
 4322              	.L215:
 4323              		.loc 3 133 0
 4324 2164 488B45E8 		movq	-24(%rbp), %rax
 4325 2168 64483304 		xorq	%fs:40, %rax
 4325      25280000 
 4325      00
 4326 2171 7405     		je	.L220
 4327 2173 E8000000 		call	__stack_chk_fail@PLT
 4327      00
 4328              	.L220:
 4329 2178 4881C498 		addq	$152, %rsp
 4329      000000
 4330 217f 5B       		popq	%rbx
 4331 2180 5D       		popq	%rbp
 4332              		.cfi_def_cfa 7, 8
 4333 2181 C3       		ret
 4334              		.cfi_endproc
 4335              	.LFE1426:
 4336              		.section	.gcc_except_table
 4337              		.align 4
 4338              	.LLSDA1426:
 4339 035c FF       		.byte	0xff
 4340 035d 9B       		.byte	0x9b
 4341 035e 31       		.uleb128 .LLSDATT1426-.LLSDATTD1426
 4342              	.LLSDATTD1426:
 4343 035f 01       		.byte	0x1
 4344 0360 27       		.uleb128 .LLSDACSE1426-.LLSDACSB1426
 4345              	.LLSDACSB1426:
 4346 0361 44       		.uleb128 .LEHB118-.LFB1426
 4347 0362 9701     		.uleb128 .LEHE118-.LEHB118
 4348 0364 00       		.uleb128 0
 4349 0365 00       		.uleb128 0
 4350 0366 E901     		.uleb128 .LEHB119-.LFB1426
 4351 0368 32       		.uleb128 .LEHE119-.LEHB119
 4352 0369 DC02     		.uleb128 .L221-.LFB1426
 4353 036b 01       		.uleb128 0x1
 4354 036c 9B02     		.uleb128 .LEHB120-.LFB1426
 4355 036e 1F       		.uleb128 .LEHE120-.LEHB120
 4356 036f C802     		.uleb128 .L222-.LFB1426
 4357 0371 03       		.uleb128 0x3
 4358 0372 C102     		.uleb128 .LEHB121-.LFB1426
 4359 0374 05       		.uleb128 .LEHE121-.LEHB121
 4360 0375 DC02     		.uleb128 .L221-.LFB1426
 4361 0377 01       		.uleb128 0x1
 4362 0378 E402     		.uleb128 .LEHB122-.LFB1426
 4363 037a 3A       		.uleb128 .LEHE122-.LEHB122
 4364 037b A503     		.uleb128 .L223-.LFB1426
 4365 037d 00       		.uleb128 0
 4366 037e 9E03     		.uleb128 .LEHB123-.LFB1426
 4367 0380 05       		.uleb128 .LEHE123-.LEHB123
 4368 0381 00       		.uleb128 0
 4369 0382 00       		.uleb128 0
 4370 0383 B303     		.uleb128 .LEHB124-.LFB1426
 4371 0385 05       		.uleb128 .LEHE124-.LEHB124
 4372 0386 00       		.uleb128 0
 4373 0387 00       		.uleb128 0
 4374              	.LLSDACSE1426:
 4375 0388 01       		.byte	0x1
 4376 0389 00       		.byte	0
 4377 038a 00       		.byte	0
 4378 038b 7D       		.byte	0x7d
 4379              		.align 4
 4380 038c 00000000 		.long	0
 4381              	
 4382              	.LLSDATT1426:
 4383              		.text
 4385              		.align 2
 4387              	_ZN12_GLOBAL__N_151XmlTestReporterFixtureOneFailureAndOneSuccessHelperC2ERKN8UnitTest11TestDetailsE
 4388              	.LFB1428:
 134:TestXmlTestReporter.cpp **** 
 135:TestXmlTestReporter.cpp **** TEST_FIXTURE(XmlTestReporterFixture, OneFailureAndOneSuccess)
 4389              		.loc 3 135 0
 4390              		.cfi_startproc
 4391 2182 55       		pushq	%rbp
 4392              		.cfi_def_cfa_offset 16
 4393              		.cfi_offset 6, -16
 4394 2183 4889E5   		movq	%rsp, %rbp
 4395              		.cfi_def_cfa_register 6
 4396 2186 4883EC10 		subq	$16, %rsp
 4397 218a 48897DF8 		movq	%rdi, -8(%rbp)
 4398 218e 488975F0 		movq	%rsi, -16(%rbp)
 4399              	.LBB74:
 4400              		.loc 3 135 0
 4401 2192 488B45F8 		movq	-8(%rbp), %rax
 4402 2196 4889C7   		movq	%rax, %rdi
 4403 2199 E862DEFF 		call	_ZN12_GLOBAL__N_122XmlTestReporterFixtureC2Ev
 4403      FF
 4404 219e 488B45F8 		movq	-8(%rbp), %rax
 4405 21a2 488B55F0 		movq	-16(%rbp), %rdx
 4406 21a6 488990A0 		movq	%rdx, 416(%rax)
 4406      010000
 4407              	.LBE74:
 4408 21ad 90       		nop
 4409 21ae C9       		leave
 4410              		.cfi_def_cfa 7, 8
 4411 21af C3       		ret
 4412              		.cfi_endproc
 4413              	.LFE1428:
 4415              		.set	_ZN12_GLOBAL__N_151XmlTestReporterFixtureOneFailureAndOneSuccessHelperC1ERKN8UnitTest11TestDe
 4416              		.section	.rodata
 4417              	.LC33:
 4418 068c 4F6E6546 		.string	"OneFailureAndOneSuccess"
 4418      61696C75 
 4418      7265416E 
 4418      644F6E65 
 4418      53756363 
 4419              		.text
 4420              		.align 2
 4422              	_ZN12_GLOBAL__N_149TestXmlTestReporterFixtureOneFailureAndOneSuccessC2Ev:
 4423              	.LFB1431:
 4424              		.loc 3 135 0
 4425              		.cfi_startproc
 4426 21b0 55       		pushq	%rbp
 4427              		.cfi_def_cfa_offset 16
 4428              		.cfi_offset 6, -16
 4429 21b1 4889E5   		movq	%rsp, %rbp
 4430              		.cfi_def_cfa_register 6
 4431 21b4 53       		pushq	%rbx
 4432 21b5 4883EC18 		subq	$24, %rsp
 4433              		.cfi_offset 3, -24
 4434 21b9 48897DE8 		movq	%rdi, -24(%rbp)
 4435              	.LBB75:
 4436              		.loc 3 135 0
 4437 21bd 488B5DE8 		movq	-24(%rbp), %rbx
 4438 21c1 E8000000 		call	_ZN13UnitTestSuite12GetSuiteNameEv
 4438      00
 4439 21c6 41B88700 		movl	$135, %r8d
 4439      0000
 4440 21cc 488D0D00 		leaq	.LC1(%rip), %rcx
 4440      000000
 4441 21d3 4889C2   		movq	%rax, %rdx
 4442 21d6 488D3500 		leaq	.LC33(%rip), %rsi
 4442      000000
 4443 21dd 4889DF   		movq	%rbx, %rdi
 4444 21e0 E8000000 		call	_ZN8UnitTest4TestC2EPKcS2_S2_i@PLT
 4444      00
 4445 21e5 488D1500 		leaq	16+_ZTVN12_GLOBAL__N_149TestXmlTestReporterFixtureOneFailureAndOneSuccessE(%rip), %rdx
 4445      000000
 4446 21ec 488B45E8 		movq	-24(%rbp), %rax
 4447 21f0 488910   		movq	%rdx, (%rax)
 4448              	.LBE75:
 4449 21f3 90       		nop
 4450 21f4 4883C418 		addq	$24, %rsp
 4451 21f8 5B       		popq	%rbx
 4452 21f9 5D       		popq	%rbp
 4453              		.cfi_def_cfa 7, 8
 4454 21fa C3       		ret
 4455              		.cfi_endproc
 4456              	.LFE1431:
 4458              		.set	_ZN12_GLOBAL__N_149TestXmlTestReporterFixtureOneFailureAndOneSuccessC1Ev,_ZN12_GLOBAL__N_149T
 4459              		.local	_ZN12_GLOBAL__N_157testXmlTestReporterFixtureOneFailureAndOneSuccessInstanceE
 4460              		.comm	_ZN12_GLOBAL__N_157testXmlTestReporterFixtureOneFailureAndOneSuccessInstanceE,56,32
 4461              		.local	_ZN12_GLOBAL__N_150adderXmlTestReporterFixtureOneFailureAndOneSuccessE
 4462              		.comm	_ZN12_GLOBAL__N_150adderXmlTestReporterFixtureOneFailureAndOneSuccessE,1,1
 4463 21fb 90       		.align 2
 4465              	_ZN12_GLOBAL__N_151XmlTestReporterFixtureOneFailureAndOneSuccessHelperD2Ev:
 4466              	.LFB1435:
 4467              		.loc 3 135 0
 4468              		.cfi_startproc
 4469 21fc 55       		pushq	%rbp
 4470              		.cfi_def_cfa_offset 16
 4471              		.cfi_offset 6, -16
 4472 21fd 4889E5   		movq	%rsp, %rbp
 4473              		.cfi_def_cfa_register 6
 4474 2200 4883EC10 		subq	$16, %rsp
 4475 2204 48897DF8 		movq	%rdi, -8(%rbp)
 4476              	.LBB76:
 4477              		.loc 3 135 0
 4478 2208 488B45F8 		movq	-8(%rbp), %rax
 4479 220c 4889C7   		movq	%rax, %rdi
 4480 220f E848DEFF 		call	_ZN12_GLOBAL__N_122XmlTestReporterFixtureD2Ev
 4480      FF
 4481              	.LBE76:
 4482 2214 90       		nop
 4483 2215 C9       		leave
 4484              		.cfi_def_cfa 7, 8
 4485 2216 C3       		ret
 4486              		.cfi_endproc
 4487              	.LFE1435:
 4489              		.set	_ZN12_GLOBAL__N_151XmlTestReporterFixtureOneFailureAndOneSuccessHelperD1Ev,_ZN12_GLOBAL__N_15
 4490 2217 90       		.align 2
 4492              	_ZNK12_GLOBAL__N_149TestXmlTestReporterFixtureOneFailureAndOneSuccess7RunImplEv:
 4493              	.LFB1433:
 4494              		.loc 3 135 0
 4495              		.cfi_startproc
 4496              		.cfi_personality 0x9b,DW.ref.__gxx_personality_v0
 4497              		.cfi_lsda 0x1b,.LLSDA1433
 4498 2218 55       		pushq	%rbp
 4499              		.cfi_def_cfa_offset 16
 4500              		.cfi_offset 6, -16
 4501 2219 4889E5   		movq	%rsp, %rbp
 4502              		.cfi_def_cfa_register 6
 4503 221c 4155     		pushq	%r13
 4504 221e 4154     		pushq	%r12
 4505 2220 53       		pushq	%rbx
 4506 2221 4881EC08 		subq	$520, %rsp
 4506      020000
 4507              		.cfi_offset 13, -24
 4508              		.cfi_offset 12, -32
 4509              		.cfi_offset 3, -40
 4510 2228 4889BDE8 		movq	%rdi, -536(%rbp)
 4510      FDFFFF
 4511              		.loc 3 135 0
 4512 222f 64488B04 		movq	%fs:40, %rax
 4512      25280000 
 4512      00
 4513 2238 488945D8 		movq	%rax, -40(%rbp)
 4514 223c 31C0     		xorl	%eax, %eax
 4515 223e C685FFFD 		movb	$0, -513(%rbp)
 4515      FFFF00
 4516              	.LBB77:
 4517 2245 488B85E8 		movq	-536(%rbp), %rax
 4517      FDFFFF
 4518 224c 488D5008 		leaq	8(%rax), %rdx
 4519 2250 488D8530 		leaq	-464(%rbp), %rax
 4519      FEFFFF
 4520 2257 4889D6   		movq	%rdx, %rsi
 4521 225a 4889C7   		movq	%rax, %rdi
 4522              	.LEHB125:
 4523 225d E820FFFF 		call	_ZN12_GLOBAL__N_151XmlTestReporterFixtureOneFailureAndOneSuccessHelperC1ERKN8UnitTest11TestDe
 4523      FF
 4524              	.LEHE125:
 4525              		.loc 3 135 0 is_stmt 0 discriminator 1
 4526 2262 C685FFFD 		movb	$1, -513(%rbp)
 4526      FFFF01
 4527 2269 488B85E8 		movq	-536(%rbp), %rax
 4527      FDFFFF
 4528 2270 488D5008 		leaq	8(%rax), %rdx
 4529 2274 488D8530 		leaq	-464(%rbp), %rax
 4529      FEFFFF
 4530 227b 4889D6   		movq	%rdx, %rsi
 4531 227e 4889C7   		movq	%rax, %rdi
 4532              	.LEHB126:
 4533 2281 E8731B00 		call	_ZN8UnitTest11ExecuteTestIN12_GLOBAL__N_151XmlTestReporterFixtureOneFailureAndOneSuccessHelpe
 4533      00
 4534              	.LEHE126:
 4535              		.loc 3 135 0 discriminator 3
 4536 2286 488D8530 		leaq	-464(%rbp), %rax
 4536      FEFFFF
 4537 228d 4889C7   		movq	%rax, %rdi
 4538              	.LEHB127:
 4539 2290 E867FFFF 		call	_ZN12_GLOBAL__N_151XmlTestReporterFixtureOneFailureAndOneSuccessHelperD1Ev
 4539      FF
 4540              	.LEHE127:
 4541              	.LBE77:
 4542              		.loc 3 135 0
 4543 2295 E9690200 		jmp	.L227
 4543      00
 4544              	.L242:
 4545 229a 4989C4   		movq	%rax, %r12
 4546 229d 4889D3   		movq	%rdx, %rbx
 4547              	.LBB78:
 4548 22a0 488D8530 		leaq	-464(%rbp), %rax
 4548      FEFFFF
 4549 22a7 4889C7   		movq	%rax, %rdi
 4550 22aa E84DFFFF 		call	_ZN12_GLOBAL__N_151XmlTestReporterFixtureOneFailureAndOneSuccessHelperD1Ev
 4550      FF
 4551 22af 4C89E0   		movq	%r12, %rax
 4552 22b2 4889DA   		movq	%rbx, %rdx
 4553 22b5 EB00     		jmp	.L229
 4554              	.L241:
 4555              	.L229:
 4556 22b7 4883FA01 		cmpq	$1, %rdx
 4557 22bb 740F     		je	.L231
 4558 22bd 4883FA02 		cmpq	$2, %rdx
 4559 22c1 0F84A700 		je	.L232
 4559      0000
 4560 22c7 E94A0100 		jmp	.L247
 4560      00
 4561              	.L231:
 4562              	.LBE78:
 4563              	.LBB79:
 4564 22cc 4889C7   		movq	%rax, %rdi
 4565 22cf E8000000 		call	__cxa_begin_catch@PLT
 4565      00
 4566 22d4 48898508 		movq	%rax, -504(%rbp)
 4566      FEFFFF
 4567              	.LEHB128:
 4568 22db E8000000 		call	_ZN8UnitTest11CurrentTest7ResultsEv@PLT
 4568      00
 4569 22e0 488B18   		movq	(%rax), %rbx
 4570 22e3 488B8508 		movq	-504(%rbp), %rax
 4570      FEFFFF
 4571 22ea 488B00   		movq	(%rax), %rax
 4572 22ed 4883C010 		addq	$16, %rax
 4573 22f1 488B00   		movq	(%rax), %rax
 4574 22f4 488B9508 		movq	-504(%rbp), %rdx
 4574      FEFFFF
 4575 22fb 4889D7   		movq	%rdx, %rdi
 4576 22fe FFD0     		call	*%rax
 4577              	.LVL12:
 4578 2300 4989C4   		movq	%rax, %r12
 4579 2303 488B8508 		movq	-504(%rbp), %rax
 4579      FEFFFF
 4580 230a 4889C7   		movq	%rax, %rdi
 4581 230d E8000000 		call	_ZNK8UnitTest15AssertException10LineNumberEv@PLT
 4581      00
 4582              		.loc 3 135 0 discriminator 5
 4583 2312 4189C5   		movl	%eax, %r13d
 4584 2315 488B8508 		movq	-504(%rbp), %rax
 4584      FEFFFF
 4585 231c 4889C7   		movq	%rax, %rdi
 4586 231f E8000000 		call	_ZNK8UnitTest15AssertException8FilenameEv@PLT
 4586      00
 4587              		.loc 3 135 0 discriminator 7
 4588 2324 4889C1   		movq	%rax, %rcx
 4589 2327 488B85E8 		movq	-536(%rbp), %rax
 4589      FDFFFF
 4590 232e 488B5008 		movq	8(%rax), %rdx
 4591 2332 488B85E8 		movq	-536(%rbp), %rax
 4591      FDFFFF
 4592 2339 488B7010 		movq	16(%rax), %rsi
 4593 233d 488D8510 		leaq	-496(%rbp), %rax
 4593      FEFFFF
 4594 2344 4589E8   		movl	%r13d, %r8d
 4595 2347 4889C7   		movq	%rax, %rdi
 4596 234a E8000000 		call	_ZN8UnitTest11TestDetailsC1EPKcS2_S2_i@PLT
 4596      00
 4597              		.loc 3 135 0 discriminator 11
 4598 234f 488D8510 		leaq	-496(%rbp), %rax
 4598      FEFFFF
 4599 2356 4C89E2   		movq	%r12, %rdx
 4600 2359 4889C6   		movq	%rax, %rsi
 4601 235c 4889DF   		movq	%rbx, %rdi
 4602 235f E8000000 		call	_ZN8UnitTest11TestResults13OnTestFailureERKNS_11TestDetailsEPKc@PLT
 4602      00
 4603              	.LEHE128:
 4604              		.loc 3 135 0 discriminator 13
 4605 2364 E8000000 		call	__cxa_end_catch@PLT
 4605      00
 4606              	.LBE79:
 4607 2369 E9950100 		jmp	.L227
 4607      00
 4608              	.L232:
 4609              	.LBB80:
 4610              		.loc 3 135 0
 4611 236e 4889C7   		movq	%rax, %rdi
 4612 2371 E8000000 		call	__cxa_begin_catch@PLT
 4612      00
 4613 2376 48898500 		movq	%rax, -512(%rbp)
 4613      FEFFFF
 4614              	.LBB81:
 4615 237d 488D8530 		leaq	-464(%rbp), %rax
 4615      FEFFFF
 4616 2384 4889C7   		movq	%rax, %rdi
 4617              	.LEHB129:
 4618 2387 E8000000 		call	_ZN8UnitTest15MemoryOutStreamC1Ev
 4618      00
 4619              	.LEHE129:
 4620              		.loc 3 135 0 discriminator 15
 4621 238c 488D8530 		leaq	-464(%rbp), %rax
 4621      FEFFFF
 4622 2393 488D3500 		leaq	.LC3(%rip), %rsi
 4622      000000
 4623 239a 4889C7   		movq	%rax, %rdi
 4624              	.LEHB130:
 4625 239d E8000000 		call	_ZStlsISt11char_traitsIcEERSt13basic_ostreamIcT_ES5_PKc@PLT
 4625      00
 4626 23a2 4889C3   		movq	%rax, %rbx
 4627 23a5 488B8500 		movq	-512(%rbp), %rax
 4627      FEFFFF
 4628 23ac 488B00   		movq	(%rax), %rax
 4629 23af 4883C010 		addq	$16, %rax
 4630 23b3 488B00   		movq	(%rax), %rax
 4631 23b6 488B9500 		movq	-512(%rbp), %rdx
 4631      FEFFFF
 4632 23bd 4889D7   		movq	%rdx, %rdi
 4633 23c0 FFD0     		call	*%rax
 4634              	.LVL13:
 4635 23c2 4889C6   		movq	%rax, %rsi
 4636 23c5 4889DF   		movq	%rbx, %rdi
 4637 23c8 E8000000 		call	_ZStlsISt11char_traitsIcEERSt13basic_ostreamIcT_ES5_PKc@PLT
 4637      00
 4638              		.loc 3 135 0 discriminator 19
 4639 23cd E8000000 		call	_ZN8UnitTest11CurrentTest7ResultsEv@PLT
 4639      00
 4640 23d2 488B18   		movq	(%rax), %rbx
 4641 23d5 488D8530 		leaq	-464(%rbp), %rax
 4641      FEFFFF
 4642 23dc 4889C7   		movq	%rax, %rdi
 4643 23df E8000000 		call	_ZNK8UnitTest15MemoryOutStream7GetTextEv@PLT
 4643      00
 4644              		.loc 3 135 0 discriminator 21
 4645 23e4 4889C2   		movq	%rax, %rdx
 4646 23e7 488B85E8 		movq	-536(%rbp), %rax
 4646      FDFFFF
 4647 23ee 4883C008 		addq	$8, %rax
 4648 23f2 4889C6   		movq	%rax, %rsi
 4649 23f5 4889DF   		movq	%rbx, %rdi
 4650 23f8 E8000000 		call	_ZN8UnitTest11TestResults13OnTestFailureERKNS_11TestDetailsEPKc@PLT
 4650      00
 4651              	.LEHE130:
 4652              		.loc 3 135 0 discriminator 25
 4653 23fd 488D8530 		leaq	-464(%rbp), %rax
 4653      FEFFFF
 4654 2404 4889C7   		movq	%rax, %rdi
 4655              	.LEHB131:
 4656 2407 E8000000 		call	_ZN8UnitTest15MemoryOutStreamD1Ev
 4656      00
 4657              	.LEHE131:
 4658              	.LBE81:
 4659              		.loc 3 135 0 discriminator 26
 4660 240c E8000000 		call	__cxa_end_catch@PLT
 4660      00
 4661              	.LBE80:
 4662 2411 E9ED0000 		jmp	.L227
 4662      00
 4663              	.L247:
 4664              		.loc 3 135 0
 4665 2416 4889C7   		movq	%rax, %rdi
 4666 2419 E8000000 		call	__cxa_begin_catch@PLT
 4666      00
 4667 241e 80BDFFFD 		cmpb	$0, -513(%rbp)
 4667      FFFF00
 4668 2425 7445     		je	.L234
 4669              	.LEHB132:
 4670              		.loc 3 135 0 discriminator 28
 4671 2427 E8000000 		call	_ZN8UnitTest11CurrentTest7ResultsEv@PLT
 4671      00
 4672 242c 488B18   		movq	(%rax), %rbx
 4673 242f 488B85E8 		movq	-536(%rbp), %rax
 4673      FDFFFF
 4674 2436 488D4808 		leaq	8(%rax), %rcx
 4675 243a 488D8510 		leaq	-496(%rbp), %rax
 4675      FEFFFF
 4676 2441 BA870000 		movl	$135, %edx
 4676      00
 4677 2446 4889CE   		movq	%rcx, %rsi
 4678 2449 4889C7   		movq	%rax, %rdi
 4679 244c E8000000 		call	_ZN8UnitTest11TestDetailsC1ERKS0_i@PLT
 4679      00
 4680              		.loc 3 135 0 discriminator 33
 4681 2451 488D8510 		leaq	-496(%rbp), %rax
 4681      FEFFFF
 4682 2458 488D1500 		leaq	.LC4(%rip), %rdx
 4682      000000
 4683 245f 4889C6   		movq	%rax, %rsi
 4684 2462 4889DF   		movq	%rbx, %rdi
 4685 2465 E8000000 		call	_ZN8UnitTest11TestResults13OnTestFailureERKNS_11TestDetailsEPKc@PLT
 4685      00
 4686 246a EB43     		jmp	.L235
 4687              	.L234:
 4688              		.loc 3 135 0 discriminator 29
 4689 246c E8000000 		call	_ZN8UnitTest11CurrentTest7ResultsEv@PLT
 4689      00
 4690 2471 488B18   		movq	(%rax), %rbx
 4691 2474 488B85E8 		movq	-536(%rbp), %rax
 4691      FDFFFF
 4692 247b 488D4808 		leaq	8(%rax), %rcx
 4693 247f 488D8510 		leaq	-496(%rbp), %rax
 4693      FEFFFF
 4694 2486 BA870000 		movl	$135, %edx
 4694      00
 4695 248b 4889CE   		movq	%rcx, %rsi
 4696 248e 4889C7   		movq	%rax, %rdi
 4697 2491 E8000000 		call	_ZN8UnitTest11TestDetailsC1ERKS0_i@PLT
 4697      00
 4698              		.loc 3 135 0 discriminator 40
 4699 2496 488D8510 		leaq	-496(%rbp), %rax
 4699      FEFFFF
 4700 249d 488D1500 		leaq	.LC5(%rip), %rdx
 4700      000000
 4701 24a4 4889C6   		movq	%rax, %rsi
 4702 24a7 4889DF   		movq	%rbx, %rdi
 4703 24aa E8000000 		call	_ZN8UnitTest11TestResults13OnTestFailureERKNS_11TestDetailsEPKc@PLT
 4703      00
 4704              	.LEHE132:
 4705              	.L235:
 4706              	.LEHB133:
 4707              		.loc 3 135 0 discriminator 43
 4708 24af E8000000 		call	__cxa_end_catch@PLT
 4708      00
 4709 24b4 EB4D     		jmp	.L227
 4710              	.L243:
 4711 24b6 4889C3   		movq	%rax, %rbx
 4712              	.LBB83:
 4713              		.loc 3 135 0
 4714 24b9 E8000000 		call	__cxa_end_catch@PLT
 4714      00
 4715 24be 4889D8   		movq	%rbx, %rax
 4716 24c1 4889C7   		movq	%rax, %rdi
 4717 24c4 E8000000 		call	_Unwind_Resume@PLT
 4717      00
 4718              	.LEHE133:
 4719              	.L245:
 4720 24c9 4889C3   		movq	%rax, %rbx
 4721              	.LBE83:
 4722              	.LBB84:
 4723              	.LBB82:
 4724 24cc 488D8530 		leaq	-464(%rbp), %rax
 4724      FEFFFF
 4725 24d3 4889C7   		movq	%rax, %rdi
 4726 24d6 E8000000 		call	_ZN8UnitTest15MemoryOutStreamD1Ev
 4726      00
 4727 24db EB03     		jmp	.L238
 4728              	.L244:
 4729 24dd 4889C3   		movq	%rax, %rbx
 4730              	.L238:
 4731              	.LBE82:
 4732 24e0 E8000000 		call	__cxa_end_catch@PLT
 4732      00
 4733 24e5 4889D8   		movq	%rbx, %rax
 4734 24e8 4889C7   		movq	%rax, %rdi
 4735              	.LEHB134:
 4736 24eb E8000000 		call	_Unwind_Resume@PLT
 4736      00
 4737              	.LEHE134:
 4738              	.L246:
 4739 24f0 4889C3   		movq	%rax, %rbx
 4740              	.LBE84:
 4741 24f3 E8000000 		call	__cxa_end_catch@PLT
 4741      00
 4742 24f8 4889D8   		movq	%rbx, %rax
 4743 24fb 4889C7   		movq	%rax, %rdi
 4744              	.LEHB135:
 4745 24fe E8000000 		call	_Unwind_Resume@PLT
 4745      00
 4746              	.LEHE135:
 4747              	.L227:
 4748 2503 488B45D8 		movq	-40(%rbp), %rax
 4749 2507 64483304 		xorq	%fs:40, %rax
 4749      25280000 
 4749      00
 4750 2510 7405     		je	.L240
 4751 2512 E8000000 		call	__stack_chk_fail@PLT
 4751      00
 4752              	.L240:
 4753 2517 4881C408 		addq	$520, %rsp
 4753      020000
 4754 251e 5B       		popq	%rbx
 4755 251f 415C     		popq	%r12
 4756 2521 415D     		popq	%r13
 4757 2523 5D       		popq	%rbp
 4758              		.cfi_def_cfa 7, 8
 4759 2524 C3       		ret
 4760              		.cfi_endproc
 4761              	.LFE1433:
 4762              		.section	.gcc_except_table
 4763              		.align 4
 4764              	.LLSDA1433:
 4765 0390 FF       		.byte	0xff
 4766 0391 9B       		.byte	0x9b
 4767 0392 55       		.uleb128 .LLSDATT1433-.LLSDATTD1433
 4768              	.LLSDATTD1433:
 4769 0393 01       		.byte	0x1
 4770 0394 3E       		.uleb128 .LLSDACSE1433-.LLSDACSB1433
 4771              	.LLSDACSB1433:
 4772 0395 45       		.uleb128 .LEHB125-.LFB1433
 4773 0396 05       		.uleb128 .LEHE125-.LEHB125
 4774 0397 9F01     		.uleb128 .L241-.LFB1433
 4775 0399 05       		.uleb128 0x5
 4776 039a 69       		.uleb128 .LEHB126-.LFB1433
 4777 039b 05       		.uleb128 .LEHE126-.LEHB126
 4778 039c 8201     		.uleb128 .L242-.LFB1433
 4779 039e 07       		.uleb128 0x7
 4780 039f 78       		.uleb128 .LEHB127-.LFB1433
 4781 03a0 05       		.uleb128 .LEHE127-.LEHB127
 4782 03a1 9F01     		.uleb128 .L241-.LFB1433
 4783 03a3 05       		.uleb128 0x5
 4784 03a4 C301     		.uleb128 .LEHB128-.LFB1433
 4785 03a6 8901     		.uleb128 .LEHE128-.LEHB128
 4786 03a8 9E05     		.uleb128 .L243-.LFB1433
 4787 03aa 00       		.uleb128 0
 4788 03ab EF02     		.uleb128 .LEHB129-.LFB1433
 4789 03ad 05       		.uleb128 .LEHE129-.LEHB129
 4790 03ae C505     		.uleb128 .L244-.LFB1433
 4791 03b0 00       		.uleb128 0
 4792 03b1 8503     		.uleb128 .LEHB130-.LFB1433
 4793 03b3 60       		.uleb128 .LEHE130-.LEHB130
 4794 03b4 B105     		.uleb128 .L245-.LFB1433
 4795 03b6 00       		.uleb128 0
 4796 03b7 EF03     		.uleb128 .LEHB131-.LFB1433
 4797 03b9 05       		.uleb128 .LEHE131-.LEHB131
 4798 03ba C505     		.uleb128 .L244-.LFB1433
 4799 03bc 00       		.uleb128 0
 4800 03bd 8F04     		.uleb128 .LEHB132-.LFB1433
 4801 03bf 8801     		.uleb128 .LEHE132-.LEHB132
 4802 03c1 D805     		.uleb128 .L246-.LFB1433
 4803 03c3 00       		.uleb128 0
 4804 03c4 9705     		.uleb128 .LEHB133-.LFB1433
 4805 03c6 1A       		.uleb128 .LEHE133-.LEHB133
 4806 03c7 00       		.uleb128 0
 4807 03c8 00       		.uleb128 0
 4808 03c9 D305     		.uleb128 .LEHB134-.LFB1433
 4809 03cb 05       		.uleb128 .LEHE134-.LEHB134
 4810 03cc 00       		.uleb128 0
 4811 03cd 00       		.uleb128 0
 4812 03ce E605     		.uleb128 .LEHB135-.LFB1433
 4813 03d0 05       		.uleb128 .LEHE135-.LEHB135
 4814 03d1 00       		.uleb128 0
 4815 03d2 00       		.uleb128 0
 4816              	.LLSDACSE1433:
 4817 03d3 03       		.byte	0x3
 4818 03d4 00       		.byte	0
 4819 03d5 02       		.byte	0x2
 4820 03d6 7D       		.byte	0x7d
 4821 03d7 01       		.byte	0x1
 4822 03d8 7D       		.byte	0x7d
 4823 03d9 00       		.byte	0
 4824 03da 7D       		.byte	0x7d
 4825 03db 00       		.align 4
 4826 03dc 00000000 		.long	0
 4827              	
 4828 03e0 00000000 		.long	DW.ref._ZTISt9exception-.
 4829 03e4 00000000 		.long	DW.ref._ZTIN8UnitTest15AssertExceptionE-.
 4830              	.LLSDATT1433:
 4831              		.text
 4833              		.section	.rodata
 4834              	.LC34:
 4835 06a4 6661696C 		.string	"fail.h"
 4835      2E6800
 4836              	.LC35:
 4837 06ab 4661696C 		.string	"FailedTest"
 4837      65645465 
 4837      737400
 4838              	.LC36:
 4839 06b6 65787065 		.string	"expected 1 but was 2"
 4839      63746564 
 4839      20312062 
 4839      75742077 
 4839      61732032 
 4840              	.LC37:
 4841 06cb 53756363 		.string	"SucceededTest"
 4841      65656465 
 4841      64546573 
 4841      7400
 4842 06d9 00000000 		.align 8
 4842      000000
 4843              	.LC39:
 4844 06e0 3C3F786D 		.ascii	"<?xml versio"
 4844      6C207665 
 4844      7273696F 
 4845 06ec 6E3D2231 		.string	"n=\"1.0\"?><unittest-results tests=\"2\" failedtests=\"1\" failures=\"1\" time=\"1.1\"><t
 4845      2E30223F 
 4845      3E3C756E 
 4845      69747465 
 4845      73742D72 
 4846              		.text
 4847 2525 90       		.align 2
 4849              	_ZN12_GLOBAL__N_151XmlTestReporterFixtureOneFailureAndOneSuccessHelper7RunImplEv:
 4850              	.LFB1437:
 136:TestXmlTestReporter.cpp **** {
 4851              		.loc 3 136 0 is_stmt 1
 4852              		.cfi_startproc
 4853              		.cfi_personality 0x9b,DW.ref.__gxx_personality_v0
 4854              		.cfi_lsda 0x1b,.LLSDA1437
 4855 2526 55       		pushq	%rbp
 4856              		.cfi_def_cfa_offset 16
 4857              		.cfi_offset 6, -16
 4858 2527 4889E5   		movq	%rsp, %rbp
 4859              		.cfi_def_cfa_register 6
 4860 252a 53       		pushq	%rbx
 4861 252b 4881ECB8 		subq	$184, %rsp
 4861      000000
 4862              		.cfi_offset 3, -24
 4863 2532 4889BD48 		movq	%rdi, -184(%rbp)
 4863      FFFFFF
 4864              		.loc 3 136 0
 4865 2539 64488B04 		movq	%fs:40, %rax
 4865      25280000 
 4865      00
 4866 2542 488945E8 		movq	%rax, -24(%rbp)
 4867 2546 31C0     		xorl	%eax, %eax
 137:TestXmlTestReporter.cpp ****     TestDetails const failedDetails("FailedTest", "suite", "fail.h", 1);
 4868              		.loc 3 137 0
 4869 2548 488D8560 		leaq	-160(%rbp), %rax
 4869      FFFFFF
 4870 254f 41B80100 		movl	$1, %r8d
 4870      0000
 4871 2555 488D0D00 		leaq	.LC34(%rip), %rcx
 4871      000000
 4872 255c 488D1500 		leaq	.LC7(%rip), %rdx
 4872      000000
 4873 2563 488D3500 		leaq	.LC35(%rip), %rsi
 4873      000000
 4874 256a 4889C7   		movq	%rax, %rdi
 4875              	.LEHB136:
 4876 256d E8000000 		call	_ZN8UnitTest11TestDetailsC1EPKcS2_S2_i@PLT
 4876      00
 138:TestXmlTestReporter.cpp ****     reporter.ReportTestStart(failedDetails);
 4877              		.loc 3 138 0
 4878 2572 488B8548 		movq	-184(%rbp), %rax
 4878      FFFFFF
 4879 2579 488D9078 		leaq	376(%rax), %rdx
 4879      010000
 4880 2580 488D8560 		leaq	-160(%rbp), %rax
 4880      FFFFFF
 4881 2587 4889C6   		movq	%rax, %rsi
 4882 258a 4889D7   		movq	%rdx, %rdi
 4883 258d E8000000 		call	_ZN8UnitTest20DeferredTestReporter15ReportTestStartERKNS_11TestDetailsE@PLT
 4883      00
 139:TestXmlTestReporter.cpp ****     reporter.ReportFailure(failedDetails, "expected 1 but was 2");
 4884              		.loc 3 139 0
 4885 2592 488B8548 		movq	-184(%rbp), %rax
 4885      FFFFFF
 4886 2599 488D8878 		leaq	376(%rax), %rcx
 4886      010000
 4887 25a0 488D8560 		leaq	-160(%rbp), %rax
 4887      FFFFFF
 4888 25a7 488D1500 		leaq	.LC36(%rip), %rdx
 4888      000000
 4889 25ae 4889C6   		movq	%rax, %rsi
 4890 25b1 4889CF   		movq	%rcx, %rdi
 4891 25b4 E8000000 		call	_ZN8UnitTest20DeferredTestReporter13ReportFailureERKNS_11TestDetailsEPKc@PLT
 4891      00
 140:TestXmlTestReporter.cpp ****     reporter.ReportTestFinish(failedDetails, 0.1f);
 4892              		.loc 3 140 0
 4893 25b9 488B8548 		movq	-184(%rbp), %rax
 4893      FFFFFF
 4894 25c0 488D9078 		leaq	376(%rax), %rdx
 4894      010000
 4895 25c7 488D8560 		leaq	-160(%rbp), %rax
 4895      FFFFFF
 4896 25ce F30F1005 		movss	.LC10(%rip), %xmm0
 4896      00000000 
 4897 25d6 4889C6   		movq	%rax, %rsi
 4898 25d9 4889D7   		movq	%rdx, %rdi
 4899 25dc E8000000 		call	_ZN8UnitTest20DeferredTestReporter16ReportTestFinishERKNS_11TestDetailsEf@PLT
 4899      00
 141:TestXmlTestReporter.cpp **** 
 142:TestXmlTestReporter.cpp ****     TestDetails const succeededDetails("SucceededTest", "suite", "", 0);
 4900              		.loc 3 142 0
 4901 25e1 488D4580 		leaq	-128(%rbp), %rax
 4902 25e5 41B80000 		movl	$0, %r8d
 4902      0000
 4903 25eb 488D0D00 		leaq	.LC14(%rip), %rcx
 4903      000000
 4904 25f2 488D1500 		leaq	.LC7(%rip), %rdx
 4904      000000
 4905 25f9 488D3500 		leaq	.LC37(%rip), %rsi
 4905      000000
 4906 2600 4889C7   		movq	%rax, %rdi
 4907 2603 E8000000 		call	_ZN8UnitTest11TestDetailsC1EPKcS2_S2_i@PLT
 4907      00
 143:TestXmlTestReporter.cpp ****     reporter.ReportTestStart(succeededDetails);
 4908              		.loc 3 143 0
 4909 2608 488B8548 		movq	-184(%rbp), %rax
 4909      FFFFFF
 4910 260f 488D9078 		leaq	376(%rax), %rdx
 4910      010000
 4911 2616 488D4580 		leaq	-128(%rbp), %rax
 4912 261a 4889C6   		movq	%rax, %rsi
 4913 261d 4889D7   		movq	%rdx, %rdi
 4914 2620 E8000000 		call	_ZN8UnitTest20DeferredTestReporter15ReportTestStartERKNS_11TestDetailsE@PLT
 4914      00
 144:TestXmlTestReporter.cpp ****     reporter.ReportTestFinish(succeededDetails, 1.0f);
 4915              		.loc 3 144 0
 4916 2625 488B8548 		movq	-184(%rbp), %rax
 4916      FFFFFF
 4917 262c 488D9078 		leaq	376(%rax), %rdx
 4917      010000
 4918 2633 488D4580 		leaq	-128(%rbp), %rax
 4919 2637 F30F1005 		movss	.LC16(%rip), %xmm0
 4919      00000000 
 4920 263f 4889C6   		movq	%rax, %rsi
 4921 2642 4889D7   		movq	%rdx, %rdi
 4922 2645 E8000000 		call	_ZN8UnitTest20DeferredTestReporter16ReportTestFinishERKNS_11TestDetailsEf@PLT
 4922      00
 145:TestXmlTestReporter.cpp ****     reporter.ReportSummary(2, 1, 1, 1.1f);
 4923              		.loc 3 145 0
 4924 264a 488B8548 		movq	-184(%rbp), %rax
 4924      FFFFFF
 4925 2651 48057801 		addq	$376, %rax
 4925      0000
 4926 2657 F30F1005 		movss	.LC38(%rip), %xmm0
 4926      00000000 
 4927 265f B9010000 		movl	$1, %ecx
 4927      00
 4928 2664 BA010000 		movl	$1, %edx
 4928      00
 4929 2669 BE020000 		movl	$2, %esi
 4929      00
 4930 266e 4889C7   		movq	%rax, %rdi
 4931 2671 E8000000 		call	_ZN8UnitTest15XmlTestReporter13ReportSummaryEiiif@PLT
 4931      00
 4932              	.LEHE136:
 146:TestXmlTestReporter.cpp **** 
 147:TestXmlTestReporter.cpp ****     char const* expected =
 4933              		.loc 3 147 0
 4934 2676 488D0500 		leaq	.LC39(%rip), %rax
 4934      000000
 4935 267d 48898558 		movq	%rax, -168(%rbp)
 4935      FFFFFF
 4936              	.LEHB137:
 148:TestXmlTestReporter.cpp ****         "<?xml version=\"1.0\"?>"
 149:TestXmlTestReporter.cpp ****         "<unittest-results tests=\"2\" failedtests=\"1\" failures=\"1\" time=\"1.1\">"
 150:TestXmlTestReporter.cpp ****         "<test suite=\"suite\" name=\"FailedTest\" time=\"0.1\">"
 151:TestXmlTestReporter.cpp ****         "<failure message=\"fail.h(1) : expected 1 but was 2\"/>"
 152:TestXmlTestReporter.cpp ****         "</test>"
 153:TestXmlTestReporter.cpp ****         "<test suite=\"suite\" name=\"SucceededTest\" time=\"1\"/>"
 154:TestXmlTestReporter.cpp ****         "</unittest-results>";
 155:TestXmlTestReporter.cpp **** 
 156:TestXmlTestReporter.cpp ****     CHECK_EQUAL(expected, output.str());
 4937              		.loc 3 156 0
 4938 2684 E8000000 		call	_ZN8UnitTest11CurrentTest7DetailsEv@PLT
 4938      00
 4939 2689 488B08   		movq	(%rax), %rcx
 4940 268c 488D45A0 		leaq	-96(%rbp), %rax
 4941 2690 BA9C0000 		movl	$156, %edx
 4941      00
 4942 2695 4889CE   		movq	%rcx, %rsi
 4943 2698 4889C7   		movq	%rax, %rdi
 4944 269b E8000000 		call	_ZN8UnitTest11TestDetailsC1ERKS0_i@PLT
 4944      00
 4945              		.loc 3 156 0 is_stmt 0 discriminator 2
 4946 26a0 488B9548 		movq	-184(%rbp), %rdx
 4946      FFFFFF
 4947 26a7 488D45C0 		leaq	-64(%rbp), %rax
 4948 26ab 4889D6   		movq	%rdx, %rsi
 4949 26ae 4889C7   		movq	%rax, %rdi
 4950 26b1 E8000000 		call	_ZNKSt7__cxx1119basic_ostringstreamIcSt11char_traitsIcESaIcEE3strEv@PLT
 4950      00
 4951              	.LEHE137:
 4952              	.LEHB138:
 4953              		.loc 3 156 0 discriminator 4
 4954 26b6 E8000000 		call	_ZN8UnitTest11CurrentTest7ResultsEv@PLT
 4954      00
 4955 26bb 488B00   		movq	(%rax), %rax
 4956 26be 488D4DA0 		leaq	-96(%rbp), %rcx
 4957 26c2 488D55C0 		leaq	-64(%rbp), %rdx
 4958 26c6 488DB558 		leaq	-168(%rbp), %rsi
 4958      FFFFFF
 4959 26cd 4889C7   		movq	%rax, %rdi
 4960 26d0 E8000000 		call	_ZN8UnitTest10CheckEqualIPKcNSt7__cxx1112basic_stringIcSt11char_traitsIcESaIcEEEEEvRNS_11Test
 4960      00
 4961              	.LEHE138:
 4962              		.loc 3 156 0 discriminator 8
 4963 26d5 488D45C0 		leaq	-64(%rbp), %rax
 4964 26d9 4889C7   		movq	%rax, %rdi
 4965              	.LEHB139:
 4966 26dc E8000000 		call	_ZNSt7__cxx1112basic_stringIcSt11char_traitsIcESaIcEED1Ev@PLT
 4966      00
 4967              	.LEHE139:
 157:TestXmlTestReporter.cpp **** }
 4968              		.loc 3 157 0 is_stmt 1
 4969 26e1 EB70     		jmp	.L248
 4970              	.L255:
 4971 26e3 4889C3   		movq	%rax, %rbx
 156:TestXmlTestReporter.cpp **** }
 4972              		.loc 3 156 0
 4973 26e6 488D45C0 		leaq	-64(%rbp), %rax
 4974 26ea 4889C7   		movq	%rax, %rdi
 4975 26ed E8000000 		call	_ZNSt7__cxx1112basic_stringIcSt11char_traitsIcESaIcEED1Ev@PLT
 4975      00
 4976 26f2 4889D8   		movq	%rbx, %rax
 4977 26f5 EB00     		jmp	.L250
 4978              	.L254:
 4979              	.L250:
 4980 26f7 4889C7   		movq	%rax, %rdi
 4981 26fa E8000000 		call	__cxa_begin_catch@PLT
 4981      00
 4982              	.LEHB140:
 4983 26ff E8000000 		call	_ZN8UnitTest11CurrentTest7ResultsEv@PLT
 4983      00
 4984 2704 488B18   		movq	(%rax), %rbx
 4985 2707 E8000000 		call	_ZN8UnitTest11CurrentTest7DetailsEv@PLT
 4985      00
 156:TestXmlTestReporter.cpp **** }
 4986              		.loc 3 156 0 is_stmt 0 discriminator 12
 4987 270c 488B08   		movq	(%rax), %rcx
 4988 270f 488D45A0 		leaq	-96(%rbp), %rax
 4989 2713 BA9C0000 		movl	$156, %edx
 4989      00
 4990 2718 4889CE   		movq	%rcx, %rsi
 4991 271b 4889C7   		movq	%rax, %rdi
 4992 271e E8000000 		call	_ZN8UnitTest11TestDetailsC1ERKS0_i@PLT
 4992      00
 156:TestXmlTestReporter.cpp **** }
 4993              		.loc 3 156 0 discriminator 16
 4994 2723 488D45A0 		leaq	-96(%rbp), %rax
 4995 2727 488D1500 		leaq	.LC12(%rip), %rdx
 4995      000000
 4996 272e 4889C6   		movq	%rax, %rsi
 4997 2731 4889DF   		movq	%rbx, %rdi
 4998 2734 E8000000 		call	_ZN8UnitTest11TestResults13OnTestFailureERKNS_11TestDetailsEPKc@PLT
 4998      00
 4999              	.LEHE140:
 5000              	.LEHB141:
 156:TestXmlTestReporter.cpp **** }
 5001              		.loc 3 156 0 discriminator 18
 5002 2739 E8000000 		call	__cxa_end_catch@PLT
 5002      00
 5003              	.LEHE141:
 5004              		.loc 3 157 0 is_stmt 1 discriminator 18
 5005 273e EB13     		jmp	.L248
 5006              	.L256:
 5007 2740 4889C3   		movq	%rax, %rbx
 156:TestXmlTestReporter.cpp **** }
 5008              		.loc 3 156 0
 5009 2743 E8000000 		call	__cxa_end_catch@PLT
 5009      00
 5010 2748 4889D8   		movq	%rbx, %rax
 5011 274b 4889C7   		movq	%rax, %rdi
 5012              	.LEHB142:
 5013 274e E8000000 		call	_Unwind_Resume@PLT
 5013      00
 5014              	.LEHE142:
 5015              	.L248:
 5016              		.loc 3 157 0
 5017 2753 488B45E8 		movq	-24(%rbp), %rax
 5018 2757 64483304 		xorq	%fs:40, %rax
 5018      25280000 
 5018      00
 5019 2760 7405     		je	.L253
 5020 2762 E8000000 		call	__stack_chk_fail@PLT
 5020      00
 5021              	.L253:
 5022 2767 4881C4B8 		addq	$184, %rsp
 5022      000000
 5023 276e 5B       		popq	%rbx
 5024 276f 5D       		popq	%rbp
 5025              		.cfi_def_cfa 7, 8
 5026 2770 C3       		ret
 5027              		.cfi_endproc
 5028              	.LFE1437:
 5029              		.section	.gcc_except_table
 5030              		.align 4
 5031              	.LLSDA1437:
 5032 03e8 FF       		.byte	0xff
 5033 03e9 9B       		.byte	0x9b
 5034 03ea 31       		.uleb128 .LLSDATT1437-.LLSDATTD1437
 5035              	.LLSDATTD1437:
 5036 03eb 01       		.byte	0x1
 5037 03ec 27       		.uleb128 .LLSDACSE1437-.LLSDACSB1437
 5038              	.LLSDACSB1437:
 5039 03ed 47       		.uleb128 .LEHB136-.LFB1437
 5040 03ee 8902     		.uleb128 .LEHE136-.LEHB136
 5041 03f0 00       		.uleb128 0
 5042 03f1 00       		.uleb128 0
 5043 03f2 DE02     		.uleb128 .LEHB137-.LFB1437
 5044 03f4 32       		.uleb128 .LEHE137-.LEHB137
 5045 03f5 D103     		.uleb128 .L254-.LFB1437
 5046 03f7 01       		.uleb128 0x1
 5047 03f8 9003     		.uleb128 .LEHB138-.LFB1437
 5048 03fa 1F       		.uleb128 .LEHE138-.LEHB138
 5049 03fb BD03     		.uleb128 .L255-.LFB1437
 5050 03fd 03       		.uleb128 0x3
 5051 03fe B603     		.uleb128 .LEHB139-.LFB1437
 5052 0400 05       		.uleb128 .LEHE139-.LEHB139
 5053 0401 D103     		.uleb128 .L254-.LFB1437
 5054 0403 01       		.uleb128 0x1
 5055 0404 D903     		.uleb128 .LEHB140-.LFB1437
 5056 0406 3A       		.uleb128 .LEHE140-.LEHB140
 5057 0407 9A04     		.uleb128 .L256-.LFB1437
 5058 0409 00       		.uleb128 0
 5059 040a 9304     		.uleb128 .LEHB141-.LFB1437
 5060 040c 05       		.uleb128 .LEHE141-.LEHB141
 5061 040d 00       		.uleb128 0
 5062 040e 00       		.uleb128 0
 5063 040f A804     		.uleb128 .LEHB142-.LFB1437
 5064 0411 05       		.uleb128 .LEHE142-.LEHB142
 5065 0412 00       		.uleb128 0
 5066 0413 00       		.uleb128 0
 5067              	.LLSDACSE1437:
 5068 0414 01       		.byte	0x1
 5069 0415 00       		.byte	0
 5070 0416 00       		.byte	0
 5071 0417 7D       		.byte	0x7d
 5072              		.align 4
 5073 0418 00000000 		.long	0
 5074              	
 5075              	.LLSDATT1437:
 5076              		.text
 5078 2771 90       		.align 2
 5080              	_ZN12_GLOBAL__N_144XmlTestReporterFixtureMultipleFailuresHelperC2ERKN8UnitTest11TestDetailsE:
 5081              	.LFB1439:
 158:TestXmlTestReporter.cpp **** 
 159:TestXmlTestReporter.cpp **** TEST_FIXTURE(XmlTestReporterFixture, MultipleFailures)
 5082              		.loc 3 159 0
 5083              		.cfi_startproc
 5084 2772 55       		pushq	%rbp
 5085              		.cfi_def_cfa_offset 16
 5086              		.cfi_offset 6, -16
 5087 2773 4889E5   		movq	%rsp, %rbp
 5088              		.cfi_def_cfa_register 6
 5089 2776 4883EC10 		subq	$16, %rsp
 5090 277a 48897DF8 		movq	%rdi, -8(%rbp)
 5091 277e 488975F0 		movq	%rsi, -16(%rbp)
 5092              	.LBB85:
 5093              		.loc 3 159 0
 5094 2782 488B45F8 		movq	-8(%rbp), %rax
 5095 2786 4889C7   		movq	%rax, %rdi
 5096 2789 E872D8FF 		call	_ZN12_GLOBAL__N_122XmlTestReporterFixtureC2Ev
 5096      FF
 5097 278e 488B45F8 		movq	-8(%rbp), %rax
 5098 2792 488B55F0 		movq	-16(%rbp), %rdx
 5099 2796 488990A0 		movq	%rdx, 416(%rax)
 5099      010000
 5100              	.LBE85:
 5101 279d 90       		nop
 5102 279e C9       		leave
 5103              		.cfi_def_cfa 7, 8
 5104 279f C3       		ret
 5105              		.cfi_endproc
 5106              	.LFE1439:
 5108              		.set	_ZN12_GLOBAL__N_144XmlTestReporterFixtureMultipleFailuresHelperC1ERKN8UnitTest11TestDetailsE,
 5109              		.section	.rodata
 5110              	.LC40:
 5111 07ed 4D756C74 		.string	"MultipleFailures"
 5111      69706C65 
 5111      4661696C 
 5111      75726573 
 5111      00
 5112              		.text
 5113              		.align 2
 5115              	_ZN12_GLOBAL__N_142TestXmlTestReporterFixtureMultipleFailuresC2Ev:
 5116              	.LFB1442:
 5117              		.loc 3 159 0
 5118              		.cfi_startproc
 5119 27a0 55       		pushq	%rbp
 5120              		.cfi_def_cfa_offset 16
 5121              		.cfi_offset 6, -16
 5122 27a1 4889E5   		movq	%rsp, %rbp
 5123              		.cfi_def_cfa_register 6
 5124 27a4 53       		pushq	%rbx
 5125 27a5 4883EC18 		subq	$24, %rsp
 5126              		.cfi_offset 3, -24
 5127 27a9 48897DE8 		movq	%rdi, -24(%rbp)
 5128              	.LBB86:
 5129              		.loc 3 159 0
 5130 27ad 488B5DE8 		movq	-24(%rbp), %rbx
 5131 27b1 E8000000 		call	_ZN13UnitTestSuite12GetSuiteNameEv
 5131      00
 5132 27b6 41B89F00 		movl	$159, %r8d
 5132      0000
 5133 27bc 488D0D00 		leaq	.LC1(%rip), %rcx
 5133      000000
 5134 27c3 4889C2   		movq	%rax, %rdx
 5135 27c6 488D3500 		leaq	.LC40(%rip), %rsi
 5135      000000
 5136 27cd 4889DF   		movq	%rbx, %rdi
 5137 27d0 E8000000 		call	_ZN8UnitTest4TestC2EPKcS2_S2_i@PLT
 5137      00
 5138 27d5 488D1500 		leaq	16+_ZTVN12_GLOBAL__N_142TestXmlTestReporterFixtureMultipleFailuresE(%rip), %rdx
 5138      000000
 5139 27dc 488B45E8 		movq	-24(%rbp), %rax
 5140 27e0 488910   		movq	%rdx, (%rax)
 5141              	.LBE86:
 5142 27e3 90       		nop
 5143 27e4 4883C418 		addq	$24, %rsp
 5144 27e8 5B       		popq	%rbx
 5145 27e9 5D       		popq	%rbp
 5146              		.cfi_def_cfa 7, 8
 5147 27ea C3       		ret
 5148              		.cfi_endproc
 5149              	.LFE1442:
 5151              		.set	_ZN12_GLOBAL__N_142TestXmlTestReporterFixtureMultipleFailuresC1Ev,_ZN12_GLOBAL__N_142TestXmlT
 5152              		.local	_ZN12_GLOBAL__N_150testXmlTestReporterFixtureMultipleFailuresInstanceE
 5153              		.comm	_ZN12_GLOBAL__N_150testXmlTestReporterFixtureMultipleFailuresInstanceE,56,32
 5154              		.local	_ZN12_GLOBAL__N_143adderXmlTestReporterFixtureMultipleFailuresE
 5155              		.comm	_ZN12_GLOBAL__N_143adderXmlTestReporterFixtureMultipleFailuresE,1,1
 5156 27eb 90       		.align 2
 5158              	_ZN12_GLOBAL__N_144XmlTestReporterFixtureMultipleFailuresHelperD2Ev:
 5159              	.LFB1446:
 5160              		.loc 3 159 0
 5161              		.cfi_startproc
 5162 27ec 55       		pushq	%rbp
 5163              		.cfi_def_cfa_offset 16
 5164              		.cfi_offset 6, -16
 5165 27ed 4889E5   		movq	%rsp, %rbp
 5166              		.cfi_def_cfa_register 6
 5167 27f0 4883EC10 		subq	$16, %rsp
 5168 27f4 48897DF8 		movq	%rdi, -8(%rbp)
 5169              	.LBB87:
 5170              		.loc 3 159 0
 5171 27f8 488B45F8 		movq	-8(%rbp), %rax
 5172 27fc 4889C7   		movq	%rax, %rdi
 5173 27ff E858D8FF 		call	_ZN12_GLOBAL__N_122XmlTestReporterFixtureD2Ev
 5173      FF
 5174              	.LBE87:
 5175 2804 90       		nop
 5176 2805 C9       		leave
 5177              		.cfi_def_cfa 7, 8
 5178 2806 C3       		ret
 5179              		.cfi_endproc
 5180              	.LFE1446:
 5182              		.set	_ZN12_GLOBAL__N_144XmlTestReporterFixtureMultipleFailuresHelperD1Ev,_ZN12_GLOBAL__N_144XmlTes
 5183 2807 90       		.align 2
 5185              	_ZNK12_GLOBAL__N_142TestXmlTestReporterFixtureMultipleFailures7RunImplEv:
 5186              	.LFB1444:
 5187              		.loc 3 159 0
 5188              		.cfi_startproc
 5189              		.cfi_personality 0x9b,DW.ref.__gxx_personality_v0
 5190              		.cfi_lsda 0x1b,.LLSDA1444
 5191 2808 55       		pushq	%rbp
 5192              		.cfi_def_cfa_offset 16
 5193              		.cfi_offset 6, -16
 5194 2809 4889E5   		movq	%rsp, %rbp
 5195              		.cfi_def_cfa_register 6
 5196 280c 4155     		pushq	%r13
 5197 280e 4154     		pushq	%r12
 5198 2810 53       		pushq	%rbx
 5199 2811 4881EC08 		subq	$520, %rsp
 5199      020000
 5200              		.cfi_offset 13, -24
 5201              		.cfi_offset 12, -32
 5202              		.cfi_offset 3, -40
 5203 2818 4889BDE8 		movq	%rdi, -536(%rbp)
 5203      FDFFFF
 5204              		.loc 3 159 0
 5205 281f 64488B04 		movq	%fs:40, %rax
 5205      25280000 
 5205      00
 5206 2828 488945D8 		movq	%rax, -40(%rbp)
 5207 282c 31C0     		xorl	%eax, %eax
 5208 282e C685FFFD 		movb	$0, -513(%rbp)
 5208      FFFF00
 5209              	.LBB88:
 5210 2835 488B85E8 		movq	-536(%rbp), %rax
 5210      FDFFFF
 5211 283c 488D5008 		leaq	8(%rax), %rdx
 5212 2840 488D8530 		leaq	-464(%rbp), %rax
 5212      FEFFFF
 5213 2847 4889D6   		movq	%rdx, %rsi
 5214 284a 4889C7   		movq	%rax, %rdi
 5215              	.LEHB143:
 5216 284d E820FFFF 		call	_ZN12_GLOBAL__N_144XmlTestReporterFixtureMultipleFailuresHelperC1ERKN8UnitTest11TestDetailsE
 5216      FF
 5217              	.LEHE143:
 5218              		.loc 3 159 0 is_stmt 0 discriminator 1
 5219 2852 C685FFFD 		movb	$1, -513(%rbp)
 5219      FFFF01
 5220 2859 488B85E8 		movq	-536(%rbp), %rax
 5220      FDFFFF
 5221 2860 488D5008 		leaq	8(%rax), %rdx
 5222 2864 488D8530 		leaq	-464(%rbp), %rax
 5222      FEFFFF
 5223 286b 4889D6   		movq	%rdx, %rsi
