   1              		.file	"TestTestMacros.cpp"
   2              		.text
   3              	.Ltext0:
   4              		.section	.rodata
   5              	.LC0:
   6 0000 44656661 		.string	"DefaultSuite"
   6      756C7453 
   6      75697465 
   6      00
   7              		.section	.text._ZN13UnitTestSuite12GetSuiteNameEv,"axG",@progbits,_ZN13UnitTestSuite12GetSuiteName
   8              		.weak	_ZN13UnitTestSuite12GetSuiteNameEv
  10              	_ZN13UnitTestSuite12GetSuiteNameEv:
  11              	.LFB0:
  12              		.file 1 "../TestSuite.h"
   1:../TestSuite.h **** #ifndef UNITTEST_TESTSUITE_H
   2:../TestSuite.h **** #define UNITTEST_TESTSUITE_H
   3:../TestSuite.h **** 
   4:../TestSuite.h **** namespace UnitTestSuite {
   5:../TestSuite.h **** 
   6:../TestSuite.h ****     inline char const* GetSuiteName ()
   7:../TestSuite.h ****     {
  13              		.loc 1 7 0
  14              		.cfi_startproc
  15 0000 55       		pushq	%rbp
  16              		.cfi_def_cfa_offset 16
  17              		.cfi_offset 6, -16
  18 0001 4889E5   		movq	%rsp, %rbp
  19              		.cfi_def_cfa_register 6
   8:../TestSuite.h ****         return "DefaultSuite";
  20              		.loc 1 8 0
  21 0004 488D0500 		leaq	.LC0(%rip), %rax
  21      000000
   9:../TestSuite.h ****     }
  22              		.loc 1 9 0
  23 000b 5D       		popq	%rbp
  24              		.cfi_def_cfa 7, 8
  25 000c C3       		ret
  26              		.cfi_endproc
  27              	.LFE0:
  29              		.section	.text._ZN8UnitTest15MemoryOutStreamC1Ev,"axG",@progbits,_ZN8UnitTest15MemoryOutStreamC1Ev
  30              		.align 2
  31              		.weak	_ZN8UnitTest15MemoryOutStreamC1Ev
  33              	_ZN8UnitTest15MemoryOutStreamC1Ev:
  34              	.LFB1076:
  35              		.file 2 "../MemoryOutStream.h"
   1:../MemoryOutStream.h **** #ifndef UNITTEST_MEMORYOUTSTREAM_H
   2:../MemoryOutStream.h **** #define UNITTEST_MEMORYOUTSTREAM_H
   3:../MemoryOutStream.h **** 
   4:../MemoryOutStream.h **** #include "Config.h"
   5:../MemoryOutStream.h **** 
   6:../MemoryOutStream.h **** #ifndef UNITTEST_USE_CUSTOM_STREAMS
   7:../MemoryOutStream.h **** 
   8:../MemoryOutStream.h **** #include <sstream>
   9:../MemoryOutStream.h **** 
  10:../MemoryOutStream.h **** namespace UnitTest
  11:../MemoryOutStream.h **** {
  12:../MemoryOutStream.h **** 
  13:../MemoryOutStream.h **** class MemoryOutStream : public std::ostringstream
  14:../MemoryOutStream.h **** {
  15:../MemoryOutStream.h **** public:
  16:../MemoryOutStream.h ****     MemoryOutStream() {}
  36              		.loc 2 16 0
  37              		.cfi_startproc
  38              		.cfi_personality 0x9b,DW.ref.__gxx_personality_v0
  39              		.cfi_lsda 0x1b,.LLSDA1076
  40 0000 55       		pushq	%rbp
  41              		.cfi_def_cfa_offset 16
  42              		.cfi_offset 6, -16
  43 0001 4889E5   		movq	%rsp, %rbp
  44              		.cfi_def_cfa_register 6
  45 0004 53       		pushq	%rbx
  46 0005 4883EC18 		subq	$24, %rsp
  47              		.cfi_offset 3, -24
  48 0009 48897DE8 		movq	%rdi, -24(%rbp)
  49              	.LBB2:
  50              		.loc 2 16 0
  51 000d 488B45E8 		movq	-24(%rbp), %rax
  52 0011 48059000 		addq	$144, %rax
  52      0000
  53 0017 4889C7   		movq	%rax, %rdi
  54              	.LEHB0:
  55 001a E8000000 		call	_ZNSt9basic_iosIcSt11char_traitsIcEEC2Ev@PLT
  55      00
  56              	.LEHE0:
  57 001f 488B45E8 		movq	-24(%rbp), %rax
  58 0023 488D0D00 		leaq	8+_ZTTN8UnitTest15MemoryOutStreamE(%rip), %rcx
  58      000000
  59 002a BA100000 		movl	$16, %edx
  59      00
  60 002f 4889CE   		movq	%rcx, %rsi
  61 0032 4889C7   		movq	%rax, %rdi
  62              	.LEHB1:
  63 0035 E8000000 		call	_ZNSt7__cxx1119basic_ostringstreamIcSt11char_traitsIcESaIcEEC2ESt13_Ios_Openmode@PLT
  63      00
  64              	.LEHE1:
  65              		.loc 2 16 0 is_stmt 0 discriminator 8
  66 003a 488D1500 		leaq	24+_ZTVN8UnitTest15MemoryOutStreamE(%rip), %rdx
  66      000000
  67 0041 488B45E8 		movq	-24(%rbp), %rax
  68 0045 488910   		movq	%rdx, (%rax)
  69 0048 488B45E8 		movq	-24(%rbp), %rax
  70 004c 488D9090 		leaq	144(%rax), %rdx
  70      000000
  71 0053 488D0500 		leaq	64+_ZTVN8UnitTest15MemoryOutStreamE(%rip), %rax
  71      000000
  72 005a 488902   		movq	%rax, (%rdx)
  73 005d 488B45E8 		movq	-24(%rbp), %rax
  74 0061 4883C070 		addq	$112, %rax
  75 0065 4889C7   		movq	%rax, %rdi
  76              	.LEHB2:
  77 0068 E8000000 		call	_ZNSt7__cxx1112basic_stringIcSt11char_traitsIcESaIcEEC1Ev@PLT
  77      00
  78              	.LEHE2:
  79              	.LBE2:
  80              		.loc 2 16 0
  81 006d EB3B     		jmp	.L9
  82              	.L7:
  83 006f 4889C3   		movq	%rax, %rbx
  84              	.LBB3:
  85 0072 488B45E8 		movq	-24(%rbp), %rax
  86 0076 488D1500 		leaq	8+_ZTTN8UnitTest15MemoryOutStreamE(%rip), %rdx
  86      000000
  87 007d 4889D6   		movq	%rdx, %rsi
  88 0080 4889C7   		movq	%rax, %rdi
  89 0083 E8000000 		call	_ZNSt7__cxx1119basic_ostringstreamIcSt11char_traitsIcESaIcEED2Ev@PLT
  89      00
  90 0088 EB03     		jmp	.L8
  91              	.L6:
  92 008a 4889C3   		movq	%rax, %rbx
  93              	.L8:
  94              		.loc 2 16 0 discriminator 11
  95 008d 488B45E8 		movq	-24(%rbp), %rax
  96 0091 48059000 		addq	$144, %rax
  96      0000
  97 0097 4889C7   		movq	%rax, %rdi
  98 009a E8000000 		call	_ZNSt9basic_iosIcSt11char_traitsIcEED2Ev@PLT
  98      00
  99 009f 4889D8   		movq	%rbx, %rax
 100 00a2 4889C7   		movq	%rax, %rdi
 101              	.LEHB3:
 102 00a5 E8000000 		call	_Unwind_Resume@PLT
 102      00
 103              	.LEHE3:
 104              	.L9:
 105              	.LBE3:
 106              		.loc 2 16 0
 107 00aa 4883C418 		addq	$24, %rsp
 108 00ae 5B       		popq	%rbx
 109 00af 5D       		popq	%rbp
 110              		.cfi_def_cfa 7, 8
 111 00b0 C3       		ret
 112              		.cfi_endproc
 113              	.LFE1076:
 114              		.globl	__gxx_personality_v0
 115              		.section	.gcc_except_table._ZN8UnitTest15MemoryOutStreamC1Ev,"aG",@progbits,_ZN8UnitTest15MemoryOu
 116              	.LLSDA1076:
 117 0000 FF       		.byte	0xff
 118 0001 FF       		.byte	0xff
 119 0002 01       		.byte	0x1
 120 0003 12       		.uleb128 .LLSDACSE1076-.LLSDACSB1076
 121              	.LLSDACSB1076:
 122 0004 1A       		.uleb128 .LEHB0-.LFB1076
 123 0005 05       		.uleb128 .LEHE0-.LEHB0
 124 0006 00       		.uleb128 0
 125 0007 00       		.uleb128 0
 126 0008 35       		.uleb128 .LEHB1-.LFB1076
 127 0009 05       		.uleb128 .LEHE1-.LEHB1
 128 000a 8A01     		.uleb128 .L6-.LFB1076
 129 000c 00       		.uleb128 0
 130 000d 68       		.uleb128 .LEHB2-.LFB1076
 131 000e 05       		.uleb128 .LEHE2-.LEHB2
 132 000f 6F       		.uleb128 .L7-.LFB1076
 133 0010 00       		.uleb128 0
 134 0011 A501     		.uleb128 .LEHB3-.LFB1076
 135 0013 05       		.uleb128 .LEHE3-.LEHB3
 136 0014 00       		.uleb128 0
 137 0015 00       		.uleb128 0
 138              	.LLSDACSE1076:
 139              		.section	.text._ZN8UnitTest15MemoryOutStreamC1Ev,"axG",@progbits,_ZN8UnitTest15MemoryOutStreamC1Ev
 141              		.section	.text._ZN8UnitTest12TestReporterC2Ev,"axG",@progbits,_ZN8UnitTest12TestReporterC5Ev,comda
 142              		.align 2
 143              		.weak	_ZN8UnitTest12TestReporterC2Ev
 145              	_ZN8UnitTest12TestReporterC2Ev:
 146              	.LFB1090:
 147              		.file 3 "../TestReporter.h"
   1:../TestReporter.h **** #ifndef UNITTEST_TESTREPORTER_H
   2:../TestReporter.h **** #define UNITTEST_TESTREPORTER_H
   3:../TestReporter.h **** 
   4:../TestReporter.h **** namespace UnitTest {
   5:../TestReporter.h **** 
   6:../TestReporter.h **** class TestDetails;
   7:../TestReporter.h **** 
   8:../TestReporter.h **** class TestReporter
 148              		.loc 3 8 0 is_stmt 1
 149              		.cfi_startproc
 150 0000 55       		pushq	%rbp
 151              		.cfi_def_cfa_offset 16
 152              		.cfi_offset 6, -16
 153 0001 4889E5   		movq	%rsp, %rbp
 154              		.cfi_def_cfa_register 6
 155 0004 48897DF8 		movq	%rdi, -8(%rbp)
 156              	.LBB4:
 157              		.loc 3 8 0
 158 0008 488D1500 		leaq	16+_ZTVN8UnitTest12TestReporterE(%rip), %rdx
 158      000000
 159 000f 488B45F8 		movq	-8(%rbp), %rax
 160 0013 488910   		movq	%rdx, (%rax)
 161              	.LBE4:
 162 0016 90       		nop
 163 0017 5D       		popq	%rbp
 164              		.cfi_def_cfa 7, 8
 165 0018 C3       		ret
 166              		.cfi_endproc
 167              	.LFE1090:
 169              		.weak	_ZN8UnitTest12TestReporterC1Ev
 170              		.set	_ZN8UnitTest12TestReporterC1Ev,_ZN8UnitTest12TestReporterC2Ev
 171              		.section	.text._ZN17RecordingReporterC2Ev,"axG",@progbits,_ZN17RecordingReporterC5Ev,comdat
 172              		.align 2
 173              		.weak	_ZN17RecordingReporterC2Ev
 175              	_ZN17RecordingReporterC2Ev:
 176              	.LFB1092:
 177              		.file 4 "RecordingReporter.h"
   1:RecordingReporter.h **** #ifndef UNITTEST_RECORDINGREPORTER_H
   2:RecordingReporter.h **** #define UNITTEST_RECORDINGREPORTER_H
   3:RecordingReporter.h **** 
   4:RecordingReporter.h **** #include "../TestReporter.h"
   5:RecordingReporter.h **** #include <cstring>
   6:RecordingReporter.h **** 
   7:RecordingReporter.h **** #include "../TestDetails.h"
   8:RecordingReporter.h **** 
   9:RecordingReporter.h **** struct RecordingReporter : public UnitTest::TestReporter
  10:RecordingReporter.h **** {
  11:RecordingReporter.h **** private:
  12:RecordingReporter.h ****     enum { kMaxStringLength = 256 };
  13:RecordingReporter.h **** 
  14:RecordingReporter.h **** public:
  15:RecordingReporter.h ****     RecordingReporter()
 178              		.loc 4 15 0
 179              		.cfi_startproc
 180 0000 55       		pushq	%rbp
 181              		.cfi_def_cfa_offset 16
 182              		.cfi_offset 6, -16
 183 0001 4889E5   		movq	%rsp, %rbp
 184              		.cfi_def_cfa_register 6
 185 0004 4883EC10 		subq	$16, %rsp
 186 0008 48897DF8 		movq	%rdi, -8(%rbp)
 187              	.LBB5:
  16:RecordingReporter.h ****         : testRunCount(0)
  17:RecordingReporter.h ****         , testFailedCount(0)
  18:RecordingReporter.h ****         , lastFailedLine(0)
  19:RecordingReporter.h ****         , testFinishedCount(0)
  20:RecordingReporter.h ****         , lastFinishedTestTime(0)
  21:RecordingReporter.h ****         , summaryTotalTestCount(0)
  22:RecordingReporter.h ****         , summaryFailedTestCount(0)
  23:RecordingReporter.h ****         , summaryFailureCount(0)
  24:RecordingReporter.h ****         , summarySecondsElapsed(0)
 188              		.loc 4 24 0
 189 000c 488B45F8 		movq	-8(%rbp), %rax
 190 0010 4889C7   		movq	%rax, %rdi
 191 0013 E8000000 		call	_ZN8UnitTest12TestReporterC2Ev
 191      00
 192 0018 488D1500 		leaq	16+_ZTV17RecordingReporter(%rip), %rdx
 192      000000
 193 001f 488B45F8 		movq	-8(%rbp), %rax
 194 0023 488910   		movq	%rdx, (%rax)
 195 0026 488B45F8 		movq	-8(%rbp), %rax
 196 002a C7400800 		movl	$0, 8(%rax)
 196      000000
 197 0031 488B45F8 		movq	-8(%rbp), %rax
 198 0035 C7800C02 		movl	$0, 524(%rax)
 198      00000000 
 198      0000
 199 003f 488B45F8 		movq	-8(%rbp), %rax
 200 0043 C7801003 		movl	$0, 784(%rax)
 200      00000000 
 200      0000
 201 004d 488B45F8 		movq	-8(%rbp), %rax
 202 0051 C7801406 		movl	$0, 1556(%rax)
 202      00000000 
 202      0000
 203 005b 488B45F8 		movq	-8(%rbp), %rax
 204 005f 660FEFC0 		pxor	%xmm0, %xmm0
 205 0063 F30F1180 		movss	%xmm0, 2072(%rax)
 205      18080000 
 206 006b 488B45F8 		movq	-8(%rbp), %rax
 207 006f C7801C08 		movl	$0, 2076(%rax)
 207      00000000 
 207      0000
 208 0079 488B45F8 		movq	-8(%rbp), %rax
 209 007d C7802008 		movl	$0, 2080(%rax)
 209      00000000 
 209      0000
 210 0087 488B45F8 		movq	-8(%rbp), %rax
 211 008b C7802408 		movl	$0, 2084(%rax)
 211      00000000 
 211      0000
 212 0095 488B45F8 		movq	-8(%rbp), %rax
 213 0099 660FEFC0 		pxor	%xmm0, %xmm0
 214 009d F30F1180 		movss	%xmm0, 2088(%rax)
 214      28080000 
  25:RecordingReporter.h ****     {
  26:RecordingReporter.h ****         lastStartedSuite[0] = '\0';
 215              		.loc 4 26 0
 216 00a5 488B45F8 		movq	-8(%rbp), %rax
 217 00a9 C6400C00 		movb	$0, 12(%rax)
  27:RecordingReporter.h ****         lastStartedTest[0] = '\0';
 218              		.loc 4 27 0
 219 00ad 488B45F8 		movq	-8(%rbp), %rax
 220 00b1 C6800C01 		movb	$0, 268(%rax)
 220      000000
  28:RecordingReporter.h ****         lastFailedFile[0] = '\0';
 221              		.loc 4 28 0
 222 00b8 488B45F8 		movq	-8(%rbp), %rax
 223 00bc C6801002 		movb	$0, 528(%rax)
 223      000000
  29:RecordingReporter.h ****         lastFailedSuite[0] = '\0';
 224              		.loc 4 29 0
 225 00c3 488B45F8 		movq	-8(%rbp), %rax
 226 00c7 C6801403 		movb	$0, 788(%rax)
 226      000000
  30:RecordingReporter.h ****         lastFailedTest[0] = '\0';
 227              		.loc 4 30 0
 228 00ce 488B45F8 		movq	-8(%rbp), %rax
 229 00d2 C6801404 		movb	$0, 1044(%rax)
 229      000000
  31:RecordingReporter.h ****         lastFailedMessage[0] = '\0';
 230              		.loc 4 31 0
 231 00d9 488B45F8 		movq	-8(%rbp), %rax
 232 00dd C6801405 		movb	$0, 1300(%rax)
 232      000000
  32:RecordingReporter.h ****         lastFinishedSuite[0] = '\0';
 233              		.loc 4 32 0
 234 00e4 488B45F8 		movq	-8(%rbp), %rax
 235 00e8 C6801806 		movb	$0, 1560(%rax)
 235      000000
  33:RecordingReporter.h ****         lastFinishedTest[0] = '\0';
 236              		.loc 4 33 0
 237 00ef 488B45F8 		movq	-8(%rbp), %rax
 238 00f3 C6801807 		movb	$0, 1816(%rax)
 238      000000
 239              	.LBE5:
  34:RecordingReporter.h ****     }
 240              		.loc 4 34 0
 241 00fa 90       		nop
 242 00fb C9       		leave
 243              		.cfi_def_cfa 7, 8
 244 00fc C3       		ret
 245              		.cfi_endproc
 246              	.LFE1092:
 248              		.weak	_ZN17RecordingReporterC1Ev
 249              		.set	_ZN17RecordingReporterC1Ev,_ZN17RecordingReporterC2Ev
 250              		.section	.text._ZN17RecordingReporter15ReportTestStartERKN8UnitTest11TestDetailsE,"axG",@progbits,
 251              		.align 2
 252              		.weak	_ZN17RecordingReporter15ReportTestStartERKN8UnitTest11TestDetailsE
 254              	_ZN17RecordingReporter15ReportTestStartERKN8UnitTest11TestDetailsE:
 255              	.LFB1094:
  35:RecordingReporter.h **** 
  36:RecordingReporter.h ****     virtual void ReportTestStart(UnitTest::TestDetails const& test)
 256              		.loc 4 36 0
 257              		.cfi_startproc
 258 0000 55       		pushq	%rbp
 259              		.cfi_def_cfa_offset 16
 260              		.cfi_offset 6, -16
 261 0001 4889E5   		movq	%rsp, %rbp
 262              		.cfi_def_cfa_register 6
 263 0004 4883EC10 		subq	$16, %rsp
 264 0008 48897DF8 		movq	%rdi, -8(%rbp)
 265 000c 488975F0 		movq	%rsi, -16(%rbp)
  37:RecordingReporter.h ****     {
  38:RecordingReporter.h **** 		using namespace std;
  39:RecordingReporter.h **** 
  40:RecordingReporter.h ****         ++testRunCount;
 266              		.loc 4 40 0
 267 0010 488B45F8 		movq	-8(%rbp), %rax
 268 0014 8B4008   		movl	8(%rax), %eax
 269 0017 8D5001   		leal	1(%rax), %edx
 270 001a 488B45F8 		movq	-8(%rbp), %rax
 271 001e 895008   		movl	%edx, 8(%rax)
  41:RecordingReporter.h ****         strcpy(lastStartedSuite, test.suiteName);
 272              		.loc 4 41 0
 273 0021 488B45F0 		movq	-16(%rbp), %rax
 274 0025 488B00   		movq	(%rax), %rax
 275 0028 488B55F8 		movq	-8(%rbp), %rdx
 276 002c 4883C20C 		addq	$12, %rdx
 277 0030 4889C6   		movq	%rax, %rsi
 278 0033 4889D7   		movq	%rdx, %rdi
 279 0036 E8000000 		call	strcpy@PLT
 279      00
  42:RecordingReporter.h ****         strcpy(lastStartedTest, test.testName);
 280              		.loc 4 42 0
 281 003b 488B45F0 		movq	-16(%rbp), %rax
 282 003f 488B4008 		movq	8(%rax), %rax
 283 0043 488B55F8 		movq	-8(%rbp), %rdx
 284 0047 4881C20C 		addq	$268, %rdx
 284      010000
 285 004e 4889C6   		movq	%rax, %rsi
 286 0051 4889D7   		movq	%rdx, %rdi
 287 0054 E8000000 		call	strcpy@PLT
 287      00
  43:RecordingReporter.h ****     }
 288              		.loc 4 43 0
 289 0059 90       		nop
 290 005a C9       		leave
 291              		.cfi_def_cfa 7, 8
 292 005b C3       		ret
 293              		.cfi_endproc
 294              	.LFE1094:
 296              		.section	.text._ZN17RecordingReporter13ReportFailureERKN8UnitTest11TestDetailsEPKc,"axG",@progbits
 297              		.align 2
 298              		.weak	_ZN17RecordingReporter13ReportFailureERKN8UnitTest11TestDetailsEPKc
 300              	_ZN17RecordingReporter13ReportFailureERKN8UnitTest11TestDetailsEPKc:
 301              	.LFB1095:
  44:RecordingReporter.h **** 
  45:RecordingReporter.h ****     virtual void ReportFailure(UnitTest::TestDetails const& test, char const* failure)
 302              		.loc 4 45 0
 303              		.cfi_startproc
 304 0000 55       		pushq	%rbp
 305              		.cfi_def_cfa_offset 16
 306              		.cfi_offset 6, -16
 307 0001 4889E5   		movq	%rsp, %rbp
 308              		.cfi_def_cfa_register 6
 309 0004 4883EC20 		subq	$32, %rsp
 310 0008 48897DF8 		movq	%rdi, -8(%rbp)
 311 000c 488975F0 		movq	%rsi, -16(%rbp)
 312 0010 488955E8 		movq	%rdx, -24(%rbp)
  46:RecordingReporter.h ****     {
  47:RecordingReporter.h **** 		using namespace std;
  48:RecordingReporter.h **** 
  49:RecordingReporter.h **** 		++testFailedCount;
 313              		.loc 4 49 0
 314 0014 488B45F8 		movq	-8(%rbp), %rax
 315 0018 8B800C02 		movl	524(%rax), %eax
 315      0000
 316 001e 8D5001   		leal	1(%rax), %edx
 317 0021 488B45F8 		movq	-8(%rbp), %rax
 318 0025 89900C02 		movl	%edx, 524(%rax)
 318      0000
  50:RecordingReporter.h ****         strcpy(lastFailedFile, test.filename);
 319              		.loc 4 50 0
 320 002b 488B45F0 		movq	-16(%rbp), %rax
 321 002f 488B4010 		movq	16(%rax), %rax
 322 0033 488B55F8 		movq	-8(%rbp), %rdx
 323 0037 4881C210 		addq	$528, %rdx
 323      020000
 324 003e 4889C6   		movq	%rax, %rsi
 325 0041 4889D7   		movq	%rdx, %rdi
 326 0044 E8000000 		call	strcpy@PLT
 326      00
  51:RecordingReporter.h ****         lastFailedLine = test.lineNumber;
 327              		.loc 4 51 0
 328 0049 488B45F0 		movq	-16(%rbp), %rax
 329 004d 8B5018   		movl	24(%rax), %edx
 330 0050 488B45F8 		movq	-8(%rbp), %rax
 331 0054 89901003 		movl	%edx, 784(%rax)
 331      0000
  52:RecordingReporter.h ****         strcpy(lastFailedSuite, test.suiteName);
 332              		.loc 4 52 0
 333 005a 488B45F0 		movq	-16(%rbp), %rax
 334 005e 488B00   		movq	(%rax), %rax
 335 0061 488B55F8 		movq	-8(%rbp), %rdx
 336 0065 4881C214 		addq	$788, %rdx
 336      030000
 337 006c 4889C6   		movq	%rax, %rsi
 338 006f 4889D7   		movq	%rdx, %rdi
 339 0072 E8000000 		call	strcpy@PLT
 339      00
  53:RecordingReporter.h ****         strcpy(lastFailedTest, test.testName);
 340              		.loc 4 53 0
 341 0077 488B45F0 		movq	-16(%rbp), %rax
 342 007b 488B4008 		movq	8(%rax), %rax
 343 007f 488B55F8 		movq	-8(%rbp), %rdx
 344 0083 4881C214 		addq	$1044, %rdx
 344      040000
 345 008a 4889C6   		movq	%rax, %rsi
 346 008d 4889D7   		movq	%rdx, %rdi
 347 0090 E8000000 		call	strcpy@PLT
 347      00
  54:RecordingReporter.h ****         strcpy(lastFailedMessage, failure);
 348              		.loc 4 54 0
 349 0095 488B45F8 		movq	-8(%rbp), %rax
 350 0099 488D9014 		leaq	1300(%rax), %rdx
 350      050000
 351 00a0 488B45E8 		movq	-24(%rbp), %rax
 352 00a4 4889C6   		movq	%rax, %rsi
 353 00a7 4889D7   		movq	%rdx, %rdi
 354 00aa E8000000 		call	strcpy@PLT
 354      00
  55:RecordingReporter.h ****     }
 355              		.loc 4 55 0
 356 00af 90       		nop
 357 00b0 C9       		leave
 358              		.cfi_def_cfa 7, 8
 359 00b1 C3       		ret
 360              		.cfi_endproc
 361              	.LFE1095:
 363              		.section	.text._ZN17RecordingReporter16ReportTestFinishERKN8UnitTest11TestDetailsEf,"axG",@progbit
 364              		.align 2
 365              		.weak	_ZN17RecordingReporter16ReportTestFinishERKN8UnitTest11TestDetailsEf
 367              	_ZN17RecordingReporter16ReportTestFinishERKN8UnitTest11TestDetailsEf:
 368              	.LFB1096:
  56:RecordingReporter.h **** 
  57:RecordingReporter.h ****     virtual void ReportTestFinish(UnitTest::TestDetails const& test, float testDuration)
 369              		.loc 4 57 0
 370              		.cfi_startproc
 371 0000 55       		pushq	%rbp
 372              		.cfi_def_cfa_offset 16
 373              		.cfi_offset 6, -16
 374 0001 4889E5   		movq	%rsp, %rbp
 375              		.cfi_def_cfa_register 6
 376 0004 4883EC20 		subq	$32, %rsp
 377 0008 48897DF8 		movq	%rdi, -8(%rbp)
 378 000c 488975F0 		movq	%rsi, -16(%rbp)
 379 0010 F30F1145 		movss	%xmm0, -20(%rbp)
 379      EC
  58:RecordingReporter.h ****     {
  59:RecordingReporter.h **** 		using namespace std;
  60:RecordingReporter.h **** 
  61:RecordingReporter.h **** 		++testFinishedCount;
 380              		.loc 4 61 0
 381 0015 488B45F8 		movq	-8(%rbp), %rax
 382 0019 8B801406 		movl	1556(%rax), %eax
 382      0000
 383 001f 8D5001   		leal	1(%rax), %edx
 384 0022 488B45F8 		movq	-8(%rbp), %rax
 385 0026 89901406 		movl	%edx, 1556(%rax)
 385      0000
  62:RecordingReporter.h ****         strcpy(lastFinishedSuite, test.suiteName);
 386              		.loc 4 62 0
 387 002c 488B45F0 		movq	-16(%rbp), %rax
 388 0030 488B00   		movq	(%rax), %rax
 389 0033 488B55F8 		movq	-8(%rbp), %rdx
 390 0037 4881C218 		addq	$1560, %rdx
 390      060000
 391 003e 4889C6   		movq	%rax, %rsi
 392 0041 4889D7   		movq	%rdx, %rdi
 393 0044 E8000000 		call	strcpy@PLT
 393      00
  63:RecordingReporter.h ****         strcpy(lastFinishedTest, test.testName);
 394              		.loc 4 63 0
 395 0049 488B45F0 		movq	-16(%rbp), %rax
 396 004d 488B4008 		movq	8(%rax), %rax
 397 0051 488B55F8 		movq	-8(%rbp), %rdx
 398 0055 4881C218 		addq	$1816, %rdx
 398      070000
 399 005c 4889C6   		movq	%rax, %rsi
 400 005f 4889D7   		movq	%rdx, %rdi
 401 0062 E8000000 		call	strcpy@PLT
 401      00
  64:RecordingReporter.h ****         lastFinishedTestTime = testDuration;
 402              		.loc 4 64 0
 403 0067 488B45F8 		movq	-8(%rbp), %rax
 404 006b F30F1045 		movss	-20(%rbp), %xmm0
 404      EC
 405 0070 F30F1180 		movss	%xmm0, 2072(%rax)
 405      18080000 
  65:RecordingReporter.h ****     }
 406              		.loc 4 65 0
 407 0078 90       		nop
 408 0079 C9       		leave
 409              		.cfi_def_cfa 7, 8
 410 007a C3       		ret
 411              		.cfi_endproc
 412              	.LFE1096:
 414              		.section	.text._ZN17RecordingReporter13ReportSummaryEiiif,"axG",@progbits,_ZN17RecordingReporter13
 415              		.align 2
 416              		.weak	_ZN17RecordingReporter13ReportSummaryEiiif
 418              	_ZN17RecordingReporter13ReportSummaryEiiif:
 419              	.LFB1097:
  66:RecordingReporter.h **** 
  67:RecordingReporter.h ****     virtual void ReportSummary(int totalTestCount, int failedTestCount, int failureCount, float sec
 420              		.loc 4 67 0
 421              		.cfi_startproc
 422 0000 55       		pushq	%rbp
 423              		.cfi_def_cfa_offset 16
 424              		.cfi_offset 6, -16
 425 0001 4889E5   		movq	%rsp, %rbp
 426              		.cfi_def_cfa_register 6
 427 0004 48897DF8 		movq	%rdi, -8(%rbp)
 428 0008 8975F4   		movl	%esi, -12(%rbp)
 429 000b 8955F0   		movl	%edx, -16(%rbp)
 430 000e 894DEC   		movl	%ecx, -20(%rbp)
 431 0011 F30F1145 		movss	%xmm0, -24(%rbp)
 431      E8
  68:RecordingReporter.h ****     {
  69:RecordingReporter.h ****         summaryTotalTestCount = totalTestCount;
 432              		.loc 4 69 0
 433 0016 488B45F8 		movq	-8(%rbp), %rax
 434 001a 8B55F4   		movl	-12(%rbp), %edx
 435 001d 89901C08 		movl	%edx, 2076(%rax)
 435      0000
  70:RecordingReporter.h ****         summaryFailedTestCount = failedTestCount;
 436              		.loc 4 70 0
 437 0023 488B45F8 		movq	-8(%rbp), %rax
 438 0027 8B55F0   		movl	-16(%rbp), %edx
 439 002a 89902008 		movl	%edx, 2080(%rax)
 439      0000
  71:RecordingReporter.h ****         summaryFailureCount = failureCount;
 440              		.loc 4 71 0
 441 0030 488B45F8 		movq	-8(%rbp), %rax
 442 0034 8B55EC   		movl	-20(%rbp), %edx
 443 0037 89902408 		movl	%edx, 2084(%rax)
 443      0000
  72:RecordingReporter.h ****         summarySecondsElapsed = secondsElapsed;
 444              		.loc 4 72 0
 445 003d 488B45F8 		movq	-8(%rbp), %rax
 446 0041 F30F1045 		movss	-24(%rbp), %xmm0
 446      E8
 447 0046 F30F1180 		movss	%xmm0, 2088(%rax)
 447      28080000 
  73:RecordingReporter.h ****     }
 448              		.loc 4 73 0
 449 004e 90       		nop
 450 004f 5D       		popq	%rbp
 451              		.cfi_def_cfa 7, 8
 452 0050 C3       		ret
 453              		.cfi_endproc
 454              	.LFE1097:
 456              		.section	.text._ZN17ScopedCurrentTestC2ERN8UnitTest11TestResultsEPKNS0_11TestDetailsE,"axG",@progb
 457              		.align 2
 458              		.weak	_ZN17ScopedCurrentTestC2ERN8UnitTest11TestResultsEPKNS0_11TestDetailsE
 460              	_ZN17ScopedCurrentTestC2ERN8UnitTest11TestResultsEPKNS0_11TestDetailsE:
 461              	.LFB1102:
 462              		.file 5 "ScopedCurrentTest.h"
   1:ScopedCurrentTest.h **** #ifndef UNITTEST_SCOPEDCURRENTTEST_H
   2:ScopedCurrentTest.h **** #define UNITTEST_SCOPEDCURRENTTEST_H
   3:ScopedCurrentTest.h **** 
   4:ScopedCurrentTest.h **** #include "../CurrentTest.h"
   5:ScopedCurrentTest.h **** #include <cstddef>
   6:ScopedCurrentTest.h **** 
   7:ScopedCurrentTest.h **** class ScopedCurrentTest
   8:ScopedCurrentTest.h **** {
   9:ScopedCurrentTest.h **** public:
  10:ScopedCurrentTest.h **** 	ScopedCurrentTest()
  11:ScopedCurrentTest.h **** 		: m_oldTestResults(UnitTest::CurrentTest::Results())
  12:ScopedCurrentTest.h **** 		, m_oldTestDetails(UnitTest::CurrentTest::Details())
  13:ScopedCurrentTest.h **** 	{
  14:ScopedCurrentTest.h **** 	}
  15:ScopedCurrentTest.h **** 
  16:ScopedCurrentTest.h **** 	explicit ScopedCurrentTest(UnitTest::TestResults& newResults, const UnitTest::TestDetails* newDeta
 463              		.loc 5 16 0
 464              		.cfi_startproc
 465 0000 55       		pushq	%rbp
 466              		.cfi_def_cfa_offset 16
 467              		.cfi_offset 6, -16
 468 0001 4889E5   		movq	%rsp, %rbp
 469              		.cfi_def_cfa_register 6
 470 0004 4883EC20 		subq	$32, %rsp
 471 0008 48897DF8 		movq	%rdi, -8(%rbp)
 472 000c 488975F0 		movq	%rsi, -16(%rbp)
 473 0010 488955E8 		movq	%rdx, -24(%rbp)
 474              	.LBB6:
  17:ScopedCurrentTest.h **** 		: m_oldTestResults(UnitTest::CurrentTest::Results())
 475              		.loc 5 17 0
 476 0014 E8000000 		call	_ZN8UnitTest11CurrentTest7ResultsEv@PLT
 476      00
 477 0019 488B10   		movq	(%rax), %rdx
  18:ScopedCurrentTest.h **** 		, m_oldTestDetails(UnitTest::CurrentTest::Details())
 478              		.loc 5 18 0
 479 001c 488B45F8 		movq	-8(%rbp), %rax
 480 0020 488910   		movq	%rdx, (%rax)
 481 0023 E8000000 		call	_ZN8UnitTest11CurrentTest7DetailsEv@PLT
 481      00
 482 0028 488B10   		movq	(%rax), %rdx
 483 002b 488B45F8 		movq	-8(%rbp), %rax
 484 002f 48895008 		movq	%rdx, 8(%rax)
  19:ScopedCurrentTest.h **** 	{
  20:ScopedCurrentTest.h **** 		UnitTest::CurrentTest::Results() = &newResults;
 485              		.loc 5 20 0
 486 0033 E8000000 		call	_ZN8UnitTest11CurrentTest7ResultsEv@PLT
 486      00
 487 0038 4889C2   		movq	%rax, %rdx
 488 003b 488B45F0 		movq	-16(%rbp), %rax
 489 003f 488902   		movq	%rax, (%rdx)
  21:ScopedCurrentTest.h **** 
  22:ScopedCurrentTest.h **** 		if (newDetails != NULL)
 490              		.loc 5 22 0
 491 0042 48837DE8 		cmpq	$0, -24(%rbp)
 491      00
 492 0047 740F     		je	.L18
  23:ScopedCurrentTest.h **** 			UnitTest::CurrentTest::Details() = newDetails;
 493              		.loc 5 23 0
 494 0049 E8000000 		call	_ZN8UnitTest11CurrentTest7DetailsEv@PLT
 494      00
 495 004e 4889C2   		movq	%rax, %rdx
 496 0051 488B45E8 		movq	-24(%rbp), %rax
 497 0055 488902   		movq	%rax, (%rdx)
 498              	.L18:
 499              	.LBE6:
  24:ScopedCurrentTest.h **** 	}
 500              		.loc 5 24 0
 501 0058 90       		nop
 502 0059 C9       		leave
 503              		.cfi_def_cfa 7, 8
 504 005a C3       		ret
 505              		.cfi_endproc
 506              	.LFE1102:
 508              		.weak	_ZN17ScopedCurrentTestC1ERN8UnitTest11TestResultsEPKNS0_11TestDetailsE
 509              		.set	_ZN17ScopedCurrentTestC1ERN8UnitTest11TestResultsEPKNS0_11TestDetailsE,_ZN17ScopedCurrentTest
 510              		.section	.text._ZN17ScopedCurrentTestD2Ev,"axG",@progbits,_ZN17ScopedCurrentTestD5Ev,comdat
 511              		.align 2
 512              		.weak	_ZN17ScopedCurrentTestD2Ev
 514              	_ZN17ScopedCurrentTestD2Ev:
 515              	.LFB1105:
  25:ScopedCurrentTest.h **** 
  26:ScopedCurrentTest.h **** 	~ScopedCurrentTest()
 516              		.loc 5 26 0
 517              		.cfi_startproc
 518 0000 55       		pushq	%rbp
 519              		.cfi_def_cfa_offset 16
 520              		.cfi_offset 6, -16
 521 0001 4889E5   		movq	%rsp, %rbp
 522              		.cfi_def_cfa_register 6
 523 0004 4883EC10 		subq	$16, %rsp
 524 0008 48897DF8 		movq	%rdi, -8(%rbp)
 525              	.LBB7:
  27:ScopedCurrentTest.h **** 	{
  28:ScopedCurrentTest.h **** 		UnitTest::CurrentTest::Results() = m_oldTestResults;
 526              		.loc 5 28 0
 527 000c E8000000 		call	_ZN8UnitTest11CurrentTest7ResultsEv@PLT
 527      00
 528 0011 4889C2   		movq	%rax, %rdx
 529 0014 488B45F8 		movq	-8(%rbp), %rax
 530 0018 488B00   		movq	(%rax), %rax
 531 001b 488902   		movq	%rax, (%rdx)
  29:ScopedCurrentTest.h **** 		UnitTest::CurrentTest::Details() = m_oldTestDetails;
 532              		.loc 5 29 0
 533 001e E8000000 		call	_ZN8UnitTest11CurrentTest7DetailsEv@PLT
 533      00
 534 0023 4889C2   		movq	%rax, %rdx
 535 0026 488B45F8 		movq	-8(%rbp), %rax
 536 002a 488B4008 		movq	8(%rax), %rax
 537 002e 488902   		movq	%rax, (%rdx)
 538              	.LBE7:
  30:ScopedCurrentTest.h **** 	}
 539              		.loc 5 30 0
 540 0031 90       		nop
 541 0032 C9       		leave
 542              		.cfi_def_cfa 7, 8
 543 0033 C3       		ret
 544              		.cfi_endproc
 545              	.LFE1105:
 547              		.weak	_ZN17ScopedCurrentTestD1Ev
 548              		.set	_ZN17ScopedCurrentTestD1Ev,_ZN17ScopedCurrentTestD2Ev
 549              		.local	_ZN12_GLOBAL__N_15list1E
 550              		.comm	_ZN12_GLOBAL__N_15list1E,16,16
 551              		.section	.rodata
 552              	.LC2:
 553 000d 54657374 		.string	"TestTestMacros.cpp"
 553      54657374 
 553      4D616372 
 553      6F732E63 
 553      707000
 554              	.LC3:
 555 0020 44756D6D 		.string	"DummyTest"
 555      79546573 
 555      7400
 556              		.text
 557              		.align 2
 559              	_ZN12_GLOBAL__N_113TestDummyTestC2Ev:
 560              	.LFB1108:
 561              		.file 6 "TestTestMacros.cpp"
   1:TestTestMacros.cpp **** #include "../UnitTest++.h"
   2:TestTestMacros.cpp **** #include "../TestMacros.h"
   3:TestTestMacros.cpp **** #include "../TestList.h"
   4:TestTestMacros.cpp **** #include "../TestResults.h"
   5:TestTestMacros.cpp **** #include "../TestReporter.h"
   6:TestTestMacros.cpp **** #include "../ReportAssert.h"
   7:TestTestMacros.cpp **** #include "RecordingReporter.h"
   8:TestTestMacros.cpp **** #include "ScopedCurrentTest.h"
   9:TestTestMacros.cpp **** 
  10:TestTestMacros.cpp **** using namespace UnitTest;
  11:TestTestMacros.cpp **** 
  12:TestTestMacros.cpp **** namespace {
  13:TestTestMacros.cpp **** 
  14:TestTestMacros.cpp **** TestList list1;
  15:TestTestMacros.cpp **** TEST_EX(DummyTest, list1)
 562              		.loc 6 15 0
 563              		.cfi_startproc
 564 0000 55       		pushq	%rbp
 565              		.cfi_def_cfa_offset 16
 566              		.cfi_offset 6, -16
 567 0001 4889E5   		movq	%rsp, %rbp
 568              		.cfi_def_cfa_register 6
 569 0004 53       		pushq	%rbx
 570 0005 4883EC18 		subq	$24, %rsp
 571              		.cfi_offset 3, -24
 572 0009 48897DE8 		movq	%rdi, -24(%rbp)
 573              	.LBB8:
 574              		.loc 6 15 0
 575 000d 488B5DE8 		movq	-24(%rbp), %rbx
 576 0011 E8000000 		call	_ZN13UnitTestSuite12GetSuiteNameEv
 576      00
 577 0016 41B80F00 		movl	$15, %r8d
 577      0000
 578 001c 488D0D00 		leaq	.LC2(%rip), %rcx
 578      000000
 579 0023 4889C2   		movq	%rax, %rdx
 580 0026 488D3500 		leaq	.LC3(%rip), %rsi
 580      000000
 581 002d 4889DF   		movq	%rbx, %rdi
 582 0030 E8000000 		call	_ZN8UnitTest4TestC2EPKcS2_S2_i@PLT
 582      00
 583 0035 488D1500 		leaq	16+_ZTVN12_GLOBAL__N_113TestDummyTestE(%rip), %rdx
 583      000000
 584 003c 488B45E8 		movq	-24(%rbp), %rax
 585 0040 488910   		movq	%rdx, (%rax)
 586              	.LBE8:
 587 0043 90       		nop
 588 0044 4883C418 		addq	$24, %rsp
 589 0048 5B       		popq	%rbx
 590 0049 5D       		popq	%rbp
 591              		.cfi_def_cfa 7, 8
 592 004a C3       		ret
 593              		.cfi_endproc
 594              	.LFE1108:
 596              		.set	_ZN12_GLOBAL__N_113TestDummyTestC1Ev,_ZN12_GLOBAL__N_113TestDummyTestC2Ev
 597              		.local	_ZN12_GLOBAL__N_121testDummyTestInstanceE
 598              		.comm	_ZN12_GLOBAL__N_121testDummyTestInstanceE,56,32
 599              		.local	_ZN12_GLOBAL__N_114adderDummyTestE
 600              		.comm	_ZN12_GLOBAL__N_114adderDummyTestE,1,1
 601 004b 90       		.align 2
 603              	_ZNK12_GLOBAL__N_113TestDummyTest7RunImplEv:
 604              	.LFB1110:
  16:TestTestMacros.cpp **** {
 605              		.loc 6 16 0
 606              		.cfi_startproc
 607 004c 55       		pushq	%rbp
 608              		.cfi_def_cfa_offset 16
 609              		.cfi_offset 6, -16
 610 004d 4889E5   		movq	%rsp, %rbp
 611              		.cfi_def_cfa_register 6
 612 0050 48897DF8 		movq	%rdi, -8(%rbp)
  17:TestTestMacros.cpp **** }
 613              		.loc 6 17 0
 614 0054 90       		nop
 615 0055 5D       		popq	%rbp
 616              		.cfi_def_cfa 7, 8
 617 0056 C3       		ret
 618              		.cfi_endproc
 619              	.LFE1110:
 621              		.section	.rodata
 622 002a 00000000 		.align 8
 622      0000
 623              	.LC4:
 624 0030 54657374 		.string	"TestsAreAddedToTheListThroughMacro"
 624      73417265 
 624      41646465 
 624      64546F54 
 624      68654C69 
 625              		.text
 626 0057 90       		.align 2
 628              	_ZN12_GLOBAL__N_138TestTestsAreAddedToTheListThroughMacroC2Ev:
 629              	.LFB1112:
  18:TestTestMacros.cpp **** 
  19:TestTestMacros.cpp **** TEST (TestsAreAddedToTheListThroughMacro)
 630              		.loc 6 19 0
 631              		.cfi_startproc
 632 0058 55       		pushq	%rbp
 633              		.cfi_def_cfa_offset 16
 634              		.cfi_offset 6, -16
 635 0059 4889E5   		movq	%rsp, %rbp
 636              		.cfi_def_cfa_register 6
 637 005c 53       		pushq	%rbx
 638 005d 4883EC18 		subq	$24, %rsp
 639              		.cfi_offset 3, -24
 640 0061 48897DE8 		movq	%rdi, -24(%rbp)
 641              	.LBB9:
 642              		.loc 6 19 0
 643 0065 488B5DE8 		movq	-24(%rbp), %rbx
 644 0069 E8000000 		call	_ZN13UnitTestSuite12GetSuiteNameEv
 644      00
 645 006e 41B81300 		movl	$19, %r8d
 645      0000
 646 0074 488D0D00 		leaq	.LC2(%rip), %rcx
 646      000000
 647 007b 4889C2   		movq	%rax, %rdx
 648 007e 488D3500 		leaq	.LC4(%rip), %rsi
 648      000000
 649 0085 4889DF   		movq	%rbx, %rdi
 650 0088 E8000000 		call	_ZN8UnitTest4TestC2EPKcS2_S2_i@PLT
 650      00
 651 008d 488D1500 		leaq	16+_ZTVN12_GLOBAL__N_138TestTestsAreAddedToTheListThroughMacroE(%rip), %rdx
 651      000000
 652 0094 488B45E8 		movq	-24(%rbp), %rax
 653 0098 488910   		movq	%rdx, (%rax)
 654              	.LBE9:
 655 009b 90       		nop
 656 009c 4883C418 		addq	$24, %rsp
 657 00a0 5B       		popq	%rbx
 658 00a1 5D       		popq	%rbp
 659              		.cfi_def_cfa 7, 8
 660 00a2 C3       		ret
 661              		.cfi_endproc
 662              	.LFE1112:
 664              		.set	_ZN12_GLOBAL__N_138TestTestsAreAddedToTheListThroughMacroC1Ev,_ZN12_GLOBAL__N_138TestTestsAre
 665              		.local	_ZN12_GLOBAL__N_146testTestsAreAddedToTheListThroughMacroInstanceE
 666              		.comm	_ZN12_GLOBAL__N_146testTestsAreAddedToTheListThroughMacroInstanceE,56,32
 667              		.local	_ZN12_GLOBAL__N_139adderTestsAreAddedToTheListThroughMacroE
 668              		.comm	_ZN12_GLOBAL__N_139adderTestsAreAddedToTheListThroughMacroE,1,1
 669              		.section	.rodata
 670              	.LC5:
 671 0053 6C697374 		.string	"list1.GetHead() != 0"
 671      312E4765 
 671      74486561 
 671      64282920 
 671      213D2030 
 672              	.LC6:
 673 0068 6C697374 		.string	"list1.GetHead()->next == 0"
 673      312E4765 
 673      74486561 
 673      6428292D 
 673      3E6E6578 
 674 0083 00000000 		.align 8
 674      00
 675              	.LC7:
 676 0088 556E6861 		.string	"Unhandled exception in CHECK(list1.GetHead() != 0)"
 676      6E646C65 
 676      64206578 
 676      63657074 
 676      696F6E20 
 677 00bb 00000000 		.align 8
 677      00
 678              	.LC8:
 679 00c0 556E6861 		.string	"Unhandled exception in CHECK(list1.GetHead()->next == 0)"
 679      6E646C65 
 679      64206578 
 679      63657074 
 679      696F6E20 
 680              		.text
 681 00a3 90       		.align 2
 683              	_ZNK12_GLOBAL__N_138TestTestsAreAddedToTheListThroughMacro7RunImplEv:
 684              	.LFB1114:
  20:TestTestMacros.cpp **** {
 685              		.loc 6 20 0
 686              		.cfi_startproc
 687              		.cfi_personality 0x9b,DW.ref.__gxx_personality_v0
 688              		.cfi_lsda 0x1b,.LLSDA1114
 689 00a4 55       		pushq	%rbp
 690              		.cfi_def_cfa_offset 16
 691              		.cfi_offset 6, -16
 692 00a5 4889E5   		movq	%rsp, %rbp
 693              		.cfi_def_cfa_register 6
 694 00a8 53       		pushq	%rbx
 695 00a9 4883EC48 		subq	$72, %rsp
 696              		.cfi_offset 3, -24
 697 00ad 48897DB8 		movq	%rdi, -72(%rbp)
 698              		.loc 6 20 0
 699 00b1 64488B04 		movq	%fs:40, %rax
 699      25280000 
 699      00
 700 00ba 488945E8 		movq	%rax, -24(%rbp)
 701 00be 31C0     		xorl	%eax, %eax
  21:TestTestMacros.cpp ****     CHECK(list1.GetHead() != 0);
 702              		.loc 6 21 0
 703 00c0 488D3D00 		leaq	_ZN12_GLOBAL__N_15list1E(%rip), %rdi
 703      000000
 704              	.LEHB4:
 705 00c7 E8000000 		call	_ZNK8UnitTest8TestList7GetHeadEv@PLT
 705      00
 706 00cc 4885C0   		testq	%rax, %rax
 707 00cf 0F95C0   		setne	%al
 708 00d2 0FB6C0   		movzbl	%al, %eax
 709 00d5 89C7     		movl	%eax, %edi
 710 00d7 E8000000 		call	_ZN8UnitTest5CheckIbEEbT_
 710      00
 711 00dc 83F001   		xorl	$1, %eax
 712 00df 84C0     		testb	%al, %al
 713 00e1 743A     		je	.L24
 714              		.loc 6 21 0 is_stmt 0 discriminator 2
 715 00e3 E8000000 		call	_ZN8UnitTest11CurrentTest7ResultsEv@PLT
 715      00
 716 00e8 488B18   		movq	(%rax), %rbx
 717 00eb E8000000 		call	_ZN8UnitTest11CurrentTest7DetailsEv@PLT
 717      00
 718              		.loc 6 21 0 discriminator 3
 719 00f0 488B08   		movq	(%rax), %rcx
 720 00f3 488D45C0 		leaq	-64(%rbp), %rax
 721 00f7 BA150000 		movl	$21, %edx
 721      00
 722 00fc 4889CE   		movq	%rcx, %rsi
 723 00ff 4889C7   		movq	%rax, %rdi
 724 0102 E8000000 		call	_ZN8UnitTest11TestDetailsC1ERKS0_i@PLT
 724      00
 725              		.loc 6 21 0 discriminator 5
 726 0107 488D45C0 		leaq	-64(%rbp), %rax
 727 010b 488D1500 		leaq	.LC5(%rip), %rdx
 727      000000
 728 0112 4889C6   		movq	%rax, %rsi
 729 0115 4889DF   		movq	%rbx, %rdi
 730 0118 E8000000 		call	_ZN8UnitTest11TestResults13OnTestFailureERKNS_11TestDetailsEPKc@PLT
 730      00
 731              	.LEHE4:
 732              	.L24:
  22:TestTestMacros.cpp ****     CHECK(list1.GetHead()->next == 0);
 733              		.loc 6 22 0 is_stmt 1
 734 011d 488D3D00 		leaq	_ZN12_GLOBAL__N_15list1E(%rip), %rdi
 734      000000
 735              	.LEHB5:
 736 0124 E8000000 		call	_ZNK8UnitTest8TestList7GetHeadEv@PLT
 736      00
 737 0129 488B4028 		movq	40(%rax), %rax
 738 012d 4885C0   		testq	%rax, %rax
 739 0130 0F94C0   		sete	%al
 740 0133 0FB6C0   		movzbl	%al, %eax
 741 0136 89C7     		movl	%eax, %edi
 742 0138 E8000000 		call	_ZN8UnitTest5CheckIbEEbT_
 742      00
 743 013d 83F001   		xorl	$1, %eax
 744 0140 84C0     		testb	%al, %al
 745 0142 0F84FA00 		je	.L35
 745      0000
 746              		.loc 6 22 0 is_stmt 0 discriminator 2
 747 0148 E8000000 		call	_ZN8UnitTest11CurrentTest7ResultsEv@PLT
 747      00
 748 014d 488B18   		movq	(%rax), %rbx
 749 0150 E8000000 		call	_ZN8UnitTest11CurrentTest7DetailsEv@PLT
 749      00
 750              		.loc 6 22 0 discriminator 3
 751 0155 488B08   		movq	(%rax), %rcx
 752 0158 488D45C0 		leaq	-64(%rbp), %rax
 753 015c BA160000 		movl	$22, %edx
 753      00
 754 0161 4889CE   		movq	%rcx, %rsi
 755 0164 4889C7   		movq	%rax, %rdi
 756 0167 E8000000 		call	_ZN8UnitTest11TestDetailsC1ERKS0_i@PLT
 756      00
 757              		.loc 6 22 0 discriminator 5
 758 016c 488D45C0 		leaq	-64(%rbp), %rax
 759 0170 488D1500 		leaq	.LC6(%rip), %rdx
 759      000000
 760 0177 4889C6   		movq	%rax, %rsi
 761 017a 4889DF   		movq	%rbx, %rdi
 762 017d E8000000 		call	_ZN8UnitTest11TestResults13OnTestFailureERKNS_11TestDetailsEPKc@PLT
 762      00
 763              	.LEHE5:
  23:TestTestMacros.cpp **** }
 764              		.loc 6 23 0 is_stmt 1
 765 0182 E9BB0000 		jmp	.L35
 765      00
 766              	.L31:
  21:TestTestMacros.cpp ****     CHECK(list1.GetHead() != 0);
 767              		.loc 6 21 0
 768 0187 4889C7   		movq	%rax, %rdi
 769 018a E8000000 		call	__cxa_begin_catch@PLT
 769      00
 770              	.LEHB6:
 771 018f E8000000 		call	_ZN8UnitTest11CurrentTest7ResultsEv@PLT
 771      00
 772 0194 488B18   		movq	(%rax), %rbx
 773 0197 E8000000 		call	_ZN8UnitTest11CurrentTest7DetailsEv@PLT
 773      00
  21:TestTestMacros.cpp ****     CHECK(list1.GetHead() != 0);
 774              		.loc 6 21 0 is_stmt 0 discriminator 9
 775 019c 488B08   		movq	(%rax), %rcx
 776 019f 488D45C0 		leaq	-64(%rbp), %rax
 777 01a3 BA150000 		movl	$21, %edx
 777      00
 778 01a8 4889CE   		movq	%rcx, %rsi
 779 01ab 4889C7   		movq	%rax, %rdi
 780 01ae E8000000 		call	_ZN8UnitTest11TestDetailsC1ERKS0_i@PLT
 780      00
  21:TestTestMacros.cpp ****     CHECK(list1.GetHead() != 0);
 781              		.loc 6 21 0 discriminator 13
 782 01b3 488D45C0 		leaq	-64(%rbp), %rax
 783 01b7 488D1500 		leaq	.LC7(%rip), %rdx
 783      000000
 784 01be 4889C6   		movq	%rax, %rsi
 785 01c1 4889DF   		movq	%rbx, %rdi
 786 01c4 E8000000 		call	_ZN8UnitTest11TestResults13OnTestFailureERKNS_11TestDetailsEPKc@PLT
 786      00
 787              	.LEHE6:
 788              	.LEHB7:
  21:TestTestMacros.cpp ****     CHECK(list1.GetHead() != 0);
 789              		.loc 6 21 0 discriminator 15
 790 01c9 E8000000 		call	__cxa_end_catch@PLT
 790      00
 791              	.LEHE7:
 792 01ce E94AFFFF 		jmp	.L24
 792      FF
 793              	.L32:
 794 01d3 4889C3   		movq	%rax, %rbx
  21:TestTestMacros.cpp ****     CHECK(list1.GetHead() != 0);
 795              		.loc 6 21 0
 796 01d6 E8000000 		call	__cxa_end_catch@PLT
 796      00
 797 01db 4889D8   		movq	%rbx, %rax
 798 01de 4889C7   		movq	%rax, %rdi
 799              	.LEHB8:
 800 01e1 E8000000 		call	_Unwind_Resume@PLT
 800      00
 801              	.LEHE8:
 802              	.L33:
  22:TestTestMacros.cpp ****     CHECK(list1.GetHead()->next == 0);
 803              		.loc 6 22 0 is_stmt 1
 804 01e6 4889C7   		movq	%rax, %rdi
 805 01e9 E8000000 		call	__cxa_begin_catch@PLT
 805      00
 806              	.LEHB9:
 807 01ee E8000000 		call	_ZN8UnitTest11CurrentTest7ResultsEv@PLT
 807      00
 808 01f3 488B18   		movq	(%rax), %rbx
 809 01f6 E8000000 		call	_ZN8UnitTest11CurrentTest7DetailsEv@PLT
 809      00
  22:TestTestMacros.cpp ****     CHECK(list1.GetHead()->next == 0);
 810              		.loc 6 22 0 is_stmt 0 discriminator 9
 811 01fb 488B08   		movq	(%rax), %rcx
 812 01fe 488D45C0 		leaq	-64(%rbp), %rax
 813 0202 BA160000 		movl	$22, %edx
 813      00
 814 0207 4889CE   		movq	%rcx, %rsi
 815 020a 4889C7   		movq	%rax, %rdi
 816 020d E8000000 		call	_ZN8UnitTest11TestDetailsC1ERKS0_i@PLT
 816      00
  22:TestTestMacros.cpp ****     CHECK(list1.GetHead()->next == 0);
 817              		.loc 6 22 0 discriminator 13
 818 0212 488D45C0 		leaq	-64(%rbp), %rax
 819 0216 488D1500 		leaq	.LC8(%rip), %rdx
 819      000000
 820 021d 4889C6   		movq	%rax, %rsi
 821 0220 4889DF   		movq	%rbx, %rdi
 822 0223 E8000000 		call	_ZN8UnitTest11TestResults13OnTestFailureERKNS_11TestDetailsEPKc@PLT
 822      00
 823              	.LEHE9:
 824              	.LEHB10:
  22:TestTestMacros.cpp ****     CHECK(list1.GetHead()->next == 0);
 825              		.loc 6 22 0 discriminator 15
 826 0228 E8000000 		call	__cxa_end_catch@PLT
 826      00
 827              	.LEHE10:
 828              		.loc 6 23 0 is_stmt 1 discriminator 15
 829 022d EB13     		jmp	.L35
 830              	.L34:
 831 022f 4889C3   		movq	%rax, %rbx
  22:TestTestMacros.cpp ****     CHECK(list1.GetHead()->next == 0);
 832              		.loc 6 22 0
 833 0232 E8000000 		call	__cxa_end_catch@PLT
 833      00
 834 0237 4889D8   		movq	%rbx, %rax
 835 023a 4889C7   		movq	%rax, %rdi
 836              	.LEHB11:
 837 023d E8000000 		call	_Unwind_Resume@PLT
 837      00
 838              	.LEHE11:
 839              	.L35:
 840              		.loc 6 23 0
 841 0242 90       		nop
 842 0243 488B45E8 		movq	-24(%rbp), %rax
 843 0247 64483304 		xorq	%fs:40, %rax
 843      25280000 
 843      00
 844 0250 7405     		je	.L30
 845 0252 E8000000 		call	__stack_chk_fail@PLT
 845      00
 846              	.L30:
 847 0257 4883C448 		addq	$72, %rsp
 848 025b 5B       		popq	%rbx
 849 025c 5D       		popq	%rbp
 850              		.cfi_def_cfa 7, 8
 851 025d C3       		ret
 852              		.cfi_endproc
 853              	.LFE1114:
 854              		.section	.gcc_except_table,"a",@progbits
 855              		.align 4
 856              	.LLSDA1114:
 857 0000 FF       		.byte	0xff
 858 0001 9B       		.byte	0x9b
 859 0002 35       		.uleb128 .LLSDATT1114-.LLSDATTD1114
 860              	.LLSDATTD1114:
 861 0003 01       		.byte	0x1
 862 0004 2B       		.uleb128 .LLSDACSE1114-.LLSDACSB1114
 863              	.LLSDACSB1114:
 864 0005 23       		.uleb128 .LEHB4-.LFB1114
 865 0006 56       		.uleb128 .LEHE4-.LEHB4
 866 0007 E301     		.uleb128 .L31-.LFB1114
 867 0009 01       		.uleb128 0x1
 868 000a 8001     		.uleb128 .LEHB5-.LFB1114
 869 000c 5E       		.uleb128 .LEHE5-.LEHB5
 870 000d C202     		.uleb128 .L33-.LFB1114
 871 000f 01       		.uleb128 0x1
 872 0010 EB01     		.uleb128 .LEHB6-.LFB1114
 873 0012 3A       		.uleb128 .LEHE6-.LEHB6
 874 0013 AF02     		.uleb128 .L32-.LFB1114
 875 0015 00       		.uleb128 0
 876 0016 A502     		.uleb128 .LEHB7-.LFB1114
 877 0018 05       		.uleb128 .LEHE7-.LEHB7
 878 0019 00       		.uleb128 0
 879 001a 00       		.uleb128 0
 880 001b BD02     		.uleb128 .LEHB8-.LFB1114
 881 001d 05       		.uleb128 .LEHE8-.LEHB8
 882 001e 00       		.uleb128 0
 883 001f 00       		.uleb128 0
 884 0020 CA02     		.uleb128 .LEHB9-.LFB1114
 885 0022 3A       		.uleb128 .LEHE9-.LEHB9
 886 0023 8B03     		.uleb128 .L34-.LFB1114
 887 0025 00       		.uleb128 0
 888 0026 8403     		.uleb128 .LEHB10-.LFB1114
 889 0028 05       		.uleb128 .LEHE10-.LEHB10
 890 0029 00       		.uleb128 0
 891 002a 00       		.uleb128 0
 892 002b 9903     		.uleb128 .LEHB11-.LFB1114
 893 002d 05       		.uleb128 .LEHE11-.LEHB11
 894 002e 00       		.uleb128 0
 895 002f 00       		.uleb128 0
 896              	.LLSDACSE1114:
 897 0030 01       		.byte	0x1
 898 0031 00       		.byte	0
 899 0032 0000     		.align 4
 900 0034 00000000 		.long	0
 901              	
 902              	.LLSDATT1114:
 903              		.text
 905              		.section	.rodata
 906              	.LC9:
 907 00f9 4F6F7073 		.string	"Oops"
 907      00
 908              		.text
 909              		.align 2
 911              	_ZN12_GLOBAL__N_115ThrowingThingieC2Ev:
 912              	.LFB1116:
  24:TestTestMacros.cpp **** 
  25:TestTestMacros.cpp **** struct ThrowingThingie
  26:TestTestMacros.cpp **** {
  27:TestTestMacros.cpp ****     ThrowingThingie() : dummy(false)
 913              		.loc 6 27 0
 914              		.cfi_startproc
 915 025e 55       		pushq	%rbp
 916              		.cfi_def_cfa_offset 16
 917              		.cfi_offset 6, -16
 918 025f 4889E5   		movq	%rsp, %rbp
 919              		.cfi_def_cfa_register 6
 920 0262 4883EC10 		subq	$16, %rsp
 921 0266 48897DF8 		movq	%rdi, -8(%rbp)
 922              	.LBB10:
 923              		.loc 6 27 0
 924 026a 488B45F8 		movq	-8(%rbp), %rax
 925 026e C60000   		movb	$0, (%rax)
  28:TestTestMacros.cpp ****     {
  29:TestTestMacros.cpp ****         if (!dummy)
 926              		.loc 6 29 0
 927 0271 488B45F8 		movq	-8(%rbp), %rax
 928 0275 0FB600   		movzbl	(%rax), %eax
 929 0278 83F001   		xorl	$1, %eax
 930 027b 84C0     		testb	%al, %al
 931 027d 7428     		je	.L38
  30:TestTestMacros.cpp ****             throw "Oops";
 932              		.loc 6 30 0
 933 027f BF080000 		movl	$8, %edi
 933      00
 934 0284 E8000000 		call	__cxa_allocate_exception@PLT
 934      00
 935 0289 488D1500 		leaq	.LC9(%rip), %rdx
 935      000000
 936 0290 488910   		movq	%rdx, (%rax)
 937 0293 BA000000 		movl	$0, %edx
 937      00
 938 0298 488D3500 		leaq	_ZTIPKc(%rip), %rsi
 938      000000
 939 029f 4889C7   		movq	%rax, %rdi
 940 02a2 E8000000 		call	__cxa_throw@PLT
 940      00
 941              	.L38:
 942              	.LBE10:
  31:TestTestMacros.cpp ****     }
 943              		.loc 6 31 0
 944 02a7 90       		nop
 945 02a8 C9       		leave
 946              		.cfi_def_cfa 7, 8
 947 02a9 C3       		ret
 948              		.cfi_endproc
 949              	.LFE1116:
 951              		.local	_ZN12_GLOBAL__N_15list2E
 952              		.comm	_ZN12_GLOBAL__N_15list2E,16,16
 953              		.align 2
 955              	_ZN12_GLOBAL__N_134ThrowingThingieDummyTestNameHelperC2ERKN8UnitTest11TestDetailsE:
 956              	.LFB1119:
  32:TestTestMacros.cpp **** 
  33:TestTestMacros.cpp ****     bool dummy;
  34:TestTestMacros.cpp **** };
  35:TestTestMacros.cpp **** 
  36:TestTestMacros.cpp **** TestList list2;
  37:TestTestMacros.cpp **** TEST_FIXTURE_EX(ThrowingThingie, DummyTestName, list2)
 957              		.loc 6 37 0
 958              		.cfi_startproc
 959 02aa 55       		pushq	%rbp
 960              		.cfi_def_cfa_offset 16
 961              		.cfi_offset 6, -16
 962 02ab 4889E5   		movq	%rsp, %rbp
 963              		.cfi_def_cfa_register 6
 964 02ae 4883EC10 		subq	$16, %rsp
 965 02b2 48897DF8 		movq	%rdi, -8(%rbp)
 966 02b6 488975F0 		movq	%rsi, -16(%rbp)
 967              	.LBB11:
 968              		.loc 6 37 0
 969 02ba 488B45F8 		movq	-8(%rbp), %rax
 970 02be 4889C7   		movq	%rax, %rdi
 971 02c1 E898FFFF 		call	_ZN12_GLOBAL__N_115ThrowingThingieC2Ev
 971      FF
 972 02c6 488B45F8 		movq	-8(%rbp), %rax
 973 02ca 488B55F0 		movq	-16(%rbp), %rdx
 974 02ce 48895008 		movq	%rdx, 8(%rax)
 975              	.LBE11:
 976 02d2 90       		nop
 977 02d3 C9       		leave
 978              		.cfi_def_cfa 7, 8
 979 02d4 C3       		ret
 980              		.cfi_endproc
 981              	.LFE1119:
 983              		.set	_ZN12_GLOBAL__N_134ThrowingThingieDummyTestNameHelperC1ERKN8UnitTest11TestDetailsE,_ZN12_GLOB
 984              		.section	.rodata
 985              	.LC10:
 986 00fe 44756D6D 		.string	"DummyTestName"
 986      79546573 
 986      744E616D 
 986      6500
 987              		.text
 988 02d5 90       		.align 2
 990              	_ZN12_GLOBAL__N_132TestThrowingThingieDummyTestNameC2Ev:
 991              	.LFB1122:
 992              		.loc 6 37 0
 993              		.cfi_startproc
 994 02d6 55       		pushq	%rbp
 995              		.cfi_def_cfa_offset 16
 996              		.cfi_offset 6, -16
 997 02d7 4889E5   		movq	%rsp, %rbp
 998              		.cfi_def_cfa_register 6
 999 02da 53       		pushq	%rbx
 1000 02db 4883EC18 		subq	$24, %rsp
 1001              		.cfi_offset 3, -24
 1002 02df 48897DE8 		movq	%rdi, -24(%rbp)
 1003              	.LBB12:
 1004              		.loc 6 37 0
 1005 02e3 488B5DE8 		movq	-24(%rbp), %rbx
 1006 02e7 E8000000 		call	_ZN13UnitTestSuite12GetSuiteNameEv
 1006      00
 1007 02ec 41B82500 		movl	$37, %r8d
 1007      0000
 1008 02f2 488D0D00 		leaq	.LC2(%rip), %rcx
 1008      000000
 1009 02f9 4889C2   		movq	%rax, %rdx
 1010 02fc 488D3500 		leaq	.LC10(%rip), %rsi
 1010      000000
 1011 0303 4889DF   		movq	%rbx, %rdi
 1012 0306 E8000000 		call	_ZN8UnitTest4TestC2EPKcS2_S2_i@PLT
 1012      00
 1013 030b 488D1500 		leaq	16+_ZTVN12_GLOBAL__N_132TestThrowingThingieDummyTestNameE(%rip), %rdx
 1013      000000
 1014 0312 488B45E8 		movq	-24(%rbp), %rax
 1015 0316 488910   		movq	%rdx, (%rax)
 1016              	.LBE12:
 1017 0319 90       		nop
 1018 031a 4883C418 		addq	$24, %rsp
 1019 031e 5B       		popq	%rbx
 1020 031f 5D       		popq	%rbp
 1021              		.cfi_def_cfa 7, 8
 1022 0320 C3       		ret
 1023              		.cfi_endproc
 1024              	.LFE1122:
 1026              		.set	_ZN12_GLOBAL__N_132TestThrowingThingieDummyTestNameC1Ev,_ZN12_GLOBAL__N_132TestThrowingThingi
 1027              		.local	_ZN12_GLOBAL__N_140testThrowingThingieDummyTestNameInstanceE
 1028              		.comm	_ZN12_GLOBAL__N_140testThrowingThingieDummyTestNameInstanceE,56,32
 1029              		.local	_ZN12_GLOBAL__N_133adderThrowingThingieDummyTestNameE
 1030              		.comm	_ZN12_GLOBAL__N_133adderThrowingThingieDummyTestNameE,1,1
 1031              		.section	.rodata
 1032              	.LC11:
 1033 010c 556E6861 		.string	"Unhandled exception: "
 1033      6E646C65 
 1033      64206578 
 1033      63657074 
 1033      696F6E3A 
 1034 0122 00000000 		.align 8
 1034      0000
 1035              	.LC12:
 1036 0128 556E6861 		.string	"Unhandled exception while destroying fixture ThrowingThingie"
 1036      6E646C65 
 1036      64206578 
 1036      63657074 
 1036      696F6E20 
 1037 0165 000000   		.align 8
 1038              	.LC13:
 1039 0168 556E6861 		.string	"Unhandled exception while constructing fixture ThrowingThingie"
 1039      6E646C65 
 1039      64206578 
 1039      63657074 
 1039      696F6E20 
 1040              		.text
 1041 0321 90       		.align 2
 1043              	_ZNK12_GLOBAL__N_132TestThrowingThingieDummyTestName7RunImplEv:
 1044              	.LFB1124:
 1045              		.loc 6 37 0
 1046              		.cfi_startproc
 1047              		.cfi_personality 0x9b,DW.ref.__gxx_personality_v0
 1048              		.cfi_lsda 0x1b,.LLSDA1124
 1049 0322 55       		pushq	%rbp
 1050              		.cfi_def_cfa_offset 16
 1051              		.cfi_offset 6, -16
 1052 0323 4889E5   		movq	%rsp, %rbp
 1053              		.cfi_def_cfa_register 6
 1054 0326 4155     		pushq	%r13
 1055 0328 4154     		pushq	%r12
 1056 032a 53       		pushq	%rbx
 1057 032b 4881ECF8 		subq	$504, %rsp
 1057      010000
 1058              		.cfi_offset 13, -24
 1059              		.cfi_offset 12, -32
 1060              		.cfi_offset 3, -40
 1061 0332 4889BDF8 		movq	%rdi, -520(%rbp)
 1061      FDFFFF
 1062              		.loc 6 37 0
 1063 0339 64488B04 		movq	%fs:40, %rax
 1063      25280000 
 1063      00
 1064 0342 488945D8 		movq	%rax, -40(%rbp)
 1065 0346 31C0     		xorl	%eax, %eax
 1066 0348 C6850FFE 		movb	$0, -497(%rbp)
 1066      FFFF00
 1067              	.LBB13:
 1068 034f 488B85F8 		movq	-520(%rbp), %rax
 1068      FDFFFF
 1069 0356 488D5008 		leaq	8(%rax), %rdx
 1070 035a 488D8520 		leaq	-480(%rbp), %rax
 1070      FEFFFF
 1071 0361 4889D6   		movq	%rdx, %rsi
 1072 0364 4889C7   		movq	%rax, %rdi
 1073              	.LEHB12:
 1074 0367 E83EFFFF 		call	_ZN12_GLOBAL__N_134ThrowingThingieDummyTestNameHelperC1ERKN8UnitTest11TestDetailsE
 1074      FF
 1075              		.loc 6 37 0 is_stmt 0 discriminator 1
 1076 036c C6850FFE 		movb	$1, -497(%rbp)
 1076      FFFF01
 1077 0373 488B85F8 		movq	-520(%rbp), %rax
 1077      FDFFFF
 1078 037a 488D5008 		leaq	8(%rax), %rdx
 1079 037e 488D8520 		leaq	-480(%rbp), %rax
 1079      FEFFFF
 1080 0385 4889D6   		movq	%rdx, %rsi
 1081 0388 4889C7   		movq	%rax, %rdi
 1082 038b E8F62C00 		call	_ZN8UnitTest11ExecuteTestIN12_GLOBAL__N_134ThrowingThingieDummyTestNameHelperEEEvRT_RKNS_11Te
 1082      00
 1083              	.LEHE12:
 1084              	.LBE13:
 1085              		.loc 6 37 0
 1086 0390 E94C0200 		jmp	.L41
 1086      00
 1087              	.L54:
 1088 0395 4883FA01 		cmpq	$1, %rdx
 1089 0399 740F     		je	.L44
 1090 039b 4883FA02 		cmpq	$2, %rdx
 1091 039f 0F84A700 		je	.L45
 1091      0000
 1092 03a5 E94A0100 		jmp	.L59
 1092      00
 1093              	.L44:
 1094              	.LBB14:
 1095 03aa 4889C7   		movq	%rax, %rdi
 1096 03ad E8000000 		call	__cxa_begin_catch@PLT
 1096      00
 1097 03b2 48898518 		movq	%rax, -488(%rbp)
 1097      FEFFFF
 1098              	.LEHB13:
 1099 03b9 E8000000 		call	_ZN8UnitTest11CurrentTest7ResultsEv@PLT
 1099      00
 1100 03be 488B18   		movq	(%rax), %rbx
 1101 03c1 488B8518 		movq	-488(%rbp), %rax
 1101      FEFFFF
 1102 03c8 488B00   		movq	(%rax), %rax
 1103 03cb 4883C010 		addq	$16, %rax
 1104 03cf 488B00   		movq	(%rax), %rax
 1105 03d2 488B9518 		movq	-488(%rbp), %rdx
 1105      FEFFFF
 1106 03d9 4889D7   		movq	%rdx, %rdi
 1107 03dc FFD0     		call	*%rax
 1108              	.LVL0:
 1109 03de 4989C4   		movq	%rax, %r12
 1110 03e1 488B8518 		movq	-488(%rbp), %rax
 1110      FEFFFF
 1111 03e8 4889C7   		movq	%rax, %rdi
 1112 03eb E8000000 		call	_ZNK8UnitTest15AssertException10LineNumberEv@PLT
 1112      00
 1113              		.loc 6 37 0 discriminator 3
 1114 03f0 4189C5   		movl	%eax, %r13d
 1115 03f3 488B8518 		movq	-488(%rbp), %rax
 1115      FEFFFF
 1116 03fa 4889C7   		movq	%rax, %rdi
 1117 03fd E8000000 		call	_ZNK8UnitTest15AssertException8FilenameEv@PLT
 1117      00
 1118              		.loc 6 37 0 discriminator 5
 1119 0402 4889C1   		movq	%rax, %rcx
 1120 0405 488B85F8 		movq	-520(%rbp), %rax
 1120      FDFFFF
 1121 040c 488B5008 		movq	8(%rax), %rdx
 1122 0410 488B85F8 		movq	-520(%rbp), %rax
 1122      FDFFFF
 1123 0417 488B7010 		movq	16(%rax), %rsi
 1124 041b 488D8520 		leaq	-480(%rbp), %rax
 1124      FEFFFF
 1125 0422 4589E8   		movl	%r13d, %r8d
 1126 0425 4889C7   		movq	%rax, %rdi
 1127 0428 E8000000 		call	_ZN8UnitTest11TestDetailsC1EPKcS2_S2_i@PLT
 1127      00
 1128              		.loc 6 37 0 discriminator 9
 1129 042d 488D8520 		leaq	-480(%rbp), %rax
 1129      FEFFFF
 1130 0434 4C89E2   		movq	%r12, %rdx
 1131 0437 4889C6   		movq	%rax, %rsi
 1132 043a 4889DF   		movq	%rbx, %rdi
 1133 043d E8000000 		call	_ZN8UnitTest11TestResults13OnTestFailureERKNS_11TestDetailsEPKc@PLT
 1133      00
 1134              	.LEHE13:
 1135              		.loc 6 37 0 discriminator 11
 1136 0442 E8000000 		call	__cxa_end_catch@PLT
 1136      00
 1137              	.LBE14:
 1138 0447 E9950100 		jmp	.L41
 1138      00
 1139              	.L45:
 1140              	.LBB15:
 1141              		.loc 6 37 0
 1142 044c 4889C7   		movq	%rax, %rdi
 1143 044f E8000000 		call	__cxa_begin_catch@PLT
 1143      00
 1144 0454 48898510 		movq	%rax, -496(%rbp)
 1144      FEFFFF
 1145              	.LBB16:
 1146 045b 488D8540 		leaq	-448(%rbp), %rax
 1146      FEFFFF
 1147 0462 4889C7   		movq	%rax, %rdi
 1148              	.LEHB14:
 1149 0465 E8000000 		call	_ZN8UnitTest15MemoryOutStreamC1Ev
 1149      00
 1150              	.LEHE14:
 1151              		.loc 6 37 0 discriminator 13
 1152 046a 488D8540 		leaq	-448(%rbp), %rax
 1152      FEFFFF
 1153 0471 488D3500 		leaq	.LC11(%rip), %rsi
 1153      000000
 1154 0478 4889C7   		movq	%rax, %rdi
 1155              	.LEHB15:
 1156 047b E8000000 		call	_ZStlsISt11char_traitsIcEERSt13basic_ostreamIcT_ES5_PKc@PLT
 1156      00
 1157 0480 4889C3   		movq	%rax, %rbx
 1158 0483 488B8510 		movq	-496(%rbp), %rax
 1158      FEFFFF
 1159 048a 488B00   		movq	(%rax), %rax
 1160 048d 4883C010 		addq	$16, %rax
 1161 0491 488B00   		movq	(%rax), %rax
 1162 0494 488B9510 		movq	-496(%rbp), %rdx
 1162      FEFFFF
 1163 049b 4889D7   		movq	%rdx, %rdi
 1164 049e FFD0     		call	*%rax
 1165              	.LVL1:
 1166 04a0 4889C6   		movq	%rax, %rsi
 1167 04a3 4889DF   		movq	%rbx, %rdi
 1168 04a6 E8000000 		call	_ZStlsISt11char_traitsIcEERSt13basic_ostreamIcT_ES5_PKc@PLT
 1168      00
 1169              		.loc 6 37 0 discriminator 17
 1170 04ab E8000000 		call	_ZN8UnitTest11CurrentTest7ResultsEv@PLT
 1170      00
 1171 04b0 488B18   		movq	(%rax), %rbx
 1172 04b3 488D8540 		leaq	-448(%rbp), %rax
 1172      FEFFFF
 1173 04ba 4889C7   		movq	%rax, %rdi
 1174 04bd E8000000 		call	_ZNK8UnitTest15MemoryOutStream7GetTextEv@PLT
 1174      00
 1175              		.loc 6 37 0 discriminator 19
 1176 04c2 4889C2   		movq	%rax, %rdx
 1177 04c5 488B85F8 		movq	-520(%rbp), %rax
 1177      FDFFFF
 1178 04cc 4883C008 		addq	$8, %rax
 1179 04d0 4889C6   		movq	%rax, %rsi
 1180 04d3 4889DF   		movq	%rbx, %rdi
 1181 04d6 E8000000 		call	_ZN8UnitTest11TestResults13OnTestFailureERKNS_11TestDetailsEPKc@PLT
 1181      00
 1182              	.LEHE15:
 1183              		.loc 6 37 0 discriminator 23
 1184 04db 488D8540 		leaq	-448(%rbp), %rax
 1184      FEFFFF
 1185 04e2 4889C7   		movq	%rax, %rdi
 1186              	.LEHB16:
 1187 04e5 E8000000 		call	_ZN8UnitTest15MemoryOutStreamD1Ev
 1187      00
 1188              	.LEHE16:
 1189              	.LBE16:
 1190              		.loc 6 37 0 discriminator 24
 1191 04ea E8000000 		call	__cxa_end_catch@PLT
 1191      00
 1192              	.LBE15:
 1193 04ef E9ED0000 		jmp	.L41
 1193      00
 1194              	.L59:
 1195              		.loc 6 37 0
 1196 04f4 4889C7   		movq	%rax, %rdi
 1197 04f7 E8000000 		call	__cxa_begin_catch@PLT
 1197      00
 1198 04fc 80BD0FFE 		cmpb	$0, -497(%rbp)
 1198      FFFF00
 1199 0503 7445     		je	.L47
 1200              	.LEHB17:
 1201              		.loc 6 37 0 discriminator 26
 1202 0505 E8000000 		call	_ZN8UnitTest11CurrentTest7ResultsEv@PLT
 1202      00
 1203 050a 488B18   		movq	(%rax), %rbx
 1204 050d 488B85F8 		movq	-520(%rbp), %rax
 1204      FDFFFF
 1205 0514 488D4808 		leaq	8(%rax), %rcx
 1206 0518 488D8520 		leaq	-480(%rbp), %rax
 1206      FEFFFF
 1207 051f BA250000 		movl	$37, %edx
 1207      00
 1208 0524 4889CE   		movq	%rcx, %rsi
 1209 0527 4889C7   		movq	%rax, %rdi
 1210 052a E8000000 		call	_ZN8UnitTest11TestDetailsC1ERKS0_i@PLT
 1210      00
 1211              		.loc 6 37 0 discriminator 31
 1212 052f 488D8520 		leaq	-480(%rbp), %rax
 1212      FEFFFF
 1213 0536 488D1500 		leaq	.LC12(%rip), %rdx
 1213      000000
 1214 053d 4889C6   		movq	%rax, %rsi
 1215 0540 4889DF   		movq	%rbx, %rdi
 1216 0543 E8000000 		call	_ZN8UnitTest11TestResults13OnTestFailureERKNS_11TestDetailsEPKc@PLT
 1216      00
 1217 0548 EB43     		jmp	.L48
 1218              	.L47:
 1219              		.loc 6 37 0 discriminator 27
 1220 054a E8000000 		call	_ZN8UnitTest11CurrentTest7ResultsEv@PLT
 1220      00
 1221 054f 488B18   		movq	(%rax), %rbx
 1222 0552 488B85F8 		movq	-520(%rbp), %rax
 1222      FDFFFF
 1223 0559 488D4808 		leaq	8(%rax), %rcx
 1224 055d 488D8520 		leaq	-480(%rbp), %rax
 1224      FEFFFF
 1225 0564 BA250000 		movl	$37, %edx
 1225      00
 1226 0569 4889CE   		movq	%rcx, %rsi
 1227 056c 4889C7   		movq	%rax, %rdi
 1228 056f E8000000 		call	_ZN8UnitTest11TestDetailsC1ERKS0_i@PLT
 1228      00
 1229              		.loc 6 37 0 discriminator 38
 1230 0574 488D8520 		leaq	-480(%rbp), %rax
 1230      FEFFFF
 1231 057b 488D1500 		leaq	.LC13(%rip), %rdx
 1231      000000
 1232 0582 4889C6   		movq	%rax, %rsi
 1233 0585 4889DF   		movq	%rbx, %rdi
 1234 0588 E8000000 		call	_ZN8UnitTest11TestResults13OnTestFailureERKNS_11TestDetailsEPKc@PLT
 1234      00
 1235              	.LEHE17:
 1236              	.L48:
 1237              	.LEHB18:
 1238              		.loc 6 37 0 discriminator 41
 1239 058d E8000000 		call	__cxa_end_catch@PLT
 1239      00
 1240 0592 EB4D     		jmp	.L41
 1241              	.L55:
 1242 0594 4889C3   		movq	%rax, %rbx
 1243              	.LBB18:
 1244              		.loc 6 37 0
 1245 0597 E8000000 		call	__cxa_end_catch@PLT
 1245      00
 1246 059c 4889D8   		movq	%rbx, %rax
 1247 059f 4889C7   		movq	%rax, %rdi
 1248 05a2 E8000000 		call	_Unwind_Resume@PLT
 1248      00
 1249              	.LEHE18:
 1250              	.L57:
 1251 05a7 4889C3   		movq	%rax, %rbx
 1252              	.LBE18:
 1253              	.LBB19:
 1254              	.LBB17:
 1255 05aa 488D8540 		leaq	-448(%rbp), %rax
 1255      FEFFFF
 1256 05b1 4889C7   		movq	%rax, %rdi
 1257 05b4 E8000000 		call	_ZN8UnitTest15MemoryOutStreamD1Ev
 1257      00
 1258 05b9 EB03     		jmp	.L51
 1259              	.L56:
 1260 05bb 4889C3   		movq	%rax, %rbx
 1261              	.L51:
 1262              	.LBE17:
 1263 05be E8000000 		call	__cxa_end_catch@PLT
 1263      00
 1264 05c3 4889D8   		movq	%rbx, %rax
 1265 05c6 4889C7   		movq	%rax, %rdi
 1266              	.LEHB19:
 1267 05c9 E8000000 		call	_Unwind_Resume@PLT
 1267      00
 1268              	.LEHE19:
 1269              	.L58:
 1270 05ce 4889C3   		movq	%rax, %rbx
 1271              	.LBE19:
 1272 05d1 E8000000 		call	__cxa_end_catch@PLT
 1272      00
 1273 05d6 4889D8   		movq	%rbx, %rax
 1274 05d9 4889C7   		movq	%rax, %rdi
 1275              	.LEHB20:
 1276 05dc E8000000 		call	_Unwind_Resume@PLT
 1276      00
 1277              	.LEHE20:
 1278              	.L41:
 1279 05e1 488B45D8 		movq	-40(%rbp), %rax
 1280 05e5 64483304 		xorq	%fs:40, %rax
 1280      25280000 
 1280      00
 1281 05ee 7405     		je	.L53
 1282 05f0 E8000000 		call	__stack_chk_fail@PLT
 1282      00
 1283              	.L53:
 1284 05f5 4881C4F8 		addq	$504, %rsp
 1284      010000
 1285 05fc 5B       		popq	%rbx
 1286 05fd 415C     		popq	%r12
 1287 05ff 415D     		popq	%r13
 1288 0601 5D       		popq	%rbp
 1289              		.cfi_def_cfa 7, 8
 1290 0602 C3       		ret
 1291              		.cfi_endproc
 1292              	.LFE1124:
 1293              		.section	.gcc_except_table
 1294              		.align 4
 1295              	.LLSDA1124:
 1296 0038 FF       		.byte	0xff
 1297 0039 9B       		.byte	0x9b
 1298 003a 49       		.uleb128 .LLSDATT1124-.LLSDATTD1124
 1299              	.LLSDATTD1124:
 1300 003b 01       		.byte	0x1
 1301 003c 33       		.uleb128 .LLSDACSE1124-.LLSDACSB1124
 1302              	.LLSDACSB1124:
 1303 003d 45       		.uleb128 .LEHB12-.LFB1124
 1304 003e 29       		.uleb128 .LEHE12-.LEHB12
 1305 003f 73       		.uleb128 .L54-.LFB1124
 1306 0040 05       		.uleb128 0x5
 1307 0041 9701     		.uleb128 .LEHB13-.LFB1124
 1308 0043 8901     		.uleb128 .LEHE13-.LEHB13
 1309 0045 F204     		.uleb128 .L55-.LFB1124
 1310 0047 00       		.uleb128 0
 1311 0048 C302     		.uleb128 .LEHB14-.LFB1124
 1312 004a 05       		.uleb128 .LEHE14-.LEHB14
 1313 004b 9905     		.uleb128 .L56-.LFB1124
 1314 004d 00       		.uleb128 0
 1315 004e D902     		.uleb128 .LEHB15-.LFB1124
 1316 0050 60       		.uleb128 .LEHE15-.LEHB15
 1317 0051 8505     		.uleb128 .L57-.LFB1124
 1318 0053 00       		.uleb128 0
 1319 0054 C303     		.uleb128 .LEHB16-.LFB1124
 1320 0056 05       		.uleb128 .LEHE16-.LEHB16
 1321 0057 9905     		.uleb128 .L56-.LFB1124
 1322 0059 00       		.uleb128 0
 1323 005a E303     		.uleb128 .LEHB17-.LFB1124
 1324 005c 8801     		.uleb128 .LEHE17-.LEHB17
 1325 005e AC05     		.uleb128 .L58-.LFB1124
 1326 0060 00       		.uleb128 0
 1327 0061 EB04     		.uleb128 .LEHB18-.LFB1124
 1328 0063 1A       		.uleb128 .LEHE18-.LEHB18
 1329 0064 00       		.uleb128 0
 1330 0065 00       		.uleb128 0
 1331 0066 A705     		.uleb128 .LEHB19-.LFB1124
 1332 0068 05       		.uleb128 .LEHE19-.LEHB19
 1333 0069 00       		.uleb128 0
 1334 006a 00       		.uleb128 0
 1335 006b BA05     		.uleb128 .LEHB20-.LFB1124
 1336 006d 05       		.uleb128 .LEHE20-.LEHB20
 1337 006e 00       		.uleb128 0
 1338 006f 00       		.uleb128 0
 1339              	.LLSDACSE1124:
 1340 0070 03       		.byte	0x3
 1341 0071 00       		.byte	0
 1342 0072 02       		.byte	0x2
 1343 0073 7D       		.byte	0x7d
 1344 0074 01       		.byte	0x1
 1345 0075 7D       		.byte	0x7d
 1346 0076 0000     		.align 4
 1347 0078 00000000 		.long	0
 1348              	
 1349 007c 00000000 		.long	DW.ref._ZTISt9exception-.
 1350 0080 00000000 		.long	DW.ref._ZTIN8UnitTest15AssertExceptionE-.
 1351              	.LLSDATT1124:
 1352              		.text
 1354 0603 90       		.align 2
 1356              	_ZN12_GLOBAL__N_134ThrowingThingieDummyTestNameHelper7RunImplEv:
 1357              	.LFB1125:
  38:TestTestMacros.cpp **** {
 1358              		.loc 6 38 0 is_stmt 1
 1359              		.cfi_startproc
 1360 0604 55       		pushq	%rbp
 1361              		.cfi_def_cfa_offset 16
 1362              		.cfi_offset 6, -16
 1363 0605 4889E5   		movq	%rsp, %rbp
 1364              		.cfi_def_cfa_register 6
 1365 0608 48897DF8 		movq	%rdi, -8(%rbp)
  39:TestTestMacros.cpp **** }
 1366              		.loc 6 39 0
 1367 060c 90       		nop
 1368 060d 5D       		popq	%rbp
 1369              		.cfi_def_cfa 7, 8
 1370 060e C3       		ret
 1371              		.cfi_endproc
 1372              	.LFE1125:
 1374              		.section	.rodata
 1375 01a7 00       		.align 8
 1376              	.LC14:
 1377 01a8 45786365 		.string	"ExceptionsInFixtureAreReportedAsHappeningInTheFixture"
 1377      7074696F 
 1377      6E73496E 
 1377      46697874 
 1377      75726541 
 1378              		.text
 1379 060f 90       		.align 2
 1381              	_ZN12_GLOBAL__N_157TestExceptionsInFixtureAreReportedAsHappeningInTheFixtureC2Ev:
 1382              	.LFB1127:
  40:TestTestMacros.cpp **** 
  41:TestTestMacros.cpp **** TEST (ExceptionsInFixtureAreReportedAsHappeningInTheFixture)
 1383              		.loc 6 41 0
 1384              		.cfi_startproc
 1385 0610 55       		pushq	%rbp
 1386              		.cfi_def_cfa_offset 16
 1387              		.cfi_offset 6, -16
 1388 0611 4889E5   		movq	%rsp, %rbp
 1389              		.cfi_def_cfa_register 6
 1390 0614 53       		pushq	%rbx
 1391 0615 4883EC18 		subq	$24, %rsp
 1392              		.cfi_offset 3, -24
 1393 0619 48897DE8 		movq	%rdi, -24(%rbp)
 1394              	.LBB20:
 1395              		.loc 6 41 0
 1396 061d 488B5DE8 		movq	-24(%rbp), %rbx
 1397 0621 E8000000 		call	_ZN13UnitTestSuite12GetSuiteNameEv
 1397      00
 1398 0626 41B82900 		movl	$41, %r8d
 1398      0000
 1399 062c 488D0D00 		leaq	.LC2(%rip), %rcx
 1399      000000
 1400 0633 4889C2   		movq	%rax, %rdx
 1401 0636 488D3500 		leaq	.LC14(%rip), %rsi
 1401      000000
 1402 063d 4889DF   		movq	%rbx, %rdi
 1403 0640 E8000000 		call	_ZN8UnitTest4TestC2EPKcS2_S2_i@PLT
 1403      00
 1404 0645 488D1500 		leaq	16+_ZTVN12_GLOBAL__N_157TestExceptionsInFixtureAreReportedAsHappeningInTheFixtureE(%rip), %rd
 1404      000000
 1405 064c 488B45E8 		movq	-24(%rbp), %rax
 1406 0650 488910   		movq	%rdx, (%rax)
 1407              	.LBE20:
 1408 0653 90       		nop
 1409 0654 4883C418 		addq	$24, %rsp
 1410 0658 5B       		popq	%rbx
 1411 0659 5D       		popq	%rbp
 1412              		.cfi_def_cfa 7, 8
 1413 065a C3       		ret
 1414              		.cfi_endproc
 1415              	.LFE1127:
 1417              		.set	_ZN12_GLOBAL__N_157TestExceptionsInFixtureAreReportedAsHappeningInTheFixtureC1Ev,_ZN12_GLOBAL
 1418              		.local	_ZN12_GLOBAL__N_165testExceptionsInFixtureAreReportedAsHappeningInTheFixtureInstanceE
 1419              		.comm	_ZN12_GLOBAL__N_165testExceptionsInFixtureAreReportedAsHappeningInTheFixtureInstanceE,56,32
 1420              		.local	_ZN12_GLOBAL__N_158adderExceptionsInFixtureAreReportedAsHappeningInTheFixtureE
 1421              		.comm	_ZN12_GLOBAL__N_158adderExceptionsInFixtureAreReportedAsHappeningInTheFixtureE,1,1
 1422              		.section	.rodata
 1423              	.LC15:
 1424 01de 78636570 		.string	"xception"
 1424      74696F6E 
 1424      00
 1425 01e7 00       		.align 8
 1426              	.LC16:
 1427 01e8 73747273 		.string	"strstr(reporter.lastFailedMessage, \"xception\")"
 1427      74722872 
 1427      65706F72 
 1427      7465722E 
 1427      6C617374 
 1428              	.LC17:
 1429 0217 66697874 		.string	"fixture"
 1429      75726500 
 1430 021f 00       		.align 8
 1431              	.LC18:
 1432 0220 73747273 		.string	"strstr(reporter.lastFailedMessage, \"fixture\")"
 1432      74722872 
 1432      65706F72 
 1432      7465722E 
 1432      6C617374 
 1433              	.LC19:
 1434 024e 5468726F 		.string	"ThrowingThingie"
 1434      77696E67 
 1434      5468696E 
 1434      67696500 
 1435 025e 0000     		.align 8
 1436              	.LC20:
 1437 0260 73747273 		.string	"strstr(reporter.lastFailedMessage, \"ThrowingThingie\")"
 1437      74722872 
 1437      65706F72 
 1437      7465722E 
 1437      6C617374 
 1438 0296 0000     		.align 8
 1439              	.LC21:
 1440 0298 556E6861 		.string	"Unhandled exception in CHECK(strstr(reporter.lastFailedMessage, \"xception\"))"
 1440      6E646C65 
 1440      64206578 
 1440      63657074 
 1440      696F6E20 
 1441 02e5 000000   		.align 8
 1442              	.LC22:
 1443 02e8 556E6861 		.string	"Unhandled exception in CHECK(strstr(reporter.lastFailedMessage, \"fixture\"))"
 1443      6E646C65 
 1443      64206578 
 1443      63657074 
 1443      696F6E20 
 1444 0334 00000000 		.align 8
 1445              	.LC23:
 1446 0338 556E6861 		.string	"Unhandled exception in CHECK(strstr(reporter.lastFailedMessage, \"ThrowingThingie\"))"
 1446      6E646C65 
 1446      64206578 
 1446      63657074 
 1446      696F6E20 
 1447              		.text
 1448 065b 90       		.align 2
 1450              	_ZNK12_GLOBAL__N_157TestExceptionsInFixtureAreReportedAsHappeningInTheFixture7RunImplEv:
 1451              	.LFB1129:
  42:TestTestMacros.cpp **** {
 1452              		.loc 6 42 0
 1453              		.cfi_startproc
 1454              		.cfi_personality 0x9b,DW.ref.__gxx_personality_v0
 1455              		.cfi_lsda 0x1b,.LLSDA1129
 1456 065c 55       		pushq	%rbp
 1457              		.cfi_def_cfa_offset 16
 1458              		.cfi_offset 6, -16
 1459 065d 4889E5   		movq	%rsp, %rbp
 1460              		.cfi_def_cfa_register 6
 1461 0660 53       		pushq	%rbx
 1462 0661 4881EC98 		subq	$2200, %rsp
 1462      080000
 1463              		.cfi_offset 3, -24
 1464 0668 4889BD68 		movq	%rdi, -2200(%rbp)
 1464      F7FFFF
 1465              		.loc 6 42 0
 1466 066f 64488B04 		movq	%fs:40, %rax
 1466      25280000 
 1466      00
 1467 0678 488945E8 		movq	%rax, -24(%rbp)
 1468 067c 31C0     		xorl	%eax, %eax
  43:TestTestMacros.cpp ****     RecordingReporter reporter;
 1469              		.loc 6 43 0
 1470 067e 488D85B0 		leaq	-2128(%rbp), %rax
 1470      F7FFFF
 1471 0685 4889C7   		movq	%rax, %rdi
 1472 0688 E8000000 		call	_ZN17RecordingReporterC1Ev
 1472      00
  44:TestTestMacros.cpp ****     TestResults result(&reporter);
 1473              		.loc 6 44 0
 1474 068d 488D95B0 		leaq	-2128(%rbp), %rdx
 1474      F7FFFF
 1475 0694 488D8570 		leaq	-2192(%rbp), %rax
 1475      F7FFFF
 1476 069b 4889D6   		movq	%rdx, %rsi
 1477 069e 4889C7   		movq	%rax, %rdi
 1478              	.LEHB21:
 1479 06a1 E8000000 		call	_ZN8UnitTest11TestResultsC1EPNS_12TestReporterE@PLT
 1479      00
 1480              	.LBB21:
  45:TestTestMacros.cpp **** 	{
  46:TestTestMacros.cpp **** 		ScopedCurrentTest scopedResults(result);
 1481              		.loc 6 46 0
 1482 06a6 488D8D70 		leaq	-2192(%rbp), %rcx
 1482      F7FFFF
 1483 06ad 488D8590 		leaq	-2160(%rbp), %rax
 1483      F7FFFF
 1484 06b4 BA000000 		movl	$0, %edx
 1484      00
 1485 06b9 4889CE   		movq	%rcx, %rsi
 1486 06bc 4889C7   		movq	%rax, %rdi
 1487 06bf E8000000 		call	_ZN17ScopedCurrentTestC1ERN8UnitTest11TestResultsEPKNS0_11TestDetailsE
 1487      00
 1488              	.LEHE21:
  47:TestTestMacros.cpp **** 		list2.GetHead()->Run();
 1489              		.loc 6 47 0
 1490 06c4 488D3D00 		leaq	_ZN12_GLOBAL__N_15list2E(%rip), %rdi
 1490      000000
 1491              	.LEHB22:
 1492 06cb E8000000 		call	_ZNK8UnitTest8TestList7GetHeadEv@PLT
 1492      00
 1493 06d0 4889C7   		movq	%rax, %rdi
 1494 06d3 E8000000 		call	_ZN8UnitTest4Test3RunEv@PLT
 1494      00
 1495              	.LEHE22:
  46:TestTestMacros.cpp **** 		list2.GetHead()->Run();
 1496              		.loc 6 46 0
 1497 06d8 488D8590 		leaq	-2160(%rbp), %rax
 1497      F7FFFF
 1498 06df 4889C7   		movq	%rax, %rdi
 1499              	.LEHB23:
 1500 06e2 E8000000 		call	_ZN17ScopedCurrentTestD1Ev
 1500      00
 1501              	.LEHE23:
 1502              	.LBE21:
  48:TestTestMacros.cpp **** 	}
  49:TestTestMacros.cpp **** 
  50:TestTestMacros.cpp ****     CHECK(strstr(reporter.lastFailedMessage, "xception"));
 1503              		.loc 6 50 0
 1504 06e7 488D85B0 		leaq	-2128(%rbp), %rax
 1504      F7FFFF
 1505 06ee 48051405 		addq	$1300, %rax
 1505      0000
 1506 06f4 488D3500 		leaq	.LC15(%rip), %rsi
 1506      000000
 1507 06fb 4889C7   		movq	%rax, %rdi
 1508 06fe E8000000 		call	strstr@PLT
 1508      00
 1509 0703 4889C7   		movq	%rax, %rdi
 1510 0706 E8000000 		call	_ZN8UnitTest5CheckIPcEEbT_
 1510      00
 1511 070b 83F001   		xorl	$1, %eax
 1512 070e 84C0     		testb	%al, %al
 1513 0710 7440     		je	.L63
 1514              	.LEHB24:
 1515              		.loc 6 50 0 is_stmt 0 discriminator 1
 1516 0712 E8000000 		call	_ZN8UnitTest11CurrentTest7ResultsEv@PLT
 1516      00
 1517 0717 488B18   		movq	(%rax), %rbx
 1518 071a E8000000 		call	_ZN8UnitTest11CurrentTest7DetailsEv@PLT
 1518      00
 1519              		.loc 6 50 0 discriminator 2
 1520 071f 488B08   		movq	(%rax), %rcx
 1521 0722 488D8590 		leaq	-2160(%rbp), %rax
 1521      F7FFFF
 1522 0729 BA320000 		movl	$50, %edx
 1522      00
 1523 072e 4889CE   		movq	%rcx, %rsi
 1524 0731 4889C7   		movq	%rax, %rdi
 1525 0734 E8000000 		call	_ZN8UnitTest11TestDetailsC1ERKS0_i@PLT
 1525      00
 1526              		.loc 6 50 0 discriminator 4
 1527 0739 488D8590 		leaq	-2160(%rbp), %rax
 1527      F7FFFF
 1528 0740 488D1500 		leaq	.LC16(%rip), %rdx
 1528      000000
 1529 0747 4889C6   		movq	%rax, %rsi
 1530 074a 4889DF   		movq	%rbx, %rdi
 1531 074d E8000000 		call	_ZN8UnitTest11TestResults13OnTestFailureERKNS_11TestDetailsEPKc@PLT
 1531      00
 1532              	.LEHE24:
 1533              	.L63:
  51:TestTestMacros.cpp ****     CHECK(strstr(reporter.lastFailedMessage, "fixture"));
 1534              		.loc 6 51 0 is_stmt 1
 1535 0752 488D85B0 		leaq	-2128(%rbp), %rax
 1535      F7FFFF
 1536 0759 48051405 		addq	$1300, %rax
 1536      0000
 1537 075f 488D3500 		leaq	.LC17(%rip), %rsi
 1537      000000
 1538 0766 4889C7   		movq	%rax, %rdi
 1539 0769 E8000000 		call	strstr@PLT
 1539      00
 1540 076e 4889C7   		movq	%rax, %rdi
 1541 0771 E8000000 		call	_ZN8UnitTest5CheckIPcEEbT_
 1541      00
 1542 0776 83F001   		xorl	$1, %eax
 1543 0779 84C0     		testb	%al, %al
 1544 077b 7440     		je	.L64
 1545              	.LEHB25:
 1546              		.loc 6 51 0 is_stmt 0 discriminator 1
 1547 077d E8000000 		call	_ZN8UnitTest11CurrentTest7ResultsEv@PLT
 1547      00
 1548 0782 488B18   		movq	(%rax), %rbx
 1549 0785 E8000000 		call	_ZN8UnitTest11CurrentTest7DetailsEv@PLT
 1549      00
 1550              		.loc 6 51 0 discriminator 2
 1551 078a 488B08   		movq	(%rax), %rcx
 1552 078d 488D8590 		leaq	-2160(%rbp), %rax
 1552      F7FFFF
 1553 0794 BA330000 		movl	$51, %edx
 1553      00
 1554 0799 4889CE   		movq	%rcx, %rsi
 1555 079c 4889C7   		movq	%rax, %rdi
 1556 079f E8000000 		call	_ZN8UnitTest11TestDetailsC1ERKS0_i@PLT
 1556      00
 1557              		.loc 6 51 0 discriminator 4
 1558 07a4 488D8590 		leaq	-2160(%rbp), %rax
 1558      F7FFFF
 1559 07ab 488D1500 		leaq	.LC18(%rip), %rdx
 1559      000000
 1560 07b2 4889C6   		movq	%rax, %rsi
 1561 07b5 4889DF   		movq	%rbx, %rdi
 1562 07b8 E8000000 		call	_ZN8UnitTest11TestResults13OnTestFailureERKNS_11TestDetailsEPKc@PLT
 1562      00
 1563              	.LEHE25:
 1564              	.L64:
  52:TestTestMacros.cpp ****     CHECK(strstr(reporter.lastFailedMessage, "ThrowingThingie"));
 1565              		.loc 6 52 0 is_stmt 1
 1566 07bd 488D85B0 		leaq	-2128(%rbp), %rax
 1566      F7FFFF
 1567 07c4 48051405 		addq	$1300, %rax
 1567      0000
 1568 07ca 488D3500 		leaq	.LC19(%rip), %rsi
 1568      000000
 1569 07d1 4889C7   		movq	%rax, %rdi
 1570 07d4 E8000000 		call	strstr@PLT
 1570      00
 1571 07d9 4889C7   		movq	%rax, %rdi
 1572 07dc E8000000 		call	_ZN8UnitTest5CheckIPcEEbT_
 1572      00
 1573 07e1 83F001   		xorl	$1, %eax
 1574 07e4 84C0     		testb	%al, %al
 1575 07e6 7440     		je	.L65
 1576              	.LEHB26:
 1577              		.loc 6 52 0 is_stmt 0 discriminator 1
 1578 07e8 E8000000 		call	_ZN8UnitTest11CurrentTest7ResultsEv@PLT
 1578      00
 1579 07ed 488B18   		movq	(%rax), %rbx
 1580 07f0 E8000000 		call	_ZN8UnitTest11CurrentTest7DetailsEv@PLT
 1580      00
 1581              		.loc 6 52 0 discriminator 2
 1582 07f5 488B08   		movq	(%rax), %rcx
 1583 07f8 488D8590 		leaq	-2160(%rbp), %rax
 1583      F7FFFF
 1584 07ff BA340000 		movl	$52, %edx
 1584      00
 1585 0804 4889CE   		movq	%rcx, %rsi
 1586 0807 4889C7   		movq	%rax, %rdi
 1587 080a E8000000 		call	_ZN8UnitTest11TestDetailsC1ERKS0_i@PLT
 1587      00
 1588              		.loc 6 52 0 discriminator 4
 1589 080f 488D8590 		leaq	-2160(%rbp), %rax
 1589      F7FFFF
 1590 0816 488D1500 		leaq	.LC20(%rip), %rdx
 1590      000000
 1591 081d 4889C6   		movq	%rax, %rsi
 1592 0820 4889DF   		movq	%rbx, %rdi
 1593 0823 E8000000 		call	_ZN8UnitTest11TestResults13OnTestFailureERKNS_11TestDetailsEPKc@PLT
 1593      00
 1594              	.LEHE26:
 1595              	.L65:
  43:TestTestMacros.cpp ****     TestResults result(&reporter);
 1596              		.loc 6 43 0 is_stmt 1
 1597 0828 488D85B0 		leaq	-2128(%rbp), %rax
 1597      F7FFFF
 1598 082f 4889C7   		movq	%rax, %rdi
 1599              	.LEHB27:
 1600 0832 E8000000 		call	_ZN17RecordingReporterD1Ev
 1600      00
 1601              	.LEHE27:
  53:TestTestMacros.cpp **** }
 1602              		.loc 6 53 0
 1603 0837 90       		nop
 1604 0838 488B45E8 		movq	-24(%rbp), %rax
 1605 083c 64483304 		xorq	%fs:40, %rax
 1605      25280000 
 1605      00
 1606 0845 0F845501 		je	.L74
 1606      0000
 1607 084b E94B0100 		jmp	.L83
 1607      00
 1608              	.L76:
 1609 0850 4889C3   		movq	%rax, %rbx
 1610              	.LBB22:
  46:TestTestMacros.cpp **** 		list2.GetHead()->Run();
 1611              		.loc 6 46 0
 1612 0853 488D8590 		leaq	-2160(%rbp), %rax
 1612      F7FFFF
 1613 085a 4889C7   		movq	%rax, %rdi
 1614 085d E8000000 		call	_ZN17ScopedCurrentTestD1Ev
 1614      00
 1615 0862 E91A0100 		jmp	.L67
 1615      00
 1616              	.L77:
 1617              	.LBE22:
  50:TestTestMacros.cpp ****     CHECK(strstr(reporter.lastFailedMessage, "fixture"));
 1618              		.loc 6 50 0
 1619 0867 4889C7   		movq	%rax, %rdi
 1620 086a E8000000 		call	__cxa_begin_catch@PLT
 1620      00
 1621              	.LEHB28:
 1622 086f E8000000 		call	_ZN8UnitTest11CurrentTest7ResultsEv@PLT
 1622      00
 1623 0874 488B18   		movq	(%rax), %rbx
 1624 0877 E8000000 		call	_ZN8UnitTest11CurrentTest7DetailsEv@PLT
 1624      00
  50:TestTestMacros.cpp ****     CHECK(strstr(reporter.lastFailedMessage, "fixture"));
 1625              		.loc 6 50 0 is_stmt 0 discriminator 8
 1626 087c 488B08   		movq	(%rax), %rcx
 1627 087f 488D8590 		leaq	-2160(%rbp), %rax
 1627      F7FFFF
 1628 0886 BA320000 		movl	$50, %edx
 1628      00
 1629 088b 4889CE   		movq	%rcx, %rsi
 1630 088e 4889C7   		movq	%rax, %rdi
 1631 0891 E8000000 		call	_ZN8UnitTest11TestDetailsC1ERKS0_i@PLT
 1631      00
  50:TestTestMacros.cpp ****     CHECK(strstr(reporter.lastFailedMessage, "fixture"));
 1632              		.loc 6 50 0 discriminator 12
 1633 0896 488D8590 		leaq	-2160(%rbp), %rax
 1633      F7FFFF
 1634 089d 488D1500 		leaq	.LC21(%rip), %rdx
 1634      000000
 1635 08a4 4889C6   		movq	%rax, %rsi
 1636 08a7 4889DF   		movq	%rbx, %rdi
 1637 08aa E8000000 		call	_ZN8UnitTest11TestResults13OnTestFailureERKNS_11TestDetailsEPKc@PLT
 1637      00
 1638              	.LEHE28:
 1639              	.LEHB29:
  50:TestTestMacros.cpp ****     CHECK(strstr(reporter.lastFailedMessage, "fixture"));
 1640              		.loc 6 50 0 discriminator 14
 1641 08af E8000000 		call	__cxa_end_catch@PLT
 1641      00
 1642              	.LEHE29:
  50:TestTestMacros.cpp ****     CHECK(strstr(reporter.lastFailedMessage, "fixture"));
 1643              		.loc 6 50 0
 1644 08b4 E999FEFF 		jmp	.L63
 1644      FF
 1645              	.L78:
 1646 08b9 4889C3   		movq	%rax, %rbx
 1647 08bc E8000000 		call	__cxa_end_catch@PLT
 1647      00
 1648 08c1 E9BB0000 		jmp	.L67
 1648      00
 1649              	.L79:
  51:TestTestMacros.cpp ****     CHECK(strstr(reporter.lastFailedMessage, "ThrowingThingie"));
 1650              		.loc 6 51 0 is_stmt 1
 1651 08c6 4889C7   		movq	%rax, %rdi
 1652 08c9 E8000000 		call	__cxa_begin_catch@PLT
 1652      00
 1653              	.LEHB30:
 1654 08ce E8000000 		call	_ZN8UnitTest11CurrentTest7ResultsEv@PLT
 1654      00
 1655 08d3 488B18   		movq	(%rax), %rbx
 1656 08d6 E8000000 		call	_ZN8UnitTest11CurrentTest7DetailsEv@PLT
 1656      00
  51:TestTestMacros.cpp ****     CHECK(strstr(reporter.lastFailedMessage, "ThrowingThingie"));
 1657              		.loc 6 51 0 is_stmt 0 discriminator 8
 1658 08db 488B08   		movq	(%rax), %rcx
 1659 08de 488D8590 		leaq	-2160(%rbp), %rax
 1659      F7FFFF
 1660 08e5 BA330000 		movl	$51, %edx
 1660      00
 1661 08ea 4889CE   		movq	%rcx, %rsi
 1662 08ed 4889C7   		movq	%rax, %rdi
 1663 08f0 E8000000 		call	_ZN8UnitTest11TestDetailsC1ERKS0_i@PLT
 1663      00
  51:TestTestMacros.cpp ****     CHECK(strstr(reporter.lastFailedMessage, "ThrowingThingie"));
 1664              		.loc 6 51 0 discriminator 12
 1665 08f5 488D8590 		leaq	-2160(%rbp), %rax
 1665      F7FFFF
 1666 08fc 488D1500 		leaq	.LC22(%rip), %rdx
 1666      000000
 1667 0903 4889C6   		movq	%rax, %rsi
 1668 0906 4889DF   		movq	%rbx, %rdi
 1669 0909 E8000000 		call	_ZN8UnitTest11TestResults13OnTestFailureERKNS_11TestDetailsEPKc@PLT
 1669      00
 1670              	.LEHE30:
 1671              	.LEHB31:
  51:TestTestMacros.cpp ****     CHECK(strstr(reporter.lastFailedMessage, "ThrowingThingie"));
 1672              		.loc 6 51 0 discriminator 14
 1673 090e E8000000 		call	__cxa_end_catch@PLT
 1673      00
 1674              	.LEHE31:
  51:TestTestMacros.cpp ****     CHECK(strstr(reporter.lastFailedMessage, "ThrowingThingie"));
 1675              		.loc 6 51 0
 1676 0913 E9A5FEFF 		jmp	.L64
 1676      FF
 1677              	.L80:
 1678 0918 4889C3   		movq	%rax, %rbx
 1679 091b E8000000 		call	__cxa_end_catch@PLT
 1679      00
 1680 0920 EB5F     		jmp	.L67
 1681              	.L81:
  52:TestTestMacros.cpp **** }
 1682              		.loc 6 52 0 is_stmt 1
 1683 0922 4889C7   		movq	%rax, %rdi
 1684 0925 E8000000 		call	__cxa_begin_catch@PLT
 1684      00
 1685              	.LEHB32:
 1686 092a E8000000 		call	_ZN8UnitTest11CurrentTest7ResultsEv@PLT
 1686      00
 1687 092f 488B18   		movq	(%rax), %rbx
 1688 0932 E8000000 		call	_ZN8UnitTest11CurrentTest7DetailsEv@PLT
 1688      00
  52:TestTestMacros.cpp **** }
 1689              		.loc 6 52 0 is_stmt 0 discriminator 8
 1690 0937 488B08   		movq	(%rax), %rcx
 1691 093a 488D8590 		leaq	-2160(%rbp), %rax
 1691      F7FFFF
 1692 0941 BA340000 		movl	$52, %edx
 1692      00
 1693 0946 4889CE   		movq	%rcx, %rsi
 1694 0949 4889C7   		movq	%rax, %rdi
 1695 094c E8000000 		call	_ZN8UnitTest11TestDetailsC1ERKS0_i@PLT
 1695      00
  52:TestTestMacros.cpp **** }
 1696              		.loc 6 52 0 discriminator 12
 1697 0951 488D8590 		leaq	-2160(%rbp), %rax
 1697      F7FFFF
 1698 0958 488D1500 		leaq	.LC23(%rip), %rdx
 1698      000000
 1699 095f 4889C6   		movq	%rax, %rsi
 1700 0962 4889DF   		movq	%rbx, %rdi
 1701 0965 E8000000 		call	_ZN8UnitTest11TestResults13OnTestFailureERKNS_11TestDetailsEPKc@PLT
 1701      00
 1702              	.LEHE32:
 1703              	.LEHB33:
  52:TestTestMacros.cpp **** }
 1704              		.loc 6 52 0 discriminator 14
 1705 096a E8000000 		call	__cxa_end_catch@PLT
 1705      00
 1706              	.LEHE33:
  52:TestTestMacros.cpp **** }
 1707              		.loc 6 52 0
 1708 096f E9B4FEFF 		jmp	.L65
 1708      FF
 1709              	.L82:
 1710 0974 4889C3   		movq	%rax, %rbx
 1711 0977 E8000000 		call	__cxa_end_catch@PLT
 1711      00
 1712 097c EB03     		jmp	.L67
 1713              	.L75:
 1714 097e 4889C3   		movq	%rax, %rbx
 1715              	.L67:
  43:TestTestMacros.cpp ****     TestResults result(&reporter);
 1716              		.loc 6 43 0 is_stmt 1
 1717 0981 488D85B0 		leaq	-2128(%rbp), %rax
 1717      F7FFFF
 1718 0988 4889C7   		movq	%rax, %rdi
 1719 098b E8000000 		call	_ZN17RecordingReporterD1Ev
 1719      00
 1720 0990 4889D8   		movq	%rbx, %rax
 1721 0993 4889C7   		movq	%rax, %rdi
 1722              	.LEHB34:
 1723 0996 E8000000 		call	_Unwind_Resume@PLT
 1723      00
 1724              	.LEHE34:
 1725              	.L83:
 1726              		.loc 6 53 0
 1727 099b E8000000 		call	__stack_chk_fail@PLT
 1727      00
 1728              	.L74:
 1729 09a0 4881C498 		addq	$2200, %rsp
 1729      080000
 1730 09a7 5B       		popq	%rbx
 1731 09a8 5D       		popq	%rbp
 1732              		.cfi_def_cfa 7, 8
 1733 09a9 C3       		ret
 1734              		.cfi_endproc
 1735              	.LFE1129:
 1736              		.section	.gcc_except_table
 1737              		.align 4
 1738              	.LLSDA1129:
 1739 0084 FF       		.byte	0xff
 1740 0085 9B       		.byte	0x9b
 1741 0086 59       		.uleb128 .LLSDATT1129-.LLSDATTD1129
 1742              	.LLSDATTD1129:
 1743 0087 01       		.byte	0x1
 1744 0088 50       		.uleb128 .LLSDACSE1129-.LLSDACSB1129
 1745              	.LLSDACSB1129:
 1746 0089 45       		.uleb128 .LEHB21-.LFB1129
 1747 008a 23       		.uleb128 .LEHE21-.LEHB21
 1748 008b A206     		.uleb128 .L75-.LFB1129
 1749 008d 00       		.uleb128 0
 1750 008e 6F       		.uleb128 .LEHB22-.LFB1129
 1751 008f 0D       		.uleb128 .LEHE22-.LEHB22
 1752 0090 F403     		.uleb128 .L76-.LFB1129
 1753 0092 00       		.uleb128 0
 1754 0093 8601     		.uleb128 .LEHB23-.LFB1129
 1755 0095 05       		.uleb128 .LEHE23-.LEHB23
 1756 0096 A206     		.uleb128 .L75-.LFB1129
 1757 0098 00       		.uleb128 0
 1758 0099 B601     		.uleb128 .LEHB24-.LFB1129
 1759 009b 40       		.uleb128 .LEHE24-.LEHB24
 1760 009c 8B04     		.uleb128 .L77-.LFB1129
 1761 009e 01       		.uleb128 0x1
 1762 009f A102     		.uleb128 .LEHB25-.LFB1129
 1763 00a1 40       		.uleb128 .LEHE25-.LEHB25
 1764 00a2 EA04     		.uleb128 .L79-.LFB1129
 1765 00a4 01       		.uleb128 0x1
 1766 00a5 8C03     		.uleb128 .LEHB26-.LFB1129
 1767 00a7 40       		.uleb128 .LEHE26-.LEHB26
 1768 00a8 C605     		.uleb128 .L81-.LFB1129
 1769 00aa 01       		.uleb128 0x1
 1770 00ab D603     		.uleb128 .LEHB27-.LFB1129
 1771 00ad 05       		.uleb128 .LEHE27-.LEHB27
 1772 00ae 00       		.uleb128 0
 1773 00af 00       		.uleb128 0
 1774 00b0 9304     		.uleb128 .LEHB28-.LFB1129
 1775 00b2 40       		.uleb128 .LEHE28-.LEHB28
 1776 00b3 DD04     		.uleb128 .L78-.LFB1129
 1777 00b5 00       		.uleb128 0
 1778 00b6 D304     		.uleb128 .LEHB29-.LFB1129
 1779 00b8 05       		.uleb128 .LEHE29-.LEHB29
 1780 00b9 A206     		.uleb128 .L75-.LFB1129
 1781 00bb 00       		.uleb128 0
 1782 00bc F204     		.uleb128 .LEHB30-.LFB1129
 1783 00be 40       		.uleb128 .LEHE30-.LEHB30
 1784 00bf BC05     		.uleb128 .L80-.LFB1129
 1785 00c1 00       		.uleb128 0
 1786 00c2 B205     		.uleb128 .LEHB31-.LFB1129
 1787 00c4 05       		.uleb128 .LEHE31-.LEHB31
 1788 00c5 A206     		.uleb128 .L75-.LFB1129
 1789 00c7 00       		.uleb128 0
 1790 00c8 CE05     		.uleb128 .LEHB32-.LFB1129
 1791 00ca 40       		.uleb128 .LEHE32-.LEHB32
 1792 00cb 9806     		.uleb128 .L82-.LFB1129
 1793 00cd 00       		.uleb128 0
 1794 00ce 8E06     		.uleb128 .LEHB33-.LFB1129
 1795 00d0 05       		.uleb128 .LEHE33-.LEHB33
 1796 00d1 A206     		.uleb128 .L75-.LFB1129
 1797 00d3 00       		.uleb128 0
 1798 00d4 BA06     		.uleb128 .LEHB34-.LFB1129
 1799 00d6 05       		.uleb128 .LEHE34-.LEHB34
 1800 00d7 00       		.uleb128 0
 1801 00d8 00       		.uleb128 0
 1802              	.LLSDACSE1129:
 1803 00d9 01       		.byte	0x1
 1804 00da 00       		.byte	0
 1805 00db 00       		.align 4
 1806 00dc 00000000 		.long	0
 1807              	
 1808              	.LLSDATT1129:
 1809              		.text
 1811              		.section	.rodata
 1812              	.LC24:
 1813 038c 54657374 		.string	"TestSuite1"
 1813      53756974 
 1813      653100
 1814              		.text
 1816              	_ZN12_GLOBAL__N_115SuiteTestSuite113UnitTestSuite12GetSuiteNameEv:
 1817              	.LFB1130:
  54:TestTestMacros.cpp **** 
  55:TestTestMacros.cpp **** struct DummyFixture
  56:TestTestMacros.cpp **** {
  57:TestTestMacros.cpp ****     int x;
  58:TestTestMacros.cpp **** };
  59:TestTestMacros.cpp **** 
  60:TestTestMacros.cpp **** // We're really testing the macros so we just want them to compile and link
  61:TestTestMacros.cpp **** SUITE(TestSuite1)
 1818              		.loc 6 61 0
 1819              		.cfi_startproc
 1820 09aa 55       		pushq	%rbp
 1821              		.cfi_def_cfa_offset 16
 1822              		.cfi_offset 6, -16
 1823 09ab 4889E5   		movq	%rsp, %rbp
 1824              		.cfi_def_cfa_register 6
 1825              		.loc 6 61 0
 1826 09ae 488D0500 		leaq	.LC24(%rip), %rax
 1826      000000
 1827 09b5 5D       		popq	%rbp
 1828              		.cfi_def_cfa 7, 8
 1829 09b6 C3       		ret
 1830              		.cfi_endproc
 1831              	.LFE1130:
 1833              		.section	.rodata
 1834 0397 00       		.align 8
 1835              	.LC25:
 1836 0398 53696D69 		.string	"SimilarlyNamedTestsInDifferentSuitesWork"
 1836      6C61726C 
 1836      794E616D 
 1836      65645465 
 1836      73747349 
 1837              		.text
 1838 09b7 90       		.align 2
 1840              	_ZN12_GLOBAL__N_115SuiteTestSuite144TestSimilarlyNamedTestsInDifferentSuitesWorkC2Ev:
 1841              	.LFB1132:
  62:TestTestMacros.cpp **** {
  63:TestTestMacros.cpp **** 	TEST(SimilarlyNamedTestsInDifferentSuitesWork)
 1842              		.loc 6 63 0
 1843              		.cfi_startproc
 1844 09b8 55       		pushq	%rbp
 1845              		.cfi_def_cfa_offset 16
 1846              		.cfi_offset 6, -16
 1847 09b9 4889E5   		movq	%rsp, %rbp
 1848              		.cfi_def_cfa_register 6
 1849 09bc 53       		pushq	%rbx
 1850 09bd 4883EC18 		subq	$24, %rsp
 1851              		.cfi_offset 3, -24
 1852 09c1 48897DE8 		movq	%rdi, -24(%rbp)
 1853              	.LBB23:
 1854              		.loc 6 63 0
 1855 09c5 488B5DE8 		movq	-24(%rbp), %rbx
 1856 09c9 E8DCFFFF 		call	_ZN12_GLOBAL__N_115SuiteTestSuite113UnitTestSuite12GetSuiteNameEv
 1856      FF
 1857 09ce 41B83F00 		movl	$63, %r8d
 1857      0000
 1858 09d4 488D0D00 		leaq	.LC2(%rip), %rcx
 1858      000000
 1859 09db 4889C2   		movq	%rax, %rdx
 1860 09de 488D3500 		leaq	.LC25(%rip), %rsi
 1860      000000
 1861 09e5 4889DF   		movq	%rbx, %rdi
 1862 09e8 E8000000 		call	_ZN8UnitTest4TestC2EPKcS2_S2_i@PLT
 1862      00
 1863 09ed 488D1500 		leaq	16+_ZTVN12_GLOBAL__N_115SuiteTestSuite144TestSimilarlyNamedTestsInDifferentSuitesWorkE(%rip),
 1863      000000
 1864 09f4 488B45E8 		movq	-24(%rbp), %rax
 1865 09f8 488910   		movq	%rdx, (%rax)
 1866              	.LBE23:
 1867 09fb 90       		nop
 1868 09fc 4883C418 		addq	$24, %rsp
 1869 0a00 5B       		popq	%rbx
 1870 0a01 5D       		popq	%rbp
 1871              		.cfi_def_cfa 7, 8
 1872 0a02 C3       		ret
 1873              		.cfi_endproc
 1874              	.LFE1132:
 1876              		.set	_ZN12_GLOBAL__N_115SuiteTestSuite144TestSimilarlyNamedTestsInDifferentSuitesWorkC1Ev,_ZN12_GL
 1877              		.local	_ZN12_GLOBAL__N_115SuiteTestSuite152testSimilarlyNamedTestsInDifferentSuitesWorkInstanceE
 1878              		.comm	_ZN12_GLOBAL__N_115SuiteTestSuite152testSimilarlyNamedTestsInDifferentSuitesWorkInstanceE,56
 1879              		.local	_ZN12_GLOBAL__N_115SuiteTestSuite145adderSimilarlyNamedTestsInDifferentSuitesWorkE
 1880              		.comm	_ZN12_GLOBAL__N_115SuiteTestSuite145adderSimilarlyNamedTestsInDifferentSuitesWorkE,1,1
 1881 0a03 90       		.align 2
 1883              	_ZNK12_GLOBAL__N_115SuiteTestSuite144TestSimilarlyNamedTestsInDifferentSuitesWork7RunImplEv:
 1884              	.LFB1134:
  64:TestTestMacros.cpp **** 	{
 1885              		.loc 6 64 0
 1886              		.cfi_startproc
 1887 0a04 55       		pushq	%rbp
 1888              		.cfi_def_cfa_offset 16
 1889              		.cfi_offset 6, -16
 1890 0a05 4889E5   		movq	%rsp, %rbp
 1891              		.cfi_def_cfa_register 6
 1892 0a08 48897DF8 		movq	%rdi, -8(%rbp)
  65:TestTestMacros.cpp **** 	}
 1893              		.loc 6 65 0
 1894 0a0c 90       		nop
 1895 0a0d 5D       		popq	%rbp
 1896              		.cfi_def_cfa 7, 8
 1897 0a0e C3       		ret
 1898              		.cfi_endproc
 1899              	.LFE1134:
 1901 0a0f 90       		.align 2
 1903              	_ZN12_GLOBAL__N_115SuiteTestSuite165DummyFixtureSimilarlyNamedFixtureTestsInDifferentSuitesWorkHelp
 1904              	.LFB1136:
  66:TestTestMacros.cpp **** 
  67:TestTestMacros.cpp **** 	TEST_FIXTURE(DummyFixture, SimilarlyNamedFixtureTestsInDifferentSuitesWork)
 1905              		.loc 6 67 0
 1906              		.cfi_startproc
 1907 0a10 55       		pushq	%rbp
 1908              		.cfi_def_cfa_offset 16
 1909              		.cfi_offset 6, -16
 1910 0a11 4889E5   		movq	%rsp, %rbp
 1911              		.cfi_def_cfa_register 6
 1912 0a14 48897DF8 		movq	%rdi, -8(%rbp)
 1913 0a18 488975F0 		movq	%rsi, -16(%rbp)
 1914              	.LBB24:
 1915              		.loc 6 67 0
 1916 0a1c 488B45F8 		movq	-8(%rbp), %rax
 1917 0a20 488B55F0 		movq	-16(%rbp), %rdx
 1918 0a24 48895008 		movq	%rdx, 8(%rax)
 1919              	.LBE24:
 1920 0a28 90       		nop
 1921 0a29 5D       		popq	%rbp
 1922              		.cfi_def_cfa 7, 8
 1923 0a2a C3       		ret
 1924              		.cfi_endproc
 1925              	.LFE1136:
 1927              		.set	_ZN12_GLOBAL__N_115SuiteTestSuite165DummyFixtureSimilarlyNamedFixtureTestsInDifferentSuitesWo
 1928              		.section	.rodata
 1929 03c1 00000000 		.align 8
 1929      000000
 1930              	.LC26:
 1931 03c8 53696D69 		.string	"SimilarlyNamedFixtureTestsInDifferentSuitesWork"
 1931      6C61726C 
 1931      794E616D 
 1931      65644669 
 1931      78747572 
 1932              		.text
 1933 0a2b 90       		.align 2
 1935              	_ZN12_GLOBAL__N_115SuiteTestSuite163TestDummyFixtureSimilarlyNamedFixtureTestsInDifferentSuitesWork
 1936              	.LFB1139:
 1937              		.loc 6 67 0
 1938              		.cfi_startproc
 1939 0a2c 55       		pushq	%rbp
 1940              		.cfi_def_cfa_offset 16
 1941              		.cfi_offset 6, -16
 1942 0a2d 4889E5   		movq	%rsp, %rbp
 1943              		.cfi_def_cfa_register 6
 1944 0a30 53       		pushq	%rbx
 1945 0a31 4883EC18 		subq	$24, %rsp
 1946              		.cfi_offset 3, -24
 1947 0a35 48897DE8 		movq	%rdi, -24(%rbp)
 1948              	.LBB25:
 1949              		.loc 6 67 0
 1950 0a39 488B5DE8 		movq	-24(%rbp), %rbx
 1951 0a3d E868FFFF 		call	_ZN12_GLOBAL__N_115SuiteTestSuite113UnitTestSuite12GetSuiteNameEv
 1951      FF
 1952 0a42 41B84300 		movl	$67, %r8d
 1952      0000
 1953 0a48 488D0D00 		leaq	.LC2(%rip), %rcx
 1953      000000
 1954 0a4f 4889C2   		movq	%rax, %rdx
 1955 0a52 488D3500 		leaq	.LC26(%rip), %rsi
 1955      000000
 1956 0a59 4889DF   		movq	%rbx, %rdi
 1957 0a5c E8000000 		call	_ZN8UnitTest4TestC2EPKcS2_S2_i@PLT
 1957      00
 1958 0a61 488D1500 		leaq	16+_ZTVN12_GLOBAL__N_115SuiteTestSuite163TestDummyFixtureSimilarlyNamedFixtureTestsInDifferen
 1958      000000
 1959 0a68 488B45E8 		movq	-24(%rbp), %rax
 1960 0a6c 488910   		movq	%rdx, (%rax)
 1961              	.LBE25:
 1962 0a6f 90       		nop
 1963 0a70 4883C418 		addq	$24, %rsp
 1964 0a74 5B       		popq	%rbx
 1965 0a75 5D       		popq	%rbp
 1966              		.cfi_def_cfa 7, 8
 1967 0a76 C3       		ret
 1968              		.cfi_endproc
 1969              	.LFE1139:
 1971              		.set	_ZN12_GLOBAL__N_115SuiteTestSuite163TestDummyFixtureSimilarlyNamedFixtureTestsInDifferentSuit
 1972              		.local	_ZN12_GLOBAL__N_115SuiteTestSuite171testDummyFixtureSimilarlyNamedFixtureTestsInDifferentSu
 1973              		.comm	_ZN12_GLOBAL__N_115SuiteTestSuite171testDummyFixtureSimilarlyNamedFixtureTestsInDifferentSui
 1974              		.local	_ZN12_GLOBAL__N_115SuiteTestSuite164adderDummyFixtureSimilarlyNamedFixtureTestsInDifferentS
 1975              		.comm	_ZN12_GLOBAL__N_115SuiteTestSuite164adderDummyFixtureSimilarlyNamedFixtureTestsInDifferentSu
 1976              		.section	.rodata
 1977              		.align 8
 1978              	.LC27:
 1979 03f8 556E6861 		.string	"Unhandled exception while destroying fixture DummyFixture"
 1979      6E646C65 
 1979      64206578 
 1979      63657074 
 1979      696F6E20 
 1980 0432 00000000 		.align 8
 1980      0000
 1981              	.LC28:
 1982 0438 556E6861 		.string	"Unhandled exception while constructing fixture DummyFixture"
 1982      6E646C65 
 1982      64206578 
 1982      63657074 
 1982      696F6E20 
 1983              		.text
 1984 0a77 90       		.align 2
 1986              	_ZNK12_GLOBAL__N_115SuiteTestSuite163TestDummyFixtureSimilarlyNamedFixtureTestsInDifferentSuitesWor
 1987              	.LFB1141:
 1988              		.loc 6 67 0
 1989              		.cfi_startproc
 1990              		.cfi_personality 0x9b,DW.ref.__gxx_personality_v0
 1991              		.cfi_lsda 0x1b,.LLSDA1141
 1992 0a78 55       		pushq	%rbp
 1993              		.cfi_def_cfa_offset 16
 1994              		.cfi_offset 6, -16
 1995 0a79 4889E5   		movq	%rsp, %rbp
 1996              		.cfi_def_cfa_register 6
 1997 0a7c 4155     		pushq	%r13
 1998 0a7e 4154     		pushq	%r12
 1999 0a80 53       		pushq	%rbx
 2000 0a81 4881ECF8 		subq	$504, %rsp
 2000      010000
 2001              		.cfi_offset 13, -24
 2002              		.cfi_offset 12, -32
 2003              		.cfi_offset 3, -40
 2004 0a88 4889BDF8 		movq	%rdi, -520(%rbp)
 2004      FDFFFF
 2005              		.loc 6 67 0
 2006 0a8f 64488B04 		movq	%fs:40, %rax
 2006      25280000 
 2006      00
 2007 0a98 488945D8 		movq	%rax, -40(%rbp)
 2008 0a9c 31C0     		xorl	%eax, %eax
 2009 0a9e C6850FFE 		movb	$0, -497(%rbp)
 2009      FFFF00
 2010              	.LBB26:
 2011 0aa5 488B85F8 		movq	-520(%rbp), %rax
 2011      FDFFFF
 2012 0aac 488D5008 		leaq	8(%rax), %rdx
 2013 0ab0 488D8520 		leaq	-480(%rbp), %rax
 2013      FEFFFF
 2014 0ab7 4889D6   		movq	%rdx, %rsi
 2015 0aba 4889C7   		movq	%rax, %rdi
 2016 0abd E84EFFFF 		call	_ZN12_GLOBAL__N_115SuiteTestSuite165DummyFixtureSimilarlyNamedFixtureTestsInDifferentSuitesWo
 2016      FF
 2017 0ac2 C6850FFE 		movb	$1, -497(%rbp)
 2017      FFFF01
 2018 0ac9 488B85F8 		movq	-520(%rbp), %rax
 2018      FDFFFF
 2019 0ad0 488D5008 		leaq	8(%rax), %rdx
 2020 0ad4 488D8520 		leaq	-480(%rbp), %rax
 2020      FEFFFF
 2021 0adb 4889D6   		movq	%rdx, %rsi
 2022 0ade 4889C7   		movq	%rax, %rdi
 2023              	.LEHB35:
 2024 0ae1 E8692800 		call	_ZN8UnitTest11ExecuteTestIN12_GLOBAL__N_115SuiteTestSuite165DummyFixtureSimilarlyNamedFixture
 2024      00
 2025              	.LEHE35:
 2026              	.LBE26:
 2027 0ae6 E94C0200 		jmp	.L90
 2027      00
 2028              	.L103:
 2029 0aeb 4883FA01 		cmpq	$1, %rdx
 2030 0aef 740F     		je	.L93
 2031 0af1 4883FA02 		cmpq	$2, %rdx
 2032 0af5 0F84A700 		je	.L94
 2032      0000
 2033 0afb E94A0100 		jmp	.L108
 2033      00
 2034              	.L93:
 2035              	.LBB27:
 2036 0b00 4889C7   		movq	%rax, %rdi
 2037 0b03 E8000000 		call	__cxa_begin_catch@PLT
 2037      00
 2038 0b08 48898518 		movq	%rax, -488(%rbp)
 2038      FEFFFF
 2039              	.LEHB36:
 2040 0b0f E8000000 		call	_ZN8UnitTest11CurrentTest7ResultsEv@PLT
 2040      00
 2041 0b14 488B18   		movq	(%rax), %rbx
 2042 0b17 488B8518 		movq	-488(%rbp), %rax
 2042      FEFFFF
 2043 0b1e 488B00   		movq	(%rax), %rax
 2044 0b21 4883C010 		addq	$16, %rax
 2045 0b25 488B00   		movq	(%rax), %rax
 2046 0b28 488B9518 		movq	-488(%rbp), %rdx
 2046      FEFFFF
 2047 0b2f 4889D7   		movq	%rdx, %rdi
 2048 0b32 FFD0     		call	*%rax
 2049              	.LVL2:
 2050 0b34 4989C4   		movq	%rax, %r12
 2051 0b37 488B8518 		movq	-488(%rbp), %rax
 2051      FEFFFF
 2052 0b3e 4889C7   		movq	%rax, %rdi
 2053 0b41 E8000000 		call	_ZNK8UnitTest15AssertException10LineNumberEv@PLT
 2053      00
 2054              		.loc 6 67 0 is_stmt 0 discriminator 2
 2055 0b46 4189C5   		movl	%eax, %r13d
 2056 0b49 488B8518 		movq	-488(%rbp), %rax
 2056      FEFFFF
 2057 0b50 4889C7   		movq	%rax, %rdi
 2058 0b53 E8000000 		call	_ZNK8UnitTest15AssertException8FilenameEv@PLT
 2058      00
 2059              		.loc 6 67 0 discriminator 4
 2060 0b58 4889C1   		movq	%rax, %rcx
 2061 0b5b 488B85F8 		movq	-520(%rbp), %rax
 2061      FDFFFF
 2062 0b62 488B5008 		movq	8(%rax), %rdx
 2063 0b66 488B85F8 		movq	-520(%rbp), %rax
 2063      FDFFFF
 2064 0b6d 488B7010 		movq	16(%rax), %rsi
 2065 0b71 488D8520 		leaq	-480(%rbp), %rax
 2065      FEFFFF
 2066 0b78 4589E8   		movl	%r13d, %r8d
 2067 0b7b 4889C7   		movq	%rax, %rdi
 2068 0b7e E8000000 		call	_ZN8UnitTest11TestDetailsC1EPKcS2_S2_i@PLT
 2068      00
 2069              		.loc 6 67 0 discriminator 8
 2070 0b83 488D8520 		leaq	-480(%rbp), %rax
 2070      FEFFFF
 2071 0b8a 4C89E2   		movq	%r12, %rdx
 2072 0b8d 4889C6   		movq	%rax, %rsi
 2073 0b90 4889DF   		movq	%rbx, %rdi
 2074 0b93 E8000000 		call	_ZN8UnitTest11TestResults13OnTestFailureERKNS_11TestDetailsEPKc@PLT
 2074      00
 2075              	.LEHE36:
 2076              		.loc 6 67 0 discriminator 10
 2077 0b98 E8000000 		call	__cxa_end_catch@PLT
 2077      00
 2078              	.LBE27:
 2079 0b9d E9950100 		jmp	.L90
 2079      00
 2080              	.L94:
 2081              	.LBB28:
 2082              		.loc 6 67 0
 2083 0ba2 4889C7   		movq	%rax, %rdi
 2084 0ba5 E8000000 		call	__cxa_begin_catch@PLT
 2084      00
 2085 0baa 48898510 		movq	%rax, -496(%rbp)
 2085      FEFFFF
 2086              	.LBB29:
 2087 0bb1 488D8540 		leaq	-448(%rbp), %rax
 2087      FEFFFF
 2088 0bb8 4889C7   		movq	%rax, %rdi
 2089              	.LEHB37:
 2090 0bbb E8000000 		call	_ZN8UnitTest15MemoryOutStreamC1Ev
 2090      00
 2091              	.LEHE37:
 2092              		.loc 6 67 0 discriminator 12
 2093 0bc0 488D8540 		leaq	-448(%rbp), %rax
 2093      FEFFFF
 2094 0bc7 488D3500 		leaq	.LC11(%rip), %rsi
 2094      000000
 2095 0bce 4889C7   		movq	%rax, %rdi
 2096              	.LEHB38:
 2097 0bd1 E8000000 		call	_ZStlsISt11char_traitsIcEERSt13basic_ostreamIcT_ES5_PKc@PLT
 2097      00
 2098 0bd6 4889C3   		movq	%rax, %rbx
 2099 0bd9 488B8510 		movq	-496(%rbp), %rax
 2099      FEFFFF
 2100 0be0 488B00   		movq	(%rax), %rax
 2101 0be3 4883C010 		addq	$16, %rax
 2102 0be7 488B00   		movq	(%rax), %rax
 2103 0bea 488B9510 		movq	-496(%rbp), %rdx
 2103      FEFFFF
 2104 0bf1 4889D7   		movq	%rdx, %rdi
 2105 0bf4 FFD0     		call	*%rax
 2106              	.LVL3:
 2107 0bf6 4889C6   		movq	%rax, %rsi
 2108 0bf9 4889DF   		movq	%rbx, %rdi
 2109 0bfc E8000000 		call	_ZStlsISt11char_traitsIcEERSt13basic_ostreamIcT_ES5_PKc@PLT
 2109      00
 2110              		.loc 6 67 0 discriminator 16
 2111 0c01 E8000000 		call	_ZN8UnitTest11CurrentTest7ResultsEv@PLT
 2111      00
 2112 0c06 488B18   		movq	(%rax), %rbx
 2113 0c09 488D8540 		leaq	-448(%rbp), %rax
 2113      FEFFFF
 2114 0c10 4889C7   		movq	%rax, %rdi
 2115 0c13 E8000000 		call	_ZNK8UnitTest15MemoryOutStream7GetTextEv@PLT
 2115      00
 2116              		.loc 6 67 0 discriminator 18
 2117 0c18 4889C2   		movq	%rax, %rdx
 2118 0c1b 488B85F8 		movq	-520(%rbp), %rax
 2118      FDFFFF
 2119 0c22 4883C008 		addq	$8, %rax
 2120 0c26 4889C6   		movq	%rax, %rsi
 2121 0c29 4889DF   		movq	%rbx, %rdi
 2122 0c2c E8000000 		call	_ZN8UnitTest11TestResults13OnTestFailureERKNS_11TestDetailsEPKc@PLT
 2122      00
 2123              	.LEHE38:
 2124              		.loc 6 67 0 discriminator 22
 2125 0c31 488D8540 		leaq	-448(%rbp), %rax
 2125      FEFFFF
 2126 0c38 4889C7   		movq	%rax, %rdi
 2127              	.LEHB39:
 2128 0c3b E8000000 		call	_ZN8UnitTest15MemoryOutStreamD1Ev
 2128      00
 2129              	.LEHE39:
 2130              	.LBE29:
 2131              		.loc 6 67 0 discriminator 23
 2132 0c40 E8000000 		call	__cxa_end_catch@PLT
 2132      00
 2133              	.LBE28:
 2134 0c45 E9ED0000 		jmp	.L90
 2134      00
 2135              	.L108:
 2136              		.loc 6 67 0
 2137 0c4a 4889C7   		movq	%rax, %rdi
 2138 0c4d E8000000 		call	__cxa_begin_catch@PLT
 2138      00
 2139 0c52 80BD0FFE 		cmpb	$0, -497(%rbp)
 2139      FFFF00
 2140 0c59 7445     		je	.L96
 2141              	.LEHB40:
 2142              		.loc 6 67 0 discriminator 25
 2143 0c5b E8000000 		call	_ZN8UnitTest11CurrentTest7ResultsEv@PLT
 2143      00
 2144 0c60 488B18   		movq	(%rax), %rbx
 2145 0c63 488B85F8 		movq	-520(%rbp), %rax
 2145      FDFFFF
 2146 0c6a 488D4808 		leaq	8(%rax), %rcx
 2147 0c6e 488D8520 		leaq	-480(%rbp), %rax
 2147      FEFFFF
 2148 0c75 BA430000 		movl	$67, %edx
 2148      00
 2149 0c7a 4889CE   		movq	%rcx, %rsi
 2150 0c7d 4889C7   		movq	%rax, %rdi
 2151 0c80 E8000000 		call	_ZN8UnitTest11TestDetailsC1ERKS0_i@PLT
 2151      00
 2152              		.loc 6 67 0 discriminator 30
 2153 0c85 488D8520 		leaq	-480(%rbp), %rax
 2153      FEFFFF
 2154 0c8c 488D1500 		leaq	.LC27(%rip), %rdx
 2154      000000
 2155 0c93 4889C6   		movq	%rax, %rsi
 2156 0c96 4889DF   		movq	%rbx, %rdi
 2157 0c99 E8000000 		call	_ZN8UnitTest11TestResults13OnTestFailureERKNS_11TestDetailsEPKc@PLT
 2157      00
 2158 0c9e EB43     		jmp	.L97
 2159              	.L96:
 2160              		.loc 6 67 0 discriminator 26
 2161 0ca0 E8000000 		call	_ZN8UnitTest11CurrentTest7ResultsEv@PLT
 2161      00
 2162 0ca5 488B18   		movq	(%rax), %rbx
 2163 0ca8 488B85F8 		movq	-520(%rbp), %rax
 2163      FDFFFF
 2164 0caf 488D4808 		leaq	8(%rax), %rcx
 2165 0cb3 488D8520 		leaq	-480(%rbp), %rax
 2165      FEFFFF
 2166 0cba BA430000 		movl	$67, %edx
 2166      00
 2167 0cbf 4889CE   		movq	%rcx, %rsi
 2168 0cc2 4889C7   		movq	%rax, %rdi
 2169 0cc5 E8000000 		call	_ZN8UnitTest11TestDetailsC1ERKS0_i@PLT
 2169      00
 2170              		.loc 6 67 0 discriminator 37
 2171 0cca 488D8520 		leaq	-480(%rbp), %rax
 2171      FEFFFF
 2172 0cd1 488D1500 		leaq	.LC28(%rip), %rdx
 2172      000000
 2173 0cd8 4889C6   		movq	%rax, %rsi
 2174 0cdb 4889DF   		movq	%rbx, %rdi
 2175 0cde E8000000 		call	_ZN8UnitTest11TestResults13OnTestFailureERKNS_11TestDetailsEPKc@PLT
 2175      00
 2176              	.LEHE40:
 2177              	.L97:
 2178              	.LEHB41:
 2179              		.loc 6 67 0 discriminator 40
 2180 0ce3 E8000000 		call	__cxa_end_catch@PLT
 2180      00
 2181 0ce8 EB4D     		jmp	.L90
 2182              	.L104:
 2183 0cea 4889C3   		movq	%rax, %rbx
 2184              	.LBB31:
 2185              		.loc 6 67 0
 2186 0ced E8000000 		call	__cxa_end_catch@PLT
 2186      00
 2187 0cf2 4889D8   		movq	%rbx, %rax
 2188 0cf5 4889C7   		movq	%rax, %rdi
 2189 0cf8 E8000000 		call	_Unwind_Resume@PLT
 2189      00
 2190              	.LEHE41:
 2191              	.L106:
 2192 0cfd 4889C3   		movq	%rax, %rbx
 2193              	.LBE31:
 2194              	.LBB32:
 2195              	.LBB30:
 2196 0d00 488D8540 		leaq	-448(%rbp), %rax
 2196      FEFFFF
 2197 0d07 4889C7   		movq	%rax, %rdi
 2198 0d0a E8000000 		call	_ZN8UnitTest15MemoryOutStreamD1Ev
 2198      00
 2199 0d0f EB03     		jmp	.L100
 2200              	.L105:
 2201 0d11 4889C3   		movq	%rax, %rbx
 2202              	.L100:
 2203              	.LBE30:
 2204 0d14 E8000000 		call	__cxa_end_catch@PLT
 2204      00
 2205 0d19 4889D8   		movq	%rbx, %rax
 2206 0d1c 4889C7   		movq	%rax, %rdi
 2207              	.LEHB42:
 2208 0d1f E8000000 		call	_Unwind_Resume@PLT
 2208      00
 2209              	.LEHE42:
 2210              	.L107:
 2211 0d24 4889C3   		movq	%rax, %rbx
 2212              	.LBE32:
 2213 0d27 E8000000 		call	__cxa_end_catch@PLT
 2213      00
 2214 0d2c 4889D8   		movq	%rbx, %rax
 2215 0d2f 4889C7   		movq	%rax, %rdi
 2216              	.LEHB43:
 2217 0d32 E8000000 		call	_Unwind_Resume@PLT
 2217      00
 2218              	.LEHE43:
 2219              	.L90:
 2220 0d37 488B45D8 		movq	-40(%rbp), %rax
 2221 0d3b 64483304 		xorq	%fs:40, %rax
 2221      25280000 
 2221      00
 2222 0d44 7405     		je	.L102
 2223 0d46 E8000000 		call	__stack_chk_fail@PLT
 2223      00
 2224              	.L102:
 2225 0d4b 4881C4F8 		addq	$504, %rsp
 2225      010000
 2226 0d52 5B       		popq	%rbx
 2227 0d53 415C     		popq	%r12
 2228 0d55 415D     		popq	%r13
 2229 0d57 5D       		popq	%rbp
 2230              		.cfi_def_cfa 7, 8
 2231 0d58 C3       		ret
 2232              		.cfi_endproc
 2233              	.LFE1141:
 2234              		.section	.gcc_except_table
 2235              		.align 4
 2236              	.LLSDA1141:
 2237 00e0 FF       		.byte	0xff
 2238 00e1 9B       		.byte	0x9b
 2239 00e2 49       		.uleb128 .LLSDATT1141-.LLSDATTD1141
 2240              	.LLSDATTD1141:
 2241 00e3 01       		.byte	0x1
 2242 00e4 33       		.uleb128 .LLSDACSE1141-.LLSDACSB1141
 2243              	.LLSDACSB1141:
 2244 00e5 69       		.uleb128 .LEHB35-.LFB1141
 2245 00e6 05       		.uleb128 .LEHE35-.LEHB35
 2246 00e7 73       		.uleb128 .L103-.LFB1141
 2247 00e8 05       		.uleb128 0x5
 2248 00e9 9701     		.uleb128 .LEHB36-.LFB1141
 2249 00eb 8901     		.uleb128 .LEHE36-.LEHB36
 2250 00ed F204     		.uleb128 .L104-.LFB1141
 2251 00ef 00       		.uleb128 0
 2252 00f0 C302     		.uleb128 .LEHB37-.LFB1141
 2253 00f2 05       		.uleb128 .LEHE37-.LEHB37
 2254 00f3 9905     		.uleb128 .L105-.LFB1141
 2255 00f5 00       		.uleb128 0
 2256 00f6 D902     		.uleb128 .LEHB38-.LFB1141
 2257 00f8 60       		.uleb128 .LEHE38-.LEHB38
 2258 00f9 8505     		.uleb128 .L106-.LFB1141
 2259 00fb 00       		.uleb128 0
 2260 00fc C303     		.uleb128 .LEHB39-.LFB1141
 2261 00fe 05       		.uleb128 .LEHE39-.LEHB39
 2262 00ff 9905     		.uleb128 .L105-.LFB1141
 2263 0101 00       		.uleb128 0
 2264 0102 E303     		.uleb128 .LEHB40-.LFB1141
 2265 0104 8801     		.uleb128 .LEHE40-.LEHB40
 2266 0106 AC05     		.uleb128 .L107-.LFB1141
 2267 0108 00       		.uleb128 0
 2268 0109 EB04     		.uleb128 .LEHB41-.LFB1141
 2269 010b 1A       		.uleb128 .LEHE41-.LEHB41
 2270 010c 00       		.uleb128 0
 2271 010d 00       		.uleb128 0
 2272 010e A705     		.uleb128 .LEHB42-.LFB1141
 2273 0110 05       		.uleb128 .LEHE42-.LEHB42
 2274 0111 00       		.uleb128 0
 2275 0112 00       		.uleb128 0
 2276 0113 BA05     		.uleb128 .LEHB43-.LFB1141
 2277 0115 05       		.uleb128 .LEHE43-.LEHB43
 2278 0116 00       		.uleb128 0
 2279 0117 00       		.uleb128 0
 2280              	.LLSDACSE1141:
 2281 0118 03       		.byte	0x3
 2282 0119 00       		.byte	0
 2283 011a 02       		.byte	0x2
 2284 011b 7D       		.byte	0x7d
 2285 011c 01       		.byte	0x1
 2286 011d 7D       		.byte	0x7d
 2287 011e 0000     		.align 4
 2288 0120 00000000 		.long	0
 2289              	
 2290 0124 00000000 		.long	DW.ref._ZTISt9exception-.
 2291 0128 00000000 		.long	DW.ref._ZTIN8UnitTest15AssertExceptionE-.
 2292              	.LLSDATT1141:
 2293              		.text
 2295 0d59 90       		.align 2
 2297              	_ZN12_GLOBAL__N_115SuiteTestSuite165DummyFixtureSimilarlyNamedFixtureTestsInDifferentSuitesWorkHelp
 2298              	.LFB1142:
  68:TestTestMacros.cpp **** 	{
 2299              		.loc 6 68 0 is_stmt 1
 2300              		.cfi_startproc
 2301 0d5a 55       		pushq	%rbp
 2302              		.cfi_def_cfa_offset 16
 2303              		.cfi_offset 6, -16
 2304 0d5b 4889E5   		movq	%rsp, %rbp
 2305              		.cfi_def_cfa_register 6
 2306 0d5e 48897DF8 		movq	%rdi, -8(%rbp)
  69:TestTestMacros.cpp **** 	}
 2307              		.loc 6 69 0
 2308 0d62 90       		nop
 2309 0d63 5D       		popq	%rbp
 2310              		.cfi_def_cfa 7, 8
 2311 0d64 C3       		ret
 2312              		.cfi_endproc
 2313              	.LFE1142:
 2315              		.section	.rodata
 2316              	.LC29:
 2317 0474 54657374 		.string	"TestSuite2"
 2317      53756974 
 2317      653200
 2318              		.text
 2320              	_ZN12_GLOBAL__N_115SuiteTestSuite213UnitTestSuite12GetSuiteNameEv:
 2321              	.LFB1143:
  70:TestTestMacros.cpp **** }
  71:TestTestMacros.cpp **** 
  72:TestTestMacros.cpp **** SUITE(TestSuite2)
 2322              		.loc 6 72 0
 2323              		.cfi_startproc
 2324 0d65 55       		pushq	%rbp
 2325              		.cfi_def_cfa_offset 16
 2326              		.cfi_offset 6, -16
 2327 0d66 4889E5   		movq	%rsp, %rbp
 2328              		.cfi_def_cfa_register 6
 2329              		.loc 6 72 0
 2330 0d69 488D0500 		leaq	.LC29(%rip), %rax
 2330      000000
 2331 0d70 5D       		popq	%rbp
 2332              		.cfi_def_cfa 7, 8
 2333 0d71 C3       		ret
 2334              		.cfi_endproc
 2335              	.LFE1143:
 2337              		.align 2
 2339              	_ZN12_GLOBAL__N_115SuiteTestSuite244TestSimilarlyNamedTestsInDifferentSuitesWorkC2Ev:
 2340              	.LFB1145:
  73:TestTestMacros.cpp **** {
  74:TestTestMacros.cpp **** 	TEST(SimilarlyNamedTestsInDifferentSuitesWork)
 2341              		.loc 6 74 0
 2342              		.cfi_startproc
 2343 0d72 55       		pushq	%rbp
 2344              		.cfi_def_cfa_offset 16
 2345              		.cfi_offset 6, -16
 2346 0d73 4889E5   		movq	%rsp, %rbp
 2347              		.cfi_def_cfa_register 6
 2348 0d76 53       		pushq	%rbx
 2349 0d77 4883EC18 		subq	$24, %rsp
 2350              		.cfi_offset 3, -24
 2351 0d7b 48897DE8 		movq	%rdi, -24(%rbp)
 2352              	.LBB33:
 2353              		.loc 6 74 0
 2354 0d7f 488B5DE8 		movq	-24(%rbp), %rbx
 2355 0d83 E8DDFFFF 		call	_ZN12_GLOBAL__N_115SuiteTestSuite213UnitTestSuite12GetSuiteNameEv
 2355      FF
 2356 0d88 41B84A00 		movl	$74, %r8d
 2356      0000
 2357 0d8e 488D0D00 		leaq	.LC2(%rip), %rcx
 2357      000000
 2358 0d95 4889C2   		movq	%rax, %rdx
 2359 0d98 488D3500 		leaq	.LC25(%rip), %rsi
 2359      000000
 2360 0d9f 4889DF   		movq	%rbx, %rdi
 2361 0da2 E8000000 		call	_ZN8UnitTest4TestC2EPKcS2_S2_i@PLT
 2361      00
 2362 0da7 488D1500 		leaq	16+_ZTVN12_GLOBAL__N_115SuiteTestSuite244TestSimilarlyNamedTestsInDifferentSuitesWorkE(%rip),
 2362      000000
 2363 0dae 488B45E8 		movq	-24(%rbp), %rax
 2364 0db2 488910   		movq	%rdx, (%rax)
 2365              	.LBE33:
 2366 0db5 90       		nop
 2367 0db6 4883C418 		addq	$24, %rsp
 2368 0dba 5B       		popq	%rbx
 2369 0dbb 5D       		popq	%rbp
 2370              		.cfi_def_cfa 7, 8
 2371 0dbc C3       		ret
 2372              		.cfi_endproc
 2373              	.LFE1145:
 2375              		.set	_ZN12_GLOBAL__N_115SuiteTestSuite244TestSimilarlyNamedTestsInDifferentSuitesWorkC1Ev,_ZN12_GL
 2376              		.local	_ZN12_GLOBAL__N_115SuiteTestSuite252testSimilarlyNamedTestsInDifferentSuitesWorkInstanceE
 2377              		.comm	_ZN12_GLOBAL__N_115SuiteTestSuite252testSimilarlyNamedTestsInDifferentSuitesWorkInstanceE,56
 2378              		.local	_ZN12_GLOBAL__N_115SuiteTestSuite245adderSimilarlyNamedTestsInDifferentSuitesWorkE
 2379              		.comm	_ZN12_GLOBAL__N_115SuiteTestSuite245adderSimilarlyNamedTestsInDifferentSuitesWorkE,1,1
 2380 0dbd 90       		.align 2
 2382              	_ZNK12_GLOBAL__N_115SuiteTestSuite244TestSimilarlyNamedTestsInDifferentSuitesWork7RunImplEv:
 2383              	.LFB1147:
  75:TestTestMacros.cpp **** 	{
 2384              		.loc 6 75 0
 2385              		.cfi_startproc
 2386 0dbe 55       		pushq	%rbp
 2387              		.cfi_def_cfa_offset 16
 2388              		.cfi_offset 6, -16
 2389 0dbf 4889E5   		movq	%rsp, %rbp
 2390              		.cfi_def_cfa_register 6
 2391 0dc2 48897DF8 		movq	%rdi, -8(%rbp)
  76:TestTestMacros.cpp **** 	}
 2392              		.loc 6 76 0
 2393 0dc6 90       		nop
 2394 0dc7 5D       		popq	%rbp
 2395              		.cfi_def_cfa 7, 8
 2396 0dc8 C3       		ret
 2397              		.cfi_endproc
 2398              	.LFE1147:
 2400 0dc9 90       		.align 2
 2402              	_ZN12_GLOBAL__N_115SuiteTestSuite265DummyFixtureSimilarlyNamedFixtureTestsInDifferentSuitesWorkHelp
 2403              	.LFB1149:
  77:TestTestMacros.cpp **** 
  78:TestTestMacros.cpp **** 	TEST_FIXTURE(DummyFixture,SimilarlyNamedFixtureTestsInDifferentSuitesWork)
 2404              		.loc 6 78 0
 2405              		.cfi_startproc
 2406 0dca 55       		pushq	%rbp
 2407              		.cfi_def_cfa_offset 16
 2408              		.cfi_offset 6, -16
 2409 0dcb 4889E5   		movq	%rsp, %rbp
 2410              		.cfi_def_cfa_register 6
 2411 0dce 48897DF8 		movq	%rdi, -8(%rbp)
 2412 0dd2 488975F0 		movq	%rsi, -16(%rbp)
 2413              	.LBB34:
 2414              		.loc 6 78 0
 2415 0dd6 488B45F8 		movq	-8(%rbp), %rax
 2416 0dda 488B55F0 		movq	-16(%rbp), %rdx
 2417 0dde 48895008 		movq	%rdx, 8(%rax)
 2418              	.LBE34:
 2419 0de2 90       		nop
 2420 0de3 5D       		popq	%rbp
 2421              		.cfi_def_cfa 7, 8
 2422 0de4 C3       		ret
 2423              		.cfi_endproc
 2424              	.LFE1149:
 2426              		.set	_ZN12_GLOBAL__N_115SuiteTestSuite265DummyFixtureSimilarlyNamedFixtureTestsInDifferentSuitesWo
 2427 0de5 90       		.align 2
 2429              	_ZN12_GLOBAL__N_115SuiteTestSuite263TestDummyFixtureSimilarlyNamedFixtureTestsInDifferentSuitesWork
 2430              	.LFB1152:
 2431              		.loc 6 78 0
 2432              		.cfi_startproc
 2433 0de6 55       		pushq	%rbp
 2434              		.cfi_def_cfa_offset 16
 2435              		.cfi_offset 6, -16
 2436 0de7 4889E5   		movq	%rsp, %rbp
 2437              		.cfi_def_cfa_register 6
 2438 0dea 53       		pushq	%rbx
 2439 0deb 4883EC18 		subq	$24, %rsp
 2440              		.cfi_offset 3, -24
 2441 0def 48897DE8 		movq	%rdi, -24(%rbp)
 2442              	.LBB35:
 2443              		.loc 6 78 0
 2444 0df3 488B5DE8 		movq	-24(%rbp), %rbx
 2445 0df7 E869FFFF 		call	_ZN12_GLOBAL__N_115SuiteTestSuite213UnitTestSuite12GetSuiteNameEv
 2445      FF
 2446 0dfc 41B84E00 		movl	$78, %r8d
 2446      0000
 2447 0e02 488D0D00 		leaq	.LC2(%rip), %rcx
 2447      000000
 2448 0e09 4889C2   		movq	%rax, %rdx
 2449 0e0c 488D3500 		leaq	.LC26(%rip), %rsi
 2449      000000
 2450 0e13 4889DF   		movq	%rbx, %rdi
 2451 0e16 E8000000 		call	_ZN8UnitTest4TestC2EPKcS2_S2_i@PLT
 2451      00
 2452 0e1b 488D1500 		leaq	16+_ZTVN12_GLOBAL__N_115SuiteTestSuite263TestDummyFixtureSimilarlyNamedFixtureTestsInDifferen
 2452      000000
 2453 0e22 488B45E8 		movq	-24(%rbp), %rax
 2454 0e26 488910   		movq	%rdx, (%rax)
 2455              	.LBE35:
 2456 0e29 90       		nop
 2457 0e2a 4883C418 		addq	$24, %rsp
 2458 0e2e 5B       		popq	%rbx
 2459 0e2f 5D       		popq	%rbp
 2460              		.cfi_def_cfa 7, 8
 2461 0e30 C3       		ret
 2462              		.cfi_endproc
 2463              	.LFE1152:
 2465              		.set	_ZN12_GLOBAL__N_115SuiteTestSuite263TestDummyFixtureSimilarlyNamedFixtureTestsInDifferentSuit
 2466              		.local	_ZN12_GLOBAL__N_115SuiteTestSuite271testDummyFixtureSimilarlyNamedFixtureTestsInDifferentSu
 2467              		.comm	_ZN12_GLOBAL__N_115SuiteTestSuite271testDummyFixtureSimilarlyNamedFixtureTestsInDifferentSui
 2468              		.local	_ZN12_GLOBAL__N_115SuiteTestSuite264adderDummyFixtureSimilarlyNamedFixtureTestsInDifferentS
 2469              		.comm	_ZN12_GLOBAL__N_115SuiteTestSuite264adderDummyFixtureSimilarlyNamedFixtureTestsInDifferentSu
 2470 0e31 90       		.align 2
 2472              	_ZNK12_GLOBAL__N_115SuiteTestSuite263TestDummyFixtureSimilarlyNamedFixtureTestsInDifferentSuitesWor
 2473              	.LFB1154:
 2474              		.loc 6 78 0
 2475              		.cfi_startproc
 2476              		.cfi_personality 0x9b,DW.ref.__gxx_personality_v0
 2477              		.cfi_lsda 0x1b,.LLSDA1154
 2478 0e32 55       		pushq	%rbp
 2479              		.cfi_def_cfa_offset 16
 2480              		.cfi_offset 6, -16
 2481 0e33 4889E5   		movq	%rsp, %rbp
 2482              		.cfi_def_cfa_register 6
 2483 0e36 4155     		pushq	%r13
 2484 0e38 4154     		pushq	%r12
 2485 0e3a 53       		pushq	%rbx
 2486 0e3b 4881ECF8 		subq	$504, %rsp
 2486      010000
 2487              		.cfi_offset 13, -24
 2488              		.cfi_offset 12, -32
 2489              		.cfi_offset 3, -40
 2490 0e42 4889BDF8 		movq	%rdi, -520(%rbp)
 2490      FDFFFF
 2491              		.loc 6 78 0
 2492 0e49 64488B04 		movq	%fs:40, %rax
 2492      25280000 
 2492      00
 2493 0e52 488945D8 		movq	%rax, -40(%rbp)
 2494 0e56 31C0     		xorl	%eax, %eax
 2495 0e58 C6850FFE 		movb	$0, -497(%rbp)
 2495      FFFF00
 2496              	.LBB36:
 2497 0e5f 488B85F8 		movq	-520(%rbp), %rax
 2497      FDFFFF
 2498 0e66 488D5008 		leaq	8(%rax), %rdx
 2499 0e6a 488D8520 		leaq	-480(%rbp), %rax
 2499      FEFFFF
 2500 0e71 4889D6   		movq	%rdx, %rsi
 2501 0e74 4889C7   		movq	%rax, %rdi
 2502 0e77 E84EFFFF 		call	_ZN12_GLOBAL__N_115SuiteTestSuite265DummyFixtureSimilarlyNamedFixtureTestsInDifferentSuitesWo
 2502      FF
 2503 0e7c C6850FFE 		movb	$1, -497(%rbp)
 2503      FFFF01
 2504 0e83 488B85F8 		movq	-520(%rbp), %rax
 2504      FDFFFF
 2505 0e8a 488D5008 		leaq	8(%rax), %rdx
 2506 0e8e 488D8520 		leaq	-480(%rbp), %rax
 2506      FEFFFF
 2507 0e95 4889D6   		movq	%rdx, %rsi
 2508 0e98 4889C7   		movq	%rax, %rdi
 2509              	.LEHB44:
 2510 0e9b E8782700 		call	_ZN8UnitTest11ExecuteTestIN12_GLOBAL__N_115SuiteTestSuite265DummyFixtureSimilarlyNamedFixture
 2510      00
 2511              	.LEHE44:
 2512              	.LBE36:
 2513 0ea0 E94C0200 		jmp	.L116
 2513      00
 2514              	.L129:
 2515 0ea5 4883FA01 		cmpq	$1, %rdx
 2516 0ea9 740F     		je	.L119
 2517 0eab 4883FA02 		cmpq	$2, %rdx
 2518 0eaf 0F84A700 		je	.L120
 2518      0000
 2519 0eb5 E94A0100 		jmp	.L134
 2519      00
 2520              	.L119:
 2521              	.LBB37:
 2522 0eba 4889C7   		movq	%rax, %rdi
 2523 0ebd E8000000 		call	__cxa_begin_catch@PLT
 2523      00
 2524 0ec2 48898518 		movq	%rax, -488(%rbp)
 2524      FEFFFF
 2525              	.LEHB45:
 2526 0ec9 E8000000 		call	_ZN8UnitTest11CurrentTest7ResultsEv@PLT
 2526      00
 2527 0ece 488B18   		movq	(%rax), %rbx
 2528 0ed1 488B8518 		movq	-488(%rbp), %rax
 2528      FEFFFF
 2529 0ed8 488B00   		movq	(%rax), %rax
 2530 0edb 4883C010 		addq	$16, %rax
 2531 0edf 488B00   		movq	(%rax), %rax
 2532 0ee2 488B9518 		movq	-488(%rbp), %rdx
 2532      FEFFFF
 2533 0ee9 4889D7   		movq	%rdx, %rdi
 2534 0eec FFD0     		call	*%rax
 2535              	.LVL4:
 2536 0eee 4989C4   		movq	%rax, %r12
 2537 0ef1 488B8518 		movq	-488(%rbp), %rax
 2537      FEFFFF
 2538 0ef8 4889C7   		movq	%rax, %rdi
 2539 0efb E8000000 		call	_ZNK8UnitTest15AssertException10LineNumberEv@PLT
 2539      00
 2540              		.loc 6 78 0 is_stmt 0 discriminator 2
 2541 0f00 4189C5   		movl	%eax, %r13d
 2542 0f03 488B8518 		movq	-488(%rbp), %rax
 2542      FEFFFF
 2543 0f0a 4889C7   		movq	%rax, %rdi
 2544 0f0d E8000000 		call	_ZNK8UnitTest15AssertException8FilenameEv@PLT
 2544      00
 2545              		.loc 6 78 0 discriminator 4
 2546 0f12 4889C1   		movq	%rax, %rcx
 2547 0f15 488B85F8 		movq	-520(%rbp), %rax
 2547      FDFFFF
 2548 0f1c 488B5008 		movq	8(%rax), %rdx
 2549 0f20 488B85F8 		movq	-520(%rbp), %rax
 2549      FDFFFF
 2550 0f27 488B7010 		movq	16(%rax), %rsi
 2551 0f2b 488D8520 		leaq	-480(%rbp), %rax
 2551      FEFFFF
 2552 0f32 4589E8   		movl	%r13d, %r8d
 2553 0f35 4889C7   		movq	%rax, %rdi
 2554 0f38 E8000000 		call	_ZN8UnitTest11TestDetailsC1EPKcS2_S2_i@PLT
 2554      00
 2555              		.loc 6 78 0 discriminator 8
 2556 0f3d 488D8520 		leaq	-480(%rbp), %rax
 2556      FEFFFF
 2557 0f44 4C89E2   		movq	%r12, %rdx
 2558 0f47 4889C6   		movq	%rax, %rsi
 2559 0f4a 4889DF   		movq	%rbx, %rdi
 2560 0f4d E8000000 		call	_ZN8UnitTest11TestResults13OnTestFailureERKNS_11TestDetailsEPKc@PLT
 2560      00
 2561              	.LEHE45:
 2562              		.loc 6 78 0 discriminator 10
 2563 0f52 E8000000 		call	__cxa_end_catch@PLT
 2563      00
 2564              	.LBE37:
 2565 0f57 E9950100 		jmp	.L116
 2565      00
 2566              	.L120:
 2567              	.LBB38:
 2568              		.loc 6 78 0
 2569 0f5c 4889C7   		movq	%rax, %rdi
 2570 0f5f E8000000 		call	__cxa_begin_catch@PLT
 2570      00
 2571 0f64 48898510 		movq	%rax, -496(%rbp)
 2571      FEFFFF
 2572              	.LBB39:
 2573 0f6b 488D8540 		leaq	-448(%rbp), %rax
 2573      FEFFFF
 2574 0f72 4889C7   		movq	%rax, %rdi
 2575              	.LEHB46:
 2576 0f75 E8000000 		call	_ZN8UnitTest15MemoryOutStreamC1Ev
 2576      00
 2577              	.LEHE46:
 2578              		.loc 6 78 0 discriminator 12
 2579 0f7a 488D8540 		leaq	-448(%rbp), %rax
 2579      FEFFFF
 2580 0f81 488D3500 		leaq	.LC11(%rip), %rsi
 2580      000000
 2581 0f88 4889C7   		movq	%rax, %rdi
 2582              	.LEHB47:
 2583 0f8b E8000000 		call	_ZStlsISt11char_traitsIcEERSt13basic_ostreamIcT_ES5_PKc@PLT
 2583      00
 2584 0f90 4889C3   		movq	%rax, %rbx
 2585 0f93 488B8510 		movq	-496(%rbp), %rax
 2585      FEFFFF
 2586 0f9a 488B00   		movq	(%rax), %rax
 2587 0f9d 4883C010 		addq	$16, %rax
 2588 0fa1 488B00   		movq	(%rax), %rax
 2589 0fa4 488B9510 		movq	-496(%rbp), %rdx
 2589      FEFFFF
 2590 0fab 4889D7   		movq	%rdx, %rdi
 2591 0fae FFD0     		call	*%rax
 2592              	.LVL5:
 2593 0fb0 4889C6   		movq	%rax, %rsi
 2594 0fb3 4889DF   		movq	%rbx, %rdi
 2595 0fb6 E8000000 		call	_ZStlsISt11char_traitsIcEERSt13basic_ostreamIcT_ES5_PKc@PLT
 2595      00
 2596              		.loc 6 78 0 discriminator 16
 2597 0fbb E8000000 		call	_ZN8UnitTest11CurrentTest7ResultsEv@PLT
 2597      00
 2598 0fc0 488B18   		movq	(%rax), %rbx
 2599 0fc3 488D8540 		leaq	-448(%rbp), %rax
 2599      FEFFFF
 2600 0fca 4889C7   		movq	%rax, %rdi
 2601 0fcd E8000000 		call	_ZNK8UnitTest15MemoryOutStream7GetTextEv@PLT
 2601      00
 2602              		.loc 6 78 0 discriminator 18
 2603 0fd2 4889C2   		movq	%rax, %rdx
 2604 0fd5 488B85F8 		movq	-520(%rbp), %rax
 2604      FDFFFF
 2605 0fdc 4883C008 		addq	$8, %rax
 2606 0fe0 4889C6   		movq	%rax, %rsi
 2607 0fe3 4889DF   		movq	%rbx, %rdi
 2608 0fe6 E8000000 		call	_ZN8UnitTest11TestResults13OnTestFailureERKNS_11TestDetailsEPKc@PLT
 2608      00
 2609              	.LEHE47:
 2610              		.loc 6 78 0 discriminator 22
 2611 0feb 488D8540 		leaq	-448(%rbp), %rax
 2611      FEFFFF
 2612 0ff2 4889C7   		movq	%rax, %rdi
 2613              	.LEHB48:
 2614 0ff5 E8000000 		call	_ZN8UnitTest15MemoryOutStreamD1Ev
 2614      00
 2615              	.LEHE48:
 2616              	.LBE39:
 2617              		.loc 6 78 0 discriminator 23
 2618 0ffa E8000000 		call	__cxa_end_catch@PLT
 2618      00
 2619              	.LBE38:
 2620 0fff E9ED0000 		jmp	.L116
 2620      00
 2621              	.L134:
 2622              		.loc 6 78 0
 2623 1004 4889C7   		movq	%rax, %rdi
 2624 1007 E8000000 		call	__cxa_begin_catch@PLT
 2624      00
 2625 100c 80BD0FFE 		cmpb	$0, -497(%rbp)
 2625      FFFF00
 2626 1013 7445     		je	.L122
 2627              	.LEHB49:
 2628              		.loc 6 78 0 discriminator 25
 2629 1015 E8000000 		call	_ZN8UnitTest11CurrentTest7ResultsEv@PLT
 2629      00
 2630 101a 488B18   		movq	(%rax), %rbx
 2631 101d 488B85F8 		movq	-520(%rbp), %rax
 2631      FDFFFF
 2632 1024 488D4808 		leaq	8(%rax), %rcx
 2633 1028 488D8520 		leaq	-480(%rbp), %rax
 2633      FEFFFF
 2634 102f BA4E0000 		movl	$78, %edx
 2634      00
 2635 1034 4889CE   		movq	%rcx, %rsi
 2636 1037 4889C7   		movq	%rax, %rdi
 2637 103a E8000000 		call	_ZN8UnitTest11TestDetailsC1ERKS0_i@PLT
 2637      00
 2638              		.loc 6 78 0 discriminator 30
 2639 103f 488D8520 		leaq	-480(%rbp), %rax
 2639      FEFFFF
 2640 1046 488D1500 		leaq	.LC27(%rip), %rdx
 2640      000000
 2641 104d 4889C6   		movq	%rax, %rsi
 2642 1050 4889DF   		movq	%rbx, %rdi
 2643 1053 E8000000 		call	_ZN8UnitTest11TestResults13OnTestFailureERKNS_11TestDetailsEPKc@PLT
 2643      00
 2644 1058 EB43     		jmp	.L123
 2645              	.L122:
 2646              		.loc 6 78 0 discriminator 26
 2647 105a E8000000 		call	_ZN8UnitTest11CurrentTest7ResultsEv@PLT
 2647      00
 2648 105f 488B18   		movq	(%rax), %rbx
 2649 1062 488B85F8 		movq	-520(%rbp), %rax
 2649      FDFFFF
 2650 1069 488D4808 		leaq	8(%rax), %rcx
 2651 106d 488D8520 		leaq	-480(%rbp), %rax
 2651      FEFFFF
 2652 1074 BA4E0000 		movl	$78, %edx
 2652      00
 2653 1079 4889CE   		movq	%rcx, %rsi
 2654 107c 4889C7   		movq	%rax, %rdi
 2655 107f E8000000 		call	_ZN8UnitTest11TestDetailsC1ERKS0_i@PLT
 2655      00
 2656              		.loc 6 78 0 discriminator 37
 2657 1084 488D8520 		leaq	-480(%rbp), %rax
 2657      FEFFFF
 2658 108b 488D1500 		leaq	.LC28(%rip), %rdx
 2658      000000
 2659 1092 4889C6   		movq	%rax, %rsi
 2660 1095 4889DF   		movq	%rbx, %rdi
 2661 1098 E8000000 		call	_ZN8UnitTest11TestResults13OnTestFailureERKNS_11TestDetailsEPKc@PLT
 2661      00
 2662              	.LEHE49:
 2663              	.L123:
 2664              	.LEHB50:
 2665              		.loc 6 78 0 discriminator 40
 2666 109d E8000000 		call	__cxa_end_catch@PLT
 2666      00
 2667 10a2 EB4D     		jmp	.L116
 2668              	.L130:
 2669 10a4 4889C3   		movq	%rax, %rbx
 2670              	.LBB41:
 2671              		.loc 6 78 0
 2672 10a7 E8000000 		call	__cxa_end_catch@PLT
 2672      00
 2673 10ac 4889D8   		movq	%rbx, %rax
 2674 10af 4889C7   		movq	%rax, %rdi
 2675 10b2 E8000000 		call	_Unwind_Resume@PLT
 2675      00
 2676              	.LEHE50:
 2677              	.L132:
 2678 10b7 4889C3   		movq	%rax, %rbx
 2679              	.LBE41:
 2680              	.LBB42:
 2681              	.LBB40:
 2682 10ba 488D8540 		leaq	-448(%rbp), %rax
 2682      FEFFFF
 2683 10c1 4889C7   		movq	%rax, %rdi
 2684 10c4 E8000000 		call	_ZN8UnitTest15MemoryOutStreamD1Ev
 2684      00
 2685 10c9 EB03     		jmp	.L126
 2686              	.L131:
 2687 10cb 4889C3   		movq	%rax, %rbx
 2688              	.L126:
 2689              	.LBE40:
 2690 10ce E8000000 		call	__cxa_end_catch@PLT
 2690      00
 2691 10d3 4889D8   		movq	%rbx, %rax
 2692 10d6 4889C7   		movq	%rax, %rdi
 2693              	.LEHB51:
 2694 10d9 E8000000 		call	_Unwind_Resume@PLT
 2694      00
 2695              	.LEHE51:
 2696              	.L133:
 2697 10de 4889C3   		movq	%rax, %rbx
 2698              	.LBE42:
 2699 10e1 E8000000 		call	__cxa_end_catch@PLT
 2699      00
 2700 10e6 4889D8   		movq	%rbx, %rax
 2701 10e9 4889C7   		movq	%rax, %rdi
 2702              	.LEHB52:
 2703 10ec E8000000 		call	_Unwind_Resume@PLT
 2703      00
 2704              	.LEHE52:
 2705              	.L116:
 2706 10f1 488B45D8 		movq	-40(%rbp), %rax
 2707 10f5 64483304 		xorq	%fs:40, %rax
 2707      25280000 
 2707      00
 2708 10fe 7405     		je	.L128
 2709 1100 E8000000 		call	__stack_chk_fail@PLT
 2709      00
 2710              	.L128:
 2711 1105 4881C4F8 		addq	$504, %rsp
 2711      010000
 2712 110c 5B       		popq	%rbx
 2713 110d 415C     		popq	%r12
 2714 110f 415D     		popq	%r13
 2715 1111 5D       		popq	%rbp
 2716              		.cfi_def_cfa 7, 8
 2717 1112 C3       		ret
 2718              		.cfi_endproc
 2719              	.LFE1154:
 2720              		.section	.gcc_except_table
 2721              		.align 4
 2722              	.LLSDA1154:
 2723 012c FF       		.byte	0xff
 2724 012d 9B       		.byte	0x9b
 2725 012e 49       		.uleb128 .LLSDATT1154-.LLSDATTD1154
 2726              	.LLSDATTD1154:
 2727 012f 01       		.byte	0x1
 2728 0130 33       		.uleb128 .LLSDACSE1154-.LLSDACSB1154
 2729              	.LLSDACSB1154:
 2730 0131 69       		.uleb128 .LEHB44-.LFB1154
 2731 0132 05       		.uleb128 .LEHE44-.LEHB44
 2732 0133 73       		.uleb128 .L129-.LFB1154
 2733 0134 05       		.uleb128 0x5
 2734 0135 9701     		.uleb128 .LEHB45-.LFB1154
 2735 0137 8901     		.uleb128 .LEHE45-.LEHB45
 2736 0139 F204     		.uleb128 .L130-.LFB1154
 2737 013b 00       		.uleb128 0
 2738 013c C302     		.uleb128 .LEHB46-.LFB1154
 2739 013e 05       		.uleb128 .LEHE46-.LEHB46
 2740 013f 9905     		.uleb128 .L131-.LFB1154
 2741 0141 00       		.uleb128 0
 2742 0142 D902     		.uleb128 .LEHB47-.LFB1154
 2743 0144 60       		.uleb128 .LEHE47-.LEHB47
 2744 0145 8505     		.uleb128 .L132-.LFB1154
 2745 0147 00       		.uleb128 0
 2746 0148 C303     		.uleb128 .LEHB48-.LFB1154
 2747 014a 05       		.uleb128 .LEHE48-.LEHB48
 2748 014b 9905     		.uleb128 .L131-.LFB1154
 2749 014d 00       		.uleb128 0
 2750 014e E303     		.uleb128 .LEHB49-.LFB1154
 2751 0150 8801     		.uleb128 .LEHE49-.LEHB49
 2752 0152 AC05     		.uleb128 .L133-.LFB1154
 2753 0154 00       		.uleb128 0
 2754 0155 EB04     		.uleb128 .LEHB50-.LFB1154
 2755 0157 1A       		.uleb128 .LEHE50-.LEHB50
 2756 0158 00       		.uleb128 0
 2757 0159 00       		.uleb128 0
 2758 015a A705     		.uleb128 .LEHB51-.LFB1154
 2759 015c 05       		.uleb128 .LEHE51-.LEHB51
 2760 015d 00       		.uleb128 0
 2761 015e 00       		.uleb128 0
 2762 015f BA05     		.uleb128 .LEHB52-.LFB1154
 2763 0161 05       		.uleb128 .LEHE52-.LEHB52
 2764 0162 00       		.uleb128 0
 2765 0163 00       		.uleb128 0
 2766              	.LLSDACSE1154:
 2767 0164 03       		.byte	0x3
 2768 0165 00       		.byte	0
 2769 0166 02       		.byte	0x2
 2770 0167 7D       		.byte	0x7d
 2771 0168 01       		.byte	0x1
 2772 0169 7D       		.byte	0x7d
 2773 016a 0000     		.align 4
 2774 016c 00000000 		.long	0
 2775              	
 2776 0170 00000000 		.long	DW.ref._ZTISt9exception-.
 2777 0174 00000000 		.long	DW.ref._ZTIN8UnitTest15AssertExceptionE-.
 2778              	.LLSDATT1154:
 2779              		.text
 2781 1113 90       		.align 2
 2783              	_ZN12_GLOBAL__N_115SuiteTestSuite265DummyFixtureSimilarlyNamedFixtureTestsInDifferentSuitesWorkHelp
 2784              	.LFB1155:
  79:TestTestMacros.cpp **** 	{
 2785              		.loc 6 79 0 is_stmt 1
 2786              		.cfi_startproc
 2787 1114 55       		pushq	%rbp
 2788              		.cfi_def_cfa_offset 16
 2789              		.cfi_offset 6, -16
 2790 1115 4889E5   		movq	%rsp, %rbp
 2791              		.cfi_def_cfa_register 6
 2792 1118 48897DF8 		movq	%rdi, -8(%rbp)
  80:TestTestMacros.cpp **** 	}
 2793              		.loc 6 80 0
 2794 111c 90       		nop
 2795 111d 5D       		popq	%rbp
 2796              		.cfi_def_cfa 7, 8
 2797 111e C3       		ret
 2798              		.cfi_endproc
 2799              	.LFE1155:
 2801              		.local	_ZN12_GLOBAL__N_114macroTestList1E
 2802              		.comm	_ZN12_GLOBAL__N_114macroTestList1E,16,16
 2803              		.section	.rodata
 2804              	.LC30:
 2805 047f 4D616372 		.string	"MacroTestHelper1"
 2805      6F546573 
 2805      7448656C 
 2805      70657231 
 2805      00
 2806              		.text
 2807 111f 90       		.align 2
 2809              	_ZN12_GLOBAL__N_120TestMacroTestHelper1C2Ev:
 2810              	.LFB1157:
  81:TestTestMacros.cpp **** }
  82:TestTestMacros.cpp **** 
  83:TestTestMacros.cpp **** TestList macroTestList1;
  84:TestTestMacros.cpp **** TEST_EX(MacroTestHelper1, macroTestList1)
 2811              		.loc 6 84 0
 2812              		.cfi_startproc
 2813 1120 55       		pushq	%rbp
 2814              		.cfi_def_cfa_offset 16
 2815              		.cfi_offset 6, -16
 2816 1121 4889E5   		movq	%rsp, %rbp
 2817              		.cfi_def_cfa_register 6
 2818 1124 53       		pushq	%rbx
 2819 1125 4883EC18 		subq	$24, %rsp
 2820              		.cfi_offset 3, -24
 2821 1129 48897DE8 		movq	%rdi, -24(%rbp)
 2822              	.LBB43:
 2823              		.loc 6 84 0
 2824 112d 488B5DE8 		movq	-24(%rbp), %rbx
 2825 1131 E8000000 		call	_ZN13UnitTestSuite12GetSuiteNameEv
 2825      00
 2826 1136 41B85400 		movl	$84, %r8d
 2826      0000
 2827 113c 488D0D00 		leaq	.LC2(%rip), %rcx
 2827      000000
 2828 1143 4889C2   		movq	%rax, %rdx
 2829 1146 488D3500 		leaq	.LC30(%rip), %rsi
 2829      000000
 2830 114d 4889DF   		movq	%rbx, %rdi
 2831 1150 E8000000 		call	_ZN8UnitTest4TestC2EPKcS2_S2_i@PLT
 2831      00
 2832 1155 488D1500 		leaq	16+_ZTVN12_GLOBAL__N_120TestMacroTestHelper1E(%rip), %rdx
 2832      000000
 2833 115c 488B45E8 		movq	-24(%rbp), %rax
 2834 1160 488910   		movq	%rdx, (%rax)
 2835              	.LBE43:
 2836 1163 90       		nop
 2837 1164 4883C418 		addq	$24, %rsp
 2838 1168 5B       		popq	%rbx
 2839 1169 5D       		popq	%rbp
 2840              		.cfi_def_cfa 7, 8
 2841 116a C3       		ret
 2842              		.cfi_endproc
 2843              	.LFE1157:
 2845              		.set	_ZN12_GLOBAL__N_120TestMacroTestHelper1C1Ev,_ZN12_GLOBAL__N_120TestMacroTestHelper1C2Ev
 2846              		.local	_ZN12_GLOBAL__N_128testMacroTestHelper1InstanceE
 2847              		.comm	_ZN12_GLOBAL__N_128testMacroTestHelper1InstanceE,56,32
 2848              		.local	_ZN12_GLOBAL__N_121adderMacroTestHelper1E
 2849              		.comm	_ZN12_GLOBAL__N_121adderMacroTestHelper1E,1,1
 2850 116b 90       		.align 2
 2852              	_ZNK12_GLOBAL__N_120TestMacroTestHelper17RunImplEv:
 2853              	.LFB1159:
  85:TestTestMacros.cpp **** {
 2854              		.loc 6 85 0
 2855              		.cfi_startproc
 2856 116c 55       		pushq	%rbp
 2857              		.cfi_def_cfa_offset 16
 2858              		.cfi_offset 6, -16
 2859 116d 4889E5   		movq	%rsp, %rbp
 2860              		.cfi_def_cfa_register 6
 2861 1170 48897DF8 		movq	%rdi, -8(%rbp)
  86:TestTestMacros.cpp **** }
 2862              		.loc 6 86 0
 2863 1174 90       		nop
 2864 1175 5D       		popq	%rbp
 2865              		.cfi_def_cfa 7, 8
 2866 1176 C3       		ret
 2867              		.cfi_endproc
 2868              	.LFE1159:
 2870              		.section	.rodata
 2871              		.align 8
 2872              	.LC31:
 2873 0490 54657374 		.string	"TestAddedWithTEST_EXMacroGetsDefaultSuite"
 2873      41646465 
 2873      64576974 
 2873      68544553 
 2873      545F4558 
 2874              		.text
 2875 1177 90       		.align 2
 2877              	_ZN12_GLOBAL__N_145TestTestAddedWithTEST_EXMacroGetsDefaultSuiteC2Ev:
 2878              	.LFB1161:
  87:TestTestMacros.cpp **** 
  88:TestTestMacros.cpp **** TEST(TestAddedWithTEST_EXMacroGetsDefaultSuite)
 2879              		.loc 6 88 0
 2880              		.cfi_startproc
 2881 1178 55       		pushq	%rbp
 2882              		.cfi_def_cfa_offset 16
 2883              		.cfi_offset 6, -16
 2884 1179 4889E5   		movq	%rsp, %rbp
 2885              		.cfi_def_cfa_register 6
 2886 117c 53       		pushq	%rbx
 2887 117d 4883EC18 		subq	$24, %rsp
 2888              		.cfi_offset 3, -24
 2889 1181 48897DE8 		movq	%rdi, -24(%rbp)
 2890              	.LBB44:
 2891              		.loc 6 88 0
 2892 1185 488B5DE8 		movq	-24(%rbp), %rbx
 2893 1189 E8000000 		call	_ZN13UnitTestSuite12GetSuiteNameEv
 2893      00
 2894 118e 41B85800 		movl	$88, %r8d
 2894      0000
 2895 1194 488D0D00 		leaq	.LC2(%rip), %rcx
 2895      000000
 2896 119b 4889C2   		movq	%rax, %rdx
 2897 119e 488D3500 		leaq	.LC31(%rip), %rsi
 2897      000000
 2898 11a5 4889DF   		movq	%rbx, %rdi
 2899 11a8 E8000000 		call	_ZN8UnitTest4TestC2EPKcS2_S2_i@PLT
 2899      00
 2900 11ad 488D1500 		leaq	16+_ZTVN12_GLOBAL__N_145TestTestAddedWithTEST_EXMacroGetsDefaultSuiteE(%rip), %rdx
 2900      000000
 2901 11b4 488B45E8 		movq	-24(%rbp), %rax
 2902 11b8 488910   		movq	%rdx, (%rax)
 2903              	.LBE44:
 2904 11bb 90       		nop
 2905 11bc 4883C418 		addq	$24, %rsp
 2906 11c0 5B       		popq	%rbx
 2907 11c1 5D       		popq	%rbp
 2908              		.cfi_def_cfa 7, 8
 2909 11c2 C3       		ret
 2910              		.cfi_endproc
 2911              	.LFE1161:
 2913              		.set	_ZN12_GLOBAL__N_145TestTestAddedWithTEST_EXMacroGetsDefaultSuiteC1Ev,_ZN12_GLOBAL__N_145TestT
 2914              		.local	_ZN12_GLOBAL__N_153testTestAddedWithTEST_EXMacroGetsDefaultSuiteInstanceE
 2915              		.comm	_ZN12_GLOBAL__N_153testTestAddedWithTEST_EXMacroGetsDefaultSuiteInstanceE,56,32
 2916              		.local	_ZN12_GLOBAL__N_146adderTestAddedWithTEST_EXMacroGetsDefaultSuiteE
 2917              		.comm	_ZN12_GLOBAL__N_146adderTestAddedWithTEST_EXMacroGetsDefaultSuiteE,1,1
 2918              		.section	.rodata
 2919 04ba 00000000 		.align 8
 2919      0000
 2920              	.LC32:
 2921 04c0 6D616372 		.string	"macroTestList1.GetHead() != NULL"
 2921      6F546573 
 2921      744C6973 
 2921      74312E47 
 2921      65744865 
 2922 04e1 00000000 		.align 8
 2922      000000
 2923              	.LC33:
 2924 04e8 556E6861 		.string	"Unhandled exception in CHECK(macroTestList1.GetHead() != NULL)"
 2924      6E646C65 
 2924      64206578 
 2924      63657074 
 2924      696F6E20 
 2925 0527 00       		.align 8
 2926              	.LC34:
 2927 0528 556E6861 		.string	"Unhandled exception in CHECK_EQUAL(\"MacroTestHelper1\", macroTestList1.GetHead()->m_deta
 2927      6E646C65 
 2927      64206578 
 2927      63657074 
 2927      696F6E20 
 2928 058d 000000   		.align 8
 2929              	.LC35:
 2930 0590 556E6861 		.string	"Unhandled exception in CHECK_EQUAL(\"DefaultSuite\", macroTestList1.GetHead()->m_details.
 2930      6E646C65 
 2930      64206578 
 2930      63657074 
 2930      696F6E20 
 2931              		.text
 2932 11c3 90       		.align 2
 2934              	_ZNK12_GLOBAL__N_145TestTestAddedWithTEST_EXMacroGetsDefaultSuite7RunImplEv:
 2935              	.LFB1163:
  89:TestTestMacros.cpp **** {
 2936              		.loc 6 89 0
 2937              		.cfi_startproc
 2938              		.cfi_personality 0x9b,DW.ref.__gxx_personality_v0
 2939              		.cfi_lsda 0x1b,.LLSDA1163
 2940 11c4 55       		pushq	%rbp
 2941              		.cfi_def_cfa_offset 16
 2942              		.cfi_offset 6, -16
 2943 11c5 4889E5   		movq	%rsp, %rbp
 2944              		.cfi_def_cfa_register 6
 2945 11c8 53       		pushq	%rbx
 2946 11c9 4883EC48 		subq	$72, %rsp
 2947              		.cfi_offset 3, -24
 2948 11cd 48897DB8 		movq	%rdi, -72(%rbp)
 2949              		.loc 6 89 0
 2950 11d1 64488B04 		movq	%fs:40, %rax
 2950      25280000 
 2950      00
 2951 11da 488945E8 		movq	%rax, -24(%rbp)
 2952 11de 31C0     		xorl	%eax, %eax
  90:TestTestMacros.cpp ****     CHECK(macroTestList1.GetHead() != NULL);
 2953              		.loc 6 90 0
 2954 11e0 488D3D00 		leaq	_ZN12_GLOBAL__N_114macroTestList1E(%rip), %rdi
 2954      000000
 2955              	.LEHB53:
 2956 11e7 E8000000 		call	_ZNK8UnitTest8TestList7GetHeadEv@PLT
 2956      00
 2957 11ec 4885C0   		testq	%rax, %rax
 2958 11ef 0F95C0   		setne	%al
 2959 11f2 0FB6C0   		movzbl	%al, %eax
 2960 11f5 89C7     		movl	%eax, %edi
 2961 11f7 E8000000 		call	_ZN8UnitTest5CheckIbEEbT_
 2961      00
 2962 11fc 83F001   		xorl	$1, %eax
 2963 11ff 84C0     		testb	%al, %al
 2964 1201 743A     		je	.L140
 2965              		.loc 6 90 0 is_stmt 0 discriminator 2
 2966 1203 E8000000 		call	_ZN8UnitTest11CurrentTest7ResultsEv@PLT
 2966      00
 2967 1208 488B18   		movq	(%rax), %rbx
 2968 120b E8000000 		call	_ZN8UnitTest11CurrentTest7DetailsEv@PLT
 2968      00
 2969              		.loc 6 90 0 discriminator 3
 2970 1210 488B08   		movq	(%rax), %rcx
 2971 1213 488D45C0 		leaq	-64(%rbp), %rax
 2972 1217 BA5A0000 		movl	$90, %edx
 2972      00
 2973 121c 4889CE   		movq	%rcx, %rsi
 2974 121f 4889C7   		movq	%rax, %rdi
 2975 1222 E8000000 		call	_ZN8UnitTest11TestDetailsC1ERKS0_i@PLT
 2975      00
 2976              		.loc 6 90 0 discriminator 5
 2977 1227 488D45C0 		leaq	-64(%rbp), %rax
 2978 122b 488D1500 		leaq	.LC32(%rip), %rdx
 2978      000000
 2979 1232 4889C6   		movq	%rax, %rsi
 2980 1235 4889DF   		movq	%rbx, %rdi
 2981 1238 E8000000 		call	_ZN8UnitTest11TestResults13OnTestFailureERKNS_11TestDetailsEPKc@PLT
 2981      00
 2982              	.LEHE53:
 2983              	.L140:
 2984              	.LEHB54:
  91:TestTestMacros.cpp ****     CHECK_EQUAL ("MacroTestHelper1", macroTestList1.GetHead()->m_details.testName);
 2985              		.loc 6 91 0 is_stmt 1
 2986 123d E8000000 		call	_ZN8UnitTest11CurrentTest7DetailsEv@PLT
 2986      00
 2987 1242 488B08   		movq	(%rax), %rcx
 2988 1245 488D45C0 		leaq	-64(%rbp), %rax
 2989 1249 BA5B0000 		movl	$91, %edx
 2989      00
 2990 124e 4889CE   		movq	%rcx, %rsi
 2991 1251 4889C7   		movq	%rax, %rdi
 2992 1254 E8000000 		call	_ZN8UnitTest11TestDetailsC1ERKS0_i@PLT
 2992      00
 2993              		.loc 6 91 0 is_stmt 0 discriminator 2
 2994 1259 488D3D00 		leaq	_ZN12_GLOBAL__N_114macroTestList1E(%rip), %rdi
 2994      000000
 2995 1260 E8000000 		call	_ZNK8UnitTest8TestList7GetHeadEv@PLT
 2995      00
 2996 1265 488B5810 		movq	16(%rax), %rbx
 2997 1269 E8000000 		call	_ZN8UnitTest11CurrentTest7ResultsEv@PLT
 2997      00
 2998              		.loc 6 91 0 discriminator 4
 2999 126e 488B00   		movq	(%rax), %rax
 3000 1271 488D55C0 		leaq	-64(%rbp), %rdx
 3001 1275 4889D1   		movq	%rdx, %rcx
 3002 1278 4889DA   		movq	%rbx, %rdx
 3003 127b 488D3500 		leaq	.LC30(%rip), %rsi
 3003      000000
 3004 1282 4889C7   		movq	%rax, %rdi
 3005 1285 E8000000 		call	_ZN8UnitTest10CheckEqualERNS_11TestResultsEPKcS3_RKNS_11TestDetailsE@PLT
 3005      00
 3006              	.LEHE54:
 3007              	.L144:
 3008              	.LEHB55:
  92:TestTestMacros.cpp ****     CHECK_EQUAL ("DefaultSuite", macroTestList1.GetHead()->m_details.suiteName);
 3009              		.loc 6 92 0 is_stmt 1
 3010 128a E8000000 		call	_ZN8UnitTest11CurrentTest7DetailsEv@PLT
 3010      00
 3011 128f 488B08   		movq	(%rax), %rcx
 3012 1292 488D45C0 		leaq	-64(%rbp), %rax
 3013 1296 BA5C0000 		movl	$92, %edx
 3013      00
 3014 129b 4889CE   		movq	%rcx, %rsi
 3015 129e 4889C7   		movq	%rax, %rdi
 3016 12a1 E8000000 		call	_ZN8UnitTest11TestDetailsC1ERKS0_i@PLT
 3016      00
 3017              		.loc 6 92 0 is_stmt 0 discriminator 2
 3018 12a6 488D3D00 		leaq	_ZN12_GLOBAL__N_114macroTestList1E(%rip), %rdi
 3018      000000
 3019 12ad E8000000 		call	_ZNK8UnitTest8TestList7GetHeadEv@PLT
 3019      00
 3020 12b2 488B5808 		movq	8(%rax), %rbx
 3021 12b6 E8000000 		call	_ZN8UnitTest11CurrentTest7ResultsEv@PLT
 3021      00
 3022              		.loc 6 92 0 discriminator 4
 3023 12bb 488B00   		movq	(%rax), %rax
 3024 12be 488D55C0 		leaq	-64(%rbp), %rdx
 3025 12c2 4889D1   		movq	%rdx, %rcx
 3026 12c5 4889DA   		movq	%rbx, %rdx
 3027 12c8 488D3500 		leaq	.LC0(%rip), %rsi
 3027      000000
 3028 12cf 4889C7   		movq	%rax, %rdi
 3029 12d2 E8000000 		call	_ZN8UnitTest10CheckEqualERNS_11TestResultsEPKcS3_RKNS_11TestDetailsE@PLT
 3029      00
 3030              	.LEHE55:
  93:TestTestMacros.cpp **** }
 3031              		.loc 6 93 0 is_stmt 1
 3032 12d7 E91A0100 		jmp	.L139
 3032      00
 3033              	.L150:
  90:TestTestMacros.cpp ****     CHECK_EQUAL ("MacroTestHelper1", macroTestList1.GetHead()->m_details.testName);
 3034              		.loc 6 90 0
 3035 12dc 4889C7   		movq	%rax, %rdi
 3036 12df E8000000 		call	__cxa_begin_catch@PLT
 3036      00
 3037              	.LEHB56:
 3038 12e4 E8000000 		call	_ZN8UnitTest11CurrentTest7ResultsEv@PLT
 3038      00
 3039 12e9 488B18   		movq	(%rax), %rbx
 3040 12ec E8000000 		call	_ZN8UnitTest11CurrentTest7DetailsEv@PLT
 3040      00
  90:TestTestMacros.cpp ****     CHECK_EQUAL ("MacroTestHelper1", macroTestList1.GetHead()->m_details.testName);
 3041              		.loc 6 90 0 is_stmt 0 discriminator 9
 3042 12f1 488B08   		movq	(%rax), %rcx
 3043 12f4 488D45C0 		leaq	-64(%rbp), %rax
 3044 12f8 BA5A0000 		movl	$90, %edx
 3044      00
 3045 12fd 4889CE   		movq	%rcx, %rsi
 3046 1300 4889C7   		movq	%rax, %rdi
 3047 1303 E8000000 		call	_ZN8UnitTest11TestDetailsC1ERKS0_i@PLT
 3047      00
  90:TestTestMacros.cpp ****     CHECK_EQUAL ("MacroTestHelper1", macroTestList1.GetHead()->m_details.testName);
 3048              		.loc 6 90 0 discriminator 13
 3049 1308 488D45C0 		leaq	-64(%rbp), %rax
 3050 130c 488D1500 		leaq	.LC33(%rip), %rdx
 3050      000000
 3051 1313 4889C6   		movq	%rax, %rsi
 3052 1316 4889DF   		movq	%rbx, %rdi
 3053 1319 E8000000 		call	_ZN8UnitTest11TestResults13OnTestFailureERKNS_11TestDetailsEPKc@PLT
 3053      00
 3054              	.LEHE56:
 3055              	.LEHB57:
  90:TestTestMacros.cpp ****     CHECK_EQUAL ("MacroTestHelper1", macroTestList1.GetHead()->m_details.testName);
 3056              		.loc 6 90 0 discriminator 15
 3057 131e E8000000 		call	__cxa_end_catch@PLT
 3057      00
 3058              	.LEHE57:
 3059 1323 E915FFFF 		jmp	.L140
 3059      FF
 3060              	.L151:
 3061 1328 4889C3   		movq	%rax, %rbx
  90:TestTestMacros.cpp ****     CHECK_EQUAL ("MacroTestHelper1", macroTestList1.GetHead()->m_details.testName);
 3062              		.loc 6 90 0
 3063 132b E8000000 		call	__cxa_end_catch@PLT
 3063      00
 3064 1330 4889D8   		movq	%rbx, %rax
 3065 1333 4889C7   		movq	%rax, %rdi
 3066              	.LEHB58:
 3067 1336 E8000000 		call	_Unwind_Resume@PLT
 3067      00
 3068              	.LEHE58:
 3069              	.L152:
  91:TestTestMacros.cpp ****     CHECK_EQUAL ("DefaultSuite", macroTestList1.GetHead()->m_details.suiteName);
 3070              		.loc 6 91 0 is_stmt 1
 3071 133b 4889C7   		movq	%rax, %rdi
 3072 133e E8000000 		call	__cxa_begin_catch@PLT
 3072      00
 3073              	.LEHB59:
 3074 1343 E8000000 		call	_ZN8UnitTest11CurrentTest7ResultsEv@PLT
 3074      00
 3075 1348 488B18   		movq	(%rax), %rbx
 3076 134b E8000000 		call	_ZN8UnitTest11CurrentTest7DetailsEv@PLT
 3076      00
  91:TestTestMacros.cpp ****     CHECK_EQUAL ("DefaultSuite", macroTestList1.GetHead()->m_details.suiteName);
 3077              		.loc 6 91 0 is_stmt 0 discriminator 10
 3078 1350 488B08   		movq	(%rax), %rcx
 3079 1353 488D45C0 		leaq	-64(%rbp), %rax
 3080 1357 BA5B0000 		movl	$91, %edx
 3080      00
 3081 135c 4889CE   		movq	%rcx, %rsi
 3082 135f 4889C7   		movq	%rax, %rdi
 3083 1362 E8000000 		call	_ZN8UnitTest11TestDetailsC1ERKS0_i@PLT
 3083      00
  91:TestTestMacros.cpp ****     CHECK_EQUAL ("DefaultSuite", macroTestList1.GetHead()->m_details.suiteName);
 3084              		.loc 6 91 0 discriminator 14
 3085 1367 488D45C0 		leaq	-64(%rbp), %rax
 3086 136b 488D1500 		leaq	.LC34(%rip), %rdx
 3086      000000
 3087 1372 4889C6   		movq	%rax, %rsi
 3088 1375 4889DF   		movq	%rbx, %rdi
 3089 1378 E8000000 		call	_ZN8UnitTest11TestResults13OnTestFailureERKNS_11TestDetailsEPKc@PLT
 3089      00
 3090              	.LEHE59:
 3091              	.LEHB60:
  91:TestTestMacros.cpp ****     CHECK_EQUAL ("DefaultSuite", macroTestList1.GetHead()->m_details.suiteName);
 3092              		.loc 6 91 0 discriminator 16
 3093 137d E8000000 		call	__cxa_end_catch@PLT
 3093      00
 3094              	.LEHE60:
 3095 1382 E903FFFF 		jmp	.L144
 3095      FF
 3096              	.L153:
 3097 1387 4889C3   		movq	%rax, %rbx
  91:TestTestMacros.cpp ****     CHECK_EQUAL ("DefaultSuite", macroTestList1.GetHead()->m_details.suiteName);
 3098              		.loc 6 91 0
 3099 138a E8000000 		call	__cxa_end_catch@PLT
 3099      00
 3100 138f 4889D8   		movq	%rbx, %rax
 3101 1392 4889C7   		movq	%rax, %rdi
 3102              	.LEHB61:
 3103 1395 E8000000 		call	_Unwind_Resume@PLT
 3103      00
 3104              	.LEHE61:
 3105              	.L154:
  92:TestTestMacros.cpp **** }
 3106              		.loc 6 92 0 is_stmt 1
 3107 139a 4889C7   		movq	%rax, %rdi
 3108 139d E8000000 		call	__cxa_begin_catch@PLT
 3108      00
 3109              	.LEHB62:
 3110 13a2 E8000000 		call	_ZN8UnitTest11CurrentTest7ResultsEv@PLT
 3110      00
 3111 13a7 488B18   		movq	(%rax), %rbx
 3112 13aa E8000000 		call	_ZN8UnitTest11CurrentTest7DetailsEv@PLT
 3112      00
  92:TestTestMacros.cpp **** }
 3113              		.loc 6 92 0 is_stmt 0 discriminator 10
 3114 13af 488B08   		movq	(%rax), %rcx
 3115 13b2 488D45C0 		leaq	-64(%rbp), %rax
 3116 13b6 BA5C0000 		movl	$92, %edx
 3116      00
 3117 13bb 4889CE   		movq	%rcx, %rsi
 3118 13be 4889C7   		movq	%rax, %rdi
 3119 13c1 E8000000 		call	_ZN8UnitTest11TestDetailsC1ERKS0_i@PLT
 3119      00
  92:TestTestMacros.cpp **** }
 3120              		.loc 6 92 0 discriminator 14
 3121 13c6 488D45C0 		leaq	-64(%rbp), %rax
 3122 13ca 488D1500 		leaq	.LC35(%rip), %rdx
 3122      000000
 3123 13d1 4889C6   		movq	%rax, %rsi
 3124 13d4 4889DF   		movq	%rbx, %rdi
 3125 13d7 E8000000 		call	_ZN8UnitTest11TestResults13OnTestFailureERKNS_11TestDetailsEPKc@PLT
 3125      00
 3126              	.LEHE62:
 3127              	.LEHB63:
  92:TestTestMacros.cpp **** }
 3128              		.loc 6 92 0 discriminator 16
 3129 13dc E8000000 		call	__cxa_end_catch@PLT
 3129      00
 3130              	.LEHE63:
 3131              		.loc 6 93 0 is_stmt 1 discriminator 16
 3132 13e1 EB13     		jmp	.L139
 3133              	.L155:
 3134 13e3 4889C3   		movq	%rax, %rbx
  92:TestTestMacros.cpp **** }
 3135              		.loc 6 92 0
 3136 13e6 E8000000 		call	__cxa_end_catch@PLT
 3136      00
 3137 13eb 4889D8   		movq	%rbx, %rax
 3138 13ee 4889C7   		movq	%rax, %rdi
 3139              	.LEHB64:
 3140 13f1 E8000000 		call	_Unwind_Resume@PLT
 3140      00
 3141              	.LEHE64:
 3142              	.L139:
 3143              		.loc 6 93 0
 3144 13f6 488B45E8 		movq	-24(%rbp), %rax
 3145 13fa 64483304 		xorq	%fs:40, %rax
 3145      25280000 
 3145      00
 3146 1403 7405     		je	.L149
 3147 1405 E8000000 		call	__stack_chk_fail@PLT
 3147      00
 3148              	.L149:
 3149 140a 4883C448 		addq	$72, %rsp
 3150 140e 5B       		popq	%rbx
 3151 140f 5D       		popq	%rbp
 3152              		.cfi_def_cfa 7, 8
 3153 1410 C3       		ret
 3154              		.cfi_endproc
 3155              	.LFE1163:
 3156              		.section	.gcc_except_table
 3157              		.align 4
 3158              	.LLSDA1163:
 3159 0178 FF       		.byte	0xff
 3160 0179 9B       		.byte	0x9b
 3161 017a 49       		.uleb128 .LLSDATT1163-.LLSDATTD1163
 3162              	.LLSDATTD1163:
 3163 017b 01       		.byte	0x1
 3164 017c 40       		.uleb128 .LLSDACSE1163-.LLSDACSB1163
 3165              	.LLSDACSB1163:
 3166 017d 23       		.uleb128 .LEHB53-.LFB1163
 3167 017e 56       		.uleb128 .LEHE53-.LEHB53
 3168 017f 9802     		.uleb128 .L150-.LFB1163
 3169 0181 01       		.uleb128 0x1
 3170 0182 79       		.uleb128 .LEHB54-.LFB1163
 3171 0183 4D       		.uleb128 .LEHE54-.LEHB54
 3172 0184 F702     		.uleb128 .L152-.LFB1163
 3173 0186 01       		.uleb128 0x1
 3174 0187 C601     		.uleb128 .LEHB55-.LFB1163
 3175 0189 4D       		.uleb128 .LEHE55-.LEHB55
 3176 018a D603     		.uleb128 .L154-.LFB1163
 3177 018c 01       		.uleb128 0x1
 3178 018d A002     		.uleb128 .LEHB56-.LFB1163
 3179 018f 3A       		.uleb128 .LEHE56-.LEHB56
 3180 0190 E402     		.uleb128 .L151-.LFB1163
 3181 0192 00       		.uleb128 0
 3182 0193 DA02     		.uleb128 .LEHB57-.LFB1163
 3183 0195 05       		.uleb128 .LEHE57-.LEHB57
 3184 0196 00       		.uleb128 0
 3185 0197 00       		.uleb128 0
 3186 0198 F202     		.uleb128 .LEHB58-.LFB1163
 3187 019a 05       		.uleb128 .LEHE58-.LEHB58
 3188 019b 00       		.uleb128 0
 3189 019c 00       		.uleb128 0
 3190 019d FF02     		.uleb128 .LEHB59-.LFB1163
 3191 019f 3A       		.uleb128 .LEHE59-.LEHB59
 3192 01a0 C303     		.uleb128 .L153-.LFB1163
 3193 01a2 00       		.uleb128 0
 3194 01a3 B903     		.uleb128 .LEHB60-.LFB1163
 3195 01a5 05       		.uleb128 .LEHE60-.LEHB60
 3196 01a6 00       		.uleb128 0
 3197 01a7 00       		.uleb128 0
 3198 01a8 D103     		.uleb128 .LEHB61-.LFB1163
 3199 01aa 05       		.uleb128 .LEHE61-.LEHB61
 3200 01ab 00       		.uleb128 0
 3201 01ac 00       		.uleb128 0
 3202 01ad DE03     		.uleb128 .LEHB62-.LFB1163
 3203 01af 3A       		.uleb128 .LEHE62-.LEHB62
 3204 01b0 9F04     		.uleb128 .L155-.LFB1163
 3205 01b2 00       		.uleb128 0
 3206 01b3 9804     		.uleb128 .LEHB63-.LFB1163
 3207 01b5 05       		.uleb128 .LEHE63-.LEHB63
 3208 01b6 00       		.uleb128 0
 3209 01b7 00       		.uleb128 0
 3210 01b8 AD04     		.uleb128 .LEHB64-.LFB1163
 3211 01ba 05       		.uleb128 .LEHE64-.LEHB64
 3212 01bb 00       		.uleb128 0
 3213 01bc 00       		.uleb128 0
 3214              	.LLSDACSE1163:
 3215 01bd 01       		.byte	0x1
 3216 01be 00       		.byte	0
 3217 01bf 00       		.align 4
 3218 01c0 00000000 		.long	0
 3219              	
 3220              	.LLSDATT1163:
 3221              		.text
 3223              		.local	_ZN12_GLOBAL__N_114macroTestList2E
 3224              		.comm	_ZN12_GLOBAL__N_114macroTestList2E,16,16
 3225 1411 90       		.align 2
 3227              	_ZN12_GLOBAL__N_134DummyFixtureMacroTestHelper2HelperC2ERKN8UnitTest11TestDetailsE:
 3228              	.LFB1165:
  94:TestTestMacros.cpp **** 
  95:TestTestMacros.cpp **** TestList macroTestList2;
  96:TestTestMacros.cpp **** TEST_FIXTURE_EX(DummyFixture, MacroTestHelper2, macroTestList2)
 3229              		.loc 6 96 0
 3230              		.cfi_startproc
 3231 1412 55       		pushq	%rbp
 3232              		.cfi_def_cfa_offset 16
 3233              		.cfi_offset 6, -16
 3234 1413 4889E5   		movq	%rsp, %rbp
 3235              		.cfi_def_cfa_register 6
 3236 1416 48897DF8 		movq	%rdi, -8(%rbp)
 3237 141a 488975F0 		movq	%rsi, -16(%rbp)
 3238              	.LBB45:
 3239              		.loc 6 96 0
 3240 141e 488B45F8 		movq	-8(%rbp), %rax
 3241 1422 488B55F0 		movq	-16(%rbp), %rdx
 3242 1426 48895008 		movq	%rdx, 8(%rax)
 3243              	.LBE45:
 3244 142a 90       		nop
 3245 142b 5D       		popq	%rbp
 3246              		.cfi_def_cfa 7, 8
 3247 142c C3       		ret
 3248              		.cfi_endproc
 3249              	.LFE1165:
 3251              		.set	_ZN12_GLOBAL__N_134DummyFixtureMacroTestHelper2HelperC1ERKN8UnitTest11TestDetailsE,_ZN12_GLOB
 3252              		.section	.rodata
 3253              	.LC36:
 3254 05f2 4D616372 		.string	"MacroTestHelper2"
 3254      6F546573 
 3254      7448656C 
 3254      70657232 
 3254      00
 3255              		.text
 3256 142d 90       		.align 2
 3258              	_ZN12_GLOBAL__N_132TestDummyFixtureMacroTestHelper2C2Ev:
 3259              	.LFB1168:
 3260              		.loc 6 96 0
 3261              		.cfi_startproc
 3262 142e 55       		pushq	%rbp
 3263              		.cfi_def_cfa_offset 16
 3264              		.cfi_offset 6, -16
 3265 142f 4889E5   		movq	%rsp, %rbp
 3266              		.cfi_def_cfa_register 6
 3267 1432 53       		pushq	%rbx
 3268 1433 4883EC18 		subq	$24, %rsp
 3269              		.cfi_offset 3, -24
 3270 1437 48897DE8 		movq	%rdi, -24(%rbp)
 3271              	.LBB46:
 3272              		.loc 6 96 0
 3273 143b 488B5DE8 		movq	-24(%rbp), %rbx
 3274 143f E8000000 		call	_ZN13UnitTestSuite12GetSuiteNameEv
 3274      00
 3275 1444 41B86000 		movl	$96, %r8d
 3275      0000
 3276 144a 488D0D00 		leaq	.LC2(%rip), %rcx
 3276      000000
 3277 1451 4889C2   		movq	%rax, %rdx
 3278 1454 488D3500 		leaq	.LC36(%rip), %rsi
 3278      000000
 3279 145b 4889DF   		movq	%rbx, %rdi
 3280 145e E8000000 		call	_ZN8UnitTest4TestC2EPKcS2_S2_i@PLT
 3280      00
 3281 1463 488D1500 		leaq	16+_ZTVN12_GLOBAL__N_132TestDummyFixtureMacroTestHelper2E(%rip), %rdx
 3281      000000
 3282 146a 488B45E8 		movq	-24(%rbp), %rax
 3283 146e 488910   		movq	%rdx, (%rax)
 3284              	.LBE46:
 3285 1471 90       		nop
 3286 1472 4883C418 		addq	$24, %rsp
 3287 1476 5B       		popq	%rbx
 3288 1477 5D       		popq	%rbp
 3289              		.cfi_def_cfa 7, 8
 3290 1478 C3       		ret
 3291              		.cfi_endproc
 3292              	.LFE1168:
 3294              		.set	_ZN12_GLOBAL__N_132TestDummyFixtureMacroTestHelper2C1Ev,_ZN12_GLOBAL__N_132TestDummyFixtureMa
 3295              		.local	_ZN12_GLOBAL__N_140testDummyFixtureMacroTestHelper2InstanceE
 3296              		.comm	_ZN12_GLOBAL__N_140testDummyFixtureMacroTestHelper2InstanceE,56,32
 3297              		.local	_ZN12_GLOBAL__N_133adderDummyFixtureMacroTestHelper2E
 3298              		.comm	_ZN12_GLOBAL__N_133adderDummyFixtureMacroTestHelper2E,1,1
 3299 1479 90       		.align 2
 3301              	_ZNK12_GLOBAL__N_132TestDummyFixtureMacroTestHelper27RunImplEv:
 3302              	.LFB1170:
 3303              		.loc 6 96 0
 3304              		.cfi_startproc
 3305              		.cfi_personality 0x9b,DW.ref.__gxx_personality_v0
 3306              		.cfi_lsda 0x1b,.LLSDA1170
 3307 147a 55       		pushq	%rbp
 3308              		.cfi_def_cfa_offset 16
 3309              		.cfi_offset 6, -16
 3310 147b 4889E5   		movq	%rsp, %rbp
 3311              		.cfi_def_cfa_register 6
 3312 147e 4155     		pushq	%r13
 3313 1480 4154     		pushq	%r12
 3314 1482 53       		pushq	%rbx
 3315 1483 4881ECF8 		subq	$504, %rsp
 3315      010000
 3316              		.cfi_offset 13, -24
 3317              		.cfi_offset 12, -32
 3318              		.cfi_offset 3, -40
 3319 148a 4889BDF8 		movq	%rdi, -520(%rbp)
 3319      FDFFFF
 3320              		.loc 6 96 0
 3321 1491 64488B04 		movq	%fs:40, %rax
 3321      25280000 
 3321      00
 3322 149a 488945D8 		movq	%rax, -40(%rbp)
 3323 149e 31C0     		xorl	%eax, %eax
 3324 14a0 C6850FFE 		movb	$0, -497(%rbp)
 3324      FFFF00
 3325              	.LBB47:
 3326 14a7 488B85F8 		movq	-520(%rbp), %rax
 3326      FDFFFF
 3327 14ae 488D5008 		leaq	8(%rax), %rdx
 3328 14b2 488D8520 		leaq	-480(%rbp), %rax
 3328      FEFFFF
 3329 14b9 4889D6   		movq	%rdx, %rsi
 3330 14bc 4889C7   		movq	%rax, %rdi
 3331 14bf E84EFFFF 		call	_ZN12_GLOBAL__N_134DummyFixtureMacroTestHelper2HelperC1ERKN8UnitTest11TestDetailsE
 3331      FF
 3332 14c4 C6850FFE 		movb	$1, -497(%rbp)
 3332      FFFF01
 3333 14cb 488B85F8 		movq	-520(%rbp), %rax
 3333      FDFFFF
 3334 14d2 488D5008 		leaq	8(%rax), %rdx
 3335 14d6 488D8520 		leaq	-480(%rbp), %rax
 3335      FEFFFF
 3336 14dd 4889D6   		movq	%rdx, %rsi
 3337 14e0 4889C7   		movq	%rax, %rdi
 3338              	.LEHB65:
 3339 14e3 E8F92300 		call	_ZN8UnitTest11ExecuteTestIN12_GLOBAL__N_134DummyFixtureMacroTestHelper2HelperEEEvRT_RKNS_11Te
 3339      00
 3340              	.LEHE65:
 3341              	.LBE47:
 3342 14e8 E94C0200 		jmp	.L158
 3342      00
 3343              	.L171:
 3344 14ed 4883FA01 		cmpq	$1, %rdx
 3345 14f1 740F     		je	.L161
 3346 14f3 4883FA02 		cmpq	$2, %rdx
 3347 14f7 0F84A700 		je	.L162
 3347      0000
 3348 14fd E94A0100 		jmp	.L176
 3348      00
 3349              	.L161:
 3350              	.LBB48:
 3351 1502 4889C7   		movq	%rax, %rdi
 3352 1505 E8000000 		call	__cxa_begin_catch@PLT
 3352      00
 3353 150a 48898518 		movq	%rax, -488(%rbp)
 3353      FEFFFF
 3354              	.LEHB66:
 3355 1511 E8000000 		call	_ZN8UnitTest11CurrentTest7ResultsEv@PLT
 3355      00
 3356 1516 488B18   		movq	(%rax), %rbx
 3357 1519 488B8518 		movq	-488(%rbp), %rax
 3357      FEFFFF
 3358 1520 488B00   		movq	(%rax), %rax
 3359 1523 4883C010 		addq	$16, %rax
 3360 1527 488B00   		movq	(%rax), %rax
 3361 152a 488B9518 		movq	-488(%rbp), %rdx
 3361      FEFFFF
 3362 1531 4889D7   		movq	%rdx, %rdi
 3363 1534 FFD0     		call	*%rax
 3364              	.LVL6:
 3365 1536 4989C4   		movq	%rax, %r12
 3366 1539 488B8518 		movq	-488(%rbp), %rax
 3366      FEFFFF
 3367 1540 4889C7   		movq	%rax, %rdi
 3368 1543 E8000000 		call	_ZNK8UnitTest15AssertException10LineNumberEv@PLT
 3368      00
 3369              		.loc 6 96 0 is_stmt 0 discriminator 2
 3370 1548 4189C5   		movl	%eax, %r13d
 3371 154b 488B8518 		movq	-488(%rbp), %rax
 3371      FEFFFF
 3372 1552 4889C7   		movq	%rax, %rdi
 3373 1555 E8000000 		call	_ZNK8UnitTest15AssertException8FilenameEv@PLT
 3373      00
 3374              		.loc 6 96 0 discriminator 4
 3375 155a 4889C1   		movq	%rax, %rcx
 3376 155d 488B85F8 		movq	-520(%rbp), %rax
 3376      FDFFFF
 3377 1564 488B5008 		movq	8(%rax), %rdx
 3378 1568 488B85F8 		movq	-520(%rbp), %rax
 3378      FDFFFF
 3379 156f 488B7010 		movq	16(%rax), %rsi
 3380 1573 488D8520 		leaq	-480(%rbp), %rax
 3380      FEFFFF
 3381 157a 4589E8   		movl	%r13d, %r8d
 3382 157d 4889C7   		movq	%rax, %rdi
 3383 1580 E8000000 		call	_ZN8UnitTest11TestDetailsC1EPKcS2_S2_i@PLT
 3383      00
 3384              		.loc 6 96 0 discriminator 8
 3385 1585 488D8520 		leaq	-480(%rbp), %rax
 3385      FEFFFF
 3386 158c 4C89E2   		movq	%r12, %rdx
 3387 158f 4889C6   		movq	%rax, %rsi
 3388 1592 4889DF   		movq	%rbx, %rdi
 3389 1595 E8000000 		call	_ZN8UnitTest11TestResults13OnTestFailureERKNS_11TestDetailsEPKc@PLT
 3389      00
 3390              	.LEHE66:
 3391              		.loc 6 96 0 discriminator 10
 3392 159a E8000000 		call	__cxa_end_catch@PLT
 3392      00
 3393              	.LBE48:
 3394 159f E9950100 		jmp	.L158
 3394      00
 3395              	.L162:
 3396              	.LBB49:
 3397              		.loc 6 96 0
 3398 15a4 4889C7   		movq	%rax, %rdi
 3399 15a7 E8000000 		call	__cxa_begin_catch@PLT
 3399      00
 3400 15ac 48898510 		movq	%rax, -496(%rbp)
 3400      FEFFFF
 3401              	.LBB50:
 3402 15b3 488D8540 		leaq	-448(%rbp), %rax
 3402      FEFFFF
 3403 15ba 4889C7   		movq	%rax, %rdi
 3404              	.LEHB67:
 3405 15bd E8000000 		call	_ZN8UnitTest15MemoryOutStreamC1Ev
 3405      00
 3406              	.LEHE67:
 3407              		.loc 6 96 0 discriminator 12
 3408 15c2 488D8540 		leaq	-448(%rbp), %rax
 3408      FEFFFF
 3409 15c9 488D3500 		leaq	.LC11(%rip), %rsi
 3409      000000
 3410 15d0 4889C7   		movq	%rax, %rdi
 3411              	.LEHB68:
 3412 15d3 E8000000 		call	_ZStlsISt11char_traitsIcEERSt13basic_ostreamIcT_ES5_PKc@PLT
 3412      00
 3413 15d8 4889C3   		movq	%rax, %rbx
 3414 15db 488B8510 		movq	-496(%rbp), %rax
 3414      FEFFFF
 3415 15e2 488B00   		movq	(%rax), %rax
 3416 15e5 4883C010 		addq	$16, %rax
 3417 15e9 488B00   		movq	(%rax), %rax
 3418 15ec 488B9510 		movq	-496(%rbp), %rdx
 3418      FEFFFF
 3419 15f3 4889D7   		movq	%rdx, %rdi
 3420 15f6 FFD0     		call	*%rax
 3421              	.LVL7:
 3422 15f8 4889C6   		movq	%rax, %rsi
 3423 15fb 4889DF   		movq	%rbx, %rdi
 3424 15fe E8000000 		call	_ZStlsISt11char_traitsIcEERSt13basic_ostreamIcT_ES5_PKc@PLT
 3424      00
 3425              		.loc 6 96 0 discriminator 16
 3426 1603 E8000000 		call	_ZN8UnitTest11CurrentTest7ResultsEv@PLT
 3426      00
 3427 1608 488B18   		movq	(%rax), %rbx
 3428 160b 488D8540 		leaq	-448(%rbp), %rax
 3428      FEFFFF
 3429 1612 4889C7   		movq	%rax, %rdi
 3430 1615 E8000000 		call	_ZNK8UnitTest15MemoryOutStream7GetTextEv@PLT
 3430      00
 3431              		.loc 6 96 0 discriminator 18
 3432 161a 4889C2   		movq	%rax, %rdx
 3433 161d 488B85F8 		movq	-520(%rbp), %rax
 3433      FDFFFF
 3434 1624 4883C008 		addq	$8, %rax
 3435 1628 4889C6   		movq	%rax, %rsi
 3436 162b 4889DF   		movq	%rbx, %rdi
 3437 162e E8000000 		call	_ZN8UnitTest11TestResults13OnTestFailureERKNS_11TestDetailsEPKc@PLT
 3437      00
 3438              	.LEHE68:
 3439              		.loc 6 96 0 discriminator 22
 3440 1633 488D8540 		leaq	-448(%rbp), %rax
 3440      FEFFFF
 3441 163a 4889C7   		movq	%rax, %rdi
 3442              	.LEHB69:
 3443 163d E8000000 		call	_ZN8UnitTest15MemoryOutStreamD1Ev
 3443      00
 3444              	.LEHE69:
 3445              	.LBE50:
 3446              		.loc 6 96 0 discriminator 23
 3447 1642 E8000000 		call	__cxa_end_catch@PLT
 3447      00
 3448              	.LBE49:
 3449 1647 E9ED0000 		jmp	.L158
 3449      00
 3450              	.L176:
 3451              		.loc 6 96 0
 3452 164c 4889C7   		movq	%rax, %rdi
 3453 164f E8000000 		call	__cxa_begin_catch@PLT
 3453      00
 3454 1654 80BD0FFE 		cmpb	$0, -497(%rbp)
 3454      FFFF00
 3455 165b 7445     		je	.L164
 3456              	.LEHB70:
 3457              		.loc 6 96 0 discriminator 25
 3458 165d E8000000 		call	_ZN8UnitTest11CurrentTest7ResultsEv@PLT
 3458      00
 3459 1662 488B18   		movq	(%rax), %rbx
 3460 1665 488B85F8 		movq	-520(%rbp), %rax
 3460      FDFFFF
 3461 166c 488D4808 		leaq	8(%rax), %rcx
 3462 1670 488D8520 		leaq	-480(%rbp), %rax
 3462      FEFFFF
 3463 1677 BA600000 		movl	$96, %edx
 3463      00
 3464 167c 4889CE   		movq	%rcx, %rsi
 3465 167f 4889C7   		movq	%rax, %rdi
 3466 1682 E8000000 		call	_ZN8UnitTest11TestDetailsC1ERKS0_i@PLT
 3466      00
 3467              		.loc 6 96 0 discriminator 30
 3468 1687 488D8520 		leaq	-480(%rbp), %rax
 3468      FEFFFF
 3469 168e 488D1500 		leaq	.LC27(%rip), %rdx
 3469      000000
 3470 1695 4889C6   		movq	%rax, %rsi
 3471 1698 4889DF   		movq	%rbx, %rdi
 3472 169b E8000000 		call	_ZN8UnitTest11TestResults13OnTestFailureERKNS_11TestDetailsEPKc@PLT
 3472      00
 3473 16a0 EB43     		jmp	.L165
 3474              	.L164:
 3475              		.loc 6 96 0 discriminator 26
 3476 16a2 E8000000 		call	_ZN8UnitTest11CurrentTest7ResultsEv@PLT
 3476      00
 3477 16a7 488B18   		movq	(%rax), %rbx
 3478 16aa 488B85F8 		movq	-520(%rbp), %rax
 3478      FDFFFF
 3479 16b1 488D4808 		leaq	8(%rax), %rcx
 3480 16b5 488D8520 		leaq	-480(%rbp), %rax
 3480      FEFFFF
 3481 16bc BA600000 		movl	$96, %edx
 3481      00
 3482 16c1 4889CE   		movq	%rcx, %rsi
 3483 16c4 4889C7   		movq	%rax, %rdi
 3484 16c7 E8000000 		call	_ZN8UnitTest11TestDetailsC1ERKS0_i@PLT
 3484      00
 3485              		.loc 6 96 0 discriminator 37
 3486 16cc 488D8520 		leaq	-480(%rbp), %rax
 3486      FEFFFF
 3487 16d3 488D1500 		leaq	.LC28(%rip), %rdx
 3487      000000
 3488 16da 4889C6   		movq	%rax, %rsi
 3489 16dd 4889DF   		movq	%rbx, %rdi
 3490 16e0 E8000000 		call	_ZN8UnitTest11TestResults13OnTestFailureERKNS_11TestDetailsEPKc@PLT
 3490      00
 3491              	.LEHE70:
 3492              	.L165:
 3493              	.LEHB71:
 3494              		.loc 6 96 0 discriminator 40
 3495 16e5 E8000000 		call	__cxa_end_catch@PLT
 3495      00
 3496 16ea EB4D     		jmp	.L158
 3497              	.L172:
 3498 16ec 4889C3   		movq	%rax, %rbx
 3499              	.LBB52:
 3500              		.loc 6 96 0
 3501 16ef E8000000 		call	__cxa_end_catch@PLT
 3501      00
 3502 16f4 4889D8   		movq	%rbx, %rax
 3503 16f7 4889C7   		movq	%rax, %rdi
 3504 16fa E8000000 		call	_Unwind_Resume@PLT
 3504      00
 3505              	.LEHE71:
 3506              	.L174:
 3507 16ff 4889C3   		movq	%rax, %rbx
 3508              	.LBE52:
 3509              	.LBB53:
 3510              	.LBB51:
 3511 1702 488D8540 		leaq	-448(%rbp), %rax
 3511      FEFFFF
 3512 1709 4889C7   		movq	%rax, %rdi
 3513 170c E8000000 		call	_ZN8UnitTest15MemoryOutStreamD1Ev
 3513      00
 3514 1711 EB03     		jmp	.L168
 3515              	.L173:
 3516 1713 4889C3   		movq	%rax, %rbx
 3517              	.L168:
 3518              	.LBE51:
 3519 1716 E8000000 		call	__cxa_end_catch@PLT
 3519      00
 3520 171b 4889D8   		movq	%rbx, %rax
 3521 171e 4889C7   		movq	%rax, %rdi
 3522              	.LEHB72:
 3523 1721 E8000000 		call	_Unwind_Resume@PLT
 3523      00
 3524              	.LEHE72:
 3525              	.L175:
 3526 1726 4889C3   		movq	%rax, %rbx
 3527              	.LBE53:
 3528 1729 E8000000 		call	__cxa_end_catch@PLT
 3528      00
 3529 172e 4889D8   		movq	%rbx, %rax
 3530 1731 4889C7   		movq	%rax, %rdi
 3531              	.LEHB73:
 3532 1734 E8000000 		call	_Unwind_Resume@PLT
 3532      00
 3533              	.LEHE73:
 3534              	.L158:
 3535 1739 488B45D8 		movq	-40(%rbp), %rax
 3536 173d 64483304 		xorq	%fs:40, %rax
 3536      25280000 
 3536      00
 3537 1746 7405     		je	.L170
 3538 1748 E8000000 		call	__stack_chk_fail@PLT
 3538      00
 3539              	.L170:
 3540 174d 4881C4F8 		addq	$504, %rsp
 3540      010000
 3541 1754 5B       		popq	%rbx
 3542 1755 415C     		popq	%r12
 3543 1757 415D     		popq	%r13
 3544 1759 5D       		popq	%rbp
 3545              		.cfi_def_cfa 7, 8
 3546 175a C3       		ret
 3547              		.cfi_endproc
 3548              	.LFE1170:
 3549              		.section	.gcc_except_table
 3550              		.align 4
 3551              	.LLSDA1170:
 3552 01c4 FF       		.byte	0xff
 3553 01c5 9B       		.byte	0x9b
 3554 01c6 49       		.uleb128 .LLSDATT1170-.LLSDATTD1170
 3555              	.LLSDATTD1170:
 3556 01c7 01       		.byte	0x1
 3557 01c8 33       		.uleb128 .LLSDACSE1170-.LLSDACSB1170
 3558              	.LLSDACSB1170:
 3559 01c9 69       		.uleb128 .LEHB65-.LFB1170
 3560 01ca 05       		.uleb128 .LEHE65-.LEHB65
 3561 01cb 73       		.uleb128 .L171-.LFB1170
 3562 01cc 05       		.uleb128 0x5
 3563 01cd 9701     		.uleb128 .LEHB66-.LFB1170
 3564 01cf 8901     		.uleb128 .LEHE66-.LEHB66
 3565 01d1 F204     		.uleb128 .L172-.LFB1170
 3566 01d3 00       		.uleb128 0
 3567 01d4 C302     		.uleb128 .LEHB67-.LFB1170
 3568 01d6 05       		.uleb128 .LEHE67-.LEHB67
 3569 01d7 9905     		.uleb128 .L173-.LFB1170
 3570 01d9 00       		.uleb128 0
 3571 01da D902     		.uleb128 .LEHB68-.LFB1170
 3572 01dc 60       		.uleb128 .LEHE68-.LEHB68
 3573 01dd 8505     		.uleb128 .L174-.LFB1170
 3574 01df 00       		.uleb128 0
 3575 01e0 C303     		.uleb128 .LEHB69-.LFB1170
 3576 01e2 05       		.uleb128 .LEHE69-.LEHB69
 3577 01e3 9905     		.uleb128 .L173-.LFB1170
 3578 01e5 00       		.uleb128 0
 3579 01e6 E303     		.uleb128 .LEHB70-.LFB1170
 3580 01e8 8801     		.uleb128 .LEHE70-.LEHB70
 3581 01ea AC05     		.uleb128 .L175-.LFB1170
 3582 01ec 00       		.uleb128 0
 3583 01ed EB04     		.uleb128 .LEHB71-.LFB1170
 3584 01ef 1A       		.uleb128 .LEHE71-.LEHB71
 3585 01f0 00       		.uleb128 0
 3586 01f1 00       		.uleb128 0
 3587 01f2 A705     		.uleb128 .LEHB72-.LFB1170
 3588 01f4 05       		.uleb128 .LEHE72-.LEHB72
 3589 01f5 00       		.uleb128 0
 3590 01f6 00       		.uleb128 0
 3591 01f7 BA05     		.uleb128 .LEHB73-.LFB1170
 3592 01f9 05       		.uleb128 .LEHE73-.LEHB73
 3593 01fa 00       		.uleb128 0
 3594 01fb 00       		.uleb128 0
 3595              	.LLSDACSE1170:
 3596 01fc 03       		.byte	0x3
 3597 01fd 00       		.byte	0
 3598 01fe 02       		.byte	0x2
 3599 01ff 7D       		.byte	0x7d
 3600 0200 01       		.byte	0x1
 3601 0201 7D       		.byte	0x7d
 3602 0202 0000     		.align 4
 3603 0204 00000000 		.long	0
 3604              	
 3605 0208 00000000 		.long	DW.ref._ZTISt9exception-.
 3606 020c 00000000 		.long	DW.ref._ZTIN8UnitTest15AssertExceptionE-.
 3607              	.LLSDATT1170:
 3608              		.text
 3610 175b 90       		.align 2
 3612              	_ZN12_GLOBAL__N_134DummyFixtureMacroTestHelper2Helper7RunImplEv:
 3613              	.LFB1171:
  97:TestTestMacros.cpp **** {
 3614              		.loc 6 97 0 is_stmt 1
 3615              		.cfi_startproc
 3616 175c 55       		pushq	%rbp
 3617              		.cfi_def_cfa_offset 16
 3618              		.cfi_offset 6, -16
 3619 175d 4889E5   		movq	%rsp, %rbp
 3620              		.cfi_def_cfa_register 6
 3621 1760 48897DF8 		movq	%rdi, -8(%rbp)
  98:TestTestMacros.cpp **** }
 3622              		.loc 6 98 0
 3623 1764 90       		nop
 3624 1765 5D       		popq	%rbp
 3625              		.cfi_def_cfa 7, 8
 3626 1766 C3       		ret
 3627              		.cfi_endproc
 3628              	.LFE1171:
 3630              		.section	.rodata
 3631 0603 00000000 		.align 8
 3631      00
 3632              	.LC37:
 3633 0608 54657374 		.string	"TestAddedWithTEST_FIXTURE_EXMacroGetsDefaultSuite"
 3633      41646465 
 3633      64576974 
 3633      68544553 
 3633      545F4649 
 3634              		.text
 3635 1767 90       		.align 2
 3637              	_ZN12_GLOBAL__N_153TestTestAddedWithTEST_FIXTURE_EXMacroGetsDefaultSuiteC2Ev:
 3638              	.LFB1173:
  99:TestTestMacros.cpp **** 
 100:TestTestMacros.cpp **** TEST(TestAddedWithTEST_FIXTURE_EXMacroGetsDefaultSuite)
 3639              		.loc 6 100 0
 3640              		.cfi_startproc
 3641 1768 55       		pushq	%rbp
 3642              		.cfi_def_cfa_offset 16
 3643              		.cfi_offset 6, -16
 3644 1769 4889E5   		movq	%rsp, %rbp
 3645              		.cfi_def_cfa_register 6
 3646 176c 53       		pushq	%rbx
 3647 176d 4883EC18 		subq	$24, %rsp
 3648              		.cfi_offset 3, -24
 3649 1771 48897DE8 		movq	%rdi, -24(%rbp)
 3650              	.LBB54:
 3651              		.loc 6 100 0
 3652 1775 488B5DE8 		movq	-24(%rbp), %rbx
 3653 1779 E8000000 		call	_ZN13UnitTestSuite12GetSuiteNameEv
 3653      00
 3654 177e 41B86400 		movl	$100, %r8d
 3654      0000
 3655 1784 488D0D00 		leaq	.LC2(%rip), %rcx
 3655      000000
 3656 178b 4889C2   		movq	%rax, %rdx
 3657 178e 488D3500 		leaq	.LC37(%rip), %rsi
 3657      000000
 3658 1795 4889DF   		movq	%rbx, %rdi
 3659 1798 E8000000 		call	_ZN8UnitTest4TestC2EPKcS2_S2_i@PLT
 3659      00
 3660 179d 488D1500 		leaq	16+_ZTVN12_GLOBAL__N_153TestTestAddedWithTEST_FIXTURE_EXMacroGetsDefaultSuiteE(%rip), %rdx
 3660      000000
 3661 17a4 488B45E8 		movq	-24(%rbp), %rax
 3662 17a8 488910   		movq	%rdx, (%rax)
 3663              	.LBE54:
 3664 17ab 90       		nop
 3665 17ac 4883C418 		addq	$24, %rsp
 3666 17b0 5B       		popq	%rbx
 3667 17b1 5D       		popq	%rbp
 3668              		.cfi_def_cfa 7, 8
 3669 17b2 C3       		ret
 3670              		.cfi_endproc
 3671              	.LFE1173:
 3673              		.set	_ZN12_GLOBAL__N_153TestTestAddedWithTEST_FIXTURE_EXMacroGetsDefaultSuiteC1Ev,_ZN12_GLOBAL__N_
 3674              		.local	_ZN12_GLOBAL__N_161testTestAddedWithTEST_FIXTURE_EXMacroGetsDefaultSuiteInstanceE
 3675              		.comm	_ZN12_GLOBAL__N_161testTestAddedWithTEST_FIXTURE_EXMacroGetsDefaultSuiteInstanceE,56,32
 3676              		.local	_ZN12_GLOBAL__N_154adderTestAddedWithTEST_FIXTURE_EXMacroGetsDefaultSuiteE
 3677              		.comm	_ZN12_GLOBAL__N_154adderTestAddedWithTEST_FIXTURE_EXMacroGetsDefaultSuiteE,1,1
 3678              		.section	.rodata
 3679 063a 00000000 		.align 8
 3679      0000
 3680              	.LC38:
 3681 0640 6D616372 		.string	"macroTestList2.GetHead() != NULL"
 3681      6F546573 
 3681      744C6973 
 3681      74322E47 
 3681      65744865 
 3682 0661 00000000 		.align 8
 3682      000000
 3683              	.LC39:
 3684 0668 556E6861 		.string	"Unhandled exception in CHECK(macroTestList2.GetHead() != NULL)"
 3684      6E646C65 
 3684      64206578 
 3684      63657074 
 3684      696F6E20 
 3685 06a7 00       		.align 8
 3686              	.LC40:
 3687 06a8 556E6861 		.string	"Unhandled exception in CHECK_EQUAL(\"MacroTestHelper2\", macroTestList2.GetHead()->m_deta
 3687      6E646C65 
 3687      64206578 
 3687      63657074 
 3687      696F6E20 
 3688 070d 000000   		.align 8
 3689              	.LC41:
 3690 0710 556E6861 		.string	"Unhandled exception in CHECK_EQUAL(\"DefaultSuite\", macroTestList2.GetHead()->m_details.
 3690      6E646C65 
 3690      64206578 
 3690      63657074 
 3690      696F6E20 
 3691              		.text
 3692 17b3 90       		.align 2
 3694              	_ZNK12_GLOBAL__N_153TestTestAddedWithTEST_FIXTURE_EXMacroGetsDefaultSuite7RunImplEv:
 3695              	.LFB1175:
 101:TestTestMacros.cpp **** {
 3696              		.loc 6 101 0
 3697              		.cfi_startproc
 3698              		.cfi_personality 0x9b,DW.ref.__gxx_personality_v0
 3699              		.cfi_lsda 0x1b,.LLSDA1175
 3700 17b4 55       		pushq	%rbp
 3701              		.cfi_def_cfa_offset 16
 3702              		.cfi_offset 6, -16
 3703 17b5 4889E5   		movq	%rsp, %rbp
 3704              		.cfi_def_cfa_register 6
 3705 17b8 53       		pushq	%rbx
 3706 17b9 4883EC48 		subq	$72, %rsp
 3707              		.cfi_offset 3, -24
 3708 17bd 48897DB8 		movq	%rdi, -72(%rbp)
 3709              		.loc 6 101 0
 3710 17c1 64488B04 		movq	%fs:40, %rax
 3710      25280000 
 3710      00
 3711 17ca 488945E8 		movq	%rax, -24(%rbp)
 3712 17ce 31C0     		xorl	%eax, %eax
 102:TestTestMacros.cpp ****     CHECK(macroTestList2.GetHead() != NULL);
 3713              		.loc 6 102 0
 3714 17d0 488D3D00 		leaq	_ZN12_GLOBAL__N_114macroTestList2E(%rip), %rdi
 3714      000000
 3715              	.LEHB74:
 3716 17d7 E8000000 		call	_ZNK8UnitTest8TestList7GetHeadEv@PLT
 3716      00
 3717 17dc 4885C0   		testq	%rax, %rax
 3718 17df 0F95C0   		setne	%al
 3719 17e2 0FB6C0   		movzbl	%al, %eax
 3720 17e5 89C7     		movl	%eax, %edi
 3721 17e7 E8000000 		call	_ZN8UnitTest5CheckIbEEbT_
 3721      00
 3722 17ec 83F001   		xorl	$1, %eax
 3723 17ef 84C0     		testb	%al, %al
 3724 17f1 743A     		je	.L180
 3725              		.loc 6 102 0 is_stmt 0 discriminator 2
 3726 17f3 E8000000 		call	_ZN8UnitTest11CurrentTest7ResultsEv@PLT
 3726      00
 3727 17f8 488B18   		movq	(%rax), %rbx
 3728 17fb E8000000 		call	_ZN8UnitTest11CurrentTest7DetailsEv@PLT
 3728      00
 3729              		.loc 6 102 0 discriminator 3
 3730 1800 488B08   		movq	(%rax), %rcx
 3731 1803 488D45C0 		leaq	-64(%rbp), %rax
 3732 1807 BA660000 		movl	$102, %edx
 3732      00
 3733 180c 4889CE   		movq	%rcx, %rsi
 3734 180f 4889C7   		movq	%rax, %rdi
 3735 1812 E8000000 		call	_ZN8UnitTest11TestDetailsC1ERKS0_i@PLT
 3735      00
 3736              		.loc 6 102 0 discriminator 5
 3737 1817 488D45C0 		leaq	-64(%rbp), %rax
 3738 181b 488D1500 		leaq	.LC38(%rip), %rdx
 3738      000000
 3739 1822 4889C6   		movq	%rax, %rsi
 3740 1825 4889DF   		movq	%rbx, %rdi
 3741 1828 E8000000 		call	_ZN8UnitTest11TestResults13OnTestFailureERKNS_11TestDetailsEPKc@PLT
 3741      00
 3742              	.LEHE74:
 3743              	.L180:
 3744              	.LEHB75:
 103:TestTestMacros.cpp ****     CHECK_EQUAL ("MacroTestHelper2", macroTestList2.GetHead()->m_details.testName);
 3745              		.loc 6 103 0 is_stmt 1
 3746 182d E8000000 		call	_ZN8UnitTest11CurrentTest7DetailsEv@PLT
 3746      00
 3747 1832 488B08   		movq	(%rax), %rcx
 3748 1835 488D45C0 		leaq	-64(%rbp), %rax
 3749 1839 BA670000 		movl	$103, %edx
 3749      00
 3750 183e 4889CE   		movq	%rcx, %rsi
 3751 1841 4889C7   		movq	%rax, %rdi
 3752 1844 E8000000 		call	_ZN8UnitTest11TestDetailsC1ERKS0_i@PLT
 3752      00
 3753              		.loc 6 103 0 is_stmt 0 discriminator 2
 3754 1849 488D3D00 		leaq	_ZN12_GLOBAL__N_114macroTestList2E(%rip), %rdi
 3754      000000
 3755 1850 E8000000 		call	_ZNK8UnitTest8TestList7GetHeadEv@PLT
 3755      00
 3756 1855 488B5810 		movq	16(%rax), %rbx
 3757 1859 E8000000 		call	_ZN8UnitTest11CurrentTest7ResultsEv@PLT
 3757      00
 3758              		.loc 6 103 0 discriminator 4
 3759 185e 488B00   		movq	(%rax), %rax
 3760 1861 488D55C0 		leaq	-64(%rbp), %rdx
 3761 1865 4889D1   		movq	%rdx, %rcx
 3762 1868 4889DA   		movq	%rbx, %rdx
 3763 186b 488D3500 		leaq	.LC36(%rip), %rsi
 3763      000000
 3764 1872 4889C7   		movq	%rax, %rdi
 3765 1875 E8000000 		call	_ZN8UnitTest10CheckEqualERNS_11TestResultsEPKcS3_RKNS_11TestDetailsE@PLT
 3765      00
 3766              	.LEHE75:
 3767              	.L184:
 3768              	.LEHB76:
 104:TestTestMacros.cpp ****     CHECK_EQUAL ("DefaultSuite", macroTestList2.GetHead()->m_details.suiteName);
 3769              		.loc 6 104 0 is_stmt 1
 3770 187a E8000000 		call	_ZN8UnitTest11CurrentTest7DetailsEv@PLT
 3770      00
 3771 187f 488B08   		movq	(%rax), %rcx
 3772 1882 488D45C0 		leaq	-64(%rbp), %rax
 3773 1886 BA680000 		movl	$104, %edx
 3773      00
 3774 188b 4889CE   		movq	%rcx, %rsi
 3775 188e 4889C7   		movq	%rax, %rdi
 3776 1891 E8000000 		call	_ZN8UnitTest11TestDetailsC1ERKS0_i@PLT
 3776      00
 3777              		.loc 6 104 0 is_stmt 0 discriminator 2
 3778 1896 488D3D00 		leaq	_ZN12_GLOBAL__N_114macroTestList2E(%rip), %rdi
 3778      000000
 3779 189d E8000000 		call	_ZNK8UnitTest8TestList7GetHeadEv@PLT
 3779      00
 3780 18a2 488B5808 		movq	8(%rax), %rbx
 3781 18a6 E8000000 		call	_ZN8UnitTest11CurrentTest7ResultsEv@PLT
 3781      00
 3782              		.loc 6 104 0 discriminator 4
 3783 18ab 488B00   		movq	(%rax), %rax
 3784 18ae 488D55C0 		leaq	-64(%rbp), %rdx
 3785 18b2 4889D1   		movq	%rdx, %rcx
 3786 18b5 4889DA   		movq	%rbx, %rdx
 3787 18b8 488D3500 		leaq	.LC0(%rip), %rsi
 3787      000000
 3788 18bf 4889C7   		movq	%rax, %rdi
 3789 18c2 E8000000 		call	_ZN8UnitTest10CheckEqualERNS_11TestResultsEPKcS3_RKNS_11TestDetailsE@PLT
 3789      00
 3790              	.LEHE76:
 105:TestTestMacros.cpp **** }
 3791              		.loc 6 105 0 is_stmt 1
 3792 18c7 E91A0100 		jmp	.L179
 3792      00
 3793              	.L190:
 102:TestTestMacros.cpp ****     CHECK_EQUAL ("MacroTestHelper2", macroTestList2.GetHead()->m_details.testName);
 3794              		.loc 6 102 0
 3795 18cc 4889C7   		movq	%rax, %rdi
 3796 18cf E8000000 		call	__cxa_begin_catch@PLT
 3796      00
 3797              	.LEHB77:
 3798 18d4 E8000000 		call	_ZN8UnitTest11CurrentTest7ResultsEv@PLT
 3798      00
 3799 18d9 488B18   		movq	(%rax), %rbx
 3800 18dc E8000000 		call	_ZN8UnitTest11CurrentTest7DetailsEv@PLT
 3800      00
 102:TestTestMacros.cpp ****     CHECK_EQUAL ("MacroTestHelper2", macroTestList2.GetHead()->m_details.testName);
 3801              		.loc 6 102 0 is_stmt 0 discriminator 9
 3802 18e1 488B08   		movq	(%rax), %rcx
 3803 18e4 488D45C0 		leaq	-64(%rbp), %rax
 3804 18e8 BA660000 		movl	$102, %edx
 3804      00
 3805 18ed 4889CE   		movq	%rcx, %rsi
 3806 18f0 4889C7   		movq	%rax, %rdi
 3807 18f3 E8000000 		call	_ZN8UnitTest11TestDetailsC1ERKS0_i@PLT
 3807      00
 102:TestTestMacros.cpp ****     CHECK_EQUAL ("MacroTestHelper2", macroTestList2.GetHead()->m_details.testName);
 3808              		.loc 6 102 0 discriminator 13
 3809 18f8 488D45C0 		leaq	-64(%rbp), %rax
 3810 18fc 488D1500 		leaq	.LC39(%rip), %rdx
 3810      000000
 3811 1903 4889C6   		movq	%rax, %rsi
 3812 1906 4889DF   		movq	%rbx, %rdi
 3813 1909 E8000000 		call	_ZN8UnitTest11TestResults13OnTestFailureERKNS_11TestDetailsEPKc@PLT
 3813      00
 3814              	.LEHE77:
 3815              	.LEHB78:
 102:TestTestMacros.cpp ****     CHECK_EQUAL ("MacroTestHelper2", macroTestList2.GetHead()->m_details.testName);
 3816              		.loc 6 102 0 discriminator 15
 3817 190e E8000000 		call	__cxa_end_catch@PLT
 3817      00
 3818              	.LEHE78:
 3819 1913 E915FFFF 		jmp	.L180
 3819      FF
 3820              	.L191:
 3821 1918 4889C3   		movq	%rax, %rbx
 102:TestTestMacros.cpp ****     CHECK_EQUAL ("MacroTestHelper2", macroTestList2.GetHead()->m_details.testName);
 3822              		.loc 6 102 0
 3823 191b E8000000 		call	__cxa_end_catch@PLT
 3823      00
 3824 1920 4889D8   		movq	%rbx, %rax
 3825 1923 4889C7   		movq	%rax, %rdi
 3826              	.LEHB79:
 3827 1926 E8000000 		call	_Unwind_Resume@PLT
 3827      00
 3828              	.LEHE79:
 3829              	.L192:
 103:TestTestMacros.cpp ****     CHECK_EQUAL ("DefaultSuite", macroTestList2.GetHead()->m_details.suiteName);
 3830              		.loc 6 103 0 is_stmt 1
 3831 192b 4889C7   		movq	%rax, %rdi
 3832 192e E8000000 		call	__cxa_begin_catch@PLT
 3832      00
 3833              	.LEHB80:
 3834 1933 E8000000 		call	_ZN8UnitTest11CurrentTest7ResultsEv@PLT
 3834      00
 3835 1938 488B18   		movq	(%rax), %rbx
 3836 193b E8000000 		call	_ZN8UnitTest11CurrentTest7DetailsEv@PLT
 3836      00
 103:TestTestMacros.cpp ****     CHECK_EQUAL ("DefaultSuite", macroTestList2.GetHead()->m_details.suiteName);
 3837              		.loc 6 103 0 is_stmt 0 discriminator 10
 3838 1940 488B08   		movq	(%rax), %rcx
 3839 1943 488D45C0 		leaq	-64(%rbp), %rax
 3840 1947 BA670000 		movl	$103, %edx
 3840      00
 3841 194c 4889CE   		movq	%rcx, %rsi
 3842 194f 4889C7   		movq	%rax, %rdi
 3843 1952 E8000000 		call	_ZN8UnitTest11TestDetailsC1ERKS0_i@PLT
 3843      00
 103:TestTestMacros.cpp ****     CHECK_EQUAL ("DefaultSuite", macroTestList2.GetHead()->m_details.suiteName);
 3844              		.loc 6 103 0 discriminator 14
 3845 1957 488D45C0 		leaq	-64(%rbp), %rax
 3846 195b 488D1500 		leaq	.LC40(%rip), %rdx
 3846      000000
 3847 1962 4889C6   		movq	%rax, %rsi
 3848 1965 4889DF   		movq	%rbx, %rdi
 3849 1968 E8000000 		call	_ZN8UnitTest11TestResults13OnTestFailureERKNS_11TestDetailsEPKc@PLT
 3849      00
 3850              	.LEHE80:
 3851              	.LEHB81:
 103:TestTestMacros.cpp ****     CHECK_EQUAL ("DefaultSuite", macroTestList2.GetHead()->m_details.suiteName);
 3852              		.loc 6 103 0 discriminator 16
 3853 196d E8000000 		call	__cxa_end_catch@PLT
 3853      00
 3854              	.LEHE81:
 3855 1972 E903FFFF 		jmp	.L184
 3855      FF
 3856              	.L193:
 3857 1977 4889C3   		movq	%rax, %rbx
 103:TestTestMacros.cpp ****     CHECK_EQUAL ("DefaultSuite", macroTestList2.GetHead()->m_details.suiteName);
 3858              		.loc 6 103 0
 3859 197a E8000000 		call	__cxa_end_catch@PLT
 3859      00
 3860 197f 4889D8   		movq	%rbx, %rax
 3861 1982 4889C7   		movq	%rax, %rdi
 3862              	.LEHB82:
 3863 1985 E8000000 		call	_Unwind_Resume@PLT
 3863      00
 3864              	.LEHE82:
 3865              	.L194:
 104:TestTestMacros.cpp **** }
 3866              		.loc 6 104 0 is_stmt 1
 3867 198a 4889C7   		movq	%rax, %rdi
 3868 198d E8000000 		call	__cxa_begin_catch@PLT
 3868      00
 3869              	.LEHB83:
 3870 1992 E8000000 		call	_ZN8UnitTest11CurrentTest7ResultsEv@PLT
 3870      00
 3871 1997 488B18   		movq	(%rax), %rbx
 3872 199a E8000000 		call	_ZN8UnitTest11CurrentTest7DetailsEv@PLT
 3872      00
 104:TestTestMacros.cpp **** }
 3873              		.loc 6 104 0 is_stmt 0 discriminator 10
 3874 199f 488B08   		movq	(%rax), %rcx
 3875 19a2 488D45C0 		leaq	-64(%rbp), %rax
 3876 19a6 BA680000 		movl	$104, %edx
 3876      00
 3877 19ab 4889CE   		movq	%rcx, %rsi
 3878 19ae 4889C7   		movq	%rax, %rdi
 3879 19b1 E8000000 		call	_ZN8UnitTest11TestDetailsC1ERKS0_i@PLT
 3879      00
 104:TestTestMacros.cpp **** }
 3880              		.loc 6 104 0 discriminator 14
 3881 19b6 488D45C0 		leaq	-64(%rbp), %rax
 3882 19ba 488D1500 		leaq	.LC41(%rip), %rdx
 3882      000000
 3883 19c1 4889C6   		movq	%rax, %rsi
 3884 19c4 4889DF   		movq	%rbx, %rdi
 3885 19c7 E8000000 		call	_ZN8UnitTest11TestResults13OnTestFailureERKNS_11TestDetailsEPKc@PLT
 3885      00
 3886              	.LEHE83:
 3887              	.LEHB84:
 104:TestTestMacros.cpp **** }
 3888              		.loc 6 104 0 discriminator 16
 3889 19cc E8000000 		call	__cxa_end_catch@PLT
 3889      00
 3890              	.LEHE84:
 3891              		.loc 6 105 0 is_stmt 1 discriminator 16
 3892 19d1 EB13     		jmp	.L179
 3893              	.L195:
 3894 19d3 4889C3   		movq	%rax, %rbx
 104:TestTestMacros.cpp **** }
 3895              		.loc 6 104 0
 3896 19d6 E8000000 		call	__cxa_end_catch@PLT
 3896      00
 3897 19db 4889D8   		movq	%rbx, %rax
 3898 19de 4889C7   		movq	%rax, %rdi
 3899              	.LEHB85:
 3900 19e1 E8000000 		call	_Unwind_Resume@PLT
 3900      00
 3901              	.LEHE85:
 3902              	.L179:
 3903              		.loc 6 105 0
 3904 19e6 488B45E8 		movq	-24(%rbp), %rax
 3905 19ea 64483304 		xorq	%fs:40, %rax
 3905      25280000 
 3905      00
 3906 19f3 7405     		je	.L189
 3907 19f5 E8000000 		call	__stack_chk_fail@PLT
 3907      00
 3908              	.L189:
 3909 19fa 4883C448 		addq	$72, %rsp
 3910 19fe 5B       		popq	%rbx
 3911 19ff 5D       		popq	%rbp
 3912              		.cfi_def_cfa 7, 8
 3913 1a00 C3       		ret
 3914              		.cfi_endproc
 3915              	.LFE1175:
 3916              		.section	.gcc_except_table
 3917              		.align 4
 3918              	.LLSDA1175:
 3919 0210 FF       		.byte	0xff
 3920 0211 9B       		.byte	0x9b
 3921 0212 49       		.uleb128 .LLSDATT1175-.LLSDATTD1175
 3922              	.LLSDATTD1175:
 3923 0213 01       		.byte	0x1
 3924 0214 40       		.uleb128 .LLSDACSE1175-.LLSDACSB1175
 3925              	.LLSDACSB1175:
 3926 0215 23       		.uleb128 .LEHB74-.LFB1175
 3927 0216 56       		.uleb128 .LEHE74-.LEHB74
 3928 0217 9802     		.uleb128 .L190-.LFB1175
 3929 0219 01       		.uleb128 0x1
 3930 021a 79       		.uleb128 .LEHB75-.LFB1175
 3931 021b 4D       		.uleb128 .LEHE75-.LEHB75
 3932 021c F702     		.uleb128 .L192-.LFB1175
 3933 021e 01       		.uleb128 0x1
 3934 021f C601     		.uleb128 .LEHB76-.LFB1175
 3935 0221 4D       		.uleb128 .LEHE76-.LEHB76
 3936 0222 D603     		.uleb128 .L194-.LFB1175
 3937 0224 01       		.uleb128 0x1
 3938 0225 A002     		.uleb128 .LEHB77-.LFB1175
 3939 0227 3A       		.uleb128 .LEHE77-.LEHB77
 3940 0228 E402     		.uleb128 .L191-.LFB1175
 3941 022a 00       		.uleb128 0
 3942 022b DA02     		.uleb128 .LEHB78-.LFB1175
 3943 022d 05       		.uleb128 .LEHE78-.LEHB78
 3944 022e 00       		.uleb128 0
 3945 022f 00       		.uleb128 0
 3946 0230 F202     		.uleb128 .LEHB79-.LFB1175
 3947 0232 05       		.uleb128 .LEHE79-.LEHB79
 3948 0233 00       		.uleb128 0
 3949 0234 00       		.uleb128 0
 3950 0235 FF02     		.uleb128 .LEHB80-.LFB1175
 3951 0237 3A       		.uleb128 .LEHE80-.LEHB80
 3952 0238 C303     		.uleb128 .L193-.LFB1175
 3953 023a 00       		.uleb128 0
 3954 023b B903     		.uleb128 .LEHB81-.LFB1175
 3955 023d 05       		.uleb128 .LEHE81-.LEHB81
 3956 023e 00       		.uleb128 0
 3957 023f 00       		.uleb128 0
 3958 0240 D103     		.uleb128 .LEHB82-.LFB1175
 3959 0242 05       		.uleb128 .LEHE82-.LEHB82
 3960 0243 00       		.uleb128 0
 3961 0244 00       		.uleb128 0
 3962 0245 DE03     		.uleb128 .LEHB83-.LFB1175
 3963 0247 3A       		.uleb128 .LEHE83-.LEHB83
 3964 0248 9F04     		.uleb128 .L195-.LFB1175
 3965 024a 00       		.uleb128 0
 3966 024b 9804     		.uleb128 .LEHB84-.LFB1175
 3967 024d 05       		.uleb128 .LEHE84-.LEHB84
 3968 024e 00       		.uleb128 0
 3969 024f 00       		.uleb128 0
 3970 0250 AD04     		.uleb128 .LEHB85-.LFB1175
 3971 0252 05       		.uleb128 .LEHE85-.LEHB85
 3972 0253 00       		.uleb128 0
 3973 0254 00       		.uleb128 0
 3974              	.LLSDACSE1175:
 3975 0255 01       		.byte	0x1
 3976 0256 00       		.byte	0
 3977 0257 00       		.align 4
 3978 0258 00000000 		.long	0
 3979              	
 3980              	.LLSDATT1175:
 3981              		.text
 3983              		.section	.rodata
 3984              	.LC42:
 3985 0772 65786365 		.string	"exception"
 3985      7074696F 
 3985      6E00
 3986              		.text
 3987 1a01 90       		.align 2
 3989              	_ZN12_GLOBAL__N_117FixtureCtorThrowsC2Ev:
 3990              	.LFB1177:
 106:TestTestMacros.cpp **** 
 107:TestTestMacros.cpp **** struct FixtureCtorThrows
 108:TestTestMacros.cpp **** {
 109:TestTestMacros.cpp **** 	FixtureCtorThrows()	{ throw "exception"; }
 3991              		.loc 6 109 0
 3992              		.cfi_startproc
 3993 1a02 55       		pushq	%rbp
 3994              		.cfi_def_cfa_offset 16
 3995              		.cfi_offset 6, -16
 3996 1a03 4889E5   		movq	%rsp, %rbp
 3997              		.cfi_def_cfa_register 6
 3998 1a06 4883EC10 		subq	$16, %rsp
 3999 1a0a 48897DF8 		movq	%rdi, -8(%rbp)
 4000              	.LBB55:
 4001              		.loc 6 109 0
 4002 1a0e BF080000 		movl	$8, %edi
 4002      00
 4003 1a13 E8000000 		call	__cxa_allocate_exception@PLT
 4003      00
 4004 1a18 488D1500 		leaq	.LC42(%rip), %rdx
 4004      000000
 4005 1a1f 488910   		movq	%rdx, (%rax)
 4006 1a22 BA000000 		movl	$0, %edx
 4006      00
 4007 1a27 488D3500 		leaq	_ZTIPKc(%rip), %rsi
 4007      000000
 4008 1a2e 4889C7   		movq	%rax, %rdi
 4009 1a31 E8000000 		call	__cxa_throw@PLT
 4009      00
 4010              	.LBE55:
 4011              		.cfi_endproc
 4012              	.LFE1177:
 4014              		.local	_ZN12_GLOBAL__N_124throwingFixtureTestList1E
 4015              		.comm	_ZN12_GLOBAL__N_124throwingFixtureTestList1E,16,16
 4016              		.align 2
 4018              	_ZN12_GLOBAL__N_148FixtureCtorThrowsFixtureCtorThrowsTestNameHelperC2ERKN8UnitTest11TestDetailsE:
 4019              	.LFB1180:
 110:TestTestMacros.cpp **** };
 111:TestTestMacros.cpp **** 
 112:TestTestMacros.cpp **** TestList throwingFixtureTestList1;
 113:TestTestMacros.cpp **** TEST_FIXTURE_EX(FixtureCtorThrows, FixtureCtorThrowsTestName, throwingFixtureTestList1)
 4020              		.loc 6 113 0
 4021              		.cfi_startproc
 4022 1a36 55       		pushq	%rbp
 4023              		.cfi_def_cfa_offset 16
 4024              		.cfi_offset 6, -16
 4025 1a37 4889E5   		movq	%rsp, %rbp
 4026              		.cfi_def_cfa_register 6
 4027 1a3a 4883EC10 		subq	$16, %rsp
 4028 1a3e 48897DF8 		movq	%rdi, -8(%rbp)
 4029 1a42 488975F0 		movq	%rsi, -16(%rbp)
 4030              	.LBB56:
 4031              		.loc 6 113 0
 4032 1a46 488B45F8 		movq	-8(%rbp), %rax
 4033 1a4a 4889C7   		movq	%rax, %rdi
 4034 1a4d E8B0FFFF 		call	_ZN12_GLOBAL__N_117FixtureCtorThrowsC2Ev
 4034      FF
 4035 1a52 488B45F8 		movq	-8(%rbp), %rax
 4036 1a56 488B55F0 		movq	-16(%rbp), %rdx
 4037 1a5a 488910   		movq	%rdx, (%rax)
 4038              	.LBE56:
 4039 1a5d 90       		nop
 4040 1a5e C9       		leave
 4041              		.cfi_def_cfa 7, 8
 4042 1a5f C3       		ret
 4043              		.cfi_endproc
 4044              	.LFE1180:
 4046              		.set	_ZN12_GLOBAL__N_148FixtureCtorThrowsFixtureCtorThrowsTestNameHelperC1ERKN8UnitTest11TestDetai
 4047              		.section	.rodata
 4048              	.LC43:
 4049 077c 46697874 		.string	"FixtureCtorThrowsTestName"
 4049      75726543 
 4049      746F7254 
 4049      68726F77 
 4049      73546573 
 4050              		.text
 4051              		.align 2
 4053              	_ZN12_GLOBAL__N_146TestFixtureCtorThrowsFixtureCtorThrowsTestNameC2Ev:
 4054              	.LFB1183:
 4055              		.loc 6 113 0
 4056              		.cfi_startproc
 4057 1a60 55       		pushq	%rbp
 4058              		.cfi_def_cfa_offset 16
 4059              		.cfi_offset 6, -16
 4060 1a61 4889E5   		movq	%rsp, %rbp
 4061              		.cfi_def_cfa_register 6
 4062 1a64 53       		pushq	%rbx
 4063 1a65 4883EC18 		subq	$24, %rsp
 4064              		.cfi_offset 3, -24
 4065 1a69 48897DE8 		movq	%rdi, -24(%rbp)
 4066              	.LBB57:
 4067              		.loc 6 113 0
 4068 1a6d 488B5DE8 		movq	-24(%rbp), %rbx
 4069 1a71 E8000000 		call	_ZN13UnitTestSuite12GetSuiteNameEv
 4069      00
 4070 1a76 41B87100 		movl	$113, %r8d
 4070      0000
 4071 1a7c 488D0D00 		leaq	.LC2(%rip), %rcx
 4071      000000
 4072 1a83 4889C2   		movq	%rax, %rdx
 4073 1a86 488D3500 		leaq	.LC43(%rip), %rsi
 4073      000000
 4074 1a8d 4889DF   		movq	%rbx, %rdi
 4075 1a90 E8000000 		call	_ZN8UnitTest4TestC2EPKcS2_S2_i@PLT
 4075      00
 4076 1a95 488D1500 		leaq	16+_ZTVN12_GLOBAL__N_146TestFixtureCtorThrowsFixtureCtorThrowsTestNameE(%rip), %rdx
 4076      000000
 4077 1a9c 488B45E8 		movq	-24(%rbp), %rax
 4078 1aa0 488910   		movq	%rdx, (%rax)
 4079              	.LBE57:
 4080 1aa3 90       		nop
 4081 1aa4 4883C418 		addq	$24, %rsp
 4082 1aa8 5B       		popq	%rbx
 4083 1aa9 5D       		popq	%rbp
 4084              		.cfi_def_cfa 7, 8
 4085 1aaa C3       		ret
 4086              		.cfi_endproc
 4087              	.LFE1183:
 4089              		.set	_ZN12_GLOBAL__N_146TestFixtureCtorThrowsFixtureCtorThrowsTestNameC1Ev,_ZN12_GLOBAL__N_146Test
 4090              		.local	_ZN12_GLOBAL__N_154testFixtureCtorThrowsFixtureCtorThrowsTestNameInstanceE
 4091              		.comm	_ZN12_GLOBAL__N_154testFixtureCtorThrowsFixtureCtorThrowsTestNameInstanceE,56,32
 4092              		.local	_ZN12_GLOBAL__N_147adderFixtureCtorThrowsFixtureCtorThrowsTestNameE
 4093              		.comm	_ZN12_GLOBAL__N_147adderFixtureCtorThrowsFixtureCtorThrowsTestNameE,1,1
 4094              		.section	.rodata
 4095 0796 0000     		.align 8
 4096              	.LC44:
 4097 0798 556E6861 		.string	"Unhandled exception while destroying fixture FixtureCtorThrows"
 4097      6E646C65 
 4097      64206578 
 4097      63657074 
 4097      696F6E20 
 4098 07d7 00       		.align 8
 4099              	.LC45:
 4100 07d8 556E6861 		.string	"Unhandled exception while constructing fixture FixtureCtorThrows"
 4100      6E646C65 
 4100      64206578 
 4100      63657074 
 4100      696F6E20 
 4101              		.text
 4102 1aab 90       		.align 2
 4104              	_ZNK12_GLOBAL__N_146TestFixtureCtorThrowsFixtureCtorThrowsTestName7RunImplEv:
 4105              	.LFB1185:
 4106              		.loc 6 113 0
 4107              		.cfi_startproc
 4108              		.cfi_personality 0x9b,DW.ref.__gxx_personality_v0
 4109              		.cfi_lsda 0x1b,.LLSDA1185
 4110 1aac 55       		pushq	%rbp
 4111              		.cfi_def_cfa_offset 16
 4112              		.cfi_offset 6, -16
 4113 1aad 4889E5   		movq	%rsp, %rbp
 4114              		.cfi_def_cfa_register 6
 4115 1ab0 4155     		pushq	%r13
 4116 1ab2 4154     		pushq	%r12
 4117 1ab4 53       		pushq	%rbx
 4118 1ab5 4881ECF8 		subq	$504, %rsp
 4118      010000
 4119              		.cfi_offset 13, -24
 4120              		.cfi_offset 12, -32
 4121              		.cfi_offset 3, -40
 4122 1abc 4889BDF8 		movq	%rdi, -520(%rbp)
 4122      FDFFFF
 4123              		.loc 6 113 0
 4124 1ac3 64488B04 		movq	%fs:40, %rax
 4124      25280000 
 4124      00
 4125 1acc 488945D8 		movq	%rax, -40(%rbp)
 4126 1ad0 31C0     		xorl	%eax, %eax
 4127 1ad2 C6850FFE 		movb	$0, -497(%rbp)
 4127      FFFF00
 4128              	.LBB58:
 4129 1ad9 488B85F8 		movq	-520(%rbp), %rax
 4129      FDFFFF
 4130 1ae0 488D5008 		leaq	8(%rax), %rdx
 4131 1ae4 488D8520 		leaq	-480(%rbp), %rax
 4131      FEFFFF
 4132 1aeb 4889D6   		movq	%rdx, %rsi
 4133 1aee 4889C7   		movq	%rax, %rdi
 4134              	.LEHB86:
 4135 1af1 E840FFFF 		call	_ZN12_GLOBAL__N_148FixtureCtorThrowsFixtureCtorThrowsTestNameHelperC1ERKN8UnitTest11TestDetai
 4135      FF
 4136              		.loc 6 113 0 is_stmt 0 discriminator 1
 4137 1af6 C6850FFE 		movb	$1, -497(%rbp)
 4137      FFFF01
 4138 1afd 488B85F8 		movq	-520(%rbp), %rax
 4138      FDFFFF
 4139 1b04 488D5008 		leaq	8(%rax), %rdx
 4140 1b08 488D8520 		leaq	-480(%rbp), %rax
 4140      FEFFFF
 4141 1b0f 4889D6   		movq	%rdx, %rsi
 4142 1b12 4889C7   		movq	%rax, %rdi
 4143 1b15 E8902000 		call	_ZN8UnitTest11ExecuteTestIN12_GLOBAL__N_148FixtureCtorThrowsFixtureCtorThrowsTestNameHelperEE
 4143      00
 4144              	.LEHE86:
 4145              	.LBE58:
 4146              		.loc 6 113 0
 4147 1b1a E94C0200 		jmp	.L199
 4147      00
 4148              	.L212:
 4149 1b1f 4883FA01 		cmpq	$1, %rdx
 4150 1b23 740F     		je	.L202
 4151 1b25 4883FA02 		cmpq	$2, %rdx
 4152 1b29 0F84A700 		je	.L203
 4152      0000
 4153 1b2f E94A0100 		jmp	.L217
 4153      00
 4154              	.L202:
 4155              	.LBB59:
 4156 1b34 4889C7   		movq	%rax, %rdi
 4157 1b37 E8000000 		call	__cxa_begin_catch@PLT
 4157      00
 4158 1b3c 48898518 		movq	%rax, -488(%rbp)
 4158      FEFFFF
 4159              	.LEHB87:
 4160 1b43 E8000000 		call	_ZN8UnitTest11CurrentTest7ResultsEv@PLT
 4160      00
 4161 1b48 488B18   		movq	(%rax), %rbx
 4162 1b4b 488B8518 		movq	-488(%rbp), %rax
 4162      FEFFFF
 4163 1b52 488B00   		movq	(%rax), %rax
 4164 1b55 4883C010 		addq	$16, %rax
 4165 1b59 488B00   		movq	(%rax), %rax
 4166 1b5c 488B9518 		movq	-488(%rbp), %rdx
 4166      FEFFFF
 4167 1b63 4889D7   		movq	%rdx, %rdi
 4168 1b66 FFD0     		call	*%rax
 4169              	.LVL8:
 4170 1b68 4989C4   		movq	%rax, %r12
 4171 1b6b 488B8518 		movq	-488(%rbp), %rax
 4171      FEFFFF
 4172 1b72 4889C7   		movq	%rax, %rdi
 4173 1b75 E8000000 		call	_ZNK8UnitTest15AssertException10LineNumberEv@PLT
 4173      00
 4174              		.loc 6 113 0 discriminator 3
 4175 1b7a 4189C5   		movl	%eax, %r13d
 4176 1b7d 488B8518 		movq	-488(%rbp), %rax
 4176      FEFFFF
 4177 1b84 4889C7   		movq	%rax, %rdi
 4178 1b87 E8000000 		call	_ZNK8UnitTest15AssertException8FilenameEv@PLT
 4178      00
 4179              		.loc 6 113 0 discriminator 5
 4180 1b8c 4889C1   		movq	%rax, %rcx
 4181 1b8f 488B85F8 		movq	-520(%rbp), %rax
 4181      FDFFFF
 4182 1b96 488B5008 		movq	8(%rax), %rdx
 4183 1b9a 488B85F8 		movq	-520(%rbp), %rax
 4183      FDFFFF
 4184 1ba1 488B7010 		movq	16(%rax), %rsi
 4185 1ba5 488D8520 		leaq	-480(%rbp), %rax
 4185      FEFFFF
 4186 1bac 4589E8   		movl	%r13d, %r8d
 4187 1baf 4889C7   		movq	%rax, %rdi
 4188 1bb2 E8000000 		call	_ZN8UnitTest11TestDetailsC1EPKcS2_S2_i@PLT
 4188      00
 4189              		.loc 6 113 0 discriminator 9
 4190 1bb7 488D8520 		leaq	-480(%rbp), %rax
 4190      FEFFFF
 4191 1bbe 4C89E2   		movq	%r12, %rdx
 4192 1bc1 4889C6   		movq	%rax, %rsi
 4193 1bc4 4889DF   		movq	%rbx, %rdi
 4194 1bc7 E8000000 		call	_ZN8UnitTest11TestResults13OnTestFailureERKNS_11TestDetailsEPKc@PLT
 4194      00
 4195              	.LEHE87:
 4196              		.loc 6 113 0 discriminator 11
 4197 1bcc E8000000 		call	__cxa_end_catch@PLT
 4197      00
 4198              	.LBE59:
 4199 1bd1 E9950100 		jmp	.L199
 4199      00
 4200              	.L203:
 4201              	.LBB60:
 4202              		.loc 6 113 0
 4203 1bd6 4889C7   		movq	%rax, %rdi
 4204 1bd9 E8000000 		call	__cxa_begin_catch@PLT
 4204      00
 4205 1bde 48898510 		movq	%rax, -496(%rbp)
 4205      FEFFFF
 4206              	.LBB61:
 4207 1be5 488D8540 		leaq	-448(%rbp), %rax
 4207      FEFFFF
 4208 1bec 4889C7   		movq	%rax, %rdi
 4209              	.LEHB88:
 4210 1bef E8000000 		call	_ZN8UnitTest15MemoryOutStreamC1Ev
 4210      00
 4211              	.LEHE88:
 4212              		.loc 6 113 0 discriminator 13
 4213 1bf4 488D8540 		leaq	-448(%rbp), %rax
 4213      FEFFFF
 4214 1bfb 488D3500 		leaq	.LC11(%rip), %rsi
 4214      000000
 4215 1c02 4889C7   		movq	%rax, %rdi
 4216              	.LEHB89:
 4217 1c05 E8000000 		call	_ZStlsISt11char_traitsIcEERSt13basic_ostreamIcT_ES5_PKc@PLT
 4217      00
 4218 1c0a 4889C3   		movq	%rax, %rbx
 4219 1c0d 488B8510 		movq	-496(%rbp), %rax
 4219      FEFFFF
 4220 1c14 488B00   		movq	(%rax), %rax
 4221 1c17 4883C010 		addq	$16, %rax
 4222 1c1b 488B00   		movq	(%rax), %rax
 4223 1c1e 488B9510 		movq	-496(%rbp), %rdx
 4223      FEFFFF
 4224 1c25 4889D7   		movq	%rdx, %rdi
 4225 1c28 FFD0     		call	*%rax
 4226              	.LVL9:
 4227 1c2a 4889C6   		movq	%rax, %rsi
 4228 1c2d 4889DF   		movq	%rbx, %rdi
 4229 1c30 E8000000 		call	_ZStlsISt11char_traitsIcEERSt13basic_ostreamIcT_ES5_PKc@PLT
 4229      00
 4230              		.loc 6 113 0 discriminator 17
 4231 1c35 E8000000 		call	_ZN8UnitTest11CurrentTest7ResultsEv@PLT
 4231      00
 4232 1c3a 488B18   		movq	(%rax), %rbx
 4233 1c3d 488D8540 		leaq	-448(%rbp), %rax
 4233      FEFFFF
 4234 1c44 4889C7   		movq	%rax, %rdi
 4235 1c47 E8000000 		call	_ZNK8UnitTest15MemoryOutStream7GetTextEv@PLT
 4235      00
 4236              		.loc 6 113 0 discriminator 19
 4237 1c4c 4889C2   		movq	%rax, %rdx
 4238 1c4f 488B85F8 		movq	-520(%rbp), %rax
 4238      FDFFFF
 4239 1c56 4883C008 		addq	$8, %rax
 4240 1c5a 4889C6   		movq	%rax, %rsi
 4241 1c5d 4889DF   		movq	%rbx, %rdi
 4242 1c60 E8000000 		call	_ZN8UnitTest11TestResults13OnTestFailureERKNS_11TestDetailsEPKc@PLT
 4242      00
 4243              	.LEHE89:
 4244              		.loc 6 113 0 discriminator 23
 4245 1c65 488D8540 		leaq	-448(%rbp), %rax
 4245      FEFFFF
 4246 1c6c 4889C7   		movq	%rax, %rdi
 4247              	.LEHB90:
 4248 1c6f E8000000 		call	_ZN8UnitTest15MemoryOutStreamD1Ev
 4248      00
 4249              	.LEHE90:
 4250              	.LBE61:
 4251              		.loc 6 113 0 discriminator 24
 4252 1c74 E8000000 		call	__cxa_end_catch@PLT
 4252      00
 4253              	.LBE60:
 4254 1c79 E9ED0000 		jmp	.L199
 4254      00
 4255              	.L217:
 4256              		.loc 6 113 0
 4257 1c7e 4889C7   		movq	%rax, %rdi
 4258 1c81 E8000000 		call	__cxa_begin_catch@PLT
 4258      00
 4259 1c86 80BD0FFE 		cmpb	$0, -497(%rbp)
 4259      FFFF00
 4260 1c8d 7445     		je	.L205
 4261              	.LEHB91:
 4262              		.loc 6 113 0 discriminator 26
 4263 1c8f E8000000 		call	_ZN8UnitTest11CurrentTest7ResultsEv@PLT
 4263      00
 4264 1c94 488B18   		movq	(%rax), %rbx
 4265 1c97 488B85F8 		movq	-520(%rbp), %rax
 4265      FDFFFF
 4266 1c9e 488D4808 		leaq	8(%rax), %rcx
 4267 1ca2 488D8520 		leaq	-480(%rbp), %rax
 4267      FEFFFF
 4268 1ca9 BA710000 		movl	$113, %edx
 4268      00
 4269 1cae 4889CE   		movq	%rcx, %rsi
 4270 1cb1 4889C7   		movq	%rax, %rdi
 4271 1cb4 E8000000 		call	_ZN8UnitTest11TestDetailsC1ERKS0_i@PLT
 4271      00
 4272              		.loc 6 113 0 discriminator 31
 4273 1cb9 488D8520 		leaq	-480(%rbp), %rax
 4273      FEFFFF
 4274 1cc0 488D1500 		leaq	.LC44(%rip), %rdx
 4274      000000
 4275 1cc7 4889C6   		movq	%rax, %rsi
 4276 1cca 4889DF   		movq	%rbx, %rdi
 4277 1ccd E8000000 		call	_ZN8UnitTest11TestResults13OnTestFailureERKNS_11TestDetailsEPKc@PLT
 4277      00
 4278 1cd2 EB43     		jmp	.L206
 4279              	.L205:
 4280              		.loc 6 113 0 discriminator 27
 4281 1cd4 E8000000 		call	_ZN8UnitTest11CurrentTest7ResultsEv@PLT
 4281      00
 4282 1cd9 488B18   		movq	(%rax), %rbx
 4283 1cdc 488B85F8 		movq	-520(%rbp), %rax
 4283      FDFFFF
 4284 1ce3 488D4808 		leaq	8(%rax), %rcx
 4285 1ce7 488D8520 		leaq	-480(%rbp), %rax
 4285      FEFFFF
 4286 1cee BA710000 		movl	$113, %edx
 4286      00
 4287 1cf3 4889CE   		movq	%rcx, %rsi
 4288 1cf6 4889C7   		movq	%rax, %rdi
 4289 1cf9 E8000000 		call	_ZN8UnitTest11TestDetailsC1ERKS0_i@PLT
 4289      00
 4290              		.loc 6 113 0 discriminator 38
 4291 1cfe 488D8520 		leaq	-480(%rbp), %rax
 4291      FEFFFF
 4292 1d05 488D1500 		leaq	.LC45(%rip), %rdx
 4292      000000
 4293 1d0c 4889C6   		movq	%rax, %rsi
 4294 1d0f 4889DF   		movq	%rbx, %rdi
 4295 1d12 E8000000 		call	_ZN8UnitTest11TestResults13OnTestFailureERKNS_11TestDetailsEPKc@PLT
 4295      00
 4296              	.LEHE91:
 4297              	.L206:
 4298              	.LEHB92:
 4299              		.loc 6 113 0 discriminator 41
 4300 1d17 E8000000 		call	__cxa_end_catch@PLT
 4300      00
 4301 1d1c EB4D     		jmp	.L199
 4302              	.L213:
 4303 1d1e 4889C3   		movq	%rax, %rbx
 4304              	.LBB63:
 4305              		.loc 6 113 0
 4306 1d21 E8000000 		call	__cxa_end_catch@PLT
 4306      00
 4307 1d26 4889D8   		movq	%rbx, %rax
 4308 1d29 4889C7   		movq	%rax, %rdi
 4309 1d2c E8000000 		call	_Unwind_Resume@PLT
 4309      00
 4310              	.LEHE92:
 4311              	.L215:
 4312 1d31 4889C3   		movq	%rax, %rbx
 4313              	.LBE63:
 4314              	.LBB64:
 4315              	.LBB62:
 4316 1d34 488D8540 		leaq	-448(%rbp), %rax
 4316      FEFFFF
 4317 1d3b 4889C7   		movq	%rax, %rdi
 4318 1d3e E8000000 		call	_ZN8UnitTest15MemoryOutStreamD1Ev
 4318      00
 4319 1d43 EB03     		jmp	.L209
 4320              	.L214:
 4321 1d45 4889C3   		movq	%rax, %rbx
 4322              	.L209:
 4323              	.LBE62:
 4324 1d48 E8000000 		call	__cxa_end_catch@PLT
 4324      00
 4325 1d4d 4889D8   		movq	%rbx, %rax
 4326 1d50 4889C7   		movq	%rax, %rdi
 4327              	.LEHB93:
 4328 1d53 E8000000 		call	_Unwind_Resume@PLT
 4328      00
 4329              	.LEHE93:
 4330              	.L216:
 4331 1d58 4889C3   		movq	%rax, %rbx
 4332              	.LBE64:
 4333 1d5b E8000000 		call	__cxa_end_catch@PLT
 4333      00
 4334 1d60 4889D8   		movq	%rbx, %rax
 4335 1d63 4889C7   		movq	%rax, %rdi
 4336              	.LEHB94:
 4337 1d66 E8000000 		call	_Unwind_Resume@PLT
 4337      00
 4338              	.LEHE94:
 4339              	.L199:
 4340 1d6b 488B45D8 		movq	-40(%rbp), %rax
 4341 1d6f 64483304 		xorq	%fs:40, %rax
 4341      25280000 
 4341      00
 4342 1d78 7405     		je	.L211
 4343 1d7a E8000000 		call	__stack_chk_fail@PLT
 4343      00
 4344              	.L211:
 4345 1d7f 4881C4F8 		addq	$504, %rsp
 4345      010000
 4346 1d86 5B       		popq	%rbx
 4347 1d87 415C     		popq	%r12
 4348 1d89 415D     		popq	%r13
 4349 1d8b 5D       		popq	%rbp
 4350              		.cfi_def_cfa 7, 8
 4351 1d8c C3       		ret
 4352              		.cfi_endproc
 4353              	.LFE1185:
 4354              		.section	.gcc_except_table
 4355              		.align 4
 4356              	.LLSDA1185:
 4357 025c FF       		.byte	0xff
 4358 025d 9B       		.byte	0x9b
 4359 025e 49       		.uleb128 .LLSDATT1185-.LLSDATTD1185
 4360              	.LLSDATTD1185:
 4361 025f 01       		.byte	0x1
 4362 0260 33       		.uleb128 .LLSDACSE1185-.LLSDACSB1185
 4363              	.LLSDACSB1185:
 4364 0261 45       		.uleb128 .LEHB86-.LFB1185
 4365 0262 29       		.uleb128 .LEHE86-.LEHB86
 4366 0263 73       		.uleb128 .L212-.LFB1185
 4367 0264 05       		.uleb128 0x5
 4368 0265 9701     		.uleb128 .LEHB87-.LFB1185
 4369 0267 8901     		.uleb128 .LEHE87-.LEHB87
 4370 0269 F204     		.uleb128 .L213-.LFB1185
 4371 026b 00       		.uleb128 0
 4372 026c C302     		.uleb128 .LEHB88-.LFB1185
 4373 026e 05       		.uleb128 .LEHE88-.LEHB88
 4374 026f 9905     		.uleb128 .L214-.LFB1185
 4375 0271 00       		.uleb128 0
 4376 0272 D902     		.uleb128 .LEHB89-.LFB1185
 4377 0274 60       		.uleb128 .LEHE89-.LEHB89
 4378 0275 8505     		.uleb128 .L215-.LFB1185
 4379 0277 00       		.uleb128 0
 4380 0278 C303     		.uleb128 .LEHB90-.LFB1185
 4381 027a 05       		.uleb128 .LEHE90-.LEHB90
 4382 027b 9905     		.uleb128 .L214-.LFB1185
 4383 027d 00       		.uleb128 0
 4384 027e E303     		.uleb128 .LEHB91-.LFB1185
 4385 0280 8801     		.uleb128 .LEHE91-.LEHB91
 4386 0282 AC05     		.uleb128 .L216-.LFB1185
 4387 0284 00       		.uleb128 0
 4388 0285 EB04     		.uleb128 .LEHB92-.LFB1185
 4389 0287 1A       		.uleb128 .LEHE92-.LEHB92
 4390 0288 00       		.uleb128 0
 4391 0289 00       		.uleb128 0
 4392 028a A705     		.uleb128 .LEHB93-.LFB1185
 4393 028c 05       		.uleb128 .LEHE93-.LEHB93
 4394 028d 00       		.uleb128 0
 4395 028e 00       		.uleb128 0
 4396 028f BA05     		.uleb128 .LEHB94-.LFB1185
 4397 0291 05       		.uleb128 .LEHE94-.LEHB94
 4398 0292 00       		.uleb128 0
 4399 0293 00       		.uleb128 0
 4400              	.LLSDACSE1185:
 4401 0294 03       		.byte	0x3
 4402 0295 00       		.byte	0
 4403 0296 02       		.byte	0x2
 4404 0297 7D       		.byte	0x7d
 4405 0298 01       		.byte	0x1
 4406 0299 7D       		.byte	0x7d
 4407 029a 0000     		.align 4
 4408 029c 00000000 		.long	0
 4409              	
 4410 02a0 00000000 		.long	DW.ref._ZTISt9exception-.
 4411 02a4 00000000 		.long	DW.ref._ZTIN8UnitTest15AssertExceptionE-.
 4412              	.LLSDATT1185:
 4413              		.text
 4415 1d8d 90       		.align 2
 4417              	_ZN12_GLOBAL__N_148FixtureCtorThrowsFixtureCtorThrowsTestNameHelper7RunImplEv:
 4418              	.LFB1186:
 114:TestTestMacros.cpp **** {
 4419              		.loc 6 114 0 is_stmt 1
 4420              		.cfi_startproc
 4421 1d8e 55       		pushq	%rbp
 4422              		.cfi_def_cfa_offset 16
 4423              		.cfi_offset 6, -16
 4424 1d8f 4889E5   		movq	%rsp, %rbp
 4425              		.cfi_def_cfa_register 6
 4426 1d92 48897DF8 		movq	%rdi, -8(%rbp)
 115:TestTestMacros.cpp **** }
 4427              		.loc 6 115 0
 4428 1d96 90       		nop
 4429 1d97 5D       		popq	%rbp
 4430              		.cfi_def_cfa 7, 8
 4431 1d98 C3       		ret
 4432              		.cfi_endproc
 4433              	.LFE1186:
 4435              		.section	.rodata
 4436 0819 00000000 		.align 8
 4436      000000
 4437              	.LC46:
 4438 0820 46697874 		.string	"FixturesWithThrowingCtorsAreFailures"
 4438      75726573 
 4438      57697468 
 4438      5468726F 
 4438      77696E67 
 4439              		.text
 4440 1d99 90       		.align 2
 4442              	_ZN12_GLOBAL__N_140TestFixturesWithThrowingCtorsAreFailuresC2Ev:
 4443              	.LFB1188:
 116:TestTestMacros.cpp **** 
 117:TestTestMacros.cpp **** TEST(FixturesWithThrowingCtorsAreFailures)
 4444              		.loc 6 117 0
 4445              		.cfi_startproc
 4446 1d9a 55       		pushq	%rbp
 4447              		.cfi_def_cfa_offset 16
 4448              		.cfi_offset 6, -16
 4449 1d9b 4889E5   		movq	%rsp, %rbp
 4450              		.cfi_def_cfa_register 6
 4451 1d9e 53       		pushq	%rbx
 4452 1d9f 4883EC18 		subq	$24, %rsp
 4453              		.cfi_offset 3, -24
 4454 1da3 48897DE8 		movq	%rdi, -24(%rbp)
 4455              	.LBB65:
 4456              		.loc 6 117 0
 4457 1da7 488B5DE8 		movq	-24(%rbp), %rbx
 4458 1dab E8000000 		call	_ZN13UnitTestSuite12GetSuiteNameEv
 4458      00
 4459 1db0 41B87500 		movl	$117, %r8d
 4459      0000
 4460 1db6 488D0D00 		leaq	.LC2(%rip), %rcx
 4460      000000
 4461 1dbd 4889C2   		movq	%rax, %rdx
 4462 1dc0 488D3500 		leaq	.LC46(%rip), %rsi
 4462      000000
 4463 1dc7 4889DF   		movq	%rbx, %rdi
 4464 1dca E8000000 		call	_ZN8UnitTest4TestC2EPKcS2_S2_i@PLT
 4464      00
 4465 1dcf 488D1500 		leaq	16+_ZTVN12_GLOBAL__N_140TestFixturesWithThrowingCtorsAreFailuresE(%rip), %rdx
 4465      000000
 4466 1dd6 488B45E8 		movq	-24(%rbp), %rax
 4467 1dda 488910   		movq	%rdx, (%rax)
 4468              	.LBE65:
 4469 1ddd 90       		nop
 4470 1dde 4883C418 		addq	$24, %rsp
 4471 1de2 5B       		popq	%rbx
 4472 1de3 5D       		popq	%rbp
 4473              		.cfi_def_cfa 7, 8
 4474 1de4 C3       		ret
 4475              		.cfi_endproc
 4476              	.LFE1188:
 4478              		.set	_ZN12_GLOBAL__N_140TestFixturesWithThrowingCtorsAreFailuresC1Ev,_ZN12_GLOBAL__N_140TestFixtur
 4479              		.local	_ZN12_GLOBAL__N_148testFixturesWithThrowingCtorsAreFailuresInstanceE
 4480              		.comm	_ZN12_GLOBAL__N_148testFixturesWithThrowingCtorsAreFailuresInstanceE,56,32
 4481              		.local	_ZN12_GLOBAL__N_141adderFixturesWithThrowingCtorsAreFailuresE
 4482              		.comm	_ZN12_GLOBAL__N_141adderFixturesWithThrowingCtorsAreFailuresE,1,1
 4483              		.section	.rodata
 4484 0845 000000   		.align 8
 4485              	.LC47:
 4486 0848 7468726F 		.string	"throwingFixtureTestList1.GetHead() != NULL"
 4486      77696E67 
 4486      46697874 
 4486      75726554 
 4486      6573744C 
 4487              	.LC48:
 4488 0873 7768696C 		.string	"while constructing fixture"
 4488      6520636F 
 4488      6E737472 
 4488      75637469 
 4488      6E672066 
 4489 088e 0000     		.align 8
 4490              	.LC49:
 4491 0890 73747273 		.string	"strstr(reporter.lastFailedMessage, \"while constructing fixture\")"
 4491      74722872 
 4491      65706F72 
 4491      7465722E 
 4491      6C617374 
 4492 08d1 00000000 		.align 8
 4492      000000
 4493              	.LC50:
 4494 08d8 556E6861 		.string	"Unhandled exception in CHECK(throwingFixtureTestList1.GetHead() != NULL)"
 4494      6E646C65 
 4494      64206578 
 4494      63657074 
 4494      696F6E20 
 4495 0921 00000000 		.align 8
 4495      000000
 4496              	.LC51:
 4497 0928 556E6861 		.string	"Unhandled exception in CHECK_EQUAL(1, failureCount)"
 4497      6E646C65 
 4497      64206578 
 4497      63657074 
 4497      696F6E20 
 4498 095c 00000000 		.align 8
 4499              	.LC52:
 4500 0960 556E6861 		.string	"Unhandled exception in CHECK(strstr(reporter.lastFailedMessage, \"while constructing fixt
 4500      6E646C65 
 4500      64206578 
 4500      63657074 
 4500      696F6E20 
 4501              		.text
 4502 1de5 90       		.align 2
 4504              	_ZNK12_GLOBAL__N_140TestFixturesWithThrowingCtorsAreFailures7RunImplEv:
 4505              	.LFB1190:
 118:TestTestMacros.cpp **** {
 4506              		.loc 6 118 0
 4507              		.cfi_startproc
 4508              		.cfi_personality 0x9b,DW.ref.__gxx_personality_v0
 4509              		.cfi_lsda 0x1b,.LLSDA1190
 4510 1de6 55       		pushq	%rbp
 4511              		.cfi_def_cfa_offset 16
 4512              		.cfi_offset 6, -16
 4513 1de7 4889E5   		movq	%rsp, %rbp
 4514              		.cfi_def_cfa_register 6
 4515 1dea 53       		pushq	%rbx
 4516 1deb 4881ECA8 		subq	$2216, %rsp
 4516      080000
 4517              		.cfi_offset 3, -24
 4518 1df2 4889BD58 		movq	%rdi, -2216(%rbp)
 4518      F7FFFF
 4519              		.loc 6 118 0
 4520 1df9 64488B04 		movq	%fs:40, %rax
 4520      25280000 
 4520      00
 4521 1e02 488945E8 		movq	%rax, -24(%rbp)
 4522 1e06 31C0     		xorl	%eax, %eax
 119:TestTestMacros.cpp **** 	CHECK(throwingFixtureTestList1.GetHead() != NULL);
 4523              		.loc 6 119 0
 4524 1e08 488D3D00 		leaq	_ZN12_GLOBAL__N_124throwingFixtureTestList1E(%rip), %rdi
 4524      000000
 4525              	.LEHB95:
 4526 1e0f E8000000 		call	_ZNK8UnitTest8TestList7GetHeadEv@PLT
 4526      00
 4527 1e14 4885C0   		testq	%rax, %rax
 4528 1e17 0F95C0   		setne	%al
 4529 1e1a 0FB6C0   		movzbl	%al, %eax
 4530 1e1d 89C7     		movl	%eax, %edi
 4531 1e1f E8000000 		call	_ZN8UnitTest5CheckIbEEbT_
 4531      00
 4532 1e24 83F001   		xorl	$1, %eax
 4533 1e27 84C0     		testb	%al, %al
 4534 1e29 7440     		je	.L221
 4535              		.loc 6 119 0 is_stmt 0 discriminator 2
 4536 1e2b E8000000 		call	_ZN8UnitTest11CurrentTest7ResultsEv@PLT
 4536      00
 4537 1e30 488B18   		movq	(%rax), %rbx
 4538 1e33 E8000000 		call	_ZN8UnitTest11CurrentTest7DetailsEv@PLT
 4538      00
 4539              		.loc 6 119 0 discriminator 3
 4540 1e38 488B08   		movq	(%rax), %rcx
 4541 1e3b 488D8590 		leaq	-2160(%rbp), %rax
 4541      F7FFFF
 4542 1e42 BA770000 		movl	$119, %edx
 4542      00
 4543 1e47 4889CE   		movq	%rcx, %rsi
 4544 1e4a 4889C7   		movq	%rax, %rdi
 4545 1e4d E8000000 		call	_ZN8UnitTest11TestDetailsC1ERKS0_i@PLT
 4545      00
 4546              		.loc 6 119 0 discriminator 5
 4547 1e52 488D8590 		leaq	-2160(%rbp), %rax
 4547      F7FFFF
 4548 1e59 488D1500 		leaq	.LC47(%rip), %rdx
 4548      000000
 4549 1e60 4889C6   		movq	%rax, %rsi
 4550 1e63 4889DF   		movq	%rbx, %rdi
 4551 1e66 E8000000 		call	_ZN8UnitTest11TestResults13OnTestFailureERKNS_11TestDetailsEPKc@PLT
 4551      00
 4552              	.LEHE95:
 4553              	.L221:
 120:TestTestMacros.cpp **** 	RecordingReporter reporter;
 4554              		.loc 6 120 0 is_stmt 1
 4555 1e6b 488D85B0 		leaq	-2128(%rbp), %rax
 4555      F7FFFF
 4556 1e72 4889C7   		movq	%rax, %rdi
 4557 1e75 E8000000 		call	_ZN17RecordingReporterC1Ev
 4557      00
 121:TestTestMacros.cpp **** 	TestResults result(&reporter);
 4558              		.loc 6 121 0
 4559 1e7a 488D95B0 		leaq	-2128(%rbp), %rdx
 4559      F7FFFF
 4560 1e81 488D8570 		leaq	-2192(%rbp), %rax
 4560      F7FFFF
 4561 1e88 4889D6   		movq	%rdx, %rsi
 4562 1e8b 4889C7   		movq	%rax, %rdi
 4563              	.LEHB96:
 4564 1e8e E8000000 		call	_ZN8UnitTest11TestResultsC1EPNS_12TestReporterE@PLT
 4564      00
 4565              	.LBB66:
 122:TestTestMacros.cpp **** 	{
 123:TestTestMacros.cpp **** 		ScopedCurrentTest scopedResult(result);
 4566              		.loc 6 123 0
 4567 1e93 488D8D70 		leaq	-2192(%rbp), %rcx
 4567      F7FFFF
 4568 1e9a 488D8590 		leaq	-2160(%rbp), %rax
 4568      F7FFFF
 4569 1ea1 BA000000 		movl	$0, %edx
 4569      00
 4570 1ea6 4889CE   		movq	%rcx, %rsi
 4571 1ea9 4889C7   		movq	%rax, %rdi
 4572 1eac E8000000 		call	_ZN17ScopedCurrentTestC1ERN8UnitTest11TestResultsEPKNS0_11TestDetailsE
 4572      00
 4573              	.LEHE96:
 124:TestTestMacros.cpp **** 		throwingFixtureTestList1.GetHead()->Run();
 4574              		.loc 6 124 0
 4575 1eb1 488D3D00 		leaq	_ZN12_GLOBAL__N_124throwingFixtureTestList1E(%rip), %rdi
 4575      000000
 4576              	.LEHB97:
 4577 1eb8 E8000000 		call	_ZNK8UnitTest8TestList7GetHeadEv@PLT
 4577      00
 4578 1ebd 4889C7   		movq	%rax, %rdi
 4579 1ec0 E8000000 		call	_ZN8UnitTest4Test3RunEv@PLT
 4579      00
 4580              	.LEHE97:
 123:TestTestMacros.cpp **** 		throwingFixtureTestList1.GetHead()->Run();
 4581              		.loc 6 123 0
 4582 1ec5 488D8590 		leaq	-2160(%rbp), %rax
 4582      F7FFFF
 4583 1ecc 4889C7   		movq	%rax, %rdi
 4584              	.LEHB98:
 4585 1ecf E8000000 		call	_ZN17ScopedCurrentTestD1Ev
 4585      00
 4586              	.LBE66:
 125:TestTestMacros.cpp **** 	}
 126:TestTestMacros.cpp **** 
 127:TestTestMacros.cpp **** 	int const failureCount = result.GetFailedTestCount();
 4587              		.loc 6 127 0
 4588 1ed4 488D8570 		leaq	-2192(%rbp), %rax
 4588      F7FFFF
 4589 1edb 4889C7   		movq	%rax, %rdi
 4590 1ede E8000000 		call	_ZNK8UnitTest11TestResults18GetFailedTestCountEv@PLT
 4590      00
 4591              	.LEHE98:
 4592 1ee3 898568F7 		movl	%eax, -2200(%rbp)
 4592      FFFF
 4593              	.LEHB99:
 128:TestTestMacros.cpp **** 	CHECK_EQUAL(1, failureCount);
 4594              		.loc 6 128 0
 4595 1ee9 E8000000 		call	_ZN8UnitTest11CurrentTest7DetailsEv@PLT
 4595      00
 4596              		.loc 6 128 0 is_stmt 0 discriminator 1
 4597 1eee 488B08   		movq	(%rax), %rcx
 4598 1ef1 488D8590 		leaq	-2160(%rbp), %rax
 4598      F7FFFF
 4599 1ef8 BA800000 		movl	$128, %edx
 4599      00
 4600 1efd 4889CE   		movq	%rcx, %rsi
 4601 1f00 4889C7   		movq	%rax, %rdi
 4602 1f03 E8000000 		call	_ZN8UnitTest11TestDetailsC1ERKS0_i@PLT
 4602      00
 4603              	.LEHE99:
 4604              		.loc 6 128 0 discriminator 2
 4605 1f08 C7856CF7 		movl	$1, -2196(%rbp)
 4605      FFFF0100 
 4605      0000
 4606              	.LEHB100:
 4607 1f12 E8000000 		call	_ZN8UnitTest11CurrentTest7ResultsEv@PLT
 4607      00
 4608 1f17 488B00   		movq	(%rax), %rax
 4609 1f1a 488D8D90 		leaq	-2160(%rbp), %rcx
 4609      F7FFFF
 4610 1f21 488D9568 		leaq	-2200(%rbp), %rdx
 4610      F7FFFF
 4611 1f28 488DB56C 		leaq	-2196(%rbp), %rsi
 4611      F7FFFF
 4612 1f2f 4889C7   		movq	%rax, %rdi
 4613 1f32 E8000000 		call	_ZN8UnitTest10CheckEqualIiiEEvRNS_11TestResultsERKT_RKT0_RKNS_11TestDetailsE
 4613      00
 4614              	.LEHE100:
 4615              	.L229:
 129:TestTestMacros.cpp **** 	CHECK(strstr(reporter.lastFailedMessage, "while constructing fixture"));
 4616              		.loc 6 129 0 is_stmt 1
 4617 1f37 488D85B0 		leaq	-2128(%rbp), %rax
 4617      F7FFFF
 4618 1f3e 48051405 		addq	$1300, %rax
 4618      0000
 4619 1f44 488D3500 		leaq	.LC48(%rip), %rsi
 4619      000000
 4620 1f4b 4889C7   		movq	%rax, %rdi
 4621 1f4e E8000000 		call	strstr@PLT
 4621      00
 4622 1f53 4889C7   		movq	%rax, %rdi
 4623 1f56 E8000000 		call	_ZN8UnitTest5CheckIPcEEbT_
 4623      00
 4624 1f5b 83F001   		xorl	$1, %eax
 4625 1f5e 84C0     		testb	%al, %al
 4626 1f60 7440     		je	.L222
 4627              	.LEHB101:
 4628              		.loc 6 129 0 is_stmt 0 discriminator 1
 4629 1f62 E8000000 		call	_ZN8UnitTest11CurrentTest7ResultsEv@PLT
 4629      00
 4630 1f67 488B18   		movq	(%rax), %rbx
 4631 1f6a E8000000 		call	_ZN8UnitTest11CurrentTest7DetailsEv@PLT
 4631      00
 4632              		.loc 6 129 0 discriminator 2
 4633 1f6f 488B08   		movq	(%rax), %rcx
 4634 1f72 488D8590 		leaq	-2160(%rbp), %rax
 4634      F7FFFF
 4635 1f79 BA810000 		movl	$129, %edx
 4635      00
 4636 1f7e 4889CE   		movq	%rcx, %rsi
 4637 1f81 4889C7   		movq	%rax, %rdi
 4638 1f84 E8000000 		call	_ZN8UnitTest11TestDetailsC1ERKS0_i@PLT
 4638      00
 4639              		.loc 6 129 0 discriminator 4
 4640 1f89 488D8590 		leaq	-2160(%rbp), %rax
 4640      F7FFFF
 4641 1f90 488D1500 		leaq	.LC49(%rip), %rdx
 4641      000000
 4642 1f97 4889C6   		movq	%rax, %rsi
 4643 1f9a 4889DF   		movq	%rbx, %rdi
 4644 1f9d E8000000 		call	_ZN8UnitTest11TestResults13OnTestFailureERKNS_11TestDetailsEPKc@PLT
 4644      00
 4645              	.LEHE101:
 4646              	.L222:
 120:TestTestMacros.cpp **** 	TestResults result(&reporter);
 4647              		.loc 6 120 0 is_stmt 1
 4648 1fa2 488D85B0 		leaq	-2128(%rbp), %rax
 4648      F7FFFF
 4649 1fa9 4889C7   		movq	%rax, %rdi
 4650              	.LEHB102:
 4651 1fac E8000000 		call	_ZN17RecordingReporterD1Ev
 4651      00
 4652              	.LEHE102:
 130:TestTestMacros.cpp **** }
 4653              		.loc 6 130 0
 4654 1fb1 90       		nop
 4655 1fb2 488B45E8 		movq	-24(%rbp), %rax
 4656 1fb6 64483304 		xorq	%fs:40, %rax
 4656      25280000 
 4656      00
 4657 1fbf 0F845D01 		je	.L233
 4657      0000
 4658 1fc5 E9530100 		jmp	.L243
 4658      00
 4659              	.L234:
 119:TestTestMacros.cpp **** 	RecordingReporter reporter;
 4660              		.loc 6 119 0
 4661 1fca 4889C7   		movq	%rax, %rdi
 4662 1fcd E8000000 		call	__cxa_begin_catch@PLT
 4662      00
 4663              	.LEHB103:
 4664 1fd2 E8000000 		call	_ZN8UnitTest11CurrentTest7ResultsEv@PLT
 4664      00
 4665 1fd7 488B18   		movq	(%rax), %rbx
 4666 1fda E8000000 		call	_ZN8UnitTest11CurrentTest7DetailsEv@PLT
 4666      00
 119:TestTestMacros.cpp **** 	RecordingReporter reporter;
 4667              		.loc 6 119 0 is_stmt 0 discriminator 9
 4668 1fdf 488B08   		movq	(%rax), %rcx
 4669 1fe2 488D8590 		leaq	-2160(%rbp), %rax
 4669      F7FFFF
 4670 1fe9 BA770000 		movl	$119, %edx
 4670      00
 4671 1fee 4889CE   		movq	%rcx, %rsi
 4672 1ff1 4889C7   		movq	%rax, %rdi
 4673 1ff4 E8000000 		call	_ZN8UnitTest11TestDetailsC1ERKS0_i@PLT
 4673      00
 119:TestTestMacros.cpp **** 	RecordingReporter reporter;
 4674              		.loc 6 119 0 discriminator 13
 4675 1ff9 488D8590 		leaq	-2160(%rbp), %rax
 4675      F7FFFF
 4676 2000 488D1500 		leaq	.LC50(%rip), %rdx
 4676      000000
 4677 2007 4889C6   		movq	%rax, %rsi
 4678 200a 4889DF   		movq	%rbx, %rdi
 4679 200d E8000000 		call	_ZN8UnitTest11TestResults13OnTestFailureERKNS_11TestDetailsEPKc@PLT
 4679      00
 4680              	.LEHE103:
 4681              	.LEHB104:
 119:TestTestMacros.cpp **** 	RecordingReporter reporter;
 4682              		.loc 6 119 0 discriminator 15
 4683 2012 E8000000 		call	__cxa_end_catch@PLT
 4683      00
 4684              	.LEHE104:
 4685 2017 E94FFEFF 		jmp	.L221
 4685      FF
 4686              	.L235:
 4687 201c 4889C3   		movq	%rax, %rbx
 119:TestTestMacros.cpp **** 	RecordingReporter reporter;
 4688              		.loc 6 119 0
 4689 201f E8000000 		call	__cxa_end_catch@PLT
 4689      00
 4690 2024 4889D8   		movq	%rbx, %rax
 4691 2027 4889C7   		movq	%rax, %rdi
 4692              	.LEHB105:
 4693 202a E8000000 		call	_Unwind_Resume@PLT
 4693      00
 4694              	.LEHE105:
 4695              	.L237:
 4696 202f 4889C3   		movq	%rax, %rbx
 4697              	.LBB67:
 123:TestTestMacros.cpp **** 		throwingFixtureTestList1.GetHead()->Run();
 4698              		.loc 6 123 0 is_stmt 1
 4699 2032 488D8590 		leaq	-2160(%rbp), %rax
 4699      F7FFFF
 4700 2039 4889C7   		movq	%rax, %rdi
 4701 203c E8000000 		call	_ZN17ScopedCurrentTestD1Ev
 4701      00
 4702 2041 E9BD0000 		jmp	.L226
 4702      00
 4703              	.L239:
 4704 2046 EB00     		jmp	.L228
 4705              	.L238:
 4706              	.L228:
 4707              	.LBE67:
 128:TestTestMacros.cpp **** 	CHECK(strstr(reporter.lastFailedMessage, "while constructing fixture"));
 4708              		.loc 6 128 0
 4709 2048 4889C7   		movq	%rax, %rdi
 4710 204b E8000000 		call	__cxa_begin_catch@PLT
 4710      00
 4711              	.LEHB106:
 4712 2050 E8000000 		call	_ZN8UnitTest11CurrentTest7ResultsEv@PLT
 4712      00
 4713 2055 488B18   		movq	(%rax), %rbx
 4714 2058 E8000000 		call	_ZN8UnitTest11CurrentTest7DetailsEv@PLT
 4714      00
 128:TestTestMacros.cpp **** 	CHECK(strstr(reporter.lastFailedMessage, "while constructing fixture"));
 4715              		.loc 6 128 0 is_stmt 0 discriminator 8
 4716 205d 488B08   		movq	(%rax), %rcx
 4717 2060 488D8590 		leaq	-2160(%rbp), %rax
 4717      F7FFFF
 4718 2067 BA800000 		movl	$128, %edx
 4718      00
 4719 206c 4889CE   		movq	%rcx, %rsi
 4720 206f 4889C7   		movq	%rax, %rdi
 4721 2072 E8000000 		call	_ZN8UnitTest11TestDetailsC1ERKS0_i@PLT
 4721      00
 128:TestTestMacros.cpp **** 	CHECK(strstr(reporter.lastFailedMessage, "while constructing fixture"));
 4722              		.loc 6 128 0 discriminator 12
 4723 2077 488D8590 		leaq	-2160(%rbp), %rax
 4723      F7FFFF
 4724 207e 488D1500 		leaq	.LC51(%rip), %rdx
 4724      000000
 4725 2085 4889C6   		movq	%rax, %rsi
 4726 2088 4889DF   		movq	%rbx, %rdi
 4727 208b E8000000 		call	_ZN8UnitTest11TestResults13OnTestFailureERKNS_11TestDetailsEPKc@PLT
 4727      00
 4728              	.LEHE106:
 4729              	.LEHB107:
 128:TestTestMacros.cpp **** 	CHECK(strstr(reporter.lastFailedMessage, "while constructing fixture"));
 4730              		.loc 6 128 0 discriminator 14
 4731 2090 E8000000 		call	__cxa_end_catch@PLT
 4731      00
 4732              	.LEHE107:
 128:TestTestMacros.cpp **** 	CHECK(strstr(reporter.lastFailedMessage, "while constructing fixture"));
 4733              		.loc 6 128 0
 4734 2095 E99DFEFF 		jmp	.L229
 4734      FF
 4735              	.L240:
 4736 209a 4889C3   		movq	%rax, %rbx
 4737 209d E8000000 		call	__cxa_end_catch@PLT
 4737      00
 4738 20a2 EB5F     		jmp	.L226
 4739              	.L241:
 129:TestTestMacros.cpp **** }
 4740              		.loc 6 129 0 is_stmt 1
 4741 20a4 4889C7   		movq	%rax, %rdi
 4742 20a7 E8000000 		call	__cxa_begin_catch@PLT
 4742      00
 4743              	.LEHB108:
 4744 20ac E8000000 		call	_ZN8UnitTest11CurrentTest7ResultsEv@PLT
 4744      00
 4745 20b1 488B18   		movq	(%rax), %rbx
 4746 20b4 E8000000 		call	_ZN8UnitTest11CurrentTest7DetailsEv@PLT
 4746      00
 129:TestTestMacros.cpp **** }
 4747              		.loc 6 129 0 is_stmt 0 discriminator 8
 4748 20b9 488B08   		movq	(%rax), %rcx
 4749 20bc 488D8590 		leaq	-2160(%rbp), %rax
 4749      F7FFFF
 4750 20c3 BA810000 		movl	$129, %edx
 4750      00
 4751 20c8 4889CE   		movq	%rcx, %rsi
 4752 20cb 4889C7   		movq	%rax, %rdi
 4753 20ce E8000000 		call	_ZN8UnitTest11TestDetailsC1ERKS0_i@PLT
 4753      00
 129:TestTestMacros.cpp **** }
 4754              		.loc 6 129 0 discriminator 12
 4755 20d3 488D8590 		leaq	-2160(%rbp), %rax
 4755      F7FFFF
 4756 20da 488D1500 		leaq	.LC52(%rip), %rdx
 4756      000000
 4757 20e1 4889C6   		movq	%rax, %rsi
 4758 20e4 4889DF   		movq	%rbx, %rdi
 4759 20e7 E8000000 		call	_ZN8UnitTest11TestResults13OnTestFailureERKNS_11TestDetailsEPKc@PLT
 4759      00
 4760              	.LEHE108:
 4761              	.LEHB109:
 129:TestTestMacros.cpp **** }
 4762              		.loc 6 129 0 discriminator 14
 4763 20ec E8000000 		call	__cxa_end_catch@PLT
 4763      00
 4764              	.LEHE109:
 129:TestTestMacros.cpp **** }
 4765              		.loc 6 129 0
 4766 20f1 E9ACFEFF 		jmp	.L222
 4766      FF
 4767              	.L242:
 4768 20f6 4889C3   		movq	%rax, %rbx
 4769 20f9 E8000000 		call	__cxa_end_catch@PLT
 4769      00
 4770 20fe EB03     		jmp	.L226
 4771              	.L236:
 4772 2100 4889C3   		movq	%rax, %rbx
 4773              	.L226:
 120:TestTestMacros.cpp **** 	TestResults result(&reporter);
 4774              		.loc 6 120 0 is_stmt 1
 4775 2103 488D85B0 		leaq	-2128(%rbp), %rax
 4775      F7FFFF
 4776 210a 4889C7   		movq	%rax, %rdi
 4777 210d E8000000 		call	_ZN17RecordingReporterD1Ev
 4777      00
 4778 2112 4889D8   		movq	%rbx, %rax
 4779 2115 4889C7   		movq	%rax, %rdi
 4780              	.LEHB110:
 4781 2118 E8000000 		call	_Unwind_Resume@PLT
 4781      00
 4782              	.LEHE110:
 4783              	.L243:
 4784              		.loc 6 130 0
 4785 211d E8000000 		call	__stack_chk_fail@PLT
 4785      00
 4786              	.L233:
 4787 2122 4881C4A8 		addq	$2216, %rsp
 4787      080000
 4788 2129 5B       		popq	%rbx
 4789 212a 5D       		popq	%rbp
 4790              		.cfi_def_cfa 7, 8
 4791 212b C3       		ret
 4792              		.cfi_endproc
 4793              	.LFE1190:
 4794              		.section	.gcc_except_table
 4795              		.align 4
 4796              	.LLSDA1190:
 4797 02a8 FF       		.byte	0xff
 4798 02a9 9B       		.byte	0x9b
 4799 02aa 65       		.uleb128 .LLSDATT1190-.LLSDATTD1190
 4800              	.LLSDATTD1190:
 4801 02ab 01       		.byte	0x1
 4802 02ac 5B       		.uleb128 .LLSDACSE1190-.LLSDACSB1190
 4803              	.LLSDACSB1190:
 4804 02ad 29       		.uleb128 .LEHB95-.LFB1190
 4805 02ae 5C       		.uleb128 .LEHE95-.LEHB95
 4806 02af E403     		.uleb128 .L234-.LFB1190
 4807 02b1 01       		.uleb128 0x1
 4808 02b2 A801     		.uleb128 .LEHB96-.LFB1190
 4809 02b4 23       		.uleb128 .LEHE96-.LEHB96
 4810 02b5 9A06     		.uleb128 .L236-.LFB1190
 4811 02b7 00       		.uleb128 0
 4812 02b8 D201     		.uleb128 .LEHB97-.LFB1190
 4813 02ba 0D       		.uleb128 .LEHE97-.LEHB97
 4814 02bb C904     		.uleb128 .L237-.LFB1190
 4815 02bd 00       		.uleb128 0
 4816 02be E901     		.uleb128 .LEHB98-.LFB1190
 4817 02c0 14       		.uleb128 .LEHE98-.LEHB98
 4818 02c1 9A06     		.uleb128 .L236-.LFB1190
 4819 02c3 00       		.uleb128 0
 4820 02c4 8302     		.uleb128 .LEHB99-.LFB1190
 4821 02c6 1F       		.uleb128 .LEHE99-.LEHB99
 4822 02c7 E204     		.uleb128 .L238-.LFB1190
 4823 02c9 01       		.uleb128 0x1
 4824 02ca AC02     		.uleb128 .LEHB100-.LFB1190
 4825 02cc 25       		.uleb128 .LEHE100-.LEHB100
 4826 02cd E004     		.uleb128 .L239-.LFB1190
 4827 02cf 01       		.uleb128 0x1
 4828 02d0 FC02     		.uleb128 .LEHB101-.LFB1190
 4829 02d2 40       		.uleb128 .LEHE101-.LEHB101
 4830 02d3 BE05     		.uleb128 .L241-.LFB1190
 4831 02d5 01       		.uleb128 0x1
 4832 02d6 C603     		.uleb128 .LEHB102-.LFB1190
 4833 02d8 05       		.uleb128 .LEHE102-.LEHB102
 4834 02d9 00       		.uleb128 0
 4835 02da 00       		.uleb128 0
 4836 02db EC03     		.uleb128 .LEHB103-.LFB1190
 4837 02dd 40       		.uleb128 .LEHE103-.LEHB103
 4838 02de B604     		.uleb128 .L235-.LFB1190
 4839 02e0 00       		.uleb128 0
 4840 02e1 AC04     		.uleb128 .LEHB104-.LFB1190
 4841 02e3 05       		.uleb128 .LEHE104-.LEHB104
 4842 02e4 00       		.uleb128 0
 4843 02e5 00       		.uleb128 0
 4844 02e6 C404     		.uleb128 .LEHB105-.LFB1190
 4845 02e8 05       		.uleb128 .LEHE105-.LEHB105
 4846 02e9 00       		.uleb128 0
 4847 02ea 00       		.uleb128 0
 4848 02eb EA04     		.uleb128 .LEHB106-.LFB1190
 4849 02ed 40       		.uleb128 .LEHE106-.LEHB106
 4850 02ee B405     		.uleb128 .L240-.LFB1190
 4851 02f0 00       		.uleb128 0
 4852 02f1 AA05     		.uleb128 .LEHB107-.LFB1190
 4853 02f3 05       		.uleb128 .LEHE107-.LEHB107
 4854 02f4 9A06     		.uleb128 .L236-.LFB1190
 4855 02f6 00       		.uleb128 0
 4856 02f7 C605     		.uleb128 .LEHB108-.LFB1190
 4857 02f9 40       		.uleb128 .LEHE108-.LEHB108
 4858 02fa 9006     		.uleb128 .L242-.LFB1190
 4859 02fc 00       		.uleb128 0
 4860 02fd 8606     		.uleb128 .LEHB109-.LFB1190
 4861 02ff 05       		.uleb128 .LEHE109-.LEHB109
 4862 0300 9A06     		.uleb128 .L236-.LFB1190
 4863 0302 00       		.uleb128 0
 4864 0303 B206     		.uleb128 .LEHB110-.LFB1190
 4865 0305 05       		.uleb128 .LEHE110-.LEHB110
 4866 0306 00       		.uleb128 0
 4867 0307 00       		.uleb128 0
 4868              	.LLSDACSE1190:
 4869 0308 01       		.byte	0x1
 4870 0309 00       		.byte	0
 4871 030a 0000     		.align 4
 4872 030c 00000000 		.long	0
 4873              	
 4874              	.LLSDATT1190:
 4875              		.text
 4877              		.align 2
 4879              	_ZN12_GLOBAL__N_117FixtureDtorThrowsD2Ev:
 4880              	.LFB1192:
 131:TestTestMacros.cpp **** 
 132:TestTestMacros.cpp **** struct FixtureDtorThrows
 133:TestTestMacros.cpp **** {
 134:TestTestMacros.cpp **** 	~FixtureDtorThrows() { throw "exception"; }
 4881              		.loc 6 134 0
 4882              		.cfi_startproc
 4883 212c 55       		pushq	%rbp
 4884              		.cfi_def_cfa_offset 16
 4885              		.cfi_offset 6, -16
 4886 212d 4889E5   		movq	%rsp, %rbp
 4887              		.cfi_def_cfa_register 6
 4888 2130 4883EC10 		subq	$16, %rsp
 4889 2134 48897DF8 		movq	%rdi, -8(%rbp)
 4890              	.LBB68:
 4891              		.loc 6 134 0
 4892 2138 BF080000 		movl	$8, %edi
 4892      00
 4893 213d E8000000 		call	__cxa_allocate_exception@PLT
 4893      00
 4894 2142 488D1500 		leaq	.LC42(%rip), %rdx
 4894      000000
 4895 2149 488910   		movq	%rdx, (%rax)
 4896 214c BA000000 		movl	$0, %edx
 4896      00
 4897 2151 488D3500 		leaq	_ZTIPKc(%rip), %rsi
 4897      000000
 4898 2158 4889C7   		movq	%rax, %rdi
 4899 215b E8000000 		call	__cxa_throw@PLT
 4899      00
 4900              	.LBE68:
 4901              		.cfi_endproc
 4902              	.LFE1192:
 4904              		.local	_ZN12_GLOBAL__N_124throwingFixtureTestList2E
 4905              		.comm	_ZN12_GLOBAL__N_124throwingFixtureTestList2E,16,16
 4906              		.align 2
 4908              	_ZN12_GLOBAL__N_148FixtureDtorThrowsFixtureDtorThrowsTestNameHelperC2ERKN8UnitTest11TestDetailsE:
 4909              	.LFB1195:
 135:TestTestMacros.cpp **** };
 136:TestTestMacros.cpp **** 
 137:TestTestMacros.cpp **** TestList throwingFixtureTestList2;
 138:TestTestMacros.cpp **** TEST_FIXTURE_EX(FixtureDtorThrows, FixtureDtorThrowsTestName, throwingFixtureTestList2)
 4910              		.loc 6 138 0
 4911              		.cfi_startproc
 4912 2160 55       		pushq	%rbp
 4913              		.cfi_def_cfa_offset 16
 4914              		.cfi_offset 6, -16
 4915 2161 4889E5   		movq	%rsp, %rbp
 4916              		.cfi_def_cfa_register 6
 4917 2164 48897DF8 		movq	%rdi, -8(%rbp)
 4918 2168 488975F0 		movq	%rsi, -16(%rbp)
 4919              	.LBB69:
 4920              		.loc 6 138 0
 4921 216c 488B45F8 		movq	-8(%rbp), %rax
 4922 2170 488B55F0 		movq	-16(%rbp), %rdx
 4923 2174 488910   		movq	%rdx, (%rax)
 4924              	.LBE69:
 4925 2177 90       		nop
 4926 2178 5D       		popq	%rbp
 4927              		.cfi_def_cfa 7, 8
 4928 2179 C3       		ret
 4929              		.cfi_endproc
 4930              	.LFE1195:
 4932              		.set	_ZN12_GLOBAL__N_148FixtureDtorThrowsFixtureDtorThrowsTestNameHelperC1ERKN8UnitTest11TestDetai
 4933              		.section	.rodata
 4934              	.LC53:
 4935 09bf 46697874 		.string	"FixtureDtorThrowsTestName"
 4935      75726544 
 4935      746F7254 
 4935      68726F77 
 4935      73546573 
 4936              		.text
 4937              		.align 2
 4939              	_ZN12_GLOBAL__N_146TestFixtureDtorThrowsFixtureDtorThrowsTestNameC2Ev:
 4940              	.LFB1198:
 4941              		.loc 6 138 0
 4942              		.cfi_startproc
 4943 217a 55       		pushq	%rbp
 4944              		.cfi_def_cfa_offset 16
 4945              		.cfi_offset 6, -16
 4946 217b 4889E5   		movq	%rsp, %rbp
 4947              		.cfi_def_cfa_register 6
 4948 217e 53       		pushq	%rbx
 4949 217f 4883EC18 		subq	$24, %rsp
 4950              		.cfi_offset 3, -24
 4951 2183 48897DE8 		movq	%rdi, -24(%rbp)
 4952              	.LBB70:
 4953              		.loc 6 138 0
 4954 2187 488B5DE8 		movq	-24(%rbp), %rbx
 4955 218b E8000000 		call	_ZN13UnitTestSuite12GetSuiteNameEv
 4955      00
 4956 2190 41B88A00 		movl	$138, %r8d
 4956      0000
 4957 2196 488D0D00 		leaq	.LC2(%rip), %rcx
 4957      000000
 4958 219d 4889C2   		movq	%rax, %rdx
 4959 21a0 488D3500 		leaq	.LC53(%rip), %rsi
 4959      000000
 4960 21a7 4889DF   		movq	%rbx, %rdi
 4961 21aa E8000000 		call	_ZN8UnitTest4TestC2EPKcS2_S2_i@PLT
 4961      00
 4962 21af 488D1500 		leaq	16+_ZTVN12_GLOBAL__N_146TestFixtureDtorThrowsFixtureDtorThrowsTestNameE(%rip), %rdx
 4962      000000
 4963 21b6 488B45E8 		movq	-24(%rbp), %rax
 4964 21ba 488910   		movq	%rdx, (%rax)
 4965              	.LBE70:
 4966 21bd 90       		nop
 4967 21be 4883C418 		addq	$24, %rsp
 4968 21c2 5B       		popq	%rbx
 4969 21c3 5D       		popq	%rbp
 4970              		.cfi_def_cfa 7, 8
 4971 21c4 C3       		ret
 4972              		.cfi_endproc
 4973              	.LFE1198:
 4975              		.set	_ZN12_GLOBAL__N_146TestFixtureDtorThrowsFixtureDtorThrowsTestNameC1Ev,_ZN12_GLOBAL__N_146Test
 4976              		.local	_ZN12_GLOBAL__N_154testFixtureDtorThrowsFixtureDtorThrowsTestNameInstanceE
 4977              		.comm	_ZN12_GLOBAL__N_154testFixtureDtorThrowsFixtureDtorThrowsTestNameInstanceE,56,32
 4978              		.local	_ZN12_GLOBAL__N_147adderFixtureDtorThrowsFixtureDtorThrowsTestNameE
 4979              		.comm	_ZN12_GLOBAL__N_147adderFixtureDtorThrowsFixtureDtorThrowsTestNameE,1,1
 4980 21c5 90       		.align 2
 4982              	_ZN12_GLOBAL__N_148FixtureDtorThrowsFixtureDtorThrowsTestNameHelperD2Ev:
 4983              	.LFB1202:
 4984              		.loc 6 138 0
 4985              		.cfi_startproc
 4986 21c6 55       		pushq	%rbp
 4987              		.cfi_def_cfa_offset 16
 4988              		.cfi_offset 6, -16
 4989 21c7 4889E5   		movq	%rsp, %rbp
 4990              		.cfi_def_cfa_register 6
 4991 21ca 4883EC10 		subq	$16, %rsp
 4992 21ce 48897DF8 		movq	%rdi, -8(%rbp)
 4993              	.LBB71:
 4994              		.loc 6 138 0
 4995 21d2 488B45F8 		movq	-8(%rbp), %rax
 4996 21d6 4889C7   		movq	%rax, %rdi
 4997 21d9 E84EFFFF 		call	_ZN12_GLOBAL__N_117FixtureDtorThrowsD2Ev
 4997      FF
 4998              	.LBE71:
 4999 21de 90       		nop
 5000 21df C9       		leave
 5001              		.cfi_def_cfa 7, 8
 5002 21e0 C3       		ret
 5003              		.cfi_endproc
 5004              	.LFE1202:
 5006              		.set	_ZN12_GLOBAL__N_148FixtureDtorThrowsFixtureDtorThrowsTestNameHelperD1Ev,_ZN12_GLOBAL__N_148Fi
 5007              		.section	.rodata
 5008 09d9 00000000 		.align 8
 5008      000000
 5009              	.LC54:
 5010 09e0 556E6861 		.string	"Unhandled exception while destroying fixture FixtureDtorThrows"
 5010      6E646C65 
 5010      64206578 
 5010      63657074 
 5010      696F6E20 
 5011 0a1f 00       		.align 8
 5012              	.LC55:
 5013 0a20 556E6861 		.string	"Unhandled exception while constructing fixture FixtureDtorThrows"
 5013      6E646C65 
 5013      64206578 
 5013      63657074 
 5013      696F6E20 
 5014              		.text
 5015 21e1 90       		.align 2
 5017              	_ZNK12_GLOBAL__N_146TestFixtureDtorThrowsFixtureDtorThrowsTestName7RunImplEv:
 5018              	.LFB1200:
 5019              		.loc 6 138 0
 5020              		.cfi_startproc
 5021              		.cfi_personality 0x9b,DW.ref.__gxx_personality_v0
 5022              		.cfi_lsda 0x1b,.LLSDA1200
 5023 21e2 55       		pushq	%rbp
 5024              		.cfi_def_cfa_offset 16
 5025              		.cfi_offset 6, -16
 5026 21e3 4889E5   		movq	%rsp, %rbp
 5027              		.cfi_def_cfa_register 6
 5028 21e6 4155     		pushq	%r13
 5029 21e8 4154     		pushq	%r12
 5030 21ea 53       		pushq	%rbx
 5031 21eb 4881ECF8 		subq	$504, %rsp
 5031      010000
 5032              		.cfi_offset 13, -24
 5033              		.cfi_offset 12, -32
 5034              		.cfi_offset 3, -40
 5035 21f2 4889BDF8 		movq	%rdi, -520(%rbp)
 5035      FDFFFF
 5036              		.loc 6 138 0
 5037 21f9 64488B04 		movq	%fs:40, %rax
 5037      25280000 
 5037      00
 5038 2202 488945D8 		movq	%rax, -40(%rbp)
 5039 2206 31C0     		xorl	%eax, %eax
 5040 2208 C6850FFE 		movb	$0, -497(%rbp)
 5040      FFFF00
 5041              	.LBB72:
 5042 220f 488B85F8 		movq	-520(%rbp), %rax
 5042      FDFFFF
 5043 2216 488D5008 		leaq	8(%rax), %rdx
 5044 221a 488D8520 		leaq	-480(%rbp), %rax
 5044      FEFFFF
 5045 2221 4889D6   		movq	%rdx, %rsi
 5046 2224 4889C7   		movq	%rax, %rdi
