   1              		.file	"TestChecks.cpp"
   2              		.section	.text._ZN17RecordingReporter13ReportSummaryEiiif,"axG",@progbits,_ZN17RecordingReporter13
   3              		.align 2
   4              		.p2align 4,,15
   5              		.weak	_ZN17RecordingReporter13ReportSummaryEiiif
   7              	_ZN17RecordingReporter13ReportSummaryEiiif:
   8              	.LFB1151:
   9              		.cfi_startproc
  10 0000 89B71C08 		movl	%esi, 2076(%rdi)
  10      0000
  11 0006 89972008 		movl	%edx, 2080(%rdi)
  11      0000
  12 000c F30F1187 		movss	%xmm0, 2088(%rdi)
  12      28080000 
  13 0014 898F2408 		movl	%ecx, 2084(%rdi)
  13      0000
  14 001a C3       		ret
  15              		.cfi_endproc
  16              	.LFE1151:
  18              		.text
  19              		.align 2
  20              		.p2align 4,,15
  22              	_ZN12_GLOBAL__N_143TestCheckArray2DCloseFailureIncludesDetailsD2Ev:
  23              	.LFB1358:
  24              		.cfi_startproc
  25 0000 488D0500 		leaq	16+_ZTVN12_GLOBAL__N_143TestCheckArray2DCloseFailureIncludesDetailsE(%rip), %rax
  25      000000
  26 0007 488907   		movq	%rax, (%rdi)
  27 000a E9000000 		jmp	_ZN8UnitTest4TestD2Ev@PLT
  27      00
  28              		.cfi_endproc
  29              	.LFE1358:
  31              		.set	_ZN12_GLOBAL__N_143TestCheckArray2DCloseFailureIncludesDetailsD1Ev,_ZN12_GLOBAL__N_143TestChe
  32 000f 90       		.align 2
  33              		.p2align 4,,15
  35              	_ZN12_GLOBAL__N_133TestCheckCloseWithDoublesSucceedsD2Ev:
  36              	.LFB1362:
  37              		.cfi_startproc
  38 0010 488D0500 		leaq	16+_ZTVN12_GLOBAL__N_133TestCheckCloseWithDoublesSucceedsE(%rip), %rax
  38      000000
  39 0017 488907   		movq	%rax, (%rdi)
  40 001a E9000000 		jmp	_ZN8UnitTest4TestD2Ev@PLT
  40      00
  41              		.cfi_endproc
  42              	.LFE1362:
  44              		.set	_ZN12_GLOBAL__N_133TestCheckCloseWithDoublesSucceedsD1Ev,_ZN12_GLOBAL__N_133TestCheckCloseWit
  45 001f 90       		.align 2
  46              		.p2align 4,,15
  48              	_ZN12_GLOBAL__N_126TestCheckArray2DCloseFalseD2Ev:
  49              	.LFB1366:
  50              		.cfi_startproc
  51 0020 488D0500 		leaq	16+_ZTVN12_GLOBAL__N_126TestCheckArray2DCloseFalseE(%rip), %rax
  51      000000
  52 0027 488907   		movq	%rax, (%rdi)
  53 002a E9000000 		jmp	_ZN8UnitTest4TestD2Ev@PLT
  53      00
  54              		.cfi_endproc
  55              	.LFE1366:
  57              		.set	_ZN12_GLOBAL__N_126TestCheckArray2DCloseFalseD1Ev,_ZN12_GLOBAL__N_126TestCheckArray2DCloseFal
  58 002f 90       		.align 2
  59              		.p2align 4,,15
  61              	_ZN12_GLOBAL__N_125TestCheckArray2DCloseTrueD2Ev:
  62              	.LFB1370:
  63              		.cfi_startproc
  64 0030 488D0500 		leaq	16+_ZTVN12_GLOBAL__N_125TestCheckArray2DCloseTrueE(%rip), %rax
  64      000000
  65 0037 488907   		movq	%rax, (%rdi)
  66 003a E9000000 		jmp	_ZN8UnitTest4TestD2Ev@PLT
  66      00
  67              		.cfi_endproc
  68              	.LFE1370:
  70              		.set	_ZN12_GLOBAL__N_125TestCheckArray2DCloseTrueD1Ev,_ZN12_GLOBAL__N_125TestCheckArray2DCloseTrue
  71 003f 90       		.align 2
  72              		.p2align 4,,15
  74              	_ZN12_GLOBAL__N_141TestCheckArrayCloseFailureIncludesDetailsD2Ev:
  75              	.LFB1374:
  76              		.cfi_startproc
  77 0040 488D0500 		leaq	16+_ZTVN12_GLOBAL__N_141TestCheckArrayCloseFailureIncludesDetailsE(%rip), %rax
  77      000000
  78 0047 488907   		movq	%rax, (%rdi)
  79 004a E9000000 		jmp	_ZN8UnitTest4TestD2Ev@PLT
  79      00
  80              		.cfi_endproc
  81              	.LFE1374:
  83              		.set	_ZN12_GLOBAL__N_141TestCheckArrayCloseFailureIncludesDetailsD1Ev,_ZN12_GLOBAL__N_141TestCheck
  84 004f 90       		.align 2
  85              		.p2align 4,,15
  87              	_ZN12_GLOBAL__N_124TestCheckArrayCloseFalseD2Ev:
  88              	.LFB1378:
  89              		.cfi_startproc
  90 0050 488D0500 		leaq	16+_ZTVN12_GLOBAL__N_124TestCheckArrayCloseFalseE(%rip), %rax
  90      000000
  91 0057 488907   		movq	%rax, (%rdi)
  92 005a E9000000 		jmp	_ZN8UnitTest4TestD2Ev@PLT
  92      00
  93              		.cfi_endproc
  94              	.LFE1378:
  96              		.set	_ZN12_GLOBAL__N_124TestCheckArrayCloseFalseD1Ev,_ZN12_GLOBAL__N_124TestCheckArrayCloseFalseD2
  97 005f 90       		.align 2
  98              		.p2align 4,,15
 100              	_ZN12_GLOBAL__N_123TestCheckArrayCloseTrueD2Ev:
 101              	.LFB1382:
 102              		.cfi_startproc
 103 0060 488D0500 		leaq	16+_ZTVN12_GLOBAL__N_123TestCheckArrayCloseTrueE(%rip), %rax
 103      000000
 104 0067 488907   		movq	%rax, (%rdi)
 105 006a E9000000 		jmp	_ZN8UnitTest4TestD2Ev@PLT
 105      00
 106              		.cfi_endproc
 107              	.LFE1382:
 109              		.set	_ZN12_GLOBAL__N_123TestCheckArrayCloseTrueD1Ev,_ZN12_GLOBAL__N_123TestCheckArrayCloseTrueD2Ev
 110 006f 90       		.align 2
 111              		.p2align 4,,15
 113              	_ZN12_GLOBAL__N_124TestCheckArrayEqualFalseD2Ev:
 114              	.LFB1386:
 115              		.cfi_startproc
 116 0070 488D0500 		leaq	16+_ZTVN12_GLOBAL__N_124TestCheckArrayEqualFalseE(%rip), %rax
 116      000000
 117 0077 488907   		movq	%rax, (%rdi)
 118 007a E9000000 		jmp	_ZN8UnitTest4TestD2Ev@PLT
 118      00
 119              		.cfi_endproc
 120              	.LFE1386:
 122              		.set	_ZN12_GLOBAL__N_124TestCheckArrayEqualFalseD1Ev,_ZN12_GLOBAL__N_124TestCheckArrayEqualFalseD2
 123 007f 90       		.align 2
 124              		.p2align 4,,15
 126              	_ZN12_GLOBAL__N_123TestCheckArrayEqualTrueD2Ev:
 127              	.LFB1390:
 128              		.cfi_startproc
 129 0080 488D0500 		leaq	16+_ZTVN12_GLOBAL__N_123TestCheckArrayEqualTrueE(%rip), %rax
 129      000000
 130 0087 488907   		movq	%rax, (%rdi)
 131 008a E9000000 		jmp	_ZN8UnitTest4TestD2Ev@PLT
 131      00
 132              		.cfi_endproc
 133              	.LFE1390:
 135              		.set	_ZN12_GLOBAL__N_123TestCheckArrayEqualTrueD1Ev,_ZN12_GLOBAL__N_123TestCheckArrayEqualTrueD2Ev
 136 008f 90       		.align 2
 137              		.p2align 4,,15
 139              	_ZN12_GLOBAL__N_136TestCheckCloseFailureIncludesDetailsD2Ev:
 140              	.LFB1394:
 141              		.cfi_startproc
 142 0090 488D0500 		leaq	16+_ZTVN12_GLOBAL__N_136TestCheckCloseFailureIncludesDetailsE(%rip), %rax
 142      000000
 143 0097 488907   		movq	%rax, (%rdi)
 144 009a E9000000 		jmp	_ZN8UnitTest4TestD2Ev@PLT
 144      00
 145              		.cfi_endproc
 146              	.LFE1394:
 148              		.set	_ZN12_GLOBAL__N_136TestCheckCloseFailureIncludesDetailsD1Ev,_ZN12_GLOBAL__N_136TestCheckClose
 149 009f 90       		.align 2
 150              		.p2align 4,,15
 152              	_ZN12_GLOBAL__N_138TestCheckCloseFailureIncludesToleranceD2Ev:
 153              	.LFB1398:
 154              		.cfi_startproc
 155 00a0 488D0500 		leaq	16+_ZTVN12_GLOBAL__N_138TestCheckCloseFailureIncludesToleranceE(%rip), %rax
 155      000000
 156 00a7 488907   		movq	%rax, (%rdi)
 157 00aa E9000000 		jmp	_ZN8UnitTest4TestD2Ev@PLT
 157      00
 158              		.cfi_endproc
 159              	.LFE1398:
 161              		.set	_ZN12_GLOBAL__N_138TestCheckCloseFailureIncludesToleranceD1Ev,_ZN12_GLOBAL__N_138TestCheckClo
 162 00af 90       		.align 2
 163              		.p2align 4,,15
 165              	_ZN12_GLOBAL__N_151TestCheckCloseFailureIncludesCheckExpectedAndActualD2Ev:
 166              	.LFB1402:
 167              		.cfi_startproc
 168 00b0 488D0500 		leaq	16+_ZTVN12_GLOBAL__N_151TestCheckCloseFailureIncludesCheckExpectedAndActualE(%rip), %rax
 168      000000
 169 00b7 488907   		movq	%rax, (%rdi)
 170 00ba E9000000 		jmp	_ZN8UnitTest4TestD2Ev@PLT
 170      00
 171              		.cfi_endproc
 172              	.LFE1402:
 174              		.set	_ZN12_GLOBAL__N_151TestCheckCloseFailureIncludesCheckExpectedAndActualD1Ev,_ZN12_GLOBAL__N_15
 175 00bf 90       		.align 2
 176              		.p2align 4,,15
 178              	_ZN12_GLOBAL__N_139TestCheckCloseWithNaNAgainstItselfFailsD2Ev:
 179              	.LFB1406:
 180              		.cfi_startproc
 181 00c0 488D0500 		leaq	16+_ZTVN12_GLOBAL__N_139TestCheckCloseWithNaNAgainstItselfFailsE(%rip), %rax
 181      000000
 182 00c7 488907   		movq	%rax, (%rdi)
 183 00ca E9000000 		jmp	_ZN8UnitTest4TestD2Ev@PLT
 183      00
 184              		.cfi_endproc
 185              	.LFE1406:
 187              		.set	_ZN12_GLOBAL__N_139TestCheckCloseWithNaNAgainstItselfFailsD1Ev,_ZN12_GLOBAL__N_139TestCheckCl
 188 00cf 90       		.align 2
 189              		.p2align 4,,15
 191              	_ZN12_GLOBAL__N_126TestCheckCloseWithNaNFailsD2Ev:
 192              	.LFB1410:
 193              		.cfi_startproc
 194 00d0 488D0500 		leaq	16+_ZTVN12_GLOBAL__N_126TestCheckCloseWithNaNFailsE(%rip), %rax
 194      000000
 195 00d7 488907   		movq	%rax, (%rdi)
 196 00da E9000000 		jmp	_ZN8UnitTest4TestD2Ev@PLT
 196      00
 197              		.cfi_endproc
 198              	.LFE1410:
 200              		.set	_ZN12_GLOBAL__N_126TestCheckCloseWithNaNFailsD1Ev,_ZN12_GLOBAL__N_126TestCheckCloseWithNaNFai
 201 00df 90       		.align 2
 202              		.p2align 4,,15
 204              	_ZN12_GLOBAL__N_147TestCheckCloseWithZeroEpsilonWorksForSameNumberD2Ev:
 205              	.LFB1414:
 206              		.cfi_startproc
 207 00e0 488D0500 		leaq	16+_ZTVN12_GLOBAL__N_147TestCheckCloseWithZeroEpsilonWorksForSameNumberE(%rip), %rax
 207      000000
 208 00e7 488907   		movq	%rax, (%rdi)
 209 00ea E9000000 		jmp	_ZN8UnitTest4TestD2Ev@PLT
 209      00
 210              		.cfi_endproc
 211              	.LFE1414:
 213              		.set	_ZN12_GLOBAL__N_147TestCheckCloseWithZeroEpsilonWorksForSameNumberD1Ev,_ZN12_GLOBAL__N_147Tes
 214 00ef 90       		.align 2
 215              		.p2align 4,,15
 217              	_ZN12_GLOBAL__N_119TestCheckCloseFalseD2Ev:
 218              	.LFB1418:
 219              		.cfi_startproc
 220 00f0 488D0500 		leaq	16+_ZTVN12_GLOBAL__N_119TestCheckCloseFalseE(%rip), %rax
 220      000000
 221 00f7 488907   		movq	%rax, (%rdi)
 222 00fa E9000000 		jmp	_ZN8UnitTest4TestD2Ev@PLT
 222      00
 223              		.cfi_endproc
 224              	.LFE1418:
 226              		.set	_ZN12_GLOBAL__N_119TestCheckCloseFalseD1Ev,_ZN12_GLOBAL__N_119TestCheckCloseFalseD2Ev
 227 00ff 90       		.align 2
 228              		.p2align 4,,15
 230              	_ZN12_GLOBAL__N_118TestCheckCloseTrueD2Ev:
 231              	.LFB1422:
 232              		.cfi_startproc
 233 0100 488D0500 		leaq	16+_ZTVN12_GLOBAL__N_118TestCheckCloseTrueE(%rip), %rax
 233      000000
 234 0107 488907   		movq	%rax, (%rdi)
 235 010a E9000000 		jmp	_ZN8UnitTest4TestD2Ev@PLT
 235      00
 236              		.cfi_endproc
 237              	.LFE1422:
 239              		.set	_ZN12_GLOBAL__N_118TestCheckCloseTrueD1Ev,_ZN12_GLOBAL__N_118TestCheckCloseTrueD2Ev
 240 010f 90       		.align 2
 241              		.p2align 4,,15
 243              	_ZN12_GLOBAL__N_136TestCheckEqualFailureIncludesDetailsD2Ev:
 244              	.LFB1426:
 245              		.cfi_startproc
 246 0110 488D0500 		leaq	16+_ZTVN12_GLOBAL__N_136TestCheckEqualFailureIncludesDetailsE(%rip), %rax
 246      000000
 247 0117 488907   		movq	%rax, (%rdi)
 248 011a E9000000 		jmp	_ZN8UnitTest4TestD2Ev@PLT
 248      00
 249              		.cfi_endproc
 250              	.LFE1426:
 252              		.set	_ZN12_GLOBAL__N_136TestCheckEqualFailureIncludesDetailsD1Ev,_ZN12_GLOBAL__N_136TestCheckEqual
 253 011f 90       		.align 2
 254              		.p2align 4,,15
 256              	_ZN12_GLOBAL__N_151TestCheckEqualFailureIncludesCheckExpectedAndActualD2Ev:
 257              	.LFB1430:
 258              		.cfi_startproc
 259 0120 488D0500 		leaq	16+_ZTVN12_GLOBAL__N_151TestCheckEqualFailureIncludesCheckExpectedAndActualE(%rip), %rax
 259      000000
 260 0127 488907   		movq	%rax, (%rdi)
 261 012a E9000000 		jmp	_ZN8UnitTest4TestD2Ev@PLT
 261      00
 262              		.cfi_endproc
 263              	.LFE1430:
 265              		.set	_ZN12_GLOBAL__N_151TestCheckEqualFailureIncludesCheckExpectedAndActualD1Ev,_ZN12_GLOBAL__N_15
 266 012f 90       		.align 2
 267              		.p2align 4,,15
 269              	_ZN12_GLOBAL__N_153TestCheckEqualsWithStringsWorksOnContentsWithALiteralD2Ev:
 270              	.LFB1434:
 271              		.cfi_startproc
 272 0130 488D0500 		leaq	16+_ZTVN12_GLOBAL__N_153TestCheckEqualsWithStringsWorksOnContentsWithALiteralE(%rip), %rax
 272      000000
 273 0137 488907   		movq	%rax, (%rdi)
 274 013a E9000000 		jmp	_ZN8UnitTest4TestD2Ev@PLT
 274      00
 275              		.cfi_endproc
 276              	.LFE1434:
 278              		.set	_ZN12_GLOBAL__N_153TestCheckEqualsWithStringsWorksOnContentsWithALiteralD1Ev,_ZN12_GLOBAL__N_
 279 013f 90       		.align 2
 280              		.p2align 4,,15
 282              	_ZN12_GLOBAL__N_154TestCheckEqualsWithStringsWorksOnContentsConstNonConstD2Ev:
 283              	.LFB1438:
 284              		.cfi_startproc
 285 0140 488D0500 		leaq	16+_ZTVN12_GLOBAL__N_154TestCheckEqualsWithStringsWorksOnContentsConstNonConstE(%rip), %rax
 285      000000
 286 0147 488907   		movq	%rax, (%rdi)
 287 014a E9000000 		jmp	_ZN8UnitTest4TestD2Ev@PLT
 287      00
 288              		.cfi_endproc
 289              	.LFE1438:
 291              		.set	_ZN12_GLOBAL__N_154TestCheckEqualsWithStringsWorksOnContentsConstNonConstD1Ev,_ZN12_GLOBAL__N
 292 014f 90       		.align 2
 293              		.p2align 4,,15
 295              	_ZN12_GLOBAL__N_154TestCheckEqualsWithStringsWorksOnContentsNonConstConstD2Ev:
 296              	.LFB1442:
 297              		.cfi_startproc
 298 0150 488D0500 		leaq	16+_ZTVN12_GLOBAL__N_154TestCheckEqualsWithStringsWorksOnContentsNonConstConstE(%rip), %rax
 298      000000
 299 0157 488907   		movq	%rax, (%rdi)
 300 015a E9000000 		jmp	_ZN8UnitTest4TestD2Ev@PLT
 300      00
 301              		.cfi_endproc
 302              	.LFE1442:
 304              		.set	_ZN12_GLOBAL__N_154TestCheckEqualsWithStringsWorksOnContentsNonConstConstD1Ev,_ZN12_GLOBAL__N
 305 015f 90       		.align 2
 306              		.p2align 4,,15
 308              	_ZN12_GLOBAL__N_151TestCheckEqualsWithStringsWorksOnContentsConstConstD2Ev:
 309              	.LFB1446:
 310              		.cfi_startproc
 311 0160 488D0500 		leaq	16+_ZTVN12_GLOBAL__N_151TestCheckEqualsWithStringsWorksOnContentsConstConstE(%rip), %rax
 311      000000
 312 0167 488907   		movq	%rax, (%rdi)
 313 016a E9000000 		jmp	_ZN8UnitTest4TestD2Ev@PLT
 313      00
 314              		.cfi_endproc
 315              	.LFE1446:
 317              		.set	_ZN12_GLOBAL__N_151TestCheckEqualsWithStringsWorksOnContentsConstConstD1Ev,_ZN12_GLOBAL__N_15
 318 016f 90       		.align 2
 319              		.p2align 4,,15
 321              	_ZN12_GLOBAL__N_157TestCheckEqualsWithStringsWorksOnContentsNonConstNonConstD2Ev:
 322              	.LFB1450:
 323              		.cfi_startproc
 324 0170 488D0500 		leaq	16+_ZTVN12_GLOBAL__N_157TestCheckEqualsWithStringsWorksOnContentsNonConstNonConstE(%rip), %ra
 324      000000
 325 0177 488907   		movq	%rax, (%rdi)
 326 017a E9000000 		jmp	_ZN8UnitTest4TestD2Ev@PLT
 326      00
 327              		.cfi_endproc
 328              	.LFE1450:
 330              		.set	_ZN12_GLOBAL__N_157TestCheckEqualsWithStringsWorksOnContentsNonConstNonConstD1Ev,_ZN12_GLOBAL
 331 017f 90       		.align 2
 332              		.p2align 4,,15
 334              	_ZN12_GLOBAL__N_149TestCheckEqualsWithStringsFailsOnDifferentStringsD2Ev:
 335              	.LFB1454:
 336              		.cfi_startproc
 337 0180 488D0500 		leaq	16+_ZTVN12_GLOBAL__N_149TestCheckEqualsWithStringsFailsOnDifferentStringsE(%rip), %rax
 337      000000
 338 0187 488907   		movq	%rax, (%rdi)
 339 018a E9000000 		jmp	_ZN8UnitTest4TestD2Ev@PLT
 339      00
 340              		.cfi_endproc
 341              	.LFE1454:
 343              		.set	_ZN12_GLOBAL__N_149TestCheckEqualsWithStringsFailsOnDifferentStringsD1Ev,_ZN12_GLOBAL__N_149T
 344 018f 90       		.align 2
 345              		.p2align 4,,15
 347              	_ZN12_GLOBAL__N_130TestCheckEqualWithUnsignedLongD2Ev:
 348              	.LFB1458:
 349              		.cfi_startproc
 350 0190 488D0500 		leaq	16+_ZTVN12_GLOBAL__N_130TestCheckEqualWithUnsignedLongE(%rip), %rax
 350      000000
 351 0197 488907   		movq	%rax, (%rdi)
 352 019a E9000000 		jmp	_ZN8UnitTest4TestD2Ev@PLT
 352      00
 353              		.cfi_endproc
 354              	.LFE1458:
 356              		.set	_ZN12_GLOBAL__N_130TestCheckEqualWithUnsignedLongD1Ev,_ZN12_GLOBAL__N_130TestCheckEqualWithUn
 357              		.section	.text._ZN17RecordingReporter15ReportTestStartERKN8UnitTest11TestDetailsE,"axG",@progbits,
 358              		.align 2
 359              		.p2align 4,,15
 360              		.weak	_ZN17RecordingReporter15ReportTestStartERKN8UnitTest11TestDetailsE
 362              	_ZN17RecordingReporter15ReportTestStartERKN8UnitTest11TestDetailsE:
 363              	.LFB1148:
 364              		.cfi_startproc
 365 0000 55       		pushq	%rbp
 366              		.cfi_def_cfa_offset 16
 367              		.cfi_offset 6, -16
 368 0001 53       		pushq	%rbx
 369              		.cfi_def_cfa_offset 24
 370              		.cfi_offset 3, -24
 371 0002 4889F5   		movq	%rsi, %rbp
 372 0005 4889FB   		movq	%rdi, %rbx
 373 0008 BA000100 		movl	$256, %edx
 373      00
 374 000d 4883EC08 		subq	$8, %rsp
 375              		.cfi_def_cfa_offset 32
 376 0011 83470801 		addl	$1, 8(%rdi)
 377 0015 488D7F0C 		leaq	12(%rdi), %rdi
 378 0019 488B36   		movq	(%rsi), %rsi
 379 001c E8000000 		call	__strcpy_chk@PLT
 379      00
 380 0021 488B7508 		movq	8(%rbp), %rsi
 381 0025 4883C408 		addq	$8, %rsp
 382              		.cfi_def_cfa_offset 24
 383 0029 488DBB0C 		leaq	268(%rbx), %rdi
 383      010000
 384 0030 5B       		popq	%rbx
 385              		.cfi_def_cfa_offset 16
 386 0031 5D       		popq	%rbp
 387              		.cfi_def_cfa_offset 8
 388 0032 BA000100 		movl	$256, %edx
 388      00
 389 0037 E9000000 		jmp	__strcpy_chk@PLT
 389      00
 390              		.cfi_endproc
 391              	.LFE1148:
 393              		.section	.text._ZN17RecordingReporter13ReportFailureERKN8UnitTest11TestDetailsEPKc,"axG",@progbits
 394              		.align 2
 395              		.p2align 4,,15
 396              		.weak	_ZN17RecordingReporter13ReportFailureERKN8UnitTest11TestDetailsEPKc
 398              	_ZN17RecordingReporter13ReportFailureERKN8UnitTest11TestDetailsEPKc:
 399              	.LFB1149:
 400              		.cfi_startproc
 401 0000 4154     		pushq	%r12
 402              		.cfi_def_cfa_offset 16
 403              		.cfi_offset 12, -16
 404 0002 55       		pushq	%rbp
 405              		.cfi_def_cfa_offset 24
 406              		.cfi_offset 6, -24
 407 0003 4889F5   		movq	%rsi, %rbp
 408 0006 53       		pushq	%rbx
 409              		.cfi_def_cfa_offset 32
 410              		.cfi_offset 3, -32
 411 0007 83870C02 		addl	$1, 524(%rdi)
 411      000001
 412 000e 4889FB   		movq	%rdi, %rbx
 413 0011 488B7610 		movq	16(%rsi), %rsi
 414 0015 488DBF10 		leaq	528(%rdi), %rdi
 414      020000
 415 001c 4989D4   		movq	%rdx, %r12
 416 001f BA000100 		movl	$256, %edx
 416      00
 417 0024 E8000000 		call	__strcpy_chk@PLT
 417      00
 418 0029 8B4518   		movl	24(%rbp), %eax
 419 002c 488DBB14 		leaq	788(%rbx), %rdi
 419      030000
 420 0033 BA000100 		movl	$256, %edx
 420      00
 421 0038 89831003 		movl	%eax, 784(%rbx)
 421      0000
 422 003e 488B7500 		movq	0(%rbp), %rsi
 423 0042 E8000000 		call	__strcpy_chk@PLT
 423      00
 424 0047 488B7508 		movq	8(%rbp), %rsi
 425 004b 488DBB14 		leaq	1044(%rbx), %rdi
 425      040000
 426 0052 BA000100 		movl	$256, %edx
 426      00
 427 0057 E8000000 		call	__strcpy_chk@PLT
 427      00
 428 005c 488DBB14 		leaq	1300(%rbx), %rdi
 428      050000
 429 0063 4C89E6   		movq	%r12, %rsi
 430 0066 BA000100 		movl	$256, %edx
 430      00
 431 006b 5B       		popq	%rbx
 432              		.cfi_def_cfa_offset 24
 433 006c 5D       		popq	%rbp
 434              		.cfi_def_cfa_offset 16
 435 006d 415C     		popq	%r12
 436              		.cfi_def_cfa_offset 8
 437 006f E9000000 		jmp	__strcpy_chk@PLT
 437      00
 438              		.cfi_endproc
 439              	.LFE1149:
 441              		.section	.text._ZN17RecordingReporter16ReportTestFinishERKN8UnitTest11TestDetailsEf,"axG",@progbit
 442              		.align 2
 443              		.p2align 4,,15
 444              		.weak	_ZN17RecordingReporter16ReportTestFinishERKN8UnitTest11TestDetailsEf
 446              	_ZN17RecordingReporter16ReportTestFinishERKN8UnitTest11TestDetailsEf:
 447              	.LFB1150:
 448              		.cfi_startproc
 449 0000 55       		pushq	%rbp
 450              		.cfi_def_cfa_offset 16
 451              		.cfi_offset 6, -16
 452 0001 53       		pushq	%rbx
 453              		.cfi_def_cfa_offset 24
 454              		.cfi_offset 3, -24
 455 0002 4889F5   		movq	%rsi, %rbp
 456 0005 4889FB   		movq	%rdi, %rbx
 457 0008 BA000100 		movl	$256, %edx
 457      00
 458 000d 4883EC18 		subq	$24, %rsp
 459              		.cfi_def_cfa_offset 48
 460 0011 83871406 		addl	$1, 1556(%rdi)
 460      000001
 461 0018 488DBF18 		leaq	1560(%rdi), %rdi
 461      060000
 462 001f 488B36   		movq	(%rsi), %rsi
 463 0022 F30F1144 		movss	%xmm0, 12(%rsp)
 463      240C
 464 0028 E8000000 		call	__strcpy_chk@PLT
 464      00
 465 002d 488B7508 		movq	8(%rbp), %rsi
 466 0031 488DBB18 		leaq	1816(%rbx), %rdi
 466      070000
 467 0038 BA000100 		movl	$256, %edx
 467      00
 468 003d E8000000 		call	__strcpy_chk@PLT
 468      00
 469 0042 F30F1044 		movss	12(%rsp), %xmm0
 469      240C
 470 0048 F30F1183 		movss	%xmm0, 2072(%rbx)
 470      18080000 
 471 0050 4883C418 		addq	$24, %rsp
 472              		.cfi_def_cfa_offset 24
 473 0054 5B       		popq	%rbx
 474              		.cfi_def_cfa_offset 16
 475 0055 5D       		popq	%rbp
 476              		.cfi_def_cfa_offset 8
 477 0056 C3       		ret
 478              		.cfi_endproc
 479              	.LFE1150:
 481              		.text
 482 019f 90       		.align 2
 483              		.p2align 4,,15
 485              	_ZN12_GLOBAL__N_143TestCheckArray2DCloseFailureIncludesDetailsD0Ev:
 486              	.LFB1360:
 487              		.cfi_startproc
 488              		.cfi_personality 0x9b,DW.ref.__gxx_personality_v0
 489              		.cfi_lsda 0x1b,.LLSDA1360
 490 01a0 55       		pushq	%rbp
 491              		.cfi_def_cfa_offset 16
 492              		.cfi_offset 6, -16
 493 01a1 488D0500 		leaq	16+_ZTVN12_GLOBAL__N_143TestCheckArray2DCloseFailureIncludesDetailsE(%rip), %rax
 493      000000
 494 01a8 53       		pushq	%rbx
 495              		.cfi_def_cfa_offset 24
 496              		.cfi_offset 3, -24
 497 01a9 4889FB   		movq	%rdi, %rbx
 498 01ac 4883EC08 		subq	$8, %rsp
 499              		.cfi_def_cfa_offset 32
 500 01b0 488907   		movq	%rax, (%rdi)
 501              	.LEHB0:
 502 01b3 E8000000 		call	_ZN8UnitTest4TestD2Ev@PLT
 502      00
 503              	.LEHE0:
 504 01b8 4883C408 		addq	$8, %rsp
 505              		.cfi_remember_state
 506              		.cfi_def_cfa_offset 24
 507 01bc 4889DF   		movq	%rbx, %rdi
 508 01bf 5B       		popq	%rbx
 509              		.cfi_def_cfa_offset 16
 510 01c0 5D       		popq	%rbp
 511              		.cfi_def_cfa_offset 8
 512 01c1 E9000000 		jmp	_ZdlPv@PLT
 512      00
 513              	.L37:
 514              		.cfi_restore_state
 515 01c6 4889C5   		movq	%rax, %rbp
 516 01c9 4889DF   		movq	%rbx, %rdi
 517 01cc E8000000 		call	_ZdlPv@PLT
 517      00
 518 01d1 4889EF   		movq	%rbp, %rdi
 519              	.LEHB1:
 520 01d4 E8000000 		call	_Unwind_Resume@PLT
 520      00
 521              	.LEHE1:
 522              		.cfi_endproc
 523              	.LFE1360:
 524              		.globl	__gxx_personality_v0
 525              		.section	.gcc_except_table,"a",@progbits
 526              	.LLSDA1360:
 527 0000 FF       		.byte	0xff
 528 0001 FF       		.byte	0xff
 529 0002 01       		.byte	0x1
 530 0003 08       		.uleb128 .LLSDACSE1360-.LLSDACSB1360
 531              	.LLSDACSB1360:
 532 0004 13       		.uleb128 .LEHB0-.LFB1360
 533 0005 05       		.uleb128 .LEHE0-.LEHB0
 534 0006 26       		.uleb128 .L37-.LFB1360
 535 0007 00       		.uleb128 0
 536 0008 34       		.uleb128 .LEHB1-.LFB1360
 537 0009 05       		.uleb128 .LEHE1-.LEHB1
 538 000a 00       		.uleb128 0
 539 000b 00       		.uleb128 0
 540              	.LLSDACSE1360:
 541              		.text
 543 01d9 90       		.align 2
 544 01da 660F1F44 		.p2align 4,,15
 544      0000
 546              	_ZN12_GLOBAL__N_133TestCheckCloseWithDoublesSucceedsD0Ev:
 547              	.LFB1364:
 548              		.cfi_startproc
 549              		.cfi_personality 0x9b,DW.ref.__gxx_personality_v0
 550              		.cfi_lsda 0x1b,.LLSDA1364
 551 01e0 55       		pushq	%rbp
 552              		.cfi_def_cfa_offset 16
 553              		.cfi_offset 6, -16
 554 01e1 488D0500 		leaq	16+_ZTVN12_GLOBAL__N_133TestCheckCloseWithDoublesSucceedsE(%rip), %rax
 554      000000
 555 01e8 53       		pushq	%rbx
 556              		.cfi_def_cfa_offset 24
 557              		.cfi_offset 3, -24
 558 01e9 4889FB   		movq	%rdi, %rbx
 559 01ec 4883EC08 		subq	$8, %rsp
 560              		.cfi_def_cfa_offset 32
 561 01f0 488907   		movq	%rax, (%rdi)
 562              	.LEHB2:
 563 01f3 E8000000 		call	_ZN8UnitTest4TestD2Ev@PLT
 563      00
 564              	.LEHE2:
 565 01f8 4883C408 		addq	$8, %rsp
 566              		.cfi_remember_state
 567              		.cfi_def_cfa_offset 24
 568 01fc 4889DF   		movq	%rbx, %rdi
 569 01ff 5B       		popq	%rbx
 570              		.cfi_def_cfa_offset 16
 571 0200 5D       		popq	%rbp
 572              		.cfi_def_cfa_offset 8
 573 0201 E9000000 		jmp	_ZdlPv@PLT
 573      00
 574              	.L41:
 575              		.cfi_restore_state
 576 0206 4889C5   		movq	%rax, %rbp
 577 0209 4889DF   		movq	%rbx, %rdi
 578 020c E8000000 		call	_ZdlPv@PLT
 578      00
 579 0211 4889EF   		movq	%rbp, %rdi
 580              	.LEHB3:
 581 0214 E8000000 		call	_Unwind_Resume@PLT
 581      00
 582              	.LEHE3:
 583              		.cfi_endproc
 584              	.LFE1364:
 585              		.section	.gcc_except_table
 586              	.LLSDA1364:
 587 000c FF       		.byte	0xff
 588 000d FF       		.byte	0xff
 589 000e 01       		.byte	0x1
 590 000f 08       		.uleb128 .LLSDACSE1364-.LLSDACSB1364
 591              	.LLSDACSB1364:
 592 0010 13       		.uleb128 .LEHB2-.LFB1364
 593 0011 05       		.uleb128 .LEHE2-.LEHB2
 594 0012 26       		.uleb128 .L41-.LFB1364
 595 0013 00       		.uleb128 0
 596 0014 34       		.uleb128 .LEHB3-.LFB1364
 597 0015 05       		.uleb128 .LEHE3-.LEHB3
 598 0016 00       		.uleb128 0
 599 0017 00       		.uleb128 0
 600              	.LLSDACSE1364:
 601              		.text
 603 0219 90       		.align 2
 604 021a 660F1F44 		.p2align 4,,15
 604      0000
 606              	_ZN12_GLOBAL__N_126TestCheckArray2DCloseFalseD0Ev:
 607              	.LFB1368:
 608              		.cfi_startproc
 609              		.cfi_personality 0x9b,DW.ref.__gxx_personality_v0
 610              		.cfi_lsda 0x1b,.LLSDA1368
 611 0220 55       		pushq	%rbp
 612              		.cfi_def_cfa_offset 16
 613              		.cfi_offset 6, -16
 614 0221 488D0500 		leaq	16+_ZTVN12_GLOBAL__N_126TestCheckArray2DCloseFalseE(%rip), %rax
 614      000000
 615 0228 53       		pushq	%rbx
 616              		.cfi_def_cfa_offset 24
 617              		.cfi_offset 3, -24
 618 0229 4889FB   		movq	%rdi, %rbx
 619 022c 4883EC08 		subq	$8, %rsp
 620              		.cfi_def_cfa_offset 32
 621 0230 488907   		movq	%rax, (%rdi)
 622              	.LEHB4:
 623 0233 E8000000 		call	_ZN8UnitTest4TestD2Ev@PLT
 623      00
 624              	.LEHE4:
 625 0238 4883C408 		addq	$8, %rsp
 626              		.cfi_remember_state
 627              		.cfi_def_cfa_offset 24
 628 023c 4889DF   		movq	%rbx, %rdi
 629 023f 5B       		popq	%rbx
 630              		.cfi_def_cfa_offset 16
 631 0240 5D       		popq	%rbp
 632              		.cfi_def_cfa_offset 8
 633 0241 E9000000 		jmp	_ZdlPv@PLT
 633      00
 634              	.L45:
 635              		.cfi_restore_state
 636 0246 4889C5   		movq	%rax, %rbp
 637 0249 4889DF   		movq	%rbx, %rdi
 638 024c E8000000 		call	_ZdlPv@PLT
 638      00
 639 0251 4889EF   		movq	%rbp, %rdi
 640              	.LEHB5:
 641 0254 E8000000 		call	_Unwind_Resume@PLT
 641      00
 642              	.LEHE5:
 643              		.cfi_endproc
 644              	.LFE1368:
 645              		.section	.gcc_except_table
 646              	.LLSDA1368:
 647 0018 FF       		.byte	0xff
 648 0019 FF       		.byte	0xff
 649 001a 01       		.byte	0x1
 650 001b 08       		.uleb128 .LLSDACSE1368-.LLSDACSB1368
 651              	.LLSDACSB1368:
 652 001c 13       		.uleb128 .LEHB4-.LFB1368
 653 001d 05       		.uleb128 .LEHE4-.LEHB4
 654 001e 26       		.uleb128 .L45-.LFB1368
 655 001f 00       		.uleb128 0
 656 0020 34       		.uleb128 .LEHB5-.LFB1368
 657 0021 05       		.uleb128 .LEHE5-.LEHB5
 658 0022 00       		.uleb128 0
 659 0023 00       		.uleb128 0
 660              	.LLSDACSE1368:
 661              		.text
 663 0259 90       		.align 2
 664 025a 660F1F44 		.p2align 4,,15
 664      0000
 666              	_ZN12_GLOBAL__N_125TestCheckArray2DCloseTrueD0Ev:
 667              	.LFB1372:
 668              		.cfi_startproc
 669              		.cfi_personality 0x9b,DW.ref.__gxx_personality_v0
 670              		.cfi_lsda 0x1b,.LLSDA1372
 671 0260 55       		pushq	%rbp
 672              		.cfi_def_cfa_offset 16
 673              		.cfi_offset 6, -16
 674 0261 488D0500 		leaq	16+_ZTVN12_GLOBAL__N_125TestCheckArray2DCloseTrueE(%rip), %rax
 674      000000
 675 0268 53       		pushq	%rbx
 676              		.cfi_def_cfa_offset 24
 677              		.cfi_offset 3, -24
 678 0269 4889FB   		movq	%rdi, %rbx
 679 026c 4883EC08 		subq	$8, %rsp
 680              		.cfi_def_cfa_offset 32
 681 0270 488907   		movq	%rax, (%rdi)
 682              	.LEHB6:
 683 0273 E8000000 		call	_ZN8UnitTest4TestD2Ev@PLT
 683      00
 684              	.LEHE6:
 685 0278 4883C408 		addq	$8, %rsp
 686              		.cfi_remember_state
 687              		.cfi_def_cfa_offset 24
 688 027c 4889DF   		movq	%rbx, %rdi
 689 027f 5B       		popq	%rbx
 690              		.cfi_def_cfa_offset 16
 691 0280 5D       		popq	%rbp
 692              		.cfi_def_cfa_offset 8
 693 0281 E9000000 		jmp	_ZdlPv@PLT
 693      00
 694              	.L49:
 695              		.cfi_restore_state
 696 0286 4889C5   		movq	%rax, %rbp
 697 0289 4889DF   		movq	%rbx, %rdi
 698 028c E8000000 		call	_ZdlPv@PLT
 698      00
 699 0291 4889EF   		movq	%rbp, %rdi
 700              	.LEHB7:
 701 0294 E8000000 		call	_Unwind_Resume@PLT
 701      00
 702              	.LEHE7:
 703              		.cfi_endproc
 704              	.LFE1372:
 705              		.section	.gcc_except_table
 706              	.LLSDA1372:
 707 0024 FF       		.byte	0xff
 708 0025 FF       		.byte	0xff
 709 0026 01       		.byte	0x1
 710 0027 08       		.uleb128 .LLSDACSE1372-.LLSDACSB1372
 711              	.LLSDACSB1372:
 712 0028 13       		.uleb128 .LEHB6-.LFB1372
 713 0029 05       		.uleb128 .LEHE6-.LEHB6
 714 002a 26       		.uleb128 .L49-.LFB1372
 715 002b 00       		.uleb128 0
 716 002c 34       		.uleb128 .LEHB7-.LFB1372
 717 002d 05       		.uleb128 .LEHE7-.LEHB7
 718 002e 00       		.uleb128 0
 719 002f 00       		.uleb128 0
 720              	.LLSDACSE1372:
 721              		.text
 723 0299 90       		.align 2
 724 029a 660F1F44 		.p2align 4,,15
 724      0000
 726              	_ZN12_GLOBAL__N_141TestCheckArrayCloseFailureIncludesDetailsD0Ev:
 727              	.LFB1376:
 728              		.cfi_startproc
 729              		.cfi_personality 0x9b,DW.ref.__gxx_personality_v0
 730              		.cfi_lsda 0x1b,.LLSDA1376
 731 02a0 55       		pushq	%rbp
 732              		.cfi_def_cfa_offset 16
 733              		.cfi_offset 6, -16
 734 02a1 488D0500 		leaq	16+_ZTVN12_GLOBAL__N_141TestCheckArrayCloseFailureIncludesDetailsE(%rip), %rax
 734      000000
 735 02a8 53       		pushq	%rbx
 736              		.cfi_def_cfa_offset 24
 737              		.cfi_offset 3, -24
 738 02a9 4889FB   		movq	%rdi, %rbx
 739 02ac 4883EC08 		subq	$8, %rsp
 740              		.cfi_def_cfa_offset 32
 741 02b0 488907   		movq	%rax, (%rdi)
 742              	.LEHB8:
 743 02b3 E8000000 		call	_ZN8UnitTest4TestD2Ev@PLT
 743      00
 744              	.LEHE8:
 745 02b8 4883C408 		addq	$8, %rsp
 746              		.cfi_remember_state
 747              		.cfi_def_cfa_offset 24
 748 02bc 4889DF   		movq	%rbx, %rdi
 749 02bf 5B       		popq	%rbx
 750              		.cfi_def_cfa_offset 16
 751 02c0 5D       		popq	%rbp
 752              		.cfi_def_cfa_offset 8
 753 02c1 E9000000 		jmp	_ZdlPv@PLT
 753      00
 754              	.L53:
 755              		.cfi_restore_state
 756 02c6 4889C5   		movq	%rax, %rbp
 757 02c9 4889DF   		movq	%rbx, %rdi
 758 02cc E8000000 		call	_ZdlPv@PLT
 758      00
 759 02d1 4889EF   		movq	%rbp, %rdi
 760              	.LEHB9:
 761 02d4 E8000000 		call	_Unwind_Resume@PLT
 761      00
 762              	.LEHE9:
 763              		.cfi_endproc
 764              	.LFE1376:
 765              		.section	.gcc_except_table
 766              	.LLSDA1376:
 767 0030 FF       		.byte	0xff
 768 0031 FF       		.byte	0xff
 769 0032 01       		.byte	0x1
 770 0033 08       		.uleb128 .LLSDACSE1376-.LLSDACSB1376
 771              	.LLSDACSB1376:
 772 0034 13       		.uleb128 .LEHB8-.LFB1376
 773 0035 05       		.uleb128 .LEHE8-.LEHB8
 774 0036 26       		.uleb128 .L53-.LFB1376
 775 0037 00       		.uleb128 0
 776 0038 34       		.uleb128 .LEHB9-.LFB1376
 777 0039 05       		.uleb128 .LEHE9-.LEHB9
 778 003a 00       		.uleb128 0
 779 003b 00       		.uleb128 0
 780              	.LLSDACSE1376:
 781              		.text
 783 02d9 90       		.align 2
 784 02da 660F1F44 		.p2align 4,,15
 784      0000
 786              	_ZN12_GLOBAL__N_124TestCheckArrayCloseFalseD0Ev:
 787              	.LFB1380:
 788              		.cfi_startproc
 789              		.cfi_personality 0x9b,DW.ref.__gxx_personality_v0
 790              		.cfi_lsda 0x1b,.LLSDA1380
 791 02e0 55       		pushq	%rbp
 792              		.cfi_def_cfa_offset 16
 793              		.cfi_offset 6, -16
 794 02e1 488D0500 		leaq	16+_ZTVN12_GLOBAL__N_124TestCheckArrayCloseFalseE(%rip), %rax
 794      000000
 795 02e8 53       		pushq	%rbx
 796              		.cfi_def_cfa_offset 24
 797              		.cfi_offset 3, -24
 798 02e9 4889FB   		movq	%rdi, %rbx
 799 02ec 4883EC08 		subq	$8, %rsp
 800              		.cfi_def_cfa_offset 32
 801 02f0 488907   		movq	%rax, (%rdi)
 802              	.LEHB10:
 803 02f3 E8000000 		call	_ZN8UnitTest4TestD2Ev@PLT
 803      00
 804              	.LEHE10:
 805 02f8 4883C408 		addq	$8, %rsp
 806              		.cfi_remember_state
 807              		.cfi_def_cfa_offset 24
 808 02fc 4889DF   		movq	%rbx, %rdi
 809 02ff 5B       		popq	%rbx
 810              		.cfi_def_cfa_offset 16
 811 0300 5D       		popq	%rbp
 812              		.cfi_def_cfa_offset 8
 813 0301 E9000000 		jmp	_ZdlPv@PLT
 813      00
 814              	.L57:
 815              		.cfi_restore_state
 816 0306 4889C5   		movq	%rax, %rbp
 817 0309 4889DF   		movq	%rbx, %rdi
 818 030c E8000000 		call	_ZdlPv@PLT
 818      00
 819 0311 4889EF   		movq	%rbp, %rdi
 820              	.LEHB11:
 821 0314 E8000000 		call	_Unwind_Resume@PLT
 821      00
 822              	.LEHE11:
 823              		.cfi_endproc
 824              	.LFE1380:
 825              		.section	.gcc_except_table
 826              	.LLSDA1380:
 827 003c FF       		.byte	0xff
 828 003d FF       		.byte	0xff
 829 003e 01       		.byte	0x1
 830 003f 08       		.uleb128 .LLSDACSE1380-.LLSDACSB1380
 831              	.LLSDACSB1380:
 832 0040 13       		.uleb128 .LEHB10-.LFB1380
 833 0041 05       		.uleb128 .LEHE10-.LEHB10
 834 0042 26       		.uleb128 .L57-.LFB1380
 835 0043 00       		.uleb128 0
 836 0044 34       		.uleb128 .LEHB11-.LFB1380
 837 0045 05       		.uleb128 .LEHE11-.LEHB11
 838 0046 00       		.uleb128 0
 839 0047 00       		.uleb128 0
 840              	.LLSDACSE1380:
 841              		.text
 843 0319 90       		.align 2
 844 031a 660F1F44 		.p2align 4,,15
 844      0000
 846              	_ZN12_GLOBAL__N_123TestCheckArrayCloseTrueD0Ev:
 847              	.LFB1384:
 848              		.cfi_startproc
 849              		.cfi_personality 0x9b,DW.ref.__gxx_personality_v0
 850              		.cfi_lsda 0x1b,.LLSDA1384
 851 0320 55       		pushq	%rbp
 852              		.cfi_def_cfa_offset 16
 853              		.cfi_offset 6, -16
 854 0321 488D0500 		leaq	16+_ZTVN12_GLOBAL__N_123TestCheckArrayCloseTrueE(%rip), %rax
 854      000000
 855 0328 53       		pushq	%rbx
 856              		.cfi_def_cfa_offset 24
 857              		.cfi_offset 3, -24
 858 0329 4889FB   		movq	%rdi, %rbx
 859 032c 4883EC08 		subq	$8, %rsp
 860              		.cfi_def_cfa_offset 32
 861 0330 488907   		movq	%rax, (%rdi)
 862              	.LEHB12:
 863 0333 E8000000 		call	_ZN8UnitTest4TestD2Ev@PLT
 863      00
 864              	.LEHE12:
 865 0338 4883C408 		addq	$8, %rsp
 866              		.cfi_remember_state
 867              		.cfi_def_cfa_offset 24
 868 033c 4889DF   		movq	%rbx, %rdi
 869 033f 5B       		popq	%rbx
 870              		.cfi_def_cfa_offset 16
 871 0340 5D       		popq	%rbp
 872              		.cfi_def_cfa_offset 8
 873 0341 E9000000 		jmp	_ZdlPv@PLT
 873      00
 874              	.L61:
 875              		.cfi_restore_state
 876 0346 4889C5   		movq	%rax, %rbp
 877 0349 4889DF   		movq	%rbx, %rdi
 878 034c E8000000 		call	_ZdlPv@PLT
 878      00
 879 0351 4889EF   		movq	%rbp, %rdi
 880              	.LEHB13:
 881 0354 E8000000 		call	_Unwind_Resume@PLT
 881      00
 882              	.LEHE13:
 883              		.cfi_endproc
 884              	.LFE1384:
 885              		.section	.gcc_except_table
 886              	.LLSDA1384:
 887 0048 FF       		.byte	0xff
 888 0049 FF       		.byte	0xff
 889 004a 01       		.byte	0x1
 890 004b 08       		.uleb128 .LLSDACSE1384-.LLSDACSB1384
 891              	.LLSDACSB1384:
 892 004c 13       		.uleb128 .LEHB12-.LFB1384
 893 004d 05       		.uleb128 .LEHE12-.LEHB12
 894 004e 26       		.uleb128 .L61-.LFB1384
 895 004f 00       		.uleb128 0
 896 0050 34       		.uleb128 .LEHB13-.LFB1384
 897 0051 05       		.uleb128 .LEHE13-.LEHB13
 898 0052 00       		.uleb128 0
 899 0053 00       		.uleb128 0
 900              	.LLSDACSE1384:
 901              		.text
 903 0359 90       		.align 2
 904 035a 660F1F44 		.p2align 4,,15
 904      0000
 906              	_ZN12_GLOBAL__N_124TestCheckArrayEqualFalseD0Ev:
 907              	.LFB1388:
 908              		.cfi_startproc
 909              		.cfi_personality 0x9b,DW.ref.__gxx_personality_v0
 910              		.cfi_lsda 0x1b,.LLSDA1388
 911 0360 55       		pushq	%rbp
 912              		.cfi_def_cfa_offset 16
 913              		.cfi_offset 6, -16
 914 0361 488D0500 		leaq	16+_ZTVN12_GLOBAL__N_124TestCheckArrayEqualFalseE(%rip), %rax
 914      000000
 915 0368 53       		pushq	%rbx
 916              		.cfi_def_cfa_offset 24
 917              		.cfi_offset 3, -24
 918 0369 4889FB   		movq	%rdi, %rbx
 919 036c 4883EC08 		subq	$8, %rsp
 920              		.cfi_def_cfa_offset 32
 921 0370 488907   		movq	%rax, (%rdi)
 922              	.LEHB14:
 923 0373 E8000000 		call	_ZN8UnitTest4TestD2Ev@PLT
 923      00
 924              	.LEHE14:
 925 0378 4883C408 		addq	$8, %rsp
 926              		.cfi_remember_state
 927              		.cfi_def_cfa_offset 24
 928 037c 4889DF   		movq	%rbx, %rdi
 929 037f 5B       		popq	%rbx
 930              		.cfi_def_cfa_offset 16
 931 0380 5D       		popq	%rbp
 932              		.cfi_def_cfa_offset 8
 933 0381 E9000000 		jmp	_ZdlPv@PLT
 933      00
 934              	.L65:
 935              		.cfi_restore_state
 936 0386 4889C5   		movq	%rax, %rbp
 937 0389 4889DF   		movq	%rbx, %rdi
 938 038c E8000000 		call	_ZdlPv@PLT
 938      00
 939 0391 4889EF   		movq	%rbp, %rdi
 940              	.LEHB15:
 941 0394 E8000000 		call	_Unwind_Resume@PLT
 941      00
 942              	.LEHE15:
 943              		.cfi_endproc
 944              	.LFE1388:
 945              		.section	.gcc_except_table
 946              	.LLSDA1388:
 947 0054 FF       		.byte	0xff
 948 0055 FF       		.byte	0xff
 949 0056 01       		.byte	0x1
 950 0057 08       		.uleb128 .LLSDACSE1388-.LLSDACSB1388
 951              	.LLSDACSB1388:
 952 0058 13       		.uleb128 .LEHB14-.LFB1388
 953 0059 05       		.uleb128 .LEHE14-.LEHB14
 954 005a 26       		.uleb128 .L65-.LFB1388
 955 005b 00       		.uleb128 0
 956 005c 34       		.uleb128 .LEHB15-.LFB1388
 957 005d 05       		.uleb128 .LEHE15-.LEHB15
 958 005e 00       		.uleb128 0
 959 005f 00       		.uleb128 0
 960              	.LLSDACSE1388:
 961              		.text
 963 0399 90       		.align 2
 964 039a 660F1F44 		.p2align 4,,15
 964      0000
 966              	_ZN12_GLOBAL__N_123TestCheckArrayEqualTrueD0Ev:
 967              	.LFB1392:
 968              		.cfi_startproc
 969              		.cfi_personality 0x9b,DW.ref.__gxx_personality_v0
 970              		.cfi_lsda 0x1b,.LLSDA1392
 971 03a0 55       		pushq	%rbp
 972              		.cfi_def_cfa_offset 16
 973              		.cfi_offset 6, -16
 974 03a1 488D0500 		leaq	16+_ZTVN12_GLOBAL__N_123TestCheckArrayEqualTrueE(%rip), %rax
 974      000000
 975 03a8 53       		pushq	%rbx
 976              		.cfi_def_cfa_offset 24
 977              		.cfi_offset 3, -24
 978 03a9 4889FB   		movq	%rdi, %rbx
 979 03ac 4883EC08 		subq	$8, %rsp
 980              		.cfi_def_cfa_offset 32
 981 03b0 488907   		movq	%rax, (%rdi)
 982              	.LEHB16:
 983 03b3 E8000000 		call	_ZN8UnitTest4TestD2Ev@PLT
 983      00
 984              	.LEHE16:
 985 03b8 4883C408 		addq	$8, %rsp
 986              		.cfi_remember_state
 987              		.cfi_def_cfa_offset 24
 988 03bc 4889DF   		movq	%rbx, %rdi
 989 03bf 5B       		popq	%rbx
 990              		.cfi_def_cfa_offset 16
 991 03c0 5D       		popq	%rbp
 992              		.cfi_def_cfa_offset 8
 993 03c1 E9000000 		jmp	_ZdlPv@PLT
 993      00
 994              	.L69:
 995              		.cfi_restore_state
 996 03c6 4889C5   		movq	%rax, %rbp
 997 03c9 4889DF   		movq	%rbx, %rdi
 998 03cc E8000000 		call	_ZdlPv@PLT
 998      00
 999 03d1 4889EF   		movq	%rbp, %rdi
 1000              	.LEHB17:
 1001 03d4 E8000000 		call	_Unwind_Resume@PLT
 1001      00
 1002              	.LEHE17:
 1003              		.cfi_endproc
 1004              	.LFE1392:
 1005              		.section	.gcc_except_table
 1006              	.LLSDA1392:
 1007 0060 FF       		.byte	0xff
 1008 0061 FF       		.byte	0xff
 1009 0062 01       		.byte	0x1
 1010 0063 08       		.uleb128 .LLSDACSE1392-.LLSDACSB1392
 1011              	.LLSDACSB1392:
 1012 0064 13       		.uleb128 .LEHB16-.LFB1392
 1013 0065 05       		.uleb128 .LEHE16-.LEHB16
 1014 0066 26       		.uleb128 .L69-.LFB1392
 1015 0067 00       		.uleb128 0
 1016 0068 34       		.uleb128 .LEHB17-.LFB1392
 1017 0069 05       		.uleb128 .LEHE17-.LEHB17
 1018 006a 00       		.uleb128 0
 1019 006b 00       		.uleb128 0
 1020              	.LLSDACSE1392:
 1021              		.text
 1023 03d9 90       		.align 2
 1024 03da 660F1F44 		.p2align 4,,15
 1024      0000
 1026              	_ZN12_GLOBAL__N_136TestCheckCloseFailureIncludesDetailsD0Ev:
 1027              	.LFB1396:
 1028              		.cfi_startproc
 1029              		.cfi_personality 0x9b,DW.ref.__gxx_personality_v0
 1030              		.cfi_lsda 0x1b,.LLSDA1396
 1031 03e0 55       		pushq	%rbp
 1032              		.cfi_def_cfa_offset 16
 1033              		.cfi_offset 6, -16
 1034 03e1 488D0500 		leaq	16+_ZTVN12_GLOBAL__N_136TestCheckCloseFailureIncludesDetailsE(%rip), %rax
 1034      000000
 1035 03e8 53       		pushq	%rbx
 1036              		.cfi_def_cfa_offset 24
 1037              		.cfi_offset 3, -24
 1038 03e9 4889FB   		movq	%rdi, %rbx
 1039 03ec 4883EC08 		subq	$8, %rsp
 1040              		.cfi_def_cfa_offset 32
 1041 03f0 488907   		movq	%rax, (%rdi)
 1042              	.LEHB18:
 1043 03f3 E8000000 		call	_ZN8UnitTest4TestD2Ev@PLT
 1043      00
 1044              	.LEHE18:
 1045 03f8 4883C408 		addq	$8, %rsp
 1046              		.cfi_remember_state
 1047              		.cfi_def_cfa_offset 24
 1048 03fc 4889DF   		movq	%rbx, %rdi
 1049 03ff 5B       		popq	%rbx
 1050              		.cfi_def_cfa_offset 16
 1051 0400 5D       		popq	%rbp
 1052              		.cfi_def_cfa_offset 8
 1053 0401 E9000000 		jmp	_ZdlPv@PLT
 1053      00
 1054              	.L73:
 1055              		.cfi_restore_state
 1056 0406 4889C5   		movq	%rax, %rbp
 1057 0409 4889DF   		movq	%rbx, %rdi
 1058 040c E8000000 		call	_ZdlPv@PLT
 1058      00
 1059 0411 4889EF   		movq	%rbp, %rdi
 1060              	.LEHB19:
 1061 0414 E8000000 		call	_Unwind_Resume@PLT
 1061      00
 1062              	.LEHE19:
 1063              		.cfi_endproc
 1064              	.LFE1396:
 1065              		.section	.gcc_except_table
 1066              	.LLSDA1396:
 1067 006c FF       		.byte	0xff
 1068 006d FF       		.byte	0xff
 1069 006e 01       		.byte	0x1
 1070 006f 08       		.uleb128 .LLSDACSE1396-.LLSDACSB1396
 1071              	.LLSDACSB1396:
 1072 0070 13       		.uleb128 .LEHB18-.LFB1396
 1073 0071 05       		.uleb128 .LEHE18-.LEHB18
 1074 0072 26       		.uleb128 .L73-.LFB1396
 1075 0073 00       		.uleb128 0
 1076 0074 34       		.uleb128 .LEHB19-.LFB1396
 1077 0075 05       		.uleb128 .LEHE19-.LEHB19
 1078 0076 00       		.uleb128 0
 1079 0077 00       		.uleb128 0
 1080              	.LLSDACSE1396:
 1081              		.text
 1083 0419 90       		.align 2
 1084 041a 660F1F44 		.p2align 4,,15
 1084      0000
 1086              	_ZN12_GLOBAL__N_138TestCheckCloseFailureIncludesToleranceD0Ev:
 1087              	.LFB1400:
 1088              		.cfi_startproc
 1089              		.cfi_personality 0x9b,DW.ref.__gxx_personality_v0
 1090              		.cfi_lsda 0x1b,.LLSDA1400
 1091 0420 55       		pushq	%rbp
 1092              		.cfi_def_cfa_offset 16
 1093              		.cfi_offset 6, -16
 1094 0421 488D0500 		leaq	16+_ZTVN12_GLOBAL__N_138TestCheckCloseFailureIncludesToleranceE(%rip), %rax
 1094      000000
 1095 0428 53       		pushq	%rbx
 1096              		.cfi_def_cfa_offset 24
 1097              		.cfi_offset 3, -24
 1098 0429 4889FB   		movq	%rdi, %rbx
 1099 042c 4883EC08 		subq	$8, %rsp
 1100              		.cfi_def_cfa_offset 32
 1101 0430 488907   		movq	%rax, (%rdi)
 1102              	.LEHB20:
 1103 0433 E8000000 		call	_ZN8UnitTest4TestD2Ev@PLT
 1103      00
 1104              	.LEHE20:
 1105 0438 4883C408 		addq	$8, %rsp
 1106              		.cfi_remember_state
 1107              		.cfi_def_cfa_offset 24
 1108 043c 4889DF   		movq	%rbx, %rdi
 1109 043f 5B       		popq	%rbx
 1110              		.cfi_def_cfa_offset 16
 1111 0440 5D       		popq	%rbp
 1112              		.cfi_def_cfa_offset 8
 1113 0441 E9000000 		jmp	_ZdlPv@PLT
 1113      00
 1114              	.L77:
 1115              		.cfi_restore_state
 1116 0446 4889C5   		movq	%rax, %rbp
 1117 0449 4889DF   		movq	%rbx, %rdi
 1118 044c E8000000 		call	_ZdlPv@PLT
 1118      00
 1119 0451 4889EF   		movq	%rbp, %rdi
 1120              	.LEHB21:
 1121 0454 E8000000 		call	_Unwind_Resume@PLT
 1121      00
 1122              	.LEHE21:
 1123              		.cfi_endproc
 1124              	.LFE1400:
 1125              		.section	.gcc_except_table
 1126              	.LLSDA1400:
 1127 0078 FF       		.byte	0xff
 1128 0079 FF       		.byte	0xff
 1129 007a 01       		.byte	0x1
 1130 007b 08       		.uleb128 .LLSDACSE1400-.LLSDACSB1400
 1131              	.LLSDACSB1400:
 1132 007c 13       		.uleb128 .LEHB20-.LFB1400
 1133 007d 05       		.uleb128 .LEHE20-.LEHB20
 1134 007e 26       		.uleb128 .L77-.LFB1400
 1135 007f 00       		.uleb128 0
 1136 0080 34       		.uleb128 .LEHB21-.LFB1400
 1137 0081 05       		.uleb128 .LEHE21-.LEHB21
 1138 0082 00       		.uleb128 0
 1139 0083 00       		.uleb128 0
 1140              	.LLSDACSE1400:
 1141              		.text
 1143 0459 90       		.align 2
 1144 045a 660F1F44 		.p2align 4,,15
 1144      0000
 1146              	_ZN12_GLOBAL__N_151TestCheckCloseFailureIncludesCheckExpectedAndActualD0Ev:
 1147              	.LFB1404:
 1148              		.cfi_startproc
 1149              		.cfi_personality 0x9b,DW.ref.__gxx_personality_v0
 1150              		.cfi_lsda 0x1b,.LLSDA1404
 1151 0460 55       		pushq	%rbp
 1152              		.cfi_def_cfa_offset 16
 1153              		.cfi_offset 6, -16
 1154 0461 488D0500 		leaq	16+_ZTVN12_GLOBAL__N_151TestCheckCloseFailureIncludesCheckExpectedAndActualE(%rip), %rax
 1154      000000
 1155 0468 53       		pushq	%rbx
 1156              		.cfi_def_cfa_offset 24
 1157              		.cfi_offset 3, -24
 1158 0469 4889FB   		movq	%rdi, %rbx
 1159 046c 4883EC08 		subq	$8, %rsp
 1160              		.cfi_def_cfa_offset 32
 1161 0470 488907   		movq	%rax, (%rdi)
 1162              	.LEHB22:
 1163 0473 E8000000 		call	_ZN8UnitTest4TestD2Ev@PLT
 1163      00
 1164              	.LEHE22:
 1165 0478 4883C408 		addq	$8, %rsp
 1166              		.cfi_remember_state
 1167              		.cfi_def_cfa_offset 24
 1168 047c 4889DF   		movq	%rbx, %rdi
 1169 047f 5B       		popq	%rbx
 1170              		.cfi_def_cfa_offset 16
 1171 0480 5D       		popq	%rbp
 1172              		.cfi_def_cfa_offset 8
 1173 0481 E9000000 		jmp	_ZdlPv@PLT
 1173      00
 1174              	.L81:
 1175              		.cfi_restore_state
 1176 0486 4889C5   		movq	%rax, %rbp
 1177 0489 4889DF   		movq	%rbx, %rdi
 1178 048c E8000000 		call	_ZdlPv@PLT
 1178      00
 1179 0491 4889EF   		movq	%rbp, %rdi
 1180              	.LEHB23:
 1181 0494 E8000000 		call	_Unwind_Resume@PLT
 1181      00
 1182              	.LEHE23:
 1183              		.cfi_endproc
 1184              	.LFE1404:
 1185              		.section	.gcc_except_table
 1186              	.LLSDA1404:
 1187 0084 FF       		.byte	0xff
 1188 0085 FF       		.byte	0xff
 1189 0086 01       		.byte	0x1
 1190 0087 08       		.uleb128 .LLSDACSE1404-.LLSDACSB1404
 1191              	.LLSDACSB1404:
 1192 0088 13       		.uleb128 .LEHB22-.LFB1404
 1193 0089 05       		.uleb128 .LEHE22-.LEHB22
 1194 008a 26       		.uleb128 .L81-.LFB1404
 1195 008b 00       		.uleb128 0
 1196 008c 34       		.uleb128 .LEHB23-.LFB1404
 1197 008d 05       		.uleb128 .LEHE23-.LEHB23
 1198 008e 00       		.uleb128 0
 1199 008f 00       		.uleb128 0
 1200              	.LLSDACSE1404:
 1201              		.text
 1203 0499 90       		.align 2
 1204 049a 660F1F44 		.p2align 4,,15
 1204      0000
 1206              	_ZN12_GLOBAL__N_139TestCheckCloseWithNaNAgainstItselfFailsD0Ev:
 1207              	.LFB1408:
 1208              		.cfi_startproc
 1209              		.cfi_personality 0x9b,DW.ref.__gxx_personality_v0
 1210              		.cfi_lsda 0x1b,.LLSDA1408
 1211 04a0 55       		pushq	%rbp
 1212              		.cfi_def_cfa_offset 16
 1213              		.cfi_offset 6, -16
 1214 04a1 488D0500 		leaq	16+_ZTVN12_GLOBAL__N_139TestCheckCloseWithNaNAgainstItselfFailsE(%rip), %rax
 1214      000000
 1215 04a8 53       		pushq	%rbx
 1216              		.cfi_def_cfa_offset 24
 1217              		.cfi_offset 3, -24
 1218 04a9 4889FB   		movq	%rdi, %rbx
 1219 04ac 4883EC08 		subq	$8, %rsp
 1220              		.cfi_def_cfa_offset 32
 1221 04b0 488907   		movq	%rax, (%rdi)
 1222              	.LEHB24:
 1223 04b3 E8000000 		call	_ZN8UnitTest4TestD2Ev@PLT
 1223      00
 1224              	.LEHE24:
 1225 04b8 4883C408 		addq	$8, %rsp
 1226              		.cfi_remember_state
 1227              		.cfi_def_cfa_offset 24
 1228 04bc 4889DF   		movq	%rbx, %rdi
 1229 04bf 5B       		popq	%rbx
 1230              		.cfi_def_cfa_offset 16
 1231 04c0 5D       		popq	%rbp
 1232              		.cfi_def_cfa_offset 8
 1233 04c1 E9000000 		jmp	_ZdlPv@PLT
 1233      00
 1234              	.L85:
 1235              		.cfi_restore_state
 1236 04c6 4889C5   		movq	%rax, %rbp
 1237 04c9 4889DF   		movq	%rbx, %rdi
 1238 04cc E8000000 		call	_ZdlPv@PLT
 1238      00
 1239 04d1 4889EF   		movq	%rbp, %rdi
 1240              	.LEHB25:
 1241 04d4 E8000000 		call	_Unwind_Resume@PLT
 1241      00
 1242              	.LEHE25:
 1243              		.cfi_endproc
 1244              	.LFE1408:
 1245              		.section	.gcc_except_table
 1246              	.LLSDA1408:
 1247 0090 FF       		.byte	0xff
 1248 0091 FF       		.byte	0xff
 1249 0092 01       		.byte	0x1
 1250 0093 08       		.uleb128 .LLSDACSE1408-.LLSDACSB1408
 1251              	.LLSDACSB1408:
 1252 0094 13       		.uleb128 .LEHB24-.LFB1408
 1253 0095 05       		.uleb128 .LEHE24-.LEHB24
 1254 0096 26       		.uleb128 .L85-.LFB1408
 1255 0097 00       		.uleb128 0
 1256 0098 34       		.uleb128 .LEHB25-.LFB1408
 1257 0099 05       		.uleb128 .LEHE25-.LEHB25
 1258 009a 00       		.uleb128 0
 1259 009b 00       		.uleb128 0
 1260              	.LLSDACSE1408:
 1261              		.text
 1263 04d9 90       		.align 2
 1264 04da 660F1F44 		.p2align 4,,15
 1264      0000
 1266              	_ZN12_GLOBAL__N_126TestCheckCloseWithNaNFailsD0Ev:
 1267              	.LFB1412:
 1268              		.cfi_startproc
 1269              		.cfi_personality 0x9b,DW.ref.__gxx_personality_v0
 1270              		.cfi_lsda 0x1b,.LLSDA1412
 1271 04e0 55       		pushq	%rbp
 1272              		.cfi_def_cfa_offset 16
 1273              		.cfi_offset 6, -16
 1274 04e1 488D0500 		leaq	16+_ZTVN12_GLOBAL__N_126TestCheckCloseWithNaNFailsE(%rip), %rax
 1274      000000
 1275 04e8 53       		pushq	%rbx
 1276              		.cfi_def_cfa_offset 24
 1277              		.cfi_offset 3, -24
 1278 04e9 4889FB   		movq	%rdi, %rbx
 1279 04ec 4883EC08 		subq	$8, %rsp
 1280              		.cfi_def_cfa_offset 32
 1281 04f0 488907   		movq	%rax, (%rdi)
 1282              	.LEHB26:
 1283 04f3 E8000000 		call	_ZN8UnitTest4TestD2Ev@PLT
 1283      00
 1284              	.LEHE26:
 1285 04f8 4883C408 		addq	$8, %rsp
 1286              		.cfi_remember_state
 1287              		.cfi_def_cfa_offset 24
 1288 04fc 4889DF   		movq	%rbx, %rdi
 1289 04ff 5B       		popq	%rbx
 1290              		.cfi_def_cfa_offset 16
 1291 0500 5D       		popq	%rbp
 1292              		.cfi_def_cfa_offset 8
 1293 0501 E9000000 		jmp	_ZdlPv@PLT
 1293      00
 1294              	.L89:
 1295              		.cfi_restore_state
 1296 0506 4889C5   		movq	%rax, %rbp
 1297 0509 4889DF   		movq	%rbx, %rdi
 1298 050c E8000000 		call	_ZdlPv@PLT
 1298      00
 1299 0511 4889EF   		movq	%rbp, %rdi
 1300              	.LEHB27:
 1301 0514 E8000000 		call	_Unwind_Resume@PLT
 1301      00
 1302              	.LEHE27:
 1303              		.cfi_endproc
 1304              	.LFE1412:
 1305              		.section	.gcc_except_table
 1306              	.LLSDA1412:
 1307 009c FF       		.byte	0xff
 1308 009d FF       		.byte	0xff
 1309 009e 01       		.byte	0x1
 1310 009f 08       		.uleb128 .LLSDACSE1412-.LLSDACSB1412
 1311              	.LLSDACSB1412:
 1312 00a0 13       		.uleb128 .LEHB26-.LFB1412
 1313 00a1 05       		.uleb128 .LEHE26-.LEHB26
 1314 00a2 26       		.uleb128 .L89-.LFB1412
 1315 00a3 00       		.uleb128 0
 1316 00a4 34       		.uleb128 .LEHB27-.LFB1412
 1317 00a5 05       		.uleb128 .LEHE27-.LEHB27
 1318 00a6 00       		.uleb128 0
 1319 00a7 00       		.uleb128 0
 1320              	.LLSDACSE1412:
 1321              		.text
 1323 0519 90       		.align 2
 1324 051a 660F1F44 		.p2align 4,,15
 1324      0000
 1326              	_ZN12_GLOBAL__N_147TestCheckCloseWithZeroEpsilonWorksForSameNumberD0Ev:
 1327              	.LFB1416:
 1328              		.cfi_startproc
 1329              		.cfi_personality 0x9b,DW.ref.__gxx_personality_v0
 1330              		.cfi_lsda 0x1b,.LLSDA1416
 1331 0520 55       		pushq	%rbp
 1332              		.cfi_def_cfa_offset 16
 1333              		.cfi_offset 6, -16
 1334 0521 488D0500 		leaq	16+_ZTVN12_GLOBAL__N_147TestCheckCloseWithZeroEpsilonWorksForSameNumberE(%rip), %rax
 1334      000000
 1335 0528 53       		pushq	%rbx
 1336              		.cfi_def_cfa_offset 24
 1337              		.cfi_offset 3, -24
 1338 0529 4889FB   		movq	%rdi, %rbx
 1339 052c 4883EC08 		subq	$8, %rsp
 1340              		.cfi_def_cfa_offset 32
 1341 0530 488907   		movq	%rax, (%rdi)
 1342              	.LEHB28:
 1343 0533 E8000000 		call	_ZN8UnitTest4TestD2Ev@PLT
 1343      00
 1344              	.LEHE28:
 1345 0538 4883C408 		addq	$8, %rsp
 1346              		.cfi_remember_state
 1347              		.cfi_def_cfa_offset 24
 1348 053c 4889DF   		movq	%rbx, %rdi
 1349 053f 5B       		popq	%rbx
 1350              		.cfi_def_cfa_offset 16
 1351 0540 5D       		popq	%rbp
 1352              		.cfi_def_cfa_offset 8
 1353 0541 E9000000 		jmp	_ZdlPv@PLT
 1353      00
 1354              	.L93:
 1355              		.cfi_restore_state
 1356 0546 4889C5   		movq	%rax, %rbp
 1357 0549 4889DF   		movq	%rbx, %rdi
 1358 054c E8000000 		call	_ZdlPv@PLT
 1358      00
 1359 0551 4889EF   		movq	%rbp, %rdi
 1360              	.LEHB29:
 1361 0554 E8000000 		call	_Unwind_Resume@PLT
 1361      00
 1362              	.LEHE29:
 1363              		.cfi_endproc
 1364              	.LFE1416:
 1365              		.section	.gcc_except_table
 1366              	.LLSDA1416:
 1367 00a8 FF       		.byte	0xff
 1368 00a9 FF       		.byte	0xff
 1369 00aa 01       		.byte	0x1
 1370 00ab 08       		.uleb128 .LLSDACSE1416-.LLSDACSB1416
 1371              	.LLSDACSB1416:
 1372 00ac 13       		.uleb128 .LEHB28-.LFB1416
 1373 00ad 05       		.uleb128 .LEHE28-.LEHB28
 1374 00ae 26       		.uleb128 .L93-.LFB1416
 1375 00af 00       		.uleb128 0
 1376 00b0 34       		.uleb128 .LEHB29-.LFB1416
 1377 00b1 05       		.uleb128 .LEHE29-.LEHB29
 1378 00b2 00       		.uleb128 0
 1379 00b3 00       		.uleb128 0
 1380              	.LLSDACSE1416:
 1381              		.text
 1383 0559 90       		.align 2
 1384 055a 660F1F44 		.p2align 4,,15
 1384      0000
 1386              	_ZN12_GLOBAL__N_119TestCheckCloseFalseD0Ev:
 1387              	.LFB1420:
 1388              		.cfi_startproc
 1389              		.cfi_personality 0x9b,DW.ref.__gxx_personality_v0
 1390              		.cfi_lsda 0x1b,.LLSDA1420
 1391 0560 55       		pushq	%rbp
 1392              		.cfi_def_cfa_offset 16
 1393              		.cfi_offset 6, -16
 1394 0561 488D0500 		leaq	16+_ZTVN12_GLOBAL__N_119TestCheckCloseFalseE(%rip), %rax
 1394      000000
 1395 0568 53       		pushq	%rbx
 1396              		.cfi_def_cfa_offset 24
 1397              		.cfi_offset 3, -24
 1398 0569 4889FB   		movq	%rdi, %rbx
 1399 056c 4883EC08 		subq	$8, %rsp
 1400              		.cfi_def_cfa_offset 32
 1401 0570 488907   		movq	%rax, (%rdi)
 1402              	.LEHB30:
 1403 0573 E8000000 		call	_ZN8UnitTest4TestD2Ev@PLT
 1403      00
 1404              	.LEHE30:
 1405 0578 4883C408 		addq	$8, %rsp
 1406              		.cfi_remember_state
 1407              		.cfi_def_cfa_offset 24
 1408 057c 4889DF   		movq	%rbx, %rdi
 1409 057f 5B       		popq	%rbx
 1410              		.cfi_def_cfa_offset 16
 1411 0580 5D       		popq	%rbp
 1412              		.cfi_def_cfa_offset 8
 1413 0581 E9000000 		jmp	_ZdlPv@PLT
 1413      00
 1414              	.L97:
 1415              		.cfi_restore_state
 1416 0586 4889C5   		movq	%rax, %rbp
 1417 0589 4889DF   		movq	%rbx, %rdi
 1418 058c E8000000 		call	_ZdlPv@PLT
 1418      00
 1419 0591 4889EF   		movq	%rbp, %rdi
 1420              	.LEHB31:
 1421 0594 E8000000 		call	_Unwind_Resume@PLT
 1421      00
 1422              	.LEHE31:
 1423              		.cfi_endproc
 1424              	.LFE1420:
 1425              		.section	.gcc_except_table
 1426              	.LLSDA1420:
 1427 00b4 FF       		.byte	0xff
 1428 00b5 FF       		.byte	0xff
 1429 00b6 01       		.byte	0x1
 1430 00b7 08       		.uleb128 .LLSDACSE1420-.LLSDACSB1420
 1431              	.LLSDACSB1420:
 1432 00b8 13       		.uleb128 .LEHB30-.LFB1420
 1433 00b9 05       		.uleb128 .LEHE30-.LEHB30
 1434 00ba 26       		.uleb128 .L97-.LFB1420
 1435 00bb 00       		.uleb128 0
 1436 00bc 34       		.uleb128 .LEHB31-.LFB1420
 1437 00bd 05       		.uleb128 .LEHE31-.LEHB31
 1438 00be 00       		.uleb128 0
 1439 00bf 00       		.uleb128 0
 1440              	.LLSDACSE1420:
 1441              		.text
 1443 0599 90       		.align 2
 1444 059a 660F1F44 		.p2align 4,,15
 1444      0000
 1446              	_ZN12_GLOBAL__N_118TestCheckCloseTrueD0Ev:
 1447              	.LFB1424:
 1448              		.cfi_startproc
 1449              		.cfi_personality 0x9b,DW.ref.__gxx_personality_v0
 1450              		.cfi_lsda 0x1b,.LLSDA1424
 1451 05a0 55       		pushq	%rbp
 1452              		.cfi_def_cfa_offset 16
 1453              		.cfi_offset 6, -16
 1454 05a1 488D0500 		leaq	16+_ZTVN12_GLOBAL__N_118TestCheckCloseTrueE(%rip), %rax
 1454      000000
 1455 05a8 53       		pushq	%rbx
 1456              		.cfi_def_cfa_offset 24
 1457              		.cfi_offset 3, -24
 1458 05a9 4889FB   		movq	%rdi, %rbx
 1459 05ac 4883EC08 		subq	$8, %rsp
 1460              		.cfi_def_cfa_offset 32
 1461 05b0 488907   		movq	%rax, (%rdi)
 1462              	.LEHB32:
 1463 05b3 E8000000 		call	_ZN8UnitTest4TestD2Ev@PLT
 1463      00
 1464              	.LEHE32:
 1465 05b8 4883C408 		addq	$8, %rsp
 1466              		.cfi_remember_state
 1467              		.cfi_def_cfa_offset 24
 1468 05bc 4889DF   		movq	%rbx, %rdi
 1469 05bf 5B       		popq	%rbx
 1470              		.cfi_def_cfa_offset 16
 1471 05c0 5D       		popq	%rbp
 1472              		.cfi_def_cfa_offset 8
 1473 05c1 E9000000 		jmp	_ZdlPv@PLT
 1473      00
 1474              	.L101:
 1475              		.cfi_restore_state
 1476 05c6 4889C5   		movq	%rax, %rbp
 1477 05c9 4889DF   		movq	%rbx, %rdi
 1478 05cc E8000000 		call	_ZdlPv@PLT
 1478      00
 1479 05d1 4889EF   		movq	%rbp, %rdi
 1480              	.LEHB33:
 1481 05d4 E8000000 		call	_Unwind_Resume@PLT
 1481      00
 1482              	.LEHE33:
 1483              		.cfi_endproc
 1484              	.LFE1424:
 1485              		.section	.gcc_except_table
 1486              	.LLSDA1424:
 1487 00c0 FF       		.byte	0xff
 1488 00c1 FF       		.byte	0xff
 1489 00c2 01       		.byte	0x1
 1490 00c3 08       		.uleb128 .LLSDACSE1424-.LLSDACSB1424
 1491              	.LLSDACSB1424:
 1492 00c4 13       		.uleb128 .LEHB32-.LFB1424
 1493 00c5 05       		.uleb128 .LEHE32-.LEHB32
 1494 00c6 26       		.uleb128 .L101-.LFB1424
 1495 00c7 00       		.uleb128 0
 1496 00c8 34       		.uleb128 .LEHB33-.LFB1424
 1497 00c9 05       		.uleb128 .LEHE33-.LEHB33
 1498 00ca 00       		.uleb128 0
 1499 00cb 00       		.uleb128 0
 1500              	.LLSDACSE1424:
 1501              		.text
 1503 05d9 90       		.align 2
 1504 05da 660F1F44 		.p2align 4,,15
 1504      0000
 1506              	_ZN12_GLOBAL__N_136TestCheckEqualFailureIncludesDetailsD0Ev:
 1507              	.LFB1428:
 1508              		.cfi_startproc
 1509              		.cfi_personality 0x9b,DW.ref.__gxx_personality_v0
 1510              		.cfi_lsda 0x1b,.LLSDA1428
 1511 05e0 55       		pushq	%rbp
 1512              		.cfi_def_cfa_offset 16
 1513              		.cfi_offset 6, -16
 1514 05e1 488D0500 		leaq	16+_ZTVN12_GLOBAL__N_136TestCheckEqualFailureIncludesDetailsE(%rip), %rax
 1514      000000
 1515 05e8 53       		pushq	%rbx
 1516              		.cfi_def_cfa_offset 24
 1517              		.cfi_offset 3, -24
 1518 05e9 4889FB   		movq	%rdi, %rbx
 1519 05ec 4883EC08 		subq	$8, %rsp
 1520              		.cfi_def_cfa_offset 32
 1521 05f0 488907   		movq	%rax, (%rdi)
 1522              	.LEHB34:
 1523 05f3 E8000000 		call	_ZN8UnitTest4TestD2Ev@PLT
 1523      00
 1524              	.LEHE34:
 1525 05f8 4883C408 		addq	$8, %rsp
 1526              		.cfi_remember_state
 1527              		.cfi_def_cfa_offset 24
 1528 05fc 4889DF   		movq	%rbx, %rdi
 1529 05ff 5B       		popq	%rbx
 1530              		.cfi_def_cfa_offset 16
 1531 0600 5D       		popq	%rbp
 1532              		.cfi_def_cfa_offset 8
 1533 0601 E9000000 		jmp	_ZdlPv@PLT
 1533      00
 1534              	.L105:
 1535              		.cfi_restore_state
 1536 0606 4889C5   		movq	%rax, %rbp
 1537 0609 4889DF   		movq	%rbx, %rdi
 1538 060c E8000000 		call	_ZdlPv@PLT
 1538      00
 1539 0611 4889EF   		movq	%rbp, %rdi
 1540              	.LEHB35:
 1541 0614 E8000000 		call	_Unwind_Resume@PLT
 1541      00
 1542              	.LEHE35:
 1543              		.cfi_endproc
 1544              	.LFE1428:
 1545              		.section	.gcc_except_table
 1546              	.LLSDA1428:
 1547 00cc FF       		.byte	0xff
 1548 00cd FF       		.byte	0xff
 1549 00ce 01       		.byte	0x1
 1550 00cf 08       		.uleb128 .LLSDACSE1428-.LLSDACSB1428
 1551              	.LLSDACSB1428:
 1552 00d0 13       		.uleb128 .LEHB34-.LFB1428
 1553 00d1 05       		.uleb128 .LEHE34-.LEHB34
 1554 00d2 26       		.uleb128 .L105-.LFB1428
 1555 00d3 00       		.uleb128 0
 1556 00d4 34       		.uleb128 .LEHB35-.LFB1428
 1557 00d5 05       		.uleb128 .LEHE35-.LEHB35
 1558 00d6 00       		.uleb128 0
 1559 00d7 00       		.uleb128 0
 1560              	.LLSDACSE1428:
 1561              		.text
 1563 0619 90       		.align 2
 1564 061a 660F1F44 		.p2align 4,,15
 1564      0000
 1566              	_ZN12_GLOBAL__N_151TestCheckEqualFailureIncludesCheckExpectedAndActualD0Ev:
 1567              	.LFB1432:
 1568              		.cfi_startproc
 1569              		.cfi_personality 0x9b,DW.ref.__gxx_personality_v0
 1570              		.cfi_lsda 0x1b,.LLSDA1432
 1571 0620 55       		pushq	%rbp
 1572              		.cfi_def_cfa_offset 16
 1573              		.cfi_offset 6, -16
 1574 0621 488D0500 		leaq	16+_ZTVN12_GLOBAL__N_151TestCheckEqualFailureIncludesCheckExpectedAndActualE(%rip), %rax
 1574      000000
 1575 0628 53       		pushq	%rbx
 1576              		.cfi_def_cfa_offset 24
 1577              		.cfi_offset 3, -24
 1578 0629 4889FB   		movq	%rdi, %rbx
 1579 062c 4883EC08 		subq	$8, %rsp
 1580              		.cfi_def_cfa_offset 32
 1581 0630 488907   		movq	%rax, (%rdi)
 1582              	.LEHB36:
 1583 0633 E8000000 		call	_ZN8UnitTest4TestD2Ev@PLT
 1583      00
 1584              	.LEHE36:
 1585 0638 4883C408 		addq	$8, %rsp
 1586              		.cfi_remember_state
 1587              		.cfi_def_cfa_offset 24
 1588 063c 4889DF   		movq	%rbx, %rdi
 1589 063f 5B       		popq	%rbx
 1590              		.cfi_def_cfa_offset 16
 1591 0640 5D       		popq	%rbp
 1592              		.cfi_def_cfa_offset 8
 1593 0641 E9000000 		jmp	_ZdlPv@PLT
 1593      00
 1594              	.L109:
 1595              		.cfi_restore_state
 1596 0646 4889C5   		movq	%rax, %rbp
 1597 0649 4889DF   		movq	%rbx, %rdi
 1598 064c E8000000 		call	_ZdlPv@PLT
 1598      00
 1599 0651 4889EF   		movq	%rbp, %rdi
 1600              	.LEHB37:
 1601 0654 E8000000 		call	_Unwind_Resume@PLT
 1601      00
 1602              	.LEHE37:
 1603              		.cfi_endproc
 1604              	.LFE1432:
 1605              		.section	.gcc_except_table
 1606              	.LLSDA1432:
 1607 00d8 FF       		.byte	0xff
 1608 00d9 FF       		.byte	0xff
 1609 00da 01       		.byte	0x1
 1610 00db 08       		.uleb128 .LLSDACSE1432-.LLSDACSB1432
 1611              	.LLSDACSB1432:
 1612 00dc 13       		.uleb128 .LEHB36-.LFB1432
 1613 00dd 05       		.uleb128 .LEHE36-.LEHB36
 1614 00de 26       		.uleb128 .L109-.LFB1432
 1615 00df 00       		.uleb128 0
 1616 00e0 34       		.uleb128 .LEHB37-.LFB1432
 1617 00e1 05       		.uleb128 .LEHE37-.LEHB37
 1618 00e2 00       		.uleb128 0
 1619 00e3 00       		.uleb128 0
 1620              	.LLSDACSE1432:
 1621              		.text
 1623 0659 90       		.align 2
 1624 065a 660F1F44 		.p2align 4,,15
 1624      0000
 1626              	_ZN12_GLOBAL__N_153TestCheckEqualsWithStringsWorksOnContentsWithALiteralD0Ev:
 1627              	.LFB1436:
 1628              		.cfi_startproc
 1629              		.cfi_personality 0x9b,DW.ref.__gxx_personality_v0
 1630              		.cfi_lsda 0x1b,.LLSDA1436
 1631 0660 55       		pushq	%rbp
 1632              		.cfi_def_cfa_offset 16
 1633              		.cfi_offset 6, -16
 1634 0661 488D0500 		leaq	16+_ZTVN12_GLOBAL__N_153TestCheckEqualsWithStringsWorksOnContentsWithALiteralE(%rip), %rax
 1634      000000
 1635 0668 53       		pushq	%rbx
 1636              		.cfi_def_cfa_offset 24
 1637              		.cfi_offset 3, -24
 1638 0669 4889FB   		movq	%rdi, %rbx
 1639 066c 4883EC08 		subq	$8, %rsp
 1640              		.cfi_def_cfa_offset 32
 1641 0670 488907   		movq	%rax, (%rdi)
 1642              	.LEHB38:
 1643 0673 E8000000 		call	_ZN8UnitTest4TestD2Ev@PLT
 1643      00
 1644              	.LEHE38:
 1645 0678 4883C408 		addq	$8, %rsp
 1646              		.cfi_remember_state
 1647              		.cfi_def_cfa_offset 24
 1648 067c 4889DF   		movq	%rbx, %rdi
 1649 067f 5B       		popq	%rbx
 1650              		.cfi_def_cfa_offset 16
 1651 0680 5D       		popq	%rbp
 1652              		.cfi_def_cfa_offset 8
 1653 0681 E9000000 		jmp	_ZdlPv@PLT
 1653      00
 1654              	.L113:
 1655              		.cfi_restore_state
 1656 0686 4889C5   		movq	%rax, %rbp
 1657 0689 4889DF   		movq	%rbx, %rdi
 1658 068c E8000000 		call	_ZdlPv@PLT
 1658      00
 1659 0691 4889EF   		movq	%rbp, %rdi
 1660              	.LEHB39:
 1661 0694 E8000000 		call	_Unwind_Resume@PLT
 1661      00
 1662              	.LEHE39:
 1663              		.cfi_endproc
 1664              	.LFE1436:
 1665              		.section	.gcc_except_table
 1666              	.LLSDA1436:
 1667 00e4 FF       		.byte	0xff
 1668 00e5 FF       		.byte	0xff
 1669 00e6 01       		.byte	0x1
 1670 00e7 08       		.uleb128 .LLSDACSE1436-.LLSDACSB1436
 1671              	.LLSDACSB1436:
 1672 00e8 13       		.uleb128 .LEHB38-.LFB1436
 1673 00e9 05       		.uleb128 .LEHE38-.LEHB38
 1674 00ea 26       		.uleb128 .L113-.LFB1436
 1675 00eb 00       		.uleb128 0
 1676 00ec 34       		.uleb128 .LEHB39-.LFB1436
 1677 00ed 05       		.uleb128 .LEHE39-.LEHB39
 1678 00ee 00       		.uleb128 0
 1679 00ef 00       		.uleb128 0
 1680              	.LLSDACSE1436:
 1681              		.text
 1683 0699 90       		.align 2
 1684 069a 660F1F44 		.p2align 4,,15
 1684      0000
 1686              	_ZN12_GLOBAL__N_154TestCheckEqualsWithStringsWorksOnContentsConstNonConstD0Ev:
 1687              	.LFB1440:
 1688              		.cfi_startproc
 1689              		.cfi_personality 0x9b,DW.ref.__gxx_personality_v0
 1690              		.cfi_lsda 0x1b,.LLSDA1440
 1691 06a0 55       		pushq	%rbp
 1692              		.cfi_def_cfa_offset 16
 1693              		.cfi_offset 6, -16
 1694 06a1 488D0500 		leaq	16+_ZTVN12_GLOBAL__N_154TestCheckEqualsWithStringsWorksOnContentsConstNonConstE(%rip), %rax
 1694      000000
 1695 06a8 53       		pushq	%rbx
 1696              		.cfi_def_cfa_offset 24
 1697              		.cfi_offset 3, -24
 1698 06a9 4889FB   		movq	%rdi, %rbx
 1699 06ac 4883EC08 		subq	$8, %rsp
 1700              		.cfi_def_cfa_offset 32
 1701 06b0 488907   		movq	%rax, (%rdi)
 1702              	.LEHB40:
 1703 06b3 E8000000 		call	_ZN8UnitTest4TestD2Ev@PLT
 1703      00
 1704              	.LEHE40:
 1705 06b8 4883C408 		addq	$8, %rsp
 1706              		.cfi_remember_state
 1707              		.cfi_def_cfa_offset 24
 1708 06bc 4889DF   		movq	%rbx, %rdi
 1709 06bf 5B       		popq	%rbx
 1710              		.cfi_def_cfa_offset 16
 1711 06c0 5D       		popq	%rbp
 1712              		.cfi_def_cfa_offset 8
 1713 06c1 E9000000 		jmp	_ZdlPv@PLT
 1713      00
 1714              	.L117:
 1715              		.cfi_restore_state
 1716 06c6 4889C5   		movq	%rax, %rbp
 1717 06c9 4889DF   		movq	%rbx, %rdi
 1718 06cc E8000000 		call	_ZdlPv@PLT
 1718      00
 1719 06d1 4889EF   		movq	%rbp, %rdi
 1720              	.LEHB41:
 1721 06d4 E8000000 		call	_Unwind_Resume@PLT
 1721      00
 1722              	.LEHE41:
 1723              		.cfi_endproc
 1724              	.LFE1440:
 1725              		.section	.gcc_except_table
 1726              	.LLSDA1440:
 1727 00f0 FF       		.byte	0xff
 1728 00f1 FF       		.byte	0xff
 1729 00f2 01       		.byte	0x1
 1730 00f3 08       		.uleb128 .LLSDACSE1440-.LLSDACSB1440
 1731              	.LLSDACSB1440:
 1732 00f4 13       		.uleb128 .LEHB40-.LFB1440
 1733 00f5 05       		.uleb128 .LEHE40-.LEHB40
 1734 00f6 26       		.uleb128 .L117-.LFB1440
 1735 00f7 00       		.uleb128 0
 1736 00f8 34       		.uleb128 .LEHB41-.LFB1440
 1737 00f9 05       		.uleb128 .LEHE41-.LEHB41
 1738 00fa 00       		.uleb128 0
 1739 00fb 00       		.uleb128 0
 1740              	.LLSDACSE1440:
 1741              		.text
 1743 06d9 90       		.align 2
 1744 06da 660F1F44 		.p2align 4,,15
 1744      0000
 1746              	_ZN12_GLOBAL__N_154TestCheckEqualsWithStringsWorksOnContentsNonConstConstD0Ev:
 1747              	.LFB1444:
 1748              		.cfi_startproc
 1749              		.cfi_personality 0x9b,DW.ref.__gxx_personality_v0
 1750              		.cfi_lsda 0x1b,.LLSDA1444
 1751 06e0 55       		pushq	%rbp
 1752              		.cfi_def_cfa_offset 16
 1753              		.cfi_offset 6, -16
 1754 06e1 488D0500 		leaq	16+_ZTVN12_GLOBAL__N_154TestCheckEqualsWithStringsWorksOnContentsNonConstConstE(%rip), %rax
 1754      000000
 1755 06e8 53       		pushq	%rbx
 1756              		.cfi_def_cfa_offset 24
 1757              		.cfi_offset 3, -24
 1758 06e9 4889FB   		movq	%rdi, %rbx
 1759 06ec 4883EC08 		subq	$8, %rsp
 1760              		.cfi_def_cfa_offset 32
 1761 06f0 488907   		movq	%rax, (%rdi)
 1762              	.LEHB42:
 1763 06f3 E8000000 		call	_ZN8UnitTest4TestD2Ev@PLT
 1763      00
 1764              	.LEHE42:
 1765 06f8 4883C408 		addq	$8, %rsp
 1766              		.cfi_remember_state
 1767              		.cfi_def_cfa_offset 24
 1768 06fc 4889DF   		movq	%rbx, %rdi
 1769 06ff 5B       		popq	%rbx
 1770              		.cfi_def_cfa_offset 16
 1771 0700 5D       		popq	%rbp
 1772              		.cfi_def_cfa_offset 8
 1773 0701 E9000000 		jmp	_ZdlPv@PLT
 1773      00
 1774              	.L121:
 1775              		.cfi_restore_state
 1776 0706 4889C5   		movq	%rax, %rbp
 1777 0709 4889DF   		movq	%rbx, %rdi
 1778 070c E8000000 		call	_ZdlPv@PLT
 1778      00
 1779 0711 4889EF   		movq	%rbp, %rdi
 1780              	.LEHB43:
 1781 0714 E8000000 		call	_Unwind_Resume@PLT
 1781      00
 1782              	.LEHE43:
 1783              		.cfi_endproc
 1784              	.LFE1444:
 1785              		.section	.gcc_except_table
 1786              	.LLSDA1444:
 1787 00fc FF       		.byte	0xff
 1788 00fd FF       		.byte	0xff
 1789 00fe 01       		.byte	0x1
 1790 00ff 08       		.uleb128 .LLSDACSE1444-.LLSDACSB1444
 1791              	.LLSDACSB1444:
 1792 0100 13       		.uleb128 .LEHB42-.LFB1444
 1793 0101 05       		.uleb128 .LEHE42-.LEHB42
 1794 0102 26       		.uleb128 .L121-.LFB1444
 1795 0103 00       		.uleb128 0
 1796 0104 34       		.uleb128 .LEHB43-.LFB1444
 1797 0105 05       		.uleb128 .LEHE43-.LEHB43
 1798 0106 00       		.uleb128 0
 1799 0107 00       		.uleb128 0
 1800              	.LLSDACSE1444:
 1801              		.text
 1803 0719 90       		.align 2
 1804 071a 660F1F44 		.p2align 4,,15
 1804      0000
 1806              	_ZN12_GLOBAL__N_151TestCheckEqualsWithStringsWorksOnContentsConstConstD0Ev:
 1807              	.LFB1448:
 1808              		.cfi_startproc
 1809              		.cfi_personality 0x9b,DW.ref.__gxx_personality_v0
 1810              		.cfi_lsda 0x1b,.LLSDA1448
 1811 0720 55       		pushq	%rbp
 1812              		.cfi_def_cfa_offset 16
 1813              		.cfi_offset 6, -16
 1814 0721 488D0500 		leaq	16+_ZTVN12_GLOBAL__N_151TestCheckEqualsWithStringsWorksOnContentsConstConstE(%rip), %rax
 1814      000000
 1815 0728 53       		pushq	%rbx
 1816              		.cfi_def_cfa_offset 24
 1817              		.cfi_offset 3, -24
 1818 0729 4889FB   		movq	%rdi, %rbx
 1819 072c 4883EC08 		subq	$8, %rsp
 1820              		.cfi_def_cfa_offset 32
 1821 0730 488907   		movq	%rax, (%rdi)
 1822              	.LEHB44:
 1823 0733 E8000000 		call	_ZN8UnitTest4TestD2Ev@PLT
 1823      00
 1824              	.LEHE44:
 1825 0738 4883C408 		addq	$8, %rsp
 1826              		.cfi_remember_state
 1827              		.cfi_def_cfa_offset 24
 1828 073c 4889DF   		movq	%rbx, %rdi
 1829 073f 5B       		popq	%rbx
 1830              		.cfi_def_cfa_offset 16
 1831 0740 5D       		popq	%rbp
 1832              		.cfi_def_cfa_offset 8
 1833 0741 E9000000 		jmp	_ZdlPv@PLT
 1833      00
 1834              	.L125:
 1835              		.cfi_restore_state
 1836 0746 4889C5   		movq	%rax, %rbp
 1837 0749 4889DF   		movq	%rbx, %rdi
 1838 074c E8000000 		call	_ZdlPv@PLT
 1838      00
 1839 0751 4889EF   		movq	%rbp, %rdi
 1840              	.LEHB45:
 1841 0754 E8000000 		call	_Unwind_Resume@PLT
 1841      00
 1842              	.LEHE45:
 1843              		.cfi_endproc
 1844              	.LFE1448:
 1845              		.section	.gcc_except_table
 1846              	.LLSDA1448:
 1847 0108 FF       		.byte	0xff
 1848 0109 FF       		.byte	0xff
 1849 010a 01       		.byte	0x1
 1850 010b 08       		.uleb128 .LLSDACSE1448-.LLSDACSB1448
 1851              	.LLSDACSB1448:
 1852 010c 13       		.uleb128 .LEHB44-.LFB1448
 1853 010d 05       		.uleb128 .LEHE44-.LEHB44
 1854 010e 26       		.uleb128 .L125-.LFB1448
 1855 010f 00       		.uleb128 0
 1856 0110 34       		.uleb128 .LEHB45-.LFB1448
 1857 0111 05       		.uleb128 .LEHE45-.LEHB45
 1858 0112 00       		.uleb128 0
 1859 0113 00       		.uleb128 0
 1860              	.LLSDACSE1448:
 1861              		.text
 1863 0759 90       		.align 2
 1864 075a 660F1F44 		.p2align 4,,15
 1864      0000
 1866              	_ZN12_GLOBAL__N_157TestCheckEqualsWithStringsWorksOnContentsNonConstNonConstD0Ev:
 1867              	.LFB1452:
 1868              		.cfi_startproc
 1869              		.cfi_personality 0x9b,DW.ref.__gxx_personality_v0
 1870              		.cfi_lsda 0x1b,.LLSDA1452
 1871 0760 55       		pushq	%rbp
 1872              		.cfi_def_cfa_offset 16
 1873              		.cfi_offset 6, -16
 1874 0761 488D0500 		leaq	16+_ZTVN12_GLOBAL__N_157TestCheckEqualsWithStringsWorksOnContentsNonConstNonConstE(%rip), %ra
 1874      000000
 1875 0768 53       		pushq	%rbx
 1876              		.cfi_def_cfa_offset 24
 1877              		.cfi_offset 3, -24
 1878 0769 4889FB   		movq	%rdi, %rbx
 1879 076c 4883EC08 		subq	$8, %rsp
 1880              		.cfi_def_cfa_offset 32
 1881 0770 488907   		movq	%rax, (%rdi)
 1882              	.LEHB46:
 1883 0773 E8000000 		call	_ZN8UnitTest4TestD2Ev@PLT
 1883      00
 1884              	.LEHE46:
 1885 0778 4883C408 		addq	$8, %rsp
 1886              		.cfi_remember_state
 1887              		.cfi_def_cfa_offset 24
 1888 077c 4889DF   		movq	%rbx, %rdi
 1889 077f 5B       		popq	%rbx
 1890              		.cfi_def_cfa_offset 16
 1891 0780 5D       		popq	%rbp
 1892              		.cfi_def_cfa_offset 8
 1893 0781 E9000000 		jmp	_ZdlPv@PLT
 1893      00
 1894              	.L129:
 1895              		.cfi_restore_state
 1896 0786 4889C5   		movq	%rax, %rbp
 1897 0789 4889DF   		movq	%rbx, %rdi
 1898 078c E8000000 		call	_ZdlPv@PLT
 1898      00
 1899 0791 4889EF   		movq	%rbp, %rdi
 1900              	.LEHB47:
 1901 0794 E8000000 		call	_Unwind_Resume@PLT
 1901      00
 1902              	.LEHE47:
 1903              		.cfi_endproc
 1904              	.LFE1452:
 1905              		.section	.gcc_except_table
 1906              	.LLSDA1452:
 1907 0114 FF       		.byte	0xff
 1908 0115 FF       		.byte	0xff
 1909 0116 01       		.byte	0x1
 1910 0117 08       		.uleb128 .LLSDACSE1452-.LLSDACSB1452
 1911              	.LLSDACSB1452:
 1912 0118 13       		.uleb128 .LEHB46-.LFB1452
 1913 0119 05       		.uleb128 .LEHE46-.LEHB46
 1914 011a 26       		.uleb128 .L129-.LFB1452
 1915 011b 00       		.uleb128 0
 1916 011c 34       		.uleb128 .LEHB47-.LFB1452
 1917 011d 05       		.uleb128 .LEHE47-.LEHB47
 1918 011e 00       		.uleb128 0
 1919 011f 00       		.uleb128 0
 1920              	.LLSDACSE1452:
 1921              		.text
 1923 0799 90       		.align 2
 1924 079a 660F1F44 		.p2align 4,,15
 1924      0000
 1926              	_ZN12_GLOBAL__N_149TestCheckEqualsWithStringsFailsOnDifferentStringsD0Ev:
 1927              	.LFB1456:
 1928              		.cfi_startproc
 1929              		.cfi_personality 0x9b,DW.ref.__gxx_personality_v0
 1930              		.cfi_lsda 0x1b,.LLSDA1456
 1931 07a0 55       		pushq	%rbp
 1932              		.cfi_def_cfa_offset 16
 1933              		.cfi_offset 6, -16
 1934 07a1 488D0500 		leaq	16+_ZTVN12_GLOBAL__N_149TestCheckEqualsWithStringsFailsOnDifferentStringsE(%rip), %rax
 1934      000000
 1935 07a8 53       		pushq	%rbx
 1936              		.cfi_def_cfa_offset 24
 1937              		.cfi_offset 3, -24
 1938 07a9 4889FB   		movq	%rdi, %rbx
 1939 07ac 4883EC08 		subq	$8, %rsp
 1940              		.cfi_def_cfa_offset 32
 1941 07b0 488907   		movq	%rax, (%rdi)
 1942              	.LEHB48:
 1943 07b3 E8000000 		call	_ZN8UnitTest4TestD2Ev@PLT
 1943      00
 1944              	.LEHE48:
 1945 07b8 4883C408 		addq	$8, %rsp
 1946              		.cfi_remember_state
 1947              		.cfi_def_cfa_offset 24
 1948 07bc 4889DF   		movq	%rbx, %rdi
 1949 07bf 5B       		popq	%rbx
 1950              		.cfi_def_cfa_offset 16
 1951 07c0 5D       		popq	%rbp
 1952              		.cfi_def_cfa_offset 8
 1953 07c1 E9000000 		jmp	_ZdlPv@PLT
 1953      00
 1954              	.L133:
 1955              		.cfi_restore_state
 1956 07c6 4889C5   		movq	%rax, %rbp
 1957 07c9 4889DF   		movq	%rbx, %rdi
 1958 07cc E8000000 		call	_ZdlPv@PLT
 1958      00
 1959 07d1 4889EF   		movq	%rbp, %rdi
 1960              	.LEHB49:
 1961 07d4 E8000000 		call	_Unwind_Resume@PLT
 1961      00
 1962              	.LEHE49:
 1963              		.cfi_endproc
 1964              	.LFE1456:
 1965              		.section	.gcc_except_table
 1966              	.LLSDA1456:
 1967 0120 FF       		.byte	0xff
 1968 0121 FF       		.byte	0xff
 1969 0122 01       		.byte	0x1
 1970 0123 08       		.uleb128 .LLSDACSE1456-.LLSDACSB1456
 1971              	.LLSDACSB1456:
 1972 0124 13       		.uleb128 .LEHB48-.LFB1456
 1973 0125 05       		.uleb128 .LEHE48-.LEHB48
 1974 0126 26       		.uleb128 .L133-.LFB1456
 1975 0127 00       		.uleb128 0
 1976 0128 34       		.uleb128 .LEHB49-.LFB1456
 1977 0129 05       		.uleb128 .LEHE49-.LEHB49
 1978 012a 00       		.uleb128 0
 1979 012b 00       		.uleb128 0
 1980              	.LLSDACSE1456:
 1981              		.text
 1983 07d9 90       		.align 2
 1984 07da 660F1F44 		.p2align 4,,15
 1984      0000
 1986              	_ZN12_GLOBAL__N_130TestCheckEqualWithUnsignedLongD0Ev:
 1987              	.LFB1460:
 1988              		.cfi_startproc
 1989              		.cfi_personality 0x9b,DW.ref.__gxx_personality_v0
 1990              		.cfi_lsda 0x1b,.LLSDA1460
 1991 07e0 55       		pushq	%rbp
 1992              		.cfi_def_cfa_offset 16
 1993              		.cfi_offset 6, -16
 1994 07e1 488D0500 		leaq	16+_ZTVN12_GLOBAL__N_130TestCheckEqualWithUnsignedLongE(%rip), %rax
 1994      000000
 1995 07e8 53       		pushq	%rbx
 1996              		.cfi_def_cfa_offset 24
 1997              		.cfi_offset 3, -24
 1998 07e9 4889FB   		movq	%rdi, %rbx
 1999 07ec 4883EC08 		subq	$8, %rsp
 2000              		.cfi_def_cfa_offset 32
 2001 07f0 488907   		movq	%rax, (%rdi)
 2002              	.LEHB50:
 2003 07f3 E8000000 		call	_ZN8UnitTest4TestD2Ev@PLT
 2003      00
 2004              	.LEHE50:
 2005 07f8 4883C408 		addq	$8, %rsp
 2006              		.cfi_remember_state
 2007              		.cfi_def_cfa_offset 24
 2008 07fc 4889DF   		movq	%rbx, %rdi
 2009 07ff 5B       		popq	%rbx
 2010              		.cfi_def_cfa_offset 16
 2011 0800 5D       		popq	%rbp
 2012              		.cfi_def_cfa_offset 8
 2013 0801 E9000000 		jmp	_ZdlPv@PLT
 2013      00
 2014              	.L137:
 2015              		.cfi_restore_state
 2016 0806 4889C5   		movq	%rax, %rbp
 2017 0809 4889DF   		movq	%rbx, %rdi
 2018 080c E8000000 		call	_ZdlPv@PLT
 2018      00
 2019 0811 4889EF   		movq	%rbp, %rdi
 2020              	.LEHB51:
 2021 0814 E8000000 		call	_Unwind_Resume@PLT
 2021      00
 2022              	.LEHE51:
 2023              		.cfi_endproc
 2024              	.LFE1460:
 2025              		.section	.gcc_except_table
 2026              	.LLSDA1460:
 2027 012c FF       		.byte	0xff
 2028 012d FF       		.byte	0xff
 2029 012e 01       		.byte	0x1
 2030 012f 08       		.uleb128 .LLSDACSE1460-.LLSDACSB1460
 2031              	.LLSDACSB1460:
 2032 0130 13       		.uleb128 .LEHB50-.LFB1460
 2033 0131 05       		.uleb128 .LEHE50-.LEHB50
 2034 0132 26       		.uleb128 .L137-.LFB1460
 2035 0133 00       		.uleb128 0
 2036 0134 34       		.uleb128 .LEHB51-.LFB1460
 2037 0135 05       		.uleb128 .LEHE51-.LEHB51
 2038 0136 00       		.uleb128 0
 2039 0137 00       		.uleb128 0
 2040              	.LLSDACSE1460:
 2041              		.text
 2043              		.section	.text._ZN17RecordingReporterD2Ev,"axG",@progbits,_ZN17RecordingReporterD5Ev,comdat
 2044              		.align 2
 2045              		.p2align 4,,15
 2046              		.weak	_ZN17RecordingReporterD2Ev
 2048              	_ZN17RecordingReporterD2Ev:
 2049              	.LFB1462:
 2050              		.cfi_startproc
 2051 0000 488D0500 		leaq	16+_ZTV17RecordingReporter(%rip), %rax
 2051      000000
 2052 0007 488907   		movq	%rax, (%rdi)
 2053 000a E9000000 		jmp	_ZN8UnitTest12TestReporterD2Ev@PLT
 2053      00
 2054              		.cfi_endproc
 2055              	.LFE1462:
 2057              		.weak	_ZN17RecordingReporterD1Ev
 2058              		.set	_ZN17RecordingReporterD1Ev,_ZN17RecordingReporterD2Ev
 2059              		.section	.text._ZN17RecordingReporterD0Ev,"axG",@progbits,_ZN17RecordingReporterD5Ev,comdat
 2060              		.align 2
 2061              		.p2align 4,,15
 2062              		.weak	_ZN17RecordingReporterD0Ev
 2064              	_ZN17RecordingReporterD0Ev:
 2065              	.LFB1464:
 2066              		.cfi_startproc
 2067              		.cfi_personality 0x9b,DW.ref.__gxx_personality_v0
 2068              		.cfi_lsda 0x1b,.LLSDA1464
 2069 0000 55       		pushq	%rbp
 2070              		.cfi_def_cfa_offset 16
 2071              		.cfi_offset 6, -16
 2072 0001 488D0500 		leaq	16+_ZTV17RecordingReporter(%rip), %rax
 2072      000000
 2073 0008 53       		pushq	%rbx
 2074              		.cfi_def_cfa_offset 24
 2075              		.cfi_offset 3, -24
 2076 0009 4889FB   		movq	%rdi, %rbx
 2077 000c 4883EC08 		subq	$8, %rsp
 2078              		.cfi_def_cfa_offset 32
 2079 0010 488907   		movq	%rax, (%rdi)
 2080              	.LEHB52:
 2081 0013 E8000000 		call	_ZN8UnitTest12TestReporterD2Ev@PLT
 2081      00
 2082              	.LEHE52:
 2083 0018 4883C408 		addq	$8, %rsp
 2084              		.cfi_remember_state
 2085              		.cfi_def_cfa_offset 24
 2086 001c 4889DF   		movq	%rbx, %rdi
 2087 001f 5B       		popq	%rbx
 2088              		.cfi_def_cfa_offset 16
 2089 0020 5D       		popq	%rbp
 2090              		.cfi_def_cfa_offset 8
 2091 0021 E9000000 		jmp	_ZdlPv@PLT
 2091      00
 2092              	.L142:
 2093              		.cfi_restore_state
 2094 0026 4889C5   		movq	%rax, %rbp
 2095 0029 4889DF   		movq	%rbx, %rdi
 2096 002c E8000000 		call	_ZdlPv@PLT
 2096      00
 2097 0031 4889EF   		movq	%rbp, %rdi
 2098              	.LEHB53:
 2099 0034 E8000000 		call	_Unwind_Resume@PLT
 2099      00
 2100              	.LEHE53:
 2101              		.cfi_endproc
 2102              	.LFE1464:
 2103              		.section	.gcc_except_table
 2104              	.LLSDA1464:
 2105 0138 FF       		.byte	0xff
 2106 0139 FF       		.byte	0xff
 2107 013a 01       		.byte	0x1
 2108 013b 08       		.uleb128 .LLSDACSE1464-.LLSDACSB1464
 2109              	.LLSDACSB1464:
 2110 013c 13       		.uleb128 .LEHB52-.LFB1464
 2111 013d 05       		.uleb128 .LEHE52-.LEHB52
 2112 013e 26       		.uleb128 .L142-.LFB1464
 2113 013f 00       		.uleb128 0
 2114 0140 34       		.uleb128 .LEHB53-.LFB1464
 2115 0141 05       		.uleb128 .LEHE53-.LEHB53
 2116 0142 00       		.uleb128 0
 2117 0143 00       		.uleb128 0
 2118              	.LLSDACSE1464:
 2119              		.section	.text._ZN17RecordingReporterD0Ev,"axG",@progbits,_ZN17RecordingReporterD5Ev,comdat
 2121              		.section	.text._ZN8UnitTest15MemoryOutStreamD1Ev,"axG",@progbits,_ZN8UnitTest15MemoryOutStreamD1Ev
 2122              		.align 2
 2123              		.p2align 4,,15
 2124              		.weak	_ZN8UnitTest15MemoryOutStreamD1Ev
 2126              	_ZN8UnitTest15MemoryOutStreamD1Ev:
 2127              	.LFB1286:
 2128              		.cfi_startproc
 2129 0000 55       		pushq	%rbp
 2130              		.cfi_def_cfa_offset 16
 2131              		.cfi_offset 6, -16
 2132 0001 488D0500 		leaq	24+_ZTVN8UnitTest15MemoryOutStreamE(%rip), %rax
 2132      000000
 2133 0008 53       		pushq	%rbx
 2134              		.cfi_def_cfa_offset 24
 2135              		.cfi_offset 3, -24
 2136 0009 4889FB   		movq	%rdi, %rbx
 2137 000c 4883EC08 		subq	$8, %rsp
 2138              		.cfi_def_cfa_offset 32
 2139 0010 488907   		movq	%rax, (%rdi)
 2140 0013 4883C028 		addq	$40, %rax
 2141 0017 48898790 		movq	%rax, 144(%rdi)
 2141      000000
 2142 001e 488B7F70 		movq	112(%rdi), %rdi
 2143 0022 488D8380 		leaq	128(%rbx), %rax
 2143      000000
 2144 0029 4839C7   		cmpq	%rax, %rdi
 2145 002c 7405     		je	.L145
 2146 002e E8000000 		call	_ZdlPv@PLT
 2146      00
 2147              	.L145:
 2148 0033 488D0500 		leaq	24+_ZTCN8UnitTest15MemoryOutStreamE0_NSt7__cxx1119basic_ostringstreamIcSt11char_traitsIcESaIc
 2148      000000
 2149 003a 488B7B50 		movq	80(%rbx), %rdi
 2150 003e 488DAB90 		leaq	144(%rbx), %rbp
 2150      000000
 2151 0045 488903   		movq	%rax, (%rbx)
 2152 0048 4883C028 		addq	$40, %rax
 2153 004c 48898390 		movq	%rax, 144(%rbx)
 2153      000000
 2154 0053 488D0500 		leaq	16+_ZTVNSt7__cxx1115basic_stringbufIcSt11char_traitsIcESaIcEEE(%rip), %rax
 2154      000000
 2155 005a 48894308 		movq	%rax, 8(%rbx)
 2156 005e 488D4360 		leaq	96(%rbx), %rax
 2157 0062 4839C7   		cmpq	%rax, %rdi
 2158 0065 7405     		je	.L146
 2159 0067 E8000000 		call	_ZdlPv@PLT
 2159      00
 2160              	.L146:
 2161 006c 488D0500 		leaq	16+_ZTVSt15basic_streambufIcSt11char_traitsIcEE(%rip), %rax
 2161      000000
 2162 0073 488D7B40 		leaq	64(%rbx), %rdi
 2163 0077 48894308 		movq	%rax, 8(%rbx)
 2164 007b E8000000 		call	_ZNSt6localeD1Ev@PLT
 2164      00
 2165 0080 488D0500 		leaq	24+_ZTCN8UnitTest15MemoryOutStreamE0_So(%rip), %rax
 2165      000000
 2166 0087 4889EF   		movq	%rbp, %rdi
 2167 008a 488903   		movq	%rax, (%rbx)
 2168 008d 488D0500 		leaq	16+_ZTVSt9basic_iosIcSt11char_traitsIcEE(%rip), %rax
 2168      000000
 2169 0094 48898390 		movq	%rax, 144(%rbx)
 2169      000000
 2170 009b 4883C408 		addq	$8, %rsp
 2171              		.cfi_def_cfa_offset 24
 2172 009f 5B       		popq	%rbx
 2173              		.cfi_def_cfa_offset 16
 2174 00a0 5D       		popq	%rbp
 2175              		.cfi_def_cfa_offset 8
 2176 00a1 E9000000 		jmp	_ZNSt8ios_baseD2Ev@PLT
 2176      00
 2177              		.cfi_endproc
 2178              	.LFE1286:
 2180              		.section	.text._ZN8UnitTest15MemoryOutStreamD0Ev,"axG",@progbits,_ZN8UnitTest15MemoryOutStreamD0Ev
 2181              		.p2align 4,,15
 2182              		.weak	_ZTv0_n24_N8UnitTest15MemoryOutStreamD0Ev
 2184              	_ZTv0_n24_N8UnitTest15MemoryOutStreamD0Ev:
 2185              	.LFB1483:
 2186              		.cfi_startproc
 2187              		.cfi_personality 0x9b,DW.ref.__gxx_personality_v0
 2188              		.cfi_lsda 0x1b,.LLSDA1483
 2189 0000 55       		pushq	%rbp
 2190              		.cfi_def_cfa_offset 16
 2191              		.cfi_offset 6, -16
 2192 0001 53       		pushq	%rbx
 2193              		.cfi_def_cfa_offset 24
 2194              		.cfi_offset 3, -24
 2195 0002 4883EC08 		subq	$8, %rsp
 2196              		.cfi_def_cfa_offset 32
 2197 0006 488B07   		movq	(%rdi), %rax
 2198 0009 480378E8 		addq	-24(%rax), %rdi
 2199 000d 488D0500 		leaq	24+_ZTVN8UnitTest15MemoryOutStreamE(%rip), %rax
 2199      000000
 2200 0014 488907   		movq	%rax, (%rdi)
 2201 0017 4883C028 		addq	$40, %rax
 2202 001b 4889FB   		movq	%rdi, %rbx
 2203 001e 48898790 		movq	%rax, 144(%rdi)
 2203      000000
 2204 0025 488B7F70 		movq	112(%rdi), %rdi
 2205 0029 488D8380 		leaq	128(%rbx), %rax
 2205      000000
 2206 0030 4839C7   		cmpq	%rax, %rdi
 2207 0033 7405     		je	.L149
 2208 0035 E8000000 		call	_ZdlPv@PLT
 2208      00
 2209              	.L149:
 2210 003a 488D0500 		leaq	24+_ZTCN8UnitTest15MemoryOutStreamE0_NSt7__cxx1119basic_ostringstreamIcSt11char_traitsIcESaIc
 2210      000000
 2211 0041 488B7B50 		movq	80(%rbx), %rdi
 2212 0045 488DAB90 		leaq	144(%rbx), %rbp
 2212      000000
 2213 004c 488903   		movq	%rax, (%rbx)
 2214 004f 4883C028 		addq	$40, %rax
 2215 0053 48898390 		movq	%rax, 144(%rbx)
 2215      000000
 2216 005a 488D0500 		leaq	16+_ZTVNSt7__cxx1115basic_stringbufIcSt11char_traitsIcESaIcEEE(%rip), %rax
 2216      000000
 2217 0061 48894308 		movq	%rax, 8(%rbx)
 2218 0065 488D4360 		leaq	96(%rbx), %rax
 2219 0069 4839C7   		cmpq	%rax, %rdi
 2220 006c 7405     		je	.L150
 2221 006e E8000000 		call	_ZdlPv@PLT
 2221      00
 2222              	.L150:
 2223 0073 488D0500 		leaq	16+_ZTVSt15basic_streambufIcSt11char_traitsIcEE(%rip), %rax
 2223      000000
 2224 007a 488D7B40 		leaq	64(%rbx), %rdi
 2225 007e 48894308 		movq	%rax, 8(%rbx)
 2226 0082 E8000000 		call	_ZNSt6localeD1Ev@PLT
 2226      00
 2227 0087 488D0500 		leaq	24+_ZTCN8UnitTest15MemoryOutStreamE0_So(%rip), %rax
 2227      000000
 2228 008e 4889EF   		movq	%rbp, %rdi
 2229 0091 488903   		movq	%rax, (%rbx)
 2230 0094 488D0500 		leaq	16+_ZTVSt9basic_iosIcSt11char_traitsIcEE(%rip), %rax
 2230      000000
 2231 009b 48898390 		movq	%rax, 144(%rbx)
 2231      000000
 2232              	.LEHB54:
 2233 00a2 E8000000 		call	_ZNSt8ios_baseD2Ev@PLT
 2233      00
 2234              	.LEHE54:
 2235 00a7 4883C408 		addq	$8, %rsp
 2236              		.cfi_remember_state
 2237              		.cfi_def_cfa_offset 24
 2238 00ab 4889DF   		movq	%rbx, %rdi
 2239 00ae 5B       		popq	%rbx
 2240              		.cfi_def_cfa_offset 16
 2241 00af 5D       		popq	%rbp
 2242              		.cfi_def_cfa_offset 8
 2243 00b0 E9000000 		jmp	_ZdlPv@PLT
 2243      00
 2244              	.L152:
 2245              		.cfi_restore_state
 2246 00b5 4889C5   		movq	%rax, %rbp
 2247 00b8 4889DF   		movq	%rbx, %rdi
 2248 00bb E8000000 		call	_ZdlPv@PLT
 2248      00
 2249 00c0 4889EF   		movq	%rbp, %rdi
 2250              	.LEHB55:
 2251 00c3 E8000000 		call	_Unwind_Resume@PLT
 2251      00
 2252              	.LEHE55:
 2253              		.cfi_endproc
 2254              	.LFE1483:
 2255              		.section	.gcc_except_table
 2256              	.LLSDA1483:
 2257 0144 FF       		.byte	0xff
 2258 0145 FF       		.byte	0xff
 2259 0146 01       		.byte	0x1
 2260 0147 0B       		.uleb128 .LLSDACSE1483-.LLSDACSB1483
 2261              	.LLSDACSB1483:
 2262 0148 A201     		.uleb128 .LEHB54-.LFB1483
 2263 014a 05       		.uleb128 .LEHE54-.LEHB54
 2264 014b B501     		.uleb128 .L152-.LFB1483
 2265 014d 00       		.uleb128 0
 2266 014e C301     		.uleb128 .LEHB55-.LFB1483
 2267 0150 05       		.uleb128 .LEHE55-.LEHB55
 2268 0151 00       		.uleb128 0
 2269 0152 00       		.uleb128 0
 2270              	.LLSDACSE1483:
 2271              		.section	.text._ZN8UnitTest15MemoryOutStreamD0Ev,"axG",@progbits,_ZN8UnitTest15MemoryOutStreamD0Ev
 2273              		.section	.text._ZN8UnitTest15MemoryOutStreamD1Ev,"axG",@progbits,_ZN8UnitTest15MemoryOutStreamD1Ev
 2274 00a6 662E0F1F 		.p2align 4,,15
 2274      84000000 
 2274      0000
 2275              		.weak	_ZTv0_n24_N8UnitTest15MemoryOutStreamD1Ev
 2277              	_ZTv0_n24_N8UnitTest15MemoryOutStreamD1Ev:
 2278              	.LFB1484:
 2279              		.cfi_startproc
 2280 00b0 55       		pushq	%rbp
 2281              		.cfi_def_cfa_offset 16
 2282              		.cfi_offset 6, -16
 2283 00b1 53       		pushq	%rbx
 2284              		.cfi_def_cfa_offset 24
 2285              		.cfi_offset 3, -24
 2286 00b2 4883EC08 		subq	$8, %rsp
 2287              		.cfi_def_cfa_offset 32
 2288 00b6 488B07   		movq	(%rdi), %rax
 2289 00b9 480378E8 		addq	-24(%rax), %rdi
 2290 00bd 488D0500 		leaq	24+_ZTVN8UnitTest15MemoryOutStreamE(%rip), %rax
 2290      000000
 2291 00c4 488907   		movq	%rax, (%rdi)
 2292 00c7 4883C028 		addq	$40, %rax
 2293 00cb 4889FB   		movq	%rdi, %rbx
 2294 00ce 48898790 		movq	%rax, 144(%rdi)
 2294      000000
 2295 00d5 488B7F70 		movq	112(%rdi), %rdi
 2296 00d9 488D8380 		leaq	128(%rbx), %rax
 2296      000000
 2297 00e0 4839C7   		cmpq	%rax, %rdi
 2298 00e3 7405     		je	.L155
 2299 00e5 E8000000 		call	_ZdlPv@PLT
 2299      00
 2300              	.L155:
 2301 00ea 488D0500 		leaq	24+_ZTCN8UnitTest15MemoryOutStreamE0_NSt7__cxx1119basic_ostringstreamIcSt11char_traitsIcESaIc
 2301      000000
 2302 00f1 488B7B50 		movq	80(%rbx), %rdi
 2303 00f5 488DAB90 		leaq	144(%rbx), %rbp
 2303      000000
 2304 00fc 488903   		movq	%rax, (%rbx)
 2305 00ff 4883C028 		addq	$40, %rax
 2306 0103 48898390 		movq	%rax, 144(%rbx)
 2306      000000
 2307 010a 488D0500 		leaq	16+_ZTVNSt7__cxx1115basic_stringbufIcSt11char_traitsIcESaIcEEE(%rip), %rax
 2307      000000
 2308 0111 48894308 		movq	%rax, 8(%rbx)
 2309 0115 488D4360 		leaq	96(%rbx), %rax
 2310 0119 4839C7   		cmpq	%rax, %rdi
 2311 011c 7405     		je	.L156
 2312 011e E8000000 		call	_ZdlPv@PLT
 2312      00
 2313              	.L156:
 2314 0123 488D0500 		leaq	16+_ZTVSt15basic_streambufIcSt11char_traitsIcEE(%rip), %rax
 2314      000000
 2315 012a 488D7B40 		leaq	64(%rbx), %rdi
 2316 012e 48894308 		movq	%rax, 8(%rbx)
 2317 0132 E8000000 		call	_ZNSt6localeD1Ev@PLT
 2317      00
 2318 0137 488D0500 		leaq	24+_ZTCN8UnitTest15MemoryOutStreamE0_So(%rip), %rax
 2318      000000
 2319 013e 4889EF   		movq	%rbp, %rdi
 2320 0141 488903   		movq	%rax, (%rbx)
 2321 0144 488D0500 		leaq	16+_ZTVSt9basic_iosIcSt11char_traitsIcEE(%rip), %rax
 2321      000000
 2322 014b 48898390 		movq	%rax, 144(%rbx)
 2322      000000
 2323 0152 4883C408 		addq	$8, %rsp
 2324              		.cfi_def_cfa_offset 24
 2325 0156 5B       		popq	%rbx
 2326              		.cfi_def_cfa_offset 16
 2327 0157 5D       		popq	%rbp
 2328              		.cfi_def_cfa_offset 8
 2329 0158 E9000000 		jmp	_ZNSt8ios_baseD2Ev@PLT
 2329      00
 2330              		.cfi_endproc
 2331              	.LFE1484:
 2333              		.section	.text._ZN8UnitTest15MemoryOutStreamD0Ev,"axG",@progbits,_ZN8UnitTest15MemoryOutStreamD0Ev
 2334              		.align 2
 2335 00c8 0F1F8400 		.p2align 4,,15
 2335      00000000 
 2336              		.weak	_ZN8UnitTest15MemoryOutStreamD0Ev
 2338              	_ZN8UnitTest15MemoryOutStreamD0Ev:
 2339              	.LFB1287:
 2340              		.cfi_startproc
 2341              		.cfi_personality 0x9b,DW.ref.__gxx_personality_v0
 2342              		.cfi_lsda 0x1b,.LLSDA1287
 2343 00d0 55       		pushq	%rbp
 2344              		.cfi_def_cfa_offset 16
 2345              		.cfi_offset 6, -16
 2346 00d1 488D0500 		leaq	24+_ZTVN8UnitTest15MemoryOutStreamE(%rip), %rax
 2346      000000
 2347 00d8 53       		pushq	%rbx
 2348              		.cfi_def_cfa_offset 24
 2349              		.cfi_offset 3, -24
 2350 00d9 4889FB   		movq	%rdi, %rbx
 2351 00dc 4883EC08 		subq	$8, %rsp
 2352              		.cfi_def_cfa_offset 32
 2353 00e0 488907   		movq	%rax, (%rdi)
 2354 00e3 4883C028 		addq	$40, %rax
 2355 00e7 48898790 		movq	%rax, 144(%rdi)
 2355      000000
 2356 00ee 488B7F70 		movq	112(%rdi), %rdi
 2357 00f2 488D8380 		leaq	128(%rbx), %rax
 2357      000000
 2358 00f9 4839C7   		cmpq	%rax, %rdi
 2359 00fc 7405     		je	.L159
 2360 00fe E8000000 		call	_ZdlPv@PLT
 2360      00
 2361              	.L159:
 2362 0103 488D0500 		leaq	24+_ZTCN8UnitTest15MemoryOutStreamE0_NSt7__cxx1119basic_ostringstreamIcSt11char_traitsIcESaIc
 2362      000000
 2363 010a 488B7B50 		movq	80(%rbx), %rdi
 2364 010e 488DAB90 		leaq	144(%rbx), %rbp
 2364      000000
 2365 0115 488903   		movq	%rax, (%rbx)
 2366 0118 4883C028 		addq	$40, %rax
 2367 011c 48898390 		movq	%rax, 144(%rbx)
 2367      000000
 2368 0123 488D0500 		leaq	16+_ZTVNSt7__cxx1115basic_stringbufIcSt11char_traitsIcESaIcEEE(%rip), %rax
 2368      000000
 2369 012a 48894308 		movq	%rax, 8(%rbx)
 2370 012e 488D4360 		leaq	96(%rbx), %rax
 2371 0132 4839C7   		cmpq	%rax, %rdi
 2372 0135 7405     		je	.L160
 2373 0137 E8000000 		call	_ZdlPv@PLT
 2373      00
 2374              	.L160:
 2375 013c 488D0500 		leaq	16+_ZTVSt15basic_streambufIcSt11char_traitsIcEE(%rip), %rax
 2375      000000
 2376 0143 488D7B40 		leaq	64(%rbx), %rdi
 2377 0147 48894308 		movq	%rax, 8(%rbx)
 2378 014b E8000000 		call	_ZNSt6localeD1Ev@PLT
 2378      00
 2379 0150 488D0500 		leaq	24+_ZTCN8UnitTest15MemoryOutStreamE0_So(%rip), %rax
 2379      000000
 2380 0157 4889EF   		movq	%rbp, %rdi
 2381 015a 488903   		movq	%rax, (%rbx)
 2382 015d 488D0500 		leaq	16+_ZTVSt9basic_iosIcSt11char_traitsIcEE(%rip), %rax
 2382      000000
 2383 0164 48898390 		movq	%rax, 144(%rbx)
 2383      000000
 2384              	.LEHB56:
 2385 016b E8000000 		call	_ZNSt8ios_baseD2Ev@PLT
 2385      00
 2386              	.LEHE56:
 2387 0170 4883C408 		addq	$8, %rsp
 2388              		.cfi_remember_state
 2389              		.cfi_def_cfa_offset 24
 2390 0174 4889DF   		movq	%rbx, %rdi
 2391 0177 5B       		popq	%rbx
 2392              		.cfi_def_cfa_offset 16
 2393 0178 5D       		popq	%rbp
 2394              		.cfi_def_cfa_offset 8
 2395 0179 E9000000 		jmp	_ZdlPv@PLT
 2395      00
 2396              	.L162:
 2397              		.cfi_restore_state
 2398 017e 4889C5   		movq	%rax, %rbp
 2399 0181 4889DF   		movq	%rbx, %rdi
 2400 0184 E8000000 		call	_ZdlPv@PLT
 2400      00
 2401 0189 4889EF   		movq	%rbp, %rdi
 2402              	.LEHB57:
 2403 018c E8000000 		call	_Unwind_Resume@PLT
 2403      00
 2404              	.LEHE57:
 2405              		.cfi_endproc
 2406              	.LFE1287:
 2407              		.section	.gcc_except_table
 2408              	.LLSDA1287:
 2409 0153 FF       		.byte	0xff
 2410 0154 FF       		.byte	0xff
 2411 0155 01       		.byte	0x1
 2412 0156 0B       		.uleb128 .LLSDACSE1287-.LLSDACSB1287
 2413              	.LLSDACSB1287:
 2414 0157 9B01     		.uleb128 .LEHB56-.LFB1287
 2415 0159 05       		.uleb128 .LEHE56-.LEHB56
 2416 015a AE01     		.uleb128 .L162-.LFB1287
 2417 015c 00       		.uleb128 0
 2418 015d BC01     		.uleb128 .LEHB57-.LFB1287
 2419 015f 05       		.uleb128 .LEHE57-.LEHB57
 2420 0160 00       		.uleb128 0
 2421 0161 00       		.uleb128 0
 2422              	.LLSDACSE1287:
 2423              		.section	.text._ZN8UnitTest15MemoryOutStreamD0Ev,"axG",@progbits,_ZN8UnitTest15MemoryOutStreamD0Ev
 2425              		.section	.text._ZNSt7__cxx1115basic_stringbufIcSt11char_traitsIcESaIcEED2Ev,"axG",@progbits,_ZNSt7
 2426              		.align 2
 2427              		.p2align 4,,15
 2428              		.weak	_ZNSt7__cxx1115basic_stringbufIcSt11char_traitsIcESaIcEED2Ev
 2430              	_ZNSt7__cxx1115basic_stringbufIcSt11char_traitsIcESaIcEED2Ev:
 2431              	.LFB1265:
 2432              		.cfi_startproc
 2433 0000 488D0500 		leaq	16+_ZTVNSt7__cxx1115basic_stringbufIcSt11char_traitsIcESaIcEEE(%rip), %rax
 2433      000000
 2434 0007 53       		pushq	%rbx
 2435              		.cfi_def_cfa_offset 16
 2436              		.cfi_offset 3, -16
 2437 0008 4889FB   		movq	%rdi, %rbx
 2438 000b 488907   		movq	%rax, (%rdi)
 2439 000e 488B7F48 		movq	72(%rdi), %rdi
 2440 0012 488D4358 		leaq	88(%rbx), %rax
 2441 0016 4839C7   		cmpq	%rax, %rdi
 2442 0019 7405     		je	.L165
 2443 001b E8000000 		call	_ZdlPv@PLT
 2443      00
 2444              	.L165:
 2445 0020 488D0500 		leaq	16+_ZTVSt15basic_streambufIcSt11char_traitsIcEE(%rip), %rax
 2445      000000
 2446 0027 488D7B38 		leaq	56(%rbx), %rdi
 2447 002b 488903   		movq	%rax, (%rbx)
 2448 002e 5B       		popq	%rbx
 2449              		.cfi_def_cfa_offset 8
 2450 002f E9000000 		jmp	_ZNSt6localeD1Ev@PLT
 2450      00
 2451              		.cfi_endproc
 2452              	.LFE1265:
 2454              		.weak	_ZNSt7__cxx1115basic_stringbufIcSt11char_traitsIcESaIcEED1Ev
 2455              		.set	_ZNSt7__cxx1115basic_stringbufIcSt11char_traitsIcESaIcEED1Ev,_ZNSt7__cxx1115basic_stringbufIc
 2456              		.section	.rodata.str1.8,"aMS",@progbits,1
 2457              		.align 8
 2458              	.LC0:
 2459 0000 556E6861 		.string	"Unhandled exception in CHECK_CLOSE(0.5, 0.5)"
 2459      6E646C65 
 2459      64206578 
 2459      63657074 
 2459      696F6E20 
 2460              		.text
 2461 0819 90       		.align 2
 2462 081a 660F1F44 		.p2align 4,,15
 2462      0000
 2464              	_ZNK12_GLOBAL__N_133TestCheckCloseWithDoublesSucceeds7RunImplEv:
 2465              	.LFB1251:
 2466              		.cfi_startproc
 2467              		.cfi_personality 0x9b,DW.ref.__gxx_personality_v0
 2468              		.cfi_lsda 0x1b,.LLSDA1251
 2469 0820 55       		pushq	%rbp
 2470              		.cfi_def_cfa_offset 16
 2471              		.cfi_offset 6, -16
 2472 0821 53       		pushq	%rbx
 2473              		.cfi_def_cfa_offset 24
 2474              		.cfi_offset 3, -24
 2475 0822 4883EC38 		subq	$56, %rsp
 2476              		.cfi_def_cfa_offset 80
 2477 0826 64488B04 		movq	%fs:40, %rax
 2477      25280000 
 2477      00
 2478 082f 48894424 		movq	%rax, 40(%rsp)
 2478      28
 2479 0834 31C0     		xorl	%eax, %eax
 2480              	.LEHB58:
 2481 0836 E8000000 		call	_ZN8UnitTest11CurrentTest7DetailsEv@PLT
 2481      00
 2482 083b 488B30   		movq	(%rax), %rsi
 2483 083e 4889E7   		movq	%rsp, %rdi
 2484 0841 BA0E0100 		movl	$270, %edx
 2484      00
 2485 0846 E8000000 		call	_ZN8UnitTest11TestDetailsC1ERKS0_i@PLT
 2485      00
 2486 084b E8000000 		call	_ZN8UnitTest11CurrentTest7ResultsEv@PLT
 2486      00
 2487              	.LEHE58:
 2488              	.L167:
 2489 0850 488B4424 		movq	40(%rsp), %rax
 2489      28
 2490 0855 64483304 		xorq	%fs:40, %rax
 2490      25280000 
 2490      00
 2491 085e 7507     		jne	.L175
 2492 0860 4883C438 		addq	$56, %rsp
 2493              		.cfi_remember_state
 2494              		.cfi_def_cfa_offset 24
 2495 0864 5B       		popq	%rbx
 2496              		.cfi_def_cfa_offset 16
 2497 0865 5D       		popq	%rbp
 2498              		.cfi_def_cfa_offset 8
 2499 0866 C3       		ret
 2500              	.L175:
 2501              		.cfi_restore_state
 2502 0867 E8000000 		call	__stack_chk_fail@PLT
 2502      00
 2503              	.L172:
 2504 086c 4889C7   		movq	%rax, %rdi
 2505 086f E8000000 		call	__cxa_begin_catch@PLT
 2505      00
 2506              	.LEHB59:
 2507 0874 E8000000 		call	_ZN8UnitTest11CurrentTest7ResultsEv@PLT
 2507      00
 2508 0879 488B28   		movq	(%rax), %rbp
 2509 087c E8000000 		call	_ZN8UnitTest11CurrentTest7DetailsEv@PLT
 2509      00
 2510 0881 488B30   		movq	(%rax), %rsi
 2511 0884 4889E3   		movq	%rsp, %rbx
 2512 0887 BA0E0100 		movl	$270, %edx
 2512      00
 2513 088c 4889DF   		movq	%rbx, %rdi
 2514 088f E8000000 		call	_ZN8UnitTest11TestDetailsC1ERKS0_i@PLT
 2514      00
 2515 0894 488D1500 		leaq	.LC0(%rip), %rdx
 2515      000000
 2516 089b 4889DE   		movq	%rbx, %rsi
 2517 089e 4889EF   		movq	%rbp, %rdi
 2518 08a1 E8000000 		call	_ZN8UnitTest11TestResults13OnTestFailureERKNS_11TestDetailsEPKc@PLT
 2518      00
 2519              	.LEHE59:
 2520              	.LEHB60:
 2521 08a6 E8000000 		call	__cxa_end_catch@PLT
 2521      00
 2522              	.LEHE60:
 2523 08ab EBA3     		jmp	.L167
 2524              	.L173:
 2525 08ad 4889C3   		movq	%rax, %rbx
 2526 08b0 E8000000 		call	__cxa_end_catch@PLT
 2526      00
 2527 08b5 4889DF   		movq	%rbx, %rdi
 2528              	.LEHB61:
 2529 08b8 E8000000 		call	_Unwind_Resume@PLT
 2529      00
 2530              	.LEHE61:
 2531              		.cfi_endproc
 2532              	.LFE1251:
 2533              		.section	.gcc_except_table
 2534 0162 0000     		.align 4
 2535              	.LLSDA1251:
 2536 0164 FF       		.byte	0xff
 2537 0165 9B       		.byte	0x9b
 2538 0166 1D       		.uleb128 .LLSDATT1251-.LLSDATTD1251
 2539              	.LLSDATTD1251:
 2540 0167 01       		.byte	0x1
 2541 0168 13       		.uleb128 .LLSDACSE1251-.LLSDACSB1251
 2542              	.LLSDACSB1251:
 2543 0169 16       		.uleb128 .LEHB58-.LFB1251
 2544 016a 1A       		.uleb128 .LEHE58-.LEHB58
 2545 016b 4C       		.uleb128 .L172-.LFB1251
 2546 016c 01       		.uleb128 0x1
 2547 016d 54       		.uleb128 .LEHB59-.LFB1251
 2548 016e 32       		.uleb128 .LEHE59-.LEHB59
 2549 016f 8D01     		.uleb128 .L173-.LFB1251
 2550 0171 00       		.uleb128 0
 2551 0172 8601     		.uleb128 .LEHB60-.LFB1251
 2552 0174 05       		.uleb128 .LEHE60-.LEHB60
 2553 0175 00       		.uleb128 0
 2554 0176 00       		.uleb128 0
 2555 0177 9801     		.uleb128 .LEHB61-.LFB1251
 2556 0179 05       		.uleb128 .LEHE61-.LEHB61
 2557 017a 00       		.uleb128 0
 2558 017b 00       		.uleb128 0
 2559              	.LLSDACSE1251:
 2560 017c 01       		.byte	0x1
 2561 017d 00       		.byte	0
 2562 017e 0000     		.align 4
 2563 0180 00000000 		.long	0
 2564              	
 2565              	.LLSDATT1251:
 2566              		.text
 2568              		.section	.rodata.str1.1,"aMS",@progbits,1
 2569              	.LC1:
 2570 0000 00       		.string	""
 2571              	.LC2:
 2572 0001 45787065 		.string	"Expected "
 2572      63746564 
 2572      2000
 2573              	.LC4:
 2574 000b 202B2F2D 		.string	" +/- "
 2574      2000
 2575              	.LC6:
 2576 0011 20627574 		.string	" but was "
 2576      20776173 
 2576      2000
 2577              	.LC8:
 2578 001b 78706563 		.string	"xpected 0.9"
 2578      74656420 
 2578      302E3900 
 2579              		.section	.rodata.str1.8
 2580 002d 000000   		.align 8
 2581              	.LC9:
 2582 0030 73747273 		.string	"strstr(reporter.lastFailedMessage, \"xpected 0.9\")"
 2582      74722872 
 2582      65706F72 
 2582      7465722E 
 2582      6C617374 
 2583              		.section	.rodata.str1.1
 2584              	.LC10:
 2585 0027 77617320 		.string	"was 1.1"
 2585      312E3100 
 2586              		.section	.rodata.str1.8
 2587 0062 00000000 		.align 8
 2587      0000
 2588              	.LC11:
 2589 0068 73747273 		.string	"strstr(reporter.lastFailedMessage, \"was 1.1\")"
 2589      74722872 
 2589      65706F72 
 2589      7465722E 
 2589      6C617374 
 2590 0096 0000     		.align 8
 2591              	.LC12:
 2592 0098 556E6861 		.string	"Unhandled exception in CHECK(strstr(reporter.lastFailedMessage, \"xpected 0.9\"))"
 2592      6E646C65 
 2592      64206578 
 2592      63657074 
 2592      696F6E20 
 2593              		.align 8
 2594              	.LC13:
 2595 00e8 556E6861 		.string	"Unhandled exception in CHECK(strstr(reporter.lastFailedMessage, \"was 1.1\"))"
 2595      6E646C65 
 2595      64206578 
 2595      63657074 
 2595      696F6E20 
 2596              		.text
 2597 08bd 90       		.align 2
 2598 08be 6690     		.p2align 4,,15
 2600              	_ZNK12_GLOBAL__N_151TestCheckCloseFailureIncludesCheckExpectedAndActual7RunImplEv:
 2601              	.LFB1211:
 2602              		.cfi_startproc
 2603              		.cfi_personality 0x9b,DW.ref.__gxx_personality_v0
 2604              		.cfi_lsda 0x1b,.LLSDA1211
 2605 08c0 4157     		pushq	%r15
 2606              		.cfi_def_cfa_offset 16
 2607              		.cfi_offset 15, -16
 2608 08c2 4156     		pushq	%r14
 2609              		.cfi_def_cfa_offset 24
 2610              		.cfi_offset 14, -24
 2611 08c4 4155     		pushq	%r13
 2612              		.cfi_def_cfa_offset 32
 2613              		.cfi_offset 13, -32
 2614 08c6 4154     		pushq	%r12
 2615              		.cfi_def_cfa_offset 40
 2616              		.cfi_offset 12, -40
 2617 08c8 4C8D2D00 		leaq	16+_ZTV17RecordingReporter(%rip), %r13
 2617      000000
 2618 08cf 55       		pushq	%rbp
 2619              		.cfi_def_cfa_offset 48
 2620              		.cfi_offset 6, -48
 2621 08d0 53       		pushq	%rbx
 2622              		.cfi_def_cfa_offset 56
 2623              		.cfi_offset 3, -56
 2624 08d1 4881EC38 		subq	$2616, %rsp
 2624      0A0000
 2625              		.cfi_def_cfa_offset 2672
 2626 08d8 488DAC24 		leaq	496(%rsp), %rbp
 2626      F0010000 
 2627 08e0 4C8D7424 		leaq	16(%rsp), %r14
 2627      10
 2628 08e5 4C89AC24 		movq	%r13, 496(%rsp)
 2628      F0010000 
 2629 08ed 64488B04 		movq	%fs:40, %rax
 2629      25280000 
 2629      00
 2630 08f6 48898424 		movq	%rax, 2600(%rsp)
 2630      280A0000 
 2631 08fe 31C0     		xorl	%eax, %eax
 2632 0900 4889EE   		movq	%rbp, %rsi
 2633 0903 4C89F7   		movq	%r14, %rdi
 2634 0906 C78424F8 		movl	$0, 504(%rsp)
 2634      01000000 
 2634      000000
 2635 0911 C78424FC 		movl	$0, 1020(%rsp)
 2635      03000000 
 2635      000000
 2636 091c C7842400 		movl	$0, 1280(%rsp)
 2636      05000000 
 2636      000000
 2637 0927 C7842404 		movl	$0, 2052(%rsp)
 2637      08000000 
 2637      000000
 2638 0932 48C78424 		movq	$0, 2568(%rsp)
 2638      080A0000 
 2638      00000000 
 2639 093e 48C78424 		movq	$0, 2576(%rsp)
 2639      100A0000 
 2639      00000000 
 2640 094a C7842418 		movl	$0, 2584(%rsp)
 2640      0A000000 
 2640      000000
 2641 0955 C68424FC 		movb	$0, 508(%rsp)
 2641      01000000 
 2642 095d C68424FC 		movb	$0, 764(%rsp)
 2642      02000000 
 2643 0965 C6842400 		movb	$0, 1024(%rsp)
 2643      04000000 
 2644 096d C6842404 		movb	$0, 1284(%rsp)
 2644      05000000 
 2645 0975 C6842404 		movb	$0, 1540(%rsp)
 2645      06000000 
 2646 097d C6842404 		movb	$0, 1796(%rsp)
 2646      07000000 
 2647 0985 C6842408 		movb	$0, 2056(%rsp)
 2647      08000000 
 2648 098d C6842408 		movb	$0, 2312(%rsp)
 2648      09000000 
 2649              	.LEHB62:
 2650 0995 E8000000 		call	_ZN8UnitTest11TestResultsC1EPNS_12TestReporterE@PLT
 2650      00
 2651 099a 488D0D00 		leaq	.LC1(%rip), %rcx
 2651      000000
 2652 09a1 4C8D6424 		leaq	48(%rsp), %r12
 2652      30
 2653 09a6 4531C0   		xorl	%r8d, %r8d
 2654 09a9 4889CA   		movq	%rcx, %rdx
 2655 09ac 4889CE   		movq	%rcx, %rsi
 2656 09af 4C89E7   		movq	%r12, %rdi
 2657 09b2 E8000000 		call	_ZN8UnitTest11TestDetailsC1EPKcS2_S2_i@PLT
 2657      00
 2658              	.LEHE62:
 2659 09b7 488D5C24 		leaq	80(%rsp), %rbx
 2659      50
 2660 09bc 4C8D3D00 		leaq	24+_ZTCN8UnitTest15MemoryOutStreamE0_So(%rip), %r15
 2660      000000
 2661 09c3 488D8390 		leaq	144(%rbx), %rax
 2661      000000
 2662 09ca 4889C7   		movq	%rax, %rdi
 2663 09cd 48894424 		movq	%rax, 8(%rsp)
 2663      08
 2664 09d2 E8000000 		call	_ZNSt8ios_baseC2Ev@PLT
 2664      00
 2665 09d7 498D4728 		leaq	40(%r15), %rax
 2666 09db 31F6     		xorl	%esi, %esi
 2667 09dd 48C78424 		movq	$0, 440(%rsp)
 2667      B8010000 
 2667      00000000 
 2668 09e9 C68424C0 		movb	$0, 448(%rsp)
 2668      01000000 
 2669 09f1 C68424C1 		movb	$0, 449(%rsp)
 2669      01000000 
 2670 09f9 48898424 		movq	%rax, 224(%rsp)
 2670      E0000000 
 2671 0a01 488B4424 		movq	8(%rsp), %rax
 2671      08
 2672 0a06 48C78424 		movq	$0, 456(%rsp)
 2672      C8010000 
 2672      00000000 
 2673 0a12 48C78424 		movq	$0, 464(%rsp)
 2673      D0010000 
 2673      00000000 
 2674 0a1e 48C78424 		movq	$0, 472(%rsp)
 2674      D8010000 
 2674      00000000 
 2675 0a2a 48C78424 		movq	$0, 480(%rsp)
 2675      E0010000 
 2675      00000000 
 2676 0a36 4889C7   		movq	%rax, %rdi
 2677 0a39 4C897C24 		movq	%r15, 80(%rsp)
 2677      50
 2678              	.LEHB63:
 2679 0a3e E8000000 		call	_ZNSt9basic_iosIcSt11char_traitsIcEE4initEPSt15basic_streambufIcS1_E@PLT
 2679      00
 2680              	.LEHE63:
 2681 0a43 488D0500 		leaq	24+_ZTCN8UnitTest15MemoryOutStreamE0_NSt7__cxx1119basic_ostringstreamIcSt11char_traitsIcESaIc
 2681      000000
 2682 0a4a 660FEFC0 		pxor	%xmm0, %xmm0
 2683 0a4e 488D7B40 		leaq	64(%rbx), %rdi
 2684 0a52 48894424 		movq	%rax, 80(%rsp)
 2684      50
 2685 0a57 4883C028 		addq	$40, %rax
 2686 0a5b 48898424 		movq	%rax, 224(%rsp)
 2686      E0000000 
 2687 0a63 488D0500 		leaq	16+_ZTVSt15basic_streambufIcSt11char_traitsIcEE(%rip), %rax
 2687      000000
 2688 0a6a 0F294424 		movaps	%xmm0, 96(%rsp)
 2688      60
 2689 0a6f 48894424 		movq	%rax, 88(%rsp)
 2689      58
 2690 0a74 0F294424 		movaps	%xmm0, 112(%rsp)
 2690      70
 2691 0a79 0F298424 		movaps	%xmm0, 128(%rsp)
 2691      80000000 
 2692 0a81 E8000000 		call	_ZNSt6localeC1Ev@PLT
 2692      00
 2693 0a86 488D0500 		leaq	16+_ZTVNSt7__cxx1115basic_stringbufIcSt11char_traitsIcESaIcEEE(%rip), %rax
 2693      000000
 2694 0a8d 488D7308 		leaq	8(%rbx), %rsi
 2695 0a91 48894424 		movq	%rax, 88(%rsp)
 2695      58
 2696 0a96 488D4360 		leaq	96(%rbx), %rax
 2697 0a9a C7842498 		movl	$16, 152(%rsp)
 2697      00000010 
 2697      000000
 2698 0aa5 48C78424 		movq	$0, 168(%rsp)
 2698      A8000000 
 2698      00000000 
 2699 0ab1 C68424B0 		movb	$0, 176(%rsp)
 2699      00000000 
 2700 0ab9 48898424 		movq	%rax, 160(%rsp)
 2700      A0000000 
 2701 0ac1 488B4424 		movq	80(%rsp), %rax
 2701      50
 2702 0ac6 488B78E8 		movq	-24(%rax), %rdi
 2703 0aca 4801DF   		addq	%rbx, %rdi
 2704              	.LEHB64:
 2705 0acd E8000000 		call	_ZNSt9basic_iosIcSt11char_traitsIcEE4initEPSt15basic_streambufIcS1_E@PLT
 2705      00
 2706              	.LEHE64:
 2707 0ad2 488D0500 		leaq	24+_ZTVN8UnitTest15MemoryOutStreamE(%rip), %rax
 2707      000000
 2708 0ad9 488D3500 		leaq	.LC2(%rip), %rsi
 2708      000000
 2709 0ae0 BA090000 		movl	$9, %edx
 2709      00
 2710 0ae5 4889DF   		movq	%rbx, %rdi
 2711 0ae8 48C78424 		movq	$0, 200(%rsp)
 2711      C8000000 
 2711      00000000 
 2712 0af4 C68424D0 		movb	$0, 208(%rsp)
 2712      00000000 
 2713 0afc 48894424 		movq	%rax, 80(%rsp)
 2713      50
 2714 0b01 4883C028 		addq	$40, %rax
 2715 0b05 48898424 		movq	%rax, 224(%rsp)
 2715      E0000000 
 2716 0b0d 488D8380 		leaq	128(%rbx), %rax
 2716      000000
 2717 0b14 48898424 		movq	%rax, 192(%rsp)
 2717      C0000000 
 2718              	.LEHB65:
 2719 0b1c E8000000 		call	_ZSt16__ostream_insertIcSt11char_traitsIcEERSt13basic_ostreamIT_T0_ES6_PKS3_l@PLT
 2719      00
 2720 0b21 F20F1005 		movsd	.LC3(%rip), %xmm0
 2720      00000000 
 2721 0b29 4889DF   		movq	%rbx, %rdi
 2722 0b2c E8000000 		call	_ZNSo9_M_insertIdEERSoT_@PLT
 2722      00
 2723 0b31 488D3500 		leaq	.LC4(%rip), %rsi
 2723      000000
 2724 0b38 BA050000 		movl	$5, %edx
 2724      00
 2725 0b3d 4889C7   		movq	%rax, %rdi
 2726 0b40 48894424 		movq	%rax, 8(%rsp)
 2726      08
 2727 0b45 E8000000 		call	_ZSt16__ostream_insertIcSt11char_traitsIcEERSt13basic_ostreamIT_T0_ES6_PKS3_l@PLT
 2727      00
 2728 0b4a 488B7C24 		movq	8(%rsp), %rdi
 2728      08
 2729 0b4f F20F1005 		movsd	.LC5(%rip), %xmm0
 2729      00000000 
 2730 0b57 E8000000 		call	_ZNSo9_M_insertIdEERSoT_@PLT
 2730      00
 2731 0b5c 488D3500 		leaq	.LC6(%rip), %rsi
 2731      000000
 2732 0b63 BA090000 		movl	$9, %edx
 2732      00
 2733 0b68 4889C7   		movq	%rax, %rdi
 2734 0b6b 48894424 		movq	%rax, 8(%rsp)
 2734      08
 2735 0b70 E8000000 		call	_ZSt16__ostream_insertIcSt11char_traitsIcEERSt13basic_ostreamIT_T0_ES6_PKS3_l@PLT
 2735      00
 2736 0b75 488B7C24 		movq	8(%rsp), %rdi
 2736      08
 2737 0b7a F20F1005 		movsd	.LC7(%rip), %xmm0
 2737      00000000 
 2738 0b82 E8000000 		call	_ZNSo9_M_insertIdEERSoT_@PLT
 2738      00
 2739 0b87 4889DF   		movq	%rbx, %rdi
 2740 0b8a E8000000 		call	_ZNK8UnitTest15MemoryOutStream7GetTextEv@PLT
 2740      00
 2741 0b8f 4889C2   		movq	%rax, %rdx
 2742 0b92 4C89E6   		movq	%r12, %rsi
 2743 0b95 4C89F7   		movq	%r14, %rdi
 2744 0b98 E8000000 		call	_ZN8UnitTest11TestResults13OnTestFailureERKNS_11TestDetailsEPKc@PLT
 2744      00
 2745              	.LEHE65:
 2746 0b9d 488D0500 		leaq	24+_ZTVN8UnitTest15MemoryOutStreamE(%rip), %rax
 2746      000000
 2747 0ba4 488BBC24 		movq	192(%rsp), %rdi
 2747      C0000000 
 2748 0bac 48894424 		movq	%rax, 80(%rsp)
 2748      50
 2749 0bb1 4883C028 		addq	$40, %rax
 2750 0bb5 48898424 		movq	%rax, 224(%rsp)
 2750      E0000000 
 2751 0bbd 488D8380 		leaq	128(%rbx), %rax
 2751      000000
 2752 0bc4 4839C7   		cmpq	%rax, %rdi
 2753 0bc7 7405     		je	.L182
 2754 0bc9 E8000000 		call	_ZdlPv@PLT
 2754      00
 2755              	.L182:
 2756 0bce 488D0500 		leaq	64+_ZTCN8UnitTest15MemoryOutStreamE0_NSt7__cxx1119basic_ostringstreamIcSt11char_traitsIcESaIc
 2756      000000
 2757 0bd5 488BBC24 		movq	160(%rsp), %rdi
 2757      A0000000 
 2758 0bdd F30F7E05 		movq	.LC14(%rip), %xmm0
 2758      00000000 
 2759 0be5 48898424 		movq	%rax, 224(%rsp)
 2759      E0000000 
 2760 0bed 488D4360 		leaq	96(%rbx), %rax
 2761 0bf1 0F160500 		movhps	.LC15(%rip), %xmm0
 2761      000000
 2762 0bf8 4839C7   		cmpq	%rax, %rdi
 2763 0bfb 0F294424 		movaps	%xmm0, 80(%rsp)
 2763      50
 2764 0c00 7405     		je	.L183
 2765 0c02 E8000000 		call	_ZdlPv@PLT
 2765      00
 2766              	.L183:
 2767 0c07 488D0500 		leaq	16+_ZTVSt15basic_streambufIcSt11char_traitsIcEE(%rip), %rax
 2767      000000
 2768 0c0e 488D7B40 		leaq	64(%rbx), %rdi
 2769 0c12 48894424 		movq	%rax, 88(%rsp)
 2769      58
 2770 0c17 E8000000 		call	_ZNSt6localeD1Ev@PLT
 2770      00
 2771 0c1c 488D0500 		leaq	16+_ZTVSt9basic_iosIcSt11char_traitsIcEE(%rip), %rax
 2771      000000
 2772 0c23 488DBB90 		leaq	144(%rbx), %rdi
 2772      000000
 2773 0c2a 4C897C24 		movq	%r15, 80(%rsp)
 2773      50
 2774 0c2f 48898424 		movq	%rax, 224(%rsp)
 2774      E0000000 
 2775              	.LEHB66:
 2776 0c37 E8000000 		call	_ZNSt8ios_baseD2Ev@PLT
 2776      00
 2777              	.LEHE66:
 2778 0c3c 488DBD14 		leaq	1300(%rbp), %rdi
 2778      050000
 2779 0c43 488D3500 		leaq	.LC8(%rip), %rsi
 2779      000000
 2780 0c4a E8000000 		call	strstr@PLT
 2780      00
 2781 0c4f 4885C0   		testq	%rax, %rax
 2782 0c52 0F849000 		je	.L208
 2782      0000
 2783              	.L185:
 2784 0c58 488DBD14 		leaq	1300(%rbp), %rdi
 2784      050000
 2785 0c5f 488D3500 		leaq	.LC10(%rip), %rsi
 2785      000000
 2786 0c66 E8000000 		call	strstr@PLT
 2786      00
 2787 0c6b 4885C0   		testq	%rax, %rax
 2788 0c6e 7440     		je	.L209
 2789              	.L188:
 2790 0c70 4889EF   		movq	%rbp, %rdi
 2791 0c73 4C89AC24 		movq	%r13, 496(%rsp)
 2791      F0010000 
 2792              	.LEHB67:
 2793 0c7b E8000000 		call	_ZN8UnitTest12TestReporterD2Ev@PLT
 2793      00
 2794              	.LEHE67:
 2795 0c80 488B8424 		movq	2600(%rsp), %rax
 2795      280A0000 
 2796 0c88 64483304 		xorq	%fs:40, %rax
 2796      25280000 
 2796      00
 2797 0c91 0F858500 		jne	.L210
 2797      0000
 2798 0c97 4881C438 		addq	$2616, %rsp
 2798      0A0000
 2799              		.cfi_remember_state
 2800              		.cfi_def_cfa_offset 56
 2801 0c9e 5B       		popq	%rbx
 2802              		.cfi_def_cfa_offset 48
 2803 0c9f 5D       		popq	%rbp
 2804              		.cfi_def_cfa_offset 40
 2805 0ca0 415C     		popq	%r12
 2806              		.cfi_def_cfa_offset 32
 2807 0ca2 415D     		popq	%r13
 2808              		.cfi_def_cfa_offset 24
 2809 0ca4 415E     		popq	%r14
 2810              		.cfi_def_cfa_offset 16
 2811 0ca6 415F     		popq	%r15
 2812              		.cfi_def_cfa_offset 8
 2813 0ca8 C3       		ret
 2814 0ca9 0F1F8000 		.p2align 4,,10
 2814      000000
 2815              		.p2align 3
 2816              	.L209:
 2817              		.cfi_restore_state
 2818              	.LEHB68:
 2819 0cb0 E8000000 		call	_ZN8UnitTest11CurrentTest7ResultsEv@PLT
 2819      00
 2820 0cb5 488B18   		movq	(%rax), %rbx
 2821 0cb8 E8000000 		call	_ZN8UnitTest11CurrentTest7DetailsEv@PLT
 2821      00
 2822 0cbd 488B30   		movq	(%rax), %rsi
 2823 0cc0 BA9C0000 		movl	$156, %edx
 2823      00
 2824 0cc5 4C89E7   		movq	%r12, %rdi
 2825 0cc8 E8000000 		call	_ZN8UnitTest11TestDetailsC1ERKS0_i@PLT
 2825      00
 2826 0ccd 488D1500 		leaq	.LC11(%rip), %rdx
 2826      000000
 2827 0cd4 4C89E6   		movq	%r12, %rsi
 2828 0cd7 4889DF   		movq	%rbx, %rdi
 2829 0cda E8000000 		call	_ZN8UnitTest11TestResults13OnTestFailureERKNS_11TestDetailsEPKc@PLT
 2829      00
 2830              	.LEHE68:
 2831 0cdf EB8F     		jmp	.L188
 2832              		.p2align 4,,10
 2833 0ce1 0F1F8000 		.p2align 3
 2833      000000
 2834              	.L208:
 2835              	.LEHB69:
 2836 0ce8 E8000000 		call	_ZN8UnitTest11CurrentTest7ResultsEv@PLT
 2836      00
 2837 0ced 488B18   		movq	(%rax), %rbx
 2838 0cf0 E8000000 		call	_ZN8UnitTest11CurrentTest7DetailsEv@PLT
 2838      00
 2839 0cf5 488B30   		movq	(%rax), %rsi
 2840 0cf8 BA9B0000 		movl	$155, %edx
 2840      00
 2841 0cfd 4C89E7   		movq	%r12, %rdi
 2842 0d00 E8000000 		call	_ZN8UnitTest11TestDetailsC1ERKS0_i@PLT
 2842      00
 2843 0d05 488D1500 		leaq	.LC9(%rip), %rdx
 2843      000000
 2844 0d0c 4C89E6   		movq	%r12, %rsi
 2845 0d0f 4889DF   		movq	%rbx, %rdi
 2846 0d12 E8000000 		call	_ZN8UnitTest11TestResults13OnTestFailureERKNS_11TestDetailsEPKc@PLT
 2846      00
 2847              	.LEHE69:
 2848 0d17 E93CFFFF 		jmp	.L185
 2848      FF
 2849              	.L210:
 2850 0d1c E8000000 		call	__stack_chk_fail@PLT
 2850      00
 2851              	.L197:
 2852 0d21 4889C7   		movq	%rax, %rdi
 2853 0d24 E8000000 		call	__cxa_begin_catch@PLT
 2853      00
 2854              	.LEHB70:
 2855 0d29 E8000000 		call	_ZN8UnitTest11CurrentTest7ResultsEv@PLT
 2855      00
 2856 0d2e 488B18   		movq	(%rax), %rbx
 2857 0d31 E8000000 		call	_ZN8UnitTest11CurrentTest7DetailsEv@PLT
 2857      00
 2858 0d36 488B30   		movq	(%rax), %rsi
 2859 0d39 BA9B0000 		movl	$155, %edx
 2859      00
 2860 0d3e 4C89E7   		movq	%r12, %rdi
 2861 0d41 E8000000 		call	_ZN8UnitTest11TestDetailsC1ERKS0_i@PLT
 2861      00
 2862 0d46 488D1500 		leaq	.LC12(%rip), %rdx
 2862      000000
 2863 0d4d 4C89E6   		movq	%r12, %rsi
 2864 0d50 4889DF   		movq	%rbx, %rdi
 2865 0d53 E8000000 		call	_ZN8UnitTest11TestResults13OnTestFailureERKNS_11TestDetailsEPKc@PLT
 2865      00
 2866              	.LEHE70:
 2867              	.LEHB71:
 2868 0d58 E8000000 		call	__cxa_end_catch@PLT
 2868      00
 2869              	.LEHE71:
 2870 0d5d E9F6FEFF 		jmp	.L185
 2870      FF
 2871              	.L196:
 2872 0d62 4889C3   		movq	%rax, %rbx
 2873              	.L181:
 2874 0d65 4889EF   		movq	%rbp, %rdi
 2875 0d68 4C89AC24 		movq	%r13, 496(%rsp)
 2875      F0010000 
 2876 0d70 E8000000 		call	_ZN8UnitTest12TestReporterD2Ev@PLT
 2876      00
 2877 0d75 4889DF   		movq	%rbx, %rdi
 2878              	.LEHB72:
 2879 0d78 E8000000 		call	_Unwind_Resume@PLT
 2879      00
 2880              	.LEHE72:
 2881              	.L198:
 2882 0d7d 4889C3   		movq	%rax, %rbx
 2883 0d80 E8000000 		call	__cxa_end_catch@PLT
 2883      00
 2884 0d85 EBDE     		jmp	.L181
 2885              	.L203:
 2886 0d87 488D7B08 		leaq	8(%rbx), %rdi
 2887 0d8b 4989C4   		movq	%rax, %r12
 2888 0d8e E8000000 		call	_ZNSt7__cxx1115basic_stringbufIcSt11char_traitsIcESaIcEED1Ev
 2888      00
 2889 0d93 4C897C24 		movq	%r15, 80(%rsp)
 2889      50
 2890              	.L179:
 2891 0d98 488D0500 		leaq	16+_ZTVSt9basic_iosIcSt11char_traitsIcEE(%rip), %rax
 2891      000000
 2892 0d9f 488DBB90 		leaq	144(%rbx), %rdi
 2892      000000
 2893 0da6 4C89E3   		movq	%r12, %rbx
 2894 0da9 48898424 		movq	%rax, 224(%rsp)
 2894      E0000000 
 2895 0db1 E8000000 		call	_ZNSt8ios_baseD2Ev@PLT
 2895      00
 2896 0db6 EBAD     		jmp	.L181
 2897              	.L202:
 2898 0db8 4989C4   		movq	%rax, %r12
 2899 0dbb EBDB     		jmp	.L179
 2900              	.L199:
 2901 0dbd 4889C7   		movq	%rax, %rdi
 2902 0dc0 E8000000 		call	__cxa_begin_catch@PLT
 2902      00
 2903              	.LEHB73:
 2904 0dc5 E8000000 		call	_ZN8UnitTest11CurrentTest7ResultsEv@PLT
 2904      00
 2905 0dca 488B18   		movq	(%rax), %rbx
 2906 0dcd E8000000 		call	_ZN8UnitTest11CurrentTest7DetailsEv@PLT
 2906      00
 2907 0dd2 488B30   		movq	(%rax), %rsi
 2908 0dd5 BA9C0000 		movl	$156, %edx
 2908      00
 2909 0dda 4C89E7   		movq	%r12, %rdi
 2910 0ddd E8000000 		call	_ZN8UnitTest11TestDetailsC1ERKS0_i@PLT
 2910      00
 2911 0de2 488D1500 		leaq	.LC13(%rip), %rdx
 2911      000000
 2912 0de9 4C89E6   		movq	%r12, %rsi
 2913 0dec 4889DF   		movq	%rbx, %rdi
 2914 0def E8000000 		call	_ZN8UnitTest11TestResults13OnTestFailureERKNS_11TestDetailsEPKc@PLT
 2914      00
 2915              	.LEHE73:
 2916              	.LEHB74:
 2917 0df4 E8000000 		call	__cxa_end_catch@PLT
 2917      00
 2918              	.LEHE74:
 2919 0df9 E972FEFF 		jmp	.L188
 2919      FF
 2920              	.L201:
 2921 0dfe 4989C4   		movq	%rax, %r12
 2922 0e01 4889DF   		movq	%rbx, %rdi
 2923 0e04 E8000000 		call	_ZN8UnitTest15MemoryOutStreamD1Ev
 2923      00
 2924 0e09 4C89E3   		movq	%r12, %rbx
 2925 0e0c E954FFFF 		jmp	.L181
 2925      FF
 2926              	.L200:
 2927 0e11 4889C3   		movq	%rax, %rbx
 2928 0e14 E8000000 		call	__cxa_end_catch@PLT
 2928      00
 2929 0e19 E947FFFF 		jmp	.L181
 2929      FF
 2930              		.cfi_endproc
 2931              	.LFE1211:
 2932              		.section	.gcc_except_table
 2933              		.align 4
 2934              	.LLSDA1211:
 2935 0184 FF       		.byte	0xff
 2936 0185 9B       		.byte	0x9b
 2937 0186 55       		.uleb128 .LLSDATT1211-.LLSDATTD1211
 2938              	.LLSDATTD1211:
 2939 0187 01       		.byte	0x1
 2940 0188 4D       		.uleb128 .LLSDACSE1211-.LLSDACSB1211
 2941              	.LLSDACSB1211:
 2942 0189 D501     		.uleb128 .LEHB62-.LFB1211
 2943 018b 22       		.uleb128 .LEHE62-.LEHB62
 2944 018c A209     		.uleb128 .L196-.LFB1211
 2945 018e 00       		.uleb128 0
 2946 018f FE02     		.uleb128 .LEHB63-.LFB1211
 2947 0191 05       		.uleb128 .LEHE63-.LEHB63
 2948 0192 F809     		.uleb128 .L202-.LFB1211
 2949 0194 00       		.uleb128 0
 2950 0195 8D04     		.uleb128 .LEHB64-.LFB1211
 2951 0197 05       		.uleb128 .LEHE64-.LEHB64
 2952 0198 C709     		.uleb128 .L203-.LFB1211
 2953 019a 00       		.uleb128 0
 2954 019b DC04     		.uleb128 .LEHB65-.LFB1211
 2955 019d 8101     		.uleb128 .LEHE65-.LEHB65
 2956 019f BE0A     		.uleb128 .L201-.LFB1211
 2957 01a1 00       		.uleb128 0
 2958 01a2 F706     		.uleb128 .LEHB66-.LFB1211
 2959 01a4 05       		.uleb128 .LEHE66-.LEHB66
 2960 01a5 A209     		.uleb128 .L196-.LFB1211
 2961 01a7 00       		.uleb128 0
 2962 01a8 BB07     		.uleb128 .LEHB67-.LFB1211
 2963 01aa 05       		.uleb128 .LEHE67-.LEHB67
 2964 01ab 00       		.uleb128 0
 2965 01ac 00       		.uleb128 0
 2966 01ad F007     		.uleb128 .LEHB68-.LFB1211
 2967 01af 2F       		.uleb128 .LEHE68-.LEHB68
 2968 01b0 FD09     		.uleb128 .L199-.LFB1211
 2969 01b2 01       		.uleb128 0x1
 2970 01b3 A808     		.uleb128 .LEHB69-.LFB1211
 2971 01b5 2F       		.uleb128 .LEHE69-.LEHB69
 2972 01b6 E108     		.uleb128 .L197-.LFB1211
 2973 01b8 01       		.uleb128 0x1
 2974 01b9 E908     		.uleb128 .LEHB70-.LFB1211
 2975 01bb 2F       		.uleb128 .LEHE70-.LEHB70
 2976 01bc BD09     		.uleb128 .L198-.LFB1211
 2977 01be 00       		.uleb128 0
 2978 01bf 9809     		.uleb128 .LEHB71-.LFB1211
 2979 01c1 05       		.uleb128 .LEHE71-.LEHB71
 2980 01c2 A209     		.uleb128 .L196-.LFB1211
 2981 01c4 00       		.uleb128 0
 2982 01c5 B809     		.uleb128 .LEHB72-.LFB1211
 2983 01c7 05       		.uleb128 .LEHE72-.LEHB72
 2984 01c8 00       		.uleb128 0
 2985 01c9 00       		.uleb128 0
 2986 01ca 850A     		.uleb128 .LEHB73-.LFB1211
 2987 01cc 2F       		.uleb128 .LEHE73-.LEHB73
 2988 01cd D10A     		.uleb128 .L200-.LFB1211
 2989 01cf 00       		.uleb128 0
 2990 01d0 B40A     		.uleb128 .LEHB74-.LFB1211
 2991 01d2 05       		.uleb128 .LEHE74-.LEHB74
 2992 01d3 A209     		.uleb128 .L196-.LFB1211
 2993 01d5 00       		.uleb128 0
 2994              	.LLSDACSE1211:
 2995 01d6 01       		.byte	0x1
 2996 01d7 00       		.byte	0
 2997              		.align 4
 2998 01d8 00000000 		.long	0
 2999              	
 3000              	.LLSDATT1211:
 3001              		.text
 3003              		.section	.rodata.str1.8
 3004 0134 00000000 		.align 8
 3005              	.LC16:
 3006 0138 556E6861 		.string	"Unhandled exception in CHECK_EQUAL(something, something)"
 3006      6E646C65 
 3006      64206578 
 3006      63657074 
 3006      696F6E20 
 3007              		.text
 3008              		.align 2
 3009 0e1e 6690     		.p2align 4,,15
 3011              	_ZNK12_GLOBAL__N_130TestCheckEqualWithUnsignedLong7RunImplEv:
 3012              	.LFB1155:
 3013              		.cfi_startproc
 3014              		.cfi_personality 0x9b,DW.ref.__gxx_personality_v0
 3015              		.cfi_lsda 0x1b,.LLSDA1155
 3016 0e20 55       		pushq	%rbp
 3017              		.cfi_def_cfa_offset 16
 3018              		.cfi_offset 6, -16
 3019 0e21 53       		pushq	%rbx
 3020              		.cfi_def_cfa_offset 24
 3021              		.cfi_offset 3, -24
 3022 0e22 31F6     		xorl	%esi, %esi
 3023 0e24 4883EC58 		subq	$88, %rsp
 3024              		.cfi_def_cfa_offset 112
 3025 0e28 4889E7   		movq	%rsp, %rdi
 3026 0e2b 64488B04 		movq	%fs:40, %rax
 3026      25280000 
 3026      00
 3027 0e34 48894424 		movq	%rax, 72(%rsp)
 3027      48
 3028 0e39 31C0     		xorl	%eax, %eax
 3029              	.LEHB75:
 3030 0e3b E8000000 		call	_ZN8UnitTest11TestResultsC1EPNS_12TestReporterE@PLT
 3030      00
 3031              	.LEHE75:
 3032              	.LEHB76:
 3033 0e40 E8000000 		call	_ZN8UnitTest11CurrentTest7DetailsEv@PLT
 3033      00
 3034 0e45 488B30   		movq	(%rax), %rsi
 3035 0e48 488D7C24 		leaq	32(%rsp), %rdi
 3035      20
 3036 0e4d BA0E0000 		movl	$14, %edx
 3036      00
 3037 0e52 E8000000 		call	_ZN8UnitTest11TestDetailsC1ERKS0_i@PLT
 3037      00
 3038 0e57 E8000000 		call	_ZN8UnitTest11CurrentTest7ResultsEv@PLT
 3038      00
 3039              	.LEHE76:
 3040              	.L211:
 3041 0e5c 488B4424 		movq	72(%rsp), %rax
 3041      48
 3042 0e61 64483304 		xorq	%fs:40, %rax
 3042      25280000 
 3042      00
 3043 0e6a 7507     		jne	.L219
 3044 0e6c 4883C458 		addq	$88, %rsp
 3045              		.cfi_remember_state
 3046              		.cfi_def_cfa_offset 24
 3047 0e70 5B       		popq	%rbx
 3048              		.cfi_def_cfa_offset 16
 3049 0e71 5D       		popq	%rbp
 3050              		.cfi_def_cfa_offset 8
 3051 0e72 C3       		ret
 3052              	.L219:
 3053              		.cfi_restore_state
 3054 0e73 E8000000 		call	__stack_chk_fail@PLT
 3054      00
 3055              	.L216:
 3056 0e78 4889C7   		movq	%rax, %rdi
 3057 0e7b E8000000 		call	__cxa_begin_catch@PLT
 3057      00
 3058              	.LEHB77:
 3059 0e80 E8000000 		call	_ZN8UnitTest11CurrentTest7ResultsEv@PLT
 3059      00
 3060 0e85 488B28   		movq	(%rax), %rbp
 3061 0e88 E8000000 		call	_ZN8UnitTest11CurrentTest7DetailsEv@PLT
 3061      00
 3062 0e8d 488D5C24 		leaq	32(%rsp), %rbx
 3062      20
 3063 0e92 488B30   		movq	(%rax), %rsi
 3064 0e95 BA0E0000 		movl	$14, %edx
 3064      00
 3065 0e9a 4889DF   		movq	%rbx, %rdi
 3066 0e9d E8000000 		call	_ZN8UnitTest11TestDetailsC1ERKS0_i@PLT
 3066      00
 3067 0ea2 488D1500 		leaq	.LC16(%rip), %rdx
 3067      000000
 3068 0ea9 4889DE   		movq	%rbx, %rsi
 3069 0eac 4889EF   		movq	%rbp, %rdi
 3070 0eaf E8000000 		call	_ZN8UnitTest11TestResults13OnTestFailureERKNS_11TestDetailsEPKc@PLT
 3070      00
 3071              	.LEHE77:
 3072              	.LEHB78:
 3073 0eb4 E8000000 		call	__cxa_end_catch@PLT
 3073      00
 3074              	.LEHE78:
 3075 0eb9 EBA1     		jmp	.L211
 3076              	.L217:
 3077 0ebb 4889C3   		movq	%rax, %rbx
 3078 0ebe E8000000 		call	__cxa_end_catch@PLT
 3078      00
 3079 0ec3 4889DF   		movq	%rbx, %rdi
 3080              	.LEHB79:
 3081 0ec6 E8000000 		call	_Unwind_Resume@PLT
 3081      00
 3082              	.LEHE79:
 3083              		.cfi_endproc
 3084              	.LFE1155:
 3085              		.section	.gcc_except_table
 3086              		.align 4
 3087              	.LLSDA1155:
 3088 01dc FF       		.byte	0xff
 3089 01dd 9B       		.byte	0x9b
 3090 01de 21       		.uleb128 .LLSDATT1155-.LLSDATTD1155
 3091              	.LLSDATTD1155:
 3092 01df 01       		.byte	0x1
 3093 01e0 17       		.uleb128 .LLSDACSE1155-.LLSDACSB1155
 3094              	.LLSDACSB1155:
 3095 01e1 1B       		.uleb128 .LEHB75-.LFB1155
 3096 01e2 05       		.uleb128 .LEHE75-.LEHB75
 3097 01e3 00       		.uleb128 0
 3098 01e4 00       		.uleb128 0
 3099 01e5 20       		.uleb128 .LEHB76-.LFB1155
 3100 01e6 1C       		.uleb128 .LEHE76-.LEHB76
 3101 01e7 58       		.uleb128 .L216-.LFB1155
 3102 01e8 01       		.uleb128 0x1
 3103 01e9 60       		.uleb128 .LEHB77-.LFB1155
 3104 01ea 34       		.uleb128 .LEHE77-.LEHB77
 3105 01eb 9B01     		.uleb128 .L217-.LFB1155
 3106 01ed 00       		.uleb128 0
 3107 01ee 9401     		.uleb128 .LEHB78-.LFB1155
 3108 01f0 05       		.uleb128 .LEHE78-.LEHB78
 3109 01f1 00       		.uleb128 0
 3110 01f2 00       		.uleb128 0
 3111 01f3 A601     		.uleb128 .LEHB79-.LFB1155
 3112 01f5 05       		.uleb128 .LEHE79-.LEHB79
 3113 01f6 00       		.uleb128 0
 3114 01f7 00       		.uleb128 0
 3115              	.LLSDACSE1155:
 3116 01f8 01       		.byte	0x1
 3117 01f9 00       		.byte	0
 3118 01fa 0000     		.align 4
 3119 01fc 00000000 		.long	0
 3120              	
 3121              	.LLSDATT1155:
 3122              		.text
 3124              		.section	.rodata.str1.1
 3125              	.LC17:
 3126 002f 302E3031 		.string	"0.01"
 3126      00
 3127              		.section	.rodata.str1.8
 3128 0171 00000000 		.align 8
 3128      000000
 3129              	.LC18:
 3130 0178 73747273 		.string	"strstr(reporter.lastFailedMessage, \"0.01\")"
 3130      74722872 
 3130      65706F72 
 3130      7465722E 
 3130      6C617374 
 3131 01a3 00000000 		.align 8
 3131      00
 3132              	.LC19:
 3133 01a8 556E6861 		.string	"Unhandled exception in CHECK(strstr(reporter.lastFailedMessage, \"0.01\"))"
 3133      6E646C65 
 3133      64206578 
 3133      63657074 
 3133      696F6E20 
 3134              		.text
 3135 0ecb 90       		.align 2
 3136 0ecc 0F1F4000 		.p2align 4,,15
 3138              	_ZNK12_GLOBAL__N_138TestCheckCloseFailureIncludesTolerance7RunImplEv:
 3139              	.LFB1215:
 3140              		.cfi_startproc
 3141              		.cfi_personality 0x9b,DW.ref.__gxx_personality_v0
 3142              		.cfi_lsda 0x1b,.LLSDA1215
 3143 0ed0 4157     		pushq	%r15
 3144              		.cfi_def_cfa_offset 16
 3145              		.cfi_offset 15, -16
 3146 0ed2 4156     		pushq	%r14
 3147              		.cfi_def_cfa_offset 24
 3148              		.cfi_offset 14, -24
 3149 0ed4 4155     		pushq	%r13
 3150              		.cfi_def_cfa_offset 32
 3151              		.cfi_offset 13, -32
 3152 0ed6 4154     		pushq	%r12
 3153              		.cfi_def_cfa_offset 40
 3154              		.cfi_offset 12, -40
 3155 0ed8 4C8D2D00 		leaq	16+_ZTV17RecordingReporter(%rip), %r13
 3155      000000
 3156 0edf 55       		pushq	%rbp
 3157              		.cfi_def_cfa_offset 48
 3158              		.cfi_offset 6, -48
 3159 0ee0 53       		pushq	%rbx
 3160              		.cfi_def_cfa_offset 56
 3161              		.cfi_offset 3, -56
 3162 0ee1 4881EC38 		subq	$2616, %rsp
 3162      0A0000
 3163              		.cfi_def_cfa_offset 2672
 3164 0ee8 488DAC24 		leaq	496(%rsp), %rbp
 3164      F0010000 
 3165 0ef0 4C8D7424 		leaq	16(%rsp), %r14
 3165      10
 3166 0ef5 4C89AC24 		movq	%r13, 496(%rsp)
 3166      F0010000 
 3167 0efd 64488B04 		movq	%fs:40, %rax
 3167      25280000 
 3167      00
 3168 0f06 48898424 		movq	%rax, 2600(%rsp)
 3168      280A0000 
 3169 0f0e 31C0     		xorl	%eax, %eax
 3170 0f10 4889EE   		movq	%rbp, %rsi
 3171 0f13 4C89F7   		movq	%r14, %rdi
 3172 0f16 C78424F8 		movl	$0, 504(%rsp)
 3172      01000000 
 3172      000000
 3173 0f21 C78424FC 		movl	$0, 1020(%rsp)
 3173      03000000 
 3173      000000
 3174 0f2c C7842400 		movl	$0, 1280(%rsp)
 3174      05000000 
 3174      000000
 3175 0f37 C7842404 		movl	$0, 2052(%rsp)
 3175      08000000 
 3175      000000
 3176 0f42 48C78424 		movq	$0, 2568(%rsp)
 3176      080A0000 
 3176      00000000 
 3177 0f4e 48C78424 		movq	$0, 2576(%rsp)
 3177      100A0000 
 3177      00000000 
 3178 0f5a C7842418 		movl	$0, 2584(%rsp)
 3178      0A000000 
 3178      000000
 3179 0f65 C68424FC 		movb	$0, 508(%rsp)
 3179      01000000 
 3180 0f6d C68424FC 		movb	$0, 764(%rsp)
 3180      02000000 
 3181 0f75 C6842400 		movb	$0, 1024(%rsp)
 3181      04000000 
 3182 0f7d C6842404 		movb	$0, 1284(%rsp)
 3182      05000000 
 3183 0f85 C6842404 		movb	$0, 1540(%rsp)
 3183      06000000 
 3184 0f8d C6842404 		movb	$0, 1796(%rsp)
 3184      07000000 
 3185 0f95 C6842408 		movb	$0, 2056(%rsp)
 3185      08000000 
 3186 0f9d C6842408 		movb	$0, 2312(%rsp)
 3186      09000000 
 3187              	.LEHB80:
 3188 0fa5 E8000000 		call	_ZN8UnitTest11TestResultsC1EPNS_12TestReporterE@PLT
 3188      00
 3189 0faa 488D0D00 		leaq	.LC1(%rip), %rcx
 3189      000000
 3190 0fb1 4C8D6424 		leaq	48(%rsp), %r12
 3190      30
 3191 0fb6 4531C0   		xorl	%r8d, %r8d
 3192 0fb9 4889CA   		movq	%rcx, %rdx
 3193 0fbc 4889CE   		movq	%rcx, %rsi
 3194 0fbf 4C89E7   		movq	%r12, %rdi
 3195 0fc2 E8000000 		call	_ZN8UnitTest11TestDetailsC1EPKcS2_S2_i@PLT
 3195      00
 3196              	.LEHE80:
 3197 0fc7 488D5C24 		leaq	80(%rsp), %rbx
 3197      50
 3198 0fcc 4C8D3D00 		leaq	24+_ZTCN8UnitTest15MemoryOutStreamE0_So(%rip), %r15
 3198      000000
 3199 0fd3 488D8390 		leaq	144(%rbx), %rax
 3199      000000
 3200 0fda 4889C7   		movq	%rax, %rdi
 3201 0fdd 48894424 		movq	%rax, 8(%rsp)
 3201      08
 3202 0fe2 E8000000 		call	_ZNSt8ios_baseC2Ev@PLT
 3202      00
 3203 0fe7 498D4728 		leaq	40(%r15), %rax
 3204 0feb 31F6     		xorl	%esi, %esi
 3205 0fed 48C78424 		movq	$0, 440(%rsp)
 3205      B8010000 
 3205      00000000 
 3206 0ff9 C68424C0 		movb	$0, 448(%rsp)
 3206      01000000 
 3207 1001 C68424C1 		movb	$0, 449(%rsp)
 3207      01000000 
 3208 1009 48898424 		movq	%rax, 224(%rsp)
 3208      E0000000 
 3209 1011 488B4424 		movq	8(%rsp), %rax
 3209      08
 3210 1016 48C78424 		movq	$0, 456(%rsp)
 3210      C8010000 
 3210      00000000 
 3211 1022 48C78424 		movq	$0, 464(%rsp)
 3211      D0010000 
 3211      00000000 
 3212 102e 48C78424 		movq	$0, 472(%rsp)
 3212      D8010000 
 3212      00000000 
 3213 103a 48C78424 		movq	$0, 480(%rsp)
 3213      E0010000 
 3213      00000000 
 3214 1046 4889C7   		movq	%rax, %rdi
 3215 1049 4C897C24 		movq	%r15, 80(%rsp)
 3215      50
 3216              	.LEHB81:
 3217 104e E8000000 		call	_ZNSt9basic_iosIcSt11char_traitsIcEE4initEPSt15basic_streambufIcS1_E@PLT
 3217      00
 3218              	.LEHE81:
 3219 1053 488D0500 		leaq	24+_ZTCN8UnitTest15MemoryOutStreamE0_NSt7__cxx1119basic_ostringstreamIcSt11char_traitsIcESaIc
 3219      000000
 3220 105a 660FEFC0 		pxor	%xmm0, %xmm0
 3221 105e 488D7B40 		leaq	64(%rbx), %rdi
 3222 1062 48894424 		movq	%rax, 80(%rsp)
 3222      50
 3223 1067 4883C028 		addq	$40, %rax
 3224 106b 48898424 		movq	%rax, 224(%rsp)
 3224      E0000000 
 3225 1073 488D0500 		leaq	16+_ZTVSt15basic_streambufIcSt11char_traitsIcEE(%rip), %rax
 3225      000000
 3226 107a 0F294424 		movaps	%xmm0, 96(%rsp)
 3226      60
 3227 107f 48894424 		movq	%rax, 88(%rsp)
 3227      58
 3228 1084 0F294424 		movaps	%xmm0, 112(%rsp)
 3228      70
 3229 1089 0F298424 		movaps	%xmm0, 128(%rsp)
 3229      80000000 
 3230 1091 E8000000 		call	_ZNSt6localeC1Ev@PLT
 3230      00
 3231 1096 488D0500 		leaq	16+_ZTVNSt7__cxx1115basic_stringbufIcSt11char_traitsIcESaIcEEE(%rip), %rax
 3231      000000
 3232 109d 488D7308 		leaq	8(%rbx), %rsi
 3233 10a1 48894424 		movq	%rax, 88(%rsp)
 3233      58
 3234 10a6 488D4360 		leaq	96(%rbx), %rax
 3235 10aa C7842498 		movl	$16, 152(%rsp)
 3235      00000010 
 3235      000000
 3236 10b5 48C78424 		movq	$0, 168(%rsp)
 3236      A8000000 
 3236      00000000 
 3237 10c1 C68424B0 		movb	$0, 176(%rsp)
 3237      00000000 
 3238 10c9 48898424 		movq	%rax, 160(%rsp)
 3238      A0000000 
 3239 10d1 488B4424 		movq	80(%rsp), %rax
 3239      50
 3240 10d6 488B78E8 		movq	-24(%rax), %rdi
 3241 10da 4801DF   		addq	%rbx, %rdi
 3242              	.LEHB82:
 3243 10dd E8000000 		call	_ZNSt9basic_iosIcSt11char_traitsIcEE4initEPSt15basic_streambufIcS1_E@PLT
 3243      00
 3244              	.LEHE82:
 3245 10e2 488D0500 		leaq	24+_ZTVN8UnitTest15MemoryOutStreamE(%rip), %rax
 3245      000000
 3246 10e9 488D3500 		leaq	.LC2(%rip), %rsi
 3246      000000
 3247 10f0 BA090000 		movl	$9, %edx
 3247      00
 3248 10f5 4889DF   		movq	%rbx, %rdi
 3249 10f8 48C78424 		movq	$0, 200(%rsp)
 3249      C8000000 
 3249      00000000 
 3250 1104 C68424D0 		movb	$0, 208(%rsp)
 3250      00000000 
 3251 110c 48894424 		movq	%rax, 80(%rsp)
 3251      50
 3252 1111 4883C028 		addq	$40, %rax
 3253 1115 48898424 		movq	%rax, 224(%rsp)
 3253      E0000000 
 3254 111d 488D8380 		leaq	128(%rbx), %rax
 3254      000000
 3255 1124 48898424 		movq	%rax, 192(%rsp)
 3255      C0000000 
 3256              	.LEHB83:
 3257 112c E8000000 		call	_ZSt16__ostream_insertIcSt11char_traitsIcEERSt13basic_ostreamIT_T0_ES6_PKS3_l@PLT
 3257      00
 3258 1131 BE020000 		movl	$2, %esi
 3258      00
 3259 1136 4889DF   		movq	%rbx, %rdi
 3260 1139 E8000000 		call	_ZNSolsEi@PLT
 3260      00
 3261 113e 488D3500 		leaq	.LC4(%rip), %rsi
 3261      000000
 3262 1145 BA050000 		movl	$5, %edx
 3262      00
 3263 114a 4889C7   		movq	%rax, %rdi
 3264 114d 48894424 		movq	%rax, 8(%rsp)
 3264      08
 3265 1152 E8000000 		call	_ZSt16__ostream_insertIcSt11char_traitsIcEERSt13basic_ostreamIT_T0_ES6_PKS3_l@PLT
 3265      00
 3266 1157 488B7C24 		movq	8(%rsp), %rdi
 3266      08
 3267 115c F20F1005 		movsd	.LC5(%rip), %xmm0
 3267      00000000 
 3268 1164 E8000000 		call	_ZNSo9_M_insertIdEERSoT_@PLT
 3268      00
 3269 1169 488D3500 		leaq	.LC6(%rip), %rsi
 3269      000000
 3270 1170 BA090000 		movl	$9, %edx
 3270      00
 3271 1175 4889C7   		movq	%rax, %rdi
 3272 1178 48894424 		movq	%rax, 8(%rsp)
 3272      08
 3273 117d E8000000 		call	_ZSt16__ostream_insertIcSt11char_traitsIcEERSt13basic_ostreamIT_T0_ES6_PKS3_l@PLT
 3273      00
 3274 1182 488B7C24 		movq	8(%rsp), %rdi
 3274      08
 3275 1187 BE030000 		movl	$3, %esi
 3275      00
 3276 118c E8000000 		call	_ZNSolsEi@PLT
 3276      00
 3277 1191 4889DF   		movq	%rbx, %rdi
 3278 1194 E8000000 		call	_ZNK8UnitTest15MemoryOutStream7GetTextEv@PLT
 3278      00
 3279 1199 4889C2   		movq	%rax, %rdx
 3280 119c 4C89E6   		movq	%r12, %rsi
 3281 119f 4C89F7   		movq	%r14, %rdi
 3282 11a2 E8000000 		call	_ZN8UnitTest11TestResults13OnTestFailureERKNS_11TestDetailsEPKc@PLT
 3282      00
 3283              	.LEHE83:
 3284 11a7 488D0500 		leaq	24+_ZTVN8UnitTest15MemoryOutStreamE(%rip), %rax
 3284      000000
 3285 11ae 488BBC24 		movq	192(%rsp), %rdi
 3285      C0000000 
 3286 11b6 48894424 		movq	%rax, 80(%rsp)
 3286      50
 3287 11bb 4883C028 		addq	$40, %rax
 3288 11bf 48898424 		movq	%rax, 224(%rsp)
 3288      E0000000 
 3289 11c7 488D8380 		leaq	128(%rbx), %rax
 3289      000000
 3290 11ce 4839C7   		cmpq	%rax, %rdi
 3291 11d1 7405     		je	.L226
 3292 11d3 E8000000 		call	_ZdlPv@PLT
 3292      00
 3293              	.L226:
 3294 11d8 488D0500 		leaq	64+_ZTCN8UnitTest15MemoryOutStreamE0_NSt7__cxx1119basic_ostringstreamIcSt11char_traitsIcESaIc
 3294      000000
 3295 11df 488BBC24 		movq	160(%rsp), %rdi
 3295      A0000000 
 3296 11e7 F30F7E05 		movq	.LC14(%rip), %xmm0
 3296      00000000 
 3297 11ef 48898424 		movq	%rax, 224(%rsp)
 3297      E0000000 
 3298 11f7 488D4360 		leaq	96(%rbx), %rax
 3299 11fb 0F160500 		movhps	.LC15(%rip), %xmm0
 3299      000000
 3300 1202 4839C7   		cmpq	%rax, %rdi
 3301 1205 0F294424 		movaps	%xmm0, 80(%rsp)
 3301      50
 3302 120a 7405     		je	.L227
 3303 120c E8000000 		call	_ZdlPv@PLT
 3303      00
 3304              	.L227:
 3305 1211 488D0500 		leaq	16+_ZTVSt15basic_streambufIcSt11char_traitsIcEE(%rip), %rax
 3305      000000
 3306 1218 488D7B40 		leaq	64(%rbx), %rdi
 3307 121c 48894424 		movq	%rax, 88(%rsp)
 3307      58
 3308 1221 E8000000 		call	_ZNSt6localeD1Ev@PLT
 3308      00
 3309 1226 488D0500 		leaq	16+_ZTVSt9basic_iosIcSt11char_traitsIcEE(%rip), %rax
 3309      000000
 3310 122d 488DBB90 		leaq	144(%rbx), %rdi
 3310      000000
 3311 1234 4C897C24 		movq	%r15, 80(%rsp)
 3311      50
 3312 1239 48898424 		movq	%rax, 224(%rsp)
 3312      E0000000 
 3313              	.LEHB84:
 3314 1241 E8000000 		call	_ZNSt8ios_baseD2Ev@PLT
 3314      00
 3315              	.LEHE84:
 3316 1246 488DBD14 		leaq	1300(%rbp), %rdi
 3316      050000
 3317 124d 488D3500 		leaq	.LC17(%rip), %rsi
 3317      000000
 3318 1254 E8000000 		call	strstr@PLT
 3318      00
 3319 1259 4885C0   		testq	%rax, %rax
 3320 125c 743A     		je	.L245
 3321              	.L229:
 3322 125e 4889EF   		movq	%rbp, %rdi
 3323 1261 4C89AC24 		movq	%r13, 496(%rsp)
 3323      F0010000 
 3324              	.LEHB85:
 3325 1269 E8000000 		call	_ZN8UnitTest12TestReporterD2Ev@PLT
 3325      00
 3326              	.LEHE85:
 3327 126e 488B8424 		movq	2600(%rsp), %rax
 3327      280A0000 
 3328 1276 64483304 		xorq	%fs:40, %rax
 3328      25280000 
 3328      00
 3329 127f 7548     		jne	.L246
 3330 1281 4881C438 		addq	$2616, %rsp
 3330      0A0000
 3331              		.cfi_remember_state
 3332              		.cfi_def_cfa_offset 56
 3333 1288 5B       		popq	%rbx
 3334              		.cfi_def_cfa_offset 48
 3335 1289 5D       		popq	%rbp
 3336              		.cfi_def_cfa_offset 40
 3337 128a 415C     		popq	%r12
 3338              		.cfi_def_cfa_offset 32
 3339 128c 415D     		popq	%r13
 3340              		.cfi_def_cfa_offset 24
 3341 128e 415E     		popq	%r14
 3342              		.cfi_def_cfa_offset 16
 3343 1290 415F     		popq	%r15
 3344              		.cfi_def_cfa_offset 8
 3345 1292 C3       		ret
 3346              		.p2align 4,,10
 3347 1293 0F1F4400 		.p2align 3
 3347      00
 3348              	.L245:
 3349              		.cfi_restore_state
 3350              	.LEHB86:
 3351 1298 E8000000 		call	_ZN8UnitTest11CurrentTest7ResultsEv@PLT
 3351      00
 3352 129d 488B18   		movq	(%rax), %rbx
 3353 12a0 E8000000 		call	_ZN8UnitTest11CurrentTest7DetailsEv@PLT
 3353      00
 3354 12a5 488B30   		movq	(%rax), %rsi
 3355 12a8 BAA60000 		movl	$166, %edx
 3355      00
 3356 12ad 4C89E7   		movq	%r12, %rdi
 3357 12b0 E8000000 		call	_ZN8UnitTest11TestDetailsC1ERKS0_i@PLT
 3357      00
 3358 12b5 488D1500 		leaq	.LC18(%rip), %rdx
 3358      000000
 3359 12bc 4C89E6   		movq	%r12, %rsi
 3360 12bf 4889DF   		movq	%rbx, %rdi
 3361 12c2 E8000000 		call	_ZN8UnitTest11TestResults13OnTestFailureERKNS_11TestDetailsEPKc@PLT
 3361      00
 3362              	.LEHE86:
 3363 12c7 EB95     		jmp	.L229
 3364              	.L246:
 3365 12c9 E8000000 		call	__stack_chk_fail@PLT
 3365      00
 3366              	.L238:
 3367 12ce 4889DF   		movq	%rbx, %rdi
 3368 12d1 4989C4   		movq	%rax, %r12
 3369 12d4 E8000000 		call	_ZN8UnitTest15MemoryOutStreamD1Ev
 3369      00
 3370              	.L225:
 3371 12d9 4889EF   		movq	%rbp, %rdi
 3372 12dc 4C89AC24 		movq	%r13, 496(%rsp)
 3372      F0010000 
 3373 12e4 E8000000 		call	_ZN8UnitTest12TestReporterD2Ev@PLT
 3373      00
 3374 12e9 4C89E7   		movq	%r12, %rdi
 3375              	.LEHB87:
 3376 12ec E8000000 		call	_Unwind_Resume@PLT
 3376      00
 3377              	.LEHE87:
 3378              	.L240:
 3379 12f1 488D7B08 		leaq	8(%rbx), %rdi
 3380 12f5 4989C4   		movq	%rax, %r12
 3381 12f8 E8000000 		call	_ZNSt7__cxx1115basic_stringbufIcSt11char_traitsIcESaIcEED1Ev
 3381      00
 3382 12fd 4C897C24 		movq	%r15, 80(%rsp)
 3382      50
 3383              	.L223:
 3384 1302 488D0500 		leaq	16+_ZTVSt9basic_iosIcSt11char_traitsIcEE(%rip), %rax
 3384      000000
 3385 1309 488DBB90 		leaq	144(%rbx), %rdi
 3385      000000
 3386 1310 48898424 		movq	%rax, 224(%rsp)
 3386      E0000000 
 3387 1318 E8000000 		call	_ZNSt8ios_baseD2Ev@PLT
 3387      00
 3388 131d EBBA     		jmp	.L225
 3389              	.L239:
 3390 131f 4989C4   		movq	%rax, %r12
 3391 1322 EBDE     		jmp	.L223
 3392              	.L235:
 3393 1324 4989C4   		movq	%rax, %r12
 3394 1327 EBB0     		jmp	.L225
 3395              	.L236:
 3396 1329 4889C7   		movq	%rax, %rdi
 3397 132c E8000000 		call	__cxa_begin_catch@PLT
 3397      00
 3398              	.LEHB88:
 3399 1331 E8000000 		call	_ZN8UnitTest11CurrentTest7ResultsEv@PLT
 3399      00
 3400 1336 488B18   		movq	(%rax), %rbx
 3401 1339 E8000000 		call	_ZN8UnitTest11CurrentTest7DetailsEv@PLT
 3401      00
 3402 133e 488B30   		movq	(%rax), %rsi
 3403 1341 BAA60000 		movl	$166, %edx
 3403      00
 3404 1346 4C89E7   		movq	%r12, %rdi
 3405 1349 E8000000 		call	_ZN8UnitTest11TestDetailsC1ERKS0_i@PLT
 3405      00
 3406 134e 488D1500 		leaq	.LC19(%rip), %rdx
 3406      000000
 3407 1355 4C89E6   		movq	%r12, %rsi
 3408 1358 4889DF   		movq	%rbx, %rdi
 3409 135b E8000000 		call	_ZN8UnitTest11TestResults13OnTestFailureERKNS_11TestDetailsEPKc@PLT
 3409      00
 3410              	.LEHE88:
 3411              	.LEHB89:
 3412 1360 E8000000 		call	__cxa_end_catch@PLT
 3412      00
 3413              	.LEHE89:
 3414 1365 E9F4FEFF 		jmp	.L229
 3414      FF
 3415              	.L237:
 3416 136a 4989C4   		movq	%rax, %r12
 3417 136d E8000000 		call	__cxa_end_catch@PLT
 3417      00
 3418 1372 E962FFFF 		jmp	.L225
 3418      FF
 3419              		.cfi_endproc
 3420              	.LFE1215:
 3421              		.section	.gcc_except_table
 3422              		.align 4
 3423              	.LLSDA1215:
 3424 0200 FF       		.byte	0xff
 3425 0201 9B       		.byte	0x9b
 3426 0202 45       		.uleb128 .LLSDATT1215-.LLSDATTD1215
 3427              	.LLSDATTD1215:
 3428 0203 01       		.byte	0x1
 3429 0204 3A       		.uleb128 .LLSDACSE1215-.LLSDACSB1215
 3430              	.LLSDACSB1215:
 3431 0205 D501     		.uleb128 .LEHB80-.LFB1215
 3432 0207 22       		.uleb128 .LEHE80-.LEHB80
 3433 0208 D408     		.uleb128 .L235-.LFB1215
 3434 020a 00       		.uleb128 0
 3435 020b FE02     		.uleb128 .LEHB81-.LFB1215
 3436 020d 05       		.uleb128 .LEHE81-.LEHB81
 3437 020e CF08     		.uleb128 .L239-.LFB1215
 3438 0210 00       		.uleb128 0
 3439 0211 8D04     		.uleb128 .LEHB82-.LFB1215
 3440 0213 05       		.uleb128 .LEHE82-.LEHB82
 3441 0214 A108     		.uleb128 .L240-.LFB1215
 3442 0216 00       		.uleb128 0
 3443 0217 DC04     		.uleb128 .LEHB83-.LFB1215
 3444 0219 7B       		.uleb128 .LEHE83-.LEHB83
 3445 021a FE07     		.uleb128 .L238-.LFB1215
 3446 021c 00       		.uleb128 0
 3447 021d F106     		.uleb128 .LEHB84-.LFB1215
 3448 021f 05       		.uleb128 .LEHE84-.LEHB84
 3449 0220 D408     		.uleb128 .L235-.LFB1215
 3450 0222 00       		.uleb128 0
 3451 0223 9907     		.uleb128 .LEHB85-.LFB1215
 3452 0225 05       		.uleb128 .LEHE85-.LEHB85
 3453 0226 00       		.uleb128 0
 3454 0227 00       		.uleb128 0
 3455 0228 C807     		.uleb128 .LEHB86-.LFB1215
 3456 022a 2F       		.uleb128 .LEHE86-.LEHB86
 3457 022b D908     		.uleb128 .L236-.LFB1215
 3458 022d 01       		.uleb128 0x1
 3459 022e 9C08     		.uleb128 .LEHB87-.LFB1215
 3460 0230 05       		.uleb128 .LEHE87-.LEHB87
 3461 0231 00       		.uleb128 0
 3462 0232 00       		.uleb128 0
 3463 0233 E108     		.uleb128 .LEHB88-.LFB1215
 3464 0235 2F       		.uleb128 .LEHE88-.LEHB88
 3465 0236 9A09     		.uleb128 .L237-.LFB1215
 3466 0238 00       		.uleb128 0
 3467 0239 9009     		.uleb128 .LEHB89-.LFB1215
 3468 023b 05       		.uleb128 .LEHE89-.LEHB89
 3469 023c D408     		.uleb128 .L235-.LFB1215
 3470 023e 00       		.uleb128 0
 3471              	.LLSDACSE1215:
 3472 023f 01       		.byte	0x1
 3473 0240 00       		.byte	0
 3474 0241 000000   		.align 4
 3475 0244 00000000 		.long	0
 3476              	
 3477              	.LLSDATT1215:
 3478              		.text
 3480              		.section	.rodata.str1.1
 3481              	.LC20:
 3482 0034 45787065 		.string	"Expected [ "
 3482      63746564 
 3482      205B2000 
 3483              	.LC21:
 3484 0040 5B2000   		.string	"[ "
 3485              	.LC22:
 3486 0043 2000     		.string	" "
 3487              	.LC23:
 3488 0045 5D2000   		.string	"] "
 3489              	.LC24:
 3490 0048 5D202B2F 		.string	"] +/- "
 3490      2D2000
 3491              	.LC25:
 3492 004f 20627574 		.string	" but was [ "
 3492      20776173 
 3492      205B2000 
 3493              	.LC26:
 3494 005b 5D00     		.string	"]"
 3495              		.text
 3496 1377 660F1F84 		.p2align 4,,15
 3496      00000000 
 3496      00
 3498              	_ZN8UnitTest17CheckArray2DCloseIA3_A3_fS2_fEEvRNS_11TestResultsERKT_RKT0_iiRKT1_RKNS_11TestDetailsE
 3499              	.LFB1493:
 3500              		.cfi_startproc
 3501              		.cfi_personality 0x9b,DW.ref.__gxx_personality_v0
 3502              		.cfi_lsda 0x1b,.LLSDA1493
 3503 1380 4157     		pushq	%r15
 3504              		.cfi_def_cfa_offset 16
 3505              		.cfi_offset 15, -16
 3506 1382 4156     		pushq	%r14
 3507              		.cfi_def_cfa_offset 24
 3508              		.cfi_offset 14, -24
 3509 1384 4989CF   		movq	%rcx, %r15
 3510 1387 4155     		pushq	%r13
 3511              		.cfi_def_cfa_offset 32
 3512              		.cfi_offset 13, -32
 3513 1389 4154     		pushq	%r12
 3514              		.cfi_def_cfa_offset 40
 3515              		.cfi_offset 12, -40
 3516 138b 4989D4   		movq	%rdx, %r12
 3517 138e 55       		pushq	%rbp
 3518              		.cfi_def_cfa_offset 48
 3519              		.cfi_offset 6, -48
 3520 138f 53       		pushq	%rbx
 3521              		.cfi_def_cfa_offset 56
 3522              		.cfi_offset 3, -56
 3523 1390 4889F5   		movq	%rsi, %rbp
 3524 1393 4881ECC8 		subq	$456, %rsp
 3524      010000
 3525              		.cfi_def_cfa_offset 512
 3526 139a F30F100E 		movss	(%rsi), %xmm1
 3527 139e 48897C24 		movq	%rdi, 16(%rsp)
 3527      10
 3528 13a3 0F28D9   		movaps	%xmm1, %xmm3
 3529 13a6 F30F1001 		movss	(%rcx), %xmm0
 3530 13aa F30F1012 		movss	(%rdx), %xmm2
 3531 13ae 4C894424 		movq	%r8, 24(%rsp)
 3531      18
 3532 13b3 F30F5CD8 		subss	%xmm0, %xmm3
 3533 13b7 64488B04 		movq	%fs:40, %rax
 3533      25280000 
 3533      00
 3534 13c0 48898424 		movq	%rax, 440(%rsp)
 3534      B8010000 
 3535 13c8 31C0     		xorl	%eax, %eax
 3536 13ca 31C0     		xorl	%eax, %eax
 3537 13cc 0F2ED3   		ucomiss	%xmm3, %xmm2
 3538 13cf 720A     		jb	.L248
 3539 13d1 F30F58C8 		addss	%xmm0, %xmm1
 3540 13d5 0F2ECA   		ucomiss	%xmm2, %xmm1
 3541 13d8 0F93C0   		setnb	%al
 3542              	.L248:
 3543 13db F30F104D 		movss	4(%rbp), %xmm1
 3543      04
 3544 13e0 0F28D9   		movaps	%xmm1, %xmm3
 3545 13e3 F3410F10 		movss	4(%r12), %xmm2
 3545      542404
 3546 13ea F30F5CD8 		subss	%xmm0, %xmm3
 3547 13ee 0F2ED3   		ucomiss	%xmm3, %xmm2
 3548 13f1 0F82C904 		jb	.L317
 3548      0000
 3549 13f7 F30F58C8 		addss	%xmm0, %xmm1
 3550 13fb BA000000 		movl	$0, %edx
 3550      00
 3551 1400 0F2ECA   		ucomiss	%xmm2, %xmm1
 3552 1403 0F42C2   		cmovb	%edx, %eax
 3553              	.L250:
 3554 1406 F30F104D 		movss	8(%rbp), %xmm1
 3554      08
 3555 140b 0F28D9   		movaps	%xmm1, %xmm3
 3556 140e F3410F10 		movss	8(%r12), %xmm2
 3556      542408
 3557 1415 F30F5CD8 		subss	%xmm0, %xmm3
 3558 1419 0F2ED3   		ucomiss	%xmm3, %xmm2
 3559 141c 0F828E04 		jb	.L318
 3559      0000
 3560 1422 F30F58C8 		addss	%xmm0, %xmm1
 3561 1426 BA000000 		movl	$0, %edx
 3561      00
 3562 142b 0F2ECA   		ucomiss	%xmm2, %xmm1
 3563 142e 0F42C2   		cmovb	%edx, %eax
 3564              	.L253:
 3565 1431 F30F104D 		movss	12(%rbp), %xmm1
 3565      0C
 3566 1436 31D2     		xorl	%edx, %edx
 3567 1438 0F28D9   		movaps	%xmm1, %xmm3
 3568 143b F3410F10 		movss	12(%r12), %xmm2
 3568      54240C
 3569 1442 F30F5CD8 		subss	%xmm0, %xmm3
 3570 1446 0F2ED3   		ucomiss	%xmm3, %xmm2
 3571 1449 720A     		jb	.L255
 3572 144b F30F58C8 		addss	%xmm0, %xmm1
 3573 144f 0F2ECA   		ucomiss	%xmm2, %xmm1
 3574 1452 0F93C2   		setnb	%dl
 3575              	.L255:
 3576 1455 F30F104D 		movss	16(%rbp), %xmm1
 3576      10
 3577 145a 0F28D9   		movaps	%xmm1, %xmm3
 3578 145d F3410F10 		movss	16(%r12), %xmm2
 3578      542410
 3579 1464 F30F5CD8 		subss	%xmm0, %xmm3
 3580 1468 0F2ED3   		ucomiss	%xmm3, %xmm2
 3581 146b 0F822F04 		jb	.L320
 3581      0000
 3582 1471 F30F58C8 		addss	%xmm0, %xmm1
 3583 1475 B9000000 		movl	$0, %ecx
 3583      00
 3584 147a 0F2ECA   		ucomiss	%xmm2, %xmm1
 3585 147d 0F42D1   		cmovb	%ecx, %edx
 3586              	.L257:
 3587 1480 F30F104D 		movss	20(%rbp), %xmm1
 3587      14
 3588 1485 0F28D9   		movaps	%xmm1, %xmm3
 3589 1488 F3410F10 		movss	20(%r12), %xmm2
 3589      542414
 3590 148f F30F5CD8 		subss	%xmm0, %xmm3
 3591 1493 0F2ED3   		ucomiss	%xmm3, %xmm2
 3592 1496 0F82F403 		jb	.L321
 3592      0000
 3593 149c F30F58C8 		addss	%xmm0, %xmm1
 3594 14a0 21D0     		andl	%edx, %eax
 3595 14a2 BA000000 		movl	$0, %edx
 3595      00
 3596 14a7 0F2ECA   		ucomiss	%xmm2, %xmm1
 3597 14aa 0F42C2   		cmovb	%edx, %eax
 3598              	.L260:
 3599 14ad F30F104D 		movss	24(%rbp), %xmm1
 3599      18
 3600 14b2 31D2     		xorl	%edx, %edx
 3601 14b4 0F28D9   		movaps	%xmm1, %xmm3
 3602 14b7 F3410F10 		movss	24(%r12), %xmm2
 3602      542418
 3603 14be F30F5CD8 		subss	%xmm0, %xmm3
 3604 14c2 0F2ED3   		ucomiss	%xmm3, %xmm2
 3605 14c5 720A     		jb	.L263
 3606 14c7 F30F58C8 		addss	%xmm0, %xmm1
 3607 14cb 0F2ECA   		ucomiss	%xmm2, %xmm1
 3608 14ce 0F93C2   		setnb	%dl
 3609              	.L263:
 3610 14d1 F30F104D 		movss	28(%rbp), %xmm1
 3610      1C
 3611 14d6 0F28D9   		movaps	%xmm1, %xmm3
 3612 14d9 F3410F10 		movss	28(%r12), %xmm2
 3612      54241C
 3613 14e0 F30F5CD8 		subss	%xmm0, %xmm3
 3614 14e4 0F2ED3   		ucomiss	%xmm3, %xmm2
 3615 14e7 0F829B03 		jb	.L323
 3615      0000
 3616 14ed F30F58C8 		addss	%xmm0, %xmm1
 3617 14f1 B9000000 		movl	$0, %ecx
 3617      00
 3618 14f6 0F2ECA   		ucomiss	%xmm2, %xmm1
 3619 14f9 0F42D1   		cmovb	%ecx, %edx
 3620              	.L265:
 3621 14fc F30F1055 		movss	32(%rbp), %xmm2
 3621      20
 3622 1501 0F28DA   		movaps	%xmm2, %xmm3
 3623 1504 F3410F10 		movss	32(%r12), %xmm1
 3623      4C2420
 3624 150b F30F5CD8 		subss	%xmm0, %xmm3
 3625 150f 0F2ECB   		ucomiss	%xmm3, %xmm1
 3626 1512 0F83B803 		jnb	.L327
 3626      0000
 3627              	.L267:
 3628 1518 488D5C24 		leaq	32(%rsp), %rbx
 3628      20
 3629 151d 4C8DAB90 		leaq	144(%rbx), %r13
 3629      000000
 3630 1524 4C89EF   		movq	%r13, %rdi
 3631 1527 E8000000 		call	_ZNSt8ios_baseC2Ev@PLT
 3631      00
 3632 152c 488D0500 		leaq	24+_ZTCN8UnitTest15MemoryOutStreamE0_So(%rip), %rax
 3632      000000
 3633 1533 31F6     		xorl	%esi, %esi
 3634 1535 4C89EF   		movq	%r13, %rdi
 3635 1538 48C78424 		movq	$0, 392(%rsp)
 3635      88010000 
 3635      00000000 
 3636 1544 C6842490 		movb	$0, 400(%rsp)
 3636      01000000 
 3637 154c 48894424 		movq	%rax, 32(%rsp)
 3637      20
 3638 1551 4883C028 		addq	$40, %rax
 3639 1555 C6842491 		movb	$0, 401(%rsp)
 3639      01000000 
 3640 155d 48C78424 		movq	$0, 408(%rsp)
 3640      98010000 
 3640      00000000 
 3641 1569 48C78424 		movq	$0, 416(%rsp)
 3641      A0010000 
 3641      00000000 
 3642 1575 48C78424 		movq	$0, 424(%rsp)
 3642      A8010000 
 3642      00000000 
 3643 1581 48C78424 		movq	$0, 432(%rsp)
 3643      B0010000 
 3643      00000000 
 3644 158d 48898424 		movq	%rax, 176(%rsp)
 3644      B0000000 
 3645              	.LEHB90:
 3646 1595 E8000000 		call	_ZNSt9basic_iosIcSt11char_traitsIcEE4initEPSt15basic_streambufIcS1_E@PLT
 3646      00
 3647              	.LEHE90:
 3648 159a 488D0500 		leaq	24+_ZTCN8UnitTest15MemoryOutStreamE0_NSt7__cxx1119basic_ostringstreamIcSt11char_traitsIcESaIc
 3648      000000
 3649 15a1 660FEFC0 		pxor	%xmm0, %xmm0
 3650 15a5 488D7B40 		leaq	64(%rbx), %rdi
 3651 15a9 48894424 		movq	%rax, 32(%rsp)
 3651      20
 3652 15ae 4883C028 		addq	$40, %rax
 3653 15b2 48898424 		movq	%rax, 176(%rsp)
 3653      B0000000 
 3654 15ba 488D0500 		leaq	16+_ZTVSt15basic_streambufIcSt11char_traitsIcEE(%rip), %rax
 3654      000000
 3655 15c1 0F294424 		movaps	%xmm0, 48(%rsp)
 3655      30
 3656 15c6 48894424 		movq	%rax, 40(%rsp)
 3656      28
 3657 15cb 0F294424 		movaps	%xmm0, 64(%rsp)
 3657      40
 3658 15d0 0F294424 		movaps	%xmm0, 80(%rsp)
 3658      50
 3659 15d5 E8000000 		call	_ZNSt6localeC1Ev@PLT
 3659      00
 3660 15da 488D0500 		leaq	16+_ZTVNSt7__cxx1115basic_stringbufIcSt11char_traitsIcESaIcEEE(%rip), %rax
 3660      000000
 3661 15e1 488D7308 		leaq	8(%rbx), %rsi
 3662 15e5 48894424 		movq	%rax, 40(%rsp)
 3662      28
 3663 15ea 488D4360 		leaq	96(%rbx), %rax
 3664 15ee C7442468 		movl	$16, 104(%rsp)
 3664      10000000 
 3665 15f6 48C74424 		movq	$0, 120(%rsp)
 3665      78000000 
 3665      00
 3666 15ff C6842480 		movb	$0, 128(%rsp)
 3666      00000000 
 3667 1607 48894424 		movq	%rax, 112(%rsp)
 3667      70
 3668 160c 488B4424 		movq	32(%rsp), %rax
 3668      20
 3669 1611 488B78E8 		movq	-24(%rax), %rdi
 3670 1615 4801DF   		addq	%rbx, %rdi
 3671              	.LEHB91:
 3672 1618 E8000000 		call	_ZNSt9basic_iosIcSt11char_traitsIcEE4initEPSt15basic_streambufIcS1_E@PLT
 3672      00
 3673              	.LEHE91:
 3674 161d 488D0500 		leaq	24+_ZTVN8UnitTest15MemoryOutStreamE(%rip), %rax
 3674      000000
 3675 1624 488D3500 		leaq	.LC20(%rip), %rsi
 3675      000000
 3676 162b BA0B0000 		movl	$11, %edx
 3676      00
 3677 1630 4889DF   		movq	%rbx, %rdi
 3678 1633 48C78424 		movq	$0, 152(%rsp)
 3678      98000000 
 3678      00000000 
 3679 163f C68424A0 		movb	$0, 160(%rsp)
 3679      00000000 
 3680 1647 48894424 		movq	%rax, 32(%rsp)
 3680      20
 3681 164c 4883C028 		addq	$40, %rax
 3682 1650 48898424 		movq	%rax, 176(%rsp)
 3682      B0000000 
 3683 1658 488D8380 		leaq	128(%rbx), %rax
 3683      000000
 3684 165f 48898424 		movq	%rax, 144(%rsp)
 3684      90000000 
 3685              	.LEHB92:
 3686 1667 E8000000 		call	_ZSt16__ostream_insertIcSt11char_traitsIcEERSt13basic_ostreamIT_T0_ES6_PKS3_l@PLT
 3686      00
 3687 166c 488D4530 		leaq	48(%rbp), %rax
 3688 1670 4C8D6D0C 		leaq	12(%rbp), %r13
 3689 1674 4C8D3500 		leaq	.LC22(%rip), %r14
 3689      000000
 3690 167b 48894424 		movq	%rax, 8(%rsp)
 3690      08
 3691              	.L277:
 3692 1680 488D3500 		leaq	.LC21(%rip), %rsi
 3692      000000
 3693 1687 BA020000 		movl	$2, %edx
 3693      00
 3694 168c 4889DF   		movq	%rbx, %rdi
 3695 168f E8000000 		call	_ZSt16__ostream_insertIcSt11char_traitsIcEERSt13basic_ostreamIT_T0_ES6_PKS3_l@PLT
 3695      00
 3696 1694 498D6DF4 		leaq	-12(%r13), %rbp
 3697              	.L276:
 3698 1698 660FEFC0 		pxor	%xmm0, %xmm0
 3699 169c 4889DF   		movq	%rbx, %rdi
 3700 169f F30F5A45 		cvtss2sd	0(%rbp), %xmm0
 3700      00
 3701 16a4 E8000000 		call	_ZNSo9_M_insertIdEERSoT_@PLT
 3701      00
 3702 16a9 BA010000 		movl	$1, %edx
 3702      00
 3703 16ae 4C89F6   		movq	%r14, %rsi
 3704 16b1 4889C7   		movq	%rax, %rdi
 3705 16b4 E8000000 		call	_ZSt16__ostream_insertIcSt11char_traitsIcEERSt13basic_ostreamIT_T0_ES6_PKS3_l@PLT
 3705      00
 3706 16b9 4883C504 		addq	$4, %rbp
 3707 16bd 4C39ED   		cmpq	%r13, %rbp
 3708 16c0 75D6     		jne	.L276
 3709 16c2 488D3500 		leaq	.LC23(%rip), %rsi
 3709      000000
 3710 16c9 BA020000 		movl	$2, %edx
 3710      00
 3711 16ce 4889DF   		movq	%rbx, %rdi
 3712 16d1 E8000000 		call	_ZSt16__ostream_insertIcSt11char_traitsIcEERSt13basic_ostreamIT_T0_ES6_PKS3_l@PLT
 3712      00
 3713 16d6 4983C50C 		addq	$12, %r13
 3714 16da 4C3B6C24 		cmpq	8(%rsp), %r13
 3714      08
 3715 16df 759F     		jne	.L277
 3716 16e1 488D3500 		leaq	.LC24(%rip), %rsi
 3716      000000
 3717 16e8 BA060000 		movl	$6, %edx
 3717      00
 3718 16ed 4889DF   		movq	%rbx, %rdi
 3719 16f0 E8000000 		call	_ZSt16__ostream_insertIcSt11char_traitsIcEERSt13basic_ostreamIT_T0_ES6_PKS3_l@PLT
 3719      00
 3720 16f5 660FEFC0 		pxor	%xmm0, %xmm0
 3721 16f9 4889DF   		movq	%rbx, %rdi
 3722 16fc F3410F5A 		cvtss2sd	(%r15), %xmm0
 3722      07
 3723 1701 E8000000 		call	_ZNSo9_M_insertIdEERSoT_@PLT
 3723      00
 3724 1706 488D3500 		leaq	.LC25(%rip), %rsi
 3724      000000
 3725 170d BA0B0000 		movl	$11, %edx
 3725      00
 3726 1712 4889C7   		movq	%rax, %rdi
 3727 1715 E8000000 		call	_ZSt16__ostream_insertIcSt11char_traitsIcEERSt13basic_ostreamIT_T0_ES6_PKS3_l@PLT
 3727      00
 3728 171a 4C8D3500 		leaq	.LC22(%rip), %r14
 3728      000000
 3729 1721 4D8D6C24 		leaq	12(%r12), %r13
 3729      0C
 3730 1726 4983C430 		addq	$48, %r12
 3731              	.L279:
 3732 172a 488D3500 		leaq	.LC21(%rip), %rsi
 3732      000000
 3733 1731 BA020000 		movl	$2, %edx
 3733      00
 3734 1736 4889DF   		movq	%rbx, %rdi
 3735 1739 E8000000 		call	_ZSt16__ostream_insertIcSt11char_traitsIcEERSt13basic_ostreamIT_T0_ES6_PKS3_l@PLT
 3735      00
 3736 173e 498D6DF4 		leaq	-12(%r13), %rbp
 3737              	.L278:
 3738 1742 660FEFC0 		pxor	%xmm0, %xmm0
 3739 1746 4889DF   		movq	%rbx, %rdi
 3740 1749 F30F5A45 		cvtss2sd	0(%rbp), %xmm0
 3740      00
 3741 174e E8000000 		call	_ZNSo9_M_insertIdEERSoT_@PLT
 3741      00
 3742 1753 BA010000 		movl	$1, %edx
 3742      00
 3743 1758 4C89F6   		movq	%r14, %rsi
 3744 175b 4889C7   		movq	%rax, %rdi
 3745 175e E8000000 		call	_ZSt16__ostream_insertIcSt11char_traitsIcEERSt13basic_ostreamIT_T0_ES6_PKS3_l@PLT
 3745      00
 3746 1763 4883C504 		addq	$4, %rbp
 3747 1767 4C39ED   		cmpq	%r13, %rbp
 3748 176a 75D6     		jne	.L278
 3749 176c 488D3500 		leaq	.LC23(%rip), %rsi
 3749      000000
 3750 1773 BA020000 		movl	$2, %edx
 3750      00
 3751 1778 4889DF   		movq	%rbx, %rdi
 3752 177b E8000000 		call	_ZSt16__ostream_insertIcSt11char_traitsIcEERSt13basic_ostreamIT_T0_ES6_PKS3_l@PLT
 3752      00
 3753 1780 4983C50C 		addq	$12, %r13
 3754 1784 4D39E5   		cmpq	%r12, %r13
 3755 1787 75A1     		jne	.L279
 3756 1789 488D3500 		leaq	.LC26(%rip), %rsi
 3756      000000
 3757 1790 BA010000 		movl	$1, %edx
 3757      00
 3758 1795 4889DF   		movq	%rbx, %rdi
 3759 1798 E8000000 		call	_ZSt16__ostream_insertIcSt11char_traitsIcEERSt13basic_ostreamIT_T0_ES6_PKS3_l@PLT
 3759      00
 3760 179d 4889DF   		movq	%rbx, %rdi
 3761 17a0 E8000000 		call	_ZNK8UnitTest15MemoryOutStream7GetTextEv@PLT
 3761      00
 3762 17a5 488B7424 		movq	24(%rsp), %rsi
 3762      18
 3763 17aa 488B7C24 		movq	16(%rsp), %rdi
 3763      10
 3764 17af 4889C2   		movq	%rax, %rdx
 3765 17b2 E8000000 		call	_ZN8UnitTest11TestResults13OnTestFailureERKNS_11TestDetailsEPKc@PLT
 3765      00
 3766              	.LEHE92:
 3767 17b7 488D0500 		leaq	24+_ZTVN8UnitTest15MemoryOutStreamE(%rip), %rax
 3767      000000
 3768 17be 488BBC24 		movq	144(%rsp), %rdi
 3768      90000000 
 3769 17c6 48894424 		movq	%rax, 32(%rsp)
 3769      20
 3770 17cb 4883C028 		addq	$40, %rax
 3771 17cf 48898424 		movq	%rax, 176(%rsp)
 3771      B0000000 
 3772 17d7 488D8380 		leaq	128(%rbx), %rax
 3772      000000
 3773 17de 4839C7   		cmpq	%rax, %rdi
 3774 17e1 7405     		je	.L280
 3775 17e3 E8000000 		call	_ZdlPv@PLT
 3775      00
 3776              	.L280:
 3777 17e8 488D0500 		leaq	64+_ZTCN8UnitTest15MemoryOutStreamE0_NSt7__cxx1119basic_ostringstreamIcSt11char_traitsIcESaIc
 3777      000000
 3778 17ef 488B7C24 		movq	112(%rsp), %rdi
 3778      70
 3779 17f4 F30F7E05 		movq	.LC14(%rip), %xmm0
 3779      00000000 
 3780 17fc 48898424 		movq	%rax, 176(%rsp)
 3780      B0000000 
 3781 1804 488D4360 		leaq	96(%rbx), %rax
 3782 1808 0F160500 		movhps	.LC15(%rip), %xmm0
 3782      000000
 3783 180f 4839C7   		cmpq	%rax, %rdi
 3784 1812 0F294424 		movaps	%xmm0, 32(%rsp)
 3784      20
 3785 1817 7405     		je	.L281
 3786 1819 E8000000 		call	_ZdlPv@PLT
 3786      00
 3787              	.L281:
 3788 181e 488D0500 		leaq	16+_ZTVSt15basic_streambufIcSt11char_traitsIcEE(%rip), %rax
 3788      000000
 3789 1825 488D7B40 		leaq	64(%rbx), %rdi
 3790 1829 48894424 		movq	%rax, 40(%rsp)
 3790      28
 3791 182e E8000000 		call	_ZNSt6localeD1Ev@PLT
 3791      00
 3792 1833 488D0500 		leaq	24+_ZTCN8UnitTest15MemoryOutStreamE0_So(%rip), %rax
 3792      000000
 3793 183a 488DBB90 		leaq	144(%rbx), %rdi
 3793      000000
 3794 1841 48894424 		movq	%rax, 32(%rsp)
 3794      20
 3795 1846 488D0500 		leaq	16+_ZTVSt9basic_iosIcSt11char_traitsIcEE(%rip), %rax
 3795      000000
 3796 184d 48898424 		movq	%rax, 176(%rsp)
 3796      B0000000 
 3797              	.LEHB93:
 3798 1855 E8000000 		call	_ZNSt8ios_baseD2Ev@PLT
 3798      00
 3799              	.LEHE93:
 3800              	.L247:
 3801 185a 488B8424 		movq	440(%rsp), %rax
 3801      B8010000 
 3802 1862 64483304 		xorq	%fs:40, %rax
 3802      25280000 
 3802      00
 3803 186b 0F858100 		jne	.L328
 3803      0000
 3804 1871 4881C4C8 		addq	$456, %rsp
 3804      010000
 3805              		.cfi_remember_state
 3806              		.cfi_def_cfa_offset 56
 3807 1878 5B       		popq	%rbx
 3808              		.cfi_def_cfa_offset 48
 3809 1879 5D       		popq	%rbp
 3810              		.cfi_def_cfa_offset 40
 3811 187a 415C     		popq	%r12
 3812              		.cfi_def_cfa_offset 32
 3813 187c 415D     		popq	%r13
 3814              		.cfi_def_cfa_offset 24
 3815 187e 415E     		popq	%r14
 3816              		.cfi_def_cfa_offset 16
 3817 1880 415F     		popq	%r15
 3818              		.cfi_def_cfa_offset 8
 3819 1882 C3       		ret
 3820              		.p2align 4,,10
 3821 1883 0F1F4400 		.p2align 3
 3821      00
 3822              	.L323:
 3823              		.cfi_restore_state
 3824 1888 31D2     		xorl	%edx, %edx
 3825 188a E96DFCFF 		jmp	.L265
 3825      FF
 3826 188f 90       		.p2align 4,,10
 3827              		.p2align 3
 3828              	.L321:
 3829 1890 31C0     		xorl	%eax, %eax
 3830 1892 E916FCFF 		jmp	.L260
 3830      FF
 3831 1897 660F1F84 		.p2align 4,,10
 3831      00000000 
 3831      00
 3832              		.p2align 3
 3833              	.L320:
 3834 18a0 31D2     		xorl	%edx, %edx
 3835 18a2 E9D9FBFF 		jmp	.L257
 3835      FF
 3836 18a7 660F1F84 		.p2align 4,,10
 3836      00000000 
 3836      00
 3837              		.p2align 3
 3838              	.L318:
 3839 18b0 31C0     		xorl	%eax, %eax
 3840 18b2 E97AFBFF 		jmp	.L253
 3840      FF
 3841 18b7 660F1F84 		.p2align 4,,10
 3841      00000000 
 3841      00
 3842              		.p2align 3
 3843              	.L317:
 3844 18c0 31C0     		xorl	%eax, %eax
 3845 18c2 E93FFBFF 		jmp	.L250
 3845      FF
 3846 18c7 660F1F84 		.p2align 4,,10
 3846      00000000 
 3846      00
 3847              		.p2align 3
 3848              	.L327:
 3849 18d0 F30F58C2 		addss	%xmm2, %xmm0
 3850 18d4 0F2EC1   		ucomiss	%xmm1, %xmm0
 3851 18d7 0F823BFC 		jb	.L267
 3851      FFFF
 3852 18dd 84D2     		testb	%dl, %dl
 3853 18df 0F8433FC 		je	.L267
 3853      FFFF
 3854 18e5 84C0     		testb	%al, %al
 3855 18e7 0F856DFF 		jne	.L247
 3855      FFFF
 3856 18ed E926FCFF 		jmp	.L267
 3856      FF
 3857              	.L328:
 3858 18f2 E8000000 		call	__stack_chk_fail@PLT
 3858      00
 3859              	.L296:
 3860 18f7 4889C5   		movq	%rax, %rbp
 3861              	.L274:
 3862 18fa 488D0500 		leaq	16+_ZTVSt9basic_iosIcSt11char_traitsIcEE(%rip), %rax
 3862      000000
 3863 1901 488DBB90 		leaq	144(%rbx), %rdi
 3863      000000
 3864 1908 48898424 		movq	%rax, 176(%rsp)
 3864      B0000000 
 3865 1910 E8000000 		call	_ZNSt8ios_baseD2Ev@PLT
 3865      00
 3866 1915 4889EF   		movq	%rbp, %rdi
 3867              	.LEHB94:
 3868 1918 E8000000 		call	_Unwind_Resume@PLT
 3868      00
 3869              	.LEHE94:
 3870              	.L295:
 3871 191d 4889C5   		movq	%rax, %rbp
 3872 1920 4889DF   		movq	%rbx, %rdi
 3873 1923 E8000000 		call	_ZN8UnitTest15MemoryOutStreamD1Ev
 3873      00
 3874 1928 4889EF   		movq	%rbp, %rdi
 3875              	.LEHB95:
 3876 192b E8000000 		call	_Unwind_Resume@PLT
 3876      00
 3877              	.LEHE95:
 3878              	.L297:
 3879 1930 488D7B08 		leaq	8(%rbx), %rdi
 3880 1934 4889C5   		movq	%rax, %rbp
 3881 1937 E8000000 		call	_ZNSt7__cxx1115basic_stringbufIcSt11char_traitsIcESaIcEED1Ev
 3881      00
 3882 193c 488D0500 		leaq	24+_ZTCN8UnitTest15MemoryOutStreamE0_So(%rip), %rax
 3882      000000
 3883 1943 48894424 		movq	%rax, 32(%rsp)
 3883      20
 3884 1948 EBB0     		jmp	.L274
 3885              		.cfi_endproc
 3886              	.LFE1493:
 3887              		.section	.gcc_except_table
 3888              	.LLSDA1493:
 3889 0248 FF       		.byte	0xff
 3890 0249 FF       		.byte	0xff
 3891 024a 01       		.byte	0x1
 3892 024b 22       		.uleb128 .LLSDACSE1493-.LLSDACSB1493
 3893              	.LLSDACSB1493:
 3894 024c 9504     		.uleb128 .LEHB90-.LFB1493
 3895 024e 05       		.uleb128 .LEHE90-.LEHB90
 3896 024f F70A     		.uleb128 .L296-.LFB1493
 3897 0251 00       		.uleb128 0
 3898 0252 9805     		.uleb128 .LEHB91-.LFB1493
 3899 0254 05       		.uleb128 .LEHE91-.LEHB91
 3900 0255 B00B     		.uleb128 .L297-.LFB1493
 3901 0257 00       		.uleb128 0
 3902 0258 E705     		.uleb128 .LEHB92-.LFB1493
 3903 025a D002     		.uleb128 .LEHE92-.LEHB92
 3904 025c 9D0B     		.uleb128 .L295-.LFB1493
 3905 025e 00       		.uleb128 0
 3906 025f D509     		.uleb128 .LEHB93-.LFB1493
 3907 0261 05       		.uleb128 .LEHE93-.LEHB93
 3908 0262 00       		.uleb128 0
 3909 0263 00       		.uleb128 0
 3910 0264 980B     		.uleb128 .LEHB94-.LFB1493
 3911 0266 05       		.uleb128 .LEHE94-.LEHB94
 3912 0267 00       		.uleb128 0
 3913 0268 00       		.uleb128 0
 3914 0269 AB0B     		.uleb128 .LEHB95-.LFB1493
 3915 026b 05       		.uleb128 .LEHE95-.LEHB95
 3916 026c 00       		.uleb128 0
 3917 026d 00       		.uleb128 0
 3918              	.LLSDACSE1493:
 3919              		.text
 3921              		.section	.rodata.str1.8
 3922 01f1 00000000 		.align 8
 3922      000000
 3923              	.LC27:
 3924 01f8 556E6861 		.string	"Unhandled exception in CHECK_EQUAL(0, results.GetFailureCount())"
 3924      6E646C65 
 3924      64206578 
 3924      63657074 
 3924      696F6E20 
 3925              		.text
 3926              		.align 2
 3927 194a 660F1F44 		.p2align 4,,15
 3927      0000
 3929              	_ZNK12_GLOBAL__N_154TestCheckEqualsWithStringsWorksOnContentsConstNonConst7RunImplEv:
 3930              	.LFB1175:
 3931              		.cfi_startproc
 3932              		.cfi_personality 0x9b,DW.ref.__gxx_personality_v0
 3933              		.cfi_lsda 0x1b,.LLSDA1175
 3934 1950 4157     		pushq	%r15
 3935              		.cfi_def_cfa_offset 16
 3936              		.cfi_offset 15, -16
 3937 1952 4156     		pushq	%r14
 3938              		.cfi_def_cfa_offset 24
 3939              		.cfi_offset 14, -24
 3940 1954 31F6     		xorl	%esi, %esi
 3941 1956 4155     		pushq	%r13
 3942              		.cfi_def_cfa_offset 32
 3943              		.cfi_offset 13, -32
 3944 1958 4154     		pushq	%r12
 3945              		.cfi_def_cfa_offset 40
 3946              		.cfi_offset 12, -40
 3947 195a 55       		pushq	%rbp
 3948              		.cfi_def_cfa_offset 48
 3949              		.cfi_offset 6, -48
 3950 195b 53       		pushq	%rbx
 3951              		.cfi_def_cfa_offset 56
 3952              		.cfi_offset 3, -56
 3953 195c 4881ECF8 		subq	$504, %rsp
 3953      010000
 3954              		.cfi_def_cfa_offset 560
 3955 1963 488D5C24 		leaq	16(%rsp), %rbx
 3955      10
 3956 1968 488D6C24 		leaq	48(%rsp), %rbp
 3956      30
 3957 196d 64488B04 		movq	%fs:40, %rax
 3957      25280000 
 3957      00
 3958 1976 48898424 		movq	%rax, 488(%rsp)
 3958      E8010000 
 3959 197e 31C0     		xorl	%eax, %eax
 3960 1980 4889DF   		movq	%rbx, %rdi
 3961              	.LEHB96:
 3962 1983 E8000000 		call	_ZN8UnitTest11TestResultsC1EPNS_12TestReporterE@PLT
 3962      00
 3963 1988 488D0D00 		leaq	.LC1(%rip), %rcx
 3963      000000
 3964 198f 4889EF   		movq	%rbp, %rdi
 3965 1992 4531C0   		xorl	%r8d, %r8d
 3966 1995 4889CA   		movq	%rcx, %rdx
 3967 1998 4889CE   		movq	%rcx, %rsi
 3968 199b E8000000 		call	_ZN8UnitTest11TestDetailsC1EPKcS2_S2_i@PLT
 3968      00
 3969 19a0 488D1500 		leaq	_ZN12_GLOBAL__N_14txt2E(%rip), %rdx
 3969      000000
 3970 19a7 488D3500 		leaq	_ZN12_GLOBAL__N_14txt1E(%rip), %rsi
 3970      000000
 3971 19ae 4889E9   		movq	%rbp, %rcx
 3972 19b1 4889DF   		movq	%rbx, %rdi
 3973 19b4 E8000000 		call	_ZN8UnitTest10CheckEqualERNS_11TestResultsEPKcPcRKNS_11TestDetailsE@PLT
 3973      00
 3974              	.LEHE96:
 3975              	.LEHB97:
 3976 19b9 E8000000 		call	_ZN8UnitTest11CurrentTest7DetailsEv@PLT
 3976      00
 3977 19be 488B30   		movq	(%rax), %rsi
 3978 19c1 BA3E0000 		movl	$62, %edx
 3978      00
 3979 19c6 4889EF   		movq	%rbp, %rdi
 3980 19c9 E8000000 		call	_ZN8UnitTest11TestDetailsC1ERKS0_i@PLT
 3980      00
 3981 19ce 4889DF   		movq	%rbx, %rdi
 3982 19d1 E8000000 		call	_ZNK8UnitTest11TestResults15GetFailureCountEv@PLT
 3982      00
 3983 19d6 4189C4   		movl	%eax, %r12d
 3984 19d9 E8000000 		call	_ZN8UnitTest11CurrentTest7ResultsEv@PLT
 3984      00
 3985              	.LEHE97:
 3986 19de 4585E4   		testl	%r12d, %r12d
 3987 19e1 0F844202 		je	.L329
 3987      0000
 3988 19e7 488D5C24 		leaq	80(%rsp), %rbx
 3988      50
 3989 19ec 488B00   		movq	(%rax), %rax
 3990 19ef 4C8D2D00 		leaq	24+_ZTCN8UnitTest15MemoryOutStreamE0_So(%rip), %r13
 3990      000000
 3991 19f6 4C8DB390 		leaq	144(%rbx), %r14
 3991      000000
 3992 19fd 48890424 		movq	%rax, (%rsp)
 3993 1a01 4C89F7   		movq	%r14, %rdi
 3994 1a04 E8000000 		call	_ZNSt8ios_baseC2Ev@PLT
 3994      00
 3995 1a09 498D4528 		leaq	40(%r13), %rax
 3996 1a0d 31F6     		xorl	%esi, %esi
 3997 1a0f 4C89F7   		movq	%r14, %rdi
 3998 1a12 48C78424 		movq	$0, 440(%rsp)
 3998      B8010000 
 3998      00000000 
 3999 1a1e C68424C0 		movb	$0, 448(%rsp)
 3999      01000000 
 4000 1a26 C68424C1 		movb	$0, 449(%rsp)
 4000      01000000 
 4001 1a2e 48C78424 		movq	$0, 456(%rsp)
 4001      C8010000 
 4001      00000000 
 4002 1a3a 48C78424 		movq	$0, 464(%rsp)
 4002      D0010000 
 4002      00000000 
 4003 1a46 48C78424 		movq	$0, 472(%rsp)
 4003      D8010000 
 4003      00000000 
 4004 1a52 48C78424 		movq	$0, 480(%rsp)
 4004      E0010000 
 4004      00000000 
 4005 1a5e 4C896C24 		movq	%r13, 80(%rsp)
 4005      50
 4006 1a63 48898424 		movq	%rax, 224(%rsp)
 4006      E0000000 
 4007              	.LEHB98:
 4008 1a6b E8000000 		call	_ZNSt9basic_iosIcSt11char_traitsIcEE4initEPSt15basic_streambufIcS1_E@PLT
 4008      00
 4009              	.LEHE98:
 4010 1a70 488D0500 		leaq	24+_ZTCN8UnitTest15MemoryOutStreamE0_NSt7__cxx1119basic_ostringstreamIcSt11char_traitsIcESaIc
 4010      000000
 4011 1a77 660FEFC0 		pxor	%xmm0, %xmm0
 4012 1a7b 488D7B40 		leaq	64(%rbx), %rdi
 4013 1a7f 48894424 		movq	%rax, 80(%rsp)
 4013      50
 4014 1a84 4883C028 		addq	$40, %rax
 4015 1a88 48898424 		movq	%rax, 224(%rsp)
 4015      E0000000 
 4016 1a90 488D0500 		leaq	16+_ZTVSt15basic_streambufIcSt11char_traitsIcEE(%rip), %rax
 4016      000000
 4017 1a97 0F294424 		movaps	%xmm0, 96(%rsp)
 4017      60
 4018 1a9c 48894424 		movq	%rax, 88(%rsp)
 4018      58
 4019 1aa1 0F294424 		movaps	%xmm0, 112(%rsp)
 4019      70
 4020 1aa6 0F298424 		movaps	%xmm0, 128(%rsp)
 4020      80000000 
 4021 1aae E8000000 		call	_ZNSt6localeC1Ev@PLT
 4021      00
 4022 1ab3 488D0500 		leaq	16+_ZTVNSt7__cxx1115basic_stringbufIcSt11char_traitsIcESaIcEEE(%rip), %rax
 4022      000000
 4023 1aba 488D7308 		leaq	8(%rbx), %rsi
 4024 1abe 48894424 		movq	%rax, 88(%rsp)
 4024      58
 4025 1ac3 488D4360 		leaq	96(%rbx), %rax
 4026 1ac7 C7842498 		movl	$16, 152(%rsp)
 4026      00000010 
 4026      000000
 4027 1ad2 48C78424 		movq	$0, 168(%rsp)
 4027      A8000000 
 4027      00000000 
 4028 1ade C68424B0 		movb	$0, 176(%rsp)
 4028      00000000 
 4029 1ae6 48898424 		movq	%rax, 160(%rsp)
 4029      A0000000 
 4030 1aee 488B4424 		movq	80(%rsp), %rax
 4030      50
 4031 1af3 488B78E8 		movq	-24(%rax), %rdi
 4032 1af7 4801DF   		addq	%rbx, %rdi
 4033              	.LEHB99:
 4034 1afa E8000000 		call	_ZNSt9basic_iosIcSt11char_traitsIcEE4initEPSt15basic_streambufIcS1_E@PLT
 4034      00
 4035              	.LEHE99:
 4036 1aff 4C8D3D00 		leaq	24+_ZTVN8UnitTest15MemoryOutStreamE(%rip), %r15
 4036      000000
 4037 1b06 488D8380 		leaq	128(%rbx), %rax
 4037      000000
 4038 1b0d 488D3500 		leaq	.LC2(%rip), %rsi
 4038      000000
 4039 1b14 BA090000 		movl	$9, %edx
 4039      00
 4040 1b19 4889DF   		movq	%rbx, %rdi
 4041 1b1c 48C78424 		movq	$0, 200(%rsp)
 4041      C8000000 
 4041      00000000 
 4042 1b28 4D8D7728 		leaq	40(%r15), %r14
 4043 1b2c 4C897C24 		movq	%r15, 80(%rsp)
 4043      50
 4044 1b31 48898424 		movq	%rax, 192(%rsp)
 4044      C0000000 
 4045 1b39 C68424D0 		movb	$0, 208(%rsp)
 4045      00000000 
 4046 1b41 4C89B424 		movq	%r14, 224(%rsp)
 4046      E0000000 
 4047              	.LEHB100:
 4048 1b49 E8000000 		call	_ZSt16__ostream_insertIcSt11char_traitsIcEERSt13basic_ostreamIT_T0_ES6_PKS3_l@PLT
 4048      00
 4049 1b4e 31F6     		xorl	%esi, %esi
 4050 1b50 4889DF   		movq	%rbx, %rdi
 4051 1b53 E8000000 		call	_ZNSolsEi@PLT
 4051      00
 4052 1b58 488D3500 		leaq	.LC6(%rip), %rsi
 4052      000000
 4053 1b5f BA090000 		movl	$9, %edx
 4053      00
 4054 1b64 4889C7   		movq	%rax, %rdi
 4055 1b67 48894424 		movq	%rax, 8(%rsp)
 4055      08
 4056 1b6c E8000000 		call	_ZSt16__ostream_insertIcSt11char_traitsIcEERSt13basic_ostreamIT_T0_ES6_PKS3_l@PLT
 4056      00
 4057 1b71 488B7C24 		movq	8(%rsp), %rdi
 4057      08
 4058 1b76 4489E6   		movl	%r12d, %esi
 4059 1b79 E8000000 		call	_ZNSolsEi@PLT
 4059      00
 4060 1b7e 4889DF   		movq	%rbx, %rdi
 4061 1b81 E8000000 		call	_ZNK8UnitTest15MemoryOutStream7GetTextEv@PLT
 4061      00
 4062 1b86 488B3C24 		movq	(%rsp), %rdi
 4063 1b8a 4889C2   		movq	%rax, %rdx
 4064 1b8d 4889EE   		movq	%rbp, %rsi
 4065 1b90 E8000000 		call	_ZN8UnitTest11TestResults13OnTestFailureERKNS_11TestDetailsEPKc@PLT
 4065      00
 4066              	.LEHE100:
 4067 1b95 488BBC24 		movq	192(%rsp), %rdi
 4067      C0000000 
 4068 1b9d 488D8380 		leaq	128(%rbx), %rax
 4068      000000
 4069 1ba4 4C897C24 		movq	%r15, 80(%rsp)
 4069      50
 4070 1ba9 4C89B424 		movq	%r14, 224(%rsp)
 4070      E0000000 
 4071 1bb1 4839C7   		cmpq	%rax, %rdi
 4072 1bb4 7405     		je	.L336
 4073 1bb6 E8000000 		call	_ZdlPv@PLT
 4073      00
 4074              	.L336:
 4075 1bbb 488D0500 		leaq	64+_ZTCN8UnitTest15MemoryOutStreamE0_NSt7__cxx1119basic_ostringstreamIcSt11char_traitsIcESaIc
 4075      000000
 4076 1bc2 488BBC24 		movq	160(%rsp), %rdi
 4076      A0000000 
 4077 1bca F30F7E05 		movq	.LC14(%rip), %xmm0
 4077      00000000 
 4078 1bd2 48898424 		movq	%rax, 224(%rsp)
 4078      E0000000 
 4079 1bda 488D4360 		leaq	96(%rbx), %rax
 4080 1bde 0F160500 		movhps	.LC15(%rip), %xmm0
 4080      000000
 4081 1be5 4839C7   		cmpq	%rax, %rdi
 4082 1be8 0F294424 		movaps	%xmm0, 80(%rsp)
 4082      50
 4083 1bed 7405     		je	.L337
 4084 1bef E8000000 		call	_ZdlPv@PLT
 4084      00
 4085              	.L337:
 4086 1bf4 488D0500 		leaq	16+_ZTVSt15basic_streambufIcSt11char_traitsIcEE(%rip), %rax
 4086      000000
 4087 1bfb 488D7B40 		leaq	64(%rbx), %rdi
 4088 1bff 48894424 		movq	%rax, 88(%rsp)
 4088      58
 4089 1c04 E8000000 		call	_ZNSt6localeD1Ev@PLT
 4089      00
 4090 1c09 488D0500 		leaq	16+_ZTVSt9basic_iosIcSt11char_traitsIcEE(%rip), %rax
 4090      000000
 4091 1c10 488DBB90 		leaq	144(%rbx), %rdi
 4091      000000
 4092 1c17 4C896C24 		movq	%r13, 80(%rsp)
 4092      50
 4093 1c1c 48898424 		movq	%rax, 224(%rsp)
 4093      E0000000 
 4094              	.LEHB101:
 4095 1c24 E8000000 		call	_ZNSt8ios_baseD2Ev@PLT
 4095      00
 4096              	.LEHE101:
 4097              	.L329:
 4098 1c29 488B8424 		movq	488(%rsp), %rax
 4098      E8010000 
 4099 1c31 64483304 		xorq	%fs:40, %rax
 4099      25280000 
 4099      00
 4100 1c3a 7512     		jne	.L353
 4101 1c3c 4881C4F8 		addq	$504, %rsp
 4101      010000
 4102              		.cfi_remember_state
 4103              		.cfi_def_cfa_offset 56
 4104 1c43 5B       		popq	%rbx
 4105              		.cfi_def_cfa_offset 48
 4106 1c44 5D       		popq	%rbp
 4107              		.cfi_def_cfa_offset 40
 4108 1c45 415C     		popq	%r12
 4109              		.cfi_def_cfa_offset 32
 4110 1c47 415D     		popq	%r13
 4111              		.cfi_def_cfa_offset 24
 4112 1c49 415E     		popq	%r14
 4113              		.cfi_def_cfa_offset 16
 4114 1c4b 415F     		popq	%r15
 4115              		.cfi_def_cfa_offset 8
 4116 1c4d C3       		ret
 4117              	.L353:
 4118              		.cfi_restore_state
 4119 1c4e E8000000 		call	__stack_chk_fail@PLT
 4119      00
 4120              	.L344:
 4121 1c53 4889DF   		movq	%rbx, %rdi
 4122 1c56 4989C4   		movq	%rax, %r12
 4123 1c59 E8000000 		call	_ZN8UnitTest15MemoryOutStreamD1Ev
 4123      00
 4124              	.L335:
 4125 1c5e 4C89E7   		movq	%r12, %rdi
 4126 1c61 E8000000 		call	__cxa_begin_catch@PLT
 4126      00
 4127              	.LEHB102:
 4128 1c66 E8000000 		call	_ZN8UnitTest11CurrentTest7ResultsEv@PLT
 4128      00
 4129 1c6b 488B18   		movq	(%rax), %rbx
 4130 1c6e E8000000 		call	_ZN8UnitTest11CurrentTest7DetailsEv@PLT
 4130      00
 4131 1c73 488B30   		movq	(%rax), %rsi
 4132 1c76 BA3E0000 		movl	$62, %edx
 4132      00
 4133 1c7b 4889EF   		movq	%rbp, %rdi
 4134 1c7e E8000000 		call	_ZN8UnitTest11TestDetailsC1ERKS0_i@PLT
 4134      00
 4135 1c83 488D1500 		leaq	.LC27(%rip), %rdx
 4135      000000
 4136 1c8a 4889EE   		movq	%rbp, %rsi
 4137 1c8d 4889DF   		movq	%rbx, %rdi
 4138 1c90 E8000000 		call	_ZN8UnitTest11TestResults13OnTestFailureERKNS_11TestDetailsEPKc@PLT
 4138      00
 4139              	.LEHE102:
 4140              	.LEHB103:
 4141 1c95 E8000000 		call	__cxa_end_catch@PLT
 4141      00
 4142              	.LEHE103:
 4143 1c9a EB8D     		jmp	.L329
 4144              	.L342:
 4145 1c9c 4989C4   		movq	%rax, %r12
 4146 1c9f EBBD     		jmp	.L335
 4147              	.L343:
 4148 1ca1 4889C3   		movq	%rax, %rbx
 4149 1ca4 E8000000 		call	__cxa_end_catch@PLT
 4149      00
 4150 1ca9 4889DF   		movq	%rbx, %rdi
 4151              	.LEHB104:
 4152 1cac E8000000 		call	_Unwind_Resume@PLT
 4152      00
 4153              	.LEHE104:
 4154              	.L346:
 4155 1cb1 488D7B08 		leaq	8(%rbx), %rdi
 4156 1cb5 4989C4   		movq	%rax, %r12
 4157 1cb8 E8000000 		call	_ZNSt7__cxx1115basic_stringbufIcSt11char_traitsIcESaIcEED1Ev
 4157      00
 4158 1cbd 4C896C24 		movq	%r13, 80(%rsp)
 4158      50
 4159              	.L333:
 4160 1cc2 488D0500 		leaq	16+_ZTVSt9basic_iosIcSt11char_traitsIcEE(%rip), %rax
 4160      000000
 4161 1cc9 488DBB90 		leaq	144(%rbx), %rdi
 4161      000000
 4162 1cd0 48898424 		movq	%rax, 224(%rsp)
 4162      E0000000 
 4163 1cd8 E8000000 		call	_ZNSt8ios_baseD2Ev@PLT
 4163      00
 4164 1cdd E97CFFFF 		jmp	.L335
 4164      FF
 4165              	.L345:
 4166 1ce2 4989C4   		movq	%rax, %r12
 4167 1ce5 EBDB     		jmp	.L333
 4168              		.cfi_endproc
 4169              	.LFE1175:
 4170              		.section	.gcc_except_table
 4171 026e 0000     		.align 4
 4172              	.LLSDA1175:
 4173 0270 FF       		.byte	0xff
 4174 0271 9B       		.byte	0x9b
 4175 0272 3D       		.uleb128 .LLSDATT1175-.LLSDATTD1175
 4176              	.LLSDATTD1175:
 4177 0273 01       		.byte	0x1
 4178 0274 31       		.uleb128 .LLSDACSE1175-.LLSDACSB1175
 4179              	.LLSDACSB1175:
 4180 0275 33       		.uleb128 .LEHB96-.LFB1175
 4181 0276 36       		.uleb128 .LEHE96-.LEHB96
 4182 0277 00       		.uleb128 0
 4183 0278 00       		.uleb128 0
 4184 0279 69       		.uleb128 .LEHB97-.LFB1175
 4185 027a 25       		.uleb128 .LEHE97-.LEHB97
 4186 027b CC06     		.uleb128 .L342-.LFB1175
 4187 027d 01       		.uleb128 0x1
 4188 027e 9B02     		.uleb128 .LEHB98-.LFB1175
 4189 0280 05       		.uleb128 .LEHE98-.LEHB98
 4190 0281 9207     		.uleb128 .L345-.LFB1175
 4191 0283 03       		.uleb128 0x3
 4192 0284 AA03     		.uleb128 .LEHB99-.LFB1175
 4193 0286 05       		.uleb128 .LEHE99-.LEHB99
 4194 0287 E106     		.uleb128 .L346-.LFB1175
 4195 0289 03       		.uleb128 0x3
 4196 028a F903     		.uleb128 .LEHB100-.LFB1175
 4197 028c 4C       		.uleb128 .LEHE100-.LEHB100
 4198 028d 8306     		.uleb128 .L344-.LFB1175
 4199 028f 03       		.uleb128 0x3
 4200 0290 D405     		.uleb128 .LEHB101-.LFB1175
 4201 0292 05       		.uleb128 .LEHE101-.LEHB101
 4202 0293 CC06     		.uleb128 .L342-.LFB1175
 4203 0295 01       		.uleb128 0x1
 4204 0296 9606     		.uleb128 .LEHB102-.LFB1175
 4205 0298 2F       		.uleb128 .LEHE102-.LEHB102
 4206 0299 D106     		.uleb128 .L343-.LFB1175
 4207 029b 00       		.uleb128 0
 4208 029c C506     		.uleb128 .LEHB103-.LFB1175
 4209 029e 05       		.uleb128 .LEHE103-.LEHB103
 4210 029f 00       		.uleb128 0
 4211 02a0 00       		.uleb128 0
 4212 02a1 DC06     		.uleb128 .LEHB104-.LFB1175
 4213 02a3 05       		.uleb128 .LEHE104-.LEHB104
 4214 02a4 00       		.uleb128 0
 4215 02a5 00       		.uleb128 0
 4216              	.LLSDACSE1175:
 4217 02a6 01       		.byte	0x1
 4218 02a7 00       		.byte	0
 4219 02a8 00       		.byte	0
 4220 02a9 7D       		.byte	0x7d
 4221 02aa 0000     		.align 4
 4222 02ac 00000000 		.long	0
 4223              	
 4224              	.LLSDATT1175:
 4225              		.text
 4227 1ce7 90       		.align 2
 4228 1ce8 0F1F8400 		.p2align 4,,15
 4228      00000000 
 4230              	_ZNK12_GLOBAL__N_157TestCheckEqualsWithStringsWorksOnContentsNonConstNonConst7RunImplEv:
 4231              	.LFB1163:
 4232              		.cfi_startproc
 4233              		.cfi_personality 0x9b,DW.ref.__gxx_personality_v0
 4234              		.cfi_lsda 0x1b,.LLSDA1163
 4235 1cf0 4157     		pushq	%r15
 4236              		.cfi_def_cfa_offset 16
 4237              		.cfi_offset 15, -16
 4238 1cf2 4156     		pushq	%r14
 4239              		.cfi_def_cfa_offset 24
 4240              		.cfi_offset 14, -24
 4241 1cf4 31F6     		xorl	%esi, %esi
 4242 1cf6 4155     		pushq	%r13
 4243              		.cfi_def_cfa_offset 32
 4244              		.cfi_offset 13, -32
 4245 1cf8 4154     		pushq	%r12
 4246              		.cfi_def_cfa_offset 40
 4247              		.cfi_offset 12, -40
 4248 1cfa 55       		pushq	%rbp
 4249              		.cfi_def_cfa_offset 48
 4250              		.cfi_offset 6, -48
 4251 1cfb 53       		pushq	%rbx
 4252              		.cfi_def_cfa_offset 56
 4253              		.cfi_offset 3, -56
 4254 1cfc 4881ECF8 		subq	$504, %rsp
 4254      010000
 4255              		.cfi_def_cfa_offset 560
 4256 1d03 488D5C24 		leaq	16(%rsp), %rbx
 4256      10
 4257 1d08 488D6C24 		leaq	48(%rsp), %rbp
 4257      30
 4258 1d0d 64488B04 		movq	%fs:40, %rax
 4258      25280000 
 4258      00
 4259 1d16 48898424 		movq	%rax, 488(%rsp)
 4259      E8010000 
 4260 1d1e 31C0     		xorl	%eax, %eax
 4261 1d20 4889DF   		movq	%rbx, %rdi
 4262              	.LEHB105:
 4263 1d23 E8000000 		call	_ZN8UnitTest11TestResultsC1EPNS_12TestReporterE@PLT
 4263      00
 4264 1d28 488D0D00 		leaq	.LC1(%rip), %rcx
 4264      000000
 4265 1d2f 4889EF   		movq	%rbp, %rdi
 4266 1d32 4531C0   		xorl	%r8d, %r8d
 4267 1d35 4889CA   		movq	%rcx, %rdx
 4268 1d38 4889CE   		movq	%rcx, %rsi
 4269 1d3b E8000000 		call	_ZN8UnitTest11TestDetailsC1EPKcS2_S2_i@PLT
 4269      00
 4270 1d40 488D1500 		leaq	_ZN12_GLOBAL__N_14txt2E(%rip), %rdx
 4270      000000
 4271 1d47 488D3500 		leaq	_ZN12_GLOBAL__N_14txt1E(%rip), %rsi
 4271      000000
 4272 1d4e 4889E9   		movq	%rbp, %rcx
 4273 1d51 4889DF   		movq	%rbx, %rdi
 4274 1d54 E8000000 		call	_ZN8UnitTest10CheckEqualERNS_11TestResultsEPKcS3_RKNS_11TestDetailsE@PLT
 4274      00
 4275              	.LEHE105:
 4276              	.LEHB106:
 4277 1d59 E8000000 		call	_ZN8UnitTest11CurrentTest7DetailsEv@PLT
 4277      00
 4278 1d5e 488B30   		movq	(%rax), %rsi
 4279 1d61 BA230000 		movl	$35, %edx
 4279      00
 4280 1d66 4889EF   		movq	%rbp, %rdi
 4281 1d69 E8000000 		call	_ZN8UnitTest11TestDetailsC1ERKS0_i@PLT
 4281      00
 4282 1d6e 4889DF   		movq	%rbx, %rdi
 4283 1d71 E8000000 		call	_ZNK8UnitTest11TestResults15GetFailureCountEv@PLT
 4283      00
 4284 1d76 4189C4   		movl	%eax, %r12d
 4285 1d79 E8000000 		call	_ZN8UnitTest11CurrentTest7ResultsEv@PLT
 4285      00
 4286              	.LEHE106:
 4287 1d7e 4585E4   		testl	%r12d, %r12d
 4288 1d81 0F844202 		je	.L354
 4288      0000
 4289 1d87 488D5C24 		leaq	80(%rsp), %rbx
 4289      50
 4290 1d8c 488B00   		movq	(%rax), %rax
 4291 1d8f 4C8D2D00 		leaq	24+_ZTCN8UnitTest15MemoryOutStreamE0_So(%rip), %r13
 4291      000000
 4292 1d96 4C8DB390 		leaq	144(%rbx), %r14
 4292      000000
 4293 1d9d 48890424 		movq	%rax, (%rsp)
 4294 1da1 4C89F7   		movq	%r14, %rdi
 4295 1da4 E8000000 		call	_ZNSt8ios_baseC2Ev@PLT
 4295      00
 4296 1da9 498D4528 		leaq	40(%r13), %rax
 4297 1dad 31F6     		xorl	%esi, %esi
 4298 1daf 4C89F7   		movq	%r14, %rdi
 4299 1db2 48C78424 		movq	$0, 440(%rsp)
 4299      B8010000 
 4299      00000000 
 4300 1dbe C68424C0 		movb	$0, 448(%rsp)
 4300      01000000 
 4301 1dc6 C68424C1 		movb	$0, 449(%rsp)
 4301      01000000 
 4302 1dce 48C78424 		movq	$0, 456(%rsp)
 4302      C8010000 
 4302      00000000 
 4303 1dda 48C78424 		movq	$0, 464(%rsp)
 4303      D0010000 
 4303      00000000 
 4304 1de6 48C78424 		movq	$0, 472(%rsp)
 4304      D8010000 
 4304      00000000 
 4305 1df2 48C78424 		movq	$0, 480(%rsp)
 4305      E0010000 
 4305      00000000 
 4306 1dfe 4C896C24 		movq	%r13, 80(%rsp)
 4306      50
 4307 1e03 48898424 		movq	%rax, 224(%rsp)
 4307      E0000000 
 4308              	.LEHB107:
 4309 1e0b E8000000 		call	_ZNSt9basic_iosIcSt11char_traitsIcEE4initEPSt15basic_streambufIcS1_E@PLT
 4309      00
 4310              	.LEHE107:
 4311 1e10 488D0500 		leaq	24+_ZTCN8UnitTest15MemoryOutStreamE0_NSt7__cxx1119basic_ostringstreamIcSt11char_traitsIcESaIc
 4311      000000
 4312 1e17 660FEFC0 		pxor	%xmm0, %xmm0
 4313 1e1b 488D7B40 		leaq	64(%rbx), %rdi
 4314 1e1f 48894424 		movq	%rax, 80(%rsp)
 4314      50
 4315 1e24 4883C028 		addq	$40, %rax
 4316 1e28 48898424 		movq	%rax, 224(%rsp)
 4316      E0000000 
 4317 1e30 488D0500 		leaq	16+_ZTVSt15basic_streambufIcSt11char_traitsIcEE(%rip), %rax
 4317      000000
 4318 1e37 0F294424 		movaps	%xmm0, 96(%rsp)
 4318      60
 4319 1e3c 48894424 		movq	%rax, 88(%rsp)
 4319      58
 4320 1e41 0F294424 		movaps	%xmm0, 112(%rsp)
 4320      70
 4321 1e46 0F298424 		movaps	%xmm0, 128(%rsp)
 4321      80000000 
 4322 1e4e E8000000 		call	_ZNSt6localeC1Ev@PLT
 4322      00
 4323 1e53 488D0500 		leaq	16+_ZTVNSt7__cxx1115basic_stringbufIcSt11char_traitsIcESaIcEEE(%rip), %rax
 4323      000000
 4324 1e5a 488D7308 		leaq	8(%rbx), %rsi
 4325 1e5e 48894424 		movq	%rax, 88(%rsp)
 4325      58
 4326 1e63 488D4360 		leaq	96(%rbx), %rax
 4327 1e67 C7842498 		movl	$16, 152(%rsp)
 4327      00000010 
 4327      000000
 4328 1e72 48C78424 		movq	$0, 168(%rsp)
 4328      A8000000 
 4328      00000000 
 4329 1e7e C68424B0 		movb	$0, 176(%rsp)
 4329      00000000 
 4330 1e86 48898424 		movq	%rax, 160(%rsp)
 4330      A0000000 
 4331 1e8e 488B4424 		movq	80(%rsp), %rax
 4331      50
 4332 1e93 488B78E8 		movq	-24(%rax), %rdi
 4333 1e97 4801DF   		addq	%rbx, %rdi
 4334              	.LEHB108:
 4335 1e9a E8000000 		call	_ZNSt9basic_iosIcSt11char_traitsIcEE4initEPSt15basic_streambufIcS1_E@PLT
 4335      00
 4336              	.LEHE108:
 4337 1e9f 4C8D3D00 		leaq	24+_ZTVN8UnitTest15MemoryOutStreamE(%rip), %r15
 4337      000000
 4338 1ea6 488D8380 		leaq	128(%rbx), %rax
 4338      000000
 4339 1ead 488D3500 		leaq	.LC2(%rip), %rsi
 4339      000000
 4340 1eb4 BA090000 		movl	$9, %edx
 4340      00
 4341 1eb9 4889DF   		movq	%rbx, %rdi
 4342 1ebc 48C78424 		movq	$0, 200(%rsp)
 4342      C8000000 
 4342      00000000 
 4343 1ec8 4D8D7728 		leaq	40(%r15), %r14
 4344 1ecc 4C897C24 		movq	%r15, 80(%rsp)
 4344      50
 4345 1ed1 48898424 		movq	%rax, 192(%rsp)
 4345      C0000000 
 4346 1ed9 C68424D0 		movb	$0, 208(%rsp)
 4346      00000000 
 4347 1ee1 4C89B424 		movq	%r14, 224(%rsp)
 4347      E0000000 
 4348              	.LEHB109:
 4349 1ee9 E8000000 		call	_ZSt16__ostream_insertIcSt11char_traitsIcEERSt13basic_ostreamIT_T0_ES6_PKS3_l@PLT
 4349      00
 4350 1eee 31F6     		xorl	%esi, %esi
 4351 1ef0 4889DF   		movq	%rbx, %rdi
 4352 1ef3 E8000000 		call	_ZNSolsEi@PLT
 4352      00
 4353 1ef8 488D3500 		leaq	.LC6(%rip), %rsi
 4353      000000
 4354 1eff BA090000 		movl	$9, %edx
 4354      00
 4355 1f04 4889C7   		movq	%rax, %rdi
 4356 1f07 48894424 		movq	%rax, 8(%rsp)
 4356      08
 4357 1f0c E8000000 		call	_ZSt16__ostream_insertIcSt11char_traitsIcEERSt13basic_ostreamIT_T0_ES6_PKS3_l@PLT
 4357      00
 4358 1f11 488B7C24 		movq	8(%rsp), %rdi
 4358      08
 4359 1f16 4489E6   		movl	%r12d, %esi
 4360 1f19 E8000000 		call	_ZNSolsEi@PLT
 4360      00
 4361 1f1e 4889DF   		movq	%rbx, %rdi
 4362 1f21 E8000000 		call	_ZNK8UnitTest15MemoryOutStream7GetTextEv@PLT
 4362      00
 4363 1f26 488B3C24 		movq	(%rsp), %rdi
 4364 1f2a 4889C2   		movq	%rax, %rdx
 4365 1f2d 4889EE   		movq	%rbp, %rsi
 4366 1f30 E8000000 		call	_ZN8UnitTest11TestResults13OnTestFailureERKNS_11TestDetailsEPKc@PLT
 4366      00
 4367              	.LEHE109:
 4368 1f35 488BBC24 		movq	192(%rsp), %rdi
 4368      C0000000 
 4369 1f3d 488D8380 		leaq	128(%rbx), %rax
 4369      000000
 4370 1f44 4C897C24 		movq	%r15, 80(%rsp)
 4370      50
 4371 1f49 4C89B424 		movq	%r14, 224(%rsp)
 4371      E0000000 
 4372 1f51 4839C7   		cmpq	%rax, %rdi
 4373 1f54 7405     		je	.L361
 4374 1f56 E8000000 		call	_ZdlPv@PLT
 4374      00
 4375              	.L361:
 4376 1f5b 488D0500 		leaq	64+_ZTCN8UnitTest15MemoryOutStreamE0_NSt7__cxx1119basic_ostringstreamIcSt11char_traitsIcESaIc
 4376      000000
 4377 1f62 488BBC24 		movq	160(%rsp), %rdi
 4377      A0000000 
 4378 1f6a F30F7E05 		movq	.LC14(%rip), %xmm0
 4378      00000000 
 4379 1f72 48898424 		movq	%rax, 224(%rsp)
 4379      E0000000 
 4380 1f7a 488D4360 		leaq	96(%rbx), %rax
 4381 1f7e 0F160500 		movhps	.LC15(%rip), %xmm0
 4381      000000
 4382 1f85 4839C7   		cmpq	%rax, %rdi
 4383 1f88 0F294424 		movaps	%xmm0, 80(%rsp)
 4383      50
 4384 1f8d 7405     		je	.L362
 4385 1f8f E8000000 		call	_ZdlPv@PLT
 4385      00
 4386              	.L362:
 4387 1f94 488D0500 		leaq	16+_ZTVSt15basic_streambufIcSt11char_traitsIcEE(%rip), %rax
 4387      000000
 4388 1f9b 488D7B40 		leaq	64(%rbx), %rdi
 4389 1f9f 48894424 		movq	%rax, 88(%rsp)
 4389      58
 4390 1fa4 E8000000 		call	_ZNSt6localeD1Ev@PLT
 4390      00
 4391 1fa9 488D0500 		leaq	16+_ZTVSt9basic_iosIcSt11char_traitsIcEE(%rip), %rax
 4391      000000
 4392 1fb0 488DBB90 		leaq	144(%rbx), %rdi
 4392      000000
 4393 1fb7 4C896C24 		movq	%r13, 80(%rsp)
 4393      50
 4394 1fbc 48898424 		movq	%rax, 224(%rsp)
 4394      E0000000 
 4395              	.LEHB110:
 4396 1fc4 E8000000 		call	_ZNSt8ios_baseD2Ev@PLT
 4396      00
 4397              	.LEHE110:
 4398              	.L354:
 4399 1fc9 488B8424 		movq	488(%rsp), %rax
 4399      E8010000 
 4400 1fd1 64483304 		xorq	%fs:40, %rax
 4400      25280000 
 4400      00
 4401 1fda 7512     		jne	.L378
 4402 1fdc 4881C4F8 		addq	$504, %rsp
 4402      010000
 4403              		.cfi_remember_state
 4404              		.cfi_def_cfa_offset 56
 4405 1fe3 5B       		popq	%rbx
 4406              		.cfi_def_cfa_offset 48
 4407 1fe4 5D       		popq	%rbp
 4408              		.cfi_def_cfa_offset 40
 4409 1fe5 415C     		popq	%r12
 4410              		.cfi_def_cfa_offset 32
 4411 1fe7 415D     		popq	%r13
 4412              		.cfi_def_cfa_offset 24
 4413 1fe9 415E     		popq	%r14
 4414              		.cfi_def_cfa_offset 16
 4415 1feb 415F     		popq	%r15
 4416              		.cfi_def_cfa_offset 8
 4417 1fed C3       		ret
 4418              	.L378:
 4419              		.cfi_restore_state
 4420 1fee E8000000 		call	__stack_chk_fail@PLT
 4420      00
 4421              	.L369:
 4422 1ff3 4889DF   		movq	%rbx, %rdi
 4423 1ff6 4989C4   		movq	%rax, %r12
 4424 1ff9 E8000000 		call	_ZN8UnitTest15MemoryOutStreamD1Ev
 4424      00
 4425              	.L360:
 4426 1ffe 4C89E7   		movq	%r12, %rdi
 4427 2001 E8000000 		call	__cxa_begin_catch@PLT
 4427      00
 4428              	.LEHB111:
 4429 2006 E8000000 		call	_ZN8UnitTest11CurrentTest7ResultsEv@PLT
 4429      00
 4430 200b 488B18   		movq	(%rax), %rbx
 4431 200e E8000000 		call	_ZN8UnitTest11CurrentTest7DetailsEv@PLT
 4431      00
 4432 2013 488B30   		movq	(%rax), %rsi
 4433 2016 BA230000 		movl	$35, %edx
 4433      00
 4434 201b 4889EF   		movq	%rbp, %rdi
 4435 201e E8000000 		call	_ZN8UnitTest11TestDetailsC1ERKS0_i@PLT
 4435      00
 4436 2023 488D1500 		leaq	.LC27(%rip), %rdx
 4436      000000
 4437 202a 4889EE   		movq	%rbp, %rsi
 4438 202d 4889DF   		movq	%rbx, %rdi
 4439 2030 E8000000 		call	_ZN8UnitTest11TestResults13OnTestFailureERKNS_11TestDetailsEPKc@PLT
 4439      00
 4440              	.LEHE111:
 4441              	.LEHB112:
 4442 2035 E8000000 		call	__cxa_end_catch@PLT
 4442      00
 4443              	.LEHE112:
 4444 203a EB8D     		jmp	.L354
 4445              	.L367:
 4446 203c 4989C4   		movq	%rax, %r12
 4447 203f EBBD     		jmp	.L360
 4448              	.L368:
 4449 2041 4889C3   		movq	%rax, %rbx
 4450 2044 E8000000 		call	__cxa_end_catch@PLT
 4450      00
 4451 2049 4889DF   		movq	%rbx, %rdi
 4452              	.LEHB113:
 4453 204c E8000000 		call	_Unwind_Resume@PLT
 4453      00
 4454              	.LEHE113:
 4455              	.L371:
 4456 2051 488D7B08 		leaq	8(%rbx), %rdi
 4457 2055 4989C4   		movq	%rax, %r12
 4458 2058 E8000000 		call	_ZNSt7__cxx1115basic_stringbufIcSt11char_traitsIcESaIcEED1Ev
 4458      00
 4459 205d 4C896C24 		movq	%r13, 80(%rsp)
 4459      50
 4460              	.L358:
 4461 2062 488D0500 		leaq	16+_ZTVSt9basic_iosIcSt11char_traitsIcEE(%rip), %rax
 4461      000000
 4462 2069 488DBB90 		leaq	144(%rbx), %rdi
 4462      000000
 4463 2070 48898424 		movq	%rax, 224(%rsp)
 4463      E0000000 
 4464 2078 E8000000 		call	_ZNSt8ios_baseD2Ev@PLT
 4464      00
 4465 207d E97CFFFF 		jmp	.L360
 4465      FF
 4466              	.L370:
 4467 2082 4989C4   		movq	%rax, %r12
 4468 2085 EBDB     		jmp	.L358
 4469              		.cfi_endproc
 4470              	.LFE1163:
 4471              		.section	.gcc_except_table
 4472              		.align 4
 4473              	.LLSDA1163:
 4474 02b0 FF       		.byte	0xff
 4475 02b1 9B       		.byte	0x9b
 4476 02b2 3D       		.uleb128 .LLSDATT1163-.LLSDATTD1163
 4477              	.LLSDATTD1163:
 4478 02b3 01       		.byte	0x1
 4479 02b4 31       		.uleb128 .LLSDACSE1163-.LLSDACSB1163
 4480              	.LLSDACSB1163:
 4481 02b5 33       		.uleb128 .LEHB105-.LFB1163
 4482 02b6 36       		.uleb128 .LEHE105-.LEHB105
 4483 02b7 00       		.uleb128 0
 4484 02b8 00       		.uleb128 0
 4485 02b9 69       		.uleb128 .LEHB106-.LFB1163
 4486 02ba 25       		.uleb128 .LEHE106-.LEHB106
 4487 02bb CC06     		.uleb128 .L367-.LFB1163
 4488 02bd 01       		.uleb128 0x1
 4489 02be 9B02     		.uleb128 .LEHB107-.LFB1163
 4490 02c0 05       		.uleb128 .LEHE107-.LEHB107
 4491 02c1 9207     		.uleb128 .L370-.LFB1163
 4492 02c3 03       		.uleb128 0x3
 4493 02c4 AA03     		.uleb128 .LEHB108-.LFB1163
 4494 02c6 05       		.uleb128 .LEHE108-.LEHB108
 4495 02c7 E106     		.uleb128 .L371-.LFB1163
 4496 02c9 03       		.uleb128 0x3
 4497 02ca F903     		.uleb128 .LEHB109-.LFB1163
 4498 02cc 4C       		.uleb128 .LEHE109-.LEHB109
 4499 02cd 8306     		.uleb128 .L369-.LFB1163
 4500 02cf 03       		.uleb128 0x3
 4501 02d0 D405     		.uleb128 .LEHB110-.LFB1163
 4502 02d2 05       		.uleb128 .LEHE110-.LEHB110
 4503 02d3 CC06     		.uleb128 .L367-.LFB1163
 4504 02d5 01       		.uleb128 0x1
 4505 02d6 9606     		.uleb128 .LEHB111-.LFB1163
 4506 02d8 2F       		.uleb128 .LEHE111-.LEHB111
 4507 02d9 D106     		.uleb128 .L368-.LFB1163
 4508 02db 00       		.uleb128 0
 4509 02dc C506     		.uleb128 .LEHB112-.LFB1163
 4510 02de 05       		.uleb128 .LEHE112-.LEHB112
 4511 02df 00       		.uleb128 0
 4512 02e0 00       		.uleb128 0
 4513 02e1 DC06     		.uleb128 .LEHB113-.LFB1163
 4514 02e3 05       		.uleb128 .LEHE113-.LEHB113
 4515 02e4 00       		.uleb128 0
 4516 02e5 00       		.uleb128 0
 4517              	.LLSDACSE1163:
 4518 02e6 01       		.byte	0x1
 4519 02e7 00       		.byte	0
 4520 02e8 00       		.byte	0
 4521 02e9 7D       		.byte	0x7d
 4522 02ea 0000     		.align 4
 4523 02ec 00000000 		.long	0
 4524              	
 4525              	.LLSDATT1163:
 4526              		.text
 4528 2087 90       		.align 2
 4529 2088 0F1F8400 		.p2align 4,,15
 4529      00000000 
 4531              	_ZNK12_GLOBAL__N_154TestCheckEqualsWithStringsWorksOnContentsNonConstConst7RunImplEv:
 4532              	.LFB1171:
 4533              		.cfi_startproc
 4534              		.cfi_personality 0x9b,DW.ref.__gxx_personality_v0
 4535              		.cfi_lsda 0x1b,.LLSDA1171
 4536 2090 4157     		pushq	%r15
 4537              		.cfi_def_cfa_offset 16
 4538              		.cfi_offset 15, -16
 4539 2092 4156     		pushq	%r14
 4540              		.cfi_def_cfa_offset 24
 4541              		.cfi_offset 14, -24
 4542 2094 31F6     		xorl	%esi, %esi
 4543 2096 4155     		pushq	%r13
 4544              		.cfi_def_cfa_offset 32
 4545              		.cfi_offset 13, -32
 4546 2098 4154     		pushq	%r12
 4547              		.cfi_def_cfa_offset 40
 4548              		.cfi_offset 12, -40
 4549 209a 55       		pushq	%rbp
 4550              		.cfi_def_cfa_offset 48
 4551              		.cfi_offset 6, -48
 4552 209b 53       		pushq	%rbx
 4553              		.cfi_def_cfa_offset 56
 4554              		.cfi_offset 3, -56
 4555 209c 4881ECF8 		subq	$504, %rsp
 4555      010000
 4556              		.cfi_def_cfa_offset 560
 4557 20a3 488D5C24 		leaq	16(%rsp), %rbx
 4557      10
 4558 20a8 488D6C24 		leaq	48(%rsp), %rbp
 4558      30
 4559 20ad 64488B04 		movq	%fs:40, %rax
 4559      25280000 
 4559      00
 4560 20b6 48898424 		movq	%rax, 488(%rsp)
 4560      E8010000 
 4561 20be 31C0     		xorl	%eax, %eax
 4562 20c0 4889DF   		movq	%rbx, %rdi
 4563              	.LEHB114:
 4564 20c3 E8000000 		call	_ZN8UnitTest11TestResultsC1EPNS_12TestReporterE@PLT
 4564      00
 4565 20c8 488D0D00 		leaq	.LC1(%rip), %rcx
 4565      000000
 4566 20cf 4889EF   		movq	%rbp, %rdi
 4567 20d2 4531C0   		xorl	%r8d, %r8d
 4568 20d5 4889CA   		movq	%rcx, %rdx
 4569 20d8 4889CE   		movq	%rcx, %rsi
 4570 20db E8000000 		call	_ZN8UnitTest11TestDetailsC1EPKcS2_S2_i@PLT
 4570      00
 4571 20e0 488D1500 		leaq	_ZN12_GLOBAL__N_14txt2E(%rip), %rdx
 4571      000000
 4572 20e7 488D3500 		leaq	_ZN12_GLOBAL__N_14txt1E(%rip), %rsi
 4572      000000
 4573 20ee 4889E9   		movq	%rbp, %rcx
 4574 20f1 4889DF   		movq	%rbx, %rdi
 4575 20f4 E8000000 		call	_ZN8UnitTest10CheckEqualERNS_11TestResultsEPcPKcRKNS_11TestDetailsE@PLT
 4575      00
 4576              	.LEHE114:
 4577              	.LEHB115:
 4578 20f9 E8000000 		call	_ZN8UnitTest11CurrentTest7DetailsEv@PLT
 4578      00
 4579 20fe 488B30   		movq	(%rax), %rsi
 4580 2101 BA350000 		movl	$53, %edx
 4580      00
 4581 2106 4889EF   		movq	%rbp, %rdi
 4582 2109 E8000000 		call	_ZN8UnitTest11TestDetailsC1ERKS0_i@PLT
 4582      00
 4583 210e 4889DF   		movq	%rbx, %rdi
 4584 2111 E8000000 		call	_ZNK8UnitTest11TestResults15GetFailureCountEv@PLT
 4584      00
 4585 2116 4189C4   		movl	%eax, %r12d
 4586 2119 E8000000 		call	_ZN8UnitTest11CurrentTest7ResultsEv@PLT
 4586      00
 4587              	.LEHE115:
 4588 211e 4585E4   		testl	%r12d, %r12d
 4589 2121 0F844202 		je	.L379
 4589      0000
 4590 2127 488D5C24 		leaq	80(%rsp), %rbx
 4590      50
 4591 212c 488B00   		movq	(%rax), %rax
 4592 212f 4C8D2D00 		leaq	24+_ZTCN8UnitTest15MemoryOutStreamE0_So(%rip), %r13
 4592      000000
 4593 2136 4C8DB390 		leaq	144(%rbx), %r14
 4593      000000
 4594 213d 48890424 		movq	%rax, (%rsp)
 4595 2141 4C89F7   		movq	%r14, %rdi
 4596 2144 E8000000 		call	_ZNSt8ios_baseC2Ev@PLT
 4596      00
 4597 2149 498D4528 		leaq	40(%r13), %rax
 4598 214d 31F6     		xorl	%esi, %esi
 4599 214f 4C89F7   		movq	%r14, %rdi
 4600 2152 48C78424 		movq	$0, 440(%rsp)
 4600      B8010000 
 4600      00000000 
 4601 215e C68424C0 		movb	$0, 448(%rsp)
 4601      01000000 
 4602 2166 C68424C1 		movb	$0, 449(%rsp)
 4602      01000000 
 4603 216e 48C78424 		movq	$0, 456(%rsp)
 4603      C8010000 
 4603      00000000 
 4604 217a 48C78424 		movq	$0, 464(%rsp)
 4604      D0010000 
 4604      00000000 
 4605 2186 48C78424 		movq	$0, 472(%rsp)
 4605      D8010000 
 4605      00000000 
 4606 2192 48C78424 		movq	$0, 480(%rsp)
 4606      E0010000 
 4606      00000000 
 4607 219e 4C896C24 		movq	%r13, 80(%rsp)
 4607      50
 4608 21a3 48898424 		movq	%rax, 224(%rsp)
 4608      E0000000 
 4609              	.LEHB116:
 4610 21ab E8000000 		call	_ZNSt9basic_iosIcSt11char_traitsIcEE4initEPSt15basic_streambufIcS1_E@PLT
 4610      00
 4611              	.LEHE116:
 4612 21b0 488D0500 		leaq	24+_ZTCN8UnitTest15MemoryOutStreamE0_NSt7__cxx1119basic_ostringstreamIcSt11char_traitsIcESaIc
 4612      000000
 4613 21b7 660FEFC0 		pxor	%xmm0, %xmm0
 4614 21bb 488D7B40 		leaq	64(%rbx), %rdi
 4615 21bf 48894424 		movq	%rax, 80(%rsp)
 4615      50
 4616 21c4 4883C028 		addq	$40, %rax
 4617 21c8 48898424 		movq	%rax, 224(%rsp)
 4617      E0000000 
 4618 21d0 488D0500 		leaq	16+_ZTVSt15basic_streambufIcSt11char_traitsIcEE(%rip), %rax
 4618      000000
 4619 21d7 0F294424 		movaps	%xmm0, 96(%rsp)
 4619      60
 4620 21dc 48894424 		movq	%rax, 88(%rsp)
 4620      58
 4621 21e1 0F294424 		movaps	%xmm0, 112(%rsp)
 4621      70
 4622 21e6 0F298424 		movaps	%xmm0, 128(%rsp)
 4622      80000000 
 4623 21ee E8000000 		call	_ZNSt6localeC1Ev@PLT
 4623      00
 4624 21f3 488D0500 		leaq	16+_ZTVNSt7__cxx1115basic_stringbufIcSt11char_traitsIcESaIcEEE(%rip), %rax
 4624      000000
 4625 21fa 488D7308 		leaq	8(%rbx), %rsi
 4626 21fe 48894424 		movq	%rax, 88(%rsp)
 4626      58
 4627 2203 488D4360 		leaq	96(%rbx), %rax
 4628 2207 C7842498 		movl	$16, 152(%rsp)
 4628      00000010 
 4628      000000
 4629 2212 48C78424 		movq	$0, 168(%rsp)
 4629      A8000000 
 4629      00000000 
 4630 221e C68424B0 		movb	$0, 176(%rsp)
 4630      00000000 
 4631 2226 48898424 		movq	%rax, 160(%rsp)
 4631      A0000000 
 4632 222e 488B4424 		movq	80(%rsp), %rax
 4632      50
 4633 2233 488B78E8 		movq	-24(%rax), %rdi
 4634 2237 4801DF   		addq	%rbx, %rdi
 4635              	.LEHB117:
 4636 223a E8000000 		call	_ZNSt9basic_iosIcSt11char_traitsIcEE4initEPSt15basic_streambufIcS1_E@PLT
 4636      00
 4637              	.LEHE117:
 4638 223f 4C8D3D00 		leaq	24+_ZTVN8UnitTest15MemoryOutStreamE(%rip), %r15
 4638      000000
 4639 2246 488D8380 		leaq	128(%rbx), %rax
 4639      000000
 4640 224d 488D3500 		leaq	.LC2(%rip), %rsi
 4640      000000
 4641 2254 BA090000 		movl	$9, %edx
 4641      00
 4642 2259 4889DF   		movq	%rbx, %rdi
 4643 225c 48C78424 		movq	$0, 200(%rsp)
 4643      C8000000 
 4643      00000000 
 4644 2268 4D8D7728 		leaq	40(%r15), %r14
 4645 226c 4C897C24 		movq	%r15, 80(%rsp)
 4645      50
 4646 2271 48898424 		movq	%rax, 192(%rsp)
 4646      C0000000 
 4647 2279 C68424D0 		movb	$0, 208(%rsp)
 4647      00000000 
 4648 2281 4C89B424 		movq	%r14, 224(%rsp)
 4648      E0000000 
 4649              	.LEHB118:
 4650 2289 E8000000 		call	_ZSt16__ostream_insertIcSt11char_traitsIcEERSt13basic_ostreamIT_T0_ES6_PKS3_l@PLT
 4650      00
 4651 228e 31F6     		xorl	%esi, %esi
 4652 2290 4889DF   		movq	%rbx, %rdi
 4653 2293 E8000000 		call	_ZNSolsEi@PLT
 4653      00
 4654 2298 488D3500 		leaq	.LC6(%rip), %rsi
 4654      000000
 4655 229f BA090000 		movl	$9, %edx
 4655      00
 4656 22a4 4889C7   		movq	%rax, %rdi
 4657 22a7 48894424 		movq	%rax, 8(%rsp)
 4657      08
 4658 22ac E8000000 		call	_ZSt16__ostream_insertIcSt11char_traitsIcEERSt13basic_ostreamIT_T0_ES6_PKS3_l@PLT
 4658      00
 4659 22b1 488B7C24 		movq	8(%rsp), %rdi
 4659      08
 4660 22b6 4489E6   		movl	%r12d, %esi
 4661 22b9 E8000000 		call	_ZNSolsEi@PLT
 4661      00
 4662 22be 4889DF   		movq	%rbx, %rdi
 4663 22c1 E8000000 		call	_ZNK8UnitTest15MemoryOutStream7GetTextEv@PLT
 4663      00
 4664 22c6 488B3C24 		movq	(%rsp), %rdi
 4665 22ca 4889C2   		movq	%rax, %rdx
 4666 22cd 4889EE   		movq	%rbp, %rsi
 4667 22d0 E8000000 		call	_ZN8UnitTest11TestResults13OnTestFailureERKNS_11TestDetailsEPKc@PLT
 4667      00
 4668              	.LEHE118:
 4669 22d5 488BBC24 		movq	192(%rsp), %rdi
 4669      C0000000 
 4670 22dd 488D8380 		leaq	128(%rbx), %rax
 4670      000000
 4671 22e4 4C897C24 		movq	%r15, 80(%rsp)
 4671      50
 4672 22e9 4C89B424 		movq	%r14, 224(%rsp)
 4672      E0000000 
 4673 22f1 4839C7   		cmpq	%rax, %rdi
 4674 22f4 7405     		je	.L386
 4675 22f6 E8000000 		call	_ZdlPv@PLT
 4675      00
 4676              	.L386:
 4677 22fb 488D0500 		leaq	64+_ZTCN8UnitTest15MemoryOutStreamE0_NSt7__cxx1119basic_ostringstreamIcSt11char_traitsIcESaIc
 4677      000000
 4678 2302 488BBC24 		movq	160(%rsp), %rdi
 4678      A0000000 
 4679 230a F30F7E05 		movq	.LC14(%rip), %xmm0
 4679      00000000 
 4680 2312 48898424 		movq	%rax, 224(%rsp)
 4680      E0000000 
 4681 231a 488D4360 		leaq	96(%rbx), %rax
 4682 231e 0F160500 		movhps	.LC15(%rip), %xmm0
 4682      000000
 4683 2325 4839C7   		cmpq	%rax, %rdi
 4684 2328 0F294424 		movaps	%xmm0, 80(%rsp)
 4684      50
 4685 232d 7405     		je	.L387
 4686 232f E8000000 		call	_ZdlPv@PLT
 4686      00
 4687              	.L387:
 4688 2334 488D0500 		leaq	16+_ZTVSt15basic_streambufIcSt11char_traitsIcEE(%rip), %rax
 4688      000000
 4689 233b 488D7B40 		leaq	64(%rbx), %rdi
 4690 233f 48894424 		movq	%rax, 88(%rsp)
 4690      58
 4691 2344 E8000000 		call	_ZNSt6localeD1Ev@PLT
 4691      00
 4692 2349 488D0500 		leaq	16+_ZTVSt9basic_iosIcSt11char_traitsIcEE(%rip), %rax
 4692      000000
 4693 2350 488DBB90 		leaq	144(%rbx), %rdi
 4693      000000
 4694 2357 4C896C24 		movq	%r13, 80(%rsp)
 4694      50
 4695 235c 48898424 		movq	%rax, 224(%rsp)
 4695      E0000000 
 4696              	.LEHB119:
 4697 2364 E8000000 		call	_ZNSt8ios_baseD2Ev@PLT
 4697      00
 4698              	.LEHE119:
 4699              	.L379:
 4700 2369 488B8424 		movq	488(%rsp), %rax
 4700      E8010000 
 4701 2371 64483304 		xorq	%fs:40, %rax
 4701      25280000 
 4701      00
 4702 237a 7512     		jne	.L403
 4703 237c 4881C4F8 		addq	$504, %rsp
 4703      010000
 4704              		.cfi_remember_state
 4705              		.cfi_def_cfa_offset 56
 4706 2383 5B       		popq	%rbx
 4707              		.cfi_def_cfa_offset 48
 4708 2384 5D       		popq	%rbp
 4709              		.cfi_def_cfa_offset 40
 4710 2385 415C     		popq	%r12
 4711              		.cfi_def_cfa_offset 32
 4712 2387 415D     		popq	%r13
 4713              		.cfi_def_cfa_offset 24
 4714 2389 415E     		popq	%r14
 4715              		.cfi_def_cfa_offset 16
 4716 238b 415F     		popq	%r15
 4717              		.cfi_def_cfa_offset 8
 4718 238d C3       		ret
 4719              	.L403:
 4720              		.cfi_restore_state
 4721 238e E8000000 		call	__stack_chk_fail@PLT
 4721      00
 4722              	.L394:
 4723 2393 4889DF   		movq	%rbx, %rdi
 4724 2396 4989C4   		movq	%rax, %r12
 4725 2399 E8000000 		call	_ZN8UnitTest15MemoryOutStreamD1Ev
 4725      00
 4726              	.L385:
 4727 239e 4C89E7   		movq	%r12, %rdi
 4728 23a1 E8000000 		call	__cxa_begin_catch@PLT
 4728      00
 4729              	.LEHB120:
 4730 23a6 E8000000 		call	_ZN8UnitTest11CurrentTest7ResultsEv@PLT
 4730      00
 4731 23ab 488B18   		movq	(%rax), %rbx
 4732 23ae E8000000 		call	_ZN8UnitTest11CurrentTest7DetailsEv@PLT
 4732      00
 4733 23b3 488B30   		movq	(%rax), %rsi
 4734 23b6 BA350000 		movl	$53, %edx
 4734      00
 4735 23bb 4889EF   		movq	%rbp, %rdi
 4736 23be E8000000 		call	_ZN8UnitTest11TestDetailsC1ERKS0_i@PLT
 4736      00
 4737 23c3 488D1500 		leaq	.LC27(%rip), %rdx
 4737      000000
 4738 23ca 4889EE   		movq	%rbp, %rsi
 4739 23cd 4889DF   		movq	%rbx, %rdi
 4740 23d0 E8000000 		call	_ZN8UnitTest11TestResults13OnTestFailureERKNS_11TestDetailsEPKc@PLT
 4740      00
 4741              	.LEHE120:
 4742              	.LEHB121:
 4743 23d5 E8000000 		call	__cxa_end_catch@PLT
 4743      00
 4744              	.LEHE121:
 4745 23da EB8D     		jmp	.L379
 4746              	.L392:
 4747 23dc 4989C4   		movq	%rax, %r12
 4748 23df EBBD     		jmp	.L385
 4749              	.L393:
 4750 23e1 4889C3   		movq	%rax, %rbx
 4751 23e4 E8000000 		call	__cxa_end_catch@PLT
 4751      00
 4752 23e9 4889DF   		movq	%rbx, %rdi
 4753              	.LEHB122:
 4754 23ec E8000000 		call	_Unwind_Resume@PLT
 4754      00
 4755              	.LEHE122:
 4756              	.L396:
 4757 23f1 488D7B08 		leaq	8(%rbx), %rdi
 4758 23f5 4989C4   		movq	%rax, %r12
 4759 23f8 E8000000 		call	_ZNSt7__cxx1115basic_stringbufIcSt11char_traitsIcESaIcEED1Ev
 4759      00
 4760 23fd 4C896C24 		movq	%r13, 80(%rsp)
 4760      50
 4761              	.L383:
 4762 2402 488D0500 		leaq	16+_ZTVSt9basic_iosIcSt11char_traitsIcEE(%rip), %rax
 4762      000000
 4763 2409 488DBB90 		leaq	144(%rbx), %rdi
 4763      000000
 4764 2410 48898424 		movq	%rax, 224(%rsp)
 4764      E0000000 
 4765 2418 E8000000 		call	_ZNSt8ios_baseD2Ev@PLT
 4765      00
 4766 241d E97CFFFF 		jmp	.L385
 4766      FF
 4767              	.L395:
 4768 2422 4989C4   		movq	%rax, %r12
 4769 2425 EBDB     		jmp	.L383
 4770              		.cfi_endproc
 4771              	.LFE1171:
 4772              		.section	.gcc_except_table
 4773              		.align 4
 4774              	.LLSDA1171:
 4775 02f0 FF       		.byte	0xff
 4776 02f1 9B       		.byte	0x9b
 4777 02f2 3D       		.uleb128 .LLSDATT1171-.LLSDATTD1171
 4778              	.LLSDATTD1171:
 4779 02f3 01       		.byte	0x1
 4780 02f4 31       		.uleb128 .LLSDACSE1171-.LLSDACSB1171
 4781              	.LLSDACSB1171:
 4782 02f5 33       		.uleb128 .LEHB114-.LFB1171
 4783 02f6 36       		.uleb128 .LEHE114-.LEHB114
 4784 02f7 00       		.uleb128 0
 4785 02f8 00       		.uleb128 0
 4786 02f9 69       		.uleb128 .LEHB115-.LFB1171
 4787 02fa 25       		.uleb128 .LEHE115-.LEHB115
 4788 02fb CC06     		.uleb128 .L392-.LFB1171
 4789 02fd 01       		.uleb128 0x1
 4790 02fe 9B02     		.uleb128 .LEHB116-.LFB1171
 4791 0300 05       		.uleb128 .LEHE116-.LEHB116
 4792 0301 9207     		.uleb128 .L395-.LFB1171
 4793 0303 03       		.uleb128 0x3
 4794 0304 AA03     		.uleb128 .LEHB117-.LFB1171
 4795 0306 05       		.uleb128 .LEHE117-.LEHB117
 4796 0307 E106     		.uleb128 .L396-.LFB1171
 4797 0309 03       		.uleb128 0x3
 4798 030a F903     		.uleb128 .LEHB118-.LFB1171
 4799 030c 4C       		.uleb128 .LEHE118-.LEHB118
 4800 030d 8306     		.uleb128 .L394-.LFB1171
 4801 030f 03       		.uleb128 0x3
 4802 0310 D405     		.uleb128 .LEHB119-.LFB1171
 4803 0312 05       		.uleb128 .LEHE119-.LEHB119
 4804 0313 CC06     		.uleb128 .L392-.LFB1171
 4805 0315 01       		.uleb128 0x1
 4806 0316 9606     		.uleb128 .LEHB120-.LFB1171
 4807 0318 2F       		.uleb128 .LEHE120-.LEHB120
 4808 0319 D106     		.uleb128 .L393-.LFB1171
 4809 031b 00       		.uleb128 0
 4810 031c C506     		.uleb128 .LEHB121-.LFB1171
 4811 031e 05       		.uleb128 .LEHE121-.LEHB121
 4812 031f 00       		.uleb128 0
 4813 0320 00       		.uleb128 0
 4814 0321 DC06     		.uleb128 .LEHB122-.LFB1171
 4815 0323 05       		.uleb128 .LEHE122-.LEHB122
 4816 0324 00       		.uleb128 0
 4817 0325 00       		.uleb128 0
 4818              	.LLSDACSE1171:
 4819 0326 01       		.byte	0x1
 4820 0327 00       		.byte	0
 4821 0328 00       		.byte	0
 4822 0329 7D       		.byte	0x7d
 4823 032a 0000     		.align 4
 4824 032c 00000000 		.long	0
 4825              	
 4826              	.LLSDATT1171:
 4827              		.text
 4829 2427 90       		.align 2
 4830 2428 0F1F8400 		.p2align 4,,15
 4830      00000000 
 4832              	_ZNK12_GLOBAL__N_151TestCheckEqualsWithStringsWorksOnContentsConstConst7RunImplEv:
 4833              	.LFB1167:
 4834              		.cfi_startproc
 4835              		.cfi_personality 0x9b,DW.ref.__gxx_personality_v0
 4836              		.cfi_lsda 0x1b,.LLSDA1167
 4837 2430 4157     		pushq	%r15
 4838              		.cfi_def_cfa_offset 16
 4839              		.cfi_offset 15, -16
 4840 2432 4156     		pushq	%r14
 4841              		.cfi_def_cfa_offset 24
 4842              		.cfi_offset 14, -24
 4843 2434 31F6     		xorl	%esi, %esi
 4844 2436 4155     		pushq	%r13
 4845              		.cfi_def_cfa_offset 32
 4846              		.cfi_offset 13, -32
 4847 2438 4154     		pushq	%r12
 4848              		.cfi_def_cfa_offset 40
 4849              		.cfi_offset 12, -40
 4850 243a 55       		pushq	%rbp
 4851              		.cfi_def_cfa_offset 48
 4852              		.cfi_offset 6, -48
 4853 243b 53       		pushq	%rbx
 4854              		.cfi_def_cfa_offset 56
 4855              		.cfi_offset 3, -56
 4856 243c 4881ECF8 		subq	$504, %rsp
 4856      010000
 4857              		.cfi_def_cfa_offset 560
 4858 2443 488D5C24 		leaq	16(%rsp), %rbx
 4858      10
 4859 2448 488D6C24 		leaq	48(%rsp), %rbp
 4859      30
 4860 244d 64488B04 		movq	%fs:40, %rax
 4860      25280000 
 4860      00
 4861 2456 48898424 		movq	%rax, 488(%rsp)
 4861      E8010000 
 4862 245e 31C0     		xorl	%eax, %eax
 4863 2460 4889DF   		movq	%rbx, %rdi
 4864              	.LEHB123:
 4865 2463 E8000000 		call	_ZN8UnitTest11TestResultsC1EPNS_12TestReporterE@PLT
 4865      00
 4866 2468 488D0D00 		leaq	.LC1(%rip), %rcx
 4866      000000
 4867 246f 4889EF   		movq	%rbp, %rdi
 4868 2472 4531C0   		xorl	%r8d, %r8d
 4869 2475 4889CA   		movq	%rcx, %rdx
 4870 2478 4889CE   		movq	%rcx, %rsi
 4871 247b E8000000 		call	_ZN8UnitTest11TestDetailsC1EPKcS2_S2_i@PLT
 4871      00
 4872 2480 488D1500 		leaq	_ZN12_GLOBAL__N_14txt2E(%rip), %rdx
 4872      000000
 4873 2487 488D3500 		leaq	_ZN12_GLOBAL__N_14txt1E(%rip), %rsi
 4873      000000
 4874 248e 4889E9   		movq	%rbp, %rcx
 4875 2491 4889DF   		movq	%rbx, %rdi
 4876 2494 E8000000 		call	_ZN8UnitTest10CheckEqualERNS_11TestResultsEPcS2_RKNS_11TestDetailsE@PLT
 4876      00
 4877              	.LEHE123:
 4878              	.LEHB124:
 4879 2499 E8000000 		call	_ZN8UnitTest11CurrentTest7DetailsEv@PLT
 4879      00
 4880 249e 488B30   		movq	(%rax), %rsi
 4881 24a1 BA2C0000 		movl	$44, %edx
 4881      00
 4882 24a6 4889EF   		movq	%rbp, %rdi
 4883 24a9 E8000000 		call	_ZN8UnitTest11TestDetailsC1ERKS0_i@PLT
 4883      00
 4884 24ae 4889DF   		movq	%rbx, %rdi
 4885 24b1 E8000000 		call	_ZNK8UnitTest11TestResults15GetFailureCountEv@PLT
 4885      00
 4886 24b6 4189C4   		movl	%eax, %r12d
 4887 24b9 E8000000 		call	_ZN8UnitTest11CurrentTest7ResultsEv@PLT
 4887      00
 4888              	.LEHE124:
 4889 24be 4585E4   		testl	%r12d, %r12d
 4890 24c1 0F844202 		je	.L404
 4890      0000
 4891 24c7 488D5C24 		leaq	80(%rsp), %rbx
 4891      50
 4892 24cc 488B00   		movq	(%rax), %rax
 4893 24cf 4C8D2D00 		leaq	24+_ZTCN8UnitTest15MemoryOutStreamE0_So(%rip), %r13
 4893      000000
 4894 24d6 4C8DB390 		leaq	144(%rbx), %r14
 4894      000000
 4895 24dd 48890424 		movq	%rax, (%rsp)
 4896 24e1 4C89F7   		movq	%r14, %rdi
 4897 24e4 E8000000 		call	_ZNSt8ios_baseC2Ev@PLT
 4897      00
 4898 24e9 498D4528 		leaq	40(%r13), %rax
 4899 24ed 31F6     		xorl	%esi, %esi
 4900 24ef 4C89F7   		movq	%r14, %rdi
 4901 24f2 48C78424 		movq	$0, 440(%rsp)
 4901      B8010000 
 4901      00000000 
 4902 24fe C68424C0 		movb	$0, 448(%rsp)
 4902      01000000 
 4903 2506 C68424C1 		movb	$0, 449(%rsp)
 4903      01000000 
 4904 250e 48C78424 		movq	$0, 456(%rsp)
 4904      C8010000 
 4904      00000000 
 4905 251a 48C78424 		movq	$0, 464(%rsp)
 4905      D0010000 
 4905      00000000 
 4906 2526 48C78424 		movq	$0, 472(%rsp)
 4906      D8010000 
 4906      00000000 
 4907 2532 48C78424 		movq	$0, 480(%rsp)
 4907      E0010000 
 4907      00000000 
 4908 253e 4C896C24 		movq	%r13, 80(%rsp)
 4908      50
 4909 2543 48898424 		movq	%rax, 224(%rsp)
 4909      E0000000 
 4910              	.LEHB125:
 4911 254b E8000000 		call	_ZNSt9basic_iosIcSt11char_traitsIcEE4initEPSt15basic_streambufIcS1_E@PLT
 4911      00
 4912              	.LEHE125:
 4913 2550 488D0500 		leaq	24+_ZTCN8UnitTest15MemoryOutStreamE0_NSt7__cxx1119basic_ostringstreamIcSt11char_traitsIcESaIc
 4913      000000
 4914 2557 660FEFC0 		pxor	%xmm0, %xmm0
 4915 255b 488D7B40 		leaq	64(%rbx), %rdi
 4916 255f 48894424 		movq	%rax, 80(%rsp)
 4916      50
 4917 2564 4883C028 		addq	$40, %rax
 4918 2568 48898424 		movq	%rax, 224(%rsp)
 4918      E0000000 
 4919 2570 488D0500 		leaq	16+_ZTVSt15basic_streambufIcSt11char_traitsIcEE(%rip), %rax
 4919      000000
 4920 2577 0F294424 		movaps	%xmm0, 96(%rsp)
 4920      60
 4921 257c 48894424 		movq	%rax, 88(%rsp)
 4921      58
 4922 2581 0F294424 		movaps	%xmm0, 112(%rsp)
 4922      70
 4923 2586 0F298424 		movaps	%xmm0, 128(%rsp)
 4923      80000000 
 4924 258e E8000000 		call	_ZNSt6localeC1Ev@PLT
 4924      00
 4925 2593 488D0500 		leaq	16+_ZTVNSt7__cxx1115basic_stringbufIcSt11char_traitsIcESaIcEEE(%rip), %rax
 4925      000000
 4926 259a 488D7308 		leaq	8(%rbx), %rsi
 4927 259e 48894424 		movq	%rax, 88(%rsp)
 4927      58
 4928 25a3 488D4360 		leaq	96(%rbx), %rax
 4929 25a7 C7842498 		movl	$16, 152(%rsp)
 4929      00000010 
 4929      000000
 4930 25b2 48C78424 		movq	$0, 168(%rsp)
 4930      A8000000 
 4930      00000000 
 4931 25be C68424B0 		movb	$0, 176(%rsp)
 4931      00000000 
 4932 25c6 48898424 		movq	%rax, 160(%rsp)
 4932      A0000000 
 4933 25ce 488B4424 		movq	80(%rsp), %rax
 4933      50
 4934 25d3 488B78E8 		movq	-24(%rax), %rdi
 4935 25d7 4801DF   		addq	%rbx, %rdi
 4936              	.LEHB126:
 4937 25da E8000000 		call	_ZNSt9basic_iosIcSt11char_traitsIcEE4initEPSt15basic_streambufIcS1_E@PLT
 4937      00
 4938              	.LEHE126:
 4939 25df 4C8D3D00 		leaq	24+_ZTVN8UnitTest15MemoryOutStreamE(%rip), %r15
 4939      000000
 4940 25e6 488D8380 		leaq	128(%rbx), %rax
 4940      000000
 4941 25ed 488D3500 		leaq	.LC2(%rip), %rsi
 4941      000000
 4942 25f4 BA090000 		movl	$9, %edx
 4942      00
 4943 25f9 4889DF   		movq	%rbx, %rdi
 4944 25fc 48C78424 		movq	$0, 200(%rsp)
 4944      C8000000 
 4944      00000000 
 4945 2608 4D8D7728 		leaq	40(%r15), %r14
 4946 260c 4C897C24 		movq	%r15, 80(%rsp)
 4946      50
 4947 2611 48898424 		movq	%rax, 192(%rsp)
 4947      C0000000 
 4948 2619 C68424D0 		movb	$0, 208(%rsp)
 4948      00000000 
 4949 2621 4C89B424 		movq	%r14, 224(%rsp)
 4949      E0000000 
 4950              	.LEHB127:
 4951 2629 E8000000 		call	_ZSt16__ostream_insertIcSt11char_traitsIcEERSt13basic_ostreamIT_T0_ES6_PKS3_l@PLT
 4951      00
 4952 262e 31F6     		xorl	%esi, %esi
 4953 2630 4889DF   		movq	%rbx, %rdi
 4954 2633 E8000000 		call	_ZNSolsEi@PLT
 4954      00
 4955 2638 488D3500 		leaq	.LC6(%rip), %rsi
 4955      000000
 4956 263f BA090000 		movl	$9, %edx
 4956      00
 4957 2644 4889C7   		movq	%rax, %rdi
 4958 2647 48894424 		movq	%rax, 8(%rsp)
 4958      08
 4959 264c E8000000 		call	_ZSt16__ostream_insertIcSt11char_traitsIcEERSt13basic_ostreamIT_T0_ES6_PKS3_l@PLT
 4959      00
 4960 2651 488B7C24 		movq	8(%rsp), %rdi
 4960      08
 4961 2656 4489E6   		movl	%r12d, %esi
 4962 2659 E8000000 		call	_ZNSolsEi@PLT
 4962      00
 4963 265e 4889DF   		movq	%rbx, %rdi
 4964 2661 E8000000 		call	_ZNK8UnitTest15MemoryOutStream7GetTextEv@PLT
 4964      00
 4965 2666 488B3C24 		movq	(%rsp), %rdi
 4966 266a 4889C2   		movq	%rax, %rdx
 4967 266d 4889EE   		movq	%rbp, %rsi
 4968 2670 E8000000 		call	_ZN8UnitTest11TestResults13OnTestFailureERKNS_11TestDetailsEPKc@PLT
 4968      00
 4969              	.LEHE127:
 4970 2675 488BBC24 		movq	192(%rsp), %rdi
 4970      C0000000 
 4971 267d 488D8380 		leaq	128(%rbx), %rax
 4971      000000
 4972 2684 4C897C24 		movq	%r15, 80(%rsp)
 4972      50
 4973 2689 4C89B424 		movq	%r14, 224(%rsp)
 4973      E0000000 
 4974 2691 4839C7   		cmpq	%rax, %rdi
 4975 2694 7405     		je	.L411
 4976 2696 E8000000 		call	_ZdlPv@PLT
 4976      00
 4977              	.L411:
 4978 269b 488D0500 		leaq	64+_ZTCN8UnitTest15MemoryOutStreamE0_NSt7__cxx1119basic_ostringstreamIcSt11char_traitsIcESaIc
 4978      000000
 4979 26a2 488BBC24 		movq	160(%rsp), %rdi
 4979      A0000000 
 4980 26aa F30F7E05 		movq	.LC14(%rip), %xmm0
 4980      00000000 
 4981 26b2 48898424 		movq	%rax, 224(%rsp)
 4981      E0000000 
 4982 26ba 488D4360 		leaq	96(%rbx), %rax
 4983 26be 0F160500 		movhps	.LC15(%rip), %xmm0
 4983      000000
 4984 26c5 4839C7   		cmpq	%rax, %rdi
 4985 26c8 0F294424 		movaps	%xmm0, 80(%rsp)
 4985      50
 4986 26cd 7405     		je	.L412
 4987 26cf E8000000 		call	_ZdlPv@PLT
 4987      00
 4988              	.L412:
 4989 26d4 488D0500 		leaq	16+_ZTVSt15basic_streambufIcSt11char_traitsIcEE(%rip), %rax
 4989      000000
 4990 26db 488D7B40 		leaq	64(%rbx), %rdi
 4991 26df 48894424 		movq	%rax, 88(%rsp)
 4991      58
 4992 26e4 E8000000 		call	_ZNSt6localeD1Ev@PLT
 4992      00
 4993 26e9 488D0500 		leaq	16+_ZTVSt9basic_iosIcSt11char_traitsIcEE(%rip), %rax
 4993      000000
 4994 26f0 488DBB90 		leaq	144(%rbx), %rdi
 4994      000000
 4995 26f7 4C896C24 		movq	%r13, 80(%rsp)
 4995      50
 4996 26fc 48898424 		movq	%rax, 224(%rsp)
 4996      E0000000 
 4997              	.LEHB128:
 4998 2704 E8000000 		call	_ZNSt8ios_baseD2Ev@PLT
 4998      00
 4999              	.LEHE128:
 5000              	.L404:
 5001 2709 488B8424 		movq	488(%rsp), %rax
 5001      E8010000 
 5002 2711 64483304 		xorq	%fs:40, %rax
 5002      25280000 
 5002      00
 5003 271a 7512     		jne	.L428
 5004 271c 4881C4F8 		addq	$504, %rsp
 5004      010000
 5005              		.cfi_remember_state
 5006              		.cfi_def_cfa_offset 56
 5007 2723 5B       		popq	%rbx
 5008              		.cfi_def_cfa_offset 48
 5009 2724 5D       		popq	%rbp
 5010              		.cfi_def_cfa_offset 40
 5011 2725 415C     		popq	%r12
 5012              		.cfi_def_cfa_offset 32
 5013 2727 415D     		popq	%r13
 5014              		.cfi_def_cfa_offset 24
 5015 2729 415E     		popq	%r14
 5016              		.cfi_def_cfa_offset 16
 5017 272b 415F     		popq	%r15
 5018              		.cfi_def_cfa_offset 8
 5019 272d C3       		ret
 5020              	.L428:
 5021              		.cfi_restore_state
 5022 272e E8000000 		call	__stack_chk_fail@PLT
 5022      00
 5023              	.L419:
 5024 2733 4889DF   		movq	%rbx, %rdi
 5025 2736 4989C4   		movq	%rax, %r12
 5026 2739 E8000000 		call	_ZN8UnitTest15MemoryOutStreamD1Ev
 5026      00
 5027              	.L410:
 5028 273e 4C89E7   		movq	%r12, %rdi
 5029 2741 E8000000 		call	__cxa_begin_catch@PLT
 5029      00
 5030              	.LEHB129:
 5031 2746 E8000000 		call	_ZN8UnitTest11CurrentTest7ResultsEv@PLT
 5031      00
 5032 274b 488B18   		movq	(%rax), %rbx
 5033 274e E8000000 		call	_ZN8UnitTest11CurrentTest7DetailsEv@PLT
 5033      00
 5034 2753 488B30   		movq	(%rax), %rsi
 5035 2756 BA2C0000 		movl	$44, %edx
 5035      00
 5036 275b 4889EF   		movq	%rbp, %rdi
 5037 275e E8000000 		call	_ZN8UnitTest11TestDetailsC1ERKS0_i@PLT
 5037      00
 5038 2763 488D1500 		leaq	.LC27(%rip), %rdx
 5038      000000
 5039 276a 4889EE   		movq	%rbp, %rsi
 5040 276d 4889DF   		movq	%rbx, %rdi
 5041 2770 E8000000 		call	_ZN8UnitTest11TestResults13OnTestFailureERKNS_11TestDetailsEPKc@PLT
 5041      00
 5042              	.LEHE129:
 5043              	.LEHB130:
 5044 2775 E8000000 		call	__cxa_end_catch@PLT
 5044      00
 5045              	.LEHE130:
 5046 277a EB8D     		jmp	.L404
 5047              	.L417:
 5048 277c 4989C4   		movq	%rax, %r12
 5049 277f EBBD     		jmp	.L410
 5050              	.L418:
 5051 2781 4889C3   		movq	%rax, %rbx
 5052 2784 E8000000 		call	__cxa_end_catch@PLT
 5052      00
 5053 2789 4889DF   		movq	%rbx, %rdi
 5054              	.LEHB131:
 5055 278c E8000000 		call	_Unwind_Resume@PLT
 5055      00
 5056              	.LEHE131:
 5057              	.L421:
 5058 2791 488D7B08 		leaq	8(%rbx), %rdi
 5059 2795 4989C4   		movq	%rax, %r12
 5060 2798 E8000000 		call	_ZNSt7__cxx1115basic_stringbufIcSt11char_traitsIcESaIcEED1Ev
 5060      00
 5061 279d 4C896C24 		movq	%r13, 80(%rsp)
 5061      50
 5062              	.L408:
 5063 27a2 488D0500 		leaq	16+_ZTVSt9basic_iosIcSt11char_traitsIcEE(%rip), %rax
 5063      000000
 5064 27a9 488DBB90 		leaq	144(%rbx), %rdi
 5064      000000
 5065 27b0 48898424 		movq	%rax, 224(%rsp)
 5065      E0000000 
 5066 27b8 E8000000 		call	_ZNSt8ios_baseD2Ev@PLT
 5066      00
 5067 27bd E97CFFFF 		jmp	.L410
 5067      FF
 5068              	.L420:
 5069 27c2 4989C4   		movq	%rax, %r12
 5070 27c5 EBDB     		jmp	.L408
 5071              		.cfi_endproc
 5072              	.LFE1167:
 5073              		.section	.gcc_except_table
 5074              		.align 4
 5075              	.LLSDA1167:
 5076 0330 FF       		.byte	0xff
 5077 0331 9B       		.byte	0x9b
 5078 0332 3D       		.uleb128 .LLSDATT1167-.LLSDATTD1167
 5079              	.LLSDATTD1167:
 5080 0333 01       		.byte	0x1
 5081 0334 31       		.uleb128 .LLSDACSE1167-.LLSDACSB1167
 5082              	.LLSDACSB1167:
 5083 0335 33       		.uleb128 .LEHB123-.LFB1167
 5084 0336 36       		.uleb128 .LEHE123-.LEHB123
 5085 0337 00       		.uleb128 0
 5086 0338 00       		.uleb128 0
 5087 0339 69       		.uleb128 .LEHB124-.LFB1167
 5088 033a 25       		.uleb128 .LEHE124-.LEHB124
 5089 033b CC06     		.uleb128 .L417-.LFB1167
 5090 033d 01       		.uleb128 0x1
 5091 033e 9B02     		.uleb128 .LEHB125-.LFB1167
 5092 0340 05       		.uleb128 .LEHE125-.LEHB125
 5093 0341 9207     		.uleb128 .L420-.LFB1167
 5094 0343 03       		.uleb128 0x3
 5095 0344 AA03     		.uleb128 .LEHB126-.LFB1167
 5096 0346 05       		.uleb128 .LEHE126-.LEHB126
 5097 0347 E106     		.uleb128 .L421-.LFB1167
 5098 0349 03       		.uleb128 0x3
 5099 034a F903     		.uleb128 .LEHB127-.LFB1167
 5100 034c 4C       		.uleb128 .LEHE127-.LEHB127
 5101 034d 8306     		.uleb128 .L419-.LFB1167
 5102 034f 03       		.uleb128 0x3
 5103 0350 D405     		.uleb128 .LEHB128-.LFB1167
 5104 0352 05       		.uleb128 .LEHE128-.LEHB128
 5105 0353 CC06     		.uleb128 .L417-.LFB1167
 5106 0355 01       		.uleb128 0x1
 5107 0356 9606     		.uleb128 .LEHB129-.LFB1167
 5108 0358 2F       		.uleb128 .LEHE129-.LEHB129
 5109 0359 D106     		.uleb128 .L418-.LFB1167
 5110 035b 00       		.uleb128 0
 5111 035c C506     		.uleb128 .LEHB130-.LFB1167
 5112 035e 05       		.uleb128 .LEHE130-.LEHB130
 5113 035f 00       		.uleb128 0
 5114 0360 00       		.uleb128 0
 5115 0361 DC06     		.uleb128 .LEHB131-.LFB1167
 5116 0363 05       		.uleb128 .LEHE131-.LEHB131
 5117 0364 00       		.uleb128 0
 5118 0365 00       		.uleb128 0
 5119              	.LLSDACSE1167:
 5120 0366 01       		.byte	0x1
 5121 0367 00       		.byte	0
 5122 0368 00       		.byte	0
 5123 0369 7D       		.byte	0x7d
 5124 036a 0000     		.align 4
 5125 036c 00000000 		.long	0
 5126              	
 5127              	.LLSDATT1167:
 5128              		.text
 5130              		.section	.rodata.str1.1
 5131              	.LC28:
 5132 005d 48656C6C 		.string	"Hello"
 5132      6F00
 5133              		.text
 5134 27c7 90       		.align 2
 5135 27c8 0F1F8400 		.p2align 4,,15
 5135      00000000 
 5137              	_ZNK12_GLOBAL__N_153TestCheckEqualsWithStringsWorksOnContentsWithALiteral7RunImplEv:
 5138              	.LFB1179:
 5139              		.cfi_startproc
 5140              		.cfi_personality 0x9b,DW.ref.__gxx_personality_v0
 5141              		.cfi_lsda 0x1b,.LLSDA1179
 5142 27d0 4157     		pushq	%r15
 5143              		.cfi_def_cfa_offset 16
 5144              		.cfi_offset 15, -16
 5145 27d2 4156     		pushq	%r14
 5146              		.cfi_def_cfa_offset 24
 5147              		.cfi_offset 14, -24
 5148 27d4 31F6     		xorl	%esi, %esi
 5149 27d6 4155     		pushq	%r13
 5150              		.cfi_def_cfa_offset 32
 5151              		.cfi_offset 13, -32
 5152 27d8 4154     		pushq	%r12
 5153              		.cfi_def_cfa_offset 40
 5154              		.cfi_offset 12, -40
 5155 27da 55       		pushq	%rbp
 5156              		.cfi_def_cfa_offset 48
 5157              		.cfi_offset 6, -48
 5158 27db 53       		pushq	%rbx
 5159              		.cfi_def_cfa_offset 56
 5160              		.cfi_offset 3, -56
 5161 27dc 4881ECF8 		subq	$504, %rsp
 5161      010000
 5162              		.cfi_def_cfa_offset 560
 5163 27e3 488D5C24 		leaq	16(%rsp), %rbx
 5163      10
 5164 27e8 488D6C24 		leaq	48(%rsp), %rbp
 5164      30
 5165 27ed 64488B04 		movq	%fs:40, %rax
 5165      25280000 
 5165      00
 5166 27f6 48898424 		movq	%rax, 488(%rsp)
 5166      E8010000 
 5167 27fe 31C0     		xorl	%eax, %eax
 5168 2800 4889DF   		movq	%rbx, %rdi
 5169              	.LEHB132:
 5170 2803 E8000000 		call	_ZN8UnitTest11TestResultsC1EPNS_12TestReporterE@PLT
 5170      00
 5171 2808 488D0D00 		leaq	.LC1(%rip), %rcx
 5171      000000
 5172 280f 4889EF   		movq	%rbp, %rdi
 5173 2812 4531C0   		xorl	%r8d, %r8d
 5174 2815 4889CA   		movq	%rcx, %rdx
 5175 2818 4889CE   		movq	%rcx, %rsi
 5176 281b E8000000 		call	_ZN8UnitTest11TestDetailsC1EPKcS2_S2_i@PLT
 5176      00
 5177 2820 488D1500 		leaq	_ZN12_GLOBAL__N_14txt1E(%rip), %rdx
 5177      000000
 5178 2827 488D3500 		leaq	.LC28(%rip), %rsi
 5178      000000
 5179 282e 4889E9   		movq	%rbp, %rcx
 5180 2831 4889DF   		movq	%rbx, %rdi
 5181 2834 E8000000 		call	_ZN8UnitTest10CheckEqualERNS_11TestResultsEPKcS3_RKNS_11TestDetailsE@PLT
 5181      00
 5182              	.LEHE132:
 5183              	.LEHB133:
 5184 2839 E8000000 		call	_ZN8UnitTest11CurrentTest7DetailsEv@PLT
 5184      00
 5185 283e 488B30   		movq	(%rax), %rsi
 5186 2841 BA460000 		movl	$70, %edx
 5186      00
 5187 2846 4889EF   		movq	%rbp, %rdi
 5188 2849 E8000000 		call	_ZN8UnitTest11TestDetailsC1ERKS0_i@PLT
 5188      00
 5189 284e 4889DF   		movq	%rbx, %rdi
 5190 2851 E8000000 		call	_ZNK8UnitTest11TestResults15GetFailureCountEv@PLT
 5190      00
 5191 2856 4189C4   		movl	%eax, %r12d
 5192 2859 E8000000 		call	_ZN8UnitTest11CurrentTest7ResultsEv@PLT
 5192      00
 5193              	.LEHE133:
 5194 285e 4585E4   		testl	%r12d, %r12d
 5195 2861 0F844202 		je	.L429
 5195      0000
 5196 2867 488D5C24 		leaq	80(%rsp), %rbx
 5196      50
 5197 286c 488B00   		movq	(%rax), %rax
 5198 286f 4C8D2D00 		leaq	24+_ZTCN8UnitTest15MemoryOutStreamE0_So(%rip), %r13
 5198      000000
 5199 2876 4C8DB390 		leaq	144(%rbx), %r14
 5199      000000
 5200 287d 48890424 		movq	%rax, (%rsp)
 5201 2881 4C89F7   		movq	%r14, %rdi
 5202 2884 E8000000 		call	_ZNSt8ios_baseC2Ev@PLT
 5202      00
 5203 2889 498D4528 		leaq	40(%r13), %rax
 5204 288d 31F6     		xorl	%esi, %esi
 5205 288f 4C89F7   		movq	%r14, %rdi
 5206 2892 48C78424 		movq	$0, 440(%rsp)
 5206      B8010000 
 5206      00000000 
 5207 289e C68424C0 		movb	$0, 448(%rsp)
 5207      01000000 
 5208 28a6 C68424C1 		movb	$0, 449(%rsp)
 5208      01000000 
 5209 28ae 48C78424 		movq	$0, 456(%rsp)
 5209      C8010000 
 5209      00000000 
 5210 28ba 48C78424 		movq	$0, 464(%rsp)
 5210      D0010000 
 5210      00000000 
 5211 28c6 48C78424 		movq	$0, 472(%rsp)
 5211      D8010000 
 5211      00000000 
 5212 28d2 48C78424 		movq	$0, 480(%rsp)
 5212      E0010000 
 5212      00000000 
 5213 28de 4C896C24 		movq	%r13, 80(%rsp)
 5213      50
 5214 28e3 48898424 		movq	%rax, 224(%rsp)
 5214      E0000000 
 5215              	.LEHB134:
 5216 28eb E8000000 		call	_ZNSt9basic_iosIcSt11char_traitsIcEE4initEPSt15basic_streambufIcS1_E@PLT
 5216      00
 5217              	.LEHE134:
 5218 28f0 488D0500 		leaq	24+_ZTCN8UnitTest15MemoryOutStreamE0_NSt7__cxx1119basic_ostringstreamIcSt11char_traitsIcESaIc
 5218      000000
 5219 28f7 660FEFC0 		pxor	%xmm0, %xmm0
 5220 28fb 488D7B40 		leaq	64(%rbx), %rdi
 5221 28ff 48894424 		movq	%rax, 80(%rsp)
 5221      50
 5222 2904 4883C028 		addq	$40, %rax
 5223 2908 48898424 		movq	%rax, 224(%rsp)
 5223      E0000000 
 5224 2910 488D0500 		leaq	16+_ZTVSt15basic_streambufIcSt11char_traitsIcEE(%rip), %rax
 5224      000000
 5225 2917 0F294424 		movaps	%xmm0, 96(%rsp)
 5225      60
 5226 291c 48894424 		movq	%rax, 88(%rsp)
 5226      58
 5227 2921 0F294424 		movaps	%xmm0, 112(%rsp)
 5227      70
 5228 2926 0F298424 		movaps	%xmm0, 128(%rsp)
 5228      80000000 
 5229 292e E8000000 		call	_ZNSt6localeC1Ev@PLT
 5229      00
 5230 2933 488D0500 		leaq	16+_ZTVNSt7__cxx1115basic_stringbufIcSt11char_traitsIcESaIcEEE(%rip), %rax
 5230      000000
 5231 293a 488D7308 		leaq	8(%rbx), %rsi
 5232 293e 48894424 		movq	%rax, 88(%rsp)
 5232      58
 5233 2943 488D4360 		leaq	96(%rbx), %rax
 5234 2947 C7842498 		movl	$16, 152(%rsp)
 5234      00000010 
 5234      000000
 5235 2952 48C78424 		movq	$0, 168(%rsp)
 5235      A8000000 
 5235      00000000 
 5236 295e C68424B0 		movb	$0, 176(%rsp)
 5236      00000000 
 5237 2966 48898424 		movq	%rax, 160(%rsp)
 5237      A0000000 
 5238 296e 488B4424 		movq	80(%rsp), %rax
 5238      50
 5239 2973 488B78E8 		movq	-24(%rax), %rdi
 5240 2977 4801DF   		addq	%rbx, %rdi
 5241              	.LEHB135:
 5242 297a E8000000 		call	_ZNSt9basic_iosIcSt11char_traitsIcEE4initEPSt15basic_streambufIcS1_E@PLT
 5242      00
 5243              	.LEHE135:
 5244 297f 4C8D3D00 		leaq	24+_ZTVN8UnitTest15MemoryOutStreamE(%rip), %r15
 5244      000000
 5245 2986 488D8380 		leaq	128(%rbx), %rax
 5245      000000
 5246 298d 488D3500 		leaq	.LC2(%rip), %rsi
 5246      000000
 5247 2994 BA090000 		movl	$9, %edx
 5247      00
 5248 2999 4889DF   		movq	%rbx, %rdi
 5249 299c 48C78424 		movq	$0, 200(%rsp)
 5249      C8000000 
 5249      00000000 
 5250 29a8 4D8D7728 		leaq	40(%r15), %r14
 5251 29ac 4C897C24 		movq	%r15, 80(%rsp)
 5251      50
 5252 29b1 48898424 		movq	%rax, 192(%rsp)
 5252      C0000000 
 5253 29b9 C68424D0 		movb	$0, 208(%rsp)
 5253      00000000 
 5254 29c1 4C89B424 		movq	%r14, 224(%rsp)
 5254      E0000000 
 5255              	.LEHB136:
 5256 29c9 E8000000 		call	_ZSt16__ostream_insertIcSt11char_traitsIcEERSt13basic_ostreamIT_T0_ES6_PKS3_l@PLT
 5256      00
 5257 29ce 31F6     		xorl	%esi, %esi
 5258 29d0 4889DF   		movq	%rbx, %rdi
 5259 29d3 E8000000 		call	_ZNSolsEi@PLT
 5259      00
 5260 29d8 488D3500 		leaq	.LC6(%rip), %rsi
 5260      000000
 5261 29df BA090000 		movl	$9, %edx
 5261      00
 5262 29e4 4889C7   		movq	%rax, %rdi
 5263 29e7 48894424 		movq	%rax, 8(%rsp)
 5263      08
 5264 29ec E8000000 		call	_ZSt16__ostream_insertIcSt11char_traitsIcEERSt13basic_ostreamIT_T0_ES6_PKS3_l@PLT
 5264      00
 5265 29f1 488B7C24 		movq	8(%rsp), %rdi
 5265      08
 5266 29f6 4489E6   		movl	%r12d, %esi
 5267 29f9 E8000000 		call	_ZNSolsEi@PLT
 5267      00
 5268 29fe 4889DF   		movq	%rbx, %rdi
 5269 2a01 E8000000 		call	_ZNK8UnitTest15MemoryOutStream7GetTextEv@PLT
 5269      00
 5270 2a06 488B3C24 		movq	(%rsp), %rdi
 5271 2a0a 4889C2   		movq	%rax, %rdx
 5272 2a0d 4889EE   		movq	%rbp, %rsi
 5273 2a10 E8000000 		call	_ZN8UnitTest11TestResults13OnTestFailureERKNS_11TestDetailsEPKc@PLT
 5273      00
 5274              	.LEHE136:
 5275 2a15 488BBC24 		movq	192(%rsp), %rdi
 5275      C0000000 
 5276 2a1d 488D8380 		leaq	128(%rbx), %rax
 5276      000000
 5277 2a24 4C897C24 		movq	%r15, 80(%rsp)
 5277      50
 5278 2a29 4C89B424 		movq	%r14, 224(%rsp)
 5278      E0000000 
 5279 2a31 4839C7   		cmpq	%rax, %rdi
 5280 2a34 7405     		je	.L436
 5281 2a36 E8000000 		call	_ZdlPv@PLT
 5281      00
 5282              	.L436:
 5283 2a3b 488D0500 		leaq	64+_ZTCN8UnitTest15MemoryOutStreamE0_NSt7__cxx1119basic_ostringstreamIcSt11char_traitsIcESaIc
 5283      000000
 5284 2a42 488BBC24 		movq	160(%rsp), %rdi
 5284      A0000000 
 5285 2a4a F30F7E05 		movq	.LC14(%rip), %xmm0
 5285      00000000 
 5286 2a52 48898424 		movq	%rax, 224(%rsp)
 5286      E0000000 
 5287 2a5a 488D4360 		leaq	96(%rbx), %rax
 5288 2a5e 0F160500 		movhps	.LC15(%rip), %xmm0
 5288      000000
 5289 2a65 4839C7   		cmpq	%rax, %rdi
 5290 2a68 0F294424 		movaps	%xmm0, 80(%rsp)
 5290      50
 5291 2a6d 7405     		je	.L437
 5292 2a6f E8000000 		call	_ZdlPv@PLT
 5292      00
 5293              	.L437:
 5294 2a74 488D0500 		leaq	16+_ZTVSt15basic_streambufIcSt11char_traitsIcEE(%rip), %rax
 5294      000000
 5295 2a7b 488D7B40 		leaq	64(%rbx), %rdi
 5296 2a7f 48894424 		movq	%rax, 88(%rsp)
 5296      58
 5297 2a84 E8000000 		call	_ZNSt6localeD1Ev@PLT
 5297      00
 5298 2a89 488D0500 		leaq	16+_ZTVSt9basic_iosIcSt11char_traitsIcEE(%rip), %rax
 5298      000000
 5299 2a90 488DBB90 		leaq	144(%rbx), %rdi
 5299      000000
 5300 2a97 4C896C24 		movq	%r13, 80(%rsp)
 5300      50
 5301 2a9c 48898424 		movq	%rax, 224(%rsp)
 5301      E0000000 
 5302              	.LEHB137:
 5303 2aa4 E8000000 		call	_ZNSt8ios_baseD2Ev@PLT
 5303      00
 5304              	.LEHE137:
 5305              	.L429:
 5306 2aa9 488B8424 		movq	488(%rsp), %rax
 5306      E8010000 
 5307 2ab1 64483304 		xorq	%fs:40, %rax
 5307      25280000 
 5307      00
 5308 2aba 7512     		jne	.L453
 5309 2abc 4881C4F8 		addq	$504, %rsp
 5309      010000
 5310              		.cfi_remember_state
 5311              		.cfi_def_cfa_offset 56
 5312 2ac3 5B       		popq	%rbx
 5313              		.cfi_def_cfa_offset 48
 5314 2ac4 5D       		popq	%rbp
 5315              		.cfi_def_cfa_offset 40
 5316 2ac5 415C     		popq	%r12
 5317              		.cfi_def_cfa_offset 32
 5318 2ac7 415D     		popq	%r13
 5319              		.cfi_def_cfa_offset 24
 5320 2ac9 415E     		popq	%r14
 5321              		.cfi_def_cfa_offset 16
 5322 2acb 415F     		popq	%r15
 5323              		.cfi_def_cfa_offset 8
 5324 2acd C3       		ret
 5325              	.L453:
 5326              		.cfi_restore_state
 5327 2ace E8000000 		call	__stack_chk_fail@PLT
 5327      00
 5328              	.L444:
 5329 2ad3 4889DF   		movq	%rbx, %rdi
 5330 2ad6 4989C4   		movq	%rax, %r12
 5331 2ad9 E8000000 		call	_ZN8UnitTest15MemoryOutStreamD1Ev
 5331      00
 5332              	.L435:
 5333 2ade 4C89E7   		movq	%r12, %rdi
 5334 2ae1 E8000000 		call	__cxa_begin_catch@PLT
 5334      00
 5335              	.LEHB138:
 5336 2ae6 E8000000 		call	_ZN8UnitTest11CurrentTest7ResultsEv@PLT
 5336      00
 5337 2aeb 488B18   		movq	(%rax), %rbx
 5338 2aee E8000000 		call	_ZN8UnitTest11CurrentTest7DetailsEv@PLT
 5338      00
 5339 2af3 488B30   		movq	(%rax), %rsi
 5340 2af6 BA460000 		movl	$70, %edx
 5340      00
 5341 2afb 4889EF   		movq	%rbp, %rdi
 5342 2afe E8000000 		call	_ZN8UnitTest11TestDetailsC1ERKS0_i@PLT
 5342      00
 5343 2b03 488D1500 		leaq	.LC27(%rip), %rdx
 5343      000000
 5344 2b0a 4889EE   		movq	%rbp, %rsi
 5345 2b0d 4889DF   		movq	%rbx, %rdi
 5346 2b10 E8000000 		call	_ZN8UnitTest11TestResults13OnTestFailureERKNS_11TestDetailsEPKc@PLT
 5346      00
 5347              	.LEHE138:
 5348              	.LEHB139:
 5349 2b15 E8000000 		call	__cxa_end_catch@PLT
 5349      00
 5350              	.LEHE139:
 5351 2b1a EB8D     		jmp	.L429
 5352              	.L442:
 5353 2b1c 4989C4   		movq	%rax, %r12
 5354 2b1f EBBD     		jmp	.L435
 5355              	.L443:
 5356 2b21 4889C3   		movq	%rax, %rbx
 5357 2b24 E8000000 		call	__cxa_end_catch@PLT
 5357      00
 5358 2b29 4889DF   		movq	%rbx, %rdi
 5359              	.LEHB140:
 5360 2b2c E8000000 		call	_Unwind_Resume@PLT
 5360      00
 5361              	.LEHE140:
 5362              	.L446:
 5363 2b31 488D7B08 		leaq	8(%rbx), %rdi
 5364 2b35 4989C4   		movq	%rax, %r12
