   1              		.file	"TestChecks.cpp"
   2              		.section	.text._ZN17RecordingReporter13ReportSummaryEiiif,"axG",@progbits,_ZN17RecordingReporter13
   3              		.align 2
   4              		.p2align 4,,15
   5              		.weak	_ZN17RecordingReporter13ReportSummaryEiiif
   7              	_ZN17RecordingReporter13ReportSummaryEiiif:
   8              	.LFB1151:
   9              		.cfi_startproc
  10 0000 89B71C08 		movl	%esi, 2076(%rdi)
  10      0000
  11 0006 89972008 		movl	%edx, 2080(%rdi)
  11      0000
  12 000c F30F1187 		movss	%xmm0, 2088(%rdi)
  12      28080000 
  13 0014 898F2408 		movl	%ecx, 2084(%rdi)
  13      0000
  14 001a C3       		ret
  15              		.cfi_endproc
  16              	.LFE1151:
  18              		.text
  19              		.align 2
  20              		.p2align 4,,15
  22              	_ZN12_GLOBAL__N_143TestCheckArray2DCloseFailureIncludesDetailsD2Ev:
  23              	.LFB1358:
  24              		.cfi_startproc
  25 0000 488D0500 		leaq	16+_ZTVN12_GLOBAL__N_143TestCheckArray2DCloseFailureIncludesDetailsE(%rip), %rax
  25      000000
  26 0007 488907   		movq	%rax, (%rdi)
  27 000a E9000000 		jmp	_ZN8UnitTest4TestD2Ev@PLT
  27      00
  28              		.cfi_endproc
  29              	.LFE1358:
  31              		.set	_ZN12_GLOBAL__N_143TestCheckArray2DCloseFailureIncludesDetailsD1Ev,_ZN12_GLOBAL__N_143TestChe
  32 000f 90       		.align 2
  33              		.p2align 4,,15
  35              	_ZN12_GLOBAL__N_133TestCheckCloseWithDoublesSucceedsD2Ev:
  36              	.LFB1362:
  37              		.cfi_startproc
  38 0010 488D0500 		leaq	16+_ZTVN12_GLOBAL__N_133TestCheckCloseWithDoublesSucceedsE(%rip), %rax
  38      000000
  39 0017 488907   		movq	%rax, (%rdi)
  40 001a E9000000 		jmp	_ZN8UnitTest4TestD2Ev@PLT
  40      00
  41              		.cfi_endproc
  42              	.LFE1362:
  44              		.set	_ZN12_GLOBAL__N_133TestCheckCloseWithDoublesSucceedsD1Ev,_ZN12_GLOBAL__N_133TestCheckCloseWit
  45 001f 90       		.align 2
  46              		.p2align 4,,15
  48              	_ZN12_GLOBAL__N_126TestCheckArray2DCloseFalseD2Ev:
  49              	.LFB1366:
  50              		.cfi_startproc
  51 0020 488D0500 		leaq	16+_ZTVN12_GLOBAL__N_126TestCheckArray2DCloseFalseE(%rip), %rax
  51      000000
  52 0027 488907   		movq	%rax, (%rdi)
  53 002a E9000000 		jmp	_ZN8UnitTest4TestD2Ev@PLT
  53      00
  54              		.cfi_endproc
  55              	.LFE1366:
  57              		.set	_ZN12_GLOBAL__N_126TestCheckArray2DCloseFalseD1Ev,_ZN12_GLOBAL__N_126TestCheckArray2DCloseFal
  58 002f 90       		.align 2
  59              		.p2align 4,,15
  61              	_ZN12_GLOBAL__N_125TestCheckArray2DCloseTrueD2Ev:
  62              	.LFB1370:
  63              		.cfi_startproc
  64 0030 488D0500 		leaq	16+_ZTVN12_GLOBAL__N_125TestCheckArray2DCloseTrueE(%rip), %rax
  64      000000
  65 0037 488907   		movq	%rax, (%rdi)
  66 003a E9000000 		jmp	_ZN8UnitTest4TestD2Ev@PLT
  66      00
  67              		.cfi_endproc
  68              	.LFE1370:
  70              		.set	_ZN12_GLOBAL__N_125TestCheckArray2DCloseTrueD1Ev,_ZN12_GLOBAL__N_125TestCheckArray2DCloseTrue
  71 003f 90       		.align 2
  72              		.p2align 4,,15
  74              	_ZN12_GLOBAL__N_141TestCheckArrayCloseFailureIncludesDetailsD2Ev:
  75              	.LFB1374:
  76              		.cfi_startproc
  77 0040 488D0500 		leaq	16+_ZTVN12_GLOBAL__N_141TestCheckArrayCloseFailureIncludesDetailsE(%rip), %rax
  77      000000
  78 0047 488907   		movq	%rax, (%rdi)
  79 004a E9000000 		jmp	_ZN8UnitTest4TestD2Ev@PLT
  79      00
  80              		.cfi_endproc
  81              	.LFE1374:
  83              		.set	_ZN12_GLOBAL__N_141TestCheckArrayCloseFailureIncludesDetailsD1Ev,_ZN12_GLOBAL__N_141TestCheck
  84 004f 90       		.align 2
  85              		.p2align 4,,15
  87              	_ZN12_GLOBAL__N_124TestCheckArrayCloseFalseD2Ev:
  88              	.LFB1378:
  89              		.cfi_startproc
  90 0050 488D0500 		leaq	16+_ZTVN12_GLOBAL__N_124TestCheckArrayCloseFalseE(%rip), %rax
  90      000000
  91 0057 488907   		movq	%rax, (%rdi)
  92 005a E9000000 		jmp	_ZN8UnitTest4TestD2Ev@PLT
  92      00
  93              		.cfi_endproc
  94              	.LFE1378:
  96              		.set	_ZN12_GLOBAL__N_124TestCheckArrayCloseFalseD1Ev,_ZN12_GLOBAL__N_124TestCheckArrayCloseFalseD2
  97 005f 90       		.align 2
  98              		.p2align 4,,15
 100              	_ZN12_GLOBAL__N_123TestCheckArrayCloseTrueD2Ev:
 101              	.LFB1382:
 102              		.cfi_startproc
 103 0060 488D0500 		leaq	16+_ZTVN12_GLOBAL__N_123TestCheckArrayCloseTrueE(%rip), %rax
 103      000000
 104 0067 488907   		movq	%rax, (%rdi)
 105 006a E9000000 		jmp	_ZN8UnitTest4TestD2Ev@PLT
 105      00
 106              		.cfi_endproc
 107              	.LFE1382:
 109              		.set	_ZN12_GLOBAL__N_123TestCheckArrayCloseTrueD1Ev,_ZN12_GLOBAL__N_123TestCheckArrayCloseTrueD2Ev
 110 006f 90       		.align 2
 111              		.p2align 4,,15
 113              	_ZN12_GLOBAL__N_124TestCheckArrayEqualFalseD2Ev:
 114              	.LFB1386:
 115              		.cfi_startproc
 116 0070 488D0500 		leaq	16+_ZTVN12_GLOBAL__N_124TestCheckArrayEqualFalseE(%rip), %rax
 116      000000
 117 0077 488907   		movq	%rax, (%rdi)
 118 007a E9000000 		jmp	_ZN8UnitTest4TestD2Ev@PLT
 118      00
 119              		.cfi_endproc
 120              	.LFE1386:
 122              		.set	_ZN12_GLOBAL__N_124TestCheckArrayEqualFalseD1Ev,_ZN12_GLOBAL__N_124TestCheckArrayEqualFalseD2
 123 007f 90       		.align 2
 124              		.p2align 4,,15
 126              	_ZN12_GLOBAL__N_123TestCheckArrayEqualTrueD2Ev:
 127              	.LFB1390:
 128              		.cfi_startproc
 129 0080 488D0500 		leaq	16+_ZTVN12_GLOBAL__N_123TestCheckArrayEqualTrueE(%rip), %rax
 129      000000
 130 0087 488907   		movq	%rax, (%rdi)
 131 008a E9000000 		jmp	_ZN8UnitTest4TestD2Ev@PLT
 131      00
 132              		.cfi_endproc
 133              	.LFE1390:
 135              		.set	_ZN12_GLOBAL__N_123TestCheckArrayEqualTrueD1Ev,_ZN12_GLOBAL__N_123TestCheckArrayEqualTrueD2Ev
 136 008f 90       		.align 2
 137              		.p2align 4,,15
 139              	_ZN12_GLOBAL__N_136TestCheckCloseFailureIncludesDetailsD2Ev:
 140              	.LFB1394:
 141              		.cfi_startproc
 142 0090 488D0500 		leaq	16+_ZTVN12_GLOBAL__N_136TestCheckCloseFailureIncludesDetailsE(%rip), %rax
 142      000000
 143 0097 488907   		movq	%rax, (%rdi)
 144 009a E9000000 		jmp	_ZN8UnitTest4TestD2Ev@PLT
 144      00
 145              		.cfi_endproc
 146              	.LFE1394:
 148              		.set	_ZN12_GLOBAL__N_136TestCheckCloseFailureIncludesDetailsD1Ev,_ZN12_GLOBAL__N_136TestCheckClose
 149 009f 90       		.align 2
 150              		.p2align 4,,15
 152              	_ZN12_GLOBAL__N_138TestCheckCloseFailureIncludesToleranceD2Ev:
 153              	.LFB1398:
 154              		.cfi_startproc
 155 00a0 488D0500 		leaq	16+_ZTVN12_GLOBAL__N_138TestCheckCloseFailureIncludesToleranceE(%rip), %rax
 155      000000
 156 00a7 488907   		movq	%rax, (%rdi)
 157 00aa E9000000 		jmp	_ZN8UnitTest4TestD2Ev@PLT
 157      00
 158              		.cfi_endproc
 159              	.LFE1398:
 161              		.set	_ZN12_GLOBAL__N_138TestCheckCloseFailureIncludesToleranceD1Ev,_ZN12_GLOBAL__N_138TestCheckClo
 162 00af 90       		.align 2
 163              		.p2align 4,,15
 165              	_ZN12_GLOBAL__N_151TestCheckCloseFailureIncludesCheckExpectedAndActualD2Ev:
 166              	.LFB1402:
 167              		.cfi_startproc
 168 00b0 488D0500 		leaq	16+_ZTVN12_GLOBAL__N_151TestCheckCloseFailureIncludesCheckExpectedAndActualE(%rip), %rax
 168      000000
 169 00b7 488907   		movq	%rax, (%rdi)
 170 00ba E9000000 		jmp	_ZN8UnitTest4TestD2Ev@PLT
 170      00
 171              		.cfi_endproc
 172              	.LFE1402:
 174              		.set	_ZN12_GLOBAL__N_151TestCheckCloseFailureIncludesCheckExpectedAndActualD1Ev,_ZN12_GLOBAL__N_15
 175 00bf 90       		.align 2
 176              		.p2align 4,,15
 178              	_ZN12_GLOBAL__N_139TestCheckCloseWithNaNAgainstItselfFailsD2Ev:
 179              	.LFB1406:
 180              		.cfi_startproc
 181 00c0 488D0500 		leaq	16+_ZTVN12_GLOBAL__N_139TestCheckCloseWithNaNAgainstItselfFailsE(%rip), %rax
 181      000000
 182 00c7 488907   		movq	%rax, (%rdi)
 183 00ca E9000000 		jmp	_ZN8UnitTest4TestD2Ev@PLT
 183      00
 184              		.cfi_endproc
 185              	.LFE1406:
 187              		.set	_ZN12_GLOBAL__N_139TestCheckCloseWithNaNAgainstItselfFailsD1Ev,_ZN12_GLOBAL__N_139TestCheckCl
 188 00cf 90       		.align 2
 189              		.p2align 4,,15
 191              	_ZN12_GLOBAL__N_126TestCheckCloseWithNaNFailsD2Ev:
 192              	.LFB1410:
 193              		.cfi_startproc
 194 00d0 488D0500 		leaq	16+_ZTVN12_GLOBAL__N_126TestCheckCloseWithNaNFailsE(%rip), %rax
 194      000000
 195 00d7 488907   		movq	%rax, (%rdi)
 196 00da E9000000 		jmp	_ZN8UnitTest4TestD2Ev@PLT
 196      00
 197              		.cfi_endproc
 198              	.LFE1410:
 200              		.set	_ZN12_GLOBAL__N_126TestCheckCloseWithNaNFailsD1Ev,_ZN12_GLOBAL__N_126TestCheckCloseWithNaNFai
 201 00df 90       		.align 2
 202              		.p2align 4,,15
 204              	_ZN12_GLOBAL__N_147TestCheckCloseWithZeroEpsilonWorksForSameNumberD2Ev:
 205              	.LFB1414:
 206              		.cfi_startproc
 207 00e0 488D0500 		leaq	16+_ZTVN12_GLOBAL__N_147TestCheckCloseWithZeroEpsilonWorksForSameNumberE(%rip), %rax
 207      000000
 208 00e7 488907   		movq	%rax, (%rdi)
 209 00ea E9000000 		jmp	_ZN8UnitTest4TestD2Ev@PLT
 209      00
 210              		.cfi_endproc
 211              	.LFE1414:
 213              		.set	_ZN12_GLOBAL__N_147TestCheckCloseWithZeroEpsilonWorksForSameNumberD1Ev,_ZN12_GLOBAL__N_147Tes
 214 00ef 90       		.align 2
 215              		.p2align 4,,15
 217              	_ZN12_GLOBAL__N_119TestCheckCloseFalseD2Ev:
 218              	.LFB1418:
 219              		.cfi_startproc
 220 00f0 488D0500 		leaq	16+_ZTVN12_GLOBAL__N_119TestCheckCloseFalseE(%rip), %rax
 220      000000
 221 00f7 488907   		movq	%rax, (%rdi)
 222 00fa E9000000 		jmp	_ZN8UnitTest4TestD2Ev@PLT
 222      00
 223              		.cfi_endproc
 224              	.LFE1418:
 226              		.set	_ZN12_GLOBAL__N_119TestCheckCloseFalseD1Ev,_ZN12_GLOBAL__N_119TestCheckCloseFalseD2Ev
 227 00ff 90       		.align 2
 228              		.p2align 4,,15
 230              	_ZN12_GLOBAL__N_118TestCheckCloseTrueD2Ev:
 231              	.LFB1422:
 232              		.cfi_startproc
 233 0100 488D0500 		leaq	16+_ZTVN12_GLOBAL__N_118TestCheckCloseTrueE(%rip), %rax
 233      000000
 234 0107 488907   		movq	%rax, (%rdi)
 235 010a E9000000 		jmp	_ZN8UnitTest4TestD2Ev@PLT
 235      00
 236              		.cfi_endproc
 237              	.LFE1422:
 239              		.set	_ZN12_GLOBAL__N_118TestCheckCloseTrueD1Ev,_ZN12_GLOBAL__N_118TestCheckCloseTrueD2Ev
 240 010f 90       		.align 2
 241              		.p2align 4,,15
 243              	_ZN12_GLOBAL__N_136TestCheckEqualFailureIncludesDetailsD2Ev:
 244              	.LFB1426:
 245              		.cfi_startproc
 246 0110 488D0500 		leaq	16+_ZTVN12_GLOBAL__N_136TestCheckEqualFailureIncludesDetailsE(%rip), %rax
 246      000000
 247 0117 488907   		movq	%rax, (%rdi)
 248 011a E9000000 		jmp	_ZN8UnitTest4TestD2Ev@PLT
 248      00
 249              		.cfi_endproc
 250              	.LFE1426:
 252              		.set	_ZN12_GLOBAL__N_136TestCheckEqualFailureIncludesDetailsD1Ev,_ZN12_GLOBAL__N_136TestCheckEqual
 253 011f 90       		.align 2
 254              		.p2align 4,,15
 256              	_ZN12_GLOBAL__N_151TestCheckEqualFailureIncludesCheckExpectedAndActualD2Ev:
 257              	.LFB1430:
 258              		.cfi_startproc
 259 0120 488D0500 		leaq	16+_ZTVN12_GLOBAL__N_151TestCheckEqualFailureIncludesCheckExpectedAndActualE(%rip), %rax
 259      000000
 260 0127 488907   		movq	%rax, (%rdi)
 261 012a E9000000 		jmp	_ZN8UnitTest4TestD2Ev@PLT
 261      00
 262              		.cfi_endproc
 263              	.LFE1430:
 265              		.set	_ZN12_GLOBAL__N_151TestCheckEqualFailureIncludesCheckExpectedAndActualD1Ev,_ZN12_GLOBAL__N_15
 266 012f 90       		.align 2
 267              		.p2align 4,,15
 269              	_ZN12_GLOBAL__N_153TestCheckEqualsWithStringsWorksOnContentsWithALiteralD2Ev:
 270              	.LFB1434:
 271              		.cfi_startproc
 272 0130 488D0500 		leaq	16+_ZTVN12_GLOBAL__N_153TestCheckEqualsWithStringsWorksOnContentsWithALiteralE(%rip), %rax
 272      000000
 273 0137 488907   		movq	%rax, (%rdi)
 274 013a E9000000 		jmp	_ZN8UnitTest4TestD2Ev@PLT
 274      00
 275              		.cfi_endproc
 276              	.LFE1434:
 278              		.set	_ZN12_GLOBAL__N_153TestCheckEqualsWithStringsWorksOnContentsWithALiteralD1Ev,_ZN12_GLOBAL__N_
 279 013f 90       		.align 2
 280              		.p2align 4,,15
 282              	_ZN12_GLOBAL__N_154TestCheckEqualsWithStringsWorksOnContentsConstNonConstD2Ev:
 283              	.LFB1438:
 284              		.cfi_startproc
 285 0140 488D0500 		leaq	16+_ZTVN12_GLOBAL__N_154TestCheckEqualsWithStringsWorksOnContentsConstNonConstE(%rip), %rax
 285      000000
 286 0147 488907   		movq	%rax, (%rdi)
 287 014a E9000000 		jmp	_ZN8UnitTest4TestD2Ev@PLT
 287      00
 288              		.cfi_endproc
 289              	.LFE1438:
 291              		.set	_ZN12_GLOBAL__N_154TestCheckEqualsWithStringsWorksOnContentsConstNonConstD1Ev,_ZN12_GLOBAL__N
 292 014f 90       		.align 2
 293              		.p2align 4,,15
 295              	_ZN12_GLOBAL__N_154TestCheckEqualsWithStringsWorksOnContentsNonConstConstD2Ev:
 296              	.LFB1442:
 297              		.cfi_startproc
 298 0150 488D0500 		leaq	16+_ZTVN12_GLOBAL__N_154TestCheckEqualsWithStringsWorksOnContentsNonConstConstE(%rip), %rax
 298      000000
 299 0157 488907   		movq	%rax, (%rdi)
 300 015a E9000000 		jmp	_ZN8UnitTest4TestD2Ev@PLT
 300      00
 301              		.cfi_endproc
 302              	.LFE1442:
 304              		.set	_ZN12_GLOBAL__N_154TestCheckEqualsWithStringsWorksOnContentsNonConstConstD1Ev,_ZN12_GLOBAL__N
 305 015f 90       		.align 2
 306              		.p2align 4,,15
 308              	_ZN12_GLOBAL__N_151TestCheckEqualsWithStringsWorksOnContentsConstConstD2Ev:
 309              	.LFB1446:
 310              		.cfi_startproc
 311 0160 488D0500 		leaq	16+_ZTVN12_GLOBAL__N_151TestCheckEqualsWithStringsWorksOnContentsConstConstE(%rip), %rax
 311      000000
 312 0167 488907   		movq	%rax, (%rdi)
 313 016a E9000000 		jmp	_ZN8UnitTest4TestD2Ev@PLT
 313      00
 314              		.cfi_endproc
 315              	.LFE1446:
 317              		.set	_ZN12_GLOBAL__N_151TestCheckEqualsWithStringsWorksOnContentsConstConstD1Ev,_ZN12_GLOBAL__N_15
 318 016f 90       		.align 2
 319              		.p2align 4,,15
 321              	_ZN12_GLOBAL__N_157TestCheckEqualsWithStringsWorksOnContentsNonConstNonConstD2Ev:
 322              	.LFB1450:
 323              		.cfi_startproc
 324 0170 488D0500 		leaq	16+_ZTVN12_GLOBAL__N_157TestCheckEqualsWithStringsWorksOnContentsNonConstNonConstE(%rip), %ra
 324      000000
 325 0177 488907   		movq	%rax, (%rdi)
 326 017a E9000000 		jmp	_ZN8UnitTest4TestD2Ev@PLT
 326      00
 327              		.cfi_endproc
 328              	.LFE1450:
 330              		.set	_ZN12_GLOBAL__N_157TestCheckEqualsWithStringsWorksOnContentsNonConstNonConstD1Ev,_ZN12_GLOBAL
 331 017f 90       		.align 2
 332              		.p2align 4,,15
 334              	_ZN12_GLOBAL__N_149TestCheckEqualsWithStringsFailsOnDifferentStringsD2Ev:
 335              	.LFB1454:
 336              		.cfi_startproc
 337 0180 488D0500 		leaq	16+_ZTVN12_GLOBAL__N_149TestCheckEqualsWithStringsFailsOnDifferentStringsE(%rip), %rax
 337      000000
 338 0187 488907   		movq	%rax, (%rdi)
 339 018a E9000000 		jmp	_ZN8UnitTest4TestD2Ev@PLT
 339      00
 340              		.cfi_endproc
 341              	.LFE1454:
 343              		.set	_ZN12_GLOBAL__N_149TestCheckEqualsWithStringsFailsOnDifferentStringsD1Ev,_ZN12_GLOBAL__N_149T
 344 018f 90       		.align 2
 345              		.p2align 4,,15
 347              	_ZN12_GLOBAL__N_130TestCheckEqualWithUnsignedLongD2Ev:
 348              	.LFB1458:
 349              		.cfi_startproc
 350 0190 488D0500 		leaq	16+_ZTVN12_GLOBAL__N_130TestCheckEqualWithUnsignedLongE(%rip), %rax
 350      000000
 351 0197 488907   		movq	%rax, (%rdi)
 352 019a E9000000 		jmp	_ZN8UnitTest4TestD2Ev@PLT
 352      00
 353              		.cfi_endproc
 354              	.LFE1458:
 356              		.set	_ZN12_GLOBAL__N_130TestCheckEqualWithUnsignedLongD1Ev,_ZN12_GLOBAL__N_130TestCheckEqualWithUn
 357              		.section	.text._ZN17RecordingReporter15ReportTestStartERKN8UnitTest11TestDetailsE,"axG",@progbits,
 358              		.align 2
 359              		.p2align 4,,15
 360              		.weak	_ZN17RecordingReporter15ReportTestStartERKN8UnitTest11TestDetailsE
 362              	_ZN17RecordingReporter15ReportTestStartERKN8UnitTest11TestDetailsE:
 363              	.LFB1148:
 364              		.cfi_startproc
 365 0000 55       		pushq	%rbp
 366              		.cfi_def_cfa_offset 16
 367              		.cfi_offset 6, -16
 368 0001 53       		pushq	%rbx
 369              		.cfi_def_cfa_offset 24
 370              		.cfi_offset 3, -24
 371 0002 4889F5   		movq	%rsi, %rbp
 372 0005 4889FB   		movq	%rdi, %rbx
 373 0008 BA000100 		movl	$256, %edx
 373      00
 374 000d 4883EC08 		subq	$8, %rsp
 375              		.cfi_def_cfa_offset 32
 376 0011 83470801 		addl	$1, 8(%rdi)
 377 0015 488D7F0C 		leaq	12(%rdi), %rdi
 378 0019 488B36   		movq	(%rsi), %rsi
 379 001c E8000000 		call	__strcpy_chk@PLT
 379      00
 380 0021 488B7508 		movq	8(%rbp), %rsi
 381 0025 4883C408 		addq	$8, %rsp
 382              		.cfi_def_cfa_offset 24
 383 0029 488DBB0C 		leaq	268(%rbx), %rdi
 383      010000
 384 0030 5B       		popq	%rbx
 385              		.cfi_def_cfa_offset 16
 386 0031 5D       		popq	%rbp
 387              		.cfi_def_cfa_offset 8
 388 0032 BA000100 		movl	$256, %edx
 388      00
 389 0037 E9000000 		jmp	__strcpy_chk@PLT
 389      00
 390              		.cfi_endproc
 391              	.LFE1148:
 393              		.section	.text._ZN17RecordingReporter13ReportFailureERKN8UnitTest11TestDetailsEPKc,"axG",@progbits
 394              		.align 2
 395              		.p2align 4,,15
 396              		.weak	_ZN17RecordingReporter13ReportFailureERKN8UnitTest11TestDetailsEPKc
 398              	_ZN17RecordingReporter13ReportFailureERKN8UnitTest11TestDetailsEPKc:
 399              	.LFB1149:
 400              		.cfi_startproc
 401 0000 4154     		pushq	%r12
 402              		.cfi_def_cfa_offset 16
 403              		.cfi_offset 12, -16
 404 0002 55       		pushq	%rbp
 405              		.cfi_def_cfa_offset 24
 406              		.cfi_offset 6, -24
 407 0003 4889F5   		movq	%rsi, %rbp
 408 0006 53       		pushq	%rbx
 409              		.cfi_def_cfa_offset 32
 410              		.cfi_offset 3, -32
 411 0007 83870C02 		addl	$1, 524(%rdi)
 411      000001
 412 000e 4889FB   		movq	%rdi, %rbx
 413 0011 488B7610 		movq	16(%rsi), %rsi
 414 0015 488DBF10 		leaq	528(%rdi), %rdi
 414      020000
 415 001c 4989D4   		movq	%rdx, %r12
 416 001f BA000100 		movl	$256, %edx
 416      00
 417 0024 E8000000 		call	__strcpy_chk@PLT
 417      00
 418 0029 8B4518   		movl	24(%rbp), %eax
 419 002c 488DBB14 		leaq	788(%rbx), %rdi
 419      030000
 420 0033 BA000100 		movl	$256, %edx
 420      00
 421 0038 89831003 		movl	%eax, 784(%rbx)
 421      0000
 422 003e 488B7500 		movq	0(%rbp), %rsi
 423 0042 E8000000 		call	__strcpy_chk@PLT
 423      00
 424 0047 488B7508 		movq	8(%rbp), %rsi
 425 004b 488DBB14 		leaq	1044(%rbx), %rdi
 425      040000
 426 0052 BA000100 		movl	$256, %edx
 426      00
 427 0057 E8000000 		call	__strcpy_chk@PLT
 427      00
 428 005c 488DBB14 		leaq	1300(%rbx), %rdi
 428      050000
 429 0063 4C89E6   		movq	%r12, %rsi
 430 0066 BA000100 		movl	$256, %edx
 430      00
 431 006b 5B       		popq	%rbx
 432              		.cfi_def_cfa_offset 24
 433 006c 5D       		popq	%rbp
 434              		.cfi_def_cfa_offset 16
 435 006d 415C     		popq	%r12
 436              		.cfi_def_cfa_offset 8
 437 006f E9000000 		jmp	__strcpy_chk@PLT
 437      00
 438              		.cfi_endproc
 439              	.LFE1149:
 441              		.section	.text._ZN17RecordingReporter16ReportTestFinishERKN8UnitTest11TestDetailsEf,"axG",@progbit
 442              		.align 2
 443              		.p2align 4,,15
 444              		.weak	_ZN17RecordingReporter16ReportTestFinishERKN8UnitTest11TestDetailsEf
 446              	_ZN17RecordingReporter16ReportTestFinishERKN8UnitTest11TestDetailsEf:
 447              	.LFB1150:
 448              		.cfi_startproc
 449 0000 55       		pushq	%rbp
 450              		.cfi_def_cfa_offset 16
 451              		.cfi_offset 6, -16
 452 0001 53       		pushq	%rbx
 453              		.cfi_def_cfa_offset 24
 454              		.cfi_offset 3, -24
 455 0002 4889F5   		movq	%rsi, %rbp
 456 0005 4889FB   		movq	%rdi, %rbx
 457 0008 BA000100 		movl	$256, %edx
 457      00
 458 000d 4883EC18 		subq	$24, %rsp
 459              		.cfi_def_cfa_offset 48
 460 0011 83871406 		addl	$1, 1556(%rdi)
 460      000001
 461 0018 488DBF18 		leaq	1560(%rdi), %rdi
 461      060000
 462 001f 488B36   		movq	(%rsi), %rsi
 463 0022 F30F1144 		movss	%xmm0, 12(%rsp)
 463      240C
 464 0028 E8000000 		call	__strcpy_chk@PLT
 464      00
 465 002d 488B7508 		movq	8(%rbp), %rsi
 466 0031 488DBB18 		leaq	1816(%rbx), %rdi
 466      070000
 467 0038 BA000100 		movl	$256, %edx
 467      00
 468 003d E8000000 		call	__strcpy_chk@PLT
 468      00
 469 0042 F30F1044 		movss	12(%rsp), %xmm0
 469      240C
 470 0048 F30F1183 		movss	%xmm0, 2072(%rbx)
 470      18080000 
 471 0050 4883C418 		addq	$24, %rsp
 472              		.cfi_def_cfa_offset 24
 473 0054 5B       		popq	%rbx
 474              		.cfi_def_cfa_offset 16
 475 0055 5D       		popq	%rbp
 476              		.cfi_def_cfa_offset 8
 477 0056 C3       		ret
 478              		.cfi_endproc
 479              	.LFE1150:
 481              		.text
 482 019f 90       		.align 2
 483              		.p2align 4,,15
 485              	_ZN12_GLOBAL__N_143TestCheckArray2DCloseFailureIncludesDetailsD0Ev:
 486              	.LFB1360:
 487              		.cfi_startproc
 488              		.cfi_personality 0x9b,DW.ref.__gxx_personality_v0
 489              		.cfi_lsda 0x1b,.LLSDA1360
 490 01a0 55       		pushq	%rbp
 491              		.cfi_def_cfa_offset 16
 492              		.cfi_offset 6, -16
 493 01a1 488D0500 		leaq	16+_ZTVN12_GLOBAL__N_143TestCheckArray2DCloseFailureIncludesDetailsE(%rip), %rax
 493      000000
 494 01a8 53       		pushq	%rbx
 495              		.cfi_def_cfa_offset 24
 496              		.cfi_offset 3, -24
 497 01a9 4889FB   		movq	%rdi, %rbx
 498 01ac 4883EC08 		subq	$8, %rsp
 499              		.cfi_def_cfa_offset 32
 500 01b0 488907   		movq	%rax, (%rdi)
 501              	.LEHB0:
 502 01b3 E8000000 		call	_ZN8UnitTest4TestD2Ev@PLT
 502      00
 503              	.LEHE0:
 504 01b8 4883C408 		addq	$8, %rsp
 505              		.cfi_remember_state
 506              		.cfi_def_cfa_offset 24
 507 01bc 4889DF   		movq	%rbx, %rdi
 508 01bf 5B       		popq	%rbx
 509              		.cfi_def_cfa_offset 16
 510 01c0 5D       		popq	%rbp
 511              		.cfi_def_cfa_offset 8
 512 01c1 E9000000 		jmp	_ZdlPv@PLT
 512      00
 513              	.L37:
 514              		.cfi_restore_state
 515 01c6 4889C5   		movq	%rax, %rbp
 516 01c9 4889DF   		movq	%rbx, %rdi
 517 01cc E8000000 		call	_ZdlPv@PLT
 517      00
 518 01d1 4889EF   		movq	%rbp, %rdi
 519              	.LEHB1:
 520 01d4 E8000000 		call	_Unwind_Resume@PLT
 520      00
 521              	.LEHE1:
 522              		.cfi_endproc
 523              	.LFE1360:
 524              		.globl	__gxx_personality_v0
 525              		.section	.gcc_except_table,"a",@progbits
 526              	.LLSDA1360:
 527 0000 FF       		.byte	0xff
 528 0001 FF       		.byte	0xff
 529 0002 01       		.byte	0x1
 530 0003 08       		.uleb128 .LLSDACSE1360-.LLSDACSB1360
 531              	.LLSDACSB1360:
 532 0004 13       		.uleb128 .LEHB0-.LFB1360
 533 0005 05       		.uleb128 .LEHE0-.LEHB0
 534 0006 26       		.uleb128 .L37-.LFB1360
 535 0007 00       		.uleb128 0
 536 0008 34       		.uleb128 .LEHB1-.LFB1360
 537 0009 05       		.uleb128 .LEHE1-.LEHB1
 538 000a 00       		.uleb128 0
 539 000b 00       		.uleb128 0
 540              	.LLSDACSE1360:
 541              		.text
 543 01d9 90       		.align 2
 544 01da 660F1F44 		.p2align 4,,15
 544      0000
 546              	_ZN12_GLOBAL__N_133TestCheckCloseWithDoublesSucceedsD0Ev:
 547              	.LFB1364:
 548              		.cfi_startproc
 549              		.cfi_personality 0x9b,DW.ref.__gxx_personality_v0
 550              		.cfi_lsda 0x1b,.LLSDA1364
 551 01e0 55       		pushq	%rbp
 552              		.cfi_def_cfa_offset 16
 553              		.cfi_offset 6, -16
 554 01e1 488D0500 		leaq	16+_ZTVN12_GLOBAL__N_133TestCheckCloseWithDoublesSucceedsE(%rip), %rax
 554      000000
 555 01e8 53       		pushq	%rbx
 556              		.cfi_def_cfa_offset 24
 557              		.cfi_offset 3, -24
 558 01e9 4889FB   		movq	%rdi, %rbx
 559 01ec 4883EC08 		subq	$8, %rsp
 560              		.cfi_def_cfa_offset 32
 561 01f0 488907   		movq	%rax, (%rdi)
 562              	.LEHB2:
 563 01f3 E8000000 		call	_ZN8UnitTest4TestD2Ev@PLT
 563      00
 564              	.LEHE2:
 565 01f8 4883C408 		addq	$8, %rsp
 566              		.cfi_remember_state
 567              		.cfi_def_cfa_offset 24
 568 01fc 4889DF   		movq	%rbx, %rdi
 569 01ff 5B       		popq	%rbx
 570              		.cfi_def_cfa_offset 16
 571 0200 5D       		popq	%rbp
 572              		.cfi_def_cfa_offset 8
 573 0201 E9000000 		jmp	_ZdlPv@PLT
 573      00
 574              	.L41:
 575              		.cfi_restore_state
 576 0206 4889C5   		movq	%rax, %rbp
 577 0209 4889DF   		movq	%rbx, %rdi
 578 020c E8000000 		call	_ZdlPv@PLT
 578      00
 579 0211 4889EF   		movq	%rbp, %rdi
 580              	.LEHB3:
 581 0214 E8000000 		call	_Unwind_Resume@PLT
 581      00
 582              	.LEHE3:
 583              		.cfi_endproc
 584              	.LFE1364:
 585              		.section	.gcc_except_table
 586              	.LLSDA1364:
 587 000c FF       		.byte	0xff
 588 000d FF       		.byte	0xff
 589 000e 01       		.byte	0x1
 590 000f 08       		.uleb128 .LLSDACSE1364-.LLSDACSB1364
 591              	.LLSDACSB1364:
 592 0010 13       		.uleb128 .LEHB2-.LFB1364
 593 0011 05       		.uleb128 .LEHE2-.LEHB2
 594 0012 26       		.uleb128 .L41-.LFB1364
 595 0013 00       		.uleb128 0
 596 0014 34       		.uleb128 .LEHB3-.LFB1364
 597 0015 05       		.uleb128 .LEHE3-.LEHB3
 598 0016 00       		.uleb128 0
 599 0017 00       		.uleb128 0
 600              	.LLSDACSE1364:
 601              		.text
 603 0219 90       		.align 2
 604 021a 660F1F44 		.p2align 4,,15
 604      0000
 606              	_ZN12_GLOBAL__N_126TestCheckArray2DCloseFalseD0Ev:
 607              	.LFB1368:
 608              		.cfi_startproc
 609              		.cfi_personality 0x9b,DW.ref.__gxx_personality_v0
 610              		.cfi_lsda 0x1b,.LLSDA1368
 611 0220 55       		pushq	%rbp
 612              		.cfi_def_cfa_offset 16
 613              		.cfi_offset 6, -16
 614 0221 488D0500 		leaq	16+_ZTVN12_GLOBAL__N_126TestCheckArray2DCloseFalseE(%rip), %rax
 614      000000
 615 0228 53       		pushq	%rbx
 616              		.cfi_def_cfa_offset 24
 617              		.cfi_offset 3, -24
 618 0229 4889FB   		movq	%rdi, %rbx
 619 022c 4883EC08 		subq	$8, %rsp
 620              		.cfi_def_cfa_offset 32
 621 0230 488907   		movq	%rax, (%rdi)
 622              	.LEHB4:
 623 0233 E8000000 		call	_ZN8UnitTest4TestD2Ev@PLT
 623      00
 624              	.LEHE4:
 625 0238 4883C408 		addq	$8, %rsp
 626              		.cfi_remember_state
 627              		.cfi_def_cfa_offset 24
 628 023c 4889DF   		movq	%rbx, %rdi
 629 023f 5B       		popq	%rbx
 630              		.cfi_def_cfa_offset 16
 631 0240 5D       		popq	%rbp
 632              		.cfi_def_cfa_offset 8
 633 0241 E9000000 		jmp	_ZdlPv@PLT
 633      00
 634              	.L45:
 635              		.cfi_restore_state
 636 0246 4889C5   		movq	%rax, %rbp
 637 0249 4889DF   		movq	%rbx, %rdi
 638 024c E8000000 		call	_ZdlPv@PLT
 638      00
 639 0251 4889EF   		movq	%rbp, %rdi
 640              	.LEHB5:
 641 0254 E8000000 		call	_Unwind_Resume@PLT
 641      00
 642              	.LEHE5:
 643              		.cfi_endproc
 644              	.LFE1368:
 645              		.section	.gcc_except_table
 646              	.LLSDA1368:
 647 0018 FF       		.byte	0xff
 648 0019 FF       		.byte	0xff
 649 001a 01       		.byte	0x1
 650 001b 08       		.uleb128 .LLSDACSE1368-.LLSDACSB1368
 651              	.LLSDACSB1368:
 652 001c 13       		.uleb128 .LEHB4-.LFB1368
 653 001d 05       		.uleb128 .LEHE4-.LEHB4
 654 001e 26       		.uleb128 .L45-.LFB1368
 655 001f 00       		.uleb128 0
 656 0020 34       		.uleb128 .LEHB5-.LFB1368
 657 0021 05       		.uleb128 .LEHE5-.LEHB5
 658 0022 00       		.uleb128 0
 659 0023 00       		.uleb128 0
 660              	.LLSDACSE1368:
 661              		.text
 663 0259 90       		.align 2
 664 025a 660F1F44 		.p2align 4,,15
 664      0000
 666              	_ZN12_GLOBAL__N_125TestCheckArray2DCloseTrueD0Ev:
 667              	.LFB1372:
 668              		.cfi_startproc
 669              		.cfi_personality 0x9b,DW.ref.__gxx_personality_v0
 670              		.cfi_lsda 0x1b,.LLSDA1372
 671 0260 55       		pushq	%rbp
 672              		.cfi_def_cfa_offset 16
 673              		.cfi_offset 6, -16
 674 0261 488D0500 		leaq	16+_ZTVN12_GLOBAL__N_125TestCheckArray2DCloseTrueE(%rip), %rax
 674      000000
 675 0268 53       		pushq	%rbx
 676              		.cfi_def_cfa_offset 24
 677              		.cfi_offset 3, -24
 678 0269 4889FB   		movq	%rdi, %rbx
 679 026c 4883EC08 		subq	$8, %rsp
 680              		.cfi_def_cfa_offset 32
 681 0270 488907   		movq	%rax, (%rdi)
 682              	.LEHB6:
 683 0273 E8000000 		call	_ZN8UnitTest4TestD2Ev@PLT
 683      00
 684              	.LEHE6:
 685 0278 4883C408 		addq	$8, %rsp
 686              		.cfi_remember_state
 687              		.cfi_def_cfa_offset 24
 688 027c 4889DF   		movq	%rbx, %rdi
 689 027f 5B       		popq	%rbx
 690              		.cfi_def_cfa_offset 16
 691 0280 5D       		popq	%rbp
 692              		.cfi_def_cfa_offset 8
 693 0281 E9000000 		jmp	_ZdlPv@PLT
 693      00
 694              	.L49:
 695              		.cfi_restore_state
 696 0286 4889C5   		movq	%rax, %rbp
 697 0289 4889DF   		movq	%rbx, %rdi
 698 028c E8000000 		call	_ZdlPv@PLT
 698      00
 699 0291 4889EF   		movq	%rbp, %rdi
 700              	.LEHB7:
 701 0294 E8000000 		call	_Unwind_Resume@PLT
 701      00
 702              	.LEHE7:
 703              		.cfi_endproc
 704              	.LFE1372:
 705              		.section	.gcc_except_table
 706              	.LLSDA1372:
 707 0024 FF       		.byte	0xff
 708 0025 FF       		.byte	0xff
 709 0026 01       		.byte	0x1
 710 0027 08       		.uleb128 .LLSDACSE1372-.LLSDACSB1372
 711              	.LLSDACSB1372:
 712 0028 13       		.uleb128 .LEHB6-.LFB1372
 713 0029 05       		.uleb128 .LEHE6-.LEHB6
 714 002a 26       		.uleb128 .L49-.LFB1372
 715 002b 00       		.uleb128 0
 716 002c 34       		.uleb128 .LEHB7-.LFB1372
 717 002d 05       		.uleb128 .LEHE7-.LEHB7
 718 002e 00       		.uleb128 0
 719 002f 00       		.uleb128 0
 720              	.LLSDACSE1372:
 721              		.text
 723 0299 90       		.align 2
 724 029a 660F1F44 		.p2align 4,,15
 724      0000
 726              	_ZN12_GLOBAL__N_141TestCheckArrayCloseFailureIncludesDetailsD0Ev:
 727              	.LFB1376:
 728              		.cfi_startproc
 729              		.cfi_personality 0x9b,DW.ref.__gxx_personality_v0
 730              		.cfi_lsda 0x1b,.LLSDA1376
 731 02a0 55       		pushq	%rbp
 732              		.cfi_def_cfa_offset 16
 733              		.cfi_offset 6, -16
 734 02a1 488D0500 		leaq	16+_ZTVN12_GLOBAL__N_141TestCheckArrayCloseFailureIncludesDetailsE(%rip), %rax
 734      000000
 735 02a8 53       		pushq	%rbx
 736              		.cfi_def_cfa_offset 24
 737              		.cfi_offset 3, -24
 738 02a9 4889FB   		movq	%rdi, %rbx
 739 02ac 4883EC08 		subq	$8, %rsp
 740              		.cfi_def_cfa_offset 32
 741 02b0 488907   		movq	%rax, (%rdi)
 742              	.LEHB8:
 743 02b3 E8000000 		call	_ZN8UnitTest4TestD2Ev@PLT
 743      00
 744              	.LEHE8:
 745 02b8 4883C408 		addq	$8, %rsp
 746              		.cfi_remember_state
 747              		.cfi_def_cfa_offset 24
 748 02bc 4889DF   		movq	%rbx, %rdi
 749 02bf 5B       		popq	%rbx
 750              		.cfi_def_cfa_offset 16
 751 02c0 5D       		popq	%rbp
 752              		.cfi_def_cfa_offset 8
 753 02c1 E9000000 		jmp	_ZdlPv@PLT
 753      00
 754              	.L53:
 755              		.cfi_restore_state
 756 02c6 4889C5   		movq	%rax, %rbp
 757 02c9 4889DF   		movq	%rbx, %rdi
 758 02cc E8000000 		call	_ZdlPv@PLT
 758      00
 759 02d1 4889EF   		movq	%rbp, %rdi
 760              	.LEHB9:
 761 02d4 E8000000 		call	_Unwind_Resume@PLT
 761      00
 762              	.LEHE9:
 763              		.cfi_endproc
 764              	.LFE1376:
 765              		.section	.gcc_except_table
 766              	.LLSDA1376:
 767 0030 FF       		.byte	0xff
 768 0031 FF       		.byte	0xff
 769 0032 01       		.byte	0x1
 770 0033 08       		.uleb128 .LLSDACSE1376-.LLSDACSB1376
 771              	.LLSDACSB1376:
 772 0034 13       		.uleb128 .LEHB8-.LFB1376
 773 0035 05       		.uleb128 .LEHE8-.LEHB8
 774 0036 26       		.uleb128 .L53-.LFB1376
 775 0037 00       		.uleb128 0
 776 0038 34       		.uleb128 .LEHB9-.LFB1376
 777 0039 05       		.uleb128 .LEHE9-.LEHB9
 778 003a 00       		.uleb128 0
 779 003b 00       		.uleb128 0
 780              	.LLSDACSE1376:
 781              		.text
 783 02d9 90       		.align 2
 784 02da 660F1F44 		.p2align 4,,15
 784      0000
 786              	_ZN12_GLOBAL__N_124TestCheckArrayCloseFalseD0Ev:
 787              	.LFB1380:
 788              		.cfi_startproc
 789              		.cfi_personality 0x9b,DW.ref.__gxx_personality_v0
 790              		.cfi_lsda 0x1b,.LLSDA1380
 791 02e0 55       		pushq	%rbp
 792              		.cfi_def_cfa_offset 16
 793              		.cfi_offset 6, -16
 794 02e1 488D0500 		leaq	16+_ZTVN12_GLOBAL__N_124TestCheckArrayCloseFalseE(%rip), %rax
 794      000000
 795 02e8 53       		pushq	%rbx
 796              		.cfi_def_cfa_offset 24
 797              		.cfi_offset 3, -24
 798 02e9 4889FB   		movq	%rdi, %rbx
 799 02ec 4883EC08 		subq	$8, %rsp
 800              		.cfi_def_cfa_offset 32
 801 02f0 488907   		movq	%rax, (%rdi)
 802              	.LEHB10:
 803 02f3 E8000000 		call	_ZN8UnitTest4TestD2Ev@PLT
 803      00
 804              	.LEHE10:
 805 02f8 4883C408 		addq	$8, %rsp
 806              		.cfi_remember_state
 807              		.cfi_def_cfa_offset 24
 808 02fc 4889DF   		movq	%rbx, %rdi
 809 02ff 5B       		popq	%rbx
 810              		.cfi_def_cfa_offset 16
 811 0300 5D       		popq	%rbp
 812              		.cfi_def_cfa_offset 8
 813 0301 E9000000 		jmp	_ZdlPv@PLT
 813      00
 814              	.L57:
 815              		.cfi_restore_state
 816 0306 4889C5   		movq	%rax, %rbp
 817 0309 4889DF   		movq	%rbx, %rdi
 818 030c E8000000 		call	_ZdlPv@PLT
 818      00
 819 0311 4889EF   		movq	%rbp, %rdi
 820              	.LEHB11:
 821 0314 E8000000 		call	_Unwind_Resume@PLT
 821      00
 822              	.LEHE11:
 823              		.cfi_endproc
 824              	.LFE1380:
 825              		.section	.gcc_except_table
 826              	.LLSDA1380:
 827 003c FF       		.byte	0xff
 828 003d FF       		.byte	0xff
 829 003e 01       		.byte	0x1
 830 003f 08       		.uleb128 .LLSDACSE1380-.LLSDACSB1380
 831              	.LLSDACSB1380:
 832 0040 13       		.uleb128 .LEHB10-.LFB1380
 833 0041 05       		.uleb128 .LEHE10-.LEHB10
 834 0042 26       		.uleb128 .L57-.LFB1380
 835 0043 00       		.uleb128 0
 836 0044 34       		.uleb128 .LEHB11-.LFB1380
 837 0045 05       		.uleb128 .LEHE11-.LEHB11
 838 0046 00       		.uleb128 0
 839 0047 00       		.uleb128 0
 840              	.LLSDACSE1380:
 841              		.text
 843 0319 90       		.align 2
 844 031a 660F1F44 		.p2align 4,,15
 844      0000
 846              	_ZN12_GLOBAL__N_123TestCheckArrayCloseTrueD0Ev:
 847              	.LFB1384:
 848              		.cfi_startproc
 849              		.cfi_personality 0x9b,DW.ref.__gxx_personality_v0
 850              		.cfi_lsda 0x1b,.LLSDA1384
 851 0320 55       		pushq	%rbp
 852              		.cfi_def_cfa_offset 16
 853              		.cfi_offset 6, -16
 854 0321 488D0500 		leaq	16+_ZTVN12_GLOBAL__N_123TestCheckArrayCloseTrueE(%rip), %rax
 854      000000
 855 0328 53       		pushq	%rbx
 856              		.cfi_def_cfa_offset 24
 857              		.cfi_offset 3, -24
 858 0329 4889FB   		movq	%rdi, %rbx
 859 032c 4883EC08 		subq	$8, %rsp
 860              		.cfi_def_cfa_offset 32
 861 0330 488907   		movq	%rax, (%rdi)
 862              	.LEHB12:
 863 0333 E8000000 		call	_ZN8UnitTest4TestD2Ev@PLT
 863      00
 864              	.LEHE12:
 865 0338 4883C408 		addq	$8, %rsp
 866              		.cfi_remember_state
 867              		.cfi_def_cfa_offset 24
 868 033c 4889DF   		movq	%rbx, %rdi
 869 033f 5B       		popq	%rbx
 870              		.cfi_def_cfa_offset 16
 871 0340 5D       		popq	%rbp
 872              		.cfi_def_cfa_offset 8
 873 0341 E9000000 		jmp	_ZdlPv@PLT
 873      00
 874              	.L61:
 875              		.cfi_restore_state
 876 0346 4889C5   		movq	%rax, %rbp
 877 0349 4889DF   		movq	%rbx, %rdi
 878 034c E8000000 		call	_ZdlPv@PLT
 878      00
 879 0351 4889EF   		movq	%rbp, %rdi
 880              	.LEHB13:
 881 0354 E8000000 		call	_Unwind_Resume@PLT
 881      00
 882              	.LEHE13:
 883              		.cfi_endproc
 884              	.LFE1384:
 885              		.section	.gcc_except_table
 886              	.LLSDA1384:
 887 0048 FF       		.byte	0xff
 888 0049 FF       		.byte	0xff
 889 004a 01       		.byte	0x1
 890 004b 08       		.uleb128 .LLSDACSE1384-.LLSDACSB1384
 891              	.LLSDACSB1384:
 892 004c 13       		.uleb128 .LEHB12-.LFB1384
 893 004d 05       		.uleb128 .LEHE12-.LEHB12
 894 004e 26       		.uleb128 .L61-.LFB1384
 895 004f 00       		.uleb128 0
 896 0050 34       		.uleb128 .LEHB13-.LFB1384
 897 0051 05       		.uleb128 .LEHE13-.LEHB13
 898 0052 00       		.uleb128 0
 899 0053 00       		.uleb128 0
 900              	.LLSDACSE1384:
 901              		.text
 903 0359 90       		.align 2
 904 035a 660F1F44 		.p2align 4,,15
 904      0000
 906              	_ZN12_GLOBAL__N_124TestCheckArrayEqualFalseD0Ev:
 907              	.LFB1388:
 908              		.cfi_startproc
 909              		.cfi_personality 0x9b,DW.ref.__gxx_personality_v0
 910              		.cfi_lsda 0x1b,.LLSDA1388
 911 0360 55       		pushq	%rbp
 912              		.cfi_def_cfa_offset 16
 913              		.cfi_offset 6, -16
 914 0361 488D0500 		leaq	16+_ZTVN12_GLOBAL__N_124TestCheckArrayEqualFalseE(%rip), %rax
 914      000000
 915 0368 53       		pushq	%rbx
 916              		.cfi_def_cfa_offset 24
 917              		.cfi_offset 3, -24
 918 0369 4889FB   		movq	%rdi, %rbx
 919 036c 4883EC08 		subq	$8, %rsp
 920              		.cfi_def_cfa_offset 32
 921 0370 488907   		movq	%rax, (%rdi)
 922              	.LEHB14:
 923 0373 E8000000 		call	_ZN8UnitTest4TestD2Ev@PLT
 923      00
 924              	.LEHE14:
 925 0378 4883C408 		addq	$8, %rsp
 926              		.cfi_remember_state
 927              		.cfi_def_cfa_offset 24
 928 037c 4889DF   		movq	%rbx, %rdi
 929 037f 5B       		popq	%rbx
 930              		.cfi_def_cfa_offset 16
 931 0380 5D       		popq	%rbp
 932              		.cfi_def_cfa_offset 8
 933 0381 E9000000 		jmp	_ZdlPv@PLT
 933      00
 934              	.L65:
 935              		.cfi_restore_state
 936 0386 4889C5   		movq	%rax, %rbp
 937 0389 4889DF   		movq	%rbx, %rdi
 938 038c E8000000 		call	_ZdlPv@PLT
 938      00
 939 0391 4889EF   		movq	%rbp, %rdi
 940              	.LEHB15:
 941 0394 E8000000 		call	_Unwind_Resume@PLT
 941      00
 942              	.LEHE15:
 943              		.cfi_endproc
 944              	.LFE1388:
 945              		.section	.gcc_except_table
 946              	.LLSDA1388:
 947 0054 FF       		.byte	0xff
 948 0055 FF       		.byte	0xff
 949 0056 01       		.byte	0x1
 950 0057 08       		.uleb128 .LLSDACSE1388-.LLSDACSB1388
 951              	.LLSDACSB1388:
 952 0058 13       		.uleb128 .LEHB14-.LFB1388
 953 0059 05       		.uleb128 .LEHE14-.LEHB14
 954 005a 26       		.uleb128 .L65-.LFB1388
 955 005b 00       		.uleb128 0
 956 005c 34       		.uleb128 .LEHB15-.LFB1388
 957 005d 05       		.uleb128 .LEHE15-.LEHB15
 958 005e 00       		.uleb128 0
 959 005f 00       		.uleb128 0
 960              	.LLSDACSE1388:
 961              		.text
 963 0399 90       		.align 2
 964 039a 660F1F44 		.p2align 4,,15
 964      0000
 966              	_ZN12_GLOBAL__N_123TestCheckArrayEqualTrueD0Ev:
 967              	.LFB1392:
 968              		.cfi_startproc
 969              		.cfi_personality 0x9b,DW.ref.__gxx_personality_v0
 970              		.cfi_lsda 0x1b,.LLSDA1392
 971 03a0 55       		pushq	%rbp
 972              		.cfi_def_cfa_offset 16
 973              		.cfi_offset 6, -16
 974 03a1 488D0500 		leaq	16+_ZTVN12_GLOBAL__N_123TestCheckArrayEqualTrueE(%rip), %rax
 974      000000
 975 03a8 53       		pushq	%rbx
 976              		.cfi_def_cfa_offset 24
 977              		.cfi_offset 3, -24
 978 03a9 4889FB   		movq	%rdi, %rbx
 979 03ac 4883EC08 		subq	$8, %rsp
 980              		.cfi_def_cfa_offset 32
 981 03b0 488907   		movq	%rax, (%rdi)
 982              	.LEHB16:
 983 03b3 E8000000 		call	_ZN8UnitTest4TestD2Ev@PLT
 983      00
 984              	.LEHE16:
 985 03b8 4883C408 		addq	$8, %rsp
 986              		.cfi_remember_state
 987              		.cfi_def_cfa_offset 24
 988 03bc 4889DF   		movq	%rbx, %rdi
 989 03bf 5B       		popq	%rbx
 990              		.cfi_def_cfa_offset 16
 991 03c0 5D       		popq	%rbp
 992              		.cfi_def_cfa_offset 8
 993 03c1 E9000000 		jmp	_ZdlPv@PLT
 993      00
 994              	.L69:
 995              		.cfi_restore_state
 996 03c6 4889C5   		movq	%rax, %rbp
 997 03c9 4889DF   		movq	%rbx, %rdi
 998 03cc E8000000 		call	_ZdlPv@PLT
 998      00
 999 03d1 4889EF   		movq	%rbp, %rdi
 1000              	.LEHB17:
 1001 03d4 E8000000 		call	_Unwind_Resume@PLT
 1001      00
 1002              	.LEHE17:
 1003              		.cfi_endproc
 1004              	.LFE1392:
 1005              		.section	.gcc_except_table
 1006              	.LLSDA1392:
 1007 0060 FF       		.byte	0xff
 1008 0061 FF       		.byte	0xff
 1009 0062 01       		.byte	0x1
 1010 0063 08       		.uleb128 .LLSDACSE1392-.LLSDACSB1392
 1011              	.LLSDACSB1392:
 1012 0064 13       		.uleb128 .LEHB16-.LFB1392
 1013 0065 05       		.uleb128 .LEHE16-.LEHB16
 1014 0066 26       		.uleb128 .L69-.LFB1392
 1015 0067 00       		.uleb128 0
 1016 0068 34       		.uleb128 .LEHB17-.LFB1392
 1017 0069 05       		.uleb128 .LEHE17-.LEHB17
 1018 006a 00       		.uleb128 0
 1019 006b 00       		.uleb128 0
 1020              	.LLSDACSE1392:
 1021              		.text
 1023 03d9 90       		.align 2
 1024 03da 660F1F44 		.p2align 4,,15
 1024      0000
 1026              	_ZN12_GLOBAL__N_136TestCheckCloseFailureIncludesDetailsD0Ev:
 1027              	.LFB1396:
 1028              		.cfi_startproc
 1029              		.cfi_personality 0x9b,DW.ref.__gxx_personality_v0
 1030              		.cfi_lsda 0x1b,.LLSDA1396
 1031 03e0 55       		pushq	%rbp
 1032              		.cfi_def_cfa_offset 16
 1033              		.cfi_offset 6, -16
 1034 03e1 488D0500 		leaq	16+_ZTVN12_GLOBAL__N_136TestCheckCloseFailureIncludesDetailsE(%rip), %rax
 1034      000000
 1035 03e8 53       		pushq	%rbx
 1036              		.cfi_def_cfa_offset 24
 1037              		.cfi_offset 3, -24
 1038 03e9 4889FB   		movq	%rdi, %rbx
 1039 03ec 4883EC08 		subq	$8, %rsp
 1040              		.cfi_def_cfa_offset 32
 1041 03f0 488907   		movq	%rax, (%rdi)
 1042              	.LEHB18:
 1043 03f3 E8000000 		call	_ZN8UnitTest4TestD2Ev@PLT
 1043      00
 1044              	.LEHE18:
 1045 03f8 4883C408 		addq	$8, %rsp
 1046              		.cfi_remember_state
 1047              		.cfi_def_cfa_offset 24
 1048 03fc 4889DF   		movq	%rbx, %rdi
 1049 03ff 5B       		popq	%rbx
 1050              		.cfi_def_cfa_offset 16
 1051 0400 5D       		popq	%rbp
 1052              		.cfi_def_cfa_offset 8
 1053 0401 E9000000 		jmp	_ZdlPv@PLT
 1053      00
 1054              	.L73:
 1055              		.cfi_restore_state
 1056 0406 4889C5   		movq	%rax, %rbp
 1057 0409 4889DF   		movq	%rbx, %rdi
 1058 040c E8000000 		call	_ZdlPv@PLT
 1058      00
 1059 0411 4889EF   		movq	%rbp, %rdi
 1060              	.LEHB19:
 1061 0414 E8000000 		call	_Unwind_Resume@PLT
 1061      00
 1062              	.LEHE19:
 1063              		.cfi_endproc
 1064              	.LFE1396:
 1065              		.section	.gcc_except_table
 1066              	.LLSDA1396:
 1067 006c FF       		.byte	0xff
 1068 006d FF       		.byte	0xff
 1069 006e 01       		.byte	0x1
 1070 006f 08       		.uleb128 .LLSDACSE1396-.LLSDACSB1396
 1071              	.LLSDACSB1396:
 1072 0070 13       		.uleb128 .LEHB18-.LFB1396
 1073 0071 05       		.uleb128 .LEHE18-.LEHB18
 1074 0072 26       		.uleb128 .L73-.LFB1396
 1075 0073 00       		.uleb128 0
 1076 0074 34       		.uleb128 .LEHB19-.LFB1396
 1077 0075 05       		.uleb128 .LEHE19-.LEHB19
 1078 0076 00       		.uleb128 0
 1079 0077 00       		.uleb128 0
 1080              	.LLSDACSE1396:
 1081              		.text
 1083 0419 90       		.align 2
 1084 041a 660F1F44 		.p2align 4,,15
 1084      0000
 1086              	_ZN12_GLOBAL__N_138TestCheckCloseFailureIncludesToleranceD0Ev:
 1087              	.LFB1400:
 1088              		.cfi_startproc
 1089              		.cfi_personality 0x9b,DW.ref.__gxx_personality_v0
 1090              		.cfi_lsda 0x1b,.LLSDA1400
 1091 0420 55       		pushq	%rbp
 1092              		.cfi_def_cfa_offset 16
 1093              		.cfi_offset 6, -16
 1094 0421 488D0500 		leaq	16+_ZTVN12_GLOBAL__N_138TestCheckCloseFailureIncludesToleranceE(%rip), %rax
 1094      000000
 1095 0428 53       		pushq	%rbx
 1096              		.cfi_def_cfa_offset 24
 1097              		.cfi_offset 3, -24
 1098 0429 4889FB   		movq	%rdi, %rbx
 1099 042c 4883EC08 		subq	$8, %rsp
 1100              		.cfi_def_cfa_offset 32
 1101 0430 488907   		movq	%rax, (%rdi)
 1102              	.LEHB20:
 1103 0433 E8000000 		call	_ZN8UnitTest4TestD2Ev@PLT
 1103      00
 1104              	.LEHE20:
 1105 0438 4883C408 		addq	$8, %rsp
 1106              		.cfi_remember_state
 1107              		.cfi_def_cfa_offset 24
 1108 043c 4889DF   		movq	%rbx, %rdi
 1109 043f 5B       		popq	%rbx
 1110              		.cfi_def_cfa_offset 16
 1111 0440 5D       		popq	%rbp
 1112              		.cfi_def_cfa_offset 8
 1113 0441 E9000000 		jmp	_ZdlPv@PLT
 1113      00
 1114              	.L77:
 1115              		.cfi_restore_state
 1116 0446 4889C5   		movq	%rax, %rbp
 1117 0449 4889DF   		movq	%rbx, %rdi
 1118 044c E8000000 		call	_ZdlPv@PLT
 1118      00
 1119 0451 4889EF   		movq	%rbp, %rdi
 1120              	.LEHB21:
 1121 0454 E8000000 		call	_Unwind_Resume@PLT
 1121      00
 1122              	.LEHE21:
 1123              		.cfi_endproc
 1124              	.LFE1400:
 1125              		.section	.gcc_except_table
 1126              	.LLSDA1400:
 1127 0078 FF       		.byte	0xff
 1128 0079 FF       		.byte	0xff
 1129 007a 01       		.byte	0x1
 1130 007b 08       		.uleb128 .LLSDACSE1400-.LLSDACSB1400
 1131              	.LLSDACSB1400:
 1132 007c 13       		.uleb128 .LEHB20-.LFB1400
 1133 007d 05       		.uleb128 .LEHE20-.LEHB20
 1134 007e 26       		.uleb128 .L77-.LFB1400
 1135 007f 00       		.uleb128 0
 1136 0080 34       		.uleb128 .LEHB21-.LFB1400
 1137 0081 05       		.uleb128 .LEHE21-.LEHB21
 1138 0082 00       		.uleb128 0
 1139 0083 00       		.uleb128 0
 1140              	.LLSDACSE1400:
 1141              		.text
 1143 0459 90       		.align 2
 1144 045a 660F1F44 		.p2align 4,,15
 1144      0000
 1146              	_ZN12_GLOBAL__N_151TestCheckCloseFailureIncludesCheckExpectedAndActualD0Ev:
 1147              	.LFB1404:
 1148              		.cfi_startproc
 1149              		.cfi_personality 0x9b,DW.ref.__gxx_personality_v0
 1150              		.cfi_lsda 0x1b,.LLSDA1404
 1151 0460 55       		pushq	%rbp
 1152              		.cfi_def_cfa_offset 16
 1153              		.cfi_offset 6, -16
 1154 0461 488D0500 		leaq	16+_ZTVN12_GLOBAL__N_151TestCheckCloseFailureIncludesCheckExpectedAndActualE(%rip), %rax
 1154      000000
 1155 0468 53       		pushq	%rbx
 1156              		.cfi_def_cfa_offset 24
 1157              		.cfi_offset 3, -24
 1158 0469 4889FB   		movq	%rdi, %rbx
 1159 046c 4883EC08 		subq	$8, %rsp
 1160              		.cfi_def_cfa_offset 32
 1161 0470 488907   		movq	%rax, (%rdi)
 1162              	.LEHB22:
 1163 0473 E8000000 		call	_ZN8UnitTest4TestD2Ev@PLT
 1163      00
 1164              	.LEHE22:
 1165 0478 4883C408 		addq	$8, %rsp
 1166              		.cfi_remember_state
 1167              		.cfi_def_cfa_offset 24
 1168 047c 4889DF   		movq	%rbx, %rdi
 1169 047f 5B       		popq	%rbx
 1170              		.cfi_def_cfa_offset 16
 1171 0480 5D       		popq	%rbp
 1172              		.cfi_def_cfa_offset 8
 1173 0481 E9000000 		jmp	_ZdlPv@PLT
 1173      00
 1174              	.L81:
 1175              		.cfi_restore_state
 1176 0486 4889C5   		movq	%rax, %rbp
 1177 0489 4889DF   		movq	%rbx, %rdi
 1178 048c E8000000 		call	_ZdlPv@PLT
 1178      00
 1179 0491 4889EF   		movq	%rbp, %rdi
 1180              	.LEHB23:
 1181 0494 E8000000 		call	_Unwind_Resume@PLT
 1181      00
 1182              	.LEHE23:
 1183              		.cfi_endproc
 1184              	.LFE1404:
 1185              		.section	.gcc_except_table
 1186              	.LLSDA1404:
 1187 0084 FF       		.byte	0xff
 1188 0085 FF       		.byte	0xff
 1189 0086 01       		.byte	0x1
 1190 0087 08       		.uleb128 .LLSDACSE1404-.LLSDACSB1404
 1191              	.LLSDACSB1404:
 1192 0088 13       		.uleb128 .LEHB22-.LFB1404
 1193 0089 05       		.uleb128 .LEHE22-.LEHB22
 1194 008a 26       		.uleb128 .L81-.LFB1404
 1195 008b 00       		.uleb128 0
 1196 008c 34       		.uleb128 .LEHB23-.LFB1404
 1197 008d 05       		.uleb128 .LEHE23-.LEHB23
 1198 008e 00       		.uleb128 0
 1199 008f 00       		.uleb128 0
 1200              	.LLSDACSE1404:
 1201              		.text
 1203 0499 90       		.align 2
 1204 049a 660F1F44 		.p2align 4,,15
 1204      0000
 1206              	_ZN12_GLOBAL__N_139TestCheckCloseWithNaNAgainstItselfFailsD0Ev:
 1207              	.LFB1408:
 1208              		.cfi_startproc
 1209              		.cfi_personality 0x9b,DW.ref.__gxx_personality_v0
 1210              		.cfi_lsda 0x1b,.LLSDA1408
 1211 04a0 55       		pushq	%rbp
 1212              		.cfi_def_cfa_offset 16
 1213              		.cfi_offset 6, -16
 1214 04a1 488D0500 		leaq	16+_ZTVN12_GLOBAL__N_139TestCheckCloseWithNaNAgainstItselfFailsE(%rip), %rax
 1214      000000
 1215 04a8 53       		pushq	%rbx
 1216              		.cfi_def_cfa_offset 24
 1217              		.cfi_offset 3, -24
 1218 04a9 4889FB   		movq	%rdi, %rbx
 1219 04ac 4883EC08 		subq	$8, %rsp
 1220              		.cfi_def_cfa_offset 32
 1221 04b0 488907   		movq	%rax, (%rdi)
 1222              	.LEHB24:
 1223 04b3 E8000000 		call	_ZN8UnitTest4TestD2Ev@PLT
 1223      00
 1224              	.LEHE24:
 1225 04b8 4883C408 		addq	$8, %rsp
 1226              		.cfi_remember_state
 1227              		.cfi_def_cfa_offset 24
 1228 04bc 4889DF   		movq	%rbx, %rdi
 1229 04bf 5B       		popq	%rbx
 1230              		.cfi_def_cfa_offset 16
 1231 04c0 5D       		popq	%rbp
 1232              		.cfi_def_cfa_offset 8
 1233 04c1 E9000000 		jmp	_ZdlPv@PLT
 1233      00
 1234              	.L85:
 1235              		.cfi_restore_state
 1236 04c6 4889C5   		movq	%rax, %rbp
 1237 04c9 4889DF   		movq	%rbx, %rdi
 1238 04cc E8000000 		call	_ZdlPv@PLT
 1238      00
 1239 04d1 4889EF   		movq	%rbp, %rdi
 1240              	.LEHB25:
 1241 04d4 E8000000 		call	_Unwind_Resume@PLT
 1241      00
 1242              	.LEHE25:
 1243              		.cfi_endproc
 1244              	.LFE1408:
 1245              		.section	.gcc_except_table
 1246              	.LLSDA1408:
 1247 0090 FF       		.byte	0xff
 1248 0091 FF       		.byte	0xff
 1249 0092 01       		.byte	0x1
 1250 0093 08       		.uleb128 .LLSDACSE1408-.LLSDACSB1408
 1251              	.LLSDACSB1408:
 1252 0094 13       		.uleb128 .LEHB24-.LFB1408
 1253 0095 05       		.uleb128 .LEHE24-.LEHB24
 1254 0096 26       		.uleb128 .L85-.LFB1408
 1255 0097 00       		.uleb128 0
 1256 0098 34       		.uleb128 .LEHB25-.LFB1408
 1257 0099 05       		.uleb128 .LEHE25-.LEHB25
 1258 009a 00       		.uleb128 0
 1259 009b 00       		.uleb128 0
 1260              	.LLSDACSE1408:
 1261              		.text
 1263 04d9 90       		.align 2
 1264 04da 660F1F44 		.p2align 4,,15
 1264      0000
 1266              	_ZN12_GLOBAL__N_126TestCheckCloseWithNaNFailsD0Ev:
 1267              	.LFB1412:
 1268              		.cfi_startproc
 1269              		.cfi_personality 0x9b,DW.ref.__gxx_personality_v0
 1270              		.cfi_lsda 0x1b,.LLSDA1412
 1271 04e0 55       		pushq	%rbp
 1272              		.cfi_def_cfa_offset 16
 1273              		.cfi_offset 6, -16
 1274 04e1 488D0500 		leaq	16+_ZTVN12_GLOBAL__N_126TestCheckCloseWithNaNFailsE(%rip), %rax
 1274      000000
 1275 04e8 53       		pushq	%rbx
 1276              		.cfi_def_cfa_offset 24
 1277              		.cfi_offset 3, -24
 1278 04e9 4889FB   		movq	%rdi, %rbx
 1279 04ec 4883EC08 		subq	$8, %rsp
 1280              		.cfi_def_cfa_offset 32
 1281 04f0 488907   		movq	%rax, (%rdi)
 1282              	.LEHB26:
 1283 04f3 E8000000 		call	_ZN8UnitTest4TestD2Ev@PLT
 1283      00
 1284              	.LEHE26:
 1285 04f8 4883C408 		addq	$8, %rsp
 1286              		.cfi_remember_state
 1287              		.cfi_def_cfa_offset 24
 1288 04fc 4889DF   		movq	%rbx, %rdi
 1289 04ff 5B       		popq	%rbx
 1290              		.cfi_def_cfa_offset 16
 1291 0500 5D       		popq	%rbp
 1292              		.cfi_def_cfa_offset 8
 1293 0501 E9000000 		jmp	_ZdlPv@PLT
 1293      00
 1294              	.L89:
 1295              		.cfi_restore_state
 1296 0506 4889C5   		movq	%rax, %rbp
 1297 0509 4889DF   		movq	%rbx, %rdi
 1298 050c E8000000 		call	_ZdlPv@PLT
 1298      00
 1299 0511 4889EF   		movq	%rbp, %rdi
 1300              	.LEHB27:
 1301 0514 E8000000 		call	_Unwind_Resume@PLT
 1301      00
 1302              	.LEHE27:
 1303              		.cfi_endproc
 1304              	.LFE1412:
 1305              		.section	.gcc_except_table
 1306              	.LLSDA1412:
 1307 009c FF       		.byte	0xff
 1308 009d FF       		.byte	0xff
 1309 009e 01       		.byte	0x1
 1310 009f 08       		.uleb128 .LLSDACSE1412-.LLSDACSB1412
 1311              	.LLSDACSB1412:
 1312 00a0 13       		.uleb128 .LEHB26-.LFB1412
 1313 00a1 05       		.uleb128 .LEHE26-.LEHB26
 1314 00a2 26       		.uleb128 .L89-.LFB1412
 1315 00a3 00       		.uleb128 0
 1316 00a4 34       		.uleb128 .LEHB27-.LFB1412
 1317 00a5 05       		.uleb128 .LEHE27-.LEHB27
 1318 00a6 00       		.uleb128 0
 1319 00a7 00       		.uleb128 0
 1320              	.LLSDACSE1412:
 1321              		.text
 1323 0519 90       		.align 2
 1324 051a 660F1F44 		.p2align 4,,15
 1324      0000
 1326              	_ZN12_GLOBAL__N_147TestCheckCloseWithZeroEpsilonWorksForSameNumberD0Ev:
 1327              	.LFB1416:
 1328              		.cfi_startproc
 1329              		.cfi_personality 0x9b,DW.ref.__gxx_personality_v0
 1330              		.cfi_lsda 0x1b,.LLSDA1416
 1331 0520 55       		pushq	%rbp
 1332              		.cfi_def_cfa_offset 16
 1333              		.cfi_offset 6, -16
 1334 0521 488D0500 		leaq	16+_ZTVN12_GLOBAL__N_147TestCheckCloseWithZeroEpsilonWorksForSameNumberE(%rip), %rax
 1334      000000
 1335 0528 53       		pushq	%rbx
 1336              		.cfi_def_cfa_offset 24
 1337              		.cfi_offset 3, -24
 1338 0529 4889FB   		movq	%rdi, %rbx
 1339 052c 4883EC08 		subq	$8, %rsp
 1340              		.cfi_def_cfa_offset 32
 1341 0530 488907   		movq	%rax, (%rdi)
 1342              	.LEHB28:
 1343 0533 E8000000 		call	_ZN8UnitTest4TestD2Ev@PLT
 1343      00
 1344              	.LEHE28:
 1345 0538 4883C408 		addq	$8, %rsp
 1346              		.cfi_remember_state
 1347              		.cfi_def_cfa_offset 24
 1348 053c 4889DF   		movq	%rbx, %rdi
 1349 053f 5B       		popq	%rbx
 1350              		.cfi_def_cfa_offset 16
 1351 0540 5D       		popq	%rbp
 1352              		.cfi_def_cfa_offset 8
 1353 0541 E9000000 		jmp	_ZdlPv@PLT
 1353      00
 1354              	.L93:
 1355              		.cfi_restore_state
 1356 0546 4889C5   		movq	%rax, %rbp
 1357 0549 4889DF   		movq	%rbx, %rdi
 1358 054c E8000000 		call	_ZdlPv@PLT
 1358      00
 1359 0551 4889EF   		movq	%rbp, %rdi
 1360              	.LEHB29:
 1361 0554 E8000000 		call	_Unwind_Resume@PLT
 1361      00
 1362              	.LEHE29:
 1363              		.cfi_endproc
 1364              	.LFE1416:
 1365              		.section	.gcc_except_table
 1366              	.LLSDA1416:
 1367 00a8 FF       		.byte	0xff
 1368 00a9 FF       		.byte	0xff
 1369 00aa 01       		.byte	0x1
 1370 00ab 08       		.uleb128 .LLSDACSE1416-.LLSDACSB1416
 1371              	.LLSDACSB1416:
 1372 00ac 13       		.uleb128 .LEHB28-.LFB1416
 1373 00ad 05       		.uleb128 .LEHE28-.LEHB28
 1374 00ae 26       		.uleb128 .L93-.LFB1416
 1375 00af 00       		.uleb128 0
 1376 00b0 34       		.uleb128 .LEHB29-.LFB1416
 1377 00b1 05       		.uleb128 .LEHE29-.LEHB29
 1378 00b2 00       		.uleb128 0
 1379 00b3 00       		.uleb128 0
 1380              	.LLSDACSE1416:
 1381              		.text
 1383 0559 90       		.align 2
 1384 055a 660F1F44 		.p2align 4,,15
 1384      0000
 1386              	_ZN12_GLOBAL__N_119TestCheckCloseFalseD0Ev:
 1387              	.LFB1420:
 1388              		.cfi_startproc
 1389              		.cfi_personality 0x9b,DW.ref.__gxx_personality_v0
 1390              		.cfi_lsda 0x1b,.LLSDA1420
 1391 0560 55       		pushq	%rbp
 1392              		.cfi_def_cfa_offset 16
 1393              		.cfi_offset 6, -16
 1394 0561 488D0500 		leaq	16+_ZTVN12_GLOBAL__N_119TestCheckCloseFalseE(%rip), %rax
 1394      000000
 1395 0568 53       		pushq	%rbx
 1396              		.cfi_def_cfa_offset 24
 1397              		.cfi_offset 3, -24
 1398 0569 4889FB   		movq	%rdi, %rbx
 1399 056c 4883EC08 		subq	$8, %rsp
 1400              		.cfi_def_cfa_offset 32
 1401 0570 488907   		movq	%rax, (%rdi)
 1402              	.LEHB30:
 1403 0573 E8000000 		call	_ZN8UnitTest4TestD2Ev@PLT
 1403      00
 1404              	.LEHE30:
 1405 0578 4883C408 		addq	$8, %rsp
 1406              		.cfi_remember_state
 1407              		.cfi_def_cfa_offset 24
 1408 057c 4889DF   		movq	%rbx, %rdi
 1409 057f 5B       		popq	%rbx
 1410              		.cfi_def_cfa_offset 16
 1411 0580 5D       		popq	%rbp
 1412              		.cfi_def_cfa_offset 8
 1413 0581 E9000000 		jmp	_ZdlPv@PLT
 1413      00
 1414              	.L97:
 1415              		.cfi_restore_state
 1416 0586 4889C5   		movq	%rax, %rbp
 1417 0589 4889DF   		movq	%rbx, %rdi
 1418 058c E8000000 		call	_ZdlPv@PLT
 1418      00
 1419 0591 4889EF   		movq	%rbp, %rdi
 1420              	.LEHB31:
 1421 0594 E8000000 		call	_Unwind_Resume@PLT
 1421      00
 1422              	.LEHE31:
 1423              		.cfi_endproc
 1424              	.LFE1420:
 1425              		.section	.gcc_except_table
 1426              	.LLSDA1420:
 1427 00b4 FF       		.byte	0xff
 1428 00b5 FF       		.byte	0xff
 1429 00b6 01       		.byte	0x1
 1430 00b7 08       		.uleb128 .LLSDACSE1420-.LLSDACSB1420
 1431              	.LLSDACSB1420:
 1432 00b8 13       		.uleb128 .LEHB30-.LFB1420
 1433 00b9 05       		.uleb128 .LEHE30-.LEHB30
 1434 00ba 26       		.uleb128 .L97-.LFB1420
 1435 00bb 00       		.uleb128 0
 1436 00bc 34       		.uleb128 .LEHB31-.LFB1420
 1437 00bd 05       		.uleb128 .LEHE31-.LEHB31
 1438 00be 00       		.uleb128 0
 1439 00bf 00       		.uleb128 0
 1440              	.LLSDACSE1420:
 1441              		.text
 1443 0599 90       		.align 2
 1444 059a 660F1F44 		.p2align 4,,15
 1444      0000
 1446              	_ZN12_GLOBAL__N_118TestCheckCloseTrueD0Ev:
 1447              	.LFB1424:
 1448              		.cfi_startproc
 1449              		.cfi_personality 0x9b,DW.ref.__gxx_personality_v0
 1450              		.cfi_lsda 0x1b,.LLSDA1424
 1451 05a0 55       		pushq	%rbp
 1452              		.cfi_def_cfa_offset 16
 1453              		.cfi_offset 6, -16
 1454 05a1 488D0500 		leaq	16+_ZTVN12_GLOBAL__N_118TestCheckCloseTrueE(%rip), %rax
 1454      000000
 1455 05a8 53       		pushq	%rbx
 1456              		.cfi_def_cfa_offset 24
 1457              		.cfi_offset 3, -24
 1458 05a9 4889FB   		movq	%rdi, %rbx
 1459 05ac 4883EC08 		subq	$8, %rsp
 1460              		.cfi_def_cfa_offset 32
 1461 05b0 488907   		movq	%rax, (%rdi)
 1462              	.LEHB32:
 1463 05b3 E8000000 		call	_ZN8UnitTest4TestD2Ev@PLT
 1463      00
 1464              	.LEHE32:
 1465 05b8 4883C408 		addq	$8, %rsp
 1466              		.cfi_remember_state
 1467              		.cfi_def_cfa_offset 24
 1468 05bc 4889DF   		movq	%rbx, %rdi
 1469 05bf 5B       		popq	%rbx
 1470              		.cfi_def_cfa_offset 16
 1471 05c0 5D       		popq	%rbp
 1472              		.cfi_def_cfa_offset 8
 1473 05c1 E9000000 		jmp	_ZdlPv@PLT
 1473      00
 1474              	.L101:
 1475              		.cfi_restore_state
 1476 05c6 4889C5   		movq	%rax, %rbp
 1477 05c9 4889DF   		movq	%rbx, %rdi
 1478 05cc E8000000 		call	_ZdlPv@PLT
 1478      00
 1479 05d1 4889EF   		movq	%rbp, %rdi
 1480              	.LEHB33:
 1481 05d4 E8000000 		call	_Unwind_Resume@PLT
 1481      00
 1482              	.LEHE33:
 1483              		.cfi_endproc
 1484              	.LFE1424:
 1485              		.section	.gcc_except_table
 1486              	.LLSDA1424:
 1487 00c0 FF       		.byte	0xff
 1488 00c1 FF       		.byte	0xff
 1489 00c2 01       		.byte	0x1
 1490 00c3 08       		.uleb128 .LLSDACSE1424-.LLSDACSB1424
 1491              	.LLSDACSB1424:
 1492 00c4 13       		.uleb128 .LEHB32-.LFB1424
 1493 00c5 05       		.uleb128 .LEHE32-.LEHB32
 1494 00c6 26       		.uleb128 .L101-.LFB1424
 1495 00c7 00       		.uleb128 0
 1496 00c8 34       		.uleb128 .LEHB33-.LFB1424
 1497 00c9 05       		.uleb128 .LEHE33-.LEHB33
 1498 00ca 00       		.uleb128 0
 1499 00cb 00       		.uleb128 0
 1500              	.LLSDACSE1424:
 1501              		.text
 1503 05d9 90       		.align 2
 1504 05da 660F1F44 		.p2align 4,,15
 1504      0000
 1506              	_ZN12_GLOBAL__N_136TestCheckEqualFailureIncludesDetailsD0Ev:
 1507              	.LFB1428:
 1508              		.cfi_startproc
 1509              		.cfi_personality 0x9b,DW.ref.__gxx_personality_v0
 1510              		.cfi_lsda 0x1b,.LLSDA1428
 1511 05e0 55       		pushq	%rbp
 1512              		.cfi_def_cfa_offset 16
 1513              		.cfi_offset 6, -16
 1514 05e1 488D0500 		leaq	16+_ZTVN12_GLOBAL__N_136TestCheckEqualFailureIncludesDetailsE(%rip), %rax
 1514      000000
 1515 05e8 53       		pushq	%rbx
 1516              		.cfi_def_cfa_offset 24
 1517              		.cfi_offset 3, -24
 1518 05e9 4889FB   		movq	%rdi, %rbx
 1519 05ec 4883EC08 		subq	$8, %rsp
 1520              		.cfi_def_cfa_offset 32
 1521 05f0 488907   		movq	%rax, (%rdi)
 1522              	.LEHB34:
 1523 05f3 E8000000 		call	_ZN8UnitTest4TestD2Ev@PLT
 1523      00
 1524              	.LEHE34:
 1525 05f8 4883C408 		addq	$8, %rsp
 1526              		.cfi_remember_state
 1527              		.cfi_def_cfa_offset 24
 1528 05fc 4889DF   		movq	%rbx, %rdi
 1529 05ff 5B       		popq	%rbx
 1530              		.cfi_def_cfa_offset 16
 1531 0600 5D       		popq	%rbp
 1532              		.cfi_def_cfa_offset 8
 1533 0601 E9000000 		jmp	_ZdlPv@PLT
 1533      00
 1534              	.L105:
 1535              		.cfi_restore_state
 1536 0606 4889C5   		movq	%rax, %rbp
 1537 0609 4889DF   		movq	%rbx, %rdi
 1538 060c E8000000 		call	_ZdlPv@PLT
 1538      00
 1539 0611 4889EF   		movq	%rbp, %rdi
 1540              	.LEHB35:
 1541 0614 E8000000 		call	_Unwind_Resume@PLT
 1541      00
 1542              	.LEHE35:
 1543              		.cfi_endproc
 1544              	.LFE1428:
 1545              		.section	.gcc_except_table
 1546              	.LLSDA1428:
 1547 00cc FF       		.byte	0xff
 1548 00cd FF       		.byte	0xff
 1549 00ce 01       		.byte	0x1
 1550 00cf 08       		.uleb128 .LLSDACSE1428-.LLSDACSB1428
 1551              	.LLSDACSB1428:
 1552 00d0 13       		.uleb128 .LEHB34-.LFB1428
 1553 00d1 05       		.uleb128 .LEHE34-.LEHB34
 1554 00d2 26       		.uleb128 .L105-.LFB1428
 1555 00d3 00       		.uleb128 0
 1556 00d4 34       		.uleb128 .LEHB35-.LFB1428
 1557 00d5 05       		.uleb128 .LEHE35-.LEHB35
 1558 00d6 00       		.uleb128 0
 1559 00d7 00       		.uleb128 0
 1560              	.LLSDACSE1428:
 1561              		.text
 1563 0619 90       		.align 2
 1564 061a 660F1F44 		.p2align 4,,15
 1564      0000
 1566              	_ZN12_GLOBAL__N_151TestCheckEqualFailureIncludesCheckExpectedAndActualD0Ev:
 1567              	.LFB1432:
 1568              		.cfi_startproc
 1569              		.cfi_personality 0x9b,DW.ref.__gxx_personality_v0
 1570              		.cfi_lsda 0x1b,.LLSDA1432
 1571 0620 55       		pushq	%rbp
 1572              		.cfi_def_cfa_offset 16
 1573              		.cfi_offset 6, -16
 1574 0621 488D0500 		leaq	16+_ZTVN12_GLOBAL__N_151TestCheckEqualFailureIncludesCheckExpectedAndActualE(%rip), %rax
 1574      000000
 1575 0628 53       		pushq	%rbx
 1576              		.cfi_def_cfa_offset 24
 1577              		.cfi_offset 3, -24
 1578 0629 4889FB   		movq	%rdi, %rbx
 1579 062c 4883EC08 		subq	$8, %rsp
 1580              		.cfi_def_cfa_offset 32
 1581 0630 488907   		movq	%rax, (%rdi)
 1582              	.LEHB36:
 1583 0633 E8000000 		call	_ZN8UnitTest4TestD2Ev@PLT
 1583      00
 1584              	.LEHE36:
 1585 0638 4883C408 		addq	$8, %rsp
 1586              		.cfi_remember_state
 1587              		.cfi_def_cfa_offset 24
 1588 063c 4889DF   		movq	%rbx, %rdi
 1589 063f 5B       		popq	%rbx
 1590              		.cfi_def_cfa_offset 16
 1591 0640 5D       		popq	%rbp
 1592              		.cfi_def_cfa_offset 8
 1593 0641 E9000000 		jmp	_ZdlPv@PLT
 1593      00
 1594              	.L109:
 1595              		.cfi_restore_state
 1596 0646 4889C5   		movq	%rax, %rbp
 1597 0649 4889DF   		movq	%rbx, %rdi
 1598 064c E8000000 		call	_ZdlPv@PLT
 1598      00
 1599 0651 4889EF   		movq	%rbp, %rdi
 1600              	.LEHB37:
 1601 0654 E8000000 		call	_Unwind_Resume@PLT
 1601      00
 1602              	.LEHE37:
 1603              		.cfi_endproc
 1604              	.LFE1432:
 1605              		.section	.gcc_except_table
 1606              	.LLSDA1432:
 1607 00d8 FF       		.byte	0xff
 1608 00d9 FF       		.byte	0xff
 1609 00da 01       		.byte	0x1
 1610 00db 08       		.uleb128 .LLSDACSE1432-.LLSDACSB1432
 1611              	.LLSDACSB1432:
 1612 00dc 13       		.uleb128 .LEHB36-.LFB1432
 1613 00dd 05       		.uleb128 .LEHE36-.LEHB36
 1614 00de 26       		.uleb128 .L109-.LFB1432
 1615 00df 00       		.uleb128 0
 1616 00e0 34       		.uleb128 .LEHB37-.LFB1432
 1617 00e1 05       		.uleb128 .LEHE37-.LEHB37
 1618 00e2 00       		.uleb128 0
 1619 00e3 00       		.uleb128 0
 1620              	.LLSDACSE1432:
 1621              		.text
 1623 0659 90       		.align 2
 1624 065a 660F1F44 		.p2align 4,,15
 1624      0000
 1626              	_ZN12_GLOBAL__N_153TestCheckEqualsWithStringsWorksOnContentsWithALiteralD0Ev:
 1627              	.LFB1436:
 1628              		.cfi_startproc
 1629              		.cfi_personality 0x9b,DW.ref.__gxx_personality_v0
 1630              		.cfi_lsda 0x1b,.LLSDA1436
 1631 0660 55       		pushq	%rbp
 1632              		.cfi_def_cfa_offset 16
 1633              		.cfi_offset 6, -16
 1634 0661 488D0500 		leaq	16+_ZTVN12_GLOBAL__N_153TestCheckEqualsWithStringsWorksOnContentsWithALiteralE(%rip), %rax
 1634      000000
 1635 0668 53       		pushq	%rbx
 1636              		.cfi_def_cfa_offset 24
 1637              		.cfi_offset 3, -24
 1638 0669 4889FB   		movq	%rdi, %rbx
 1639 066c 4883EC08 		subq	$8, %rsp
 1640              		.cfi_def_cfa_offset 32
 1641 0670 488907   		movq	%rax, (%rdi)
 1642              	.LEHB38:
 1643 0673 E8000000 		call	_ZN8UnitTest4TestD2Ev@PLT
 1643      00
 1644              	.LEHE38:
 1645 0678 4883C408 		addq	$8, %rsp
 1646              		.cfi_remember_state
 1647              		.cfi_def_cfa_offset 24
 1648 067c 4889DF   		movq	%rbx, %rdi
 1649 067f 5B       		popq	%rbx
 1650              		.cfi_def_cfa_offset 16
 1651 0680 5D       		popq	%rbp
 1652              		.cfi_def_cfa_offset 8
 1653 0681 E9000000 		jmp	_ZdlPv@PLT
 1653      00
 1654              	.L113:
 1655              		.cfi_restore_state
 1656 0686 4889C5   		movq	%rax, %rbp
 1657 0689 4889DF   		movq	%rbx, %rdi
 1658 068c E8000000 		call	_ZdlPv@PLT
 1658      00
 1659 0691 4889EF   		movq	%rbp, %rdi
 1660              	.LEHB39:
 1661 0694 E8000000 		call	_Unwind_Resume@PLT
 1661      00
 1662              	.LEHE39:
 1663              		.cfi_endproc
 1664              	.LFE1436:
 1665              		.section	.gcc_except_table
 1666              	.LLSDA1436:
 1667 00e4 FF       		.byte	0xff
 1668 00e5 FF       		.byte	0xff
 1669 00e6 01       		.byte	0x1
 1670 00e7 08       		.uleb128 .LLSDACSE1436-.LLSDACSB1436
 1671              	.LLSDACSB1436:
 1672 00e8 13       		.uleb128 .LEHB38-.LFB1436
 1673 00e9 05       		.uleb128 .LEHE38-.LEHB38
 1674 00ea 26       		.uleb128 .L113-.LFB1436
 1675 00eb 00       		.uleb128 0
 1676 00ec 34       		.uleb128 .LEHB39-.LFB1436
 1677 00ed 05       		.uleb128 .LEHE39-.LEHB39
 1678 00ee 00       		.uleb128 0
 1679 00ef 00       		.uleb128 0
 1680              	.LLSDACSE1436:
 1681              		.text
 1683 0699 90       		.align 2
 1684 069a 660F1F44 		.p2align 4,,15
 1684      0000
 1686              	_ZN12_GLOBAL__N_154TestCheckEqualsWithStringsWorksOnContentsConstNonConstD0Ev:
 1687              	.LFB1440:
 1688              		.cfi_startproc
 1689              		.cfi_personality 0x9b,DW.ref.__gxx_personality_v0
 1690              		.cfi_lsda 0x1b,.LLSDA1440
 1691 06a0 55       		pushq	%rbp
 1692              		.cfi_def_cfa_offset 16
 1693              		.cfi_offset 6, -16
 1694 06a1 488D0500 		leaq	16+_ZTVN12_GLOBAL__N_154TestCheckEqualsWithStringsWorksOnContentsConstNonConstE(%rip), %rax
 1694      000000
 1695 06a8 53       		pushq	%rbx
 1696              		.cfi_def_cfa_offset 24
 1697              		.cfi_offset 3, -24
 1698 06a9 4889FB   		movq	%rdi, %rbx
 1699 06ac 4883EC08 		subq	$8, %rsp
 1700              		.cfi_def_cfa_offset 32
 1701 06b0 488907   		movq	%rax, (%rdi)
 1702              	.LEHB40:
 1703 06b3 E8000000 		call	_ZN8UnitTest4TestD2Ev@PLT
 1703      00
 1704              	.LEHE40:
 1705 06b8 4883C408 		addq	$8, %rsp
 1706              		.cfi_remember_state
 1707              		.cfi_def_cfa_offset 24
 1708 06bc 4889DF   		movq	%rbx, %rdi
 1709 06bf 5B       		popq	%rbx
 1710              		.cfi_def_cfa_offset 16
 1711 06c0 5D       		popq	%rbp
 1712              		.cfi_def_cfa_offset 8
 1713 06c1 E9000000 		jmp	_ZdlPv@PLT
 1713      00
 1714              	.L117:
 1715              		.cfi_restore_state
 1716 06c6 4889C5   		movq	%rax, %rbp
 1717 06c9 4889DF   		movq	%rbx, %rdi
 1718 06cc E8000000 		call	_ZdlPv@PLT
 1718      00
 1719 06d1 4889EF   		movq	%rbp, %rdi
 1720              	.LEHB41:
 1721 06d4 E8000000 		call	_Unwind_Resume@PLT
 1721      00
 1722              	.LEHE41:
 1723              		.cfi_endproc
 1724              	.LFE1440:
 1725              		.section	.gcc_except_table
 1726              	.LLSDA1440:
 1727 00f0 FF       		.byte	0xff
 1728 00f1 FF       		.byte	0xff
 1729 00f2 01       		.byte	0x1
 1730 00f3 08       		.uleb128 .LLSDACSE1440-.LLSDACSB1440
 1731              	.LLSDACSB1440:
 1732 00f4 13       		.uleb128 .LEHB40-.LFB1440
 1733 00f5 05       		.uleb128 .LEHE40-.LEHB40
 1734 00f6 26       		.uleb128 .L117-.LFB1440
 1735 00f7 00       		.uleb128 0
 1736 00f8 34       		.uleb128 .LEHB41-.LFB1440
 1737 00f9 05       		.uleb128 .LEHE41-.LEHB41
 1738 00fa 00       		.uleb128 0
 1739 00fb 00       		.uleb128 0
 1740              	.LLSDACSE1440:
 1741              		.text
 1743 06d9 90       		.align 2
 1744 06da 660F1F44 		.p2align 4,,15
 1744      0000
 1746              	_ZN12_GLOBAL__N_154TestCheckEqualsWithStringsWorksOnContentsNonConstConstD0Ev:
 1747              	.LFB1444:
 1748              		.cfi_startproc
 1749              		.cfi_personality 0x9b,DW.ref.__gxx_personality_v0
 1750              		.cfi_lsda 0x1b,.LLSDA1444
 1751 06e0 55       		pushq	%rbp
 1752              		.cfi_def_cfa_offset 16
 1753              		.cfi_offset 6, -16
 1754 06e1 488D0500 		leaq	16+_ZTVN12_GLOBAL__N_154TestCheckEqualsWithStringsWorksOnContentsNonConstConstE(%rip), %rax
 1754      000000
 1755 06e8 53       		pushq	%rbx
 1756              		.cfi_def_cfa_offset 24
 1757              		.cfi_offset 3, -24
 1758 06e9 4889FB   		movq	%rdi, %rbx
 1759 06ec 4883EC08 		subq	$8, %rsp
 1760              		.cfi_def_cfa_offset 32
 1761 06f0 488907   		movq	%rax, (%rdi)
 1762              	.LEHB42:
 1763 06f3 E8000000 		call	_ZN8UnitTest4TestD2Ev@PLT
 1763      00
 1764              	.LEHE42:
 1765 06f8 4883C408 		addq	$8, %rsp
 1766              		.cfi_remember_state
 1767              		.cfi_def_cfa_offset 24
 1768 06fc 4889DF   		movq	%rbx, %rdi
 1769 06ff 5B       		popq	%rbx
 1770              		.cfi_def_cfa_offset 16
 1771 0700 5D       		popq	%rbp
 1772              		.cfi_def_cfa_offset 8
 1773 0701 E9000000 		jmp	_ZdlPv@PLT
 1773      00
 1774              	.L121:
 1775              		.cfi_restore_state
 1776 0706 4889C5   		movq	%rax, %rbp
 1777 0709 4889DF   		movq	%rbx, %rdi
 1778 070c E8000000 		call	_ZdlPv@PLT
 1778      00
 1779 0711 4889EF   		movq	%rbp, %rdi
 1780              	.LEHB43:
 1781 0714 E8000000 		call	_Unwind_Resume@PLT
 1781      00
 1782              	.LEHE43:
 1783              		.cfi_endproc
 1784              	.LFE1444:
 1785              		.section	.gcc_except_table
 1786              	.LLSDA1444:
 1787 00fc FF       		.byte	0xff
 1788 00fd FF       		.byte	0xff
 1789 00fe 01       		.byte	0x1
 1790 00ff 08       		.uleb128 .LLSDACSE1444-.LLSDACSB1444
 1791              	.LLSDACSB1444:
 1792 0100 13       		.uleb128 .LEHB42-.LFB1444
 1793 0101 05       		.uleb128 .LEHE42-.LEHB42
 1794 0102 26       		.uleb128 .L121-.LFB1444
 1795 0103 00       		.uleb128 0
 1796 0104 34       		.uleb128 .LEHB43-.LFB1444
 1797 0105 05       		.uleb128 .LEHE43-.LEHB43
 1798 0106 00       		.uleb128 0
 1799 0107 00       		.uleb128 0
 1800              	.LLSDACSE1444:
 1801              		.text
 1803 0719 90       		.align 2
 1804 071a 660F1F44 		.p2align 4,,15
 1804      0000
 1806              	_ZN12_GLOBAL__N_151TestCheckEqualsWithStringsWorksOnContentsConstConstD0Ev:
 1807              	.LFB1448:
 1808              		.cfi_startproc
 1809              		.cfi_personality 0x9b,DW.ref.__gxx_personality_v0
 1810              		.cfi_lsda 0x1b,.LLSDA1448
 1811 0720 55       		pushq	%rbp
 1812              		.cfi_def_cfa_offset 16
 1813              		.cfi_offset 6, -16
 1814 0721 488D0500 		leaq	16+_ZTVN12_GLOBAL__N_151TestCheckEqualsWithStringsWorksOnContentsConstConstE(%rip), %rax
 1814      000000
 1815 0728 53       		pushq	%rbx
 1816              		.cfi_def_cfa_offset 24
 1817              		.cfi_offset 3, -24
 1818 0729 4889FB   		movq	%rdi, %rbx
 1819 072c 4883EC08 		subq	$8, %rsp
 1820              		.cfi_def_cfa_offset 32
 1821 0730 488907   		movq	%rax, (%rdi)
 1822              	.LEHB44:
 1823 0733 E8000000 		call	_ZN8UnitTest4TestD2Ev@PLT
 1823      00
 1824              	.LEHE44:
 1825 0738 4883C408 		addq	$8, %rsp
 1826              		.cfi_remember_state
 1827              		.cfi_def_cfa_offset 24
 1828 073c 4889DF   		movq	%rbx, %rdi
 1829 073f 5B       		popq	%rbx
 1830              		.cfi_def_cfa_offset 16
 1831 0740 5D       		popq	%rbp
 1832              		.cfi_def_cfa_offset 8
 1833 0741 E9000000 		jmp	_ZdlPv@PLT
 1833      00
 1834              	.L125:
 1835              		.cfi_restore_state
 1836 0746 4889C5   		movq	%rax, %rbp
 1837 0749 4889DF   		movq	%rbx, %rdi
 1838 074c E8000000 		call	_ZdlPv@PLT
 1838      00
 1839 0751 4889EF   		movq	%rbp, %rdi
 1840              	.LEHB45:
 1841 0754 E8000000 		call	_Unwind_Resume@PLT
 1841      00
 1842              	.LEHE45:
 1843              		.cfi_endproc
 1844              	.LFE1448:
 1845              		.section	.gcc_except_table
 1846              	.LLSDA1448:
 1847 0108 FF       		.byte	0xff
 1848 0109 FF       		.byte	0xff
 1849 010a 01       		.byte	0x1
 1850 010b 08       		.uleb128 .LLSDACSE1448-.LLSDACSB1448
 1851              	.LLSDACSB1448:
 1852 010c 13       		.uleb128 .LEHB44-.LFB1448
 1853 010d 05       		.uleb128 .LEHE44-.LEHB44
 1854 010e 26       		.uleb128 .L125-.LFB1448
 1855 010f 00       		.uleb128 0
 1856 0110 34       		.uleb128 .LEHB45-.LFB1448
 1857 0111 05       		.uleb128 .LEHE45-.LEHB45
 1858 0112 00       		.uleb128 0
 1859 0113 00       		.uleb128 0
 1860              	.LLSDACSE1448:
 1861              		.text
 1863 0759 90       		.align 2
 1864 075a 660F1F44 		.p2align 4,,15
 1864      0000
 1866              	_ZN12_GLOBAL__N_157TestCheckEqualsWithStringsWorksOnContentsNonConstNonConstD0Ev:
 1867              	.LFB1452:
 1868              		.cfi_startproc
 1869              		.cfi_personality 0x9b,DW.ref.__gxx_personality_v0
 1870              		.cfi_lsda 0x1b,.LLSDA1452
 1871 0760 55       		pushq	%rbp
 1872              		.cfi_def_cfa_offset 16
 1873              		.cfi_offset 6, -16
 1874 0761 488D0500 		leaq	16+_ZTVN12_GLOBAL__N_157TestCheckEqualsWithStringsWorksOnContentsNonConstNonConstE(%rip), %ra
 1874      000000
 1875 0768 53       		pushq	%rbx
 1876              		.cfi_def_cfa_offset 24
 1877              		.cfi_offset 3, -24
 1878 0769 4889FB   		movq	%rdi, %rbx
 1879 076c 4883EC08 		subq	$8, %rsp
 1880              		.cfi_def_cfa_offset 32
 1881 0770 488907   		movq	%rax, (%rdi)
 1882              	.LEHB46:
 1883 0773 E8000000 		call	_ZN8UnitTest4TestD2Ev@PLT
 1883      00
 1884              	.LEHE46:
 1885 0778 4883C408 		addq	$8, %rsp
 1886              		.cfi_remember_state
 1887              		.cfi_def_cfa_offset 24
 1888 077c 4889DF   		movq	%rbx, %rdi
 1889 077f 5B       		popq	%rbx
 1890              		.cfi_def_cfa_offset 16
 1891 0780 5D       		popq	%rbp
 1892              		.cfi_def_cfa_offset 8
 1893 0781 E9000000 		jmp	_ZdlPv@PLT
 1893      00
 1894              	.L129:
 1895              		.cfi_restore_state
 1896 0786 4889C5   		movq	%rax, %rbp
 1897 0789 4889DF   		movq	%rbx, %rdi
 1898 078c E8000000 		call	_ZdlPv@PLT
 1898      00
 1899 0791 4889EF   		movq	%rbp, %rdi
 1900              	.LEHB47:
 1901 0794 E8000000 		call	_Unwind_Resume@PLT
 1901      00
 1902              	.LEHE47:
 1903              		.cfi_endproc
 1904              	.LFE1452:
 1905              		.section	.gcc_except_table
 1906              	.LLSDA1452:
 1907 0114 FF       		.byte	0xff
 1908 0115 FF       		.byte	0xff
 1909 0116 01       		.byte	0x1
 1910 0117 08       		.uleb128 .LLSDACSE1452-.LLSDACSB1452
 1911              	.LLSDACSB1452:
 1912 0118 13       		.uleb128 .LEHB46-.LFB1452
 1913 0119 05       		.uleb128 .LEHE46-.LEHB46
 1914 011a 26       		.uleb128 .L129-.LFB1452
 1915 011b 00       		.uleb128 0
 1916 011c 34       		.uleb128 .LEHB47-.LFB1452
 1917 011d 05       		.uleb128 .LEHE47-.LEHB47
 1918 011e 00       		.uleb128 0
 1919 011f 00       		.uleb128 0
 1920              	.LLSDACSE1452:
 1921              		.text
 1923 0799 90       		.align 2
 1924 079a 660F1F44 		.p2align 4,,15
 1924      0000
 1926              	_ZN12_GLOBAL__N_149TestCheckEqualsWithStringsFailsOnDifferentStringsD0Ev:
 1927              	.LFB1456:
 1928              		.cfi_startproc
 1929              		.cfi_personality 0x9b,DW.ref.__gxx_personality_v0
 1930              		.cfi_lsda 0x1b,.LLSDA1456
 1931 07a0 55       		pushq	%rbp
 1932              		.cfi_def_cfa_offset 16
 1933              		.cfi_offset 6, -16
 1934 07a1 488D0500 		leaq	16+_ZTVN12_GLOBAL__N_149TestCheckEqualsWithStringsFailsOnDifferentStringsE(%rip), %rax
 1934      000000
 1935 07a8 53       		pushq	%rbx
 1936              		.cfi_def_cfa_offset 24
 1937              		.cfi_offset 3, -24
 1938 07a9 4889FB   		movq	%rdi, %rbx
 1939 07ac 4883EC08 		subq	$8, %rsp
 1940              		.cfi_def_cfa_offset 32
 1941 07b0 488907   		movq	%rax, (%rdi)
 1942              	.LEHB48:
 1943 07b3 E8000000 		call	_ZN8UnitTest4TestD2Ev@PLT
 1943      00
 1944              	.LEHE48:
 1945 07b8 4883C408 		addq	$8, %rsp
 1946              		.cfi_remember_state
 1947              		.cfi_def_cfa_offset 24
 1948 07bc 4889DF   		movq	%rbx, %rdi
 1949 07bf 5B       		popq	%rbx
 1950              		.cfi_def_cfa_offset 16
 1951 07c0 5D       		popq	%rbp
 1952              		.cfi_def_cfa_offset 8
 1953 07c1 E9000000 		jmp	_ZdlPv@PLT
 1953      00
 1954              	.L133:
 1955              		.cfi_restore_state
 1956 07c6 4889C5   		movq	%rax, %rbp
 1957 07c9 4889DF   		movq	%rbx, %rdi
 1958 07cc E8000000 		call	_ZdlPv@PLT
 1958      00
 1959 07d1 4889EF   		movq	%rbp, %rdi
 1960              	.LEHB49:
 1961 07d4 E8000000 		call	_Unwind_Resume@PLT
 1961      00
 1962              	.LEHE49:
 1963              		.cfi_endproc
 1964              	.LFE1456:
 1965              		.section	.gcc_except_table
 1966              	.LLSDA1456:
 1967 0120 FF       		.byte	0xff
 1968 0121 FF       		.byte	0xff
 1969 0122 01       		.byte	0x1
 1970 0123 08       		.uleb128 .LLSDACSE1456-.LLSDACSB1456
 1971              	.LLSDACSB1456:
 1972 0124 13       		.uleb128 .LEHB48-.LFB1456
 1973 0125 05       		.uleb128 .LEHE48-.LEHB48
 1974 0126 26       		.uleb128 .L133-.LFB1456
 1975 0127 00       		.uleb128 0
 1976 0128 34       		.uleb128 .LEHB49-.LFB1456
 1977 0129 05       		.uleb128 .LEHE49-.LEHB49
 1978 012a 00       		.uleb128 0
 1979 012b 00       		.uleb128 0
 1980              	.LLSDACSE1456:
 1981              		.text
 1983 07d9 90       		.align 2
 1984 07da 660F1F44 		.p2align 4,,15
 1984      0000
 1986              	_ZN12_GLOBAL__N_130TestCheckEqualWithUnsignedLongD0Ev:
 1987              	.LFB1460:
 1988              		.cfi_startproc
 1989              		.cfi_personality 0x9b,DW.ref.__gxx_personality_v0
 1990              		.cfi_lsda 0x1b,.LLSDA1460
 1991 07e0 55       		pushq	%rbp
 1992              		.cfi_def_cfa_offset 16
 1993              		.cfi_offset 6, -16
 1994 07e1 488D0500 		leaq	16+_ZTVN12_GLOBAL__N_130TestCheckEqualWithUnsignedLongE(%rip), %rax
 1994      000000
 1995 07e8 53       		pushq	%rbx
 1996              		.cfi_def_cfa_offset 24
 1997              		.cfi_offset 3, -24
 1998 07e9 4889FB   		movq	%rdi, %rbx
 1999 07ec 4883EC08 		subq	$8, %rsp
 2000              		.cfi_def_cfa_offset 32
 2001 07f0 488907   		movq	%rax, (%rdi)
 2002              	.LEHB50:
 2003 07f3 E8000000 		call	_ZN8UnitTest4TestD2Ev@PLT
 2003      00
 2004              	.LEHE50:
 2005 07f8 4883C408 		addq	$8, %rsp
 2006              		.cfi_remember_state
 2007              		.cfi_def_cfa_offset 24
 2008 07fc 4889DF   		movq	%rbx, %rdi
 2009 07ff 5B       		popq	%rbx
 2010              		.cfi_def_cfa_offset 16
 2011 0800 5D       		popq	%rbp
 2012              		.cfi_def_cfa_offset 8
 2013 0801 E9000000 		jmp	_ZdlPv@PLT
 2013      00
 2014              	.L137:
 2015              		.cfi_restore_state
 2016 0806 4889C5   		movq	%rax, %rbp
 2017 0809 4889DF   		movq	%rbx, %rdi
 2018 080c E8000000 		call	_ZdlPv@PLT
 2018      00
 2019 0811 4889EF   		movq	%rbp, %rdi
 2020              	.LEHB51:
 2021 0814 E8000000 		call	_Unwind_Resume@PLT
 2021      00
 2022              	.LEHE51:
 2023              		.cfi_endproc
 2024              	.LFE1460:
 2025              		.section	.gcc_except_table
 2026              	.LLSDA1460:
 2027 012c FF       		.byte	0xff
 2028 012d FF       		.byte	0xff
 2029 012e 01       		.byte	0x1
 2030 012f 08       		.uleb128 .LLSDACSE1460-.LLSDACSB1460
 2031              	.LLSDACSB1460:
 2032 0130 13       		.uleb128 .LEHB50-.LFB1460
 2033 0131 05       		.uleb128 .LEHE50-.LEHB50
 2034 0132 26       		.uleb128 .L137-.LFB1460
 2035 0133 00       		.uleb128 0
 2036 0134 34       		.uleb128 .LEHB51-.LFB1460
 2037 0135 05       		.uleb128 .LEHE51-.LEHB51
 2038 0136 00       		.uleb128 0
 2039 0137 00       		.uleb128 0
 2040              	.LLSDACSE1460:
 2041              		.text
 2043              		.section	.text._ZN17RecordingReporterD2Ev,"axG",@progbits,_ZN17RecordingReporterD5Ev,comdat
 2044              		.align 2
 2045              		.p2align 4,,15
 2046              		.weak	_ZN17RecordingReporterD2Ev
 2048              	_ZN17RecordingReporterD2Ev:
 2049              	.LFB1462:
 2050              		.cfi_startproc
 2051 0000 488D0500 		leaq	16+_ZTV17RecordingReporter(%rip), %rax
 2051      000000
 2052 0007 488907   		movq	%rax, (%rdi)
 2053 000a E9000000 		jmp	_ZN8UnitTest12TestReporterD2Ev@PLT
 2053      00
 2054              		.cfi_endproc
 2055              	.LFE1462:
 2057              		.weak	_ZN17RecordingReporterD1Ev
 2058              		.set	_ZN17RecordingReporterD1Ev,_ZN17RecordingReporterD2Ev
 2059              		.section	.text._ZN17RecordingReporterD0Ev,"axG",@progbits,_ZN17RecordingReporterD5Ev,comdat
 2060              		.align 2
 2061              		.p2align 4,,15
 2062              		.weak	_ZN17RecordingReporterD0Ev
 2064              	_ZN17RecordingReporterD0Ev:
 2065              	.LFB1464:
 2066              		.cfi_startproc
 2067              		.cfi_personality 0x9b,DW.ref.__gxx_personality_v0
 2068              		.cfi_lsda 0x1b,.LLSDA1464
 2069 0000 55       		pushq	%rbp
 2070              		.cfi_def_cfa_offset 16
 2071              		.cfi_offset 6, -16
 2072 0001 488D0500 		leaq	16+_ZTV17RecordingReporter(%rip), %rax
 2072      000000
 2073 0008 53       		pushq	%rbx
 2074              		.cfi_def_cfa_offset 24
 2075              		.cfi_offset 3, -24
 2076 0009 4889FB   		movq	%rdi, %rbx
 2077 000c 4883EC08 		subq	$8, %rsp
 2078              		.cfi_def_cfa_offset 32
 2079 0010 488907   		movq	%rax, (%rdi)
 2080              	.LEHB52:
 2081 0013 E8000000 		call	_ZN8UnitTest12TestReporterD2Ev@PLT
 2081      00
 2082              	.LEHE52:
 2083 0018 4883C408 		addq	$8, %rsp
 2084              		.cfi_remember_state
 2085              		.cfi_def_cfa_offset 24
 2086 001c 4889DF   		movq	%rbx, %rdi
 2087 001f 5B       		popq	%rbx
 2088              		.cfi_def_cfa_offset 16
 2089 0020 5D       		popq	%rbp
 2090              		.cfi_def_cfa_offset 8
 2091 0021 E9000000 		jmp	_ZdlPv@PLT
 2091      00
 2092              	.L142:
 2093              		.cfi_restore_state
 2094 0026 4889C5   		movq	%rax, %rbp
 2095 0029 4889DF   		movq	%rbx, %rdi
 2096 002c E8000000 		call	_ZdlPv@PLT
 2096      00
 2097 0031 4889EF   		movq	%rbp, %rdi
 2098              	.LEHB53:
 2099 0034 E8000000 		call	_Unwind_Resume@PLT
 2099      00
 2100              	.LEHE53:
 2101              		.cfi_endproc
 2102              	.LFE1464:
 2103              		.section	.gcc_except_table
 2104              	.LLSDA1464:
 2105 0138 FF       		.byte	0xff
 2106 0139 FF       		.byte	0xff
 2107 013a 01       		.byte	0x1
 2108 013b 08       		.uleb128 .LLSDACSE1464-.LLSDACSB1464
 2109              	.LLSDACSB1464:
 2110 013c 13       		.uleb128 .LEHB52-.LFB1464
 2111 013d 05       		.uleb128 .LEHE52-.LEHB52
 2112 013e 26       		.uleb128 .L142-.LFB1464
 2113 013f 00       		.uleb128 0
 2114 0140 34       		.uleb128 .LEHB53-.LFB1464
 2115 0141 05       		.uleb128 .LEHE53-.LEHB53
 2116 0142 00       		.uleb128 0
 2117 0143 00       		.uleb128 0
 2118              	.LLSDACSE1464:
 2119              		.section	.text._ZN17RecordingReporterD0Ev,"axG",@progbits,_ZN17RecordingReporterD5Ev,comdat
 2121              		.section	.text._ZN8UnitTest15MemoryOutStreamD1Ev,"axG",@progbits,_ZN8UnitTest15MemoryOutStreamD1Ev
 2122              		.align 2
 2123              		.p2align 4,,15
 2124              		.weak	_ZN8UnitTest15MemoryOutStreamD1Ev
 2126              	_ZN8UnitTest15MemoryOutStreamD1Ev:
 2127              	.LFB1286:
 2128              		.cfi_startproc
 2129 0000 55       		pushq	%rbp
 2130              		.cfi_def_cfa_offset 16
 2131              		.cfi_offset 6, -16
 2132 0001 488D0500 		leaq	24+_ZTVN8UnitTest15MemoryOutStreamE(%rip), %rax
 2132      000000
 2133 0008 53       		pushq	%rbx
 2134              		.cfi_def_cfa_offset 24
 2135              		.cfi_offset 3, -24
 2136 0009 4889FB   		movq	%rdi, %rbx
 2137 000c 4883EC08 		subq	$8, %rsp
 2138              		.cfi_def_cfa_offset 32
 2139 0010 488907   		movq	%rax, (%rdi)
 2140 0013 4883C028 		addq	$40, %rax
 2141 0017 48898790 		movq	%rax, 144(%rdi)
 2141      000000
 2142 001e 488B7F70 		movq	112(%rdi), %rdi
 2143 0022 488D8380 		leaq	128(%rbx), %rax
 2143      000000
 2144 0029 4839C7   		cmpq	%rax, %rdi
 2145 002c 7405     		je	.L145
 2146 002e E8000000 		call	_ZdlPv@PLT
 2146      00
 2147              	.L145:
 2148 0033 488D0500 		leaq	24+_ZTCN8UnitTest15MemoryOutStreamE0_NSt7__cxx1119basic_ostringstreamIcSt11char_traitsIcESaIc
 2148      000000
 2149 003a 488B7B50 		movq	80(%rbx), %rdi
 2150 003e 488DAB90 		leaq	144(%rbx), %rbp
 2150      000000
 2151 0045 488903   		movq	%rax, (%rbx)
 2152 0048 4883C028 		addq	$40, %rax
 2153 004c 48898390 		movq	%rax, 144(%rbx)
 2153      000000
 2154 0053 488D0500 		leaq	16+_ZTVNSt7__cxx1115basic_stringbufIcSt11char_traitsIcESaIcEEE(%rip), %rax
 2154      000000
 2155 005a 48894308 		movq	%rax, 8(%rbx)
 2156 005e 488D4360 		leaq	96(%rbx), %rax
 2157 0062 4839C7   		cmpq	%rax, %rdi
 2158 0065 7405     		je	.L146
 2159 0067 E8000000 		call	_ZdlPv@PLT
 2159      00
 2160              	.L146:
 2161 006c 488D0500 		leaq	16+_ZTVSt15basic_streambufIcSt11char_traitsIcEE(%rip), %rax
 2161      000000
 2162 0073 488D7B40 		leaq	64(%rbx), %rdi
 2163 0077 48894308 		movq	%rax, 8(%rbx)
 2164 007b E8000000 		call	_ZNSt6localeD1Ev@PLT
 2164      00
 2165 0080 488D0500 		leaq	24+_ZTCN8UnitTest15MemoryOutStreamE0_So(%rip), %rax
 2165      000000
 2166 0087 4889EF   		movq	%rbp, %rdi
 2167 008a 488903   		movq	%rax, (%rbx)
 2168 008d 488D0500 		leaq	16+_ZTVSt9basic_iosIcSt11char_traitsIcEE(%rip), %rax
 2168      000000
 2169 0094 48898390 		movq	%rax, 144(%rbx)
 2169      000000
 2170 009b 4883C408 		addq	$8, %rsp
 2171              		.cfi_def_cfa_offset 24
 2172 009f 5B       		popq	%rbx
 2173              		.cfi_def_cfa_offset 16
 2174 00a0 5D       		popq	%rbp
 2175              		.cfi_def_cfa_offset 8
 2176 00a1 E9000000 		jmp	_ZNSt8ios_baseD2Ev@PLT
 2176      00
 2177              		.cfi_endproc
 2178              	.LFE1286:
 2180              		.section	.text._ZN8UnitTest15MemoryOutStreamD0Ev,"axG",@progbits,_ZN8UnitTest15MemoryOutStreamD0Ev
 2181              		.p2align 4,,15
 2182              		.weak	_ZTv0_n24_N8UnitTest15MemoryOutStreamD0Ev
 2184              	_ZTv0_n24_N8UnitTest15MemoryOutStreamD0Ev:
 2185              	.LFB1483:
 2186              		.cfi_startproc
 2187              		.cfi_personality 0x9b,DW.ref.__gxx_personality_v0
 2188              		.cfi_lsda 0x1b,.LLSDA1483
 2189 0000 55       		pushq	%rbp
 2190              		.cfi_def_cfa_offset 16
 2191              		.cfi_offset 6, -16
 2192 0001 53       		pushq	%rbx
 2193              		.cfi_def_cfa_offset 24
 2194              		.cfi_offset 3, -24
 2195 0002 4883EC08 		subq	$8, %rsp
 2196              		.cfi_def_cfa_offset 32
 2197 0006 488B07   		movq	(%rdi), %rax
 2198 0009 480378E8 		addq	-24(%rax), %rdi
 2199 000d 488D0500 		leaq	24+_ZTVN8UnitTest15MemoryOutStreamE(%rip), %rax
 2199      000000
 2200 0014 488907   		movq	%rax, (%rdi)
 2201 0017 4883C028 		addq	$40, %rax
 2202 001b 4889FB   		movq	%rdi, %rbx
 2203 001e 48898790 		movq	%rax, 144(%rdi)
 2203      000000
 2204 0025 488B7F70 		movq	112(%rdi), %rdi
 2205 0029 488D8380 		leaq	128(%rbx), %rax
 2205      000000
 2206 0030 4839C7   		cmpq	%rax, %rdi
 2207 0033 7405     		je	.L149
 2208 0035 E8000000 		call	_ZdlPv@PLT
 2208      00
 2209              	.L149:
 2210 003a 488D0500 		leaq	24+_ZTCN8UnitTest15MemoryOutStreamE0_NSt7__cxx1119basic_ostringstreamIcSt11char_traitsIcESaIc
 2210      000000
 2211 0041 488B7B50 		movq	80(%rbx), %rdi
 2212 0045 488DAB90 		leaq	144(%rbx), %rbp
 2212      000000
 2213 004c 488903   		movq	%rax, (%rbx)
 2214 004f 4883C028 		addq	$40, %rax
 2215 0053 48898390 		movq	%rax, 144(%rbx)
 2215      000000
 2216 005a 488D0500 		leaq	16+_ZTVNSt7__cxx1115basic_stringbufIcSt11char_traitsIcESaIcEEE(%rip), %rax
 2216      000000
 2217 0061 48894308 		movq	%rax, 8(%rbx)
 2218 0065 488D4360 		leaq	96(%rbx), %rax
 2219 0069 4839C7   		cmpq	%rax, %rdi
 2220 006c 7405     		je	.L150
 2221 006e E8000000 		call	_ZdlPv@PLT
 2221      00
 2222              	.L150:
 2223 0073 488D0500 		leaq	16+_ZTVSt15basic_streambufIcSt11char_traitsIcEE(%rip), %rax
 2223      000000
 2224 007a 488D7B40 		leaq	64(%rbx), %rdi
 2225 007e 48894308 		movq	%rax, 8(%rbx)
 2226 0082 E8000000 		call	_ZNSt6localeD1Ev@PLT
 2226      00
 2227 0087 488D0500 		leaq	24+_ZTCN8UnitTest15MemoryOutStreamE0_So(%rip), %rax
 2227      000000
 2228 008e 4889EF   		movq	%rbp, %rdi
 2229 0091 488903   		movq	%rax, (%rbx)
 2230 0094 488D0500 		leaq	16+_ZTVSt9basic_iosIcSt11char_traitsIcEE(%rip), %rax
 2230      000000
 2231 009b 48898390 		movq	%rax, 144(%rbx)
 2231      000000
 2232              	.LEHB54:
 2233 00a2 E8000000 		call	_ZNSt8ios_baseD2Ev@PLT
 2233      00
 2234              	.LEHE54:
 2235 00a7 4883C408 		addq	$8, %rsp
 2236              		.cfi_remember_state
 2237              		.cfi_def_cfa_offset 24
 2238 00ab 4889DF   		movq	%rbx, %rdi
 2239 00ae 5B       		popq	%rbx
 2240              		.cfi_def_cfa_offset 16
 2241 00af 5D       		popq	%rbp
 2242              		.cfi_def_cfa_offset 8
 2243 00b0 E9000000 		jmp	_ZdlPv@PLT
 2243      00
 2244              	.L152:
 2245              		.cfi_restore_state
 2246 00b5 4889C5   		movq	%rax, %rbp
 2247 00b8 4889DF   		movq	%rbx, %rdi
 2248 00bb E8000000 		call	_ZdlPv@PLT
 2248      00
 2249 00c0 4889EF   		movq	%rbp, %rdi
 2250              	.LEHB55:
 2251 00c3 E8000000 		call	_Unwind_Resume@PLT
 2251      00
 2252              	.LEHE55:
 2253              		.cfi_endproc
 2254              	.LFE1483:
 2255              		.section	.gcc_except_table
 2256              	.LLSDA1483:
 2257 0144 FF       		.byte	0xff
 2258 0145 FF       		.byte	0xff
 2259 0146 01       		.byte	0x1
 2260 0147 0B       		.uleb128 .LLSDACSE1483-.LLSDACSB1483
 2261              	.LLSDACSB1483:
 2262 0148 A201     		.uleb128 .LEHB54-.LFB1483
 2263 014a 05       		.uleb128 .LEHE54-.LEHB54
 2264 014b B501     		.uleb128 .L152-.LFB1483
 2265 014d 00       		.uleb128 0
 2266 014e C301     		.uleb128 .LEHB55-.LFB1483
 2267 0150 05       		.uleb128 .LEHE55-.LEHB55
 2268 0151 00       		.uleb128 0
 2269 0152 00       		.uleb128 0
 2270              	.LLSDACSE1483:
 2271              		.section	.text._ZN8UnitTest15MemoryOutStreamD0Ev,"axG",@progbits,_ZN8UnitTest15MemoryOutStreamD0Ev
 2273              		.section	.text._ZN8UnitTest15MemoryOutStreamD1Ev,"axG",@progbits,_ZN8UnitTest15MemoryOutStreamD1Ev
 2274 00a6 662E0F1F 		.p2align 4,,15
 2274      84000000 
 2274      0000
 2275              		.weak	_ZTv0_n24_N8UnitTest15MemoryOutStreamD1Ev
 2277              	_ZTv0_n24_N8UnitTest15MemoryOutStreamD1Ev:
 2278              	.LFB1484:
 2279              		.cfi_startproc
 2280 00b0 55       		pushq	%rbp
 2281              		.cfi_def_cfa_offset 16
 2282              		.cfi_offset 6, -16
 2283 00b1 53       		pushq	%rbx
 2284              		.cfi_def_cfa_offset 24
 2285              		.cfi_offset 3, -24
 2286 00b2 4883EC08 		subq	$8, %rsp
 2287              		.cfi_def_cfa_offset 32
 2288 00b6 488B07   		movq	(%rdi), %rax
 2289 00b9 480378E8 		addq	-24(%rax), %rdi
 2290 00bd 488D0500 		leaq	24+_ZTVN8UnitTest15MemoryOutStreamE(%rip), %rax
 2290      000000
 2291 00c4 488907   		movq	%rax, (%rdi)
 2292 00c7 4883C028 		addq	$40, %rax
 2293 00cb 4889FB   		movq	%rdi, %rbx
 2294 00ce 48898790 		movq	%rax, 144(%rdi)
 2294      000000
 2295 00d5 488B7F70 		movq	112(%rdi), %rdi
 2296 00d9 488D8380 		leaq	128(%rbx), %rax
 2296      000000
 2297 00e0 4839C7   		cmpq	%rax, %rdi
 2298 00e3 7405     		je	.L155
 2299 00e5 E8000000 		call	_ZdlPv@PLT
 2299      00
 2300              	.L155:
 2301 00ea 488D0500 		leaq	24+_ZTCN8UnitTest15MemoryOutStreamE0_NSt7__cxx1119basic_ostringstreamIcSt11char_traitsIcESaIc
 2301      000000
 2302 00f1 488B7B50 		movq	80(%rbx), %rdi
 2303 00f5 488DAB90 		leaq	144(%rbx), %rbp
 2303      000000
 2304 00fc 488903   		movq	%rax, (%rbx)
 2305 00ff 4883C028 		addq	$40, %rax
 2306 0103 48898390 		movq	%rax, 144(%rbx)
 2306      000000
 2307 010a 488D0500 		leaq	16+_ZTVNSt7__cxx1115basic_stringbufIcSt11char_traitsIcESaIcEEE(%rip), %rax
 2307      000000
 2308 0111 48894308 		movq	%rax, 8(%rbx)
 2309 0115 488D4360 		leaq	96(%rbx), %rax
 2310 0119 4839C7   		cmpq	%rax, %rdi
 2311 011c 7405     		je	.L156
 2312 011e E8000000 		call	_ZdlPv@PLT
 2312      00
 2313              	.L156:
 2314 0123 488D0500 		leaq	16+_ZTVSt15basic_streambufIcSt11char_traitsIcEE(%rip), %rax
 2314      000000
 2315 012a 488D7B40 		leaq	64(%rbx), %rdi
 2316 012e 48894308 		movq	%rax, 8(%rbx)
 2317 0132 E8000000 		call	_ZNSt6localeD1Ev@PLT
 2317      00
 2318 0137 488D0500 		leaq	24+_ZTCN8UnitTest15MemoryOutStreamE0_So(%rip), %rax
 2318      000000
 2319 013e 4889EF   		movq	%rbp, %rdi
 2320 0141 488903   		movq	%rax, (%rbx)
 2321 0144 488D0500 		leaq	16+_ZTVSt9basic_iosIcSt11char_traitsIcEE(%rip), %rax
 2321      000000
 2322 014b 48898390 		movq	%rax, 144(%rbx)
 2322      000000
 2323 0152 4883C408 		addq	$8, %rsp
 2324              		.cfi_def_cfa_offset 24
 2325 0156 5B       		popq	%rbx
 2326              		.cfi_def_cfa_offset 16
 2327 0157 5D       		popq	%rbp
 2328              		.cfi_def_cfa_offset 8
 2329 0158 E9000000 		jmp	_ZNSt8ios_baseD2Ev@PLT
 2329      00
 2330              		.cfi_endproc
 2331              	.LFE1484:
 2333              		.section	.text._ZN8UnitTest15MemoryOutStreamD0Ev,"axG",@progbits,_ZN8UnitTest15MemoryOutStreamD0Ev
 2334              		.align 2
 2335 00c8 0F1F8400 		.p2align 4,,15
 2335      00000000 
 2336              		.weak	_ZN8UnitTest15MemoryOutStreamD0Ev
 2338              	_ZN8UnitTest15MemoryOutStreamD0Ev:
 2339              	.LFB1287:
 2340              		.cfi_startproc
 2341              		.cfi_personality 0x9b,DW.ref.__gxx_personality_v0
 2342              		.cfi_lsda 0x1b,.LLSDA1287
 2343 00d0 55       		pushq	%rbp
 2344              		.cfi_def_cfa_offset 16
 2345              		.cfi_offset 6, -16
 2346 00d1 488D0500 		leaq	24+_ZTVN8UnitTest15MemoryOutStreamE(%rip), %rax
 2346      000000
 2347 00d8 53       		pushq	%rbx
 2348              		.cfi_def_cfa_offset 24
 2349              		.cfi_offset 3, -24
 2350 00d9 4889FB   		movq	%rdi, %rbx
 2351 00dc 4883EC08 		subq	$8, %rsp
 2352              		.cfi_def_cfa_offset 32
 2353 00e0 488907   		movq	%rax, (%rdi)
 2354 00e3 4883C028 		addq	$40, %rax
 2355 00e7 48898790 		movq	%rax, 144(%rdi)
 2355      000000
 2356 00ee 488B7F70 		movq	112(%rdi), %rdi
 2357 00f2 488D8380 		leaq	128(%rbx), %rax
 2357      000000
 2358 00f9 4839C7   		cmpq	%rax, %rdi
 2359 00fc 7405     		je	.L159
 2360 00fe E8000000 		call	_ZdlPv@PLT
 2360      00
 2361              	.L159:
 2362 0103 488D0500 		leaq	24+_ZTCN8UnitTest15MemoryOutStreamE0_NSt7__cxx1119basic_ostringstreamIcSt11char_traitsIcESaIc
 2362      000000
 2363 010a 488B7B50 		movq	80(%rbx), %rdi
 2364 010e 488DAB90 		leaq	144(%rbx), %rbp
 2364      000000
 2365 0115 488903   		movq	%rax, (%rbx)
 2366 0118 4883C028 		addq	$40, %rax
 2367 011c 48898390 		movq	%rax, 144(%rbx)
 2367      000000
 2368 0123 488D0500 		leaq	16+_ZTVNSt7__cxx1115basic_stringbufIcSt11char_traitsIcESaIcEEE(%rip), %rax
 2368      000000
 2369 012a 48894308 		movq	%rax, 8(%rbx)
 2370 012e 488D4360 		leaq	96(%rbx), %rax
 2371 0132 4839C7   		cmpq	%rax, %rdi
 2372 0135 7405     		je	.L160
 2373 0137 E8000000 		call	_ZdlPv@PLT
 2373      00
 2374              	.L160:
 2375 013c 488D0500 		leaq	16+_ZTVSt15basic_streambufIcSt11char_traitsIcEE(%rip), %rax
 2375      000000
 2376 0143 488D7B40 		leaq	64(%rbx), %rdi
 2377 0147 48894308 		movq	%rax, 8(%rbx)
 2378 014b E8000000 		call	_ZNSt6localeD1Ev@PLT
 2378      00
 2379 0150 488D0500 		leaq	24+_ZTCN8UnitTest15MemoryOutStreamE0_So(%rip), %rax
 2379      000000
 2380 0157 4889EF   		movq	%rbp, %rdi
 2381 015a 488903   		movq	%rax, (%rbx)
 2382 015d 488D0500 		leaq	16+_ZTVSt9basic_iosIcSt11char_traitsIcEE(%rip), %rax
 2382      000000
 2383 0164 48898390 		movq	%rax, 144(%rbx)
 2383      000000
 2384              	.LEHB56:
 2385 016b E8000000 		call	_ZNSt8ios_baseD2Ev@PLT
 2385      00
 2386              	.LEHE56:
 2387 0170 4883C408 		addq	$8, %rsp
 2388              		.cfi_remember_state
 2389              		.cfi_def_cfa_offset 24
 2390 0174 4889DF   		movq	%rbx, %rdi
 2391 0177 5B       		popq	%rbx
 2392              		.cfi_def_cfa_offset 16
 2393 0178 5D       		popq	%rbp
 2394              		.cfi_def_cfa_offset 8
 2395 0179 E9000000 		jmp	_ZdlPv@PLT
 2395      00
 2396              	.L162:
 2397              		.cfi_restore_state
 2398 017e 4889C5   		movq	%rax, %rbp
 2399 0181 4889DF   		movq	%rbx, %rdi
 2400 0184 E8000000 		call	_ZdlPv@PLT
 2400      00
 2401 0189 4889EF   		movq	%rbp, %rdi
 2402              	.LEHB57:
 2403 018c E8000000 		call	_Unwind_Resume@PLT
 2403      00
 2404              	.LEHE57:
 2405              		.cfi_endproc
 2406              	.LFE1287:
 2407              		.section	.gcc_except_table
 2408              	.LLSDA1287:
 2409 0153 FF       		.byte	0xff
 2410 0154 FF       		.byte	0xff
 2411 0155 01       		.byte	0x1
 2412 0156 0B       		.uleb128 .LLSDACSE1287-.LLSDACSB1287
 2413              	.LLSDACSB1287:
 2414 0157 9B01     		.uleb128 .LEHB56-.LFB1287
 2415 0159 05       		.uleb128 .LEHE56-.LEHB56
 2416 015a AE01     		.uleb128 .L162-.LFB1287
 2417 015c 00       		.uleb128 0
 2418 015d BC01     		.uleb128 .LEHB57-.LFB1287
 2419 015f 05       		.uleb128 .LEHE57-.LEHB57
 2420 0160 00       		.uleb128 0
 2421 0161 00       		.uleb128 0
 2422              	.LLSDACSE1287:
 2423              		.section	.text._ZN8UnitTest15MemoryOutStreamD0Ev,"axG",@progbits,_ZN8UnitTest15MemoryOutStreamD0Ev
 2425              		.section	.text._ZNSt7__cxx1115basic_stringbufIcSt11char_traitsIcESaIcEED2Ev,"axG",@progbits,_ZNSt7
 2426              		.align 2
 2427              		.p2align 4,,15
 2428              		.weak	_ZNSt7__cxx1115basic_stringbufIcSt11char_traitsIcESaIcEED2Ev
 2430              	_ZNSt7__cxx1115basic_stringbufIcSt11char_traitsIcESaIcEED2Ev:
 2431              	.LFB1265:
 2432              		.cfi_startproc
 2433 0000 488D0500 		leaq	16+_ZTVNSt7__cxx1115basic_stringbufIcSt11char_traitsIcESaIcEEE(%rip), %rax
 2433      000000
 2434 0007 53       		pushq	%rbx
 2435              		.cfi_def_cfa_offset 16
 2436              		.cfi_offset 3, -16
 2437 0008 4889FB   		movq	%rdi, %rbx
 2438 000b 488907   		movq	%rax, (%rdi)
 2439 000e 488B7F48 		movq	72(%rdi), %rdi
 2440 0012 488D4358 		leaq	88(%rbx), %rax
 2441 0016 4839C7   		cmpq	%rax, %rdi
 2442 0019 7405     		je	.L165
 2443 001b E8000000 		call	_ZdlPv@PLT
 2443      00
 2444              	.L165:
 2445 0020 488D0500 		leaq	16+_ZTVSt15basic_streambufIcSt11char_traitsIcEE(%rip), %rax
 2445      000000
 2446 0027 488D7B38 		leaq	56(%rbx), %rdi
 2447 002b 488903   		movq	%rax, (%rbx)
 2448 002e 5B       		popq	%rbx
 2449              		.cfi_def_cfa_offset 8
 2450 002f E9000000 		jmp	_ZNSt6localeD1Ev@PLT
 2450      00
 2451              		.cfi_endproc
 2452              	.LFE1265:
 2454              		.weak	_ZNSt7__cxx1115basic_stringbufIcSt11char_traitsIcESaIcEED1Ev
 2455              		.set	_ZNSt7__cxx1115basic_stringbufIcSt11char_traitsIcESaIcEED1Ev,_ZNSt7__cxx1115basic_stringbufIc
 2456              		.section	.rodata.str1.8,"aMS",@progbits,1
 2457              		.align 8
 2458              	.LC0:
 2459 0000 556E6861 		.string	"Unhandled exception in CHECK_CLOSE(0.5, 0.5)"
 2459      6E646C65 
 2459      64206578 
 2459      63657074 
 2459      696F6E20 
 2460              		.text
 2461 0819 90       		.align 2
 2462 081a 660F1F44 		.p2align 4,,15
 2462      0000
 2464              	_ZNK12_GLOBAL__N_133TestCheckCloseWithDoublesSucceeds7RunImplEv:
 2465              	.LFB1251:
 2466              		.cfi_startproc
 2467              		.cfi_personality 0x9b,DW.ref.__gxx_personality_v0
 2468              		.cfi_lsda 0x1b,.LLSDA1251
 2469 0820 55       		pushq	%rbp
 2470              		.cfi_def_cfa_offset 16
 2471              		.cfi_offset 6, -16
 2472 0821 53       		pushq	%rbx
 2473              		.cfi_def_cfa_offset 24
 2474              		.cfi_offset 3, -24
 2475 0822 4883EC38 		subq	$56, %rsp
 2476              		.cfi_def_cfa_offset 80
 2477 0826 64488B04 		movq	%fs:40, %rax
 2477      25280000 
 2477      00
 2478 082f 48894424 		movq	%rax, 40(%rsp)
 2478      28
 2479 0834 31C0     		xorl	%eax, %eax
 2480              	.LEHB58:
 2481 0836 E8000000 		call	_ZN8UnitTest11CurrentTest7DetailsEv@PLT
 2481      00
 2482 083b 488B30   		movq	(%rax), %rsi
 2483 083e 4889E7   		movq	%rsp, %rdi
 2484 0841 BA0E0100 		movl	$270, %edx
 2484      00
 2485 0846 E8000000 		call	_ZN8UnitTest11TestDetailsC1ERKS0_i@PLT
 2485      00
 2486 084b E8000000 		call	_ZN8UnitTest11CurrentTest7ResultsEv@PLT
 2486      00
 2487              	.LEHE58:
 2488              	.L167:
 2489 0850 488B4424 		movq	40(%rsp), %rax
 2489      28
 2490 0855 64483304 		xorq	%fs:40, %rax
 2490      25280000 
 2490      00
 2491 085e 7507     		jne	.L175
 2492 0860 4883C438 		addq	$56, %rsp
 2493              		.cfi_remember_state
 2494              		.cfi_def_cfa_offset 24
 2495 0864 5B       		popq	%rbx
 2496              		.cfi_def_cfa_offset 16
 2497 0865 5D       		popq	%rbp
 2498              		.cfi_def_cfa_offset 8
 2499 0866 C3       		ret
 2500              	.L175:
 2501              		.cfi_restore_state
 2502 0867 E8000000 		call	__stack_chk_fail@PLT
 2502      00
 2503              	.L172:
 2504 086c 4889C7   		movq	%rax, %rdi
 2505 086f E8000000 		call	__cxa_begin_catch@PLT
 2505      00
 2506              	.LEHB59:
 2507 0874 E8000000 		call	_ZN8UnitTest11CurrentTest7ResultsEv@PLT
 2507      00
 2508 0879 488B28   		movq	(%rax), %rbp
 2509 087c E8000000 		call	_ZN8UnitTest11CurrentTest7DetailsEv@PLT
 2509      00
 2510 0881 488B30   		movq	(%rax), %rsi
 2511 0884 4889E3   		movq	%rsp, %rbx
 2512 0887 BA0E0100 		movl	$270, %edx
 2512      00
 2513 088c 4889DF   		movq	%rbx, %rdi
 2514 088f E8000000 		call	_ZN8UnitTest11TestDetailsC1ERKS0_i@PLT
 2514      00
 2515 0894 488D1500 		leaq	.LC0(%rip), %rdx
 2515      000000
 2516 089b 4889DE   		movq	%rbx, %rsi
 2517 089e 4889EF   		movq	%rbp, %rdi
 2518 08a1 E8000000 		call	_ZN8UnitTest11TestResults13OnTestFailureERKNS_11TestDetailsEPKc@PLT
 2518      00
 2519              	.LEHE59:
 2520              	.LEHB60:
 2521 08a6 E8000000 		call	__cxa_end_catch@PLT
 2521      00
 2522              	.LEHE60:
 2523 08ab EBA3     		jmp	.L167
 2524              	.L173:
 2525 08ad 4889C3   		movq	%rax, %rbx
 2526 08b0 E8000000 		call	__cxa_end_catch@PLT
 2526      00
 2527 08b5 4889DF   		movq	%rbx, %rdi
 2528              	.LEHB61:
 2529 08b8 E8000000 		call	_Unwind_Resume@PLT
 2529      00
 2530              	.LEHE61:
 2531              		.cfi_endproc
 2532              	.LFE1251:
 2533              		.section	.gcc_except_table
 2534 0162 0000     		.align 4
 2535              	.LLSDA1251:
 2536 0164 FF       		.byte	0xff
 2537 0165 9B       		.byte	0x9b
 2538 0166 1D       		.uleb128 .LLSDATT1251-.LLSDATTD1251
 2539              	.LLSDATTD1251:
 2540 0167 01       		.byte	0x1
 2541 0168 13       		.uleb128 .LLSDACSE1251-.LLSDACSB1251
 2542              	.LLSDACSB1251:
 2543 0169 16       		.uleb128 .LEHB58-.LFB1251
 2544 016a 1A       		.uleb128 .LEHE58-.LEHB58
 2545 016b 4C       		.uleb128 .L172-.LFB1251
 2546 016c 01       		.uleb128 0x1
 2547 016d 54       		.uleb128 .LEHB59-.LFB1251
 2548 016e 32       		.uleb128 .LEHE59-.LEHB59
 2549 016f 8D01     		.uleb128 .L173-.LFB1251
 2550 0171 00       		.uleb128 0
 2551 0172 8601     		.uleb128 .LEHB60-.LFB1251
 2552 0174 05       		.uleb128 .LEHE60-.LEHB60
 2553 0175 00       		.uleb128 0
 2554 0176 00       		.uleb128 0
 2555 0177 9801     		.uleb128 .LEHB61-.LFB1251
 2556 0179 05       		.uleb128 .LEHE61-.LEHB61
 2557 017a 00       		.uleb128 0
 2558 017b 00       		.uleb128 0
 2559              	.LLSDACSE1251:
 2560 017c 01       		.byte	0x1
 2561 017d 00       		.byte	0
 2562 017e 0000     		.align 4
 2563 0180 00000000 		.long	0
 2564              	
 2565              	.LLSDATT1251:
 2566              		.text
 2568              		.section	.rodata.str1.1,"aMS",@progbits,1
 2569              	.LC1:
 2570 0000 00       		.string	""
 2571              	.LC2:
 2572 0001 45787065 		.string	"Expected "
 2572      63746564 
 2572      2000
 2573              	.LC4:
 2574 000b 202B2F2D 		.string	" +/- "
 2574      2000
 2575              	.LC6:
 2576 0011 20627574 		.string	" but was "
 2576      20776173 
 2576      2000
 2577              	.LC8:
 2578 001b 78706563 		.string	"xpected 0.9"
 2578      74656420 
 2578      302E3900 
 2579              		.section	.rodata.str1.8
 2580 002d 000000   		.align 8
 2581              	.LC9:
 2582 0030 73747273 		.string	"strstr(reporter.lastFailedMessage, \"xpected 0.9\")"
 2582      74722872 
 2582      65706F72 
 2582      7465722E 
 2582      6C617374 
 2583              		.section	.rodata.str1.1
 2584              	.LC10:
 2585 0027 77617320 		.string	"was 1.1"
 2585      312E3100 
 2586              		.section	.rodata.str1.8
 2587 0062 00000000 		.align 8
 2587      0000
 2588              	.LC11:
 2589 0068 73747273 		.string	"strstr(reporter.lastFailedMessage, \"was 1.1\")"
 2589      74722872 
 2589      65706F72 
 2589      7465722E 
 2589      6C617374 
 2590 0096 0000     		.align 8
 2591              	.LC12:
 2592 0098 556E6861 		.string	"Unhandled exception in CHECK(strstr(reporter.lastFailedMessage, \"xpected 0.9\"))"
 2592      6E646C65 
 2592      64206578 
 2592      63657074 
 2592      696F6E20 
 2593              		.align 8
 2594              	.LC13:
 2595 00e8 556E6861 		.string	"Unhandled exception in CHECK(strstr(reporter.lastFailedMessage, \"was 1.1\"))"
 2595      6E646C65 
 2595      64206578 
 2595      63657074 
 2595      696F6E20 
 2596              		.text
 2597 08bd 90       		.align 2
 2598 08be 6690     		.p2align 4,,15
 2600              	_ZNK12_GLOBAL__N_151TestCheckCloseFailureIncludesCheckExpectedAndActual7RunImplEv:
 2601              	.LFB1211:
 2602              		.cfi_startproc
 2603              		.cfi_personality 0x9b,DW.ref.__gxx_personality_v0
 2604              		.cfi_lsda 0x1b,.LLSDA1211
 2605 08c0 4157     		pushq	%r15
 2606              		.cfi_def_cfa_offset 16
 2607              		.cfi_offset 15, -16
 2608 08c2 4156     		pushq	%r14
 2609              		.cfi_def_cfa_offset 24
 2610              		.cfi_offset 14, -24
 2611 08c4 4155     		pushq	%r13
 2612              		.cfi_def_cfa_offset 32
 2613              		.cfi_offset 13, -32
 2614 08c6 4154     		pushq	%r12
 2615              		.cfi_def_cfa_offset 40
 2616              		.cfi_offset 12, -40
 2617 08c8 4C8D2D00 		leaq	16+_ZTV17RecordingReporter(%rip), %r13
 2617      000000
 2618 08cf 55       		pushq	%rbp
 2619              		.cfi_def_cfa_offset 48
 2620              		.cfi_offset 6, -48
 2621 08d0 53       		pushq	%rbx
 2622              		.cfi_def_cfa_offset 56
 2623              		.cfi_offset 3, -56
 2624 08d1 4881EC38 		subq	$2616, %rsp
 2624      0A0000
 2625              		.cfi_def_cfa_offset 2672
 2626 08d8 488DAC24 		leaq	496(%rsp), %rbp
 2626      F0010000 
 2627 08e0 4C8D7424 		leaq	16(%rsp), %r14
 2627      10
 2628 08e5 4C89AC24 		movq	%r13, 496(%rsp)
 2628      F0010000 
 2629 08ed 64488B04 		movq	%fs:40, %rax
 2629      25280000 
 2629      00
 2630 08f6 48898424 		movq	%rax, 2600(%rsp)
 2630      280A0000 
 2631 08fe 31C0     		xorl	%eax, %eax
 2632 0900 4889EE   		movq	%rbp, %rsi
 2633 0903 4C89F7   		movq	%r14, %rdi
 2634 0906 C78424F8 		movl	$0, 504(%rsp)
 2634      01000000 
 2634      000000
 2635 0911 C78424FC 		movl	$0, 1020(%rsp)
 2635      03000000 
 2635      000000
 2636 091c C7842400 		movl	$0, 1280(%rsp)
 2636      05000000 
 2636      000000
 2637 0927 C7842404 		movl	$0, 2052(%rsp)
 2637      08000000 
 2637      000000
 2638 0932 48C78424 		movq	$0, 2568(%rsp)
 2638      080A0000 
 2638      00000000 
 2639 093e 48C78424 		movq	$0, 2576(%rsp)
 2639      100A0000 
 2639      00000000 
 2640 094a C7842418 		movl	$0, 2584(%rsp)
 2640      0A000000 
 2640      000000
 2641 0955 C68424FC 		movb	$0, 508(%rsp)
 2641      01000000 
 2642 095d C68424FC 		movb	$0, 764(%rsp)
 2642      02000000 
 2643 0965 C6842400 		movb	$0, 1024(%rsp)
 2643      04000000 
 2644 096d C6842404 		movb	$0, 1284(%rsp)
 2644      05000000 
 2645 0975 C6842404 		movb	$0, 1540(%rsp)
 2645      06000000 
 2646 097d C6842404 		movb	$0, 1796(%rsp)
 2646      07000000 
 2647 0985 C6842408 		movb	$0, 2056(%rsp)
 2647      08000000 
 2648 098d C6842408 		movb	$0, 2312(%rsp)
 2648      09000000 
 2649              	.LEHB62:
 2650 0995 E8000000 		call	_ZN8UnitTest11TestResultsC1EPNS_12TestReporterE@PLT
 2650      00
 2651 099a 488D0D00 		leaq	.LC1(%rip), %rcx
 2651      000000
 2652 09a1 4C8D6424 		leaq	48(%rsp), %r12
 2652      30
 2653 09a6 4531C0   		xorl	%r8d, %r8d
 2654 09a9 4889CA   		movq	%rcx, %rdx
 2655 09ac 4889CE   		movq	%rcx, %rsi
 2656 09af 4C89E7   		movq	%r12, %rdi
 2657 09b2 E8000000 		call	_ZN8UnitTest11TestDetailsC1EPKcS2_S2_i@PLT
 2657      00
 2658              	.LEHE62:
 2659 09b7 488D5C24 		leaq	80(%rsp), %rbx
 2659      50
 2660 09bc 4C8D3D00 		leaq	24+_ZTCN8UnitTest15MemoryOutStreamE0_So(%rip), %r15
 2660      000000
 2661 09c3 488D8390 		leaq	144(%rbx), %rax
 2661      000000
 2662 09ca 4889C7   		movq	%rax, %rdi
 2663 09cd 48894424 		movq	%rax, 8(%rsp)
 2663      08
 2664 09d2 E8000000 		call	_ZNSt8ios_baseC2Ev@PLT
 2664      00
 2665 09d7 498D4728 		leaq	40(%r15), %rax
 2666 09db 31F6     		xorl	%esi, %esi
 2667 09dd 48C78424 		movq	$0, 440(%rsp)
 2667      B8010000 
 2667      00000000 
 2668 09e9 C68424C0 		movb	$0, 448(%rsp)
 2668      01000000 
 2669 09f1 C68424C1 		movb	$0, 449(%rsp)
 2669      01000000 
 2670 09f9 48898424 		movq	%rax, 224(%rsp)
 2670      E0000000 
 2671 0a01 488B4424 		movq	8(%rsp), %rax
 2671      08
 2672 0a06 48C78424 		movq	$0, 456(%rsp)
 2672      C8010000 
 2672      00000000 
 2673 0a12 48C78424 		movq	$0, 464(%rsp)
 2673      D0010000 
 2673      00000000 
 2674 0a1e 48C78424 		movq	$0, 472(%rsp)
 2674      D8010000 
 2674      00000000 
 2675 0a2a 48C78424 		movq	$0, 480(%rsp)
 2675      E0010000 
 2675      00000000 
 2676 0a36 4889C7   		movq	%rax, %rdi
 2677 0a39 4C897C24 		movq	%r15, 80(%rsp)
 2677      50
 2678              	.LEHB63:
 2679 0a3e E8000000 		call	_ZNSt9basic_iosIcSt11char_traitsIcEE4initEPSt15basic_streambufIcS1_E@PLT
 2679      00
 2680              	.LEHE63:
 2681 0a43 488D0500 		leaq	24+_ZTCN8UnitTest15MemoryOutStreamE0_NSt7__cxx1119basic_ostringstreamIcSt11char_traitsIcESaIc
 2681      000000
 2682 0a4a 660FEFC0 		pxor	%xmm0, %xmm0
 2683 0a4e 488D7B40 		leaq	64(%rbx), %rdi
 2684 0a52 48894424 		movq	%rax, 80(%rsp)
 2684      50
 2685 0a57 4883C028 		addq	$40, %rax
 2686 0a5b 48898424 		movq	%rax, 224(%rsp)
 2686      E0000000 
 2687 0a63 488D0500 		leaq	16+_ZTVSt15basic_streambufIcSt11char_traitsIcEE(%rip), %rax
 2687      000000
 2688 0a6a 0F294424 		movaps	%xmm0, 96(%rsp)
 2688      60
 2689 0a6f 48894424 		movq	%rax, 88(%rsp)
 2689      58
 2690 0a74 0F294424 		movaps	%xmm0, 112(%rsp)
 2690      70
 2691 0a79 0F298424 		movaps	%xmm0, 128(%rsp)
 2691      80000000 
 2692 0a81 E8000000 		call	_ZNSt6localeC1Ev@PLT
 2692      00
 2693 0a86 488D0500 		leaq	16+_ZTVNSt7__cxx1115basic_stringbufIcSt11char_traitsIcESaIcEEE(%rip), %rax
 2693      000000
 2694 0a8d 488D7308 		leaq	8(%rbx), %rsi
 2695 0a91 48894424 		movq	%rax, 88(%rsp)
 2695      58
 2696 0a96 488D4360 		leaq	96(%rbx), %rax
 2697 0a9a C7842498 		movl	$16, 152(%rsp)
 2697      00000010 
 2697      000000
 2698 0aa5 48C78424 		movq	$0, 168(%rsp)
 2698      A8000000 
 2698      00000000 
 2699 0ab1 C68424B0 		movb	$0, 176(%rsp)
 2699      00000000 
 2700 0ab9 48898424 		movq	%rax, 160(%rsp)
 2700      A0000000 
 2701 0ac1 488B4424 		movq	80(%rsp), %rax
 2701      50
 2702 0ac6 488B78E8 		movq	-24(%rax), %rdi
 2703 0aca 4801DF   		addq	%rbx, %rdi
 2704              	.LEHB64:
 2705 0acd E8000000 		call	_ZNSt9basic_iosIcSt11char_traitsIcEE4initEPSt15basic_streambufIcS1_E@PLT
 2705      00
 2706              	.LEHE64:
 2707 0ad2 488D0500 		leaq	24+_ZTVN8UnitTest15MemoryOutStreamE(%rip), %rax
 2707      000000
 2708 0ad9 488D3500 		leaq	.LC2(%rip), %rsi
 2708      000000
 2709 0ae0 BA090000 		movl	$9, %edx
 2709      00
 2710 0ae5 4889DF   		movq	%rbx, %rdi
 2711 0ae8 48C78424 		movq	$0, 200(%rsp)
 2711      C8000000 
 2711      00000000 
 2712 0af4 C68424D0 		movb	$0, 208(%rsp)
 2712      00000000 
 2713 0afc 48894424 		movq	%rax, 80(%rsp)
 2713      50
 2714 0b01 4883C028 		addq	$40, %rax
 2715 0b05 48898424 		movq	%rax, 224(%rsp)
 2715      E0000000 
 2716 0b0d 488D8380 		leaq	128(%rbx), %rax
 2716      000000
 2717 0b14 48898424 		movq	%rax, 192(%rsp)
 2717      C0000000 
 2718              	.LEHB65:
 2719 0b1c E8000000 		call	_ZSt16__ostream_insertIcSt11char_traitsIcEERSt13basic_ostreamIT_T0_ES6_PKS3_l@PLT
 2719      00
 2720 0b21 F20F1005 		movsd	.LC3(%rip), %xmm0
 2720      00000000 
 2721 0b29 4889DF   		movq	%rbx, %rdi
 2722 0b2c E8000000 		call	_ZNSo9_M_insertIdEERSoT_@PLT
 2722      00
 2723 0b31 488D3500 		leaq	.LC4(%rip), %rsi
 2723      000000
 2724 0b38 BA050000 		movl	$5, %edx
 2724      00
 2725 0b3d 4889C7   		movq	%rax, %rdi
 2726 0b40 48894424 		movq	%rax, 8(%rsp)
 2726      08
 2727 0b45 E8000000 		call	_ZSt16__ostream_insertIcSt11char_traitsIcEERSt13basic_ostreamIT_T0_ES6_PKS3_l@PLT
 2727      00
 2728 0b4a 488B7C24 		movq	8(%rsp), %rdi
 2728      08
 2729 0b4f F20F1005 		movsd	.LC5(%rip), %xmm0
 2729      00000000 
 2730 0b57 E8000000 		call	_ZNSo9_M_insertIdEERSoT_@PLT
 2730      00
 2731 0b5c 488D3500 		leaq	.LC6(%rip), %rsi
 2731      000000
 2732 0b63 BA090000 		movl	$9, %edx
 2732      00
 2733 0b68 4889C7   		movq	%rax, %rdi
 2734 0b6b 48894424 		movq	%rax, 8(%rsp)
 2734      08
 2735 0b70 E8000000 		call	_ZSt16__ostream_insertIcSt11char_traitsIcEERSt13basic_ostreamIT_T0_ES6_PKS3_l@PLT
 2735      00
 2736 0b75 488B7C24 		movq	8(%rsp), %rdi
 2736      08
 2737 0b7a F20F1005 		movsd	.LC7(%rip), %xmm0
 2737      00000000 
 2738 0b82 E8000000 		call	_ZNSo9_M_insertIdEERSoT_@PLT
 2738      00
 2739 0b87 4889DF   		movq	%rbx, %rdi
 2740 0b8a E8000000 		call	_ZNK8UnitTest15MemoryOutStream7GetTextEv@PLT
 2740      00
 2741 0b8f 4889C2   		movq	%rax, %rdx
 2742 0b92 4C89E6   		movq	%r12, %rsi
 2743 0b95 4C89F7   		movq	%r14, %rdi
 2744 0b98 E8000000 		call	_ZN8UnitTest11TestResults13OnTestFailureERKNS_11TestDetailsEPKc@PLT
 2744      00
 2745              	.LEHE65:
 2746 0b9d 488D0500 		leaq	24+_ZTVN8UnitTest15MemoryOutStreamE(%rip), %rax
 2746      000000
 2747 0ba4 488BBC24 		movq	192(%rsp), %rdi
 2747      C0000000 
 2748 0bac 48894424 		movq	%rax, 80(%rsp)
 2748      50
 2749 0bb1 4883C028 		addq	$40, %rax
 2750 0bb5 48898424 		movq	%rax, 224(%rsp)
 2750      E0000000 
 2751 0bbd 488D8380 		leaq	128(%rbx), %rax
 2751      000000
 2752 0bc4 4839C7   		cmpq	%rax, %rdi
 2753 0bc7 7405     		je	.L182
 2754 0bc9 E8000000 		call	_ZdlPv@PLT
 2754      00
 2755              	.L182:
 2756 0bce 488D0500 		leaq	64+_ZTCN8UnitTest15MemoryOutStreamE0_NSt7__cxx1119basic_ostringstreamIcSt11char_traitsIcESaIc
 2756      000000
 2757 0bd5 488BBC24 		movq	160(%rsp), %rdi
 2757      A0000000 
 2758 0bdd F30F7E05 		movq	.LC14(%rip), %xmm0
 2758      00000000 
 2759 0be5 48898424 		movq	%rax, 224(%rsp)
 2759      E0000000 
 2760 0bed 488D4360 		leaq	96(%rbx), %rax
 2761 0bf1 0F160500 		movhps	.LC15(%rip), %xmm0
 2761      000000
 2762 0bf8 4839C7   		cmpq	%rax, %rdi
 2763 0bfb 0F294424 		movaps	%xmm0, 80(%rsp)
 2763      50
 2764 0c00 7405     		je	.L183
 2765 0c02 E8000000 		call	_ZdlPv@PLT
 2765      00
 2766              	.L183:
 2767 0c07 488D0500 		leaq	16+_ZTVSt15basic_streambufIcSt11char_traitsIcEE(%rip), %rax
 2767      000000
 2768 0c0e 488D7B40 		leaq	64(%rbx), %rdi
 2769 0c12 48894424 		movq	%rax, 88(%rsp)
 2769      58
 2770 0c17 E8000000 		call	_ZNSt6localeD1Ev@PLT
 2770      00
 2771 0c1c 488D0500 		leaq	16+_ZTVSt9basic_iosIcSt11char_traitsIcEE(%rip), %rax
 2771      000000
 2772 0c23 488DBB90 		leaq	144(%rbx), %rdi
 2772      000000
 2773 0c2a 4C897C24 		movq	%r15, 80(%rsp)
 2773      50
 2774 0c2f 48898424 		movq	%rax, 224(%rsp)
 2774      E0000000 
 2775              	.LEHB66:
 2776 0c37 E8000000 		call	_ZNSt8ios_baseD2Ev@PLT
 2776      00
 2777              	.LEHE66:
 2778 0c3c 488DBD14 		leaq	1300(%rbp), %rdi
 2778      050000
 2779 0c43 488D3500 		leaq	.LC8(%rip), %rsi
 2779      000000
 2780 0c4a E8000000 		call	strstr@PLT
 2780      00
 2781 0c4f 4885C0   		testq	%rax, %rax
 2782 0c52 0F849000 		je	.L208
 2782      0000
 2783              	.L185:
 2784 0c58 488DBD14 		leaq	1300(%rbp), %rdi
 2784      050000
 2785 0c5f 488D3500 		leaq	.LC10(%rip), %rsi
 2785      000000
 2786 0c66 E8000000 		call	strstr@PLT
 2786      00
 2787 0c6b 4885C0   		testq	%rax, %rax
 2788 0c6e 7440     		je	.L209
 2789              	.L188:
 2790 0c70 4889EF   		movq	%rbp, %rdi
 2791 0c73 4C89AC24 		movq	%r13, 496(%rsp)
 2791      F0010000 
 2792              	.LEHB67:
 2793 0c7b E8000000 		call	_ZN8UnitTest12TestReporterD2Ev@PLT
 2793      00
 2794              	.LEHE67:
 2795 0c80 488B8424 		movq	2600(%rsp), %rax
 2795      280A0000 
 2796 0c88 64483304 		xorq	%fs:40, %rax
 2796      25280000 
 2796      00
 2797 0c91 0F858500 		jne	.L210
 2797      0000
 2798 0c97 4881C438 		addq	$2616, %rsp
 2798      0A0000
 2799              		.cfi_remember_state
 2800              		.cfi_def_cfa_offset 56
 2801 0c9e 5B       		popq	%rbx
 2802              		.cfi_def_cfa_offset 48
 2803 0c9f 5D       		popq	%rbp
 2804              		.cfi_def_cfa_offset 40
 2805 0ca0 415C     		popq	%r12
 2806              		.cfi_def_cfa_offset 32
 2807 0ca2 415D     		popq	%r13
 2808              		.cfi_def_cfa_offset 24
 2809 0ca4 415E     		popq	%r14
 2810              		.cfi_def_cfa_offset 16
 2811 0ca6 415F     		popq	%r15
 2812              		.cfi_def_cfa_offset 8
 2813 0ca8 C3       		ret
 2814 0ca9 0F1F8000 		.p2align 4,,10
 2814      000000
 2815              		.p2align 3
 2816              	.L209:
 2817              		.cfi_restore_state
 2818              	.LEHB68:
 2819 0cb0 E8000000 		call	_ZN8UnitTest11CurrentTest7ResultsEv@PLT
 2819      00
 2820 0cb5 488B18   		movq	(%rax), %rbx
 2821 0cb8 E8000000 		call	_ZN8UnitTest11CurrentTest7DetailsEv@PLT
 2821      00
 2822 0cbd 488B30   		movq	(%rax), %rsi
 2823 0cc0 BA9C0000 		movl	$156, %edx
 2823      00
 2824 0cc5 4C89E7   		movq	%r12, %rdi
 2825 0cc8 E8000000 		call	_ZN8UnitTest11TestDetailsC1ERKS0_i@PLT
 2825      00
 2826 0ccd 488D1500 		leaq	.LC11(%rip), %rdx
 2826      000000
 2827 0cd4 4C89E6   		movq	%r12, %rsi
 2828 0cd7 4889DF   		movq	%rbx, %rdi
 2829 0cda E8000000 		call	_ZN8UnitTest11TestResults13OnTestFailureERKNS_11TestDetailsEPKc@PLT
 2829      00
 2830              	.LEHE68:
 2831 0cdf EB8F     		jmp	.L188
 2832              		.p2align 4,,10
 2833 0ce1 0F1F8000 		.p2align 3
 2833      000000
 2834              	.L208:
 2835              	.LEHB69:
 2836 0ce8 E8000000 		call	_ZN8UnitTest11CurrentTest7ResultsEv@PLT
 2836      00
 2837 0ced 488B18   		movq	(%rax), %rbx
 2838 0cf0 E8000000 		call	_ZN8UnitTest11CurrentTest7DetailsEv@PLT
 2838      00
 2839 0cf5 488B30   		movq	(%rax), %rsi
 2840 0cf8 BA9B0000 		movl	$155, %edx
 2840      00
 2841 0cfd 4C89E7   		movq	%r12, %rdi
 2842 0d00 E8000000 		call	_ZN8UnitTest11TestDetailsC1ERKS0_i@PLT
 2842      00
 2843 0d05 488D1500 		leaq	.LC9(%rip), %rdx
 2843      000000
 2844 0d0c 4C89E6   		movq	%r12, %rsi
 2845 0d0f 4889DF   		movq	%rbx, %rdi
 2846 0d12 E8000000 		call	_ZN8UnitTest11TestResults13OnTestFailureERKNS_11TestDetailsEPKc@PLT
 2846      00
 2847              	.LEHE69:
 2848 0d17 E93CFFFF 		jmp	.L185
 2848      FF
 2849              	.L210:
 2850 0d1c E8000000 		call	__stack_chk_fail@PLT
 2850      00
 2851              	.L197:
 2852 0d21 4889C7   		movq	%rax, %rdi
 2853 0d24 E8000000 		call	__cxa_begin_catch@PLT
 2853      00
 2854              	.LEHB70:
 2855 0d29 E8000000 		call	_ZN8UnitTest11CurrentTest7ResultsEv@PLT
 2855      00
 2856 0d2e 488B18   		movq	(%rax), %rbx
 2857 0d31 E8000000 		call	_ZN8UnitTest11CurrentTest7DetailsEv@PLT
 2857      00
 2858 0d36 488B30   		movq	(%rax), %rsi
 2859 0d39 BA9B0000 		movl	$155, %edx
 2859      00
 2860 0d3e 4C89E7   		movq	%r12, %rdi
 2861 0d41 E8000000 		call	_ZN8UnitTest11TestDetailsC1ERKS0_i@PLT
 2861      00
 2862 0d46 488D1500 		leaq	.LC12(%rip), %rdx
 2862      000000
 2863 0d4d 4C89E6   		movq	%r12, %rsi
 2864 0d50 4889DF   		movq	%rbx, %rdi
 2865 0d53 E8000000 		call	_ZN8UnitTest11TestResults13OnTestFailureERKNS_11TestDetailsEPKc@PLT
 2865      00
 2866              	.LEHE70:
 2867              	.LEHB71:
 2868 0d58 E8000000 		call	__cxa_end_catch@PLT
 2868      00
 2869              	.LEHE71:
 2870 0d5d E9F6FEFF 		jmp	.L185
 2870      FF
 2871              	.L196:
 2872 0d62 4889C3   		movq	%rax, %rbx
 2873              	.L181:
 2874 0d65 4889EF   		movq	%rbp, %rdi
 2875 0d68 4C89AC24 		movq	%r13, 496(%rsp)
 2875      F0010000 
 2876 0d70 E8000000 		call	_ZN8UnitTest12TestReporterD2Ev@PLT
 2876      00
 2877 0d75 4889DF   		movq	%rbx, %rdi
 2878              	.LEHB72:
 2879 0d78 E8000000 		call	_Unwind_Resume@PLT
 2879      00
 2880              	.LEHE72:
 2881              	.L198:
 2882 0d7d 4889C3   		movq	%rax, %rbx
 2883 0d80 E8000000 		call	__cxa_end_catch@PLT
 2883      00
 2884 0d85 EBDE     		jmp	.L181
 2885              	.L203:
 2886 0d87 488D7B08 		leaq	8(%rbx), %rdi
 2887 0d8b 4989C4   		movq	%rax, %r12
 2888 0d8e E8000000 		call	_ZNSt7__cxx1115basic_stringbufIcSt11char_traitsIcESaIcEED1Ev
 2888      00
 2889 0d93 4C897C24 		movq	%r15, 80(%rsp)
 2889      50
 2890              	.L179:
 2891 0d98 488D0500 		leaq	16+_ZTVSt9basic_iosIcSt11char_traitsIcEE(%rip), %rax
 2891      000000
 2892 0d9f 488DBB90 		leaq	144(%rbx), %rdi
 2892      000000
 2893 0da6 4C89E3   		movq	%r12, %rbx
 2894 0da9 48898424 		movq	%rax, 224(%rsp)
 2894      E0000000 
 2895 0db1 E8000000 		call	_ZNSt8ios_baseD2Ev@PLT
 2895      00
 2896 0db6 EBAD     		jmp	.L181
 2897              	.L202:
 2898 0db8 4989C4   		movq	%rax, %r12
 2899 0dbb EBDB     		jmp	.L179
 2900              	.L199:
 2901 0dbd 4889C7   		movq	%rax, %rdi
 2902 0dc0 E8000000 		call	__cxa_begin_catch@PLT
 2902      00
 2903              	.LEHB73:
 2904 0dc5 E8000000 		call	_ZN8UnitTest11CurrentTest7ResultsEv@PLT
 2904      00
 2905 0dca 488B18   		movq	(%rax), %rbx
 2906 0dcd E8000000 		call	_ZN8UnitTest11CurrentTest7DetailsEv@PLT
 2906      00
 2907 0dd2 488B30   		movq	(%rax), %rsi
 2908 0dd5 BA9C0000 		movl	$156, %edx
 2908      00
 2909 0dda 4C89E7   		movq	%r12, %rdi
 2910 0ddd E8000000 		call	_ZN8UnitTest11TestDetailsC1ERKS0_i@PLT
 2910      00
 2911 0de2 488D1500 		leaq	.LC13(%rip), %rdx
 2911      000000
 2912 0de9 4C89E6   		movq	%r12, %rsi
 2913 0dec 4889DF   		movq	%rbx, %rdi
 2914 0def E8000000 		call	_ZN8UnitTest11TestResults13OnTestFailureERKNS_11TestDetailsEPKc@PLT
 2914      00
 2915              	.LEHE73:
 2916              	.LEHB74:
 2917 0df4 E8000000 		call	__cxa_end_catch@PLT
 2917      00
 2918              	.LEHE74:
 2919 0df9 E972FEFF 		jmp	.L188
 2919      FF
 2920              	.L201:
 2921 0dfe 4989C4   		movq	%rax, %r12
 2922 0e01 4889DF   		movq	%rbx, %rdi
 2923 0e04 E8000000 		call	_ZN8UnitTest15MemoryOutStreamD1Ev
 2923      00
 2924 0e09 4C89E3   		movq	%r12, %rbx
 2925 0e0c E954FFFF 		jmp	.L181
 2925      FF
 2926              	.L200:
 2927 0e11 4889C3   		movq	%rax, %rbx
 2928 0e14 E8000000 		call	__cxa_end_catch@PLT
 2928      00
 2929 0e19 E947FFFF 		jmp	.L181
 2929      FF
 2930              		.cfi_endproc
 2931              	.LFE1211:
 2932              		.section	.gcc_except_table
 2933              		.align 4
 2934              	.LLSDA1211:
 2935 0184 FF       		.byte	0xff
 2936 0185 9B       		.byte	0x9b
 2937 0186 55       		.uleb128 .LLSDATT1211-.LLSDATTD1211
 2938              	.LLSDATTD1211:
 2939 0187 01       		.byte	0x1
 2940 0188 4D       		.uleb128 .LLSDACSE1211-.LLSDACSB1211
 2941              	.LLSDACSB1211:
 2942 0189 D501     		.uleb128 .LEHB62-.LFB1211
 2943 018b 22       		.uleb128 .LEHE62-.LEHB62
 2944 018c A209     		.uleb128 .L196-.LFB1211
 2945 018e 00       		.uleb128 0
 2946 018f FE02     		.uleb128 .LEHB63-.LFB1211
 2947 0191 05       		.uleb128 .LEHE63-.LEHB63
 2948 0192 F809     		.uleb128 .L202-.LFB1211
 2949 0194 00       		.uleb128 0
 2950 0195 8D04     		.uleb128 .LEHB64-.LFB1211
 2951 0197 05       		.uleb128 .LEHE64-.LEHB64
 2952 0198 C709     		.uleb128 .L203-.LFB1211
 2953 019a 00       		.uleb128 0
 2954 019b DC04     		.uleb128 .LEHB65-.LFB1211
 2955 019d 8101     		.uleb128 .LEHE65-.LEHB65
 2956 019f BE0A     		.uleb128 .L201-.LFB1211
 2957 01a1 00       		.uleb128 0
 2958 01a2 F706     		.uleb128 .LEHB66-.LFB1211
 2959 01a4 05       		.uleb128 .LEHE66-.LEHB66
 2960 01a5 A209     		.uleb128 .L196-.LFB1211
 2961 01a7 00       		.uleb128 0
 2962 01a8 BB07     		.uleb128 .LEHB67-.LFB1211
 2963 01aa 05       		.uleb128 .LEHE67-.LEHB67
 2964 01ab 00       		.uleb128 0
 2965 01ac 00       		.uleb128 0
 2966 01ad F007     		.uleb128 .LEHB68-.LFB1211
 2967 01af 2F       		.uleb128 .LEHE68-.LEHB68
 2968 01b0 FD09     		.uleb128 .L199-.LFB1211
 2969 01b2 01       		.uleb128 0x1
 2970 01b3 A808     		.uleb128 .LEHB69-.LFB1211
 2971 01b5 2F       		.uleb128 .LEHE69-.LEHB69
 2972 01b6 E108     		.uleb128 .L197-.LFB1211
 2973 01b8 01       		.uleb128 0x1
 2974 01b9 E908     		.uleb128 .LEHB70-.LFB1211
 2975 01bb 2F       		.uleb128 .LEHE70-.LEHB70
 2976 01bc BD09     		.uleb128 .L198-.LFB1211
 2977 01be 00       		.uleb128 0
 2978 01bf 9809     		.uleb128 .LEHB71-.LFB1211
 2979 01c1 05       		.uleb128 .LEHE71-.LEHB71
 2980 01c2 A209     		.uleb128 .L196-.LFB1211
 2981 01c4 00       		.uleb128 0
 2982 01c5 B809     		.uleb128 .LEHB72-.LFB1211
 2983 01c7 05       		.uleb128 .LEHE72-.LEHB72
 2984 01c8 00       		.uleb128 0
 2985 01c9 00       		.uleb128 0
 2986 01ca 850A     		.uleb128 .LEHB73-.LFB1211
 2987 01cc 2F       		.uleb128 .LEHE73-.LEHB73
 2988 01cd D10A     		.uleb128 .L200-.LFB1211
 2989 01cf 00       		.uleb128 0
 2990 01d0 B40A     		.uleb128 .LEHB74-.LFB1211
 2991 01d2 05       		.uleb128 .LEHE74-.LEHB74
 2992 01d3 A209     		.uleb128 .L196-.LFB1211
 2993 01d5 00       		.uleb128 0
 2994              	.LLSDACSE1211:
 2995 01d6 01       		.byte	0x1
 2996 01d7 00       		.byte	0
 2997              		.align 4
 2998 01d8 00000000 		.long	0
 2999              	
 3000              	.LLSDATT1211:
 3001              		.text
 3003              		.section	.rodata.str1.8
 3004 0134 00000000 		.align 8
 3005              	.LC16:
 3006 0138 556E6861 		.string	"Unhandled exception in CHECK_EQUAL(something, something)"
 3006      6E646C65 
 3006      64206578 
 3006      63657074 
 3006      696F6E20 
 3007              		.text
 3008              		.align 2
 3009 0e1e 6690     		.p2align 4,,15
 3011              	_ZNK12_GLOBAL__N_130TestCheckEqualWithUnsignedLong7RunImplEv:
 3012              	.LFB1155:
 3013              		.cfi_startproc
 3014              		.cfi_personality 0x9b,DW.ref.__gxx_personality_v0
 3015              		.cfi_lsda 0x1b,.LLSDA1155
 3016 0e20 55       		pushq	%rbp
 3017              		.cfi_def_cfa_offset 16
 3018              		.cfi_offset 6, -16
 3019 0e21 53       		pushq	%rbx
 3020              		.cfi_def_cfa_offset 24
 3021              		.cfi_offset 3, -24
 3022 0e22 31F6     		xorl	%esi, %esi
 3023 0e24 4883EC58 		subq	$88, %rsp
 3024              		.cfi_def_cfa_offset 112
 3025 0e28 4889E7   		movq	%rsp, %rdi
 3026 0e2b 64488B04 		movq	%fs:40, %rax
 3026      25280000 
 3026      00
 3027 0e34 48894424 		movq	%rax, 72(%rsp)
 3027      48
 3028 0e39 31C0     		xorl	%eax, %eax
 3029              	.LEHB75:
 3030 0e3b E8000000 		call	_ZN8UnitTest11TestResultsC1EPNS_12TestReporterE@PLT
 3030      00
 3031              	.LEHE75:
 3032              	.LEHB76:
 3033 0e40 E8000000 		call	_ZN8UnitTest11CurrentTest7DetailsEv@PLT
 3033      00
 3034 0e45 488B30   		movq	(%rax), %rsi
 3035 0e48 488D7C24 		leaq	32(%rsp), %rdi
 3035      20
 3036 0e4d BA0E0000 		movl	$14, %edx
 3036      00
 3037 0e52 E8000000 		call	_ZN8UnitTest11TestDetailsC1ERKS0_i@PLT
 3037      00
 3038 0e57 E8000000 		call	_ZN8UnitTest11CurrentTest7ResultsEv@PLT
 3038      00
 3039              	.LEHE76:
 3040              	.L211:
 3041 0e5c 488B4424 		movq	72(%rsp), %rax
 3041      48
 3042 0e61 64483304 		xorq	%fs:40, %rax
 3042      25280000 
 3042      00
 3043 0e6a 7507     		jne	.L219
 3044 0e6c 4883C458 		addq	$88, %rsp
 3045              		.cfi_remember_state
 3046              		.cfi_def_cfa_offset 24
 3047 0e70 5B       		popq	%rbx
 3048              		.cfi_def_cfa_offset 16
 3049 0e71 5D       		popq	%rbp
 3050              		.cfi_def_cfa_offset 8
 3051 0e72 C3       		ret
 3052              	.L219:
 3053              		.cfi_restore_state
 3054 0e73 E8000000 		call	__stack_chk_fail@PLT
 3054      00
 3055              	.L216:
 3056 0e78 4889C7   		movq	%rax, %rdi
 3057 0e7b E8000000 		call	__cxa_begin_catch@PLT
 3057      00
 3058              	.LEHB77:
 3059 0e80 E8000000 		call	_ZN8UnitTest11CurrentTest7ResultsEv@PLT
 3059      00
 3060 0e85 488B28   		movq	(%rax), %rbp
 3061 0e88 E8000000 		call	_ZN8UnitTest11CurrentTest7DetailsEv@PLT
 3061      00
 3062 0e8d 488D5C24 		leaq	32(%rsp), %rbx
 3062      20
 3063 0e92 488B30   		movq	(%rax), %rsi
 3064 0e95 BA0E0000 		movl	$14, %edx
 3064      00
 3065 0e9a 4889DF   		movq	%rbx, %rdi
 3066 0e9d E8000000 		call	_ZN8UnitTest11TestDetailsC1ERKS0_i@PLT
 3066      00
 3067 0ea2 488D1500 		leaq	.LC16(%rip), %rdx
 3067      000000
 3068 0ea9 4889DE   		movq	%rbx, %rsi
 3069 0eac 4889EF   		movq	%rbp, %rdi
 3070 0eaf E8000000 		call	_ZN8UnitTest11TestResults13OnTestFailureERKNS_11TestDetailsEPKc@PLT
 3070      00
 3071              	.LEHE77:
 3072              	.LEHB78:
 3073 0eb4 E8000000 		call	__cxa_end_catch@PLT
 3073      00
 3074              	.LEHE78:
 3075 0eb9 EBA1     		jmp	.L211
 3076              	.L217:
 3077 0ebb 4889C3   		movq	%rax, %rbx
 3078 0ebe E8000000 		call	__cxa_end_catch@PLT
 3078      00
 3079 0ec3 4889DF   		movq	%rbx, %rdi
 3080              	.LEHB79:
 3081 0ec6 E8000000 		call	_Unwind_Resume@PLT
 3081      00
 3082              	.LEHE79:
 3083              		.cfi_endproc
 3084              	.LFE1155:
 3085              		.section	.gcc_except_table
 3086              		.align 4
 3087              	.LLSDA1155:
 3088 01dc FF       		.byte	0xff
 3089 01dd 9B       		.byte	0x9b
 3090 01de 21       		.uleb128 .LLSDATT1155-.LLSDATTD1155
 3091              	.LLSDATTD1155:
 3092 01df 01       		.byte	0x1
 3093 01e0 17       		.uleb128 .LLSDACSE1155-.LLSDACSB1155
 3094              	.LLSDACSB1155:
 3095 01e1 1B       		.uleb128 .LEHB75-.LFB1155
 3096 01e2 05       		.uleb128 .LEHE75-.LEHB75
 3097 01e3 00       		.uleb128 0
 3098 01e4 00       		.uleb128 0
 3099 01e5 20       		.uleb128 .LEHB76-.LFB1155
 3100 01e6 1C       		.uleb128 .LEHE76-.LEHB76
 3101 01e7 58       		.uleb128 .L216-.LFB1155
 3102 01e8 01       		.uleb128 0x1
 3103 01e9 60       		.uleb128 .LEHB77-.LFB1155
 3104 01ea 34       		.uleb128 .LEHE77-.LEHB77
 3105 01eb 9B01     		.uleb128 .L217-.LFB1155
 3106 01ed 00       		.uleb128 0
 3107 01ee 9401     		.uleb128 .LEHB78-.LFB1155
 3108 01f0 05       		.uleb128 .LEHE78-.LEHB78
 3109 01f1 00       		.uleb128 0
 3110 01f2 00       		.uleb128 0
 3111 01f3 A601     		.uleb128 .LEHB79-.LFB1155
 3112 01f5 05       		.uleb128 .LEHE79-.LEHB79
 3113 01f6 00       		.uleb128 0
 3114 01f7 00       		.uleb128 0
 3115              	.LLSDACSE1155:
 3116 01f8 01       		.byte	0x1
 3117 01f9 00       		.byte	0
 3118 01fa 0000     		.align 4
 3119 01fc 00000000 		.long	0
 3120              	
 3121              	.LLSDATT1155:
 3122              		.text
 3124              		.section	.rodata.str1.1
 3125              	.LC17:
 3126 002f 302E3031 		.string	"0.01"
 3126      00
 3127              		.section	.rodata.str1.8
 3128 0171 00000000 		.align 8
 3128      000000
 3129              	.LC18:
 3130 0178 73747273 		.string	"strstr(reporter.lastFailedMessage, \"0.01\")"
 3130      74722872 
 3130      65706F72 
 3130      7465722E 
 3130      6C617374 
 3131 01a3 00000000 		.align 8
 3131      00
 3132              	.LC19:
 3133 01a8 556E6861 		.string	"Unhandled exception in CHECK(strstr(reporter.lastFailedMessage, \"0.01\"))"
 3133      6E646C65 
 3133      64206578 
 3133      63657074 
 3133      696F6E20 
 3134              		.text
 3135 0ecb 90       		.align 2
 3136 0ecc 0F1F4000 		.p2align 4,,15
 3138              	_ZNK12_GLOBAL__N_138TestCheckCloseFailureIncludesTolerance7RunImplEv:
 3139              	.LFB1215:
 3140              		.cfi_startproc
 3141              		.cfi_personality 0x9b,DW.ref.__gxx_personality_v0
 3142              		.cfi_lsda 0x1b,.LLSDA1215
 3143 0ed0 4157     		pushq	%r15
 3144              		.cfi_def_cfa_offset 16
 3145              		.cfi_offset 15, -16
 3146 0ed2 4156     		pushq	%r14
 3147              		.cfi_def_cfa_offset 24
 3148              		.cfi_offset 14, -24
 3149 0ed4 4155     		pushq	%r13
 3150              		.cfi_def_cfa_offset 32
 3151              		.cfi_offset 13, -32
 3152 0ed6 4154     		pushq	%r12
 3153              		.cfi_def_cfa_offset 40
 3154              		.cfi_offset 12, -40
 3155 0ed8 4C8D2D00 		leaq	16+_ZTV17RecordingReporter(%rip), %r13
 3155      000000
 3156 0edf 55       		pushq	%rbp
 3157              		.cfi_def_cfa_offset 48
 3158              		.cfi_offset 6, -48
 3159 0ee0 53       		pushq	%rbx
 3160              		.cfi_def_cfa_offset 56
 3161              		.cfi_offset 3, -56
 3162 0ee1 4881EC38 		subq	$2616, %rsp
 3162      0A0000
 3163              		.cfi_def_cfa_offset 2672
 3164 0ee8 488DAC24 		leaq	496(%rsp), %rbp
 3164      F0010000 
 3165 0ef0 4C8D7424 		leaq	16(%rsp), %r14
 3165      10
 3166 0ef5 4C89AC24 		movq	%r13, 496(%rsp)
 3166      F0010000 
 3167 0efd 64488B04 		movq	%fs:40, %rax
 3167      25280000 
 3167      00
 3168 0f06 48898424 		movq	%rax, 2600(%rsp)
 3168      280A0000 
 3169 0f0e 31C0     		xorl	%eax, %eax
 3170 0f10 4889EE   		movq	%rbp, %rsi
 3171 0f13 4C89F7   		movq	%r14, %rdi
 3172 0f16 C78424F8 		movl	$0, 504(%rsp)
 3172      01000000 
 3172      000000
 3173 0f21 C78424FC 		movl	$0, 1020(%rsp)
 3173      03000000 
 3173      000000
 3174 0f2c C7842400 		movl	$0, 1280(%rsp)
 3174      05000000 
 3174      000000
 3175 0f37 C7842404 		movl	$0, 2052(%rsp)
 3175      08000000 
 3175      000000
 3176 0f42 48C78424 		movq	$0, 2568(%rsp)
 3176      080A0000 
 3176      00000000 
 3177 0f4e 48C78424 		movq	$0, 2576(%rsp)
 3177      100A0000 
 3177      00000000 
 3178 0f5a C7842418 		movl	$0, 2584(%rsp)
 3178      0A000000 
 3178      000000
 3179 0f65 C68424FC 		movb	$0, 508(%rsp)
 3179      01000000 
 3180 0f6d C68424FC 		movb	$0, 764(%rsp)
 3180      02000000 
 3181 0f75 C6842400 		movb	$0, 1024(%rsp)
 3181      04000000 
 3182 0f7d C6842404 		movb	$0, 1284(%rsp)
 3182      05000000 
 3183 0f85 C6842404 		movb	$0, 1540(%rsp)
 3183      06000000 
 3184 0f8d C6842404 		movb	$0, 1796(%rsp)
 3184      07000000 
 3185 0f95 C6842408 		movb	$0, 2056(%rsp)
 3185      08000000 
 3186 0f9d C6842408 		movb	$0, 2312(%rsp)
 3186      09000000 
 3187              	.LEHB80:
 3188 0fa5 E8000000 		call	_ZN8UnitTest11TestResultsC1EPNS_12TestReporterE@PLT
 3188      00
 3189 0faa 488D0D00 		leaq	.LC1(%rip), %rcx
 3189      000000
 3190 0fb1 4C8D6424 		leaq	48(%rsp), %r12
 3190      30
 3191 0fb6 4531C0   		xorl	%r8d, %r8d
 3192 0fb9 4889CA   		movq	%rcx, %rdx
 3193 0fbc 4889CE   		movq	%rcx, %rsi
 3194 0fbf 4C89E7   		movq	%r12, %rdi
 3195 0fc2 E8000000 		call	_ZN8UnitTest11TestDetailsC1EPKcS2_S2_i@PLT
 3195      00
 3196              	.LEHE80:
 3197 0fc7 488D5C24 		leaq	80(%rsp), %rbx
 3197      50
 3198 0fcc 4C8D3D00 		leaq	24+_ZTCN8UnitTest15MemoryOutStreamE0_So(%rip), %r15
 3198      000000
 3199 0fd3 488D8390 		leaq	144(%rbx), %rax
 3199      000000
 3200 0fda 4889C7   		movq	%rax, %rdi
 3201 0fdd 48894424 		movq	%rax, 8(%rsp)
 3201      08
 3202 0fe2 E8000000 		call	_ZNSt8ios_baseC2Ev@PLT
 3202      00
 3203 0fe7 498D4728 		leaq	40(%r15), %rax
 3204 0feb 31F6     		xorl	%esi, %esi
 3205 0fed 48C78424 		movq	$0, 440(%rsp)
 3205      B8010000 
 3205      00000000 
 3206 0ff9 C68424C0 		movb	$0, 448(%rsp)
 3206      01000000 
 3207 1001 C68424C1 		movb	$0, 449(%rsp)
 3207      01000000 
 3208 1009 48898424 		movq	%rax, 224(%rsp)
 3208      E0000000 
 3209 1011 488B4424 		movq	8(%rsp), %rax
 3209      08
 3210 1016 48C78424 		movq	$0, 456(%rsp)
 3210      C8010000 
 3210      00000000 
 3211 1022 48C78424 		movq	$0, 464(%rsp)
 3211      D0010000 
 3211      00000000 
 3212 102e 48C78424 		movq	$0, 472(%rsp)
 3212      D8010000 
 3212      00000000 
 3213 103a 48C78424 		movq	$0, 480(%rsp)
 3213      E0010000 
 3213      00000000 
 3214 1046 4889C7   		movq	%rax, %rdi
 3215 1049 4C897C24 		movq	%r15, 80(%rsp)
 3215      50
 3216              	.LEHB81:
 3217 104e E8000000 		call	_ZNSt9basic_iosIcSt11char_traitsIcEE4initEPSt15basic_streambufIcS1_E@PLT
 3217      00
 3218              	.LEHE81:
 3219 1053 488D0500 		leaq	24+_ZTCN8UnitTest15MemoryOutStreamE0_NSt7__cxx1119basic_ostringstreamIcSt11char_traitsIcESaIc
 3219      000000
 3220 105a 660FEFC0 		pxor	%xmm0, %xmm0
 3221 105e 488D7B40 		leaq	64(%rbx), %rdi
 3222 1062 48894424 		movq	%rax, 80(%rsp)
 3222      50
 3223 1067 4883C028 		addq	$40, %rax
 3224 106b 48898424 		movq	%rax, 224(%rsp)
 3224      E0000000 
 3225 1073 488D0500 		leaq	16+_ZTVSt15basic_streambufIcSt11char_traitsIcEE(%rip), %rax
 3225      000000
 3226 107a 0F294424 		movaps	%xmm0, 96(%rsp)
 3226      60
 3227 107f 48894424 		movq	%rax, 88(%rsp)
 3227      58
 3228 1084 0F294424 		movaps	%xmm0, 112(%rsp)
 3228      70
 3229 1089 0F298424 		movaps	%xmm0, 128(%rsp)
 3229      80000000 
 3230 1091 E8000000 		call	_ZNSt6localeC1Ev@PLT
 3230      00
 3231 1096 488D0500 		leaq	16+_ZTVNSt7__cxx1115basic_stringbufIcSt11char_traitsIcESaIcEEE(%rip), %rax
 3231      000000
 3232 109d 488D7308 		leaq	8(%rbx), %rsi
 3233 10a1 48894424 		movq	%rax, 88(%rsp)
 3233      58
 3234 10a6 488D4360 		leaq	96(%rbx), %rax
 3235 10aa C7842498 		movl	$16, 152(%rsp)
 3235      00000010 
 3235      000000
 3236 10b5 48C78424 		movq	$0, 168(%rsp)
 3236      A8000000 
 3236      00000000 
 3237 10c1 C68424B0 		movb	$0, 176(%rsp)
 3237      00000000 
 3238 10c9 48898424 		movq	%rax, 160(%rsp)
 3238      A0000000 
 3239 10d1 488B4424 		movq	80(%rsp), %rax
 3239      50
 3240 10d6 488B78E8 		movq	-24(%rax), %rdi
 3241 10da 4801DF   		addq	%rbx, %rdi
 3242              	.LEHB82:
 3243 10dd E8000000 		call	_ZNSt9basic_iosIcSt11char_traitsIcEE4initEPSt15basic_streambufIcS1_E@PLT
 3243      00
 3244              	.LEHE82:
 3245 10e2 488D0500 		leaq	24+_ZTVN8UnitTest15MemoryOutStreamE(%rip), %rax
 3245      000000
 3246 10e9 488D3500 		leaq	.LC2(%rip), %rsi
 3246      000000
 3247 10f0 BA090000 		movl	$9, %edx
 3247      00
 3248 10f5 4889DF   		movq	%rbx, %rdi
 3249 10f8 48C78424 		movq	$0, 200(%rsp)
 3249      C8000000 
 3249      00000000 
 3250 1104 C68424D0 		movb	$0, 208(%rsp)
 3250      00000000 
 3251 110c 48894424 		movq	%rax, 80(%rsp)
 3251      50
 3252 1111 4883C028 		addq	$40, %rax
 3253 1115 48898424 		movq	%rax, 224(%rsp)
 3253      E0000000 
 3254 111d 488D8380 		leaq	128(%rbx), %rax
 3254      000000
 3255 1124 48898424 		movq	%rax, 192(%rsp)
 3255      C0000000 
 3256              	.LEHB83:
 3257 112c E8000000 		call	_ZSt16__ostream_insertIcSt11char_traitsIcEERSt13basic_ostreamIT_T0_ES6_PKS3_l@PLT
 3257      00
 3258 1131 BE020000 		movl	$2, %esi
 3258      00
 3259 1136 4889DF   		movq	%rbx, %rdi
 3260 1139 E8000000 		call	_ZNSolsEi@PLT
 3260      00
 3261 113e 488D3500 		leaq	.LC4(%rip), %rsi
 3261      000000
 3262 1145 BA050000 		movl	$5, %edx
 3262      00
 3263 114a 4889C7   		movq	%rax, %rdi
 3264 114d 48894424 		movq	%rax, 8(%rsp)
 3264      08
 3265 1152 E8000000 		call	_ZSt16__ostream_insertIcSt11char_traitsIcEERSt13basic_ostreamIT_T0_ES6_PKS3_l@PLT
 3265      00
 3266 1157 488B7C24 		movq	8(%rsp), %rdi
 3266      08
 3267 115c F20F1005 		movsd	.LC5(%rip), %xmm0
 3267      00000000 
 3268 1164 E8000000 		call	_ZNSo9_M_insertIdEERSoT_@PLT
 3268      00
 3269 1169 488D3500 		leaq	.LC6(%rip), %rsi
 3269      000000
 3270 1170 BA090000 		movl	$9, %edx
 3270      00
 3271 1175 4889C7   		movq	%rax, %rdi
 3272 1178 48894424 		movq	%rax, 8(%rsp)
 3272      08
 3273 117d E8000000 		call	_ZSt16__ostream_insertIcSt11char_traitsIcEERSt13basic_ostreamIT_T0_ES6_PKS3_l@PLT
 3273      00
 3274 1182 488B7C24 		movq	8(%rsp), %rdi
 3274      08
 3275 1187 BE030000 		movl	$3, %esi
 3275      00
 3276 118c E8000000 		call	_ZNSolsEi@PLT
 3276      00
 3277 1191 4889DF   		movq	%rbx, %rdi
 3278 1194 E8000000 		call	_ZNK8UnitTest15MemoryOutStream7GetTextEv@PLT
 3278      00
 3279 1199 4889C2   		movq	%rax, %rdx
 3280 119c 4C89E6   		movq	%r12, %rsi
 3281 119f 4C89F7   		movq	%r14, %rdi
 3282 11a2 E8000000 		call	_ZN8UnitTest11TestResults13OnTestFailureERKNS_11TestDetailsEPKc@PLT
 3282      00
 3283              	.LEHE83:
 3284 11a7 488D0500 		leaq	24+_ZTVN8UnitTest15MemoryOutStreamE(%rip), %rax
 3284      000000
 3285 11ae 488BBC24 		movq	192(%rsp), %rdi
 3285      C0000000 
 3286 11b6 48894424 		movq	%rax, 80(%rsp)
 3286      50
 3287 11bb 4883C028 		addq	$40, %rax
 3288 11bf 48898424 		movq	%rax, 224(%rsp)
 3288      E0000000 
 3289 11c7 488D8380 		leaq	128(%rbx), %rax
 3289      000000
 3290 11ce 4839C7   		cmpq	%rax, %rdi
 3291 11d1 7405     		je	.L226
 3292 11d3 E8000000 		call	_ZdlPv@PLT
 3292      00
 3293              	.L226:
 3294 11d8 488D0500 		leaq	64+_ZTCN8UnitTest15MemoryOutStreamE0_NSt7__cxx1119basic_ostringstreamIcSt11char_traitsIcESaIc
 3294      000000
 3295 11df 488BBC24 		movq	160(%rsp), %rdi
 3295      A0000000 
 3296 11e7 F30F7E05 		movq	.LC14(%rip), %xmm0
 3296      00000000 
 3297 11ef 48898424 		movq	%rax, 224(%rsp)
 3297      E0000000 
 3298 11f7 488D4360 		leaq	96(%rbx), %rax
 3299 11fb 0F160500 		movhps	.LC15(%rip), %xmm0
 3299      000000
 3300 1202 4839C7   		cmpq	%rax, %rdi
 3301 1205 0F294424 		movaps	%xmm0, 80(%rsp)
 3301      50
 3302 120a 7405     		je	.L227
 3303 120c E8000000 		call	_ZdlPv@PLT
 3303      00
 3304              	.L227:
 3305 1211 488D0500 		leaq	16+_ZTVSt15basic_streambufIcSt11char_traitsIcEE(%rip), %rax
 3305      000000
 3306 1218 488D7B40 		leaq	64(%rbx), %rdi
 3307 121c 48894424 		movq	%rax, 88(%rsp)
 3307      58
 3308 1221 E8000000 		call	_ZNSt6localeD1Ev@PLT
 3308      00
 3309 1226 488D0500 		leaq	16+_ZTVSt9basic_iosIcSt11char_traitsIcEE(%rip), %rax
 3309      000000
 3310 122d 488DBB90 		leaq	144(%rbx), %rdi
 3310      000000
 3311 1234 4C897C24 		movq	%r15, 80(%rsp)
 3311      50
 3312 1239 48898424 		movq	%rax, 224(%rsp)
 3312      E0000000 
 3313              	.LEHB84:
 3314 1241 E8000000 		call	_ZNSt8ios_baseD2Ev@PLT
 3314      00
 3315              	.LEHE84:
 3316 1246 488DBD14 		leaq	1300(%rbp), %rdi
 3316      050000
 3317 124d 488D3500 		leaq	.LC17(%rip), %rsi
 3317      000000
 3318 1254 E8000000 		call	strstr@PLT
 3318      00
 3319 1259 4885C0   		testq	%rax, %rax
 3320 125c 743A     		je	.L245
 3321              	.L229:
 3322 125e 4889EF   		movq	%rbp, %rdi
 3323 1261 4C89AC24 		movq	%r13, 496(%rsp)
 3323      F0010000 
 3324              	.LEHB85:
 3325 1269 E8000000 		call	_ZN8UnitTest12TestReporterD2Ev@PLT
 3325      00
 3326              	.LEHE85:
 3327 126e 488B8424 		movq	2600(%rsp), %rax
 3327      280A0000 
 3328 1276 64483304 		xorq	%fs:40, %rax
 3328      25280000 
 3328      00
 3329 127f 7548     		jne	.L246
 3330 1281 4881C438 		addq	$2616, %rsp
 3330      0A0000
 3331              		.cfi_remember_state
 3332              		.cfi_def_cfa_offset 56
 3333 1288 5B       		popq	%rbx
 3334              		.cfi_def_cfa_offset 48
 3335 1289 5D       		popq	%rbp
 3336              		.cfi_def_cfa_offset 40
 3337 128a 415C     		popq	%r12
 3338              		.cfi_def_cfa_offset 32
 3339 128c 415D     		popq	%r13
 3340              		.cfi_def_cfa_offset 24
 3341 128e 415E     		popq	%r14
 3342              		.cfi_def_cfa_offset 16
 3343 1290 415F     		popq	%r15
 3344              		.cfi_def_cfa_offset 8
 3345 1292 C3       		ret
 3346              		.p2align 4,,10
 3347 1293 0F1F4400 		.p2align 3
 3347      00
 3348              	.L245:
 3349              		.cfi_restore_state
 3350              	.LEHB86:
 3351 1298 E8000000 		call	_ZN8UnitTest11CurrentTest7ResultsEv@PLT
 3351      00
 3352 129d 488B18   		movq	(%rax), %rbx
 3353 12a0 E8000000 		call	_ZN8UnitTest11CurrentTest7DetailsEv@PLT
 3353      00
 3354 12a5 488B30   		movq	(%rax), %rsi
 3355 12a8 BAA60000 		movl	$166, %edx
 3355      00
 3356 12ad 4C89E7   		movq	%r12, %rdi
 3357 12b0 E8000000 		call	_ZN8UnitTest11TestDetailsC1ERKS0_i@PLT
 3357      00
 3358 12b5 488D1500 		leaq	.LC18(%rip), %rdx
 3358      000000
 3359 12bc 4C89E6   		movq	%r12, %rsi
 3360 12bf 4889DF   		movq	%rbx, %rdi
 3361 12c2 E8000000 		call	_ZN8UnitTest11TestResults13OnTestFailureERKNS_11TestDetailsEPKc@PLT
 3361      00
 3362              	.LEHE86:
 3363 12c7 EB95     		jmp	.L229
 3364              	.L246:
 3365 12c9 E8000000 		call	__stack_chk_fail@PLT
 3365      00
 3366              	.L238:
 3367 12ce 4889DF   		movq	%rbx, %rdi
 3368 12d1 4989C4   		movq	%rax, %r12
 3369 12d4 E8000000 		call	_ZN8UnitTest15MemoryOutStreamD1Ev
 3369      00
 3370              	.L225:
 3371 12d9 4889EF   		movq	%rbp, %rdi
 3372 12dc 4C89AC24 		movq	%r13, 496(%rsp)
 3372      F0010000 
 3373 12e4 E8000000 		call	_ZN8UnitTest12TestReporterD2Ev@PLT
 3373      00
 3374 12e9 4C89E7   		movq	%r12, %rdi
 3375              	.LEHB87:
 3376 12ec E8000000 		call	_Unwind_Resume@PLT
 3376      00
 3377              	.LEHE87:
 3378              	.L240:
 3379 12f1 488D7B08 		leaq	8(%rbx), %rdi
 3380 12f5 4989C4   		movq	%rax, %r12
 3381 12f8 E8000000 		call	_ZNSt7__cxx1115basic_stringbufIcSt11char_traitsIcESaIcEED1Ev
 3381      00
 3382 12fd 4C897C24 		movq	%r15, 80(%rsp)
 3382      50
 3383              	.L223:
 3384 1302 488D0500 		leaq	16+_ZTVSt9basic_iosIcSt11char_traitsIcEE(%rip), %rax
 3384      000000
 3385 1309 488DBB90 		leaq	144(%rbx), %rdi
 3385      000000
 3386 1310 48898424 		movq	%rax, 224(%rsp)
 3386      E0000000 
 3387 1318 E8000000 		call	_ZNSt8ios_baseD2Ev@PLT
 3387      00
 3388 131d EBBA     		jmp	.L225
 3389              	.L239:
 3390 131f 4989C4   		movq	%rax, %r12
 3391 1322 EBDE     		jmp	.L223
 3392              	.L235:
 3393 1324 4989C4   		movq	%rax, %r12
 3394 1327 EBB0     		jmp	.L225
 3395              	.L236:
 3396 1329 4889C7   		movq	%rax, %rdi
 3397 132c E8000000 		call	__cxa_begin_catch@PLT
 3397      00
 3398              	.LEHB88:
 3399 1331 E8000000 		call	_ZN8UnitTest11CurrentTest7ResultsEv@PLT
 3399      00
 3400 1336 488B18   		movq	(%rax), %rbx
 3401 1339 E8000000 		call	_ZN8UnitTest11CurrentTest7DetailsEv@PLT
 3401      00
 3402 133e 488B30   		movq	(%rax), %rsi
 3403 1341 BAA60000 		movl	$166, %edx
 3403      00
 3404 1346 4C89E7   		movq	%r12, %rdi
 3405 1349 E8000000 		call	_ZN8UnitTest11TestDetailsC1ERKS0_i@PLT
 3405      00
 3406 134e 488D1500 		leaq	.LC19(%rip), %rdx
 3406      000000
 3407 1355 4C89E6   		movq	%r12, %rsi
 3408 1358 4889DF   		movq	%rbx, %rdi
 3409 135b E8000000 		call	_ZN8UnitTest11TestResults13OnTestFailureERKNS_11TestDetailsEPKc@PLT
 3409      00
 3410              	.LEHE88:
 3411              	.LEHB89:
 3412 1360 E8000000 		call	__cxa_end_catch@PLT
 3412      00
 3413              	.LEHE89:
 3414 1365 E9F4FEFF 		jmp	.L229
 3414      FF
 3415              	.L237:
 3416 136a 4989C4   		movq	%rax, %r12
 3417 136d E8000000 		call	__cxa_end_catch@PLT
 3417      00
 3418 1372 E962FFFF 		jmp	.L225
 3418      FF
 3419              		.cfi_endproc
 3420              	.LFE1215:
 3421              		.section	.gcc_except_table
 3422              		.align 4
 3423              	.LLSDA1215:
 3424 0200 FF       		.byte	0xff
 3425 0201 9B       		.byte	0x9b
 3426 0202 45       		.uleb128 .LLSDATT1215-.LLSDATTD1215
 3427              	.LLSDATTD1215:
 3428 0203 01       		.byte	0x1
 3429 0204 3A       		.uleb128 .LLSDACSE1215-.LLSDACSB1215
 3430              	.LLSDACSB1215:
 3431 0205 D501     		.uleb128 .LEHB80-.LFB1215
 3432 0207 22       		.uleb128 .LEHE80-.LEHB80
 3433 0208 D408     		.uleb128 .L235-.LFB1215
 3434 020a 00       		.uleb128 0
 3435 020b FE02     		.uleb128 .LEHB81-.LFB1215
 3436 020d 05       		.uleb128 .LEHE81-.LEHB81
 3437 020e CF08     		.uleb128 .L239-.LFB1215
 3438 0210 00       		.uleb128 0
 3439 0211 8D04     		.uleb128 .LEHB82-.LFB1215
 3440 0213 05       		.uleb128 .LEHE82-.LEHB82
 3441 0214 A108     		.uleb128 .L240-.LFB1215
 3442 0216 00       		.uleb128 0
 3443 0217 DC04     		.uleb128 .LEHB83-.LFB1215
 3444 0219 7B       		.uleb128 .LEHE83-.LEHB83
 3445 021a FE07     		.uleb128 .L238-.LFB1215
 3446 021c 00       		.uleb128 0
 3447 021d F106     		.uleb128 .LEHB84-.LFB1215
 3448 021f 05       		.uleb128 .LEHE84-.LEHB84
 3449 0220 D408     		.uleb128 .L235-.LFB1215
 3450 0222 00       		.uleb128 0
 3451 0223 9907     		.uleb128 .LEHB85-.LFB1215
 3452 0225 05       		.uleb128 .LEHE85-.LEHB85
 3453 0226 00       		.uleb128 0
 3454 0227 00       		.uleb128 0
 3455 0228 C807     		.uleb128 .LEHB86-.LFB1215
 3456 022a 2F       		.uleb128 .LEHE86-.LEHB86
 3457 022b D908     		.uleb128 .L236-.LFB1215
 3458 022d 01       		.uleb128 0x1
 3459 022e 9C08     		.uleb128 .LEHB87-.LFB1215
 3460 0230 05       		.uleb128 .LEHE87-.LEHB87
 3461 0231 00       		.uleb128 0
 3462 0232 00       		.uleb128 0
 3463 0233 E108     		.uleb128 .LEHB88-.LFB1215
 3464 0235 2F       		.uleb128 .LEHE88-.LEHB88
 3465 0236 9A09     		.uleb128 .L237-.LFB1215
 3466 0238 00       		.uleb128 0
 3467 0239 9009     		.uleb128 .LEHB89-.LFB1215
 3468 023b 05       		.uleb128 .LEHE89-.LEHB89
 3469 023c D408     		.uleb128 .L235-.LFB1215
 3470 023e 00       		.uleb128 0
 3471              	.LLSDACSE1215:
 3472 023f 01       		.byte	0x1
 3473 0240 00       		.byte	0
 3474 0241 000000   		.align 4
 3475 0244 00000000 		.long	0
 3476              	
 3477              	.LLSDATT1215:
 3478              		.text
 3480              		.section	.rodata.str1.1
 3481              	.LC20:
 3482 0034 45787065 		.string	"Expected [ "
 3482      63746564 
 3482      205B2000 
 3483              	.LC21:
 3484 0040 5B2000   		.string	"[ "
 3485              	.LC22:
 3486 0043 2000     		.string	" "
 3487              	.LC23:
 3488 0045 5D2000   		.string	"] "
 3489              	.LC24:
 3490 0048 5D202B2F 		.string	"] +/- "
 3490      2D2000
 3491              	.LC25:
 3492 004f 20627574 		.string	" but was [ "
 3492      20776173 
 3492      205B2000 
 3493              	.LC26:
 3494 005b 5D00     		.string	"]"
 3495              		.text
 3496 1377 660F1F84 		.p2align 4,,15
 3496      00000000 
 3496      00
 3498              	_ZN8UnitTest17CheckArray2DCloseIA3_A3_fS2_fEEvRNS_11TestResultsERKT_RKT0_iiRKT1_RKNS_11TestDetailsE
 3499              	.LFB1493:
 3500              		.cfi_startproc
 3501              		.cfi_personality 0x9b,DW.ref.__gxx_personality_v0
 3502              		.cfi_lsda 0x1b,.LLSDA1493
 3503 1380 4157     		pushq	%r15
 3504              		.cfi_def_cfa_offset 16
 3505              		.cfi_offset 15, -16
 3506 1382 4156     		pushq	%r14
 3507              		.cfi_def_cfa_offset 24
 3508              		.cfi_offset 14, -24
 3509 1384 4989CF   		movq	%rcx, %r15
 3510 1387 4155     		pushq	%r13
 3511              		.cfi_def_cfa_offset 32
 3512              		.cfi_offset 13, -32
 3513 1389 4154     		pushq	%r12
 3514              		.cfi_def_cfa_offset 40
 3515              		.cfi_offset 12, -40
 3516 138b 4989D4   		movq	%rdx, %r12
 3517 138e 55       		pushq	%rbp
 3518              		.cfi_def_cfa_offset 48
 3519              		.cfi_offset 6, -48
 3520 138f 53       		pushq	%rbx
 3521              		.cfi_def_cfa_offset 56
 3522              		.cfi_offset 3, -56
 3523 1390 4889F5   		movq	%rsi, %rbp
 3524 1393 4881ECC8 		subq	$456, %rsp
 3524      010000
 3525              		.cfi_def_cfa_offset 512
 3526 139a F30F100E 		movss	(%rsi), %xmm1
 3527 139e 48897C24 		movq	%rdi, 16(%rsp)
 3527      10
 3528 13a3 0F28D9   		movaps	%xmm1, %xmm3
 3529 13a6 F30F1001 		movss	(%rcx), %xmm0
 3530 13aa F30F1012 		movss	(%rdx), %xmm2
 3531 13ae 4C894424 		movq	%r8, 24(%rsp)
 3531      18
 3532 13b3 F30F5CD8 		subss	%xmm0, %xmm3
 3533 13b7 64488B04 		movq	%fs:40, %rax
 3533      25280000 
 3533      00
 3534 13c0 48898424 		movq	%rax, 440(%rsp)
 3534      B8010000 
 3535 13c8 31C0     		xorl	%eax, %eax
 3536 13ca 31C0     		xorl	%eax, %eax
 3537 13cc 0F2ED3   		ucomiss	%xmm3, %xmm2
 3538 13cf 720A     		jb	.L248
 3539 13d1 F30F58C8 		addss	%xmm0, %xmm1
 3540 13d5 0F2ECA   		ucomiss	%xmm2, %xmm1
 3541 13d8 0F93C0   		setnb	%al
 3542              	.L248:
 3543 13db F30F104D 		movss	4(%rbp), %xmm1
 3543      04
 3544 13e0 0F28D9   		movaps	%xmm1, %xmm3
 3545 13e3 F3410F10 		movss	4(%r12), %xmm2
 3545      542404
 3546 13ea F30F5CD8 		subss	%xmm0, %xmm3
 3547 13ee 0F2ED3   		ucomiss	%xmm3, %xmm2
 3548 13f1 0F82C904 		jb	.L317
 3548      0000
 3549 13f7 F30F58C8 		addss	%xmm0, %xmm1
 3550 13fb BA000000 		movl	$0, %edx
 3550      00
 3551 1400 0F2ECA   		ucomiss	%xmm2, %xmm1
 3552 1403 0F42C2   		cmovb	%edx, %eax
 3553              	.L250:
 3554 1406 F30F104D 		movss	8(%rbp), %xmm1
 3554      08
 3555 140b 0F28D9   		movaps	%xmm1, %xmm3
 3556 140e F3410F10 		movss	8(%r12), %xmm2
 3556      542408
 3557 1415 F30F5CD8 		subss	%xmm0, %xmm3
 3558 1419 0F2ED3   		ucomiss	%xmm3, %xmm2
 3559 141c 0F828E04 		jb	.L318
 3559      0000
 3560 1422 F30F58C8 		addss	%xmm0, %xmm1
 3561 1426 BA000000 		movl	$0, %edx
 3561      00
 3562 142b 0F2ECA   		ucomiss	%xmm2, %xmm1
 3563 142e 0F42C2   		cmovb	%edx, %eax
 3564              	.L253:
 3565 1431 F30F104D 		movss	12(%rbp), %xmm1
 3565      0C
 3566 1436 31D2     		xorl	%edx, %edx
 3567 1438 0F28D9   		movaps	%xmm1, %xmm3
 3568 143b F3410F10 		movss	12(%r12), %xmm2
 3568      54240C
 3569 1442 F30F5CD8 		subss	%xmm0, %xmm3
 3570 1446 0F2ED3   		ucomiss	%xmm3, %xmm2
 3571 1449 720A     		jb	.L255
 3572 144b F30F58C8 		addss	%xmm0, %xmm1
 3573 144f 0F2ECA   		ucomiss	%xmm2, %xmm1
 3574 1452 0F93C2   		setnb	%dl
 3575              	.L255:
 3576 1455 F30F104D 		movss	16(%rbp), %xmm1
 3576      10
 3577 145a 0F28D9   		movaps	%xmm1, %xmm3
 3578 145d F3410F10 		movss	16(%r12), %xmm2
 3578      542410
 3579 1464 F30F5CD8 		subss	%xmm0, %xmm3
 3580 1468 0F2ED3   		ucomiss	%xmm3, %xmm2
 3581 146b 0F822F04 		jb	.L320
 3581      0000
 3582 1471 F30F58C8 		addss	%xmm0, %xmm1
 3583 1475 B9000000 		movl	$0, %ecx
 3583      00
 3584 147a 0F2ECA   		ucomiss	%xmm2, %xmm1
 3585 147d 0F42D1   		cmovb	%ecx, %edx
 3586              	.L257:
 3587 1480 F30F104D 		movss	20(%rbp), %xmm1
 3587      14
 3588 1485 0F28D9   		movaps	%xmm1, %xmm3
 3589 1488 F3410F10 		movss	20(%r12), %xmm2
 3589      542414
 3590 148f F30F5CD8 		subss	%xmm0, %xmm3
 3591 1493 0F2ED3   		ucomiss	%xmm3, %xmm2
 3592 1496 0F82F403 		jb	.L321
 3592      0000
 3593 149c F30F58C8 		addss	%xmm0, %xmm1
 3594 14a0 21D0     		andl	%edx, %eax
 3595 14a2 BA000000 		movl	$0, %edx
 3595      00
 3596 14a7 0F2ECA   		ucomiss	%xmm2, %xmm1
 3597 14aa 0F42C2   		cmovb	%edx, %eax
 3598              	.L260:
 3599 14ad F30F104D 		movss	24(%rbp), %xmm1
 3599      18
 3600 14b2 31D2     		xorl	%edx, %edx
 3601 14b4 0F28D9   		movaps	%xmm1, %xmm3
 3602 14b7 F3410F10 		movss	24(%r12), %xmm2
 3602      542418
 3603 14be F30F5CD8 		subss	%xmm0, %xmm3
 3604 14c2 0F2ED3   		ucomiss	%xmm3, %xmm2
 3605 14c5 720A     		jb	.L263
 3606 14c7 F30F58C8 		addss	%xmm0, %xmm1
 3607 14cb 0F2ECA   		ucomiss	%xmm2, %xmm1
 3608 14ce 0F93C2   		setnb	%dl
 3609              	.L263:
 3610 14d1 F30F104D 		movss	28(%rbp), %xmm1
 3610      1C
 3611 14d6 0F28D9   		movaps	%xmm1, %xmm3
 3612 14d9 F3410F10 		movss	28(%r12), %xmm2
 3612      54241C
 3613 14e0 F30F5CD8 		subss	%xmm0, %xmm3
 3614 14e4 0F2ED3   		ucomiss	%xmm3, %xmm2
 3615 14e7 0F829B03 		jb	.L323
 3615      0000
 3616 14ed F30F58C8 		addss	%xmm0, %xmm1
 3617 14f1 B9000000 		movl	$0, %ecx
 3617      00
 3618 14f6 0F2ECA   		ucomiss	%xmm2, %xmm1
 3619 14f9 0F42D1   		cmovb	%ecx, %edx
 3620              	.L265:
 3621 14fc F30F1055 		movss	32(%rbp), %xmm2
 3621      20
 3622 1501 0F28DA   		movaps	%xmm2, %xmm3
 3623 1504 F3410F10 		movss	32(%r12), %xmm1
 3623      4C2420
 3624 150b F30F5CD8 		subss	%xmm0, %xmm3
 3625 150f 0F2ECB   		ucomiss	%xmm3, %xmm1
 3626 1512 0F83B803 		jnb	.L327
 3626      0000
 3627              	.L267:
 3628 1518 488D5C24 		leaq	32(%rsp), %rbx
 3628      20
 3629 151d 4C8DAB90 		leaq	144(%rbx), %r13
 3629      000000
 3630 1524 4C89EF   		movq	%r13, %rdi
 3631 1527 E8000000 		call	_ZNSt8ios_baseC2Ev@PLT
 3631      00
 3632 152c 488D0500 		leaq	24+_ZTCN8UnitTest15MemoryOutStreamE0_So(%rip), %rax
 3632      000000
 3633 1533 31F6     		xorl	%esi, %esi
 3634 1535 4C89EF   		movq	%r13, %rdi
 3635 1538 48C78424 		movq	$0, 392(%rsp)
 3635      88010000 
 3635      00000000 
 3636 1544 C6842490 		movb	$0, 400(%rsp)
 3636      01000000 
 3637 154c 48894424 		movq	%rax, 32(%rsp)
 3637      20
 3638 1551 4883C028 		addq	$40, %rax
 3639 1555 C6842491 		movb	$0, 401(%rsp)
 3639      01000000 
 3640 155d 48C78424 		movq	$0, 408(%rsp)
 3640      98010000 
 3640      00000000 
 3641 1569 48C78424 		movq	$0, 416(%rsp)
 3641      A0010000 
 3641      00000000 
 3642 1575 48C78424 		movq	$0, 424(%rsp)
 3642      A8010000 
 3642      00000000 
 3643 1581 48C78424 		movq	$0, 432(%rsp)
 3643      B0010000 
 3643      00000000 
 3644 158d 48898424 		movq	%rax, 176(%rsp)
 3644      B0000000 
 3645              	.LEHB90:
 3646 1595 E8000000 		call	_ZNSt9basic_iosIcSt11char_traitsIcEE4initEPSt15basic_streambufIcS1_E@PLT
 3646      00
 3647              	.LEHE90:
 3648 159a 488D0500 		leaq	24+_ZTCN8UnitTest15MemoryOutStreamE0_NSt7__cxx1119basic_ostringstreamIcSt11char_traitsIcESaIc
 3648      000000
 3649 15a1 660FEFC0 		pxor	%xmm0, %xmm0
 3650 15a5 488D7B40 		leaq	64(%rbx), %rdi
 3651 15a9 48894424 		movq	%rax, 32(%rsp)
 3651      20
 3652 15ae 4883C028 		addq	$40, %rax
 3653 15b2 48898424 		movq	%rax, 176(%rsp)
 3653      B0000000 
 3654 15ba 488D0500 		leaq	16+_ZTVSt15basic_streambufIcSt11char_traitsIcEE(%rip), %rax
 3654      000000
 3655 15c1 0F294424 		movaps	%xmm0, 48(%rsp)
 3655      30
 3656 15c6 48894424 		movq	%rax, 40(%rsp)
 3656      28
 3657 15cb 0F294424 		movaps	%xmm0, 64(%rsp)
 3657      40
 3658 15d0 0F294424 		movaps	%xmm0, 80(%rsp)
 3658      50
 3659 15d5 E8000000 		call	_ZNSt6localeC1Ev@PLT
 3659      00
 3660 15da 488D0500 		leaq	16+_ZTVNSt7__cxx1115basic_stringbufIcSt11char_traitsIcESaIcEEE(%rip), %rax
 3660      000000
 3661 15e1 488D7308 		leaq	8(%rbx), %rsi
 3662 15e5 48894424 		movq	%rax, 40(%rsp)
 3662      28
 3663 15ea 488D4360 		leaq	96(%rbx), %rax
 3664 15ee C7442468 		movl	$16, 104(%rsp)
 3664      10000000 
 3665 15f6 48C74424 		movq	$0, 120(%rsp)
 3665      78000000 
 3665      00
 3666 15ff C6842480 		movb	$0, 128(%rsp)
 3666      00000000 
 3667 1607 48894424 		movq	%rax, 112(%rsp)
 3667      70
 3668 160c 488B4424 		movq	32(%rsp), %rax
 3668      20
 3669 1611 488B78E8 		movq	-24(%rax), %rdi
 3670 1615 4801DF   		addq	%rbx, %rdi
 3671              	.LEHB91:
 3672 1618 E8000000 		call	_ZNSt9basic_iosIcSt11char_traitsIcEE4initEPSt15basic_streambufIcS1_E@PLT
 3672      00
 3673              	.LEHE91:
 3674 161d 488D0500 		leaq	24+_ZTVN8UnitTest15MemoryOutStreamE(%rip), %rax
 3674      000000
 3675 1624 488D3500 		leaq	.LC20(%rip), %rsi
 3675      000000
 3676 162b BA0B0000 		movl	$11, %edx
 3676      00
 3677 1630 4889DF   		movq	%rbx, %rdi
 3678 1633 48C78424 		movq	$0, 152(%rsp)
 3678      98000000 
 3678      00000000 
 3679 163f C68424A0 		movb	$0, 160(%rsp)
 3679      00000000 
 3680 1647 48894424 		movq	%rax, 32(%rsp)
 3680      20
 3681 164c 4883C028 		addq	$40, %rax
 3682 1650 48898424 		movq	%rax, 176(%rsp)
 3682      B0000000 
 3683 1658 488D8380 		leaq	128(%rbx), %rax
 3683      000000
 3684 165f 48898424 		movq	%rax, 144(%rsp)
 3684      90000000 
 3685              	.LEHB92:
 3686 1667 E8000000 		call	_ZSt16__ostream_insertIcSt11char_traitsIcEERSt13basic_ostreamIT_T0_ES6_PKS3_l@PLT
 3686      00
 3687 166c 488D4530 		leaq	48(%rbp), %rax
 3688 1670 4C8D6D0C 		leaq	12(%rbp), %r13
 3689 1674 4C8D3500 		leaq	.LC22(%rip), %r14
 3689      000000
 3690 167b 48894424 		movq	%rax, 8(%rsp)
 3690      08
 3691              	.L277:
 3692 1680 488D3500 		leaq	.LC21(%rip), %rsi
 3692      000000
 3693 1687 BA020000 		movl	$2, %edx
 3693      00
 3694 168c 4889DF   		movq	%rbx, %rdi
 3695 168f E8000000 		call	_ZSt16__ostream_insertIcSt11char_traitsIcEERSt13basic_ostreamIT_T0_ES6_PKS3_l@PLT
 3695      00
 3696 1694 498D6DF4 		leaq	-12(%r13), %rbp
 3697              	.L276:
 3698 1698 660FEFC0 		pxor	%xmm0, %xmm0
 3699 169c 4889DF   		movq	%rbx, %rdi
 3700 169f F30F5A45 		cvtss2sd	0(%rbp), %xmm0
 3700      00
 3701 16a4 E8000000 		call	_ZNSo9_M_insertIdEERSoT_@PLT
 3701      00
 3702 16a9 BA010000 		movl	$1, %edx
 3702      00
 3703 16ae 4C89F6   		movq	%r14, %rsi
 3704 16b1 4889C7   		movq	%rax, %rdi
 3705 16b4 E8000000 		call	_ZSt16__ostream_insertIcSt11char_traitsIcEERSt13basic_ostreamIT_T0_ES6_PKS3_l@PLT
 3705      00
 3706 16b9 4883C504 		addq	$4, %rbp
 3707 16bd 4C39ED   		cmpq	%r13, %rbp
 3708 16c0 75D6     		jne	.L276
 3709 16c2 488D3500 		leaq	.LC23(%rip), %rsi
 3709      000000
 3710 16c9 BA020000 		movl	$2, %edx
 3710      00
 3711 16ce 4889DF   		movq	%rbx, %rdi
 3712 16d1 E8000000 		call	_ZSt16__ostream_insertIcSt11char_traitsIcEERSt13basic_ostreamIT_T0_ES6_PKS3_l@PLT
 3712      00
 3713 16d6 4983C50C 		addq	$12, %r13
 3714 16da 4C3B6C24 		cmpq	8(%rsp), %r13
 3714      08
 3715 16df 759F     		jne	.L277
 3716 16e1 488D3500 		leaq	.LC24(%rip), %rsi
 3716      000000
 3717 16e8 BA060000 		movl	$6, %edx
 3717      00
 3718 16ed 4889DF   		movq	%rbx, %rdi
 3719 16f0 E8000000 		call	_ZSt16__ostream_insertIcSt11char_traitsIcEERSt13basic_ostreamIT_T0_ES6_PKS3_l@PLT
 3719      00
 3720 16f5 660FEFC0 		pxor	%xmm0, %xmm0
 3721 16f9 4889DF   		movq	%rbx, %rdi
 3722 16fc F3410F5A 		cvtss2sd	(%r15), %xmm0
 3722      07
 3723 1701 E8000000 		call	_ZNSo9_M_insertIdEERSoT_@PLT
 3723      00
 3724 1706 488D3500 		leaq	.LC25(%rip), %rsi
 3724      000000
 3725 170d BA0B0000 		movl	$11, %edx
 3725      00
 3726 1712 4889C7   		movq	%rax, %rdi
 3727 1715 E8000000 		call	_ZSt16__ostream_insertIcSt11char_traitsIcEERSt13basic_ostreamIT_T0_ES6_PKS3_l@PLT
 3727      00
 3728 171a 4C8D3500 		leaq	.LC22(%rip), %r14
 3728      000000
 3729 1721 4D8D6C24 		leaq	12(%r12), %r13
 3729      0C
 3730 1726 4983C430 		addq	$48, %r12
 3731              	.L279:
 3732 172a 488D3500 		leaq	.LC21(%rip), %rsi
 3732      000000
 3733 1731 BA020000 		movl	$2, %edx
 3733      00
 3734 1736 4889DF   		movq	%rbx, %rdi
 3735 1739 E8000000 		call	_ZSt16__ostream_insertIcSt11char_traitsIcEERSt13basic_ostreamIT_T0_ES6_PKS3_l@PLT
 3735      00
 3736 173e 498D6DF4 		leaq	-12(%r13), %rbp
 3737              	.L278:
 3738 1742 660FEFC0 		pxor	%xmm0, %xmm0
 3739 1746 4889DF   		movq	%rbx, %rdi
 3740 1749 F30F5A45 		cvtss2sd	0(%rbp), %xmm0
 3740      00
 3741 174e E8000000 		call	_ZNSo9_M_insertIdEERSoT_@PLT
 3741      00
 3742 1753 BA010000 		movl	$1, %edx
 3742      00
 3743 1758 4C89F6   		movq	%r14, %rsi
 3744 175b 4889C7   		movq	%rax, %rdi
 3745 175e E8000000 		call	_ZSt16__ostream_insertIcSt11char_traitsIcEERSt13basic_ostreamIT_T0_ES6_PKS3_l@PLT
 3745      00
 3746 1763 4883C504 		addq	$4, %rbp
 3747 1767 4C39ED   		cmpq	%r13, %rbp
 3748 176a 75D6     		jne	.L278
 3749 176c 488D3500 		leaq	.LC23(%rip), %rsi
 3749      000000
 3750 1773 BA020000 		movl	$2, %edx
 3750      00
 3751 1778 4889DF   		movq	%rbx, %rdi
 3752 177b E8000000 		call	_ZSt16__ostream_insertIcSt11char_traitsIcEERSt13basic_ostreamIT_T0_ES6_PKS3_l@PLT
 3752      00
 3753 1780 4983C50C 		addq	$12, %r13
 3754 1784 4D39E5   		cmpq	%r12, %r13
 3755 1787 75A1     		jne	.L279
 3756 1789 488D3500 		leaq	.LC26(%rip), %rsi
 3756      000000
 3757 1790 BA010000 		movl	$1, %edx
 3757      00
 3758 1795 4889DF   		movq	%rbx, %rdi
 3759 1798 E8000000 		call	_ZSt16__ostream_insertIcSt11char_traitsIcEERSt13basic_ostreamIT_T0_ES6_PKS3_l@PLT
 3759      00
 3760 179d 4889DF   		movq	%rbx, %rdi
 3761 17a0 E8000000 		call	_ZNK8UnitTest15MemoryOutStream7GetTextEv@PLT
 3761      00
 3762 17a5 488B7424 		movq	24(%rsp), %rsi
 3762      18
 3763 17aa 488B7C24 		movq	16(%rsp), %rdi
 3763      10
 3764 17af 4889C2   		movq	%rax, %rdx
 3765 17b2 E8000000 		call	_ZN8UnitTest11TestResults13OnTestFailureERKNS_11TestDetailsEPKc@PLT
 3765      00
 3766              	.LEHE92:
 3767 17b7 488D0500 		leaq	24+_ZTVN8UnitTest15MemoryOutStreamE(%rip), %rax
 3767      000000
 3768 17be 488BBC24 		movq	144(%rsp), %rdi
 3768      90000000 
 3769 17c6 48894424 		movq	%rax, 32(%rsp)
 3769      20
 3770 17cb 4883C028 		addq	$40, %rax
 3771 17cf 48898424 		movq	%rax, 176(%rsp)
 3771      B0000000 
 3772 17d7 488D8380 		leaq	128(%rbx), %rax
 3772      000000
 3773 17de 4839C7   		cmpq	%rax, %rdi
 3774 17e1 7405     		je	.L280
 3775 17e3 E8000000 		call	_ZdlPv@PLT
 3775      00
 3776              	.L280:
 3777 17e8 488D0500 		leaq	64+_ZTCN8UnitTest15MemoryOutStreamE0_NSt7__cxx1119basic_ostringstreamIcSt11char_traitsIcESaIc
 3777      000000
 3778 17ef 488B7C24 		movq	112(%rsp), %rdi
 3778      70
 3779 17f4 F30F7E05 		movq	.LC14(%rip), %xmm0
 3779      00000000 
 3780 17fc 48898424 		movq	%rax, 176(%rsp)
 3780      B0000000 
 3781 1804 488D4360 		leaq	96(%rbx), %rax
 3782 1808 0F160500 		movhps	.LC15(%rip), %xmm0
 3782      000000
 3783 180f 4839C7   		cmpq	%rax, %rdi
 3784 1812 0F294424 		movaps	%xmm0, 32(%rsp)
 3784      20
 3785 1817 7405     		je	.L281
 3786 1819 E8000000 		call	_ZdlPv@PLT
 3786      00
 3787              	.L281:
 3788 181e 488D0500 		leaq	16+_ZTVSt15basic_streambufIcSt11char_traitsIcEE(%rip), %rax
 3788      000000
 3789 1825 488D7B40 		leaq	64(%rbx), %rdi
 3790 1829 48894424 		movq	%rax, 40(%rsp)
 3790      28
 3791 182e E8000000 		call	_ZNSt6localeD1Ev@PLT
 3791      00
 3792 1833 488D0500 		leaq	24+_ZTCN8UnitTest15MemoryOutStreamE0_So(%rip), %rax
 3792      000000
 3793 183a 488DBB90 		leaq	144(%rbx), %rdi
 3793      000000
 3794 1841 48894424 		movq	%rax, 32(%rsp)
 3794      20
 3795 1846 488D0500 		leaq	16+_ZTVSt9basic_iosIcSt11char_traitsIcEE(%rip), %rax
 3795      000000
 3796 184d 48898424 		movq	%rax, 176(%rsp)
 3796      B0000000 
 3797              	.LEHB93:
 3798 1855 E8000000 		call	_ZNSt8ios_baseD2Ev@PLT
 3798      00
 3799              	.LEHE93:
 3800              	.L247:
 3801 185a 488B8424 		movq	440(%rsp), %rax
 3801      B8010000 
 3802 1862 64483304 		xorq	%fs:40, %rax
 3802      25280000 
 3802      00
 3803 186b 0F858100 		jne	.L328
 3803      0000
 3804 1871 4881C4C8 		addq	$456, %rsp
 3804      010000
 3805              		.cfi_remember_state
 3806              		.cfi_def_cfa_offset 56
 3807 1878 5B       		popq	%rbx
 3808              		.cfi_def_cfa_offset 48
 3809 1879 5D       		popq	%rbp
 3810              		.cfi_def_cfa_offset 40
 3811 187a 415C     		popq	%r12
 3812              		.cfi_def_cfa_offset 32
 3813 187c 415D     		popq	%r13
 3814              		.cfi_def_cfa_offset 24
 3815 187e 415E     		popq	%r14
 3816              		.cfi_def_cfa_offset 16
 3817 1880 415F     		popq	%r15
 3818              		.cfi_def_cfa_offset 8
 3819 1882 C3       		ret
 3820              		.p2align 4,,10
 3821 1883 0F1F4400 		.p2align 3
 3821      00
 3822              	.L323:
 3823              		.cfi_restore_state
 3824 1888 31D2     		xorl	%edx, %edx
 3825 188a E96DFCFF 		jmp	.L265
 3825      FF
 3826 188f 90       		.p2align 4,,10
 3827              		.p2align 3
 3828              	.L321:
 3829 1890 31C0     		xorl	%eax, %eax
 3830 1892 E916FCFF 		jmp	.L260
 3830      FF
 3831 1897 660F1F84 		.p2align 4,,10
 3831      00000000 
 3831      00
 3832              		.p2align 3
 3833              	.L320:
 3834 18a0 31D2     		xorl	%edx, %edx
 3835 18a2 E9D9FBFF 		jmp	.L257
 3835      FF
 3836 18a7 660F1F84 		.p2align 4,,10
 3836      00000000 
 3836      00
 3837              		.p2align 3
 3838              	.L318:
 3839 18b0 31C0     		xorl	%eax, %eax
 3840 18b2 E97AFBFF 		jmp	.L253
 3840      FF
 3841 18b7 660F1F84 		.p2align 4,,10
 3841      00000000 
 3841      00
 3842              		.p2align 3
 3843              	.L317:
 3844 18c0 31C0     		xorl	%eax, %eax
 3845 18c2 E93FFBFF 		jmp	.L250
 3845      FF
 3846 18c7 660F1F84 		.p2align 4,,10
 3846      00000000 
 3846      00
 3847              		.p2align 3
 3848              	.L327:
 3849 18d0 F30F58C2 		addss	%xmm2, %xmm0
 3850 18d4 0F2EC1   		ucomiss	%xmm1, %xmm0
 3851 18d7 0F823BFC 		jb	.L267
 3851      FFFF
 3852 18dd 84D2     		testb	%dl, %dl
 3853 18df 0F8433FC 		je	.L267
 3853      FFFF
 3854 18e5 84C0     		testb	%al, %al
 3855 18e7 0F856DFF 		jne	.L247
 3855      FFFF
 3856 18ed E926FCFF 		jmp	.L267
 3856      FF
 3857              	.L328:
 3858 18f2 E8000000 		call	__stack_chk_fail@PLT
 3858      00
 3859              	.L296:
 3860 18f7 4889C5   		movq	%rax, %rbp
 3861              	.L274:
 3862 18fa 488D0500 		leaq	16+_ZTVSt9basic_iosIcSt11char_traitsIcEE(%rip), %rax
 3862      000000
 3863 1901 488DBB90 		leaq	144(%rbx), %rdi
 3863      000000
 3864 1908 48898424 		movq	%rax, 176(%rsp)
 3864      B0000000 
 3865 1910 E8000000 		call	_ZNSt8ios_baseD2Ev@PLT
 3865      00
 3866 1915 4889EF   		movq	%rbp, %rdi
 3867              	.LEHB94:
 3868 1918 E8000000 		call	_Unwind_Resume@PLT
 3868      00
 3869              	.LEHE94:
 3870              	.L295:
 3871 191d 4889C5   		movq	%rax, %rbp
 3872 1920 4889DF   		movq	%rbx, %rdi
 3873 1923 E8000000 		call	_ZN8UnitTest15MemoryOutStreamD1Ev
 3873      00
 3874 1928 4889EF   		movq	%rbp, %rdi
 3875              	.LEHB95:
 3876 192b E8000000 		call	_Unwind_Resume@PLT
 3876      00
 3877              	.LEHE95:
 3878              	.L297:
 3879 1930 488D7B08 		leaq	8(%rbx), %rdi
 3880 1934 4889C5   		movq	%rax, %rbp
 3881 1937 E8000000 		call	_ZNSt7__cxx1115basic_stringbufIcSt11char_traitsIcESaIcEED1Ev
 3881      00
 3882 193c 488D0500 		leaq	24+_ZTCN8UnitTest15MemoryOutStreamE0_So(%rip), %rax
 3882      000000
 3883 1943 48894424 		movq	%rax, 32(%rsp)
 3883      20
 3884 1948 EBB0     		jmp	.L274
 3885              		.cfi_endproc
 3886              	.LFE1493:
 3887              		.section	.gcc_except_table
 3888              	.LLSDA1493:
 3889 0248 FF       		.byte	0xff
 3890 0249 FF       		.byte	0xff
 3891 024a 01       		.byte	0x1
 3892 024b 22       		.uleb128 .LLSDACSE1493-.LLSDACSB1493
 3893              	.LLSDACSB1493:
 3894 024c 9504     		.uleb128 .LEHB90-.LFB1493
 3895 024e 05       		.uleb128 .LEHE90-.LEHB90
 3896 024f F70A     		.uleb128 .L296-.LFB1493
 3897 0251 00       		.uleb128 0
 3898 0252 9805     		.uleb128 .LEHB91-.LFB1493
 3899 0254 05       		.uleb128 .LEHE91-.LEHB91
 3900 0255 B00B     		.uleb128 .L297-.LFB1493
 3901 0257 00       		.uleb128 0
 3902 0258 E705     		.uleb128 .LEHB92-.LFB1493
 3903 025a D002     		.uleb128 .LEHE92-.LEHB92
 3904 025c 9D0B     		.uleb128 .L295-.LFB1493
 3905 025e 00       		.uleb128 0
 3906 025f D509     		.uleb128 .LEHB93-.LFB1493
 3907 0261 05       		.uleb128 .LEHE93-.LEHB93
 3908 0262 00       		.uleb128 0
 3909 0263 00       		.uleb128 0
 3910 0264 980B     		.uleb128 .LEHB94-.LFB1493
 3911 0266 05       		.uleb128 .LEHE94-.LEHB94
 3912 0267 00       		.uleb128 0
 3913 0268 00       		.uleb128 0
 3914 0269 AB0B     		.uleb128 .LEHB95-.LFB1493
 3915 026b 05       		.uleb128 .LEHE95-.LEHB95
 3916 026c 00       		.uleb128 0
 3917 026d 00       		.uleb128 0
 3918              	.LLSDACSE1493:
 3919              		.text
 3921              		.section	.rodata.str1.8
 3922 01f1 00000000 		.align 8
 3922      000000
 3923              	.LC27:
 3924 01f8 556E6861 		.string	"Unhandled exception in CHECK_EQUAL(0, results.GetFailureCount())"
 3924      6E646C65 
 3924      64206578 
 3924      63657074 
 3924      696F6E20 
 3925              		.text
 3926              		.align 2
 3927 194a 660F1F44 		.p2align 4,,15
 3927      0000
 3929              	_ZNK12_GLOBAL__N_154TestCheckEqualsWithStringsWorksOnContentsConstNonConst7RunImplEv:
 3930              	.LFB1175:
 3931              		.cfi_startproc
 3932              		.cfi_personality 0x9b,DW.ref.__gxx_personality_v0
 3933              		.cfi_lsda 0x1b,.LLSDA1175
 3934 1950 4157     		pushq	%r15
 3935              		.cfi_def_cfa_offset 16
 3936              		.cfi_offset 15, -16
 3937 1952 4156     		pushq	%r14
 3938              		.cfi_def_cfa_offset 24
 3939              		.cfi_offset 14, -24
 3940 1954 31F6     		xorl	%esi, %esi
 3941 1956 4155     		pushq	%r13
 3942              		.cfi_def_cfa_offset 32
 3943              		.cfi_offset 13, -32
 3944 1958 4154     		pushq	%r12
 3945              		.cfi_def_cfa_offset 40
 3946              		.cfi_offset 12, -40
 3947 195a 55       		pushq	%rbp
 3948              		.cfi_def_cfa_offset 48
 3949              		.cfi_offset 6, -48
 3950 195b 53       		pushq	%rbx
 3951              		.cfi_def_cfa_offset 56
 3952              		.cfi_offset 3, -56
 3953 195c 4881ECF8 		subq	$504, %rsp
 3953      010000
 3954              		.cfi_def_cfa_offset 560
 3955 1963 488D5C24 		leaq	16(%rsp), %rbx
 3955      10
 3956 1968 488D6C24 		leaq	48(%rsp), %rbp
 3956      30
 3957 196d 64488B04 		movq	%fs:40, %rax
 3957      25280000 
 3957      00
 3958 1976 48898424 		movq	%rax, 488(%rsp)
 3958      E8010000 
 3959 197e 31C0     		xorl	%eax, %eax
 3960 1980 4889DF   		movq	%rbx, %rdi
 3961              	.LEHB96:
 3962 1983 E8000000 		call	_ZN8UnitTest11TestResultsC1EPNS_12TestReporterE@PLT
 3962      00
 3963 1988 488D0D00 		leaq	.LC1(%rip), %rcx
 3963      000000
 3964 198f 4889EF   		movq	%rbp, %rdi
 3965 1992 4531C0   		xorl	%r8d, %r8d
 3966 1995 4889CA   		movq	%rcx, %rdx
 3967 1998 4889CE   		movq	%rcx, %rsi
 3968 199b E8000000 		call	_ZN8UnitTest11TestDetailsC1EPKcS2_S2_i@PLT
 3968      00
 3969 19a0 488D1500 		leaq	_ZN12_GLOBAL__N_14txt2E(%rip), %rdx
 3969      000000
 3970 19a7 488D3500 		leaq	_ZN12_GLOBAL__N_14txt1E(%rip), %rsi
 3970      000000
 3971 19ae 4889E9   		movq	%rbp, %rcx
 3972 19b1 4889DF   		movq	%rbx, %rdi
 3973 19b4 E8000000 		call	_ZN8UnitTest10CheckEqualERNS_11TestResultsEPKcPcRKNS_11TestDetailsE@PLT
 3973      00
 3974              	.LEHE96:
 3975              	.LEHB97:
 3976 19b9 E8000000 		call	_ZN8UnitTest11CurrentTest7DetailsEv@PLT
 3976      00
 3977 19be 488B30   		movq	(%rax), %rsi
 3978 19c1 BA3E0000 		movl	$62, %edx
 3978      00
 3979 19c6 4889EF   		movq	%rbp, %rdi
 3980 19c9 E8000000 		call	_ZN8UnitTest11TestDetailsC1ERKS0_i@PLT
 3980      00
 3981 19ce 4889DF   		movq	%rbx, %rdi
 3982 19d1 E8000000 		call	_ZNK8UnitTest11TestResults15GetFailureCountEv@PLT
 3982      00
 3983 19d6 4189C4   		movl	%eax, %r12d
 3984 19d9 E8000000 		call	_ZN8UnitTest11CurrentTest7ResultsEv@PLT
 3984      00
 3985              	.LEHE97:
 3986 19de 4585E4   		testl	%r12d, %r12d
 3987 19e1 0F844202 		je	.L329
 3987      0000
 3988 19e7 488D5C24 		leaq	80(%rsp), %rbx
 3988      50
 3989 19ec 488B00   		movq	(%rax), %rax
 3990 19ef 4C8D2D00 		leaq	24+_ZTCN8UnitTest15MemoryOutStreamE0_So(%rip), %r13
 3990      000000
 3991 19f6 4C8DB390 		leaq	144(%rbx), %r14
 3991      000000
 3992 19fd 48890424 		movq	%rax, (%rsp)
 3993 1a01 4C89F7   		movq	%r14, %rdi
 3994 1a04 E8000000 		call	_ZNSt8ios_baseC2Ev@PLT
 3994      00
 3995 1a09 498D4528 		leaq	40(%r13), %rax
 3996 1a0d 31F6     		xorl	%esi, %esi
 3997 1a0f 4C89F7   		movq	%r14, %rdi
 3998 1a12 48C78424 		movq	$0, 440(%rsp)
 3998      B8010000 
 3998      00000000 
 3999 1a1e C68424C0 		movb	$0, 448(%rsp)
 3999      01000000 
 4000 1a26 C68424C1 		movb	$0, 449(%rsp)
 4000      01000000 
 4001 1a2e 48C78424 		movq	$0, 456(%rsp)
 4001      C8010000 
 4001      00000000 
 4002 1a3a 48C78424 		movq	$0, 464(%rsp)
 4002      D0010000 
 4002      00000000 
 4003 1a46 48C78424 		movq	$0, 472(%rsp)
 4003      D8010000 
 4003      00000000 
 4004 1a52 48C78424 		movq	$0, 480(%rsp)
 4004      E0010000 
 4004      00000000 
 4005 1a5e 4C896C24 		movq	%r13, 80(%rsp)
 4005      50
 4006 1a63 48898424 		movq	%rax, 224(%rsp)
 4006      E0000000 
 4007              	.LEHB98:
 4008 1a6b E8000000 		call	_ZNSt9basic_iosIcSt11char_traitsIcEE4initEPSt15basic_streambufIcS1_E@PLT
 4008      00
 4009              	.LEHE98:
 4010 1a70 488D0500 		leaq	24+_ZTCN8UnitTest15MemoryOutStreamE0_NSt7__cxx1119basic_ostringstreamIcSt11char_traitsIcESaIc
 4010      000000
 4011 1a77 660FEFC0 		pxor	%xmm0, %xmm0
 4012 1a7b 488D7B40 		leaq	64(%rbx), %rdi
 4013 1a7f 48894424 		movq	%rax, 80(%rsp)
 4013      50
 4014 1a84 4883C028 		addq	$40, %rax
 4015 1a88 48898424 		movq	%rax, 224(%rsp)
 4015      E0000000 
 4016 1a90 488D0500 		leaq	16+_ZTVSt15basic_streambufIcSt11char_traitsIcEE(%rip), %rax
 4016      000000
 4017 1a97 0F294424 		movaps	%xmm0, 96(%rsp)
 4017      60
 4018 1a9c 48894424 		movq	%rax, 88(%rsp)
 4018      58
 4019 1aa1 0F294424 		movaps	%xmm0, 112(%rsp)
 4019      70
 4020 1aa6 0F298424 		movaps	%xmm0, 128(%rsp)
 4020      80000000 
 4021 1aae E8000000 		call	_ZNSt6localeC1Ev@PLT
 4021      00
 4022 1ab3 488D0500 		leaq	16+_ZTVNSt7__cxx1115basic_stringbufIcSt11char_traitsIcESaIcEEE(%rip), %rax
 4022      000000
 4023 1aba 488D7308 		leaq	8(%rbx), %rsi
 4024 1abe 48894424 		movq	%rax, 88(%rsp)
 4024      58
 4025 1ac3 488D4360 		leaq	96(%rbx), %rax
 4026 1ac7 C7842498 		movl	$16, 152(%rsp)
 4026      00000010 
 4026      000000
 4027 1ad2 48C78424 		movq	$0, 168(%rsp)
 4027      A8000000 
 4027      00000000 
 4028 1ade C68424B0 		movb	$0, 176(%rsp)
 4028      00000000 
 4029 1ae6 48898424 		movq	%rax, 160(%rsp)
 4029      A0000000 
 4030 1aee 488B4424 		movq	80(%rsp), %rax
 4030      50
 4031 1af3 488B78E8 		movq	-24(%rax), %rdi
 4032 1af7 4801DF   		addq	%rbx, %rdi
 4033              	.LEHB99:
 4034 1afa E8000000 		call	_ZNSt9basic_iosIcSt11char_traitsIcEE4initEPSt15basic_streambufIcS1_E@PLT
 4034      00
 4035              	.LEHE99:
 4036 1aff 4C8D3D00 		leaq	24+_ZTVN8UnitTest15MemoryOutStreamE(%rip), %r15
 4036      000000
 4037 1b06 488D8380 		leaq	128(%rbx), %rax
 4037      000000
 4038 1b0d 488D3500 		leaq	.LC2(%rip), %rsi
 4038      000000
 4039 1b14 BA090000 		movl	$9, %edx
 4039      00
 4040 1b19 4889DF   		movq	%rbx, %rdi
 4041 1b1c 48C78424 		movq	$0, 200(%rsp)
 4041      C8000000 
 4041      00000000 
 4042 1b28 4D8D7728 		leaq	40(%r15), %r14
 4043 1b2c 4C897C24 		movq	%r15, 80(%rsp)
 4043      50
 4044 1b31 48898424 		movq	%rax, 192(%rsp)
 4044      C0000000 
 4045 1b39 C68424D0 		movb	$0, 208(%rsp)
 4045      00000000 
 4046 1b41 4C89B424 		movq	%r14, 224(%rsp)
 4046      E0000000 
 4047              	.LEHB100:
 4048 1b49 E8000000 		call	_ZSt16__ostream_insertIcSt11char_traitsIcEERSt13basic_ostreamIT_T0_ES6_PKS3_l@PLT
 4048      00
 4049 1b4e 31F6     		xorl	%esi, %esi
 4050 1b50 4889DF   		movq	%rbx, %rdi
 4051 1b53 E8000000 		call	_ZNSolsEi@PLT
 4051      00
 4052 1b58 488D3500 		leaq	.LC6(%rip), %rsi
 4052      000000
 4053 1b5f BA090000 		movl	$9, %edx
 4053      00
 4054 1b64 4889C7   		movq	%rax, %rdi
 4055 1b67 48894424 		movq	%rax, 8(%rsp)
 4055      08
 4056 1b6c E8000000 		call	_ZSt16__ostream_insertIcSt11char_traitsIcEERSt13basic_ostreamIT_T0_ES6_PKS3_l@PLT
 4056      00
 4057 1b71 488B7C24 		movq	8(%rsp), %rdi
 4057      08
 4058 1b76 4489E6   		movl	%r12d, %esi
 4059 1b79 E8000000 		call	_ZNSolsEi@PLT
 4059      00
 4060 1b7e 4889DF   		movq	%rbx, %rdi
 4061 1b81 E8000000 		call	_ZNK8UnitTest15MemoryOutStream7GetTextEv@PLT
 4061      00
 4062 1b86 488B3C24 		movq	(%rsp), %rdi
 4063 1b8a 4889C2   		movq	%rax, %rdx
 4064 1b8d 4889EE   		movq	%rbp, %rsi
 4065 1b90 E8000000 		call	_ZN8UnitTest11TestResults13OnTestFailureERKNS_11TestDetailsEPKc@PLT
 4065      00
 4066              	.LEHE100:
 4067 1b95 488BBC24 		movq	192(%rsp), %rdi
 4067      C0000000 
 4068 1b9d 488D8380 		leaq	128(%rbx), %rax
 4068      000000
 4069 1ba4 4C897C24 		movq	%r15, 80(%rsp)
 4069      50
 4070 1ba9 4C89B424 		movq	%r14, 224(%rsp)
 4070      E0000000 
 4071 1bb1 4839C7   		cmpq	%rax, %rdi
 4072 1bb4 7405     		je	.L336
 4073 1bb6 E8000000 		call	_ZdlPv@PLT
 4073      00
 4074              	.L336:
 4075 1bbb 488D0500 		leaq	64+_ZTCN8UnitTest15MemoryOutStreamE0_NSt7__cxx1119basic_ostringstreamIcSt11char_traitsIcESaIc
 4075      000000
 4076 1bc2 488BBC24 		movq	160(%rsp), %rdi
 4076      A0000000 
 4077 1bca F30F7E05 		movq	.LC14(%rip), %xmm0
 4077      00000000 
 4078 1bd2 48898424 		movq	%rax, 224(%rsp)
 4078      E0000000 
 4079 1bda 488D4360 		leaq	96(%rbx), %rax
 4080 1bde 0F160500 		movhps	.LC15(%rip), %xmm0
 4080      000000
 4081 1be5 4839C7   		cmpq	%rax, %rdi
 4082 1be8 0F294424 		movaps	%xmm0, 80(%rsp)
 4082      50
 4083 1bed 7405     		je	.L337
 4084 1bef E8000000 		call	_ZdlPv@PLT
 4084      00
 4085              	.L337:
 4086 1bf4 488D0500 		leaq	16+_ZTVSt15basic_streambufIcSt11char_traitsIcEE(%rip), %rax
 4086      000000
 4087 1bfb 488D7B40 		leaq	64(%rbx), %rdi
 4088 1bff 48894424 		movq	%rax, 88(%rsp)
 4088      58
 4089 1c04 E8000000 		call	_ZNSt6localeD1Ev@PLT
 4089      00
 4090 1c09 488D0500 		leaq	16+_ZTVSt9basic_iosIcSt11char_traitsIcEE(%rip), %rax
 4090      000000
 4091 1c10 488DBB90 		leaq	144(%rbx), %rdi
 4091      000000
 4092 1c17 4C896C24 		movq	%r13, 80(%rsp)
 4092      50
 4093 1c1c 48898424 		movq	%rax, 224(%rsp)
 4093      E0000000 
 4094              	.LEHB101:
 4095 1c24 E8000000 		call	_ZNSt8ios_baseD2Ev@PLT
 4095      00
 4096              	.LEHE101:
 4097              	.L329:
 4098 1c29 488B8424 		movq	488(%rsp), %rax
 4098      E8010000 
 4099 1c31 64483304 		xorq	%fs:40, %rax
 4099      25280000 
 4099      00
 4100 1c3a 7512     		jne	.L353
 4101 1c3c 4881C4F8 		addq	$504, %rsp
 4101      010000
 4102              		.cfi_remember_state
 4103              		.cfi_def_cfa_offset 56
 4104 1c43 5B       		popq	%rbx
 4105              		.cfi_def_cfa_offset 48
 4106 1c44 5D       		popq	%rbp
 4107              		.cfi_def_cfa_offset 40
 4108 1c45 415C     		popq	%r12
 4109              		.cfi_def_cfa_offset 32
 4110 1c47 415D     		popq	%r13
 4111              		.cfi_def_cfa_offset 24
 4112 1c49 415E     		popq	%r14
 4113              		.cfi_def_cfa_offset 16
 4114 1c4b 415F     		popq	%r15
 4115              		.cfi_def_cfa_offset 8
 4116 1c4d C3       		ret
 4117              	.L353:
 4118              		.cfi_restore_state
 4119 1c4e E8000000 		call	__stack_chk_fail@PLT
 4119      00
 4120              	.L344:
 4121 1c53 4889DF   		movq	%rbx, %rdi
 4122 1c56 4989C4   		movq	%rax, %r12
 4123 1c59 E8000000 		call	_ZN8UnitTest15MemoryOutStreamD1Ev
 4123      00
 4124              	.L335:
 4125 1c5e 4C89E7   		movq	%r12, %rdi
 4126 1c61 E8000000 		call	__cxa_begin_catch@PLT
 4126      00
 4127              	.LEHB102:
 4128 1c66 E8000000 		call	_ZN8UnitTest11CurrentTest7ResultsEv@PLT
 4128      00
 4129 1c6b 488B18   		movq	(%rax), %rbx
 4130 1c6e E8000000 		call	_ZN8UnitTest11CurrentTest7DetailsEv@PLT
 4130      00
 4131 1c73 488B30   		movq	(%rax), %rsi
 4132 1c76 BA3E0000 		movl	$62, %edx
 4132      00
 4133 1c7b 4889EF   		movq	%rbp, %rdi
 4134 1c7e E8000000 		call	_ZN8UnitTest11TestDetailsC1ERKS0_i@PLT
 4134      00
 4135 1c83 488D1500 		leaq	.LC27(%rip), %rdx
 4135      000000
 4136 1c8a 4889EE   		movq	%rbp, %rsi
 4137 1c8d 4889DF   		movq	%rbx, %rdi
 4138 1c90 E8000000 		call	_ZN8UnitTest11TestResults13OnTestFailureERKNS_11TestDetailsEPKc@PLT
 4138      00
 4139              	.LEHE102:
 4140              	.LEHB103:
 4141 1c95 E8000000 		call	__cxa_end_catch@PLT
 4141      00
 4142              	.LEHE103:
 4143 1c9a EB8D     		jmp	.L329
 4144              	.L342:
 4145 1c9c 4989C4   		movq	%rax, %r12
 4146 1c9f EBBD     		jmp	.L335
 4147              	.L343:
 4148 1ca1 4889C3   		movq	%rax, %rbx
 4149 1ca4 E8000000 		call	__cxa_end_catch@PLT
 4149      00
 4150 1ca9 4889DF   		movq	%rbx, %rdi
 4151              	.LEHB104:
 4152 1cac E8000000 		call	_Unwind_Resume@PLT
 4152      00
 4153              	.LEHE104:
 4154              	.L346:
 4155 1cb1 488D7B08 		leaq	8(%rbx), %rdi
 4156 1cb5 4989C4   		movq	%rax, %r12
 4157 1cb8 E8000000 		call	_ZNSt7__cxx1115basic_stringbufIcSt11char_traitsIcESaIcEED1Ev
 4157      00
 4158 1cbd 4C896C24 		movq	%r13, 80(%rsp)
 4158      50
 4159              	.L333:
 4160 1cc2 488D0500 		leaq	16+_ZTVSt9basic_iosIcSt11char_traitsIcEE(%rip), %rax
 4160      000000
 4161 1cc9 488DBB90 		leaq	144(%rbx), %rdi
 4161      000000
 4162 1cd0 48898424 		movq	%rax, 224(%rsp)
 4162      E0000000 
 4163 1cd8 E8000000 		call	_ZNSt8ios_baseD2Ev@PLT
 4163      00
 4164 1cdd E97CFFFF 		jmp	.L335
 4164      FF
 4165              	.L345:
 4166 1ce2 4989C4   		movq	%rax, %r12
 4167 1ce5 EBDB     		jmp	.L333
 4168              		.cfi_endproc
 4169              	.LFE1175:
 4170              		.section	.gcc_except_table
 4171 026e 0000     		.align 4
 4172              	.LLSDA1175:
 4173 0270 FF       		.byte	0xff
 4174 0271 9B       		.byte	0x9b
 4175 0272 3D       		.uleb128 .LLSDATT1175-.LLSDATTD1175
 4176              	.LLSDATTD1175:
 4177 0273 01       		.byte	0x1
 4178 0274 31       		.uleb128 .LLSDACSE1175-.LLSDACSB1175
 4179              	.LLSDACSB1175:
 4180 0275 33       		.uleb128 .LEHB96-.LFB1175
 4181 0276 36       		.uleb128 .LEHE96-.LEHB96
 4182 0277 00       		.uleb128 0
 4183 0278 00       		.uleb128 0
 4184 0279 69       		.uleb128 .LEHB97-.LFB1175
 4185 027a 25       		.uleb128 .LEHE97-.LEHB97
 4186 027b CC06     		.uleb128 .L342-.LFB1175
 4187 027d 01       		.uleb128 0x1
 4188 027e 9B02     		.uleb128 .LEHB98-.LFB1175
 4189 0280 05       		.uleb128 .LEHE98-.LEHB98
 4190 0281 9207     		.uleb128 .L345-.LFB1175
 4191 0283 03       		.uleb128 0x3
 4192 0284 AA03     		.uleb128 .LEHB99-.LFB1175
 4193 0286 05       		.uleb128 .LEHE99-.LEHB99
 4194 0287 E106     		.uleb128 .L346-.LFB1175
 4195 0289 03       		.uleb128 0x3
 4196 028a F903     		.uleb128 .LEHB100-.LFB1175
 4197 028c 4C       		.uleb128 .LEHE100-.LEHB100
 4198 028d 8306     		.uleb128 .L344-.LFB1175
 4199 028f 03       		.uleb128 0x3
 4200 0290 D405     		.uleb128 .LEHB101-.LFB1175
 4201 0292 05       		.uleb128 .LEHE101-.LEHB101
 4202 0293 CC06     		.uleb128 .L342-.LFB1175
 4203 0295 01       		.uleb128 0x1
 4204 0296 9606     		.uleb128 .LEHB102-.LFB1175
 4205 0298 2F       		.uleb128 .LEHE102-.LEHB102
 4206 0299 D106     		.uleb128 .L343-.LFB1175
 4207 029b 00       		.uleb128 0
 4208 029c C506     		.uleb128 .LEHB103-.LFB1175
 4209 029e 05       		.uleb128 .LEHE103-.LEHB103
 4210 029f 00       		.uleb128 0
 4211 02a0 00       		.uleb128 0
 4212 02a1 DC06     		.uleb128 .LEHB104-.LFB1175
 4213 02a3 05       		.uleb128 .LEHE104-.LEHB104
 4214 02a4 00       		.uleb128 0
 4215 02a5 00       		.uleb128 0
 4216              	.LLSDACSE1175:
 4217 02a6 01       		.byte	0x1
 4218 02a7 00       		.byte	0
 4219 02a8 00       		.byte	0
 4220 02a9 7D       		.byte	0x7d
 4221 02aa 0000     		.align 4
 4222 02ac 00000000 		.long	0
 4223              	
 4224              	.LLSDATT1175:
 4225              		.text
 4227 1ce7 90       		.align 2
 4228 1ce8 0F1F8400 		.p2align 4,,15
 4228      00000000 
 4230              	_ZNK12_GLOBAL__N_157TestCheckEqualsWithStringsWorksOnContentsNonConstNonConst7RunImplEv:
 4231              	.LFB1163:
 4232              		.cfi_startproc
 4233              		.cfi_personality 0x9b,DW.ref.__gxx_personality_v0
 4234              		.cfi_lsda 0x1b,.LLSDA1163
 4235 1cf0 4157     		pushq	%r15
 4236              		.cfi_def_cfa_offset 16
 4237              		.cfi_offset 15, -16
 4238 1cf2 4156     		pushq	%r14
 4239              		.cfi_def_cfa_offset 24
 4240              		.cfi_offset 14, -24
 4241 1cf4 31F6     		xorl	%esi, %esi
 4242 1cf6 4155     		pushq	%r13
 4243              		.cfi_def_cfa_offset 32
 4244              		.cfi_offset 13, -32
 4245 1cf8 4154     		pushq	%r12
 4246              		.cfi_def_cfa_offset 40
 4247              		.cfi_offset 12, -40
 4248 1cfa 55       		pushq	%rbp
 4249              		.cfi_def_cfa_offset 48
 4250              		.cfi_offset 6, -48
 4251 1cfb 53       		pushq	%rbx
 4252              		.cfi_def_cfa_offset 56
 4253              		.cfi_offset 3, -56
 4254 1cfc 4881ECF8 		subq	$504, %rsp
 4254      010000
 4255              		.cfi_def_cfa_offset 560
 4256 1d03 488D5C24 		leaq	16(%rsp), %rbx
 4256      10
 4257 1d08 488D6C24 		leaq	48(%rsp), %rbp
 4257      30
 4258 1d0d 64488B04 		movq	%fs:40, %rax
 4258      25280000 
 4258      00
 4259 1d16 48898424 		movq	%rax, 488(%rsp)
 4259      E8010000 
 4260 1d1e 31C0     		xorl	%eax, %eax
 4261 1d20 4889DF   		movq	%rbx, %rdi
 4262              	.LEHB105:
 4263 1d23 E8000000 		call	_ZN8UnitTest11TestResultsC1EPNS_12TestReporterE@PLT
 4263      00
 4264 1d28 488D0D00 		leaq	.LC1(%rip), %rcx
 4264      000000
 4265 1d2f 4889EF   		movq	%rbp, %rdi
 4266 1d32 4531C0   		xorl	%r8d, %r8d
 4267 1d35 4889CA   		movq	%rcx, %rdx
 4268 1d38 4889CE   		movq	%rcx, %rsi
 4269 1d3b E8000000 		call	_ZN8UnitTest11TestDetailsC1EPKcS2_S2_i@PLT
 4269      00
 4270 1d40 488D1500 		leaq	_ZN12_GLOBAL__N_14txt2E(%rip), %rdx
 4270      000000
 4271 1d47 488D3500 		leaq	_ZN12_GLOBAL__N_14txt1E(%rip), %rsi
 4271      000000
 4272 1d4e 4889E9   		movq	%rbp, %rcx
 4273 1d51 4889DF   		movq	%rbx, %rdi
 4274 1d54 E8000000 		call	_ZN8UnitTest10CheckEqualERNS_11TestResultsEPKcS3_RKNS_11TestDetailsE@PLT
 4274      00
 4275              	.LEHE105:
 4276              	.LEHB106:
 4277 1d59 E8000000 		call	_ZN8UnitTest11CurrentTest7DetailsEv@PLT
 4277      00
 4278 1d5e 488B30   		movq	(%rax), %rsi
 4279 1d61 BA230000 		movl	$35, %edx
 4279      00
 4280 1d66 4889EF   		movq	%rbp, %rdi
 4281 1d69 E8000000 		call	_ZN8UnitTest11TestDetailsC1ERKS0_i@PLT
 4281      00
 4282 1d6e 4889DF   		movq	%rbx, %rdi
 4283 1d71 E8000000 		call	_ZNK8UnitTest11TestResults15GetFailureCountEv@PLT
 4283      00
 4284 1d76 4189C4   		movl	%eax, %r12d
 4285 1d79 E8000000 		call	_ZN8UnitTest11CurrentTest7ResultsEv@PLT
 4285      00
 4286              	.LEHE106:
 4287 1d7e 4585E4   		testl	%r12d, %r12d
 4288 1d81 0F844202 		je	.L354
 4288      0000
 4289 1d87 488D5C24 		leaq	80(%rsp), %rbx
 4289      50
 4290 1d8c 488B00   		movq	(%rax), %rax
 4291 1d8f 4C8D2D00 		leaq	24+_ZTCN8UnitTest15MemoryOutStreamE0_So(%rip), %r13
 4291      000000
 4292 1d96 4C8DB390 		leaq	144(%rbx), %r14
 4292      000000
 4293 1d9d 48890424 		movq	%rax, (%rsp)
 4294 1da1 4C89F7   		movq	%r14, %rdi
 4295 1da4 E8000000 		call	_ZNSt8ios_baseC2Ev@PLT
 4295      00
 4296 1da9 498D4528 		leaq	40(%r13), %rax
 4297 1dad 31F6     		xorl	%esi, %esi
 4298 1daf 4C89F7   		movq	%r14, %rdi
 4299 1db2 48C78424 		movq	$0, 440(%rsp)
 4299      B8010000 
 4299      00000000 
 4300 1dbe C68424C0 		movb	$0, 448(%rsp)
 4300      01000000 
 4301 1dc6 C68424C1 		movb	$0, 449(%rsp)
 4301      01000000 
 4302 1dce 48C78424 		movq	$0, 456(%rsp)
 4302      C8010000 
 4302      00000000 
 4303 1dda 48C78424 		movq	$0, 464(%rsp)
 4303      D0010000 
 4303      00000000 
 4304 1de6 48C78424 		movq	$0, 472(%rsp)
 4304      D8010000 
 4304      00000000 
 4305 1df2 48C78424 		movq	$0, 480(%rsp)
 4305      E0010000 
 4305      00000000 
 4306 1dfe 4C896C24 		movq	%r13, 80(%rsp)
 4306      50
 4307 1e03 48898424 		movq	%rax, 224(%rsp)
 4307      E0000000 
 4308              	.LEHB107:
 4309 1e0b E8000000 		call	_ZNSt9basic_iosIcSt11char_traitsIcEE4initEPSt15basic_streambufIcS1_E@PLT
 4309      00
 4310              	.LEHE107:
 4311 1e10 488D0500 		leaq	24+_ZTCN8UnitTest15MemoryOutStreamE0_NSt7__cxx1119basic_ostringstreamIcSt11char_traitsIcESaIc
 4311      000000
 4312 1e17 660FEFC0 		pxor	%xmm0, %xmm0
 4313 1e1b 488D7B40 		leaq	64(%rbx), %rdi
 4314 1e1f 48894424 		movq	%rax, 80(%rsp)
 4314      50
 4315 1e24 4883C028 		addq	$40, %rax
 4316 1e28 48898424 		movq	%rax, 224(%rsp)
 4316      E0000000 
 4317 1e30 488D0500 		leaq	16+_ZTVSt15basic_streambufIcSt11char_traitsIcEE(%rip), %rax
 4317      000000
 4318 1e37 0F294424 		movaps	%xmm0, 96(%rsp)
 4318      60
 4319 1e3c 48894424 		movq	%rax, 88(%rsp)
 4319      58
 4320 1e41 0F294424 		movaps	%xmm0, 112(%rsp)
 4320      70
 4321 1e46 0F298424 		movaps	%xmm0, 128(%rsp)
 4321      80000000 
 4322 1e4e E8000000 		call	_ZNSt6localeC1Ev@PLT
 4322      00
 4323 1e53 488D0500 		leaq	16+_ZTVNSt7__cxx1115basic_stringbufIcSt11char_traitsIcESaIcEEE(%rip), %rax
 4323      000000
 4324 1e5a 488D7308 		leaq	8(%rbx), %rsi
 4325 1e5e 48894424 		movq	%rax, 88(%rsp)
 4325      58
 4326 1e63 488D4360 		leaq	96(%rbx), %rax
 4327 1e67 C7842498 		movl	$16, 152(%rsp)
 4327      00000010 
 4327      000000
 4328 1e72 48C78424 		movq	$0, 168(%rsp)
 4328      A8000000 
 4328      00000000 
 4329 1e7e C68424B0 		movb	$0, 176(%rsp)
 4329      00000000 
 4330 1e86 48898424 		movq	%rax, 160(%rsp)
 4330      A0000000 
 4331 1e8e 488B4424 		movq	80(%rsp), %rax
 4331      50
 4332 1e93 488B78E8 		movq	-24(%rax), %rdi
 4333 1e97 4801DF   		addq	%rbx, %rdi
 4334              	.LEHB108:
 4335 1e9a E8000000 		call	_ZNSt9basic_iosIcSt11char_traitsIcEE4initEPSt15basic_streambufIcS1_E@PLT
 4335      00
 4336              	.LEHE108:
 4337 1e9f 4C8D3D00 		leaq	24+_ZTVN8UnitTest15MemoryOutStreamE(%rip), %r15
 4337      000000
 4338 1ea6 488D8380 		leaq	128(%rbx), %rax
 4338      000000
 4339 1ead 488D3500 		leaq	.LC2(%rip), %rsi
 4339      000000
 4340 1eb4 BA090000 		movl	$9, %edx
 4340      00
 4341 1eb9 4889DF   		movq	%rbx, %rdi
 4342 1ebc 48C78424 		movq	$0, 200(%rsp)
 4342      C8000000 
 4342      00000000 
 4343 1ec8 4D8D7728 		leaq	40(%r15), %r14
 4344 1ecc 4C897C24 		movq	%r15, 80(%rsp)
 4344      50
 4345 1ed1 48898424 		movq	%rax, 192(%rsp)
 4345      C0000000 
 4346 1ed9 C68424D0 		movb	$0, 208(%rsp)
 4346      00000000 
 4347 1ee1 4C89B424 		movq	%r14, 224(%rsp)
 4347      E0000000 
 4348              	.LEHB109:
 4349 1ee9 E8000000 		call	_ZSt16__ostream_insertIcSt11char_traitsIcEERSt13basic_ostreamIT_T0_ES6_PKS3_l@PLT
 4349      00
 4350 1eee 31F6     		xorl	%esi, %esi
 4351 1ef0 4889DF   		movq	%rbx, %rdi
 4352 1ef3 E8000000 		call	_ZNSolsEi@PLT
 4352      00
 4353 1ef8 488D3500 		leaq	.LC6(%rip), %rsi
 4353      000000
 4354 1eff BA090000 		movl	$9, %edx
 4354      00
 4355 1f04 4889C7   		movq	%rax, %rdi
 4356 1f07 48894424 		movq	%rax, 8(%rsp)
 4356      08
 4357 1f0c E8000000 		call	_ZSt16__ostream_insertIcSt11char_traitsIcEERSt13basic_ostreamIT_T0_ES6_PKS3_l@PLT
 4357      00
 4358 1f11 488B7C24 		movq	8(%rsp), %rdi
 4358      08
 4359 1f16 4489E6   		movl	%r12d, %esi
 4360 1f19 E8000000 		call	_ZNSolsEi@PLT
 4360      00
 4361 1f1e 4889DF   		movq	%rbx, %rdi
 4362 1f21 E8000000 		call	_ZNK8UnitTest15MemoryOutStream7GetTextEv@PLT
 4362      00
 4363 1f26 488B3C24 		movq	(%rsp), %rdi
 4364 1f2a 4889C2   		movq	%rax, %rdx
 4365 1f2d 4889EE   		movq	%rbp, %rsi
 4366 1f30 E8000000 		call	_ZN8UnitTest11TestResults13OnTestFailureERKNS_11TestDetailsEPKc@PLT
 4366      00
 4367              	.LEHE109:
 4368 1f35 488BBC24 		movq	192(%rsp), %rdi
 4368      C0000000 
 4369 1f3d 488D8380 		leaq	128(%rbx), %rax
 4369      000000
 4370 1f44 4C897C24 		movq	%r15, 80(%rsp)
 4370      50
 4371 1f49 4C89B424 		movq	%r14, 224(%rsp)
 4371      E0000000 
 4372 1f51 4839C7   		cmpq	%rax, %rdi
 4373 1f54 7405     		je	.L361
 4374 1f56 E8000000 		call	_ZdlPv@PLT
 4374      00
 4375              	.L361:
 4376 1f5b 488D0500 		leaq	64+_ZTCN8UnitTest15MemoryOutStreamE0_NSt7__cxx1119basic_ostringstreamIcSt11char_traitsIcESaIc
 4376      000000
 4377 1f62 488BBC24 		movq	160(%rsp), %rdi
 4377      A0000000 
 4378 1f6a F30F7E05 		movq	.LC14(%rip), %xmm0
 4378      00000000 
 4379 1f72 48898424 		movq	%rax, 224(%rsp)
 4379      E0000000 
 4380 1f7a 488D4360 		leaq	96(%rbx), %rax
 4381 1f7e 0F160500 		movhps	.LC15(%rip), %xmm0
 4381      000000
 4382 1f85 4839C7   		cmpq	%rax, %rdi
 4383 1f88 0F294424 		movaps	%xmm0, 80(%rsp)
 4383      50
 4384 1f8d 7405     		je	.L362
 4385 1f8f E8000000 		call	_ZdlPv@PLT
 4385      00
 4386              	.L362:
 4387 1f94 488D0500 		leaq	16+_ZTVSt15basic_streambufIcSt11char_traitsIcEE(%rip), %rax
 4387      000000
 4388 1f9b 488D7B40 		leaq	64(%rbx), %rdi
 4389 1f9f 48894424 		movq	%rax, 88(%rsp)
 4389      58
 4390 1fa4 E8000000 		call	_ZNSt6localeD1Ev@PLT
 4390      00
 4391 1fa9 488D0500 		leaq	16+_ZTVSt9basic_iosIcSt11char_traitsIcEE(%rip), %rax
 4391      000000
 4392 1fb0 488DBB90 		leaq	144(%rbx), %rdi
 4392      000000
 4393 1fb7 4C896C24 		movq	%r13, 80(%rsp)
 4393      50
 4394 1fbc 48898424 		movq	%rax, 224(%rsp)
 4394      E0000000 
 4395              	.LEHB110:
 4396 1fc4 E8000000 		call	_ZNSt8ios_baseD2Ev@PLT
 4396      00
 4397              	.LEHE110:
 4398              	.L354:
 4399 1fc9 488B8424 		movq	488(%rsp), %rax
 4399      E8010000 
 4400 1fd1 64483304 		xorq	%fs:40, %rax
 4400      25280000 
 4400      00
 4401 1fda 7512     		jne	.L378
 4402 1fdc 4881C4F8 		addq	$504, %rsp
 4402      010000
 4403              		.cfi_remember_state
 4404              		.cfi_def_cfa_offset 56
 4405 1fe3 5B       		popq	%rbx
 4406              		.cfi_def_cfa_offset 48
 4407 1fe4 5D       		popq	%rbp
 4408              		.cfi_def_cfa_offset 40
 4409 1fe5 415C     		popq	%r12
 4410              		.cfi_def_cfa_offset 32
 4411 1fe7 415D     		popq	%r13
 4412              		.cfi_def_cfa_offset 24
 4413 1fe9 415E     		popq	%r14
 4414              		.cfi_def_cfa_offset 16
 4415 1feb 415F     		popq	%r15
 4416              		.cfi_def_cfa_offset 8
 4417 1fed C3       		ret
 4418              	.L378:
 4419              		.cfi_restore_state
 4420 1fee E8000000 		call	__stack_chk_fail@PLT
 4420      00
 4421              	.L369:
 4422 1ff3 4889DF   		movq	%rbx, %rdi
 4423 1ff6 4989C4   		movq	%rax, %r12
 4424 1ff9 E8000000 		call	_ZN8UnitTest15MemoryOutStreamD1Ev
 4424      00
 4425              	.L360:
 4426 1ffe 4C89E7   		movq	%r12, %rdi
 4427 2001 E8000000 		call	__cxa_begin_catch@PLT
 4427      00
 4428              	.LEHB111:
 4429 2006 E8000000 		call	_ZN8UnitTest11CurrentTest7ResultsEv@PLT
 4429      00
 4430 200b 488B18   		movq	(%rax), %rbx
 4431 200e E8000000 		call	_ZN8UnitTest11CurrentTest7DetailsEv@PLT
 4431      00
 4432 2013 488B30   		movq	(%rax), %rsi
 4433 2016 BA230000 		movl	$35, %edx
 4433      00
 4434 201b 4889EF   		movq	%rbp, %rdi
 4435 201e E8000000 		call	_ZN8UnitTest11TestDetailsC1ERKS0_i@PLT
 4435      00
 4436 2023 488D1500 		leaq	.LC27(%rip), %rdx
 4436      000000
 4437 202a 4889EE   		movq	%rbp, %rsi
 4438 202d 4889DF   		movq	%rbx, %rdi
 4439 2030 E8000000 		call	_ZN8UnitTest11TestResults13OnTestFailureERKNS_11TestDetailsEPKc@PLT
 4439      00
 4440              	.LEHE111:
 4441              	.LEHB112:
 4442 2035 E8000000 		call	__cxa_end_catch@PLT
 4442      00
 4443              	.LEHE112:
 4444 203a EB8D     		jmp	.L354
 4445              	.L367:
 4446 203c 4989C4   		movq	%rax, %r12
 4447 203f EBBD     		jmp	.L360
 4448              	.L368:
 4449 2041 4889C3   		movq	%rax, %rbx
 4450 2044 E8000000 		call	__cxa_end_catch@PLT
 4450      00
 4451 2049 4889DF   		movq	%rbx, %rdi
 4452              	.LEHB113:
 4453 204c E8000000 		call	_Unwind_Resume@PLT
 4453      00
 4454              	.LEHE113:
 4455              	.L371:
 4456 2051 488D7B08 		leaq	8(%rbx), %rdi
 4457 2055 4989C4   		movq	%rax, %r12
 4458 2058 E8000000 		call	_ZNSt7__cxx1115basic_stringbufIcSt11char_traitsIcESaIcEED1Ev
 4458      00
 4459 205d 4C896C24 		movq	%r13, 80(%rsp)
 4459      50
 4460              	.L358:
 4461 2062 488D0500 		leaq	16+_ZTVSt9basic_iosIcSt11char_traitsIcEE(%rip), %rax
 4461      000000
 4462 2069 488DBB90 		leaq	144(%rbx), %rdi
 4462      000000
 4463 2070 48898424 		movq	%rax, 224(%rsp)
 4463      E0000000 
 4464 2078 E8000000 		call	_ZNSt8ios_baseD2Ev@PLT
 4464      00
 4465 207d E97CFFFF 		jmp	.L360
 4465      FF
 4466              	.L370:
 4467 2082 4989C4   		movq	%rax, %r12
 4468 2085 EBDB     		jmp	.L358
 4469              		.cfi_endproc
 4470              	.LFE1163:
 4471              		.section	.gcc_except_table
 4472              		.align 4
 4473              	.LLSDA1163:
 4474 02b0 FF       		.byte	0xff
 4475 02b1 9B       		.byte	0x9b
 4476 02b2 3D       		.uleb128 .LLSDATT1163-.LLSDATTD1163
 4477              	.LLSDATTD1163:
 4478 02b3 01       		.byte	0x1
 4479 02b4 31       		.uleb128 .LLSDACSE1163-.LLSDACSB1163
 4480              	.LLSDACSB1163:
 4481 02b5 33       		.uleb128 .LEHB105-.LFB1163
 4482 02b6 36       		.uleb128 .LEHE105-.LEHB105
 4483 02b7 00       		.uleb128 0
 4484 02b8 00       		.uleb128 0
 4485 02b9 69       		.uleb128 .LEHB106-.LFB1163
 4486 02ba 25       		.uleb128 .LEHE106-.LEHB106
 4487 02bb CC06     		.uleb128 .L367-.LFB1163
 4488 02bd 01       		.uleb128 0x1
 4489 02be 9B02     		.uleb128 .LEHB107-.LFB1163
 4490 02c0 05       		.uleb128 .LEHE107-.LEHB107
 4491 02c1 9207     		.uleb128 .L370-.LFB1163
 4492 02c3 03       		.uleb128 0x3
 4493 02c4 AA03     		.uleb128 .LEHB108-.LFB1163
 4494 02c6 05       		.uleb128 .LEHE108-.LEHB108
 4495 02c7 E106     		.uleb128 .L371-.LFB1163
 4496 02c9 03       		.uleb128 0x3
 4497 02ca F903     		.uleb128 .LEHB109-.LFB1163
 4498 02cc 4C       		.uleb128 .LEHE109-.LEHB109
 4499 02cd 8306     		.uleb128 .L369-.LFB1163
 4500 02cf 03       		.uleb128 0x3
 4501 02d0 D405     		.uleb128 .LEHB110-.LFB1163
 4502 02d2 05       		.uleb128 .LEHE110-.LEHB110
 4503 02d3 CC06     		.uleb128 .L367-.LFB1163
 4504 02d5 01       		.uleb128 0x1
 4505 02d6 9606     		.uleb128 .LEHB111-.LFB1163
 4506 02d8 2F       		.uleb128 .LEHE111-.LEHB111
 4507 02d9 D106     		.uleb128 .L368-.LFB1163
 4508 02db 00       		.uleb128 0
 4509 02dc C506     		.uleb128 .LEHB112-.LFB1163
 4510 02de 05       		.uleb128 .LEHE112-.LEHB112
 4511 02df 00       		.uleb128 0
 4512 02e0 00       		.uleb128 0
 4513 02e1 DC06     		.uleb128 .LEHB113-.LFB1163
 4514 02e3 05       		.uleb128 .LEHE113-.LEHB113
 4515 02e4 00       		.uleb128 0
 4516 02e5 00       		.uleb128 0
 4517              	.LLSDACSE1163:
 4518 02e6 01       		.byte	0x1
 4519 02e7 00       		.byte	0
 4520 02e8 00       		.byte	0
 4521 02e9 7D       		.byte	0x7d
 4522 02ea 0000     		.align 4
 4523 02ec 00000000 		.long	0
 4524              	
 4525              	.LLSDATT1163:
 4526              		.text
 4528 2087 90       		.align 2
 4529 2088 0F1F8400 		.p2align 4,,15
 4529      00000000 
 4531              	_ZNK12_GLOBAL__N_154TestCheckEqualsWithStringsWorksOnContentsNonConstConst7RunImplEv:
 4532              	.LFB1171:
 4533              		.cfi_startproc
 4534              		.cfi_personality 0x9b,DW.ref.__gxx_personality_v0
 4535              		.cfi_lsda 0x1b,.LLSDA1171
 4536 2090 4157     		pushq	%r15
 4537              		.cfi_def_cfa_offset 16
 4538              		.cfi_offset 15, -16
 4539 2092 4156     		pushq	%r14
 4540              		.cfi_def_cfa_offset 24
 4541              		.cfi_offset 14, -24
 4542 2094 31F6     		xorl	%esi, %esi
 4543 2096 4155     		pushq	%r13
 4544              		.cfi_def_cfa_offset 32
 4545              		.cfi_offset 13, -32
 4546 2098 4154     		pushq	%r12
 4547              		.cfi_def_cfa_offset 40
 4548              		.cfi_offset 12, -40
 4549 209a 55       		pushq	%rbp
 4550              		.cfi_def_cfa_offset 48
 4551              		.cfi_offset 6, -48
 4552 209b 53       		pushq	%rbx
 4553              		.cfi_def_cfa_offset 56
 4554              		.cfi_offset 3, -56
 4555 209c 4881ECF8 		subq	$504, %rsp
 4555      010000
 4556              		.cfi_def_cfa_offset 560
 4557 20a3 488D5C24 		leaq	16(%rsp), %rbx
 4557      10
 4558 20a8 488D6C24 		leaq	48(%rsp), %rbp
 4558      30
 4559 20ad 64488B04 		movq	%fs:40, %rax
 4559      25280000 
 4559      00
 4560 20b6 48898424 		movq	%rax, 488(%rsp)
 4560      E8010000 
 4561 20be 31C0     		xorl	%eax, %eax
 4562 20c0 4889DF   		movq	%rbx, %rdi
 4563              	.LEHB114:
 4564 20c3 E8000000 		call	_ZN8UnitTest11TestResultsC1EPNS_12TestReporterE@PLT
 4564      00
 4565 20c8 488D0D00 		leaq	.LC1(%rip), %rcx
 4565      000000
 4566 20cf 4889EF   		movq	%rbp, %rdi
 4567 20d2 4531C0   		xorl	%r8d, %r8d
 4568 20d5 4889CA   		movq	%rcx, %rdx
 4569 20d8 4889CE   		movq	%rcx, %rsi
 4570 20db E8000000 		call	_ZN8UnitTest11TestDetailsC1EPKcS2_S2_i@PLT
 4570      00
 4571 20e0 488D1500 		leaq	_ZN12_GLOBAL__N_14txt2E(%rip), %rdx
 4571      000000
 4572 20e7 488D3500 		leaq	_ZN12_GLOBAL__N_14txt1E(%rip), %rsi
 4572      000000
 4573 20ee 4889E9   		movq	%rbp, %rcx
 4574 20f1 4889DF   		movq	%rbx, %rdi
 4575 20f4 E8000000 		call	_ZN8UnitTest10CheckEqualERNS_11TestResultsEPcPKcRKNS_11TestDetailsE@PLT
 4575      00
 4576              	.LEHE114:
 4577              	.LEHB115:
 4578 20f9 E8000000 		call	_ZN8UnitTest11CurrentTest7DetailsEv@PLT
 4578      00
 4579 20fe 488B30   		movq	(%rax), %rsi
 4580 2101 BA350000 		movl	$53, %edx
 4580      00
 4581 2106 4889EF   		movq	%rbp, %rdi
 4582 2109 E8000000 		call	_ZN8UnitTest11TestDetailsC1ERKS0_i@PLT
 4582      00
 4583 210e 4889DF   		movq	%rbx, %rdi
 4584 2111 E8000000 		call	_ZNK8UnitTest11TestResults15GetFailureCountEv@PLT
 4584      00
 4585 2116 4189C4   		movl	%eax, %r12d
 4586 2119 E8000000 		call	_ZN8UnitTest11CurrentTest7ResultsEv@PLT
 4586      00
 4587              	.LEHE115:
 4588 211e 4585E4   		testl	%r12d, %r12d
 4589 2121 0F844202 		je	.L379
 4589      0000
 4590 2127 488D5C24 		leaq	80(%rsp), %rbx
 4590      50
 4591 212c 488B00   		movq	(%rax), %rax
 4592 212f 4C8D2D00 		leaq	24+_ZTCN8UnitTest15MemoryOutStreamE0_So(%rip), %r13
 4592      000000
 4593 2136 4C8DB390 		leaq	144(%rbx), %r14
 4593      000000
 4594 213d 48890424 		movq	%rax, (%rsp)
 4595 2141 4C89F7   		movq	%r14, %rdi
 4596 2144 E8000000 		call	_ZNSt8ios_baseC2Ev@PLT
 4596      00
 4597 2149 498D4528 		leaq	40(%r13), %rax
 4598 214d 31F6     		xorl	%esi, %esi
 4599 214f 4C89F7   		movq	%r14, %rdi
 4600 2152 48C78424 		movq	$0, 440(%rsp)
 4600      B8010000 
 4600      00000000 
 4601 215e C68424C0 		movb	$0, 448(%rsp)
 4601      01000000 
 4602 2166 C68424C1 		movb	$0, 449(%rsp)
 4602      01000000 
 4603 216e 48C78424 		movq	$0, 456(%rsp)
 4603      C8010000 
 4603      00000000 
 4604 217a 48C78424 		movq	$0, 464(%rsp)
 4604      D0010000 
 4604      00000000 
 4605 2186 48C78424 		movq	$0, 472(%rsp)
 4605      D8010000 
 4605      00000000 
 4606 2192 48C78424 		movq	$0, 480(%rsp)
 4606      E0010000 
 4606      00000000 
 4607 219e 4C896C24 		movq	%r13, 80(%rsp)
 4607      50
 4608 21a3 48898424 		movq	%rax, 224(%rsp)
 4608      E0000000 
 4609              	.LEHB116:
 4610 21ab E8000000 		call	_ZNSt9basic_iosIcSt11char_traitsIcEE4initEPSt15basic_streambufIcS1_E@PLT
 4610      00
 4611              	.LEHE116:
 4612 21b0 488D0500 		leaq	24+_ZTCN8UnitTest15MemoryOutStreamE0_NSt7__cxx1119basic_ostringstreamIcSt11char_traitsIcESaIc
 4612      000000
 4613 21b7 660FEFC0 		pxor	%xmm0, %xmm0
 4614 21bb 488D7B40 		leaq	64(%rbx), %rdi
 4615 21bf 48894424 		movq	%rax, 80(%rsp)
 4615      50
 4616 21c4 4883C028 		addq	$40, %rax
 4617 21c8 48898424 		movq	%rax, 224(%rsp)
 4617      E0000000 
 4618 21d0 488D0500 		leaq	16+_ZTVSt15basic_streambufIcSt11char_traitsIcEE(%rip), %rax
 4618      000000
 4619 21d7 0F294424 		movaps	%xmm0, 96(%rsp)
 4619      60
 4620 21dc 48894424 		movq	%rax, 88(%rsp)
 4620      58
 4621 21e1 0F294424 		movaps	%xmm0, 112(%rsp)
 4621      70
 4622 21e6 0F298424 		movaps	%xmm0, 128(%rsp)
 4622      80000000 
 4623 21ee E8000000 		call	_ZNSt6localeC1Ev@PLT
 4623      00
 4624 21f3 488D0500 		leaq	16+_ZTVNSt7__cxx1115basic_stringbufIcSt11char_traitsIcESaIcEEE(%rip), %rax
 4624      000000
 4625 21fa 488D7308 		leaq	8(%rbx), %rsi
 4626 21fe 48894424 		movq	%rax, 88(%rsp)
 4626      58
 4627 2203 488D4360 		leaq	96(%rbx), %rax
 4628 2207 C7842498 		movl	$16, 152(%rsp)
 4628      00000010 
 4628      000000
 4629 2212 48C78424 		movq	$0, 168(%rsp)
 4629      A8000000 
 4629      00000000 
 4630 221e C68424B0 		movb	$0, 176(%rsp)
 4630      00000000 
 4631 2226 48898424 		movq	%rax, 160(%rsp)
 4631      A0000000 
 4632 222e 488B4424 		movq	80(%rsp), %rax
 4632      50
 4633 2233 488B78E8 		movq	-24(%rax), %rdi
 4634 2237 4801DF   		addq	%rbx, %rdi
 4635              	.LEHB117:
 4636 223a E8000000 		call	_ZNSt9basic_iosIcSt11char_traitsIcEE4initEPSt15basic_streambufIcS1_E@PLT
 4636      00
 4637              	.LEHE117:
 4638 223f 4C8D3D00 		leaq	24+_ZTVN8UnitTest15MemoryOutStreamE(%rip), %r15
 4638      000000
 4639 2246 488D8380 		leaq	128(%rbx), %rax
 4639      000000
 4640 224d 488D3500 		leaq	.LC2(%rip), %rsi
 4640      000000
 4641 2254 BA090000 		movl	$9, %edx
 4641      00
 4642 2259 4889DF   		movq	%rbx, %rdi
 4643 225c 48C78424 		movq	$0, 200(%rsp)
 4643      C8000000 
 4643      00000000 
 4644 2268 4D8D7728 		leaq	40(%r15), %r14
 4645 226c 4C897C24 		movq	%r15, 80(%rsp)
 4645      50
 4646 2271 48898424 		movq	%rax, 192(%rsp)
 4646      C0000000 
 4647 2279 C68424D0 		movb	$0, 208(%rsp)
 4647      00000000 
 4648 2281 4C89B424 		movq	%r14, 224(%rsp)
 4648      E0000000 
 4649              	.LEHB118:
 4650 2289 E8000000 		call	_ZSt16__ostream_insertIcSt11char_traitsIcEERSt13basic_ostreamIT_T0_ES6_PKS3_l@PLT
 4650      00
 4651 228e 31F6     		xorl	%esi, %esi
 4652 2290 4889DF   		movq	%rbx, %rdi
 4653 2293 E8000000 		call	_ZNSolsEi@PLT
 4653      00
 4654 2298 488D3500 		leaq	.LC6(%rip), %rsi
 4654      000000
 4655 229f BA090000 		movl	$9, %edx
 4655      00
 4656 22a4 4889C7   		movq	%rax, %rdi
 4657 22a7 48894424 		movq	%rax, 8(%rsp)
 4657      08
 4658 22ac E8000000 		call	_ZSt16__ostream_insertIcSt11char_traitsIcEERSt13basic_ostreamIT_T0_ES6_PKS3_l@PLT
 4658      00
 4659 22b1 488B7C24 		movq	8(%rsp), %rdi
 4659      08
 4660 22b6 4489E6   		movl	%r12d, %esi
 4661 22b9 E8000000 		call	_ZNSolsEi@PLT
 4661      00
 4662 22be 4889DF   		movq	%rbx, %rdi
 4663 22c1 E8000000 		call	_ZNK8UnitTest15MemoryOutStream7GetTextEv@PLT
 4663      00
 4664 22c6 488B3C24 		movq	(%rsp), %rdi
 4665 22ca 4889C2   		movq	%rax, %rdx
 4666 22cd 4889EE   		movq	%rbp, %rsi
 4667 22d0 E8000000 		call	_ZN8UnitTest11TestResults13OnTestFailureERKNS_11TestDetailsEPKc@PLT
 4667      00
 4668              	.LEHE118:
 4669 22d5 488BBC24 		movq	192(%rsp), %rdi
 4669      C0000000 
 4670 22dd 488D8380 		leaq	128(%rbx), %rax
 4670      000000
 4671 22e4 4C897C24 		movq	%r15, 80(%rsp)
 4671      50
 4672 22e9 4C89B424 		movq	%r14, 224(%rsp)
 4672      E0000000 
 4673 22f1 4839C7   		cmpq	%rax, %rdi
 4674 22f4 7405     		je	.L386
 4675 22f6 E8000000 		call	_ZdlPv@PLT
 4675      00
 4676              	.L386:
 4677 22fb 488D0500 		leaq	64+_ZTCN8UnitTest15MemoryOutStreamE0_NSt7__cxx1119basic_ostringstreamIcSt11char_traitsIcESaIc
 4677      000000
 4678 2302 488BBC24 		movq	160(%rsp), %rdi
 4678      A0000000 
 4679 230a F30F7E05 		movq	.LC14(%rip), %xmm0
 4679      00000000 
 4680 2312 48898424 		movq	%rax, 224(%rsp)
 4680      E0000000 
 4681 231a 488D4360 		leaq	96(%rbx), %rax
 4682 231e 0F160500 		movhps	.LC15(%rip), %xmm0
 4682      000000
 4683 2325 4839C7   		cmpq	%rax, %rdi
 4684 2328 0F294424 		movaps	%xmm0, 80(%rsp)
 4684      50
 4685 232d 7405     		je	.L387
 4686 232f E8000000 		call	_ZdlPv@PLT
 4686      00
 4687              	.L387:
 4688 2334 488D0500 		leaq	16+_ZTVSt15basic_streambufIcSt11char_traitsIcEE(%rip), %rax
 4688      000000
 4689 233b 488D7B40 		leaq	64(%rbx), %rdi
 4690 233f 48894424 		movq	%rax, 88(%rsp)
 4690      58
 4691 2344 E8000000 		call	_ZNSt6localeD1Ev@PLT
 4691      00
 4692 2349 488D0500 		leaq	16+_ZTVSt9basic_iosIcSt11char_traitsIcEE(%rip), %rax
 4692      000000
 4693 2350 488DBB90 		leaq	144(%rbx), %rdi
 4693      000000
 4694 2357 4C896C24 		movq	%r13, 80(%rsp)
 4694      50
 4695 235c 48898424 		movq	%rax, 224(%rsp)
 4695      E0000000 
 4696              	.LEHB119:
 4697 2364 E8000000 		call	_ZNSt8ios_baseD2Ev@PLT
 4697      00
 4698              	.LEHE119:
 4699              	.L379:
 4700 2369 488B8424 		movq	488(%rsp), %rax
 4700      E8010000 
 4701 2371 64483304 		xorq	%fs:40, %rax
 4701      25280000 
 4701      00
 4702 237a 7512     		jne	.L403
 4703 237c 4881C4F8 		addq	$504, %rsp
 4703      010000
 4704              		.cfi_remember_state
 4705              		.cfi_def_cfa_offset 56
 4706 2383 5B       		popq	%rbx
 4707              		.cfi_def_cfa_offset 48
 4708 2384 5D       		popq	%rbp
 4709              		.cfi_def_cfa_offset 40
 4710 2385 415C     		popq	%r12
 4711              		.cfi_def_cfa_offset 32
 4712 2387 415D     		popq	%r13
 4713              		.cfi_def_cfa_offset 24
 4714 2389 415E     		popq	%r14
 4715              		.cfi_def_cfa_offset 16
 4716 238b 415F     		popq	%r15
 4717              		.cfi_def_cfa_offset 8
 4718 238d C3       		ret
 4719              	.L403:
 4720              		.cfi_restore_state
 4721 238e E8000000 		call	__stack_chk_fail@PLT
 4721      00
 4722              	.L394:
 4723 2393 4889DF   		movq	%rbx, %rdi
 4724 2396 4989C4   		movq	%rax, %r12
 4725 2399 E8000000 		call	_ZN8UnitTest15MemoryOutStreamD1Ev
 4725      00
 4726              	.L385:
 4727 239e 4C89E7   		movq	%r12, %rdi
 4728 23a1 E8000000 		call	__cxa_begin_catch@PLT
 4728      00
 4729              	.LEHB120:
 4730 23a6 E8000000 		call	_ZN8UnitTest11CurrentTest7ResultsEv@PLT
 4730      00
 4731 23ab 488B18   		movq	(%rax), %rbx
 4732 23ae E8000000 		call	_ZN8UnitTest11CurrentTest7DetailsEv@PLT
 4732      00
 4733 23b3 488B30   		movq	(%rax), %rsi
 4734 23b6 BA350000 		movl	$53, %edx
 4734      00
 4735 23bb 4889EF   		movq	%rbp, %rdi
 4736 23be E8000000 		call	_ZN8UnitTest11TestDetailsC1ERKS0_i@PLT
 4736      00
 4737 23c3 488D1500 		leaq	.LC27(%rip), %rdx
 4737      000000
 4738 23ca 4889EE   		movq	%rbp, %rsi
 4739 23cd 4889DF   		movq	%rbx, %rdi
 4740 23d0 E8000000 		call	_ZN8UnitTest11TestResults13OnTestFailureERKNS_11TestDetailsEPKc@PLT
 4740      00
 4741              	.LEHE120:
 4742              	.LEHB121:
 4743 23d5 E8000000 		call	__cxa_end_catch@PLT
 4743      00
 4744              	.LEHE121:
 4745 23da EB8D     		jmp	.L379
 4746              	.L392:
 4747 23dc 4989C4   		movq	%rax, %r12
 4748 23df EBBD     		jmp	.L385
 4749              	.L393:
 4750 23e1 4889C3   		movq	%rax, %rbx
 4751 23e4 E8000000 		call	__cxa_end_catch@PLT
 4751      00
 4752 23e9 4889DF   		movq	%rbx, %rdi
 4753              	.LEHB122:
 4754 23ec E8000000 		call	_Unwind_Resume@PLT
 4754      00
 4755              	.LEHE122:
 4756              	.L396:
 4757 23f1 488D7B08 		leaq	8(%rbx), %rdi
 4758 23f5 4989C4   		movq	%rax, %r12
 4759 23f8 E8000000 		call	_ZNSt7__cxx1115basic_stringbufIcSt11char_traitsIcESaIcEED1Ev
 4759      00
 4760 23fd 4C896C24 		movq	%r13, 80(%rsp)
 4760      50
 4761              	.L383:
 4762 2402 488D0500 		leaq	16+_ZTVSt9basic_iosIcSt11char_traitsIcEE(%rip), %rax
 4762      000000
 4763 2409 488DBB90 		leaq	144(%rbx), %rdi
 4763      000000
 4764 2410 48898424 		movq	%rax, 224(%rsp)
 4764      E0000000 
 4765 2418 E8000000 		call	_ZNSt8ios_baseD2Ev@PLT
 4765      00
 4766 241d E97CFFFF 		jmp	.L385
 4766      FF
 4767              	.L395:
 4768 2422 4989C4   		movq	%rax, %r12
 4769 2425 EBDB     		jmp	.L383
 4770              		.cfi_endproc
 4771              	.LFE1171:
 4772              		.section	.gcc_except_table
 4773              		.align 4
 4774              	.LLSDA1171:
 4775 02f0 FF       		.byte	0xff
 4776 02f1 9B       		.byte	0x9b
 4777 02f2 3D       		.uleb128 .LLSDATT1171-.LLSDATTD1171
 4778              	.LLSDATTD1171:
 4779 02f3 01       		.byte	0x1
 4780 02f4 31       		.uleb128 .LLSDACSE1171-.LLSDACSB1171
 4781              	.LLSDACSB1171:
 4782 02f5 33       		.uleb128 .LEHB114-.LFB1171
 4783 02f6 36       		.uleb128 .LEHE114-.LEHB114
 4784 02f7 00       		.uleb128 0
 4785 02f8 00       		.uleb128 0
 4786 02f9 69       		.uleb128 .LEHB115-.LFB1171
 4787 02fa 25       		.uleb128 .LEHE115-.LEHB115
 4788 02fb CC06     		.uleb128 .L392-.LFB1171
 4789 02fd 01       		.uleb128 0x1
 4790 02fe 9B02     		.uleb128 .LEHB116-.LFB1171
 4791 0300 05       		.uleb128 .LEHE116-.LEHB116
 4792 0301 9207     		.uleb128 .L395-.LFB1171
 4793 0303 03       		.uleb128 0x3
 4794 0304 AA03     		.uleb128 .LEHB117-.LFB1171
 4795 0306 05       		.uleb128 .LEHE117-.LEHB117
 4796 0307 E106     		.uleb128 .L396-.LFB1171
 4797 0309 03       		.uleb128 0x3
 4798 030a F903     		.uleb128 .LEHB118-.LFB1171
 4799 030c 4C       		.uleb128 .LEHE118-.LEHB118
 4800 030d 8306     		.uleb128 .L394-.LFB1171
 4801 030f 03       		.uleb128 0x3
 4802 0310 D405     		.uleb128 .LEHB119-.LFB1171
 4803 0312 05       		.uleb128 .LEHE119-.LEHB119
 4804 0313 CC06     		.uleb128 .L392-.LFB1171
 4805 0315 01       		.uleb128 0x1
 4806 0316 9606     		.uleb128 .LEHB120-.LFB1171
 4807 0318 2F       		.uleb128 .LEHE120-.LEHB120
 4808 0319 D106     		.uleb128 .L393-.LFB1171
 4809 031b 00       		.uleb128 0
 4810 031c C506     		.uleb128 .LEHB121-.LFB1171
 4811 031e 05       		.uleb128 .LEHE121-.LEHB121
 4812 031f 00       		.uleb128 0
 4813 0320 00       		.uleb128 0
 4814 0321 DC06     		.uleb128 .LEHB122-.LFB1171
 4815 0323 05       		.uleb128 .LEHE122-.LEHB122
 4816 0324 00       		.uleb128 0
 4817 0325 00       		.uleb128 0
 4818              	.LLSDACSE1171:
 4819 0326 01       		.byte	0x1
 4820 0327 00       		.byte	0
 4821 0328 00       		.byte	0
 4822 0329 7D       		.byte	0x7d
 4823 032a 0000     		.align 4
 4824 032c 00000000 		.long	0
 4825              	
 4826              	.LLSDATT1171:
 4827              		.text
 4829 2427 90       		.align 2
 4830 2428 0F1F8400 		.p2align 4,,15
 4830      00000000 
 4832              	_ZNK12_GLOBAL__N_151TestCheckEqualsWithStringsWorksOnContentsConstConst7RunImplEv:
 4833              	.LFB1167:
 4834              		.cfi_startproc
 4835              		.cfi_personality 0x9b,DW.ref.__gxx_personality_v0
 4836              		.cfi_lsda 0x1b,.LLSDA1167
 4837 2430 4157     		pushq	%r15
 4838              		.cfi_def_cfa_offset 16
 4839              		.cfi_offset 15, -16
 4840 2432 4156     		pushq	%r14
 4841              		.cfi_def_cfa_offset 24
 4842              		.cfi_offset 14, -24
 4843 2434 31F6     		xorl	%esi, %esi
 4844 2436 4155     		pushq	%r13
 4845              		.cfi_def_cfa_offset 32
 4846              		.cfi_offset 13, -32
 4847 2438 4154     		pushq	%r12
 4848              		.cfi_def_cfa_offset 40
 4849              		.cfi_offset 12, -40
 4850 243a 55       		pushq	%rbp
 4851              		.cfi_def_cfa_offset 48
 4852              		.cfi_offset 6, -48
 4853 243b 53       		pushq	%rbx
 4854              		.cfi_def_cfa_offset 56
 4855              		.cfi_offset 3, -56
 4856 243c 4881ECF8 		subq	$504, %rsp
 4856      010000
 4857              		.cfi_def_cfa_offset 560
 4858 2443 488D5C24 		leaq	16(%rsp), %rbx
 4858      10
 4859 2448 488D6C24 		leaq	48(%rsp), %rbp
 4859      30
 4860 244d 64488B04 		movq	%fs:40, %rax
 4860      25280000 
 4860      00
 4861 2456 48898424 		movq	%rax, 488(%rsp)
 4861      E8010000 
 4862 245e 31C0     		xorl	%eax, %eax
 4863 2460 4889DF   		movq	%rbx, %rdi
 4864              	.LEHB123:
 4865 2463 E8000000 		call	_ZN8UnitTest11TestResultsC1EPNS_12TestReporterE@PLT
 4865      00
 4866 2468 488D0D00 		leaq	.LC1(%rip), %rcx
 4866      000000
 4867 246f 4889EF   		movq	%rbp, %rdi
 4868 2472 4531C0   		xorl	%r8d, %r8d
 4869 2475 4889CA   		movq	%rcx, %rdx
 4870 2478 4889CE   		movq	%rcx, %rsi
 4871 247b E8000000 		call	_ZN8UnitTest11TestDetailsC1EPKcS2_S2_i@PLT
 4871      00
 4872 2480 488D1500 		leaq	_ZN12_GLOBAL__N_14txt2E(%rip), %rdx
 4872      000000
 4873 2487 488D3500 		leaq	_ZN12_GLOBAL__N_14txt1E(%rip), %rsi
 4873      000000
 4874 248e 4889E9   		movq	%rbp, %rcx
 4875 2491 4889DF   		movq	%rbx, %rdi
 4876 2494 E8000000 		call	_ZN8UnitTest10CheckEqualERNS_11TestResultsEPcS2_RKNS_11TestDetailsE@PLT
 4876      00
 4877              	.LEHE123:
 4878              	.LEHB124:
 4879 2499 E8000000 		call	_ZN8UnitTest11CurrentTest7DetailsEv@PLT
 4879      00
 4880 249e 488B30   		movq	(%rax), %rsi
 4881 24a1 BA2C0000 		movl	$44, %edx
 4881      00
 4882 24a6 4889EF   		movq	%rbp, %rdi
 4883 24a9 E8000000 		call	_ZN8UnitTest11TestDetailsC1ERKS0_i@PLT
 4883      00
 4884 24ae 4889DF   		movq	%rbx, %rdi
 4885 24b1 E8000000 		call	_ZNK8UnitTest11TestResults15GetFailureCountEv@PLT
 4885      00
 4886 24b6 4189C4   		movl	%eax, %r12d
 4887 24b9 E8000000 		call	_ZN8UnitTest11CurrentTest7ResultsEv@PLT
 4887      00
 4888              	.LEHE124:
 4889 24be 4585E4   		testl	%r12d, %r12d
 4890 24c1 0F844202 		je	.L404
 4890      0000
 4891 24c7 488D5C24 		leaq	80(%rsp), %rbx
 4891      50
 4892 24cc 488B00   		movq	(%rax), %rax
 4893 24cf 4C8D2D00 		leaq	24+_ZTCN8UnitTest15MemoryOutStreamE0_So(%rip), %r13
 4893      000000
 4894 24d6 4C8DB390 		leaq	144(%rbx), %r14
 4894      000000
 4895 24dd 48890424 		movq	%rax, (%rsp)
 4896 24e1 4C89F7   		movq	%r14, %rdi
 4897 24e4 E8000000 		call	_ZNSt8ios_baseC2Ev@PLT
 4897      00
 4898 24e9 498D4528 		leaq	40(%r13), %rax
 4899 24ed 31F6     		xorl	%esi, %esi
 4900 24ef 4C89F7   		movq	%r14, %rdi
 4901 24f2 48C78424 		movq	$0, 440(%rsp)
 4901      B8010000 
 4901      00000000 
 4902 24fe C68424C0 		movb	$0, 448(%rsp)
 4902      01000000 
 4903 2506 C68424C1 		movb	$0, 449(%rsp)
 4903      01000000 
 4904 250e 48C78424 		movq	$0, 456(%rsp)
 4904      C8010000 
 4904      00000000 
 4905 251a 48C78424 		movq	$0, 464(%rsp)
 4905      D0010000 
 4905      00000000 
 4906 2526 48C78424 		movq	$0, 472(%rsp)
 4906      D8010000 
 4906      00000000 
 4907 2532 48C78424 		movq	$0, 480(%rsp)
 4907      E0010000 
 4907      00000000 
 4908 253e 4C896C24 		movq	%r13, 80(%rsp)
 4908      50
 4909 2543 48898424 		movq	%rax, 224(%rsp)
 4909      E0000000 
 4910              	.LEHB125:
 4911 254b E8000000 		call	_ZNSt9basic_iosIcSt11char_traitsIcEE4initEPSt15basic_streambufIcS1_E@PLT
 4911      00
 4912              	.LEHE125:
 4913 2550 488D0500 		leaq	24+_ZTCN8UnitTest15MemoryOutStreamE0_NSt7__cxx1119basic_ostringstreamIcSt11char_traitsIcESaIc
 4913      000000
 4914 2557 660FEFC0 		pxor	%xmm0, %xmm0
 4915 255b 488D7B40 		leaq	64(%rbx), %rdi
 4916 255f 48894424 		movq	%rax, 80(%rsp)
 4916      50
 4917 2564 4883C028 		addq	$40, %rax
 4918 2568 48898424 		movq	%rax, 224(%rsp)
 4918      E0000000 
 4919 2570 488D0500 		leaq	16+_ZTVSt15basic_streambufIcSt11char_traitsIcEE(%rip), %rax
 4919      000000
 4920 2577 0F294424 		movaps	%xmm0, 96(%rsp)
 4920      60
 4921 257c 48894424 		movq	%rax, 88(%rsp)
 4921      58
 4922 2581 0F294424 		movaps	%xmm0, 112(%rsp)
 4922      70
 4923 2586 0F298424 		movaps	%xmm0, 128(%rsp)
 4923      80000000 
 4924 258e E8000000 		call	_ZNSt6localeC1Ev@PLT
 4924      00
 4925 2593 488D0500 		leaq	16+_ZTVNSt7__cxx1115basic_stringbufIcSt11char_traitsIcESaIcEEE(%rip), %rax
 4925      000000
 4926 259a 488D7308 		leaq	8(%rbx), %rsi
 4927 259e 48894424 		movq	%rax, 88(%rsp)
 4927      58
 4928 25a3 488D4360 		leaq	96(%rbx), %rax
 4929 25a7 C7842498 		movl	$16, 152(%rsp)
 4929      00000010 
 4929      000000
 4930 25b2 48C78424 		movq	$0, 168(%rsp)
 4930      A8000000 
 4930      00000000 
 4931 25be C68424B0 		movb	$0, 176(%rsp)
 4931      00000000 
 4932 25c6 48898424 		movq	%rax, 160(%rsp)
 4932      A0000000 
 4933 25ce 488B4424 		movq	80(%rsp), %rax
 4933      50
 4934 25d3 488B78E8 		movq	-24(%rax), %rdi
 4935 25d7 4801DF   		addq	%rbx, %rdi
 4936              	.LEHB126:
 4937 25da E8000000 		call	_ZNSt9basic_iosIcSt11char_traitsIcEE4initEPSt15basic_streambufIcS1_E@PLT
 4937      00
 4938              	.LEHE126:
 4939 25df 4C8D3D00 		leaq	24+_ZTVN8UnitTest15MemoryOutStreamE(%rip), %r15
 4939      000000
 4940 25e6 488D8380 		leaq	128(%rbx), %rax
 4940      000000
 4941 25ed 488D3500 		leaq	.LC2(%rip), %rsi
 4941      000000
 4942 25f4 BA090000 		movl	$9, %edx
 4942      00
 4943 25f9 4889DF   		movq	%rbx, %rdi
 4944 25fc 48C78424 		movq	$0, 200(%rsp)
 4944      C8000000 
 4944      00000000 
 4945 2608 4D8D7728 		leaq	40(%r15), %r14
 4946 260c 4C897C24 		movq	%r15, 80(%rsp)
 4946      50
 4947 2611 48898424 		movq	%rax, 192(%rsp)
 4947      C0000000 
 4948 2619 C68424D0 		movb	$0, 208(%rsp)
 4948      00000000 
 4949 2621 4C89B424 		movq	%r14, 224(%rsp)
 4949      E0000000 
 4950              	.LEHB127:
 4951 2629 E8000000 		call	_ZSt16__ostream_insertIcSt11char_traitsIcEERSt13basic_ostreamIT_T0_ES6_PKS3_l@PLT
 4951      00
 4952 262e 31F6     		xorl	%esi, %esi
 4953 2630 4889DF   		movq	%rbx, %rdi
 4954 2633 E8000000 		call	_ZNSolsEi@PLT
 4954      00
 4955 2638 488D3500 		leaq	.LC6(%rip), %rsi
 4955      000000
 4956 263f BA090000 		movl	$9, %edx
 4956      00
 4957 2644 4889C7   		movq	%rax, %rdi
 4958 2647 48894424 		movq	%rax, 8(%rsp)
 4958      08
 4959 264c E8000000 		call	_ZSt16__ostream_insertIcSt11char_traitsIcEERSt13basic_ostreamIT_T0_ES6_PKS3_l@PLT
 4959      00
 4960 2651 488B7C24 		movq	8(%rsp), %rdi
 4960      08
 4961 2656 4489E6   		movl	%r12d, %esi
 4962 2659 E8000000 		call	_ZNSolsEi@PLT
 4962      00
 4963 265e 4889DF   		movq	%rbx, %rdi
 4964 2661 E8000000 		call	_ZNK8UnitTest15MemoryOutStream7GetTextEv@PLT
 4964      00
 4965 2666 488B3C24 		movq	(%rsp), %rdi
 4966 266a 4889C2   		movq	%rax, %rdx
 4967 266d 4889EE   		movq	%rbp, %rsi
 4968 2670 E8000000 		call	_ZN8UnitTest11TestResults13OnTestFailureERKNS_11TestDetailsEPKc@PLT
 4968      00
 4969              	.LEHE127:
 4970 2675 488BBC24 		movq	192(%rsp), %rdi
 4970      C0000000 
 4971 267d 488D8380 		leaq	128(%rbx), %rax
 4971      000000
 4972 2684 4C897C24 		movq	%r15, 80(%rsp)
 4972      50
 4973 2689 4C89B424 		movq	%r14, 224(%rsp)
 4973      E0000000 
 4974 2691 4839C7   		cmpq	%rax, %rdi
 4975 2694 7405     		je	.L411
 4976 2696 E8000000 		call	_ZdlPv@PLT
 4976      00
 4977              	.L411:
 4978 269b 488D0500 		leaq	64+_ZTCN8UnitTest15MemoryOutStreamE0_NSt7__cxx1119basic_ostringstreamIcSt11char_traitsIcESaIc
 4978      000000
 4979 26a2 488BBC24 		movq	160(%rsp), %rdi
 4979      A0000000 
 4980 26aa F30F7E05 		movq	.LC14(%rip), %xmm0
 4980      00000000 
 4981 26b2 48898424 		movq	%rax, 224(%rsp)
 4981      E0000000 
 4982 26ba 488D4360 		leaq	96(%rbx), %rax
 4983 26be 0F160500 		movhps	.LC15(%rip), %xmm0
 4983      000000
 4984 26c5 4839C7   		cmpq	%rax, %rdi
 4985 26c8 0F294424 		movaps	%xmm0, 80(%rsp)
 4985      50
 4986 26cd 7405     		je	.L412
 4987 26cf E8000000 		call	_ZdlPv@PLT
 4987      00
 4988              	.L412:
 4989 26d4 488D0500 		leaq	16+_ZTVSt15basic_streambufIcSt11char_traitsIcEE(%rip), %rax
 4989      000000
 4990 26db 488D7B40 		leaq	64(%rbx), %rdi
 4991 26df 48894424 		movq	%rax, 88(%rsp)
 4991      58
 4992 26e4 E8000000 		call	_ZNSt6localeD1Ev@PLT
 4992      00
 4993 26e9 488D0500 		leaq	16+_ZTVSt9basic_iosIcSt11char_traitsIcEE(%rip), %rax
 4993      000000
 4994 26f0 488DBB90 		leaq	144(%rbx), %rdi
 4994      000000
 4995 26f7 4C896C24 		movq	%r13, 80(%rsp)
 4995      50
 4996 26fc 48898424 		movq	%rax, 224(%rsp)
 4996      E0000000 
 4997              	.LEHB128:
 4998 2704 E8000000 		call	_ZNSt8ios_baseD2Ev@PLT
 4998      00
 4999              	.LEHE128:
 5000              	.L404:
 5001 2709 488B8424 		movq	488(%rsp), %rax
 5001      E8010000 
 5002 2711 64483304 		xorq	%fs:40, %rax
 5002      25280000 
 5002      00
 5003 271a 7512     		jne	.L428
 5004 271c 4881C4F8 		addq	$504, %rsp
 5004      010000
 5005              		.cfi_remember_state
 5006              		.cfi_def_cfa_offset 56
 5007 2723 5B       		popq	%rbx
 5008              		.cfi_def_cfa_offset 48
 5009 2724 5D       		popq	%rbp
 5010              		.cfi_def_cfa_offset 40
 5011 2725 415C     		popq	%r12
 5012              		.cfi_def_cfa_offset 32
 5013 2727 415D     		popq	%r13
 5014              		.cfi_def_cfa_offset 24
 5015 2729 415E     		popq	%r14
 5016              		.cfi_def_cfa_offset 16
 5017 272b 415F     		popq	%r15
 5018              		.cfi_def_cfa_offset 8
 5019 272d C3       		ret
 5020              	.L428:
 5021              		.cfi_restore_state
 5022 272e E8000000 		call	__stack_chk_fail@PLT
 5022      00
 5023              	.L419:
 5024 2733 4889DF   		movq	%rbx, %rdi
 5025 2736 4989C4   		movq	%rax, %r12
 5026 2739 E8000000 		call	_ZN8UnitTest15MemoryOutStreamD1Ev
 5026      00
 5027              	.L410:
 5028 273e 4C89E7   		movq	%r12, %rdi
 5029 2741 E8000000 		call	__cxa_begin_catch@PLT
 5029      00
 5030              	.LEHB129:
 5031 2746 E8000000 		call	_ZN8UnitTest11CurrentTest7ResultsEv@PLT
 5031      00
 5032 274b 488B18   		movq	(%rax), %rbx
 5033 274e E8000000 		call	_ZN8UnitTest11CurrentTest7DetailsEv@PLT
 5033      00
 5034 2753 488B30   		movq	(%rax), %rsi
 5035 2756 BA2C0000 		movl	$44, %edx
 5035      00
 5036 275b 4889EF   		movq	%rbp, %rdi
 5037 275e E8000000 		call	_ZN8UnitTest11TestDetailsC1ERKS0_i@PLT
 5037      00
 5038 2763 488D1500 		leaq	.LC27(%rip), %rdx
 5038      000000
 5039 276a 4889EE   		movq	%rbp, %rsi
 5040 276d 4889DF   		movq	%rbx, %rdi
 5041 2770 E8000000 		call	_ZN8UnitTest11TestResults13OnTestFailureERKNS_11TestDetailsEPKc@PLT
 5041      00
 5042              	.LEHE129:
 5043              	.LEHB130:
 5044 2775 E8000000 		call	__cxa_end_catch@PLT
 5044      00
 5045              	.LEHE130:
 5046 277a EB8D     		jmp	.L404
 5047              	.L417:
 5048 277c 4989C4   		movq	%rax, %r12
 5049 277f EBBD     		jmp	.L410
 5050              	.L418:
 5051 2781 4889C3   		movq	%rax, %rbx
 5052 2784 E8000000 		call	__cxa_end_catch@PLT
 5052      00
 5053 2789 4889DF   		movq	%rbx, %rdi
 5054              	.LEHB131:
 5055 278c E8000000 		call	_Unwind_Resume@PLT
 5055      00
 5056              	.LEHE131:
 5057              	.L421:
 5058 2791 488D7B08 		leaq	8(%rbx), %rdi
 5059 2795 4989C4   		movq	%rax, %r12
 5060 2798 E8000000 		call	_ZNSt7__cxx1115basic_stringbufIcSt11char_traitsIcESaIcEED1Ev
 5060      00
 5061 279d 4C896C24 		movq	%r13, 80(%rsp)
 5061      50
 5062              	.L408:
 5063 27a2 488D0500 		leaq	16+_ZTVSt9basic_iosIcSt11char_traitsIcEE(%rip), %rax
 5063      000000
 5064 27a9 488DBB90 		leaq	144(%rbx), %rdi
 5064      000000
 5065 27b0 48898424 		movq	%rax, 224(%rsp)
 5065      E0000000 
 5066 27b8 E8000000 		call	_ZNSt8ios_baseD2Ev@PLT
 5066      00
 5067 27bd E97CFFFF 		jmp	.L410
 5067      FF
 5068              	.L420:
 5069 27c2 4989C4   		movq	%rax, %r12
 5070 27c5 EBDB     		jmp	.L408
 5071              		.cfi_endproc
 5072              	.LFE1167:
 5073              		.section	.gcc_except_table
 5074              		.align 4
 5075              	.LLSDA1167:
 5076 0330 FF       		.byte	0xff
 5077 0331 9B       		.byte	0x9b
 5078 0332 3D       		.uleb128 .LLSDATT1167-.LLSDATTD1167
 5079              	.LLSDATTD1167:
 5080 0333 01       		.byte	0x1
 5081 0334 31       		.uleb128 .LLSDACSE1167-.LLSDACSB1167
 5082              	.LLSDACSB1167:
 5083 0335 33       		.uleb128 .LEHB123-.LFB1167
 5084 0336 36       		.uleb128 .LEHE123-.LEHB123
 5085 0337 00       		.uleb128 0
 5086 0338 00       		.uleb128 0
 5087 0339 69       		.uleb128 .LEHB124-.LFB1167
 5088 033a 25       		.uleb128 .LEHE124-.LEHB124
 5089 033b CC06     		.uleb128 .L417-.LFB1167
 5090 033d 01       		.uleb128 0x1
 5091 033e 9B02     		.uleb128 .LEHB125-.LFB1167
 5092 0340 05       		.uleb128 .LEHE125-.LEHB125
 5093 0341 9207     		.uleb128 .L420-.LFB1167
 5094 0343 03       		.uleb128 0x3
 5095 0344 AA03     		.uleb128 .LEHB126-.LFB1167
 5096 0346 05       		.uleb128 .LEHE126-.LEHB126
 5097 0347 E106     		.uleb128 .L421-.LFB1167
 5098 0349 03       		.uleb128 0x3
 5099 034a F903     		.uleb128 .LEHB127-.LFB1167
 5100 034c 4C       		.uleb128 .LEHE127-.LEHB127
 5101 034d 8306     		.uleb128 .L419-.LFB1167
 5102 034f 03       		.uleb128 0x3
 5103 0350 D405     		.uleb128 .LEHB128-.LFB1167
 5104 0352 05       		.uleb128 .LEHE128-.LEHB128
 5105 0353 CC06     		.uleb128 .L417-.LFB1167
 5106 0355 01       		.uleb128 0x1
 5107 0356 9606     		.uleb128 .LEHB129-.LFB1167
 5108 0358 2F       		.uleb128 .LEHE129-.LEHB129
 5109 0359 D106     		.uleb128 .L418-.LFB1167
 5110 035b 00       		.uleb128 0
 5111 035c C506     		.uleb128 .LEHB130-.LFB1167
 5112 035e 05       		.uleb128 .LEHE130-.LEHB130
 5113 035f 00       		.uleb128 0
 5114 0360 00       		.uleb128 0
 5115 0361 DC06     		.uleb128 .LEHB131-.LFB1167
 5116 0363 05       		.uleb128 .LEHE131-.LEHB131
 5117 0364 00       		.uleb128 0
 5118 0365 00       		.uleb128 0
 5119              	.LLSDACSE1167:
 5120 0366 01       		.byte	0x1
 5121 0367 00       		.byte	0
 5122 0368 00       		.byte	0
 5123 0369 7D       		.byte	0x7d
 5124 036a 0000     		.align 4
 5125 036c 00000000 		.long	0
 5126              	
 5127              	.LLSDATT1167:
 5128              		.text
 5130              		.section	.rodata.str1.1
 5131              	.LC28:
 5132 005d 48656C6C 		.string	"Hello"
 5132      6F00
 5133              		.text
 5134 27c7 90       		.align 2
 5135 27c8 0F1F8400 		.p2align 4,,15
 5135      00000000 
 5137              	_ZNK12_GLOBAL__N_153TestCheckEqualsWithStringsWorksOnContentsWithALiteral7RunImplEv:
 5138              	.LFB1179:
 5139              		.cfi_startproc
 5140              		.cfi_personality 0x9b,DW.ref.__gxx_personality_v0
 5141              		.cfi_lsda 0x1b,.LLSDA1179
 5142 27d0 4157     		pushq	%r15
 5143              		.cfi_def_cfa_offset 16
 5144              		.cfi_offset 15, -16
 5145 27d2 4156     		pushq	%r14
 5146              		.cfi_def_cfa_offset 24
 5147              		.cfi_offset 14, -24
 5148 27d4 31F6     		xorl	%esi, %esi
 5149 27d6 4155     		pushq	%r13
 5150              		.cfi_def_cfa_offset 32
 5151              		.cfi_offset 13, -32
 5152 27d8 4154     		pushq	%r12
 5153              		.cfi_def_cfa_offset 40
 5154              		.cfi_offset 12, -40
 5155 27da 55       		pushq	%rbp
 5156              		.cfi_def_cfa_offset 48
 5157              		.cfi_offset 6, -48
 5158 27db 53       		pushq	%rbx
 5159              		.cfi_def_cfa_offset 56
 5160              		.cfi_offset 3, -56
 5161 27dc 4881ECF8 		subq	$504, %rsp
 5161      010000
 5162              		.cfi_def_cfa_offset 560
 5163 27e3 488D5C24 		leaq	16(%rsp), %rbx
 5163      10
 5164 27e8 488D6C24 		leaq	48(%rsp), %rbp
 5164      30
 5165 27ed 64488B04 		movq	%fs:40, %rax
 5165      25280000 
 5165      00
 5166 27f6 48898424 		movq	%rax, 488(%rsp)
 5166      E8010000 
 5167 27fe 31C0     		xorl	%eax, %eax
 5168 2800 4889DF   		movq	%rbx, %rdi
 5169              	.LEHB132:
 5170 2803 E8000000 		call	_ZN8UnitTest11TestResultsC1EPNS_12TestReporterE@PLT
 5170      00
 5171 2808 488D0D00 		leaq	.LC1(%rip), %rcx
 5171      000000
 5172 280f 4889EF   		movq	%rbp, %rdi
 5173 2812 4531C0   		xorl	%r8d, %r8d
 5174 2815 4889CA   		movq	%rcx, %rdx
 5175 2818 4889CE   		movq	%rcx, %rsi
 5176 281b E8000000 		call	_ZN8UnitTest11TestDetailsC1EPKcS2_S2_i@PLT
 5176      00
 5177 2820 488D1500 		leaq	_ZN12_GLOBAL__N_14txt1E(%rip), %rdx
 5177      000000
 5178 2827 488D3500 		leaq	.LC28(%rip), %rsi
 5178      000000
 5179 282e 4889E9   		movq	%rbp, %rcx
 5180 2831 4889DF   		movq	%rbx, %rdi
 5181 2834 E8000000 		call	_ZN8UnitTest10CheckEqualERNS_11TestResultsEPKcS3_RKNS_11TestDetailsE@PLT
 5181      00
 5182              	.LEHE132:
 5183              	.LEHB133:
 5184 2839 E8000000 		call	_ZN8UnitTest11CurrentTest7DetailsEv@PLT
 5184      00
 5185 283e 488B30   		movq	(%rax), %rsi
 5186 2841 BA460000 		movl	$70, %edx
 5186      00
 5187 2846 4889EF   		movq	%rbp, %rdi
 5188 2849 E8000000 		call	_ZN8UnitTest11TestDetailsC1ERKS0_i@PLT
 5188      00
 5189 284e 4889DF   		movq	%rbx, %rdi
 5190 2851 E8000000 		call	_ZNK8UnitTest11TestResults15GetFailureCountEv@PLT
 5190      00
 5191 2856 4189C4   		movl	%eax, %r12d
 5192 2859 E8000000 		call	_ZN8UnitTest11CurrentTest7ResultsEv@PLT
 5192      00
 5193              	.LEHE133:
 5194 285e 4585E4   		testl	%r12d, %r12d
 5195 2861 0F844202 		je	.L429
 5195      0000
 5196 2867 488D5C24 		leaq	80(%rsp), %rbx
 5196      50
 5197 286c 488B00   		movq	(%rax), %rax
 5198 286f 4C8D2D00 		leaq	24+_ZTCN8UnitTest15MemoryOutStreamE0_So(%rip), %r13
 5198      000000
 5199 2876 4C8DB390 		leaq	144(%rbx), %r14
 5199      000000
 5200 287d 48890424 		movq	%rax, (%rsp)
 5201 2881 4C89F7   		movq	%r14, %rdi
 5202 2884 E8000000 		call	_ZNSt8ios_baseC2Ev@PLT
 5202      00
 5203 2889 498D4528 		leaq	40(%r13), %rax
 5204 288d 31F6     		xorl	%esi, %esi
 5205 288f 4C89F7   		movq	%r14, %rdi
 5206 2892 48C78424 		movq	$0, 440(%rsp)
 5206      B8010000 
 5206      00000000 
 5207 289e C68424C0 		movb	$0, 448(%rsp)
 5207      01000000 
 5208 28a6 C68424C1 		movb	$0, 449(%rsp)
 5208      01000000 
 5209 28ae 48C78424 		movq	$0, 456(%rsp)
 5209      C8010000 
 5209      00000000 
 5210 28ba 48C78424 		movq	$0, 464(%rsp)
 5210      D0010000 
 5210      00000000 
 5211 28c6 48C78424 		movq	$0, 472(%rsp)
 5211      D8010000 
 5211      00000000 
 5212 28d2 48C78424 		movq	$0, 480(%rsp)
 5212      E0010000 
 5212      00000000 
 5213 28de 4C896C24 		movq	%r13, 80(%rsp)
 5213      50
 5214 28e3 48898424 		movq	%rax, 224(%rsp)
 5214      E0000000 
 5215              	.LEHB134:
 5216 28eb E8000000 		call	_ZNSt9basic_iosIcSt11char_traitsIcEE4initEPSt15basic_streambufIcS1_E@PLT
 5216      00
 5217              	.LEHE134:
 5218 28f0 488D0500 		leaq	24+_ZTCN8UnitTest15MemoryOutStreamE0_NSt7__cxx1119basic_ostringstreamIcSt11char_traitsIcESaIc
 5218      000000
 5219 28f7 660FEFC0 		pxor	%xmm0, %xmm0
 5220 28fb 488D7B40 		leaq	64(%rbx), %rdi
 5221 28ff 48894424 		movq	%rax, 80(%rsp)
 5221      50
 5222 2904 4883C028 		addq	$40, %rax
 5223 2908 48898424 		movq	%rax, 224(%rsp)
 5223      E0000000 
 5224 2910 488D0500 		leaq	16+_ZTVSt15basic_streambufIcSt11char_traitsIcEE(%rip), %rax
 5224      000000
 5225 2917 0F294424 		movaps	%xmm0, 96(%rsp)
 5225      60
 5226 291c 48894424 		movq	%rax, 88(%rsp)
 5226      58
 5227 2921 0F294424 		movaps	%xmm0, 112(%rsp)
 5227      70
 5228 2926 0F298424 		movaps	%xmm0, 128(%rsp)
 5228      80000000 
 5229 292e E8000000 		call	_ZNSt6localeC1Ev@PLT
 5229      00
 5230 2933 488D0500 		leaq	16+_ZTVNSt7__cxx1115basic_stringbufIcSt11char_traitsIcESaIcEEE(%rip), %rax
 5230      000000
 5231 293a 488D7308 		leaq	8(%rbx), %rsi
 5232 293e 48894424 		movq	%rax, 88(%rsp)
 5232      58
 5233 2943 488D4360 		leaq	96(%rbx), %rax
 5234 2947 C7842498 		movl	$16, 152(%rsp)
 5234      00000010 
 5234      000000
 5235 2952 48C78424 		movq	$0, 168(%rsp)
 5235      A8000000 
 5235      00000000 
 5236 295e C68424B0 		movb	$0, 176(%rsp)
 5236      00000000 
 5237 2966 48898424 		movq	%rax, 160(%rsp)
 5237      A0000000 
 5238 296e 488B4424 		movq	80(%rsp), %rax
 5238      50
 5239 2973 488B78E8 		movq	-24(%rax), %rdi
 5240 2977 4801DF   		addq	%rbx, %rdi
 5241              	.LEHB135:
 5242 297a E8000000 		call	_ZNSt9basic_iosIcSt11char_traitsIcEE4initEPSt15basic_streambufIcS1_E@PLT
 5242      00
 5243              	.LEHE135:
 5244 297f 4C8D3D00 		leaq	24+_ZTVN8UnitTest15MemoryOutStreamE(%rip), %r15
 5244      000000
 5245 2986 488D8380 		leaq	128(%rbx), %rax
 5245      000000
 5246 298d 488D3500 		leaq	.LC2(%rip), %rsi
 5246      000000
 5247 2994 BA090000 		movl	$9, %edx
 5247      00
 5248 2999 4889DF   		movq	%rbx, %rdi
 5249 299c 48C78424 		movq	$0, 200(%rsp)
 5249      C8000000 
 5249      00000000 
 5250 29a8 4D8D7728 		leaq	40(%r15), %r14
 5251 29ac 4C897C24 		movq	%r15, 80(%rsp)
 5251      50
 5252 29b1 48898424 		movq	%rax, 192(%rsp)
 5252      C0000000 
 5253 29b9 C68424D0 		movb	$0, 208(%rsp)
 5253      00000000 
 5254 29c1 4C89B424 		movq	%r14, 224(%rsp)
 5254      E0000000 
 5255              	.LEHB136:
 5256 29c9 E8000000 		call	_ZSt16__ostream_insertIcSt11char_traitsIcEERSt13basic_ostreamIT_T0_ES6_PKS3_l@PLT
 5256      00
 5257 29ce 31F6     		xorl	%esi, %esi
 5258 29d0 4889DF   		movq	%rbx, %rdi
 5259 29d3 E8000000 		call	_ZNSolsEi@PLT
 5259      00
 5260 29d8 488D3500 		leaq	.LC6(%rip), %rsi
 5260      000000
 5261 29df BA090000 		movl	$9, %edx
 5261      00
 5262 29e4 4889C7   		movq	%rax, %rdi
 5263 29e7 48894424 		movq	%rax, 8(%rsp)
 5263      08
 5264 29ec E8000000 		call	_ZSt16__ostream_insertIcSt11char_traitsIcEERSt13basic_ostreamIT_T0_ES6_PKS3_l@PLT
 5264      00
 5265 29f1 488B7C24 		movq	8(%rsp), %rdi
 5265      08
 5266 29f6 4489E6   		movl	%r12d, %esi
 5267 29f9 E8000000 		call	_ZNSolsEi@PLT
 5267      00
 5268 29fe 4889DF   		movq	%rbx, %rdi
 5269 2a01 E8000000 		call	_ZNK8UnitTest15MemoryOutStream7GetTextEv@PLT
 5269      00
 5270 2a06 488B3C24 		movq	(%rsp), %rdi
 5271 2a0a 4889C2   		movq	%rax, %rdx
 5272 2a0d 4889EE   		movq	%rbp, %rsi
 5273 2a10 E8000000 		call	_ZN8UnitTest11TestResults13OnTestFailureERKNS_11TestDetailsEPKc@PLT
 5273      00
 5274              	.LEHE136:
 5275 2a15 488BBC24 		movq	192(%rsp), %rdi
 5275      C0000000 
 5276 2a1d 488D8380 		leaq	128(%rbx), %rax
 5276      000000
 5277 2a24 4C897C24 		movq	%r15, 80(%rsp)
 5277      50
 5278 2a29 4C89B424 		movq	%r14, 224(%rsp)
 5278      E0000000 
 5279 2a31 4839C7   		cmpq	%rax, %rdi
 5280 2a34 7405     		je	.L436
 5281 2a36 E8000000 		call	_ZdlPv@PLT
 5281      00
 5282              	.L436:
 5283 2a3b 488D0500 		leaq	64+_ZTCN8UnitTest15MemoryOutStreamE0_NSt7__cxx1119basic_ostringstreamIcSt11char_traitsIcESaIc
 5283      000000
 5284 2a42 488BBC24 		movq	160(%rsp), %rdi
 5284      A0000000 
 5285 2a4a F30F7E05 		movq	.LC14(%rip), %xmm0
 5285      00000000 
 5286 2a52 48898424 		movq	%rax, 224(%rsp)
 5286      E0000000 
 5287 2a5a 488D4360 		leaq	96(%rbx), %rax
 5288 2a5e 0F160500 		movhps	.LC15(%rip), %xmm0
 5288      000000
 5289 2a65 4839C7   		cmpq	%rax, %rdi
 5290 2a68 0F294424 		movaps	%xmm0, 80(%rsp)
 5290      50
 5291 2a6d 7405     		je	.L437
 5292 2a6f E8000000 		call	_ZdlPv@PLT
 5292      00
 5293              	.L437:
 5294 2a74 488D0500 		leaq	16+_ZTVSt15basic_streambufIcSt11char_traitsIcEE(%rip), %rax
 5294      000000
 5295 2a7b 488D7B40 		leaq	64(%rbx), %rdi
 5296 2a7f 48894424 		movq	%rax, 88(%rsp)
 5296      58
 5297 2a84 E8000000 		call	_ZNSt6localeD1Ev@PLT
 5297      00
 5298 2a89 488D0500 		leaq	16+_ZTVSt9basic_iosIcSt11char_traitsIcEE(%rip), %rax
 5298      000000
 5299 2a90 488DBB90 		leaq	144(%rbx), %rdi
 5299      000000
 5300 2a97 4C896C24 		movq	%r13, 80(%rsp)
 5300      50
 5301 2a9c 48898424 		movq	%rax, 224(%rsp)
 5301      E0000000 
 5302              	.LEHB137:
 5303 2aa4 E8000000 		call	_ZNSt8ios_baseD2Ev@PLT
 5303      00
 5304              	.LEHE137:
 5305              	.L429:
 5306 2aa9 488B8424 		movq	488(%rsp), %rax
 5306      E8010000 
 5307 2ab1 64483304 		xorq	%fs:40, %rax
 5307      25280000 
 5307      00
 5308 2aba 7512     		jne	.L453
 5309 2abc 4881C4F8 		addq	$504, %rsp
 5309      010000
 5310              		.cfi_remember_state
 5311              		.cfi_def_cfa_offset 56
 5312 2ac3 5B       		popq	%rbx
 5313              		.cfi_def_cfa_offset 48
 5314 2ac4 5D       		popq	%rbp
 5315              		.cfi_def_cfa_offset 40
 5316 2ac5 415C     		popq	%r12
 5317              		.cfi_def_cfa_offset 32
 5318 2ac7 415D     		popq	%r13
 5319              		.cfi_def_cfa_offset 24
 5320 2ac9 415E     		popq	%r14
 5321              		.cfi_def_cfa_offset 16
 5322 2acb 415F     		popq	%r15
 5323              		.cfi_def_cfa_offset 8
 5324 2acd C3       		ret
 5325              	.L453:
 5326              		.cfi_restore_state
 5327 2ace E8000000 		call	__stack_chk_fail@PLT
 5327      00
 5328              	.L444:
 5329 2ad3 4889DF   		movq	%rbx, %rdi
 5330 2ad6 4989C4   		movq	%rax, %r12
 5331 2ad9 E8000000 		call	_ZN8UnitTest15MemoryOutStreamD1Ev
 5331      00
 5332              	.L435:
 5333 2ade 4C89E7   		movq	%r12, %rdi
 5334 2ae1 E8000000 		call	__cxa_begin_catch@PLT
 5334      00
 5335              	.LEHB138:
 5336 2ae6 E8000000 		call	_ZN8UnitTest11CurrentTest7ResultsEv@PLT
 5336      00
 5337 2aeb 488B18   		movq	(%rax), %rbx
 5338 2aee E8000000 		call	_ZN8UnitTest11CurrentTest7DetailsEv@PLT
 5338      00
 5339 2af3 488B30   		movq	(%rax), %rsi
 5340 2af6 BA460000 		movl	$70, %edx
 5340      00
 5341 2afb 4889EF   		movq	%rbp, %rdi
 5342 2afe E8000000 		call	_ZN8UnitTest11TestDetailsC1ERKS0_i@PLT
 5342      00
 5343 2b03 488D1500 		leaq	.LC27(%rip), %rdx
 5343      000000
 5344 2b0a 4889EE   		movq	%rbp, %rsi
 5345 2b0d 4889DF   		movq	%rbx, %rdi
 5346 2b10 E8000000 		call	_ZN8UnitTest11TestResults13OnTestFailureERKNS_11TestDetailsEPKc@PLT
 5346      00
 5347              	.LEHE138:
 5348              	.LEHB139:
 5349 2b15 E8000000 		call	__cxa_end_catch@PLT
 5349      00
 5350              	.LEHE139:
 5351 2b1a EB8D     		jmp	.L429
 5352              	.L442:
 5353 2b1c 4989C4   		movq	%rax, %r12
 5354 2b1f EBBD     		jmp	.L435
 5355              	.L443:
 5356 2b21 4889C3   		movq	%rax, %rbx
 5357 2b24 E8000000 		call	__cxa_end_catch@PLT
 5357      00
 5358 2b29 4889DF   		movq	%rbx, %rdi
 5359              	.LEHB140:
 5360 2b2c E8000000 		call	_Unwind_Resume@PLT
 5360      00
 5361              	.LEHE140:
 5362              	.L446:
 5363 2b31 488D7B08 		leaq	8(%rbx), %rdi
 5364 2b35 4989C4   		movq	%rax, %r12
 5365 2b38 E8000000 		call	_ZNSt7__cxx1115basic_stringbufIcSt11char_traitsIcESaIcEED1Ev
 5365      00
 5366 2b3d 4C896C24 		movq	%r13, 80(%rsp)
 5366      50
 5367              	.L433:
 5368 2b42 488D0500 		leaq	16+_ZTVSt9basic_iosIcSt11char_traitsIcEE(%rip), %rax
 5368      000000
 5369 2b49 488DBB90 		leaq	144(%rbx), %rdi
 5369      000000
 5370 2b50 48898424 		movq	%rax, 224(%rsp)
 5370      E0000000 
 5371 2b58 E8000000 		call	_ZNSt8ios_baseD2Ev@PLT
 5371      00
 5372 2b5d E97CFFFF 		jmp	.L435
 5372      FF
 5373              	.L445:
 5374 2b62 4989C4   		movq	%rax, %r12
 5375 2b65 EBDB     		jmp	.L433
 5376              		.cfi_endproc
 5377              	.LFE1179:
 5378              		.section	.gcc_except_table
 5379              		.align 4
 5380              	.LLSDA1179:
 5381 0370 FF       		.byte	0xff
 5382 0371 9B       		.byte	0x9b
 5383 0372 3D       		.uleb128 .LLSDATT1179-.LLSDATTD1179
 5384              	.LLSDATTD1179:
 5385 0373 01       		.byte	0x1
 5386 0374 31       		.uleb128 .LLSDACSE1179-.LLSDACSB1179
 5387              	.LLSDACSB1179:
 5388 0375 33       		.uleb128 .LEHB132-.LFB1179
 5389 0376 36       		.uleb128 .LEHE132-.LEHB132
 5390 0377 00       		.uleb128 0
 5391 0378 00       		.uleb128 0
 5392 0379 69       		.uleb128 .LEHB133-.LFB1179
 5393 037a 25       		.uleb128 .LEHE133-.LEHB133
 5394 037b CC06     		.uleb128 .L442-.LFB1179
 5395 037d 01       		.uleb128 0x1
 5396 037e 9B02     		.uleb128 .LEHB134-.LFB1179
 5397 0380 05       		.uleb128 .LEHE134-.LEHB134
 5398 0381 9207     		.uleb128 .L445-.LFB1179
 5399 0383 03       		.uleb128 0x3
 5400 0384 AA03     		.uleb128 .LEHB135-.LFB1179
 5401 0386 05       		.uleb128 .LEHE135-.LEHB135
 5402 0387 E106     		.uleb128 .L446-.LFB1179
 5403 0389 03       		.uleb128 0x3
 5404 038a F903     		.uleb128 .LEHB136-.LFB1179
 5405 038c 4C       		.uleb128 .LEHE136-.LEHB136
 5406 038d 8306     		.uleb128 .L444-.LFB1179
 5407 038f 03       		.uleb128 0x3
 5408 0390 D405     		.uleb128 .LEHB137-.LFB1179
 5409 0392 05       		.uleb128 .LEHE137-.LEHB137
 5410 0393 CC06     		.uleb128 .L442-.LFB1179
 5411 0395 01       		.uleb128 0x1
 5412 0396 9606     		.uleb128 .LEHB138-.LFB1179
 5413 0398 2F       		.uleb128 .LEHE138-.LEHB138
 5414 0399 D106     		.uleb128 .L443-.LFB1179
 5415 039b 00       		.uleb128 0
 5416 039c C506     		.uleb128 .LEHB139-.LFB1179
 5417 039e 05       		.uleb128 .LEHE139-.LEHB139
 5418 039f 00       		.uleb128 0
 5419 03a0 00       		.uleb128 0
 5420 03a1 DC06     		.uleb128 .LEHB140-.LFB1179
 5421 03a3 05       		.uleb128 .LEHE140-.LEHB140
 5422 03a4 00       		.uleb128 0
 5423 03a5 00       		.uleb128 0
 5424              	.LLSDACSE1179:
 5425 03a6 01       		.byte	0x1
 5426 03a7 00       		.byte	0
 5427 03a8 00       		.byte	0
 5428 03a9 7D       		.byte	0x7d
 5429 03aa 0000     		.align 4
 5430 03ac 00000000 		.long	0
 5431              	
 5432              	.LLSDATT1179:
 5433              		.text
 5435              		.section	.rodata.str1.8
 5436 0239 00000000 		.align 8
 5436      000000
 5437              	.LC29:
 5438 0240 556E6861 		.string	"Unhandled exception in CHECK_EQUAL(1, results.GetFailureCount())"
 5438      6E646C65 
 5438      64206578 
 5438      63657074 
 5438      696F6E20 
 5439              		.text
 5440 2b67 90       		.align 2
 5441 2b68 0F1F8400 		.p2align 4,,15
 5441      00000000 
 5443              	_ZNK12_GLOBAL__N_149TestCheckEqualsWithStringsFailsOnDifferentStrings7RunImplEv:
 5444              	.LFB1159:
 5445              		.cfi_startproc
 5446              		.cfi_personality 0x9b,DW.ref.__gxx_personality_v0
 5447              		.cfi_lsda 0x1b,.LLSDA1159
 5448 2b70 4157     		pushq	%r15
 5449              		.cfi_def_cfa_offset 16
 5450              		.cfi_offset 15, -16
 5451 2b72 4156     		pushq	%r14
 5452              		.cfi_def_cfa_offset 24
 5453              		.cfi_offset 14, -24
 5454 2b74 BA6F0000 		movl	$111, %edx
 5454      00
 5455 2b79 4155     		pushq	%r13
 5456              		.cfi_def_cfa_offset 32
 5457              		.cfi_offset 13, -32
 5458 2b7b 4154     		pushq	%r12
 5459              		.cfi_def_cfa_offset 40
 5460              		.cfi_offset 12, -40
 5461 2b7d 31F6     		xorl	%esi, %esi
 5462 2b7f 55       		pushq	%rbp
 5463              		.cfi_def_cfa_offset 48
 5464              		.cfi_offset 6, -48
 5465 2b80 53       		pushq	%rbx
 5466              		.cfi_def_cfa_offset 56
 5467              		.cfi_offset 3, -56
 5468 2b81 4881EC08 		subq	$520, %rsp
 5468      020000
 5469              		.cfi_def_cfa_offset 576
 5470 2b88 488D5C24 		leaq	16(%rsp), %rbx
 5470      10
 5471 2b8d 66899424 		movw	%dx, 502(%rsp)
 5471      F6010000 
 5472 2b95 488D6C24 		leaq	48(%rsp), %rbp
 5472      30
 5473 2b9a 64488B04 		movq	%fs:40, %rax
 5473      25280000 
 5473      00
 5474 2ba3 48898424 		movq	%rax, 504(%rsp)
 5474      F8010000 
 5475 2bab 31C0     		xorl	%eax, %eax
 5476 2bad 4889DF   		movq	%rbx, %rdi
 5477 2bb0 B86F0000 		movl	$111, %eax
 5477      00
 5478 2bb5 C78424EC 		movl	$1819043144, 492(%rsp)
 5478      01000048 
 5478      656C6C
 5479 2bc0 66898424 		movw	%ax, 496(%rsp)
 5479      F0010000 
 5480 2bc8 C78424F2 		movl	$1819042120, 498(%rsp)
 5480      01000048 
 5480      616C6C
 5481              	.LEHB141:
 5482 2bd3 E8000000 		call	_ZN8UnitTest11TestResultsC1EPNS_12TestReporterE@PLT
 5482      00
 5483 2bd8 488D0D00 		leaq	.LC1(%rip), %rcx
 5483      000000
 5484 2bdf 4889EF   		movq	%rbp, %rdi
 5485 2be2 4531C0   		xorl	%r8d, %r8d
 5486 2be5 4889CA   		movq	%rcx, %rdx
 5487 2be8 4889CE   		movq	%rcx, %rsi
 5488 2beb E8000000 		call	_ZN8UnitTest11TestDetailsC1EPKcS2_S2_i@PLT
 5488      00
 5489 2bf0 488D9424 		leaq	498(%rsp), %rdx
 5489      F2010000 
 5490 2bf8 488DB424 		leaq	492(%rsp), %rsi
 5490      EC010000 
 5491 2c00 4889E9   		movq	%rbp, %rcx
 5492 2c03 4889DF   		movq	%rbx, %rdi
 5493 2c06 E8000000 		call	_ZN8UnitTest10CheckEqualERNS_11TestResultsEPcS2_RKNS_11TestDetailsE@PLT
 5493      00
 5494              	.LEHE141:
 5495              	.LEHB142:
 5496 2c0b E8000000 		call	_ZN8UnitTest11CurrentTest7DetailsEv@PLT
 5496      00
 5497 2c10 488B30   		movq	(%rax), %rsi
 5498 2c13 BA170000 		movl	$23, %edx
 5498      00
 5499 2c18 4889EF   		movq	%rbp, %rdi
 5500 2c1b E8000000 		call	_ZN8UnitTest11TestDetailsC1ERKS0_i@PLT
 5500      00
 5501 2c20 4889DF   		movq	%rbx, %rdi
 5502 2c23 E8000000 		call	_ZNK8UnitTest11TestResults15GetFailureCountEv@PLT
 5502      00
 5503 2c28 4189C4   		movl	%eax, %r12d
 5504 2c2b E8000000 		call	_ZN8UnitTest11CurrentTest7ResultsEv@PLT
 5504      00
 5505              	.LEHE142:
 5506 2c30 4183FC01 		cmpl	$1, %r12d
 5507 2c34 0F844502 		je	.L454
 5507      0000
 5508 2c3a 488D5C24 		leaq	80(%rsp), %rbx
 5508      50
 5509 2c3f 488B00   		movq	(%rax), %rax
 5510 2c42 4C8D2D00 		leaq	24+_ZTCN8UnitTest15MemoryOutStreamE0_So(%rip), %r13
 5510      000000
 5511 2c49 4C8DB390 		leaq	144(%rbx), %r14
 5511      000000
 5512 2c50 48890424 		movq	%rax, (%rsp)
 5513 2c54 4C89F7   		movq	%r14, %rdi
 5514 2c57 E8000000 		call	_ZNSt8ios_baseC2Ev@PLT
 5514      00
 5515 2c5c 498D4528 		leaq	40(%r13), %rax
 5516 2c60 31F6     		xorl	%esi, %esi
 5517 2c62 4C89F7   		movq	%r14, %rdi
 5518 2c65 48C78424 		movq	$0, 440(%rsp)
 5518      B8010000 
 5518      00000000 
 5519 2c71 C68424C0 		movb	$0, 448(%rsp)
 5519      01000000 
 5520 2c79 C68424C1 		movb	$0, 449(%rsp)
 5520      01000000 
 5521 2c81 48C78424 		movq	$0, 456(%rsp)
 5521      C8010000 
 5521      00000000 
 5522 2c8d 48C78424 		movq	$0, 464(%rsp)
 5522      D0010000 
 5522      00000000 
 5523 2c99 48C78424 		movq	$0, 472(%rsp)
 5523      D8010000 
 5523      00000000 
 5524 2ca5 48C78424 		movq	$0, 480(%rsp)
 5524      E0010000 
 5524      00000000 
 5525 2cb1 4C896C24 		movq	%r13, 80(%rsp)
 5525      50
 5526 2cb6 48898424 		movq	%rax, 224(%rsp)
 5526      E0000000 
 5527              	.LEHB143:
 5528 2cbe E8000000 		call	_ZNSt9basic_iosIcSt11char_traitsIcEE4initEPSt15basic_streambufIcS1_E@PLT
 5528      00
 5529              	.LEHE143:
 5530 2cc3 488D0500 		leaq	24+_ZTCN8UnitTest15MemoryOutStreamE0_NSt7__cxx1119basic_ostringstreamIcSt11char_traitsIcESaIc
 5530      000000
 5531 2cca 660FEFC0 		pxor	%xmm0, %xmm0
 5532 2cce 488D7B40 		leaq	64(%rbx), %rdi
 5533 2cd2 48894424 		movq	%rax, 80(%rsp)
 5533      50
 5534 2cd7 4883C028 		addq	$40, %rax
 5535 2cdb 48898424 		movq	%rax, 224(%rsp)
 5535      E0000000 
 5536 2ce3 488D0500 		leaq	16+_ZTVSt15basic_streambufIcSt11char_traitsIcEE(%rip), %rax
 5536      000000
 5537 2cea 0F294424 		movaps	%xmm0, 96(%rsp)
 5537      60
 5538 2cef 48894424 		movq	%rax, 88(%rsp)
 5538      58
 5539 2cf4 0F294424 		movaps	%xmm0, 112(%rsp)
 5539      70
 5540 2cf9 0F298424 		movaps	%xmm0, 128(%rsp)
 5540      80000000 
 5541 2d01 E8000000 		call	_ZNSt6localeC1Ev@PLT
 5541      00
 5542 2d06 488D0500 		leaq	16+_ZTVNSt7__cxx1115basic_stringbufIcSt11char_traitsIcESaIcEEE(%rip), %rax
 5542      000000
 5543 2d0d 488D7308 		leaq	8(%rbx), %rsi
 5544 2d11 48894424 		movq	%rax, 88(%rsp)
 5544      58
 5545 2d16 488D4360 		leaq	96(%rbx), %rax
 5546 2d1a C7842498 		movl	$16, 152(%rsp)
 5546      00000010 
 5546      000000
 5547 2d25 48C78424 		movq	$0, 168(%rsp)
 5547      A8000000 
 5547      00000000 
 5548 2d31 C68424B0 		movb	$0, 176(%rsp)
 5548      00000000 
 5549 2d39 48898424 		movq	%rax, 160(%rsp)
 5549      A0000000 
 5550 2d41 488B4424 		movq	80(%rsp), %rax
 5550      50
 5551 2d46 488B78E8 		movq	-24(%rax), %rdi
 5552 2d4a 4801DF   		addq	%rbx, %rdi
 5553              	.LEHB144:
 5554 2d4d E8000000 		call	_ZNSt9basic_iosIcSt11char_traitsIcEE4initEPSt15basic_streambufIcS1_E@PLT
 5554      00
 5555              	.LEHE144:
 5556 2d52 4C8D3D00 		leaq	24+_ZTVN8UnitTest15MemoryOutStreamE(%rip), %r15
 5556      000000
 5557 2d59 488D8380 		leaq	128(%rbx), %rax
 5557      000000
 5558 2d60 488D3500 		leaq	.LC2(%rip), %rsi
 5558      000000
 5559 2d67 BA090000 		movl	$9, %edx
 5559      00
 5560 2d6c 4889DF   		movq	%rbx, %rdi
 5561 2d6f 48C78424 		movq	$0, 200(%rsp)
 5561      C8000000 
 5561      00000000 
 5562 2d7b 4D8D7728 		leaq	40(%r15), %r14
 5563 2d7f 4C897C24 		movq	%r15, 80(%rsp)
 5563      50
 5564 2d84 48898424 		movq	%rax, 192(%rsp)
 5564      C0000000 
 5565 2d8c C68424D0 		movb	$0, 208(%rsp)
 5565      00000000 
 5566 2d94 4C89B424 		movq	%r14, 224(%rsp)
 5566      E0000000 
 5567              	.LEHB145:
 5568 2d9c E8000000 		call	_ZSt16__ostream_insertIcSt11char_traitsIcEERSt13basic_ostreamIT_T0_ES6_PKS3_l@PLT
 5568      00
 5569 2da1 BE010000 		movl	$1, %esi
 5569      00
 5570 2da6 4889DF   		movq	%rbx, %rdi
 5571 2da9 E8000000 		call	_ZNSolsEi@PLT
 5571      00
 5572 2dae 488D3500 		leaq	.LC6(%rip), %rsi
 5572      000000
 5573 2db5 BA090000 		movl	$9, %edx
 5573      00
 5574 2dba 4889C7   		movq	%rax, %rdi
 5575 2dbd 48894424 		movq	%rax, 8(%rsp)
 5575      08
 5576 2dc2 E8000000 		call	_ZSt16__ostream_insertIcSt11char_traitsIcEERSt13basic_ostreamIT_T0_ES6_PKS3_l@PLT
 5576      00
 5577 2dc7 488B7C24 		movq	8(%rsp), %rdi
 5577      08
 5578 2dcc 4489E6   		movl	%r12d, %esi
 5579 2dcf E8000000 		call	_ZNSolsEi@PLT
 5579      00
 5580 2dd4 4889DF   		movq	%rbx, %rdi
 5581 2dd7 E8000000 		call	_ZNK8UnitTest15MemoryOutStream7GetTextEv@PLT
 5581      00
 5582 2ddc 488B3C24 		movq	(%rsp), %rdi
 5583 2de0 4889C2   		movq	%rax, %rdx
 5584 2de3 4889EE   		movq	%rbp, %rsi
 5585 2de6 E8000000 		call	_ZN8UnitTest11TestResults13OnTestFailureERKNS_11TestDetailsEPKc@PLT
 5585      00
 5586              	.LEHE145:
 5587 2deb 488BBC24 		movq	192(%rsp), %rdi
 5587      C0000000 
 5588 2df3 488D8380 		leaq	128(%rbx), %rax
 5588      000000
 5589 2dfa 4C897C24 		movq	%r15, 80(%rsp)
 5589      50
 5590 2dff 4C89B424 		movq	%r14, 224(%rsp)
 5590      E0000000 
 5591 2e07 4839C7   		cmpq	%rax, %rdi
 5592 2e0a 7405     		je	.L461
 5593 2e0c E8000000 		call	_ZdlPv@PLT
 5593      00
 5594              	.L461:
 5595 2e11 488D0500 		leaq	64+_ZTCN8UnitTest15MemoryOutStreamE0_NSt7__cxx1119basic_ostringstreamIcSt11char_traitsIcESaIc
 5595      000000
 5596 2e18 488BBC24 		movq	160(%rsp), %rdi
 5596      A0000000 
 5597 2e20 F30F7E05 		movq	.LC14(%rip), %xmm0
 5597      00000000 
 5598 2e28 48898424 		movq	%rax, 224(%rsp)
 5598      E0000000 
 5599 2e30 488D4360 		leaq	96(%rbx), %rax
 5600 2e34 0F160500 		movhps	.LC15(%rip), %xmm0
 5600      000000
 5601 2e3b 4839C7   		cmpq	%rax, %rdi
 5602 2e3e 0F294424 		movaps	%xmm0, 80(%rsp)
 5602      50
 5603 2e43 7405     		je	.L462
 5604 2e45 E8000000 		call	_ZdlPv@PLT
 5604      00
 5605              	.L462:
 5606 2e4a 488D0500 		leaq	16+_ZTVSt15basic_streambufIcSt11char_traitsIcEE(%rip), %rax
 5606      000000
 5607 2e51 488D7B40 		leaq	64(%rbx), %rdi
 5608 2e55 48894424 		movq	%rax, 88(%rsp)
 5608      58
 5609 2e5a E8000000 		call	_ZNSt6localeD1Ev@PLT
 5609      00
 5610 2e5f 488D0500 		leaq	16+_ZTVSt9basic_iosIcSt11char_traitsIcEE(%rip), %rax
 5610      000000
 5611 2e66 488DBB90 		leaq	144(%rbx), %rdi
 5611      000000
 5612 2e6d 4C896C24 		movq	%r13, 80(%rsp)
 5612      50
 5613 2e72 48898424 		movq	%rax, 224(%rsp)
 5613      E0000000 
 5614              	.LEHB146:
 5615 2e7a E8000000 		call	_ZNSt8ios_baseD2Ev@PLT
 5615      00
 5616              	.LEHE146:
 5617              	.L454:
 5618 2e7f 488B8424 		movq	504(%rsp), %rax
 5618      F8010000 
 5619 2e87 64483304 		xorq	%fs:40, %rax
 5619      25280000 
 5619      00
 5620 2e90 7512     		jne	.L478
 5621 2e92 4881C408 		addq	$520, %rsp
 5621      020000
 5622              		.cfi_remember_state
 5623              		.cfi_def_cfa_offset 56
 5624 2e99 5B       		popq	%rbx
 5625              		.cfi_def_cfa_offset 48
 5626 2e9a 5D       		popq	%rbp
 5627              		.cfi_def_cfa_offset 40
 5628 2e9b 415C     		popq	%r12
 5629              		.cfi_def_cfa_offset 32
 5630 2e9d 415D     		popq	%r13
 5631              		.cfi_def_cfa_offset 24
 5632 2e9f 415E     		popq	%r14
 5633              		.cfi_def_cfa_offset 16
 5634 2ea1 415F     		popq	%r15
 5635              		.cfi_def_cfa_offset 8
 5636 2ea3 C3       		ret
 5637              	.L478:
 5638              		.cfi_restore_state
 5639 2ea4 E8000000 		call	__stack_chk_fail@PLT
 5639      00
 5640              	.L469:
 5641 2ea9 4889DF   		movq	%rbx, %rdi
 5642 2eac 4989C4   		movq	%rax, %r12
 5643 2eaf E8000000 		call	_ZN8UnitTest15MemoryOutStreamD1Ev
 5643      00
 5644              	.L460:
 5645 2eb4 4C89E7   		movq	%r12, %rdi
 5646 2eb7 E8000000 		call	__cxa_begin_catch@PLT
 5646      00
 5647              	.LEHB147:
 5648 2ebc E8000000 		call	_ZN8UnitTest11CurrentTest7ResultsEv@PLT
 5648      00
 5649 2ec1 488B18   		movq	(%rax), %rbx
 5650 2ec4 E8000000 		call	_ZN8UnitTest11CurrentTest7DetailsEv@PLT
 5650      00
 5651 2ec9 488B30   		movq	(%rax), %rsi
 5652 2ecc BA170000 		movl	$23, %edx
 5652      00
 5653 2ed1 4889EF   		movq	%rbp, %rdi
 5654 2ed4 E8000000 		call	_ZN8UnitTest11TestDetailsC1ERKS0_i@PLT
 5654      00
 5655 2ed9 488D1500 		leaq	.LC29(%rip), %rdx
 5655      000000
 5656 2ee0 4889EE   		movq	%rbp, %rsi
 5657 2ee3 4889DF   		movq	%rbx, %rdi
 5658 2ee6 E8000000 		call	_ZN8UnitTest11TestResults13OnTestFailureERKNS_11TestDetailsEPKc@PLT
 5658      00
 5659              	.LEHE147:
 5660              	.LEHB148:
 5661 2eeb E8000000 		call	__cxa_end_catch@PLT
 5661      00
 5662              	.LEHE148:
 5663 2ef0 EB8D     		jmp	.L454
 5664              	.L467:
 5665 2ef2 4989C4   		movq	%rax, %r12
 5666 2ef5 EBBD     		jmp	.L460
 5667              	.L468:
 5668 2ef7 4889C3   		movq	%rax, %rbx
 5669 2efa E8000000 		call	__cxa_end_catch@PLT
 5669      00
 5670 2eff 4889DF   		movq	%rbx, %rdi
 5671              	.LEHB149:
 5672 2f02 E8000000 		call	_Unwind_Resume@PLT
 5672      00
 5673              	.LEHE149:
 5674              	.L471:
 5675 2f07 488D7B08 		leaq	8(%rbx), %rdi
 5676 2f0b 4989C4   		movq	%rax, %r12
 5677 2f0e E8000000 		call	_ZNSt7__cxx1115basic_stringbufIcSt11char_traitsIcESaIcEED1Ev
 5677      00
 5678 2f13 4C896C24 		movq	%r13, 80(%rsp)
 5678      50
 5679              	.L458:
 5680 2f18 488D0500 		leaq	16+_ZTVSt9basic_iosIcSt11char_traitsIcEE(%rip), %rax
 5680      000000
 5681 2f1f 488DBB90 		leaq	144(%rbx), %rdi
 5681      000000
 5682 2f26 48898424 		movq	%rax, 224(%rsp)
 5682      E0000000 
 5683 2f2e E8000000 		call	_ZNSt8ios_baseD2Ev@PLT
 5683      00
 5684 2f33 E97CFFFF 		jmp	.L460
 5684      FF
 5685              	.L470:
 5686 2f38 4989C4   		movq	%rax, %r12
 5687 2f3b EBDB     		jmp	.L458
 5688              		.cfi_endproc
 5689              	.LFE1159:
 5690              		.section	.gcc_except_table
 5691              		.align 4
 5692              	.LLSDA1159:
 5693 03b0 FF       		.byte	0xff
 5694 03b1 9B       		.byte	0x9b
 5695 03b2 3D       		.uleb128 .LLSDATT1159-.LLSDATTD1159
 5696              	.LLSDATTD1159:
 5697 03b3 01       		.byte	0x1
 5698 03b4 32       		.uleb128 .LLSDACSE1159-.LLSDACSB1159
 5699              	.LLSDACSB1159:
 5700 03b5 63       		.uleb128 .LEHB141-.LFB1159
 5701 03b6 38       		.uleb128 .LEHE141-.LEHB141
 5702 03b7 00       		.uleb128 0
 5703 03b8 00       		.uleb128 0
 5704 03b9 9B01     		.uleb128 .LEHB142-.LFB1159
 5705 03bb 25       		.uleb128 .LEHE142-.LEHB142
 5706 03bc 8207     		.uleb128 .L467-.LFB1159
 5707 03be 01       		.uleb128 0x1
 5708 03bf CE02     		.uleb128 .LEHB143-.LFB1159
 5709 03c1 05       		.uleb128 .LEHE143-.LEHB143
 5710 03c2 C807     		.uleb128 .L470-.LFB1159
 5711 03c4 03       		.uleb128 0x3
 5712 03c5 DD03     		.uleb128 .LEHB144-.LFB1159
 5713 03c7 05       		.uleb128 .LEHE144-.LEHB144
 5714 03c8 9707     		.uleb128 .L471-.LFB1159
 5715 03ca 03       		.uleb128 0x3
 5716 03cb AC04     		.uleb128 .LEHB145-.LFB1159
 5717 03cd 4F       		.uleb128 .LEHE145-.LEHB145
 5718 03ce B906     		.uleb128 .L469-.LFB1159
 5719 03d0 03       		.uleb128 0x3
 5720 03d1 8A06     		.uleb128 .LEHB146-.LFB1159
 5721 03d3 05       		.uleb128 .LEHE146-.LEHB146
 5722 03d4 8207     		.uleb128 .L467-.LFB1159
 5723 03d6 01       		.uleb128 0x1
 5724 03d7 CC06     		.uleb128 .LEHB147-.LFB1159
 5725 03d9 2F       		.uleb128 .LEHE147-.LEHB147
 5726 03da 8707     		.uleb128 .L468-.LFB1159
 5727 03dc 00       		.uleb128 0
 5728 03dd FB06     		.uleb128 .LEHB148-.LFB1159
 5729 03df 05       		.uleb128 .LEHE148-.LEHB148
 5730 03e0 00       		.uleb128 0
 5731 03e1 00       		.uleb128 0
 5732 03e2 9207     		.uleb128 .LEHB149-.LFB1159
 5733 03e4 05       		.uleb128 .LEHE149-.LEHB149
 5734 03e5 00       		.uleb128 0
 5735 03e6 00       		.uleb128 0
 5736              	.LLSDACSE1159:
 5737 03e7 01       		.byte	0x1
 5738 03e8 00       		.byte	0
 5739 03e9 00       		.byte	0
 5740 03ea 7D       		.byte	0x7d
 5741 03eb 00       		.align 4
 5742 03ec 00000000 		.long	0
 5743              	
 5744              	.LLSDATT1159:
 5745              		.text
 5747 2f3d 90       		.align 2
 5748 2f3e 6690     		.p2align 4,,15
 5750              	_ZNK12_GLOBAL__N_126TestCheckArray2DCloseFalse7RunImplEv:
 5751              	.LFB1247:
 5752              		.cfi_startproc
 5753              		.cfi_personality 0x9b,DW.ref.__gxx_personality_v0
 5754              		.cfi_lsda 0x1b,.LLSDA1247
 5755 2f40 4157     		pushq	%r15
 5756              		.cfi_def_cfa_offset 16
 5757              		.cfi_offset 15, -16
 5758 2f42 4156     		pushq	%r14
 5759              		.cfi_def_cfa_offset 24
 5760              		.cfi_offset 14, -24
 5761 2f44 31F6     		xorl	%esi, %esi
 5762 2f46 4155     		pushq	%r13
 5763              		.cfi_def_cfa_offset 32
 5764              		.cfi_offset 13, -32
 5765 2f48 4154     		pushq	%r12
 5766              		.cfi_def_cfa_offset 40
 5767              		.cfi_offset 12, -40
 5768 2f4a 55       		pushq	%rbp
 5769              		.cfi_def_cfa_offset 48
 5770              		.cfi_offset 6, -48
 5771 2f4b 53       		pushq	%rbx
 5772              		.cfi_def_cfa_offset 56
 5773              		.cfi_offset 3, -56
 5774 2f4c 4881EC68 		subq	$616, %rsp
 5774      020000
 5775              		.cfi_def_cfa_offset 672
 5776 2f53 488D5C24 		leaq	32(%rsp), %rbx
 5776      20
 5777 2f58 488D6C24 		leaq	64(%rsp), %rbp
 5777      40
 5778 2f5d 64488B04 		movq	%fs:40, %rax
 5778      25280000 
 5778      00
 5779 2f66 48898424 		movq	%rax, 600(%rsp)
 5779      58020000 
 5780 2f6e 31C0     		xorl	%eax, %eax
 5781 2f70 4889DF   		movq	%rbx, %rdi
 5782              	.LEHB150:
 5783 2f73 E8000000 		call	_ZN8UnitTest11TestResultsC1EPNS_12TestReporterE@PLT
 5783      00
 5784 2f78 0F280500 		movaps	.LC30(%rip), %xmm0
 5784      000000
 5785 2f7f 488D0D00 		leaq	.LC1(%rip), %rcx
 5785      000000
 5786 2f86 4531C0   		xorl	%r8d, %r8d
 5787 2f89 4889EF   		movq	%rbp, %rdi
 5788 2f8c C7842480 		movl	$0x40800000, 128(%rsp)
 5788      00000000 
 5788      008040
 5789 2f97 0F294424 		movaps	%xmm0, 96(%rsp)
 5789      60
 5790 2f9c 4889CA   		movq	%rcx, %rdx
 5791 2f9f 4889CE   		movq	%rcx, %rsi
 5792 2fa2 C78424B0 		movl	$0x408051ec, 176(%rsp)
 5792      000000EC 
 5792      518040
 5793 2fad 0F280500 		movaps	.LC31(%rip), %xmm0
 5793      000000
 5794 2fb4 0F294424 		movaps	%xmm0, 112(%rsp)
 5794      70
 5795 2fb9 0F280500 		movaps	.LC33(%rip), %xmm0
 5795      000000
 5796 2fc0 0F298424 		movaps	%xmm0, 144(%rsp)
 5796      90000000 
 5797 2fc8 0F280500 		movaps	.LC34(%rip), %xmm0
 5797      000000
 5798 2fcf 0F298424 		movaps	%xmm0, 160(%rsp)
 5798      A0000000 
 5799 2fd7 E8000000 		call	_ZN8UnitTest11TestDetailsC1EPKcS2_S2_i@PLT
 5799      00
 5800 2fdc 488D4C24 		leaq	28(%rsp), %rcx
 5800      1C
 5801 2fe1 488D9424 		leaq	144(%rsp), %rdx
 5801      90000000 
 5802 2fe9 488D7424 		leaq	96(%rsp), %rsi
 5802      60
 5803 2fee 4989E8   		movq	%rbp, %r8
 5804 2ff1 4889DF   		movq	%rbx, %rdi
 5805 2ff4 C744241C 		movl	$0x3a83126f, 28(%rsp)
 5805      6F12833A 
 5806 2ffc E87FE3FF 		call	_ZN8UnitTest17CheckArray2DCloseIA3_A3_fS2_fEEvRNS_11TestResultsERKT_RKT0_iiRKT1_RKNS_11TestDe
 5806      FF
 5807              	.LEHE150:
 5808              	.LEHB151:
 5809 3001 E8000000 		call	_ZN8UnitTest11CurrentTest7DetailsEv@PLT
 5809      00
 5810 3006 488B30   		movq	(%rax), %rsi
 5811 3009 BA090100 		movl	$265, %edx
 5811      00
 5812 300e 4889EF   		movq	%rbp, %rdi
 5813 3011 E8000000 		call	_ZN8UnitTest11TestDetailsC1ERKS0_i@PLT
 5813      00
 5814 3016 4889DF   		movq	%rbx, %rdi
 5815 3019 E8000000 		call	_ZNK8UnitTest11TestResults15GetFailureCountEv@PLT
 5815      00
 5816 301e 4189C4   		movl	%eax, %r12d
 5817 3021 E8000000 		call	_ZN8UnitTest11CurrentTest7ResultsEv@PLT
 5817      00
 5818              	.LEHE151:
 5819 3026 4183FC01 		cmpl	$1, %r12d
 5820 302a 0F846C02 		je	.L479
 5820      0000
 5821 3030 488D9C24 		leaq	192(%rsp), %rbx
 5821      C0000000 
 5822 3038 488B00   		movq	(%rax), %rax
 5823 303b 4C8D2D00 		leaq	24+_ZTCN8UnitTest15MemoryOutStreamE0_So(%rip), %r13
 5823      000000
 5824 3042 4C8DB390 		leaq	144(%rbx), %r14
 5824      000000
 5825 3049 48890424 		movq	%rax, (%rsp)
 5826 304d 4C89F7   		movq	%r14, %rdi
 5827 3050 E8000000 		call	_ZNSt8ios_baseC2Ev@PLT
 5827      00
 5828 3055 498D4528 		leaq	40(%r13), %rax
 5829 3059 31F6     		xorl	%esi, %esi
 5830 305b 4C89F7   		movq	%r14, %rdi
 5831 305e 48C78424 		movq	$0, 552(%rsp)
 5831      28020000 
 5831      00000000 
 5832 306a C6842430 		movb	$0, 560(%rsp)
 5832      02000000 
 5833 3072 C6842431 		movb	$0, 561(%rsp)
 5833      02000000 
 5834 307a 48C78424 		movq	$0, 568(%rsp)
 5834      38020000 
 5834      00000000 
 5835 3086 48C78424 		movq	$0, 576(%rsp)
 5835      40020000 
 5835      00000000 
 5836 3092 48C78424 		movq	$0, 584(%rsp)
 5836      48020000 
 5836      00000000 
 5837 309e 48C78424 		movq	$0, 592(%rsp)
 5837      50020000 
 5837      00000000 
 5838 30aa 4C89AC24 		movq	%r13, 192(%rsp)
 5838      C0000000 
 5839 30b2 48898424 		movq	%rax, 336(%rsp)
 5839      50010000 
 5840              	.LEHB152:
 5841 30ba E8000000 		call	_ZNSt9basic_iosIcSt11char_traitsIcEE4initEPSt15basic_streambufIcS1_E@PLT
 5841      00
 5842              	.LEHE152:
 5843 30bf 488D0500 		leaq	24+_ZTCN8UnitTest15MemoryOutStreamE0_NSt7__cxx1119basic_ostringstreamIcSt11char_traitsIcESaIc
 5843      000000
 5844 30c6 660FEFC0 		pxor	%xmm0, %xmm0
 5845 30ca 488D7B40 		leaq	64(%rbx), %rdi
 5846 30ce 48898424 		movq	%rax, 192(%rsp)
 5846      C0000000 
 5847 30d6 4883C028 		addq	$40, %rax
 5848 30da 48898424 		movq	%rax, 336(%rsp)
 5848      50010000 
 5849 30e2 488D0500 		leaq	16+_ZTVSt15basic_streambufIcSt11char_traitsIcEE(%rip), %rax
 5849      000000
 5850 30e9 0F298424 		movaps	%xmm0, 208(%rsp)
 5850      D0000000 
 5851 30f1 48898424 		movq	%rax, 200(%rsp)
 5851      C8000000 
 5852 30f9 0F298424 		movaps	%xmm0, 224(%rsp)
 5852      E0000000 
 5853 3101 0F298424 		movaps	%xmm0, 240(%rsp)
 5853      F0000000 
 5854 3109 E8000000 		call	_ZNSt6localeC1Ev@PLT
 5854      00
 5855 310e 488D0500 		leaq	16+_ZTVNSt7__cxx1115basic_stringbufIcSt11char_traitsIcESaIcEEE(%rip), %rax
 5855      000000
 5856 3115 488D7308 		leaq	8(%rbx), %rsi
 5857 3119 48898424 		movq	%rax, 200(%rsp)
 5857      C8000000 
 5858 3121 488D4360 		leaq	96(%rbx), %rax
 5859 3125 C7842408 		movl	$16, 264(%rsp)
 5859      01000010 
 5859      000000
 5860 3130 48C78424 		movq	$0, 280(%rsp)
 5860      18010000 
 5860      00000000 
 5861 313c C6842420 		movb	$0, 288(%rsp)
 5861      01000000 
 5862 3144 48898424 		movq	%rax, 272(%rsp)
 5862      10010000 
 5863 314c 488B8424 		movq	192(%rsp), %rax
 5863      C0000000 
 5864 3154 488B78E8 		movq	-24(%rax), %rdi
 5865 3158 4801DF   		addq	%rbx, %rdi
 5866              	.LEHB153:
 5867 315b E8000000 		call	_ZNSt9basic_iosIcSt11char_traitsIcEE4initEPSt15basic_streambufIcS1_E@PLT
 5867      00
 5868              	.LEHE153:
 5869 3160 4C8D3D00 		leaq	24+_ZTVN8UnitTest15MemoryOutStreamE(%rip), %r15
 5869      000000
 5870 3167 488D8380 		leaq	128(%rbx), %rax
 5870      000000
 5871 316e 488D3500 		leaq	.LC2(%rip), %rsi
 5871      000000
 5872 3175 BA090000 		movl	$9, %edx
 5872      00
 5873 317a 4889DF   		movq	%rbx, %rdi
 5874 317d 48C78424 		movq	$0, 312(%rsp)
 5874      38010000 
 5874      00000000 
 5875 3189 4D8D7728 		leaq	40(%r15), %r14
 5876 318d 4C89BC24 		movq	%r15, 192(%rsp)
 5876      C0000000 
 5877 3195 48898424 		movq	%rax, 304(%rsp)
 5877      30010000 
 5878 319d C6842440 		movb	$0, 320(%rsp)
 5878      01000000 
 5879 31a5 4C89B424 		movq	%r14, 336(%rsp)
 5879      50010000 
 5880              	.LEHB154:
 5881 31ad E8000000 		call	_ZSt16__ostream_insertIcSt11char_traitsIcEERSt13basic_ostreamIT_T0_ES6_PKS3_l@PLT
 5881      00
 5882 31b2 BE010000 		movl	$1, %esi
 5882      00
 5883 31b7 4889DF   		movq	%rbx, %rdi
 5884 31ba E8000000 		call	_ZNSolsEi@PLT
 5884      00
 5885 31bf 488D3500 		leaq	.LC6(%rip), %rsi
 5885      000000
 5886 31c6 BA090000 		movl	$9, %edx
 5886      00
 5887 31cb 4889C7   		movq	%rax, %rdi
 5888 31ce 48894424 		movq	%rax, 8(%rsp)
 5888      08
 5889 31d3 E8000000 		call	_ZSt16__ostream_insertIcSt11char_traitsIcEERSt13basic_ostreamIT_T0_ES6_PKS3_l@PLT
 5889      00
 5890 31d8 488B7C24 		movq	8(%rsp), %rdi
 5890      08
 5891 31dd 4489E6   		movl	%r12d, %esi
 5892 31e0 E8000000 		call	_ZNSolsEi@PLT
 5892      00
 5893 31e5 4889DF   		movq	%rbx, %rdi
 5894 31e8 E8000000 		call	_ZNK8UnitTest15MemoryOutStream7GetTextEv@PLT
 5894      00
 5895 31ed 488B3C24 		movq	(%rsp), %rdi
 5896 31f1 4889C2   		movq	%rax, %rdx
 5897 31f4 4889EE   		movq	%rbp, %rsi
 5898 31f7 E8000000 		call	_ZN8UnitTest11TestResults13OnTestFailureERKNS_11TestDetailsEPKc@PLT
 5898      00
 5899              	.LEHE154:
 5900 31fc 488BBC24 		movq	304(%rsp), %rdi
 5900      30010000 
 5901 3204 488D8380 		leaq	128(%rbx), %rax
 5901      000000
 5902 320b 4C89BC24 		movq	%r15, 192(%rsp)
 5902      C0000000 
 5903 3213 4C89B424 		movq	%r14, 336(%rsp)
 5903      50010000 
 5904 321b 4839C7   		cmpq	%rax, %rdi
 5905 321e 7405     		je	.L486
 5906 3220 E8000000 		call	_ZdlPv@PLT
 5906      00
 5907              	.L486:
 5908 3225 488D0500 		leaq	64+_ZTCN8UnitTest15MemoryOutStreamE0_NSt7__cxx1119basic_ostringstreamIcSt11char_traitsIcESaIc
 5908      000000
 5909 322c 488BBC24 		movq	272(%rsp), %rdi
 5909      10010000 
 5910 3234 F30F7E05 		movq	.LC14(%rip), %xmm0
 5910      00000000 
 5911 323c 48898424 		movq	%rax, 336(%rsp)
 5911      50010000 
 5912 3244 488D4360 		leaq	96(%rbx), %rax
 5913 3248 0F160500 		movhps	.LC15(%rip), %xmm0
 5913      000000
 5914 324f 4839C7   		cmpq	%rax, %rdi
 5915 3252 0F298424 		movaps	%xmm0, 192(%rsp)
 5915      C0000000 
 5916 325a 7405     		je	.L487
 5917 325c E8000000 		call	_ZdlPv@PLT
 5917      00
 5918              	.L487:
 5919 3261 488D0500 		leaq	16+_ZTVSt15basic_streambufIcSt11char_traitsIcEE(%rip), %rax
 5919      000000
 5920 3268 488D7B40 		leaq	64(%rbx), %rdi
 5921 326c 48898424 		movq	%rax, 200(%rsp)
 5921      C8000000 
 5922 3274 E8000000 		call	_ZNSt6localeD1Ev@PLT
 5922      00
 5923 3279 488D0500 		leaq	16+_ZTVSt9basic_iosIcSt11char_traitsIcEE(%rip), %rax
 5923      000000
 5924 3280 488DBB90 		leaq	144(%rbx), %rdi
 5924      000000
 5925 3287 4C89AC24 		movq	%r13, 192(%rsp)
 5925      C0000000 
 5926 328f 48898424 		movq	%rax, 336(%rsp)
 5926      50010000 
 5927              	.LEHB155:
 5928 3297 E8000000 		call	_ZNSt8ios_baseD2Ev@PLT
 5928      00
 5929              	.LEHE155:
 5930              	.L479:
 5931 329c 488B8424 		movq	600(%rsp), %rax
 5931      58020000 
 5932 32a4 64483304 		xorq	%fs:40, %rax
 5932      25280000 
 5932      00
 5933 32ad 7512     		jne	.L503
 5934 32af 4881C468 		addq	$616, %rsp
 5934      020000
 5935              		.cfi_remember_state
 5936              		.cfi_def_cfa_offset 56
 5937 32b6 5B       		popq	%rbx
 5938              		.cfi_def_cfa_offset 48
 5939 32b7 5D       		popq	%rbp
 5940              		.cfi_def_cfa_offset 40
 5941 32b8 415C     		popq	%r12
 5942              		.cfi_def_cfa_offset 32
 5943 32ba 415D     		popq	%r13
 5944              		.cfi_def_cfa_offset 24
 5945 32bc 415E     		popq	%r14
 5946              		.cfi_def_cfa_offset 16
 5947 32be 415F     		popq	%r15
 5948              		.cfi_def_cfa_offset 8
 5949 32c0 C3       		ret
 5950              	.L503:
 5951              		.cfi_restore_state
 5952 32c1 E8000000 		call	__stack_chk_fail@PLT
 5952      00
 5953              	.L494:
 5954 32c6 4889DF   		movq	%rbx, %rdi
 5955 32c9 4989C4   		movq	%rax, %r12
 5956 32cc E8000000 		call	_ZN8UnitTest15MemoryOutStreamD1Ev
 5956      00
 5957              	.L485:
 5958 32d1 4C89E7   		movq	%r12, %rdi
 5959 32d4 E8000000 		call	__cxa_begin_catch@PLT
 5959      00
 5960              	.LEHB156:
 5961 32d9 E8000000 		call	_ZN8UnitTest11CurrentTest7ResultsEv@PLT
 5961      00
 5962 32de 488B18   		movq	(%rax), %rbx
 5963 32e1 E8000000 		call	_ZN8UnitTest11CurrentTest7DetailsEv@PLT
 5963      00
 5964 32e6 488B30   		movq	(%rax), %rsi
 5965 32e9 BA090100 		movl	$265, %edx
 5965      00
 5966 32ee 4889EF   		movq	%rbp, %rdi
 5967 32f1 E8000000 		call	_ZN8UnitTest11TestDetailsC1ERKS0_i@PLT
 5967      00
 5968 32f6 488D1500 		leaq	.LC29(%rip), %rdx
 5968      000000
 5969 32fd 4889EE   		movq	%rbp, %rsi
 5970 3300 4889DF   		movq	%rbx, %rdi
 5971 3303 E8000000 		call	_ZN8UnitTest11TestResults13OnTestFailureERKNS_11TestDetailsEPKc@PLT
 5971      00
 5972              	.LEHE156:
 5973              	.LEHB157:
 5974 3308 E8000000 		call	__cxa_end_catch@PLT
 5974      00
 5975              	.LEHE157:
 5976 330d EB8D     		jmp	.L479
 5977              	.L492:
 5978 330f 4989C4   		movq	%rax, %r12
 5979 3312 EBBD     		jmp	.L485
 5980              	.L493:
 5981 3314 4889C3   		movq	%rax, %rbx
 5982 3317 E8000000 		call	__cxa_end_catch@PLT
 5982      00
 5983 331c 4889DF   		movq	%rbx, %rdi
 5984              	.LEHB158:
 5985 331f E8000000 		call	_Unwind_Resume@PLT
 5985      00
 5986              	.LEHE158:
 5987              	.L496:
 5988 3324 488D7B08 		leaq	8(%rbx), %rdi
 5989 3328 4989C4   		movq	%rax, %r12
 5990 332b E8000000 		call	_ZNSt7__cxx1115basic_stringbufIcSt11char_traitsIcESaIcEED1Ev
 5990      00
 5991 3330 4C89AC24 		movq	%r13, 192(%rsp)
 5991      C0000000 
 5992              	.L483:
 5993 3338 488D0500 		leaq	16+_ZTVSt9basic_iosIcSt11char_traitsIcEE(%rip), %rax
 5993      000000
 5994 333f 488DBB90 		leaq	144(%rbx), %rdi
 5994      000000
 5995 3346 48898424 		movq	%rax, 336(%rsp)
 5995      50010000 
 5996 334e E8000000 		call	_ZNSt8ios_baseD2Ev@PLT
 5996      00
 5997 3353 E979FFFF 		jmp	.L485
 5997      FF
 5998              	.L495:
 5999 3358 4989C4   		movq	%rax, %r12
 6000 335b EBDB     		jmp	.L483
 6001              		.cfi_endproc
 6002              	.LFE1247:
 6003              		.section	.gcc_except_table
 6004              		.align 4
 6005              	.LLSDA1247:
 6006 03f0 FF       		.byte	0xff
 6007 03f1 9B       		.byte	0x9b
 6008 03f2 3D       		.uleb128 .LLSDATT1247-.LLSDATTD1247
 6009              	.LLSDATTD1247:
 6010 03f3 01       		.byte	0x1
 6011 03f4 33       		.uleb128 .LLSDACSE1247-.LLSDACSB1247
 6012              	.LLSDACSB1247:
 6013 03f5 33       		.uleb128 .LEHB150-.LFB1247
 6014 03f6 8E01     		.uleb128 .LEHE150-.LEHB150
 6015 03f8 00       		.uleb128 0
 6016 03f9 00       		.uleb128 0
 6017 03fa C101     		.uleb128 .LEHB151-.LFB1247
 6018 03fc 25       		.uleb128 .LEHE151-.LEHB151
 6019 03fd CF07     		.uleb128 .L492-.LFB1247
 6020 03ff 01       		.uleb128 0x1
 6021 0400 FA02     		.uleb128 .LEHB152-.LFB1247
 6022 0402 05       		.uleb128 .LEHE152-.LEHB152
 6023 0403 9808     		.uleb128 .L495-.LFB1247
 6024 0405 03       		.uleb128 0x3
 6025 0406 9B04     		.uleb128 .LEHB153-.LFB1247
 6026 0408 05       		.uleb128 .LEHE153-.LEHB153
 6027 0409 E407     		.uleb128 .L496-.LFB1247
 6028 040b 03       		.uleb128 0x3
 6029 040c ED04     		.uleb128 .LEHB154-.LFB1247
 6030 040e 4F       		.uleb128 .LEHE154-.LEHB154
 6031 040f 8607     		.uleb128 .L494-.LFB1247
 6032 0411 03       		.uleb128 0x3
 6033 0412 D706     		.uleb128 .LEHB155-.LFB1247
 6034 0414 05       		.uleb128 .LEHE155-.LEHB155
 6035 0415 CF07     		.uleb128 .L492-.LFB1247
 6036 0417 01       		.uleb128 0x1
 6037 0418 9907     		.uleb128 .LEHB156-.LFB1247
 6038 041a 2F       		.uleb128 .LEHE156-.LEHB156
 6039 041b D407     		.uleb128 .L493-.LFB1247
 6040 041d 00       		.uleb128 0
 6041 041e C807     		.uleb128 .LEHB157-.LFB1247
 6042 0420 05       		.uleb128 .LEHE157-.LEHB157
 6043 0421 00       		.uleb128 0
 6044 0422 00       		.uleb128 0
 6045 0423 DF07     		.uleb128 .LEHB158-.LFB1247
 6046 0425 05       		.uleb128 .LEHE158-.LEHB158
 6047 0426 00       		.uleb128 0
 6048 0427 00       		.uleb128 0
 6049              	.LLSDACSE1247:
 6050 0428 01       		.byte	0x1
 6051 0429 00       		.byte	0
 6052 042a 00       		.byte	0
 6053 042b 7D       		.byte	0x7d
 6054              		.align 4
 6055 042c 00000000 		.long	0
 6056              	
 6057              	.LLSDATT1247:
 6058              		.text
 6060 335d 90       		.align 2
 6061 335e 6690     		.p2align 4,,15
 6063              	_ZNK12_GLOBAL__N_125TestCheckArray2DCloseTrue7RunImplEv:
 6064              	.LFB1243:
 6065              		.cfi_startproc
 6066              		.cfi_personality 0x9b,DW.ref.__gxx_personality_v0
 6067              		.cfi_lsda 0x1b,.LLSDA1243
 6068 3360 4157     		pushq	%r15
 6069              		.cfi_def_cfa_offset 16
 6070              		.cfi_offset 15, -16
 6071 3362 4156     		pushq	%r14
 6072              		.cfi_def_cfa_offset 24
 6073              		.cfi_offset 14, -24
 6074 3364 31F6     		xorl	%esi, %esi
 6075 3366 4155     		pushq	%r13
 6076              		.cfi_def_cfa_offset 32
 6077              		.cfi_offset 13, -32
 6078 3368 4154     		pushq	%r12
 6079              		.cfi_def_cfa_offset 40
 6080              		.cfi_offset 12, -40
 6081 336a 55       		pushq	%rbp
 6082              		.cfi_def_cfa_offset 48
 6083              		.cfi_offset 6, -48
 6084 336b 53       		pushq	%rbx
 6085              		.cfi_def_cfa_offset 56
 6086              		.cfi_offset 3, -56
 6087 336c 4881EC68 		subq	$616, %rsp
 6087      020000
 6088              		.cfi_def_cfa_offset 672
 6089 3373 488D5C24 		leaq	32(%rsp), %rbx
 6089      20
 6090 3378 488D6C24 		leaq	64(%rsp), %rbp
 6090      40
 6091 337d 64488B04 		movq	%fs:40, %rax
 6091      25280000 
 6091      00
 6092 3386 48898424 		movq	%rax, 600(%rsp)
 6092      58020000 
 6093 338e 31C0     		xorl	%eax, %eax
 6094 3390 4889DF   		movq	%rbx, %rdi
 6095              	.LEHB159:
 6096 3393 E8000000 		call	_ZN8UnitTest11TestResultsC1EPNS_12TestReporterE@PLT
 6096      00
 6097 3398 0F280500 		movaps	.LC30(%rip), %xmm0
 6097      000000
 6098 339f 488D0D00 		leaq	.LC1(%rip), %rcx
 6098      000000
 6099 33a6 4531C0   		xorl	%r8d, %r8d
 6100 33a9 4889EF   		movq	%rbp, %rdi
 6101 33ac C7842480 		movl	$0x40800000, 128(%rsp)
 6101      00000000 
 6101      008040
 6102 33b7 0F294424 		movaps	%xmm0, 96(%rsp)
 6102      60
 6103 33bc 4889CA   		movq	%rcx, %rdx
 6104 33bf 4889CE   		movq	%rcx, %rsi
 6105 33c2 C78424B0 		movl	$0x408051ec, 176(%rsp)
 6105      000000EC 
 6105      518040
 6106 33cd 0F280500 		movaps	.LC31(%rip), %xmm0
 6106      000000
 6107 33d4 0F294424 		movaps	%xmm0, 112(%rsp)
 6107      70
 6108 33d9 0F280500 		movaps	.LC33(%rip), %xmm0
 6108      000000
 6109 33e0 0F298424 		movaps	%xmm0, 144(%rsp)
 6109      90000000 
 6110 33e8 0F280500 		movaps	.LC34(%rip), %xmm0
 6110      000000
 6111 33ef 0F298424 		movaps	%xmm0, 160(%rsp)
 6111      A0000000 
 6112 33f7 E8000000 		call	_ZN8UnitTest11TestDetailsC1EPKcS2_S2_i@PLT
 6112      00
 6113 33fc 488D4C24 		leaq	28(%rsp), %rcx
 6113      1C
 6114 3401 488D9424 		leaq	144(%rsp), %rdx
 6114      90000000 
 6115 3409 488D7424 		leaq	96(%rsp), %rsi
 6115      60
 6116 340e 4989E8   		movq	%rbp, %r8
 6117 3411 4889DF   		movq	%rbx, %rdi
 6118 3414 C744241C 		movl	$0x3ca3d70a, 28(%rsp)
 6118      0AD7A33C 
 6119 341c E85FDFFF 		call	_ZN8UnitTest17CheckArray2DCloseIA3_A3_fS2_fEEvRNS_11TestResultsERKT_RKT0_iiRKT1_RKNS_11TestDe
 6119      FF
 6120              	.LEHE159:
 6121              	.LEHB160:
 6122 3421 E8000000 		call	_ZN8UnitTest11CurrentTest7DetailsEv@PLT
 6122      00
 6123 3426 488B30   		movq	(%rax), %rsi
 6124 3429 BAFB0000 		movl	$251, %edx
 6124      00
 6125 342e 4889EF   		movq	%rbp, %rdi
 6126 3431 E8000000 		call	_ZN8UnitTest11TestDetailsC1ERKS0_i@PLT
 6126      00
 6127 3436 4889DF   		movq	%rbx, %rdi
 6128 3439 E8000000 		call	_ZNK8UnitTest11TestResults15GetFailureCountEv@PLT
 6128      00
 6129 343e 4189C4   		movl	%eax, %r12d
 6130 3441 E8000000 		call	_ZN8UnitTest11CurrentTest7ResultsEv@PLT
 6130      00
 6131              	.LEHE160:
 6132 3446 4585E4   		testl	%r12d, %r12d
 6133 3449 0F846902 		je	.L504
 6133      0000
 6134 344f 488D9C24 		leaq	192(%rsp), %rbx
 6134      C0000000 
 6135 3457 488B00   		movq	(%rax), %rax
 6136 345a 4C8D2D00 		leaq	24+_ZTCN8UnitTest15MemoryOutStreamE0_So(%rip), %r13
 6136      000000
 6137 3461 4C8DB390 		leaq	144(%rbx), %r14
 6137      000000
 6138 3468 48890424 		movq	%rax, (%rsp)
 6139 346c 4C89F7   		movq	%r14, %rdi
 6140 346f E8000000 		call	_ZNSt8ios_baseC2Ev@PLT
 6140      00
 6141 3474 498D4528 		leaq	40(%r13), %rax
 6142 3478 31F6     		xorl	%esi, %esi
 6143 347a 4C89F7   		movq	%r14, %rdi
 6144 347d 48C78424 		movq	$0, 552(%rsp)
 6144      28020000 
 6144      00000000 
 6145 3489 C6842430 		movb	$0, 560(%rsp)
 6145      02000000 
 6146 3491 C6842431 		movb	$0, 561(%rsp)
 6146      02000000 
 6147 3499 48C78424 		movq	$0, 568(%rsp)
 6147      38020000 
 6147      00000000 
 6148 34a5 48C78424 		movq	$0, 576(%rsp)
 6148      40020000 
 6148      00000000 
 6149 34b1 48C78424 		movq	$0, 584(%rsp)
 6149      48020000 
 6149      00000000 
 6150 34bd 48C78424 		movq	$0, 592(%rsp)
 6150      50020000 
 6150      00000000 
 6151 34c9 4C89AC24 		movq	%r13, 192(%rsp)
 6151      C0000000 
 6152 34d1 48898424 		movq	%rax, 336(%rsp)
 6152      50010000 
 6153              	.LEHB161:
 6154 34d9 E8000000 		call	_ZNSt9basic_iosIcSt11char_traitsIcEE4initEPSt15basic_streambufIcS1_E@PLT
 6154      00
 6155              	.LEHE161:
 6156 34de 488D0500 		leaq	24+_ZTCN8UnitTest15MemoryOutStreamE0_NSt7__cxx1119basic_ostringstreamIcSt11char_traitsIcESaIc
 6156      000000
 6157 34e5 660FEFC0 		pxor	%xmm0, %xmm0
 6158 34e9 488D7B40 		leaq	64(%rbx), %rdi
 6159 34ed 48898424 		movq	%rax, 192(%rsp)
 6159      C0000000 
 6160 34f5 4883C028 		addq	$40, %rax
 6161 34f9 48898424 		movq	%rax, 336(%rsp)
 6161      50010000 
 6162 3501 488D0500 		leaq	16+_ZTVSt15basic_streambufIcSt11char_traitsIcEE(%rip), %rax
 6162      000000
 6163 3508 0F298424 		movaps	%xmm0, 208(%rsp)
 6163      D0000000 
 6164 3510 48898424 		movq	%rax, 200(%rsp)
 6164      C8000000 
 6165 3518 0F298424 		movaps	%xmm0, 224(%rsp)
 6165      E0000000 
 6166 3520 0F298424 		movaps	%xmm0, 240(%rsp)
 6166      F0000000 
 6167 3528 E8000000 		call	_ZNSt6localeC1Ev@PLT
 6167      00
 6168 352d 488D0500 		leaq	16+_ZTVNSt7__cxx1115basic_stringbufIcSt11char_traitsIcESaIcEEE(%rip), %rax
 6168      000000
 6169 3534 488D7308 		leaq	8(%rbx), %rsi
 6170 3538 48898424 		movq	%rax, 200(%rsp)
 6170      C8000000 
 6171 3540 488D4360 		leaq	96(%rbx), %rax
 6172 3544 C7842408 		movl	$16, 264(%rsp)
 6172      01000010 
 6172      000000
 6173 354f 48C78424 		movq	$0, 280(%rsp)
 6173      18010000 
 6173      00000000 
 6174 355b C6842420 		movb	$0, 288(%rsp)
 6174      01000000 
 6175 3563 48898424 		movq	%rax, 272(%rsp)
 6175      10010000 
 6176 356b 488B8424 		movq	192(%rsp), %rax
 6176      C0000000 
 6177 3573 488B78E8 		movq	-24(%rax), %rdi
 6178 3577 4801DF   		addq	%rbx, %rdi
 6179              	.LEHB162:
 6180 357a E8000000 		call	_ZNSt9basic_iosIcSt11char_traitsIcEE4initEPSt15basic_streambufIcS1_E@PLT
 6180      00
 6181              	.LEHE162:
 6182 357f 4C8D3D00 		leaq	24+_ZTVN8UnitTest15MemoryOutStreamE(%rip), %r15
 6182      000000
 6183 3586 488D8380 		leaq	128(%rbx), %rax
 6183      000000
 6184 358d 488D3500 		leaq	.LC2(%rip), %rsi
 6184      000000
 6185 3594 BA090000 		movl	$9, %edx
 6185      00
 6186 3599 4889DF   		movq	%rbx, %rdi
 6187 359c 48C78424 		movq	$0, 312(%rsp)
 6187      38010000 
 6187      00000000 
 6188 35a8 4D8D7728 		leaq	40(%r15), %r14
 6189 35ac 4C89BC24 		movq	%r15, 192(%rsp)
 6189      C0000000 
 6190 35b4 48898424 		movq	%rax, 304(%rsp)
 6190      30010000 
 6191 35bc C6842440 		movb	$0, 320(%rsp)
 6191      01000000 
 6192 35c4 4C89B424 		movq	%r14, 336(%rsp)
 6192      50010000 
 6193              	.LEHB163:
 6194 35cc E8000000 		call	_ZSt16__ostream_insertIcSt11char_traitsIcEERSt13basic_ostreamIT_T0_ES6_PKS3_l@PLT
 6194      00
 6195 35d1 31F6     		xorl	%esi, %esi
 6196 35d3 4889DF   		movq	%rbx, %rdi
 6197 35d6 E8000000 		call	_ZNSolsEi@PLT
 6197      00
 6198 35db 488D3500 		leaq	.LC6(%rip), %rsi
 6198      000000
 6199 35e2 BA090000 		movl	$9, %edx
 6199      00
 6200 35e7 4889C7   		movq	%rax, %rdi
 6201 35ea 48894424 		movq	%rax, 8(%rsp)
 6201      08
 6202 35ef E8000000 		call	_ZSt16__ostream_insertIcSt11char_traitsIcEERSt13basic_ostreamIT_T0_ES6_PKS3_l@PLT
 6202      00
 6203 35f4 488B7C24 		movq	8(%rsp), %rdi
 6203      08
 6204 35f9 4489E6   		movl	%r12d, %esi
 6205 35fc E8000000 		call	_ZNSolsEi@PLT
 6205      00
 6206 3601 4889DF   		movq	%rbx, %rdi
 6207 3604 E8000000 		call	_ZNK8UnitTest15MemoryOutStream7GetTextEv@PLT
 6207      00
 6208 3609 488B3C24 		movq	(%rsp), %rdi
 6209 360d 4889C2   		movq	%rax, %rdx
 6210 3610 4889EE   		movq	%rbp, %rsi
 6211 3613 E8000000 		call	_ZN8UnitTest11TestResults13OnTestFailureERKNS_11TestDetailsEPKc@PLT
 6211      00
 6212              	.LEHE163:
 6213 3618 488BBC24 		movq	304(%rsp), %rdi
 6213      30010000 
 6214 3620 488D8380 		leaq	128(%rbx), %rax
 6214      000000
 6215 3627 4C89BC24 		movq	%r15, 192(%rsp)
 6215      C0000000 
 6216 362f 4C89B424 		movq	%r14, 336(%rsp)
 6216      50010000 
 6217 3637 4839C7   		cmpq	%rax, %rdi
 6218 363a 7405     		je	.L511
 6219 363c E8000000 		call	_ZdlPv@PLT
 6219      00
 6220              	.L511:
 6221 3641 488D0500 		leaq	64+_ZTCN8UnitTest15MemoryOutStreamE0_NSt7__cxx1119basic_ostringstreamIcSt11char_traitsIcESaIc
 6221      000000
 6222 3648 488BBC24 		movq	272(%rsp), %rdi
 6222      10010000 
 6223 3650 F30F7E05 		movq	.LC14(%rip), %xmm0
 6223      00000000 
 6224 3658 48898424 		movq	%rax, 336(%rsp)
 6224      50010000 
 6225 3660 488D4360 		leaq	96(%rbx), %rax
 6226 3664 0F160500 		movhps	.LC15(%rip), %xmm0
 6226      000000
 6227 366b 4839C7   		cmpq	%rax, %rdi
 6228 366e 0F298424 		movaps	%xmm0, 192(%rsp)
 6228      C0000000 
 6229 3676 7405     		je	.L512
 6230 3678 E8000000 		call	_ZdlPv@PLT
 6230      00
 6231              	.L512:
 6232 367d 488D0500 		leaq	16+_ZTVSt15basic_streambufIcSt11char_traitsIcEE(%rip), %rax
 6232      000000
 6233 3684 488D7B40 		leaq	64(%rbx), %rdi
 6234 3688 48898424 		movq	%rax, 200(%rsp)
 6234      C8000000 
 6235 3690 E8000000 		call	_ZNSt6localeD1Ev@PLT
 6235      00
 6236 3695 488D0500 		leaq	16+_ZTVSt9basic_iosIcSt11char_traitsIcEE(%rip), %rax
 6236      000000
 6237 369c 488DBB90 		leaq	144(%rbx), %rdi
 6237      000000
 6238 36a3 4C89AC24 		movq	%r13, 192(%rsp)
 6238      C0000000 
 6239 36ab 48898424 		movq	%rax, 336(%rsp)
 6239      50010000 
 6240              	.LEHB164:
 6241 36b3 E8000000 		call	_ZNSt8ios_baseD2Ev@PLT
 6241      00
 6242              	.LEHE164:
 6243              	.L504:
 6244 36b8 488B8424 		movq	600(%rsp), %rax
 6244      58020000 
 6245 36c0 64483304 		xorq	%fs:40, %rax
 6245      25280000 
 6245      00
 6246 36c9 7512     		jne	.L528
 6247 36cb 4881C468 		addq	$616, %rsp
 6247      020000
 6248              		.cfi_remember_state
 6249              		.cfi_def_cfa_offset 56
 6250 36d2 5B       		popq	%rbx
 6251              		.cfi_def_cfa_offset 48
 6252 36d3 5D       		popq	%rbp
 6253              		.cfi_def_cfa_offset 40
 6254 36d4 415C     		popq	%r12
 6255              		.cfi_def_cfa_offset 32
 6256 36d6 415D     		popq	%r13
 6257              		.cfi_def_cfa_offset 24
 6258 36d8 415E     		popq	%r14
 6259              		.cfi_def_cfa_offset 16
 6260 36da 415F     		popq	%r15
 6261              		.cfi_def_cfa_offset 8
 6262 36dc C3       		ret
 6263              	.L528:
 6264              		.cfi_restore_state
 6265 36dd E8000000 		call	__stack_chk_fail@PLT
 6265      00
 6266              	.L519:
 6267 36e2 4889DF   		movq	%rbx, %rdi
 6268 36e5 4989C4   		movq	%rax, %r12
 6269 36e8 E8000000 		call	_ZN8UnitTest15MemoryOutStreamD1Ev
 6269      00
 6270              	.L510:
 6271 36ed 4C89E7   		movq	%r12, %rdi
 6272 36f0 E8000000 		call	__cxa_begin_catch@PLT
 6272      00
 6273              	.LEHB165:
 6274 36f5 E8000000 		call	_ZN8UnitTest11CurrentTest7ResultsEv@PLT
 6274      00
 6275 36fa 488B18   		movq	(%rax), %rbx
 6276 36fd E8000000 		call	_ZN8UnitTest11CurrentTest7DetailsEv@PLT
 6276      00
 6277 3702 488B30   		movq	(%rax), %rsi
 6278 3705 BAFB0000 		movl	$251, %edx
 6278      00
 6279 370a 4889EF   		movq	%rbp, %rdi
 6280 370d E8000000 		call	_ZN8UnitTest11TestDetailsC1ERKS0_i@PLT
 6280      00
 6281 3712 488D1500 		leaq	.LC27(%rip), %rdx
 6281      000000
 6282 3719 4889EE   		movq	%rbp, %rsi
 6283 371c 4889DF   		movq	%rbx, %rdi
 6284 371f E8000000 		call	_ZN8UnitTest11TestResults13OnTestFailureERKNS_11TestDetailsEPKc@PLT
 6284      00
 6285              	.LEHE165:
 6286              	.LEHB166:
 6287 3724 E8000000 		call	__cxa_end_catch@PLT
 6287      00
 6288              	.LEHE166:
 6289 3729 EB8D     		jmp	.L504
 6290              	.L517:
 6291 372b 4989C4   		movq	%rax, %r12
 6292 372e EBBD     		jmp	.L510
 6293              	.L518:
 6294 3730 4889C3   		movq	%rax, %rbx
 6295 3733 E8000000 		call	__cxa_end_catch@PLT
 6295      00
 6296 3738 4889DF   		movq	%rbx, %rdi
 6297              	.LEHB167:
 6298 373b E8000000 		call	_Unwind_Resume@PLT
 6298      00
 6299              	.LEHE167:
 6300              	.L521:
 6301 3740 488D7B08 		leaq	8(%rbx), %rdi
 6302 3744 4989C4   		movq	%rax, %r12
 6303 3747 E8000000 		call	_ZNSt7__cxx1115basic_stringbufIcSt11char_traitsIcESaIcEED1Ev
 6303      00
 6304 374c 4C89AC24 		movq	%r13, 192(%rsp)
 6304      C0000000 
 6305              	.L508:
 6306 3754 488D0500 		leaq	16+_ZTVSt9basic_iosIcSt11char_traitsIcEE(%rip), %rax
 6306      000000
 6307 375b 488DBB90 		leaq	144(%rbx), %rdi
 6307      000000
 6308 3762 48898424 		movq	%rax, 336(%rsp)
 6308      50010000 
 6309 376a E8000000 		call	_ZNSt8ios_baseD2Ev@PLT
 6309      00
 6310 376f E979FFFF 		jmp	.L510
 6310      FF
 6311              	.L520:
 6312 3774 4989C4   		movq	%rax, %r12
 6313 3777 EBDB     		jmp	.L508
 6314              		.cfi_endproc
 6315              	.LFE1243:
 6316              		.section	.gcc_except_table
 6317              		.align 4
 6318              	.LLSDA1243:
 6319 0430 FF       		.byte	0xff
 6320 0431 9B       		.byte	0x9b
 6321 0432 3D       		.uleb128 .LLSDATT1243-.LLSDATTD1243
 6322              	.LLSDATTD1243:
 6323 0433 01       		.byte	0x1
 6324 0434 33       		.uleb128 .LLSDACSE1243-.LLSDACSB1243
 6325              	.LLSDACSB1243:
 6326 0435 33       		.uleb128 .LEHB159-.LFB1243
 6327 0436 8E01     		.uleb128 .LEHE159-.LEHB159
 6328 0438 00       		.uleb128 0
 6329 0439 00       		.uleb128 0
 6330 043a C101     		.uleb128 .LEHB160-.LFB1243
 6331 043c 25       		.uleb128 .LEHE160-.LEHB160
 6332 043d CB07     		.uleb128 .L517-.LFB1243
 6333 043f 01       		.uleb128 0x1
 6334 0440 F902     		.uleb128 .LEHB161-.LFB1243
 6335 0442 05       		.uleb128 .LEHE161-.LEHB161
 6336 0443 9408     		.uleb128 .L520-.LFB1243
 6337 0445 03       		.uleb128 0x3
 6338 0446 9A04     		.uleb128 .LEHB162-.LFB1243
 6339 0448 05       		.uleb128 .LEHE162-.LEHB162
 6340 0449 E007     		.uleb128 .L521-.LFB1243
 6341 044b 03       		.uleb128 0x3
 6342 044c EC04     		.uleb128 .LEHB163-.LFB1243
 6343 044e 4C       		.uleb128 .LEHE163-.LEHB163
 6344 044f 8207     		.uleb128 .L519-.LFB1243
 6345 0451 03       		.uleb128 0x3
 6346 0452 D306     		.uleb128 .LEHB164-.LFB1243
 6347 0454 05       		.uleb128 .LEHE164-.LEHB164
 6348 0455 CB07     		.uleb128 .L517-.LFB1243
 6349 0457 01       		.uleb128 0x1
 6350 0458 9507     		.uleb128 .LEHB165-.LFB1243
 6351 045a 2F       		.uleb128 .LEHE165-.LEHB165
 6352 045b D007     		.uleb128 .L518-.LFB1243
 6353 045d 00       		.uleb128 0
 6354 045e C407     		.uleb128 .LEHB166-.LFB1243
 6355 0460 05       		.uleb128 .LEHE166-.LEHB166
 6356 0461 00       		.uleb128 0
 6357 0462 00       		.uleb128 0
 6358 0463 DB07     		.uleb128 .LEHB167-.LFB1243
 6359 0465 05       		.uleb128 .LEHE167-.LEHB167
 6360 0466 00       		.uleb128 0
 6361 0467 00       		.uleb128 0
 6362              	.LLSDACSE1243:
 6363 0468 01       		.byte	0x1
 6364 0469 00       		.byte	0
 6365 046a 00       		.byte	0
 6366 046b 7D       		.byte	0x7d
 6367              		.align 4
 6368 046c 00000000 		.long	0
 6369              	
 6370              	.LLSDATT1243:
 6371              		.text
 6373              		.section	.rodata.str1.1
 6374              	.LC38:
 6375 0063 78706563 		.string	"xpected 1"
 6375      74656420 
 6375      3100
 6376              		.section	.rodata.str1.8
 6377 0281 00000000 		.align 8
 6377      000000
 6378              	.LC39:
 6379 0288 73747273 		.string	"strstr(reporter.lastFailedMessage, \"xpected 1\")"
 6379      74722872 
 6379      65706F72 
 6379      7465722E 
 6379      6C617374 
 6380              		.section	.rodata.str1.1
 6381              	.LC40:
 6382 006d 77617320 		.string	"was 2"
 6382      3200
 6383              		.section	.rodata.str1.8
 6384              		.align 8
 6385              	.LC41:
 6386 02b8 73747273 		.string	"strstr(reporter.lastFailedMessage, \"was 2\")"
 6386      74722872 
 6386      65706F72 
 6386      7465722E 
 6386      6C617374 
 6387 02e4 00000000 		.align 8
 6388              	.LC42:
 6389 02e8 556E6861 		.string	"Unhandled exception in CHECK(strstr(reporter.lastFailedMessage, \"xpected 1\"))"
 6389      6E646C65 
 6389      64206578 
 6389      63657074 
 6389      696F6E20 
 6390 0336 0000     		.align 8
 6391              	.LC43:
 6392 0338 556E6861 		.string	"Unhandled exception in CHECK(strstr(reporter.lastFailedMessage, \"was 2\"))"
 6392      6E646C65 
 6392      64206578 
 6392      63657074 
 6392      696F6E20 
 6393              		.text
 6394 3779 90       		.align 2
 6395 377a 660F1F44 		.p2align 4,,15
 6395      0000
 6397              	_ZNK12_GLOBAL__N_151TestCheckEqualFailureIncludesCheckExpectedAndActual7RunImplEv:
 6398              	.LFB1183:
 6399              		.cfi_startproc
 6400              		.cfi_personality 0x9b,DW.ref.__gxx_personality_v0
 6401              		.cfi_lsda 0x1b,.LLSDA1183
 6402 3780 4157     		pushq	%r15
 6403              		.cfi_def_cfa_offset 16
 6404              		.cfi_offset 15, -16
 6405 3782 4156     		pushq	%r14
 6406              		.cfi_def_cfa_offset 24
 6407              		.cfi_offset 14, -24
 6408 3784 4155     		pushq	%r13
 6409              		.cfi_def_cfa_offset 32
 6410              		.cfi_offset 13, -32
 6411 3786 4154     		pushq	%r12
 6412              		.cfi_def_cfa_offset 40
 6413              		.cfi_offset 12, -40
 6414 3788 4C8D2D00 		leaq	16+_ZTV17RecordingReporter(%rip), %r13
 6414      000000
 6415 378f 55       		pushq	%rbp
 6416              		.cfi_def_cfa_offset 48
 6417              		.cfi_offset 6, -48
 6418 3790 53       		pushq	%rbx
 6419              		.cfi_def_cfa_offset 56
 6420              		.cfi_offset 3, -56
 6421 3791 4881EC38 		subq	$2616, %rsp
 6421      0A0000
 6422              		.cfi_def_cfa_offset 2672
 6423 3798 488DAC24 		leaq	496(%rsp), %rbp
 6423      F0010000 
 6424 37a0 4C8D7424 		leaq	16(%rsp), %r14
 6424      10
 6425 37a5 4C89AC24 		movq	%r13, 496(%rsp)
 6425      F0010000 
 6426 37ad 64488B04 		movq	%fs:40, %rax
 6426      25280000 
 6426      00
 6427 37b6 48898424 		movq	%rax, 2600(%rsp)
 6427      280A0000 
 6428 37be 31C0     		xorl	%eax, %eax
 6429 37c0 4889EE   		movq	%rbp, %rsi
 6430 37c3 4C89F7   		movq	%r14, %rdi
 6431 37c6 C78424F8 		movl	$0, 504(%rsp)
 6431      01000000 
 6431      000000
 6432 37d1 C78424FC 		movl	$0, 1020(%rsp)
 6432      03000000 
 6432      000000
 6433 37dc C7842400 		movl	$0, 1280(%rsp)
 6433      05000000 
 6433      000000
 6434 37e7 C7842404 		movl	$0, 2052(%rsp)
 6434      08000000 
 6434      000000
 6435 37f2 48C78424 		movq	$0, 2568(%rsp)
 6435      080A0000 
 6435      00000000 
 6436 37fe 48C78424 		movq	$0, 2576(%rsp)
 6436      100A0000 
 6436      00000000 
 6437 380a C7842418 		movl	$0, 2584(%rsp)
 6437      0A000000 
 6437      000000
 6438 3815 C68424FC 		movb	$0, 508(%rsp)
 6438      01000000 
 6439 381d C68424FC 		movb	$0, 764(%rsp)
 6439      02000000 
 6440 3825 C6842400 		movb	$0, 1024(%rsp)
 6440      04000000 
 6441 382d C6842404 		movb	$0, 1284(%rsp)
 6441      05000000 
 6442 3835 C6842404 		movb	$0, 1540(%rsp)
 6442      06000000 
 6443 383d C6842404 		movb	$0, 1796(%rsp)
 6443      07000000 
 6444 3845 C6842408 		movb	$0, 2056(%rsp)
 6444      08000000 
 6445 384d C6842408 		movb	$0, 2312(%rsp)
 6445      09000000 
 6446              	.LEHB168:
 6447 3855 E8000000 		call	_ZN8UnitTest11TestResultsC1EPNS_12TestReporterE@PLT
 6447      00
 6448 385a 488D0D00 		leaq	.LC1(%rip), %rcx
 6448      000000
 6449 3861 4C8D6424 		leaq	48(%rsp), %r12
 6449      30
 6450 3866 4531C0   		xorl	%r8d, %r8d
 6451 3869 4889CA   		movq	%rcx, %rdx
 6452 386c 4889CE   		movq	%rcx, %rsi
 6453 386f 4C89E7   		movq	%r12, %rdi
 6454 3872 E8000000 		call	_ZN8UnitTest11TestDetailsC1EPKcS2_S2_i@PLT
 6454      00
 6455              	.LEHE168:
 6456 3877 488D5C24 		leaq	80(%rsp), %rbx
 6456      50
 6457 387c 4C8D3D00 		leaq	24+_ZTCN8UnitTest15MemoryOutStreamE0_So(%rip), %r15
 6457      000000
 6458 3883 488D8390 		leaq	144(%rbx), %rax
 6458      000000
 6459 388a 4889C7   		movq	%rax, %rdi
 6460 388d 48894424 		movq	%rax, 8(%rsp)
 6460      08
 6461 3892 E8000000 		call	_ZNSt8ios_baseC2Ev@PLT
 6461      00
 6462 3897 498D4728 		leaq	40(%r15), %rax
 6463 389b 31F6     		xorl	%esi, %esi
 6464 389d 48C78424 		movq	$0, 440(%rsp)
 6464      B8010000 
 6464      00000000 
 6465 38a9 C68424C0 		movb	$0, 448(%rsp)
 6465      01000000 
 6466 38b1 C68424C1 		movb	$0, 449(%rsp)
 6466      01000000 
 6467 38b9 48898424 		movq	%rax, 224(%rsp)
 6467      E0000000 
 6468 38c1 488B4424 		movq	8(%rsp), %rax
 6468      08
 6469 38c6 48C78424 		movq	$0, 456(%rsp)
 6469      C8010000 
 6469      00000000 
 6470 38d2 48C78424 		movq	$0, 464(%rsp)
 6470      D0010000 
 6470      00000000 
 6471 38de 48C78424 		movq	$0, 472(%rsp)
 6471      D8010000 
 6471      00000000 
 6472 38ea 48C78424 		movq	$0, 480(%rsp)
 6472      E0010000 
 6472      00000000 
 6473 38f6 4889C7   		movq	%rax, %rdi
 6474 38f9 4C897C24 		movq	%r15, 80(%rsp)
 6474      50
 6475              	.LEHB169:
 6476 38fe E8000000 		call	_ZNSt9basic_iosIcSt11char_traitsIcEE4initEPSt15basic_streambufIcS1_E@PLT
 6476      00
 6477              	.LEHE169:
 6478 3903 488D0500 		leaq	24+_ZTCN8UnitTest15MemoryOutStreamE0_NSt7__cxx1119basic_ostringstreamIcSt11char_traitsIcESaIc
 6478      000000
 6479 390a 660FEFC0 		pxor	%xmm0, %xmm0
 6480 390e 488D7B40 		leaq	64(%rbx), %rdi
 6481 3912 48894424 		movq	%rax, 80(%rsp)
 6481      50
 6482 3917 4883C028 		addq	$40, %rax
 6483 391b 48898424 		movq	%rax, 224(%rsp)
 6483      E0000000 
 6484 3923 488D0500 		leaq	16+_ZTVSt15basic_streambufIcSt11char_traitsIcEE(%rip), %rax
 6484      000000
 6485 392a 0F294424 		movaps	%xmm0, 96(%rsp)
 6485      60
 6486 392f 48894424 		movq	%rax, 88(%rsp)
 6486      58
 6487 3934 0F294424 		movaps	%xmm0, 112(%rsp)
 6487      70
 6488 3939 0F298424 		movaps	%xmm0, 128(%rsp)
 6488      80000000 
 6489 3941 E8000000 		call	_ZNSt6localeC1Ev@PLT
 6489      00
 6490 3946 488D0500 		leaq	16+_ZTVNSt7__cxx1115basic_stringbufIcSt11char_traitsIcESaIcEEE(%rip), %rax
 6490      000000
 6491 394d 488D7308 		leaq	8(%rbx), %rsi
 6492 3951 48894424 		movq	%rax, 88(%rsp)
 6492      58
 6493 3956 488D4360 		leaq	96(%rbx), %rax
 6494 395a C7842498 		movl	$16, 152(%rsp)
 6494      00000010 
 6494      000000
 6495 3965 48C78424 		movq	$0, 168(%rsp)
 6495      A8000000 
 6495      00000000 
 6496 3971 C68424B0 		movb	$0, 176(%rsp)
 6496      00000000 
 6497 3979 48898424 		movq	%rax, 160(%rsp)
 6497      A0000000 
 6498 3981 488B4424 		movq	80(%rsp), %rax
 6498      50
 6499 3986 488B78E8 		movq	-24(%rax), %rdi
 6500 398a 4801DF   		addq	%rbx, %rdi
 6501              	.LEHB170:
 6502 398d E8000000 		call	_ZNSt9basic_iosIcSt11char_traitsIcEE4initEPSt15basic_streambufIcS1_E@PLT
 6502      00
 6503              	.LEHE170:
 6504 3992 488D0500 		leaq	24+_ZTVN8UnitTest15MemoryOutStreamE(%rip), %rax
 6504      000000
 6505 3999 488D3500 		leaq	.LC2(%rip), %rsi
 6505      000000
 6506 39a0 BA090000 		movl	$9, %edx
 6506      00
 6507 39a5 4889DF   		movq	%rbx, %rdi
 6508 39a8 48C78424 		movq	$0, 200(%rsp)
 6508      C8000000 
 6508      00000000 
 6509 39b4 C68424D0 		movb	$0, 208(%rsp)
 6509      00000000 
 6510 39bc 48894424 		movq	%rax, 80(%rsp)
 6510      50
 6511 39c1 4883C028 		addq	$40, %rax
 6512 39c5 48898424 		movq	%rax, 224(%rsp)
 6512      E0000000 
 6513 39cd 488D8380 		leaq	128(%rbx), %rax
 6513      000000
 6514 39d4 48898424 		movq	%rax, 192(%rsp)
 6514      C0000000 
 6515              	.LEHB171:
 6516 39dc E8000000 		call	_ZSt16__ostream_insertIcSt11char_traitsIcEERSt13basic_ostreamIT_T0_ES6_PKS3_l@PLT
 6516      00
 6517 39e1 BE010000 		movl	$1, %esi
 6517      00
 6518 39e6 4889DF   		movq	%rbx, %rdi
 6519 39e9 E8000000 		call	_ZNSolsEi@PLT
 6519      00
 6520 39ee 488D3500 		leaq	.LC6(%rip), %rsi
 6520      000000
 6521 39f5 BA090000 		movl	$9, %edx
 6521      00
 6522 39fa 4889C7   		movq	%rax, %rdi
 6523 39fd 48894424 		movq	%rax, 8(%rsp)
 6523      08
 6524 3a02 E8000000 		call	_ZSt16__ostream_insertIcSt11char_traitsIcEERSt13basic_ostreamIT_T0_ES6_PKS3_l@PLT
 6524      00
 6525 3a07 488B7C24 		movq	8(%rsp), %rdi
 6525      08
 6526 3a0c BE020000 		movl	$2, %esi
 6526      00
 6527 3a11 E8000000 		call	_ZNSolsEi@PLT
 6527      00
 6528 3a16 4889DF   		movq	%rbx, %rdi
 6529 3a19 E8000000 		call	_ZNK8UnitTest15MemoryOutStream7GetTextEv@PLT
 6529      00
 6530 3a1e 4889C2   		movq	%rax, %rdx
 6531 3a21 4C89E6   		movq	%r12, %rsi
 6532 3a24 4C89F7   		movq	%r14, %rdi
 6533 3a27 E8000000 		call	_ZN8UnitTest11TestResults13OnTestFailureERKNS_11TestDetailsEPKc@PLT
 6533      00
 6534              	.LEHE171:
 6535 3a2c 488D0500 		leaq	24+_ZTVN8UnitTest15MemoryOutStreamE(%rip), %rax
 6535      000000
 6536 3a33 488BBC24 		movq	192(%rsp), %rdi
 6536      C0000000 
 6537 3a3b 48894424 		movq	%rax, 80(%rsp)
 6537      50
 6538 3a40 4883C028 		addq	$40, %rax
 6539 3a44 48898424 		movq	%rax, 224(%rsp)
 6539      E0000000 
 6540 3a4c 488D8380 		leaq	128(%rbx), %rax
 6540      000000
 6541 3a53 4839C7   		cmpq	%rax, %rdi
 6542 3a56 7405     		je	.L535
 6543 3a58 E8000000 		call	_ZdlPv@PLT
 6543      00
 6544              	.L535:
 6545 3a5d 488D0500 		leaq	64+_ZTCN8UnitTest15MemoryOutStreamE0_NSt7__cxx1119basic_ostringstreamIcSt11char_traitsIcESaIc
 6545      000000
 6546 3a64 488BBC24 		movq	160(%rsp), %rdi
 6546      A0000000 
 6547 3a6c F30F7E05 		movq	.LC14(%rip), %xmm0
 6547      00000000 
 6548 3a74 48898424 		movq	%rax, 224(%rsp)
 6548      E0000000 
 6549 3a7c 488D4360 		leaq	96(%rbx), %rax
 6550 3a80 0F160500 		movhps	.LC15(%rip), %xmm0
 6550      000000
 6551 3a87 4839C7   		cmpq	%rax, %rdi
 6552 3a8a 0F294424 		movaps	%xmm0, 80(%rsp)
 6552      50
 6553 3a8f 7405     		je	.L536
 6554 3a91 E8000000 		call	_ZdlPv@PLT
 6554      00
 6555              	.L536:
 6556 3a96 488D0500 		leaq	16+_ZTVSt15basic_streambufIcSt11char_traitsIcEE(%rip), %rax
 6556      000000
 6557 3a9d 488D7B40 		leaq	64(%rbx), %rdi
 6558 3aa1 48894424 		movq	%rax, 88(%rsp)
 6558      58
 6559 3aa6 E8000000 		call	_ZNSt6localeD1Ev@PLT
 6559      00
 6560 3aab 488D0500 		leaq	16+_ZTVSt9basic_iosIcSt11char_traitsIcEE(%rip), %rax
 6560      000000
 6561 3ab2 488DBB90 		leaq	144(%rbx), %rdi
 6561      000000
 6562 3ab9 4C897C24 		movq	%r15, 80(%rsp)
 6562      50
 6563 3abe 48898424 		movq	%rax, 224(%rsp)
 6563      E0000000 
 6564              	.LEHB172:
 6565 3ac6 E8000000 		call	_ZNSt8ios_baseD2Ev@PLT
 6565      00
 6566              	.LEHE172:
 6567 3acb 488DBD14 		leaq	1300(%rbp), %rdi
 6567      050000
 6568 3ad2 488D3500 		leaq	.LC38(%rip), %rsi
 6568      000000
 6569 3ad9 E8000000 		call	strstr@PLT
 6569      00
 6570 3ade 4885C0   		testq	%rax, %rax
 6571 3ae1 0F849100 		je	.L561
 6571      0000
 6572              	.L538:
 6573 3ae7 488DBD14 		leaq	1300(%rbp), %rdi
 6573      050000
 6574 3aee 488D3500 		leaq	.LC40(%rip), %rsi
 6574      000000
 6575 3af5 E8000000 		call	strstr@PLT
 6575      00
 6576 3afa 4885C0   		testq	%rax, %rax
 6577 3afd 7441     		je	.L562
 6578              	.L541:
 6579 3aff 4889EF   		movq	%rbp, %rdi
 6580 3b02 4C89AC24 		movq	%r13, 496(%rsp)
 6580      F0010000 
 6581              	.LEHB173:
 6582 3b0a E8000000 		call	_ZN8UnitTest12TestReporterD2Ev@PLT
 6582      00
 6583              	.LEHE173:
 6584 3b0f 488B8424 		movq	2600(%rsp), %rax
 6584      280A0000 
 6585 3b17 64483304 		xorq	%fs:40, %rax
 6585      25280000 
 6585      00
 6586 3b20 0F858600 		jne	.L563
 6586      0000
 6587 3b26 4881C438 		addq	$2616, %rsp
 6587      0A0000
 6588              		.cfi_remember_state
 6589              		.cfi_def_cfa_offset 56
 6590 3b2d 5B       		popq	%rbx
 6591              		.cfi_def_cfa_offset 48
 6592 3b2e 5D       		popq	%rbp
 6593              		.cfi_def_cfa_offset 40
 6594 3b2f 415C     		popq	%r12
 6595              		.cfi_def_cfa_offset 32
 6596 3b31 415D     		popq	%r13
 6597              		.cfi_def_cfa_offset 24
 6598 3b33 415E     		popq	%r14
 6599              		.cfi_def_cfa_offset 16
 6600 3b35 415F     		popq	%r15
 6601              		.cfi_def_cfa_offset 8
 6602 3b37 C3       		ret
 6603 3b38 0F1F8400 		.p2align 4,,10
 6603      00000000 
 6604              		.p2align 3
 6605              	.L562:
 6606              		.cfi_restore_state
 6607              	.LEHB174:
 6608 3b40 E8000000 		call	_ZN8UnitTest11CurrentTest7ResultsEv@PLT
 6608      00
 6609 3b45 488B18   		movq	(%rax), %rbx
 6610 3b48 E8000000 		call	_ZN8UnitTest11CurrentTest7DetailsEv@PLT
 6610      00
 6611 3b4d 488B30   		movq	(%rax), %rsi
 6612 3b50 BA520000 		movl	$82, %edx
 6612      00
 6613 3b55 4C89E7   		movq	%r12, %rdi
 6614 3b58 E8000000 		call	_ZN8UnitTest11TestDetailsC1ERKS0_i@PLT
 6614      00
 6615 3b5d 488D1500 		leaq	.LC41(%rip), %rdx
 6615      000000
 6616 3b64 4C89E6   		movq	%r12, %rsi
 6617 3b67 4889DF   		movq	%rbx, %rdi
 6618 3b6a E8000000 		call	_ZN8UnitTest11TestResults13OnTestFailureERKNS_11TestDetailsEPKc@PLT
 6618      00
 6619              	.LEHE174:
 6620 3b6f EB8E     		jmp	.L541
 6621              		.p2align 4,,10
 6622 3b71 0F1F8000 		.p2align 3
 6622      000000
 6623              	.L561:
 6624              	.LEHB175:
 6625 3b78 E8000000 		call	_ZN8UnitTest11CurrentTest7ResultsEv@PLT
 6625      00
 6626 3b7d 488B18   		movq	(%rax), %rbx
 6627 3b80 E8000000 		call	_ZN8UnitTest11CurrentTest7DetailsEv@PLT
 6627      00
 6628 3b85 488B30   		movq	(%rax), %rsi
 6629 3b88 BA510000 		movl	$81, %edx
 6629      00
 6630 3b8d 4C89E7   		movq	%r12, %rdi
 6631 3b90 E8000000 		call	_ZN8UnitTest11TestDetailsC1ERKS0_i@PLT
 6631      00
 6632 3b95 488D1500 		leaq	.LC39(%rip), %rdx
 6632      000000
 6633 3b9c 4C89E6   		movq	%r12, %rsi
 6634 3b9f 4889DF   		movq	%rbx, %rdi
 6635 3ba2 E8000000 		call	_ZN8UnitTest11TestResults13OnTestFailureERKNS_11TestDetailsEPKc@PLT
 6635      00
 6636              	.LEHE175:
 6637 3ba7 E93BFFFF 		jmp	.L538
 6637      FF
 6638              	.L563:
 6639 3bac E8000000 		call	__stack_chk_fail@PLT
 6639      00
 6640              	.L550:
 6641 3bb1 4889C7   		movq	%rax, %rdi
 6642 3bb4 E8000000 		call	__cxa_begin_catch@PLT
 6642      00
 6643              	.LEHB176:
 6644 3bb9 E8000000 		call	_ZN8UnitTest11CurrentTest7ResultsEv@PLT
 6644      00
 6645 3bbe 488B18   		movq	(%rax), %rbx
 6646 3bc1 E8000000 		call	_ZN8UnitTest11CurrentTest7DetailsEv@PLT
 6646      00
 6647 3bc6 488B30   		movq	(%rax), %rsi
 6648 3bc9 BA510000 		movl	$81, %edx
 6648      00
 6649 3bce 4C89E7   		movq	%r12, %rdi
 6650 3bd1 E8000000 		call	_ZN8UnitTest11TestDetailsC1ERKS0_i@PLT
 6650      00
 6651 3bd6 488D1500 		leaq	.LC42(%rip), %rdx
 6651      000000
 6652 3bdd 4C89E6   		movq	%r12, %rsi
 6653 3be0 4889DF   		movq	%rbx, %rdi
 6654 3be3 E8000000 		call	_ZN8UnitTest11TestResults13OnTestFailureERKNS_11TestDetailsEPKc@PLT
 6654      00
 6655              	.LEHE176:
 6656              	.LEHB177:
 6657 3be8 E8000000 		call	__cxa_end_catch@PLT
 6657      00
 6658              	.LEHE177:
 6659 3bed E9F5FEFF 		jmp	.L538
 6659      FF
 6660              	.L549:
 6661 3bf2 4889C3   		movq	%rax, %rbx
 6662              	.L534:
 6663 3bf5 4889EF   		movq	%rbp, %rdi
 6664 3bf8 4C89AC24 		movq	%r13, 496(%rsp)
 6664      F0010000 
 6665 3c00 E8000000 		call	_ZN8UnitTest12TestReporterD2Ev@PLT
 6665      00
 6666 3c05 4889DF   		movq	%rbx, %rdi
 6667              	.LEHB178:
 6668 3c08 E8000000 		call	_Unwind_Resume@PLT
 6668      00
 6669              	.LEHE178:
 6670              	.L551:
 6671 3c0d 4889C3   		movq	%rax, %rbx
 6672 3c10 E8000000 		call	__cxa_end_catch@PLT
 6672      00
 6673 3c15 EBDE     		jmp	.L534
 6674              	.L556:
 6675 3c17 488D7B08 		leaq	8(%rbx), %rdi
 6676 3c1b 4989C4   		movq	%rax, %r12
 6677 3c1e E8000000 		call	_ZNSt7__cxx1115basic_stringbufIcSt11char_traitsIcESaIcEED1Ev
 6677      00
 6678 3c23 4C897C24 		movq	%r15, 80(%rsp)
 6678      50
 6679              	.L532:
 6680 3c28 488D0500 		leaq	16+_ZTVSt9basic_iosIcSt11char_traitsIcEE(%rip), %rax
 6680      000000
 6681 3c2f 488DBB90 		leaq	144(%rbx), %rdi
 6681      000000
 6682 3c36 4C89E3   		movq	%r12, %rbx
 6683 3c39 48898424 		movq	%rax, 224(%rsp)
 6683      E0000000 
 6684 3c41 E8000000 		call	_ZNSt8ios_baseD2Ev@PLT
 6684      00
 6685 3c46 EBAD     		jmp	.L534
 6686              	.L555:
 6687 3c48 4989C4   		movq	%rax, %r12
 6688 3c4b EBDB     		jmp	.L532
 6689              	.L552:
 6690 3c4d 4889C7   		movq	%rax, %rdi
 6691 3c50 E8000000 		call	__cxa_begin_catch@PLT
 6691      00
 6692              	.LEHB179:
 6693 3c55 E8000000 		call	_ZN8UnitTest11CurrentTest7ResultsEv@PLT
 6693      00
 6694 3c5a 488B18   		movq	(%rax), %rbx
 6695 3c5d E8000000 		call	_ZN8UnitTest11CurrentTest7DetailsEv@PLT
 6695      00
 6696 3c62 488B30   		movq	(%rax), %rsi
 6697 3c65 BA520000 		movl	$82, %edx
 6697      00
 6698 3c6a 4C89E7   		movq	%r12, %rdi
 6699 3c6d E8000000 		call	_ZN8UnitTest11TestDetailsC1ERKS0_i@PLT
 6699      00
 6700 3c72 488D1500 		leaq	.LC43(%rip), %rdx
 6700      000000
 6701 3c79 4C89E6   		movq	%r12, %rsi
 6702 3c7c 4889DF   		movq	%rbx, %rdi
 6703 3c7f E8000000 		call	_ZN8UnitTest11TestResults13OnTestFailureERKNS_11TestDetailsEPKc@PLT
 6703      00
 6704              	.LEHE179:
 6705              	.LEHB180:
 6706 3c84 E8000000 		call	__cxa_end_catch@PLT
 6706      00
 6707              	.LEHE180:
 6708 3c89 E971FEFF 		jmp	.L541
 6708      FF
 6709              	.L554:
 6710 3c8e 4989C4   		movq	%rax, %r12
 6711 3c91 4889DF   		movq	%rbx, %rdi
 6712 3c94 E8000000 		call	_ZN8UnitTest15MemoryOutStreamD1Ev
 6712      00
 6713 3c99 4C89E3   		movq	%r12, %rbx
 6714 3c9c E954FFFF 		jmp	.L534
 6714      FF
 6715              	.L553:
 6716 3ca1 4889C3   		movq	%rax, %rbx
 6717 3ca4 E8000000 		call	__cxa_end_catch@PLT
 6717      00
 6718 3ca9 E947FFFF 		jmp	.L534
 6718      FF
 6719              		.cfi_endproc
 6720              	.LFE1183:
 6721              		.section	.gcc_except_table
 6722              		.align 4
 6723              	.LLSDA1183:
 6724 0470 FF       		.byte	0xff
 6725 0471 9B       		.byte	0x9b
 6726 0472 55       		.uleb128 .LLSDATT1183-.LLSDATTD1183
 6727              	.LLSDATTD1183:
 6728 0473 01       		.byte	0x1
 6729 0474 4C       		.uleb128 .LLSDACSE1183-.LLSDACSB1183
 6730              	.LLSDACSB1183:
 6731 0475 D501     		.uleb128 .LEHB168-.LFB1183
 6732 0477 22       		.uleb128 .LEHE168-.LEHB168
 6733 0478 F208     		.uleb128 .L549-.LFB1183
 6734 047a 00       		.uleb128 0
 6735 047b FE02     		.uleb128 .LEHB169-.LFB1183
 6736 047d 05       		.uleb128 .LEHE169-.LEHB169
 6737 047e C809     		.uleb128 .L555-.LFB1183
 6738 0480 00       		.uleb128 0
 6739 0481 8D04     		.uleb128 .LEHB170-.LFB1183
 6740 0483 05       		.uleb128 .LEHE170-.LEHB170
 6741 0484 9709     		.uleb128 .L556-.LFB1183
 6742 0486 00       		.uleb128 0
 6743 0487 DC04     		.uleb128 .LEHB171-.LFB1183
 6744 0489 50       		.uleb128 .LEHE171-.LEHB171
 6745 048a 8E0A     		.uleb128 .L554-.LFB1183
 6746 048c 00       		.uleb128 0
 6747 048d C606     		.uleb128 .LEHB172-.LFB1183
 6748 048f 05       		.uleb128 .LEHE172-.LEHB172
 6749 0490 F208     		.uleb128 .L549-.LFB1183
 6750 0492 00       		.uleb128 0
 6751 0493 8A07     		.uleb128 .LEHB173-.LFB1183
 6752 0495 05       		.uleb128 .LEHE173-.LEHB173
 6753 0496 00       		.uleb128 0
 6754 0497 00       		.uleb128 0
 6755 0498 C007     		.uleb128 .LEHB174-.LFB1183
 6756 049a 2F       		.uleb128 .LEHE174-.LEHB174
 6757 049b CD09     		.uleb128 .L552-.LFB1183
 6758 049d 01       		.uleb128 0x1
 6759 049e F807     		.uleb128 .LEHB175-.LFB1183
 6760 04a0 2F       		.uleb128 .LEHE175-.LEHB175
 6761 04a1 B108     		.uleb128 .L550-.LFB1183
 6762 04a3 01       		.uleb128 0x1
 6763 04a4 B908     		.uleb128 .LEHB176-.LFB1183
 6764 04a6 2F       		.uleb128 .LEHE176-.LEHB176
 6765 04a7 8D09     		.uleb128 .L551-.LFB1183
 6766 04a9 00       		.uleb128 0
 6767 04aa E808     		.uleb128 .LEHB177-.LFB1183
 6768 04ac 05       		.uleb128 .LEHE177-.LEHB177
 6769 04ad F208     		.uleb128 .L549-.LFB1183
 6770 04af 00       		.uleb128 0
 6771 04b0 8809     		.uleb128 .LEHB178-.LFB1183
 6772 04b2 05       		.uleb128 .LEHE178-.LEHB178
 6773 04b3 00       		.uleb128 0
 6774 04b4 00       		.uleb128 0
 6775 04b5 D509     		.uleb128 .LEHB179-.LFB1183
 6776 04b7 2F       		.uleb128 .LEHE179-.LEHB179
 6777 04b8 A10A     		.uleb128 .L553-.LFB1183
 6778 04ba 00       		.uleb128 0
 6779 04bb 840A     		.uleb128 .LEHB180-.LFB1183
 6780 04bd 05       		.uleb128 .LEHE180-.LEHB180
 6781 04be F208     		.uleb128 .L549-.LFB1183
 6782 04c0 00       		.uleb128 0
 6783              	.LLSDACSE1183:
 6784 04c1 01       		.byte	0x1
 6785 04c2 00       		.byte	0
 6786 04c3 00       		.align 4
 6787 04c4 00000000 		.long	0
 6788              	
 6789              	.LLSDATT1183:
 6790              		.text
 6792              		.section	.text._ZNSt7__cxx1115basic_stringbufIcSt11char_traitsIcESaIcEED0Ev,"axG",@progbits,_ZNSt7
 6793              		.align 2
 6794              		.p2align 4,,15
 6795              		.weak	_ZNSt7__cxx1115basic_stringbufIcSt11char_traitsIcESaIcEED0Ev
 6797              	_ZNSt7__cxx1115basic_stringbufIcSt11char_traitsIcESaIcEED0Ev:
 6798              	.LFB1267:
 6799              		.cfi_startproc
 6800 0000 488D0500 		leaq	16+_ZTVNSt7__cxx1115basic_stringbufIcSt11char_traitsIcESaIcEEE(%rip), %rax
 6800      000000
 6801 0007 53       		pushq	%rbx
 6802              		.cfi_def_cfa_offset 16
 6803              		.cfi_offset 3, -16
 6804 0008 4889FB   		movq	%rdi, %rbx
 6805 000b 488907   		movq	%rax, (%rdi)
 6806 000e 488B7F48 		movq	72(%rdi), %rdi
 6807 0012 488D4358 		leaq	88(%rbx), %rax
 6808 0016 4839C7   		cmpq	%rax, %rdi
 6809 0019 7405     		je	.L565
 6810 001b E8000000 		call	_ZdlPv@PLT
 6810      00
 6811              	.L565:
 6812 0020 488D0500 		leaq	16+_ZTVSt15basic_streambufIcSt11char_traitsIcEE(%rip), %rax
 6812      000000
 6813 0027 488D7B38 		leaq	56(%rbx), %rdi
 6814 002b 488903   		movq	%rax, (%rbx)
 6815 002e E8000000 		call	_ZNSt6localeD1Ev@PLT
 6815      00
 6816 0033 4889DF   		movq	%rbx, %rdi
 6817 0036 5B       		popq	%rbx
 6818              		.cfi_def_cfa_offset 8
 6819 0037 E9000000 		jmp	_ZdlPv@PLT
 6819      00
 6820              		.cfi_endproc
 6821              	.LFE1267:
 6823              		.section	.text._ZN8UnitTest10CheckEqualIiiEEvRNS_11TestResultsERKT_RKT0_RKNS_11TestDetailsE,"axG",
 6824              		.p2align 4,,15
 6825              		.weak	_ZN8UnitTest10CheckEqualIiiEEvRNS_11TestResultsERKT_RKT0_RKNS_11TestDetailsE
 6827              	_ZN8UnitTest10CheckEqualIiiEEvRNS_11TestResultsERKT_RKT0_RKNS_11TestDetailsE:
 6828              	.LFB1288:
 6829              		.cfi_startproc
 6830              		.cfi_personality 0x9b,DW.ref.__gxx_personality_v0
 6831              		.cfi_lsda 0x1b,.LLSDA1288
 6832 0000 4157     		pushq	%r15
 6833              		.cfi_def_cfa_offset 16
 6834              		.cfi_offset 15, -16
 6835 0002 4156     		pushq	%r14
 6836              		.cfi_def_cfa_offset 24
 6837              		.cfi_offset 14, -24
 6838 0004 4155     		pushq	%r13
 6839              		.cfi_def_cfa_offset 32
 6840              		.cfi_offset 13, -32
 6841 0006 4154     		pushq	%r12
 6842              		.cfi_def_cfa_offset 40
 6843              		.cfi_offset 12, -40
 6844 0008 55       		pushq	%rbp
 6845              		.cfi_def_cfa_offset 48
 6846              		.cfi_offset 6, -48
 6847 0009 53       		pushq	%rbx
 6848              		.cfi_def_cfa_offset 56
 6849              		.cfi_offset 3, -56
 6850 000a 4881ECB8 		subq	$440, %rsp
 6850      010000
 6851              		.cfi_def_cfa_offset 496
 6852 0011 64488B04 		movq	%fs:40, %rax
 6852      25280000 
 6852      00
 6853 001a 48898424 		movq	%rax, 424(%rsp)
 6853      A8010000 
 6854 0022 31C0     		xorl	%eax, %eax
 6855 0024 8B02     		movl	(%rdx), %eax
 6856 0026 3906     		cmpl	%eax, (%rsi)
 6857 0028 48893C24 		movq	%rdi, (%rsp)
 6858 002c 48894C24 		movq	%rcx, 8(%rsp)
 6858      08
 6859 0031 0F842F02 		je	.L567
 6859      0000
 6860 0037 488D5C24 		leaq	16(%rsp), %rbx
 6860      10
 6861 003c 4C8D2D00 		leaq	24+_ZTCN8UnitTest15MemoryOutStreamE0_So(%rip), %r13
 6861      000000
 6862 0043 4989F4   		movq	%rsi, %r12
 6863 0046 4889D5   		movq	%rdx, %rbp
 6864 0049 4C8DB390 		leaq	144(%rbx), %r14
 6864      000000
 6865 0050 4C89F7   		movq	%r14, %rdi
 6866 0053 E8000000 		call	_ZNSt8ios_baseC2Ev@PLT
 6866      00
 6867 0058 498D4528 		leaq	40(%r13), %rax
 6868 005c 31F6     		xorl	%esi, %esi
 6869 005e 4C89F7   		movq	%r14, %rdi
 6870 0061 48C78424 		movq	$0, 376(%rsp)
 6870      78010000 
 6870      00000000 
 6871 006d C6842480 		movb	$0, 384(%rsp)
 6871      01000000 
 6872 0075 C6842481 		movb	$0, 385(%rsp)
 6872      01000000 
 6873 007d 48C78424 		movq	$0, 392(%rsp)
 6873      88010000 
 6873      00000000 
 6874 0089 48C78424 		movq	$0, 400(%rsp)
 6874      90010000 
 6874      00000000 
 6875 0095 48C78424 		movq	$0, 408(%rsp)
 6875      98010000 
 6875      00000000 
 6876 00a1 48C78424 		movq	$0, 416(%rsp)
 6876      A0010000 
 6876      00000000 
 6877 00ad 4C896C24 		movq	%r13, 16(%rsp)
 6877      10
 6878 00b2 48898424 		movq	%rax, 160(%rsp)
 6878      A0000000 
 6879              	.LEHB181:
 6880 00ba E8000000 		call	_ZNSt9basic_iosIcSt11char_traitsIcEE4initEPSt15basic_streambufIcS1_E@PLT
 6880      00
 6881              	.LEHE181:
 6882 00bf 488D0500 		leaq	24+_ZTCN8UnitTest15MemoryOutStreamE0_NSt7__cxx1119basic_ostringstreamIcSt11char_traitsIcESaIc
 6882      000000
 6883 00c6 660FEFC0 		pxor	%xmm0, %xmm0
 6884 00ca 488D7B40 		leaq	64(%rbx), %rdi
 6885 00ce 48894424 		movq	%rax, 16(%rsp)
 6885      10
 6886 00d3 4883C028 		addq	$40, %rax
 6887 00d7 48898424 		movq	%rax, 160(%rsp)
 6887      A0000000 
 6888 00df 488D0500 		leaq	16+_ZTVSt15basic_streambufIcSt11char_traitsIcEE(%rip), %rax
 6888      000000
 6889 00e6 0F294424 		movaps	%xmm0, 32(%rsp)
 6889      20
 6890 00eb 48894424 		movq	%rax, 24(%rsp)
 6890      18
 6891 00f0 0F294424 		movaps	%xmm0, 48(%rsp)
 6891      30
 6892 00f5 0F294424 		movaps	%xmm0, 64(%rsp)
 6892      40
 6893 00fa E8000000 		call	_ZNSt6localeC1Ev@PLT
 6893      00
 6894 00ff 488D0500 		leaq	16+_ZTVNSt7__cxx1115basic_stringbufIcSt11char_traitsIcESaIcEEE(%rip), %rax
 6894      000000
 6895 0106 488D7308 		leaq	8(%rbx), %rsi
 6896 010a 48894424 		movq	%rax, 24(%rsp)
 6896      18
 6897 010f 488D4360 		leaq	96(%rbx), %rax
 6898 0113 C7442458 		movl	$16, 88(%rsp)
 6898      10000000 
 6899 011b 48C74424 		movq	$0, 104(%rsp)
 6899      68000000 
 6899      00
 6900 0124 C6442470 		movb	$0, 112(%rsp)
 6900      00
 6901 0129 48894424 		movq	%rax, 96(%rsp)
 6901      60
 6902 012e 488B4424 		movq	16(%rsp), %rax
 6902      10
 6903 0133 488B78E8 		movq	-24(%rax), %rdi
 6904 0137 4801DF   		addq	%rbx, %rdi
 6905              	.LEHB182:
 6906 013a E8000000 		call	_ZNSt9basic_iosIcSt11char_traitsIcEE4initEPSt15basic_streambufIcS1_E@PLT
 6906      00
 6907              	.LEHE182:
 6908 013f 4C8D3D00 		leaq	24+_ZTVN8UnitTest15MemoryOutStreamE(%rip), %r15
 6908      000000
 6909 0146 488D8380 		leaq	128(%rbx), %rax
 6909      000000
 6910 014d 488D3500 		leaq	.LC2(%rip), %rsi
 6910      000000
 6911 0154 BA090000 		movl	$9, %edx
 6911      00
 6912 0159 4889DF   		movq	%rbx, %rdi
 6913 015c 48C78424 		movq	$0, 136(%rsp)
 6913      88000000 
 6913      00000000 
 6914 0168 4D8D7728 		leaq	40(%r15), %r14
 6915 016c 4C897C24 		movq	%r15, 16(%rsp)
 6915      10
 6916 0171 48898424 		movq	%rax, 128(%rsp)
 6916      80000000 
 6917 0179 C6842490 		movb	$0, 144(%rsp)
 6917      00000000 
 6918 0181 4C89B424 		movq	%r14, 160(%rsp)
 6918      A0000000 
 6919              	.LEHB183:
 6920 0189 E8000000 		call	_ZSt16__ostream_insertIcSt11char_traitsIcEERSt13basic_ostreamIT_T0_ES6_PKS3_l@PLT
 6920      00
 6921 018e 418B3424 		movl	(%r12), %esi
 6922 0192 4889DF   		movq	%rbx, %rdi
 6923 0195 E8000000 		call	_ZNSolsEi@PLT
 6923      00
 6924 019a 488D3500 		leaq	.LC6(%rip), %rsi
 6924      000000
 6925 01a1 BA090000 		movl	$9, %edx
 6925      00
 6926 01a6 4889C7   		movq	%rax, %rdi
 6927 01a9 4989C4   		movq	%rax, %r12
 6928 01ac E8000000 		call	_ZSt16__ostream_insertIcSt11char_traitsIcEERSt13basic_ostreamIT_T0_ES6_PKS3_l@PLT
 6928      00
 6929 01b1 8B7500   		movl	0(%rbp), %esi
 6930 01b4 4C89E7   		movq	%r12, %rdi
 6931 01b7 E8000000 		call	_ZNSolsEi@PLT
 6931      00
 6932 01bc 4889DF   		movq	%rbx, %rdi
 6933 01bf E8000000 		call	_ZNK8UnitTest15MemoryOutStream7GetTextEv@PLT
 6933      00
 6934 01c4 488B7424 		movq	8(%rsp), %rsi
 6934      08
 6935 01c9 488B3C24 		movq	(%rsp), %rdi
 6936 01cd 4889C2   		movq	%rax, %rdx
 6937 01d0 E8000000 		call	_ZN8UnitTest11TestResults13OnTestFailureERKNS_11TestDetailsEPKc@PLT
 6937      00
 6938              	.LEHE183:
 6939 01d5 488BBC24 		movq	128(%rsp), %rdi
 6939      80000000 
 6940 01dd 488D8380 		leaq	128(%rbx), %rax
 6940      000000
 6941 01e4 4C897C24 		movq	%r15, 16(%rsp)
 6941      10
 6942 01e9 4C89B424 		movq	%r14, 160(%rsp)
 6942      A0000000 
 6943 01f1 4839C7   		cmpq	%rax, %rdi
 6944 01f4 7405     		je	.L573
 6945 01f6 E8000000 		call	_ZdlPv@PLT
 6945      00
 6946              	.L573:
 6947 01fb 488D0500 		leaq	64+_ZTCN8UnitTest15MemoryOutStreamE0_NSt7__cxx1119basic_ostringstreamIcSt11char_traitsIcESaIc
 6947      000000
 6948 0202 488B7C24 		movq	96(%rsp), %rdi
 6948      60
 6949 0207 F30F7E05 		movq	.LC14(%rip), %xmm0
 6949      00000000 
 6950 020f 48898424 		movq	%rax, 160(%rsp)
 6950      A0000000 
 6951 0217 488D4360 		leaq	96(%rbx), %rax
 6952 021b 0F160500 		movhps	.LC15(%rip), %xmm0
 6952      000000
 6953 0222 4839C7   		cmpq	%rax, %rdi
 6954 0225 0F294424 		movaps	%xmm0, 16(%rsp)
 6954      10
 6955 022a 7405     		je	.L574
 6956 022c E8000000 		call	_ZdlPv@PLT
 6956      00
 6957              	.L574:
 6958 0231 488D0500 		leaq	16+_ZTVSt15basic_streambufIcSt11char_traitsIcEE(%rip), %rax
 6958      000000
 6959 0238 488D7B40 		leaq	64(%rbx), %rdi
 6960 023c 48894424 		movq	%rax, 24(%rsp)
 6960      18
 6961 0241 E8000000 		call	_ZNSt6localeD1Ev@PLT
 6961      00
 6962 0246 488D0500 		leaq	16+_ZTVSt9basic_iosIcSt11char_traitsIcEE(%rip), %rax
 6962      000000
 6963 024d 488DBB90 		leaq	144(%rbx), %rdi
 6963      000000
 6964 0254 4C896C24 		movq	%r13, 16(%rsp)
 6964      10
 6965 0259 48898424 		movq	%rax, 160(%rsp)
 6965      A0000000 
 6966              	.LEHB184:
 6967 0261 E8000000 		call	_ZNSt8ios_baseD2Ev@PLT
 6967      00
 6968              	.LEHE184:
 6969              	.L567:
 6970 0266 488B8424 		movq	424(%rsp), %rax
 6970      A8010000 
 6971 026e 64483304 		xorq	%fs:40, %rax
 6971      25280000 
 6971      00
 6972 0277 7512     		jne	.L583
 6973 0279 4881C4B8 		addq	$440, %rsp
 6973      010000
 6974              		.cfi_remember_state
 6975              		.cfi_def_cfa_offset 56
 6976 0280 5B       		popq	%rbx
 6977              		.cfi_def_cfa_offset 48
 6978 0281 5D       		popq	%rbp
 6979              		.cfi_def_cfa_offset 40
 6980 0282 415C     		popq	%r12
 6981              		.cfi_def_cfa_offset 32
 6982 0284 415D     		popq	%r13
 6983              		.cfi_def_cfa_offset 24
 6984 0286 415E     		popq	%r14
 6985              		.cfi_def_cfa_offset 16
 6986 0288 415F     		popq	%r15
 6987              		.cfi_def_cfa_offset 8
 6988 028a C3       		ret
 6989              	.L583:
 6990              		.cfi_restore_state
 6991 028b E8000000 		call	__stack_chk_fail@PLT
 6991      00
 6992              	.L578:
 6993 0290 4889C5   		movq	%rax, %rbp
 6994              	.L571:
 6995 0293 488D0500 		leaq	16+_ZTVSt9basic_iosIcSt11char_traitsIcEE(%rip), %rax
 6995      000000
 6996 029a 488DBB90 		leaq	144(%rbx), %rdi
 6996      000000
 6997 02a1 48898424 		movq	%rax, 160(%rsp)
 6997      A0000000 
 6998 02a9 E8000000 		call	_ZNSt8ios_baseD2Ev@PLT
 6998      00
 6999 02ae 4889EF   		movq	%rbp, %rdi
 7000              	.LEHB185:
 7001 02b1 E8000000 		call	_Unwind_Resume@PLT
 7001      00
 7002              	.LEHE185:
 7003              	.L577:
 7004 02b6 4889C5   		movq	%rax, %rbp
 7005 02b9 4889DF   		movq	%rbx, %rdi
 7006 02bc E8000000 		call	_ZN8UnitTest15MemoryOutStreamD1Ev
 7006      00
 7007 02c1 4889EF   		movq	%rbp, %rdi
 7008              	.LEHB186:
 7009 02c4 E8000000 		call	_Unwind_Resume@PLT
 7009      00
 7010              	.LEHE186:
 7011              	.L579:
 7012 02c9 488D7B08 		leaq	8(%rbx), %rdi
 7013 02cd 4889C5   		movq	%rax, %rbp
 7014 02d0 E8000000 		call	_ZNSt7__cxx1115basic_stringbufIcSt11char_traitsIcESaIcEED1Ev
 7014      00
 7015 02d5 4C896C24 		movq	%r13, 16(%rsp)
 7015      10
 7016 02da EBB7     		jmp	.L571
 7017              		.cfi_endproc
 7018              	.LFE1288:
 7019              		.section	.gcc_except_table
 7020              	.LLSDA1288:
 7021 04c8 FF       		.byte	0xff
 7022 04c9 FF       		.byte	0xff
 7023 04ca 01       		.byte	0x1
 7024 04cb 21       		.uleb128 .LLSDACSE1288-.LLSDACSB1288
 7025              	.LLSDACSB1288:
 7026 04cc BA01     		.uleb128 .LEHB181-.LFB1288
 7027 04ce 05       		.uleb128 .LEHE181-.LEHB181
 7028 04cf 9005     		.uleb128 .L578-.LFB1288
 7029 04d1 00       		.uleb128 0
 7030 04d2 BA02     		.uleb128 .LEHB182-.LFB1288
 7031 04d4 05       		.uleb128 .LEHE182-.LEHB182
 7032 04d5 C905     		.uleb128 .L579-.LFB1288
 7033 04d7 00       		.uleb128 0
 7034 04d8 8903     		.uleb128 .LEHB183-.LFB1288
 7035 04da 4C       		.uleb128 .LEHE183-.LEHB183
 7036 04db B605     		.uleb128 .L577-.LFB1288
 7037 04dd 00       		.uleb128 0
 7038 04de E104     		.uleb128 .LEHB184-.LFB1288
 7039 04e0 05       		.uleb128 .LEHE184-.LEHB184
 7040 04e1 00       		.uleb128 0
 7041 04e2 00       		.uleb128 0
 7042 04e3 B105     		.uleb128 .LEHB185-.LFB1288
 7043 04e5 05       		.uleb128 .LEHE185-.LEHB185
 7044 04e6 00       		.uleb128 0
 7045 04e7 00       		.uleb128 0
 7046 04e8 C405     		.uleb128 .LEHB186-.LFB1288
 7047 04ea 05       		.uleb128 .LEHE186-.LEHB186
 7048 04eb 00       		.uleb128 0
 7049 04ec 00       		.uleb128 0
 7050              	.LLSDACSE1288:
 7051              		.section	.text._ZN8UnitTest10CheckEqualIiiEEvRNS_11TestResultsERKT_RKT0_RKNS_11TestDetailsE,"axG",
 7053              		.section	.rodata.str1.1
 7054              	.LC44:
 7055 0073 66696C65 		.string	"file"
 7055      00
 7056              	.LC45:
 7057 0078 61727261 		.string	"array2DCloseSuite"
 7057      79324443 
 7057      6C6F7365 
 7057      53756974 
 7057      6500
 7058              	.LC46:
 7059 008a 61727261 		.string	"array2DCloseTest"
 7059      79324443 
 7059      6C6F7365 
 7059      54657374 
 7059      00
 7060              		.section	.rodata.str1.8
 7061 0382 00000000 		.align 8
 7061      0000
 7062              	.LC47:
 7063 0388 556E6861 		.string	"Unhandled exception in CHECK_EQUAL(\"array2DCloseTest\", reporter.lastFailedTest)"
 7063      6E646C65 
 7063      64206578 
 7063      63657074 
 7063      696F6E20 
 7064              		.align 8
 7065              	.LC48:
 7066 03d8 556E6861 		.string	"Unhandled exception in CHECK_EQUAL(\"array2DCloseSuite\", reporter.lastFailedSuite)"
 7066      6E646C65 
 7066      64206578 
 7066      63657074 
 7066      696F6E20 
 7067 042a 00000000 		.align 8
 7067      0000
 7068              	.LC49:
 7069 0430 556E6861 		.string	"Unhandled exception in CHECK_EQUAL(\"file\", reporter.lastFailedFile)"
 7069      6E646C65 
 7069      64206578 
 7069      63657074 
 7069      696F6E20 
 7070 0474 00000000 		.align 8
 7071              	.LC50:
 7072 0478 556E6861 		.string	"Unhandled exception in CHECK_EQUAL(1234, reporter.lastFailedLine)"
 7072      6E646C65 
 7072      64206578 
 7072      63657074 
 7072      696F6E20 
 7073              		.text
 7074              		.align 2
 7075 3cae 6690     		.p2align 4,,15
 7077              	_ZNK12_GLOBAL__N_143TestCheckArray2DCloseFailureIncludesDetails7RunImplEv:
 7078              	.LFB1255:
 7079              		.cfi_startproc
 7080              		.cfi_personality 0x9b,DW.ref.__gxx_personality_v0
 7081              		.cfi_lsda 0x1b,.LLSDA1255
 7082 3cb0 4156     		pushq	%r14
 7083              		.cfi_def_cfa_offset 16
 7084              		.cfi_offset 14, -16
 7085 3cb2 4155     		pushq	%r13
 7086              		.cfi_def_cfa_offset 24
 7087              		.cfi_offset 13, -24
 7088 3cb4 4154     		pushq	%r12
 7089              		.cfi_def_cfa_offset 32
 7090              		.cfi_offset 12, -32
 7091 3cb6 55       		pushq	%rbp
 7092              		.cfi_def_cfa_offset 40
 7093              		.cfi_offset 6, -40
 7094 3cb7 4C8D2500 		leaq	16+_ZTV17RecordingReporter(%rip), %r12
 7094      000000
 7095 3cbe 53       		pushq	%rbx
 7096              		.cfi_def_cfa_offset 48
 7097              		.cfi_offset 3, -48
 7098 3cbf 4881EC10 		subq	$2320, %rsp
 7098      090000
 7099              		.cfi_def_cfa_offset 2368
 7100 3cc6 488DAC24 		leaq	208(%rsp), %rbp
 7100      D0000000 
 7101 3cce 4C8D6C24 		leaq	16(%rsp), %r13
 7101      10
 7102 3cd3 4C89A424 		movq	%r12, 208(%rsp)
 7102      D0000000 
 7103 3cdb 64488B04 		movq	%fs:40, %rax
 7103      25280000 
 7103      00
 7104 3ce4 48898424 		movq	%rax, 2312(%rsp)
 7104      08090000 
 7105 3cec 31C0     		xorl	%eax, %eax
 7106 3cee 4889EE   		movq	%rbp, %rsi
 7107 3cf1 4C89EF   		movq	%r13, %rdi
 7108 3cf4 C78424D8 		movl	$0, 216(%rsp)
 7108      00000000 
 7108      000000
 7109 3cff C78424DC 		movl	$0, 732(%rsp)
 7109      02000000 
 7109      000000
 7110 3d0a C78424E0 		movl	$0, 992(%rsp)
 7110      03000000 
 7110      000000
 7111 3d15 C78424E4 		movl	$0, 1764(%rsp)
 7111      06000000 
 7111      000000
 7112 3d20 48C78424 		movq	$0, 2280(%rsp)
 7112      E8080000 
 7112      00000000 
 7113 3d2c 48C78424 		movq	$0, 2288(%rsp)
 7113      F0080000 
 7113      00000000 
 7114 3d38 C78424F8 		movl	$0, 2296(%rsp)
 7114      08000000 
 7114      000000
 7115 3d43 C68424DC 		movb	$0, 220(%rsp)
 7115      00000000 
 7116 3d4b C68424DC 		movb	$0, 476(%rsp)
 7116      01000000 
 7117 3d53 C68424E0 		movb	$0, 736(%rsp)
 7117      02000000 
 7118 3d5b C68424E4 		movb	$0, 996(%rsp)
 7118      03000000 
 7119 3d63 C68424E4 		movb	$0, 1252(%rsp)
 7119      04000000 
 7120 3d6b C68424E4 		movb	$0, 1508(%rsp)
 7120      05000000 
 7121 3d73 C68424E8 		movb	$0, 1768(%rsp)
 7121      06000000 
 7122 3d7b C68424E8 		movb	$0, 2024(%rsp)
 7122      07000000 
 7123              	.LEHB187:
 7124 3d83 E8000000 		call	_ZN8UnitTest11TestResultsC1EPNS_12TestReporterE@PLT
 7124      00
 7125 3d88 4C8D7424 		leaq	48(%rsp), %r14
 7125      30
 7126 3d8d 488D0D00 		leaq	.LC44(%rip), %rcx
 7126      000000
 7127 3d94 488D1500 		leaq	.LC45(%rip), %rdx
 7127      000000
 7128 3d9b 488D3500 		leaq	.LC46(%rip), %rsi
 7128      000000
 7129 3da2 41B8D204 		movl	$1234, %r8d
 7129      0000
 7130 3da8 4C89F7   		movq	%r14, %rdi
 7131 3dab E8000000 		call	_ZN8UnitTest11TestDetailsC1EPKcS2_S2_i@PLT
 7131      00
 7132 3db0 0F280500 		movaps	.LC30(%rip), %xmm0
 7132      000000
 7133 3db7 488D5C24 		leaq	80(%rsp), %rbx
 7133      50
 7134 3dbc 488D9424 		leaq	160(%rsp), %rdx
 7134      A0000000 
 7135 3dc4 488D7424 		leaq	112(%rsp), %rsi
 7135      70
 7136 3dc9 4D89F0   		movq	%r14, %r8
 7137 3dcc 0F294424 		movaps	%xmm0, 112(%rsp)
 7137      70
 7138 3dd1 4889D9   		movq	%rbx, %rcx
 7139 3dd4 4C89EF   		movq	%r13, %rdi
 7140 3dd7 C7842490 		movl	$0x40800000, 144(%rsp)
 7140      00000000 
 7140      008040
 7141 3de2 0F280500 		movaps	.LC31(%rip), %xmm0
 7141      000000
 7142 3de9 C78424C0 		movl	$0x408051ec, 192(%rsp)
 7142      000000EC 
 7142      518040
 7143 3df4 C7442450 		movl	$0x3a83126f, 80(%rsp)
 7143      6F12833A 
 7144 3dfc 0F298424 		movaps	%xmm0, 128(%rsp)
 7144      80000000 
 7145 3e04 0F280500 		movaps	.LC33(%rip), %xmm0
 7145      000000
 7146 3e0b 0F298424 		movaps	%xmm0, 160(%rsp)
 7146      A0000000 
 7147 3e13 0F280500 		movaps	.LC34(%rip), %xmm0
 7147      000000
 7148 3e1a 0F298424 		movaps	%xmm0, 176(%rsp)
 7148      B0000000 
 7149 3e22 E859D5FF 		call	_ZN8UnitTest17CheckArray2DCloseIA3_A3_fS2_fEEvRNS_11TestResultsERKT_RKT0_iiRKT1_RKNS_11TestDe
 7149      FF
 7150              	.LEHE187:
 7151              	.LEHB188:
 7152 3e27 E8000000 		call	_ZN8UnitTest11CurrentTest7DetailsEv@PLT
 7152      00
 7153 3e2c BA1F0100 		movl	$287, %edx
 7153      00
 7154 3e31 4889DF   		movq	%rbx, %rdi
 7155 3e34 488B30   		movq	(%rax), %rsi
 7156 3e37 E8000000 		call	_ZN8UnitTest11TestDetailsC1ERKS0_i@PLT
 7156      00
 7157 3e3c E8000000 		call	_ZN8UnitTest11CurrentTest7ResultsEv@PLT
 7157      00
 7158 3e41 488B38   		movq	(%rax), %rdi
 7159 3e44 488D9514 		leaq	1044(%rbp), %rdx
 7159      040000
 7160 3e4b 488D3500 		leaq	.LC46(%rip), %rsi
 7160      000000
 7161 3e52 4889D9   		movq	%rbx, %rcx
 7162 3e55 E8000000 		call	_ZN8UnitTest10CheckEqualERNS_11TestResultsEPKcPcRKNS_11TestDetailsE@PLT
 7162      00
 7163              	.LEHE188:
 7164              	.L586:
 7165              	.LEHB189:
 7166 3e5a E8000000 		call	_ZN8UnitTest11CurrentTest7DetailsEv@PLT
 7166      00
 7167 3e5f 488B30   		movq	(%rax), %rsi
 7168 3e62 BA200100 		movl	$288, %edx
 7168      00
 7169 3e67 4889DF   		movq	%rbx, %rdi
 7170 3e6a E8000000 		call	_ZN8UnitTest11TestDetailsC1ERKS0_i@PLT
 7170      00
 7171 3e6f E8000000 		call	_ZN8UnitTest11CurrentTest7ResultsEv@PLT
 7171      00
 7172 3e74 488B38   		movq	(%rax), %rdi
 7173 3e77 488D9514 		leaq	788(%rbp), %rdx
 7173      030000
 7174 3e7e 488D3500 		leaq	.LC45(%rip), %rsi
 7174      000000
 7175 3e85 4889D9   		movq	%rbx, %rcx
 7176 3e88 E8000000 		call	_ZN8UnitTest10CheckEqualERNS_11TestResultsEPKcPcRKNS_11TestDetailsE@PLT
 7176      00
 7177              	.LEHE189:
 7178              	.L590:
 7179              	.LEHB190:
 7180 3e8d E8000000 		call	_ZN8UnitTest11CurrentTest7DetailsEv@PLT
 7180      00
 7181 3e92 488B30   		movq	(%rax), %rsi
 7182 3e95 BA210100 		movl	$289, %edx
 7182      00
 7183 3e9a 4889DF   		movq	%rbx, %rdi
 7184 3e9d E8000000 		call	_ZN8UnitTest11TestDetailsC1ERKS0_i@PLT
 7184      00
 7185 3ea2 E8000000 		call	_ZN8UnitTest11CurrentTest7ResultsEv@PLT
 7185      00
 7186 3ea7 488B38   		movq	(%rax), %rdi
 7187 3eaa 488D9510 		leaq	528(%rbp), %rdx
 7187      020000
 7188 3eb1 488D3500 		leaq	.LC44(%rip), %rsi
 7188      000000
 7189 3eb8 4889D9   		movq	%rbx, %rcx
 7190 3ebb E8000000 		call	_ZN8UnitTest10CheckEqualERNS_11TestResultsEPKcPcRKNS_11TestDetailsE@PLT
 7190      00
 7191              	.LEHE190:
 7192              	.L593:
 7193              	.LEHB191:
 7194 3ec0 E8000000 		call	_ZN8UnitTest11CurrentTest7DetailsEv@PLT
 7194      00
 7195 3ec5 488B30   		movq	(%rax), %rsi
 7196 3ec8 BA220100 		movl	$290, %edx
 7196      00
 7197 3ecd 4889DF   		movq	%rbx, %rdi
 7198 3ed0 E8000000 		call	_ZN8UnitTest11TestDetailsC1ERKS0_i@PLT
 7198      00
 7199 3ed5 C744240C 		movl	$1234, 12(%rsp)
 7199      D2040000 
 7200 3edd E8000000 		call	_ZN8UnitTest11CurrentTest7ResultsEv@PLT
 7200      00
 7201 3ee2 488B38   		movq	(%rax), %rdi
 7202 3ee5 488D9510 		leaq	784(%rbp), %rdx
 7202      030000
 7203 3eec 488D7424 		leaq	12(%rsp), %rsi
 7203      0C
 7204 3ef1 4889D9   		movq	%rbx, %rcx
 7205 3ef4 E8000000 		call	_ZN8UnitTest10CheckEqualIiiEEvRNS_11TestResultsERKT_RKT0_RKNS_11TestDetailsE
 7205      00
 7206              	.LEHE191:
 7207              	.L596:
 7208 3ef9 4889EF   		movq	%rbp, %rdi
 7209 3efc 4C89A424 		movq	%r12, 208(%rsp)
 7209      D0000000 
 7210              	.LEHB192:
 7211 3f04 E8000000 		call	_ZN8UnitTest12TestReporterD2Ev@PLT
 7211      00
 7212              	.LEHE192:
 7213 3f09 488B8424 		movq	2312(%rsp), %rax
 7213      08090000 
 7214 3f11 64483304 		xorq	%fs:40, %rax
 7214      25280000 
 7214      00
 7215 3f1a 7510     		jne	.L610
 7216 3f1c 4881C410 		addq	$2320, %rsp
 7216      090000
 7217              		.cfi_remember_state
 7218              		.cfi_def_cfa_offset 48
 7219 3f23 5B       		popq	%rbx
 7220              		.cfi_def_cfa_offset 40
 7221 3f24 5D       		popq	%rbp
 7222              		.cfi_def_cfa_offset 32
 7223 3f25 415C     		popq	%r12
 7224              		.cfi_def_cfa_offset 24
 7225 3f27 415D     		popq	%r13
 7226              		.cfi_def_cfa_offset 16
 7227 3f29 415E     		popq	%r14
 7228              		.cfi_def_cfa_offset 8
 7229 3f2b C3       		ret
 7230              	.L610:
 7231              		.cfi_restore_state
 7232 3f2c E8000000 		call	__stack_chk_fail@PLT
 7232      00
 7233              	.L606:
 7234 3f31 4889C7   		movq	%rax, %rdi
 7235 3f34 E8000000 		call	__cxa_begin_catch@PLT
 7235      00
 7236              	.LEHB193:
 7237 3f39 E8000000 		call	_ZN8UnitTest11CurrentTest7ResultsEv@PLT
 7237      00
 7238 3f3e 4C8B28   		movq	(%rax), %r13
 7239 3f41 E8000000 		call	_ZN8UnitTest11CurrentTest7DetailsEv@PLT
 7239      00
 7240 3f46 488B30   		movq	(%rax), %rsi
 7241 3f49 BA220100 		movl	$290, %edx
 7241      00
 7242 3f4e 4889DF   		movq	%rbx, %rdi
 7243 3f51 E8000000 		call	_ZN8UnitTest11TestDetailsC1ERKS0_i@PLT
 7243      00
 7244 3f56 488D1500 		leaq	.LC50(%rip), %rdx
 7244      000000
 7245 3f5d 4889DE   		movq	%rbx, %rsi
 7246 3f60 4C89EF   		movq	%r13, %rdi
 7247 3f63 E8000000 		call	_ZN8UnitTest11TestResults13OnTestFailureERKNS_11TestDetailsEPKc@PLT
 7247      00
 7248              	.LEHE193:
 7249              	.LEHB194:
 7250 3f68 E8000000 		call	__cxa_end_catch@PLT
 7250      00
 7251              	.LEHE194:
 7252 3f6d EB8A     		jmp	.L596
 7253              	.L604:
 7254 3f6f 4889C7   		movq	%rax, %rdi
 7255 3f72 E8000000 		call	__cxa_begin_catch@PLT
 7255      00
 7256              	.LEHB195:
 7257 3f77 E8000000 		call	_ZN8UnitTest11CurrentTest7ResultsEv@PLT
 7257      00
 7258 3f7c 4C8B28   		movq	(%rax), %r13
 7259 3f7f E8000000 		call	_ZN8UnitTest11CurrentTest7DetailsEv@PLT
 7259      00
 7260 3f84 488B30   		movq	(%rax), %rsi
 7261 3f87 BA210100 		movl	$289, %edx
 7261      00
 7262 3f8c 4889DF   		movq	%rbx, %rdi
 7263 3f8f E8000000 		call	_ZN8UnitTest11TestDetailsC1ERKS0_i@PLT
 7263      00
 7264 3f94 488D1500 		leaq	.LC49(%rip), %rdx
 7264      000000
 7265 3f9b 4889DE   		movq	%rbx, %rsi
 7266 3f9e 4C89EF   		movq	%r13, %rdi
 7267 3fa1 E8000000 		call	_ZN8UnitTest11TestResults13OnTestFailureERKNS_11TestDetailsEPKc@PLT
 7267      00
 7268              	.LEHE195:
 7269              	.LEHB196:
 7270 3fa6 E8000000 		call	__cxa_end_catch@PLT
 7270      00
 7271              	.LEHE196:
 7272 3fab E910FFFF 		jmp	.L593
 7272      FF
 7273              	.L600:
 7274 3fb0 4889C7   		movq	%rax, %rdi
 7275 3fb3 E8000000 		call	__cxa_begin_catch@PLT
 7275      00
 7276              	.LEHB197:
 7277 3fb8 E8000000 		call	_ZN8UnitTest11CurrentTest7ResultsEv@PLT
 7277      00
 7278 3fbd 4C8B28   		movq	(%rax), %r13
 7279 3fc0 E8000000 		call	_ZN8UnitTest11CurrentTest7DetailsEv@PLT
 7279      00
 7280 3fc5 488B30   		movq	(%rax), %rsi
 7281 3fc8 BA1F0100 		movl	$287, %edx
 7281      00
 7282 3fcd 4889DF   		movq	%rbx, %rdi
 7283 3fd0 E8000000 		call	_ZN8UnitTest11TestDetailsC1ERKS0_i@PLT
 7283      00
 7284 3fd5 488D1500 		leaq	.LC47(%rip), %rdx
 7284      000000
 7285 3fdc 4889DE   		movq	%rbx, %rsi
 7286 3fdf 4C89EF   		movq	%r13, %rdi
 7287 3fe2 E8000000 		call	_ZN8UnitTest11TestResults13OnTestFailureERKNS_11TestDetailsEPKc@PLT
 7287      00
 7288              	.LEHE197:
 7289              	.LEHB198:
 7290 3fe7 E8000000 		call	__cxa_end_catch@PLT
 7290      00
 7291              	.LEHE198:
 7292 3fec E969FEFF 		jmp	.L586
 7292      FF
 7293              	.L602:
 7294 3ff1 4889C7   		movq	%rax, %rdi
 7295 3ff4 E8000000 		call	__cxa_begin_catch@PLT
 7295      00
 7296              	.LEHB199:
 7297 3ff9 E8000000 		call	_ZN8UnitTest11CurrentTest7ResultsEv@PLT
 7297      00
 7298 3ffe 4C8B28   		movq	(%rax), %r13
 7299 4001 E8000000 		call	_ZN8UnitTest11CurrentTest7DetailsEv@PLT
 7299      00
 7300 4006 488B30   		movq	(%rax), %rsi
 7301 4009 BA200100 		movl	$288, %edx
 7301      00
 7302 400e 4889DF   		movq	%rbx, %rdi
 7303 4011 E8000000 		call	_ZN8UnitTest11TestDetailsC1ERKS0_i@PLT
 7303      00
 7304 4016 488D1500 		leaq	.LC48(%rip), %rdx
 7304      000000
 7305 401d 4889DE   		movq	%rbx, %rsi
 7306 4020 4C89EF   		movq	%r13, %rdi
 7307 4023 E8000000 		call	_ZN8UnitTest11TestResults13OnTestFailureERKNS_11TestDetailsEPKc@PLT
 7307      00
 7308              	.LEHE199:
 7309              	.LEHB200:
 7310 4028 E8000000 		call	__cxa_end_catch@PLT
 7310      00
 7311              	.LEHE200:
 7312 402d E95BFEFF 		jmp	.L590
 7312      FF
 7313              	.L599:
 7314 4032 4889C3   		movq	%rax, %rbx
 7315              	.L588:
 7316 4035 4889EF   		movq	%rbp, %rdi
 7317 4038 4C89A424 		movq	%r12, 208(%rsp)
 7317      D0000000 
 7318 4040 E8000000 		call	_ZN8UnitTest12TestReporterD2Ev@PLT
 7318      00
 7319 4045 4889DF   		movq	%rbx, %rdi
 7320              	.LEHB201:
 7321 4048 E8000000 		call	_Unwind_Resume@PLT
 7321      00
 7322              	.LEHE201:
 7323              	.L607:
 7324 404d 4889C3   		movq	%rax, %rbx
 7325 4050 E8000000 		call	__cxa_end_catch@PLT
 7325      00
 7326 4055 EBDE     		jmp	.L588
 7327              	.L601:
 7328 4057 4889C3   		movq	%rax, %rbx
 7329 405a E8000000 		call	__cxa_end_catch@PLT
 7329      00
 7330 405f EBD4     		jmp	.L588
 7331              	.L605:
 7332 4061 4889C3   		movq	%rax, %rbx
 7333 4064 E8000000 		call	__cxa_end_catch@PLT
 7333      00
 7334 4069 EBCA     		jmp	.L588
 7335              	.L603:
 7336 406b 4889C3   		movq	%rax, %rbx
 7337 406e E8000000 		call	__cxa_end_catch@PLT
 7337      00
 7338 4073 EBC0     		jmp	.L588
 7339              		.cfi_endproc
 7340              	.LFE1255:
 7341              		.section	.gcc_except_table
 7342 04ed 000000   		.align 4
 7343              	.LLSDA1255:
 7344 04f0 FF       		.byte	0xff
 7345 04f1 9B       		.byte	0x9b
 7346 04f2 61       		.uleb128 .LLSDATT1255-.LLSDATTD1255
 7347              	.LLSDATTD1255:
 7348 04f3 01       		.byte	0x1
 7349 04f4 59       		.uleb128 .LLSDACSE1255-.LLSDACSB1255
 7350              	.LLSDACSB1255:
 7351 04f5 D301     		.uleb128 .LEHB187-.LFB1255
 7352 04f7 A401     		.uleb128 .LEHE187-.LEHB187
 7353 04f9 8207     		.uleb128 .L599-.LFB1255
 7354 04fb 00       		.uleb128 0
 7355 04fc F702     		.uleb128 .LEHB188-.LFB1255
 7356 04fe 33       		.uleb128 .LEHE188-.LEHB188
 7357 04ff 8006     		.uleb128 .L600-.LFB1255
 7358 0501 01       		.uleb128 0x1
 7359 0502 AA03     		.uleb128 .LEHB189-.LFB1255
 7360 0504 33       		.uleb128 .LEHE189-.LEHB189
 7361 0505 C106     		.uleb128 .L602-.LFB1255
 7362 0507 01       		.uleb128 0x1
 7363 0508 DD03     		.uleb128 .LEHB190-.LFB1255
 7364 050a 33       		.uleb128 .LEHE190-.LEHB190
 7365 050b BF05     		.uleb128 .L604-.LFB1255
 7366 050d 01       		.uleb128 0x1
 7367 050e 9004     		.uleb128 .LEHB191-.LFB1255
 7368 0510 39       		.uleb128 .LEHE191-.LEHB191
 7369 0511 8105     		.uleb128 .L606-.LFB1255
 7370 0513 01       		.uleb128 0x1
 7371 0514 D404     		.uleb128 .LEHB192-.LFB1255
 7372 0516 05       		.uleb128 .LEHE192-.LEHB192
 7373 0517 00       		.uleb128 0
 7374 0518 00       		.uleb128 0
 7375 0519 8905     		.uleb128 .LEHB193-.LFB1255
 7376 051b 2F       		.uleb128 .LEHE193-.LEHB193
 7377 051c 9D07     		.uleb128 .L607-.LFB1255
 7378 051e 00       		.uleb128 0
 7379 051f B805     		.uleb128 .LEHB194-.LFB1255
 7380 0521 05       		.uleb128 .LEHE194-.LEHB194
 7381 0522 8207     		.uleb128 .L599-.LFB1255
 7382 0524 00       		.uleb128 0
 7383 0525 C705     		.uleb128 .LEHB195-.LFB1255
 7384 0527 2F       		.uleb128 .LEHE195-.LEHB195
 7385 0528 B107     		.uleb128 .L605-.LFB1255
 7386 052a 00       		.uleb128 0
 7387 052b F605     		.uleb128 .LEHB196-.LFB1255
 7388 052d 05       		.uleb128 .LEHE196-.LEHB196
 7389 052e 8207     		.uleb128 .L599-.LFB1255
 7390 0530 00       		.uleb128 0
 7391 0531 8806     		.uleb128 .LEHB197-.LFB1255
 7392 0533 2F       		.uleb128 .LEHE197-.LEHB197
 7393 0534 A707     		.uleb128 .L601-.LFB1255
 7394 0536 00       		.uleb128 0
 7395 0537 B706     		.uleb128 .LEHB198-.LFB1255
 7396 0539 05       		.uleb128 .LEHE198-.LEHB198
 7397 053a 8207     		.uleb128 .L599-.LFB1255
 7398 053c 00       		.uleb128 0
 7399 053d C906     		.uleb128 .LEHB199-.LFB1255
 7400 053f 2F       		.uleb128 .LEHE199-.LEHB199
 7401 0540 BB07     		.uleb128 .L603-.LFB1255
 7402 0542 00       		.uleb128 0
 7403 0543 F806     		.uleb128 .LEHB200-.LFB1255
 7404 0545 05       		.uleb128 .LEHE200-.LEHB200
 7405 0546 8207     		.uleb128 .L599-.LFB1255
 7406 0548 00       		.uleb128 0
 7407 0549 9807     		.uleb128 .LEHB201-.LFB1255
 7408 054b 05       		.uleb128 .LEHE201-.LEHB201
 7409 054c 00       		.uleb128 0
 7410 054d 00       		.uleb128 0
 7411              	.LLSDACSE1255:
 7412 054e 01       		.byte	0x1
 7413 054f 00       		.byte	0
 7414              		.align 4
 7415 0550 00000000 		.long	0
 7416              	
 7417              	.LLSDATT1255:
 7418              		.text
 7420              		.section	.rodata.str1.1
 7421              	.LC51:
 7422 009b 66696C65 		.string	"file.h"
 7422      2E6800
 7423              	.LC52:
 7424 00a2 6D797375 		.string	"mysuite"
 7424      69746500 
 7425              	.LC53:
 7426 00aa 6D797465 		.string	"mytest"
 7426      737400
 7427              		.section	.rodata.str1.8
 7428 04ba 00000000 		.align 8
 7428      0000
 7429              	.LC54:
 7430 04c0 556E6861 		.string	"Unhandled exception in CHECK_EQUAL(\"mytest\", reporter.lastFailedTest)"
 7430      6E646C65 
 7430      64206578 
 7430      63657074 
 7430      696F6E20 
 7431 0506 0000     		.align 8
 7432              	.LC55:
 7433 0508 556E6861 		.string	"Unhandled exception in CHECK_EQUAL(\"mysuite\", reporter.lastFailedSuite)"
 7433      6E646C65 
 7433      64206578 
 7433      63657074 
 7433      696F6E20 
 7434              		.align 8
 7435              	.LC56:
 7436 0550 556E6861 		.string	"Unhandled exception in CHECK_EQUAL(\"file.h\", reporter.lastFailedFile)"
 7436      6E646C65 
 7436      64206578 
 7436      63657074 
 7436      696F6E20 
 7437 0596 0000     		.align 8
 7438              	.LC57:
 7439 0598 556E6861 		.string	"Unhandled exception in CHECK_EQUAL(101, reporter.lastFailedLine)"
 7439      6E646C65 
 7439      64206578 
 7439      63657074 
 7439      696F6E20 
 7440              		.text
 7441 4075 90       		.align 2
 7442 4076 662E0F1F 		.p2align 4,,15
 7442      84000000 
 7442      0000
 7444              	_ZNK12_GLOBAL__N_136TestCheckEqualFailureIncludesDetails7RunImplEv:
 7445              	.LFB1187:
 7446              		.cfi_startproc
 7447              		.cfi_personality 0x9b,DW.ref.__gxx_personality_v0
 7448              		.cfi_lsda 0x1b,.LLSDA1187
 7449 4080 4157     		pushq	%r15
 7450              		.cfi_def_cfa_offset 16
 7451              		.cfi_offset 15, -16
 7452 4082 4156     		pushq	%r14
 7453              		.cfi_def_cfa_offset 24
 7454              		.cfi_offset 14, -24
 7455 4084 4155     		pushq	%r13
 7456              		.cfi_def_cfa_offset 32
 7457              		.cfi_offset 13, -32
 7458 4086 4154     		pushq	%r12
 7459              		.cfi_def_cfa_offset 40
 7460              		.cfi_offset 12, -40
 7461 4088 4C8D2500 		leaq	16+_ZTV17RecordingReporter(%rip), %r12
 7461      000000
 7462 408f 55       		pushq	%rbp
 7463              		.cfi_def_cfa_offset 48
 7464              		.cfi_offset 6, -48
 7465 4090 53       		pushq	%rbx
 7466              		.cfi_def_cfa_offset 56
 7467              		.cfi_offset 3, -56
 7468 4091 4881ECB8 		subq	$2232, %rsp
 7468      080000
 7469              		.cfi_def_cfa_offset 2288
 7470 4098 488D6C24 		leaq	112(%rsp), %rbp
 7470      70
 7471 409d 4C8D7424 		leaq	16(%rsp), %r14
 7471      10
 7472 40a2 4C896424 		movq	%r12, 112(%rsp)
 7472      70
 7473 40a7 64488B04 		movq	%fs:40, %rax
 7473      25280000 
 7473      00
 7474 40b0 48898424 		movq	%rax, 2216(%rsp)
 7474      A8080000 
 7475 40b8 31C0     		xorl	%eax, %eax
 7476 40ba 4889EE   		movq	%rbp, %rsi
 7477 40bd 4C89F7   		movq	%r14, %rdi
 7478 40c0 C7442478 		movl	$0, 120(%rsp)
 7478      00000000 
 7479 40c8 C784247C 		movl	$0, 636(%rsp)
 7479      02000000 
 7479      000000
 7480 40d3 C7842480 		movl	$0, 896(%rsp)
 7480      03000000 
 7480      000000
 7481 40de C7842484 		movl	$0, 1668(%rsp)
 7481      06000000 
 7481      000000
 7482 40e9 48C78424 		movq	$0, 2184(%rsp)
 7482      88080000 
 7482      00000000 
 7483 40f5 48C78424 		movq	$0, 2192(%rsp)
 7483      90080000 
 7483      00000000 
 7484 4101 C7842498 		movl	$0, 2200(%rsp)
 7484      08000000 
 7484      000000
 7485 410c C644247C 		movb	$0, 124(%rsp)
 7485      00
 7486 4111 C684247C 		movb	$0, 380(%rsp)
 7486      01000000 
 7487 4119 C6842480 		movb	$0, 640(%rsp)
 7487      02000000 
 7488 4121 C6842484 		movb	$0, 900(%rsp)
 7488      03000000 
 7489 4129 C6842484 		movb	$0, 1156(%rsp)
 7489      04000000 
 7490 4131 C6842484 		movb	$0, 1412(%rsp)
 7490      05000000 
 7491 4139 C6842488 		movb	$0, 1672(%rsp)
 7491      06000000 
 7492 4141 C6842488 		movb	$0, 1928(%rsp)
 7492      07000000 
 7493              	.LEHB202:
 7494 4149 E8000000 		call	_ZN8UnitTest11TestResultsC1EPNS_12TestReporterE@PLT
 7494      00
 7495 414e 4C8D7C24 		leaq	48(%rsp), %r15
 7495      30
 7496 4153 488D0D00 		leaq	.LC51(%rip), %rcx
 7496      000000
 7497 415a 488D1500 		leaq	.LC52(%rip), %rdx
 7497      000000
 7498 4161 488D3500 		leaq	.LC53(%rip), %rsi
 7498      000000
 7499 4168 41B86500 		movl	$101, %r8d
 7499      0000
 7500 416e 4C89FF   		movq	%r15, %rdi
 7501 4171 E8000000 		call	_ZN8UnitTest11TestDetailsC1EPKcS2_S2_i@PLT
 7501      00
 7502 4176 488D5C24 		leaq	80(%rsp), %rbx
 7502      50
 7503 417b 4C8D6C24 		leaq	12(%rsp), %r13
 7503      0C
 7504 4180 4C89F9   		movq	%r15, %rcx
 7505 4183 4C89F7   		movq	%r14, %rdi
 7506 4186 C7442450 		movl	$2, 80(%rsp)
 7506      02000000 
 7507 418e C744240C 		movl	$1, 12(%rsp)
 7507      01000000 
 7508 4196 4889DA   		movq	%rbx, %rdx
 7509 4199 4C89EE   		movq	%r13, %rsi
 7510 419c E8000000 		call	_ZN8UnitTest10CheckEqualIiiEEvRNS_11TestResultsERKT_RKT0_RKNS_11TestDetailsE
 7510      00
 7511              	.LEHE202:
 7512              	.LEHB203:
 7513 41a1 E8000000 		call	_ZN8UnitTest11CurrentTest7DetailsEv@PLT
 7513      00
 7514 41a6 488B30   		movq	(%rax), %rsi
 7515 41a9 BA5D0000 		movl	$93, %edx
 7515      00
 7516 41ae 4889DF   		movq	%rbx, %rdi
 7517 41b1 E8000000 		call	_ZN8UnitTest11TestDetailsC1ERKS0_i@PLT
 7517      00
 7518 41b6 E8000000 		call	_ZN8UnitTest11CurrentTest7ResultsEv@PLT
 7518      00
 7519 41bb 488B38   		movq	(%rax), %rdi
 7520 41be 488D9514 		leaq	1044(%rbp), %rdx
 7520      040000
 7521 41c5 488D3500 		leaq	.LC53(%rip), %rsi
 7521      000000
 7522 41cc 4889D9   		movq	%rbx, %rcx
 7523 41cf E8000000 		call	_ZN8UnitTest10CheckEqualERNS_11TestResultsEPKcPcRKNS_11TestDetailsE@PLT
 7523      00
 7524              	.LEHE203:
 7525              	.L613:
 7526              	.LEHB204:
 7527 41d4 E8000000 		call	_ZN8UnitTest11CurrentTest7DetailsEv@PLT
 7527      00
 7528 41d9 488B30   		movq	(%rax), %rsi
 7529 41dc BA5E0000 		movl	$94, %edx
 7529      00
 7530 41e1 4889DF   		movq	%rbx, %rdi
 7531 41e4 E8000000 		call	_ZN8UnitTest11TestDetailsC1ERKS0_i@PLT
 7531      00
 7532 41e9 E8000000 		call	_ZN8UnitTest11CurrentTest7ResultsEv@PLT
 7532      00
 7533 41ee 488B38   		movq	(%rax), %rdi
 7534 41f1 488D9514 		leaq	788(%rbp), %rdx
 7534      030000
 7535 41f8 488D3500 		leaq	.LC52(%rip), %rsi
 7535      000000
 7536 41ff 4889D9   		movq	%rbx, %rcx
 7537 4202 E8000000 		call	_ZN8UnitTest10CheckEqualERNS_11TestResultsEPKcPcRKNS_11TestDetailsE@PLT
 7537      00
 7538              	.LEHE204:
 7539              	.L617:
 7540              	.LEHB205:
 7541 4207 E8000000 		call	_ZN8UnitTest11CurrentTest7DetailsEv@PLT
 7541      00
 7542 420c 488B30   		movq	(%rax), %rsi
 7543 420f BA5F0000 		movl	$95, %edx
 7543      00
 7544 4214 4889DF   		movq	%rbx, %rdi
 7545 4217 E8000000 		call	_ZN8UnitTest11TestDetailsC1ERKS0_i@PLT
 7545      00
 7546 421c E8000000 		call	_ZN8UnitTest11CurrentTest7ResultsEv@PLT
 7546      00
 7547 4221 488B38   		movq	(%rax), %rdi
 7548 4224 488D9510 		leaq	528(%rbp), %rdx
 7548      020000
 7549 422b 488D3500 		leaq	.LC51(%rip), %rsi
 7549      000000
 7550 4232 4889D9   		movq	%rbx, %rcx
 7551 4235 E8000000 		call	_ZN8UnitTest10CheckEqualERNS_11TestResultsEPKcPcRKNS_11TestDetailsE@PLT
 7551      00
 7552              	.LEHE205:
 7553              	.L620:
 7554              	.LEHB206:
 7555 423a E8000000 		call	_ZN8UnitTest11CurrentTest7DetailsEv@PLT
 7555      00
 7556 423f 488B30   		movq	(%rax), %rsi
 7557 4242 BA600000 		movl	$96, %edx
 7557      00
 7558 4247 4889DF   		movq	%rbx, %rdi
 7559 424a E8000000 		call	_ZN8UnitTest11TestDetailsC1ERKS0_i@PLT
 7559      00
 7560 424f C744240C 		movl	$101, 12(%rsp)
 7560      65000000 
 7561 4257 E8000000 		call	_ZN8UnitTest11CurrentTest7ResultsEv@PLT
 7561      00
 7562 425c 488B38   		movq	(%rax), %rdi
 7563 425f 488D9510 		leaq	784(%rbp), %rdx
 7563      030000
 7564 4266 4889D9   		movq	%rbx, %rcx
 7565 4269 4C89EE   		movq	%r13, %rsi
 7566 426c E8000000 		call	_ZN8UnitTest10CheckEqualIiiEEvRNS_11TestResultsERKT_RKT0_RKNS_11TestDetailsE
 7566      00
 7567              	.LEHE206:
 7568              	.L623:
 7569 4271 4889EF   		movq	%rbp, %rdi
 7570 4274 4C896424 		movq	%r12, 112(%rsp)
 7570      70
 7571              	.LEHB207:
 7572 4279 E8000000 		call	_ZN8UnitTest12TestReporterD2Ev@PLT
 7572      00
 7573              	.LEHE207:
 7574 427e 488B8424 		movq	2216(%rsp), %rax
 7574      A8080000 
 7575 4286 64483304 		xorq	%fs:40, %rax
 7575      25280000 
 7575      00
 7576 428f 7512     		jne	.L637
 7577 4291 4881C4B8 		addq	$2232, %rsp
 7577      080000
 7578              		.cfi_remember_state
 7579              		.cfi_def_cfa_offset 56
 7580 4298 5B       		popq	%rbx
 7581              		.cfi_def_cfa_offset 48
 7582 4299 5D       		popq	%rbp
 7583              		.cfi_def_cfa_offset 40
 7584 429a 415C     		popq	%r12
 7585              		.cfi_def_cfa_offset 32
 7586 429c 415D     		popq	%r13
 7587              		.cfi_def_cfa_offset 24
 7588 429e 415E     		popq	%r14
 7589              		.cfi_def_cfa_offset 16
 7590 42a0 415F     		popq	%r15
 7591              		.cfi_def_cfa_offset 8
 7592 42a2 C3       		ret
 7593              	.L637:
 7594              		.cfi_restore_state
 7595 42a3 E8000000 		call	__stack_chk_fail@PLT
 7595      00
 7596              	.L633:
 7597 42a8 4889C7   		movq	%rax, %rdi
 7598 42ab E8000000 		call	__cxa_begin_catch@PLT
 7598      00
 7599              	.LEHB208:
 7600 42b0 E8000000 		call	_ZN8UnitTest11CurrentTest7ResultsEv@PLT
 7600      00
 7601 42b5 4C8B28   		movq	(%rax), %r13
 7602 42b8 E8000000 		call	_ZN8UnitTest11CurrentTest7DetailsEv@PLT
 7602      00
 7603 42bd 488B30   		movq	(%rax), %rsi
 7604 42c0 BA600000 		movl	$96, %edx
 7604      00
 7605 42c5 4889DF   		movq	%rbx, %rdi
 7606 42c8 E8000000 		call	_ZN8UnitTest11TestDetailsC1ERKS0_i@PLT
 7606      00
 7607 42cd 488D1500 		leaq	.LC57(%rip), %rdx
 7607      000000
 7608 42d4 4889DE   		movq	%rbx, %rsi
 7609 42d7 4C89EF   		movq	%r13, %rdi
 7610 42da E8000000 		call	_ZN8UnitTest11TestResults13OnTestFailureERKNS_11TestDetailsEPKc@PLT
 7610      00
 7611              	.LEHE208:
 7612              	.LEHB209:
 7613 42df E8000000 		call	__cxa_end_catch@PLT
 7613      00
 7614              	.LEHE209:
 7615 42e4 EB8B     		jmp	.L623
 7616              	.L631:
 7617 42e6 4889C7   		movq	%rax, %rdi
 7618 42e9 E8000000 		call	__cxa_begin_catch@PLT
 7618      00
 7619              	.LEHB210:
 7620 42ee E8000000 		call	_ZN8UnitTest11CurrentTest7ResultsEv@PLT
 7620      00
 7621 42f3 4C8B30   		movq	(%rax), %r14
 7622 42f6 E8000000 		call	_ZN8UnitTest11CurrentTest7DetailsEv@PLT
 7622      00
 7623 42fb 488B30   		movq	(%rax), %rsi
 7624 42fe BA5F0000 		movl	$95, %edx
 7624      00
 7625 4303 4889DF   		movq	%rbx, %rdi
 7626 4306 E8000000 		call	_ZN8UnitTest11TestDetailsC1ERKS0_i@PLT
 7626      00
 7627 430b 488D1500 		leaq	.LC56(%rip), %rdx
 7627      000000
 7628 4312 4889DE   		movq	%rbx, %rsi
 7629 4315 4C89F7   		movq	%r14, %rdi
 7630 4318 E8000000 		call	_ZN8UnitTest11TestResults13OnTestFailureERKNS_11TestDetailsEPKc@PLT
 7630      00
 7631              	.LEHE210:
 7632              	.LEHB211:
 7633 431d E8000000 		call	__cxa_end_catch@PLT
 7633      00
 7634              	.LEHE211:
 7635 4322 E913FFFF 		jmp	.L620
 7635      FF
 7636              	.L627:
 7637 4327 4889C7   		movq	%rax, %rdi
 7638 432a E8000000 		call	__cxa_begin_catch@PLT
 7638      00
 7639              	.LEHB212:
 7640 432f E8000000 		call	_ZN8UnitTest11CurrentTest7ResultsEv@PLT
 7640      00
 7641 4334 4C8B30   		movq	(%rax), %r14
 7642 4337 E8000000 		call	_ZN8UnitTest11CurrentTest7DetailsEv@PLT
 7642      00
 7643 433c 488B30   		movq	(%rax), %rsi
 7644 433f BA5D0000 		movl	$93, %edx
 7644      00
 7645 4344 4889DF   		movq	%rbx, %rdi
 7646 4347 E8000000 		call	_ZN8UnitTest11TestDetailsC1ERKS0_i@PLT
 7646      00
 7647 434c 488D1500 		leaq	.LC54(%rip), %rdx
 7647      000000
 7648 4353 4889DE   		movq	%rbx, %rsi
 7649 4356 4C89F7   		movq	%r14, %rdi
 7650 4359 E8000000 		call	_ZN8UnitTest11TestResults13OnTestFailureERKNS_11TestDetailsEPKc@PLT
 7650      00
 7651              	.LEHE212:
 7652              	.LEHB213:
 7653 435e E8000000 		call	__cxa_end_catch@PLT
 7653      00
 7654              	.LEHE213:
 7655 4363 E96CFEFF 		jmp	.L613
 7655      FF
 7656              	.L629:
 7657 4368 4889C7   		movq	%rax, %rdi
 7658 436b E8000000 		call	__cxa_begin_catch@PLT
 7658      00
 7659              	.LEHB214:
 7660 4370 E8000000 		call	_ZN8UnitTest11CurrentTest7ResultsEv@PLT
 7660      00
 7661 4375 4C8B30   		movq	(%rax), %r14
 7662 4378 E8000000 		call	_ZN8UnitTest11CurrentTest7DetailsEv@PLT
 7662      00
 7663 437d 488B30   		movq	(%rax), %rsi
 7664 4380 BA5E0000 		movl	$94, %edx
 7664      00
 7665 4385 4889DF   		movq	%rbx, %rdi
 7666 4388 E8000000 		call	_ZN8UnitTest11TestDetailsC1ERKS0_i@PLT
 7666      00
 7667 438d 488D1500 		leaq	.LC55(%rip), %rdx
 7667      000000
 7668 4394 4889DE   		movq	%rbx, %rsi
 7669 4397 4C89F7   		movq	%r14, %rdi
 7670 439a E8000000 		call	_ZN8UnitTest11TestResults13OnTestFailureERKNS_11TestDetailsEPKc@PLT
 7670      00
 7671              	.LEHE214:
 7672              	.LEHB215:
 7673 439f E8000000 		call	__cxa_end_catch@PLT
 7673      00
 7674              	.LEHE215:
 7675 43a4 E95EFEFF 		jmp	.L617
 7675      FF
 7676              	.L626:
 7677 43a9 4889C3   		movq	%rax, %rbx
 7678              	.L615:
 7679 43ac 4889EF   		movq	%rbp, %rdi
 7680 43af 4C896424 		movq	%r12, 112(%rsp)
 7680      70
 7681 43b4 E8000000 		call	_ZN8UnitTest12TestReporterD2Ev@PLT
 7681      00
 7682 43b9 4889DF   		movq	%rbx, %rdi
 7683              	.LEHB216:
 7684 43bc E8000000 		call	_Unwind_Resume@PLT
 7684      00
 7685              	.LEHE216:
 7686              	.L634:
 7687 43c1 4889C3   		movq	%rax, %rbx
 7688 43c4 E8000000 		call	__cxa_end_catch@PLT
 7688      00
 7689 43c9 EBE1     		jmp	.L615
 7690              	.L628:
 7691 43cb 4889C3   		movq	%rax, %rbx
 7692 43ce E8000000 		call	__cxa_end_catch@PLT
 7692      00
 7693 43d3 EBD7     		jmp	.L615
 7694              	.L632:
 7695 43d5 4889C3   		movq	%rax, %rbx
 7696 43d8 E8000000 		call	__cxa_end_catch@PLT
 7696      00
 7697 43dd EBCD     		jmp	.L615
 7698              	.L630:
 7699 43df 4889C3   		movq	%rax, %rbx
 7700 43e2 E8000000 		call	__cxa_end_catch@PLT
 7700      00
 7701 43e7 EBC3     		jmp	.L615
 7702              		.cfi_endproc
 7703              	.LFE1187:
 7704              		.section	.gcc_except_table
 7705              		.align 4
 7706              	.LLSDA1187:
 7707 0554 FF       		.byte	0xff
 7708 0555 9B       		.byte	0x9b
 7709 0556 61       		.uleb128 .LLSDATT1187-.LLSDATTD1187
 7710              	.LLSDATTD1187:
 7711 0557 01       		.byte	0x1
 7712 0558 58       		.uleb128 .LLSDACSE1187-.LLSDACSB1187
 7713              	.LLSDACSB1187:
 7714 0559 C901     		.uleb128 .LEHB202-.LFB1187
 7715 055b 58       		.uleb128 .LEHE202-.LEHB202
 7716 055c A906     		.uleb128 .L626-.LFB1187
 7717 055e 00       		.uleb128 0
 7718 055f A102     		.uleb128 .LEHB203-.LFB1187
 7719 0561 33       		.uleb128 .LEHE203-.LEHB203
 7720 0562 A705     		.uleb128 .L627-.LFB1187
 7721 0564 01       		.uleb128 0x1
 7722 0565 D402     		.uleb128 .LEHB204-.LFB1187
 7723 0567 33       		.uleb128 .LEHE204-.LEHB204
 7724 0568 E805     		.uleb128 .L629-.LFB1187
 7725 056a 01       		.uleb128 0x1
 7726 056b 8703     		.uleb128 .LEHB205-.LFB1187
 7727 056d 33       		.uleb128 .LEHE205-.LEHB205
 7728 056e E604     		.uleb128 .L631-.LFB1187
 7729 0570 01       		.uleb128 0x1
 7730 0571 BA03     		.uleb128 .LEHB206-.LFB1187
 7731 0573 37       		.uleb128 .LEHE206-.LEHB206
 7732 0574 A804     		.uleb128 .L633-.LFB1187
 7733 0576 01       		.uleb128 0x1
 7734 0577 F903     		.uleb128 .LEHB207-.LFB1187
 7735 0579 05       		.uleb128 .LEHE207-.LEHB207
 7736 057a 00       		.uleb128 0
 7737 057b 00       		.uleb128 0
 7738 057c B004     		.uleb128 .LEHB208-.LFB1187
 7739 057e 2F       		.uleb128 .LEHE208-.LEHB208
 7740 057f C106     		.uleb128 .L634-.LFB1187
 7741 0581 00       		.uleb128 0
 7742 0582 DF04     		.uleb128 .LEHB209-.LFB1187
 7743 0584 05       		.uleb128 .LEHE209-.LEHB209
 7744 0585 A906     		.uleb128 .L626-.LFB1187
 7745 0587 00       		.uleb128 0
 7746 0588 EE04     		.uleb128 .LEHB210-.LFB1187
 7747 058a 2F       		.uleb128 .LEHE210-.LEHB210
 7748 058b D506     		.uleb128 .L632-.LFB1187
 7749 058d 00       		.uleb128 0
 7750 058e 9D05     		.uleb128 .LEHB211-.LFB1187
 7751 0590 05       		.uleb128 .LEHE211-.LEHB211
 7752 0591 A906     		.uleb128 .L626-.LFB1187
 7753 0593 00       		.uleb128 0
 7754 0594 AF05     		.uleb128 .LEHB212-.LFB1187
 7755 0596 2F       		.uleb128 .LEHE212-.LEHB212
 7756 0597 CB06     		.uleb128 .L628-.LFB1187
 7757 0599 00       		.uleb128 0
 7758 059a DE05     		.uleb128 .LEHB213-.LFB1187
 7759 059c 05       		.uleb128 .LEHE213-.LEHB213
 7760 059d A906     		.uleb128 .L626-.LFB1187
 7761 059f 00       		.uleb128 0
 7762 05a0 F005     		.uleb128 .LEHB214-.LFB1187
 7763 05a2 2F       		.uleb128 .LEHE214-.LEHB214
 7764 05a3 DF06     		.uleb128 .L630-.LFB1187
 7765 05a5 00       		.uleb128 0
 7766 05a6 9F06     		.uleb128 .LEHB215-.LFB1187
 7767 05a8 05       		.uleb128 .LEHE215-.LEHB215
 7768 05a9 A906     		.uleb128 .L626-.LFB1187
 7769 05ab 00       		.uleb128 0
 7770 05ac BC06     		.uleb128 .LEHB216-.LFB1187
 7771 05ae 05       		.uleb128 .LEHE216-.LEHB216
 7772 05af 00       		.uleb128 0
 7773 05b0 00       		.uleb128 0
 7774              	.LLSDACSE1187:
 7775 05b1 01       		.byte	0x1
 7776 05b2 00       		.byte	0
 7777 05b3 00       		.align 4
 7778 05b4 00000000 		.long	0
 7779              	
 7780              	.LLSDATT1187:
 7781              		.text
 7783              		.section	.rodata.str1.1
 7784              	.LC58:
 7785 00b1 61727261 		.string	"arrayCloseSuite"
 7785      79436C6F 
 7785      73655375 
 7785      69746500 
 7786              	.LC59:
 7787 00c1 61727261 		.string	"arrayCloseTest"
 7787      79436C6F 
 7787      73655465 
 7787      737400
 7788              		.section	.rodata.str1.8
 7789 05d9 00000000 		.align 8
 7789      000000
 7790              	.LC61:
 7791 05e0 556E6861 		.string	"Unhandled exception in CHECK_EQUAL(\"arrayCloseTest\", reporter.lastFailedTest)"
 7791      6E646C65 
 7791      64206578 
 7791      63657074 
 7791      696F6E20 
 7792 062e 0000     		.align 8
 7793              	.LC62:
 7794 0630 556E6861 		.string	"Unhandled exception in CHECK_EQUAL(\"arrayCloseSuite\", reporter.lastFailedSuite)"
 7794      6E646C65 
 7794      64206578 
 7794      63657074 
 7794      696F6E20 
 7795              		.align 8
 7796              	.LC63:
 7797 0680 556E6861 		.string	"Unhandled exception in CHECK_EQUAL(1337, reporter.lastFailedLine)"
 7797      6E646C65 
 7797      64206578 
 7797      63657074 
 7797      696F6E20 
 7798              		.text
 7799 43e9 90       		.align 2
 7800 43ea 660F1F44 		.p2align 4,,15
 7800      0000
 7802              	_ZNK12_GLOBAL__N_141TestCheckArrayCloseFailureIncludesDetails7RunImplEv:
 7803              	.LFB1239:
 7804              		.cfi_startproc
 7805              		.cfi_personality 0x9b,DW.ref.__gxx_personality_v0
 7806              		.cfi_lsda 0x1b,.LLSDA1239
 7807 43f0 4157     		pushq	%r15
 7808              		.cfi_def_cfa_offset 16
 7809              		.cfi_offset 15, -16
 7810 43f2 4156     		pushq	%r14
 7811              		.cfi_def_cfa_offset 24
 7812              		.cfi_offset 14, -24
 7813 43f4 4155     		pushq	%r13
 7814              		.cfi_def_cfa_offset 32
 7815              		.cfi_offset 13, -32
 7816 43f6 4154     		pushq	%r12
 7817              		.cfi_def_cfa_offset 40
 7818              		.cfi_offset 12, -40
 7819 43f8 4C8D2D00 		leaq	16+_ZTV17RecordingReporter(%rip), %r13
 7819      000000
 7820 43ff 55       		pushq	%rbp
 7821              		.cfi_def_cfa_offset 48
 7822              		.cfi_offset 6, -48
 7823 4400 53       		pushq	%rbx
 7824              		.cfi_def_cfa_offset 56
 7825              		.cfi_offset 3, -56
 7826 4401 4881EC88 		subq	$2696, %rsp
 7826      0A0000
 7827              		.cfi_def_cfa_offset 2752
 7828 4408 64488B04 		movq	%fs:40, %rax
 7828      25280000 
 7828      00
 7829 4411 48898424 		movq	%rax, 2680(%rsp)
 7829      780A0000 
 7830 4419 31C0     		xorl	%eax, %eax
 7831 441b 488DAC24 		leaq	576(%rsp), %rbp
 7831      40020000 
 7832 4423 488D4424 		leaq	32(%rsp), %rax
 7832      20
 7833 4428 4C89AC24 		movq	%r13, 576(%rsp)
 7833      40020000 
 7834 4430 C7842448 		movl	$0, 584(%rsp)
 7834      02000000 
 7834      000000
 7835 443b C784244C 		movl	$0, 1100(%rsp)
 7835      04000000 
 7835      000000
 7836 4446 4889EE   		movq	%rbp, %rsi
 7837 4449 4889C7   		movq	%rax, %rdi
 7838 444c C7842450 		movl	$0, 1360(%rsp)
 7838      05000000 
 7838      000000
 7839 4457 C7842454 		movl	$0, 2132(%rsp)
 7839      08000000 
 7839      000000
 7840 4462 48C78424 		movq	$0, 2648(%rsp)
 7840      580A0000 
 7840      00000000 
 7841 446e 48C78424 		movq	$0, 2656(%rsp)
 7841      600A0000 
 7841      00000000 
 7842 447a C7842468 		movl	$0, 2664(%rsp)
 7842      0A000000 
 7842      000000
 7843 4485 C684244C 		movb	$0, 588(%rsp)
 7843      02000000 
 7844 448d C684244C 		movb	$0, 844(%rsp)
 7844      03000000 
 7845 4495 C6842450 		movb	$0, 1104(%rsp)
 7845      04000000 
 7846 449d C6842454 		movb	$0, 1364(%rsp)
 7846      05000000 
 7847 44a5 C6842454 		movb	$0, 1620(%rsp)
 7847      06000000 
 7848 44ad C6842454 		movb	$0, 1876(%rsp)
 7848      07000000 
 7849 44b5 C6842458 		movb	$0, 2136(%rsp)
 7849      08000000 
 7850 44bd C6842458 		movb	$0, 2392(%rsp)
 7850      09000000 
 7851 44c5 48890424 		movq	%rax, (%rsp)
 7852              	.LEHB217:
 7853 44c9 E8000000 		call	_ZN8UnitTest11TestResultsC1EPNS_12TestReporterE@PLT
 7853      00
 7854 44ce 488D4424 		leaq	64(%rsp), %rax
 7854      40
 7855 44d3 488D0D00 		leaq	.LC44(%rip), %rcx
 7855      000000
 7856 44da 488D1500 		leaq	.LC58(%rip), %rdx
 7856      000000
 7857 44e1 488D3500 		leaq	.LC59(%rip), %rsi
 7857      000000
 7858 44e8 41B83905 		movl	$1337, %r8d
 7858      0000
 7859 44ee 4889C7   		movq	%rax, %rdi
 7860 44f1 48894424 		movq	%rax, 8(%rsp)
 7860      08
 7861 44f6 E8000000 		call	_ZN8UnitTest11TestDetailsC1EPKcS2_S2_i@PLT
 7861      00
 7862              	.LEHE217:
 7863 44fb 488D9C24 		leaq	160(%rsp), %rbx
 7863      A0000000 
 7864 4503 48B80000 		movabsq	$4593671620983259136, %rax
 7864      803F0000 
 7864      C03F
 7865 450d 4C8D3500 		leaq	24+_ZTCN8UnitTest15MemoryOutStreamE0_So(%rip), %r14
 7865      000000
 7866 4514 48898424 		movq	%rax, 136(%rsp)
 7866      88000000 
 7867 451c 48B8AE47 		movabsq	$4594031908609935278, %rax
 7867      813FAE47 
 7867      C13F
 7868 4526 C7842490 		movl	$1073741824, 144(%rsp)
 7868      00000000 
 7868      000040
 7869 4531 4C8DA390 		leaq	144(%rbx), %r12
 7869      000000
 7870 4538 48898424 		movq	%rax, 148(%rsp)
 7870      94000000 
 7871 4540 C784249C 		movl	$1073783767, 156(%rsp)
 7871      000000D7 
 7871      A30040
 7872 454b 4C89E7   		movq	%r12, %rdi
 7873 454e E8000000 		call	_ZNSt8ios_baseC2Ev@PLT
 7873      00
 7874 4553 498D4628 		leaq	40(%r14), %rax
 7875 4557 31F6     		xorl	%esi, %esi
 7876 4559 4C89E7   		movq	%r12, %rdi
 7877 455c 48C78424 		movq	$0, 520(%rsp)
 7877      08020000 
 7877      00000000 
 7878 4568 C6842410 		movb	$0, 528(%rsp)
 7878      02000000 
 7879 4570 C6842411 		movb	$0, 529(%rsp)
 7879      02000000 
 7880 4578 48C78424 		movq	$0, 536(%rsp)
 7880      18020000 
 7880      00000000 
 7881 4584 48C78424 		movq	$0, 544(%rsp)
 7881      20020000 
 7881      00000000 
 7882 4590 48C78424 		movq	$0, 552(%rsp)
 7882      28020000 
 7882      00000000 
 7883 459c 48C78424 		movq	$0, 560(%rsp)
 7883      30020000 
 7883      00000000 
 7884 45a8 4C89B424 		movq	%r14, 160(%rsp)
 7884      A0000000 
 7885 45b0 48898424 		movq	%rax, 304(%rsp)
 7885      30010000 
 7886              	.LEHB218:
 7887 45b8 E8000000 		call	_ZNSt9basic_iosIcSt11char_traitsIcEE4initEPSt15basic_streambufIcS1_E@PLT
 7887      00
 7888              	.LEHE218:
 7889 45bd 488D0500 		leaq	24+_ZTCN8UnitTest15MemoryOutStreamE0_NSt7__cxx1119basic_ostringstreamIcSt11char_traitsIcESaIc
 7889      000000
 7890 45c4 660FEFC0 		pxor	%xmm0, %xmm0
 7891 45c8 488D7B40 		leaq	64(%rbx), %rdi
 7892 45cc 48898424 		movq	%rax, 160(%rsp)
 7892      A0000000 
 7893 45d4 4883C028 		addq	$40, %rax
 7894 45d8 48898424 		movq	%rax, 304(%rsp)
 7894      30010000 
 7895 45e0 488D0500 		leaq	16+_ZTVSt15basic_streambufIcSt11char_traitsIcEE(%rip), %rax
 7895      000000
 7896 45e7 0F298424 		movaps	%xmm0, 176(%rsp)
 7896      B0000000 
 7897 45ef 48898424 		movq	%rax, 168(%rsp)
 7897      A8000000 
 7898 45f7 0F298424 		movaps	%xmm0, 192(%rsp)
 7898      C0000000 
 7899 45ff 0F298424 		movaps	%xmm0, 208(%rsp)
 7899      D0000000 
 7900 4607 E8000000 		call	_ZNSt6localeC1Ev@PLT
 7900      00
 7901 460c 488D0500 		leaq	16+_ZTVNSt7__cxx1115basic_stringbufIcSt11char_traitsIcESaIcEEE(%rip), %rax
 7901      000000
 7902 4613 488D7308 		leaq	8(%rbx), %rsi
 7903 4617 48898424 		movq	%rax, 168(%rsp)
 7903      A8000000 
 7904 461f 488D4360 		leaq	96(%rbx), %rax
 7905 4623 C78424E8 		movl	$16, 232(%rsp)
 7905      00000010 
 7905      000000
 7906 462e 48C78424 		movq	$0, 248(%rsp)
 7906      F8000000 
 7906      00000000 
 7907 463a C6842400 		movb	$0, 256(%rsp)
 7907      01000000 
 7908 4642 48898424 		movq	%rax, 240(%rsp)
 7908      F0000000 
 7909 464a 488B8424 		movq	160(%rsp), %rax
 7909      A0000000 
 7910 4652 488B78E8 		movq	-24(%rax), %rdi
 7911 4656 4801DF   		addq	%rbx, %rdi
 7912              	.LEHB219:
 7913 4659 E8000000 		call	_ZNSt9basic_iosIcSt11char_traitsIcEE4initEPSt15basic_streambufIcS1_E@PLT
 7913      00
 7914              	.LEHE219:
 7915 465e 488D0500 		leaq	24+_ZTVN8UnitTest15MemoryOutStreamE(%rip), %rax
 7915      000000
 7916 4665 488D3500 		leaq	.LC20(%rip), %rsi
 7916      000000
 7917 466c BA0B0000 		movl	$11, %edx
 7917      00
 7918 4671 4889DF   		movq	%rbx, %rdi
 7919 4674 48C78424 		movq	$0, 280(%rsp)
 7919      18010000 
 7919      00000000 
 7920 4680 C6842420 		movb	$0, 288(%rsp)
 7920      01000000 
 7921 4688 48898424 		movq	%rax, 160(%rsp)
 7921      A0000000 
 7922 4690 4883C028 		addq	$40, %rax
 7923 4694 48898424 		movq	%rax, 304(%rsp)
 7923      30010000 
 7924 469c 488D8380 		leaq	128(%rbx), %rax
 7924      000000
 7925 46a3 48898424 		movq	%rax, 272(%rsp)
 7925      10010000 
 7926              	.LEHB220:
 7927 46ab E8000000 		call	_ZSt16__ostream_insertIcSt11char_traitsIcEERSt13basic_ostreamIT_T0_ES6_PKS3_l@PLT
 7927      00
 7928 46b0 4C8DBC24 		leaq	136(%rsp), %r15
 7928      88000000 
 7929 46b8 4531E4   		xorl	%r12d, %r12d
 7930              	.L642:
 7931 46bb 660FEFC0 		pxor	%xmm0, %xmm0
 7932 46bf 4889DF   		movq	%rbx, %rdi
 7933 46c2 F3430F5A 		cvtss2sd	(%r15,%r12,4), %xmm0
 7933      04A7
 7934 46c8 E8000000 		call	_ZNSo9_M_insertIdEERSoT_@PLT
 7934      00
 7935 46cd 488D3500 		leaq	.LC22(%rip), %rsi
 7935      000000
 7936 46d4 BA010000 		movl	$1, %edx
 7936      00
 7937 46d9 4889C7   		movq	%rax, %rdi
 7938 46dc E8000000 		call	_ZSt16__ostream_insertIcSt11char_traitsIcEERSt13basic_ostreamIT_T0_ES6_PKS3_l@PLT
 7938      00
 7939 46e1 4983C401 		addq	$1, %r12
 7940 46e5 4983FC03 		cmpq	$3, %r12
 7941 46e9 75D0     		jne	.L642
 7942 46eb 488D3500 		leaq	.LC24(%rip), %rsi
 7942      000000
 7943 46f2 BA060000 		movl	$6, %edx
 7943      00
 7944 46f7 4889DF   		movq	%rbx, %rdi
 7945 46fa E8000000 		call	_ZSt16__ostream_insertIcSt11char_traitsIcEERSt13basic_ostreamIT_T0_ES6_PKS3_l@PLT
 7945      00
 7946 46ff F20F1005 		movsd	.LC60(%rip), %xmm0
 7946      00000000 
 7947 4707 4889DF   		movq	%rbx, %rdi
 7948 470a E8000000 		call	_ZNSo9_M_insertIdEERSoT_@PLT
 7948      00
 7949 470f 488D3500 		leaq	.LC25(%rip), %rsi
 7949      000000
 7950 4716 BA0B0000 		movl	$11, %edx
 7950      00
 7951 471b 4889C7   		movq	%rax, %rdi
 7952 471e E8000000 		call	_ZSt16__ostream_insertIcSt11char_traitsIcEERSt13basic_ostreamIT_T0_ES6_PKS3_l@PLT
 7952      00
 7953 4723 4C8DBC24 		leaq	148(%rsp), %r15
 7953      94000000 
 7954 472b 4531E4   		xorl	%r12d, %r12d
 7955              	.L644:
 7956 472e 660FEFC0 		pxor	%xmm0, %xmm0
 7957 4732 4889DF   		movq	%rbx, %rdi
 7958 4735 F3430F5A 		cvtss2sd	(%r15,%r12,4), %xmm0
 7958      04A7
 7959 473b E8000000 		call	_ZNSo9_M_insertIdEERSoT_@PLT
 7959      00
 7960 4740 488D3500 		leaq	.LC22(%rip), %rsi
 7960      000000
 7961 4747 BA010000 		movl	$1, %edx
 7961      00
 7962 474c 4889C7   		movq	%rax, %rdi
 7963 474f E8000000 		call	_ZSt16__ostream_insertIcSt11char_traitsIcEERSt13basic_ostreamIT_T0_ES6_PKS3_l@PLT
 7963      00
 7964 4754 4983C401 		addq	$1, %r12
 7965 4758 4983FC03 		cmpq	$3, %r12
 7966 475c 75D0     		jne	.L644
 7967 475e 488D3500 		leaq	.LC26(%rip), %rsi
 7967      000000
 7968 4765 BA010000 		movl	$1, %edx
 7968      00
 7969 476a 4889DF   		movq	%rbx, %rdi
 7970 476d E8000000 		call	_ZSt16__ostream_insertIcSt11char_traitsIcEERSt13basic_ostreamIT_T0_ES6_PKS3_l@PLT
 7970      00
 7971 4772 4889DF   		movq	%rbx, %rdi
 7972 4775 E8000000 		call	_ZNK8UnitTest15MemoryOutStream7GetTextEv@PLT
 7972      00
 7973 477a 488B7424 		movq	8(%rsp), %rsi
 7973      08
 7974 477f 488B3C24 		movq	(%rsp), %rdi
 7975 4783 4889C2   		movq	%rax, %rdx
 7976 4786 E8000000 		call	_ZN8UnitTest11TestResults13OnTestFailureERKNS_11TestDetailsEPKc@PLT
 7976      00
 7977              	.LEHE220:
 7978 478b 488D0500 		leaq	24+_ZTVN8UnitTest15MemoryOutStreamE(%rip), %rax
 7978      000000
 7979 4792 488BBC24 		movq	272(%rsp), %rdi
 7979      10010000 
 7980 479a 48898424 		movq	%rax, 160(%rsp)
 7980      A0000000 
 7981 47a2 4883C028 		addq	$40, %rax
 7982 47a6 48898424 		movq	%rax, 304(%rsp)
 7982      30010000 
 7983 47ae 488D8380 		leaq	128(%rbx), %rax
 7983      000000
 7984 47b5 4839C7   		cmpq	%rax, %rdi
 7985 47b8 7405     		je	.L645
 7986 47ba E8000000 		call	_ZdlPv@PLT
 7986      00
 7987              	.L645:
 7988 47bf 488D0500 		leaq	64+_ZTCN8UnitTest15MemoryOutStreamE0_NSt7__cxx1119basic_ostringstreamIcSt11char_traitsIcESaIc
 7988      000000
 7989 47c6 488BBC24 		movq	240(%rsp), %rdi
 7989      F0000000 
 7990 47ce F30F7E05 		movq	.LC14(%rip), %xmm0
 7990      00000000 
 7991 47d6 48898424 		movq	%rax, 304(%rsp)
 7991      30010000 
 7992 47de 488D4360 		leaq	96(%rbx), %rax
 7993 47e2 0F160500 		movhps	.LC15(%rip), %xmm0
 7993      000000
 7994 47e9 4839C7   		cmpq	%rax, %rdi
 7995 47ec 0F298424 		movaps	%xmm0, 160(%rsp)
 7995      A0000000 
 7996 47f4 7405     		je	.L646
 7997 47f6 E8000000 		call	_ZdlPv@PLT
 7997      00
 7998              	.L646:
 7999 47fb 488D0500 		leaq	16+_ZTVSt15basic_streambufIcSt11char_traitsIcEE(%rip), %rax
 7999      000000
 8000 4802 488D7B40 		leaq	64(%rbx), %rdi
 8001 4806 48898424 		movq	%rax, 168(%rsp)
 8001      A8000000 
 8002 480e E8000000 		call	_ZNSt6localeD1Ev@PLT
 8002      00
 8003 4813 488D0500 		leaq	16+_ZTVSt9basic_iosIcSt11char_traitsIcEE(%rip), %rax
 8003      000000
 8004 481a 488DBB90 		leaq	144(%rbx), %rdi
 8004      000000
 8005 4821 4C89B424 		movq	%r14, 160(%rsp)
 8005      A0000000 
 8006 4829 48898424 		movq	%rax, 304(%rsp)
 8006      30010000 
 8007              	.LEHB221:
 8008 4831 E8000000 		call	_ZNSt8ios_baseD2Ev@PLT
 8008      00
 8009              	.LEHE221:
 8010              	.LEHB222:
 8011 4836 E8000000 		call	_ZN8UnitTest11CurrentTest7DetailsEv@PLT
 8011      00
 8012 483b 488D5C24 		leaq	96(%rsp), %rbx
 8012      60
 8013 4840 488B30   		movq	(%rax), %rsi
 8014 4843 BAE90000 		movl	$233, %edx
 8014      00
 8015 4848 4889DF   		movq	%rbx, %rdi
 8016 484b E8000000 		call	_ZN8UnitTest11TestDetailsC1ERKS0_i@PLT
 8016      00
 8017 4850 E8000000 		call	_ZN8UnitTest11CurrentTest7ResultsEv@PLT
 8017      00
 8018 4855 488B38   		movq	(%rax), %rdi
 8019 4858 488D9514 		leaq	1044(%rbp), %rdx
 8019      040000
 8020 485f 488D3500 		leaq	.LC59(%rip), %rsi
 8020      000000
 8021 4866 4889D9   		movq	%rbx, %rcx
 8022 4869 E8000000 		call	_ZN8UnitTest10CheckEqualERNS_11TestResultsEPKcPcRKNS_11TestDetailsE@PLT
 8022      00
 8023              	.LEHE222:
 8024              	.L650:
 8025              	.LEHB223:
 8026 486e E8000000 		call	_ZN8UnitTest11CurrentTest7DetailsEv@PLT
 8026      00
 8027 4873 488B30   		movq	(%rax), %rsi
 8028 4876 BAEA0000 		movl	$234, %edx
 8028      00
 8029 487b 4889DF   		movq	%rbx, %rdi
 8030 487e E8000000 		call	_ZN8UnitTest11TestDetailsC1ERKS0_i@PLT
 8030      00
 8031 4883 E8000000 		call	_ZN8UnitTest11CurrentTest7ResultsEv@PLT
 8031      00
 8032 4888 488B38   		movq	(%rax), %rdi
 8033 488b 488D9514 		leaq	788(%rbp), %rdx
 8033      030000
 8034 4892 488D3500 		leaq	.LC58(%rip), %rsi
 8034      000000
 8035 4899 4889D9   		movq	%rbx, %rcx
 8036 489c E8000000 		call	_ZN8UnitTest10CheckEqualERNS_11TestResultsEPKcPcRKNS_11TestDetailsE@PLT
 8036      00
 8037              	.LEHE223:
 8038              	.L653:
 8039              	.LEHB224:
 8040 48a1 E8000000 		call	_ZN8UnitTest11CurrentTest7DetailsEv@PLT
 8040      00
 8041 48a6 488B30   		movq	(%rax), %rsi
 8042 48a9 BAEB0000 		movl	$235, %edx
 8042      00
 8043 48ae 4889DF   		movq	%rbx, %rdi
 8044 48b1 E8000000 		call	_ZN8UnitTest11TestDetailsC1ERKS0_i@PLT
 8044      00
 8045 48b6 E8000000 		call	_ZN8UnitTest11CurrentTest7ResultsEv@PLT
 8045      00
 8046 48bb 488B38   		movq	(%rax), %rdi
 8047 48be 488D9510 		leaq	528(%rbp), %rdx
 8047      020000
 8048 48c5 488D3500 		leaq	.LC44(%rip), %rsi
 8048      000000
 8049 48cc 4889D9   		movq	%rbx, %rcx
 8050 48cf E8000000 		call	_ZN8UnitTest10CheckEqualERNS_11TestResultsEPKcPcRKNS_11TestDetailsE@PLT
 8050      00
 8051              	.LEHE224:
 8052              	.L656:
 8053              	.LEHB225:
 8054 48d4 E8000000 		call	_ZN8UnitTest11CurrentTest7DetailsEv@PLT
 8054      00
 8055 48d9 488B30   		movq	(%rax), %rsi
 8056 48dc BAEC0000 		movl	$236, %edx
 8056      00
 8057 48e1 4889DF   		movq	%rbx, %rdi
 8058 48e4 E8000000 		call	_ZN8UnitTest11TestDetailsC1ERKS0_i@PLT
 8058      00
 8059 48e9 C744241C 		movl	$1337, 28(%rsp)
 8059      39050000 
 8060 48f1 E8000000 		call	_ZN8UnitTest11CurrentTest7ResultsEv@PLT
 8060      00
 8061 48f6 488B38   		movq	(%rax), %rdi
 8062 48f9 488D9510 		leaq	784(%rbp), %rdx
 8062      030000
 8063 4900 488D7424 		leaq	28(%rsp), %rsi
 8063      1C
 8064 4905 4889D9   		movq	%rbx, %rcx
 8065 4908 E8000000 		call	_ZN8UnitTest10CheckEqualIiiEEvRNS_11TestResultsERKT_RKT0_RKNS_11TestDetailsE
 8065      00
 8066              	.LEHE225:
 8067              	.L659:
 8068 490d 4889EF   		movq	%rbp, %rdi
 8069 4910 4C89AC24 		movq	%r13, 576(%rsp)
 8069      40020000 
 8070              	.LEHB226:
 8071 4918 E8000000 		call	_ZN8UnitTest12TestReporterD2Ev@PLT
 8071      00
 8072              	.LEHE226:
 8073 491d 488B8424 		movq	2680(%rsp), %rax
 8073      780A0000 
 8074 4925 64483304 		xorq	%fs:40, %rax
 8074      25280000 
 8074      00
 8075 492e 7512     		jne	.L682
 8076 4930 4881C488 		addq	$2696, %rsp
 8076      0A0000
 8077              		.cfi_remember_state
 8078              		.cfi_def_cfa_offset 56
 8079 4937 5B       		popq	%rbx
 8080              		.cfi_def_cfa_offset 48
 8081 4938 5D       		popq	%rbp
 8082              		.cfi_def_cfa_offset 40
 8083 4939 415C     		popq	%r12
 8084              		.cfi_def_cfa_offset 32
 8085 493b 415D     		popq	%r13
 8086              		.cfi_def_cfa_offset 24
 8087 493d 415E     		popq	%r14
 8088              		.cfi_def_cfa_offset 16
 8089 493f 415F     		popq	%r15
 8090              		.cfi_def_cfa_offset 8
 8091 4941 C3       		ret
 8092              	.L682:
 8093              		.cfi_restore_state
 8094 4942 E8000000 		call	__stack_chk_fail@PLT
 8094      00
 8095              	.L672:
 8096 4947 4989C4   		movq	%rax, %r12
 8097 494a 4889DF   		movq	%rbx, %rdi
 8098 494d 4C89E3   		movq	%r12, %rbx
 8099 4950 E8000000 		call	_ZN8UnitTest15MemoryOutStreamD1Ev
 8099      00
 8100              	.L643:
 8101 4955 4889EF   		movq	%rbp, %rdi
 8102 4958 4C89AC24 		movq	%r13, 576(%rsp)
 8102      40020000 
 8103 4960 E8000000 		call	_ZN8UnitTest12TestReporterD2Ev@PLT
 8103      00
 8104 4965 4889DF   		movq	%rbx, %rdi
 8105              	.LEHB227:
 8106 4968 E8000000 		call	_Unwind_Resume@PLT
 8106      00
 8107              	.LEHE227:
 8108              	.L674:
 8109 496d 488D7B08 		leaq	8(%rbx), %rdi
 8110 4971 4989C4   		movq	%rax, %r12
 8111 4974 E8000000 		call	_ZNSt7__cxx1115basic_stringbufIcSt11char_traitsIcESaIcEED1Ev
 8111      00
 8112 4979 4C89B424 		movq	%r14, 160(%rsp)
 8112      A0000000 
 8113              	.L641:
 8114 4981 488D0500 		leaq	16+_ZTVSt9basic_iosIcSt11char_traitsIcEE(%rip), %rax
 8114      000000
 8115 4988 488DBB90 		leaq	144(%rbx), %rdi
 8115      000000
 8116 498f 4C89E3   		movq	%r12, %rbx
 8117 4992 48898424 		movq	%rax, 304(%rsp)
 8117      30010000 
 8118 499a E8000000 		call	_ZNSt8ios_baseD2Ev@PLT
 8118      00
 8119 499f EBB4     		jmp	.L643
 8120              	.L673:
 8121 49a1 4989C4   		movq	%rax, %r12
 8122 49a4 EBDB     		jmp	.L641
 8123              	.L663:
 8124 49a6 4889C3   		movq	%rax, %rbx
 8125 49a9 EBAA     		jmp	.L643
 8126              	.L664:
 8127 49ab 4889C7   		movq	%rax, %rdi
 8128 49ae E8000000 		call	__cxa_begin_catch@PLT
 8128      00
 8129              	.LEHB228:
 8130 49b3 E8000000 		call	_ZN8UnitTest11CurrentTest7ResultsEv@PLT
 8130      00
 8131 49b8 4C8B20   		movq	(%rax), %r12
 8132 49bb E8000000 		call	_ZN8UnitTest11CurrentTest7DetailsEv@PLT
 8132      00
 8133 49c0 488D5C24 		leaq	96(%rsp), %rbx
 8133      60
 8134 49c5 488B30   		movq	(%rax), %rsi
 8135 49c8 BAE90000 		movl	$233, %edx
 8135      00
 8136 49cd 4889DF   		movq	%rbx, %rdi
 8137 49d0 E8000000 		call	_ZN8UnitTest11TestDetailsC1ERKS0_i@PLT
 8137      00
 8138 49d5 488D1500 		leaq	.LC61(%rip), %rdx
 8138      000000
 8139 49dc 4889DE   		movq	%rbx, %rsi
 8140 49df 4C89E7   		movq	%r12, %rdi
 8141 49e2 E8000000 		call	_ZN8UnitTest11TestResults13OnTestFailureERKNS_11TestDetailsEPKc@PLT
 8141      00
 8142              	.LEHE228:
 8143              	.LEHB229:
 8144 49e7 E8000000 		call	__cxa_end_catch@PLT
 8144      00
 8145              	.LEHE229:
 8146 49ec E97DFEFF 		jmp	.L650
 8146      FF
 8147              	.L666:
 8148 49f1 4889C7   		movq	%rax, %rdi
 8149 49f4 E8000000 		call	__cxa_begin_catch@PLT
 8149      00
 8150              	.LEHB230:
 8151 49f9 E8000000 		call	_ZN8UnitTest11CurrentTest7ResultsEv@PLT
 8151      00
 8152 49fe 4C8B20   		movq	(%rax), %r12
 8153 4a01 E8000000 		call	_ZN8UnitTest11CurrentTest7DetailsEv@PLT
 8153      00
 8154 4a06 488B30   		movq	(%rax), %rsi
 8155 4a09 BAEA0000 		movl	$234, %edx
 8155      00
 8156 4a0e 4889DF   		movq	%rbx, %rdi
 8157 4a11 E8000000 		call	_ZN8UnitTest11TestDetailsC1ERKS0_i@PLT
 8157      00
 8158 4a16 488D1500 		leaq	.LC62(%rip), %rdx
 8158      000000
 8159 4a1d 4889DE   		movq	%rbx, %rsi
 8160 4a20 4C89E7   		movq	%r12, %rdi
 8161 4a23 E8000000 		call	_ZN8UnitTest11TestResults13OnTestFailureERKNS_11TestDetailsEPKc@PLT
 8161      00
 8162              	.LEHE230:
 8163              	.LEHB231:
 8164 4a28 E8000000 		call	__cxa_end_catch@PLT
 8164      00
 8165              	.LEHE231:
 8166 4a2d E96FFEFF 		jmp	.L653
 8166      FF
 8167              	.L665:
 8168 4a32 4889C3   		movq	%rax, %rbx
 8169 4a35 E8000000 		call	__cxa_end_catch@PLT
 8169      00
 8170 4a3a E916FFFF 		jmp	.L643
 8170      FF
 8171              	.L667:
 8172 4a3f 4889C3   		movq	%rax, %rbx
 8173 4a42 E8000000 		call	__cxa_end_catch@PLT
 8173      00
 8174 4a47 E909FFFF 		jmp	.L643
 8174      FF
 8175              	.L668:
 8176 4a4c 4889C7   		movq	%rax, %rdi
 8177 4a4f E8000000 		call	__cxa_begin_catch@PLT
 8177      00
 8178              	.LEHB232:
 8179 4a54 E8000000 		call	_ZN8UnitTest11CurrentTest7ResultsEv@PLT
 8179      00
 8180 4a59 4C8B20   		movq	(%rax), %r12
 8181 4a5c E8000000 		call	_ZN8UnitTest11CurrentTest7DetailsEv@PLT
 8181      00
 8182 4a61 488B30   		movq	(%rax), %rsi
 8183 4a64 BAEB0000 		movl	$235, %edx
 8183      00
 8184 4a69 4889DF   		movq	%rbx, %rdi
 8185 4a6c E8000000 		call	_ZN8UnitTest11TestDetailsC1ERKS0_i@PLT
 8185      00
 8186 4a71 488D1500 		leaq	.LC49(%rip), %rdx
 8186      000000
 8187 4a78 4889DE   		movq	%rbx, %rsi
 8188 4a7b 4C89E7   		movq	%r12, %rdi
 8189 4a7e E8000000 		call	_ZN8UnitTest11TestResults13OnTestFailureERKNS_11TestDetailsEPKc@PLT
 8189      00
 8190              	.LEHE232:
 8191              	.LEHB233:
 8192 4a83 E8000000 		call	__cxa_end_catch@PLT
 8192      00
 8193              	.LEHE233:
 8194 4a88 E947FEFF 		jmp	.L656
 8194      FF
 8195              	.L670:
 8196 4a8d 4889C7   		movq	%rax, %rdi
 8197 4a90 E8000000 		call	__cxa_begin_catch@PLT
 8197      00
 8198              	.LEHB234:
 8199 4a95 E8000000 		call	_ZN8UnitTest11CurrentTest7ResultsEv@PLT
 8199      00
 8200 4a9a 4C8B20   		movq	(%rax), %r12
 8201 4a9d E8000000 		call	_ZN8UnitTest11CurrentTest7DetailsEv@PLT
 8201      00
 8202 4aa2 488B30   		movq	(%rax), %rsi
 8203 4aa5 BAEC0000 		movl	$236, %edx
 8203      00
 8204 4aaa 4889DF   		movq	%rbx, %rdi
 8205 4aad E8000000 		call	_ZN8UnitTest11TestDetailsC1ERKS0_i@PLT
 8205      00
 8206 4ab2 488D1500 		leaq	.LC63(%rip), %rdx
 8206      000000
 8207 4ab9 4889DE   		movq	%rbx, %rsi
 8208 4abc 4C89E7   		movq	%r12, %rdi
 8209 4abf E8000000 		call	_ZN8UnitTest11TestResults13OnTestFailureERKNS_11TestDetailsEPKc@PLT
 8209      00
 8210              	.LEHE234:
 8211              	.LEHB235:
 8212 4ac4 E8000000 		call	__cxa_end_catch@PLT
 8212      00
 8213              	.LEHE235:
 8214 4ac9 E93FFEFF 		jmp	.L659
 8214      FF
 8215              	.L669:
 8216 4ace 4889C3   		movq	%rax, %rbx
 8217 4ad1 E8000000 		call	__cxa_end_catch@PLT
 8217      00
 8218 4ad6 E97AFEFF 		jmp	.L643
 8218      FF
 8219              	.L671:
 8220 4adb 4889C3   		movq	%rax, %rbx
 8221 4ade E8000000 		call	__cxa_end_catch@PLT
 8221      00
 8222 4ae3 E96DFEFF 		jmp	.L643
 8222      FF
 8223              		.cfi_endproc
 8224              	.LFE1239:
 8225              		.section	.gcc_except_table
 8226              		.align 4
 8227              	.LLSDA1239:
 8228 05b8 FF       		.byte	0xff
 8229 05b9 9B       		.byte	0x9b
 8230 05ba 79       		.uleb128 .LLSDATT1239-.LLSDATTD1239
 8231              	.LLSDATTD1239:
 8232 05bb 01       		.byte	0x1
 8233 05bc 71       		.uleb128 .LLSDACSE1239-.LLSDACSB1239
 8234              	.LLSDACSB1239:
 8235 05bd D901     		.uleb128 .LEHB217-.LFB1239
 8236 05bf 32       		.uleb128 .LEHE217-.LEHB217
 8237 05c0 B60B     		.uleb128 .L663-.LFB1239
 8238 05c2 00       		.uleb128 0
 8239 05c3 C803     		.uleb128 .LEHB218-.LFB1239
 8240 05c5 05       		.uleb128 .LEHE218-.LEHB218
 8241 05c6 B10B     		.uleb128 .L673-.LFB1239
 8242 05c8 00       		.uleb128 0
 8243 05c9 E904     		.uleb128 .LEHB219-.LFB1239
 8244 05cb 05       		.uleb128 .LEHE219-.LEHB219
 8245 05cc FD0A     		.uleb128 .L674-.LFB1239
 8246 05ce 00       		.uleb128 0
 8247 05cf BB05     		.uleb128 .LEHB220-.LFB1239
 8248 05d1 E001     		.uleb128 .LEHE220-.LEHB220
 8249 05d3 D70A     		.uleb128 .L672-.LFB1239
 8250 05d5 00       		.uleb128 0
 8251 05d6 C108     		.uleb128 .LEHB221-.LFB1239
 8252 05d8 05       		.uleb128 .LEHE221-.LEHB221
 8253 05d9 B60B     		.uleb128 .L663-.LFB1239
 8254 05db 00       		.uleb128 0
 8255 05dc C608     		.uleb128 .LEHB222-.LFB1239
 8256 05de 38       		.uleb128 .LEHE222-.LEHB222
 8257 05df BB0B     		.uleb128 .L664-.LFB1239
 8258 05e1 01       		.uleb128 0x1
 8259 05e2 FE08     		.uleb128 .LEHB223-.LFB1239
 8260 05e4 33       		.uleb128 .LEHE223-.LEHB223
 8261 05e5 810C     		.uleb128 .L666-.LFB1239
 8262 05e7 01       		.uleb128 0x1
 8263 05e8 B109     		.uleb128 .LEHB224-.LFB1239
 8264 05ea 33       		.uleb128 .LEHE224-.LEHB224
 8265 05eb DC0C     		.uleb128 .L668-.LFB1239
 8266 05ed 01       		.uleb128 0x1
 8267 05ee E409     		.uleb128 .LEHB225-.LFB1239
 8268 05f0 39       		.uleb128 .LEHE225-.LEHB225
 8269 05f1 9D0D     		.uleb128 .L670-.LFB1239
 8270 05f3 01       		.uleb128 0x1
 8271 05f4 A80A     		.uleb128 .LEHB226-.LFB1239
 8272 05f6 05       		.uleb128 .LEHE226-.LEHB226
 8273 05f7 00       		.uleb128 0
 8274 05f8 00       		.uleb128 0
 8275 05f9 F80A     		.uleb128 .LEHB227-.LFB1239
 8276 05fb 05       		.uleb128 .LEHE227-.LEHB227
 8277 05fc 00       		.uleb128 0
 8278 05fd 00       		.uleb128 0
 8279 05fe C30B     		.uleb128 .LEHB228-.LFB1239
 8280 0600 34       		.uleb128 .LEHE228-.LEHB228
 8281 0601 C20C     		.uleb128 .L665-.LFB1239
 8282 0603 00       		.uleb128 0
 8283 0604 F70B     		.uleb128 .LEHB229-.LFB1239
 8284 0606 05       		.uleb128 .LEHE229-.LEHB229
 8285 0607 B60B     		.uleb128 .L663-.LFB1239
 8286 0609 00       		.uleb128 0
 8287 060a 890C     		.uleb128 .LEHB230-.LFB1239
 8288 060c 2F       		.uleb128 .LEHE230-.LEHB230
 8289 060d CF0C     		.uleb128 .L667-.LFB1239
 8290 060f 00       		.uleb128 0
 8291 0610 B80C     		.uleb128 .LEHB231-.LFB1239
 8292 0612 05       		.uleb128 .LEHE231-.LEHB231
 8293 0613 B60B     		.uleb128 .L663-.LFB1239
 8294 0615 00       		.uleb128 0
 8295 0616 E40C     		.uleb128 .LEHB232-.LFB1239
 8296 0618 2F       		.uleb128 .LEHE232-.LEHB232
 8297 0619 DE0D     		.uleb128 .L669-.LFB1239
 8298 061b 00       		.uleb128 0
 8299 061c 930D     		.uleb128 .LEHB233-.LFB1239
 8300 061e 05       		.uleb128 .LEHE233-.LEHB233
 8301 061f B60B     		.uleb128 .L663-.LFB1239
 8302 0621 00       		.uleb128 0
 8303 0622 A50D     		.uleb128 .LEHB234-.LFB1239
 8304 0624 2F       		.uleb128 .LEHE234-.LEHB234
 8305 0625 EB0D     		.uleb128 .L671-.LFB1239
 8306 0627 00       		.uleb128 0
 8307 0628 D40D     		.uleb128 .LEHB235-.LFB1239
 8308 062a 05       		.uleb128 .LEHE235-.LEHB235
 8309 062b B60B     		.uleb128 .L663-.LFB1239
 8310 062d 00       		.uleb128 0
 8311              	.LLSDACSE1239:
 8312 062e 01       		.byte	0x1
 8313 062f 00       		.byte	0
 8314              		.align 4
 8315 0630 00000000 		.long	0
 8316              	
 8317              	.LLSDATT1239:
 8318              		.text
 8320              		.align 2
 8321 4ae8 0F1F8400 		.p2align 4,,15
 8321      00000000 
 8323              	_ZNK12_GLOBAL__N_124TestCheckArrayCloseFalse7RunImplEv:
 8324              	.LFB1235:
 8325              		.cfi_startproc
 8326              		.cfi_personality 0x9b,DW.ref.__gxx_personality_v0
 8327              		.cfi_lsda 0x1b,.LLSDA1235
 8328 4af0 4157     		pushq	%r15
 8329              		.cfi_def_cfa_offset 16
 8330              		.cfi_offset 15, -16
 8331 4af2 4156     		pushq	%r14
 8332              		.cfi_def_cfa_offset 24
 8333              		.cfi_offset 14, -24
 8334 4af4 31F6     		xorl	%esi, %esi
 8335 4af6 4155     		pushq	%r13
 8336              		.cfi_def_cfa_offset 32
 8337              		.cfi_offset 13, -32
 8338 4af8 4154     		pushq	%r12
 8339              		.cfi_def_cfa_offset 40
 8340              		.cfi_offset 12, -40
 8341 4afa 4C8D3500 		leaq	24+_ZTCN8UnitTest15MemoryOutStreamE0_So(%rip), %r14
 8341      000000
 8342 4b01 55       		pushq	%rbp
 8343              		.cfi_def_cfa_offset 48
 8344              		.cfi_offset 6, -48
 8345 4b02 53       		pushq	%rbx
 8346              		.cfi_def_cfa_offset 56
 8347              		.cfi_offset 3, -56
 8348 4b03 4881EC18 		subq	$536, %rsp
 8348      020000
 8349              		.cfi_def_cfa_offset 592
 8350 4b0a 4C8D6C24 		leaq	16(%rsp), %r13
 8350      10
 8351 4b0f 488D5C24 		leaq	112(%rsp), %rbx
 8351      70
 8352 4b14 4C8D6424 		leaq	48(%rsp), %r12
 8352      30
 8353 4b19 64488B04 		movq	%fs:40, %rax
 8353      25280000 
 8353      00
 8354 4b22 48898424 		movq	%rax, 520(%rsp)
 8354      08020000 
 8355 4b2a 31C0     		xorl	%eax, %eax
 8356 4b2c 4C89EF   		movq	%r13, %rdi
 8357 4b2f 488DAB90 		leaq	144(%rbx), %rbp
 8357      000000
 8358              	.LEHB236:
 8359 4b36 E8000000 		call	_ZN8UnitTest11TestResultsC1EPNS_12TestReporterE@PLT
 8359      00
 8360 4b3b 488D0D00 		leaq	.LC1(%rip), %rcx
 8360      000000
 8361 4b42 48B80000 		movabsq	$4593671620983259136, %rax
 8361      803F0000 
 8361      C03F
 8362 4b4c 4531C0   		xorl	%r8d, %r8d
 8363 4b4f 48894424 		movq	%rax, 88(%rsp)
 8363      58
 8364 4b54 4C89E7   		movq	%r12, %rdi
 8365 4b57 48B8AE47 		movabsq	$4594031908609935278, %rax
 8365      813FAE47 
 8365      C13F
 8366 4b61 4889CE   		movq	%rcx, %rsi
 8367 4b64 4889CA   		movq	%rcx, %rdx
 8368 4b67 48894424 		movq	%rax, 100(%rsp)
 8368      64
 8369 4b6c C7442460 		movl	$1073741824, 96(%rsp)
 8369      00000040 
 8370 4b74 C744246C 		movl	$1073783767, 108(%rsp)
 8370      D7A30040 
 8371 4b7c E8000000 		call	_ZN8UnitTest11TestDetailsC1EPKcS2_S2_i@PLT
 8371      00
 8372              	.LEHE236:
 8373 4b81 4889EF   		movq	%rbp, %rdi
 8374 4b84 E8000000 		call	_ZNSt8ios_baseC2Ev@PLT
 8374      00
 8375 4b89 498D4628 		leaq	40(%r14), %rax
 8376 4b8d 31F6     		xorl	%esi, %esi
 8377 4b8f 4889EF   		movq	%rbp, %rdi
 8378 4b92 48C78424 		movq	$0, 472(%rsp)
 8378      D8010000 
 8378      00000000 
 8379 4b9e C68424E0 		movb	$0, 480(%rsp)
 8379      01000000 
 8380 4ba6 C68424E1 		movb	$0, 481(%rsp)
 8380      01000000 
 8381 4bae 48C78424 		movq	$0, 488(%rsp)
 8381      E8010000 
 8381      00000000 
 8382 4bba 48C78424 		movq	$0, 496(%rsp)
 8382      F0010000 
 8382      00000000 
 8383 4bc6 48C78424 		movq	$0, 504(%rsp)
 8383      F8010000 
 8383      00000000 
 8384 4bd2 48C78424 		movq	$0, 512(%rsp)
 8384      00020000 
 8384      00000000 
 8385 4bde 4C897424 		movq	%r14, 112(%rsp)
 8385      70
 8386 4be3 48898424 		movq	%rax, 256(%rsp)
 8386      00010000 
 8387              	.LEHB237:
 8388 4beb E8000000 		call	_ZNSt9basic_iosIcSt11char_traitsIcEE4initEPSt15basic_streambufIcS1_E@PLT
 8388      00
 8389              	.LEHE237:
 8390 4bf0 488D0500 		leaq	24+_ZTCN8UnitTest15MemoryOutStreamE0_NSt7__cxx1119basic_ostringstreamIcSt11char_traitsIcESaIc
 8390      000000
 8391 4bf7 660FEFC0 		pxor	%xmm0, %xmm0
 8392 4bfb 488D7B40 		leaq	64(%rbx), %rdi
 8393 4bff 48894424 		movq	%rax, 112(%rsp)
 8393      70
 8394 4c04 4883C028 		addq	$40, %rax
 8395 4c08 48898424 		movq	%rax, 256(%rsp)
 8395      00010000 
 8396 4c10 488D0500 		leaq	16+_ZTVSt15basic_streambufIcSt11char_traitsIcEE(%rip), %rax
 8396      000000
 8397 4c17 0F298424 		movaps	%xmm0, 128(%rsp)
 8397      80000000 
 8398 4c1f 48894424 		movq	%rax, 120(%rsp)
 8398      78
 8399 4c24 0F298424 		movaps	%xmm0, 144(%rsp)
 8399      90000000 
 8400 4c2c 0F298424 		movaps	%xmm0, 160(%rsp)
 8400      A0000000 
 8401 4c34 E8000000 		call	_ZNSt6localeC1Ev@PLT
 8401      00
 8402 4c39 488D0500 		leaq	16+_ZTVNSt7__cxx1115basic_stringbufIcSt11char_traitsIcESaIcEEE(%rip), %rax
 8402      000000
 8403 4c40 488D7308 		leaq	8(%rbx), %rsi
 8404 4c44 48894424 		movq	%rax, 120(%rsp)
 8404      78
 8405 4c49 488D4360 		leaq	96(%rbx), %rax
 8406 4c4d C78424B8 		movl	$16, 184(%rsp)
 8406      00000010 
 8406      000000
 8407 4c58 48C78424 		movq	$0, 200(%rsp)
 8407      C8000000 
 8407      00000000 
 8408 4c64 C68424D0 		movb	$0, 208(%rsp)
 8408      00000000 
 8409 4c6c 48898424 		movq	%rax, 192(%rsp)
 8409      C0000000 
 8410 4c74 488B4424 		movq	112(%rsp), %rax
 8410      70
 8411 4c79 488B78E8 		movq	-24(%rax), %rdi
 8412 4c7d 4801DF   		addq	%rbx, %rdi
 8413              	.LEHB238:
 8414 4c80 E8000000 		call	_ZNSt9basic_iosIcSt11char_traitsIcEE4initEPSt15basic_streambufIcS1_E@PLT
 8414      00
 8415              	.LEHE238:
 8416 4c85 488D0500 		leaq	24+_ZTVN8UnitTest15MemoryOutStreamE(%rip), %rax
 8416      000000
 8417 4c8c 488D3500 		leaq	.LC20(%rip), %rsi
 8417      000000
 8418 4c93 BA0B0000 		movl	$11, %edx
 8418      00
 8419 4c98 4889DF   		movq	%rbx, %rdi
 8420 4c9b 48C78424 		movq	$0, 232(%rsp)
 8420      E8000000 
 8420      00000000 
 8421 4ca7 C68424F0 		movb	$0, 240(%rsp)
 8421      00000000 
 8422 4caf 48894424 		movq	%rax, 112(%rsp)
 8422      70
 8423 4cb4 4883C028 		addq	$40, %rax
 8424 4cb8 48898424 		movq	%rax, 256(%rsp)
 8424      00010000 
 8425 4cc0 488D8380 		leaq	128(%rbx), %rax
 8425      000000
 8426 4cc7 48898424 		movq	%rax, 224(%rsp)
 8426      E0000000 
 8427              	.LEHB239:
 8428 4ccf E8000000 		call	_ZSt16__ostream_insertIcSt11char_traitsIcEERSt13basic_ostreamIT_T0_ES6_PKS3_l@PLT
 8428      00
 8429 4cd4 4C8D7C24 		leaq	88(%rsp), %r15
 8429      58
 8430 4cd9 31ED     		xorl	%ebp, %ebp
 8431              	.L687:
 8432 4cdb 660FEFC0 		pxor	%xmm0, %xmm0
 8433 4cdf 4889DF   		movq	%rbx, %rdi
 8434 4ce2 F3410F5A 		cvtss2sd	(%r15,%rbp,4), %xmm0
 8434      04AF
 8435 4ce8 E8000000 		call	_ZNSo9_M_insertIdEERSoT_@PLT
 8435      00
 8436 4ced 488D3500 		leaq	.LC22(%rip), %rsi
 8436      000000
 8437 4cf4 BA010000 		movl	$1, %edx
 8437      00
 8438 4cf9 4889C7   		movq	%rax, %rdi
 8439 4cfc E8000000 		call	_ZSt16__ostream_insertIcSt11char_traitsIcEERSt13basic_ostreamIT_T0_ES6_PKS3_l@PLT
 8439      00
 8440 4d01 4883C501 		addq	$1, %rbp
 8441 4d05 4883FD03 		cmpq	$3, %rbp
 8442 4d09 75D0     		jne	.L687
 8443 4d0b 488D3500 		leaq	.LC24(%rip), %rsi
 8443      000000
 8444 4d12 BA060000 		movl	$6, %edx
 8444      00
 8445 4d17 4889DF   		movq	%rbx, %rdi
 8446 4d1a E8000000 		call	_ZSt16__ostream_insertIcSt11char_traitsIcEERSt13basic_ostreamIT_T0_ES6_PKS3_l@PLT
 8446      00
 8447 4d1f F20F1005 		movsd	.LC60(%rip), %xmm0
 8447      00000000 
 8448 4d27 4889DF   		movq	%rbx, %rdi
 8449 4d2a E8000000 		call	_ZNSo9_M_insertIdEERSoT_@PLT
 8449      00
 8450 4d2f 488D3500 		leaq	.LC25(%rip), %rsi
 8450      000000
 8451 4d36 BA0B0000 		movl	$11, %edx
 8451      00
 8452 4d3b 4889C7   		movq	%rax, %rdi
 8453 4d3e E8000000 		call	_ZSt16__ostream_insertIcSt11char_traitsIcEERSt13basic_ostreamIT_T0_ES6_PKS3_l@PLT
 8453      00
 8454 4d43 4C8D7C24 		leaq	100(%rsp), %r15
 8454      64
 8455 4d48 31ED     		xorl	%ebp, %ebp
 8456              	.L688:
 8457 4d4a 660FEFC0 		pxor	%xmm0, %xmm0
 8458 4d4e 4889DF   		movq	%rbx, %rdi
 8459 4d51 F3410F5A 		cvtss2sd	(%r15,%rbp,4), %xmm0
 8459      04AF
 8460 4d57 E8000000 		call	_ZNSo9_M_insertIdEERSoT_@PLT
 8460      00
 8461 4d5c 488D3500 		leaq	.LC22(%rip), %rsi
 8461      000000
 8462 4d63 BA010000 		movl	$1, %edx
 8462      00
 8463 4d68 4889C7   		movq	%rax, %rdi
 8464 4d6b E8000000 		call	_ZSt16__ostream_insertIcSt11char_traitsIcEERSt13basic_ostreamIT_T0_ES6_PKS3_l@PLT
 8464      00
 8465 4d70 4883C501 		addq	$1, %rbp
 8466 4d74 4883FD03 		cmpq	$3, %rbp
 8467 4d78 75D0     		jne	.L688
 8468 4d7a 488D3500 		leaq	.LC26(%rip), %rsi
 8468      000000
 8469 4d81 BA010000 		movl	$1, %edx
 8469      00
 8470 4d86 4889DF   		movq	%rbx, %rdi
 8471 4d89 E8000000 		call	_ZSt16__ostream_insertIcSt11char_traitsIcEERSt13basic_ostreamIT_T0_ES6_PKS3_l@PLT
 8471      00
 8472 4d8e 4889DF   		movq	%rbx, %rdi
 8473 4d91 E8000000 		call	_ZNK8UnitTest15MemoryOutStream7GetTextEv@PLT
 8473      00
 8474 4d96 4889C2   		movq	%rax, %rdx
 8475 4d99 4C89E6   		movq	%r12, %rsi
 8476 4d9c 4C89EF   		movq	%r13, %rdi
 8477 4d9f E8000000 		call	_ZN8UnitTest11TestResults13OnTestFailureERKNS_11TestDetailsEPKc@PLT
 8477      00
 8478              	.LEHE239:
 8479 4da4 488D0500 		leaq	24+_ZTVN8UnitTest15MemoryOutStreamE(%rip), %rax
 8479      000000
 8480 4dab 488BBC24 		movq	224(%rsp), %rdi
 8480      E0000000 
 8481 4db3 48894424 		movq	%rax, 112(%rsp)
 8481      70
 8482 4db8 4883C028 		addq	$40, %rax
 8483 4dbc 48898424 		movq	%rax, 256(%rsp)
 8483      00010000 
 8484 4dc4 488D8380 		leaq	128(%rbx), %rax
 8484      000000
 8485 4dcb 4839C7   		cmpq	%rax, %rdi
 8486 4dce 7405     		je	.L689
 8487 4dd0 E8000000 		call	_ZdlPv@PLT
 8487      00
 8488              	.L689:
 8489 4dd5 488D0500 		leaq	64+_ZTCN8UnitTest15MemoryOutStreamE0_NSt7__cxx1119basic_ostringstreamIcSt11char_traitsIcESaIc
 8489      000000
 8490 4ddc 488BBC24 		movq	192(%rsp), %rdi
 8490      C0000000 
 8491 4de4 F30F7E05 		movq	.LC14(%rip), %xmm0
 8491      00000000 
 8492 4dec 48898424 		movq	%rax, 256(%rsp)
 8492      00010000 
 8493 4df4 488D4360 		leaq	96(%rbx), %rax
 8494 4df8 0F160500 		movhps	.LC15(%rip), %xmm0
 8494      000000
 8495 4dff 4839C7   		cmpq	%rax, %rdi
 8496 4e02 0F294424 		movaps	%xmm0, 112(%rsp)
 8496      70
 8497 4e07 7405     		je	.L690
 8498 4e09 E8000000 		call	_ZdlPv@PLT
 8498      00
 8499              	.L690:
 8500 4e0e 488D0500 		leaq	16+_ZTVSt15basic_streambufIcSt11char_traitsIcEE(%rip), %rax
 8500      000000
 8501 4e15 488D7B40 		leaq	64(%rbx), %rdi
 8502 4e19 48894424 		movq	%rax, 120(%rsp)
 8502      78
 8503 4e1e E8000000 		call	_ZNSt6localeD1Ev@PLT
 8503      00
 8504 4e23 488D0500 		leaq	16+_ZTVSt9basic_iosIcSt11char_traitsIcEE(%rip), %rax
 8504      000000
 8505 4e2a 488DBB90 		leaq	144(%rbx), %rdi
 8505      000000
 8506 4e31 4C897424 		movq	%r14, 112(%rsp)
 8506      70
 8507 4e36 48898424 		movq	%rax, 256(%rsp)
 8507      00010000 
 8508              	.LEHB240:
 8509 4e3e E8000000 		call	_ZNSt8ios_baseD2Ev@PLT
 8509      00
 8510              	.LEHE240:
 8511              	.LEHB241:
 8512 4e43 E8000000 		call	_ZN8UnitTest11CurrentTest7DetailsEv@PLT
 8512      00
 8513 4e48 488B30   		movq	(%rax), %rsi
 8514 4e4b BADC0000 		movl	$220, %edx
 8514      00
 8515 4e50 4C89E7   		movq	%r12, %rdi
 8516 4e53 E8000000 		call	_ZN8UnitTest11TestDetailsC1ERKS0_i@PLT
 8516      00
 8517 4e58 4C89EF   		movq	%r13, %rdi
 8518 4e5b E8000000 		call	_ZNK8UnitTest11TestResults15GetFailureCountEv@PLT
 8518      00
 8519 4e60 8944240C 		movl	%eax, 12(%rsp)
 8520 4e64 C7442408 		movl	$1, 8(%rsp)
 8520      01000000 
 8521 4e6c E8000000 		call	_ZN8UnitTest11CurrentTest7ResultsEv@PLT
 8521      00
 8522 4e71 488B38   		movq	(%rax), %rdi
 8523 4e74 488D5424 		leaq	12(%rsp), %rdx
 8523      0C
 8524 4e79 488D7424 		leaq	8(%rsp), %rsi
 8524      08
 8525 4e7e 4C89E1   		movq	%r12, %rcx
 8526 4e81 E8000000 		call	_ZN8UnitTest10CheckEqualIiiEEvRNS_11TestResultsERKT_RKT0_RKNS_11TestDetailsE
 8526      00
 8527              	.LEHE241:
 8528              	.L683:
 8529 4e86 488B8424 		movq	520(%rsp), %rax
 8529      08020000 
 8530 4e8e 64483304 		xorq	%fs:40, %rax
 8530      25280000 
 8530      00
 8531 4e97 7512     		jne	.L709
 8532 4e99 4881C418 		addq	$536, %rsp
 8532      020000
 8533              		.cfi_remember_state
 8534              		.cfi_def_cfa_offset 56
 8535 4ea0 5B       		popq	%rbx
 8536              		.cfi_def_cfa_offset 48
 8537 4ea1 5D       		popq	%rbp
 8538              		.cfi_def_cfa_offset 40
 8539 4ea2 415C     		popq	%r12
 8540              		.cfi_def_cfa_offset 32
 8541 4ea4 415D     		popq	%r13
 8542              		.cfi_def_cfa_offset 24
 8543 4ea6 415E     		popq	%r14
 8544              		.cfi_def_cfa_offset 16
 8545 4ea8 415F     		popq	%r15
 8546              		.cfi_def_cfa_offset 8
 8547 4eaa C3       		ret
 8548              	.L709:
 8549              		.cfi_restore_state
 8550 4eab E8000000 		call	__stack_chk_fail@PLT
 8550      00
 8551              	.L700:
 8552 4eb0 4889C5   		movq	%rax, %rbp
 8553 4eb3 4889DF   		movq	%rbx, %rdi
 8554 4eb6 E8000000 		call	_ZN8UnitTest15MemoryOutStreamD1Ev
 8554      00
 8555 4ebb 4889EF   		movq	%rbp, %rdi
 8556              	.LEHB242:
 8557 4ebe E8000000 		call	_Unwind_Resume@PLT
 8557      00
 8558              	.LEHE242:
 8559              	.L702:
 8560 4ec3 488D7B08 		leaq	8(%rbx), %rdi
 8561 4ec7 4889C5   		movq	%rax, %rbp
 8562 4eca E8000000 		call	_ZNSt7__cxx1115basic_stringbufIcSt11char_traitsIcESaIcEED1Ev
 8562      00
 8563 4ecf 4C897424 		movq	%r14, 112(%rsp)
 8563      70
 8564              	.L686:
 8565 4ed4 488D0500 		leaq	16+_ZTVSt9basic_iosIcSt11char_traitsIcEE(%rip), %rax
 8565      000000
 8566 4edb 488DBB90 		leaq	144(%rbx), %rdi
 8566      000000
 8567 4ee2 48898424 		movq	%rax, 256(%rsp)
 8567      00010000 
 8568 4eea E8000000 		call	_ZNSt8ios_baseD2Ev@PLT
 8568      00
 8569 4eef 4889EF   		movq	%rbp, %rdi
 8570              	.LEHB243:
 8571 4ef2 E8000000 		call	_Unwind_Resume@PLT
 8571      00
 8572              	.LEHE243:
 8573              	.L701:
 8574 4ef7 4889C5   		movq	%rax, %rbp
 8575 4efa EBD8     		jmp	.L686
 8576              	.L698:
 8577 4efc 4889C7   		movq	%rax, %rdi
 8578 4eff E8000000 		call	__cxa_begin_catch@PLT
 8578      00
 8579              	.LEHB244:
 8580 4f04 E8000000 		call	_ZN8UnitTest11CurrentTest7ResultsEv@PLT
 8580      00
 8581 4f09 488B18   		movq	(%rax), %rbx
 8582 4f0c E8000000 		call	_ZN8UnitTest11CurrentTest7DetailsEv@PLT
 8582      00
 8583 4f11 488B30   		movq	(%rax), %rsi
 8584 4f14 BADC0000 		movl	$220, %edx
 8584      00
 8585 4f19 4C89E7   		movq	%r12, %rdi
 8586 4f1c E8000000 		call	_ZN8UnitTest11TestDetailsC1ERKS0_i@PLT
 8586      00
 8587 4f21 488D1500 		leaq	.LC29(%rip), %rdx
 8587      000000
 8588 4f28 4C89E6   		movq	%r12, %rsi
 8589 4f2b 4889DF   		movq	%rbx, %rdi
 8590 4f2e E8000000 		call	_ZN8UnitTest11TestResults13OnTestFailureERKNS_11TestDetailsEPKc@PLT
 8590      00
 8591              	.LEHE244:
 8592              	.LEHB245:
 8593 4f33 E8000000 		call	__cxa_end_catch@PLT
 8593      00
 8594              	.LEHE245:
 8595 4f38 E949FFFF 		jmp	.L683
 8595      FF
 8596              	.L699:
 8597 4f3d 4889C3   		movq	%rax, %rbx
 8598 4f40 E8000000 		call	__cxa_end_catch@PLT
 8598      00
 8599 4f45 4889DF   		movq	%rbx, %rdi
 8600              	.LEHB246:
 8601 4f48 E8000000 		call	_Unwind_Resume@PLT
 8601      00
 8602              	.LEHE246:
 8603              		.cfi_endproc
 8604              	.LFE1235:
 8605              		.section	.gcc_except_table
 8606              		.align 4
 8607              	.LLSDA1235:
 8608 0634 FF       		.byte	0xff
 8609 0635 9B       		.byte	0x9b
 8610 0636 45       		.uleb128 .LLSDATT1235-.LLSDATTD1235
 8611              	.LLSDATTD1235:
 8612 0637 01       		.byte	0x1
 8613 0638 3C       		.uleb128 .LLSDACSE1235-.LLSDACSB1235
 8614              	.LLSDACSB1235:
 8615 0639 46       		.uleb128 .LEHB236-.LFB1235
 8616 063a 4B       		.uleb128 .LEHE236-.LEHB236
 8617 063b 00       		.uleb128 0
 8618 063c 00       		.uleb128 0
 8619 063d FB01     		.uleb128 .LEHB237-.LFB1235
 8620 063f 05       		.uleb128 .LEHE237-.LEHB237
 8621 0640 8708     		.uleb128 .L701-.LFB1235
 8622 0642 00       		.uleb128 0
 8623 0643 9003     		.uleb128 .LEHB238-.LFB1235
 8624 0645 05       		.uleb128 .LEHE238-.LEHB238
 8625 0646 D307     		.uleb128 .L702-.LFB1235
 8626 0648 00       		.uleb128 0
 8627 0649 DF03     		.uleb128 .LEHB239-.LFB1235
 8628 064b D501     		.uleb128 .LEHE239-.LEHB239
 8629 064d C007     		.uleb128 .L700-.LFB1235
 8630 064f 00       		.uleb128 0
 8631 0650 CE06     		.uleb128 .LEHB240-.LFB1235
 8632 0652 05       		.uleb128 .LEHE240-.LEHB240
 8633 0653 00       		.uleb128 0
 8634 0654 00       		.uleb128 0
 8635 0655 D306     		.uleb128 .LEHB241-.LFB1235
 8636 0657 43       		.uleb128 .LEHE241-.LEHB241
 8637 0658 8C08     		.uleb128 .L698-.LFB1235
 8638 065a 01       		.uleb128 0x1
 8639 065b CE07     		.uleb128 .LEHB242-.LFB1235
 8640 065d 05       		.uleb128 .LEHE242-.LEHB242
 8641 065e 00       		.uleb128 0
 8642 065f 00       		.uleb128 0
 8643 0660 8208     		.uleb128 .LEHB243-.LFB1235
 8644 0662 05       		.uleb128 .LEHE243-.LEHB243
 8645 0663 00       		.uleb128 0
 8646 0664 00       		.uleb128 0
 8647 0665 9408     		.uleb128 .LEHB244-.LFB1235
 8648 0667 2F       		.uleb128 .LEHE244-.LEHB244
 8649 0668 CD08     		.uleb128 .L699-.LFB1235
 8650 066a 00       		.uleb128 0
 8651 066b C308     		.uleb128 .LEHB245-.LFB1235
 8652 066d 05       		.uleb128 .LEHE245-.LEHB245
 8653 066e 00       		.uleb128 0
 8654 066f 00       		.uleb128 0
 8655 0670 D808     		.uleb128 .LEHB246-.LFB1235
 8656 0672 05       		.uleb128 .LEHE246-.LEHB246
 8657 0673 00       		.uleb128 0
 8658 0674 00       		.uleb128 0
 8659              	.LLSDACSE1235:
 8660 0675 01       		.byte	0x1
 8661 0676 00       		.byte	0
 8662 0677 00       		.align 4
 8663 0678 00000000 		.long	0
 8664              	
 8665              	.LLSDATT1235:
 8666              		.text
 8668 4f4d 90       		.align 2
 8669 4f4e 6690     		.p2align 4,,15
 8671              	_ZNK12_GLOBAL__N_123TestCheckArrayCloseTrue7RunImplEv:
 8672              	.LFB1231:
 8673              		.cfi_startproc
 8674              		.cfi_personality 0x9b,DW.ref.__gxx_personality_v0
 8675              		.cfi_lsda 0x1b,.LLSDA1231
 8676 4f50 55       		pushq	%rbp
 8677              		.cfi_def_cfa_offset 16
 8678              		.cfi_offset 6, -16
 8679 4f51 53       		pushq	%rbx
 8680              		.cfi_def_cfa_offset 24
 8681              		.cfi_offset 3, -24
 8682 4f52 31F6     		xorl	%esi, %esi
 8683 4f54 4883EC78 		subq	$120, %rsp
 8684              		.cfi_def_cfa_offset 144
 8685 4f58 488D6C24 		leaq	16(%rsp), %rbp
 8685      10
 8686 4f5d 488D5C24 		leaq	48(%rsp), %rbx
 8686      30
 8687 4f62 64488B04 		movq	%fs:40, %rax
 8687      25280000 
 8687      00
 8688 4f6b 48894424 		movq	%rax, 104(%rsp)
 8688      68
 8689 4f70 31C0     		xorl	%eax, %eax
 8690 4f72 4889EF   		movq	%rbp, %rdi
 8691              	.LEHB247:
 8692 4f75 E8000000 		call	_ZN8UnitTest11TestResultsC1EPNS_12TestReporterE@PLT
 8692      00
 8693 4f7a 488D0D00 		leaq	.LC1(%rip), %rcx
 8693      000000
 8694 4f81 48B80000 		movabsq	$4593671620983259136, %rax
 8694      803F0000 
 8694      C03F
 8695 4f8b 4531C0   		xorl	%r8d, %r8d
 8696 4f8e 48894424 		movq	%rax, 80(%rsp)
 8696      50
 8697 4f93 4889DF   		movq	%rbx, %rdi
 8698 4f96 48B8AE47 		movabsq	$4594031908609935278, %rax
 8698      813FAE47 
 8698      C13F
 8699 4fa0 4889CA   		movq	%rcx, %rdx
 8700 4fa3 4889CE   		movq	%rcx, %rsi
 8701 4fa6 C7442458 		movl	$1073741824, 88(%rsp)
 8701      00000040 
 8702 4fae 48894424 		movq	%rax, 92(%rsp)
 8702      5C
 8703 4fb3 C7442464 		movl	$1073783767, 100(%rsp)
 8703      D7A30040 
 8704 4fbb E8000000 		call	_ZN8UnitTest11TestDetailsC1EPKcS2_S2_i@PLT
 8704      00
 8705              	.LEHE247:
 8706              	.LEHB248:
 8707 4fc0 E8000000 		call	_ZN8UnitTest11CurrentTest7DetailsEv@PLT
 8707      00
 8708 4fc5 488B30   		movq	(%rax), %rsi
 8709 4fc8 BAD20000 		movl	$210, %edx
 8709      00
 8710 4fcd 4889DF   		movq	%rbx, %rdi
 8711 4fd0 E8000000 		call	_ZN8UnitTest11TestDetailsC1ERKS0_i@PLT
 8711      00
 8712 4fd5 4889EF   		movq	%rbp, %rdi
 8713 4fd8 E8000000 		call	_ZNK8UnitTest11TestResults15GetFailureCountEv@PLT
 8713      00
 8714 4fdd 8944240C 		movl	%eax, 12(%rsp)
 8715 4fe1 C7442408 		movl	$0, 8(%rsp)
 8715      00000000 
 8716 4fe9 E8000000 		call	_ZN8UnitTest11CurrentTest7ResultsEv@PLT
 8716      00
 8717 4fee 488B38   		movq	(%rax), %rdi
 8718 4ff1 488D5424 		leaq	12(%rsp), %rdx
 8718      0C
 8719 4ff6 488D7424 		leaq	8(%rsp), %rsi
 8719      08
 8720 4ffb 4889D9   		movq	%rbx, %rcx
 8721 4ffe E8000000 		call	_ZN8UnitTest10CheckEqualIiiEEvRNS_11TestResultsERKT_RKT0_RKNS_11TestDetailsE
 8721      00
 8722              	.LEHE248:
 8723              	.L710:
 8724 5003 488B4424 		movq	104(%rsp), %rax
 8724      68
 8725 5008 64483304 		xorq	%fs:40, %rax
 8725      25280000 
 8725      00
 8726 5011 7507     		jne	.L718
 8727 5013 4883C478 		addq	$120, %rsp
 8728              		.cfi_remember_state
 8729              		.cfi_def_cfa_offset 24
 8730 5017 5B       		popq	%rbx
 8731              		.cfi_def_cfa_offset 16
 8732 5018 5D       		popq	%rbp
 8733              		.cfi_def_cfa_offset 8
 8734 5019 C3       		ret
 8735              	.L718:
 8736              		.cfi_restore_state
 8737 501a E8000000 		call	__stack_chk_fail@PLT
 8737      00
 8738              	.L715:
 8739 501f 4889C7   		movq	%rax, %rdi
 8740 5022 E8000000 		call	__cxa_begin_catch@PLT
 8740      00
 8741              	.LEHB249:
 8742 5027 E8000000 		call	_ZN8UnitTest11CurrentTest7ResultsEv@PLT
 8742      00
 8743 502c 488B28   		movq	(%rax), %rbp
 8744 502f E8000000 		call	_ZN8UnitTest11CurrentTest7DetailsEv@PLT
 8744      00
 8745 5034 488B30   		movq	(%rax), %rsi
 8746 5037 BAD20000 		movl	$210, %edx
 8746      00
 8747 503c 4889DF   		movq	%rbx, %rdi
 8748 503f E8000000 		call	_ZN8UnitTest11TestDetailsC1ERKS0_i@PLT
 8748      00
 8749 5044 488D1500 		leaq	.LC27(%rip), %rdx
 8749      000000
 8750 504b 4889DE   		movq	%rbx, %rsi
 8751 504e 4889EF   		movq	%rbp, %rdi
 8752 5051 E8000000 		call	_ZN8UnitTest11TestResults13OnTestFailureERKNS_11TestDetailsEPKc@PLT
 8752      00
 8753              	.LEHE249:
 8754              	.LEHB250:
 8755 5056 E8000000 		call	__cxa_end_catch@PLT
 8755      00
 8756              	.LEHE250:
 8757 505b EBA6     		jmp	.L710
 8758              	.L716:
 8759 505d 4889C3   		movq	%rax, %rbx
 8760 5060 E8000000 		call	__cxa_end_catch@PLT
 8760      00
 8761 5065 4889DF   		movq	%rbx, %rdi
 8762              	.LEHB251:
 8763 5068 E8000000 		call	_Unwind_Resume@PLT
 8763      00
 8764              	.LEHE251:
 8765              		.cfi_endproc
 8766              	.LFE1231:
 8767              		.section	.gcc_except_table
 8768              		.align 4
 8769              	.LLSDA1231:
 8770 067c FF       		.byte	0xff
 8771 067d 9B       		.byte	0x9b
 8772 067e 21       		.uleb128 .LLSDATT1231-.LLSDATTD1231
 8773              	.LLSDATTD1231:
 8774 067f 01       		.byte	0x1
 8775 0680 19       		.uleb128 .LLSDACSE1231-.LLSDACSB1231
 8776              	.LLSDACSB1231:
 8777 0681 25       		.uleb128 .LEHB247-.LFB1231
 8778 0682 4B       		.uleb128 .LEHE247-.LEHB247
 8779 0683 00       		.uleb128 0
 8780 0684 00       		.uleb128 0
 8781 0685 70       		.uleb128 .LEHB248-.LFB1231
 8782 0686 43       		.uleb128 .LEHE248-.LEHB248
 8783 0687 CF01     		.uleb128 .L715-.LFB1231
 8784 0689 01       		.uleb128 0x1
 8785 068a D701     		.uleb128 .LEHB249-.LFB1231
 8786 068c 2F       		.uleb128 .LEHE249-.LEHB249
 8787 068d 8D02     		.uleb128 .L716-.LFB1231
 8788 068f 00       		.uleb128 0
 8789 0690 8602     		.uleb128 .LEHB250-.LFB1231
 8790 0692 05       		.uleb128 .LEHE250-.LEHB250
 8791 0693 00       		.uleb128 0
 8792 0694 00       		.uleb128 0
 8793 0695 9802     		.uleb128 .LEHB251-.LFB1231
 8794 0697 05       		.uleb128 .LEHE251-.LEHB251
 8795 0698 00       		.uleb128 0
 8796 0699 00       		.uleb128 0
 8797              	.LLSDACSE1231:
 8798 069a 01       		.byte	0x1
 8799 069b 00       		.byte	0
 8800              		.align 4
 8801 069c 00000000 		.long	0
 8802              	
 8803              	.LLSDATT1231:
 8804              		.text
 8806              		.section	.rodata.str1.1
 8807              	.LC64:
 8808 00d0 5D206275 		.string	"] but was [ "
 8808      74207761 
 8808      73205B20 
 8808      00
 8809              		.text
 8810 506d 90       		.align 2
 8811 506e 6690     		.p2align 4,,15
 8813              	_ZNK12_GLOBAL__N_124TestCheckArrayEqualFalse7RunImplEv:
 8814              	.LFB1227:
 8815              		.cfi_startproc
 8816              		.cfi_personality 0x9b,DW.ref.__gxx_personality_v0
 8817              		.cfi_lsda 0x1b,.LLSDA1227
 8818 5070 4157     		pushq	%r15
 8819              		.cfi_def_cfa_offset 16
 8820              		.cfi_offset 15, -16
 8821 5072 4156     		pushq	%r14
 8822              		.cfi_def_cfa_offset 24
 8823              		.cfi_offset 14, -24
 8824 5074 31F6     		xorl	%esi, %esi
 8825 5076 4155     		pushq	%r13
 8826              		.cfi_def_cfa_offset 32
 8827              		.cfi_offset 13, -32
 8828 5078 4154     		pushq	%r12
 8829              		.cfi_def_cfa_offset 40
 8830              		.cfi_offset 12, -40
 8831 507a 4C8D3500 		leaq	24+_ZTCN8UnitTest15MemoryOutStreamE0_So(%rip), %r14
 8831      000000
 8832 5081 55       		pushq	%rbp
 8833              		.cfi_def_cfa_offset 48
 8834              		.cfi_offset 6, -48
 8835 5082 53       		pushq	%rbx
 8836              		.cfi_def_cfa_offset 56
 8837              		.cfi_offset 3, -56
 8838 5083 4881EC18 		subq	$536, %rsp
 8838      020000
 8839              		.cfi_def_cfa_offset 592
 8840 508a 4C8D6C24 		leaq	16(%rsp), %r13
 8840      10
 8841 508f 488D5C24 		leaq	112(%rsp), %rbx
 8841      70
 8842 5094 4C8D6424 		leaq	48(%rsp), %r12
 8842      30
 8843 5099 64488B04 		movq	%fs:40, %rax
 8843      25280000 
 8843      00
 8844 50a2 48898424 		movq	%rax, 520(%rsp)
 8844      08020000 
 8845 50aa 31C0     		xorl	%eax, %eax
 8846 50ac 4C89EF   		movq	%r13, %rdi
 8847 50af 488DAB90 		leaq	144(%rbx), %rbp
 8847      000000
 8848              	.LEHB252:
 8849 50b6 E8000000 		call	_ZN8UnitTest11TestResultsC1EPNS_12TestReporterE@PLT
 8849      00
 8850 50bb 488D0D00 		leaq	.LC1(%rip), %rcx
 8850      000000
 8851 50c2 48B80100 		movabsq	$8589934593, %rax
 8851      00000200 
 8851      0000
 8852 50cc 4531C0   		xorl	%r8d, %r8d
 8853 50cf 4C89E7   		movq	%r12, %rdi
 8854 50d2 48894424 		movq	%rax, 88(%rsp)
 8854      58
 8855 50d7 48894424 		movq	%rax, 100(%rsp)
 8855      64
 8856 50dc 4889CE   		movq	%rcx, %rsi
 8857 50df 4889CA   		movq	%rcx, %rdx
 8858 50e2 C7442460 		movl	$3, 96(%rsp)
 8858      03000000 
 8859 50ea C744246C 		movl	$2, 108(%rsp)
 8859      02000000 
 8860 50f2 E8000000 		call	_ZN8UnitTest11TestDetailsC1EPKcS2_S2_i@PLT
 8860      00
 8861              	.LEHE252:
 8862 50f7 4889EF   		movq	%rbp, %rdi
 8863 50fa E8000000 		call	_ZNSt8ios_baseC2Ev@PLT
 8863      00
 8864 50ff 498D4628 		leaq	40(%r14), %rax
 8865 5103 31F6     		xorl	%esi, %esi
 8866 5105 4889EF   		movq	%rbp, %rdi
 8867 5108 48C78424 		movq	$0, 472(%rsp)
 8867      D8010000 
 8867      00000000 
 8868 5114 C68424E0 		movb	$0, 480(%rsp)
 8868      01000000 
 8869 511c C68424E1 		movb	$0, 481(%rsp)
 8869      01000000 
 8870 5124 48C78424 		movq	$0, 488(%rsp)
 8870      E8010000 
 8870      00000000 
 8871 5130 48C78424 		movq	$0, 496(%rsp)
 8871      F0010000 
 8871      00000000 
 8872 513c 48C78424 		movq	$0, 504(%rsp)
 8872      F8010000 
 8872      00000000 
 8873 5148 48C78424 		movq	$0, 512(%rsp)
 8873      00020000 
 8873      00000000 
 8874 5154 4C897424 		movq	%r14, 112(%rsp)
 8874      70
 8875 5159 48898424 		movq	%rax, 256(%rsp)
 8875      00010000 
 8876              	.LEHB253:
 8877 5161 E8000000 		call	_ZNSt9basic_iosIcSt11char_traitsIcEE4initEPSt15basic_streambufIcS1_E@PLT
 8877      00
 8878              	.LEHE253:
 8879 5166 488D0500 		leaq	24+_ZTCN8UnitTest15MemoryOutStreamE0_NSt7__cxx1119basic_ostringstreamIcSt11char_traitsIcESaIc
 8879      000000
 8880 516d 660FEFC0 		pxor	%xmm0, %xmm0
 8881 5171 488D7B40 		leaq	64(%rbx), %rdi
 8882 5175 48894424 		movq	%rax, 112(%rsp)
 8882      70
 8883 517a 4883C028 		addq	$40, %rax
 8884 517e 48898424 		movq	%rax, 256(%rsp)
 8884      00010000 
 8885 5186 488D0500 		leaq	16+_ZTVSt15basic_streambufIcSt11char_traitsIcEE(%rip), %rax
 8885      000000
 8886 518d 0F298424 		movaps	%xmm0, 128(%rsp)
 8886      80000000 
 8887 5195 48894424 		movq	%rax, 120(%rsp)
 8887      78
 8888 519a 0F298424 		movaps	%xmm0, 144(%rsp)
 8888      90000000 
 8889 51a2 0F298424 		movaps	%xmm0, 160(%rsp)
 8889      A0000000 
 8890 51aa E8000000 		call	_ZNSt6localeC1Ev@PLT
 8890      00
 8891 51af 488D0500 		leaq	16+_ZTVNSt7__cxx1115basic_stringbufIcSt11char_traitsIcESaIcEEE(%rip), %rax
 8891      000000
 8892 51b6 488D7308 		leaq	8(%rbx), %rsi
 8893 51ba 48894424 		movq	%rax, 120(%rsp)
 8893      78
 8894 51bf 488D4360 		leaq	96(%rbx), %rax
 8895 51c3 C78424B8 		movl	$16, 184(%rsp)
 8895      00000010 
 8895      000000
 8896 51ce 48C78424 		movq	$0, 200(%rsp)
 8896      C8000000 
 8896      00000000 
 8897 51da C68424D0 		movb	$0, 208(%rsp)
 8897      00000000 
 8898 51e2 48898424 		movq	%rax, 192(%rsp)
 8898      C0000000 
 8899 51ea 488B4424 		movq	112(%rsp), %rax
 8899      70
 8900 51ef 488B78E8 		movq	-24(%rax), %rdi
 8901 51f3 4801DF   		addq	%rbx, %rdi
 8902              	.LEHB254:
 8903 51f6 E8000000 		call	_ZNSt9basic_iosIcSt11char_traitsIcEE4initEPSt15basic_streambufIcS1_E@PLT
 8903      00
 8904              	.LEHE254:
 8905 51fb 488D0500 		leaq	24+_ZTVN8UnitTest15MemoryOutStreamE(%rip), %rax
 8905      000000
 8906 5202 488D3500 		leaq	.LC20(%rip), %rsi
 8906      000000
 8907 5209 BA0B0000 		movl	$11, %edx
 8907      00
 8908 520e 4889DF   		movq	%rbx, %rdi
 8909 5211 48C78424 		movq	$0, 232(%rsp)
 8909      E8000000 
 8909      00000000 
 8910 521d C68424F0 		movb	$0, 240(%rsp)
 8910      00000000 
 8911 5225 48894424 		movq	%rax, 112(%rsp)
 8911      70
 8912 522a 4883C028 		addq	$40, %rax
 8913 522e 48898424 		movq	%rax, 256(%rsp)
 8913      00010000 
 8914 5236 488D8380 		leaq	128(%rbx), %rax
 8914      000000
 8915 523d 48898424 		movq	%rax, 224(%rsp)
 8915      E0000000 
 8916              	.LEHB255:
 8917 5245 E8000000 		call	_ZSt16__ostream_insertIcSt11char_traitsIcEERSt13basic_ostreamIT_T0_ES6_PKS3_l@PLT
 8917      00
 8918 524a 4C8D7C24 		leaq	88(%rsp), %r15
 8918      58
 8919 524f 31ED     		xorl	%ebp, %ebp
 8920              	.L723:
 8921 5251 418B34AF 		movl	(%r15,%rbp,4), %esi
 8922 5255 4889DF   		movq	%rbx, %rdi
 8923 5258 E8000000 		call	_ZNSolsEi@PLT
 8923      00
 8924 525d 488D3500 		leaq	.LC22(%rip), %rsi
 8924      000000
 8925 5264 BA010000 		movl	$1, %edx
 8925      00
 8926 5269 4889C7   		movq	%rax, %rdi
 8927 526c E8000000 		call	_ZSt16__ostream_insertIcSt11char_traitsIcEERSt13basic_ostreamIT_T0_ES6_PKS3_l@PLT
 8927      00
 8928 5271 4883C501 		addq	$1, %rbp
 8929 5275 4883FD03 		cmpq	$3, %rbp
 8930 5279 75D6     		jne	.L723
 8931 527b 488D3500 		leaq	.LC64(%rip), %rsi
 8931      000000
 8932 5282 BA0C0000 		movl	$12, %edx
 8932      00
 8933 5287 4889DF   		movq	%rbx, %rdi
 8934 528a E8000000 		call	_ZSt16__ostream_insertIcSt11char_traitsIcEERSt13basic_ostreamIT_T0_ES6_PKS3_l@PLT
 8934      00
 8935 528f 4C8D7C24 		leaq	100(%rsp), %r15
 8935      64
 8936 5294 31ED     		xorl	%ebp, %ebp
 8937              	.L724:
 8938 5296 418B34AF 		movl	(%r15,%rbp,4), %esi
 8939 529a 4889DF   		movq	%rbx, %rdi
 8940 529d E8000000 		call	_ZNSolsEi@PLT
 8940      00
 8941 52a2 488D3500 		leaq	.LC22(%rip), %rsi
 8941      000000
 8942 52a9 BA010000 		movl	$1, %edx
 8942      00
 8943 52ae 4889C7   		movq	%rax, %rdi
 8944 52b1 E8000000 		call	_ZSt16__ostream_insertIcSt11char_traitsIcEERSt13basic_ostreamIT_T0_ES6_PKS3_l@PLT
 8944      00
 8945 52b6 4883C501 		addq	$1, %rbp
 8946 52ba 4883FD03 		cmpq	$3, %rbp
 8947 52be 75D6     		jne	.L724
 8948 52c0 488D3500 		leaq	.LC26(%rip), %rsi
 8948      000000
 8949 52c7 BA010000 		movl	$1, %edx
 8949      00
 8950 52cc 4889DF   		movq	%rbx, %rdi
 8951 52cf E8000000 		call	_ZSt16__ostream_insertIcSt11char_traitsIcEERSt13basic_ostreamIT_T0_ES6_PKS3_l@PLT
 8951      00
 8952 52d4 4889DF   		movq	%rbx, %rdi
 8953 52d7 E8000000 		call	_ZNK8UnitTest15MemoryOutStream7GetTextEv@PLT
 8953      00
 8954 52dc 4889C2   		movq	%rax, %rdx
 8955 52df 4C89E6   		movq	%r12, %rsi
 8956 52e2 4C89EF   		movq	%r13, %rdi
 8957 52e5 E8000000 		call	_ZN8UnitTest11TestResults13OnTestFailureERKNS_11TestDetailsEPKc@PLT
 8957      00
 8958              	.LEHE255:
 8959 52ea 488D0500 		leaq	24+_ZTVN8UnitTest15MemoryOutStreamE(%rip), %rax
 8959      000000
 8960 52f1 488BBC24 		movq	224(%rsp), %rdi
 8960      E0000000 
 8961 52f9 48894424 		movq	%rax, 112(%rsp)
 8961      70
 8962 52fe 4883C028 		addq	$40, %rax
 8963 5302 48898424 		movq	%rax, 256(%rsp)
 8963      00010000 
 8964 530a 488D8380 		leaq	128(%rbx), %rax
 8964      000000
 8965 5311 4839C7   		cmpq	%rax, %rdi
 8966 5314 7405     		je	.L725
 8967 5316 E8000000 		call	_ZdlPv@PLT
 8967      00
 8968              	.L725:
 8969 531b 488D0500 		leaq	64+_ZTCN8UnitTest15MemoryOutStreamE0_NSt7__cxx1119basic_ostringstreamIcSt11char_traitsIcESaIc
 8969      000000
 8970 5322 488BBC24 		movq	192(%rsp), %rdi
 8970      C0000000 
 8971 532a F30F7E05 		movq	.LC14(%rip), %xmm0
 8971      00000000 
 8972 5332 48898424 		movq	%rax, 256(%rsp)
 8972      00010000 
 8973 533a 488D4360 		leaq	96(%rbx), %rax
 8974 533e 0F160500 		movhps	.LC15(%rip), %xmm0
 8974      000000
 8975 5345 4839C7   		cmpq	%rax, %rdi
 8976 5348 0F294424 		movaps	%xmm0, 112(%rsp)
 8976      70
 8977 534d 7405     		je	.L726
 8978 534f E8000000 		call	_ZdlPv@PLT
 8978      00
 8979              	.L726:
 8980 5354 488D0500 		leaq	16+_ZTVSt15basic_streambufIcSt11char_traitsIcEE(%rip), %rax
 8980      000000
 8981 535b 488D7B40 		leaq	64(%rbx), %rdi
 8982 535f 48894424 		movq	%rax, 120(%rsp)
 8982      78
 8983 5364 E8000000 		call	_ZNSt6localeD1Ev@PLT
 8983      00
 8984 5369 488D0500 		leaq	16+_ZTVSt9basic_iosIcSt11char_traitsIcEE(%rip), %rax
 8984      000000
 8985 5370 488DBB90 		leaq	144(%rbx), %rdi
 8985      000000
 8986 5377 4C897424 		movq	%r14, 112(%rsp)
 8986      70
 8987 537c 48898424 		movq	%rax, 256(%rsp)
 8987      00010000 
 8988              	.LEHB256:
 8989 5384 E8000000 		call	_ZNSt8ios_baseD2Ev@PLT
 8989      00
 8990              	.LEHE256:
 8991              	.LEHB257:
 8992 5389 E8000000 		call	_ZN8UnitTest11CurrentTest7DetailsEv@PLT
 8992      00
 8993 538e 488B30   		movq	(%rax), %rsi
 8994 5391 BAC80000 		movl	$200, %edx
 8994      00
 8995 5396 4C89E7   		movq	%r12, %rdi
 8996 5399 E8000000 		call	_ZN8UnitTest11TestDetailsC1ERKS0_i@PLT
 8996      00
 8997 539e 4C89EF   		movq	%r13, %rdi
 8998 53a1 E8000000 		call	_ZNK8UnitTest11TestResults15GetFailureCountEv@PLT
 8998      00
 8999 53a6 8944240C 		movl	%eax, 12(%rsp)
 9000 53aa C7442408 		movl	$1, 8(%rsp)
 9000      01000000 
 9001 53b2 E8000000 		call	_ZN8UnitTest11CurrentTest7ResultsEv@PLT
 9001      00
 9002 53b7 488B38   		movq	(%rax), %rdi
 9003 53ba 488D5424 		leaq	12(%rsp), %rdx
 9003      0C
 9004 53bf 488D7424 		leaq	8(%rsp), %rsi
 9004      08
 9005 53c4 4C89E1   		movq	%r12, %rcx
 9006 53c7 E8000000 		call	_ZN8UnitTest10CheckEqualIiiEEvRNS_11TestResultsERKT_RKT0_RKNS_11TestDetailsE
 9006      00
 9007              	.LEHE257:
 9008              	.L719:
 9009 53cc 488B8424 		movq	520(%rsp), %rax
 9009      08020000 
 9010 53d4 64483304 		xorq	%fs:40, %rax
 9010      25280000 
 9010      00
 9011 53dd 7512     		jne	.L745
 9012 53df 4881C418 		addq	$536, %rsp
 9012      020000
 9013              		.cfi_remember_state
 9014              		.cfi_def_cfa_offset 56
 9015 53e6 5B       		popq	%rbx
 9016              		.cfi_def_cfa_offset 48
 9017 53e7 5D       		popq	%rbp
 9018              		.cfi_def_cfa_offset 40
 9019 53e8 415C     		popq	%r12
 9020              		.cfi_def_cfa_offset 32
 9021 53ea 415D     		popq	%r13
 9022              		.cfi_def_cfa_offset 24
 9023 53ec 415E     		popq	%r14
 9024              		.cfi_def_cfa_offset 16
 9025 53ee 415F     		popq	%r15
 9026              		.cfi_def_cfa_offset 8
 9027 53f0 C3       		ret
 9028              	.L745:
 9029              		.cfi_restore_state
 9030 53f1 E8000000 		call	__stack_chk_fail@PLT
 9030      00
 9031              	.L736:
 9032 53f6 4889C5   		movq	%rax, %rbp
 9033 53f9 4889DF   		movq	%rbx, %rdi
 9034 53fc E8000000 		call	_ZN8UnitTest15MemoryOutStreamD1Ev
 9034      00
 9035 5401 4889EF   		movq	%rbp, %rdi
 9036              	.LEHB258:
 9037 5404 E8000000 		call	_Unwind_Resume@PLT
 9037      00
 9038              	.LEHE258:
 9039              	.L738:
 9040 5409 488D7B08 		leaq	8(%rbx), %rdi
 9041 540d 4889C5   		movq	%rax, %rbp
 9042 5410 E8000000 		call	_ZNSt7__cxx1115basic_stringbufIcSt11char_traitsIcESaIcEED1Ev
 9042      00
 9043 5415 4C897424 		movq	%r14, 112(%rsp)
 9043      70
 9044              	.L722:
 9045 541a 488D0500 		leaq	16+_ZTVSt9basic_iosIcSt11char_traitsIcEE(%rip), %rax
 9045      000000
 9046 5421 488DBB90 		leaq	144(%rbx), %rdi
 9046      000000
 9047 5428 48898424 		movq	%rax, 256(%rsp)
 9047      00010000 
 9048 5430 E8000000 		call	_ZNSt8ios_baseD2Ev@PLT
 9048      00
 9049 5435 4889EF   		movq	%rbp, %rdi
 9050              	.LEHB259:
 9051 5438 E8000000 		call	_Unwind_Resume@PLT
 9051      00
 9052              	.LEHE259:
 9053              	.L737:
 9054 543d 4889C5   		movq	%rax, %rbp
 9055 5440 EBD8     		jmp	.L722
 9056              	.L734:
 9057 5442 4889C7   		movq	%rax, %rdi
 9058 5445 E8000000 		call	__cxa_begin_catch@PLT
 9058      00
 9059              	.LEHB260:
 9060 544a E8000000 		call	_ZN8UnitTest11CurrentTest7ResultsEv@PLT
 9060      00
 9061 544f 488B18   		movq	(%rax), %rbx
 9062 5452 E8000000 		call	_ZN8UnitTest11CurrentTest7DetailsEv@PLT
 9062      00
 9063 5457 488B30   		movq	(%rax), %rsi
 9064 545a BAC80000 		movl	$200, %edx
 9064      00
 9065 545f 4C89E7   		movq	%r12, %rdi
 9066 5462 E8000000 		call	_ZN8UnitTest11TestDetailsC1ERKS0_i@PLT
 9066      00
 9067 5467 488D1500 		leaq	.LC29(%rip), %rdx
 9067      000000
 9068 546e 4C89E6   		movq	%r12, %rsi
 9069 5471 4889DF   		movq	%rbx, %rdi
 9070 5474 E8000000 		call	_ZN8UnitTest11TestResults13OnTestFailureERKNS_11TestDetailsEPKc@PLT
 9070      00
 9071              	.LEHE260:
 9072              	.LEHB261:
 9073 5479 E8000000 		call	__cxa_end_catch@PLT
 9073      00
 9074              	.LEHE261:
 9075 547e E949FFFF 		jmp	.L719
 9075      FF
 9076              	.L735:
 9077 5483 4889C3   		movq	%rax, %rbx
 9078 5486 E8000000 		call	__cxa_end_catch@PLT
 9078      00
 9079 548b 4889DF   		movq	%rbx, %rdi
 9080              	.LEHB262:
 9081 548e E8000000 		call	_Unwind_Resume@PLT
 9081      00
 9082              	.LEHE262:
 9083              		.cfi_endproc
 9084              	.LFE1227:
 9085              		.section	.gcc_except_table
 9086              		.align 4
 9087              	.LLSDA1227:
 9088 06a0 FF       		.byte	0xff
 9089 06a1 9B       		.byte	0x9b
 9090 06a2 45       		.uleb128 .LLSDATT1227-.LLSDATTD1227
 9091              	.LLSDATTD1227:
 9092 06a3 01       		.byte	0x1
 9093 06a4 3C       		.uleb128 .LLSDACSE1227-.LLSDACSB1227
 9094              	.LLSDACSB1227:
 9095 06a5 46       		.uleb128 .LEHB252-.LFB1227
 9096 06a6 41       		.uleb128 .LEHE252-.LEHB252
 9097 06a7 00       		.uleb128 0
 9098 06a8 00       		.uleb128 0
 9099 06a9 F101     		.uleb128 .LEHB253-.LFB1227
 9100 06ab 05       		.uleb128 .LEHE253-.LEHB253
 9101 06ac CD07     		.uleb128 .L737-.LFB1227
 9102 06ae 00       		.uleb128 0
 9103 06af 8603     		.uleb128 .LEHB254-.LFB1227
 9104 06b1 05       		.uleb128 .LEHE254-.LEHB254
 9105 06b2 9907     		.uleb128 .L738-.LFB1227
 9106 06b4 00       		.uleb128 0
 9107 06b5 D503     		.uleb128 .LEHB255-.LFB1227
 9108 06b7 A501     		.uleb128 .LEHE255-.LEHB255
 9109 06b9 8607     		.uleb128 .L736-.LFB1227
 9110 06bb 00       		.uleb128 0
 9111 06bc 9406     		.uleb128 .LEHB256-.LFB1227
 9112 06be 05       		.uleb128 .LEHE256-.LEHB256
 9113 06bf 00       		.uleb128 0
 9114 06c0 00       		.uleb128 0
 9115 06c1 9906     		.uleb128 .LEHB257-.LFB1227
 9116 06c3 43       		.uleb128 .LEHE257-.LEHB257
 9117 06c4 D207     		.uleb128 .L734-.LFB1227
 9118 06c6 01       		.uleb128 0x1
 9119 06c7 9407     		.uleb128 .LEHB258-.LFB1227
 9120 06c9 05       		.uleb128 .LEHE258-.LEHB258
 9121 06ca 00       		.uleb128 0
 9122 06cb 00       		.uleb128 0
 9123 06cc C807     		.uleb128 .LEHB259-.LFB1227
 9124 06ce 05       		.uleb128 .LEHE259-.LEHB259
 9125 06cf 00       		.uleb128 0
 9126 06d0 00       		.uleb128 0
 9127 06d1 DA07     		.uleb128 .LEHB260-.LFB1227
 9128 06d3 2F       		.uleb128 .LEHE260-.LEHB260
 9129 06d4 9308     		.uleb128 .L735-.LFB1227
 9130 06d6 00       		.uleb128 0
 9131 06d7 8908     		.uleb128 .LEHB261-.LFB1227
 9132 06d9 05       		.uleb128 .LEHE261-.LEHB261
 9133 06da 00       		.uleb128 0
 9134 06db 00       		.uleb128 0
 9135 06dc 9E08     		.uleb128 .LEHB262-.LFB1227
 9136 06de 05       		.uleb128 .LEHE262-.LEHB262
 9137 06df 00       		.uleb128 0
 9138 06e0 00       		.uleb128 0
 9139              	.LLSDACSE1227:
 9140 06e1 01       		.byte	0x1
 9141 06e2 00       		.byte	0
 9142 06e3 00       		.align 4
 9143 06e4 00000000 		.long	0
 9144              	
 9145              	.LLSDATT1227:
 9146              		.text
 9148 5493 90       		.align 2
 9149 5494 6690662E 		.p2align 4,,15
 9149      0F1F8400 
 9149      00000000 
 9151              	_ZNK12_GLOBAL__N_123TestCheckArrayEqualTrue7RunImplEv:
 9152              	.LFB1223:
 9153              		.cfi_startproc
 9154              		.cfi_personality 0x9b,DW.ref.__gxx_personality_v0
 9155              		.cfi_lsda 0x1b,.LLSDA1223
 9156 54a0 55       		pushq	%rbp
 9157              		.cfi_def_cfa_offset 16
 9158              		.cfi_offset 6, -16
 9159 54a1 53       		pushq	%rbx
 9160              		.cfi_def_cfa_offset 24
 9161              		.cfi_offset 3, -24
 9162 54a2 31F6     		xorl	%esi, %esi
 9163 54a4 4883EC68 		subq	$104, %rsp
 9164              		.cfi_def_cfa_offset 128
 9165 54a8 488D6C24 		leaq	16(%rsp), %rbp
 9165      10
 9166 54ad 488D5C24 		leaq	48(%rsp), %rbx
 9166      30
 9167 54b2 64488B04 		movq	%fs:40, %rax
 9167      25280000 
 9167      00
 9168 54bb 48894424 		movq	%rax, 88(%rsp)
 9168      58
 9169 54c0 31C0     		xorl	%eax, %eax
 9170 54c2 4889EF   		movq	%rbp, %rdi
 9171              	.LEHB263:
 9172 54c5 E8000000 		call	_ZN8UnitTest11TestResultsC1EPNS_12TestReporterE@PLT
 9172      00
 9173 54ca 488D0D00 		leaq	.LC1(%rip), %rcx
 9173      000000
 9174 54d1 4531C0   		xorl	%r8d, %r8d
 9175 54d4 4889DF   		movq	%rbx, %rdi
 9176 54d7 4889CA   		movq	%rcx, %rdx
 9177 54da 4889CE   		movq	%rcx, %rsi
 9178 54dd E8000000 		call	_ZN8UnitTest11TestDetailsC1EPKcS2_S2_i@PLT
 9178      00
 9179              	.LEHE263:
 9180              	.LEHB264:
 9181 54e2 E8000000 		call	_ZN8UnitTest11CurrentTest7DetailsEv@PLT
 9181      00
 9182 54e7 488B30   		movq	(%rax), %rsi
 9183 54ea BABE0000 		movl	$190, %edx
 9183      00
 9184 54ef 4889DF   		movq	%rbx, %rdi
 9185 54f2 E8000000 		call	_ZN8UnitTest11TestDetailsC1ERKS0_i@PLT
 9185      00
 9186 54f7 4889EF   		movq	%rbp, %rdi
 9187 54fa E8000000 		call	_ZNK8UnitTest11TestResults15GetFailureCountEv@PLT
 9187      00
 9188 54ff 8944240C 		movl	%eax, 12(%rsp)
 9189 5503 C7442408 		movl	$0, 8(%rsp)
 9189      00000000 
 9190 550b E8000000 		call	_ZN8UnitTest11CurrentTest7ResultsEv@PLT
 9190      00
 9191 5510 488B38   		movq	(%rax), %rdi
 9192 5513 488D5424 		leaq	12(%rsp), %rdx
 9192      0C
 9193 5518 488D7424 		leaq	8(%rsp), %rsi
 9193      08
 9194 551d 4889D9   		movq	%rbx, %rcx
 9195 5520 E8000000 		call	_ZN8UnitTest10CheckEqualIiiEEvRNS_11TestResultsERKT_RKT0_RKNS_11TestDetailsE
 9195      00
 9196              	.LEHE264:
 9197              	.L746:
 9198 5525 488B4424 		movq	88(%rsp), %rax
 9198      58
 9199 552a 64483304 		xorq	%fs:40, %rax
 9199      25280000 
 9199      00
 9200 5533 7507     		jne	.L754
 9201 5535 4883C468 		addq	$104, %rsp
 9202              		.cfi_remember_state
 9203              		.cfi_def_cfa_offset 24
 9204 5539 5B       		popq	%rbx
 9205              		.cfi_def_cfa_offset 16
 9206 553a 5D       		popq	%rbp
 9207              		.cfi_def_cfa_offset 8
 9208 553b C3       		ret
 9209              	.L754:
 9210              		.cfi_restore_state
 9211 553c E8000000 		call	__stack_chk_fail@PLT
 9211      00
 9212              	.L751:
 9213 5541 4889C7   		movq	%rax, %rdi
 9214 5544 E8000000 		call	__cxa_begin_catch@PLT
 9214      00
 9215              	.LEHB265:
 9216 5549 E8000000 		call	_ZN8UnitTest11CurrentTest7ResultsEv@PLT
 9216      00
 9217 554e 488B28   		movq	(%rax), %rbp
 9218 5551 E8000000 		call	_ZN8UnitTest11CurrentTest7DetailsEv@PLT
 9218      00
 9219 5556 488B30   		movq	(%rax), %rsi
 9220 5559 BABE0000 		movl	$190, %edx
 9220      00
 9221 555e 4889DF   		movq	%rbx, %rdi
 9222 5561 E8000000 		call	_ZN8UnitTest11TestDetailsC1ERKS0_i@PLT
 9222      00
 9223 5566 488D1500 		leaq	.LC27(%rip), %rdx
 9223      000000
 9224 556d 4889DE   		movq	%rbx, %rsi
 9225 5570 4889EF   		movq	%rbp, %rdi
 9226 5573 E8000000 		call	_ZN8UnitTest11TestResults13OnTestFailureERKNS_11TestDetailsEPKc@PLT
 9226      00
 9227              	.LEHE265:
 9228              	.LEHB266:
 9229 5578 E8000000 		call	__cxa_end_catch@PLT
 9229      00
 9230              	.LEHE266:
 9231 557d EBA6     		jmp	.L746
 9232              	.L752:
 9233 557f 4889C3   		movq	%rax, %rbx
 9234 5582 E8000000 		call	__cxa_end_catch@PLT
 9234      00
 9235 5587 4889DF   		movq	%rbx, %rdi
 9236              	.LEHB267:
 9237 558a E8000000 		call	_Unwind_Resume@PLT
 9237      00
 9238              	.LEHE267:
 9239              		.cfi_endproc
 9240              	.LFE1223:
 9241              		.section	.gcc_except_table
 9242              		.align 4
 9243              	.LLSDA1223:
 9244 06e8 FF       		.byte	0xff
 9245 06e9 9B       		.byte	0x9b
 9246 06ea 21       		.uleb128 .LLSDATT1223-.LLSDATTD1223
 9247              	.LLSDATTD1223:
 9248 06eb 01       		.byte	0x1
 9249 06ec 19       		.uleb128 .LLSDACSE1223-.LLSDACSB1223
 9250              	.LLSDACSB1223:
 9251 06ed 25       		.uleb128 .LEHB263-.LFB1223
 9252 06ee 1D       		.uleb128 .LEHE263-.LEHB263
 9253 06ef 00       		.uleb128 0
 9254 06f0 00       		.uleb128 0
 9255 06f1 42       		.uleb128 .LEHB264-.LFB1223
 9256 06f2 43       		.uleb128 .LEHE264-.LEHB264
 9257 06f3 A101     		.uleb128 .L751-.LFB1223
 9258 06f5 01       		.uleb128 0x1
 9259 06f6 A901     		.uleb128 .LEHB265-.LFB1223
 9260 06f8 2F       		.uleb128 .LEHE265-.LEHB265
 9261 06f9 DF01     		.uleb128 .L752-.LFB1223
 9262 06fb 00       		.uleb128 0
 9263 06fc D801     		.uleb128 .LEHB266-.LFB1223
 9264 06fe 05       		.uleb128 .LEHE266-.LEHB266
 9265 06ff 00       		.uleb128 0
 9266 0700 00       		.uleb128 0
 9267 0701 EA01     		.uleb128 .LEHB267-.LFB1223
 9268 0703 05       		.uleb128 .LEHE267-.LEHB267
 9269 0704 00       		.uleb128 0
 9270 0705 00       		.uleb128 0
 9271              	.LLSDACSE1223:
 9272 0706 01       		.byte	0x1
 9273 0707 00       		.byte	0
 9274              		.align 4
 9275 0708 00000000 		.long	0
 9276              	
 9277              	.LLSDATT1223:
 9278              		.text
 9280              		.section	.rodata.str1.1
 9281              	.LC65:
 9282 00dd 68656164 		.string	"header.h"
 9282      65722E68 
 9282      00
 9283              		.section	.rodata.str1.8
 9284 06c2 00000000 		.align 8
 9284      0000
 9285              	.LC66:
 9286 06c8 556E6861 		.string	"Unhandled exception in CHECK_EQUAL(\"header.h\", reporter.lastFailedFile)"
 9286      6E646C65 
 9286      64206578 
 9286      63657074 
 9286      696F6E20 
 9287              		.align 8
 9288              	.LC67:
 9289 0710 556E6861 		.string	"Unhandled exception in CHECK_EQUAL(10, reporter.lastFailedLine)"
 9289      6E646C65 
 9289      64206578 
 9289      63657074 
 9289      696F6E20 
 9290              		.text
 9291 558f 90       		.align 2
 9292              		.p2align 4,,15
 9294              	_ZNK12_GLOBAL__N_136TestCheckCloseFailureIncludesDetails7RunImplEv:
 9295              	.LFB1219:
 9296              		.cfi_startproc
 9297              		.cfi_personality 0x9b,DW.ref.__gxx_personality_v0
 9298              		.cfi_lsda 0x1b,.LLSDA1219
 9299 5590 4157     		pushq	%r15
 9300              		.cfi_def_cfa_offset 16
 9301              		.cfi_offset 15, -16
 9302 5592 4156     		pushq	%r14
 9303              		.cfi_def_cfa_offset 24
 9304              		.cfi_offset 14, -24
 9305 5594 4155     		pushq	%r13
 9306              		.cfi_def_cfa_offset 32
 9307              		.cfi_offset 13, -32
 9308 5596 4154     		pushq	%r12
 9309              		.cfi_def_cfa_offset 40
 9310              		.cfi_offset 12, -40
 9311 5598 4C8D2500 		leaq	16+_ZTV17RecordingReporter(%rip), %r12
 9311      000000
 9312 559f 55       		pushq	%rbp
 9313              		.cfi_def_cfa_offset 48
 9314              		.cfi_offset 6, -48
 9315 55a0 53       		pushq	%rbx
 9316              		.cfi_def_cfa_offset 56
 9317              		.cfi_offset 3, -56
 9318 55a1 4881EC68 		subq	$2664, %rsp
 9318      0A0000
 9319              		.cfi_def_cfa_offset 2720
 9320 55a8 488DAC24 		leaq	544(%rsp), %rbp
 9320      20020000 
 9321 55b0 4C8D6C24 		leaq	32(%rsp), %r13
 9321      20
 9322 55b5 4C89A424 		movq	%r12, 544(%rsp)
 9322      20020000 
 9323 55bd 64488B04 		movq	%fs:40, %rax
 9323      25280000 
 9323      00
 9324 55c6 48898424 		movq	%rax, 2648(%rsp)
 9324      580A0000 
 9325 55ce 31C0     		xorl	%eax, %eax
 9326 55d0 4889EE   		movq	%rbp, %rsi
 9327 55d3 4C89EF   		movq	%r13, %rdi
 9328 55d6 C7842428 		movl	$0, 552(%rsp)
 9328      02000000 
 9328      000000
 9329 55e1 C784242C 		movl	$0, 1068(%rsp)
 9329      04000000 
 9329      000000
 9330 55ec C7842430 		movl	$0, 1328(%rsp)
 9330      05000000 
 9330      000000
 9331 55f7 C7842434 		movl	$0, 2100(%rsp)
 9331      08000000 
 9331      000000
 9332 5602 48C78424 		movq	$0, 2616(%rsp)
 9332      380A0000 
 9332      00000000 
 9333 560e 48C78424 		movq	$0, 2624(%rsp)
 9333      400A0000 
 9333      00000000 
 9334 561a C7842448 		movl	$0, 2632(%rsp)
 9334      0A000000 
 9334      000000
 9335 5625 C684242C 		movb	$0, 556(%rsp)
 9335      02000000 
 9336 562d C684242C 		movb	$0, 812(%rsp)
 9336      03000000 
 9337 5635 C6842430 		movb	$0, 1072(%rsp)
 9337      04000000 
 9338 563d C6842434 		movb	$0, 1332(%rsp)
 9338      05000000 
 9339 5645 C6842434 		movb	$0, 1588(%rsp)
 9339      06000000 
 9340 564d C6842434 		movb	$0, 1844(%rsp)
 9340      07000000 
 9341 5655 C6842438 		movb	$0, 2104(%rsp)
 9341      08000000 
 9342 565d C6842438 		movb	$0, 2360(%rsp)
 9342      09000000 
 9343              	.LEHB268:
 9344 5665 E8000000 		call	_ZN8UnitTest11TestResultsC1EPNS_12TestReporterE@PLT
 9344      00
 9345 566a 4C8D7424 		leaq	64(%rsp), %r14
 9345      40
 9346 566f 488D0D00 		leaq	.LC65(%rip), %rcx
 9346      000000
 9347 5676 488D1500 		leaq	.LC52(%rip), %rdx
 9347      000000
 9348 567d 488D3500 		leaq	.LC53(%rip), %rsi
 9348      000000
 9349 5684 41B80A00 		movl	$10, %r8d
 9349      0000
 9350 568a 4C89F7   		movq	%r14, %rdi
 9351 568d E8000000 		call	_ZN8UnitTest11TestDetailsC1EPKcS2_S2_i@PLT
 9351      00
 9352              	.LEHE268:
 9353 5692 488D9C24 		leaq	128(%rsp), %rbx
 9353      80000000 
 9354 569a 4C8D3D00 		leaq	24+_ZTCN8UnitTest15MemoryOutStreamE0_So(%rip), %r15
 9354      000000
 9355 56a1 488D8390 		leaq	144(%rbx), %rax
 9355      000000
 9356 56a8 4889C7   		movq	%rax, %rdi
 9357 56ab 48894424 		movq	%rax, 8(%rsp)
 9357      08
 9358 56b0 E8000000 		call	_ZNSt8ios_baseC2Ev@PLT
 9358      00
 9359 56b5 498D4728 		leaq	40(%r15), %rax
 9360 56b9 31F6     		xorl	%esi, %esi
 9361 56bb 48C78424 		movq	$0, 488(%rsp)
 9361      E8010000 
 9361      00000000 
 9362 56c7 C68424F0 		movb	$0, 496(%rsp)
 9362      01000000 
 9363 56cf C68424F1 		movb	$0, 497(%rsp)
 9363      01000000 
 9364 56d7 48898424 		movq	%rax, 272(%rsp)
 9364      10010000 
 9365 56df 488B4424 		movq	8(%rsp), %rax
 9365      08
 9366 56e4 48C78424 		movq	$0, 504(%rsp)
 9366      F8010000 
 9366      00000000 
 9367 56f0 48C78424 		movq	$0, 512(%rsp)
 9367      00020000 
 9367      00000000 
 9368 56fc 48C78424 		movq	$0, 520(%rsp)
 9368      08020000 
 9368      00000000 
 9369 5708 48C78424 		movq	$0, 528(%rsp)
 9369      10020000 
 9369      00000000 
 9370 5714 4889C7   		movq	%rax, %rdi
 9371 5717 4C89BC24 		movq	%r15, 128(%rsp)
 9371      80000000 
 9372              	.LEHB269:
 9373 571f E8000000 		call	_ZNSt9basic_iosIcSt11char_traitsIcEE4initEPSt15basic_streambufIcS1_E@PLT
 9373      00
 9374              	.LEHE269:
 9375 5724 488D0500 		leaq	24+_ZTCN8UnitTest15MemoryOutStreamE0_NSt7__cxx1119basic_ostringstreamIcSt11char_traitsIcESaIc
 9375      000000
 9376 572b 660FEFC0 		pxor	%xmm0, %xmm0
 9377 572f 488D7B40 		leaq	64(%rbx), %rdi
 9378 5733 48898424 		movq	%rax, 128(%rsp)
 9378      80000000 
 9379 573b 4883C028 		addq	$40, %rax
 9380 573f 48898424 		movq	%rax, 272(%rsp)
 9380      10010000 
 9381 5747 488D0500 		leaq	16+_ZTVSt15basic_streambufIcSt11char_traitsIcEE(%rip), %rax
 9381      000000
 9382 574e 0F298424 		movaps	%xmm0, 144(%rsp)
 9382      90000000 
 9383 5756 48898424 		movq	%rax, 136(%rsp)
 9383      88000000 
 9384 575e 0F298424 		movaps	%xmm0, 160(%rsp)
 9384      A0000000 
 9385 5766 0F298424 		movaps	%xmm0, 176(%rsp)
 9385      B0000000 
 9386 576e E8000000 		call	_ZNSt6localeC1Ev@PLT
 9386      00
 9387 5773 488D0500 		leaq	16+_ZTVNSt7__cxx1115basic_stringbufIcSt11char_traitsIcESaIcEEE(%rip), %rax
 9387      000000
 9388 577a 488D7308 		leaq	8(%rbx), %rsi
 9389 577e 48898424 		movq	%rax, 136(%rsp)
 9389      88000000 
 9390 5786 488D4360 		leaq	96(%rbx), %rax
 9391 578a C78424C8 		movl	$16, 200(%rsp)
 9391      00000010 
 9391      000000
 9392 5795 48C78424 		movq	$0, 216(%rsp)
 9392      D8000000 
 9392      00000000 
 9393 57a1 C68424E0 		movb	$0, 224(%rsp)
 9393      00000000 
 9394 57a9 48898424 		movq	%rax, 208(%rsp)
 9394      D0000000 
 9395 57b1 488B8424 		movq	128(%rsp), %rax
 9395      80000000 
 9396 57b9 488B78E8 		movq	-24(%rax), %rdi
 9397 57bd 4801DF   		addq	%rbx, %rdi
 9398              	.LEHB270:
 9399 57c0 E8000000 		call	_ZNSt9basic_iosIcSt11char_traitsIcEE4initEPSt15basic_streambufIcS1_E@PLT
 9399      00
 9400              	.LEHE270:
 9401 57c5 488D0500 		leaq	24+_ZTVN8UnitTest15MemoryOutStreamE(%rip), %rax
 9401      000000
 9402 57cc 488D3500 		leaq	.LC2(%rip), %rsi
 9402      000000
 9403 57d3 BA090000 		movl	$9, %edx
 9403      00
 9404 57d8 4889DF   		movq	%rbx, %rdi
 9405 57db 48C78424 		movq	$0, 248(%rsp)
 9405      F8000000 
 9405      00000000 
 9406 57e7 C6842400 		movb	$0, 256(%rsp)
 9406      01000000 
 9407 57ef 48898424 		movq	%rax, 128(%rsp)
 9407      80000000 
 9408 57f7 4883C028 		addq	$40, %rax
 9409 57fb 48898424 		movq	%rax, 272(%rsp)
 9409      10010000 
 9410 5803 488D8380 		leaq	128(%rbx), %rax
 9410      000000
 9411 580a 48898424 		movq	%rax, 240(%rsp)
 9411      F0000000 
 9412              	.LEHB271:
 9413 5812 E8000000 		call	_ZSt16__ostream_insertIcSt11char_traitsIcEERSt13basic_ostreamIT_T0_ES6_PKS3_l@PLT
 9413      00
 9414 5817 BE020000 		movl	$2, %esi
 9414      00
 9415 581c 4889DF   		movq	%rbx, %rdi
 9416 581f E8000000 		call	_ZNSolsEi@PLT
 9416      00
 9417 5824 488D3500 		leaq	.LC4(%rip), %rsi
 9417      000000
 9418 582b BA050000 		movl	$5, %edx
 9418      00
 9419 5830 4889C7   		movq	%rax, %rdi
 9420 5833 48894424 		movq	%rax, 8(%rsp)
 9420      08
 9421 5838 E8000000 		call	_ZSt16__ostream_insertIcSt11char_traitsIcEERSt13basic_ostreamIT_T0_ES6_PKS3_l@PLT
 9421      00
 9422 583d 488B7C24 		movq	8(%rsp), %rdi
 9422      08
 9423 5842 F20F1005 		movsd	.LC5(%rip), %xmm0
 9423      00000000 
 9424 584a E8000000 		call	_ZNSo9_M_insertIdEERSoT_@PLT
 9424      00
 9425 584f 488D3500 		leaq	.LC6(%rip), %rsi
 9425      000000
 9426 5856 BA090000 		movl	$9, %edx
 9426      00
 9427 585b 4889C7   		movq	%rax, %rdi
 9428 585e 48894424 		movq	%rax, 8(%rsp)
 9428      08
 9429 5863 E8000000 		call	_ZSt16__ostream_insertIcSt11char_traitsIcEERSt13basic_ostreamIT_T0_ES6_PKS3_l@PLT
 9429      00
 9430 5868 488B7C24 		movq	8(%rsp), %rdi
 9430      08
 9431 586d BE030000 		movl	$3, %esi
 9431      00
 9432 5872 E8000000 		call	_ZNSolsEi@PLT
 9432      00
 9433 5877 4889DF   		movq	%rbx, %rdi
 9434 587a E8000000 		call	_ZNK8UnitTest15MemoryOutStream7GetTextEv@PLT
 9434      00
 9435 587f 4889C2   		movq	%rax, %rdx
 9436 5882 4C89F6   		movq	%r14, %rsi
 9437 5885 4C89EF   		movq	%r13, %rdi
 9438 5888 E8000000 		call	_ZN8UnitTest11TestResults13OnTestFailureERKNS_11TestDetailsEPKc@PLT
 9438      00
 9439              	.LEHE271:
 9440 588d 488D0500 		leaq	24+_ZTVN8UnitTest15MemoryOutStreamE(%rip), %rax
 9440      000000
 9441 5894 488BBC24 		movq	240(%rsp), %rdi
 9441      F0000000 
 9442 589c 48898424 		movq	%rax, 128(%rsp)
 9442      80000000 
 9443 58a4 4883C028 		addq	$40, %rax
 9444 58a8 48898424 		movq	%rax, 272(%rsp)
 9444      10010000 
 9445 58b0 488D8380 		leaq	128(%rbx), %rax
 9445      000000
 9446 58b7 4839C7   		cmpq	%rax, %rdi
 9447 58ba 7405     		je	.L761
 9448 58bc E8000000 		call	_ZdlPv@PLT
 9448      00
 9449              	.L761:
 9450 58c1 488D0500 		leaq	64+_ZTCN8UnitTest15MemoryOutStreamE0_NSt7__cxx1119basic_ostringstreamIcSt11char_traitsIcESaIc
 9450      000000
 9451 58c8 488BBC24 		movq	208(%rsp), %rdi
 9451      D0000000 
 9452 58d0 F30F7E05 		movq	.LC14(%rip), %xmm0
 9452      00000000 
 9453 58d8 48898424 		movq	%rax, 272(%rsp)
 9453      10010000 
 9454 58e0 488D4360 		leaq	96(%rbx), %rax
 9455 58e4 0F160500 		movhps	.LC15(%rip), %xmm0
 9455      000000
 9456 58eb 4839C7   		cmpq	%rax, %rdi
 9457 58ee 0F298424 		movaps	%xmm0, 128(%rsp)
 9457      80000000 
 9458 58f6 7405     		je	.L762
 9459 58f8 E8000000 		call	_ZdlPv@PLT
 9459      00
 9460              	.L762:
 9461 58fd 488D0500 		leaq	16+_ZTVSt15basic_streambufIcSt11char_traitsIcEE(%rip), %rax
 9461      000000
 9462 5904 488D7B40 		leaq	64(%rbx), %rdi
 9463 5908 48898424 		movq	%rax, 136(%rsp)
 9463      88000000 
 9464 5910 E8000000 		call	_ZNSt6localeD1Ev@PLT
 9464      00
 9465 5915 488D0500 		leaq	16+_ZTVSt9basic_iosIcSt11char_traitsIcEE(%rip), %rax
 9465      000000
 9466 591c 488DBB90 		leaq	144(%rbx), %rdi
 9466      000000
 9467 5923 4C89BC24 		movq	%r15, 128(%rsp)
 9467      80000000 
 9468 592b 48898424 		movq	%rax, 272(%rsp)
 9468      10010000 
 9469              	.LEHB272:
 9470 5933 E8000000 		call	_ZNSt8ios_baseD2Ev@PLT
 9470      00
 9471              	.LEHE272:
 9472              	.LEHB273:
 9473 5938 E8000000 		call	_ZN8UnitTest11CurrentTest7DetailsEv@PLT
 9473      00
 9474 593d 488D5C24 		leaq	96(%rsp), %rbx
 9474      60
 9475 5942 488B30   		movq	(%rax), %rsi
 9476 5945 BAB10000 		movl	$177, %edx
 9476      00
 9477 594a 4889DF   		movq	%rbx, %rdi
 9478 594d E8000000 		call	_ZN8UnitTest11TestDetailsC1ERKS0_i@PLT
 9478      00
 9479 5952 E8000000 		call	_ZN8UnitTest11CurrentTest7ResultsEv@PLT
 9479      00
 9480 5957 488B38   		movq	(%rax), %rdi
 9481 595a 488D9514 		leaq	1044(%rbp), %rdx
 9481      040000
 9482 5961 488D3500 		leaq	.LC53(%rip), %rsi
 9482      000000
 9483 5968 4889D9   		movq	%rbx, %rcx
 9484 596b E8000000 		call	_ZN8UnitTest10CheckEqualERNS_11TestResultsEPKcPcRKNS_11TestDetailsE@PLT
 9484      00
 9485              	.LEHE273:
 9486              	.L766:
 9487              	.LEHB274:
 9488 5970 E8000000 		call	_ZN8UnitTest11CurrentTest7DetailsEv@PLT
 9488      00
 9489 5975 488B30   		movq	(%rax), %rsi
 9490 5978 BAB20000 		movl	$178, %edx
 9490      00
 9491 597d 4889DF   		movq	%rbx, %rdi
 9492 5980 E8000000 		call	_ZN8UnitTest11TestDetailsC1ERKS0_i@PLT
 9492      00
 9493 5985 E8000000 		call	_ZN8UnitTest11CurrentTest7ResultsEv@PLT
 9493      00
 9494 598a 488B38   		movq	(%rax), %rdi
 9495 598d 488D9514 		leaq	788(%rbp), %rdx
 9495      030000
 9496 5994 488D3500 		leaq	.LC52(%rip), %rsi
 9496      000000
 9497 599b 4889D9   		movq	%rbx, %rcx
 9498 599e E8000000 		call	_ZN8UnitTest10CheckEqualERNS_11TestResultsEPKcPcRKNS_11TestDetailsE@PLT
 9498      00
 9499              	.LEHE274:
 9500              	.L769:
 9501              	.LEHB275:
 9502 59a3 E8000000 		call	_ZN8UnitTest11CurrentTest7DetailsEv@PLT
 9502      00
 9503 59a8 488B30   		movq	(%rax), %rsi
 9504 59ab BAB30000 		movl	$179, %edx
 9504      00
 9505 59b0 4889DF   		movq	%rbx, %rdi
 9506 59b3 E8000000 		call	_ZN8UnitTest11TestDetailsC1ERKS0_i@PLT
 9506      00
 9507 59b8 E8000000 		call	_ZN8UnitTest11CurrentTest7ResultsEv@PLT
 9507      00
 9508 59bd 488B38   		movq	(%rax), %rdi
 9509 59c0 488D9510 		leaq	528(%rbp), %rdx
 9509      020000
 9510 59c7 488D3500 		leaq	.LC65(%rip), %rsi
 9510      000000
 9511 59ce 4889D9   		movq	%rbx, %rcx
 9512 59d1 E8000000 		call	_ZN8UnitTest10CheckEqualERNS_11TestResultsEPKcPcRKNS_11TestDetailsE@PLT
 9512      00
 9513              	.LEHE275:
 9514              	.L772:
 9515              	.LEHB276:
 9516 59d6 E8000000 		call	_ZN8UnitTest11CurrentTest7DetailsEv@PLT
 9516      00
 9517 59db 488B30   		movq	(%rax), %rsi
 9518 59de BAB40000 		movl	$180, %edx
 9518      00
 9519 59e3 4889DF   		movq	%rbx, %rdi
 9520 59e6 E8000000 		call	_ZN8UnitTest11TestDetailsC1ERKS0_i@PLT
 9520      00
 9521 59eb C744241C 		movl	$10, 28(%rsp)
 9521      0A000000 
 9522 59f3 E8000000 		call	_ZN8UnitTest11CurrentTest7ResultsEv@PLT
 9522      00
 9523 59f8 488B38   		movq	(%rax), %rdi
 9524 59fb 488D9510 		leaq	784(%rbp), %rdx
 9524      030000
 9525 5a02 488D7424 		leaq	28(%rsp), %rsi
 9525      1C
 9526 5a07 4889D9   		movq	%rbx, %rcx
 9527 5a0a E8000000 		call	_ZN8UnitTest10CheckEqualIiiEEvRNS_11TestResultsERKT_RKT0_RKNS_11TestDetailsE
 9527      00
 9528              	.LEHE276:
 9529              	.L775:
 9530 5a0f 4889EF   		movq	%rbp, %rdi
 9531 5a12 4C89A424 		movq	%r12, 544(%rsp)
 9531      20020000 
 9532              	.LEHB277:
 9533 5a1a E8000000 		call	_ZN8UnitTest12TestReporterD2Ev@PLT
 9533      00
 9534              	.LEHE277:
 9535 5a1f 488B8424 		movq	2648(%rsp), %rax
 9535      580A0000 
 9536 5a27 64483304 		xorq	%fs:40, %rax
 9536      25280000 
 9536      00
 9537 5a30 7512     		jne	.L795
 9538 5a32 4881C468 		addq	$2664, %rsp
 9538      0A0000
 9539              		.cfi_remember_state
 9540              		.cfi_def_cfa_offset 56
 9541 5a39 5B       		popq	%rbx
 9542              		.cfi_def_cfa_offset 48
 9543 5a3a 5D       		popq	%rbp
 9544              		.cfi_def_cfa_offset 40
 9545 5a3b 415C     		popq	%r12
 9546              		.cfi_def_cfa_offset 32
 9547 5a3d 415D     		popq	%r13
 9548              		.cfi_def_cfa_offset 24
 9549 5a3f 415E     		popq	%r14
 9550              		.cfi_def_cfa_offset 16
 9551 5a41 415F     		popq	%r15
 9552              		.cfi_def_cfa_offset 8
 9553 5a43 C3       		ret
 9554              	.L795:
 9555              		.cfi_restore_state
 9556 5a44 E8000000 		call	__stack_chk_fail@PLT
 9556      00
 9557              	.L787:
 9558 5a49 4989C5   		movq	%rax, %r13
 9559 5a4c 4889DF   		movq	%rbx, %rdi
 9560 5a4f 4C89EB   		movq	%r13, %rbx
 9561 5a52 E8000000 		call	_ZN8UnitTest15MemoryOutStreamD1Ev
 9561      00
 9562              	.L760:
 9563 5a57 4889EF   		movq	%rbp, %rdi
 9564 5a5a 4C89A424 		movq	%r12, 544(%rsp)
 9564      20020000 
 9565 5a62 E8000000 		call	_ZN8UnitTest12TestReporterD2Ev@PLT
 9565      00
 9566 5a67 4889DF   		movq	%rbx, %rdi
 9567              	.LEHB278:
 9568 5a6a E8000000 		call	_Unwind_Resume@PLT
 9568      00
 9569              	.LEHE278:
 9570              	.L778:
 9571 5a6f 4889C3   		movq	%rax, %rbx
 9572 5a72 EBE3     		jmp	.L760
 9573              	.L789:
 9574 5a74 488D7B08 		leaq	8(%rbx), %rdi
 9575 5a78 4989C5   		movq	%rax, %r13
 9576 5a7b E8000000 		call	_ZNSt7__cxx1115basic_stringbufIcSt11char_traitsIcESaIcEED1Ev
 9576      00
 9577 5a80 4C89BC24 		movq	%r15, 128(%rsp)
 9577      80000000 
 9578              	.L758:
 9579 5a88 488D0500 		leaq	16+_ZTVSt9basic_iosIcSt11char_traitsIcEE(%rip), %rax
 9579      000000
 9580 5a8f 488DBB90 		leaq	144(%rbx), %rdi
 9580      000000
 9581 5a96 4C89EB   		movq	%r13, %rbx
 9582 5a99 48898424 		movq	%rax, 272(%rsp)
 9582      10010000 
 9583 5aa1 E8000000 		call	_ZNSt8ios_baseD2Ev@PLT
 9583      00
 9584 5aa6 EBAF     		jmp	.L760
 9585              	.L788:
 9586 5aa8 4989C5   		movq	%rax, %r13
 9587 5aab EBDB     		jmp	.L758
 9588              	.L785:
 9589 5aad 4889C7   		movq	%rax, %rdi
 9590 5ab0 E8000000 		call	__cxa_begin_catch@PLT
 9590      00
 9591              	.LEHB279:
 9592 5ab5 E8000000 		call	_ZN8UnitTest11CurrentTest7ResultsEv@PLT
 9592      00
 9593 5aba 4C8B28   		movq	(%rax), %r13
 9594 5abd E8000000 		call	_ZN8UnitTest11CurrentTest7DetailsEv@PLT
 9594      00
 9595 5ac2 488B30   		movq	(%rax), %rsi
 9596 5ac5 BAB40000 		movl	$180, %edx
 9596      00
 9597 5aca 4889DF   		movq	%rbx, %rdi
 9598 5acd E8000000 		call	_ZN8UnitTest11TestDetailsC1ERKS0_i@PLT
 9598      00
 9599 5ad2 488D1500 		leaq	.LC67(%rip), %rdx
 9599      000000
 9600 5ad9 4889DE   		movq	%rbx, %rsi
 9601 5adc 4C89EF   		movq	%r13, %rdi
 9602 5adf E8000000 		call	_ZN8UnitTest11TestResults13OnTestFailureERKNS_11TestDetailsEPKc@PLT
 9602      00
 9603              	.LEHE279:
 9604              	.LEHB280:
 9605 5ae4 E8000000 		call	__cxa_end_catch@PLT
 9605      00
 9606              	.LEHE280:
 9607 5ae9 E921FFFF 		jmp	.L775
 9607      FF
 9608              	.L783:
 9609 5aee 4889C7   		movq	%rax, %rdi
 9610 5af1 E8000000 		call	__cxa_begin_catch@PLT
 9610      00
 9611              	.LEHB281:
 9612 5af6 E8000000 		call	_ZN8UnitTest11CurrentTest7ResultsEv@PLT
 9612      00
 9613 5afb 4C8B28   		movq	(%rax), %r13
 9614 5afe E8000000 		call	_ZN8UnitTest11CurrentTest7DetailsEv@PLT
 9614      00
 9615 5b03 488B30   		movq	(%rax), %rsi
 9616 5b06 BAB30000 		movl	$179, %edx
 9616      00
 9617 5b0b 4889DF   		movq	%rbx, %rdi
 9618 5b0e E8000000 		call	_ZN8UnitTest11TestDetailsC1ERKS0_i@PLT
 9618      00
 9619 5b13 488D1500 		leaq	.LC66(%rip), %rdx
 9619      000000
 9620 5b1a 4889DE   		movq	%rbx, %rsi
 9621 5b1d 4C89EF   		movq	%r13, %rdi
 9622 5b20 E8000000 		call	_ZN8UnitTest11TestResults13OnTestFailureERKNS_11TestDetailsEPKc@PLT
 9622      00
 9623              	.LEHE281:
 9624              	.LEHB282:
 9625 5b25 E8000000 		call	__cxa_end_catch@PLT
 9625      00
 9626              	.LEHE282:
 9627 5b2a E9A7FEFF 		jmp	.L772
 9627      FF
 9628              	.L786:
 9629 5b2f 4889C3   		movq	%rax, %rbx
 9630 5b32 E8000000 		call	__cxa_end_catch@PLT
 9630      00
 9631 5b37 E91BFFFF 		jmp	.L760
 9631      FF
 9632              	.L784:
 9633 5b3c 4889C3   		movq	%rax, %rbx
 9634 5b3f E8000000 		call	__cxa_end_catch@PLT
 9634      00
 9635 5b44 E90EFFFF 		jmp	.L760
 9635      FF
 9636              	.L781:
 9637 5b49 4889C7   		movq	%rax, %rdi
 9638 5b4c E8000000 		call	__cxa_begin_catch@PLT
 9638      00
 9639              	.LEHB283:
 9640 5b51 E8000000 		call	_ZN8UnitTest11CurrentTest7ResultsEv@PLT
 9640      00
 9641 5b56 4C8B28   		movq	(%rax), %r13
 9642 5b59 E8000000 		call	_ZN8UnitTest11CurrentTest7DetailsEv@PLT
 9642      00
 9643 5b5e 488B30   		movq	(%rax), %rsi
 9644 5b61 BAB20000 		movl	$178, %edx
 9644      00
 9645 5b66 4889DF   		movq	%rbx, %rdi
 9646 5b69 E8000000 		call	_ZN8UnitTest11TestDetailsC1ERKS0_i@PLT
 9646      00
 9647 5b6e 488D1500 		leaq	.LC55(%rip), %rdx
 9647      000000
 9648 5b75 4889DE   		movq	%rbx, %rsi
 9649 5b78 4C89EF   		movq	%r13, %rdi
 9650 5b7b E8000000 		call	_ZN8UnitTest11TestResults13OnTestFailureERKNS_11TestDetailsEPKc@PLT
 9650      00
 9651              	.LEHE283:
 9652              	.LEHB284:
 9653 5b80 E8000000 		call	__cxa_end_catch@PLT
 9653      00
 9654              	.LEHE284:
 9655 5b85 E919FEFF 		jmp	.L769
 9655      FF
 9656              	.L779:
 9657 5b8a 4889C7   		movq	%rax, %rdi
 9658 5b8d E8000000 		call	__cxa_begin_catch@PLT
 9658      00
 9659              	.LEHB285:
 9660 5b92 E8000000 		call	_ZN8UnitTest11CurrentTest7ResultsEv@PLT
 9660      00
 9661 5b97 4C8B28   		movq	(%rax), %r13
 9662 5b9a E8000000 		call	_ZN8UnitTest11CurrentTest7DetailsEv@PLT
 9662      00
 9663 5b9f 488D5C24 		leaq	96(%rsp), %rbx
 9663      60
 9664 5ba4 488B30   		movq	(%rax), %rsi
 9665 5ba7 BAB10000 		movl	$177, %edx
 9665      00
 9666 5bac 4889DF   		movq	%rbx, %rdi
 9667 5baf E8000000 		call	_ZN8UnitTest11TestDetailsC1ERKS0_i@PLT
 9667      00
 9668 5bb4 488D1500 		leaq	.LC54(%rip), %rdx
 9668      000000
 9669 5bbb 4889DE   		movq	%rbx, %rsi
 9670 5bbe 4C89EF   		movq	%r13, %rdi
 9671 5bc1 E8000000 		call	_ZN8UnitTest11TestResults13OnTestFailureERKNS_11TestDetailsEPKc@PLT
 9671      00
 9672              	.LEHE285:
 9673              	.LEHB286:
 9674 5bc6 E8000000 		call	__cxa_end_catch@PLT
 9674      00
 9675              	.LEHE286:
 9676 5bcb E9A0FDFF 		jmp	.L766
 9676      FF
 9677              	.L782:
 9678 5bd0 4889C3   		movq	%rax, %rbx
 9679 5bd3 E8000000 		call	__cxa_end_catch@PLT
 9679      00
 9680 5bd8 E97AFEFF 		jmp	.L760
 9680      FF
 9681              	.L780:
 9682 5bdd 4889C3   		movq	%rax, %rbx
 9683 5be0 E8000000 		call	__cxa_end_catch@PLT
 9683      00
 9684 5be5 E96DFEFF 		jmp	.L760
 9684      FF
 9685              		.cfi_endproc
 9686              	.LFE1219:
 9687              		.section	.gcc_except_table
 9688              		.align 4
 9689              	.LLSDA1219:
 9690 070c FF       		.byte	0xff
 9691 070d 9B       		.byte	0x9b
 9692 070e 79       		.uleb128 .LLSDATT1219-.LLSDATTD1219
 9693              	.LLSDATTD1219:
 9694 070f 01       		.byte	0x1
 9695 0710 70       		.uleb128 .LLSDACSE1219-.LLSDACSB1219
 9696              	.LLSDACSB1219:
 9697 0711 D501     		.uleb128 .LEHB268-.LFB1219
 9698 0713 2D       		.uleb128 .LEHE268-.LEHB268
 9699 0714 DF09     		.uleb128 .L778-.LFB1219
 9700 0716 00       		.uleb128 0
 9701 0717 8F03     		.uleb128 .LEHB269-.LFB1219
 9702 0719 05       		.uleb128 .LEHE269-.LEHB269
 9703 071a 980A     		.uleb128 .L788-.LFB1219
 9704 071c 00       		.uleb128 0
 9705 071d B004     		.uleb128 .LEHB270-.LFB1219
 9706 071f 05       		.uleb128 .LEHE270-.LEHB270
 9707 0720 E409     		.uleb128 .L789-.LFB1219
 9708 0722 00       		.uleb128 0
 9709 0723 8205     		.uleb128 .LEHB271-.LFB1219
 9710 0725 7B       		.uleb128 .LEHE271-.LEHB271
 9711 0726 B909     		.uleb128 .L787-.LFB1219
 9712 0728 00       		.uleb128 0
 9713 0729 A307     		.uleb128 .LEHB272-.LFB1219
 9714 072b 05       		.uleb128 .LEHE272-.LEHB272
 9715 072c DF09     		.uleb128 .L778-.LFB1219
 9716 072e 00       		.uleb128 0
 9717 072f A807     		.uleb128 .LEHB273-.LFB1219
 9718 0731 38       		.uleb128 .LEHE273-.LEHB273
 9719 0732 FA0B     		.uleb128 .L779-.LFB1219
 9720 0734 01       		.uleb128 0x1
 9721 0735 E007     		.uleb128 .LEHB274-.LFB1219
 9722 0737 33       		.uleb128 .LEHE274-.LEHB274
 9723 0738 B90B     		.uleb128 .L781-.LFB1219
 9724 073a 01       		.uleb128 0x1
 9725 073b 9308     		.uleb128 .LEHB275-.LFB1219
 9726 073d 33       		.uleb128 .LEHE275-.LEHB275
 9727 073e DE0A     		.uleb128 .L783-.LFB1219
 9728 0740 01       		.uleb128 0x1
 9729 0741 C608     		.uleb128 .LEHB276-.LFB1219
 9730 0743 39       		.uleb128 .LEHE276-.LEHB276
 9731 0744 9D0A     		.uleb128 .L785-.LFB1219
 9732 0746 01       		.uleb128 0x1
 9733 0747 8A09     		.uleb128 .LEHB277-.LFB1219
 9734 0749 05       		.uleb128 .LEHE277-.LEHB277
 9735 074a 00       		.uleb128 0
 9736 074b 00       		.uleb128 0
 9737 074c DA09     		.uleb128 .LEHB278-.LFB1219
 9738 074e 05       		.uleb128 .LEHE278-.LEHB278
 9739 074f 00       		.uleb128 0
 9740 0750 00       		.uleb128 0
 9741 0751 A50A     		.uleb128 .LEHB279-.LFB1219
 9742 0753 2F       		.uleb128 .LEHE279-.LEHB279
 9743 0754 9F0B     		.uleb128 .L786-.LFB1219
 9744 0756 00       		.uleb128 0
 9745 0757 D40A     		.uleb128 .LEHB280-.LFB1219
 9746 0759 05       		.uleb128 .LEHE280-.LEHB280
 9747 075a DF09     		.uleb128 .L778-.LFB1219
 9748 075c 00       		.uleb128 0
 9749 075d E60A     		.uleb128 .LEHB281-.LFB1219
 9750 075f 2F       		.uleb128 .LEHE281-.LEHB281
 9751 0760 AC0B     		.uleb128 .L784-.LFB1219
 9752 0762 00       		.uleb128 0
 9753 0763 950B     		.uleb128 .LEHB282-.LFB1219
 9754 0765 05       		.uleb128 .LEHE282-.LEHB282
 9755 0766 DF09     		.uleb128 .L778-.LFB1219
 9756 0768 00       		.uleb128 0
 9757 0769 C10B     		.uleb128 .LEHB283-.LFB1219
 9758 076b 2F       		.uleb128 .LEHE283-.LEHB283
 9759 076c C00C     		.uleb128 .L782-.LFB1219
 9760 076e 00       		.uleb128 0
 9761 076f F00B     		.uleb128 .LEHB284-.LFB1219
 9762 0771 05       		.uleb128 .LEHE284-.LEHB284
 9763 0772 DF09     		.uleb128 .L778-.LFB1219
 9764 0774 00       		.uleb128 0
 9765 0775 820C     		.uleb128 .LEHB285-.LFB1219
 9766 0777 34       		.uleb128 .LEHE285-.LEHB285
 9767 0778 CD0C     		.uleb128 .L780-.LFB1219
 9768 077a 00       		.uleb128 0
 9769 077b B60C     		.uleb128 .LEHB286-.LFB1219
 9770 077d 05       		.uleb128 .LEHE286-.LEHB286
 9771 077e DF09     		.uleb128 .L778-.LFB1219
 9772 0780 00       		.uleb128 0
 9773              	.LLSDACSE1219:
 9774 0781 01       		.byte	0x1
 9775 0782 00       		.byte	0
 9776 0783 00       		.align 4
 9777 0784 00000000 		.long	0
 9778              	
 9779              	.LLSDATT1219:
 9780              		.text
 9782              		.align 2
 9783 5bea 660F1F44 		.p2align 4,,15
 9783      0000
 9785              	_ZNK12_GLOBAL__N_139TestCheckCloseWithNaNAgainstItselfFails7RunImplEv:
 9786              	.LFB1207:
 9787              		.cfi_startproc
 9788              		.cfi_personality 0x9b,DW.ref.__gxx_personality_v0
 9789              		.cfi_lsda 0x1b,.LLSDA1207
 9790 5bf0 4157     		pushq	%r15
 9791              		.cfi_def_cfa_offset 16
 9792              		.cfi_offset 15, -16
 9793 5bf2 4156     		pushq	%r14
 9794              		.cfi_def_cfa_offset 24
 9795              		.cfi_offset 14, -24
 9796 5bf4 31F6     		xorl	%esi, %esi
 9797 5bf6 4155     		pushq	%r13
 9798              		.cfi_def_cfa_offset 32
 9799              		.cfi_offset 13, -32
 9800 5bf8 4154     		pushq	%r12
 9801              		.cfi_def_cfa_offset 40
 9802              		.cfi_offset 12, -40
 9803 5bfa 4C8D2D00 		leaq	24+_ZTCN8UnitTest15MemoryOutStreamE0_So(%rip), %r13
 9803      000000
 9804 5c01 55       		pushq	%rbp
 9805              		.cfi_def_cfa_offset 48
 9806              		.cfi_offset 6, -48
 9807 5c02 53       		pushq	%rbx
 9808              		.cfi_def_cfa_offset 56
 9809              		.cfi_offset 3, -56
 9810 5c03 4881EC08 		subq	$520, %rsp
 9810      020000
 9811              		.cfi_def_cfa_offset 576
 9812 5c0a 4C8D6424 		leaq	32(%rsp), %r12
 9812      20
 9813 5c0f 488D5C24 		leaq	96(%rsp), %rbx
 9813      60
 9814 5c14 488D6C24 		leaq	64(%rsp), %rbp
 9814      40
 9815 5c19 64488B04 		movq	%fs:40, %rax
 9815      25280000 
 9815      00
 9816 5c22 48898424 		movq	%rax, 504(%rsp)
 9816      F8010000 
 9817 5c2a 31C0     		xorl	%eax, %eax
 9818 5c2c 4C89E7   		movq	%r12, %rdi
 9819 5c2f 4C8DB390 		leaq	144(%rbx), %r14
 9819      000000
 9820              	.LEHB287:
 9821 5c36 E8000000 		call	_ZN8UnitTest11TestResultsC1EPNS_12TestReporterE@PLT
 9821      00
 9822 5c3b 488D0D00 		leaq	.LC1(%rip), %rcx
 9822      000000
 9823 5c42 4531C0   		xorl	%r8d, %r8d
 9824 5c45 4889EF   		movq	%rbp, %rdi
 9825 5c48 4889CE   		movq	%rcx, %rsi
 9826 5c4b 4889CA   		movq	%rcx, %rdx
 9827 5c4e E8000000 		call	_ZN8UnitTest11TestDetailsC1EPKcS2_S2_i@PLT
 9827      00
 9828              	.LEHE287:
 9829 5c53 4C89F7   		movq	%r14, %rdi
 9830 5c56 E8000000 		call	_ZNSt8ios_baseC2Ev@PLT
 9830      00
 9831 5c5b 498D4528 		leaq	40(%r13), %rax
 9832 5c5f 31F6     		xorl	%esi, %esi
 9833 5c61 4C89F7   		movq	%r14, %rdi
 9834 5c64 48C78424 		movq	$0, 456(%rsp)
 9834      C8010000 
 9834      00000000 
 9835 5c70 C68424D0 		movb	$0, 464(%rsp)
 9835      01000000 
 9836 5c78 C68424D1 		movb	$0, 465(%rsp)
 9836      01000000 
 9837 5c80 48C78424 		movq	$0, 472(%rsp)
 9837      D8010000 
 9837      00000000 
 9838 5c8c 48C78424 		movq	$0, 480(%rsp)
 9838      E0010000 
 9838      00000000 
 9839 5c98 48C78424 		movq	$0, 488(%rsp)
 9839      E8010000 
 9839      00000000 
 9840 5ca4 48C78424 		movq	$0, 496(%rsp)
 9840      F0010000 
 9840      00000000 
 9841 5cb0 4C896C24 		movq	%r13, 96(%rsp)
 9841      60
 9842 5cb5 48898424 		movq	%rax, 240(%rsp)
 9842      F0000000 
 9843              	.LEHB288:
 9844 5cbd E8000000 		call	_ZNSt9basic_iosIcSt11char_traitsIcEE4initEPSt15basic_streambufIcS1_E@PLT
 9844      00
 9845              	.LEHE288:
 9846 5cc2 660FEFC0 		pxor	%xmm0, %xmm0
 9847 5cc6 488D0500 		leaq	24+_ZTCN8UnitTest15MemoryOutStreamE0_NSt7__cxx1119basic_ostringstreamIcSt11char_traitsIcESaIc
 9847      000000
 9848 5ccd 488D7B40 		leaq	64(%rbx), %rdi
 9849 5cd1 4C8D3500 		leaq	16+_ZTVSt15basic_streambufIcSt11char_traitsIcEE(%rip), %r14
 9849      000000
 9850 5cd8 48894424 		movq	%rax, 96(%rsp)
 9850      60
 9851 5cdd 4883C028 		addq	$40, %rax
 9852 5ce1 48898424 		movq	%rax, 240(%rsp)
 9852      F0000000 
 9853 5ce9 4C897424 		movq	%r14, 104(%rsp)
 9853      68
 9854 5cee 0F294424 		movaps	%xmm0, 112(%rsp)
 9854      70
 9855 5cf3 0F298424 		movaps	%xmm0, 128(%rsp)
 9855      80000000 
 9856 5cfb 0F298424 		movaps	%xmm0, 144(%rsp)
 9856      90000000 
 9857 5d03 E8000000 		call	_ZNSt6localeC1Ev@PLT
 9857      00
 9858 5d08 488D0500 		leaq	16+_ZTVNSt7__cxx1115basic_stringbufIcSt11char_traitsIcESaIcEEE(%rip), %rax
 9858      000000
 9859 5d0f 488D7308 		leaq	8(%rbx), %rsi
 9860 5d13 48894424 		movq	%rax, 104(%rsp)
 9860      68
 9861 5d18 488D4360 		leaq	96(%rbx), %rax
 9862 5d1c C78424A8 		movl	$16, 168(%rsp)
 9862      00000010 
 9862      000000
 9863 5d27 48C78424 		movq	$0, 184(%rsp)
 9863      B8000000 
 9863      00000000 
 9864 5d33 C68424C0 		movb	$0, 192(%rsp)
 9864      00000000 
 9865 5d3b 48898424 		movq	%rax, 176(%rsp)
 9865      B0000000 
 9866 5d43 488B4424 		movq	96(%rsp), %rax
 9866      60
 9867 5d48 488B78E8 		movq	-24(%rax), %rdi
 9868 5d4c 4801DF   		addq	%rbx, %rdi
 9869              	.LEHB289:
 9870 5d4f E8000000 		call	_ZNSt9basic_iosIcSt11char_traitsIcEE4initEPSt15basic_streambufIcS1_E@PLT
 9870      00
 9871              	.LEHE289:
 9872 5d54 4C8D3D00 		leaq	24+_ZTVN8UnitTest15MemoryOutStreamE(%rip), %r15
 9872      000000
 9873 5d5b 488D3500 		leaq	.LC2(%rip), %rsi
 9873      000000
 9874 5d62 BA090000 		movl	$9, %edx
 9874      00
 9875 5d67 4889DF   		movq	%rbx, %rdi
 9876 5d6a 48C78424 		movq	$0, 216(%rsp)
 9876      D8000000 
 9876      00000000 
 9877 5d76 C68424E0 		movb	$0, 224(%rsp)
 9877      00000000 
 9878 5d7e 498D4728 		leaq	40(%r15), %rax
 9879 5d82 4C897C24 		movq	%r15, 96(%rsp)
 9879      60
 9880 5d87 48898424 		movq	%rax, 240(%rsp)
 9880      F0000000 
 9881 5d8f 488D8380 		leaq	128(%rbx), %rax
 9881      000000
 9882 5d96 48898424 		movq	%rax, 208(%rsp)
 9882      D0000000 
 9883              	.LEHB290:
 9884 5d9e E8000000 		call	_ZSt16__ostream_insertIcSt11char_traitsIcEERSt13basic_ostreamIT_T0_ES6_PKS3_l@PLT
 9884      00
 9885 5da3 F20F1005 		movsd	.LC68(%rip), %xmm0
 9885      00000000 
 9886 5dab 4889DF   		movq	%rbx, %rdi
 9887 5dae E8000000 		call	_ZNSo9_M_insertIdEERSoT_@PLT
 9887      00
 9888 5db3 488D3500 		leaq	.LC4(%rip), %rsi
 9888      000000
 9889 5dba BA050000 		movl	$5, %edx
 9889      00
 9890 5dbf 4889C7   		movq	%rax, %rdi
 9891 5dc2 48894424 		movq	%rax, 8(%rsp)
 9891      08
 9892 5dc7 E8000000 		call	_ZSt16__ostream_insertIcSt11char_traitsIcEERSt13basic_ostreamIT_T0_ES6_PKS3_l@PLT
 9892      00
 9893 5dcc 488B7C24 		movq	8(%rsp), %rdi
 9893      08
 9894 5dd1 F20F1005 		movsd	.LC69(%rip), %xmm0
 9894      00000000 
 9895 5dd9 E8000000 		call	_ZNSo9_M_insertIdEERSoT_@PLT
 9895      00
 9896 5dde 488D3500 		leaq	.LC6(%rip), %rsi
 9896      000000
 9897 5de5 BA090000 		movl	$9, %edx
 9897      00
 9898 5dea 4889C7   		movq	%rax, %rdi
 9899 5ded 48894424 		movq	%rax, 8(%rsp)
 9899      08
 9900 5df2 E8000000 		call	_ZSt16__ostream_insertIcSt11char_traitsIcEERSt13basic_ostreamIT_T0_ES6_PKS3_l@PLT
 9900      00
 9901 5df7 488B7C24 		movq	8(%rsp), %rdi
 9901      08
 9902 5dfc F20F1005 		movsd	.LC68(%rip), %xmm0
 9902      00000000 
 9903 5e04 E8000000 		call	_ZNSo9_M_insertIdEERSoT_@PLT
 9903      00
 9904 5e09 4889DF   		movq	%rbx, %rdi
 9905 5e0c E8000000 		call	_ZNK8UnitTest15MemoryOutStream7GetTextEv@PLT
 9905      00
 9906 5e11 4889C2   		movq	%rax, %rdx
 9907 5e14 4889EE   		movq	%rbp, %rsi
 9908 5e17 4C89E7   		movq	%r12, %rdi
 9909 5e1a E8000000 		call	_ZN8UnitTest11TestResults13OnTestFailureERKNS_11TestDetailsEPKc@PLT
 9909      00
 9910              	.LEHE290:
 9911 5e1f 488D0500 		leaq	64+_ZTVN8UnitTest15MemoryOutStreamE(%rip), %rax
 9911      000000
 9912 5e26 488BBC24 		movq	208(%rsp), %rdi
 9912      D0000000 
 9913 5e2e 4C897C24 		movq	%r15, 96(%rsp)
 9913      60
 9914 5e33 48898424 		movq	%rax, 240(%rsp)
 9914      F0000000 
 9915 5e3b 488D8380 		leaq	128(%rbx), %rax
 9915      000000
 9916 5e42 4839C7   		cmpq	%rax, %rdi
 9917 5e45 7405     		je	.L801
 9918 5e47 E8000000 		call	_ZdlPv@PLT
 9918      00
 9919              	.L801:
 9920 5e4c 488D0500 		leaq	64+_ZTCN8UnitTest15MemoryOutStreamE0_NSt7__cxx1119basic_ostringstreamIcSt11char_traitsIcESaIc
 9920      000000
 9921 5e53 488BBC24 		movq	176(%rsp), %rdi
 9921      B0000000 
 9922 5e5b F30F7E05 		movq	.LC14(%rip), %xmm0
 9922      00000000 
 9923 5e63 48898424 		movq	%rax, 240(%rsp)
 9923      F0000000 
 9924 5e6b 488D4360 		leaq	96(%rbx), %rax
 9925 5e6f 0F160500 		movhps	.LC15(%rip), %xmm0
 9925      000000
 9926 5e76 4839C7   		cmpq	%rax, %rdi
 9927 5e79 0F294424 		movaps	%xmm0, 96(%rsp)
 9927      60
 9928 5e7e 7405     		je	.L802
 9929 5e80 E8000000 		call	_ZdlPv@PLT
 9929      00
 9930              	.L802:
 9931 5e85 488D7B40 		leaq	64(%rbx), %rdi
 9932 5e89 4C897424 		movq	%r14, 104(%rsp)
 9932      68
 9933 5e8e E8000000 		call	_ZNSt6localeD1Ev@PLT
 9933      00
 9934 5e93 488D0500 		leaq	16+_ZTVSt9basic_iosIcSt11char_traitsIcEE(%rip), %rax
 9934      000000
 9935 5e9a 488DBB90 		leaq	144(%rbx), %rdi
 9935      000000
 9936 5ea1 4C896C24 		movq	%r13, 96(%rsp)
 9936      60
 9937 5ea6 48898424 		movq	%rax, 240(%rsp)
 9937      F0000000 
 9938              	.LEHB291:
 9939 5eae E8000000 		call	_ZNSt8ios_baseD2Ev@PLT
 9939      00
 9940              	.LEHE291:
 9941              	.LEHB292:
 9942 5eb3 E8000000 		call	_ZN8UnitTest11CurrentTest7DetailsEv@PLT
 9942      00
 9943 5eb8 488B30   		movq	(%rax), %rsi
 9944 5ebb BA8F0000 		movl	$143, %edx
 9944      00
 9945 5ec0 4889EF   		movq	%rbp, %rdi
 9946 5ec3 E8000000 		call	_ZN8UnitTest11TestDetailsC1ERKS0_i@PLT
 9946      00
 9947 5ec8 4C89E7   		movq	%r12, %rdi
 9948 5ecb E8000000 		call	_ZNK8UnitTest11TestResults15GetFailureCountEv@PLT
 9948      00
 9949 5ed0 8944241C 		movl	%eax, 28(%rsp)
 9950 5ed4 C7442418 		movl	$1, 24(%rsp)
 9950      01000000 
 9951 5edc E8000000 		call	_ZN8UnitTest11CurrentTest7ResultsEv@PLT
 9951      00
 9952 5ee1 488B38   		movq	(%rax), %rdi
 9953 5ee4 488D5424 		leaq	28(%rsp), %rdx
 9953      1C
 9954 5ee9 488D7424 		leaq	24(%rsp), %rsi
 9954      18
 9955 5eee 4889E9   		movq	%rbp, %rcx
 9956 5ef1 E8000000 		call	_ZN8UnitTest10CheckEqualIiiEEvRNS_11TestResultsERKT_RKT0_RKNS_11TestDetailsE
 9956      00
 9957              	.LEHE292:
 9958              	.L796:
 9959 5ef6 488B8424 		movq	504(%rsp), %rax
 9959      F8010000 
 9960 5efe 64483304 		xorq	%fs:40, %rax
 9960      25280000 
 9960      00
 9961 5f07 7512     		jne	.L818
 9962 5f09 4881C408 		addq	$520, %rsp
 9962      020000
 9963              		.cfi_remember_state
 9964              		.cfi_def_cfa_offset 56
 9965 5f10 5B       		popq	%rbx
 9966              		.cfi_def_cfa_offset 48
 9967 5f11 5D       		popq	%rbp
 9968              		.cfi_def_cfa_offset 40
 9969 5f12 415C     		popq	%r12
 9970              		.cfi_def_cfa_offset 32
 9971 5f14 415D     		popq	%r13
 9972              		.cfi_def_cfa_offset 24
 9973 5f16 415E     		popq	%r14
 9974              		.cfi_def_cfa_offset 16
 9975 5f18 415F     		popq	%r15
 9976              		.cfi_def_cfa_offset 8
 9977 5f1a C3       		ret
 9978              	.L818:
 9979              		.cfi_restore_state
 9980 5f1b E8000000 		call	__stack_chk_fail@PLT
 9980      00
 9981              	.L811:
 9982 5f20 4889C5   		movq	%rax, %rbp
 9983 5f23 4889DF   		movq	%rbx, %rdi
 9984 5f26 E8000000 		call	_ZN8UnitTest15MemoryOutStreamD1Ev
 9984      00
 9985 5f2b 4889EF   		movq	%rbp, %rdi
 9986              	.LEHB293:
 9987 5f2e E8000000 		call	_Unwind_Resume@PLT
 9987      00
 9988              	.LEHE293:
 9989              	.L809:
 9990 5f33 4889C7   		movq	%rax, %rdi
 9991 5f36 E8000000 		call	__cxa_begin_catch@PLT
 9991      00
 9992              	.LEHB294:
 9993 5f3b E8000000 		call	_ZN8UnitTest11CurrentTest7ResultsEv@PLT
 9993      00
 9994 5f40 488B18   		movq	(%rax), %rbx
 9995 5f43 E8000000 		call	_ZN8UnitTest11CurrentTest7DetailsEv@PLT
 9995      00
 9996 5f48 488B30   		movq	(%rax), %rsi
 9997 5f4b BA8F0000 		movl	$143, %edx
 9997      00
 9998 5f50 4889EF   		movq	%rbp, %rdi
 9999 5f53 E8000000 		call	_ZN8UnitTest11TestDetailsC1ERKS0_i@PLT
 9999      00
 10000 5f58 488D1500 		leaq	.LC29(%rip), %rdx
 10000      000000
 10001 5f5f 4889EE   		movq	%rbp, %rsi
 10002 5f62 4889DF   		movq	%rbx, %rdi
 10003 5f65 E8000000 		call	_ZN8UnitTest11TestResults13OnTestFailureERKNS_11TestDetailsEPKc@PLT
 10003      00
 10004              	.LEHE294:
 10005              	.LEHB295:
 10006 5f6a E8000000 		call	__cxa_end_catch@PLT
 10006      00
 10007              	.LEHE295:
 10008 5f6f EB85     		jmp	.L796
 10009              	.L813:
 10010 5f71 488D7B08 		leaq	8(%rbx), %rdi
 10011 5f75 4889C5   		movq	%rax, %rbp
 10012 5f78 E8000000 		call	_ZNSt7__cxx1115basic_stringbufIcSt11char_traitsIcESaIcEED1Ev
 10012      00
 10013 5f7d 4C896C24 		movq	%r13, 96(%rsp)
 10013      60
 10014              	.L799:
 10015 5f82 488D0500 		leaq	16+_ZTVSt9basic_iosIcSt11char_traitsIcEE(%rip), %rax
 10015      000000
 10016 5f89 488DBB90 		leaq	144(%rbx), %rdi
 10016      000000
 10017 5f90 48898424 		movq	%rax, 240(%rsp)
 10017      F0000000 
 10018 5f98 E8000000 		call	_ZNSt8ios_baseD2Ev@PLT
 10018      00
 10019 5f9d 4889EF   		movq	%rbp, %rdi
 10020              	.LEHB296:
 10021 5fa0 E8000000 		call	_Unwind_Resume@PLT
 10021      00
 10022              	.LEHE296:
 10023              	.L812:
 10024 5fa5 4889C5   		movq	%rax, %rbp
 10025 5fa8 EBD8     		jmp	.L799
 10026              	.L810:
 10027 5faa 4889C3   		movq	%rax, %rbx
 10028 5fad E8000000 		call	__cxa_end_catch@PLT
 10028      00
 10029 5fb2 4889DF   		movq	%rbx, %rdi
 10030              	.LEHB297:
 10031 5fb5 E8000000 		call	_Unwind_Resume@PLT
 10031      00
 10032              	.LEHE297:
 10033              		.cfi_endproc
 10034              	.LFE1207:
 10035              		.section	.gcc_except_table
 10036              		.align 4
 10037              	.LLSDA1207:
 10038 0788 FF       		.byte	0xff
 10039 0789 9B       		.byte	0x9b
 10040 078a 45       		.uleb128 .LLSDATT1207-.LLSDATTD1207
 10041              	.LLSDATTD1207:
 10042 078b 01       		.byte	0x1
 10043 078c 3C       		.uleb128 .LLSDACSE1207-.LLSDACSB1207
 10044              	.LLSDACSB1207:
 10045 078d 46       		.uleb128 .LEHB287-.LFB1207
 10046 078e 1D       		.uleb128 .LEHE287-.LEHB287
 10047 078f 00       		.uleb128 0
 10048 0790 00       		.uleb128 0
 10049 0791 CD01     		.uleb128 .LEHB288-.LFB1207
 10050 0793 05       		.uleb128 .LEHE288-.LEHB288
 10051 0794 B507     		.uleb128 .L812-.LFB1207
 10052 0796 00       		.uleb128 0
 10053 0797 DF02     		.uleb128 .LEHB289-.LFB1207
 10054 0799 05       		.uleb128 .LEHE289-.LEHB289
 10055 079a 8107     		.uleb128 .L813-.LFB1207
 10056 079c 00       		.uleb128 0
 10057 079d AE03     		.uleb128 .LEHB290-.LFB1207
 10058 079f 8101     		.uleb128 .LEHE290-.LEHB290
 10059 07a1 B006     		.uleb128 .L811-.LFB1207
 10060 07a3 00       		.uleb128 0
 10061 07a4 BE05     		.uleb128 .LEHB291-.LFB1207
 10062 07a6 05       		.uleb128 .LEHE291-.LEHB291
 10063 07a7 00       		.uleb128 0
 10064 07a8 00       		.uleb128 0
 10065 07a9 C305     		.uleb128 .LEHB292-.LFB1207
 10066 07ab 43       		.uleb128 .LEHE292-.LEHB292
 10067 07ac C306     		.uleb128 .L809-.LFB1207
 10068 07ae 01       		.uleb128 0x1
 10069 07af BE06     		.uleb128 .LEHB293-.LFB1207
 10070 07b1 05       		.uleb128 .LEHE293-.LEHB293
 10071 07b2 00       		.uleb128 0
 10072 07b3 00       		.uleb128 0
 10073 07b4 CB06     		.uleb128 .LEHB294-.LFB1207
 10074 07b6 2F       		.uleb128 .LEHE294-.LEHB294
 10075 07b7 BA07     		.uleb128 .L810-.LFB1207
 10076 07b9 00       		.uleb128 0
 10077 07ba FA06     		.uleb128 .LEHB295-.LFB1207
 10078 07bc 05       		.uleb128 .LEHE295-.LEHB295
 10079 07bd 00       		.uleb128 0
 10080 07be 00       		.uleb128 0
 10081 07bf B007     		.uleb128 .LEHB296-.LFB1207
 10082 07c1 05       		.uleb128 .LEHE296-.LEHB296
 10083 07c2 00       		.uleb128 0
 10084 07c3 00       		.uleb128 0
 10085 07c4 C507     		.uleb128 .LEHB297-.LFB1207
 10086 07c6 05       		.uleb128 .LEHE297-.LEHB297
 10087 07c7 00       		.uleb128 0
 10088 07c8 00       		.uleb128 0
 10089              	.LLSDACSE1207:
 10090 07c9 01       		.byte	0x1
 10091 07ca 00       		.byte	0
 10092 07cb 00       		.align 4
 10093 07cc 00000000 		.long	0
 10094              	
 10095              	.LLSDATT1207:
 10096              		.text
 10098              		.align 2
 10099 5fba 660F1F44 		.p2align 4,,15
 10099      0000
 10101              	_ZNK12_GLOBAL__N_126TestCheckCloseWithNaNFails7RunImplEv:
 10102              	.LFB1203:
 10103              		.cfi_startproc
 10104              		.cfi_personality 0x9b,DW.ref.__gxx_personality_v0
 10105              		.cfi_lsda 0x1b,.LLSDA1203
 10106 5fc0 4157     		pushq	%r15
 10107              		.cfi_def_cfa_offset 16
 10108              		.cfi_offset 15, -16
 10109 5fc2 4156     		pushq	%r14
 10110              		.cfi_def_cfa_offset 24
 10111              		.cfi_offset 14, -24
 10112 5fc4 31F6     		xorl	%esi, %esi
 10113 5fc6 4155     		pushq	%r13
 10114              		.cfi_def_cfa_offset 32
 10115              		.cfi_offset 13, -32
 10116 5fc8 4154     		pushq	%r12
 10117              		.cfi_def_cfa_offset 40
 10118              		.cfi_offset 12, -40
 10119 5fca 4C8D2D00 		leaq	24+_ZTCN8UnitTest15MemoryOutStreamE0_So(%rip), %r13
 10119      000000
 10120 5fd1 55       		pushq	%rbp
 10121              		.cfi_def_cfa_offset 48
 10122              		.cfi_offset 6, -48
 10123 5fd2 53       		pushq	%rbx
 10124              		.cfi_def_cfa_offset 56
 10125              		.cfi_offset 3, -56
 10126 5fd3 4881EC08 		subq	$520, %rsp
 10126      020000
 10127              		.cfi_def_cfa_offset 576
 10128 5fda 4C8D6424 		leaq	32(%rsp), %r12
 10128      20
 10129 5fdf 488D5C24 		leaq	96(%rsp), %rbx
 10129      60
 10130 5fe4 488D6C24 		leaq	64(%rsp), %rbp
 10130      40
 10131 5fe9 64488B04 		movq	%fs:40, %rax
 10131      25280000 
 10131      00
 10132 5ff2 48898424 		movq	%rax, 504(%rsp)
 10132      F8010000 
 10133 5ffa 31C0     		xorl	%eax, %eax
 10134 5ffc 4C89E7   		movq	%r12, %rdi
 10135 5fff 4C8DB390 		leaq	144(%rbx), %r14
 10135      000000
 10136              	.LEHB298:
 10137 6006 E8000000 		call	_ZN8UnitTest11TestResultsC1EPNS_12TestReporterE@PLT
 10137      00
 10138 600b 488D0D00 		leaq	.LC1(%rip), %rcx
 10138      000000
 10139 6012 4531C0   		xorl	%r8d, %r8d
 10140 6015 4889EF   		movq	%rbp, %rdi
 10141 6018 4889CE   		movq	%rcx, %rsi
 10142 601b 4889CA   		movq	%rcx, %rdx
 10143 601e E8000000 		call	_ZN8UnitTest11TestDetailsC1EPKcS2_S2_i@PLT
 10143      00
 10144              	.LEHE298:
 10145 6023 4C89F7   		movq	%r14, %rdi
 10146 6026 E8000000 		call	_ZNSt8ios_baseC2Ev@PLT
 10146      00
 10147 602b 498D4528 		leaq	40(%r13), %rax
 10148 602f 31F6     		xorl	%esi, %esi
 10149 6031 4C89F7   		movq	%r14, %rdi
 10150 6034 48C78424 		movq	$0, 456(%rsp)
 10150      C8010000 
 10150      00000000 
 10151 6040 C68424D0 		movb	$0, 464(%rsp)
 10151      01000000 
 10152 6048 C68424D1 		movb	$0, 465(%rsp)
 10152      01000000 
 10153 6050 48C78424 		movq	$0, 472(%rsp)
 10153      D8010000 
 10153      00000000 
 10154 605c 48C78424 		movq	$0, 480(%rsp)
 10154      E0010000 
 10154      00000000 
 10155 6068 48C78424 		movq	$0, 488(%rsp)
 10155      E8010000 
 10155      00000000 
 10156 6074 48C78424 		movq	$0, 496(%rsp)
 10156      F0010000 
 10156      00000000 
 10157 6080 4C896C24 		movq	%r13, 96(%rsp)
 10157      60
 10158 6085 48898424 		movq	%rax, 240(%rsp)
 10158      F0000000 
 10159              	.LEHB299:
 10160 608d E8000000 		call	_ZNSt9basic_iosIcSt11char_traitsIcEE4initEPSt15basic_streambufIcS1_E@PLT
 10160      00
 10161              	.LEHE299:
 10162 6092 488D0500 		leaq	24+_ZTCN8UnitTest15MemoryOutStreamE0_NSt7__cxx1119basic_ostringstreamIcSt11char_traitsIcESaIc
 10162      000000
 10163 6099 660FEFC0 		pxor	%xmm0, %xmm0
 10164 609d 488D7B40 		leaq	64(%rbx), %rdi
 10165 60a1 48894424 		movq	%rax, 96(%rsp)
 10165      60
 10166 60a6 4883C028 		addq	$40, %rax
 10167 60aa 48898424 		movq	%rax, 240(%rsp)
 10167      F0000000 
 10168 60b2 488D0500 		leaq	16+_ZTVSt15basic_streambufIcSt11char_traitsIcEE(%rip), %rax
 10168      000000
 10169 60b9 0F294424 		movaps	%xmm0, 112(%rsp)
 10169      70
 10170 60be 48894424 		movq	%rax, 104(%rsp)
 10170      68
 10171 60c3 0F298424 		movaps	%xmm0, 128(%rsp)
 10171      80000000 
 10172 60cb 0F298424 		movaps	%xmm0, 144(%rsp)
 10172      90000000 
 10173 60d3 E8000000 		call	_ZNSt6localeC1Ev@PLT
 10173      00
 10174 60d8 488D0500 		leaq	16+_ZTVNSt7__cxx1115basic_stringbufIcSt11char_traitsIcESaIcEEE(%rip), %rax
 10174      000000
 10175 60df 488D7308 		leaq	8(%rbx), %rsi
 10176 60e3 48894424 		movq	%rax, 104(%rsp)
 10176      68
 10177 60e8 488D4360 		leaq	96(%rbx), %rax
 10178 60ec C78424A8 		movl	$16, 168(%rsp)
 10178      00000010 
 10178      000000
 10179 60f7 48C78424 		movq	$0, 184(%rsp)
 10179      B8000000 
 10179      00000000 
 10180 6103 C68424C0 		movb	$0, 192(%rsp)
 10180      00000000 
 10181 610b 48898424 		movq	%rax, 176(%rsp)
 10181      B0000000 
 10182 6113 488B4424 		movq	96(%rsp), %rax
 10182      60
 10183 6118 488B78E8 		movq	-24(%rax), %rdi
 10184 611c 4801DF   		addq	%rbx, %rdi
 10185              	.LEHB300:
 10186 611f E8000000 		call	_ZNSt9basic_iosIcSt11char_traitsIcEE4initEPSt15basic_streambufIcS1_E@PLT
 10186      00
 10187              	.LEHE300:
 10188 6124 4C8D3D00 		leaq	24+_ZTVN8UnitTest15MemoryOutStreamE(%rip), %r15
 10188      000000
 10189 612b 488D8380 		leaq	128(%rbx), %rax
 10189      000000
 10190 6132 488D3500 		leaq	.LC2(%rip), %rsi
 10190      000000
 10191 6139 BA090000 		movl	$9, %edx
 10191      00
 10192 613e 4889DF   		movq	%rbx, %rdi
 10193 6141 48C78424 		movq	$0, 216(%rsp)
 10193      D8000000 
 10193      00000000 
 10194 614d 4D8D7728 		leaq	40(%r15), %r14
 10195 6151 4C897C24 		movq	%r15, 96(%rsp)
 10195      60
 10196 6156 48898424 		movq	%rax, 208(%rsp)
 10196      D0000000 
 10197 615e C68424E0 		movb	$0, 224(%rsp)
 10197      00000000 
 10198 6166 4C89B424 		movq	%r14, 240(%rsp)
 10198      F0000000 
 10199              	.LEHB301:
 10200 616e E8000000 		call	_ZSt16__ostream_insertIcSt11char_traitsIcEERSt13basic_ostreamIT_T0_ES6_PKS3_l@PLT
 10200      00
 10201 6173 F20F1005 		movsd	.LC70(%rip), %xmm0
 10201      00000000 
 10202 617b 4889DF   		movq	%rbx, %rdi
 10203 617e E8000000 		call	_ZNSo9_M_insertIdEERSoT_@PLT
 10203      00
 10204 6183 488D3500 		leaq	.LC4(%rip), %rsi
 10204      000000
 10205 618a BA050000 		movl	$5, %edx
 10205      00
 10206 618f 4889C7   		movq	%rax, %rdi
 10207 6192 48894424 		movq	%rax, 8(%rsp)
 10207      08
 10208 6197 E8000000 		call	_ZSt16__ostream_insertIcSt11char_traitsIcEERSt13basic_ostreamIT_T0_ES6_PKS3_l@PLT
 10208      00
 10209 619c 488B7C24 		movq	8(%rsp), %rdi
 10209      08
 10210 61a1 F20F1005 		movsd	.LC69(%rip), %xmm0
 10210      00000000 
 10211 61a9 E8000000 		call	_ZNSo9_M_insertIdEERSoT_@PLT
 10211      00
 10212 61ae 488D3500 		leaq	.LC6(%rip), %rsi
 10212      000000
 10213 61b5 BA090000 		movl	$9, %edx
 10213      00
 10214 61ba 4889C7   		movq	%rax, %rdi
 10215 61bd 48894424 		movq	%rax, 8(%rsp)
 10215      08
 10216 61c2 E8000000 		call	_ZSt16__ostream_insertIcSt11char_traitsIcEERSt13basic_ostreamIT_T0_ES6_PKS3_l@PLT
 10216      00
 10217 61c7 488B7C24 		movq	8(%rsp), %rdi
 10217      08
 10218 61cc F20F1005 		movsd	.LC68(%rip), %xmm0
 10218      00000000 
 10219 61d4 E8000000 		call	_ZNSo9_M_insertIdEERSoT_@PLT
 10219      00
 10220 61d9 4889DF   		movq	%rbx, %rdi
 10221 61dc E8000000 		call	_ZNK8UnitTest15MemoryOutStream7GetTextEv@PLT
 10221      00
 10222 61e1 4889C2   		movq	%rax, %rdx
 10223 61e4 4889EE   		movq	%rbp, %rsi
 10224 61e7 4C89E7   		movq	%r12, %rdi
 10225 61ea E8000000 		call	_ZN8UnitTest11TestResults13OnTestFailureERKNS_11TestDetailsEPKc@PLT
 10225      00
 10226              	.LEHE301:
 10227 61ef 488BBC24 		movq	208(%rsp), %rdi
 10227      D0000000 
 10228 61f7 488D8380 		leaq	128(%rbx), %rax
 10228      000000
 10229 61fe 4C897C24 		movq	%r15, 96(%rsp)
 10229      60
 10230 6203 4C89B424 		movq	%r14, 240(%rsp)
 10230      F0000000 
 10231 620b 4839C7   		cmpq	%rax, %rdi
 10232 620e 7405     		je	.L826
 10233 6210 E8000000 		call	_ZdlPv@PLT
 10233      00
 10234              	.L826:
 10235 6215 488D0500 		leaq	64+_ZTCN8UnitTest15MemoryOutStreamE0_NSt7__cxx1119basic_ostringstreamIcSt11char_traitsIcESaIc
 10235      000000
 10236 621c 488BBC24 		movq	176(%rsp), %rdi
 10236      B0000000 
 10237 6224 F30F7E05 		movq	.LC14(%rip), %xmm0
 10237      00000000 
 10238 622c 48898424 		movq	%rax, 240(%rsp)
 10238      F0000000 
 10239 6234 488D4360 		leaq	96(%rbx), %rax
 10240 6238 0F160500 		movhps	.LC15(%rip), %xmm0
 10240      000000
 10241 623f 4839C7   		cmpq	%rax, %rdi
 10242 6242 0F294424 		movaps	%xmm0, 96(%rsp)
 10242      60
 10243 6247 7405     		je	.L827
 10244 6249 E8000000 		call	_ZdlPv@PLT
 10244      00
 10245              	.L827:
 10246 624e 488D0500 		leaq	16+_ZTVSt15basic_streambufIcSt11char_traitsIcEE(%rip), %rax
 10246      000000
 10247 6255 488D7B40 		leaq	64(%rbx), %rdi
 10248 6259 48894424 		movq	%rax, 104(%rsp)
 10248      68
 10249 625e E8000000 		call	_ZNSt6localeD1Ev@PLT
 10249      00
 10250 6263 488D0500 		leaq	16+_ZTVSt9basic_iosIcSt11char_traitsIcEE(%rip), %rax
 10250      000000
 10251 626a 488DBB90 		leaq	144(%rbx), %rdi
 10251      000000
 10252 6271 4C896C24 		movq	%r13, 96(%rsp)
 10252      60
 10253 6276 48898424 		movq	%rax, 240(%rsp)
 10253      F0000000 
 10254              	.LEHB302:
 10255 627e E8000000 		call	_ZNSt8ios_baseD2Ev@PLT
 10255      00
 10256              	.LEHE302:
 10257              	.LEHB303:
 10258 6283 E8000000 		call	_ZN8UnitTest11CurrentTest7DetailsEv@PLT
 10258      00
 10259 6288 488B30   		movq	(%rax), %rsi
 10260 628b BA820000 		movl	$130, %edx
 10260      00
 10261 6290 4889EF   		movq	%rbp, %rdi
 10262 6293 E8000000 		call	_ZN8UnitTest11TestDetailsC1ERKS0_i@PLT
 10262      00
 10263 6298 4C89E7   		movq	%r12, %rdi
 10264 629b E8000000 		call	_ZNK8UnitTest11TestResults15GetFailureCountEv@PLT
 10264      00
 10265 62a0 8944241C 		movl	%eax, 28(%rsp)
 10266 62a4 C7442418 		movl	$1, 24(%rsp)
 10266      01000000 
 10267 62ac E8000000 		call	_ZN8UnitTest11CurrentTest7ResultsEv@PLT
 10267      00
 10268 62b1 488B38   		movq	(%rax), %rdi
 10269 62b4 488D5424 		leaq	28(%rsp), %rdx
 10269      1C
 10270 62b9 488D7424 		leaq	24(%rsp), %rsi
 10270      18
 10271 62be 4889E9   		movq	%rbp, %rcx
 10272 62c1 E8000000 		call	_ZN8UnitTest10CheckEqualIiiEEvRNS_11TestResultsERKT_RKT0_RKNS_11TestDetailsE
 10272      00
 10273              	.LEHE303:
 10274              	.L819:
 10275 62c6 488B8424 		movq	504(%rsp), %rax
 10275      F8010000 
 10276 62ce 64483304 		xorq	%fs:40, %rax
 10276      25280000 
 10276      00
 10277 62d7 7512     		jne	.L842
 10278 62d9 4881C408 		addq	$520, %rsp
 10278      020000
 10279              		.cfi_remember_state
 10280              		.cfi_def_cfa_offset 56
 10281 62e0 5B       		popq	%rbx
 10282              		.cfi_def_cfa_offset 48
 10283 62e1 5D       		popq	%rbp
 10284              		.cfi_def_cfa_offset 40
 10285 62e2 415C     		popq	%r12
 10286              		.cfi_def_cfa_offset 32
 10287 62e4 415D     		popq	%r13
 10288              		.cfi_def_cfa_offset 24
 10289 62e6 415E     		popq	%r14
 10290              		.cfi_def_cfa_offset 16
 10291 62e8 415F     		popq	%r15
 10292              		.cfi_def_cfa_offset 8
 10293 62ea C3       		ret
 10294              	.L842:
 10295              		.cfi_restore_state
 10296 62eb E8000000 		call	__stack_chk_fail@PLT
 10296      00
 10297              	.L835:
 10298 62f0 4889C5   		movq	%rax, %rbp
 10299 62f3 4889DF   		movq	%rbx, %rdi
 10300 62f6 E8000000 		call	_ZN8UnitTest15MemoryOutStreamD1Ev
 10300      00
 10301 62fb 4889EF   		movq	%rbp, %rdi
 10302              	.LEHB304:
 10303 62fe E8000000 		call	_Unwind_Resume@PLT
 10303      00
 10304              	.LEHE304:
 10305              	.L833:
 10306 6303 4889C7   		movq	%rax, %rdi
 10307 6306 E8000000 		call	__cxa_begin_catch@PLT
 10307      00
 10308              	.LEHB305:
 10309 630b E8000000 		call	_ZN8UnitTest11CurrentTest7ResultsEv@PLT
 10309      00
 10310 6310 488B18   		movq	(%rax), %rbx
 10311 6313 E8000000 		call	_ZN8UnitTest11CurrentTest7DetailsEv@PLT
 10311      00
 10312 6318 488B30   		movq	(%rax), %rsi
 10313 631b BA820000 		movl	$130, %edx
 10313      00
 10314 6320 4889EF   		movq	%rbp, %rdi
 10315 6323 E8000000 		call	_ZN8UnitTest11TestDetailsC1ERKS0_i@PLT
 10315      00
 10316 6328 488D1500 		leaq	.LC29(%rip), %rdx
 10316      000000
 10317 632f 4889EE   		movq	%rbp, %rsi
 10318 6332 4889DF   		movq	%rbx, %rdi
 10319 6335 E8000000 		call	_ZN8UnitTest11TestResults13OnTestFailureERKNS_11TestDetailsEPKc@PLT
 10319      00
 10320              	.LEHE305:
 10321              	.LEHB306:
 10322 633a E8000000 		call	__cxa_end_catch@PLT
 10322      00
 10323              	.LEHE306:
 10324 633f EB85     		jmp	.L819
 10325              	.L837:
 10326 6341 488D7B08 		leaq	8(%rbx), %rdi
 10327 6345 4889C5   		movq	%rax, %rbp
 10328 6348 E8000000 		call	_ZNSt7__cxx1115basic_stringbufIcSt11char_traitsIcESaIcEED1Ev
 10328      00
 10329 634d 4C896C24 		movq	%r13, 96(%rsp)
 10329      60
 10330              	.L824:
 10331 6352 488D0500 		leaq	16+_ZTVSt9basic_iosIcSt11char_traitsIcEE(%rip), %rax
 10331      000000
 10332 6359 488DBB90 		leaq	144(%rbx), %rdi
 10332      000000
 10333 6360 48898424 		movq	%rax, 240(%rsp)
 10333      F0000000 
 10334 6368 E8000000 		call	_ZNSt8ios_baseD2Ev@PLT
 10334      00
 10335 636d 4889EF   		movq	%rbp, %rdi
 10336              	.LEHB307:
 10337 6370 E8000000 		call	_Unwind_Resume@PLT
 10337      00
 10338              	.LEHE307:
 10339              	.L836:
 10340 6375 4889C5   		movq	%rax, %rbp
 10341 6378 EBD8     		jmp	.L824
 10342              	.L834:
 10343 637a 4889C3   		movq	%rax, %rbx
 10344 637d E8000000 		call	__cxa_end_catch@PLT
 10344      00
 10345 6382 4889DF   		movq	%rbx, %rdi
 10346              	.LEHB308:
 10347 6385 E8000000 		call	_Unwind_Resume@PLT
 10347      00
 10348              	.LEHE308:
 10349              		.cfi_endproc
 10350              	.LFE1203:
 10351              		.section	.gcc_except_table
 10352              		.align 4
 10353              	.LLSDA1203:
 10354 07d0 FF       		.byte	0xff
 10355 07d1 9B       		.byte	0x9b
 10356 07d2 45       		.uleb128 .LLSDATT1203-.LLSDATTD1203
 10357              	.LLSDATTD1203:
 10358 07d3 01       		.byte	0x1
 10359 07d4 3C       		.uleb128 .LLSDACSE1203-.LLSDACSB1203
 10360              	.LLSDACSB1203:
 10361 07d5 46       		.uleb128 .LEHB298-.LFB1203
 10362 07d6 1D       		.uleb128 .LEHE298-.LEHB298
 10363 07d7 00       		.uleb128 0
 10364 07d8 00       		.uleb128 0
 10365 07d9 CD01     		.uleb128 .LEHB299-.LFB1203
 10366 07db 05       		.uleb128 .LEHE299-.LEHB299
 10367 07dc B507     		.uleb128 .L836-.LFB1203
 10368 07de 00       		.uleb128 0
 10369 07df DF02     		.uleb128 .LEHB300-.LFB1203
 10370 07e1 05       		.uleb128 .LEHE300-.LEHB300
 10371 07e2 8107     		.uleb128 .L837-.LFB1203
 10372 07e4 00       		.uleb128 0
 10373 07e5 AE03     		.uleb128 .LEHB301-.LFB1203
 10374 07e7 8101     		.uleb128 .LEHE301-.LEHB301
 10375 07e9 B006     		.uleb128 .L835-.LFB1203
 10376 07eb 00       		.uleb128 0
 10377 07ec BE05     		.uleb128 .LEHB302-.LFB1203
 10378 07ee 05       		.uleb128 .LEHE302-.LEHB302
 10379 07ef 00       		.uleb128 0
 10380 07f0 00       		.uleb128 0
 10381 07f1 C305     		.uleb128 .LEHB303-.LFB1203
 10382 07f3 43       		.uleb128 .LEHE303-.LEHB303
 10383 07f4 C306     		.uleb128 .L833-.LFB1203
 10384 07f6 01       		.uleb128 0x1
 10385 07f7 BE06     		.uleb128 .LEHB304-.LFB1203
 10386 07f9 05       		.uleb128 .LEHE304-.LEHB304
 10387 07fa 00       		.uleb128 0
 10388 07fb 00       		.uleb128 0
 10389 07fc CB06     		.uleb128 .LEHB305-.LFB1203
 10390 07fe 2F       		.uleb128 .LEHE305-.LEHB305
 10391 07ff BA07     		.uleb128 .L834-.LFB1203
 10392 0801 00       		.uleb128 0
 10393 0802 FA06     		.uleb128 .LEHB306-.LFB1203
 10394 0804 05       		.uleb128 .LEHE306-.LEHB306
 10395 0805 00       		.uleb128 0
 10396 0806 00       		.uleb128 0
 10397 0807 B007     		.uleb128 .LEHB307-.LFB1203
 10398 0809 05       		.uleb128 .LEHE307-.LEHB307
 10399 080a 00       		.uleb128 0
 10400 080b 00       		.uleb128 0
 10401 080c C507     		.uleb128 .LEHB308-.LFB1203
 10402 080e 05       		.uleb128 .LEHE308-.LEHB308
 10403 080f 00       		.uleb128 0
 10404 0810 00       		.uleb128 0
 10405              	.LLSDACSE1203:
 10406 0811 01       		.byte	0x1
 10407 0812 00       		.byte	0
 10408 0813 00       		.align 4
 10409 0814 00000000 		.long	0
 10410              	
 10411              	.LLSDATT1203:
 10412              		.text
 10414              		.align 2
 10415 638a 660F1F44 		.p2align 4,,15
 10415      0000
 10417              	_ZNK12_GLOBAL__N_119TestCheckCloseFalse7RunImplEv:
 10418              	.LFB1195:
 10419              		.cfi_startproc
 10420              		.cfi_personality 0x9b,DW.ref.__gxx_personality_v0
 10421              		.cfi_lsda 0x1b,.LLSDA1195
 10422 6390 4157     		pushq	%r15
 10423              		.cfi_def_cfa_offset 16
 10424              		.cfi_offset 15, -16
 10425 6392 4156     		pushq	%r14
 10426              		.cfi_def_cfa_offset 24
 10427              		.cfi_offset 14, -24
 10428 6394 31F6     		xorl	%esi, %esi
 10429 6396 4155     		pushq	%r13
 10430              		.cfi_def_cfa_offset 32
 10431              		.cfi_offset 13, -32
 10432 6398 4154     		pushq	%r12
 10433              		.cfi_def_cfa_offset 40
 10434              		.cfi_offset 12, -40
 10435 639a 4C8D2D00 		leaq	24+_ZTCN8UnitTest15MemoryOutStreamE0_So(%rip), %r13
 10435      000000
 10436 63a1 55       		pushq	%rbp
 10437              		.cfi_def_cfa_offset 48
 10438              		.cfi_offset 6, -48
 10439 63a2 53       		pushq	%rbx
 10440              		.cfi_def_cfa_offset 56
 10441              		.cfi_offset 3, -56
 10442 63a3 4881EC08 		subq	$520, %rsp
 10442      020000
 10443              		.cfi_def_cfa_offset 576
 10444 63aa 4C8D6424 		leaq	32(%rsp), %r12
 10444      20
 10445 63af 488D5C24 		leaq	96(%rsp), %rbx
 10445      60
 10446 63b4 488D6C24 		leaq	64(%rsp), %rbp
 10446      40
 10447 63b9 64488B04 		movq	%fs:40, %rax
 10447      25280000 
 10447      00
 10448 63c2 48898424 		movq	%rax, 504(%rsp)
 10448      F8010000 
 10449 63ca 31C0     		xorl	%eax, %eax
 10450 63cc 4C89E7   		movq	%r12, %rdi
 10451 63cf 4C8DB390 		leaq	144(%rbx), %r14
 10451      000000
 10452              	.LEHB309:
 10453 63d6 E8000000 		call	_ZN8UnitTest11TestResultsC1EPNS_12TestReporterE@PLT
 10453      00
 10454 63db 488D0D00 		leaq	.LC1(%rip), %rcx
 10454      000000
 10455 63e2 4531C0   		xorl	%r8d, %r8d
 10456 63e5 4889EF   		movq	%rbp, %rdi
 10457 63e8 4889CE   		movq	%rcx, %rsi
 10458 63eb 4889CA   		movq	%rcx, %rdx
 10459 63ee E8000000 		call	_ZN8UnitTest11TestDetailsC1EPKcS2_S2_i@PLT
 10459      00
 10460              	.LEHE309:
 10461 63f3 4C89F7   		movq	%r14, %rdi
 10462 63f6 E8000000 		call	_ZNSt8ios_baseC2Ev@PLT
 10462      00
 10463 63fb 498D4528 		leaq	40(%r13), %rax
 10464 63ff 31F6     		xorl	%esi, %esi
 10465 6401 4C89F7   		movq	%r14, %rdi
 10466 6404 48C78424 		movq	$0, 456(%rsp)
 10466      C8010000 
 10466      00000000 
 10467 6410 C68424D0 		movb	$0, 464(%rsp)
 10467      01000000 
 10468 6418 C68424D1 		movb	$0, 465(%rsp)
 10468      01000000 
 10469 6420 48C78424 		movq	$0, 472(%rsp)
 10469      D8010000 
 10469      00000000 
 10470 642c 48C78424 		movq	$0, 480(%rsp)
 10470      E0010000 
 10470      00000000 
 10471 6438 48C78424 		movq	$0, 488(%rsp)
 10471      E8010000 
 10471      00000000 
 10472 6444 48C78424 		movq	$0, 496(%rsp)
 10472      F0010000 
 10472      00000000 
 10473 6450 4C896C24 		movq	%r13, 96(%rsp)
 10473      60
 10474 6455 48898424 		movq	%rax, 240(%rsp)
 10474      F0000000 
 10475              	.LEHB310:
 10476 645d E8000000 		call	_ZNSt9basic_iosIcSt11char_traitsIcEE4initEPSt15basic_streambufIcS1_E@PLT
 10476      00
 10477              	.LEHE310:
 10478 6462 660FEFC0 		pxor	%xmm0, %xmm0
 10479 6466 488D0500 		leaq	24+_ZTCN8UnitTest15MemoryOutStreamE0_NSt7__cxx1119basic_ostringstreamIcSt11char_traitsIcESaIc
 10479      000000
 10480 646d 488D7B40 		leaq	64(%rbx), %rdi
 10481 6471 4C8D3500 		leaq	16+_ZTVSt15basic_streambufIcSt11char_traitsIcEE(%rip), %r14
 10481      000000
 10482 6478 48894424 		movq	%rax, 96(%rsp)
 10482      60
 10483 647d 4883C028 		addq	$40, %rax
 10484 6481 48898424 		movq	%rax, 240(%rsp)
 10484      F0000000 
 10485 6489 4C897424 		movq	%r14, 104(%rsp)
 10485      68
 10486 648e 0F294424 		movaps	%xmm0, 112(%rsp)
 10486      70
 10487 6493 0F298424 		movaps	%xmm0, 128(%rsp)
 10487      80000000 
 10488 649b 0F298424 		movaps	%xmm0, 144(%rsp)
 10488      90000000 
 10489 64a3 E8000000 		call	_ZNSt6localeC1Ev@PLT
 10489      00
 10490 64a8 488D0500 		leaq	16+_ZTVNSt7__cxx1115basic_stringbufIcSt11char_traitsIcESaIcEEE(%rip), %rax
 10490      000000
 10491 64af 488D7308 		leaq	8(%rbx), %rsi
 10492 64b3 48894424 		movq	%rax, 104(%rsp)
 10492      68
 10493 64b8 488D4360 		leaq	96(%rbx), %rax
 10494 64bc C78424A8 		movl	$16, 168(%rsp)
 10494      00000010 
 10494      000000
 10495 64c7 48C78424 		movq	$0, 184(%rsp)
 10495      B8000000 
 10495      00000000 
 10496 64d3 C68424C0 		movb	$0, 192(%rsp)
 10496      00000000 
 10497 64db 48898424 		movq	%rax, 176(%rsp)
 10497      B0000000 
 10498 64e3 488B4424 		movq	96(%rsp), %rax
 10498      60
 10499 64e8 488B78E8 		movq	-24(%rax), %rdi
 10500 64ec 4801DF   		addq	%rbx, %rdi
 10501              	.LEHB311:
 10502 64ef E8000000 		call	_ZNSt9basic_iosIcSt11char_traitsIcEE4initEPSt15basic_streambufIcS1_E@PLT
 10502      00
 10503              	.LEHE311:
 10504 64f4 4C8D3D00 		leaq	24+_ZTVN8UnitTest15MemoryOutStreamE(%rip), %r15
 10504      000000
 10505 64fb 488D3500 		leaq	.LC2(%rip), %rsi
 10505      000000
 10506 6502 BA090000 		movl	$9, %edx
 10506      00
 10507 6507 4889DF   		movq	%rbx, %rdi
 10508 650a 48C78424 		movq	$0, 216(%rsp)
 10508      D8000000 
 10508      00000000 
 10509 6516 C68424E0 		movb	$0, 224(%rsp)
 10509      00000000 
 10510 651e 498D4728 		leaq	40(%r15), %rax
 10511 6522 4C897C24 		movq	%r15, 96(%rsp)
 10511      60
 10512 6527 48898424 		movq	%rax, 240(%rsp)
 10512      F0000000 
 10513 652f 488D8380 		leaq	128(%rbx), %rax
 10513      000000
 10514 6536 48898424 		movq	%rax, 208(%rsp)
 10514      D0000000 
 10515              	.LEHB312:
 10516 653e E8000000 		call	_ZSt16__ostream_insertIcSt11char_traitsIcEERSt13basic_ostreamIT_T0_ES6_PKS3_l@PLT
 10516      00
 10517 6543 F20F1005 		movsd	.LC71(%rip), %xmm0
 10517      00000000 
 10518 654b 4889DF   		movq	%rbx, %rdi
 10519 654e E8000000 		call	_ZNSo9_M_insertIdEERSoT_@PLT
 10519      00
 10520 6553 488D3500 		leaq	.LC4(%rip), %rsi
 10520      000000
 10521 655a BA050000 		movl	$5, %edx
 10521      00
 10522 655f 4889C7   		movq	%rax, %rdi
 10523 6562 48894424 		movq	%rax, 8(%rsp)
 10523      08
 10524 6567 E8000000 		call	_ZSt16__ostream_insertIcSt11char_traitsIcEERSt13basic_ostreamIT_T0_ES6_PKS3_l@PLT
 10524      00
 10525 656c 488B7C24 		movq	8(%rsp), %rdi
 10525      08
 10526 6571 F20F1005 		movsd	.LC69(%rip), %xmm0
 10526      00000000 
 10527 6579 E8000000 		call	_ZNSo9_M_insertIdEERSoT_@PLT
 10527      00
 10528 657e 488D3500 		leaq	.LC6(%rip), %rsi
 10528      000000
 10529 6585 BA090000 		movl	$9, %edx
 10529      00
 10530 658a 4889C7   		movq	%rax, %rdi
 10531 658d 48894424 		movq	%rax, 8(%rsp)
 10531      08
 10532 6592 E8000000 		call	_ZSt16__ostream_insertIcSt11char_traitsIcEERSt13basic_ostreamIT_T0_ES6_PKS3_l@PLT
 10532      00
 10533 6597 488B7C24 		movq	8(%rsp), %rdi
 10533      08
 10534 659c F20F1005 		movsd	.LC70(%rip), %xmm0
 10534      00000000 
 10535 65a4 E8000000 		call	_ZNSo9_M_insertIdEERSoT_@PLT
 10535      00
 10536 65a9 4889DF   		movq	%rbx, %rdi
 10537 65ac E8000000 		call	_ZNK8UnitTest15MemoryOutStream7GetTextEv@PLT
 10537      00
 10538 65b1 4889C2   		movq	%rax, %rdx
 10539 65b4 4889EE   		movq	%rbp, %rsi
 10540 65b7 4C89E7   		movq	%r12, %rdi
 10541 65ba E8000000 		call	_ZN8UnitTest11TestResults13OnTestFailureERKNS_11TestDetailsEPKc@PLT
 10541      00
 10542              	.LEHE312:
 10543 65bf 488D0500 		leaq	64+_ZTVN8UnitTest15MemoryOutStreamE(%rip), %rax
 10543      000000
 10544 65c6 488BBC24 		movq	208(%rsp), %rdi
 10544      D0000000 
 10545 65ce 4C897C24 		movq	%r15, 96(%rsp)
 10545      60
 10546 65d3 48898424 		movq	%rax, 240(%rsp)
 10546      F0000000 
 10547 65db 488D8380 		leaq	128(%rbx), %rax
 10547      000000
 10548 65e2 4839C7   		cmpq	%rax, %rdi
 10549 65e5 7405     		je	.L848
 10550 65e7 E8000000 		call	_ZdlPv@PLT
 10550      00
 10551              	.L848:
 10552 65ec 488D0500 		leaq	64+_ZTCN8UnitTest15MemoryOutStreamE0_NSt7__cxx1119basic_ostringstreamIcSt11char_traitsIcESaIc
 10552      000000
 10553 65f3 488BBC24 		movq	176(%rsp), %rdi
 10553      B0000000 
 10554 65fb F30F7E05 		movq	.LC14(%rip), %xmm0
 10554      00000000 
 10555 6603 48898424 		movq	%rax, 240(%rsp)
 10555      F0000000 
 10556 660b 488D4360 		leaq	96(%rbx), %rax
 10557 660f 0F160500 		movhps	.LC15(%rip), %xmm0
 10557      000000
 10558 6616 4839C7   		cmpq	%rax, %rdi
 10559 6619 0F294424 		movaps	%xmm0, 96(%rsp)
 10559      60
 10560 661e 7405     		je	.L849
 10561 6620 E8000000 		call	_ZdlPv@PLT
 10561      00
 10562              	.L849:
 10563 6625 488D7B40 		leaq	64(%rbx), %rdi
 10564 6629 4C897424 		movq	%r14, 104(%rsp)
 10564      68
 10565 662e E8000000 		call	_ZNSt6localeD1Ev@PLT
 10565      00
 10566 6633 488D0500 		leaq	16+_ZTVSt9basic_iosIcSt11char_traitsIcEE(%rip), %rax
 10566      000000
 10567 663a 488DBB90 		leaq	144(%rbx), %rdi
 10567      000000
 10568 6641 4C896C24 		movq	%r13, 96(%rsp)
 10568      60
 10569 6646 48898424 		movq	%rax, 240(%rsp)
 10569      F0000000 
 10570              	.LEHB313:
 10571 664e E8000000 		call	_ZNSt8ios_baseD2Ev@PLT
 10571      00
 10572              	.LEHE313:
 10573              	.LEHB314:
 10574 6653 E8000000 		call	_ZN8UnitTest11CurrentTest7DetailsEv@PLT
 10574      00
 10575 6658 488B30   		movq	(%rax), %rsi
 10576 665b BA6E0000 		movl	$110, %edx
 10576      00
 10577 6660 4889EF   		movq	%rbp, %rdi
 10578 6663 E8000000 		call	_ZN8UnitTest11TestDetailsC1ERKS0_i@PLT
 10578      00
 10579 6668 4C89E7   		movq	%r12, %rdi
 10580 666b E8000000 		call	_ZNK8UnitTest11TestResults15GetFailureCountEv@PLT
 10580      00
 10581 6670 8944241C 		movl	%eax, 28(%rsp)
 10582 6674 C7442418 		movl	$1, 24(%rsp)
 10582      01000000 
 10583 667c E8000000 		call	_ZN8UnitTest11CurrentTest7ResultsEv@PLT
 10583      00
 10584 6681 488B38   		movq	(%rax), %rdi
 10585 6684 488D5424 		leaq	28(%rsp), %rdx
 10585      1C
 10586 6689 488D7424 		leaq	24(%rsp), %rsi
 10586      18
 10587 668e 4889E9   		movq	%rbp, %rcx
 10588 6691 E8000000 		call	_ZN8UnitTest10CheckEqualIiiEEvRNS_11TestResultsERKT_RKT0_RKNS_11TestDetailsE
 10588      00
 10589              	.LEHE314:
 10590              	.L843:
 10591 6696 488B8424 		movq	504(%rsp), %rax
 10591      F8010000 
 10592 669e 64483304 		xorq	%fs:40, %rax
 10592      25280000 
 10592      00
 10593 66a7 7512     		jne	.L865
 10594 66a9 4881C408 		addq	$520, %rsp
 10594      020000
 10595              		.cfi_remember_state
 10596              		.cfi_def_cfa_offset 56
 10597 66b0 5B       		popq	%rbx
 10598              		.cfi_def_cfa_offset 48
 10599 66b1 5D       		popq	%rbp
 10600              		.cfi_def_cfa_offset 40
 10601 66b2 415C     		popq	%r12
 10602              		.cfi_def_cfa_offset 32
 10603 66b4 415D     		popq	%r13
 10604              		.cfi_def_cfa_offset 24
 10605 66b6 415E     		popq	%r14
 10606              		.cfi_def_cfa_offset 16
 10607 66b8 415F     		popq	%r15
 10608              		.cfi_def_cfa_offset 8
 10609 66ba C3       		ret
 10610              	.L865:
 10611              		.cfi_restore_state
 10612 66bb E8000000 		call	__stack_chk_fail@PLT
 10612      00
 10613              	.L858:
 10614 66c0 4889C5   		movq	%rax, %rbp
 10615 66c3 4889DF   		movq	%rbx, %rdi
 10616 66c6 E8000000 		call	_ZN8UnitTest15MemoryOutStreamD1Ev
 10616      00
 10617 66cb 4889EF   		movq	%rbp, %rdi
 10618              	.LEHB315:
 10619 66ce E8000000 		call	_Unwind_Resume@PLT
 10619      00
 10620              	.LEHE315:
 10621              	.L856:
 10622 66d3 4889C7   		movq	%rax, %rdi
 10623 66d6 E8000000 		call	__cxa_begin_catch@PLT
 10623      00
 10624              	.LEHB316:
 10625 66db E8000000 		call	_ZN8UnitTest11CurrentTest7ResultsEv@PLT
 10625      00
 10626 66e0 488B18   		movq	(%rax), %rbx
 10627 66e3 E8000000 		call	_ZN8UnitTest11CurrentTest7DetailsEv@PLT
 10627      00
 10628 66e8 488B30   		movq	(%rax), %rsi
 10629 66eb BA6E0000 		movl	$110, %edx
 10629      00
 10630 66f0 4889EF   		movq	%rbp, %rdi
 10631 66f3 E8000000 		call	_ZN8UnitTest11TestDetailsC1ERKS0_i@PLT
 10631      00
 10632 66f8 488D1500 		leaq	.LC29(%rip), %rdx
 10632      000000
 10633 66ff 4889EE   		movq	%rbp, %rsi
 10634 6702 4889DF   		movq	%rbx, %rdi
 10635 6705 E8000000 		call	_ZN8UnitTest11TestResults13OnTestFailureERKNS_11TestDetailsEPKc@PLT
 10635      00
 10636              	.LEHE316:
 10637              	.LEHB317:
 10638 670a E8000000 		call	__cxa_end_catch@PLT
 10638      00
 10639              	.LEHE317:
 10640 670f EB85     		jmp	.L843
 10641              	.L860:
 10642 6711 488D7B08 		leaq	8(%rbx), %rdi
 10643 6715 4889C5   		movq	%rax, %rbp
 10644 6718 E8000000 		call	_ZNSt7__cxx1115basic_stringbufIcSt11char_traitsIcESaIcEED1Ev
 10644      00
 10645 671d 4C896C24 		movq	%r13, 96(%rsp)
 10645      60
 10646              	.L846:
 10647 6722 488D0500 		leaq	16+_ZTVSt9basic_iosIcSt11char_traitsIcEE(%rip), %rax
 10647      000000
 10648 6729 488DBB90 		leaq	144(%rbx), %rdi
 10648      000000
 10649 6730 48898424 		movq	%rax, 240(%rsp)
 10649      F0000000 
 10650 6738 E8000000 		call	_ZNSt8ios_baseD2Ev@PLT
 10650      00
 10651 673d 4889EF   		movq	%rbp, %rdi
 10652              	.LEHB318:
 10653 6740 E8000000 		call	_Unwind_Resume@PLT
 10653      00
 10654              	.LEHE318:
 10655              	.L859:
 10656 6745 4889C5   		movq	%rax, %rbp
 10657 6748 EBD8     		jmp	.L846
 10658              	.L857:
 10659 674a 4889C3   		movq	%rax, %rbx
 10660 674d E8000000 		call	__cxa_end_catch@PLT
 10660      00
 10661 6752 4889DF   		movq	%rbx, %rdi
 10662              	.LEHB319:
 10663 6755 E8000000 		call	_Unwind_Resume@PLT
 10663      00
 10664              	.LEHE319:
 10665              		.cfi_endproc
 10666              	.LFE1195:
 10667              		.section	.gcc_except_table
 10668              		.align 4
 10669              	.LLSDA1195:
 10670 0818 FF       		.byte	0xff
 10671 0819 9B       		.byte	0x9b
 10672 081a 45       		.uleb128 .LLSDATT1195-.LLSDATTD1195
 10673              	.LLSDATTD1195:
 10674 081b 01       		.byte	0x1
 10675 081c 3C       		.uleb128 .LLSDACSE1195-.LLSDACSB1195
 10676              	.LLSDACSB1195:
 10677 081d 46       		.uleb128 .LEHB309-.LFB1195
 10678 081e 1D       		.uleb128 .LEHE309-.LEHB309
 10679 081f 00       		.uleb128 0
 10680 0820 00       		.uleb128 0
 10681 0821 CD01     		.uleb128 .LEHB310-.LFB1195
 10682 0823 05       		.uleb128 .LEHE310-.LEHB310
 10683 0824 B507     		.uleb128 .L859-.LFB1195
 10684 0826 00       		.uleb128 0
 10685 0827 DF02     		.uleb128 .LEHB311-.LFB1195
 10686 0829 05       		.uleb128 .LEHE311-.LEHB311
 10687 082a 8107     		.uleb128 .L860-.LFB1195
 10688 082c 00       		.uleb128 0
 10689 082d AE03     		.uleb128 .LEHB312-.LFB1195
 10690 082f 8101     		.uleb128 .LEHE312-.LEHB312
 10691 0831 B006     		.uleb128 .L858-.LFB1195
 10692 0833 00       		.uleb128 0
 10693 0834 BE05     		.uleb128 .LEHB313-.LFB1195
 10694 0836 05       		.uleb128 .LEHE313-.LEHB313
 10695 0837 00       		.uleb128 0
 10696 0838 00       		.uleb128 0
 10697 0839 C305     		.uleb128 .LEHB314-.LFB1195
 10698 083b 43       		.uleb128 .LEHE314-.LEHB314
 10699 083c C306     		.uleb128 .L856-.LFB1195
 10700 083e 01       		.uleb128 0x1
 10701 083f BE06     		.uleb128 .LEHB315-.LFB1195
 10702 0841 05       		.uleb128 .LEHE315-.LEHB315
 10703 0842 00       		.uleb128 0
 10704 0843 00       		.uleb128 0
 10705 0844 CB06     		.uleb128 .LEHB316-.LFB1195
 10706 0846 2F       		.uleb128 .LEHE316-.LEHB316
 10707 0847 BA07     		.uleb128 .L857-.LFB1195
 10708 0849 00       		.uleb128 0
 10709 084a FA06     		.uleb128 .LEHB317-.LFB1195
 10710 084c 05       		.uleb128 .LEHE317-.LEHB317
 10711 084d 00       		.uleb128 0
 10712 084e 00       		.uleb128 0
 10713 084f B007     		.uleb128 .LEHB318-.LFB1195
 10714 0851 05       		.uleb128 .LEHE318-.LEHB318
 10715 0852 00       		.uleb128 0
 10716 0853 00       		.uleb128 0
 10717 0854 C507     		.uleb128 .LEHB319-.LFB1195
 10718 0856 05       		.uleb128 .LEHE319-.LEHB319
 10719 0857 00       		.uleb128 0
 10720 0858 00       		.uleb128 0
 10721              	.LLSDACSE1195:
 10722 0859 01       		.byte	0x1
 10723 085a 00       		.byte	0
 10724 085b 00       		.align 4
 10725 085c 00000000 		.long	0
 10726              	
 10727              	.LLSDATT1195:
 10728              		.text
 10730              		.align 2
 10731 675a 660F1F44 		.p2align 4,,15
 10731      0000
 10733              	_ZNK12_GLOBAL__N_118TestCheckCloseTrue7RunImplEv:
 10734              	.LFB1191:
 10735              		.cfi_startproc
 10736              		.cfi_personality 0x9b,DW.ref.__gxx_personality_v0
 10737              		.cfi_lsda 0x1b,.LLSDA1191
 10738 6760 55       		pushq	%rbp
 10739              		.cfi_def_cfa_offset 16
 10740              		.cfi_offset 6, -16
 10741 6761 53       		pushq	%rbx
 10742              		.cfi_def_cfa_offset 24
 10743              		.cfi_offset 3, -24
 10744 6762 31F6     		xorl	%esi, %esi
 10745 6764 4883EC68 		subq	$104, %rsp
 10746              		.cfi_def_cfa_offset 128
 10747 6768 488D6C24 		leaq	16(%rsp), %rbp
 10747      10
 10748 676d 488D5C24 		leaq	48(%rsp), %rbx
 10748      30
 10749 6772 64488B04 		movq	%fs:40, %rax
 10749      25280000 
 10749      00
 10750 677b 48894424 		movq	%rax, 88(%rsp)
 10750      58
 10751 6780 31C0     		xorl	%eax, %eax
 10752 6782 4889EF   		movq	%rbp, %rdi
 10753              	.LEHB320:
 10754 6785 E8000000 		call	_ZN8UnitTest11TestResultsC1EPNS_12TestReporterE@PLT
 10754      00
 10755 678a 488D0D00 		leaq	.LC1(%rip), %rcx
 10755      000000
 10756 6791 4531C0   		xorl	%r8d, %r8d
 10757 6794 4889DF   		movq	%rbx, %rdi
 10758 6797 4889CA   		movq	%rcx, %rdx
 10759 679a 4889CE   		movq	%rcx, %rsi
 10760 679d E8000000 		call	_ZN8UnitTest11TestDetailsC1EPKcS2_S2_i@PLT
 10760      00
 10761              	.LEHE320:
 10762              	.LEHB321:
 10763 67a2 E8000000 		call	_ZN8UnitTest11CurrentTest7DetailsEv@PLT
 10763      00
 10764 67a7 488B30   		movq	(%rax), %rsi
 10765 67aa BA670000 		movl	$103, %edx
 10765      00
 10766 67af 4889DF   		movq	%rbx, %rdi
 10767 67b2 E8000000 		call	_ZN8UnitTest11TestDetailsC1ERKS0_i@PLT
 10767      00
 10768 67b7 4889EF   		movq	%rbp, %rdi
 10769 67ba E8000000 		call	_ZNK8UnitTest11TestResults15GetFailureCountEv@PLT
 10769      00
 10770 67bf 8944240C 		movl	%eax, 12(%rsp)
 10771 67c3 C7442408 		movl	$0, 8(%rsp)
 10771      00000000 
 10772 67cb E8000000 		call	_ZN8UnitTest11CurrentTest7ResultsEv@PLT
 10772      00
 10773 67d0 488B38   		movq	(%rax), %rdi
 10774 67d3 488D5424 		leaq	12(%rsp), %rdx
 10774      0C
 10775 67d8 488D7424 		leaq	8(%rsp), %rsi
 10775      08
 10776 67dd 4889D9   		movq	%rbx, %rcx
 10777 67e0 E8000000 		call	_ZN8UnitTest10CheckEqualIiiEEvRNS_11TestResultsERKT_RKT0_RKNS_11TestDetailsE
 10777      00
 10778              	.LEHE321:
 10779              	.L866:
 10780 67e5 488B4424 		movq	88(%rsp), %rax
 10780      58
 10781 67ea 64483304 		xorq	%fs:40, %rax
 10781      25280000 
 10781      00
 10782 67f3 7507     		jne	.L874
 10783 67f5 4883C468 		addq	$104, %rsp
 10784              		.cfi_remember_state
 10785              		.cfi_def_cfa_offset 24
 10786 67f9 5B       		popq	%rbx
 10787              		.cfi_def_cfa_offset 16
 10788 67fa 5D       		popq	%rbp
 10789              		.cfi_def_cfa_offset 8
 10790 67fb C3       		ret
 10791              	.L874:
 10792              		.cfi_restore_state
 10793 67fc E8000000 		call	__stack_chk_fail@PLT
 10793      00
 10794              	.L871:
 10795 6801 4889C7   		movq	%rax, %rdi
 10796 6804 E8000000 		call	__cxa_begin_catch@PLT
 10796      00
 10797              	.LEHB322:
 10798 6809 E8000000 		call	_ZN8UnitTest11CurrentTest7ResultsEv@PLT
 10798      00
 10799 680e 488B28   		movq	(%rax), %rbp
 10800 6811 E8000000 		call	_ZN8UnitTest11CurrentTest7DetailsEv@PLT
 10800      00
 10801 6816 488B30   		movq	(%rax), %rsi
 10802 6819 BA670000 		movl	$103, %edx
 10802      00
 10803 681e 4889DF   		movq	%rbx, %rdi
 10804 6821 E8000000 		call	_ZN8UnitTest11TestDetailsC1ERKS0_i@PLT
 10804      00
 10805 6826 488D1500 		leaq	.LC27(%rip), %rdx
 10805      000000
 10806 682d 4889DE   		movq	%rbx, %rsi
 10807 6830 4889EF   		movq	%rbp, %rdi
 10808 6833 E8000000 		call	_ZN8UnitTest11TestResults13OnTestFailureERKNS_11TestDetailsEPKc@PLT
 10808      00
 10809              	.LEHE322:
 10810              	.LEHB323:
 10811 6838 E8000000 		call	__cxa_end_catch@PLT
 10811      00
 10812              	.LEHE323:
 10813 683d EBA6     		jmp	.L866
 10814              	.L872:
 10815 683f 4889C3   		movq	%rax, %rbx
 10816 6842 E8000000 		call	__cxa_end_catch@PLT
 10816      00
 10817 6847 4889DF   		movq	%rbx, %rdi
 10818              	.LEHB324:
 10819 684a E8000000 		call	_Unwind_Resume@PLT
 10819      00
 10820              	.LEHE324:
 10821              		.cfi_endproc
 10822              	.LFE1191:
 10823              		.section	.gcc_except_table
 10824              		.align 4
 10825              	.LLSDA1191:
 10826 0860 FF       		.byte	0xff
 10827 0861 9B       		.byte	0x9b
 10828 0862 21       		.uleb128 .LLSDATT1191-.LLSDATTD1191
 10829              	.LLSDATTD1191:
 10830 0863 01       		.byte	0x1
 10831 0864 19       		.uleb128 .LLSDACSE1191-.LLSDACSB1191
 10832              	.LLSDACSB1191:
 10833 0865 25       		.uleb128 .LEHB320-.LFB1191
 10834 0866 1D       		.uleb128 .LEHE320-.LEHB320
 10835 0867 00       		.uleb128 0
 10836 0868 00       		.uleb128 0
 10837 0869 42       		.uleb128 .LEHB321-.LFB1191
 10838 086a 43       		.uleb128 .LEHE321-.LEHB321
 10839 086b A101     		.uleb128 .L871-.LFB1191
 10840 086d 01       		.uleb128 0x1
 10841 086e A901     		.uleb128 .LEHB322-.LFB1191
 10842 0870 2F       		.uleb128 .LEHE322-.LEHB322
 10843 0871 DF01     		.uleb128 .L872-.LFB1191
 10844 0873 00       		.uleb128 0
 10845 0874 D801     		.uleb128 .LEHB323-.LFB1191
 10846 0876 05       		.uleb128 .LEHE323-.LEHB323
 10847 0877 00       		.uleb128 0
 10848 0878 00       		.uleb128 0
 10849 0879 EA01     		.uleb128 .LEHB324-.LFB1191
 10850 087b 05       		.uleb128 .LEHE324-.LEHB324
 10851 087c 00       		.uleb128 0
 10852 087d 00       		.uleb128 0
 10853              	.LLSDACSE1191:
 10854 087e 01       		.byte	0x1
 10855 087f 00       		.byte	0
 10856              		.align 4
 10857 0880 00000000 		.long	0
 10858              	
 10859              	.LLSDATT1191:
 10860              		.text
 10862 684f 90       		.align 2
 10863              		.p2align 4,,15
 10865              	_ZNK12_GLOBAL__N_147TestCheckCloseWithZeroEpsilonWorksForSameNumber7RunImplEv:
 10866              	.LFB1199:
 10867              		.cfi_startproc
 10868              		.cfi_personality 0x9b,DW.ref.__gxx_personality_v0
 10869              		.cfi_lsda 0x1b,.LLSDA1199
 10870 6850 55       		pushq	%rbp
 10871              		.cfi_def_cfa_offset 16
 10872              		.cfi_offset 6, -16
 10873 6851 53       		pushq	%rbx
 10874              		.cfi_def_cfa_offset 24
 10875              		.cfi_offset 3, -24
 10876 6852 31F6     		xorl	%esi, %esi
 10877 6854 4883EC68 		subq	$104, %rsp
 10878              		.cfi_def_cfa_offset 128
 10879 6858 488D6C24 		leaq	16(%rsp), %rbp
 10879      10
 10880 685d 488D5C24 		leaq	48(%rsp), %rbx
 10880      30
 10881 6862 64488B04 		movq	%fs:40, %rax
 10881      25280000 
 10881      00
 10882 686b 48894424 		movq	%rax, 88(%rsp)
 10882      58
 10883 6870 31C0     		xorl	%eax, %eax
 10884 6872 4889EF   		movq	%rbp, %rdi
 10885              	.LEHB325:
 10886 6875 E8000000 		call	_ZN8UnitTest11TestResultsC1EPNS_12TestReporterE@PLT
 10886      00
 10887 687a 488D0D00 		leaq	.LC1(%rip), %rcx
 10887      000000
 10888 6881 4531C0   		xorl	%r8d, %r8d
 10889 6884 4889DF   		movq	%rbx, %rdi
 10890 6887 4889CA   		movq	%rcx, %rdx
 10891 688a 4889CE   		movq	%rcx, %rsi
 10892 688d E8000000 		call	_ZN8UnitTest11TestDetailsC1EPKcS2_S2_i@PLT
 10892      00
 10893              	.LEHE325:
 10894              	.LEHB326:
 10895 6892 E8000000 		call	_ZN8UnitTest11CurrentTest7DetailsEv@PLT
 10895      00
 10896 6897 488B30   		movq	(%rax), %rsi
 10897 689a BA750000 		movl	$117, %edx
 10897      00
 10898 689f 4889DF   		movq	%rbx, %rdi
 10899 68a2 E8000000 		call	_ZN8UnitTest11TestDetailsC1ERKS0_i@PLT
 10899      00
 10900 68a7 4889EF   		movq	%rbp, %rdi
 10901 68aa E8000000 		call	_ZNK8UnitTest11TestResults15GetFailureCountEv@PLT
 10901      00
 10902 68af 8944240C 		movl	%eax, 12(%rsp)
 10903 68b3 C7442408 		movl	$0, 8(%rsp)
 10903      00000000 
 10904 68bb E8000000 		call	_ZN8UnitTest11CurrentTest7ResultsEv@PLT
 10904      00
 10905 68c0 488B38   		movq	(%rax), %rdi
 10906 68c3 488D5424 		leaq	12(%rsp), %rdx
 10906      0C
 10907 68c8 488D7424 		leaq	8(%rsp), %rsi
 10907      08
 10908 68cd 4889D9   		movq	%rbx, %rcx
 10909 68d0 E8000000 		call	_ZN8UnitTest10CheckEqualIiiEEvRNS_11TestResultsERKT_RKT0_RKNS_11TestDetailsE
 10909      00
 10910              	.LEHE326:
 10911              	.L875:
 10912 68d5 488B4424 		movq	88(%rsp), %rax
 10912      58
 10913 68da 64483304 		xorq	%fs:40, %rax
 10913      25280000 
 10913      00
 10914 68e3 7507     		jne	.L883
 10915 68e5 4883C468 		addq	$104, %rsp
 10916              		.cfi_remember_state
 10917              		.cfi_def_cfa_offset 24
 10918 68e9 5B       		popq	%rbx
 10919              		.cfi_def_cfa_offset 16
 10920 68ea 5D       		popq	%rbp
 10921              		.cfi_def_cfa_offset 8
 10922 68eb C3       		ret
 10923              	.L883:
 10924              		.cfi_restore_state
 10925 68ec E8000000 		call	__stack_chk_fail@PLT
 10925      00
 10926              	.L880:
 10927 68f1 4889C7   		movq	%rax, %rdi
 10928 68f4 E8000000 		call	__cxa_begin_catch@PLT
 10928      00
 10929              	.LEHB327:
 10930 68f9 E8000000 		call	_ZN8UnitTest11CurrentTest7ResultsEv@PLT
 10930      00
 10931 68fe 488B28   		movq	(%rax), %rbp
 10932 6901 E8000000 		call	_ZN8UnitTest11CurrentTest7DetailsEv@PLT
 10932      00
 10933 6906 488B30   		movq	(%rax), %rsi
 10934 6909 BA750000 		movl	$117, %edx
 10934      00
 10935 690e 4889DF   		movq	%rbx, %rdi
 10936 6911 E8000000 		call	_ZN8UnitTest11TestDetailsC1ERKS0_i@PLT
 10936      00
 10937 6916 488D1500 		leaq	.LC27(%rip), %rdx
 10937      000000
 10938 691d 4889DE   		movq	%rbx, %rsi
 10939 6920 4889EF   		movq	%rbp, %rdi
 10940 6923 E8000000 		call	_ZN8UnitTest11TestResults13OnTestFailureERKNS_11TestDetailsEPKc@PLT
 10940      00
 10941              	.LEHE327:
 10942              	.LEHB328:
 10943 6928 E8000000 		call	__cxa_end_catch@PLT
 10943      00
 10944              	.LEHE328:
 10945 692d EBA6     		jmp	.L875
 10946              	.L881:
 10947 692f 4889C3   		movq	%rax, %rbx
 10948 6932 E8000000 		call	__cxa_end_catch@PLT
 10948      00
 10949 6937 4889DF   		movq	%rbx, %rdi
 10950              	.LEHB329:
 10951 693a E8000000 		call	_Unwind_Resume@PLT
 10951      00
 10952              	.LEHE329:
 10953              		.cfi_endproc
 10954              	.LFE1199:
 10955              		.section	.gcc_except_table
 10956              		.align 4
 10957              	.LLSDA1199:
 10958 0884 FF       		.byte	0xff
 10959 0885 9B       		.byte	0x9b
 10960 0886 21       		.uleb128 .LLSDATT1199-.LLSDATTD1199
 10961              	.LLSDATTD1199:
 10962 0887 01       		.byte	0x1
 10963 0888 19       		.uleb128 .LLSDACSE1199-.LLSDACSB1199
 10964              	.LLSDACSB1199:
 10965 0889 25       		.uleb128 .LEHB325-.LFB1199
 10966 088a 1D       		.uleb128 .LEHE325-.LEHB325
 10967 088b 00       		.uleb128 0
 10968 088c 00       		.uleb128 0
 10969 088d 42       		.uleb128 .LEHB326-.LFB1199
 10970 088e 43       		.uleb128 .LEHE326-.LEHB326
 10971 088f A101     		.uleb128 .L880-.LFB1199
 10972 0891 01       		.uleb128 0x1
 10973 0892 A901     		.uleb128 .LEHB327-.LFB1199
 10974 0894 2F       		.uleb128 .LEHE327-.LEHB327
 10975 0895 DF01     		.uleb128 .L881-.LFB1199
 10976 0897 00       		.uleb128 0
 10977 0898 D801     		.uleb128 .LEHB328-.LFB1199
 10978 089a 05       		.uleb128 .LEHE328-.LEHB328
 10979 089b 00       		.uleb128 0
 10980 089c 00       		.uleb128 0
 10981 089d EA01     		.uleb128 .LEHB329-.LFB1199
 10982 089f 05       		.uleb128 .LEHE329-.LEHB329
 10983 08a0 00       		.uleb128 0
 10984 08a1 00       		.uleb128 0
 10985              	.LLSDACSE1199:
 10986 08a2 01       		.byte	0x1
 10987 08a3 00       		.byte	0
 10988              		.align 4
 10989 08a4 00000000 		.long	0
 10990              	
 10991              	.LLSDATT1199:
 10992              		.text
 10994              		.section	.rodata.str1.1
 10995              	.LC72:
 10996 00e6 54657374 		.string	"TestChecks.cpp"
 10996      43686563 
 10996      6B732E63 
 10996      707000
 10997              	.LC73:
 10998 00f5 44656661 		.string	"DefaultSuite"
 10998      756C7453 
 10998      75697465 
 10998      00
 10999              	.LC74:
 11000 0102 43686563 		.string	"CheckEqualWithUnsignedLong"
 11000      6B457175 
 11000      616C5769 
 11000      7468556E 
 11000      7369676E 
 11001              		.section	.rodata.str1.8
 11002              		.align 8
 11003              	.LC75:
 11004 0750 43686563 		.string	"CheckEqualsWithStringsFailsOnDifferentStrings"
 11004      6B457175 
 11004      616C7357 
 11004      69746853 
 11004      7472696E 
 11005 077e 0000     		.align 8
 11006              	.LC76:
 11007 0780 43686563 		.string	"CheckEqualsWithStringsWorksOnContentsNonConstNonConst"
 11007      6B457175 
 11007      616C7357 
 11007      69746853 
 11007      7472696E 
 11008 07b6 0000     		.align 8
 11009              	.LC77:
 11010 07b8 43686563 		.string	"CheckEqualsWithStringsWorksOnContentsConstConst"
 11010      6B457175 
 11010      616C7357 
 11010      69746853 
 11010      7472696E 
 11011              		.align 8
 11012              	.LC78:
 11013 07e8 43686563 		.string	"CheckEqualsWithStringsWorksOnContentsNonConstConst"
 11013      6B457175 
 11013      616C7357 
 11013      69746853 
 11013      7472696E 
 11014 081b 00000000 		.align 8
 11014      00
 11015              	.LC79:
 11016 0820 43686563 		.string	"CheckEqualsWithStringsWorksOnContentsConstNonConst"
 11016      6B457175 
 11016      616C7357 
 11016      69746853 
 11016      7472696E 
 11017 0853 00000000 		.align 8
 11017      00
 11018              	.LC80:
 11019 0858 43686563 		.string	"CheckEqualsWithStringsWorksOnContentsWithALiteral"
 11019      6B457175 
 11019      616C7357 
 11019      69746853 
 11019      7472696E 
 11020 088a 00000000 		.align 8
 11020      0000
 11021              	.LC81:
 11022 0890 43686563 		.string	"CheckEqualFailureIncludesCheckExpectedAndActual"
 11022      6B457175 
 11022      616C4661 
 11022      696C7572 
 11022      65496E63 
 11023              		.align 8
 11024              	.LC82:
 11025 08c0 43686563 		.string	"CheckEqualFailureIncludesDetails"
 11025      6B457175 
 11025      616C4661 
 11025      696C7572 
 11025      65496E63 
 11026              		.section	.rodata.str1.1
 11027              	.LC83:
 11028 011d 43686563 		.string	"CheckCloseTrue"
 11028      6B436C6F 
 11028      73655472 
 11028      756500
 11029              	.LC84:
 11030 012c 43686563 		.string	"CheckCloseFalse"
 11030      6B436C6F 
 11030      73654661 
 11030      6C736500 
 11031              		.section	.rodata.str1.8
 11032 08e1 00000000 		.align 8
 11032      000000
 11033              	.LC85:
 11034 08e8 43686563 		.string	"CheckCloseWithZeroEpsilonWorksForSameNumber"
 11034      6B436C6F 
 11034      73655769 
 11034      74685A65 
 11034      726F4570 
 11035              		.section	.rodata.str1.1
 11036              	.LC86:
 11037 013c 43686563 		.string	"CheckCloseWithNaNFails"
 11037      6B436C6F 
 11037      73655769 
 11037      74684E61 
 11037      4E466169 
 11038              		.section	.rodata.str1.8
 11039 0914 00000000 		.align 8
 11040              	.LC87:
 11041 0918 43686563 		.string	"CheckCloseWithNaNAgainstItselfFails"
 11041      6B436C6F 
 11041      73655769 
 11041      74684E61 
 11041      4E416761 
 11042 093c 00000000 		.align 8
 11043              	.LC88:
 11044 0940 43686563 		.string	"CheckCloseFailureIncludesCheckExpectedAndActual"
 11044      6B436C6F 
 11044      73654661 
 11044      696C7572 
 11044      65496E63 
 11045              		.align 8
 11046              	.LC89:
 11047 0970 43686563 		.string	"CheckCloseFailureIncludesTolerance"
 11047      6B436C6F 
 11047      73654661 
 11047      696C7572 
 11047      65496E63 
 11048 0993 00000000 		.align 8
 11048      00
 11049              	.LC90:
 11050 0998 43686563 		.string	"CheckCloseFailureIncludesDetails"
 11050      6B436C6F 
 11050      73654661 
 11050      696C7572 
 11050      65496E63 
 11051              		.section	.rodata.str1.1
 11052              	.LC91:
 11053 0153 43686563 		.string	"CheckArrayEqualTrue"
 11053      6B417272 
 11053      61794571 
 11053      75616C54 
 11053      72756500 
 11054              	.LC92:
 11055 0167 43686563 		.string	"CheckArrayEqualFalse"
 11055      6B417272 
 11055      61794571 
 11055      75616C46 
 11055      616C7365 
 11056              	.LC93:
 11057 017c 43686563 		.string	"CheckArrayCloseTrue"
 11057      6B417272 
 11057      6179436C 
 11057      6F736554 
 11057      72756500 
 11058              	.LC94:
 11059 0190 43686563 		.string	"CheckArrayCloseFalse"
 11059      6B417272 
 11059      6179436C 
 11059      6F736546 
 11059      616C7365 
 11060              		.section	.rodata.str1.8
 11061 09b9 00000000 		.align 8
 11061      000000
 11062              	.LC95:
 11063 09c0 43686563 		.string	"CheckArrayCloseFailureIncludesDetails"
 11063      6B417272 
 11063      6179436C 
 11063      6F736546 
 11063      61696C75 
 11064              		.section	.rodata.str1.1
 11065              	.LC96:
 11066 01a5 43686563 		.string	"CheckArray2DCloseTrue"
 11066      6B417272 
 11066      61793244 
 11066      436C6F73 
 11066      65547275 
 11067              	.LC97:
 11068 01bb 43686563 		.string	"CheckArray2DCloseFalse"
 11068      6B417272 
 11068      61793244 
 11068      436C6F73 
 11068      6546616C 
 11069              	.LC98:
 11070 01d2 43686563 		.string	"CheckCloseWithDoublesSucceeds"
 11070      6B436C6F 
 11070      73655769 
 11070      7468446F 
 11070      75626C65 
 11071              		.section	.rodata.str1.8
 11072 09e6 0000     		.align 8
 11073              	.LC99:
 11074 09e8 43686563 		.string	"CheckArray2DCloseFailureIncludesDetails"
 11074      6B417272 
 11074      61793244 
 11074      436C6F73 
 11074      65466169 
 11075              		.section	.text.startup,"ax",@progbits
 11076              		.p2align 4,,15
 11078              	_GLOBAL__sub_I_TestChecks.cpp:
 11079              	.LFB1466:
 11080              		.cfi_startproc
 11081 0000 53       		pushq	%rbx
 11082              		.cfi_def_cfa_offset 16
 11083              		.cfi_offset 3, -16
 11084 0001 488D0D00 		leaq	.LC72(%rip), %rcx
 11084      000000
 11085 0008 488D1500 		leaq	.LC73(%rip), %rdx
 11085      000000
 11086 000f 488D3500 		leaq	.LC74(%rip), %rsi
 11086      000000
 11087 0016 488D3D00 		leaq	_ZN12_GLOBAL__N_138testCheckEqualWithUnsignedLongInstanceE(%rip), %rdi
 11087      000000
 11088 001d 41B80A00 		movl	$10, %r8d
 11088      0000
 11089 0023 488D1D00 		leaq	_ZN12_GLOBAL__N_138testCheckEqualWithUnsignedLongInstanceE(%rip), %rbx
 11089      000000
 11090 002a E8000000 		call	_ZN8UnitTest4TestC2EPKcS2_S2_i@PLT
 11090      00
 11091 002f 488D1500 		leaq	__dso_handle(%rip), %rdx
 11091      000000
 11092 0036 488D3D00 		leaq	_ZN12_GLOBAL__N_130TestCheckEqualWithUnsignedLongD1Ev(%rip), %rdi
 11092      000000
 11093 003d 488D0500 		leaq	16+_ZTVN12_GLOBAL__N_130TestCheckEqualWithUnsignedLongE(%rip), %rax
 11093      000000
 11094 0044 4889DE   		movq	%rbx, %rsi
 11095 0047 48890500 		movq	%rax, _ZN12_GLOBAL__N_138testCheckEqualWithUnsignedLongInstanceE(%rip)
 11095      000000
 11096 004e E8000000 		call	__cxa_atexit@PLT
 11096      00
 11097 0053 E8000000 		call	_ZN8UnitTest4Test11GetTestListEv@PLT
 11097      00
 11098 0058 488D3D00 		leaq	_ZN12_GLOBAL__N_131adderCheckEqualWithUnsignedLongE(%rip), %rdi
 11098      000000
 11099 005f 4889C6   		movq	%rax, %rsi
 11100 0062 4889DA   		movq	%rbx, %rdx
 11101 0065 488D1D00 		leaq	_ZN12_GLOBAL__N_157testCheckEqualsWithStringsFailsOnDifferentStringsInstanceE(%rip), %rbx
 11101      000000
 11102 006c E8000000 		call	_ZN8UnitTest9ListAdderC1ERNS_8TestListEPNS_4TestE@PLT
 11102      00
 11103 0071 488D0D00 		leaq	.LC72(%rip), %rcx
 11103      000000
 11104 0078 488D1500 		leaq	.LC73(%rip), %rdx
 11104      000000
 11105 007f 488D3500 		leaq	.LC75(%rip), %rsi
 11105      000000
 11106 0086 488D3D00 		leaq	_ZN12_GLOBAL__N_157testCheckEqualsWithStringsFailsOnDifferentStringsInstanceE(%rip), %rdi
 11106      000000
 11107 008d 41B81100 		movl	$17, %r8d
 11107      0000
 11108 0093 E8000000 		call	_ZN8UnitTest4TestC2EPKcS2_S2_i@PLT
 11108      00
 11109 0098 488D1500 		leaq	__dso_handle(%rip), %rdx
 11109      000000
 11110 009f 488D3D00 		leaq	_ZN12_GLOBAL__N_149TestCheckEqualsWithStringsFailsOnDifferentStringsD1Ev(%rip), %rdi
 11110      000000
 11111 00a6 488D0500 		leaq	16+_ZTVN12_GLOBAL__N_149TestCheckEqualsWithStringsFailsOnDifferentStringsE(%rip), %rax
 11111      000000
 11112 00ad 4889DE   		movq	%rbx, %rsi
 11113 00b0 48890500 		movq	%rax, _ZN12_GLOBAL__N_157testCheckEqualsWithStringsFailsOnDifferentStringsInstanceE(%rip)
 11113      000000
 11114 00b7 E8000000 		call	__cxa_atexit@PLT
 11114      00
 11115 00bc E8000000 		call	_ZN8UnitTest4Test11GetTestListEv@PLT
 11115      00
 11116 00c1 488D3D00 		leaq	_ZN12_GLOBAL__N_150adderCheckEqualsWithStringsFailsOnDifferentStringsE(%rip), %rdi
 11116      000000
 11117 00c8 4889C6   		movq	%rax, %rsi
 11118 00cb 4889DA   		movq	%rbx, %rdx
 11119 00ce 488D1D00 		leaq	_ZN12_GLOBAL__N_165testCheckEqualsWithStringsWorksOnContentsNonConstNonConstInstanceE(%rip), 
 11119      000000
 11120 00d5 E8000000 		call	_ZN8UnitTest9ListAdderC1ERNS_8TestListEPNS_4TestE@PLT
 11120      00
 11121 00da 488D0D00 		leaq	.LC72(%rip), %rcx
 11121      000000
 11122 00e1 488D1500 		leaq	.LC73(%rip), %rdx
 11122      000000
 11123 00e8 488D3500 		leaq	.LC76(%rip), %rsi
 11123      000000
 11124 00ef 488D3D00 		leaq	_ZN12_GLOBAL__N_165testCheckEqualsWithStringsWorksOnContentsNonConstNonConstInstanceE(%rip), 
 11124      000000
 11125 00f6 41B81D00 		movl	$29, %r8d
 11125      0000
 11126 00fc E8000000 		call	_ZN8UnitTest4TestC2EPKcS2_S2_i@PLT
 11126      00
 11127 0101 488D1500 		leaq	__dso_handle(%rip), %rdx
 11127      000000
 11128 0108 488D3D00 		leaq	_ZN12_GLOBAL__N_157TestCheckEqualsWithStringsWorksOnContentsNonConstNonConstD1Ev(%rip), %rdi
 11128      000000
 11129 010f 488D0500 		leaq	16+_ZTVN12_GLOBAL__N_157TestCheckEqualsWithStringsWorksOnContentsNonConstNonConstE(%rip), %ra
 11129      000000
 11130 0116 4889DE   		movq	%rbx, %rsi
 11131 0119 48890500 		movq	%rax, _ZN12_GLOBAL__N_165testCheckEqualsWithStringsWorksOnContentsNonConstNonConstInstanceE(%
 11131      000000
 11132 0120 E8000000 		call	__cxa_atexit@PLT
 11132      00
 11133 0125 E8000000 		call	_ZN8UnitTest4Test11GetTestListEv@PLT
 11133      00
 11134 012a 488D3D00 		leaq	_ZN12_GLOBAL__N_158adderCheckEqualsWithStringsWorksOnContentsNonConstNonConstE(%rip), %rdi
 11134      000000
 11135 0131 4889C6   		movq	%rax, %rsi
 11136 0134 4889DA   		movq	%rbx, %rdx
 11137 0137 488D1D00 		leaq	_ZN12_GLOBAL__N_159testCheckEqualsWithStringsWorksOnContentsConstConstInstanceE(%rip), %rbx
 11137      000000
 11138 013e E8000000 		call	_ZN8UnitTest9ListAdderC1ERNS_8TestListEPNS_4TestE@PLT
 11138      00
 11139 0143 488D0D00 		leaq	.LC72(%rip), %rcx
 11139      000000
 11140 014a 488D1500 		leaq	.LC73(%rip), %rdx
 11140      000000
 11141 0151 488D3500 		leaq	.LC77(%rip), %rsi
 11141      000000
 11142 0158 488D3D00 		leaq	_ZN12_GLOBAL__N_159testCheckEqualsWithStringsWorksOnContentsConstConstInstanceE(%rip), %rdi
 11142      000000
 11143 015f 41B82600 		movl	$38, %r8d
 11143      0000
 11144 0165 E8000000 		call	_ZN8UnitTest4TestC2EPKcS2_S2_i@PLT
 11144      00
 11145 016a 488D1500 		leaq	__dso_handle(%rip), %rdx
 11145      000000
 11146 0171 488D3D00 		leaq	_ZN12_GLOBAL__N_151TestCheckEqualsWithStringsWorksOnContentsConstConstD1Ev(%rip), %rdi
 11146      000000
 11147 0178 488D0500 		leaq	16+_ZTVN12_GLOBAL__N_151TestCheckEqualsWithStringsWorksOnContentsConstConstE(%rip), %rax
 11147      000000
 11148 017f 4889DE   		movq	%rbx, %rsi
 11149 0182 48890500 		movq	%rax, _ZN12_GLOBAL__N_159testCheckEqualsWithStringsWorksOnContentsConstConstInstanceE(%rip)
 11149      000000
 11150 0189 E8000000 		call	__cxa_atexit@PLT
 11150      00
 11151 018e E8000000 		call	_ZN8UnitTest4Test11GetTestListEv@PLT
 11151      00
 11152 0193 488D3D00 		leaq	_ZN12_GLOBAL__N_152adderCheckEqualsWithStringsWorksOnContentsConstConstE(%rip), %rdi
 11152      000000
 11153 019a 4889C6   		movq	%rax, %rsi
 11154 019d 4889DA   		movq	%rbx, %rdx
 11155 01a0 488D1D00 		leaq	_ZN12_GLOBAL__N_162testCheckEqualsWithStringsWorksOnContentsNonConstConstInstanceE(%rip), %rb
 11155      000000
 11156 01a7 E8000000 		call	_ZN8UnitTest9ListAdderC1ERNS_8TestListEPNS_4TestE@PLT
 11156      00
 11157 01ac 488D0D00 		leaq	.LC72(%rip), %rcx
 11157      000000
 11158 01b3 488D1500 		leaq	.LC73(%rip), %rdx
 11158      000000
 11159 01ba 488D3500 		leaq	.LC78(%rip), %rsi
 11159      000000
 11160 01c1 488D3D00 		leaq	_ZN12_GLOBAL__N_162testCheckEqualsWithStringsWorksOnContentsNonConstConstInstanceE(%rip), %rd
 11160      000000
 11161 01c8 41B82F00 		movl	$47, %r8d
 11161      0000
 11162 01ce E8000000 		call	_ZN8UnitTest4TestC2EPKcS2_S2_i@PLT
 11162      00
 11163 01d3 488D1500 		leaq	__dso_handle(%rip), %rdx
 11163      000000
 11164 01da 488D3D00 		leaq	_ZN12_GLOBAL__N_154TestCheckEqualsWithStringsWorksOnContentsNonConstConstD1Ev(%rip), %rdi
 11164      000000
 11165 01e1 488D0500 		leaq	16+_ZTVN12_GLOBAL__N_154TestCheckEqualsWithStringsWorksOnContentsNonConstConstE(%rip), %rax
 11165      000000
 11166 01e8 4889DE   		movq	%rbx, %rsi
 11167 01eb 48890500 		movq	%rax, _ZN12_GLOBAL__N_162testCheckEqualsWithStringsWorksOnContentsNonConstConstInstanceE(%rip
 11167      000000
 11168 01f2 E8000000 		call	__cxa_atexit@PLT
 11168      00
 11169 01f7 E8000000 		call	_ZN8UnitTest4Test11GetTestListEv@PLT
 11169      00
 11170 01fc 488D3D00 		leaq	_ZN12_GLOBAL__N_155adderCheckEqualsWithStringsWorksOnContentsNonConstConstE(%rip), %rdi
 11170      000000
 11171 0203 4889C6   		movq	%rax, %rsi
 11172 0206 4889DA   		movq	%rbx, %rdx
 11173 0209 488D1D00 		leaq	_ZN12_GLOBAL__N_162testCheckEqualsWithStringsWorksOnContentsConstNonConstInstanceE(%rip), %rb
 11173      000000
 11174 0210 E8000000 		call	_ZN8UnitTest9ListAdderC1ERNS_8TestListEPNS_4TestE@PLT
 11174      00
 11175 0215 488D0D00 		leaq	.LC72(%rip), %rcx
 11175      000000
 11176 021c 488D1500 		leaq	.LC73(%rip), %rdx
 11176      000000
 11177 0223 488D3500 		leaq	.LC79(%rip), %rsi
 11177      000000
 11178 022a 488D3D00 		leaq	_ZN12_GLOBAL__N_162testCheckEqualsWithStringsWorksOnContentsConstNonConstInstanceE(%rip), %rd
 11178      000000
 11179 0231 41B83800 		movl	$56, %r8d
 11179      0000
 11180 0237 E8000000 		call	_ZN8UnitTest4TestC2EPKcS2_S2_i@PLT
 11180      00
 11181 023c 488D1500 		leaq	__dso_handle(%rip), %rdx
 11181      000000
 11182 0243 488D3D00 		leaq	_ZN12_GLOBAL__N_154TestCheckEqualsWithStringsWorksOnContentsConstNonConstD1Ev(%rip), %rdi
 11182      000000
 11183 024a 488D0500 		leaq	16+_ZTVN12_GLOBAL__N_154TestCheckEqualsWithStringsWorksOnContentsConstNonConstE(%rip), %rax
 11183      000000
 11184 0251 4889DE   		movq	%rbx, %rsi
 11185 0254 48890500 		movq	%rax, _ZN12_GLOBAL__N_162testCheckEqualsWithStringsWorksOnContentsConstNonConstInstanceE(%rip
 11185      000000
 11186 025b E8000000 		call	__cxa_atexit@PLT
 11186      00
 11187 0260 E8000000 		call	_ZN8UnitTest4Test11GetTestListEv@PLT
 11187      00
 11188 0265 488D3D00 		leaq	_ZN12_GLOBAL__N_155adderCheckEqualsWithStringsWorksOnContentsConstNonConstE(%rip), %rdi
 11188      000000
 11189 026c 4889C6   		movq	%rax, %rsi
 11190 026f 4889DA   		movq	%rbx, %rdx
 11191 0272 488D1D00 		leaq	_ZN12_GLOBAL__N_161testCheckEqualsWithStringsWorksOnContentsWithALiteralInstanceE(%rip), %rbx
 11191      000000
 11192 0279 E8000000 		call	_ZN8UnitTest9ListAdderC1ERNS_8TestListEPNS_4TestE@PLT
 11192      00
 11193 027e 488D0D00 		leaq	.LC72(%rip), %rcx
 11193      000000
 11194 0285 488D1500 		leaq	.LC73(%rip), %rdx
 11194      000000
 11195 028c 488D3500 		leaq	.LC80(%rip), %rsi
 11195      000000
 11196 0293 488D3D00 		leaq	_ZN12_GLOBAL__N_161testCheckEqualsWithStringsWorksOnContentsWithALiteralInstanceE(%rip), %rdi
 11196      000000
 11197 029a 41B84100 		movl	$65, %r8d
 11197      0000
 11198 02a0 E8000000 		call	_ZN8UnitTest4TestC2EPKcS2_S2_i@PLT
 11198      00
 11199 02a5 488D1500 		leaq	__dso_handle(%rip), %rdx
 11199      000000
 11200 02ac 488D3D00 		leaq	_ZN12_GLOBAL__N_153TestCheckEqualsWithStringsWorksOnContentsWithALiteralD1Ev(%rip), %rdi
 11200      000000
 11201 02b3 488D0500 		leaq	16+_ZTVN12_GLOBAL__N_153TestCheckEqualsWithStringsWorksOnContentsWithALiteralE(%rip), %rax
 11201      000000
 11202 02ba 4889DE   		movq	%rbx, %rsi
 11203 02bd 48890500 		movq	%rax, _ZN12_GLOBAL__N_161testCheckEqualsWithStringsWorksOnContentsWithALiteralInstanceE(%rip)
 11203      000000
 11204 02c4 E8000000 		call	__cxa_atexit@PLT
 11204      00
 11205 02c9 E8000000 		call	_ZN8UnitTest4Test11GetTestListEv@PLT
 11205      00
 11206 02ce 488D3D00 		leaq	_ZN12_GLOBAL__N_154adderCheckEqualsWithStringsWorksOnContentsWithALiteralE(%rip), %rdi
 11206      000000
 11207 02d5 4889C6   		movq	%rax, %rsi
 11208 02d8 4889DA   		movq	%rbx, %rdx
 11209 02db 488D1D00 		leaq	_ZN12_GLOBAL__N_159testCheckEqualFailureIncludesCheckExpectedAndActualInstanceE(%rip), %rbx
 11209      000000
 11210 02e2 E8000000 		call	_ZN8UnitTest9ListAdderC1ERNS_8TestListEPNS_4TestE@PLT
 11210      00
 11211 02e7 488D0D00 		leaq	.LC72(%rip), %rcx
 11211      000000
 11212 02ee 488D1500 		leaq	.LC73(%rip), %rdx
 11212      000000
 11213 02f5 488D3500 		leaq	.LC81(%rip), %rsi
 11213      000000
 11214 02fc 488D3D00 		leaq	_ZN12_GLOBAL__N_159testCheckEqualFailureIncludesCheckExpectedAndActualInstanceE(%rip), %rdi
 11214      000000
 11215 0303 41B84900 		movl	$73, %r8d
 11215      0000
 11216 0309 E8000000 		call	_ZN8UnitTest4TestC2EPKcS2_S2_i@PLT
 11216      00
 11217 030e 488D1500 		leaq	__dso_handle(%rip), %rdx
 11217      000000
 11218 0315 488D3D00 		leaq	_ZN12_GLOBAL__N_151TestCheckEqualFailureIncludesCheckExpectedAndActualD1Ev(%rip), %rdi
 11218      000000
 11219 031c 488D0500 		leaq	16+_ZTVN12_GLOBAL__N_151TestCheckEqualFailureIncludesCheckExpectedAndActualE(%rip), %rax
 11219      000000
 11220 0323 4889DE   		movq	%rbx, %rsi
 11221 0326 48890500 		movq	%rax, _ZN12_GLOBAL__N_159testCheckEqualFailureIncludesCheckExpectedAndActualInstanceE(%rip)
 11221      000000
 11222 032d E8000000 		call	__cxa_atexit@PLT
 11222      00
 11223 0332 E8000000 		call	_ZN8UnitTest4Test11GetTestListEv@PLT
 11223      00
 11224 0337 488D3D00 		leaq	_ZN12_GLOBAL__N_152adderCheckEqualFailureIncludesCheckExpectedAndActualE(%rip), %rdi
 11224      000000
 11225 033e 4889C6   		movq	%rax, %rsi
 11226 0341 4889DA   		movq	%rbx, %rdx
 11227 0344 488D1D00 		leaq	_ZN12_GLOBAL__N_144testCheckEqualFailureIncludesDetailsInstanceE(%rip), %rbx
 11227      000000
 11228 034b E8000000 		call	_ZN8UnitTest9ListAdderC1ERNS_8TestListEPNS_4TestE@PLT
 11228      00
 11229 0350 488D0D00 		leaq	.LC72(%rip), %rcx
 11229      000000
 11230 0357 488D1500 		leaq	.LC73(%rip), %rdx
 11230      000000
 11231 035e 488D3500 		leaq	.LC82(%rip), %rsi
 11231      000000
 11232 0365 488D3D00 		leaq	_ZN12_GLOBAL__N_144testCheckEqualFailureIncludesDetailsInstanceE(%rip), %rdi
 11232      000000
 11233 036c 41B85500 		movl	$85, %r8d
 11233      0000
 11234 0372 E8000000 		call	_ZN8UnitTest4TestC2EPKcS2_S2_i@PLT
 11234      00
 11235 0377 488D1500 		leaq	__dso_handle(%rip), %rdx
 11235      000000
 11236 037e 488D3D00 		leaq	_ZN12_GLOBAL__N_136TestCheckEqualFailureIncludesDetailsD1Ev(%rip), %rdi
 11236      000000
 11237 0385 488D0500 		leaq	16+_ZTVN12_GLOBAL__N_136TestCheckEqualFailureIncludesDetailsE(%rip), %rax
 11237      000000
 11238 038c 4889DE   		movq	%rbx, %rsi
 11239 038f 48890500 		movq	%rax, _ZN12_GLOBAL__N_144testCheckEqualFailureIncludesDetailsInstanceE(%rip)
 11239      000000
 11240 0396 E8000000 		call	__cxa_atexit@PLT
 11240      00
 11241 039b E8000000 		call	_ZN8UnitTest4Test11GetTestListEv@PLT
 11241      00
 11242 03a0 488D3D00 		leaq	_ZN12_GLOBAL__N_137adderCheckEqualFailureIncludesDetailsE(%rip), %rdi
 11242      000000
 11243 03a7 4889C6   		movq	%rax, %rsi
 11244 03aa 4889DA   		movq	%rbx, %rdx
 11245 03ad 488D1D00 		leaq	_ZN12_GLOBAL__N_126testCheckCloseTrueInstanceE(%rip), %rbx
 11245      000000
 11246 03b4 E8000000 		call	_ZN8UnitTest9ListAdderC1ERNS_8TestListEPNS_4TestE@PLT
 11246      00
 11247 03b9 488D0D00 		leaq	.LC72(%rip), %rcx
 11247      000000
 11248 03c0 488D1500 		leaq	.LC73(%rip), %rdx
 11248      000000
 11249 03c7 488D3500 		leaq	.LC83(%rip), %rsi
 11249      000000
 11250 03ce 488D3D00 		leaq	_ZN12_GLOBAL__N_126testCheckCloseTrueInstanceE(%rip), %rdi
 11250      000000
 11251 03d5 41B86300 		movl	$99, %r8d
 11251      0000
 11252 03db E8000000 		call	_ZN8UnitTest4TestC2EPKcS2_S2_i@PLT
 11252      00
 11253 03e0 488D1500 		leaq	__dso_handle(%rip), %rdx
 11253      000000
 11254 03e7 488D3D00 		leaq	_ZN12_GLOBAL__N_118TestCheckCloseTrueD1Ev(%rip), %rdi
 11254      000000
 11255 03ee 488D0500 		leaq	16+_ZTVN12_GLOBAL__N_118TestCheckCloseTrueE(%rip), %rax
 11255      000000
 11256 03f5 4889DE   		movq	%rbx, %rsi
 11257 03f8 48890500 		movq	%rax, _ZN12_GLOBAL__N_126testCheckCloseTrueInstanceE(%rip)
 11257      000000
 11258 03ff E8000000 		call	__cxa_atexit@PLT
 11258      00
 11259 0404 E8000000 		call	_ZN8UnitTest4Test11GetTestListEv@PLT
 11259      00
 11260 0409 488D3D00 		leaq	_ZN12_GLOBAL__N_119adderCheckCloseTrueE(%rip), %rdi
 11260      000000
 11261 0410 4889C6   		movq	%rax, %rsi
 11262 0413 4889DA   		movq	%rbx, %rdx
 11263 0416 488D1D00 		leaq	_ZN12_GLOBAL__N_127testCheckCloseFalseInstanceE(%rip), %rbx
 11263      000000
 11264 041d E8000000 		call	_ZN8UnitTest9ListAdderC1ERNS_8TestListEPNS_4TestE@PLT
 11264      00
 11265 0422 488D0D00 		leaq	.LC72(%rip), %rcx
 11265      000000
 11266 0429 488D1500 		leaq	.LC73(%rip), %rdx
 11266      000000
 11267 0430 488D3500 		leaq	.LC84(%rip), %rsi
 11267      000000
 11268 0437 488D3D00 		leaq	_ZN12_GLOBAL__N_127testCheckCloseFalseInstanceE(%rip), %rdi
 11268      000000
 11269 043e 41B86A00 		movl	$106, %r8d
 11269      0000
 11270 0444 E8000000 		call	_ZN8UnitTest4TestC2EPKcS2_S2_i@PLT
 11270      00
 11271 0449 488D1500 		leaq	__dso_handle(%rip), %rdx
 11271      000000
 11272 0450 488D3D00 		leaq	_ZN12_GLOBAL__N_119TestCheckCloseFalseD1Ev(%rip), %rdi
 11272      000000
 11273 0457 488D0500 		leaq	16+_ZTVN12_GLOBAL__N_119TestCheckCloseFalseE(%rip), %rax
 11273      000000
 11274 045e 4889DE   		movq	%rbx, %rsi
 11275 0461 48890500 		movq	%rax, _ZN12_GLOBAL__N_127testCheckCloseFalseInstanceE(%rip)
 11275      000000
 11276 0468 E8000000 		call	__cxa_atexit@PLT
 11276      00
 11277 046d E8000000 		call	_ZN8UnitTest4Test11GetTestListEv@PLT
 11277      00
 11278 0472 488D3D00 		leaq	_ZN12_GLOBAL__N_120adderCheckCloseFalseE(%rip), %rdi
 11278      000000
 11279 0479 4889C6   		movq	%rax, %rsi
 11280 047c 4889DA   		movq	%rbx, %rdx
 11281 047f 488D1D00 		leaq	_ZN12_GLOBAL__N_155testCheckCloseWithZeroEpsilonWorksForSameNumberInstanceE(%rip), %rbx
 11281      000000
 11282 0486 E8000000 		call	_ZN8UnitTest9ListAdderC1ERNS_8TestListEPNS_4TestE@PLT
 11282      00
 11283 048b 488D0D00 		leaq	.LC72(%rip), %rcx
 11283      000000
 11284 0492 488D1500 		leaq	.LC73(%rip), %rdx
 11284      000000
 11285 0499 488D3500 		leaq	.LC85(%rip), %rsi
 11285      000000
 11286 04a0 488D3D00 		leaq	_ZN12_GLOBAL__N_155testCheckCloseWithZeroEpsilonWorksForSameNumberInstanceE(%rip), %rdi
 11286      000000
 11287 04a7 41B87100 		movl	$113, %r8d
 11287      0000
 11288 04ad E8000000 		call	_ZN8UnitTest4TestC2EPKcS2_S2_i@PLT
 11288      00
 11289 04b2 488D1500 		leaq	__dso_handle(%rip), %rdx
 11289      000000
 11290 04b9 488D3D00 		leaq	_ZN12_GLOBAL__N_147TestCheckCloseWithZeroEpsilonWorksForSameNumberD1Ev(%rip), %rdi
 11290      000000
 11291 04c0 488D0500 		leaq	16+_ZTVN12_GLOBAL__N_147TestCheckCloseWithZeroEpsilonWorksForSameNumberE(%rip), %rax
 11291      000000
 11292 04c7 4889DE   		movq	%rbx, %rsi
 11293 04ca 48890500 		movq	%rax, _ZN12_GLOBAL__N_155testCheckCloseWithZeroEpsilonWorksForSameNumberInstanceE(%rip)
 11293      000000
 11294 04d1 E8000000 		call	__cxa_atexit@PLT
 11294      00
 11295 04d6 E8000000 		call	_ZN8UnitTest4Test11GetTestListEv@PLT
 11295      00
 11296 04db 488D3D00 		leaq	_ZN12_GLOBAL__N_148adderCheckCloseWithZeroEpsilonWorksForSameNumberE(%rip), %rdi
 11296      000000
 11297 04e2 4889C6   		movq	%rax, %rsi
 11298 04e5 4889DA   		movq	%rbx, %rdx
 11299 04e8 488D1D00 		leaq	_ZN12_GLOBAL__N_134testCheckCloseWithNaNFailsInstanceE(%rip), %rbx
 11299      000000
 11300 04ef E8000000 		call	_ZN8UnitTest9ListAdderC1ERNS_8TestListEPNS_4TestE@PLT
 11300      00
 11301 04f4 488D0D00 		leaq	.LC72(%rip), %rcx
 11301      000000
 11302 04fb 488D1500 		leaq	.LC73(%rip), %rdx
 11302      000000
 11303 0502 488D3500 		leaq	.LC86(%rip), %rsi
 11303      000000
 11304 0509 488D3D00 		leaq	_ZN12_GLOBAL__N_134testCheckCloseWithNaNFailsInstanceE(%rip), %rdi
 11304      000000
 11305 0510 41B87800 		movl	$120, %r8d
 11305      0000
 11306 0516 E8000000 		call	_ZN8UnitTest4TestC2EPKcS2_S2_i@PLT
 11306      00
 11307 051b 488D1500 		leaq	__dso_handle(%rip), %rdx
 11307      000000
 11308 0522 488D3D00 		leaq	_ZN12_GLOBAL__N_126TestCheckCloseWithNaNFailsD1Ev(%rip), %rdi
 11308      000000
 11309 0529 488D0500 		leaq	16+_ZTVN12_GLOBAL__N_126TestCheckCloseWithNaNFailsE(%rip), %rax
 11309      000000
 11310 0530 4889DE   		movq	%rbx, %rsi
 11311 0533 48890500 		movq	%rax, _ZN12_GLOBAL__N_134testCheckCloseWithNaNFailsInstanceE(%rip)
 11311      000000
 11312 053a E8000000 		call	__cxa_atexit@PLT
 11312      00
 11313 053f E8000000 		call	_ZN8UnitTest4Test11GetTestListEv@PLT
 11313      00
 11314 0544 488D3D00 		leaq	_ZN12_GLOBAL__N_127adderCheckCloseWithNaNFailsE(%rip), %rdi
 11314      000000
 11315 054b 4889C6   		movq	%rax, %rsi
 11316 054e 4889DA   		movq	%rbx, %rdx
 11317 0551 488D1D00 		leaq	_ZN12_GLOBAL__N_147testCheckCloseWithNaNAgainstItselfFailsInstanceE(%rip), %rbx
 11317      000000
 11318 0558 E8000000 		call	_ZN8UnitTest9ListAdderC1ERNS_8TestListEPNS_4TestE@PLT
 11318      00
 11319 055d 488D0D00 		leaq	.LC72(%rip), %rcx
 11319      000000
 11320 0564 488D1500 		leaq	.LC73(%rip), %rdx
 11320      000000
 11321 056b 488D3500 		leaq	.LC87(%rip), %rsi
 11321      000000
 11322 0572 488D3D00 		leaq	_ZN12_GLOBAL__N_147testCheckCloseWithNaNAgainstItselfFailsInstanceE(%rip), %rdi
 11322      000000
 11323 0579 41B88500 		movl	$133, %r8d
 11323      0000
 11324 057f E8000000 		call	_ZN8UnitTest4TestC2EPKcS2_S2_i@PLT
 11324      00
 11325 0584 488D1500 		leaq	__dso_handle(%rip), %rdx
 11325      000000
 11326 058b 488D3D00 		leaq	_ZN12_GLOBAL__N_139TestCheckCloseWithNaNAgainstItselfFailsD1Ev(%rip), %rdi
 11326      000000
 11327 0592 488D0500 		leaq	16+_ZTVN12_GLOBAL__N_139TestCheckCloseWithNaNAgainstItselfFailsE(%rip), %rax
 11327      000000
 11328 0599 4889DE   		movq	%rbx, %rsi
 11329 059c 48890500 		movq	%rax, _ZN12_GLOBAL__N_147testCheckCloseWithNaNAgainstItselfFailsInstanceE(%rip)
 11329      000000
 11330 05a3 E8000000 		call	__cxa_atexit@PLT
 11330      00
 11331 05a8 E8000000 		call	_ZN8UnitTest4Test11GetTestListEv@PLT
 11331      00
 11332 05ad 488D3D00 		leaq	_ZN12_GLOBAL__N_140adderCheckCloseWithNaNAgainstItselfFailsE(%rip), %rdi
 11332      000000
 11333 05b4 4889C6   		movq	%rax, %rsi
 11334 05b7 4889DA   		movq	%rbx, %rdx
 11335 05ba 488D1D00 		leaq	_ZN12_GLOBAL__N_159testCheckCloseFailureIncludesCheckExpectedAndActualInstanceE(%rip), %rbx
 11335      000000
 11336 05c1 E8000000 		call	_ZN8UnitTest9ListAdderC1ERNS_8TestListEPNS_4TestE@PLT
 11336      00
 11337 05c6 488D0D00 		leaq	.LC72(%rip), %rcx
 11337      000000
 11338 05cd 488D1500 		leaq	.LC73(%rip), %rdx
 11338      000000
 11339 05d4 488D3500 		leaq	.LC88(%rip), %rsi
 11339      000000
 11340 05db 488D3D00 		leaq	_ZN12_GLOBAL__N_159testCheckCloseFailureIncludesCheckExpectedAndActualInstanceE(%rip), %rdi
 11340      000000
 11341 05e2 41B89200 		movl	$146, %r8d
 11341      0000
 11342 05e8 E8000000 		call	_ZN8UnitTest4TestC2EPKcS2_S2_i@PLT
 11342      00
 11343 05ed 488D1500 		leaq	__dso_handle(%rip), %rdx
 11343      000000
 11344 05f4 488D3D00 		leaq	_ZN12_GLOBAL__N_151TestCheckCloseFailureIncludesCheckExpectedAndActualD1Ev(%rip), %rdi
 11344      000000
 11345 05fb 488D0500 		leaq	16+_ZTVN12_GLOBAL__N_151TestCheckCloseFailureIncludesCheckExpectedAndActualE(%rip), %rax
 11345      000000
 11346 0602 4889DE   		movq	%rbx, %rsi
 11347 0605 48890500 		movq	%rax, _ZN12_GLOBAL__N_159testCheckCloseFailureIncludesCheckExpectedAndActualInstanceE(%rip)
 11347      000000
 11348 060c E8000000 		call	__cxa_atexit@PLT
 11348      00
 11349 0611 E8000000 		call	_ZN8UnitTest4Test11GetTestListEv@PLT
 11349      00
 11350 0616 488D3D00 		leaq	_ZN12_GLOBAL__N_152adderCheckCloseFailureIncludesCheckExpectedAndActualE(%rip), %rdi
 11350      000000
 11351 061d 4889C6   		movq	%rax, %rsi
 11352 0620 4889DA   		movq	%rbx, %rdx
 11353 0623 488D1D00 		leaq	_ZN12_GLOBAL__N_146testCheckCloseFailureIncludesToleranceInstanceE(%rip), %rbx
 11353      000000
 11354 062a E8000000 		call	_ZN8UnitTest9ListAdderC1ERNS_8TestListEPNS_4TestE@PLT
 11354      00
 11355 062f 488D0D00 		leaq	.LC72(%rip), %rcx
 11355      000000
 11356 0636 488D1500 		leaq	.LC73(%rip), %rdx
 11356      000000
 11357 063d 488D3500 		leaq	.LC89(%rip), %rsi
 11357      000000
 11358 0644 488D3D00 		leaq	_ZN12_GLOBAL__N_146testCheckCloseFailureIncludesToleranceInstanceE(%rip), %rdi
 11358      000000
 11359 064b 41B89F00 		movl	$159, %r8d
 11359      0000
 11360 0651 E8000000 		call	_ZN8UnitTest4TestC2EPKcS2_S2_i@PLT
 11360      00
 11361 0656 488D1500 		leaq	__dso_handle(%rip), %rdx
 11361      000000
 11362 065d 488D3D00 		leaq	_ZN12_GLOBAL__N_138TestCheckCloseFailureIncludesToleranceD1Ev(%rip), %rdi
 11362      000000
 11363 0664 488D0500 		leaq	16+_ZTVN12_GLOBAL__N_138TestCheckCloseFailureIncludesToleranceE(%rip), %rax
 11363      000000
 11364 066b 4889DE   		movq	%rbx, %rsi
 11365 066e 48890500 		movq	%rax, _ZN12_GLOBAL__N_146testCheckCloseFailureIncludesToleranceInstanceE(%rip)
 11365      000000
 11366 0675 E8000000 		call	__cxa_atexit@PLT
 11366      00
 11367 067a E8000000 		call	_ZN8UnitTest4Test11GetTestListEv@PLT
 11367      00
 11368 067f 488D3D00 		leaq	_ZN12_GLOBAL__N_139adderCheckCloseFailureIncludesToleranceE(%rip), %rdi
 11368      000000
 11369 0686 4889C6   		movq	%rax, %rsi
 11370 0689 4889DA   		movq	%rbx, %rdx
 11371 068c 488D1D00 		leaq	_ZN12_GLOBAL__N_144testCheckCloseFailureIncludesDetailsInstanceE(%rip), %rbx
 11371      000000
 11372 0693 E8000000 		call	_ZN8UnitTest9ListAdderC1ERNS_8TestListEPNS_4TestE@PLT
 11372      00
 11373 0698 488D0D00 		leaq	.LC72(%rip), %rcx
 11373      000000
 11374 069f 488D1500 		leaq	.LC73(%rip), %rdx
 11374      000000
 11375 06a6 488D3500 		leaq	.LC90(%rip), %rsi
 11375      000000
 11376 06ad 488D3D00 		leaq	_ZN12_GLOBAL__N_144testCheckCloseFailureIncludesDetailsInstanceE(%rip), %rdi
 11376      000000
 11377 06b4 41B8A900 		movl	$169, %r8d
 11377      0000
 11378 06ba E8000000 		call	_ZN8UnitTest4TestC2EPKcS2_S2_i@PLT
 11378      00
 11379 06bf 488D1500 		leaq	__dso_handle(%rip), %rdx
 11379      000000
 11380 06c6 488D3D00 		leaq	_ZN12_GLOBAL__N_136TestCheckCloseFailureIncludesDetailsD1Ev(%rip), %rdi
 11380      000000
 11381 06cd 488D0500 		leaq	16+_ZTVN12_GLOBAL__N_136TestCheckCloseFailureIncludesDetailsE(%rip), %rax
 11381      000000
 11382 06d4 4889DE   		movq	%rbx, %rsi
 11383 06d7 48890500 		movq	%rax, _ZN12_GLOBAL__N_144testCheckCloseFailureIncludesDetailsInstanceE(%rip)
 11383      000000
 11384 06de E8000000 		call	__cxa_atexit@PLT
 11384      00
 11385 06e3 E8000000 		call	_ZN8UnitTest4Test11GetTestListEv@PLT
 11385      00
 11386 06e8 488D3D00 		leaq	_ZN12_GLOBAL__N_137adderCheckCloseFailureIncludesDetailsE(%rip), %rdi
 11386      000000
 11387 06ef 4889C6   		movq	%rax, %rsi
 11388 06f2 4889DA   		movq	%rbx, %rdx
 11389 06f5 488D1D00 		leaq	_ZN12_GLOBAL__N_131testCheckArrayEqualTrueInstanceE(%rip), %rbx
 11389      000000
 11390 06fc E8000000 		call	_ZN8UnitTest9ListAdderC1ERNS_8TestListEPNS_4TestE@PLT
 11390      00
 11391 0701 488D0D00 		leaq	.LC72(%rip), %rcx
 11391      000000
 11392 0708 488D1500 		leaq	.LC73(%rip), %rdx
 11392      000000
 11393 070f 488D3500 		leaq	.LC91(%rip), %rsi
 11393      000000
 11394 0716 488D3D00 		leaq	_ZN12_GLOBAL__N_131testCheckArrayEqualTrueInstanceE(%rip), %rdi
 11394      000000
 11395 071d 41B8B800 		movl	$184, %r8d
 11395      0000
 11396 0723 E8000000 		call	_ZN8UnitTest4TestC2EPKcS2_S2_i@PLT
 11396      00
 11397 0728 488D1500 		leaq	__dso_handle(%rip), %rdx
 11397      000000
 11398 072f 488D3D00 		leaq	_ZN12_GLOBAL__N_123TestCheckArrayEqualTrueD1Ev(%rip), %rdi
 11398      000000
 11399 0736 488D0500 		leaq	16+_ZTVN12_GLOBAL__N_123TestCheckArrayEqualTrueE(%rip), %rax
 11399      000000
 11400 073d 4889DE   		movq	%rbx, %rsi
 11401 0740 48890500 		movq	%rax, _ZN12_GLOBAL__N_131testCheckArrayEqualTrueInstanceE(%rip)
 11401      000000
 11402 0747 E8000000 		call	__cxa_atexit@PLT
 11402      00
 11403 074c E8000000 		call	_ZN8UnitTest4Test11GetTestListEv@PLT
 11403      00
 11404 0751 488D3D00 		leaq	_ZN12_GLOBAL__N_124adderCheckArrayEqualTrueE(%rip), %rdi
 11404      000000
 11405 0758 4889C6   		movq	%rax, %rsi
 11406 075b 4889DA   		movq	%rbx, %rdx
 11407 075e 488D1D00 		leaq	_ZN12_GLOBAL__N_132testCheckArrayEqualFalseInstanceE(%rip), %rbx
 11407      000000
 11408 0765 E8000000 		call	_ZN8UnitTest9ListAdderC1ERNS_8TestListEPNS_4TestE@PLT
 11408      00
 11409 076a 488D0D00 		leaq	.LC72(%rip), %rcx
 11409      000000
 11410 0771 488D1500 		leaq	.LC73(%rip), %rdx
 11410      000000
 11411 0778 488D3500 		leaq	.LC92(%rip), %rsi
 11411      000000
 11412 077f 488D3D00 		leaq	_ZN12_GLOBAL__N_132testCheckArrayEqualFalseInstanceE(%rip), %rdi
 11412      000000
 11413 0786 41B8C100 		movl	$193, %r8d
 11413      0000
 11414 078c E8000000 		call	_ZN8UnitTest4TestC2EPKcS2_S2_i@PLT
 11414      00
 11415 0791 488D1500 		leaq	__dso_handle(%rip), %rdx
 11415      000000
 11416 0798 488D3D00 		leaq	_ZN12_GLOBAL__N_124TestCheckArrayEqualFalseD1Ev(%rip), %rdi
 11416      000000
 11417 079f 488D0500 		leaq	16+_ZTVN12_GLOBAL__N_124TestCheckArrayEqualFalseE(%rip), %rax
 11417      000000
 11418 07a6 4889DE   		movq	%rbx, %rsi
 11419 07a9 48890500 		movq	%rax, _ZN12_GLOBAL__N_132testCheckArrayEqualFalseInstanceE(%rip)
 11419      000000
 11420 07b0 E8000000 		call	__cxa_atexit@PLT
 11420      00
 11421 07b5 E8000000 		call	_ZN8UnitTest4Test11GetTestListEv@PLT
 11421      00
 11422 07ba 488D3D00 		leaq	_ZN12_GLOBAL__N_125adderCheckArrayEqualFalseE(%rip), %rdi
 11422      000000
 11423 07c1 4889C6   		movq	%rax, %rsi
 11424 07c4 4889DA   		movq	%rbx, %rdx
 11425 07c7 488D1D00 		leaq	_ZN12_GLOBAL__N_131testCheckArrayCloseTrueInstanceE(%rip), %rbx
 11425      000000
 11426 07ce E8000000 		call	_ZN8UnitTest9ListAdderC1ERNS_8TestListEPNS_4TestE@PLT
 11426      00
 11427 07d3 488D0D00 		leaq	.LC72(%rip), %rcx
 11427      000000
 11428 07da 488D1500 		leaq	.LC73(%rip), %rdx
 11428      000000
 11429 07e1 488D3500 		leaq	.LC93(%rip), %rsi
 11429      000000
 11430 07e8 488D3D00 		leaq	_ZN12_GLOBAL__N_131testCheckArrayCloseTrueInstanceE(%rip), %rdi
 11430      000000
 11431 07ef 41B8CB00 		movl	$203, %r8d
 11431      0000
 11432 07f5 E8000000 		call	_ZN8UnitTest4TestC2EPKcS2_S2_i@PLT
 11432      00
 11433 07fa 488D1500 		leaq	__dso_handle(%rip), %rdx
 11433      000000
 11434 0801 488D3D00 		leaq	_ZN12_GLOBAL__N_123TestCheckArrayCloseTrueD1Ev(%rip), %rdi
 11434      000000
 11435 0808 488D0500 		leaq	16+_ZTVN12_GLOBAL__N_123TestCheckArrayCloseTrueE(%rip), %rax
 11435      000000
 11436 080f 4889DE   		movq	%rbx, %rsi
 11437 0812 48890500 		movq	%rax, _ZN12_GLOBAL__N_131testCheckArrayCloseTrueInstanceE(%rip)
 11437      000000
 11438 0819 E8000000 		call	__cxa_atexit@PLT
 11438      00
 11439 081e E8000000 		call	_ZN8UnitTest4Test11GetTestListEv@PLT
 11439      00
 11440 0823 488D3D00 		leaq	_ZN12_GLOBAL__N_124adderCheckArrayCloseTrueE(%rip), %rdi
 11440      000000
 11441 082a 4889C6   		movq	%rax, %rsi
 11442 082d 4889DA   		movq	%rbx, %rdx
 11443 0830 488D1D00 		leaq	_ZN12_GLOBAL__N_132testCheckArrayCloseFalseInstanceE(%rip), %rbx
 11443      000000
 11444 0837 E8000000 		call	_ZN8UnitTest9ListAdderC1ERNS_8TestListEPNS_4TestE@PLT
 11444      00
 11445 083c 488D0D00 		leaq	.LC72(%rip), %rcx
 11445      000000
 11446 0843 488D1500 		leaq	.LC73(%rip), %rdx
 11446      000000
 11447 084a 488D3500 		leaq	.LC94(%rip), %rsi
 11447      000000
 11448 0851 488D3D00 		leaq	_ZN12_GLOBAL__N_132testCheckArrayCloseFalseInstanceE(%rip), %rdi
 11448      000000
 11449 0858 41B8D500 		movl	$213, %r8d
 11449      0000
 11450 085e E8000000 		call	_ZN8UnitTest4TestC2EPKcS2_S2_i@PLT
 11450      00
 11451 0863 488D1500 		leaq	__dso_handle(%rip), %rdx
 11451      000000
 11452 086a 488D3D00 		leaq	_ZN12_GLOBAL__N_124TestCheckArrayCloseFalseD1Ev(%rip), %rdi
 11452      000000
 11453 0871 488D0500 		leaq	16+_ZTVN12_GLOBAL__N_124TestCheckArrayCloseFalseE(%rip), %rax
 11453      000000
 11454 0878 4889DE   		movq	%rbx, %rsi
 11455 087b 48890500 		movq	%rax, _ZN12_GLOBAL__N_132testCheckArrayCloseFalseInstanceE(%rip)
 11455      000000
 11456 0882 E8000000 		call	__cxa_atexit@PLT
 11456      00
 11457 0887 E8000000 		call	_ZN8UnitTest4Test11GetTestListEv@PLT
 11457      00
 11458 088c 488D3D00 		leaq	_ZN12_GLOBAL__N_125adderCheckArrayCloseFalseE(%rip), %rdi
 11458      000000
 11459 0893 4889C6   		movq	%rax, %rsi
 11460 0896 4889DA   		movq	%rbx, %rdx
 11461 0899 488D1D00 		leaq	_ZN12_GLOBAL__N_149testCheckArrayCloseFailureIncludesDetailsInstanceE(%rip), %rbx
 11461      000000
 11462 08a0 E8000000 		call	_ZN8UnitTest9ListAdderC1ERNS_8TestListEPNS_4TestE@PLT
 11462      00
 11463 08a5 488D0D00 		leaq	.LC72(%rip), %rcx
 11463      000000
 11464 08ac 488D1500 		leaq	.LC73(%rip), %rdx
 11464      000000
 11465 08b3 488D3500 		leaq	.LC95(%rip), %rsi
 11465      000000
 11466 08ba 488D3D00 		leaq	_ZN12_GLOBAL__N_149testCheckArrayCloseFailureIncludesDetailsInstanceE(%rip), %rdi
 11466      000000
 11467 08c1 41B8DF00 		movl	$223, %r8d
 11467      0000
 11468 08c7 E8000000 		call	_ZN8UnitTest4TestC2EPKcS2_S2_i@PLT
 11468      00
 11469 08cc 488D1500 		leaq	__dso_handle(%rip), %rdx
 11469      000000
 11470 08d3 488D3D00 		leaq	_ZN12_GLOBAL__N_141TestCheckArrayCloseFailureIncludesDetailsD1Ev(%rip), %rdi
 11470      000000
 11471 08da 488D0500 		leaq	16+_ZTVN12_GLOBAL__N_141TestCheckArrayCloseFailureIncludesDetailsE(%rip), %rax
 11471      000000
 11472 08e1 4889DE   		movq	%rbx, %rsi
 11473 08e4 48890500 		movq	%rax, _ZN12_GLOBAL__N_149testCheckArrayCloseFailureIncludesDetailsInstanceE(%rip)
 11473      000000
 11474 08eb E8000000 		call	__cxa_atexit@PLT
 11474      00
 11475 08f0 E8000000 		call	_ZN8UnitTest4Test11GetTestListEv@PLT
 11475      00
 11476 08f5 488D3D00 		leaq	_ZN12_GLOBAL__N_142adderCheckArrayCloseFailureIncludesDetailsE(%rip), %rdi
 11476      000000
 11477 08fc 4889C6   		movq	%rax, %rsi
 11478 08ff 4889DA   		movq	%rbx, %rdx
 11479 0902 488D1D00 		leaq	_ZN12_GLOBAL__N_133testCheckArray2DCloseTrueInstanceE(%rip), %rbx
 11479      000000
 11480 0909 E8000000 		call	_ZN8UnitTest9ListAdderC1ERNS_8TestListEPNS_4TestE@PLT
 11480      00
 11481 090e 488D0D00 		leaq	.LC72(%rip), %rcx
 11481      000000
 11482 0915 488D1500 		leaq	.LC73(%rip), %rdx
 11482      000000
 11483 091c 488D3500 		leaq	.LC96(%rip), %rsi
 11483      000000
 11484 0923 488D3D00 		leaq	_ZN12_GLOBAL__N_133testCheckArray2DCloseTrueInstanceE(%rip), %rdi
 11484      000000
 11485 092a 41B8F000 		movl	$240, %r8d
 11485      0000
 11486 0930 E8000000 		call	_ZN8UnitTest4TestC2EPKcS2_S2_i@PLT
 11486      00
 11487 0935 488D1500 		leaq	__dso_handle(%rip), %rdx
 11487      000000
 11488 093c 488D3D00 		leaq	_ZN12_GLOBAL__N_125TestCheckArray2DCloseTrueD1Ev(%rip), %rdi
 11488      000000
 11489 0943 488D0500 		leaq	16+_ZTVN12_GLOBAL__N_125TestCheckArray2DCloseTrueE(%rip), %rax
 11489      000000
 11490 094a 4889DE   		movq	%rbx, %rsi
 11491 094d 48890500 		movq	%rax, _ZN12_GLOBAL__N_133testCheckArray2DCloseTrueInstanceE(%rip)
 11491      000000
 11492 0954 E8000000 		call	__cxa_atexit@PLT
 11492      00
 11493 0959 E8000000 		call	_ZN8UnitTest4Test11GetTestListEv@PLT
 11493      00
 11494 095e 488D3D00 		leaq	_ZN12_GLOBAL__N_126adderCheckArray2DCloseTrueE(%rip), %rdi
 11494      000000
 11495 0965 4889C6   		movq	%rax, %rsi
 11496 0968 4889DA   		movq	%rbx, %rdx
 11497 096b 488D1D00 		leaq	_ZN12_GLOBAL__N_134testCheckArray2DCloseFalseInstanceE(%rip), %rbx
 11497      000000
 11498 0972 E8000000 		call	_ZN8UnitTest9ListAdderC1ERNS_8TestListEPNS_4TestE@PLT
 11498      00
 11499 0977 488D0D00 		leaq	.LC72(%rip), %rcx
 11499      000000
 11500 097e 488D1500 		leaq	.LC73(%rip), %rdx
 11500      000000
 11501 0985 488D3500 		leaq	.LC97(%rip), %rsi
 11501      000000
 11502 098c 488D3D00 		leaq	_ZN12_GLOBAL__N_134testCheckArray2DCloseFalseInstanceE(%rip), %rdi
 11502      000000
 11503 0993 41B8FE00 		movl	$254, %r8d
 11503      0000
 11504 0999 E8000000 		call	_ZN8UnitTest4TestC2EPKcS2_S2_i@PLT
 11504      00
 11505 099e 488D1500 		leaq	__dso_handle(%rip), %rdx
 11505      000000
 11506 09a5 488D3D00 		leaq	_ZN12_GLOBAL__N_126TestCheckArray2DCloseFalseD1Ev(%rip), %rdi
 11506      000000
 11507 09ac 488D0500 		leaq	16+_ZTVN12_GLOBAL__N_126TestCheckArray2DCloseFalseE(%rip), %rax
 11507      000000
 11508 09b3 4889DE   		movq	%rbx, %rsi
 11509 09b6 48890500 		movq	%rax, _ZN12_GLOBAL__N_134testCheckArray2DCloseFalseInstanceE(%rip)
 11509      000000
 11510 09bd E8000000 		call	__cxa_atexit@PLT
 11510      00
 11511 09c2 E8000000 		call	_ZN8UnitTest4Test11GetTestListEv@PLT
 11511      00
 11512 09c7 488D3D00 		leaq	_ZN12_GLOBAL__N_127adderCheckArray2DCloseFalseE(%rip), %rdi
 11512      000000
 11513 09ce 4889C6   		movq	%rax, %rsi
 11514 09d1 4889DA   		movq	%rbx, %rdx
 11515 09d4 488D1D00 		leaq	_ZN12_GLOBAL__N_141testCheckCloseWithDoublesSucceedsInstanceE(%rip), %rbx
 11515      000000
 11516 09db E8000000 		call	_ZN8UnitTest9ListAdderC1ERNS_8TestListEPNS_4TestE@PLT
 11516      00
 11517 09e0 488D0D00 		leaq	.LC72(%rip), %rcx
 11517      000000
 11518 09e7 488D1500 		leaq	.LC73(%rip), %rdx
 11518      000000
 11519 09ee 488D3500 		leaq	.LC98(%rip), %rsi
 11519      000000
 11520 09f5 488D3D00 		leaq	_ZN12_GLOBAL__N_141testCheckCloseWithDoublesSucceedsInstanceE(%rip), %rdi
 11520      000000
 11521 09fc 41B80C01 		movl	$268, %r8d
 11521      0000
 11522 0a02 E8000000 		call	_ZN8UnitTest4TestC2EPKcS2_S2_i@PLT
 11522      00
 11523 0a07 488D1500 		leaq	__dso_handle(%rip), %rdx
 11523      000000
 11524 0a0e 488D3D00 		leaq	_ZN12_GLOBAL__N_133TestCheckCloseWithDoublesSucceedsD1Ev(%rip), %rdi
 11524      000000
 11525 0a15 488D0500 		leaq	16+_ZTVN12_GLOBAL__N_133TestCheckCloseWithDoublesSucceedsE(%rip), %rax
 11525      000000
 11526 0a1c 4889DE   		movq	%rbx, %rsi
 11527 0a1f 48890500 		movq	%rax, _ZN12_GLOBAL__N_141testCheckCloseWithDoublesSucceedsInstanceE(%rip)
 11527      000000
 11528 0a26 E8000000 		call	__cxa_atexit@PLT
 11528      00
 11529 0a2b E8000000 		call	_ZN8UnitTest4Test11GetTestListEv@PLT
 11529      00
 11530 0a30 488D3D00 		leaq	_ZN12_GLOBAL__N_134adderCheckCloseWithDoublesSucceedsE(%rip), %rdi
 11530      000000
 11531 0a37 4889C6   		movq	%rax, %rsi
 11532 0a3a 4889DA   		movq	%rbx, %rdx
 11533 0a3d 488D1D00 		leaq	_ZN12_GLOBAL__N_151testCheckArray2DCloseFailureIncludesDetailsInstanceE(%rip), %rbx
 11533      000000
 11534 0a44 E8000000 		call	_ZN8UnitTest9ListAdderC1ERNS_8TestListEPNS_4TestE@PLT
 11534      00
 11535 0a49 488D0D00 		leaq	.LC72(%rip), %rcx
 11535      000000
 11536 0a50 488D1500 		leaq	.LC73(%rip), %rdx
 11536      000000
 11537 0a57 488D3500 		leaq	.LC99(%rip), %rsi
 11537      000000
 11538 0a5e 488D3D00 		leaq	_ZN12_GLOBAL__N_151testCheckArray2DCloseFailureIncludesDetailsInstanceE(%rip), %rdi
 11538      000000
 11539 0a65 41B81101 		movl	$273, %r8d
 11539      0000
 11540 0a6b E8000000 		call	_ZN8UnitTest4TestC2EPKcS2_S2_i@PLT
 11540      00
 11541 0a70 488D1500 		leaq	__dso_handle(%rip), %rdx
 11541      000000
 11542 0a77 488D3D00 		leaq	_ZN12_GLOBAL__N_143TestCheckArray2DCloseFailureIncludesDetailsD1Ev(%rip), %rdi
 11542      000000
 11543 0a7e 488D0500 		leaq	16+_ZTVN12_GLOBAL__N_143TestCheckArray2DCloseFailureIncludesDetailsE(%rip), %rax
 11543      000000
 11544 0a85 4889DE   		movq	%rbx, %rsi
 11545 0a88 48890500 		movq	%rax, _ZN12_GLOBAL__N_151testCheckArray2DCloseFailureIncludesDetailsInstanceE(%rip)
 11545      000000
 11546 0a8f E8000000 		call	__cxa_atexit@PLT
 11546      00
 11547 0a94 E8000000 		call	_ZN8UnitTest4Test11GetTestListEv@PLT
 11547      00
 11548 0a99 4889DA   		movq	%rbx, %rdx
 11549 0a9c 488D3D00 		leaq	_ZN12_GLOBAL__N_144adderCheckArray2DCloseFailureIncludesDetailsE(%rip), %rdi
 11549      000000
 11550 0aa3 4889C6   		movq	%rax, %rsi
 11551 0aa6 5B       		popq	%rbx
 11552              		.cfi_def_cfa_offset 8
 11553 0aa7 E9000000 		jmp	_ZN8UnitTest9ListAdderC1ERNS_8TestListEPNS_4TestE@PLT
 11553      00
 11554              		.cfi_endproc
 11555              	.LFE1466:
 11557              		.section	.init_array,"aw"
 11558              		.align 8
 11559 0000 00000000 		.quad	_GLOBAL__sub_I_TestChecks.cpp
 11559      00000000 
 11560              		.weak	_ZTSN8UnitTest15MemoryOutStreamE
 11561              		.section	.rodata._ZTSN8UnitTest15MemoryOutStreamE,"aG",@progbits,_ZTSN8UnitTest15MemoryOutStreamE,
 11562              		.align 16
 11565              	_ZTSN8UnitTest15MemoryOutStreamE:
 11566 0000 4E38556E 		.string	"N8UnitTest15MemoryOutStreamE"
 11566      69745465 
 11566      73743135 
 11566      4D656D6F 
 11566      72794F75 
 11567              		.weak	_ZTIN8UnitTest15MemoryOutStreamE
 11568              		.section	.data.rel.ro._ZTIN8UnitTest15MemoryOutStreamE,"awG",@progbits,_ZTIN8UnitTest15MemoryOutSt
 11569              		.align 8
 11572              	_ZTIN8UnitTest15MemoryOutStreamE:
 11573 0000 00000000 		.quad	_ZTVN10__cxxabiv120__si_class_type_infoE+16
 11573      00000000 
 11574 0008 00000000 		.quad	_ZTSN8UnitTest15MemoryOutStreamE
 11574      00000000 
 11575 0010 00000000 		.quad	_ZTINSt7__cxx1119basic_ostringstreamIcSt11char_traitsIcESaIcEEE
 11575      00000000 
 11576              		.weak	_ZTS17RecordingReporter
 11577              		.section	.rodata._ZTS17RecordingReporter,"aG",@progbits,_ZTS17RecordingReporter,comdat
 11578              		.align 16
 11581              	_ZTS17RecordingReporter:
 11582 0000 31375265 		.string	"17RecordingReporter"
 11582      636F7264 
 11582      696E6752 
 11582      65706F72 
 11582      74657200 
 11583              		.weak	_ZTI17RecordingReporter
 11584              		.section	.data.rel.ro._ZTI17RecordingReporter,"awG",@progbits,_ZTI17RecordingReporter,comdat
 11585              		.align 8
 11588              	_ZTI17RecordingReporter:
 11589 0000 00000000 		.quad	_ZTVN10__cxxabiv120__si_class_type_infoE+16
 11589      00000000 
 11590 0008 00000000 		.quad	_ZTS17RecordingReporter
 11590      00000000 
 11591 0010 00000000 		.quad	_ZTIN8UnitTest12TestReporterE
 11591      00000000 
 11592              		.section	.data.rel.ro,"aw",@progbits
 11593              		.align 8
 11596              	_ZTIN12_GLOBAL__N_130TestCheckEqualWithUnsignedLongE:
 11597 0000 00000000 		.quad	_ZTVN10__cxxabiv120__si_class_type_infoE+16
 11597      00000000 
 11598 0008 00000000 		.quad	_ZTSN12_GLOBAL__N_130TestCheckEqualWithUnsignedLongE
 11598      00000000 
 11599 0010 00000000 		.quad	_ZTIN8UnitTest4TestE
 11599      00000000 
 11600              		.section	.rodata
 11601              		.align 32
 11604              	_ZTSN12_GLOBAL__N_130TestCheckEqualWithUnsignedLongE:
 11605 0000 2A4E3132 		.string	"*N12_GLOBAL__N_130TestCheckEqualWithUnsignedLongE"
 11605      5F474C4F 
 11605      42414C5F 
 11605      5F4E5F31 
 11605      33305465 
 11606              		.section	.data.rel.ro
 11607              		.align 8
 11610              	_ZTIN12_GLOBAL__N_149TestCheckEqualsWithStringsFailsOnDifferentStringsE:
 11611 0018 00000000 		.quad	_ZTVN10__cxxabiv120__si_class_type_infoE+16
 11611      00000000 
 11612 0020 00000000 		.quad	_ZTSN12_GLOBAL__N_149TestCheckEqualsWithStringsFailsOnDifferentStringsE
 11612      00000000 
 11613 0028 00000000 		.quad	_ZTIN8UnitTest4TestE
 11613      00000000 
 11614              		.section	.rodata
 11615 0032 00000000 		.align 32
 11615      00000000 
 11615      00000000 
 11615      0000
 11618              	_ZTSN12_GLOBAL__N_149TestCheckEqualsWithStringsFailsOnDifferentStringsE:
 11619 0040 2A4E3132 		.string	"*N12_GLOBAL__N_149TestCheckEqualsWithStringsFailsOnDifferentStringsE"
 11619      5F474C4F 
 11619      42414C5F 
 11619      5F4E5F31 
 11619      34395465 
 11620              		.section	.data.rel.ro
 11621              		.align 8
 11624              	_ZTIN12_GLOBAL__N_157TestCheckEqualsWithStringsWorksOnContentsNonConstNonConstE:
 11625 0030 00000000 		.quad	_ZTVN10__cxxabiv120__si_class_type_infoE+16
 11625      00000000 
 11626 0038 00000000 		.quad	_ZTSN12_GLOBAL__N_157TestCheckEqualsWithStringsWorksOnContentsNonConstNonConstE
 11626      00000000 
 11627 0040 00000000 		.quad	_ZTIN8UnitTest4TestE
 11627      00000000 
 11628              		.section	.rodata
 11629 0085 00000000 		.align 32
 11629      00000000 
 11629      00000000 
 11629      00000000 
 11629      00000000 
 11632              	_ZTSN12_GLOBAL__N_157TestCheckEqualsWithStringsWorksOnContentsNonConstNonConstE:
 11633 00a0 2A4E3132 		.string	"*N12_GLOBAL__N_157TestCheckEqualsWithStringsWorksOnContentsNonConstNonConstE"
 11633      5F474C4F 
 11633      42414C5F 
 11633      5F4E5F31 
 11633      35375465 
 11634              		.section	.data.rel.ro
 11635              		.align 8
 11638              	_ZTIN12_GLOBAL__N_151TestCheckEqualsWithStringsWorksOnContentsConstConstE:
 11639 0048 00000000 		.quad	_ZTVN10__cxxabiv120__si_class_type_infoE+16
 11639      00000000 
 11640 0050 00000000 		.quad	_ZTSN12_GLOBAL__N_151TestCheckEqualsWithStringsWorksOnContentsConstConstE
 11640      00000000 
 11641 0058 00000000 		.quad	_ZTIN8UnitTest4TestE
 11641      00000000 
 11642              		.section	.rodata
 11643 00ed 00000000 		.align 32
 11643      00000000 
 11643      00000000 
 11643      00000000 
 11643      000000
 11646              	_ZTSN12_GLOBAL__N_151TestCheckEqualsWithStringsWorksOnContentsConstConstE:
 11647 0100 2A4E3132 		.string	"*N12_GLOBAL__N_151TestCheckEqualsWithStringsWorksOnContentsConstConstE"
 11647      5F474C4F 
 11647      42414C5F 
 11647      5F4E5F31 
 11647      35315465 
 11648              		.section	.data.rel.ro
 11649              		.align 8
 11652              	_ZTIN12_GLOBAL__N_154TestCheckEqualsWithStringsWorksOnContentsNonConstConstE:
 11653 0060 00000000 		.quad	_ZTVN10__cxxabiv120__si_class_type_infoE+16
 11653      00000000 
 11654 0068 00000000 		.quad	_ZTSN12_GLOBAL__N_154TestCheckEqualsWithStringsWorksOnContentsNonConstConstE
 11654      00000000 
 11655 0070 00000000 		.quad	_ZTIN8UnitTest4TestE
 11655      00000000 
 11656              		.section	.rodata
 11657 0147 00000000 		.align 32
 11657      00000000 
 11657      00000000 
 11657      00000000 
 11657      00000000 
 11660              	_ZTSN12_GLOBAL__N_154TestCheckEqualsWithStringsWorksOnContentsNonConstConstE:
 11661 0160 2A4E3132 		.string	"*N12_GLOBAL__N_154TestCheckEqualsWithStringsWorksOnContentsNonConstConstE"
 11661      5F474C4F 
 11661      42414C5F 
 11661      5F4E5F31 
 11661      35345465 
 11662              		.section	.data.rel.ro
 11663              		.align 8
 11666              	_ZTIN12_GLOBAL__N_154TestCheckEqualsWithStringsWorksOnContentsConstNonConstE:
 11667 0078 00000000 		.quad	_ZTVN10__cxxabiv120__si_class_type_infoE+16
 11667      00000000 
 11668 0080 00000000 		.quad	_ZTSN12_GLOBAL__N_154TestCheckEqualsWithStringsWorksOnContentsConstNonConstE
 11668      00000000 
 11669 0088 00000000 		.quad	_ZTIN8UnitTest4TestE
 11669      00000000 
 11670              		.section	.rodata
 11671 01aa 00000000 		.align 32
 11671      00000000 
 11671      00000000 
 11671      00000000 
 11671      00000000 
 11674              	_ZTSN12_GLOBAL__N_154TestCheckEqualsWithStringsWorksOnContentsConstNonConstE:
 11675 01c0 2A4E3132 		.string	"*N12_GLOBAL__N_154TestCheckEqualsWithStringsWorksOnContentsConstNonConstE"
 11675      5F474C4F 
 11675      42414C5F 
 11675      5F4E5F31 
 11675      35345465 
 11676              		.section	.data.rel.ro
 11677              		.align 8
 11680              	_ZTIN12_GLOBAL__N_153TestCheckEqualsWithStringsWorksOnContentsWithALiteralE:
 11681 0090 00000000 		.quad	_ZTVN10__cxxabiv120__si_class_type_infoE+16
 11681      00000000 
 11682 0098 00000000 		.quad	_ZTSN12_GLOBAL__N_153TestCheckEqualsWithStringsWorksOnContentsWithALiteralE
 11682      00000000 
 11683 00a0 00000000 		.quad	_ZTIN8UnitTest4TestE
 11683      00000000 
 11684              		.section	.rodata
 11685 020a 00000000 		.align 32
 11685      00000000 
 11685      00000000 
 11685      00000000 
 11685      00000000 
 11688              	_ZTSN12_GLOBAL__N_153TestCheckEqualsWithStringsWorksOnContentsWithALiteralE:
 11689 0220 2A4E3132 		.string	"*N12_GLOBAL__N_153TestCheckEqualsWithStringsWorksOnContentsWithALiteralE"
 11689      5F474C4F 
 11689      42414C5F 
 11689      5F4E5F31 
 11689      35335465 
 11690              		.section	.data.rel.ro
 11691              		.align 8
 11694              	_ZTIN12_GLOBAL__N_151TestCheckEqualFailureIncludesCheckExpectedAndActualE:
 11695 00a8 00000000 		.quad	_ZTVN10__cxxabiv120__si_class_type_infoE+16
 11695      00000000 
 11696 00b0 00000000 		.quad	_ZTSN12_GLOBAL__N_151TestCheckEqualFailureIncludesCheckExpectedAndActualE
 11696      00000000 
 11697 00b8 00000000 		.quad	_ZTIN8UnitTest4TestE
 11697      00000000 
 11698              		.section	.rodata
 11699 0269 00000000 		.align 32
 11699      00000000 
 11699      00000000 
 11699      00000000 
 11699      00000000 
 11702              	_ZTSN12_GLOBAL__N_151TestCheckEqualFailureIncludesCheckExpectedAndActualE:
 11703 0280 2A4E3132 		.string	"*N12_GLOBAL__N_151TestCheckEqualFailureIncludesCheckExpectedAndActualE"
 11703      5F474C4F 
 11703      42414C5F 
 11703      5F4E5F31 
 11703      35315465 
 11704              		.section	.data.rel.ro
 11705              		.align 8
 11708              	_ZTIN12_GLOBAL__N_136TestCheckEqualFailureIncludesDetailsE:
 11709 00c0 00000000 		.quad	_ZTVN10__cxxabiv120__si_class_type_infoE+16
 11709      00000000 
 11710 00c8 00000000 		.quad	_ZTSN12_GLOBAL__N_136TestCheckEqualFailureIncludesDetailsE
 11710      00000000 
 11711 00d0 00000000 		.quad	_ZTIN8UnitTest4TestE
 11711      00000000 
 11712              		.section	.rodata
 11713 02c7 00000000 		.align 32
 11713      00000000 
 11713      00000000 
 11713      00000000 
 11713      00000000 
 11716              	_ZTSN12_GLOBAL__N_136TestCheckEqualFailureIncludesDetailsE:
 11717 02e0 2A4E3132 		.string	"*N12_GLOBAL__N_136TestCheckEqualFailureIncludesDetailsE"
 11717      5F474C4F 
 11717      42414C5F 
 11717      5F4E5F31 
 11717      33365465 
 11718              		.section	.data.rel.ro
 11719              		.align 8
 11722              	_ZTIN12_GLOBAL__N_118TestCheckCloseTrueE:
 11723 00d8 00000000 		.quad	_ZTVN10__cxxabiv120__si_class_type_infoE+16
 11723      00000000 
 11724 00e0 00000000 		.quad	_ZTSN12_GLOBAL__N_118TestCheckCloseTrueE
 11724      00000000 
 11725 00e8 00000000 		.quad	_ZTIN8UnitTest4TestE
 11725      00000000 
 11726              		.section	.rodata
 11727 0318 00000000 		.align 32
 11727      00000000 
 11730              	_ZTSN12_GLOBAL__N_118TestCheckCloseTrueE:
 11731 0320 2A4E3132 		.string	"*N12_GLOBAL__N_118TestCheckCloseTrueE"
 11731      5F474C4F 
 11731      42414C5F 
 11731      5F4E5F31 
 11731      31385465 
 11732              		.section	.data.rel.ro
 11733              		.align 8
 11736              	_ZTIN12_GLOBAL__N_119TestCheckCloseFalseE:
 11737 00f0 00000000 		.quad	_ZTVN10__cxxabiv120__si_class_type_infoE+16
 11737      00000000 
 11738 00f8 00000000 		.quad	_ZTSN12_GLOBAL__N_119TestCheckCloseFalseE
 11738      00000000 
 11739 0100 00000000 		.quad	_ZTIN8UnitTest4TestE
 11739      00000000 
 11740              		.section	.rodata
 11741 0346 00000000 		.align 32
 11741      00000000 
 11741      00000000 
 11741      00000000 
 11741      00000000 
 11744              	_ZTSN12_GLOBAL__N_119TestCheckCloseFalseE:
 11745 0360 2A4E3132 		.string	"*N12_GLOBAL__N_119TestCheckCloseFalseE"
 11745      5F474C4F 
 11745      42414C5F 
 11745      5F4E5F31 
 11745      31395465 
 11746              		.section	.data.rel.ro
 11747              		.align 8
 11750              	_ZTIN12_GLOBAL__N_147TestCheckCloseWithZeroEpsilonWorksForSameNumberE:
 11751 0108 00000000 		.quad	_ZTVN10__cxxabiv120__si_class_type_infoE+16
 11751      00000000 
 11752 0110 00000000 		.quad	_ZTSN12_GLOBAL__N_147TestCheckCloseWithZeroEpsilonWorksForSameNumberE
 11752      00000000 
 11753 0118 00000000 		.quad	_ZTIN8UnitTest4TestE
 11753      00000000 
 11754              		.section	.rodata
 11755 0387 00000000 		.align 32
 11755      00000000 
 11755      00000000 
 11755      00000000 
 11755      00000000 
 11758              	_ZTSN12_GLOBAL__N_147TestCheckCloseWithZeroEpsilonWorksForSameNumberE:
 11759 03a0 2A4E3132 		.string	"*N12_GLOBAL__N_147TestCheckCloseWithZeroEpsilonWorksForSameNumberE"
 11759      5F474C4F 
 11759      42414C5F 
 11759      5F4E5F31 
 11759      34375465 
 11760              		.section	.data.rel.ro
 11761              		.align 8
 11764              	_ZTIN12_GLOBAL__N_126TestCheckCloseWithNaNFailsE:
 11765 0120 00000000 		.quad	_ZTVN10__cxxabiv120__si_class_type_infoE+16
 11765      00000000 
 11766 0128 00000000 		.quad	_ZTSN12_GLOBAL__N_126TestCheckCloseWithNaNFailsE
 11766      00000000 
 11767 0130 00000000 		.quad	_ZTIN8UnitTest4TestE
 11767      00000000 
 11768              		.section	.rodata
 11769 03e3 00000000 		.align 32
 11769      00000000 
 11769      00000000 
 11769      00000000 
 11769      00000000 
 11772              	_ZTSN12_GLOBAL__N_126TestCheckCloseWithNaNFailsE:
 11773 0400 2A4E3132 		.string	"*N12_GLOBAL__N_126TestCheckCloseWithNaNFailsE"
 11773      5F474C4F 
 11773      42414C5F 
 11773      5F4E5F31 
 11773      32365465 
 11774              		.section	.data.rel.ro
 11775              		.align 8
 11778              	_ZTIN12_GLOBAL__N_139TestCheckCloseWithNaNAgainstItselfFailsE:
 11779 0138 00000000 		.quad	_ZTVN10__cxxabiv120__si_class_type_infoE+16
 11779      00000000 
 11780 0140 00000000 		.quad	_ZTSN12_GLOBAL__N_139TestCheckCloseWithNaNAgainstItselfFailsE
 11780      00000000 
 11781 0148 00000000 		.quad	_ZTIN8UnitTest4TestE
 11781      00000000 
 11782              		.section	.rodata
 11783 042e 00000000 		.align 32
 11783      00000000 
 11783      00000000 
 11783      00000000 
 11783      0000
 11786              	_ZTSN12_GLOBAL__N_139TestCheckCloseWithNaNAgainstItselfFailsE:
 11787 0440 2A4E3132 		.string	"*N12_GLOBAL__N_139TestCheckCloseWithNaNAgainstItselfFailsE"
 11787      5F474C4F 
 11787      42414C5F 
 11787      5F4E5F31 
 11787      33395465 
 11788              		.section	.data.rel.ro
 11789              		.align 8
 11792              	_ZTIN12_GLOBAL__N_151TestCheckCloseFailureIncludesCheckExpectedAndActualE:
 11793 0150 00000000 		.quad	_ZTVN10__cxxabiv120__si_class_type_infoE+16
 11793      00000000 
 11794 0158 00000000 		.quad	_ZTSN12_GLOBAL__N_151TestCheckCloseFailureIncludesCheckExpectedAndActualE
 11794      00000000 
 11795 0160 00000000 		.quad	_ZTIN8UnitTest4TestE
 11795      00000000 
 11796              		.section	.rodata
 11797 047b 00000000 		.align 32
 11797      00
 11800              	_ZTSN12_GLOBAL__N_151TestCheckCloseFailureIncludesCheckExpectedAndActualE:
 11801 0480 2A4E3132 		.string	"*N12_GLOBAL__N_151TestCheckCloseFailureIncludesCheckExpectedAndActualE"
 11801      5F474C4F 
 11801      42414C5F 
 11801      5F4E5F31 
 11801      35315465 
 11802              		.section	.data.rel.ro
 11803              		.align 8
 11806              	_ZTIN12_GLOBAL__N_138TestCheckCloseFailureIncludesToleranceE:
 11807 0168 00000000 		.quad	_ZTVN10__cxxabiv120__si_class_type_infoE+16
 11807      00000000 
 11808 0170 00000000 		.quad	_ZTSN12_GLOBAL__N_138TestCheckCloseFailureIncludesToleranceE
 11808      00000000 
 11809 0178 00000000 		.quad	_ZTIN8UnitTest4TestE
 11809      00000000 
 11810              		.section	.rodata
 11811 04c7 00000000 		.align 32
 11811      00000000 
 11811      00000000 
 11811      00000000 
 11811      00000000 
 11814              	_ZTSN12_GLOBAL__N_138TestCheckCloseFailureIncludesToleranceE:
 11815 04e0 2A4E3132 		.string	"*N12_GLOBAL__N_138TestCheckCloseFailureIncludesToleranceE"
 11815      5F474C4F 
 11815      42414C5F 
 11815      5F4E5F31 
 11815      33385465 
 11816              		.section	.data.rel.ro
 11817              		.align 8
 11820              	_ZTIN12_GLOBAL__N_136TestCheckCloseFailureIncludesDetailsE:
 11821 0180 00000000 		.quad	_ZTVN10__cxxabiv120__si_class_type_infoE+16
 11821      00000000 
 11822 0188 00000000 		.quad	_ZTSN12_GLOBAL__N_136TestCheckCloseFailureIncludesDetailsE
 11822      00000000 
 11823 0190 00000000 		.quad	_ZTIN8UnitTest4TestE
 11823      00000000 
 11824              		.section	.rodata
 11825 051a 00000000 		.align 32
 11825      0000
 11828              	_ZTSN12_GLOBAL__N_136TestCheckCloseFailureIncludesDetailsE:
 11829 0520 2A4E3132 		.string	"*N12_GLOBAL__N_136TestCheckCloseFailureIncludesDetailsE"
 11829      5F474C4F 
 11829      42414C5F 
 11829      5F4E5F31 
 11829      33365465 
 11830              		.section	.data.rel.ro
 11831              		.align 8
 11834              	_ZTIN12_GLOBAL__N_123TestCheckArrayEqualTrueE:
 11835 0198 00000000 		.quad	_ZTVN10__cxxabiv120__si_class_type_infoE+16
 11835      00000000 
 11836 01a0 00000000 		.quad	_ZTSN12_GLOBAL__N_123TestCheckArrayEqualTrueE
 11836      00000000 
 11837 01a8 00000000 		.quad	_ZTIN8UnitTest4TestE
 11837      00000000 
 11838              		.section	.rodata
 11839 0558 00000000 		.align 32
 11839      00000000 
 11842              	_ZTSN12_GLOBAL__N_123TestCheckArrayEqualTrueE:
 11843 0560 2A4E3132 		.string	"*N12_GLOBAL__N_123TestCheckArrayEqualTrueE"
 11843      5F474C4F 
 11843      42414C5F 
 11843      5F4E5F31 
 11843      32335465 
 11844              		.section	.data.rel.ro
 11845              		.align 8
 11848              	_ZTIN12_GLOBAL__N_124TestCheckArrayEqualFalseE:
 11849 01b0 00000000 		.quad	_ZTVN10__cxxabiv120__si_class_type_infoE+16
 11849      00000000 
 11850 01b8 00000000 		.quad	_ZTSN12_GLOBAL__N_124TestCheckArrayEqualFalseE
 11850      00000000 
 11851 01c0 00000000 		.quad	_ZTIN8UnitTest4TestE
 11851      00000000 
 11852              		.section	.rodata
 11853 058b 00000000 		.align 32
 11853      00000000 
 11853      00000000 
 11853      00000000 
 11853      00000000 
 11856              	_ZTSN12_GLOBAL__N_124TestCheckArrayEqualFalseE:
 11857 05a0 2A4E3132 		.string	"*N12_GLOBAL__N_124TestCheckArrayEqualFalseE"
 11857      5F474C4F 
 11857      42414C5F 
 11857      5F4E5F31 
 11857      32345465 
 11858              		.section	.data.rel.ro
 11859              		.align 8
 11862              	_ZTIN12_GLOBAL__N_123TestCheckArrayCloseTrueE:
 11863 01c8 00000000 		.quad	_ZTVN10__cxxabiv120__si_class_type_infoE+16
 11863      00000000 
 11864 01d0 00000000 		.quad	_ZTSN12_GLOBAL__N_123TestCheckArrayCloseTrueE
 11864      00000000 
 11865 01d8 00000000 		.quad	_ZTIN8UnitTest4TestE
 11865      00000000 
 11866              		.section	.rodata
 11867 05cc 00000000 		.align 32
 11867      00000000 
 11867      00000000 
 11867      00000000 
 11867      00000000 
 11870              	_ZTSN12_GLOBAL__N_123TestCheckArrayCloseTrueE:
 11871 05e0 2A4E3132 		.string	"*N12_GLOBAL__N_123TestCheckArrayCloseTrueE"
 11871      5F474C4F 
 11871      42414C5F 
 11871      5F4E5F31 
 11871      32335465 
 11872              		.section	.data.rel.ro
 11873              		.align 8
 11876              	_ZTIN12_GLOBAL__N_124TestCheckArrayCloseFalseE:
 11877 01e0 00000000 		.quad	_ZTVN10__cxxabiv120__si_class_type_infoE+16
 11877      00000000 
 11878 01e8 00000000 		.quad	_ZTSN12_GLOBAL__N_124TestCheckArrayCloseFalseE
 11878      00000000 
 11879 01f0 00000000 		.quad	_ZTIN8UnitTest4TestE
 11879      00000000 
 11880              		.section	.rodata
 11881 060b 00000000 		.align 32
 11881      00000000 
 11881      00000000 
 11881      00000000 
 11881      00000000 
 11884              	_ZTSN12_GLOBAL__N_124TestCheckArrayCloseFalseE:
 11885 0620 2A4E3132 		.string	"*N12_GLOBAL__N_124TestCheckArrayCloseFalseE"
 11885      5F474C4F 
 11885      42414C5F 
 11885      5F4E5F31 
 11885      32345465 
 11886              		.section	.data.rel.ro
 11887              		.align 8
 11890              	_ZTIN12_GLOBAL__N_141TestCheckArrayCloseFailureIncludesDetailsE:
 11891 01f8 00000000 		.quad	_ZTVN10__cxxabiv120__si_class_type_infoE+16
 11891      00000000 
 11892 0200 00000000 		.quad	_ZTSN12_GLOBAL__N_141TestCheckArrayCloseFailureIncludesDetailsE
 11892      00000000 
 11893 0208 00000000 		.quad	_ZTIN8UnitTest4TestE
 11893      00000000 
 11894              		.section	.rodata
 11895 064c 00000000 		.align 32
 11895      00000000 
 11895      00000000 
 11895      00000000 
 11895      00000000 
 11898              	_ZTSN12_GLOBAL__N_141TestCheckArrayCloseFailureIncludesDetailsE:
 11899 0660 2A4E3132 		.string	"*N12_GLOBAL__N_141TestCheckArrayCloseFailureIncludesDetailsE"
 11899      5F474C4F 
 11899      42414C5F 
 11899      5F4E5F31 
 11899      34315465 
 11900              		.section	.data.rel.ro
 11901              		.align 8
 11904              	_ZTIN12_GLOBAL__N_125TestCheckArray2DCloseTrueE:
 11905 0210 00000000 		.quad	_ZTVN10__cxxabiv120__si_class_type_infoE+16
 11905      00000000 
 11906 0218 00000000 		.quad	_ZTSN12_GLOBAL__N_125TestCheckArray2DCloseTrueE
 11906      00000000 
 11907 0220 00000000 		.quad	_ZTIN8UnitTest4TestE
 11907      00000000 
 11908              		.section	.rodata
 11909 069d 000000   		.align 32
 11912              	_ZTSN12_GLOBAL__N_125TestCheckArray2DCloseTrueE:
 11913 06a0 2A4E3132 		.string	"*N12_GLOBAL__N_125TestCheckArray2DCloseTrueE"
 11913      5F474C4F 
 11913      42414C5F 
 11913      5F4E5F31 
 11913      32355465 
 11914              		.section	.data.rel.ro
 11915              		.align 8
 11918              	_ZTIN12_GLOBAL__N_126TestCheckArray2DCloseFalseE:
 11919 0228 00000000 		.quad	_ZTVN10__cxxabiv120__si_class_type_infoE+16
 11919      00000000 
 11920 0230 00000000 		.quad	_ZTSN12_GLOBAL__N_126TestCheckArray2DCloseFalseE
 11920      00000000 
 11921 0238 00000000 		.quad	_ZTIN8UnitTest4TestE
 11921      00000000 
 11922              		.section	.rodata
 11923 06cd 00000000 		.align 32
 11923      00000000 
 11923      00000000 
 11923      00000000 
 11923      000000
 11926              	_ZTSN12_GLOBAL__N_126TestCheckArray2DCloseFalseE:
 11927 06e0 2A4E3132 		.string	"*N12_GLOBAL__N_126TestCheckArray2DCloseFalseE"
 11927      5F474C4F 
 11927      42414C5F 
 11927      5F4E5F31 
 11927      32365465 
 11928              		.section	.data.rel.ro
 11929              		.align 8
 11932              	_ZTIN12_GLOBAL__N_133TestCheckCloseWithDoublesSucceedsE:
 11933 0240 00000000 		.quad	_ZTVN10__cxxabiv120__si_class_type_infoE+16
 11933      00000000 
 11934 0248 00000000 		.quad	_ZTSN12_GLOBAL__N_133TestCheckCloseWithDoublesSucceedsE
 11934      00000000 
 11935 0250 00000000 		.quad	_ZTIN8UnitTest4TestE
 11935      00000000 
 11936              		.section	.rodata
 11937 070e 00000000 		.align 32
 11937      00000000 
 11937      00000000 
 11937      00000000 
 11937      0000
 11940              	_ZTSN12_GLOBAL__N_133TestCheckCloseWithDoublesSucceedsE:
 11941 0720 2A4E3132 		.string	"*N12_GLOBAL__N_133TestCheckCloseWithDoublesSucceedsE"
 11941      5F474C4F 
 11941      42414C5F 
 11941      5F4E5F31 
 11941      33335465 
 11942              		.section	.data.rel.ro
 11943              		.align 8
 11946              	_ZTIN12_GLOBAL__N_143TestCheckArray2DCloseFailureIncludesDetailsE:
 11947 0258 00000000 		.quad	_ZTVN10__cxxabiv120__si_class_type_infoE+16
 11947      00000000 
 11948 0260 00000000 		.quad	_ZTSN12_GLOBAL__N_143TestCheckArray2DCloseFailureIncludesDetailsE
 11948      00000000 
 11949 0268 00000000 		.quad	_ZTIN8UnitTest4TestE
 11949      00000000 
 11950              		.section	.rodata
 11951 0755 00000000 		.align 32
 11951      00000000 
 11951      000000
 11954              	_ZTSN12_GLOBAL__N_143TestCheckArray2DCloseFailureIncludesDetailsE:
 11955 0760 2A4E3132 		.string	"*N12_GLOBAL__N_143TestCheckArray2DCloseFailureIncludesDetailsE"
 11955      5F474C4F 
 11955      42414C5F 
 11955      5F4E5F31 
 11955      34335465 
 11956              		.hidden	_ZTCN8UnitTest15MemoryOutStreamE0_So
 11957              		.weak	_ZTCN8UnitTest15MemoryOutStreamE0_So
 11958              		.section	.data.rel.ro._ZTCN8UnitTest15MemoryOutStreamE0_So,"awG",@progbits,_ZTVN8UnitTest15MemoryO
 11959              		.align 8
 11962              	_ZTCN8UnitTest15MemoryOutStreamE0_So:
 11963 0000 90000000 		.quad	144
 11963      00000000 
 11964 0008 00000000 		.quad	0
 11964      00000000 
 11965 0010 00000000 		.quad	_ZTISo
 11965      00000000 
 11966 0018 00000000 		.quad	0
 11966      00000000 
 11967 0020 00000000 		.quad	0
 11967      00000000 
 11968 0028 70FFFFFF 		.quad	-144
 11968      FFFFFFFF 
 11969 0030 70FFFFFF 		.quad	-144
 11969      FFFFFFFF 
 11970 0038 00000000 		.quad	_ZTISo
 11970      00000000 
 11971 0040 00000000 		.quad	0
 11971      00000000 
 11972 0048 00000000 		.quad	0
 11972      00000000 
 11973              		.hidden	_ZTCN8UnitTest15MemoryOutStreamE0_NSt7__cxx1119basic_ostringstreamIcSt11char_traitsIcESaIc
 11974              		.weak	_ZTCN8UnitTest15MemoryOutStreamE0_NSt7__cxx1119basic_ostringstreamIcSt11char_traitsIcESaIcEE
 11975              		.section	.data.rel.ro._ZTCN8UnitTest15MemoryOutStreamE0_NSt7__cxx1119basic_ostringstreamIcSt11char
 11976              		.align 8
 11979              	_ZTCN8UnitTest15MemoryOutStreamE0_NSt7__cxx1119basic_ostringstreamIcSt11char_traitsIcESaIcEEE:
 11980 0000 90000000 		.quad	144
 11980      00000000 
 11981 0008 00000000 		.quad	0
 11981      00000000 
 11982 0010 00000000 		.quad	_ZTINSt7__cxx1119basic_ostringstreamIcSt11char_traitsIcESaIcEEE
 11982      00000000 
 11983 0018 00000000 		.quad	0
 11983      00000000 
 11984 0020 00000000 		.quad	0
 11984      00000000 
 11985 0028 70FFFFFF 		.quad	-144
 11985      FFFFFFFF 
 11986 0030 70FFFFFF 		.quad	-144
 11986      FFFFFFFF 
 11987 0038 00000000 		.quad	_ZTINSt7__cxx1119basic_ostringstreamIcSt11char_traitsIcESaIcEEE
 11987      00000000 
 11988 0040 00000000 		.quad	0
 11988      00000000 
 11989 0048 00000000 		.quad	0
 11989      00000000 
 11990              		.weak	_ZTTN8UnitTest15MemoryOutStreamE
 11991              		.section	.data.rel.ro.local._ZTTN8UnitTest15MemoryOutStreamE,"awG",@progbits,_ZTVN8UnitTest15Memor
 11992              		.align 8
 11995              	_ZTTN8UnitTest15MemoryOutStreamE:
 11996 0000 00000000 		.quad	_ZTVN8UnitTest15MemoryOutStreamE+24
 11996      00000000 
 11997 0008 00000000 		.quad	_ZTCN8UnitTest15MemoryOutStreamE0_NSt7__cxx1119basic_ostringstreamIcSt11char_traitsIcESaIcEE
 11997      00000000 
 11998 0010 00000000 		.quad	_ZTCN8UnitTest15MemoryOutStreamE0_So+24
 11998      00000000 
 11999 0018 00000000 		.quad	_ZTCN8UnitTest15MemoryOutStreamE0_So+64
 11999      00000000 
 12000 0020 00000000 		.quad	_ZTCN8UnitTest15MemoryOutStreamE0_NSt7__cxx1119basic_ostringstreamIcSt11char_traitsIcESaIcEE
 12000      00000000 
 12001 0028 00000000 		.quad	_ZTVN8UnitTest15MemoryOutStreamE+64
 12001      00000000 
 12002              		.weak	_ZTVN8UnitTest15MemoryOutStreamE
 12003              		.section	.data.rel.ro.local._ZTVN8UnitTest15MemoryOutStreamE,"awG",@progbits,_ZTVN8UnitTest15Memor
 12004              		.align 8
 12007              	_ZTVN8UnitTest15MemoryOutStreamE:
 12008 0000 90000000 		.quad	144
 12008      00000000 
 12009 0008 00000000 		.quad	0
 12009      00000000 
 12010 0010 00000000 		.quad	_ZTIN8UnitTest15MemoryOutStreamE
 12010      00000000 
 12011 0018 00000000 		.quad	_ZN8UnitTest15MemoryOutStreamD1Ev
 12011      00000000 
 12012 0020 00000000 		.quad	_ZN8UnitTest15MemoryOutStreamD0Ev
 12012      00000000 
 12013 0028 70FFFFFF 		.quad	-144
 12013      FFFFFFFF 
 12014 0030 70FFFFFF 		.quad	-144
 12014      FFFFFFFF 
 12015 0038 00000000 		.quad	_ZTIN8UnitTest15MemoryOutStreamE
 12015      00000000 
 12016 0040 00000000 		.quad	_ZTv0_n24_N8UnitTest15MemoryOutStreamD1Ev
 12016      00000000 
 12017 0048 00000000 		.quad	_ZTv0_n24_N8UnitTest15MemoryOutStreamD0Ev
 12017      00000000 
 12018              		.weak	_ZTV17RecordingReporter
 12019              		.section	.data.rel.ro.local._ZTV17RecordingReporter,"awG",@progbits,_ZTV17RecordingReporter,comdat
 12020              		.align 8
 12023              	_ZTV17RecordingReporter:
 12024 0000 00000000 		.quad	0
 12024      00000000 
 12025 0008 00000000 		.quad	_ZTI17RecordingReporter
 12025      00000000 
 12026 0010 00000000 		.quad	_ZN17RecordingReporterD1Ev
 12026      00000000 
 12027 0018 00000000 		.quad	_ZN17RecordingReporterD0Ev
 12027      00000000 
 12028 0020 00000000 		.quad	_ZN17RecordingReporter15ReportTestStartERKN8UnitTest11TestDetailsE
 12028      00000000 
 12029 0028 00000000 		.quad	_ZN17RecordingReporter13ReportFailureERKN8UnitTest11TestDetailsEPKc
 12029      00000000 
 12030 0030 00000000 		.quad	_ZN17RecordingReporter16ReportTestFinishERKN8UnitTest11TestDetailsEf
 12030      00000000 
 12031 0038 00000000 		.quad	_ZN17RecordingReporter13ReportSummaryEiiif
 12031      00000000 
 12032              		.section	.data.rel.ro.local,"aw",@progbits
 12033              		.align 8
 12036              	_ZTVN12_GLOBAL__N_130TestCheckEqualWithUnsignedLongE:
 12037 0000 00000000 		.quad	0
 12037      00000000 
 12038 0008 00000000 		.quad	_ZTIN12_GLOBAL__N_130TestCheckEqualWithUnsignedLongE
 12038      00000000 
 12039 0010 00000000 		.quad	_ZN12_GLOBAL__N_130TestCheckEqualWithUnsignedLongD1Ev
 12039      00000000 
 12040 0018 00000000 		.quad	_ZN12_GLOBAL__N_130TestCheckEqualWithUnsignedLongD0Ev
 12040      00000000 
 12041 0020 00000000 		.quad	_ZNK12_GLOBAL__N_130TestCheckEqualWithUnsignedLong7RunImplEv
 12041      00000000 
 12042              		.align 8
 12045              	_ZTVN12_GLOBAL__N_149TestCheckEqualsWithStringsFailsOnDifferentStringsE:
 12046 0028 00000000 		.quad	0
 12046      00000000 
 12047 0030 00000000 		.quad	_ZTIN12_GLOBAL__N_149TestCheckEqualsWithStringsFailsOnDifferentStringsE
 12047      00000000 
 12048 0038 00000000 		.quad	_ZN12_GLOBAL__N_149TestCheckEqualsWithStringsFailsOnDifferentStringsD1Ev
 12048      00000000 
 12049 0040 00000000 		.quad	_ZN12_GLOBAL__N_149TestCheckEqualsWithStringsFailsOnDifferentStringsD0Ev
 12049      00000000 
 12050 0048 00000000 		.quad	_ZNK12_GLOBAL__N_149TestCheckEqualsWithStringsFailsOnDifferentStrings7RunImplEv
 12050      00000000 
 12051              		.align 8
 12054              	_ZTVN12_GLOBAL__N_157TestCheckEqualsWithStringsWorksOnContentsNonConstNonConstE:
 12055 0050 00000000 		.quad	0
 12055      00000000 
 12056 0058 00000000 		.quad	_ZTIN12_GLOBAL__N_157TestCheckEqualsWithStringsWorksOnContentsNonConstNonConstE
 12056      00000000 
 12057 0060 00000000 		.quad	_ZN12_GLOBAL__N_157TestCheckEqualsWithStringsWorksOnContentsNonConstNonConstD1Ev
 12057      00000000 
 12058 0068 00000000 		.quad	_ZN12_GLOBAL__N_157TestCheckEqualsWithStringsWorksOnContentsNonConstNonConstD0Ev
 12058      00000000 
 12059 0070 00000000 		.quad	_ZNK12_GLOBAL__N_157TestCheckEqualsWithStringsWorksOnContentsNonConstNonConst7RunImplEv
 12059      00000000 
 12060              		.align 8
 12063              	_ZTVN12_GLOBAL__N_151TestCheckEqualsWithStringsWorksOnContentsConstConstE:
 12064 0078 00000000 		.quad	0
 12064      00000000 
 12065 0080 00000000 		.quad	_ZTIN12_GLOBAL__N_151TestCheckEqualsWithStringsWorksOnContentsConstConstE
 12065      00000000 
 12066 0088 00000000 		.quad	_ZN12_GLOBAL__N_151TestCheckEqualsWithStringsWorksOnContentsConstConstD1Ev
 12066      00000000 
 12067 0090 00000000 		.quad	_ZN12_GLOBAL__N_151TestCheckEqualsWithStringsWorksOnContentsConstConstD0Ev
 12067      00000000 
 12068 0098 00000000 		.quad	_ZNK12_GLOBAL__N_151TestCheckEqualsWithStringsWorksOnContentsConstConst7RunImplEv
 12068      00000000 
 12069              		.align 8
 12072              	_ZTVN12_GLOBAL__N_154TestCheckEqualsWithStringsWorksOnContentsNonConstConstE:
 12073 00a0 00000000 		.quad	0
 12073      00000000 
 12074 00a8 00000000 		.quad	_ZTIN12_GLOBAL__N_154TestCheckEqualsWithStringsWorksOnContentsNonConstConstE
 12074      00000000 
 12075 00b0 00000000 		.quad	_ZN12_GLOBAL__N_154TestCheckEqualsWithStringsWorksOnContentsNonConstConstD1Ev
 12075      00000000 
 12076 00b8 00000000 		.quad	_ZN12_GLOBAL__N_154TestCheckEqualsWithStringsWorksOnContentsNonConstConstD0Ev
 12076      00000000 
 12077 00c0 00000000 		.quad	_ZNK12_GLOBAL__N_154TestCheckEqualsWithStringsWorksOnContentsNonConstConst7RunImplEv
 12077      00000000 
 12078              		.align 8
 12081              	_ZTVN12_GLOBAL__N_154TestCheckEqualsWithStringsWorksOnContentsConstNonConstE:
 12082 00c8 00000000 		.quad	0
 12082      00000000 
 12083 00d0 00000000 		.quad	_ZTIN12_GLOBAL__N_154TestCheckEqualsWithStringsWorksOnContentsConstNonConstE
 12083      00000000 
 12084 00d8 00000000 		.quad	_ZN12_GLOBAL__N_154TestCheckEqualsWithStringsWorksOnContentsConstNonConstD1Ev
 12084      00000000 
 12085 00e0 00000000 		.quad	_ZN12_GLOBAL__N_154TestCheckEqualsWithStringsWorksOnContentsConstNonConstD0Ev
 12085      00000000 
 12086 00e8 00000000 		.quad	_ZNK12_GLOBAL__N_154TestCheckEqualsWithStringsWorksOnContentsConstNonConst7RunImplEv
 12086      00000000 
 12087              		.align 8
 12090              	_ZTVN12_GLOBAL__N_153TestCheckEqualsWithStringsWorksOnContentsWithALiteralE:
 12091 00f0 00000000 		.quad	0
 12091      00000000 
 12092 00f8 00000000 		.quad	_ZTIN12_GLOBAL__N_153TestCheckEqualsWithStringsWorksOnContentsWithALiteralE
 12092      00000000 
 12093 0100 00000000 		.quad	_ZN12_GLOBAL__N_153TestCheckEqualsWithStringsWorksOnContentsWithALiteralD1Ev
 12093      00000000 
 12094 0108 00000000 		.quad	_ZN12_GLOBAL__N_153TestCheckEqualsWithStringsWorksOnContentsWithALiteralD0Ev
 12094      00000000 
 12095 0110 00000000 		.quad	_ZNK12_GLOBAL__N_153TestCheckEqualsWithStringsWorksOnContentsWithALiteral7RunImplEv
 12095      00000000 
 12096              		.align 8
 12099              	_ZTVN12_GLOBAL__N_151TestCheckEqualFailureIncludesCheckExpectedAndActualE:
 12100 0118 00000000 		.quad	0
 12100      00000000 
 12101 0120 00000000 		.quad	_ZTIN12_GLOBAL__N_151TestCheckEqualFailureIncludesCheckExpectedAndActualE
 12101      00000000 
 12102 0128 00000000 		.quad	_ZN12_GLOBAL__N_151TestCheckEqualFailureIncludesCheckExpectedAndActualD1Ev
 12102      00000000 
 12103 0130 00000000 		.quad	_ZN12_GLOBAL__N_151TestCheckEqualFailureIncludesCheckExpectedAndActualD0Ev
 12103      00000000 
 12104 0138 00000000 		.quad	_ZNK12_GLOBAL__N_151TestCheckEqualFailureIncludesCheckExpectedAndActual7RunImplEv
 12104      00000000 
 12105              		.align 8
 12108              	_ZTVN12_GLOBAL__N_136TestCheckEqualFailureIncludesDetailsE:
 12109 0140 00000000 		.quad	0
 12109      00000000 
 12110 0148 00000000 		.quad	_ZTIN12_GLOBAL__N_136TestCheckEqualFailureIncludesDetailsE
 12110      00000000 
 12111 0150 00000000 		.quad	_ZN12_GLOBAL__N_136TestCheckEqualFailureIncludesDetailsD1Ev
 12111      00000000 
 12112 0158 00000000 		.quad	_ZN12_GLOBAL__N_136TestCheckEqualFailureIncludesDetailsD0Ev
 12112      00000000 
 12113 0160 00000000 		.quad	_ZNK12_GLOBAL__N_136TestCheckEqualFailureIncludesDetails7RunImplEv
 12113      00000000 
 12114              		.align 8
 12117              	_ZTVN12_GLOBAL__N_118TestCheckCloseTrueE:
 12118 0168 00000000 		.quad	0
 12118      00000000 
 12119 0170 00000000 		.quad	_ZTIN12_GLOBAL__N_118TestCheckCloseTrueE
 12119      00000000 
 12120 0178 00000000 		.quad	_ZN12_GLOBAL__N_118TestCheckCloseTrueD1Ev
 12120      00000000 
 12121 0180 00000000 		.quad	_ZN12_GLOBAL__N_118TestCheckCloseTrueD0Ev
 12121      00000000 
 12122 0188 00000000 		.quad	_ZNK12_GLOBAL__N_118TestCheckCloseTrue7RunImplEv
 12122      00000000 
 12123              		.align 8
 12126              	_ZTVN12_GLOBAL__N_119TestCheckCloseFalseE:
 12127 0190 00000000 		.quad	0
 12127      00000000 
 12128 0198 00000000 		.quad	_ZTIN12_GLOBAL__N_119TestCheckCloseFalseE
 12128      00000000 
 12129 01a0 00000000 		.quad	_ZN12_GLOBAL__N_119TestCheckCloseFalseD1Ev
 12129      00000000 
 12130 01a8 00000000 		.quad	_ZN12_GLOBAL__N_119TestCheckCloseFalseD0Ev
 12130      00000000 
 12131 01b0 00000000 		.quad	_ZNK12_GLOBAL__N_119TestCheckCloseFalse7RunImplEv
 12131      00000000 
 12132              		.align 8
 12135              	_ZTVN12_GLOBAL__N_147TestCheckCloseWithZeroEpsilonWorksForSameNumberE:
 12136 01b8 00000000 		.quad	0
 12136      00000000 
 12137 01c0 00000000 		.quad	_ZTIN12_GLOBAL__N_147TestCheckCloseWithZeroEpsilonWorksForSameNumberE
 12137      00000000 
 12138 01c8 00000000 		.quad	_ZN12_GLOBAL__N_147TestCheckCloseWithZeroEpsilonWorksForSameNumberD1Ev
 12138      00000000 
 12139 01d0 00000000 		.quad	_ZN12_GLOBAL__N_147TestCheckCloseWithZeroEpsilonWorksForSameNumberD0Ev
 12139      00000000 
 12140 01d8 00000000 		.quad	_ZNK12_GLOBAL__N_147TestCheckCloseWithZeroEpsilonWorksForSameNumber7RunImplEv
 12140      00000000 
 12141              		.align 8
 12144              	_ZTVN12_GLOBAL__N_126TestCheckCloseWithNaNFailsE:
 12145 01e0 00000000 		.quad	0
 12145      00000000 
 12146 01e8 00000000 		.quad	_ZTIN12_GLOBAL__N_126TestCheckCloseWithNaNFailsE
 12146      00000000 
 12147 01f0 00000000 		.quad	_ZN12_GLOBAL__N_126TestCheckCloseWithNaNFailsD1Ev
 12147      00000000 
 12148 01f8 00000000 		.quad	_ZN12_GLOBAL__N_126TestCheckCloseWithNaNFailsD0Ev
 12148      00000000 
 12149 0200 00000000 		.quad	_ZNK12_GLOBAL__N_126TestCheckCloseWithNaNFails7RunImplEv
 12149      00000000 
 12150              		.align 8
 12153              	_ZTVN12_GLOBAL__N_139TestCheckCloseWithNaNAgainstItselfFailsE:
 12154 0208 00000000 		.quad	0
 12154      00000000 
 12155 0210 00000000 		.quad	_ZTIN12_GLOBAL__N_139TestCheckCloseWithNaNAgainstItselfFailsE
 12155      00000000 
 12156 0218 00000000 		.quad	_ZN12_GLOBAL__N_139TestCheckCloseWithNaNAgainstItselfFailsD1Ev
 12156      00000000 
 12157 0220 00000000 		.quad	_ZN12_GLOBAL__N_139TestCheckCloseWithNaNAgainstItselfFailsD0Ev
 12157      00000000 
 12158 0228 00000000 		.quad	_ZNK12_GLOBAL__N_139TestCheckCloseWithNaNAgainstItselfFails7RunImplEv
 12158      00000000 
 12159              		.align 8
 12162              	_ZTVN12_GLOBAL__N_151TestCheckCloseFailureIncludesCheckExpectedAndActualE:
 12163 0230 00000000 		.quad	0
 12163      00000000 
 12164 0238 00000000 		.quad	_ZTIN12_GLOBAL__N_151TestCheckCloseFailureIncludesCheckExpectedAndActualE
 12164      00000000 
 12165 0240 00000000 		.quad	_ZN12_GLOBAL__N_151TestCheckCloseFailureIncludesCheckExpectedAndActualD1Ev
 12165      00000000 
 12166 0248 00000000 		.quad	_ZN12_GLOBAL__N_151TestCheckCloseFailureIncludesCheckExpectedAndActualD0Ev
 12166      00000000 
 12167 0250 00000000 		.quad	_ZNK12_GLOBAL__N_151TestCheckCloseFailureIncludesCheckExpectedAndActual7RunImplEv
 12167      00000000 
 12168              		.align 8
 12171              	_ZTVN12_GLOBAL__N_138TestCheckCloseFailureIncludesToleranceE:
 12172 0258 00000000 		.quad	0
 12172      00000000 
 12173 0260 00000000 		.quad	_ZTIN12_GLOBAL__N_138TestCheckCloseFailureIncludesToleranceE
 12173      00000000 
 12174 0268 00000000 		.quad	_ZN12_GLOBAL__N_138TestCheckCloseFailureIncludesToleranceD1Ev
 12174      00000000 
 12175 0270 00000000 		.quad	_ZN12_GLOBAL__N_138TestCheckCloseFailureIncludesToleranceD0Ev
 12175      00000000 
 12176 0278 00000000 		.quad	_ZNK12_GLOBAL__N_138TestCheckCloseFailureIncludesTolerance7RunImplEv
 12176      00000000 
 12177              		.align 8
 12180              	_ZTVN12_GLOBAL__N_136TestCheckCloseFailureIncludesDetailsE:
 12181 0280 00000000 		.quad	0
 12181      00000000 
 12182 0288 00000000 		.quad	_ZTIN12_GLOBAL__N_136TestCheckCloseFailureIncludesDetailsE
 12182      00000000 
 12183 0290 00000000 		.quad	_ZN12_GLOBAL__N_136TestCheckCloseFailureIncludesDetailsD1Ev
 12183      00000000 
 12184 0298 00000000 		.quad	_ZN12_GLOBAL__N_136TestCheckCloseFailureIncludesDetailsD0Ev
 12184      00000000 
 12185 02a0 00000000 		.quad	_ZNK12_GLOBAL__N_136TestCheckCloseFailureIncludesDetails7RunImplEv
 12185      00000000 
 12186              		.align 8
 12189              	_ZTVN12_GLOBAL__N_123TestCheckArrayEqualTrueE:
 12190 02a8 00000000 		.quad	0
 12190      00000000 
 12191 02b0 00000000 		.quad	_ZTIN12_GLOBAL__N_123TestCheckArrayEqualTrueE
 12191      00000000 
 12192 02b8 00000000 		.quad	_ZN12_GLOBAL__N_123TestCheckArrayEqualTrueD1Ev
 12192      00000000 
 12193 02c0 00000000 		.quad	_ZN12_GLOBAL__N_123TestCheckArrayEqualTrueD0Ev
 12193      00000000 
 12194 02c8 00000000 		.quad	_ZNK12_GLOBAL__N_123TestCheckArrayEqualTrue7RunImplEv
 12194      00000000 
 12195              		.align 8
 12198              	_ZTVN12_GLOBAL__N_124TestCheckArrayEqualFalseE:
 12199 02d0 00000000 		.quad	0
 12199      00000000 
 12200 02d8 00000000 		.quad	_ZTIN12_GLOBAL__N_124TestCheckArrayEqualFalseE
 12200      00000000 
 12201 02e0 00000000 		.quad	_ZN12_GLOBAL__N_124TestCheckArrayEqualFalseD1Ev
 12201      00000000 
 12202 02e8 00000000 		.quad	_ZN12_GLOBAL__N_124TestCheckArrayEqualFalseD0Ev
 12202      00000000 
 12203 02f0 00000000 		.quad	_ZNK12_GLOBAL__N_124TestCheckArrayEqualFalse7RunImplEv
 12203      00000000 
 12204              		.align 8
 12207              	_ZTVN12_GLOBAL__N_123TestCheckArrayCloseTrueE:
 12208 02f8 00000000 		.quad	0
 12208      00000000 
 12209 0300 00000000 		.quad	_ZTIN12_GLOBAL__N_123TestCheckArrayCloseTrueE
 12209      00000000 
 12210 0308 00000000 		.quad	_ZN12_GLOBAL__N_123TestCheckArrayCloseTrueD1Ev
 12210      00000000 
 12211 0310 00000000 		.quad	_ZN12_GLOBAL__N_123TestCheckArrayCloseTrueD0Ev
 12211      00000000 
 12212 0318 00000000 		.quad	_ZNK12_GLOBAL__N_123TestCheckArrayCloseTrue7RunImplEv
 12212      00000000 
 12213              		.align 8
 12216              	_ZTVN12_GLOBAL__N_124TestCheckArrayCloseFalseE:
 12217 0320 00000000 		.quad	0
 12217      00000000 
 12218 0328 00000000 		.quad	_ZTIN12_GLOBAL__N_124TestCheckArrayCloseFalseE
 12218      00000000 
 12219 0330 00000000 		.quad	_ZN12_GLOBAL__N_124TestCheckArrayCloseFalseD1Ev
 12219      00000000 
 12220 0338 00000000 		.quad	_ZN12_GLOBAL__N_124TestCheckArrayCloseFalseD0Ev
 12220      00000000 
 12221 0340 00000000 		.quad	_ZNK12_GLOBAL__N_124TestCheckArrayCloseFalse7RunImplEv
 12221      00000000 
 12222              		.align 8
 12225              	_ZTVN12_GLOBAL__N_141TestCheckArrayCloseFailureIncludesDetailsE:
 12226 0348 00000000 		.quad	0
 12226      00000000 
 12227 0350 00000000 		.quad	_ZTIN12_GLOBAL__N_141TestCheckArrayCloseFailureIncludesDetailsE
 12227      00000000 
 12228 0358 00000000 		.quad	_ZN12_GLOBAL__N_141TestCheckArrayCloseFailureIncludesDetailsD1Ev
 12228      00000000 
 12229 0360 00000000 		.quad	_ZN12_GLOBAL__N_141TestCheckArrayCloseFailureIncludesDetailsD0Ev
 12229      00000000 
 12230 0368 00000000 		.quad	_ZNK12_GLOBAL__N_141TestCheckArrayCloseFailureIncludesDetails7RunImplEv
 12230      00000000 
 12231              		.align 8
 12234              	_ZTVN12_GLOBAL__N_125TestCheckArray2DCloseTrueE:
 12235 0370 00000000 		.quad	0
 12235      00000000 
 12236 0378 00000000 		.quad	_ZTIN12_GLOBAL__N_125TestCheckArray2DCloseTrueE
 12236      00000000 
 12237 0380 00000000 		.quad	_ZN12_GLOBAL__N_125TestCheckArray2DCloseTrueD1Ev
 12237      00000000 
 12238 0388 00000000 		.quad	_ZN12_GLOBAL__N_125TestCheckArray2DCloseTrueD0Ev
 12238      00000000 
 12239 0390 00000000 		.quad	_ZNK12_GLOBAL__N_125TestCheckArray2DCloseTrue7RunImplEv
 12239      00000000 
 12240              		.align 8
 12243              	_ZTVN12_GLOBAL__N_126TestCheckArray2DCloseFalseE:
 12244 0398 00000000 		.quad	0
 12244      00000000 
 12245 03a0 00000000 		.quad	_ZTIN12_GLOBAL__N_126TestCheckArray2DCloseFalseE
 12245      00000000 
 12246 03a8 00000000 		.quad	_ZN12_GLOBAL__N_126TestCheckArray2DCloseFalseD1Ev
 12246      00000000 
 12247 03b0 00000000 		.quad	_ZN12_GLOBAL__N_126TestCheckArray2DCloseFalseD0Ev
 12247      00000000 
 12248 03b8 00000000 		.quad	_ZNK12_GLOBAL__N_126TestCheckArray2DCloseFalse7RunImplEv
 12248      00000000 
 12249              		.align 8
 12252              	_ZTVN12_GLOBAL__N_133TestCheckCloseWithDoublesSucceedsE:
 12253 03c0 00000000 		.quad	0
 12253      00000000 
 12254 03c8 00000000 		.quad	_ZTIN12_GLOBAL__N_133TestCheckCloseWithDoublesSucceedsE
 12254      00000000 
 12255 03d0 00000000 		.quad	_ZN12_GLOBAL__N_133TestCheckCloseWithDoublesSucceedsD1Ev
 12255      00000000 
 12256 03d8 00000000 		.quad	_ZN12_GLOBAL__N_133TestCheckCloseWithDoublesSucceedsD0Ev
 12256      00000000 
 12257 03e0 00000000 		.quad	_ZNK12_GLOBAL__N_133TestCheckCloseWithDoublesSucceeds7RunImplEv
 12257      00000000 
 12258              		.align 8
 12261              	_ZTVN12_GLOBAL__N_143TestCheckArray2DCloseFailureIncludesDetailsE:
 12262 03e8 00000000 		.quad	0
 12262      00000000 
 12263 03f0 00000000 		.quad	_ZTIN12_GLOBAL__N_143TestCheckArray2DCloseFailureIncludesDetailsE
 12263      00000000 
 12264 03f8 00000000 		.quad	_ZN12_GLOBAL__N_143TestCheckArray2DCloseFailureIncludesDetailsD1Ev
 12264      00000000 
 12265 0400 00000000 		.quad	_ZN12_GLOBAL__N_143TestCheckArray2DCloseFailureIncludesDetailsD0Ev
 12265      00000000 
 12266 0408 00000000 		.quad	_ZNK12_GLOBAL__N_143TestCheckArray2DCloseFailureIncludesDetails7RunImplEv
 12266      00000000 
 12267              		.local	_ZN12_GLOBAL__N_144adderCheckArray2DCloseFailureIncludesDetailsE
 12268              		.comm	_ZN12_GLOBAL__N_144adderCheckArray2DCloseFailureIncludesDetailsE,1,1
 12269              		.local	_ZN12_GLOBAL__N_151testCheckArray2DCloseFailureIncludesDetailsInstanceE
 12270              		.comm	_ZN12_GLOBAL__N_151testCheckArray2DCloseFailureIncludesDetailsInstanceE,56,32
 12271              		.local	_ZN12_GLOBAL__N_134adderCheckCloseWithDoublesSucceedsE
 12272              		.comm	_ZN12_GLOBAL__N_134adderCheckCloseWithDoublesSucceedsE,1,1
 12273              		.local	_ZN12_GLOBAL__N_141testCheckCloseWithDoublesSucceedsInstanceE
 12274              		.comm	_ZN12_GLOBAL__N_141testCheckCloseWithDoublesSucceedsInstanceE,56,32
 12275              		.local	_ZN12_GLOBAL__N_127adderCheckArray2DCloseFalseE
 12276              		.comm	_ZN12_GLOBAL__N_127adderCheckArray2DCloseFalseE,1,1
 12277              		.local	_ZN12_GLOBAL__N_134testCheckArray2DCloseFalseInstanceE
 12278              		.comm	_ZN12_GLOBAL__N_134testCheckArray2DCloseFalseInstanceE,56,32
 12279              		.local	_ZN12_GLOBAL__N_126adderCheckArray2DCloseTrueE
 12280              		.comm	_ZN12_GLOBAL__N_126adderCheckArray2DCloseTrueE,1,1
 12281              		.local	_ZN12_GLOBAL__N_133testCheckArray2DCloseTrueInstanceE
 12282              		.comm	_ZN12_GLOBAL__N_133testCheckArray2DCloseTrueInstanceE,56,32
 12283              		.local	_ZN12_GLOBAL__N_142adderCheckArrayCloseFailureIncludesDetailsE
 12284              		.comm	_ZN12_GLOBAL__N_142adderCheckArrayCloseFailureIncludesDetailsE,1,1
 12285              		.local	_ZN12_GLOBAL__N_149testCheckArrayCloseFailureIncludesDetailsInstanceE
 12286              		.comm	_ZN12_GLOBAL__N_149testCheckArrayCloseFailureIncludesDetailsInstanceE,56,32
 12287              		.local	_ZN12_GLOBAL__N_125adderCheckArrayCloseFalseE
 12288              		.comm	_ZN12_GLOBAL__N_125adderCheckArrayCloseFalseE,1,1
 12289              		.local	_ZN12_GLOBAL__N_132testCheckArrayCloseFalseInstanceE
 12290              		.comm	_ZN12_GLOBAL__N_132testCheckArrayCloseFalseInstanceE,56,32
 12291              		.local	_ZN12_GLOBAL__N_124adderCheckArrayCloseTrueE
 12292              		.comm	_ZN12_GLOBAL__N_124adderCheckArrayCloseTrueE,1,1
 12293              		.local	_ZN12_GLOBAL__N_131testCheckArrayCloseTrueInstanceE
 12294              		.comm	_ZN12_GLOBAL__N_131testCheckArrayCloseTrueInstanceE,56,32
 12295              		.local	_ZN12_GLOBAL__N_125adderCheckArrayEqualFalseE
 12296              		.comm	_ZN12_GLOBAL__N_125adderCheckArrayEqualFalseE,1,1
 12297              		.local	_ZN12_GLOBAL__N_132testCheckArrayEqualFalseInstanceE
 12298              		.comm	_ZN12_GLOBAL__N_132testCheckArrayEqualFalseInstanceE,56,32
 12299              		.local	_ZN12_GLOBAL__N_124adderCheckArrayEqualTrueE
 12300              		.comm	_ZN12_GLOBAL__N_124adderCheckArrayEqualTrueE,1,1
 12301              		.local	_ZN12_GLOBAL__N_131testCheckArrayEqualTrueInstanceE
 12302              		.comm	_ZN12_GLOBAL__N_131testCheckArrayEqualTrueInstanceE,56,32
 12303              		.local	_ZN12_GLOBAL__N_137adderCheckCloseFailureIncludesDetailsE
 12304              		.comm	_ZN12_GLOBAL__N_137adderCheckCloseFailureIncludesDetailsE,1,1
 12305              		.local	_ZN12_GLOBAL__N_144testCheckCloseFailureIncludesDetailsInstanceE
 12306              		.comm	_ZN12_GLOBAL__N_144testCheckCloseFailureIncludesDetailsInstanceE,56,32
 12307              		.local	_ZN12_GLOBAL__N_139adderCheckCloseFailureIncludesToleranceE
 12308              		.comm	_ZN12_GLOBAL__N_139adderCheckCloseFailureIncludesToleranceE,1,1
 12309              		.local	_ZN12_GLOBAL__N_146testCheckCloseFailureIncludesToleranceInstanceE
 12310              		.comm	_ZN12_GLOBAL__N_146testCheckCloseFailureIncludesToleranceInstanceE,56,32
 12311              		.local	_ZN12_GLOBAL__N_152adderCheckCloseFailureIncludesCheckExpectedAndActualE
 12312              		.comm	_ZN12_GLOBAL__N_152adderCheckCloseFailureIncludesCheckExpectedAndActualE,1,1
 12313              		.local	_ZN12_GLOBAL__N_159testCheckCloseFailureIncludesCheckExpectedAndActualInstanceE
 12314              		.comm	_ZN12_GLOBAL__N_159testCheckCloseFailureIncludesCheckExpectedAndActualInstanceE,56,32
 12315              		.local	_ZN12_GLOBAL__N_140adderCheckCloseWithNaNAgainstItselfFailsE
 12316              		.comm	_ZN12_GLOBAL__N_140adderCheckCloseWithNaNAgainstItselfFailsE,1,1
 12317              		.local	_ZN12_GLOBAL__N_147testCheckCloseWithNaNAgainstItselfFailsInstanceE
 12318              		.comm	_ZN12_GLOBAL__N_147testCheckCloseWithNaNAgainstItselfFailsInstanceE,56,32
 12319              		.local	_ZN12_GLOBAL__N_127adderCheckCloseWithNaNFailsE
 12320              		.comm	_ZN12_GLOBAL__N_127adderCheckCloseWithNaNFailsE,1,1
 12321              		.local	_ZN12_GLOBAL__N_134testCheckCloseWithNaNFailsInstanceE
 12322              		.comm	_ZN12_GLOBAL__N_134testCheckCloseWithNaNFailsInstanceE,56,32
 12323              		.local	_ZN12_GLOBAL__N_148adderCheckCloseWithZeroEpsilonWorksForSameNumberE
 12324              		.comm	_ZN12_GLOBAL__N_148adderCheckCloseWithZeroEpsilonWorksForSameNumberE,1,1
 12325              		.local	_ZN12_GLOBAL__N_155testCheckCloseWithZeroEpsilonWorksForSameNumberInstanceE
 12326              		.comm	_ZN12_GLOBAL__N_155testCheckCloseWithZeroEpsilonWorksForSameNumberInstanceE,56,32
 12327              		.local	_ZN12_GLOBAL__N_120adderCheckCloseFalseE
 12328              		.comm	_ZN12_GLOBAL__N_120adderCheckCloseFalseE,1,1
 12329              		.local	_ZN12_GLOBAL__N_127testCheckCloseFalseInstanceE
 12330              		.comm	_ZN12_GLOBAL__N_127testCheckCloseFalseInstanceE,56,32
 12331              		.local	_ZN12_GLOBAL__N_119adderCheckCloseTrueE
 12332              		.comm	_ZN12_GLOBAL__N_119adderCheckCloseTrueE,1,1
 12333              		.local	_ZN12_GLOBAL__N_126testCheckCloseTrueInstanceE
 12334              		.comm	_ZN12_GLOBAL__N_126testCheckCloseTrueInstanceE,56,32
 12335              		.local	_ZN12_GLOBAL__N_137adderCheckEqualFailureIncludesDetailsE
 12336              		.comm	_ZN12_GLOBAL__N_137adderCheckEqualFailureIncludesDetailsE,1,1
 12337              		.local	_ZN12_GLOBAL__N_144testCheckEqualFailureIncludesDetailsInstanceE
 12338              		.comm	_ZN12_GLOBAL__N_144testCheckEqualFailureIncludesDetailsInstanceE,56,32
 12339              		.local	_ZN12_GLOBAL__N_152adderCheckEqualFailureIncludesCheckExpectedAndActualE
 12340              		.comm	_ZN12_GLOBAL__N_152adderCheckEqualFailureIncludesCheckExpectedAndActualE,1,1
 12341              		.local	_ZN12_GLOBAL__N_159testCheckEqualFailureIncludesCheckExpectedAndActualInstanceE
 12342              		.comm	_ZN12_GLOBAL__N_159testCheckEqualFailureIncludesCheckExpectedAndActualInstanceE,56,32
 12343              		.local	_ZN12_GLOBAL__N_154adderCheckEqualsWithStringsWorksOnContentsWithALiteralE
 12344              		.comm	_ZN12_GLOBAL__N_154adderCheckEqualsWithStringsWorksOnContentsWithALiteralE,1,1
 12345              		.local	_ZN12_GLOBAL__N_161testCheckEqualsWithStringsWorksOnContentsWithALiteralInstanceE
 12346              		.comm	_ZN12_GLOBAL__N_161testCheckEqualsWithStringsWorksOnContentsWithALiteralInstanceE,56,32
 12347              		.local	_ZN12_GLOBAL__N_155adderCheckEqualsWithStringsWorksOnContentsConstNonConstE
 12348              		.comm	_ZN12_GLOBAL__N_155adderCheckEqualsWithStringsWorksOnContentsConstNonConstE,1,1
 12349              		.local	_ZN12_GLOBAL__N_162testCheckEqualsWithStringsWorksOnContentsConstNonConstInstanceE
 12350              		.comm	_ZN12_GLOBAL__N_162testCheckEqualsWithStringsWorksOnContentsConstNonConstInstanceE,56,32
 12351              		.local	_ZN12_GLOBAL__N_155adderCheckEqualsWithStringsWorksOnContentsNonConstConstE
 12352              		.comm	_ZN12_GLOBAL__N_155adderCheckEqualsWithStringsWorksOnContentsNonConstConstE,1,1
 12353              		.local	_ZN12_GLOBAL__N_162testCheckEqualsWithStringsWorksOnContentsNonConstConstInstanceE
 12354              		.comm	_ZN12_GLOBAL__N_162testCheckEqualsWithStringsWorksOnContentsNonConstConstInstanceE,56,32
 12355              		.local	_ZN12_GLOBAL__N_152adderCheckEqualsWithStringsWorksOnContentsConstConstE
 12356              		.comm	_ZN12_GLOBAL__N_152adderCheckEqualsWithStringsWorksOnContentsConstConstE,1,1
 12357              		.local	_ZN12_GLOBAL__N_159testCheckEqualsWithStringsWorksOnContentsConstConstInstanceE
 12358              		.comm	_ZN12_GLOBAL__N_159testCheckEqualsWithStringsWorksOnContentsConstConstInstanceE,56,32
 12359              		.local	_ZN12_GLOBAL__N_158adderCheckEqualsWithStringsWorksOnContentsNonConstNonConstE
 12360              		.comm	_ZN12_GLOBAL__N_158adderCheckEqualsWithStringsWorksOnContentsNonConstNonConstE,1,1
 12361              		.local	_ZN12_GLOBAL__N_165testCheckEqualsWithStringsWorksOnContentsNonConstNonConstInstanceE
 12362              		.comm	_ZN12_GLOBAL__N_165testCheckEqualsWithStringsWorksOnContentsNonConstNonConstInstanceE,56,32
 12363              		.data
 12366              	_ZN12_GLOBAL__N_14txt2E:
 12367 0000 48656C6C 		.string	"Hello"
 12367      6F00
 12370              	_ZN12_GLOBAL__N_14txt1E:
 12371 0006 48656C6C 		.string	"Hello"
 12371      6F00
 12372              		.local	_ZN12_GLOBAL__N_150adderCheckEqualsWithStringsFailsOnDifferentStringsE
 12373              		.comm	_ZN12_GLOBAL__N_150adderCheckEqualsWithStringsFailsOnDifferentStringsE,1,1
 12374              		.local	_ZN12_GLOBAL__N_157testCheckEqualsWithStringsFailsOnDifferentStringsInstanceE
 12375              		.comm	_ZN12_GLOBAL__N_157testCheckEqualsWithStringsFailsOnDifferentStringsInstanceE,56,32
 12376              		.local	_ZN12_GLOBAL__N_131adderCheckEqualWithUnsignedLongE
 12377              		.comm	_ZN12_GLOBAL__N_131adderCheckEqualWithUnsignedLongE,1,1
 12378              		.local	_ZN12_GLOBAL__N_138testCheckEqualWithUnsignedLongInstanceE
 12379              		.comm	_ZN12_GLOBAL__N_138testCheckEqualWithUnsignedLongInstanceE,56,32
 12380              		.section	.rodata.cst8,"aM",@progbits,8
 12381              		.align 8
 12382              	.LC3:
 12383 0000 000000C0 		.long	3221225472
 12384 0004 CCCCEC3F 		.long	1072483532
 12385              		.align 8
 12386              	.LC5:
 12387 0008 00000040 		.long	1073741824
 12388 000c E17A843F 		.long	1065646817
 12389              		.align 8
 12390              	.LC7:
 12391 0010 000000A0 		.long	2684354560
 12392 0014 9999F13F 		.long	1072798105
 12393              		.section	.data.rel.ro.local
 12394              		.align 8
 12395              	.LC14:
 12396 0410 00000000 		.quad	_ZTCN8UnitTest15MemoryOutStreamE0_NSt7__cxx1119basic_ostringstreamIcSt11char_traitsIcESaIcEE
 12396      00000000 
 12397              		.section	.data.rel.ro
 12398              		.align 8
 12399              	.LC15:
 12400 0270 00000000 		.quad	_ZTVNSt7__cxx1115basic_stringbufIcSt11char_traitsIcESaIcEEE+16
 12400      00000000 
 12401              		.section	.rodata.cst16,"aM",@progbits,16
 12402              		.align 16
 12403              	.LC30:
 12404 0000 0000803F 		.long	1065353216
 12405 0004 0000C03F 		.long	1069547520
 12406 0008 00000040 		.long	1073741824
 12407 000c 00000040 		.long	1073741824
 12408              		.align 16
 12409              	.LC31:
 12410 0010 00002040 		.long	1075838976
 12411 0014 00004040 		.long	1077936128
 12412 0018 00004040 		.long	1077936128
 12413 001c 00006040 		.long	1080033280
 12414              		.align 16
 12415              	.LC33:
 12416 0020 AE47813F 		.long	1065437102
 12417 0024 AE47C13F 		.long	1069631406
 12418 0028 D7A30040 		.long	1073783767
 12419 002c D7A30040 		.long	1073783767
 12420              		.align 16
 12421              	.LC34:
 12422 0030 D7A32040 		.long	1075880919
 12423 0034 D7A34040 		.long	1077978071
 12424 0038 D7A34040 		.long	1077978071
 12425 003c D7A36040 		.long	1080075223
 12426              		.section	.rodata.cst8
 12427              		.align 8
 12428              	.LC60:
 12429 0018 000000E0 		.long	3758096384
 12430 001c 4D62503F 		.long	1062232653
 12431              		.align 8
 12432              	.LC68:
 12433 0020 000000E0 		.long	3758096384
 12434 0024 FFFFFFFF 		.long	-1
 12435              		.align 8
 12436              	.LC69:
 12437 0028 000000A0 		.long	2684354560
 12438 002c 9999B93F 		.long	1069128089
 12439              		.align 8
 12440              	.LC70:
 12441 0030 00000000 		.long	0
 12442 0034 00000840 		.long	1074266112
 12443              		.align 8
 12444              	.LC71:
 12445 0038 00000080 		.long	2147483648
 12446 003c C2F50840 		.long	1074329026
 12447              		.hidden	DW.ref.__gxx_personality_v0
 12448              		.weak	DW.ref.__gxx_personality_v0
 12449              		.section	.data.DW.ref.__gxx_personality_v0,"awG",@progbits,DW.ref.__gxx_personality_v0,comdat
 12450              		.align 8
 12453              	DW.ref.__gxx_personality_v0:
 12454 0000 00000000 		.quad	__gxx_personality_v0
 12454      00000000 
 12455              		.hidden	__dso_handle
 12456              		.ident	"GCC: (Ubuntu 7.2.0-8ubuntu3.2) 7.2.0"
 12457              		.section	.note.GNU-stack,"",@progbits
DEFINED SYMBOLS
                            *ABS*:0000000000000000 TestChecks.cpp
     /tmp/ccK8FiyD.s:7      .text._ZN17RecordingReporter13ReportSummaryEiiif:0000000000000000 _ZN17RecordingReporter13ReportSummaryEiiif
     /tmp/ccK8FiyD.s:22     .text:0000000000000000 _ZN12_GLOBAL__N_143TestCheckArray2DCloseFailureIncludesDetailsD2Ev
     /tmp/ccK8FiyD.s:12261  .data.rel.ro.local:00000000000003e8 _ZTVN12_GLOBAL__N_143TestCheckArray2DCloseFailureIncludesDetailsE
     /tmp/ccK8FiyD.s:22     .text:0000000000000000 _ZN12_GLOBAL__N_143TestCheckArray2DCloseFailureIncludesDetailsD1Ev
     /tmp/ccK8FiyD.s:35     .text:0000000000000010 _ZN12_GLOBAL__N_133TestCheckCloseWithDoublesSucceedsD2Ev
     /tmp/ccK8FiyD.s:12252  .data.rel.ro.local:00000000000003c0 _ZTVN12_GLOBAL__N_133TestCheckCloseWithDoublesSucceedsE
     /tmp/ccK8FiyD.s:35     .text:0000000000000010 _ZN12_GLOBAL__N_133TestCheckCloseWithDoublesSucceedsD1Ev
     /tmp/ccK8FiyD.s:48     .text:0000000000000020 _ZN12_GLOBAL__N_126TestCheckArray2DCloseFalseD2Ev
     /tmp/ccK8FiyD.s:12243  .data.rel.ro.local:0000000000000398 _ZTVN12_GLOBAL__N_126TestCheckArray2DCloseFalseE
     /tmp/ccK8FiyD.s:48     .text:0000000000000020 _ZN12_GLOBAL__N_126TestCheckArray2DCloseFalseD1Ev
     /tmp/ccK8FiyD.s:61     .text:0000000000000030 _ZN12_GLOBAL__N_125TestCheckArray2DCloseTrueD2Ev
     /tmp/ccK8FiyD.s:12234  .data.rel.ro.local:0000000000000370 _ZTVN12_GLOBAL__N_125TestCheckArray2DCloseTrueE
     /tmp/ccK8FiyD.s:61     .text:0000000000000030 _ZN12_GLOBAL__N_125TestCheckArray2DCloseTrueD1Ev
     /tmp/ccK8FiyD.s:74     .text:0000000000000040 _ZN12_GLOBAL__N_141TestCheckArrayCloseFailureIncludesDetailsD2Ev
     /tmp/ccK8FiyD.s:12225  .data.rel.ro.local:0000000000000348 _ZTVN12_GLOBAL__N_141TestCheckArrayCloseFailureIncludesDetailsE
     /tmp/ccK8FiyD.s:74     .text:0000000000000040 _ZN12_GLOBAL__N_141TestCheckArrayCloseFailureIncludesDetailsD1Ev
     /tmp/ccK8FiyD.s:87     .text:0000000000000050 _ZN12_GLOBAL__N_124TestCheckArrayCloseFalseD2Ev
     /tmp/ccK8FiyD.s:12216  .data.rel.ro.local:0000000000000320 _ZTVN12_GLOBAL__N_124TestCheckArrayCloseFalseE
     /tmp/ccK8FiyD.s:87     .text:0000000000000050 _ZN12_GLOBAL__N_124TestCheckArrayCloseFalseD1Ev
     /tmp/ccK8FiyD.s:100    .text:0000000000000060 _ZN12_GLOBAL__N_123TestCheckArrayCloseTrueD2Ev
     /tmp/ccK8FiyD.s:12207  .data.rel.ro.local:00000000000002f8 _ZTVN12_GLOBAL__N_123TestCheckArrayCloseTrueE
     /tmp/ccK8FiyD.s:100    .text:0000000000000060 _ZN12_GLOBAL__N_123TestCheckArrayCloseTrueD1Ev
     /tmp/ccK8FiyD.s:113    .text:0000000000000070 _ZN12_GLOBAL__N_124TestCheckArrayEqualFalseD2Ev
     /tmp/ccK8FiyD.s:12198  .data.rel.ro.local:00000000000002d0 _ZTVN12_GLOBAL__N_124TestCheckArrayEqualFalseE
     /tmp/ccK8FiyD.s:113    .text:0000000000000070 _ZN12_GLOBAL__N_124TestCheckArrayEqualFalseD1Ev
     /tmp/ccK8FiyD.s:126    .text:0000000000000080 _ZN12_GLOBAL__N_123TestCheckArrayEqualTrueD2Ev
     /tmp/ccK8FiyD.s:12189  .data.rel.ro.local:00000000000002a8 _ZTVN12_GLOBAL__N_123TestCheckArrayEqualTrueE
     /tmp/ccK8FiyD.s:126    .text:0000000000000080 _ZN12_GLOBAL__N_123TestCheckArrayEqualTrueD1Ev
     /tmp/ccK8FiyD.s:139    .text:0000000000000090 _ZN12_GLOBAL__N_136TestCheckCloseFailureIncludesDetailsD2Ev
     /tmp/ccK8FiyD.s:12180  .data.rel.ro.local:0000000000000280 _ZTVN12_GLOBAL__N_136TestCheckCloseFailureIncludesDetailsE
     /tmp/ccK8FiyD.s:139    .text:0000000000000090 _ZN12_GLOBAL__N_136TestCheckCloseFailureIncludesDetailsD1Ev
     /tmp/ccK8FiyD.s:152    .text:00000000000000a0 _ZN12_GLOBAL__N_138TestCheckCloseFailureIncludesToleranceD2Ev
     /tmp/ccK8FiyD.s:12171  .data.rel.ro.local:0000000000000258 _ZTVN12_GLOBAL__N_138TestCheckCloseFailureIncludesToleranceE
     /tmp/ccK8FiyD.s:152    .text:00000000000000a0 _ZN12_GLOBAL__N_138TestCheckCloseFailureIncludesToleranceD1Ev
     /tmp/ccK8FiyD.s:165    .text:00000000000000b0 _ZN12_GLOBAL__N_151TestCheckCloseFailureIncludesCheckExpectedAndActualD2Ev
     /tmp/ccK8FiyD.s:12162  .data.rel.ro.local:0000000000000230 _ZTVN12_GLOBAL__N_151TestCheckCloseFailureIncludesCheckExpectedAndActualE
     /tmp/ccK8FiyD.s:165    .text:00000000000000b0 _ZN12_GLOBAL__N_151TestCheckCloseFailureIncludesCheckExpectedAndActualD1Ev
     /tmp/ccK8FiyD.s:178    .text:00000000000000c0 _ZN12_GLOBAL__N_139TestCheckCloseWithNaNAgainstItselfFailsD2Ev
     /tmp/ccK8FiyD.s:12153  .data.rel.ro.local:0000000000000208 _ZTVN12_GLOBAL__N_139TestCheckCloseWithNaNAgainstItselfFailsE
     /tmp/ccK8FiyD.s:178    .text:00000000000000c0 _ZN12_GLOBAL__N_139TestCheckCloseWithNaNAgainstItselfFailsD1Ev
     /tmp/ccK8FiyD.s:191    .text:00000000000000d0 _ZN12_GLOBAL__N_126TestCheckCloseWithNaNFailsD2Ev
     /tmp/ccK8FiyD.s:12144  .data.rel.ro.local:00000000000001e0 _ZTVN12_GLOBAL__N_126TestCheckCloseWithNaNFailsE
     /tmp/ccK8FiyD.s:191    .text:00000000000000d0 _ZN12_GLOBAL__N_126TestCheckCloseWithNaNFailsD1Ev
     /tmp/ccK8FiyD.s:204    .text:00000000000000e0 _ZN12_GLOBAL__N_147TestCheckCloseWithZeroEpsilonWorksForSameNumberD2Ev
     /tmp/ccK8FiyD.s:12135  .data.rel.ro.local:00000000000001b8 _ZTVN12_GLOBAL__N_147TestCheckCloseWithZeroEpsilonWorksForSameNumberE
     /tmp/ccK8FiyD.s:204    .text:00000000000000e0 _ZN12_GLOBAL__N_147TestCheckCloseWithZeroEpsilonWorksForSameNumberD1Ev
     /tmp/ccK8FiyD.s:217    .text:00000000000000f0 _ZN12_GLOBAL__N_119TestCheckCloseFalseD2Ev
     /tmp/ccK8FiyD.s:12126  .data.rel.ro.local:0000000000000190 _ZTVN12_GLOBAL__N_119TestCheckCloseFalseE
     /tmp/ccK8FiyD.s:217    .text:00000000000000f0 _ZN12_GLOBAL__N_119TestCheckCloseFalseD1Ev
     /tmp/ccK8FiyD.s:230    .text:0000000000000100 _ZN12_GLOBAL__N_118TestCheckCloseTrueD2Ev
     /tmp/ccK8FiyD.s:12117  .data.rel.ro.local:0000000000000168 _ZTVN12_GLOBAL__N_118TestCheckCloseTrueE
     /tmp/ccK8FiyD.s:230    .text:0000000000000100 _ZN12_GLOBAL__N_118TestCheckCloseTrueD1Ev
     /tmp/ccK8FiyD.s:243    .text:0000000000000110 _ZN12_GLOBAL__N_136TestCheckEqualFailureIncludesDetailsD2Ev
     /tmp/ccK8FiyD.s:12108  .data.rel.ro.local:0000000000000140 _ZTVN12_GLOBAL__N_136TestCheckEqualFailureIncludesDetailsE
     /tmp/ccK8FiyD.s:243    .text:0000000000000110 _ZN12_GLOBAL__N_136TestCheckEqualFailureIncludesDetailsD1Ev
     /tmp/ccK8FiyD.s:256    .text:0000000000000120 _ZN12_GLOBAL__N_151TestCheckEqualFailureIncludesCheckExpectedAndActualD2Ev
     /tmp/ccK8FiyD.s:12099  .data.rel.ro.local:0000000000000118 _ZTVN12_GLOBAL__N_151TestCheckEqualFailureIncludesCheckExpectedAndActualE
     /tmp/ccK8FiyD.s:256    .text:0000000000000120 _ZN12_GLOBAL__N_151TestCheckEqualFailureIncludesCheckExpectedAndActualD1Ev
     /tmp/ccK8FiyD.s:269    .text:0000000000000130 _ZN12_GLOBAL__N_153TestCheckEqualsWithStringsWorksOnContentsWithALiteralD2Ev
     /tmp/ccK8FiyD.s:12090  .data.rel.ro.local:00000000000000f0 _ZTVN12_GLOBAL__N_153TestCheckEqualsWithStringsWorksOnContentsWithALiteralE
     /tmp/ccK8FiyD.s:269    .text:0000000000000130 _ZN12_GLOBAL__N_153TestCheckEqualsWithStringsWorksOnContentsWithALiteralD1Ev
     /tmp/ccK8FiyD.s:282    .text:0000000000000140 _ZN12_GLOBAL__N_154TestCheckEqualsWithStringsWorksOnContentsConstNonConstD2Ev
     /tmp/ccK8FiyD.s:12081  .data.rel.ro.local:00000000000000c8 _ZTVN12_GLOBAL__N_154TestCheckEqualsWithStringsWorksOnContentsConstNonConstE
     /tmp/ccK8FiyD.s:282    .text:0000000000000140 _ZN12_GLOBAL__N_154TestCheckEqualsWithStringsWorksOnContentsConstNonConstD1Ev
     /tmp/ccK8FiyD.s:295    .text:0000000000000150 _ZN12_GLOBAL__N_154TestCheckEqualsWithStringsWorksOnContentsNonConstConstD2Ev
     /tmp/ccK8FiyD.s:12072  .data.rel.ro.local:00000000000000a0 _ZTVN12_GLOBAL__N_154TestCheckEqualsWithStringsWorksOnContentsNonConstConstE
     /tmp/ccK8FiyD.s:295    .text:0000000000000150 _ZN12_GLOBAL__N_154TestCheckEqualsWithStringsWorksOnContentsNonConstConstD1Ev
     /tmp/ccK8FiyD.s:308    .text:0000000000000160 _ZN12_GLOBAL__N_151TestCheckEqualsWithStringsWorksOnContentsConstConstD2Ev
     /tmp/ccK8FiyD.s:12063  .data.rel.ro.local:0000000000000078 _ZTVN12_GLOBAL__N_151TestCheckEqualsWithStringsWorksOnContentsConstConstE
     /tmp/ccK8FiyD.s:308    .text:0000000000000160 _ZN12_GLOBAL__N_151TestCheckEqualsWithStringsWorksOnContentsConstConstD1Ev
     /tmp/ccK8FiyD.s:321    .text:0000000000000170 _ZN12_GLOBAL__N_157TestCheckEqualsWithStringsWorksOnContentsNonConstNonConstD2Ev
     /tmp/ccK8FiyD.s:12054  .data.rel.ro.local:0000000000000050 _ZTVN12_GLOBAL__N_157TestCheckEqualsWithStringsWorksOnContentsNonConstNonConstE
     /tmp/ccK8FiyD.s:321    .text:0000000000000170 _ZN12_GLOBAL__N_157TestCheckEqualsWithStringsWorksOnContentsNonConstNonConstD1Ev
     /tmp/ccK8FiyD.s:334    .text:0000000000000180 _ZN12_GLOBAL__N_149TestCheckEqualsWithStringsFailsOnDifferentStringsD2Ev
     /tmp/ccK8FiyD.s:12045  .data.rel.ro.local:0000000000000028 _ZTVN12_GLOBAL__N_149TestCheckEqualsWithStringsFailsOnDifferentStringsE
     /tmp/ccK8FiyD.s:334    .text:0000000000000180 _ZN12_GLOBAL__N_149TestCheckEqualsWithStringsFailsOnDifferentStringsD1Ev
     /tmp/ccK8FiyD.s:347    .text:0000000000000190 _ZN12_GLOBAL__N_130TestCheckEqualWithUnsignedLongD2Ev
     /tmp/ccK8FiyD.s:12036  .data.rel.ro.local:0000000000000000 _ZTVN12_GLOBAL__N_130TestCheckEqualWithUnsignedLongE
     /tmp/ccK8FiyD.s:347    .text:0000000000000190 _ZN12_GLOBAL__N_130TestCheckEqualWithUnsignedLongD1Ev
     /tmp/ccK8FiyD.s:362    .text._ZN17RecordingReporter15ReportTestStartERKN8UnitTest11TestDetailsE:0000000000000000 _ZN17RecordingReporter15ReportTestStartERKN8UnitTest11TestDetailsE
     /tmp/ccK8FiyD.s:398    .text._ZN17RecordingReporter13ReportFailureERKN8UnitTest11TestDetailsEPKc:0000000000000000 _ZN17RecordingReporter13ReportFailureERKN8UnitTest11TestDetailsEPKc
     /tmp/ccK8FiyD.s:446    .text._ZN17RecordingReporter16ReportTestFinishERKN8UnitTest11TestDetailsEf:0000000000000000 _ZN17RecordingReporter16ReportTestFinishERKN8UnitTest11TestDetailsEf
     /tmp/ccK8FiyD.s:485    .text:00000000000001a0 _ZN12_GLOBAL__N_143TestCheckArray2DCloseFailureIncludesDetailsD0Ev
     /tmp/ccK8FiyD.s:12453  .data.DW.ref.__gxx_personality_v0:0000000000000000 DW.ref.__gxx_personality_v0
     /tmp/ccK8FiyD.s:546    .text:00000000000001e0 _ZN12_GLOBAL__N_133TestCheckCloseWithDoublesSucceedsD0Ev
     /tmp/ccK8FiyD.s:606    .text:0000000000000220 _ZN12_GLOBAL__N_126TestCheckArray2DCloseFalseD0Ev
     /tmp/ccK8FiyD.s:666    .text:0000000000000260 _ZN12_GLOBAL__N_125TestCheckArray2DCloseTrueD0Ev
     /tmp/ccK8FiyD.s:726    .text:00000000000002a0 _ZN12_GLOBAL__N_141TestCheckArrayCloseFailureIncludesDetailsD0Ev
     /tmp/ccK8FiyD.s:786    .text:00000000000002e0 _ZN12_GLOBAL__N_124TestCheckArrayCloseFalseD0Ev
     /tmp/ccK8FiyD.s:846    .text:0000000000000320 _ZN12_GLOBAL__N_123TestCheckArrayCloseTrueD0Ev
     /tmp/ccK8FiyD.s:906    .text:0000000000000360 _ZN12_GLOBAL__N_124TestCheckArrayEqualFalseD0Ev
     /tmp/ccK8FiyD.s:966    .text:00000000000003a0 _ZN12_GLOBAL__N_123TestCheckArrayEqualTrueD0Ev
     /tmp/ccK8FiyD.s:1026   .text:00000000000003e0 _ZN12_GLOBAL__N_136TestCheckCloseFailureIncludesDetailsD0Ev
     /tmp/ccK8FiyD.s:1086   .text:0000000000000420 _ZN12_GLOBAL__N_138TestCheckCloseFailureIncludesToleranceD0Ev
     /tmp/ccK8FiyD.s:1146   .text:0000000000000460 _ZN12_GLOBAL__N_151TestCheckCloseFailureIncludesCheckExpectedAndActualD0Ev
     /tmp/ccK8FiyD.s:1206   .text:00000000000004a0 _ZN12_GLOBAL__N_139TestCheckCloseWithNaNAgainstItselfFailsD0Ev
     /tmp/ccK8FiyD.s:1266   .text:00000000000004e0 _ZN12_GLOBAL__N_126TestCheckCloseWithNaNFailsD0Ev
     /tmp/ccK8FiyD.s:1326   .text:0000000000000520 _ZN12_GLOBAL__N_147TestCheckCloseWithZeroEpsilonWorksForSameNumberD0Ev
     /tmp/ccK8FiyD.s:1386   .text:0000000000000560 _ZN12_GLOBAL__N_119TestCheckCloseFalseD0Ev
     /tmp/ccK8FiyD.s:1446   .text:00000000000005a0 _ZN12_GLOBAL__N_118TestCheckCloseTrueD0Ev
     /tmp/ccK8FiyD.s:1506   .text:00000000000005e0 _ZN12_GLOBAL__N_136TestCheckEqualFailureIncludesDetailsD0Ev
     /tmp/ccK8FiyD.s:1566   .text:0000000000000620 _ZN12_GLOBAL__N_151TestCheckEqualFailureIncludesCheckExpectedAndActualD0Ev
     /tmp/ccK8FiyD.s:1626   .text:0000000000000660 _ZN12_GLOBAL__N_153TestCheckEqualsWithStringsWorksOnContentsWithALiteralD0Ev
     /tmp/ccK8FiyD.s:1686   .text:00000000000006a0 _ZN12_GLOBAL__N_154TestCheckEqualsWithStringsWorksOnContentsConstNonConstD0Ev
     /tmp/ccK8FiyD.s:1746   .text:00000000000006e0 _ZN12_GLOBAL__N_154TestCheckEqualsWithStringsWorksOnContentsNonConstConstD0Ev
     /tmp/ccK8FiyD.s:1806   .text:0000000000000720 _ZN12_GLOBAL__N_151TestCheckEqualsWithStringsWorksOnContentsConstConstD0Ev
     /tmp/ccK8FiyD.s:1866   .text:0000000000000760 _ZN12_GLOBAL__N_157TestCheckEqualsWithStringsWorksOnContentsNonConstNonConstD0Ev
     /tmp/ccK8FiyD.s:1926   .text:00000000000007a0 _ZN12_GLOBAL__N_149TestCheckEqualsWithStringsFailsOnDifferentStringsD0Ev
     /tmp/ccK8FiyD.s:1986   .text:00000000000007e0 _ZN12_GLOBAL__N_130TestCheckEqualWithUnsignedLongD0Ev
     /tmp/ccK8FiyD.s:2048   .text._ZN17RecordingReporterD2Ev:0000000000000000 _ZN17RecordingReporterD2Ev
     /tmp/ccK8FiyD.s:12023  .data.rel.ro.local._ZTV17RecordingReporter:0000000000000000 _ZTV17RecordingReporter
     /tmp/ccK8FiyD.s:2048   .text._ZN17RecordingReporterD2Ev:0000000000000000 _ZN17RecordingReporterD1Ev
     /tmp/ccK8FiyD.s:2064   .text._ZN17RecordingReporterD0Ev:0000000000000000 _ZN17RecordingReporterD0Ev
     /tmp/ccK8FiyD.s:2126   .text._ZN8UnitTest15MemoryOutStreamD1Ev:0000000000000000 _ZN8UnitTest15MemoryOutStreamD1Ev
     /tmp/ccK8FiyD.s:12007  .data.rel.ro.local._ZTVN8UnitTest15MemoryOutStreamE:0000000000000000 _ZTVN8UnitTest15MemoryOutStreamE
     /tmp/ccK8FiyD.s:11979  .data.rel.ro._ZTCN8UnitTest15MemoryOutStreamE0_NSt7__cxx1119basic_ostringstreamIcSt11char_traitsIcESaIcEEE:0000000000000000 _ZTCN8UnitTest15MemoryOutStreamE0_NSt7__cxx1119basic_ostringstreamIcSt11char_traitsIcESaIcEEE
     /tmp/ccK8FiyD.s:11962  .data.rel.ro._ZTCN8UnitTest15MemoryOutStreamE0_So:0000000000000000 _ZTCN8UnitTest15MemoryOutStreamE0_So
     /tmp/ccK8FiyD.s:2184   .text._ZN8UnitTest15MemoryOutStreamD0Ev:0000000000000000 _ZTv0_n24_N8UnitTest15MemoryOutStreamD0Ev
     /tmp/ccK8FiyD.s:2277   .text._ZN8UnitTest15MemoryOutStreamD1Ev:00000000000000b0 _ZTv0_n24_N8UnitTest15MemoryOutStreamD1Ev
     /tmp/ccK8FiyD.s:2338   .text._ZN8UnitTest15MemoryOutStreamD0Ev:00000000000000d0 _ZN8UnitTest15MemoryOutStreamD0Ev
     /tmp/ccK8FiyD.s:2430   .text._ZNSt7__cxx1115basic_stringbufIcSt11char_traitsIcESaIcEED2Ev:0000000000000000 _ZNSt7__cxx1115basic_stringbufIcSt11char_traitsIcESaIcEED2Ev
     /tmp/ccK8FiyD.s:2430   .text._ZNSt7__cxx1115basic_stringbufIcSt11char_traitsIcESaIcEED2Ev:0000000000000000 _ZNSt7__cxx1115basic_stringbufIcSt11char_traitsIcESaIcEED1Ev
     /tmp/ccK8FiyD.s:2464   .text:0000000000000820 _ZNK12_GLOBAL__N_133TestCheckCloseWithDoublesSucceeds7RunImplEv
     /tmp/ccK8FiyD.s:2600   .text:00000000000008c0 _ZNK12_GLOBAL__N_151TestCheckCloseFailureIncludesCheckExpectedAndActual7RunImplEv
     /tmp/ccK8FiyD.s:3011   .text:0000000000000e20 _ZNK12_GLOBAL__N_130TestCheckEqualWithUnsignedLong7RunImplEv
     /tmp/ccK8FiyD.s:3138   .text:0000000000000ed0 _ZNK12_GLOBAL__N_138TestCheckCloseFailureIncludesTolerance7RunImplEv
     /tmp/ccK8FiyD.s:3498   .text:0000000000001380 _ZN8UnitTest17CheckArray2DCloseIA3_A3_fS2_fEEvRNS_11TestResultsERKT_RKT0_iiRKT1_RKNS_11TestDetailsE.constprop.17
     /tmp/ccK8FiyD.s:3929   .text:0000000000001950 _ZNK12_GLOBAL__N_154TestCheckEqualsWithStringsWorksOnContentsConstNonConst7RunImplEv
     /tmp/ccK8FiyD.s:12366  .data:0000000000000000 _ZN12_GLOBAL__N_14txt2E
     /tmp/ccK8FiyD.s:12370  .data:0000000000000006 _ZN12_GLOBAL__N_14txt1E
     /tmp/ccK8FiyD.s:4230   .text:0000000000001cf0 _ZNK12_GLOBAL__N_157TestCheckEqualsWithStringsWorksOnContentsNonConstNonConst7RunImplEv
     /tmp/ccK8FiyD.s:4531   .text:0000000000002090 _ZNK12_GLOBAL__N_154TestCheckEqualsWithStringsWorksOnContentsNonConstConst7RunImplEv
     /tmp/ccK8FiyD.s:4832   .text:0000000000002430 _ZNK12_GLOBAL__N_151TestCheckEqualsWithStringsWorksOnContentsConstConst7RunImplEv
     /tmp/ccK8FiyD.s:5137   .text:00000000000027d0 _ZNK12_GLOBAL__N_153TestCheckEqualsWithStringsWorksOnContentsWithALiteral7RunImplEv
     /tmp/ccK8FiyD.s:5443   .text:0000000000002b70 _ZNK12_GLOBAL__N_149TestCheckEqualsWithStringsFailsOnDifferentStrings7RunImplEv
     /tmp/ccK8FiyD.s:5750   .text:0000000000002f40 _ZNK12_GLOBAL__N_126TestCheckArray2DCloseFalse7RunImplEv
     /tmp/ccK8FiyD.s:6063   .text:0000000000003360 _ZNK12_GLOBAL__N_125TestCheckArray2DCloseTrue7RunImplEv
     /tmp/ccK8FiyD.s:6397   .text:0000000000003780 _ZNK12_GLOBAL__N_151TestCheckEqualFailureIncludesCheckExpectedAndActual7RunImplEv
     /tmp/ccK8FiyD.s:6797   .text._ZNSt7__cxx1115basic_stringbufIcSt11char_traitsIcESaIcEED0Ev:0000000000000000 _ZNSt7__cxx1115basic_stringbufIcSt11char_traitsIcESaIcEED0Ev
     /tmp/ccK8FiyD.s:6827   .text._ZN8UnitTest10CheckEqualIiiEEvRNS_11TestResultsERKT_RKT0_RKNS_11TestDetailsE:0000000000000000 _ZN8UnitTest10CheckEqualIiiEEvRNS_11TestResultsERKT_RKT0_RKNS_11TestDetailsE
     /tmp/ccK8FiyD.s:7077   .text:0000000000003cb0 _ZNK12_GLOBAL__N_143TestCheckArray2DCloseFailureIncludesDetails7RunImplEv
     /tmp/ccK8FiyD.s:7444   .text:0000000000004080 _ZNK12_GLOBAL__N_136TestCheckEqualFailureIncludesDetails7RunImplEv
     /tmp/ccK8FiyD.s:7802   .text:00000000000043f0 _ZNK12_GLOBAL__N_141TestCheckArrayCloseFailureIncludesDetails7RunImplEv
     /tmp/ccK8FiyD.s:8323   .text:0000000000004af0 _ZNK12_GLOBAL__N_124TestCheckArrayCloseFalse7RunImplEv
     /tmp/ccK8FiyD.s:8671   .text:0000000000004f50 _ZNK12_GLOBAL__N_123TestCheckArrayCloseTrue7RunImplEv
     /tmp/ccK8FiyD.s:8813   .text:0000000000005070 _ZNK12_GLOBAL__N_124TestCheckArrayEqualFalse7RunImplEv
     /tmp/ccK8FiyD.s:9151   .text:00000000000054a0 _ZNK12_GLOBAL__N_123TestCheckArrayEqualTrue7RunImplEv
     /tmp/ccK8FiyD.s:9294   .text:0000000000005590 _ZNK12_GLOBAL__N_136TestCheckCloseFailureIncludesDetails7RunImplEv
     /tmp/ccK8FiyD.s:9785   .text:0000000000005bf0 _ZNK12_GLOBAL__N_139TestCheckCloseWithNaNAgainstItselfFails7RunImplEv
     /tmp/ccK8FiyD.s:10101  .text:0000000000005fc0 _ZNK12_GLOBAL__N_126TestCheckCloseWithNaNFails7RunImplEv
     /tmp/ccK8FiyD.s:10417  .text:0000000000006390 _ZNK12_GLOBAL__N_119TestCheckCloseFalse7RunImplEv
     /tmp/ccK8FiyD.s:10733  .text:0000000000006760 _ZNK12_GLOBAL__N_118TestCheckCloseTrue7RunImplEv
     /tmp/ccK8FiyD.s:10865  .text:0000000000006850 _ZNK12_GLOBAL__N_147TestCheckCloseWithZeroEpsilonWorksForSameNumber7RunImplEv
     /tmp/ccK8FiyD.s:11078  .text.startup:0000000000000000 _GLOBAL__sub_I_TestChecks.cpp
     /tmp/ccK8FiyD.s:12379  .bss:0000000000000660 _ZN12_GLOBAL__N_138testCheckEqualWithUnsignedLongInstanceE
     /tmp/ccK8FiyD.s:12375  .bss:0000000000000658 _ZN12_GLOBAL__N_131adderCheckEqualWithUnsignedLongE
     /tmp/ccK8FiyD.s:12375  .bss:0000000000000620 _ZN12_GLOBAL__N_157testCheckEqualsWithStringsFailsOnDifferentStringsInstanceE
     /tmp/ccK8FiyD.s:12362  .bss:0000000000000618 _ZN12_GLOBAL__N_150adderCheckEqualsWithStringsFailsOnDifferentStringsE
     /tmp/ccK8FiyD.s:12362  .bss:00000000000005e0 _ZN12_GLOBAL__N_165testCheckEqualsWithStringsWorksOnContentsNonConstNonConstInstanceE
     /tmp/ccK8FiyD.s:12358  .bss:00000000000005d8 _ZN12_GLOBAL__N_158adderCheckEqualsWithStringsWorksOnContentsNonConstNonConstE
     /tmp/ccK8FiyD.s:12358  .bss:00000000000005a0 _ZN12_GLOBAL__N_159testCheckEqualsWithStringsWorksOnContentsConstConstInstanceE
     /tmp/ccK8FiyD.s:12354  .bss:0000000000000598 _ZN12_GLOBAL__N_152adderCheckEqualsWithStringsWorksOnContentsConstConstE
     /tmp/ccK8FiyD.s:12354  .bss:0000000000000560 _ZN12_GLOBAL__N_162testCheckEqualsWithStringsWorksOnContentsNonConstConstInstanceE
     /tmp/ccK8FiyD.s:12350  .bss:0000000000000558 _ZN12_GLOBAL__N_155adderCheckEqualsWithStringsWorksOnContentsNonConstConstE
     /tmp/ccK8FiyD.s:12350  .bss:0000000000000520 _ZN12_GLOBAL__N_162testCheckEqualsWithStringsWorksOnContentsConstNonConstInstanceE
     /tmp/ccK8FiyD.s:12346  .bss:0000000000000518 _ZN12_GLOBAL__N_155adderCheckEqualsWithStringsWorksOnContentsConstNonConstE
     /tmp/ccK8FiyD.s:12346  .bss:00000000000004e0 _ZN12_GLOBAL__N_161testCheckEqualsWithStringsWorksOnContentsWithALiteralInstanceE
     /tmp/ccK8FiyD.s:12342  .bss:00000000000004d8 _ZN12_GLOBAL__N_154adderCheckEqualsWithStringsWorksOnContentsWithALiteralE
     /tmp/ccK8FiyD.s:12342  .bss:00000000000004a0 _ZN12_GLOBAL__N_159testCheckEqualFailureIncludesCheckExpectedAndActualInstanceE
     /tmp/ccK8FiyD.s:12338  .bss:0000000000000498 _ZN12_GLOBAL__N_152adderCheckEqualFailureIncludesCheckExpectedAndActualE
     /tmp/ccK8FiyD.s:12338  .bss:0000000000000460 _ZN12_GLOBAL__N_144testCheckEqualFailureIncludesDetailsInstanceE
     /tmp/ccK8FiyD.s:12334  .bss:0000000000000458 _ZN12_GLOBAL__N_137adderCheckEqualFailureIncludesDetailsE
     /tmp/ccK8FiyD.s:12334  .bss:0000000000000420 _ZN12_GLOBAL__N_126testCheckCloseTrueInstanceE
     /tmp/ccK8FiyD.s:12330  .bss:0000000000000418 _ZN12_GLOBAL__N_119adderCheckCloseTrueE
     /tmp/ccK8FiyD.s:12330  .bss:00000000000003e0 _ZN12_GLOBAL__N_127testCheckCloseFalseInstanceE
     /tmp/ccK8FiyD.s:12326  .bss:00000000000003d8 _ZN12_GLOBAL__N_120adderCheckCloseFalseE
     /tmp/ccK8FiyD.s:12326  .bss:00000000000003a0 _ZN12_GLOBAL__N_155testCheckCloseWithZeroEpsilonWorksForSameNumberInstanceE
     /tmp/ccK8FiyD.s:12322  .bss:0000000000000398 _ZN12_GLOBAL__N_148adderCheckCloseWithZeroEpsilonWorksForSameNumberE
     /tmp/ccK8FiyD.s:12322  .bss:0000000000000360 _ZN12_GLOBAL__N_134testCheckCloseWithNaNFailsInstanceE
     /tmp/ccK8FiyD.s:12318  .bss:0000000000000358 _ZN12_GLOBAL__N_127adderCheckCloseWithNaNFailsE
     /tmp/ccK8FiyD.s:12318  .bss:0000000000000320 _ZN12_GLOBAL__N_147testCheckCloseWithNaNAgainstItselfFailsInstanceE
     /tmp/ccK8FiyD.s:12314  .bss:0000000000000318 _ZN12_GLOBAL__N_140adderCheckCloseWithNaNAgainstItselfFailsE
     /tmp/ccK8FiyD.s:12314  .bss:00000000000002e0 _ZN12_GLOBAL__N_159testCheckCloseFailureIncludesCheckExpectedAndActualInstanceE
     /tmp/ccK8FiyD.s:12310  .bss:00000000000002d8 _ZN12_GLOBAL__N_152adderCheckCloseFailureIncludesCheckExpectedAndActualE
     /tmp/ccK8FiyD.s:12310  .bss:00000000000002a0 _ZN12_GLOBAL__N_146testCheckCloseFailureIncludesToleranceInstanceE
     /tmp/ccK8FiyD.s:12306  .bss:0000000000000298 _ZN12_GLOBAL__N_139adderCheckCloseFailureIncludesToleranceE
     /tmp/ccK8FiyD.s:12306  .bss:0000000000000260 _ZN12_GLOBAL__N_144testCheckCloseFailureIncludesDetailsInstanceE
     /tmp/ccK8FiyD.s:12302  .bss:0000000000000258 _ZN12_GLOBAL__N_137adderCheckCloseFailureIncludesDetailsE
     /tmp/ccK8FiyD.s:12302  .bss:0000000000000220 _ZN12_GLOBAL__N_131testCheckArrayEqualTrueInstanceE
     /tmp/ccK8FiyD.s:12298  .bss:0000000000000218 _ZN12_GLOBAL__N_124adderCheckArrayEqualTrueE
     /tmp/ccK8FiyD.s:12298  .bss:00000000000001e0 _ZN12_GLOBAL__N_132testCheckArrayEqualFalseInstanceE
     /tmp/ccK8FiyD.s:12294  .bss:00000000000001d8 _ZN12_GLOBAL__N_125adderCheckArrayEqualFalseE
     /tmp/ccK8FiyD.s:12294  .bss:00000000000001a0 _ZN12_GLOBAL__N_131testCheckArrayCloseTrueInstanceE
     /tmp/ccK8FiyD.s:12290  .bss:0000000000000198 _ZN12_GLOBAL__N_124adderCheckArrayCloseTrueE
     /tmp/ccK8FiyD.s:12290  .bss:0000000000000160 _ZN12_GLOBAL__N_132testCheckArrayCloseFalseInstanceE
     /tmp/ccK8FiyD.s:12286  .bss:0000000000000158 _ZN12_GLOBAL__N_125adderCheckArrayCloseFalseE
     /tmp/ccK8FiyD.s:12286  .bss:0000000000000120 _ZN12_GLOBAL__N_149testCheckArrayCloseFailureIncludesDetailsInstanceE
     /tmp/ccK8FiyD.s:12282  .bss:0000000000000118 _ZN12_GLOBAL__N_142adderCheckArrayCloseFailureIncludesDetailsE
     /tmp/ccK8FiyD.s:12282  .bss:00000000000000e0 _ZN12_GLOBAL__N_133testCheckArray2DCloseTrueInstanceE
     /tmp/ccK8FiyD.s:12278  .bss:00000000000000d8 _ZN12_GLOBAL__N_126adderCheckArray2DCloseTrueE
     /tmp/ccK8FiyD.s:12278  .bss:00000000000000a0 _ZN12_GLOBAL__N_134testCheckArray2DCloseFalseInstanceE
     /tmp/ccK8FiyD.s:12274  .bss:0000000000000098 _ZN12_GLOBAL__N_127adderCheckArray2DCloseFalseE
     /tmp/ccK8FiyD.s:12274  .bss:0000000000000060 _ZN12_GLOBAL__N_141testCheckCloseWithDoublesSucceedsInstanceE
     /tmp/ccK8FiyD.s:12270  .bss:0000000000000058 _ZN12_GLOBAL__N_134adderCheckCloseWithDoublesSucceedsE
     /tmp/ccK8FiyD.s:12270  .bss:0000000000000020 _ZN12_GLOBAL__N_151testCheckArray2DCloseFailureIncludesDetailsInstanceE
                             .bss:0000000000000000 _ZN12_GLOBAL__N_144adderCheckArray2DCloseFailureIncludesDetailsE
     /tmp/ccK8FiyD.s:11565  .rodata._ZTSN8UnitTest15MemoryOutStreamE:0000000000000000 _ZTSN8UnitTest15MemoryOutStreamE
     /tmp/ccK8FiyD.s:11572  .data.rel.ro._ZTIN8UnitTest15MemoryOutStreamE:0000000000000000 _ZTIN8UnitTest15MemoryOutStreamE
     /tmp/ccK8FiyD.s:11581  .rodata._ZTS17RecordingReporter:0000000000000000 _ZTS17RecordingReporter
     /tmp/ccK8FiyD.s:11588  .data.rel.ro._ZTI17RecordingReporter:0000000000000000 _ZTI17RecordingReporter
     /tmp/ccK8FiyD.s:11596  .data.rel.ro:0000000000000000 _ZTIN12_GLOBAL__N_130TestCheckEqualWithUnsignedLongE
     /tmp/ccK8FiyD.s:11604  .rodata:0000000000000000 _ZTSN12_GLOBAL__N_130TestCheckEqualWithUnsignedLongE
     /tmp/ccK8FiyD.s:11610  .data.rel.ro:0000000000000018 _ZTIN12_GLOBAL__N_149TestCheckEqualsWithStringsFailsOnDifferentStringsE
     /tmp/ccK8FiyD.s:11618  .rodata:0000000000000040 _ZTSN12_GLOBAL__N_149TestCheckEqualsWithStringsFailsOnDifferentStringsE
     /tmp/ccK8FiyD.s:11624  .data.rel.ro:0000000000000030 _ZTIN12_GLOBAL__N_157TestCheckEqualsWithStringsWorksOnContentsNonConstNonConstE
     /tmp/ccK8FiyD.s:11632  .rodata:00000000000000a0 _ZTSN12_GLOBAL__N_157TestCheckEqualsWithStringsWorksOnContentsNonConstNonConstE
     /tmp/ccK8FiyD.s:11638  .data.rel.ro:0000000000000048 _ZTIN12_GLOBAL__N_151TestCheckEqualsWithStringsWorksOnContentsConstConstE
     /tmp/ccK8FiyD.s:11646  .rodata:0000000000000100 _ZTSN12_GLOBAL__N_151TestCheckEqualsWithStringsWorksOnContentsConstConstE
     /tmp/ccK8FiyD.s:11652  .data.rel.ro:0000000000000060 _ZTIN12_GLOBAL__N_154TestCheckEqualsWithStringsWorksOnContentsNonConstConstE
     /tmp/ccK8FiyD.s:11660  .rodata:0000000000000160 _ZTSN12_GLOBAL__N_154TestCheckEqualsWithStringsWorksOnContentsNonConstConstE
     /tmp/ccK8FiyD.s:11666  .data.rel.ro:0000000000000078 _ZTIN12_GLOBAL__N_154TestCheckEqualsWithStringsWorksOnContentsConstNonConstE
     /tmp/ccK8FiyD.s:11674  .rodata:00000000000001c0 _ZTSN12_GLOBAL__N_154TestCheckEqualsWithStringsWorksOnContentsConstNonConstE
     /tmp/ccK8FiyD.s:11680  .data.rel.ro:0000000000000090 _ZTIN12_GLOBAL__N_153TestCheckEqualsWithStringsWorksOnContentsWithALiteralE
     /tmp/ccK8FiyD.s:11688  .rodata:0000000000000220 _ZTSN12_GLOBAL__N_153TestCheckEqualsWithStringsWorksOnContentsWithALiteralE
     /tmp/ccK8FiyD.s:11694  .data.rel.ro:00000000000000a8 _ZTIN12_GLOBAL__N_151TestCheckEqualFailureIncludesCheckExpectedAndActualE
     /tmp/ccK8FiyD.s:11702  .rodata:0000000000000280 _ZTSN12_GLOBAL__N_151TestCheckEqualFailureIncludesCheckExpectedAndActualE
     /tmp/ccK8FiyD.s:11708  .data.rel.ro:00000000000000c0 _ZTIN12_GLOBAL__N_136TestCheckEqualFailureIncludesDetailsE
     /tmp/ccK8FiyD.s:11716  .rodata:00000000000002e0 _ZTSN12_GLOBAL__N_136TestCheckEqualFailureIncludesDetailsE
     /tmp/ccK8FiyD.s:11722  .data.rel.ro:00000000000000d8 _ZTIN12_GLOBAL__N_118TestCheckCloseTrueE
     /tmp/ccK8FiyD.s:11730  .rodata:0000000000000320 _ZTSN12_GLOBAL__N_118TestCheckCloseTrueE
     /tmp/ccK8FiyD.s:11736  .data.rel.ro:00000000000000f0 _ZTIN12_GLOBAL__N_119TestCheckCloseFalseE
     /tmp/ccK8FiyD.s:11744  .rodata:0000000000000360 _ZTSN12_GLOBAL__N_119TestCheckCloseFalseE
     /tmp/ccK8FiyD.s:11750  .data.rel.ro:0000000000000108 _ZTIN12_GLOBAL__N_147TestCheckCloseWithZeroEpsilonWorksForSameNumberE
     /tmp/ccK8FiyD.s:11758  .rodata:00000000000003a0 _ZTSN12_GLOBAL__N_147TestCheckCloseWithZeroEpsilonWorksForSameNumberE
     /tmp/ccK8FiyD.s:11764  .data.rel.ro:0000000000000120 _ZTIN12_GLOBAL__N_126TestCheckCloseWithNaNFailsE
     /tmp/ccK8FiyD.s:11772  .rodata:0000000000000400 _ZTSN12_GLOBAL__N_126TestCheckCloseWithNaNFailsE
     /tmp/ccK8FiyD.s:11778  .data.rel.ro:0000000000000138 _ZTIN12_GLOBAL__N_139TestCheckCloseWithNaNAgainstItselfFailsE
     /tmp/ccK8FiyD.s:11786  .rodata:0000000000000440 _ZTSN12_GLOBAL__N_139TestCheckCloseWithNaNAgainstItselfFailsE
     /tmp/ccK8FiyD.s:11792  .data.rel.ro:0000000000000150 _ZTIN12_GLOBAL__N_151TestCheckCloseFailureIncludesCheckExpectedAndActualE
     /tmp/ccK8FiyD.s:11800  .rodata:0000000000000480 _ZTSN12_GLOBAL__N_151TestCheckCloseFailureIncludesCheckExpectedAndActualE
     /tmp/ccK8FiyD.s:11806  .data.rel.ro:0000000000000168 _ZTIN12_GLOBAL__N_138TestCheckCloseFailureIncludesToleranceE
     /tmp/ccK8FiyD.s:11814  .rodata:00000000000004e0 _ZTSN12_GLOBAL__N_138TestCheckCloseFailureIncludesToleranceE
     /tmp/ccK8FiyD.s:11820  .data.rel.ro:0000000000000180 _ZTIN12_GLOBAL__N_136TestCheckCloseFailureIncludesDetailsE
     /tmp/ccK8FiyD.s:11828  .rodata:0000000000000520 _ZTSN12_GLOBAL__N_136TestCheckCloseFailureIncludesDetailsE
     /tmp/ccK8FiyD.s:11834  .data.rel.ro:0000000000000198 _ZTIN12_GLOBAL__N_123TestCheckArrayEqualTrueE
     /tmp/ccK8FiyD.s:11842  .rodata:0000000000000560 _ZTSN12_GLOBAL__N_123TestCheckArrayEqualTrueE
     /tmp/ccK8FiyD.s:11848  .data.rel.ro:00000000000001b0 _ZTIN12_GLOBAL__N_124TestCheckArrayEqualFalseE
     /tmp/ccK8FiyD.s:11856  .rodata:00000000000005a0 _ZTSN12_GLOBAL__N_124TestCheckArrayEqualFalseE
     /tmp/ccK8FiyD.s:11862  .data.rel.ro:00000000000001c8 _ZTIN12_GLOBAL__N_123TestCheckArrayCloseTrueE
     /tmp/ccK8FiyD.s:11870  .rodata:00000000000005e0 _ZTSN12_GLOBAL__N_123TestCheckArrayCloseTrueE
     /tmp/ccK8FiyD.s:11876  .data.rel.ro:00000000000001e0 _ZTIN12_GLOBAL__N_124TestCheckArrayCloseFalseE
     /tmp/ccK8FiyD.s:11884  .rodata:0000000000000620 _ZTSN12_GLOBAL__N_124TestCheckArrayCloseFalseE
     /tmp/ccK8FiyD.s:11890  .data.rel.ro:00000000000001f8 _ZTIN12_GLOBAL__N_141TestCheckArrayCloseFailureIncludesDetailsE
     /tmp/ccK8FiyD.s:11898  .rodata:0000000000000660 _ZTSN12_GLOBAL__N_141TestCheckArrayCloseFailureIncludesDetailsE
     /tmp/ccK8FiyD.s:11904  .data.rel.ro:0000000000000210 _ZTIN12_GLOBAL__N_125TestCheckArray2DCloseTrueE
     /tmp/ccK8FiyD.s:11912  .rodata:00000000000006a0 _ZTSN12_GLOBAL__N_125TestCheckArray2DCloseTrueE
     /tmp/ccK8FiyD.s:11918  .data.rel.ro:0000000000000228 _ZTIN12_GLOBAL__N_126TestCheckArray2DCloseFalseE
     /tmp/ccK8FiyD.s:11926  .rodata:00000000000006e0 _ZTSN12_GLOBAL__N_126TestCheckArray2DCloseFalseE
     /tmp/ccK8FiyD.s:11932  .data.rel.ro:0000000000000240 _ZTIN12_GLOBAL__N_133TestCheckCloseWithDoublesSucceedsE
     /tmp/ccK8FiyD.s:11940  .rodata:0000000000000720 _ZTSN12_GLOBAL__N_133TestCheckCloseWithDoublesSucceedsE
     /tmp/ccK8FiyD.s:11946  .data.rel.ro:0000000000000258 _ZTIN12_GLOBAL__N_143TestCheckArray2DCloseFailureIncludesDetailsE
     /tmp/ccK8FiyD.s:11954  .rodata:0000000000000760 _ZTSN12_GLOBAL__N_143TestCheckArray2DCloseFailureIncludesDetailsE
     /tmp/ccK8FiyD.s:11995  .data.rel.ro.local._ZTTN8UnitTest15MemoryOutStreamE:0000000000000000 _ZTTN8UnitTest15MemoryOutStreamE
     /tmp/ccK8FiyD.s:2458   .rodata.str1.8:0000000000000000 .LC0
     /tmp/ccK8FiyD.s:2569   .rodata.str1.1:0000000000000000 .LC1
     /tmp/ccK8FiyD.s:2571   .rodata.str1.1:0000000000000001 .LC2
     /tmp/ccK8FiyD.s:12382  .rodata.cst8:0000000000000000 .LC3
     /tmp/ccK8FiyD.s:2573   .rodata.str1.1:000000000000000b .LC4
     /tmp/ccK8FiyD.s:12386  .rodata.cst8:0000000000000008 .LC5
     /tmp/ccK8FiyD.s:2575   .rodata.str1.1:0000000000000011 .LC6
     /tmp/ccK8FiyD.s:12390  .rodata.cst8:0000000000000010 .LC7
     /tmp/ccK8FiyD.s:2577   .rodata.str1.1:000000000000001b .LC8
     /tmp/ccK8FiyD.s:2584   .rodata.str1.1:0000000000000027 .LC10
     /tmp/ccK8FiyD.s:2588   .rodata.str1.8:0000000000000068 .LC11
     /tmp/ccK8FiyD.s:2581   .rodata.str1.8:0000000000000030 .LC9
     /tmp/ccK8FiyD.s:2591   .rodata.str1.8:0000000000000098 .LC12
     /tmp/ccK8FiyD.s:2594   .rodata.str1.8:00000000000000e8 .LC13
     /tmp/ccK8FiyD.s:3005   .rodata.str1.8:0000000000000138 .LC16
     /tmp/ccK8FiyD.s:3125   .rodata.str1.1:000000000000002f .LC17
     /tmp/ccK8FiyD.s:3129   .rodata.str1.8:0000000000000178 .LC18
     /tmp/ccK8FiyD.s:3132   .rodata.str1.8:00000000000001a8 .LC19
     /tmp/ccK8FiyD.s:3481   .rodata.str1.1:0000000000000034 .LC20
     /tmp/ccK8FiyD.s:3485   .rodata.str1.1:0000000000000043 .LC22
     /tmp/ccK8FiyD.s:3483   .rodata.str1.1:0000000000000040 .LC21
     /tmp/ccK8FiyD.s:3487   .rodata.str1.1:0000000000000045 .LC23
     /tmp/ccK8FiyD.s:3489   .rodata.str1.1:0000000000000048 .LC24
     /tmp/ccK8FiyD.s:3491   .rodata.str1.1:000000000000004f .LC25
     /tmp/ccK8FiyD.s:3493   .rodata.str1.1:000000000000005b .LC26
     /tmp/ccK8FiyD.s:3923   .rodata.str1.8:00000000000001f8 .LC27
     /tmp/ccK8FiyD.s:5131   .rodata.str1.1:000000000000005d .LC28
     /tmp/ccK8FiyD.s:5437   .rodata.str1.8:0000000000000240 .LC29
     /tmp/ccK8FiyD.s:12403  .rodata.cst16:0000000000000000 .LC30
     /tmp/ccK8FiyD.s:12409  .rodata.cst16:0000000000000010 .LC31
     /tmp/ccK8FiyD.s:12415  .rodata.cst16:0000000000000020 .LC33
     /tmp/ccK8FiyD.s:12421  .rodata.cst16:0000000000000030 .LC34
     /tmp/ccK8FiyD.s:6374   .rodata.str1.1:0000000000000063 .LC38
     /tmp/ccK8FiyD.s:6381   .rodata.str1.1:000000000000006d .LC40
     /tmp/ccK8FiyD.s:6385   .rodata.str1.8:00000000000002b8 .LC41
     /tmp/ccK8FiyD.s:6378   .rodata.str1.8:0000000000000288 .LC39
     /tmp/ccK8FiyD.s:6388   .rodata.str1.8:00000000000002e8 .LC42
     /tmp/ccK8FiyD.s:6391   .rodata.str1.8:0000000000000338 .LC43
     /tmp/ccK8FiyD.s:7054   .rodata.str1.1:0000000000000073 .LC44
     /tmp/ccK8FiyD.s:7056   .rodata.str1.1:0000000000000078 .LC45
     /tmp/ccK8FiyD.s:7058   .rodata.str1.1:000000000000008a .LC46
     /tmp/ccK8FiyD.s:7071   .rodata.str1.8:0000000000000478 .LC50
     /tmp/ccK8FiyD.s:7068   .rodata.str1.8:0000000000000430 .LC49
     /tmp/ccK8FiyD.s:7062   .rodata.str1.8:0000000000000388 .LC47
     /tmp/ccK8FiyD.s:7065   .rodata.str1.8:00000000000003d8 .LC48
     /tmp/ccK8FiyD.s:7421   .rodata.str1.1:000000000000009b .LC51
     /tmp/ccK8FiyD.s:7423   .rodata.str1.1:00000000000000a2 .LC52
     /tmp/ccK8FiyD.s:7425   .rodata.str1.1:00000000000000aa .LC53
     /tmp/ccK8FiyD.s:7438   .rodata.str1.8:0000000000000598 .LC57
     /tmp/ccK8FiyD.s:7435   .rodata.str1.8:0000000000000550 .LC56
     /tmp/ccK8FiyD.s:7429   .rodata.str1.8:00000000000004c0 .LC54
     /tmp/ccK8FiyD.s:7432   .rodata.str1.8:0000000000000508 .LC55
     /tmp/ccK8FiyD.s:7784   .rodata.str1.1:00000000000000b1 .LC58
     /tmp/ccK8FiyD.s:7786   .rodata.str1.1:00000000000000c1 .LC59
     /tmp/ccK8FiyD.s:12428  .rodata.cst8:0000000000000018 .LC60
     /tmp/ccK8FiyD.s:7790   .rodata.str1.8:00000000000005e0 .LC61
     /tmp/ccK8FiyD.s:7793   .rodata.str1.8:0000000000000630 .LC62
     /tmp/ccK8FiyD.s:7796   .rodata.str1.8:0000000000000680 .LC63
     /tmp/ccK8FiyD.s:8807   .rodata.str1.1:00000000000000d0 .LC64
     /tmp/ccK8FiyD.s:9281   .rodata.str1.1:00000000000000dd .LC65
     /tmp/ccK8FiyD.s:9288   .rodata.str1.8:0000000000000710 .LC67
     /tmp/ccK8FiyD.s:9285   .rodata.str1.8:00000000000006c8 .LC66
     /tmp/ccK8FiyD.s:12432  .rodata.cst8:0000000000000020 .LC68
     /tmp/ccK8FiyD.s:12436  .rodata.cst8:0000000000000028 .LC69
     /tmp/ccK8FiyD.s:12440  .rodata.cst8:0000000000000030 .LC70
     /tmp/ccK8FiyD.s:12444  .rodata.cst8:0000000000000038 .LC71
     /tmp/ccK8FiyD.s:10995  .rodata.str1.1:00000000000000e6 .LC72
     /tmp/ccK8FiyD.s:10997  .rodata.str1.1:00000000000000f5 .LC73
     /tmp/ccK8FiyD.s:10999  .rodata.str1.1:0000000000000102 .LC74
     /tmp/ccK8FiyD.s:11003  .rodata.str1.8:0000000000000750 .LC75
     /tmp/ccK8FiyD.s:11006  .rodata.str1.8:0000000000000780 .LC76
     /tmp/ccK8FiyD.s:11009  .rodata.str1.8:00000000000007b8 .LC77
     /tmp/ccK8FiyD.s:11012  .rodata.str1.8:00000000000007e8 .LC78
     /tmp/ccK8FiyD.s:11015  .rodata.str1.8:0000000000000820 .LC79
     /tmp/ccK8FiyD.s:11018  .rodata.str1.8:0000000000000858 .LC80
     /tmp/ccK8FiyD.s:11021  .rodata.str1.8:0000000000000890 .LC81
     /tmp/ccK8FiyD.s:11024  .rodata.str1.8:00000000000008c0 .LC82
     /tmp/ccK8FiyD.s:11027  .rodata.str1.1:000000000000011d .LC83
     /tmp/ccK8FiyD.s:11029  .rodata.str1.1:000000000000012c .LC84
     /tmp/ccK8FiyD.s:11033  .rodata.str1.8:00000000000008e8 .LC85
     /tmp/ccK8FiyD.s:11036  .rodata.str1.1:000000000000013c .LC86
     /tmp/ccK8FiyD.s:11040  .rodata.str1.8:0000000000000918 .LC87
     /tmp/ccK8FiyD.s:11043  .rodata.str1.8:0000000000000940 .LC88
     /tmp/ccK8FiyD.s:11046  .rodata.str1.8:0000000000000970 .LC89
     /tmp/ccK8FiyD.s:11049  .rodata.str1.8:0000000000000998 .LC90
     /tmp/ccK8FiyD.s:11052  .rodata.str1.1:0000000000000153 .LC91
     /tmp/ccK8FiyD.s:11054  .rodata.str1.1:0000000000000167 .LC92
     /tmp/ccK8FiyD.s:11056  .rodata.str1.1:000000000000017c .LC93
     /tmp/ccK8FiyD.s:11058  .rodata.str1.1:0000000000000190 .LC94
     /tmp/ccK8FiyD.s:11062  .rodata.str1.8:00000000000009c0 .LC95
     /tmp/ccK8FiyD.s:11065  .rodata.str1.1:00000000000001a5 .LC96
     /tmp/ccK8FiyD.s:11067  .rodata.str1.1:00000000000001bb .LC97
     /tmp/ccK8FiyD.s:11069  .rodata.str1.1:00000000000001d2 .LC98
     /tmp/ccK8FiyD.s:11073  .rodata.str1.8:00000000000009e8 .LC99
                           .group:0000000000000000 _ZN17RecordingReporterD5Ev
                           .group:0000000000000000 _ZNSt7__cxx1115basic_stringbufIcSt11char_traitsIcESaIcEED5Ev

UNDEFINED SYMBOLS
_GLOBAL_OFFSET_TABLE_
_ZN8UnitTest4TestD2Ev
__strcpy_chk
_ZdlPv
_Unwind_Resume
__gxx_personality_v0
_ZN8UnitTest12TestReporterD2Ev
_ZTVNSt7__cxx1115basic_stringbufIcSt11char_traitsIcESaIcEEE
_ZTVSt15basic_streambufIcSt11char_traitsIcEE
_ZNSt6localeD1Ev
_ZTVSt9basic_iosIcSt11char_traitsIcEE
_ZNSt8ios_baseD2Ev
_ZN8UnitTest11CurrentTest7DetailsEv
_ZN8UnitTest11TestDetailsC1ERKS0_i
_ZN8UnitTest11CurrentTest7ResultsEv
__stack_chk_fail
__cxa_begin_catch
_ZN8UnitTest11TestResults13OnTestFailureERKNS_11TestDetailsEPKc
__cxa_end_catch
_ZN8UnitTest11TestResultsC1EPNS_12TestReporterE
_ZN8UnitTest11TestDetailsC1EPKcS2_S2_i
_ZNSt8ios_baseC2Ev
_ZNSt9basic_iosIcSt11char_traitsIcEE4initEPSt15basic_streambufIcS1_E
_ZNSt6localeC1Ev
_ZSt16__ostream_insertIcSt11char_traitsIcEERSt13basic_ostreamIT_T0_ES6_PKS3_l
_ZNSo9_M_insertIdEERSoT_
_ZNK8UnitTest15MemoryOutStream7GetTextEv
strstr
_ZNSolsEi
_ZN8UnitTest10CheckEqualERNS_11TestResultsEPKcPcRKNS_11TestDetailsE
_ZNK8UnitTest11TestResults15GetFailureCountEv
_ZN8UnitTest10CheckEqualERNS_11TestResultsEPKcS3_RKNS_11TestDetailsE
_ZN8UnitTest10CheckEqualERNS_11TestResultsEPcPKcRKNS_11TestDetailsE
_ZN8UnitTest10CheckEqualERNS_11TestResultsEPcS2_RKNS_11TestDetailsE
_ZN8UnitTest4TestC2EPKcS2_S2_i
__dso_handle
__cxa_atexit
_ZN8UnitTest4Test11GetTestListEv
_ZN8UnitTest9ListAdderC1ERNS_8TestListEPNS_4TestE
_ZTVN10__cxxabiv120__si_class_type_infoE
_ZTINSt7__cxx1119basic_ostringstreamIcSt11char_traitsIcESaIcEEE
_ZTIN8UnitTest12TestReporterE
_ZTIN8UnitTest4TestE
_ZTISo
