   1              		.file	"TestMemoryOutStream.cpp"
   2              		.text
   3              		.align 2
   4              		.p2align 4,,15
   6              	_ZN12_GLOBAL__N_141TestStreamingSizeTWritesCorrectCharactersD2Ev:
   7              	.LFB1274:
   8              		.cfi_startproc
   9 0000 488D0500 		leaq	16+_ZTVN12_GLOBAL__N_141TestStreamingSizeTWritesCorrectCharactersE(%rip), %rax
   9      000000
  10 0007 488907   		movq	%rax, (%rdi)
  11 000a E9000000 		jmp	_ZN8UnitTest4TestD2Ev@PLT
  11      00
  12              		.cfi_endproc
  13              	.LFE1274:
  15              		.set	_ZN12_GLOBAL__N_141TestStreamingSizeTWritesCorrectCharactersD1Ev,_ZN12_GLOBAL__N_141TestStrea
  16 000f 90       		.align 2
  17              		.p2align 4,,15
  19              	_ZN12_GLOBAL__N_143TestStreamingPointerWritesCorrectCharactersD2Ev:
  20              	.LFB1278:
  21              		.cfi_startproc
  22 0010 488D0500 		leaq	16+_ZTVN12_GLOBAL__N_143TestStreamingPointerWritesCorrectCharactersE(%rip), %rax
  22      000000
  23 0017 488907   		movq	%rax, (%rdi)
  24 001a E9000000 		jmp	_ZN8UnitTest4TestD2Ev@PLT
  24      00
  25              		.cfi_endproc
  26              	.LFE1278:
  28              		.set	_ZN12_GLOBAL__N_143TestStreamingPointerWritesCorrectCharactersD1Ev,_ZN12_GLOBAL__N_143TestStr
  29 001f 90       		.align 2
  30              		.p2align 4,,15
  32              	_ZN12_GLOBAL__N_142TestStreamingDoubleWritesCorrectCharactersD2Ev:
  33              	.LFB1282:
  34              		.cfi_startproc
  35 0020 488D0500 		leaq	16+_ZTVN12_GLOBAL__N_142TestStreamingDoubleWritesCorrectCharactersE(%rip), %rax
  35      000000
  36 0027 488907   		movq	%rax, (%rdi)
  37 002a E9000000 		jmp	_ZN8UnitTest4TestD2Ev@PLT
  37      00
  38              		.cfi_endproc
  39              	.LFE1282:
  41              		.set	_ZN12_GLOBAL__N_142TestStreamingDoubleWritesCorrectCharactersD1Ev,_ZN12_GLOBAL__N_142TestStre
  42 002f 90       		.align 2
  43              		.p2align 4,,15
  45              	_ZN12_GLOBAL__N_141TestStreamingFloatWritesCorrectCharactersD2Ev:
  46              	.LFB1286:
  47              		.cfi_startproc
  48 0030 488D0500 		leaq	16+_ZTVN12_GLOBAL__N_141TestStreamingFloatWritesCorrectCharactersE(%rip), %rax
  48      000000
  49 0037 488907   		movq	%rax, (%rdi)
  50 003a E9000000 		jmp	_ZN8UnitTest4TestD2Ev@PLT
  50      00
  51              		.cfi_endproc
  52              	.LFE1286:
  54              		.set	_ZN12_GLOBAL__N_141TestStreamingFloatWritesCorrectCharactersD1Ev,_ZN12_GLOBAL__N_141TestStrea
  55 003f 90       		.align 2
  56              		.p2align 4,,15
  58              	_ZN12_GLOBAL__N_148TestStreamingUnsignedLongWritesCorrectCharactersD2Ev:
  59              	.LFB1290:
  60              		.cfi_startproc
  61 0040 488D0500 		leaq	16+_ZTVN12_GLOBAL__N_148TestStreamingUnsignedLongWritesCorrectCharactersE(%rip), %rax
  61      000000
  62 0047 488907   		movq	%rax, (%rdi)
  63 004a E9000000 		jmp	_ZN8UnitTest4TestD2Ev@PLT
  63      00
  64              		.cfi_endproc
  65              	.LFE1290:
  67              		.set	_ZN12_GLOBAL__N_148TestStreamingUnsignedLongWritesCorrectCharactersD1Ev,_ZN12_GLOBAL__N_148Te
  68 004f 90       		.align 2
  69              		.p2align 4,,15
  71              	_ZN12_GLOBAL__N_140TestStreamingLongWritesCorrectCharactersD2Ev:
  72              	.LFB1294:
  73              		.cfi_startproc
  74 0050 488D0500 		leaq	16+_ZTVN12_GLOBAL__N_140TestStreamingLongWritesCorrectCharactersE(%rip), %rax
  74      000000
  75 0057 488907   		movq	%rax, (%rdi)
  76 005a E9000000 		jmp	_ZN8UnitTest4TestD2Ev@PLT
  76      00
  77              		.cfi_endproc
  78              	.LFE1294:
  80              		.set	_ZN12_GLOBAL__N_140TestStreamingLongWritesCorrectCharactersD1Ev,_ZN12_GLOBAL__N_140TestStream
  81 005f 90       		.align 2
  82              		.p2align 4,,15
  84              	_ZN12_GLOBAL__N_147TestStreamingUnsignedIntWritesCorrectCharactersD2Ev:
  85              	.LFB1298:
  86              		.cfi_startproc
  87 0060 488D0500 		leaq	16+_ZTVN12_GLOBAL__N_147TestStreamingUnsignedIntWritesCorrectCharactersE(%rip), %rax
  87      000000
  88 0067 488907   		movq	%rax, (%rdi)
  89 006a E9000000 		jmp	_ZN8UnitTest4TestD2Ev@PLT
  89      00
  90              		.cfi_endproc
  91              	.LFE1298:
  93              		.set	_ZN12_GLOBAL__N_147TestStreamingUnsignedIntWritesCorrectCharactersD1Ev,_ZN12_GLOBAL__N_147Tes
  94 006f 90       		.align 2
  95              		.p2align 4,,15
  97              	_ZN12_GLOBAL__N_139TestStreamingIntWritesCorrectCharactersD2Ev:
  98              	.LFB1302:
  99              		.cfi_startproc
 100 0070 488D0500 		leaq	16+_ZTVN12_GLOBAL__N_139TestStreamingIntWritesCorrectCharactersE(%rip), %rax
 100      000000
 101 0077 488907   		movq	%rax, (%rdi)
 102 007a E9000000 		jmp	_ZN8UnitTest4TestD2Ev@PLT
 102      00
 103              		.cfi_endproc
 104              	.LFE1302:
 106              		.set	_ZN12_GLOBAL__N_139TestStreamingIntWritesCorrectCharactersD1Ev,_ZN12_GLOBAL__N_139TestStreami
 107 007f 90       		.align 2
 108              		.p2align 4,,15
 110              	_ZN12_GLOBAL__N_144TestStreamingMultipleTimesConcatenatesResultD2Ev:
 111              	.LFB1306:
 112              		.cfi_startproc
 113 0080 488D0500 		leaq	16+_ZTVN12_GLOBAL__N_144TestStreamingMultipleTimesConcatenatesResultE(%rip), %rax
 113      000000
 114 0087 488907   		movq	%rax, (%rdi)
 115 008a E9000000 		jmp	_ZN8UnitTest4TestD2Ev@PLT
 115      00
 116              		.cfi_endproc
 117              	.LFE1306:
 119              		.set	_ZN12_GLOBAL__N_144TestStreamingMultipleTimesConcatenatesResultD1Ev,_ZN12_GLOBAL__N_144TestSt
 120 008f 90       		.align 2
 121              		.p2align 4,,15
 123              	_ZN12_GLOBAL__N_133TestStreamingTextCopiesCharactersD2Ev:
 124              	.LFB1310:
 125              		.cfi_startproc
 126 0090 488D0500 		leaq	16+_ZTVN12_GLOBAL__N_133TestStreamingTextCopiesCharactersE(%rip), %rax
 126      000000
 127 0097 488907   		movq	%rax, (%rdi)
 128 009a E9000000 		jmp	_ZN8UnitTest4TestD2Ev@PLT
 128      00
 129              		.cfi_endproc
 130              	.LFE1310:
 132              		.set	_ZN12_GLOBAL__N_133TestStreamingTextCopiesCharactersD1Ev,_ZN12_GLOBAL__N_133TestStreamingText
 133 009f 90       		.align 2
 134              		.p2align 4,,15
 136              	_ZN12_GLOBAL__N_124TestDefaultIsEmptyStringD2Ev:
 137              	.LFB1314:
 138              		.cfi_startproc
 139 00a0 488D0500 		leaq	16+_ZTVN12_GLOBAL__N_124TestDefaultIsEmptyStringE(%rip), %rax
 139      000000
 140 00a7 488907   		movq	%rax, (%rdi)
 141 00aa E9000000 		jmp	_ZN8UnitTest4TestD2Ev@PLT
 141      00
 142              		.cfi_endproc
 143              	.LFE1314:
 145              		.set	_ZN12_GLOBAL__N_124TestDefaultIsEmptyStringD1Ev,_ZN12_GLOBAL__N_124TestDefaultIsEmptyStringD2
 146 00af 90       		.align 2
 147              		.p2align 4,,15
 149              	_ZN12_GLOBAL__N_141TestStreamingSizeTWritesCorrectCharactersD0Ev:
 150              	.LFB1276:
 151              		.cfi_startproc
 152              		.cfi_personality 0x9b,DW.ref.__gxx_personality_v0
 153              		.cfi_lsda 0x1b,.LLSDA1276
 154 00b0 55       		pushq	%rbp
 155              		.cfi_def_cfa_offset 16
 156              		.cfi_offset 6, -16
 157 00b1 488D0500 		leaq	16+_ZTVN12_GLOBAL__N_141TestStreamingSizeTWritesCorrectCharactersE(%rip), %rax
 157      000000
 158 00b8 53       		pushq	%rbx
 159              		.cfi_def_cfa_offset 24
 160              		.cfi_offset 3, -24
 161 00b9 4889FB   		movq	%rdi, %rbx
 162 00bc 4883EC08 		subq	$8, %rsp
 163              		.cfi_def_cfa_offset 32
 164 00c0 488907   		movq	%rax, (%rdi)
 165              	.LEHB0:
 166 00c3 E8000000 		call	_ZN8UnitTest4TestD2Ev@PLT
 166      00
 167              	.LEHE0:
 168 00c8 4883C408 		addq	$8, %rsp
 169              		.cfi_remember_state
 170              		.cfi_def_cfa_offset 24
 171 00cc 4889DF   		movq	%rbx, %rdi
 172 00cf 5B       		popq	%rbx
 173              		.cfi_def_cfa_offset 16
 174 00d0 5D       		popq	%rbp
 175              		.cfi_def_cfa_offset 8
 176 00d1 E9000000 		jmp	_ZdlPv@PLT
 176      00
 177              	.L15:
 178              		.cfi_restore_state
 179 00d6 4889C5   		movq	%rax, %rbp
 180 00d9 4889DF   		movq	%rbx, %rdi
 181 00dc E8000000 		call	_ZdlPv@PLT
 181      00
 182 00e1 4889EF   		movq	%rbp, %rdi
 183              	.LEHB1:
 184 00e4 E8000000 		call	_Unwind_Resume@PLT
 184      00
 185              	.LEHE1:
 186              		.cfi_endproc
 187              	.LFE1276:
 188              		.globl	__gxx_personality_v0
 189              		.section	.gcc_except_table,"a",@progbits
 190              	.LLSDA1276:
 191 0000 FF       		.byte	0xff
 192 0001 FF       		.byte	0xff
 193 0002 01       		.byte	0x1
 194 0003 08       		.uleb128 .LLSDACSE1276-.LLSDACSB1276
 195              	.LLSDACSB1276:
 196 0004 13       		.uleb128 .LEHB0-.LFB1276
 197 0005 05       		.uleb128 .LEHE0-.LEHB0
 198 0006 26       		.uleb128 .L15-.LFB1276
 199 0007 00       		.uleb128 0
 200 0008 34       		.uleb128 .LEHB1-.LFB1276
 201 0009 05       		.uleb128 .LEHE1-.LEHB1
 202 000a 00       		.uleb128 0
 203 000b 00       		.uleb128 0
 204              	.LLSDACSE1276:
 205              		.text
 207 00e9 90       		.align 2
 208 00ea 660F1F44 		.p2align 4,,15
 208      0000
 210              	_ZN12_GLOBAL__N_143TestStreamingPointerWritesCorrectCharactersD0Ev:
 211              	.LFB1280:
 212              		.cfi_startproc
 213              		.cfi_personality 0x9b,DW.ref.__gxx_personality_v0
 214              		.cfi_lsda 0x1b,.LLSDA1280
 215 00f0 55       		pushq	%rbp
 216              		.cfi_def_cfa_offset 16
 217              		.cfi_offset 6, -16
 218 00f1 488D0500 		leaq	16+_ZTVN12_GLOBAL__N_143TestStreamingPointerWritesCorrectCharactersE(%rip), %rax
 218      000000
 219 00f8 53       		pushq	%rbx
 220              		.cfi_def_cfa_offset 24
 221              		.cfi_offset 3, -24
 222 00f9 4889FB   		movq	%rdi, %rbx
 223 00fc 4883EC08 		subq	$8, %rsp
 224              		.cfi_def_cfa_offset 32
 225 0100 488907   		movq	%rax, (%rdi)
 226              	.LEHB2:
 227 0103 E8000000 		call	_ZN8UnitTest4TestD2Ev@PLT
 227      00
 228              	.LEHE2:
 229 0108 4883C408 		addq	$8, %rsp
 230              		.cfi_remember_state
 231              		.cfi_def_cfa_offset 24
 232 010c 4889DF   		movq	%rbx, %rdi
 233 010f 5B       		popq	%rbx
 234              		.cfi_def_cfa_offset 16
 235 0110 5D       		popq	%rbp
 236              		.cfi_def_cfa_offset 8
 237 0111 E9000000 		jmp	_ZdlPv@PLT
 237      00
 238              	.L19:
 239              		.cfi_restore_state
 240 0116 4889C5   		movq	%rax, %rbp
 241 0119 4889DF   		movq	%rbx, %rdi
 242 011c E8000000 		call	_ZdlPv@PLT
 242      00
 243 0121 4889EF   		movq	%rbp, %rdi
 244              	.LEHB3:
 245 0124 E8000000 		call	_Unwind_Resume@PLT
 245      00
 246              	.LEHE3:
 247              		.cfi_endproc
 248              	.LFE1280:
 249              		.section	.gcc_except_table
 250              	.LLSDA1280:
 251 000c FF       		.byte	0xff
 252 000d FF       		.byte	0xff
 253 000e 01       		.byte	0x1
 254 000f 08       		.uleb128 .LLSDACSE1280-.LLSDACSB1280
 255              	.LLSDACSB1280:
 256 0010 13       		.uleb128 .LEHB2-.LFB1280
 257 0011 05       		.uleb128 .LEHE2-.LEHB2
 258 0012 26       		.uleb128 .L19-.LFB1280
 259 0013 00       		.uleb128 0
 260 0014 34       		.uleb128 .LEHB3-.LFB1280
 261 0015 05       		.uleb128 .LEHE3-.LEHB3
 262 0016 00       		.uleb128 0
 263 0017 00       		.uleb128 0
 264              	.LLSDACSE1280:
 265              		.text
 267 0129 90       		.align 2
 268 012a 660F1F44 		.p2align 4,,15
 268      0000
 270              	_ZN12_GLOBAL__N_142TestStreamingDoubleWritesCorrectCharactersD0Ev:
 271              	.LFB1284:
 272              		.cfi_startproc
 273              		.cfi_personality 0x9b,DW.ref.__gxx_personality_v0
 274              		.cfi_lsda 0x1b,.LLSDA1284
 275 0130 55       		pushq	%rbp
 276              		.cfi_def_cfa_offset 16
 277              		.cfi_offset 6, -16
 278 0131 488D0500 		leaq	16+_ZTVN12_GLOBAL__N_142TestStreamingDoubleWritesCorrectCharactersE(%rip), %rax
 278      000000
 279 0138 53       		pushq	%rbx
 280              		.cfi_def_cfa_offset 24
 281              		.cfi_offset 3, -24
 282 0139 4889FB   		movq	%rdi, %rbx
 283 013c 4883EC08 		subq	$8, %rsp
 284              		.cfi_def_cfa_offset 32
 285 0140 488907   		movq	%rax, (%rdi)
 286              	.LEHB4:
 287 0143 E8000000 		call	_ZN8UnitTest4TestD2Ev@PLT
 287      00
 288              	.LEHE4:
 289 0148 4883C408 		addq	$8, %rsp
 290              		.cfi_remember_state
 291              		.cfi_def_cfa_offset 24
 292 014c 4889DF   		movq	%rbx, %rdi
 293 014f 5B       		popq	%rbx
 294              		.cfi_def_cfa_offset 16
 295 0150 5D       		popq	%rbp
 296              		.cfi_def_cfa_offset 8
 297 0151 E9000000 		jmp	_ZdlPv@PLT
 297      00
 298              	.L23:
 299              		.cfi_restore_state
 300 0156 4889C5   		movq	%rax, %rbp
 301 0159 4889DF   		movq	%rbx, %rdi
 302 015c E8000000 		call	_ZdlPv@PLT
 302      00
 303 0161 4889EF   		movq	%rbp, %rdi
 304              	.LEHB5:
 305 0164 E8000000 		call	_Unwind_Resume@PLT
 305      00
 306              	.LEHE5:
 307              		.cfi_endproc
 308              	.LFE1284:
 309              		.section	.gcc_except_table
 310              	.LLSDA1284:
 311 0018 FF       		.byte	0xff
 312 0019 FF       		.byte	0xff
 313 001a 01       		.byte	0x1
 314 001b 08       		.uleb128 .LLSDACSE1284-.LLSDACSB1284
 315              	.LLSDACSB1284:
 316 001c 13       		.uleb128 .LEHB4-.LFB1284
 317 001d 05       		.uleb128 .LEHE4-.LEHB4
 318 001e 26       		.uleb128 .L23-.LFB1284
 319 001f 00       		.uleb128 0
 320 0020 34       		.uleb128 .LEHB5-.LFB1284
 321 0021 05       		.uleb128 .LEHE5-.LEHB5
 322 0022 00       		.uleb128 0
 323 0023 00       		.uleb128 0
 324              	.LLSDACSE1284:
 325              		.text
 327 0169 90       		.align 2
 328 016a 660F1F44 		.p2align 4,,15
 328      0000
 330              	_ZN12_GLOBAL__N_141TestStreamingFloatWritesCorrectCharactersD0Ev:
 331              	.LFB1288:
 332              		.cfi_startproc
 333              		.cfi_personality 0x9b,DW.ref.__gxx_personality_v0
 334              		.cfi_lsda 0x1b,.LLSDA1288
 335 0170 55       		pushq	%rbp
 336              		.cfi_def_cfa_offset 16
 337              		.cfi_offset 6, -16
 338 0171 488D0500 		leaq	16+_ZTVN12_GLOBAL__N_141TestStreamingFloatWritesCorrectCharactersE(%rip), %rax
 338      000000
 339 0178 53       		pushq	%rbx
 340              		.cfi_def_cfa_offset 24
 341              		.cfi_offset 3, -24
 342 0179 4889FB   		movq	%rdi, %rbx
 343 017c 4883EC08 		subq	$8, %rsp
 344              		.cfi_def_cfa_offset 32
 345 0180 488907   		movq	%rax, (%rdi)
 346              	.LEHB6:
 347 0183 E8000000 		call	_ZN8UnitTest4TestD2Ev@PLT
 347      00
 348              	.LEHE6:
 349 0188 4883C408 		addq	$8, %rsp
 350              		.cfi_remember_state
 351              		.cfi_def_cfa_offset 24
 352 018c 4889DF   		movq	%rbx, %rdi
 353 018f 5B       		popq	%rbx
 354              		.cfi_def_cfa_offset 16
 355 0190 5D       		popq	%rbp
 356              		.cfi_def_cfa_offset 8
 357 0191 E9000000 		jmp	_ZdlPv@PLT
 357      00
 358              	.L27:
 359              		.cfi_restore_state
 360 0196 4889C5   		movq	%rax, %rbp
 361 0199 4889DF   		movq	%rbx, %rdi
 362 019c E8000000 		call	_ZdlPv@PLT
 362      00
 363 01a1 4889EF   		movq	%rbp, %rdi
 364              	.LEHB7:
 365 01a4 E8000000 		call	_Unwind_Resume@PLT
 365      00
 366              	.LEHE7:
 367              		.cfi_endproc
 368              	.LFE1288:
 369              		.section	.gcc_except_table
 370              	.LLSDA1288:
 371 0024 FF       		.byte	0xff
 372 0025 FF       		.byte	0xff
 373 0026 01       		.byte	0x1
 374 0027 08       		.uleb128 .LLSDACSE1288-.LLSDACSB1288
 375              	.LLSDACSB1288:
 376 0028 13       		.uleb128 .LEHB6-.LFB1288
 377 0029 05       		.uleb128 .LEHE6-.LEHB6
 378 002a 26       		.uleb128 .L27-.LFB1288
 379 002b 00       		.uleb128 0
 380 002c 34       		.uleb128 .LEHB7-.LFB1288
 381 002d 05       		.uleb128 .LEHE7-.LEHB7
 382 002e 00       		.uleb128 0
 383 002f 00       		.uleb128 0
 384              	.LLSDACSE1288:
 385              		.text
 387 01a9 90       		.align 2
 388 01aa 660F1F44 		.p2align 4,,15
 388      0000
 390              	_ZN12_GLOBAL__N_148TestStreamingUnsignedLongWritesCorrectCharactersD0Ev:
 391              	.LFB1292:
 392              		.cfi_startproc
 393              		.cfi_personality 0x9b,DW.ref.__gxx_personality_v0
 394              		.cfi_lsda 0x1b,.LLSDA1292
 395 01b0 55       		pushq	%rbp
 396              		.cfi_def_cfa_offset 16
 397              		.cfi_offset 6, -16
 398 01b1 488D0500 		leaq	16+_ZTVN12_GLOBAL__N_148TestStreamingUnsignedLongWritesCorrectCharactersE(%rip), %rax
 398      000000
 399 01b8 53       		pushq	%rbx
 400              		.cfi_def_cfa_offset 24
 401              		.cfi_offset 3, -24
 402 01b9 4889FB   		movq	%rdi, %rbx
 403 01bc 4883EC08 		subq	$8, %rsp
 404              		.cfi_def_cfa_offset 32
 405 01c0 488907   		movq	%rax, (%rdi)
 406              	.LEHB8:
 407 01c3 E8000000 		call	_ZN8UnitTest4TestD2Ev@PLT
 407      00
 408              	.LEHE8:
 409 01c8 4883C408 		addq	$8, %rsp
 410              		.cfi_remember_state
 411              		.cfi_def_cfa_offset 24
 412 01cc 4889DF   		movq	%rbx, %rdi
 413 01cf 5B       		popq	%rbx
 414              		.cfi_def_cfa_offset 16
 415 01d0 5D       		popq	%rbp
 416              		.cfi_def_cfa_offset 8
 417 01d1 E9000000 		jmp	_ZdlPv@PLT
 417      00
 418              	.L31:
 419              		.cfi_restore_state
 420 01d6 4889C5   		movq	%rax, %rbp
 421 01d9 4889DF   		movq	%rbx, %rdi
 422 01dc E8000000 		call	_ZdlPv@PLT
 422      00
 423 01e1 4889EF   		movq	%rbp, %rdi
 424              	.LEHB9:
 425 01e4 E8000000 		call	_Unwind_Resume@PLT
 425      00
 426              	.LEHE9:
 427              		.cfi_endproc
 428              	.LFE1292:
 429              		.section	.gcc_except_table
 430              	.LLSDA1292:
 431 0030 FF       		.byte	0xff
 432 0031 FF       		.byte	0xff
 433 0032 01       		.byte	0x1
 434 0033 08       		.uleb128 .LLSDACSE1292-.LLSDACSB1292
 435              	.LLSDACSB1292:
 436 0034 13       		.uleb128 .LEHB8-.LFB1292
 437 0035 05       		.uleb128 .LEHE8-.LEHB8
 438 0036 26       		.uleb128 .L31-.LFB1292
 439 0037 00       		.uleb128 0
 440 0038 34       		.uleb128 .LEHB9-.LFB1292
 441 0039 05       		.uleb128 .LEHE9-.LEHB9
 442 003a 00       		.uleb128 0
 443 003b 00       		.uleb128 0
 444              	.LLSDACSE1292:
 445              		.text
 447 01e9 90       		.align 2
 448 01ea 660F1F44 		.p2align 4,,15
 448      0000
 450              	_ZN12_GLOBAL__N_140TestStreamingLongWritesCorrectCharactersD0Ev:
 451              	.LFB1296:
 452              		.cfi_startproc
 453              		.cfi_personality 0x9b,DW.ref.__gxx_personality_v0
 454              		.cfi_lsda 0x1b,.LLSDA1296
 455 01f0 55       		pushq	%rbp
 456              		.cfi_def_cfa_offset 16
 457              		.cfi_offset 6, -16
 458 01f1 488D0500 		leaq	16+_ZTVN12_GLOBAL__N_140TestStreamingLongWritesCorrectCharactersE(%rip), %rax
 458      000000
 459 01f8 53       		pushq	%rbx
 460              		.cfi_def_cfa_offset 24
 461              		.cfi_offset 3, -24
 462 01f9 4889FB   		movq	%rdi, %rbx
 463 01fc 4883EC08 		subq	$8, %rsp
 464              		.cfi_def_cfa_offset 32
 465 0200 488907   		movq	%rax, (%rdi)
 466              	.LEHB10:
 467 0203 E8000000 		call	_ZN8UnitTest4TestD2Ev@PLT
 467      00
 468              	.LEHE10:
 469 0208 4883C408 		addq	$8, %rsp
 470              		.cfi_remember_state
 471              		.cfi_def_cfa_offset 24
 472 020c 4889DF   		movq	%rbx, %rdi
 473 020f 5B       		popq	%rbx
 474              		.cfi_def_cfa_offset 16
 475 0210 5D       		popq	%rbp
 476              		.cfi_def_cfa_offset 8
 477 0211 E9000000 		jmp	_ZdlPv@PLT
 477      00
 478              	.L35:
 479              		.cfi_restore_state
 480 0216 4889C5   		movq	%rax, %rbp
 481 0219 4889DF   		movq	%rbx, %rdi
 482 021c E8000000 		call	_ZdlPv@PLT
 482      00
 483 0221 4889EF   		movq	%rbp, %rdi
 484              	.LEHB11:
 485 0224 E8000000 		call	_Unwind_Resume@PLT
 485      00
 486              	.LEHE11:
 487              		.cfi_endproc
 488              	.LFE1296:
 489              		.section	.gcc_except_table
 490              	.LLSDA1296:
 491 003c FF       		.byte	0xff
 492 003d FF       		.byte	0xff
 493 003e 01       		.byte	0x1
 494 003f 08       		.uleb128 .LLSDACSE1296-.LLSDACSB1296
 495              	.LLSDACSB1296:
 496 0040 13       		.uleb128 .LEHB10-.LFB1296
 497 0041 05       		.uleb128 .LEHE10-.LEHB10
 498 0042 26       		.uleb128 .L35-.LFB1296
 499 0043 00       		.uleb128 0
 500 0044 34       		.uleb128 .LEHB11-.LFB1296
 501 0045 05       		.uleb128 .LEHE11-.LEHB11
 502 0046 00       		.uleb128 0
 503 0047 00       		.uleb128 0
 504              	.LLSDACSE1296:
 505              		.text
 507 0229 90       		.align 2
 508 022a 660F1F44 		.p2align 4,,15
 508      0000
 510              	_ZN12_GLOBAL__N_147TestStreamingUnsignedIntWritesCorrectCharactersD0Ev:
 511              	.LFB1300:
 512              		.cfi_startproc
 513              		.cfi_personality 0x9b,DW.ref.__gxx_personality_v0
 514              		.cfi_lsda 0x1b,.LLSDA1300
 515 0230 55       		pushq	%rbp
 516              		.cfi_def_cfa_offset 16
 517              		.cfi_offset 6, -16
 518 0231 488D0500 		leaq	16+_ZTVN12_GLOBAL__N_147TestStreamingUnsignedIntWritesCorrectCharactersE(%rip), %rax
 518      000000
 519 0238 53       		pushq	%rbx
 520              		.cfi_def_cfa_offset 24
 521              		.cfi_offset 3, -24
 522 0239 4889FB   		movq	%rdi, %rbx
 523 023c 4883EC08 		subq	$8, %rsp
 524              		.cfi_def_cfa_offset 32
 525 0240 488907   		movq	%rax, (%rdi)
 526              	.LEHB12:
 527 0243 E8000000 		call	_ZN8UnitTest4TestD2Ev@PLT
 527      00
 528              	.LEHE12:
 529 0248 4883C408 		addq	$8, %rsp
 530              		.cfi_remember_state
 531              		.cfi_def_cfa_offset 24
 532 024c 4889DF   		movq	%rbx, %rdi
 533 024f 5B       		popq	%rbx
 534              		.cfi_def_cfa_offset 16
 535 0250 5D       		popq	%rbp
 536              		.cfi_def_cfa_offset 8
 537 0251 E9000000 		jmp	_ZdlPv@PLT
 537      00
 538              	.L39:
 539              		.cfi_restore_state
 540 0256 4889C5   		movq	%rax, %rbp
 541 0259 4889DF   		movq	%rbx, %rdi
 542 025c E8000000 		call	_ZdlPv@PLT
 542      00
 543 0261 4889EF   		movq	%rbp, %rdi
 544              	.LEHB13:
 545 0264 E8000000 		call	_Unwind_Resume@PLT
 545      00
 546              	.LEHE13:
 547              		.cfi_endproc
 548              	.LFE1300:
 549              		.section	.gcc_except_table
 550              	.LLSDA1300:
 551 0048 FF       		.byte	0xff
 552 0049 FF       		.byte	0xff
 553 004a 01       		.byte	0x1
 554 004b 08       		.uleb128 .LLSDACSE1300-.LLSDACSB1300
 555              	.LLSDACSB1300:
 556 004c 13       		.uleb128 .LEHB12-.LFB1300
 557 004d 05       		.uleb128 .LEHE12-.LEHB12
 558 004e 26       		.uleb128 .L39-.LFB1300
 559 004f 00       		.uleb128 0
 560 0050 34       		.uleb128 .LEHB13-.LFB1300
 561 0051 05       		.uleb128 .LEHE13-.LEHB13
 562 0052 00       		.uleb128 0
 563 0053 00       		.uleb128 0
 564              	.LLSDACSE1300:
 565              		.text
 567 0269 90       		.align 2
 568 026a 660F1F44 		.p2align 4,,15
 568      0000
 570              	_ZN12_GLOBAL__N_139TestStreamingIntWritesCorrectCharactersD0Ev:
 571              	.LFB1304:
 572              		.cfi_startproc
 573              		.cfi_personality 0x9b,DW.ref.__gxx_personality_v0
 574              		.cfi_lsda 0x1b,.LLSDA1304
 575 0270 55       		pushq	%rbp
 576              		.cfi_def_cfa_offset 16
 577              		.cfi_offset 6, -16
 578 0271 488D0500 		leaq	16+_ZTVN12_GLOBAL__N_139TestStreamingIntWritesCorrectCharactersE(%rip), %rax
 578      000000
 579 0278 53       		pushq	%rbx
 580              		.cfi_def_cfa_offset 24
 581              		.cfi_offset 3, -24
 582 0279 4889FB   		movq	%rdi, %rbx
 583 027c 4883EC08 		subq	$8, %rsp
 584              		.cfi_def_cfa_offset 32
 585 0280 488907   		movq	%rax, (%rdi)
 586              	.LEHB14:
 587 0283 E8000000 		call	_ZN8UnitTest4TestD2Ev@PLT
 587      00
 588              	.LEHE14:
 589 0288 4883C408 		addq	$8, %rsp
 590              		.cfi_remember_state
 591              		.cfi_def_cfa_offset 24
 592 028c 4889DF   		movq	%rbx, %rdi
 593 028f 5B       		popq	%rbx
 594              		.cfi_def_cfa_offset 16
 595 0290 5D       		popq	%rbp
 596              		.cfi_def_cfa_offset 8
 597 0291 E9000000 		jmp	_ZdlPv@PLT
 597      00
 598              	.L43:
 599              		.cfi_restore_state
 600 0296 4889C5   		movq	%rax, %rbp
 601 0299 4889DF   		movq	%rbx, %rdi
 602 029c E8000000 		call	_ZdlPv@PLT
 602      00
 603 02a1 4889EF   		movq	%rbp, %rdi
 604              	.LEHB15:
 605 02a4 E8000000 		call	_Unwind_Resume@PLT
 605      00
 606              	.LEHE15:
 607              		.cfi_endproc
 608              	.LFE1304:
 609              		.section	.gcc_except_table
 610              	.LLSDA1304:
 611 0054 FF       		.byte	0xff
 612 0055 FF       		.byte	0xff
 613 0056 01       		.byte	0x1
 614 0057 08       		.uleb128 .LLSDACSE1304-.LLSDACSB1304
 615              	.LLSDACSB1304:
 616 0058 13       		.uleb128 .LEHB14-.LFB1304
 617 0059 05       		.uleb128 .LEHE14-.LEHB14
 618 005a 26       		.uleb128 .L43-.LFB1304
 619 005b 00       		.uleb128 0
 620 005c 34       		.uleb128 .LEHB15-.LFB1304
 621 005d 05       		.uleb128 .LEHE15-.LEHB15
 622 005e 00       		.uleb128 0
 623 005f 00       		.uleb128 0
 624              	.LLSDACSE1304:
 625              		.text
 627 02a9 90       		.align 2
 628 02aa 660F1F44 		.p2align 4,,15
 628      0000
 630              	_ZN12_GLOBAL__N_144TestStreamingMultipleTimesConcatenatesResultD0Ev:
 631              	.LFB1308:
 632              		.cfi_startproc
 633              		.cfi_personality 0x9b,DW.ref.__gxx_personality_v0
 634              		.cfi_lsda 0x1b,.LLSDA1308
 635 02b0 55       		pushq	%rbp
 636              		.cfi_def_cfa_offset 16
 637              		.cfi_offset 6, -16
 638 02b1 488D0500 		leaq	16+_ZTVN12_GLOBAL__N_144TestStreamingMultipleTimesConcatenatesResultE(%rip), %rax
 638      000000
 639 02b8 53       		pushq	%rbx
 640              		.cfi_def_cfa_offset 24
 641              		.cfi_offset 3, -24
 642 02b9 4889FB   		movq	%rdi, %rbx
 643 02bc 4883EC08 		subq	$8, %rsp
 644              		.cfi_def_cfa_offset 32
 645 02c0 488907   		movq	%rax, (%rdi)
 646              	.LEHB16:
 647 02c3 E8000000 		call	_ZN8UnitTest4TestD2Ev@PLT
 647      00
 648              	.LEHE16:
 649 02c8 4883C408 		addq	$8, %rsp
 650              		.cfi_remember_state
 651              		.cfi_def_cfa_offset 24
 652 02cc 4889DF   		movq	%rbx, %rdi
 653 02cf 5B       		popq	%rbx
 654              		.cfi_def_cfa_offset 16
 655 02d0 5D       		popq	%rbp
 656              		.cfi_def_cfa_offset 8
 657 02d1 E9000000 		jmp	_ZdlPv@PLT
 657      00
 658              	.L47:
 659              		.cfi_restore_state
 660 02d6 4889C5   		movq	%rax, %rbp
 661 02d9 4889DF   		movq	%rbx, %rdi
 662 02dc E8000000 		call	_ZdlPv@PLT
 662      00
 663 02e1 4889EF   		movq	%rbp, %rdi
 664              	.LEHB17:
 665 02e4 E8000000 		call	_Unwind_Resume@PLT
 665      00
 666              	.LEHE17:
 667              		.cfi_endproc
 668              	.LFE1308:
 669              		.section	.gcc_except_table
 670              	.LLSDA1308:
 671 0060 FF       		.byte	0xff
 672 0061 FF       		.byte	0xff
 673 0062 01       		.byte	0x1
 674 0063 08       		.uleb128 .LLSDACSE1308-.LLSDACSB1308
 675              	.LLSDACSB1308:
 676 0064 13       		.uleb128 .LEHB16-.LFB1308
 677 0065 05       		.uleb128 .LEHE16-.LEHB16
 678 0066 26       		.uleb128 .L47-.LFB1308
 679 0067 00       		.uleb128 0
 680 0068 34       		.uleb128 .LEHB17-.LFB1308
 681 0069 05       		.uleb128 .LEHE17-.LEHB17
 682 006a 00       		.uleb128 0
 683 006b 00       		.uleb128 0
 684              	.LLSDACSE1308:
 685              		.text
 687 02e9 90       		.align 2
 688 02ea 660F1F44 		.p2align 4,,15
 688      0000
 690              	_ZN12_GLOBAL__N_133TestStreamingTextCopiesCharactersD0Ev:
 691              	.LFB1312:
 692              		.cfi_startproc
 693              		.cfi_personality 0x9b,DW.ref.__gxx_personality_v0
 694              		.cfi_lsda 0x1b,.LLSDA1312
 695 02f0 55       		pushq	%rbp
 696              		.cfi_def_cfa_offset 16
 697              		.cfi_offset 6, -16
 698 02f1 488D0500 		leaq	16+_ZTVN12_GLOBAL__N_133TestStreamingTextCopiesCharactersE(%rip), %rax
 698      000000
 699 02f8 53       		pushq	%rbx
 700              		.cfi_def_cfa_offset 24
 701              		.cfi_offset 3, -24
 702 02f9 4889FB   		movq	%rdi, %rbx
 703 02fc 4883EC08 		subq	$8, %rsp
 704              		.cfi_def_cfa_offset 32
 705 0300 488907   		movq	%rax, (%rdi)
 706              	.LEHB18:
 707 0303 E8000000 		call	_ZN8UnitTest4TestD2Ev@PLT
 707      00
 708              	.LEHE18:
 709 0308 4883C408 		addq	$8, %rsp
 710              		.cfi_remember_state
 711              		.cfi_def_cfa_offset 24
 712 030c 4889DF   		movq	%rbx, %rdi
 713 030f 5B       		popq	%rbx
 714              		.cfi_def_cfa_offset 16
 715 0310 5D       		popq	%rbp
 716              		.cfi_def_cfa_offset 8
 717 0311 E9000000 		jmp	_ZdlPv@PLT
 717      00
 718              	.L51:
 719              		.cfi_restore_state
 720 0316 4889C5   		movq	%rax, %rbp
 721 0319 4889DF   		movq	%rbx, %rdi
 722 031c E8000000 		call	_ZdlPv@PLT
 722      00
 723 0321 4889EF   		movq	%rbp, %rdi
 724              	.LEHB19:
 725 0324 E8000000 		call	_Unwind_Resume@PLT
 725      00
 726              	.LEHE19:
 727              		.cfi_endproc
 728              	.LFE1312:
 729              		.section	.gcc_except_table
 730              	.LLSDA1312:
 731 006c FF       		.byte	0xff
 732 006d FF       		.byte	0xff
 733 006e 01       		.byte	0x1
 734 006f 08       		.uleb128 .LLSDACSE1312-.LLSDACSB1312
 735              	.LLSDACSB1312:
 736 0070 13       		.uleb128 .LEHB18-.LFB1312
 737 0071 05       		.uleb128 .LEHE18-.LEHB18
 738 0072 26       		.uleb128 .L51-.LFB1312
 739 0073 00       		.uleb128 0
 740 0074 34       		.uleb128 .LEHB19-.LFB1312
 741 0075 05       		.uleb128 .LEHE19-.LEHB19
 742 0076 00       		.uleb128 0
 743 0077 00       		.uleb128 0
 744              	.LLSDACSE1312:
 745              		.text
 747 0329 90       		.align 2
 748 032a 660F1F44 		.p2align 4,,15
 748      0000
 750              	_ZN12_GLOBAL__N_124TestDefaultIsEmptyStringD0Ev:
 751              	.LFB1316:
 752              		.cfi_startproc
 753              		.cfi_personality 0x9b,DW.ref.__gxx_personality_v0
 754              		.cfi_lsda 0x1b,.LLSDA1316
 755 0330 55       		pushq	%rbp
 756              		.cfi_def_cfa_offset 16
 757              		.cfi_offset 6, -16
 758 0331 488D0500 		leaq	16+_ZTVN12_GLOBAL__N_124TestDefaultIsEmptyStringE(%rip), %rax
 758      000000
 759 0338 53       		pushq	%rbx
 760              		.cfi_def_cfa_offset 24
 761              		.cfi_offset 3, -24
 762 0339 4889FB   		movq	%rdi, %rbx
 763 033c 4883EC08 		subq	$8, %rsp
 764              		.cfi_def_cfa_offset 32
 765 0340 488907   		movq	%rax, (%rdi)
 766              	.LEHB20:
 767 0343 E8000000 		call	_ZN8UnitTest4TestD2Ev@PLT
 767      00
 768              	.LEHE20:
 769 0348 4883C408 		addq	$8, %rsp
 770              		.cfi_remember_state
 771              		.cfi_def_cfa_offset 24
 772 034c 4889DF   		movq	%rbx, %rdi
 773 034f 5B       		popq	%rbx
 774              		.cfi_def_cfa_offset 16
 775 0350 5D       		popq	%rbp
 776              		.cfi_def_cfa_offset 8
 777 0351 E9000000 		jmp	_ZdlPv@PLT
 777      00
 778              	.L55:
 779              		.cfi_restore_state
 780 0356 4889C5   		movq	%rax, %rbp
 781 0359 4889DF   		movq	%rbx, %rdi
 782 035c E8000000 		call	_ZdlPv@PLT
 782      00
 783 0361 4889EF   		movq	%rbp, %rdi
 784              	.LEHB21:
 785 0364 E8000000 		call	_Unwind_Resume@PLT
 785      00
 786              	.LEHE21:
 787              		.cfi_endproc
 788              	.LFE1316:
 789              		.section	.gcc_except_table
 790              	.LLSDA1316:
 791 0078 FF       		.byte	0xff
 792 0079 FF       		.byte	0xff
 793 007a 01       		.byte	0x1
 794 007b 08       		.uleb128 .LLSDACSE1316-.LLSDACSB1316
 795              	.LLSDACSB1316:
 796 007c 13       		.uleb128 .LEHB20-.LFB1316
 797 007d 05       		.uleb128 .LEHE20-.LEHB20
 798 007e 26       		.uleb128 .L55-.LFB1316
 799 007f 00       		.uleb128 0
 800 0080 34       		.uleb128 .LEHB21-.LFB1316
 801 0081 05       		.uleb128 .LEHE21-.LEHB21
 802 0082 00       		.uleb128 0
 803 0083 00       		.uleb128 0
 804              	.LLSDACSE1316:
 805              		.text
 807              		.section	.text._ZN8UnitTest15MemoryOutStreamD1Ev,"axG",@progbits,_ZN8UnitTest15MemoryOutStreamD1Ev
 808              		.align 2
 809              		.p2align 4,,15
 810              		.weak	_ZN8UnitTest15MemoryOutStreamD1Ev
 812              	_ZN8UnitTest15MemoryOutStreamD1Ev:
 813              	.LFB1319:
 814              		.cfi_startproc
 815 0000 55       		pushq	%rbp
 816              		.cfi_def_cfa_offset 16
 817              		.cfi_offset 6, -16
 818 0001 488D0500 		leaq	24+_ZTVN8UnitTest15MemoryOutStreamE(%rip), %rax
 818      000000
 819 0008 53       		pushq	%rbx
 820              		.cfi_def_cfa_offset 24
 821              		.cfi_offset 3, -24
 822 0009 4889FB   		movq	%rdi, %rbx
 823 000c 4883EC08 		subq	$8, %rsp
 824              		.cfi_def_cfa_offset 32
 825 0010 488907   		movq	%rax, (%rdi)
 826 0013 4883C028 		addq	$40, %rax
 827 0017 48898790 		movq	%rax, 144(%rdi)
 827      000000
 828 001e 488B7F70 		movq	112(%rdi), %rdi
 829 0022 488D8380 		leaq	128(%rbx), %rax
 829      000000
 830 0029 4839C7   		cmpq	%rax, %rdi
 831 002c 7405     		je	.L58
 832 002e E8000000 		call	_ZdlPv@PLT
 832      00
 833              	.L58:
 834 0033 488D0500 		leaq	24+_ZTCN8UnitTest15MemoryOutStreamE0_NSt7__cxx1119basic_ostringstreamIcSt11char_traitsIcESaIc
 834      000000
 835 003a 488B7B50 		movq	80(%rbx), %rdi
 836 003e 488DAB90 		leaq	144(%rbx), %rbp
 836      000000
 837 0045 488903   		movq	%rax, (%rbx)
 838 0048 4883C028 		addq	$40, %rax
 839 004c 48898390 		movq	%rax, 144(%rbx)
 839      000000
 840 0053 488D0500 		leaq	16+_ZTVNSt7__cxx1115basic_stringbufIcSt11char_traitsIcESaIcEEE(%rip), %rax
 840      000000
 841 005a 48894308 		movq	%rax, 8(%rbx)
 842 005e 488D4360 		leaq	96(%rbx), %rax
 843 0062 4839C7   		cmpq	%rax, %rdi
 844 0065 7405     		je	.L59
 845 0067 E8000000 		call	_ZdlPv@PLT
 845      00
 846              	.L59:
 847 006c 488D0500 		leaq	16+_ZTVSt15basic_streambufIcSt11char_traitsIcEE(%rip), %rax
 847      000000
 848 0073 488D7B40 		leaq	64(%rbx), %rdi
 849 0077 48894308 		movq	%rax, 8(%rbx)
 850 007b E8000000 		call	_ZNSt6localeD1Ev@PLT
 850      00
 851 0080 488D0500 		leaq	24+_ZTCN8UnitTest15MemoryOutStreamE0_So(%rip), %rax
 851      000000
 852 0087 4889EF   		movq	%rbp, %rdi
 853 008a 488903   		movq	%rax, (%rbx)
 854 008d 488D0500 		leaq	16+_ZTVSt9basic_iosIcSt11char_traitsIcEE(%rip), %rax
 854      000000
 855 0094 48898390 		movq	%rax, 144(%rbx)
 855      000000
 856 009b 4883C408 		addq	$8, %rsp
 857              		.cfi_def_cfa_offset 24
 858 009f 5B       		popq	%rbx
 859              		.cfi_def_cfa_offset 16
 860 00a0 5D       		popq	%rbp
 861              		.cfi_def_cfa_offset 8
 862 00a1 E9000000 		jmp	_ZNSt8ios_baseD2Ev@PLT
 862      00
 863              		.cfi_endproc
 864              	.LFE1319:
 866              		.section	.text._ZN8UnitTest15MemoryOutStreamD0Ev,"axG",@progbits,_ZN8UnitTest15MemoryOutStreamD0Ev
 867              		.p2align 4,,15
 868              		.weak	_ZTv0_n24_N8UnitTest15MemoryOutStreamD0Ev
 870              	_ZTv0_n24_N8UnitTest15MemoryOutStreamD0Ev:
 871              	.LFB1335:
 872              		.cfi_startproc
 873              		.cfi_personality 0x9b,DW.ref.__gxx_personality_v0
 874              		.cfi_lsda 0x1b,.LLSDA1335
 875 0000 55       		pushq	%rbp
 876              		.cfi_def_cfa_offset 16
 877              		.cfi_offset 6, -16
 878 0001 53       		pushq	%rbx
 879              		.cfi_def_cfa_offset 24
 880              		.cfi_offset 3, -24
 881 0002 4883EC08 		subq	$8, %rsp
 882              		.cfi_def_cfa_offset 32
 883 0006 488B07   		movq	(%rdi), %rax
 884 0009 480378E8 		addq	-24(%rax), %rdi
 885 000d 488D0500 		leaq	24+_ZTVN8UnitTest15MemoryOutStreamE(%rip), %rax
 885      000000
 886 0014 488907   		movq	%rax, (%rdi)
 887 0017 4883C028 		addq	$40, %rax
 888 001b 4889FB   		movq	%rdi, %rbx
 889 001e 48898790 		movq	%rax, 144(%rdi)
 889      000000
 890 0025 488B7F70 		movq	112(%rdi), %rdi
 891 0029 488D8380 		leaq	128(%rbx), %rax
 891      000000
 892 0030 4839C7   		cmpq	%rax, %rdi
 893 0033 7405     		je	.L62
 894 0035 E8000000 		call	_ZdlPv@PLT
 894      00
 895              	.L62:
 896 003a 488D0500 		leaq	24+_ZTCN8UnitTest15MemoryOutStreamE0_NSt7__cxx1119basic_ostringstreamIcSt11char_traitsIcESaIc
 896      000000
 897 0041 488B7B50 		movq	80(%rbx), %rdi
 898 0045 488DAB90 		leaq	144(%rbx), %rbp
 898      000000
 899 004c 488903   		movq	%rax, (%rbx)
 900 004f 4883C028 		addq	$40, %rax
 901 0053 48898390 		movq	%rax, 144(%rbx)
 901      000000
 902 005a 488D0500 		leaq	16+_ZTVNSt7__cxx1115basic_stringbufIcSt11char_traitsIcESaIcEEE(%rip), %rax
 902      000000
 903 0061 48894308 		movq	%rax, 8(%rbx)
 904 0065 488D4360 		leaq	96(%rbx), %rax
 905 0069 4839C7   		cmpq	%rax, %rdi
 906 006c 7405     		je	.L63
 907 006e E8000000 		call	_ZdlPv@PLT
 907      00
 908              	.L63:
 909 0073 488D0500 		leaq	16+_ZTVSt15basic_streambufIcSt11char_traitsIcEE(%rip), %rax
 909      000000
 910 007a 488D7B40 		leaq	64(%rbx), %rdi
 911 007e 48894308 		movq	%rax, 8(%rbx)
 912 0082 E8000000 		call	_ZNSt6localeD1Ev@PLT
 912      00
 913 0087 488D0500 		leaq	24+_ZTCN8UnitTest15MemoryOutStreamE0_So(%rip), %rax
 913      000000
 914 008e 4889EF   		movq	%rbp, %rdi
 915 0091 488903   		movq	%rax, (%rbx)
 916 0094 488D0500 		leaq	16+_ZTVSt9basic_iosIcSt11char_traitsIcEE(%rip), %rax
 916      000000
 917 009b 48898390 		movq	%rax, 144(%rbx)
 917      000000
 918              	.LEHB22:
 919 00a2 E8000000 		call	_ZNSt8ios_baseD2Ev@PLT
 919      00
 920              	.LEHE22:
 921 00a7 4883C408 		addq	$8, %rsp
 922              		.cfi_remember_state
 923              		.cfi_def_cfa_offset 24
 924 00ab 4889DF   		movq	%rbx, %rdi
 925 00ae 5B       		popq	%rbx
 926              		.cfi_def_cfa_offset 16
 927 00af 5D       		popq	%rbp
 928              		.cfi_def_cfa_offset 8
 929 00b0 E9000000 		jmp	_ZdlPv@PLT
 929      00
 930              	.L65:
 931              		.cfi_restore_state
 932 00b5 4889C5   		movq	%rax, %rbp
 933 00b8 4889DF   		movq	%rbx, %rdi
 934 00bb E8000000 		call	_ZdlPv@PLT
 934      00
 935 00c0 4889EF   		movq	%rbp, %rdi
 936              	.LEHB23:
 937 00c3 E8000000 		call	_Unwind_Resume@PLT
 937      00
 938              	.LEHE23:
 939              		.cfi_endproc
 940              	.LFE1335:
 941              		.section	.gcc_except_table
 942              	.LLSDA1335:
 943 0084 FF       		.byte	0xff
 944 0085 FF       		.byte	0xff
 945 0086 01       		.byte	0x1
 946 0087 0B       		.uleb128 .LLSDACSE1335-.LLSDACSB1335
 947              	.LLSDACSB1335:
 948 0088 A201     		.uleb128 .LEHB22-.LFB1335
 949 008a 05       		.uleb128 .LEHE22-.LEHB22
 950 008b B501     		.uleb128 .L65-.LFB1335
 951 008d 00       		.uleb128 0
 952 008e C301     		.uleb128 .LEHB23-.LFB1335
 953 0090 05       		.uleb128 .LEHE23-.LEHB23
 954 0091 00       		.uleb128 0
 955 0092 00       		.uleb128 0
 956              	.LLSDACSE1335:
 957              		.section	.text._ZN8UnitTest15MemoryOutStreamD0Ev,"axG",@progbits,_ZN8UnitTest15MemoryOutStreamD0Ev
 959              		.section	.text._ZN8UnitTest15MemoryOutStreamD1Ev,"axG",@progbits,_ZN8UnitTest15MemoryOutStreamD1Ev
 960 00a6 662E0F1F 		.p2align 4,,15
 960      84000000 
 960      0000
 961              		.weak	_ZTv0_n24_N8UnitTest15MemoryOutStreamD1Ev
 963              	_ZTv0_n24_N8UnitTest15MemoryOutStreamD1Ev:
 964              	.LFB1336:
 965              		.cfi_startproc
 966 00b0 55       		pushq	%rbp
 967              		.cfi_def_cfa_offset 16
 968              		.cfi_offset 6, -16
 969 00b1 53       		pushq	%rbx
 970              		.cfi_def_cfa_offset 24
 971              		.cfi_offset 3, -24
 972 00b2 4883EC08 		subq	$8, %rsp
 973              		.cfi_def_cfa_offset 32
 974 00b6 488B07   		movq	(%rdi), %rax
 975 00b9 480378E8 		addq	-24(%rax), %rdi
 976 00bd 488D0500 		leaq	24+_ZTVN8UnitTest15MemoryOutStreamE(%rip), %rax
 976      000000
 977 00c4 488907   		movq	%rax, (%rdi)
 978 00c7 4883C028 		addq	$40, %rax
 979 00cb 4889FB   		movq	%rdi, %rbx
 980 00ce 48898790 		movq	%rax, 144(%rdi)
 980      000000
 981 00d5 488B7F70 		movq	112(%rdi), %rdi
 982 00d9 488D8380 		leaq	128(%rbx), %rax
 982      000000
 983 00e0 4839C7   		cmpq	%rax, %rdi
 984 00e3 7405     		je	.L68
 985 00e5 E8000000 		call	_ZdlPv@PLT
 985      00
 986              	.L68:
 987 00ea 488D0500 		leaq	24+_ZTCN8UnitTest15MemoryOutStreamE0_NSt7__cxx1119basic_ostringstreamIcSt11char_traitsIcESaIc
 987      000000
 988 00f1 488B7B50 		movq	80(%rbx), %rdi
 989 00f5 488DAB90 		leaq	144(%rbx), %rbp
 989      000000
 990 00fc 488903   		movq	%rax, (%rbx)
 991 00ff 4883C028 		addq	$40, %rax
 992 0103 48898390 		movq	%rax, 144(%rbx)
 992      000000
 993 010a 488D0500 		leaq	16+_ZTVNSt7__cxx1115basic_stringbufIcSt11char_traitsIcESaIcEEE(%rip), %rax
 993      000000
 994 0111 48894308 		movq	%rax, 8(%rbx)
 995 0115 488D4360 		leaq	96(%rbx), %rax
 996 0119 4839C7   		cmpq	%rax, %rdi
 997 011c 7405     		je	.L69
 998 011e E8000000 		call	_ZdlPv@PLT
 998      00
 999              	.L69:
 1000 0123 488D0500 		leaq	16+_ZTVSt15basic_streambufIcSt11char_traitsIcEE(%rip), %rax
 1000      000000
 1001 012a 488D7B40 		leaq	64(%rbx), %rdi
 1002 012e 48894308 		movq	%rax, 8(%rbx)
 1003 0132 E8000000 		call	_ZNSt6localeD1Ev@PLT
 1003      00
 1004 0137 488D0500 		leaq	24+_ZTCN8UnitTest15MemoryOutStreamE0_So(%rip), %rax
 1004      000000
 1005 013e 4889EF   		movq	%rbp, %rdi
 1006 0141 488903   		movq	%rax, (%rbx)
 1007 0144 488D0500 		leaq	16+_ZTVSt9basic_iosIcSt11char_traitsIcEE(%rip), %rax
 1007      000000
 1008 014b 48898390 		movq	%rax, 144(%rbx)
 1008      000000
 1009 0152 4883C408 		addq	$8, %rsp
 1010              		.cfi_def_cfa_offset 24
 1011 0156 5B       		popq	%rbx
 1012              		.cfi_def_cfa_offset 16
 1013 0157 5D       		popq	%rbp
 1014              		.cfi_def_cfa_offset 8
 1015 0158 E9000000 		jmp	_ZNSt8ios_baseD2Ev@PLT
 1015      00
 1016              		.cfi_endproc
 1017              	.LFE1336:
 1019              		.section	.text._ZN8UnitTest15MemoryOutStreamD0Ev,"axG",@progbits,_ZN8UnitTest15MemoryOutStreamD0Ev
 1020              		.align 2
 1021 00c8 0F1F8400 		.p2align 4,,15
 1021      00000000 
 1022              		.weak	_ZN8UnitTest15MemoryOutStreamD0Ev
 1024              	_ZN8UnitTest15MemoryOutStreamD0Ev:
 1025              	.LFB1320:
 1026              		.cfi_startproc
 1027              		.cfi_personality 0x9b,DW.ref.__gxx_personality_v0
 1028              		.cfi_lsda 0x1b,.LLSDA1320
 1029 00d0 55       		pushq	%rbp
 1030              		.cfi_def_cfa_offset 16
 1031              		.cfi_offset 6, -16
 1032 00d1 488D0500 		leaq	24+_ZTVN8UnitTest15MemoryOutStreamE(%rip), %rax
 1032      000000
 1033 00d8 53       		pushq	%rbx
 1034              		.cfi_def_cfa_offset 24
 1035              		.cfi_offset 3, -24
 1036 00d9 4889FB   		movq	%rdi, %rbx
 1037 00dc 4883EC08 		subq	$8, %rsp
 1038              		.cfi_def_cfa_offset 32
 1039 00e0 488907   		movq	%rax, (%rdi)
 1040 00e3 4883C028 		addq	$40, %rax
 1041 00e7 48898790 		movq	%rax, 144(%rdi)
 1041      000000
 1042 00ee 488B7F70 		movq	112(%rdi), %rdi
 1043 00f2 488D8380 		leaq	128(%rbx), %rax
 1043      000000
 1044 00f9 4839C7   		cmpq	%rax, %rdi
 1045 00fc 7405     		je	.L72
 1046 00fe E8000000 		call	_ZdlPv@PLT
 1046      00
 1047              	.L72:
 1048 0103 488D0500 		leaq	24+_ZTCN8UnitTest15MemoryOutStreamE0_NSt7__cxx1119basic_ostringstreamIcSt11char_traitsIcESaIc
 1048      000000
 1049 010a 488B7B50 		movq	80(%rbx), %rdi
 1050 010e 488DAB90 		leaq	144(%rbx), %rbp
 1050      000000
 1051 0115 488903   		movq	%rax, (%rbx)
 1052 0118 4883C028 		addq	$40, %rax
 1053 011c 48898390 		movq	%rax, 144(%rbx)
 1053      000000
 1054 0123 488D0500 		leaq	16+_ZTVNSt7__cxx1115basic_stringbufIcSt11char_traitsIcESaIcEEE(%rip), %rax
 1054      000000
 1055 012a 48894308 		movq	%rax, 8(%rbx)
 1056 012e 488D4360 		leaq	96(%rbx), %rax
 1057 0132 4839C7   		cmpq	%rax, %rdi
 1058 0135 7405     		je	.L73
 1059 0137 E8000000 		call	_ZdlPv@PLT
 1059      00
 1060              	.L73:
 1061 013c 488D0500 		leaq	16+_ZTVSt15basic_streambufIcSt11char_traitsIcEE(%rip), %rax
 1061      000000
 1062 0143 488D7B40 		leaq	64(%rbx), %rdi
 1063 0147 48894308 		movq	%rax, 8(%rbx)
 1064 014b E8000000 		call	_ZNSt6localeD1Ev@PLT
 1064      00
 1065 0150 488D0500 		leaq	24+_ZTCN8UnitTest15MemoryOutStreamE0_So(%rip), %rax
 1065      000000
 1066 0157 4889EF   		movq	%rbp, %rdi
 1067 015a 488903   		movq	%rax, (%rbx)
 1068 015d 488D0500 		leaq	16+_ZTVSt9basic_iosIcSt11char_traitsIcEE(%rip), %rax
 1068      000000
 1069 0164 48898390 		movq	%rax, 144(%rbx)
 1069      000000
 1070              	.LEHB24:
 1071 016b E8000000 		call	_ZNSt8ios_baseD2Ev@PLT
 1071      00
 1072              	.LEHE24:
 1073 0170 4883C408 		addq	$8, %rsp
 1074              		.cfi_remember_state
 1075              		.cfi_def_cfa_offset 24
 1076 0174 4889DF   		movq	%rbx, %rdi
 1077 0177 5B       		popq	%rbx
 1078              		.cfi_def_cfa_offset 16
 1079 0178 5D       		popq	%rbp
 1080              		.cfi_def_cfa_offset 8
 1081 0179 E9000000 		jmp	_ZdlPv@PLT
 1081      00
 1082              	.L75:
 1083              		.cfi_restore_state
 1084 017e 4889C5   		movq	%rax, %rbp
 1085 0181 4889DF   		movq	%rbx, %rdi
 1086 0184 E8000000 		call	_ZdlPv@PLT
 1086      00
 1087 0189 4889EF   		movq	%rbp, %rdi
 1088              	.LEHB25:
 1089 018c E8000000 		call	_Unwind_Resume@PLT
 1089      00
 1090              	.LEHE25:
 1091              		.cfi_endproc
 1092              	.LFE1320:
 1093              		.section	.gcc_except_table
 1094              	.LLSDA1320:
 1095 0093 FF       		.byte	0xff
 1096 0094 FF       		.byte	0xff
 1097 0095 01       		.byte	0x1
 1098 0096 0B       		.uleb128 .LLSDACSE1320-.LLSDACSB1320
 1099              	.LLSDACSB1320:
 1100 0097 9B01     		.uleb128 .LEHB24-.LFB1320
 1101 0099 05       		.uleb128 .LEHE24-.LEHB24
 1102 009a AE01     		.uleb128 .L75-.LFB1320
 1103 009c 00       		.uleb128 0
 1104 009d BC01     		.uleb128 .LEHB25-.LFB1320
 1105 009f 05       		.uleb128 .LEHE25-.LEHB25
 1106 00a0 00       		.uleb128 0
 1107 00a1 00       		.uleb128 0
 1108              	.LLSDACSE1320:
 1109              		.section	.text._ZN8UnitTest15MemoryOutStreamD0Ev,"axG",@progbits,_ZN8UnitTest15MemoryOutStreamD0Ev
 1111              		.section	.text._ZNSt7__cxx1115basic_stringbufIcSt11char_traitsIcESaIcEED2Ev,"axG",@progbits,_ZNSt7
 1112              		.align 2
 1113              		.p2align 4,,15
 1114              		.weak	_ZNSt7__cxx1115basic_stringbufIcSt11char_traitsIcESaIcEED2Ev
 1116              	_ZNSt7__cxx1115basic_stringbufIcSt11char_traitsIcESaIcEED2Ev:
 1117              	.LFB1195:
 1118              		.cfi_startproc
 1119 0000 488D0500 		leaq	16+_ZTVNSt7__cxx1115basic_stringbufIcSt11char_traitsIcESaIcEEE(%rip), %rax
 1119      000000
 1120 0007 53       		pushq	%rbx
 1121              		.cfi_def_cfa_offset 16
 1122              		.cfi_offset 3, -16
 1123 0008 4889FB   		movq	%rdi, %rbx
 1124 000b 488907   		movq	%rax, (%rdi)
 1125 000e 488B7F48 		movq	72(%rdi), %rdi
 1126 0012 488D4358 		leaq	88(%rbx), %rax
 1127 0016 4839C7   		cmpq	%rax, %rdi
 1128 0019 7405     		je	.L78
 1129 001b E8000000 		call	_ZdlPv@PLT
 1129      00
 1130              	.L78:
 1131 0020 488D0500 		leaq	16+_ZTVSt15basic_streambufIcSt11char_traitsIcEE(%rip), %rax
 1131      000000
 1132 0027 488D7B38 		leaq	56(%rbx), %rdi
 1133 002b 488903   		movq	%rax, (%rbx)
 1134 002e 5B       		popq	%rbx
 1135              		.cfi_def_cfa_offset 8
 1136 002f E9000000 		jmp	_ZNSt6localeD1Ev@PLT
 1136      00
 1137              		.cfi_endproc
 1138              	.LFE1195:
 1140              		.weak	_ZNSt7__cxx1115basic_stringbufIcSt11char_traitsIcESaIcEED1Ev
 1141              		.set	_ZNSt7__cxx1115basic_stringbufIcSt11char_traitsIcESaIcEED1Ev,_ZNSt7__cxx1115basic_stringbufIc
 1142              		.section	.rodata.str1.1,"aMS",@progbits,1
 1143              	.LC0:
 1144 0000 73747265 		.string	"stream.GetText() != 0"
 1144      616D2E47 
 1144      65745465 
 1144      78742829 
 1144      20213D20 
 1145              	.LC1:
 1146 0016 00       		.string	""
 1147              		.section	.rodata.str1.8,"aMS",@progbits,1
 1148              		.align 8
 1149              	.LC2:
 1150 0000 556E6861 		.string	"Unhandled exception in CHECK(stream.GetText() != 0)"
 1150      6E646C65 
 1150      64206578 
 1150      63657074 
 1150      696F6E20 
 1151 0034 00000000 		.align 8
 1152              	.LC3:
 1153 0038 556E6861 		.string	"Unhandled exception in CHECK_EQUAL(\"\", stream.GetText())"
 1153      6E646C65 
 1153      64206578 
 1153      63657074 
 1153      696F6E20 
 1154              		.text
 1155 0369 90       		.align 2
 1156 036a 660F1F44 		.p2align 4,,15
 1156      0000
 1158              	_ZNK12_GLOBAL__N_124TestDefaultIsEmptyString7RunImplEv:
 1159              	.LFB1145:
 1160              		.cfi_startproc
 1161              		.cfi_personality 0x9b,DW.ref.__gxx_personality_v0
 1162              		.cfi_lsda 0x1b,.LLSDA1145
 1163 0370 4157     		pushq	%r15
 1164              		.cfi_def_cfa_offset 16
 1165              		.cfi_offset 15, -16
 1166 0372 4156     		pushq	%r14
 1167              		.cfi_def_cfa_offset 24
 1168              		.cfi_offset 14, -24
 1169 0374 4155     		pushq	%r13
 1170              		.cfi_def_cfa_offset 32
 1171              		.cfi_offset 13, -32
 1172 0376 4154     		pushq	%r12
 1173              		.cfi_def_cfa_offset 40
 1174              		.cfi_offset 12, -40
 1175 0378 55       		pushq	%rbp
 1176              		.cfi_def_cfa_offset 48
 1177              		.cfi_offset 6, -48
 1178 0379 53       		pushq	%rbx
 1179              		.cfi_def_cfa_offset 56
 1180              		.cfi_offset 3, -56
 1181 037a 488D2D00 		leaq	24+_ZTCN8UnitTest15MemoryOutStreamE0_So(%rip), %rbp
 1181      000000
 1182 0381 4881ECD8 		subq	$472, %rsp
 1182      010000
 1183              		.cfi_def_cfa_offset 528
 1184 0388 488D5C24 		leaq	48(%rsp), %rbx
 1184      30
 1185 038d 64488B04 		movq	%fs:40, %rax
 1185      25280000 
 1185      00
 1186 0396 48898424 		movq	%rax, 456(%rsp)
 1186      C8010000 
 1187 039e 31C0     		xorl	%eax, %eax
 1188 03a0 4C8DA390 		leaq	144(%rbx), %r12
 1188      000000
 1189 03a7 4C89E7   		movq	%r12, %rdi
 1190 03aa E8000000 		call	_ZNSt8ios_baseC2Ev@PLT
 1190      00
 1191 03af 488D4528 		leaq	40(%rbp), %rax
 1192 03b3 31F6     		xorl	%esi, %esi
 1193 03b5 4C89E7   		movq	%r12, %rdi
 1194 03b8 48C78424 		movq	$0, 408(%rsp)
 1194      98010000 
 1194      00000000 
 1195 03c4 C68424A0 		movb	$0, 416(%rsp)
 1195      01000000 
 1196 03cc C68424A1 		movb	$0, 417(%rsp)
 1196      01000000 
 1197 03d4 48C78424 		movq	$0, 424(%rsp)
 1197      A8010000 
 1197      00000000 
 1198 03e0 48C78424 		movq	$0, 432(%rsp)
 1198      B0010000 
 1198      00000000 
 1199 03ec 48C78424 		movq	$0, 440(%rsp)
 1199      B8010000 
 1199      00000000 
 1200 03f8 48C78424 		movq	$0, 448(%rsp)
 1200      C0010000 
 1200      00000000 
 1201 0404 48896C24 		movq	%rbp, 48(%rsp)
 1201      30
 1202 0409 48898424 		movq	%rax, 192(%rsp)
 1202      C0000000 
 1203              	.LEHB26:
 1204 0411 E8000000 		call	_ZNSt9basic_iosIcSt11char_traitsIcEE4initEPSt15basic_streambufIcS1_E@PLT
 1204      00
 1205              	.LEHE26:
 1206 0416 488D0500 		leaq	24+_ZTCN8UnitTest15MemoryOutStreamE0_NSt7__cxx1119basic_ostringstreamIcSt11char_traitsIcESaIc
 1206      000000
 1207 041d 660FEFC0 		pxor	%xmm0, %xmm0
 1208 0421 488D7B40 		leaq	64(%rbx), %rdi
 1209 0425 4C8D2D00 		leaq	16+_ZTVSt15basic_streambufIcSt11char_traitsIcEE(%rip), %r13
 1209      000000
 1210 042c 4C8D6028 		leaq	40(%rax), %r12
 1211 0430 48894424 		movq	%rax, 48(%rsp)
 1211      30
 1212 0435 4C896C24 		movq	%r13, 56(%rsp)
 1212      38
 1213 043a 4C89A424 		movq	%r12, 192(%rsp)
 1213      C0000000 
 1214 0442 0F294424 		movaps	%xmm0, 64(%rsp)
 1214      40
 1215 0447 0F294424 		movaps	%xmm0, 80(%rsp)
 1215      50
 1216 044c 0F294424 		movaps	%xmm0, 96(%rsp)
 1216      60
 1217 0451 E8000000 		call	_ZNSt6localeC1Ev@PLT
 1217      00
 1218 0456 488D0500 		leaq	16+_ZTVNSt7__cxx1115basic_stringbufIcSt11char_traitsIcESaIcEEE(%rip), %rax
 1218      000000
 1219 045d 488D7308 		leaq	8(%rbx), %rsi
 1220 0461 48894424 		movq	%rax, 56(%rsp)
 1220      38
 1221 0466 488D4360 		leaq	96(%rbx), %rax
 1222 046a C7442478 		movl	$16, 120(%rsp)
 1222      10000000 
 1223 0472 48C78424 		movq	$0, 136(%rsp)
 1223      88000000 
 1223      00000000 
 1224 047e C6842490 		movb	$0, 144(%rsp)
 1224      00000000 
 1225 0486 48898424 		movq	%rax, 128(%rsp)
 1225      80000000 
 1226 048e 488B4424 		movq	48(%rsp), %rax
 1226      30
 1227 0493 488B78E8 		movq	-24(%rax), %rdi
 1228 0497 4801DF   		addq	%rbx, %rdi
 1229              	.LEHB27:
 1230 049a E8000000 		call	_ZNSt9basic_iosIcSt11char_traitsIcEE4initEPSt15basic_streambufIcS1_E@PLT
 1230      00
 1231              	.LEHE27:
 1232 049f 4C8D3D00 		leaq	24+_ZTVN8UnitTest15MemoryOutStreamE(%rip), %r15
 1232      000000
 1233 04a6 488D8380 		leaq	128(%rbx), %rax
 1233      000000
 1234 04ad 4889DF   		movq	%rbx, %rdi
 1235 04b0 48C78424 		movq	$0, 168(%rsp)
 1235      A8000000 
 1235      00000000 
 1236 04bc C68424B0 		movb	$0, 176(%rsp)
 1236      00000000 
 1237 04c4 4D8D7728 		leaq	40(%r15), %r14
 1238 04c8 4C897C24 		movq	%r15, 48(%rsp)
 1238      30
 1239 04cd 48898424 		movq	%rax, 160(%rsp)
 1239      A0000000 
 1240 04d5 4C89B424 		movq	%r14, 192(%rsp)
 1240      C0000000 
 1241              	.LEHB28:
 1242 04dd E8000000 		call	_ZNK8UnitTest15MemoryOutStream7GetTextEv@PLT
 1242      00
 1243              	.LEHE28:
 1244 04e2 4885C0   		testq	%rax, %rax
 1245 04e5 0F84F500 		je	.L107
 1245      0000
 1246              	.L86:
 1247              	.LEHB29:
 1248 04eb E8000000 		call	_ZN8UnitTest11CurrentTest7DetailsEv@PLT
 1248      00
 1249 04f0 488D4C24 		leaq	16(%rsp), %rcx
 1249      10
 1250 04f5 488B30   		movq	(%rax), %rsi
 1251 04f8 BA0F0000 		movl	$15, %edx
 1251      00
 1252 04fd 4889CF   		movq	%rcx, %rdi
 1253 0500 48890C24 		movq	%rcx, (%rsp)
 1254 0504 E8000000 		call	_ZN8UnitTest11TestDetailsC1ERKS0_i@PLT
 1254      00
 1255 0509 4889DF   		movq	%rbx, %rdi
 1256 050c E8000000 		call	_ZNK8UnitTest15MemoryOutStream7GetTextEv@PLT
 1256      00
 1257 0511 48894424 		movq	%rax, 8(%rsp)
 1257      08
 1258 0516 E8000000 		call	_ZN8UnitTest11CurrentTest7ResultsEv@PLT
 1258      00
 1259 051b 488B0C24 		movq	(%rsp), %rcx
 1260 051f 488B5424 		movq	8(%rsp), %rdx
 1260      08
 1261 0524 488D3500 		leaq	.LC1(%rip), %rsi
 1261      000000
 1262 052b 488B38   		movq	(%rax), %rdi
 1263 052e E8000000 		call	_ZN8UnitTest10CheckEqualERNS_11TestResultsEPKcS3_RKNS_11TestDetailsE@PLT
 1263      00
 1264              	.LEHE29:
 1265              	.L94:
 1266 0533 488BBC24 		movq	160(%rsp), %rdi
 1266      A0000000 
 1267 053b 488D8380 		leaq	128(%rbx), %rax
 1267      000000
 1268 0542 4C897C24 		movq	%r15, 48(%rsp)
 1268      30
 1269 0547 4C89B424 		movq	%r14, 192(%rsp)
 1269      C0000000 
 1270 054f 4839C7   		cmpq	%rax, %rdi
 1271 0552 7405     		je	.L87
 1272 0554 E8000000 		call	_ZdlPv@PLT
 1272      00
 1273              	.L87:
 1274 0559 488BBC24 		movq	128(%rsp), %rdi
 1274      80000000 
 1275 0561 F30F7E05 		movq	.LC4(%rip), %xmm0
 1275      00000000 
 1276 0569 488D4360 		leaq	96(%rbx), %rax
 1277 056d 0F160500 		movhps	.LC5(%rip), %xmm0
 1277      000000
 1278 0574 4C89A424 		movq	%r12, 192(%rsp)
 1278      C0000000 
 1279 057c 4839C7   		cmpq	%rax, %rdi
 1280 057f 0F294424 		movaps	%xmm0, 48(%rsp)
 1280      30
 1281 0584 7405     		je	.L88
 1282 0586 E8000000 		call	_ZdlPv@PLT
 1282      00
 1283              	.L88:
 1284 058b 488D7B40 		leaq	64(%rbx), %rdi
 1285 058f 4C896C24 		movq	%r13, 56(%rsp)
 1285      38
 1286 0594 E8000000 		call	_ZNSt6localeD1Ev@PLT
 1286      00
 1287 0599 488D0500 		leaq	16+_ZTVSt9basic_iosIcSt11char_traitsIcEE(%rip), %rax
 1287      000000
 1288 05a0 488DBB90 		leaq	144(%rbx), %rdi
 1288      000000
 1289 05a7 48896C24 		movq	%rbp, 48(%rsp)
 1289      30
 1290 05ac 48898424 		movq	%rax, 192(%rsp)
 1290      C0000000 
 1291              	.LEHB30:
 1292 05b4 E8000000 		call	_ZNSt8ios_baseD2Ev@PLT
 1292      00
 1293              	.LEHE30:
 1294 05b9 488B8424 		movq	456(%rsp), %rax
 1294      C8010000 
 1295 05c1 64483304 		xorq	%fs:40, %rax
 1295      25280000 
 1295      00
 1296 05ca 7559     		jne	.L108
 1297 05cc 4881C4D8 		addq	$472, %rsp
 1297      010000
 1298              		.cfi_remember_state
 1299              		.cfi_def_cfa_offset 56
 1300 05d3 5B       		popq	%rbx
 1301              		.cfi_def_cfa_offset 48
 1302 05d4 5D       		popq	%rbp
 1303              		.cfi_def_cfa_offset 40
 1304 05d5 415C     		popq	%r12
 1305              		.cfi_def_cfa_offset 32
 1306 05d7 415D     		popq	%r13
 1307              		.cfi_def_cfa_offset 24
 1308 05d9 415E     		popq	%r14
 1309              		.cfi_def_cfa_offset 16
 1310 05db 415F     		popq	%r15
 1311              		.cfi_def_cfa_offset 8
 1312 05dd C3       		ret
 1313 05de 6690     		.p2align 4,,10
 1314              		.p2align 3
 1315              	.L107:
 1316              		.cfi_restore_state
 1317              	.LEHB31:
 1318 05e0 E8000000 		call	_ZN8UnitTest11CurrentTest7ResultsEv@PLT
 1318      00
 1319 05e5 488B00   		movq	(%rax), %rax
 1320 05e8 48894424 		movq	%rax, 8(%rsp)
 1320      08
 1321 05ed E8000000 		call	_ZN8UnitTest11CurrentTest7DetailsEv@PLT
 1321      00
 1322 05f2 488D4C24 		leaq	16(%rsp), %rcx
 1322      10
 1323 05f7 488B30   		movq	(%rax), %rsi
 1324 05fa BA0E0000 		movl	$14, %edx
 1324      00
 1325 05ff 4889CF   		movq	%rcx, %rdi
 1326 0602 48890C24 		movq	%rcx, (%rsp)
 1327 0606 E8000000 		call	_ZN8UnitTest11TestDetailsC1ERKS0_i@PLT
 1327      00
 1328 060b 488B3424 		movq	(%rsp), %rsi
 1329 060f 488B7C24 		movq	8(%rsp), %rdi
 1329      08
 1330 0614 488D1500 		leaq	.LC0(%rip), %rdx
 1330      000000
 1331 061b E8000000 		call	_ZN8UnitTest11TestResults13OnTestFailureERKNS_11TestDetailsEPKc@PLT
 1331      00
 1332              	.LEHE31:
 1333 0620 E9C6FEFF 		jmp	.L86
 1333      FF
 1334              	.L108:
 1335 0625 E8000000 		call	__stack_chk_fail@PLT
 1335      00
 1336              	.L100:
 1337 062a 4889C7   		movq	%rax, %rdi
 1338 062d E8000000 		call	__cxa_begin_catch@PLT
 1338      00
 1339              	.LEHB32:
 1340 0632 E8000000 		call	_ZN8UnitTest11CurrentTest7ResultsEv@PLT
 1340      00
 1341 0637 488B00   		movq	(%rax), %rax
 1342 063a 48894424 		movq	%rax, 8(%rsp)
 1342      08
 1343 063f E8000000 		call	_ZN8UnitTest11CurrentTest7DetailsEv@PLT
 1343      00
 1344 0644 488D4C24 		leaq	16(%rsp), %rcx
 1344      10
 1345 0649 488B30   		movq	(%rax), %rsi
 1346 064c BA0F0000 		movl	$15, %edx
 1346      00
 1347 0651 4889CF   		movq	%rcx, %rdi
 1348 0654 48890C24 		movq	%rcx, (%rsp)
 1349 0658 E8000000 		call	_ZN8UnitTest11TestDetailsC1ERKS0_i@PLT
 1349      00
 1350 065d 488B3424 		movq	(%rsp), %rsi
 1351 0661 488B7C24 		movq	8(%rsp), %rdi
 1351      08
 1352 0666 488D1500 		leaq	.LC3(%rip), %rdx
 1352      000000
 1353 066d E8000000 		call	_ZN8UnitTest11TestResults13OnTestFailureERKNS_11TestDetailsEPKc@PLT
 1353      00
 1354              	.LEHE32:
 1355              	.LEHB33:
 1356 0672 E8000000 		call	__cxa_end_catch@PLT
 1356      00
 1357              	.LEHE33:
 1358 0677 E9B7FEFF 		jmp	.L94
 1358      FF
 1359              	.L103:
 1360 067c 488D7B08 		leaq	8(%rbx), %rdi
 1361 0680 4989C4   		movq	%rax, %r12
 1362 0683 E8000000 		call	_ZNSt7__cxx1115basic_stringbufIcSt11char_traitsIcESaIcEED1Ev
 1362      00
 1363 0688 48896C24 		movq	%rbp, 48(%rsp)
 1363      30
 1364              	.L83:
 1365 068d 488D0500 		leaq	16+_ZTVSt9basic_iosIcSt11char_traitsIcEE(%rip), %rax
 1365      000000
 1366 0694 488DBB90 		leaq	144(%rbx), %rdi
 1366      000000
 1367 069b 48898424 		movq	%rax, 192(%rsp)
 1367      C0000000 
 1368 06a3 E8000000 		call	_ZNSt8ios_baseD2Ev@PLT
 1368      00
 1369 06a8 4C89E7   		movq	%r12, %rdi
 1370              	.LEHB34:
 1371 06ab E8000000 		call	_Unwind_Resume@PLT
 1371      00
 1372              	.LEHE34:
 1373              	.L98:
 1374 06b0 4889C5   		movq	%rax, %rbp
 1375              	.L92:
 1376 06b3 4889DF   		movq	%rbx, %rdi
 1377 06b6 E8000000 		call	_ZN8UnitTest15MemoryOutStreamD1Ev
 1377      00
 1378 06bb 4889EF   		movq	%rbp, %rdi
 1379              	.LEHB35:
 1380 06be E8000000 		call	_Unwind_Resume@PLT
 1380      00
 1381              	.LEHE35:
 1382              	.L101:
 1383 06c3 4889C5   		movq	%rax, %rbp
 1384 06c6 E8000000 		call	__cxa_end_catch@PLT
 1384      00
 1385 06cb EBE6     		jmp	.L92
 1386              	.L97:
 1387 06cd 4889C7   		movq	%rax, %rdi
 1388 06d0 E8000000 		call	__cxa_begin_catch@PLT
 1388      00
 1389              	.LEHB36:
 1390 06d5 E8000000 		call	_ZN8UnitTest11CurrentTest7ResultsEv@PLT
 1390      00
 1391 06da 488B00   		movq	(%rax), %rax
 1392 06dd 48894424 		movq	%rax, 8(%rsp)
 1392      08
 1393 06e2 E8000000 		call	_ZN8UnitTest11CurrentTest7DetailsEv@PLT
 1393      00
 1394 06e7 488D4C24 		leaq	16(%rsp), %rcx
 1394      10
 1395 06ec 488B30   		movq	(%rax), %rsi
 1396 06ef BA0E0000 		movl	$14, %edx
 1396      00
 1397 06f4 4889CF   		movq	%rcx, %rdi
 1398 06f7 48890C24 		movq	%rcx, (%rsp)
 1399 06fb E8000000 		call	_ZN8UnitTest11TestDetailsC1ERKS0_i@PLT
 1399      00
 1400 0700 488B3424 		movq	(%rsp), %rsi
 1401 0704 488B7C24 		movq	8(%rsp), %rdi
 1401      08
 1402 0709 488D1500 		leaq	.LC2(%rip), %rdx
 1402      000000
 1403 0710 E8000000 		call	_ZN8UnitTest11TestResults13OnTestFailureERKNS_11TestDetailsEPKc@PLT
 1403      00
 1404              	.LEHE36:
 1405              	.LEHB37:
 1406 0715 E8000000 		call	__cxa_end_catch@PLT
 1406      00
 1407              	.LEHE37:
 1408 071a E9CCFDFF 		jmp	.L86
 1408      FF
 1409              	.L102:
 1410 071f 4989C4   		movq	%rax, %r12
 1411 0722 E966FFFF 		jmp	.L83
 1411      FF
 1412              	.L99:
 1413 0727 4889C5   		movq	%rax, %rbp
 1414 072a E8000000 		call	__cxa_end_catch@PLT
 1414      00
 1415 072f EB82     		jmp	.L92
 1416              		.cfi_endproc
 1417              	.LFE1145:
 1418              		.section	.gcc_except_table
 1419 00a2 0000     		.align 4
 1420              	.LLSDA1145:
 1421 00a4 FF       		.byte	0xff
 1422 00a5 9B       		.byte	0x9b
 1423 00a6 4D       		.uleb128 .LLSDATT1145-.LLSDATTD1145
 1424              	.LLSDATTD1145:
 1425 00a7 01       		.byte	0x1
 1426 00a8 45       		.uleb128 .LLSDACSE1145-.LLSDACSB1145
 1427              	.LLSDACSB1145:
 1428 00a9 A101     		.uleb128 .LEHB26-.LFB1145
 1429 00ab 05       		.uleb128 .LEHE26-.LEHB26
 1430 00ac AF07     		.uleb128 .L102-.LFB1145
 1431 00ae 00       		.uleb128 0
 1432 00af AA02     		.uleb128 .LEHB27-.LFB1145
 1433 00b1 05       		.uleb128 .LEHE27-.LEHB27
 1434 00b2 8C06     		.uleb128 .L103-.LFB1145
 1435 00b4 00       		.uleb128 0
 1436 00b5 ED02     		.uleb128 .LEHB28-.LFB1145
 1437 00b7 05       		.uleb128 .LEHE28-.LEHB28
 1438 00b8 DD06     		.uleb128 .L97-.LFB1145
 1439 00ba 01       		.uleb128 0x1
 1440 00bb FB02     		.uleb128 .LEHB29-.LFB1145
 1441 00bd 48       		.uleb128 .LEHE29-.LEHB29
 1442 00be BA05     		.uleb128 .L100-.LFB1145
 1443 00c0 01       		.uleb128 0x1
 1444 00c1 C404     		.uleb128 .LEHB30-.LFB1145
 1445 00c3 05       		.uleb128 .LEHE30-.LEHB30
 1446 00c4 00       		.uleb128 0
 1447 00c5 00       		.uleb128 0
 1448 00c6 F004     		.uleb128 .LEHB31-.LFB1145
 1449 00c8 40       		.uleb128 .LEHE31-.LEHB31
 1450 00c9 DD06     		.uleb128 .L97-.LFB1145
 1451 00cb 01       		.uleb128 0x1
 1452 00cc C205     		.uleb128 .LEHB32-.LFB1145
 1453 00ce 40       		.uleb128 .LEHE32-.LEHB32
 1454 00cf D306     		.uleb128 .L101-.LFB1145
 1455 00d1 00       		.uleb128 0
 1456 00d2 8206     		.uleb128 .LEHB33-.LFB1145
 1457 00d4 05       		.uleb128 .LEHE33-.LEHB33
 1458 00d5 C006     		.uleb128 .L98-.LFB1145
 1459 00d7 00       		.uleb128 0
 1460 00d8 BB06     		.uleb128 .LEHB34-.LFB1145
 1461 00da 05       		.uleb128 .LEHE34-.LEHB34
 1462 00db 00       		.uleb128 0
 1463 00dc 00       		.uleb128 0
 1464 00dd CE06     		.uleb128 .LEHB35-.LFB1145
 1465 00df 05       		.uleb128 .LEHE35-.LEHB35
 1466 00e0 00       		.uleb128 0
 1467 00e1 00       		.uleb128 0
 1468 00e2 E506     		.uleb128 .LEHB36-.LFB1145
 1469 00e4 40       		.uleb128 .LEHE36-.LEHB36
 1470 00e5 B707     		.uleb128 .L99-.LFB1145
 1471 00e7 00       		.uleb128 0
 1472 00e8 A507     		.uleb128 .LEHB37-.LFB1145
 1473 00ea 05       		.uleb128 .LEHE37-.LEHB37
 1474 00eb C006     		.uleb128 .L98-.LFB1145
 1475 00ed 00       		.uleb128 0
 1476              	.LLSDACSE1145:
 1477 00ee 01       		.byte	0x1
 1478 00ef 00       		.byte	0
 1479              		.align 4
 1480 00f0 00000000 		.long	0
 1481              	
 1482              	.LLSDATT1145:
 1483              		.text
 1485              		.section	.rodata.str1.1
 1486              	.LC6:
 1487 0017 31323300 		.string	"123"
 1488              		.section	.rodata.str1.8
 1489 0071 00000000 		.align 8
 1489      000000
 1490              	.LC7:
 1491 0078 556E6861 		.string	"Unhandled exception in CHECK_EQUAL(\"123\", stream.GetText())"
 1491      6E646C65 
 1491      64206578 
 1491      63657074 
 1491      696F6E20 
 1492              		.text
 1493 0731 90       		.align 2
 1494 0732 0F1F4000 		.p2align 4,,15
 1494      662E0F1F 
 1494      84000000 
 1494      0000
 1496              	_ZNK12_GLOBAL__N_139TestStreamingIntWritesCorrectCharacters7RunImplEv:
 1497              	.LFB1157:
 1498              		.cfi_startproc
 1499              		.cfi_personality 0x9b,DW.ref.__gxx_personality_v0
 1500              		.cfi_lsda 0x1b,.LLSDA1157
 1501 0740 4157     		pushq	%r15
 1502              		.cfi_def_cfa_offset 16
 1503              		.cfi_offset 15, -16
 1504 0742 4156     		pushq	%r14
 1505              		.cfi_def_cfa_offset 24
 1506              		.cfi_offset 14, -24
 1507 0744 4155     		pushq	%r13
 1508              		.cfi_def_cfa_offset 32
 1509              		.cfi_offset 13, -32
 1510 0746 4154     		pushq	%r12
 1511              		.cfi_def_cfa_offset 40
 1512              		.cfi_offset 12, -40
 1513 0748 55       		pushq	%rbp
 1514              		.cfi_def_cfa_offset 48
 1515              		.cfi_offset 6, -48
 1516 0749 53       		pushq	%rbx
 1517              		.cfi_def_cfa_offset 56
 1518              		.cfi_offset 3, -56
 1519 074a 488D2D00 		leaq	24+_ZTCN8UnitTest15MemoryOutStreamE0_So(%rip), %rbp
 1519      000000
 1520 0751 4881ECD8 		subq	$472, %rsp
 1520      010000
 1521              		.cfi_def_cfa_offset 528
 1522 0758 488D5C24 		leaq	48(%rsp), %rbx
 1522      30
 1523 075d 64488B04 		movq	%fs:40, %rax
 1523      25280000 
 1523      00
 1524 0766 48898424 		movq	%rax, 456(%rsp)
 1524      C8010000 
 1525 076e 31C0     		xorl	%eax, %eax
 1526 0770 4C8DA390 		leaq	144(%rbx), %r12
 1526      000000
 1527 0777 4C89E7   		movq	%r12, %rdi
 1528 077a E8000000 		call	_ZNSt8ios_baseC2Ev@PLT
 1528      00
 1529 077f 488D4528 		leaq	40(%rbp), %rax
 1530 0783 31F6     		xorl	%esi, %esi
 1531 0785 4C89E7   		movq	%r12, %rdi
 1532 0788 48C78424 		movq	$0, 408(%rsp)
 1532      98010000 
 1532      00000000 
 1533 0794 C68424A0 		movb	$0, 416(%rsp)
 1533      01000000 
 1534 079c C68424A1 		movb	$0, 417(%rsp)
 1534      01000000 
 1535 07a4 48C78424 		movq	$0, 424(%rsp)
 1535      A8010000 
 1535      00000000 
 1536 07b0 48C78424 		movq	$0, 432(%rsp)
 1536      B0010000 
 1536      00000000 
 1537 07bc 48C78424 		movq	$0, 440(%rsp)
 1537      B8010000 
 1537      00000000 
 1538 07c8 48C78424 		movq	$0, 448(%rsp)
 1538      C0010000 
 1538      00000000 
 1539 07d4 48896C24 		movq	%rbp, 48(%rsp)
 1539      30
 1540 07d9 48898424 		movq	%rax, 192(%rsp)
 1540      C0000000 
 1541              	.LEHB38:
 1542 07e1 E8000000 		call	_ZNSt9basic_iosIcSt11char_traitsIcEE4initEPSt15basic_streambufIcS1_E@PLT
 1542      00
 1543              	.LEHE38:
 1544 07e6 488D0500 		leaq	24+_ZTCN8UnitTest15MemoryOutStreamE0_NSt7__cxx1119basic_ostringstreamIcSt11char_traitsIcESaIc
 1544      000000
 1545 07ed 660FEFC0 		pxor	%xmm0, %xmm0
 1546 07f1 488D7B40 		leaq	64(%rbx), %rdi
 1547 07f5 4C8D2D00 		leaq	16+_ZTVSt15basic_streambufIcSt11char_traitsIcEE(%rip), %r13
 1547      000000
 1548 07fc 4C8D7828 		leaq	40(%rax), %r15
 1549 0800 48894424 		movq	%rax, 48(%rsp)
 1549      30
 1550 0805 4C896C24 		movq	%r13, 56(%rsp)
 1550      38
 1551 080a 4C89BC24 		movq	%r15, 192(%rsp)
 1551      C0000000 
 1552 0812 0F294424 		movaps	%xmm0, 64(%rsp)
 1552      40
 1553 0817 0F294424 		movaps	%xmm0, 80(%rsp)
 1553      50
 1554 081c 0F294424 		movaps	%xmm0, 96(%rsp)
 1554      60
 1555 0821 E8000000 		call	_ZNSt6localeC1Ev@PLT
 1555      00
 1556 0826 488D0500 		leaq	16+_ZTVNSt7__cxx1115basic_stringbufIcSt11char_traitsIcESaIcEEE(%rip), %rax
 1556      000000
 1557 082d 488D7308 		leaq	8(%rbx), %rsi
 1558 0831 48894424 		movq	%rax, 56(%rsp)
 1558      38
 1559 0836 488D4360 		leaq	96(%rbx), %rax
 1560 083a C7442478 		movl	$16, 120(%rsp)
 1560      10000000 
 1561 0842 48C78424 		movq	$0, 136(%rsp)
 1561      88000000 
 1561      00000000 
 1562 084e C6842490 		movb	$0, 144(%rsp)
 1562      00000000 
 1563 0856 48898424 		movq	%rax, 128(%rsp)
 1563      80000000 
 1564 085e 488B4424 		movq	48(%rsp), %rax
 1564      30
 1565 0863 488B78E8 		movq	-24(%rax), %rdi
 1566 0867 4801DF   		addq	%rbx, %rdi
 1567              	.LEHB39:
 1568 086a E8000000 		call	_ZNSt9basic_iosIcSt11char_traitsIcEE4initEPSt15basic_streambufIcS1_E@PLT
 1568      00
 1569              	.LEHE39:
 1570 086f 4C8D2500 		leaq	24+_ZTVN8UnitTest15MemoryOutStreamE(%rip), %r12
 1570      000000
 1571 0876 488D8380 		leaq	128(%rbx), %rax
 1571      000000
 1572 087d BE7B0000 		movl	$123, %esi
 1572      00
 1573 0882 4889DF   		movq	%rbx, %rdi
 1574 0885 48C78424 		movq	$0, 168(%rsp)
 1574      A8000000 
 1574      00000000 
 1575 0891 C68424B0 		movb	$0, 176(%rsp)
 1575      00000000 
 1576 0899 4D8D7424 		leaq	40(%r12), %r14
 1576      28
 1577 089e 4C896424 		movq	%r12, 48(%rsp)
 1577      30
 1578 08a3 48898424 		movq	%rax, 160(%rsp)
 1578      A0000000 
 1579 08ab 4C89B424 		movq	%r14, 192(%rsp)
 1579      C0000000 
 1580              	.LEHB40:
 1581 08b3 E8000000 		call	_ZNSolsEi@PLT
 1581      00
 1582              	.LEHE40:
 1583              	.LEHB41:
 1584 08b8 E8000000 		call	_ZN8UnitTest11CurrentTest7DetailsEv@PLT
 1584      00
 1585 08bd 488D4C24 		leaq	16(%rsp), %rcx
 1585      10
 1586 08c2 488B30   		movq	(%rax), %rsi
 1587 08c5 BA240000 		movl	$36, %edx
 1587      00
 1588 08ca 4889CF   		movq	%rcx, %rdi
 1589 08cd 48890C24 		movq	%rcx, (%rsp)
 1590 08d1 E8000000 		call	_ZN8UnitTest11TestDetailsC1ERKS0_i@PLT
 1590      00
 1591 08d6 4889DF   		movq	%rbx, %rdi
 1592 08d9 E8000000 		call	_ZNK8UnitTest15MemoryOutStream7GetTextEv@PLT
 1592      00
 1593 08de 48894424 		movq	%rax, 8(%rsp)
 1593      08
 1594 08e3 E8000000 		call	_ZN8UnitTest11CurrentTest7ResultsEv@PLT
 1594      00
 1595 08e8 488B0C24 		movq	(%rsp), %rcx
 1596 08ec 488B5424 		movq	8(%rsp), %rdx
 1596      08
 1597 08f1 488D3500 		leaq	.LC6(%rip), %rsi
 1597      000000
 1598 08f8 488B38   		movq	(%rax), %rdi
 1599 08fb E8000000 		call	_ZN8UnitTest10CheckEqualERNS_11TestResultsEPKcS3_RKNS_11TestDetailsE@PLT
 1599      00
 1600              	.LEHE41:
 1601              	.L117:
 1602 0900 488BBC24 		movq	160(%rsp), %rdi
 1602      A0000000 
 1603 0908 488D8380 		leaq	128(%rbx), %rax
 1603      000000
 1604 090f 4C896424 		movq	%r12, 48(%rsp)
 1604      30
 1605 0914 4C89B424 		movq	%r14, 192(%rsp)
 1605      C0000000 
 1606 091c 4839C7   		cmpq	%rax, %rdi
 1607 091f 7405     		je	.L114
 1608 0921 E8000000 		call	_ZdlPv@PLT
 1608      00
 1609              	.L114:
 1610 0926 488BBC24 		movq	128(%rsp), %rdi
 1610      80000000 
 1611 092e F30F7E05 		movq	.LC4(%rip), %xmm0
 1611      00000000 
 1612 0936 488D4360 		leaq	96(%rbx), %rax
 1613 093a 0F160500 		movhps	.LC5(%rip), %xmm0
 1613      000000
 1614 0941 4C89BC24 		movq	%r15, 192(%rsp)
 1614      C0000000 
 1615 0949 4839C7   		cmpq	%rax, %rdi
 1616 094c 0F294424 		movaps	%xmm0, 48(%rsp)
 1616      30
 1617 0951 7405     		je	.L115
 1618 0953 E8000000 		call	_ZdlPv@PLT
 1618      00
 1619              	.L115:
 1620 0958 488D7B40 		leaq	64(%rbx), %rdi
 1621 095c 4C896C24 		movq	%r13, 56(%rsp)
 1621      38
 1622 0961 E8000000 		call	_ZNSt6localeD1Ev@PLT
 1622      00
 1623 0966 488D0500 		leaq	16+_ZTVSt9basic_iosIcSt11char_traitsIcEE(%rip), %rax
 1623      000000
 1624 096d 488DBB90 		leaq	144(%rbx), %rdi
 1624      000000
 1625 0974 48896C24 		movq	%rbp, 48(%rsp)
 1625      30
 1626 0979 48898424 		movq	%rax, 192(%rsp)
 1626      C0000000 
 1627              	.LEHB42:
 1628 0981 E8000000 		call	_ZNSt8ios_baseD2Ev@PLT
 1628      00
 1629              	.LEHE42:
 1630 0986 488B8424 		movq	456(%rsp), %rax
 1630      C8010000 
 1631 098e 64483304 		xorq	%fs:40, %rax
 1631      25280000 
 1631      00
 1632 0997 7512     		jne	.L130
 1633 0999 4881C4D8 		addq	$472, %rsp
 1633      010000
 1634              		.cfi_remember_state
 1635              		.cfi_def_cfa_offset 56
 1636 09a0 5B       		popq	%rbx
 1637              		.cfi_def_cfa_offset 48
 1638 09a1 5D       		popq	%rbp
 1639              		.cfi_def_cfa_offset 40
 1640 09a2 415C     		popq	%r12
 1641              		.cfi_def_cfa_offset 32
 1642 09a4 415D     		popq	%r13
 1643              		.cfi_def_cfa_offset 24
 1644 09a6 415E     		popq	%r14
 1645              		.cfi_def_cfa_offset 16
 1646 09a8 415F     		popq	%r15
 1647              		.cfi_def_cfa_offset 8
 1648 09aa C3       		ret
 1649              	.L130:
 1650              		.cfi_restore_state
 1651 09ab E8000000 		call	__stack_chk_fail@PLT
 1651      00
 1652              	.L122:
 1653 09b0 4889C7   		movq	%rax, %rdi
 1654 09b3 E8000000 		call	__cxa_begin_catch@PLT
 1654      00
 1655              	.LEHB43:
 1656 09b8 E8000000 		call	_ZN8UnitTest11CurrentTest7ResultsEv@PLT
 1656      00
 1657 09bd 488B00   		movq	(%rax), %rax
 1658 09c0 48894424 		movq	%rax, 8(%rsp)
 1658      08
 1659 09c5 E8000000 		call	_ZN8UnitTest11CurrentTest7DetailsEv@PLT
 1659      00
 1660 09ca 488D4C24 		leaq	16(%rsp), %rcx
 1660      10
 1661 09cf 488B30   		movq	(%rax), %rsi
 1662 09d2 BA240000 		movl	$36, %edx
 1662      00
 1663 09d7 4889CF   		movq	%rcx, %rdi
 1664 09da 48890C24 		movq	%rcx, (%rsp)
 1665 09de E8000000 		call	_ZN8UnitTest11TestDetailsC1ERKS0_i@PLT
 1665      00
 1666 09e3 488B3424 		movq	(%rsp), %rsi
 1667 09e7 488B7C24 		movq	8(%rsp), %rdi
 1667      08
 1668 09ec 488D1500 		leaq	.LC7(%rip), %rdx
 1668      000000
 1669 09f3 E8000000 		call	_ZN8UnitTest11TestResults13OnTestFailureERKNS_11TestDetailsEPKc@PLT
 1669      00
 1670              	.LEHE43:
 1671              	.LEHB44:
 1672 09f8 E8000000 		call	__cxa_end_catch@PLT
 1672      00
 1673              	.LEHE44:
 1674 09fd E9FEFEFF 		jmp	.L117
 1674      FF
 1675              	.L121:
 1676 0a02 4889C5   		movq	%rax, %rbp
 1677              	.L119:
 1678 0a05 4889DF   		movq	%rbx, %rdi
 1679 0a08 E8000000 		call	_ZN8UnitTest15MemoryOutStreamD1Ev
 1679      00
 1680 0a0d 4889EF   		movq	%rbp, %rdi
 1681              	.LEHB45:
 1682 0a10 E8000000 		call	_Unwind_Resume@PLT
 1682      00
 1683              	.LEHE45:
 1684              	.L123:
 1685 0a15 4889C5   		movq	%rax, %rbp
 1686 0a18 E8000000 		call	__cxa_end_catch@PLT
 1686      00
 1687 0a1d EBE6     		jmp	.L119
 1688              	.L125:
 1689 0a1f 488D7B08 		leaq	8(%rbx), %rdi
 1690 0a23 4989C4   		movq	%rax, %r12
 1691 0a26 E8000000 		call	_ZNSt7__cxx1115basic_stringbufIcSt11char_traitsIcESaIcEED1Ev
 1691      00
 1692 0a2b 48896C24 		movq	%rbp, 48(%rsp)
 1692      30
 1693              	.L112:
 1694 0a30 488D0500 		leaq	16+_ZTVSt9basic_iosIcSt11char_traitsIcEE(%rip), %rax
 1694      000000
 1695 0a37 488DBB90 		leaq	144(%rbx), %rdi
 1695      000000
 1696 0a3e 48898424 		movq	%rax, 192(%rsp)
 1696      C0000000 
 1697 0a46 E8000000 		call	_ZNSt8ios_baseD2Ev@PLT
 1697      00
 1698 0a4b 4C89E7   		movq	%r12, %rdi
 1699              	.LEHB46:
 1700 0a4e E8000000 		call	_Unwind_Resume@PLT
 1700      00
 1701              	.LEHE46:
 1702              	.L124:
 1703 0a53 4989C4   		movq	%rax, %r12
 1704 0a56 EBD8     		jmp	.L112
 1705              		.cfi_endproc
 1706              	.LFE1157:
 1707              		.section	.gcc_except_table
 1708              		.align 4
 1709              	.LLSDA1157:
 1710 00f4 FF       		.byte	0xff
 1711 00f5 9B       		.byte	0x9b
 1712 00f6 3D       		.uleb128 .LLSDATT1157-.LLSDATTD1157
 1713              	.LLSDATTD1157:
 1714 00f7 01       		.byte	0x1
 1715 00f8 33       		.uleb128 .LLSDACSE1157-.LLSDACSB1157
 1716              	.LLSDACSB1157:
 1717 00f9 A101     		.uleb128 .LEHB38-.LFB1157
 1718 00fb 05       		.uleb128 .LEHE38-.LEHB38
 1719 00fc 9306     		.uleb128 .L124-.LFB1157
 1720 00fe 00       		.uleb128 0
 1721 00ff AA02     		.uleb128 .LEHB39-.LFB1157
 1722 0101 05       		.uleb128 .LEHE39-.LEHB39
 1723 0102 DF05     		.uleb128 .L125-.LFB1157
 1724 0104 00       		.uleb128 0
 1725 0105 F302     		.uleb128 .LEHB40-.LFB1157
 1726 0107 05       		.uleb128 .LEHE40-.LEHB40
 1727 0108 C205     		.uleb128 .L121-.LFB1157
 1728 010a 00       		.uleb128 0
 1729 010b F802     		.uleb128 .LEHB41-.LFB1157
 1730 010d 48       		.uleb128 .LEHE41-.LEHB41
 1731 010e F004     		.uleb128 .L122-.LFB1157
 1732 0110 01       		.uleb128 0x1
 1733 0111 C104     		.uleb128 .LEHB42-.LFB1157
 1734 0113 05       		.uleb128 .LEHE42-.LEHB42
 1735 0114 00       		.uleb128 0
 1736 0115 00       		.uleb128 0
 1737 0116 F804     		.uleb128 .LEHB43-.LFB1157
 1738 0118 40       		.uleb128 .LEHE43-.LEHB43
 1739 0119 D505     		.uleb128 .L123-.LFB1157
 1740 011b 00       		.uleb128 0
 1741 011c B805     		.uleb128 .LEHB44-.LFB1157
 1742 011e 05       		.uleb128 .LEHE44-.LEHB44
 1743 011f C205     		.uleb128 .L121-.LFB1157
 1744 0121 00       		.uleb128 0
 1745 0122 D005     		.uleb128 .LEHB45-.LFB1157
 1746 0124 05       		.uleb128 .LEHE45-.LEHB45
 1747 0125 00       		.uleb128 0
 1748 0126 00       		.uleb128 0
 1749 0127 8E06     		.uleb128 .LEHB46-.LFB1157
 1750 0129 05       		.uleb128 .LEHE46-.LEHB46
 1751 012a 00       		.uleb128 0
 1752 012b 00       		.uleb128 0
 1753              	.LLSDACSE1157:
 1754 012c 01       		.byte	0x1
 1755 012d 00       		.byte	0
 1756 012e 0000     		.align 4
 1757 0130 00000000 		.long	0
 1758              	
 1759              	.LLSDATT1157:
 1760              		.text
 1762              		.section	.rodata.str1.1
 1763              	.LC8:
 1764 001b 2D313233 		.string	"-123"
 1764      00
 1765              		.section	.rodata.str1.8
 1766 00b4 00000000 		.align 8
 1767              	.LC9:
 1768 00b8 556E6861 		.string	"Unhandled exception in CHECK_EQUAL(\"-123\", stream.GetText())"
 1768      6E646C65 
 1768      64206578 
 1768      63657074 
 1768      696F6E20 
 1769              		.text
 1770              		.align 2
 1771 0a58 0F1F8400 		.p2align 4,,15
 1771      00000000 
 1773              	_ZNK12_GLOBAL__N_140TestStreamingLongWritesCorrectCharacters7RunImplEv:
 1774              	.LFB1165:
 1775              		.cfi_startproc
 1776              		.cfi_personality 0x9b,DW.ref.__gxx_personality_v0
 1777              		.cfi_lsda 0x1b,.LLSDA1165
 1778 0a60 4157     		pushq	%r15
 1779              		.cfi_def_cfa_offset 16
 1780              		.cfi_offset 15, -16
 1781 0a62 4156     		pushq	%r14
 1782              		.cfi_def_cfa_offset 24
 1783              		.cfi_offset 14, -24
 1784 0a64 4155     		pushq	%r13
 1785              		.cfi_def_cfa_offset 32
 1786              		.cfi_offset 13, -32
 1787 0a66 4154     		pushq	%r12
 1788              		.cfi_def_cfa_offset 40
 1789              		.cfi_offset 12, -40
 1790 0a68 55       		pushq	%rbp
 1791              		.cfi_def_cfa_offset 48
 1792              		.cfi_offset 6, -48
 1793 0a69 53       		pushq	%rbx
 1794              		.cfi_def_cfa_offset 56
 1795              		.cfi_offset 3, -56
 1796 0a6a 488D2D00 		leaq	24+_ZTCN8UnitTest15MemoryOutStreamE0_So(%rip), %rbp
 1796      000000
 1797 0a71 4881ECD8 		subq	$472, %rsp
 1797      010000
 1798              		.cfi_def_cfa_offset 528
 1799 0a78 488D5C24 		leaq	48(%rsp), %rbx
 1799      30
 1800 0a7d 64488B04 		movq	%fs:40, %rax
 1800      25280000 
 1800      00
 1801 0a86 48898424 		movq	%rax, 456(%rsp)
 1801      C8010000 
 1802 0a8e 31C0     		xorl	%eax, %eax
 1803 0a90 4C8DA390 		leaq	144(%rbx), %r12
 1803      000000
 1804 0a97 4C89E7   		movq	%r12, %rdi
 1805 0a9a E8000000 		call	_ZNSt8ios_baseC2Ev@PLT
 1805      00
 1806 0a9f 488D4528 		leaq	40(%rbp), %rax
 1807 0aa3 31F6     		xorl	%esi, %esi
 1808 0aa5 4C89E7   		movq	%r12, %rdi
 1809 0aa8 48C78424 		movq	$0, 408(%rsp)
 1809      98010000 
 1809      00000000 
 1810 0ab4 C68424A0 		movb	$0, 416(%rsp)
 1810      01000000 
 1811 0abc C68424A1 		movb	$0, 417(%rsp)
 1811      01000000 
 1812 0ac4 48C78424 		movq	$0, 424(%rsp)
 1812      A8010000 
 1812      00000000 
 1813 0ad0 48C78424 		movq	$0, 432(%rsp)
 1813      B0010000 
 1813      00000000 
 1814 0adc 48C78424 		movq	$0, 440(%rsp)
 1814      B8010000 
 1814      00000000 
 1815 0ae8 48C78424 		movq	$0, 448(%rsp)
 1815      C0010000 
 1815      00000000 
 1816 0af4 48896C24 		movq	%rbp, 48(%rsp)
 1816      30
 1817 0af9 48898424 		movq	%rax, 192(%rsp)
 1817      C0000000 
 1818              	.LEHB47:
 1819 0b01 E8000000 		call	_ZNSt9basic_iosIcSt11char_traitsIcEE4initEPSt15basic_streambufIcS1_E@PLT
 1819      00
 1820              	.LEHE47:
 1821 0b06 488D0500 		leaq	24+_ZTCN8UnitTest15MemoryOutStreamE0_NSt7__cxx1119basic_ostringstreamIcSt11char_traitsIcESaIc
 1821      000000
 1822 0b0d 660FEFC0 		pxor	%xmm0, %xmm0
 1823 0b11 488D7B40 		leaq	64(%rbx), %rdi
 1824 0b15 4C8D2D00 		leaq	16+_ZTVSt15basic_streambufIcSt11char_traitsIcEE(%rip), %r13
 1824      000000
 1825 0b1c 4C8D7828 		leaq	40(%rax), %r15
 1826 0b20 48894424 		movq	%rax, 48(%rsp)
 1826      30
 1827 0b25 4C896C24 		movq	%r13, 56(%rsp)
 1827      38
 1828 0b2a 4C89BC24 		movq	%r15, 192(%rsp)
 1828      C0000000 
 1829 0b32 0F294424 		movaps	%xmm0, 64(%rsp)
 1829      40
 1830 0b37 0F294424 		movaps	%xmm0, 80(%rsp)
 1830      50
 1831 0b3c 0F294424 		movaps	%xmm0, 96(%rsp)
 1831      60
 1832 0b41 E8000000 		call	_ZNSt6localeC1Ev@PLT
 1832      00
 1833 0b46 488D0500 		leaq	16+_ZTVNSt7__cxx1115basic_stringbufIcSt11char_traitsIcESaIcEEE(%rip), %rax
 1833      000000
 1834 0b4d 488D7308 		leaq	8(%rbx), %rsi
 1835 0b51 48894424 		movq	%rax, 56(%rsp)
 1835      38
 1836 0b56 488D4360 		leaq	96(%rbx), %rax
 1837 0b5a C7442478 		movl	$16, 120(%rsp)
 1837      10000000 
 1838 0b62 48C78424 		movq	$0, 136(%rsp)
 1838      88000000 
 1838      00000000 
 1839 0b6e C6842490 		movb	$0, 144(%rsp)
 1839      00000000 
 1840 0b76 48898424 		movq	%rax, 128(%rsp)
 1840      80000000 
 1841 0b7e 488B4424 		movq	48(%rsp), %rax
 1841      30
 1842 0b83 488B78E8 		movq	-24(%rax), %rdi
 1843 0b87 4801DF   		addq	%rbx, %rdi
 1844              	.LEHB48:
 1845 0b8a E8000000 		call	_ZNSt9basic_iosIcSt11char_traitsIcEE4initEPSt15basic_streambufIcS1_E@PLT
 1845      00
 1846              	.LEHE48:
 1847 0b8f 4C8D2500 		leaq	24+_ZTVN8UnitTest15MemoryOutStreamE(%rip), %r12
 1847      000000
 1848 0b96 488D8380 		leaq	128(%rbx), %rax
 1848      000000
 1849 0b9d 48C7C685 		movq	$-123, %rsi
 1849      FFFFFF
 1850 0ba4 4889DF   		movq	%rbx, %rdi
 1851 0ba7 48C78424 		movq	$0, 168(%rsp)
 1851      A8000000 
 1851      00000000 
 1852 0bb3 C68424B0 		movb	$0, 176(%rsp)
 1852      00000000 
 1853 0bbb 4D8D7424 		leaq	40(%r12), %r14
 1853      28
 1854 0bc0 4C896424 		movq	%r12, 48(%rsp)
 1854      30
 1855 0bc5 48898424 		movq	%rax, 160(%rsp)
 1855      A0000000 
 1856 0bcd 4C89B424 		movq	%r14, 192(%rsp)
 1856      C0000000 
 1857              	.LEHB49:
 1858 0bd5 E8000000 		call	_ZNSo9_M_insertIlEERSoT_@PLT
 1858      00
 1859              	.LEHE49:
 1860              	.LEHB50:
 1861 0bda E8000000 		call	_ZN8UnitTest11CurrentTest7DetailsEv@PLT
 1861      00
 1862 0bdf 488D4C24 		leaq	16(%rsp), %rcx
 1862      10
 1863 0be4 488B30   		movq	(%rax), %rsi
 1864 0be7 BA320000 		movl	$50, %edx
 1864      00
 1865 0bec 4889CF   		movq	%rcx, %rdi
 1866 0bef 48890C24 		movq	%rcx, (%rsp)
 1867 0bf3 E8000000 		call	_ZN8UnitTest11TestDetailsC1ERKS0_i@PLT
 1867      00
 1868 0bf8 4889DF   		movq	%rbx, %rdi
 1869 0bfb E8000000 		call	_ZNK8UnitTest15MemoryOutStream7GetTextEv@PLT
 1869      00
 1870 0c00 48894424 		movq	%rax, 8(%rsp)
 1870      08
 1871 0c05 E8000000 		call	_ZN8UnitTest11CurrentTest7ResultsEv@PLT
 1871      00
 1872 0c0a 488B0C24 		movq	(%rsp), %rcx
 1873 0c0e 488B5424 		movq	8(%rsp), %rdx
 1873      08
 1874 0c13 488D3500 		leaq	.LC8(%rip), %rsi
 1874      000000
 1875 0c1a 488B38   		movq	(%rax), %rdi
 1876 0c1d E8000000 		call	_ZN8UnitTest10CheckEqualERNS_11TestResultsEPKcS3_RKNS_11TestDetailsE@PLT
 1876      00
 1877              	.LEHE50:
 1878              	.L139:
 1879 0c22 488BBC24 		movq	160(%rsp), %rdi
 1879      A0000000 
 1880 0c2a 488D8380 		leaq	128(%rbx), %rax
 1880      000000
 1881 0c31 4C896424 		movq	%r12, 48(%rsp)
 1881      30
 1882 0c36 4C89B424 		movq	%r14, 192(%rsp)
 1882      C0000000 
 1883 0c3e 4839C7   		cmpq	%rax, %rdi
 1884 0c41 7405     		je	.L136
 1885 0c43 E8000000 		call	_ZdlPv@PLT
 1885      00
 1886              	.L136:
 1887 0c48 488BBC24 		movq	128(%rsp), %rdi
 1887      80000000 
 1888 0c50 F30F7E05 		movq	.LC4(%rip), %xmm0
 1888      00000000 
 1889 0c58 488D4360 		leaq	96(%rbx), %rax
 1890 0c5c 0F160500 		movhps	.LC5(%rip), %xmm0
 1890      000000
 1891 0c63 4C89BC24 		movq	%r15, 192(%rsp)
 1891      C0000000 
 1892 0c6b 4839C7   		cmpq	%rax, %rdi
 1893 0c6e 0F294424 		movaps	%xmm0, 48(%rsp)
 1893      30
 1894 0c73 7405     		je	.L137
 1895 0c75 E8000000 		call	_ZdlPv@PLT
 1895      00
 1896              	.L137:
 1897 0c7a 488D7B40 		leaq	64(%rbx), %rdi
 1898 0c7e 4C896C24 		movq	%r13, 56(%rsp)
 1898      38
 1899 0c83 E8000000 		call	_ZNSt6localeD1Ev@PLT
 1899      00
 1900 0c88 488D0500 		leaq	16+_ZTVSt9basic_iosIcSt11char_traitsIcEE(%rip), %rax
 1900      000000
 1901 0c8f 488DBB90 		leaq	144(%rbx), %rdi
 1901      000000
 1902 0c96 48896C24 		movq	%rbp, 48(%rsp)
 1902      30
 1903 0c9b 48898424 		movq	%rax, 192(%rsp)
 1903      C0000000 
 1904              	.LEHB51:
 1905 0ca3 E8000000 		call	_ZNSt8ios_baseD2Ev@PLT
 1905      00
 1906              	.LEHE51:
 1907 0ca8 488B8424 		movq	456(%rsp), %rax
 1907      C8010000 
 1908 0cb0 64483304 		xorq	%fs:40, %rax
 1908      25280000 
 1908      00
 1909 0cb9 7512     		jne	.L152
 1910 0cbb 4881C4D8 		addq	$472, %rsp
 1910      010000
 1911              		.cfi_remember_state
 1912              		.cfi_def_cfa_offset 56
 1913 0cc2 5B       		popq	%rbx
 1914              		.cfi_def_cfa_offset 48
 1915 0cc3 5D       		popq	%rbp
 1916              		.cfi_def_cfa_offset 40
 1917 0cc4 415C     		popq	%r12
 1918              		.cfi_def_cfa_offset 32
 1919 0cc6 415D     		popq	%r13
 1920              		.cfi_def_cfa_offset 24
 1921 0cc8 415E     		popq	%r14
 1922              		.cfi_def_cfa_offset 16
 1923 0cca 415F     		popq	%r15
 1924              		.cfi_def_cfa_offset 8
 1925 0ccc C3       		ret
 1926              	.L152:
 1927              		.cfi_restore_state
 1928 0ccd E8000000 		call	__stack_chk_fail@PLT
 1928      00
 1929              	.L144:
 1930 0cd2 4889C7   		movq	%rax, %rdi
 1931 0cd5 E8000000 		call	__cxa_begin_catch@PLT
 1931      00
 1932              	.LEHB52:
 1933 0cda E8000000 		call	_ZN8UnitTest11CurrentTest7ResultsEv@PLT
 1933      00
 1934 0cdf 488B00   		movq	(%rax), %rax
 1935 0ce2 48894424 		movq	%rax, 8(%rsp)
 1935      08
 1936 0ce7 E8000000 		call	_ZN8UnitTest11CurrentTest7DetailsEv@PLT
 1936      00
 1937 0cec 488D4C24 		leaq	16(%rsp), %rcx
 1937      10
 1938 0cf1 488B30   		movq	(%rax), %rsi
 1939 0cf4 BA320000 		movl	$50, %edx
 1939      00
 1940 0cf9 4889CF   		movq	%rcx, %rdi
 1941 0cfc 48890C24 		movq	%rcx, (%rsp)
 1942 0d00 E8000000 		call	_ZN8UnitTest11TestDetailsC1ERKS0_i@PLT
 1942      00
 1943 0d05 488B3424 		movq	(%rsp), %rsi
 1944 0d09 488B7C24 		movq	8(%rsp), %rdi
 1944      08
 1945 0d0e 488D1500 		leaq	.LC9(%rip), %rdx
 1945      000000
 1946 0d15 E8000000 		call	_ZN8UnitTest11TestResults13OnTestFailureERKNS_11TestDetailsEPKc@PLT
 1946      00
 1947              	.LEHE52:
 1948              	.LEHB53:
 1949 0d1a E8000000 		call	__cxa_end_catch@PLT
 1949      00
 1950              	.LEHE53:
 1951 0d1f E9FEFEFF 		jmp	.L139
 1951      FF
 1952              	.L143:
 1953 0d24 4889C5   		movq	%rax, %rbp
 1954              	.L141:
 1955 0d27 4889DF   		movq	%rbx, %rdi
 1956 0d2a E8000000 		call	_ZN8UnitTest15MemoryOutStreamD1Ev
 1956      00
 1957 0d2f 4889EF   		movq	%rbp, %rdi
 1958              	.LEHB54:
 1959 0d32 E8000000 		call	_Unwind_Resume@PLT
 1959      00
 1960              	.LEHE54:
 1961              	.L145:
 1962 0d37 4889C5   		movq	%rax, %rbp
 1963 0d3a E8000000 		call	__cxa_end_catch@PLT
 1963      00
 1964 0d3f EBE6     		jmp	.L141
 1965              	.L147:
 1966 0d41 488D7B08 		leaq	8(%rbx), %rdi
 1967 0d45 4989C4   		movq	%rax, %r12
 1968 0d48 E8000000 		call	_ZNSt7__cxx1115basic_stringbufIcSt11char_traitsIcESaIcEED1Ev
 1968      00
 1969 0d4d 48896C24 		movq	%rbp, 48(%rsp)
 1969      30
 1970              	.L134:
 1971 0d52 488D0500 		leaq	16+_ZTVSt9basic_iosIcSt11char_traitsIcEE(%rip), %rax
 1971      000000
 1972 0d59 488DBB90 		leaq	144(%rbx), %rdi
 1972      000000
 1973 0d60 48898424 		movq	%rax, 192(%rsp)
 1973      C0000000 
 1974 0d68 E8000000 		call	_ZNSt8ios_baseD2Ev@PLT
 1974      00
 1975 0d6d 4C89E7   		movq	%r12, %rdi
 1976              	.LEHB55:
 1977 0d70 E8000000 		call	_Unwind_Resume@PLT
 1977      00
 1978              	.LEHE55:
 1979              	.L146:
 1980 0d75 4989C4   		movq	%rax, %r12
 1981 0d78 EBD8     		jmp	.L134
 1982              		.cfi_endproc
 1983              	.LFE1165:
 1984              		.section	.gcc_except_table
 1985              		.align 4
 1986              	.LLSDA1165:
 1987 0134 FF       		.byte	0xff
 1988 0135 9B       		.byte	0x9b
 1989 0136 3D       		.uleb128 .LLSDATT1165-.LLSDATTD1165
 1990              	.LLSDATTD1165:
 1991 0137 01       		.byte	0x1
 1992 0138 33       		.uleb128 .LLSDACSE1165-.LLSDACSB1165
 1993              	.LLSDACSB1165:
 1994 0139 A101     		.uleb128 .LEHB47-.LFB1165
 1995 013b 05       		.uleb128 .LEHE47-.LEHB47
 1996 013c 9506     		.uleb128 .L146-.LFB1165
 1997 013e 00       		.uleb128 0
 1998 013f AA02     		.uleb128 .LEHB48-.LFB1165
 1999 0141 05       		.uleb128 .LEHE48-.LEHB48
 2000 0142 E105     		.uleb128 .L147-.LFB1165
 2001 0144 00       		.uleb128 0
 2002 0145 F502     		.uleb128 .LEHB49-.LFB1165
 2003 0147 05       		.uleb128 .LEHE49-.LEHB49
 2004 0148 C405     		.uleb128 .L143-.LFB1165
 2005 014a 00       		.uleb128 0
 2006 014b FA02     		.uleb128 .LEHB50-.LFB1165
 2007 014d 48       		.uleb128 .LEHE50-.LEHB50
 2008 014e F204     		.uleb128 .L144-.LFB1165
 2009 0150 01       		.uleb128 0x1
 2010 0151 C304     		.uleb128 .LEHB51-.LFB1165
 2011 0153 05       		.uleb128 .LEHE51-.LEHB51
 2012 0154 00       		.uleb128 0
 2013 0155 00       		.uleb128 0
 2014 0156 FA04     		.uleb128 .LEHB52-.LFB1165
 2015 0158 40       		.uleb128 .LEHE52-.LEHB52
 2016 0159 D705     		.uleb128 .L145-.LFB1165
 2017 015b 00       		.uleb128 0
 2018 015c BA05     		.uleb128 .LEHB53-.LFB1165
 2019 015e 05       		.uleb128 .LEHE53-.LEHB53
 2020 015f C405     		.uleb128 .L143-.LFB1165
 2021 0161 00       		.uleb128 0
 2022 0162 D205     		.uleb128 .LEHB54-.LFB1165
 2023 0164 05       		.uleb128 .LEHE54-.LEHB54
 2024 0165 00       		.uleb128 0
 2025 0166 00       		.uleb128 0
 2026 0167 9006     		.uleb128 .LEHB55-.LFB1165
 2027 0169 05       		.uleb128 .LEHE55-.LEHB55
 2028 016a 00       		.uleb128 0
 2029 016b 00       		.uleb128 0
 2030              	.LLSDACSE1165:
 2031 016c 01       		.byte	0x1
 2032 016d 00       		.byte	0
 2033 016e 0000     		.align 4
 2034 0170 00000000 		.long	0
 2035              	
 2036              	.LLSDATT1165:
 2037              		.text
 2039              		.align 2
 2040 0d7a 660F1F44 		.p2align 4,,15
 2040      0000
 2042              	_ZNK12_GLOBAL__N_147TestStreamingUnsignedIntWritesCorrectCharacters7RunImplEv:
 2043              	.LFB1161:
 2044              		.cfi_startproc
 2045              		.cfi_personality 0x9b,DW.ref.__gxx_personality_v0
 2046              		.cfi_lsda 0x1b,.LLSDA1161
 2047 0d80 4157     		pushq	%r15
 2048              		.cfi_def_cfa_offset 16
 2049              		.cfi_offset 15, -16
 2050 0d82 4156     		pushq	%r14
 2051              		.cfi_def_cfa_offset 24
 2052              		.cfi_offset 14, -24
 2053 0d84 4155     		pushq	%r13
 2054              		.cfi_def_cfa_offset 32
 2055              		.cfi_offset 13, -32
 2056 0d86 4154     		pushq	%r12
 2057              		.cfi_def_cfa_offset 40
 2058              		.cfi_offset 12, -40
 2059 0d88 55       		pushq	%rbp
 2060              		.cfi_def_cfa_offset 48
 2061              		.cfi_offset 6, -48
 2062 0d89 53       		pushq	%rbx
 2063              		.cfi_def_cfa_offset 56
 2064              		.cfi_offset 3, -56
 2065 0d8a 488D2D00 		leaq	24+_ZTCN8UnitTest15MemoryOutStreamE0_So(%rip), %rbp
 2065      000000
 2066 0d91 4881ECD8 		subq	$472, %rsp
 2066      010000
 2067              		.cfi_def_cfa_offset 528
 2068 0d98 488D5C24 		leaq	48(%rsp), %rbx
 2068      30
 2069 0d9d 64488B04 		movq	%fs:40, %rax
 2069      25280000 
 2069      00
 2070 0da6 48898424 		movq	%rax, 456(%rsp)
 2070      C8010000 
 2071 0dae 31C0     		xorl	%eax, %eax
 2072 0db0 4C8DA390 		leaq	144(%rbx), %r12
 2072      000000
 2073 0db7 4C89E7   		movq	%r12, %rdi
 2074 0dba E8000000 		call	_ZNSt8ios_baseC2Ev@PLT
 2074      00
 2075 0dbf 488D4528 		leaq	40(%rbp), %rax
 2076 0dc3 31F6     		xorl	%esi, %esi
 2077 0dc5 4C89E7   		movq	%r12, %rdi
 2078 0dc8 48C78424 		movq	$0, 408(%rsp)
 2078      98010000 
 2078      00000000 
 2079 0dd4 C68424A0 		movb	$0, 416(%rsp)
 2079      01000000 
 2080 0ddc C68424A1 		movb	$0, 417(%rsp)
 2080      01000000 
 2081 0de4 48C78424 		movq	$0, 424(%rsp)
 2081      A8010000 
 2081      00000000 
 2082 0df0 48C78424 		movq	$0, 432(%rsp)
 2082      B0010000 
 2082      00000000 
 2083 0dfc 48C78424 		movq	$0, 440(%rsp)
 2083      B8010000 
 2083      00000000 
 2084 0e08 48C78424 		movq	$0, 448(%rsp)
 2084      C0010000 
 2084      00000000 
 2085 0e14 48896C24 		movq	%rbp, 48(%rsp)
 2085      30
 2086 0e19 48898424 		movq	%rax, 192(%rsp)
 2086      C0000000 
 2087              	.LEHB56:
 2088 0e21 E8000000 		call	_ZNSt9basic_iosIcSt11char_traitsIcEE4initEPSt15basic_streambufIcS1_E@PLT
 2088      00
 2089              	.LEHE56:
 2090 0e26 488D0500 		leaq	24+_ZTCN8UnitTest15MemoryOutStreamE0_NSt7__cxx1119basic_ostringstreamIcSt11char_traitsIcESaIc
 2090      000000
 2091 0e2d 660FEFC0 		pxor	%xmm0, %xmm0
 2092 0e31 488D7B40 		leaq	64(%rbx), %rdi
 2093 0e35 4C8D2D00 		leaq	16+_ZTVSt15basic_streambufIcSt11char_traitsIcEE(%rip), %r13
 2093      000000
 2094 0e3c 4C8D7828 		leaq	40(%rax), %r15
 2095 0e40 48894424 		movq	%rax, 48(%rsp)
 2095      30
 2096 0e45 4C896C24 		movq	%r13, 56(%rsp)
 2096      38
 2097 0e4a 4C89BC24 		movq	%r15, 192(%rsp)
 2097      C0000000 
 2098 0e52 0F294424 		movaps	%xmm0, 64(%rsp)
 2098      40
 2099 0e57 0F294424 		movaps	%xmm0, 80(%rsp)
 2099      50
 2100 0e5c 0F294424 		movaps	%xmm0, 96(%rsp)
 2100      60
 2101 0e61 E8000000 		call	_ZNSt6localeC1Ev@PLT
 2101      00
 2102 0e66 488D0500 		leaq	16+_ZTVNSt7__cxx1115basic_stringbufIcSt11char_traitsIcESaIcEEE(%rip), %rax
 2102      000000
 2103 0e6d 488D7308 		leaq	8(%rbx), %rsi
 2104 0e71 48894424 		movq	%rax, 56(%rsp)
 2104      38
 2105 0e76 488D4360 		leaq	96(%rbx), %rax
 2106 0e7a C7442478 		movl	$16, 120(%rsp)
 2106      10000000 
 2107 0e82 48C78424 		movq	$0, 136(%rsp)
 2107      88000000 
 2107      00000000 
 2108 0e8e C6842490 		movb	$0, 144(%rsp)
 2108      00000000 
 2109 0e96 48898424 		movq	%rax, 128(%rsp)
 2109      80000000 
 2110 0e9e 488B4424 		movq	48(%rsp), %rax
 2110      30
 2111 0ea3 488B78E8 		movq	-24(%rax), %rdi
 2112 0ea7 4801DF   		addq	%rbx, %rdi
 2113              	.LEHB57:
 2114 0eaa E8000000 		call	_ZNSt9basic_iosIcSt11char_traitsIcEE4initEPSt15basic_streambufIcS1_E@PLT
 2114      00
 2115              	.LEHE57:
 2116 0eaf 4C8D2500 		leaq	24+_ZTVN8UnitTest15MemoryOutStreamE(%rip), %r12
 2116      000000
 2117 0eb6 488D8380 		leaq	128(%rbx), %rax
 2117      000000
 2118 0ebd BE7B0000 		movl	$123, %esi
 2118      00
 2119 0ec2 4889DF   		movq	%rbx, %rdi
 2120 0ec5 48C78424 		movq	$0, 168(%rsp)
 2120      A8000000 
 2120      00000000 
 2121 0ed1 C68424B0 		movb	$0, 176(%rsp)
 2121      00000000 
 2122 0ed9 4D8D7424 		leaq	40(%r12), %r14
 2122      28
 2123 0ede 4C896424 		movq	%r12, 48(%rsp)
 2123      30
 2124 0ee3 48898424 		movq	%rax, 160(%rsp)
 2124      A0000000 
 2125 0eeb 4C89B424 		movq	%r14, 192(%rsp)
 2125      C0000000 
 2126              	.LEHB58:
 2127 0ef3 E8000000 		call	_ZNSo9_M_insertImEERSoT_@PLT
 2127      00
 2128              	.LEHE58:
 2129              	.LEHB59:
 2130 0ef8 E8000000 		call	_ZN8UnitTest11CurrentTest7DetailsEv@PLT
 2130      00
 2131 0efd 488D4C24 		leaq	16(%rsp), %rcx
 2131      10
 2132 0f02 488B30   		movq	(%rax), %rsi
 2133 0f05 BA2B0000 		movl	$43, %edx
 2133      00
 2134 0f0a 4889CF   		movq	%rcx, %rdi
 2135 0f0d 48890C24 		movq	%rcx, (%rsp)
 2136 0f11 E8000000 		call	_ZN8UnitTest11TestDetailsC1ERKS0_i@PLT
 2136      00
 2137 0f16 4889DF   		movq	%rbx, %rdi
 2138 0f19 E8000000 		call	_ZNK8UnitTest15MemoryOutStream7GetTextEv@PLT
 2138      00
 2139 0f1e 48894424 		movq	%rax, 8(%rsp)
 2139      08
 2140 0f23 E8000000 		call	_ZN8UnitTest11CurrentTest7ResultsEv@PLT
 2140      00
 2141 0f28 488B0C24 		movq	(%rsp), %rcx
 2142 0f2c 488B5424 		movq	8(%rsp), %rdx
 2142      08
 2143 0f31 488D3500 		leaq	.LC6(%rip), %rsi
 2143      000000
 2144 0f38 488B38   		movq	(%rax), %rdi
 2145 0f3b E8000000 		call	_ZN8UnitTest10CheckEqualERNS_11TestResultsEPKcS3_RKNS_11TestDetailsE@PLT
 2145      00
 2146              	.LEHE59:
 2147              	.L161:
 2148 0f40 488BBC24 		movq	160(%rsp), %rdi
 2148      A0000000 
 2149 0f48 488D8380 		leaq	128(%rbx), %rax
 2149      000000
 2150 0f4f 4C896424 		movq	%r12, 48(%rsp)
 2150      30
 2151 0f54 4C89B424 		movq	%r14, 192(%rsp)
 2151      C0000000 
 2152 0f5c 4839C7   		cmpq	%rax, %rdi
 2153 0f5f 7405     		je	.L158
 2154 0f61 E8000000 		call	_ZdlPv@PLT
 2154      00
 2155              	.L158:
 2156 0f66 488BBC24 		movq	128(%rsp), %rdi
 2156      80000000 
 2157 0f6e F30F7E05 		movq	.LC4(%rip), %xmm0
 2157      00000000 
 2158 0f76 488D4360 		leaq	96(%rbx), %rax
 2159 0f7a 0F160500 		movhps	.LC5(%rip), %xmm0
 2159      000000
 2160 0f81 4C89BC24 		movq	%r15, 192(%rsp)
 2160      C0000000 
 2161 0f89 4839C7   		cmpq	%rax, %rdi
 2162 0f8c 0F294424 		movaps	%xmm0, 48(%rsp)
 2162      30
 2163 0f91 7405     		je	.L159
 2164 0f93 E8000000 		call	_ZdlPv@PLT
 2164      00
 2165              	.L159:
 2166 0f98 488D7B40 		leaq	64(%rbx), %rdi
 2167 0f9c 4C896C24 		movq	%r13, 56(%rsp)
 2167      38
 2168 0fa1 E8000000 		call	_ZNSt6localeD1Ev@PLT
 2168      00
 2169 0fa6 488D0500 		leaq	16+_ZTVSt9basic_iosIcSt11char_traitsIcEE(%rip), %rax
 2169      000000
 2170 0fad 488DBB90 		leaq	144(%rbx), %rdi
 2170      000000
 2171 0fb4 48896C24 		movq	%rbp, 48(%rsp)
 2171      30
 2172 0fb9 48898424 		movq	%rax, 192(%rsp)
 2172      C0000000 
 2173              	.LEHB60:
 2174 0fc1 E8000000 		call	_ZNSt8ios_baseD2Ev@PLT
 2174      00
 2175              	.LEHE60:
 2176 0fc6 488B8424 		movq	456(%rsp), %rax
 2176      C8010000 
 2177 0fce 64483304 		xorq	%fs:40, %rax
 2177      25280000 
 2177      00
 2178 0fd7 7512     		jne	.L174
 2179 0fd9 4881C4D8 		addq	$472, %rsp
 2179      010000
 2180              		.cfi_remember_state
 2181              		.cfi_def_cfa_offset 56
 2182 0fe0 5B       		popq	%rbx
 2183              		.cfi_def_cfa_offset 48
 2184 0fe1 5D       		popq	%rbp
 2185              		.cfi_def_cfa_offset 40
 2186 0fe2 415C     		popq	%r12
 2187              		.cfi_def_cfa_offset 32
 2188 0fe4 415D     		popq	%r13
 2189              		.cfi_def_cfa_offset 24
 2190 0fe6 415E     		popq	%r14
 2191              		.cfi_def_cfa_offset 16
 2192 0fe8 415F     		popq	%r15
 2193              		.cfi_def_cfa_offset 8
 2194 0fea C3       		ret
 2195              	.L174:
 2196              		.cfi_restore_state
 2197 0feb E8000000 		call	__stack_chk_fail@PLT
 2197      00
 2198              	.L166:
 2199 0ff0 4889C7   		movq	%rax, %rdi
 2200 0ff3 E8000000 		call	__cxa_begin_catch@PLT
 2200      00
 2201              	.LEHB61:
 2202 0ff8 E8000000 		call	_ZN8UnitTest11CurrentTest7ResultsEv@PLT
 2202      00
 2203 0ffd 488B00   		movq	(%rax), %rax
 2204 1000 48894424 		movq	%rax, 8(%rsp)
 2204      08
 2205 1005 E8000000 		call	_ZN8UnitTest11CurrentTest7DetailsEv@PLT
 2205      00
 2206 100a 488D4C24 		leaq	16(%rsp), %rcx
 2206      10
 2207 100f 488B30   		movq	(%rax), %rsi
 2208 1012 BA2B0000 		movl	$43, %edx
 2208      00
 2209 1017 4889CF   		movq	%rcx, %rdi
 2210 101a 48890C24 		movq	%rcx, (%rsp)
 2211 101e E8000000 		call	_ZN8UnitTest11TestDetailsC1ERKS0_i@PLT
 2211      00
 2212 1023 488B3424 		movq	(%rsp), %rsi
 2213 1027 488B7C24 		movq	8(%rsp), %rdi
 2213      08
 2214 102c 488D1500 		leaq	.LC7(%rip), %rdx
 2214      000000
 2215 1033 E8000000 		call	_ZN8UnitTest11TestResults13OnTestFailureERKNS_11TestDetailsEPKc@PLT
 2215      00
 2216              	.LEHE61:
 2217              	.LEHB62:
 2218 1038 E8000000 		call	__cxa_end_catch@PLT
 2218      00
 2219              	.LEHE62:
 2220 103d E9FEFEFF 		jmp	.L161
 2220      FF
 2221              	.L165:
 2222 1042 4889C5   		movq	%rax, %rbp
 2223              	.L163:
 2224 1045 4889DF   		movq	%rbx, %rdi
 2225 1048 E8000000 		call	_ZN8UnitTest15MemoryOutStreamD1Ev
 2225      00
 2226 104d 4889EF   		movq	%rbp, %rdi
 2227              	.LEHB63:
 2228 1050 E8000000 		call	_Unwind_Resume@PLT
 2228      00
 2229              	.LEHE63:
 2230              	.L167:
 2231 1055 4889C5   		movq	%rax, %rbp
 2232 1058 E8000000 		call	__cxa_end_catch@PLT
 2232      00
 2233 105d EBE6     		jmp	.L163
 2234              	.L169:
 2235 105f 488D7B08 		leaq	8(%rbx), %rdi
 2236 1063 4989C4   		movq	%rax, %r12
 2237 1066 E8000000 		call	_ZNSt7__cxx1115basic_stringbufIcSt11char_traitsIcESaIcEED1Ev
 2237      00
 2238 106b 48896C24 		movq	%rbp, 48(%rsp)
 2238      30
 2239              	.L156:
 2240 1070 488D0500 		leaq	16+_ZTVSt9basic_iosIcSt11char_traitsIcEE(%rip), %rax
 2240      000000
 2241 1077 488DBB90 		leaq	144(%rbx), %rdi
 2241      000000
 2242 107e 48898424 		movq	%rax, 192(%rsp)
 2242      C0000000 
 2243 1086 E8000000 		call	_ZNSt8ios_baseD2Ev@PLT
 2243      00
 2244 108b 4C89E7   		movq	%r12, %rdi
 2245              	.LEHB64:
 2246 108e E8000000 		call	_Unwind_Resume@PLT
 2246      00
 2247              	.LEHE64:
 2248              	.L168:
 2249 1093 4989C4   		movq	%rax, %r12
 2250 1096 EBD8     		jmp	.L156
 2251              		.cfi_endproc
 2252              	.LFE1161:
 2253              		.section	.gcc_except_table
 2254              		.align 4
 2255              	.LLSDA1161:
 2256 0174 FF       		.byte	0xff
 2257 0175 9B       		.byte	0x9b
 2258 0176 3D       		.uleb128 .LLSDATT1161-.LLSDATTD1161
 2259              	.LLSDATTD1161:
 2260 0177 01       		.byte	0x1
 2261 0178 33       		.uleb128 .LLSDACSE1161-.LLSDACSB1161
 2262              	.LLSDACSB1161:
 2263 0179 A101     		.uleb128 .LEHB56-.LFB1161
 2264 017b 05       		.uleb128 .LEHE56-.LEHB56
 2265 017c 9306     		.uleb128 .L168-.LFB1161
 2266 017e 00       		.uleb128 0
 2267 017f AA02     		.uleb128 .LEHB57-.LFB1161
 2268 0181 05       		.uleb128 .LEHE57-.LEHB57
 2269 0182 DF05     		.uleb128 .L169-.LFB1161
 2270 0184 00       		.uleb128 0
 2271 0185 F302     		.uleb128 .LEHB58-.LFB1161
 2272 0187 05       		.uleb128 .LEHE58-.LEHB58
 2273 0188 C205     		.uleb128 .L165-.LFB1161
 2274 018a 00       		.uleb128 0
 2275 018b F802     		.uleb128 .LEHB59-.LFB1161
 2276 018d 48       		.uleb128 .LEHE59-.LEHB59
 2277 018e F004     		.uleb128 .L166-.LFB1161
 2278 0190 01       		.uleb128 0x1
 2279 0191 C104     		.uleb128 .LEHB60-.LFB1161
 2280 0193 05       		.uleb128 .LEHE60-.LEHB60
 2281 0194 00       		.uleb128 0
 2282 0195 00       		.uleb128 0
 2283 0196 F804     		.uleb128 .LEHB61-.LFB1161
 2284 0198 40       		.uleb128 .LEHE61-.LEHB61
 2285 0199 D505     		.uleb128 .L167-.LFB1161
 2286 019b 00       		.uleb128 0
 2287 019c B805     		.uleb128 .LEHB62-.LFB1161
 2288 019e 05       		.uleb128 .LEHE62-.LEHB62
 2289 019f C205     		.uleb128 .L165-.LFB1161
 2290 01a1 00       		.uleb128 0
 2291 01a2 D005     		.uleb128 .LEHB63-.LFB1161
 2292 01a4 05       		.uleb128 .LEHE63-.LEHB63
 2293 01a5 00       		.uleb128 0
 2294 01a6 00       		.uleb128 0
 2295 01a7 8E06     		.uleb128 .LEHB64-.LFB1161
 2296 01a9 05       		.uleb128 .LEHE64-.LEHB64
 2297 01aa 00       		.uleb128 0
 2298 01ab 00       		.uleb128 0
 2299              	.LLSDACSE1161:
 2300 01ac 01       		.byte	0x1
 2301 01ad 00       		.byte	0
 2302 01ae 0000     		.align 4
 2303 01b0 00000000 		.long	0
 2304              	
 2305              	.LLSDATT1161:
 2306              		.text
 2308              		.section	.rodata.str1.1
 2309              	.LC10:
 2310 0020 4C616C61 		.string	"Lalala"
 2310      6C6100
 2311              		.section	.rodata.str1.8
 2312 00f5 000000   		.align 8
 2313              	.LC11:
 2314 00f8 556E6861 		.string	"Unhandled exception in CHECK_EQUAL(\"Lalala\", stream.GetText())"
 2314      6E646C65 
 2314      64206578 
 2314      63657074 
 2314      696F6E20 
 2315              		.text
 2316              		.align 2
 2317 1098 0F1F8400 		.p2align 4,,15
 2317      00000000 
 2319              	_ZNK12_GLOBAL__N_133TestStreamingTextCopiesCharacters7RunImplEv:
 2320              	.LFB1149:
 2321              		.cfi_startproc
 2322              		.cfi_personality 0x9b,DW.ref.__gxx_personality_v0
 2323              		.cfi_lsda 0x1b,.LLSDA1149
 2324 10a0 4157     		pushq	%r15
 2325              		.cfi_def_cfa_offset 16
 2326              		.cfi_offset 15, -16
 2327 10a2 4156     		pushq	%r14
 2328              		.cfi_def_cfa_offset 24
 2329              		.cfi_offset 14, -24
 2330 10a4 4155     		pushq	%r13
 2331              		.cfi_def_cfa_offset 32
 2332              		.cfi_offset 13, -32
 2333 10a6 4154     		pushq	%r12
 2334              		.cfi_def_cfa_offset 40
 2335              		.cfi_offset 12, -40
 2336 10a8 55       		pushq	%rbp
 2337              		.cfi_def_cfa_offset 48
 2338              		.cfi_offset 6, -48
 2339 10a9 53       		pushq	%rbx
 2340              		.cfi_def_cfa_offset 56
 2341              		.cfi_offset 3, -56
 2342 10aa 488D2D00 		leaq	24+_ZTCN8UnitTest15MemoryOutStreamE0_So(%rip), %rbp
 2342      000000
 2343 10b1 4881ECD8 		subq	$472, %rsp
 2343      010000
 2344              		.cfi_def_cfa_offset 528
 2345 10b8 488D5C24 		leaq	48(%rsp), %rbx
 2345      30
 2346 10bd 64488B04 		movq	%fs:40, %rax
 2346      25280000 
 2346      00
 2347 10c6 48898424 		movq	%rax, 456(%rsp)
 2347      C8010000 
 2348 10ce 31C0     		xorl	%eax, %eax
 2349 10d0 4C8DA390 		leaq	144(%rbx), %r12
 2349      000000
 2350 10d7 4C89E7   		movq	%r12, %rdi
 2351 10da E8000000 		call	_ZNSt8ios_baseC2Ev@PLT
 2351      00
 2352 10df 488D4528 		leaq	40(%rbp), %rax
 2353 10e3 31F6     		xorl	%esi, %esi
 2354 10e5 4C89E7   		movq	%r12, %rdi
 2355 10e8 48C78424 		movq	$0, 408(%rsp)
 2355      98010000 
 2355      00000000 
 2356 10f4 C68424A0 		movb	$0, 416(%rsp)
 2356      01000000 
 2357 10fc C68424A1 		movb	$0, 417(%rsp)
 2357      01000000 
 2358 1104 48C78424 		movq	$0, 424(%rsp)
 2358      A8010000 
 2358      00000000 
 2359 1110 48C78424 		movq	$0, 432(%rsp)
 2359      B0010000 
 2359      00000000 
 2360 111c 48C78424 		movq	$0, 440(%rsp)
 2360      B8010000 
 2360      00000000 
 2361 1128 48C78424 		movq	$0, 448(%rsp)
 2361      C0010000 
 2361      00000000 
 2362 1134 48896C24 		movq	%rbp, 48(%rsp)
 2362      30
 2363 1139 48898424 		movq	%rax, 192(%rsp)
 2363      C0000000 
 2364              	.LEHB65:
 2365 1141 E8000000 		call	_ZNSt9basic_iosIcSt11char_traitsIcEE4initEPSt15basic_streambufIcS1_E@PLT
 2365      00
 2366              	.LEHE65:
 2367 1146 488D0500 		leaq	24+_ZTCN8UnitTest15MemoryOutStreamE0_NSt7__cxx1119basic_ostringstreamIcSt11char_traitsIcESaIc
 2367      000000
 2368 114d 660FEFC0 		pxor	%xmm0, %xmm0
 2369 1151 488D7B40 		leaq	64(%rbx), %rdi
 2370 1155 4C8D2D00 		leaq	16+_ZTVSt15basic_streambufIcSt11char_traitsIcEE(%rip), %r13
 2370      000000
 2371 115c 4C8D7828 		leaq	40(%rax), %r15
 2372 1160 48894424 		movq	%rax, 48(%rsp)
 2372      30
 2373 1165 4C896C24 		movq	%r13, 56(%rsp)
 2373      38
 2374 116a 4C89BC24 		movq	%r15, 192(%rsp)
 2374      C0000000 
 2375 1172 0F294424 		movaps	%xmm0, 64(%rsp)
 2375      40
 2376 1177 0F294424 		movaps	%xmm0, 80(%rsp)
 2376      50
 2377 117c 0F294424 		movaps	%xmm0, 96(%rsp)
 2377      60
 2378 1181 E8000000 		call	_ZNSt6localeC1Ev@PLT
 2378      00
 2379 1186 488D0500 		leaq	16+_ZTVNSt7__cxx1115basic_stringbufIcSt11char_traitsIcESaIcEEE(%rip), %rax
 2379      000000
 2380 118d 488D7308 		leaq	8(%rbx), %rsi
 2381 1191 48894424 		movq	%rax, 56(%rsp)
 2381      38
 2382 1196 488D4360 		leaq	96(%rbx), %rax
 2383 119a C7442478 		movl	$16, 120(%rsp)
 2383      10000000 
 2384 11a2 48C78424 		movq	$0, 136(%rsp)
 2384      88000000 
 2384      00000000 
 2385 11ae C6842490 		movb	$0, 144(%rsp)
 2385      00000000 
 2386 11b6 48898424 		movq	%rax, 128(%rsp)
 2386      80000000 
 2387 11be 488B4424 		movq	48(%rsp), %rax
 2387      30
 2388 11c3 488B78E8 		movq	-24(%rax), %rdi
 2389 11c7 4801DF   		addq	%rbx, %rdi
 2390              	.LEHB66:
 2391 11ca E8000000 		call	_ZNSt9basic_iosIcSt11char_traitsIcEE4initEPSt15basic_streambufIcS1_E@PLT
 2391      00
 2392              	.LEHE66:
 2393 11cf 4C8D2500 		leaq	24+_ZTVN8UnitTest15MemoryOutStreamE(%rip), %r12
 2393      000000
 2394 11d6 488D8380 		leaq	128(%rbx), %rax
 2394      000000
 2395 11dd 488D3500 		leaq	.LC10(%rip), %rsi
 2395      000000
 2396 11e4 BA060000 		movl	$6, %edx
 2396      00
 2397 11e9 4889DF   		movq	%rbx, %rdi
 2398 11ec 48C78424 		movq	$0, 168(%rsp)
 2398      A8000000 
 2398      00000000 
 2399 11f8 4D8D7424 		leaq	40(%r12), %r14
 2399      28
 2400 11fd 4C896424 		movq	%r12, 48(%rsp)
 2400      30
 2401 1202 48898424 		movq	%rax, 160(%rsp)
 2401      A0000000 
 2402 120a C68424B0 		movb	$0, 176(%rsp)
 2402      00000000 
 2403 1212 4C89B424 		movq	%r14, 192(%rsp)
 2403      C0000000 
 2404              	.LEHB67:
 2405 121a E8000000 		call	_ZSt16__ostream_insertIcSt11char_traitsIcEERSt13basic_ostreamIT_T0_ES6_PKS3_l@PLT
 2405      00
 2406              	.LEHE67:
 2407              	.LEHB68:
 2408 121f E8000000 		call	_ZN8UnitTest11CurrentTest7DetailsEv@PLT
 2408      00
 2409 1224 488D4C24 		leaq	16(%rsp), %rcx
 2409      10
 2410 1229 488B30   		movq	(%rax), %rsi
 2411 122c BA160000 		movl	$22, %edx
 2411      00
 2412 1231 4889CF   		movq	%rcx, %rdi
 2413 1234 48890C24 		movq	%rcx, (%rsp)
 2414 1238 E8000000 		call	_ZN8UnitTest11TestDetailsC1ERKS0_i@PLT
 2414      00
 2415 123d 4889DF   		movq	%rbx, %rdi
 2416 1240 E8000000 		call	_ZNK8UnitTest15MemoryOutStream7GetTextEv@PLT
 2416      00
 2417 1245 48894424 		movq	%rax, 8(%rsp)
 2417      08
 2418 124a E8000000 		call	_ZN8UnitTest11CurrentTest7ResultsEv@PLT
 2418      00
 2419 124f 488B0C24 		movq	(%rsp), %rcx
 2420 1253 488B5424 		movq	8(%rsp), %rdx
 2420      08
 2421 1258 488D3500 		leaq	.LC10(%rip), %rsi
 2421      000000
 2422 125f 488B38   		movq	(%rax), %rdi
 2423 1262 E8000000 		call	_ZN8UnitTest10CheckEqualERNS_11TestResultsEPKcS3_RKNS_11TestDetailsE@PLT
 2423      00
 2424              	.LEHE68:
 2425              	.L183:
 2426 1267 488BBC24 		movq	160(%rsp), %rdi
 2426      A0000000 
 2427 126f 488D8380 		leaq	128(%rbx), %rax
 2427      000000
 2428 1276 4C896424 		movq	%r12, 48(%rsp)
 2428      30
 2429 127b 4C89B424 		movq	%r14, 192(%rsp)
 2429      C0000000 
 2430 1283 4839C7   		cmpq	%rax, %rdi
 2431 1286 7405     		je	.L180
 2432 1288 E8000000 		call	_ZdlPv@PLT
 2432      00
 2433              	.L180:
 2434 128d 488BBC24 		movq	128(%rsp), %rdi
 2434      80000000 
 2435 1295 F30F7E05 		movq	.LC4(%rip), %xmm0
 2435      00000000 
 2436 129d 488D4360 		leaq	96(%rbx), %rax
 2437 12a1 0F160500 		movhps	.LC5(%rip), %xmm0
 2437      000000
 2438 12a8 4C89BC24 		movq	%r15, 192(%rsp)
 2438      C0000000 
 2439 12b0 4839C7   		cmpq	%rax, %rdi
 2440 12b3 0F294424 		movaps	%xmm0, 48(%rsp)
 2440      30
 2441 12b8 7405     		je	.L181
 2442 12ba E8000000 		call	_ZdlPv@PLT
 2442      00
 2443              	.L181:
 2444 12bf 488D7B40 		leaq	64(%rbx), %rdi
 2445 12c3 4C896C24 		movq	%r13, 56(%rsp)
 2445      38
 2446 12c8 E8000000 		call	_ZNSt6localeD1Ev@PLT
 2446      00
 2447 12cd 488D0500 		leaq	16+_ZTVSt9basic_iosIcSt11char_traitsIcEE(%rip), %rax
 2447      000000
 2448 12d4 488DBB90 		leaq	144(%rbx), %rdi
 2448      000000
 2449 12db 48896C24 		movq	%rbp, 48(%rsp)
 2449      30
 2450 12e0 48898424 		movq	%rax, 192(%rsp)
 2450      C0000000 
 2451              	.LEHB69:
 2452 12e8 E8000000 		call	_ZNSt8ios_baseD2Ev@PLT
 2452      00
 2453              	.LEHE69:
 2454 12ed 488B8424 		movq	456(%rsp), %rax
 2454      C8010000 
 2455 12f5 64483304 		xorq	%fs:40, %rax
 2455      25280000 
 2455      00
 2456 12fe 7512     		jne	.L196
 2457 1300 4881C4D8 		addq	$472, %rsp
 2457      010000
 2458              		.cfi_remember_state
 2459              		.cfi_def_cfa_offset 56
 2460 1307 5B       		popq	%rbx
 2461              		.cfi_def_cfa_offset 48
 2462 1308 5D       		popq	%rbp
 2463              		.cfi_def_cfa_offset 40
 2464 1309 415C     		popq	%r12
 2465              		.cfi_def_cfa_offset 32
 2466 130b 415D     		popq	%r13
 2467              		.cfi_def_cfa_offset 24
 2468 130d 415E     		popq	%r14
 2469              		.cfi_def_cfa_offset 16
 2470 130f 415F     		popq	%r15
 2471              		.cfi_def_cfa_offset 8
 2472 1311 C3       		ret
 2473              	.L196:
 2474              		.cfi_restore_state
 2475 1312 E8000000 		call	__stack_chk_fail@PLT
 2475      00
 2476              	.L188:
 2477 1317 4889C7   		movq	%rax, %rdi
 2478 131a E8000000 		call	__cxa_begin_catch@PLT
 2478      00
 2479              	.LEHB70:
 2480 131f E8000000 		call	_ZN8UnitTest11CurrentTest7ResultsEv@PLT
 2480      00
 2481 1324 488B00   		movq	(%rax), %rax
 2482 1327 48894424 		movq	%rax, 8(%rsp)
 2482      08
 2483 132c E8000000 		call	_ZN8UnitTest11CurrentTest7DetailsEv@PLT
 2483      00
 2484 1331 488D4C24 		leaq	16(%rsp), %rcx
 2484      10
 2485 1336 488B30   		movq	(%rax), %rsi
 2486 1339 BA160000 		movl	$22, %edx
 2486      00
 2487 133e 4889CF   		movq	%rcx, %rdi
 2488 1341 48890C24 		movq	%rcx, (%rsp)
 2489 1345 E8000000 		call	_ZN8UnitTest11TestDetailsC1ERKS0_i@PLT
 2489      00
 2490 134a 488B3424 		movq	(%rsp), %rsi
 2491 134e 488B7C24 		movq	8(%rsp), %rdi
 2491      08
 2492 1353 488D1500 		leaq	.LC11(%rip), %rdx
 2492      000000
 2493 135a E8000000 		call	_ZN8UnitTest11TestResults13OnTestFailureERKNS_11TestDetailsEPKc@PLT
 2493      00
 2494              	.LEHE70:
 2495              	.LEHB71:
 2496 135f E8000000 		call	__cxa_end_catch@PLT
 2496      00
 2497              	.LEHE71:
 2498 1364 E9FEFEFF 		jmp	.L183
 2498      FF
 2499              	.L187:
 2500 1369 4889C5   		movq	%rax, %rbp
 2501              	.L185:
 2502 136c 4889DF   		movq	%rbx, %rdi
 2503 136f E8000000 		call	_ZN8UnitTest15MemoryOutStreamD1Ev
 2503      00
 2504 1374 4889EF   		movq	%rbp, %rdi
 2505              	.LEHB72:
 2506 1377 E8000000 		call	_Unwind_Resume@PLT
 2506      00
 2507              	.LEHE72:
 2508              	.L189:
 2509 137c 4889C5   		movq	%rax, %rbp
 2510 137f E8000000 		call	__cxa_end_catch@PLT
 2510      00
 2511 1384 EBE6     		jmp	.L185
 2512              	.L191:
 2513 1386 488D7B08 		leaq	8(%rbx), %rdi
 2514 138a 4989C4   		movq	%rax, %r12
 2515 138d E8000000 		call	_ZNSt7__cxx1115basic_stringbufIcSt11char_traitsIcESaIcEED1Ev
 2515      00
 2516 1392 48896C24 		movq	%rbp, 48(%rsp)
 2516      30
 2517              	.L178:
 2518 1397 488D0500 		leaq	16+_ZTVSt9basic_iosIcSt11char_traitsIcEE(%rip), %rax
 2518      000000
 2519 139e 488DBB90 		leaq	144(%rbx), %rdi
 2519      000000
 2520 13a5 48898424 		movq	%rax, 192(%rsp)
 2520      C0000000 
 2521 13ad E8000000 		call	_ZNSt8ios_baseD2Ev@PLT
 2521      00
 2522 13b2 4C89E7   		movq	%r12, %rdi
 2523              	.LEHB73:
 2524 13b5 E8000000 		call	_Unwind_Resume@PLT
 2524      00
 2525              	.LEHE73:
 2526              	.L190:
 2527 13ba 4989C4   		movq	%rax, %r12
 2528 13bd EBD8     		jmp	.L178
 2529              		.cfi_endproc
 2530              	.LFE1149:
 2531              		.section	.gcc_except_table
 2532              		.align 4
 2533              	.LLSDA1149:
 2534 01b4 FF       		.byte	0xff
 2535 01b5 9B       		.byte	0x9b
 2536 01b6 3D       		.uleb128 .LLSDATT1149-.LLSDATTD1149
 2537              	.LLSDATTD1149:
 2538 01b7 01       		.byte	0x1
 2539 01b8 33       		.uleb128 .LLSDACSE1149-.LLSDACSB1149
 2540              	.LLSDACSB1149:
 2541 01b9 A101     		.uleb128 .LEHB65-.LFB1149
 2542 01bb 05       		.uleb128 .LEHE65-.LEHB65
 2543 01bc 9A06     		.uleb128 .L190-.LFB1149
 2544 01be 00       		.uleb128 0
 2545 01bf AA02     		.uleb128 .LEHB66-.LFB1149
 2546 01c1 05       		.uleb128 .LEHE66-.LEHB66
 2547 01c2 E605     		.uleb128 .L191-.LFB1149
 2548 01c4 00       		.uleb128 0
 2549 01c5 FA02     		.uleb128 .LEHB67-.LFB1149
 2550 01c7 05       		.uleb128 .LEHE67-.LEHB67
 2551 01c8 C905     		.uleb128 .L187-.LFB1149
 2552 01ca 00       		.uleb128 0
 2553 01cb FF02     		.uleb128 .LEHB68-.LFB1149
 2554 01cd 48       		.uleb128 .LEHE68-.LEHB68
 2555 01ce F704     		.uleb128 .L188-.LFB1149
 2556 01d0 01       		.uleb128 0x1
 2557 01d1 C804     		.uleb128 .LEHB69-.LFB1149
 2558 01d3 05       		.uleb128 .LEHE69-.LEHB69
 2559 01d4 00       		.uleb128 0
 2560 01d5 00       		.uleb128 0
 2561 01d6 FF04     		.uleb128 .LEHB70-.LFB1149
 2562 01d8 40       		.uleb128 .LEHE70-.LEHB70
 2563 01d9 DC05     		.uleb128 .L189-.LFB1149
 2564 01db 00       		.uleb128 0
 2565 01dc BF05     		.uleb128 .LEHB71-.LFB1149
 2566 01de 05       		.uleb128 .LEHE71-.LEHB71
 2567 01df C905     		.uleb128 .L187-.LFB1149
 2568 01e1 00       		.uleb128 0
 2569 01e2 D705     		.uleb128 .LEHB72-.LFB1149
 2570 01e4 05       		.uleb128 .LEHE72-.LEHB72
 2571 01e5 00       		.uleb128 0
 2572 01e6 00       		.uleb128 0
 2573 01e7 9506     		.uleb128 .LEHB73-.LFB1149
 2574 01e9 05       		.uleb128 .LEHE73-.LEHB73
 2575 01ea 00       		.uleb128 0
 2576 01eb 00       		.uleb128 0
 2577              	.LLSDACSE1149:
 2578 01ec 01       		.byte	0x1
 2579 01ed 00       		.byte	0
 2580 01ee 0000     		.align 4
 2581 01f0 00000000 		.long	0
 2582              	
 2583              	.LLSDATT1149:
 2584              		.text
 2586              		.section	.rodata.str1.1
 2587              	.LC12:
 2588 0027 35333132 		.string	"53124"
 2588      3400
 2589              		.section	.rodata.str1.8
 2590 0137 00       		.align 8
 2591              	.LC13:
 2592 0138 556E6861 		.string	"Unhandled exception in CHECK_EQUAL(\"53124\", stream.GetText())"
 2592      6E646C65 
 2592      64206578 
 2592      63657074 
 2592      696F6E20 
 2593              		.text
 2594 13bf 90       		.align 2
 2595              		.p2align 4,,15
 2597              	_ZNK12_GLOBAL__N_141TestStreamingSizeTWritesCorrectCharacters7RunImplEv:
 2598              	.LFB1185:
 2599              		.cfi_startproc
 2600              		.cfi_personality 0x9b,DW.ref.__gxx_personality_v0
 2601              		.cfi_lsda 0x1b,.LLSDA1185
 2602 13c0 4157     		pushq	%r15
 2603              		.cfi_def_cfa_offset 16
 2604              		.cfi_offset 15, -16
 2605 13c2 4156     		pushq	%r14
 2606              		.cfi_def_cfa_offset 24
 2607              		.cfi_offset 14, -24
 2608 13c4 4155     		pushq	%r13
 2609              		.cfi_def_cfa_offset 32
 2610              		.cfi_offset 13, -32
 2611 13c6 4154     		pushq	%r12
 2612              		.cfi_def_cfa_offset 40
 2613              		.cfi_offset 12, -40
 2614 13c8 55       		pushq	%rbp
 2615              		.cfi_def_cfa_offset 48
 2616              		.cfi_offset 6, -48
 2617 13c9 53       		pushq	%rbx
 2618              		.cfi_def_cfa_offset 56
 2619              		.cfi_offset 3, -56
 2620 13ca 488D2D00 		leaq	24+_ZTCN8UnitTest15MemoryOutStreamE0_So(%rip), %rbp
 2620      000000
 2621 13d1 4881ECD8 		subq	$472, %rsp
 2621      010000
 2622              		.cfi_def_cfa_offset 528
 2623 13d8 488D5C24 		leaq	48(%rsp), %rbx
 2623      30
 2624 13dd 64488B04 		movq	%fs:40, %rax
 2624      25280000 
 2624      00
 2625 13e6 48898424 		movq	%rax, 456(%rsp)
 2625      C8010000 
 2626 13ee 31C0     		xorl	%eax, %eax
 2627 13f0 4C8DA390 		leaq	144(%rbx), %r12
 2627      000000
 2628 13f7 4C89E7   		movq	%r12, %rdi
 2629 13fa E8000000 		call	_ZNSt8ios_baseC2Ev@PLT
 2629      00
 2630 13ff 488D4528 		leaq	40(%rbp), %rax
 2631 1403 31F6     		xorl	%esi, %esi
 2632 1405 4C89E7   		movq	%r12, %rdi
 2633 1408 48C78424 		movq	$0, 408(%rsp)
 2633      98010000 
 2633      00000000 
 2634 1414 C68424A0 		movb	$0, 416(%rsp)
 2634      01000000 
 2635 141c C68424A1 		movb	$0, 417(%rsp)
 2635      01000000 
 2636 1424 48C78424 		movq	$0, 424(%rsp)
 2636      A8010000 
 2636      00000000 
 2637 1430 48C78424 		movq	$0, 432(%rsp)
 2637      B0010000 
 2637      00000000 
 2638 143c 48C78424 		movq	$0, 440(%rsp)
 2638      B8010000 
 2638      00000000 
 2639 1448 48C78424 		movq	$0, 448(%rsp)
 2639      C0010000 
 2639      00000000 
 2640 1454 48896C24 		movq	%rbp, 48(%rsp)
 2640      30
 2641 1459 48898424 		movq	%rax, 192(%rsp)
 2641      C0000000 
 2642              	.LEHB74:
 2643 1461 E8000000 		call	_ZNSt9basic_iosIcSt11char_traitsIcEE4initEPSt15basic_streambufIcS1_E@PLT
 2643      00
 2644              	.LEHE74:
 2645 1466 488D0500 		leaq	24+_ZTCN8UnitTest15MemoryOutStreamE0_NSt7__cxx1119basic_ostringstreamIcSt11char_traitsIcESaIc
 2645      000000
 2646 146d 660FEFC0 		pxor	%xmm0, %xmm0
 2647 1471 488D7B40 		leaq	64(%rbx), %rdi
 2648 1475 4C8D2D00 		leaq	16+_ZTVSt15basic_streambufIcSt11char_traitsIcEE(%rip), %r13
 2648      000000
 2649 147c 4C8D7828 		leaq	40(%rax), %r15
 2650 1480 48894424 		movq	%rax, 48(%rsp)
 2650      30
 2651 1485 4C896C24 		movq	%r13, 56(%rsp)
 2651      38
 2652 148a 4C89BC24 		movq	%r15, 192(%rsp)
 2652      C0000000 
 2653 1492 0F294424 		movaps	%xmm0, 64(%rsp)
 2653      40
 2654 1497 0F294424 		movaps	%xmm0, 80(%rsp)
 2654      50
 2655 149c 0F294424 		movaps	%xmm0, 96(%rsp)
 2655      60
 2656 14a1 E8000000 		call	_ZNSt6localeC1Ev@PLT
 2656      00
 2657 14a6 488D0500 		leaq	16+_ZTVNSt7__cxx1115basic_stringbufIcSt11char_traitsIcESaIcEEE(%rip), %rax
 2657      000000
 2658 14ad 488D7308 		leaq	8(%rbx), %rsi
 2659 14b1 48894424 		movq	%rax, 56(%rsp)
 2659      38
 2660 14b6 488D4360 		leaq	96(%rbx), %rax
 2661 14ba C7442478 		movl	$16, 120(%rsp)
 2661      10000000 
 2662 14c2 48C78424 		movq	$0, 136(%rsp)
 2662      88000000 
 2662      00000000 
 2663 14ce C6842490 		movb	$0, 144(%rsp)
 2663      00000000 
 2664 14d6 48898424 		movq	%rax, 128(%rsp)
 2664      80000000 
 2665 14de 488B4424 		movq	48(%rsp), %rax
 2665      30
 2666 14e3 488B78E8 		movq	-24(%rax), %rdi
 2667 14e7 4801DF   		addq	%rbx, %rdi
 2668              	.LEHB75:
 2669 14ea E8000000 		call	_ZNSt9basic_iosIcSt11char_traitsIcEE4initEPSt15basic_streambufIcS1_E@PLT
 2669      00
 2670              	.LEHE75:
 2671 14ef 4C8D2500 		leaq	24+_ZTVN8UnitTest15MemoryOutStreamE(%rip), %r12
 2671      000000
 2672 14f6 488D8380 		leaq	128(%rbx), %rax
 2672      000000
 2673 14fd BE84CF00 		movl	$53124, %esi
 2673      00
 2674 1502 4889DF   		movq	%rbx, %rdi
 2675 1505 48C78424 		movq	$0, 168(%rsp)
 2675      A8000000 
 2675      00000000 
 2676 1511 C68424B0 		movb	$0, 176(%rsp)
 2676      00000000 
 2677 1519 4D8D7424 		leaq	40(%r12), %r14
 2677      28
 2678 151e 4C896424 		movq	%r12, 48(%rsp)
 2678      30
 2679 1523 48898424 		movq	%rax, 160(%rsp)
 2679      A0000000 
 2680 152b 4C89B424 		movq	%r14, 192(%rsp)
 2680      C0000000 
 2681              	.LEHB76:
 2682 1533 E8000000 		call	_ZNSo9_M_insertImEERSoT_@PLT
 2682      00
 2683              	.LEHE76:
 2684              	.LEHB77:
 2685 1538 E8000000 		call	_ZN8UnitTest11CurrentTest7DetailsEv@PLT
 2685      00
 2686 153d 488D4C24 		leaq	16(%rsp), %rcx
 2686      10
 2687 1542 488B30   		movq	(%rax), %rsi
 2688 1545 BA570000 		movl	$87, %edx
 2688      00
 2689 154a 4889CF   		movq	%rcx, %rdi
 2690 154d 48890C24 		movq	%rcx, (%rsp)
 2691 1551 E8000000 		call	_ZN8UnitTest11TestDetailsC1ERKS0_i@PLT
 2691      00
 2692 1556 4889DF   		movq	%rbx, %rdi
 2693 1559 E8000000 		call	_ZNK8UnitTest15MemoryOutStream7GetTextEv@PLT
 2693      00
 2694 155e 48894424 		movq	%rax, 8(%rsp)
 2694      08
 2695 1563 E8000000 		call	_ZN8UnitTest11CurrentTest7ResultsEv@PLT
 2695      00
 2696 1568 488B0C24 		movq	(%rsp), %rcx
 2697 156c 488B5424 		movq	8(%rsp), %rdx
 2697      08
 2698 1571 488D3500 		leaq	.LC12(%rip), %rsi
 2698      000000
 2699 1578 488B38   		movq	(%rax), %rdi
 2700 157b E8000000 		call	_ZN8UnitTest10CheckEqualERNS_11TestResultsEPKcS3_RKNS_11TestDetailsE@PLT
 2700      00
 2701              	.LEHE77:
 2702              	.L205:
 2703 1580 488BBC24 		movq	160(%rsp), %rdi
 2703      A0000000 
 2704 1588 488D8380 		leaq	128(%rbx), %rax
 2704      000000
 2705 158f 4C896424 		movq	%r12, 48(%rsp)
 2705      30
 2706 1594 4C89B424 		movq	%r14, 192(%rsp)
 2706      C0000000 
 2707 159c 4839C7   		cmpq	%rax, %rdi
 2708 159f 7405     		je	.L202
 2709 15a1 E8000000 		call	_ZdlPv@PLT
 2709      00
 2710              	.L202:
 2711 15a6 488BBC24 		movq	128(%rsp), %rdi
 2711      80000000 
 2712 15ae F30F7E05 		movq	.LC4(%rip), %xmm0
 2712      00000000 
 2713 15b6 488D4360 		leaq	96(%rbx), %rax
 2714 15ba 0F160500 		movhps	.LC5(%rip), %xmm0
 2714      000000
 2715 15c1 4C89BC24 		movq	%r15, 192(%rsp)
 2715      C0000000 
 2716 15c9 4839C7   		cmpq	%rax, %rdi
 2717 15cc 0F294424 		movaps	%xmm0, 48(%rsp)
 2717      30
 2718 15d1 7405     		je	.L203
 2719 15d3 E8000000 		call	_ZdlPv@PLT
 2719      00
 2720              	.L203:
 2721 15d8 488D7B40 		leaq	64(%rbx), %rdi
 2722 15dc 4C896C24 		movq	%r13, 56(%rsp)
 2722      38
 2723 15e1 E8000000 		call	_ZNSt6localeD1Ev@PLT
 2723      00
 2724 15e6 488D0500 		leaq	16+_ZTVSt9basic_iosIcSt11char_traitsIcEE(%rip), %rax
 2724      000000
 2725 15ed 488DBB90 		leaq	144(%rbx), %rdi
 2725      000000
 2726 15f4 48896C24 		movq	%rbp, 48(%rsp)
 2726      30
 2727 15f9 48898424 		movq	%rax, 192(%rsp)
 2727      C0000000 
 2728              	.LEHB78:
 2729 1601 E8000000 		call	_ZNSt8ios_baseD2Ev@PLT
 2729      00
 2730              	.LEHE78:
 2731 1606 488B8424 		movq	456(%rsp), %rax
 2731      C8010000 
 2732 160e 64483304 		xorq	%fs:40, %rax
 2732      25280000 
 2732      00
 2733 1617 7512     		jne	.L218
 2734 1619 4881C4D8 		addq	$472, %rsp
 2734      010000
 2735              		.cfi_remember_state
 2736              		.cfi_def_cfa_offset 56
 2737 1620 5B       		popq	%rbx
 2738              		.cfi_def_cfa_offset 48
 2739 1621 5D       		popq	%rbp
 2740              		.cfi_def_cfa_offset 40
 2741 1622 415C     		popq	%r12
 2742              		.cfi_def_cfa_offset 32
 2743 1624 415D     		popq	%r13
 2744              		.cfi_def_cfa_offset 24
 2745 1626 415E     		popq	%r14
 2746              		.cfi_def_cfa_offset 16
 2747 1628 415F     		popq	%r15
 2748              		.cfi_def_cfa_offset 8
 2749 162a C3       		ret
 2750              	.L218:
 2751              		.cfi_restore_state
 2752 162b E8000000 		call	__stack_chk_fail@PLT
 2752      00
 2753              	.L210:
 2754 1630 4889C7   		movq	%rax, %rdi
 2755 1633 E8000000 		call	__cxa_begin_catch@PLT
 2755      00
 2756              	.LEHB79:
 2757 1638 E8000000 		call	_ZN8UnitTest11CurrentTest7ResultsEv@PLT
 2757      00
 2758 163d 488B00   		movq	(%rax), %rax
 2759 1640 48894424 		movq	%rax, 8(%rsp)
 2759      08
 2760 1645 E8000000 		call	_ZN8UnitTest11CurrentTest7DetailsEv@PLT
 2760      00
 2761 164a 488D4C24 		leaq	16(%rsp), %rcx
 2761      10
 2762 164f 488B30   		movq	(%rax), %rsi
 2763 1652 BA570000 		movl	$87, %edx
 2763      00
 2764 1657 4889CF   		movq	%rcx, %rdi
 2765 165a 48890C24 		movq	%rcx, (%rsp)
 2766 165e E8000000 		call	_ZN8UnitTest11TestDetailsC1ERKS0_i@PLT
 2766      00
 2767 1663 488B3424 		movq	(%rsp), %rsi
 2768 1667 488B7C24 		movq	8(%rsp), %rdi
 2768      08
 2769 166c 488D1500 		leaq	.LC13(%rip), %rdx
 2769      000000
 2770 1673 E8000000 		call	_ZN8UnitTest11TestResults13OnTestFailureERKNS_11TestDetailsEPKc@PLT
 2770      00
 2771              	.LEHE79:
 2772              	.LEHB80:
 2773 1678 E8000000 		call	__cxa_end_catch@PLT
 2773      00
 2774              	.LEHE80:
 2775 167d E9FEFEFF 		jmp	.L205
 2775      FF
 2776              	.L209:
 2777 1682 4889C5   		movq	%rax, %rbp
 2778              	.L207:
 2779 1685 4889DF   		movq	%rbx, %rdi
 2780 1688 E8000000 		call	_ZN8UnitTest15MemoryOutStreamD1Ev
 2780      00
 2781 168d 4889EF   		movq	%rbp, %rdi
 2782              	.LEHB81:
 2783 1690 E8000000 		call	_Unwind_Resume@PLT
 2783      00
 2784              	.LEHE81:
 2785              	.L211:
 2786 1695 4889C5   		movq	%rax, %rbp
 2787 1698 E8000000 		call	__cxa_end_catch@PLT
 2787      00
 2788 169d EBE6     		jmp	.L207
 2789              	.L213:
 2790 169f 488D7B08 		leaq	8(%rbx), %rdi
 2791 16a3 4989C4   		movq	%rax, %r12
 2792 16a6 E8000000 		call	_ZNSt7__cxx1115basic_stringbufIcSt11char_traitsIcESaIcEED1Ev
 2792      00
 2793 16ab 48896C24 		movq	%rbp, 48(%rsp)
 2793      30
 2794              	.L200:
 2795 16b0 488D0500 		leaq	16+_ZTVSt9basic_iosIcSt11char_traitsIcEE(%rip), %rax
 2795      000000
 2796 16b7 488DBB90 		leaq	144(%rbx), %rdi
 2796      000000
 2797 16be 48898424 		movq	%rax, 192(%rsp)
 2797      C0000000 
 2798 16c6 E8000000 		call	_ZNSt8ios_baseD2Ev@PLT
 2798      00
 2799 16cb 4C89E7   		movq	%r12, %rdi
 2800              	.LEHB82:
 2801 16ce E8000000 		call	_Unwind_Resume@PLT
 2801      00
 2802              	.LEHE82:
 2803              	.L212:
 2804 16d3 4989C4   		movq	%rax, %r12
 2805 16d6 EBD8     		jmp	.L200
 2806              		.cfi_endproc
 2807              	.LFE1185:
 2808              		.section	.gcc_except_table
 2809              		.align 4
 2810              	.LLSDA1185:
 2811 01f4 FF       		.byte	0xff
 2812 01f5 9B       		.byte	0x9b
 2813 01f6 3D       		.uleb128 .LLSDATT1185-.LLSDATTD1185
 2814              	.LLSDATTD1185:
 2815 01f7 01       		.byte	0x1
 2816 01f8 33       		.uleb128 .LLSDACSE1185-.LLSDACSB1185
 2817              	.LLSDACSB1185:
 2818 01f9 A101     		.uleb128 .LEHB74-.LFB1185
 2819 01fb 05       		.uleb128 .LEHE74-.LEHB74
 2820 01fc 9306     		.uleb128 .L212-.LFB1185
 2821 01fe 00       		.uleb128 0
 2822 01ff AA02     		.uleb128 .LEHB75-.LFB1185
 2823 0201 05       		.uleb128 .LEHE75-.LEHB75
 2824 0202 DF05     		.uleb128 .L213-.LFB1185
 2825 0204 00       		.uleb128 0
 2826 0205 F302     		.uleb128 .LEHB76-.LFB1185
 2827 0207 05       		.uleb128 .LEHE76-.LEHB76
 2828 0208 C205     		.uleb128 .L209-.LFB1185
 2829 020a 00       		.uleb128 0
 2830 020b F802     		.uleb128 .LEHB77-.LFB1185
 2831 020d 48       		.uleb128 .LEHE77-.LEHB77
 2832 020e F004     		.uleb128 .L210-.LFB1185
 2833 0210 01       		.uleb128 0x1
 2834 0211 C104     		.uleb128 .LEHB78-.LFB1185
 2835 0213 05       		.uleb128 .LEHE78-.LEHB78
 2836 0214 00       		.uleb128 0
 2837 0215 00       		.uleb128 0
 2838 0216 F804     		.uleb128 .LEHB79-.LFB1185
 2839 0218 40       		.uleb128 .LEHE79-.LEHB79
 2840 0219 D505     		.uleb128 .L211-.LFB1185
 2841 021b 00       		.uleb128 0
 2842 021c B805     		.uleb128 .LEHB80-.LFB1185
 2843 021e 05       		.uleb128 .LEHE80-.LEHB80
 2844 021f C205     		.uleb128 .L209-.LFB1185
 2845 0221 00       		.uleb128 0
 2846 0222 D005     		.uleb128 .LEHB81-.LFB1185
 2847 0224 05       		.uleb128 .LEHE81-.LEHB81
 2848 0225 00       		.uleb128 0
 2849 0226 00       		.uleb128 0
 2850 0227 8E06     		.uleb128 .LEHB82-.LFB1185
 2851 0229 05       		.uleb128 .LEHE82-.LEHB82
 2852 022a 00       		.uleb128 0
 2853 022b 00       		.uleb128 0
 2854              	.LLSDACSE1185:
 2855 022c 01       		.byte	0x1
 2856 022d 00       		.byte	0
 2857 022e 0000     		.align 4
 2858 0230 00000000 		.long	0
 2859              	
 2860              	.LLSDATT1185:
 2861              		.text
 2863              		.align 2
 2864 16d8 0F1F8400 		.p2align 4,,15
 2864      00000000 
 2866              	_ZNK12_GLOBAL__N_148TestStreamingUnsignedLongWritesCorrectCharacters7RunImplEv:
 2867              	.LFB1169:
 2868              		.cfi_startproc
 2869              		.cfi_personality 0x9b,DW.ref.__gxx_personality_v0
 2870              		.cfi_lsda 0x1b,.LLSDA1169
 2871 16e0 4157     		pushq	%r15
 2872              		.cfi_def_cfa_offset 16
 2873              		.cfi_offset 15, -16
 2874 16e2 4156     		pushq	%r14
 2875              		.cfi_def_cfa_offset 24
 2876              		.cfi_offset 14, -24
 2877 16e4 4155     		pushq	%r13
 2878              		.cfi_def_cfa_offset 32
 2879              		.cfi_offset 13, -32
 2880 16e6 4154     		pushq	%r12
 2881              		.cfi_def_cfa_offset 40
 2882              		.cfi_offset 12, -40
 2883 16e8 55       		pushq	%rbp
 2884              		.cfi_def_cfa_offset 48
 2885              		.cfi_offset 6, -48
 2886 16e9 53       		pushq	%rbx
 2887              		.cfi_def_cfa_offset 56
 2888              		.cfi_offset 3, -56
 2889 16ea 488D2D00 		leaq	24+_ZTCN8UnitTest15MemoryOutStreamE0_So(%rip), %rbp
 2889      000000
 2890 16f1 4881ECD8 		subq	$472, %rsp
 2890      010000
 2891              		.cfi_def_cfa_offset 528
 2892 16f8 488D5C24 		leaq	48(%rsp), %rbx
 2892      30
 2893 16fd 64488B04 		movq	%fs:40, %rax
 2893      25280000 
 2893      00
 2894 1706 48898424 		movq	%rax, 456(%rsp)
 2894      C8010000 
 2895 170e 31C0     		xorl	%eax, %eax
 2896 1710 4C8DA390 		leaq	144(%rbx), %r12
 2896      000000
 2897 1717 4C89E7   		movq	%r12, %rdi
 2898 171a E8000000 		call	_ZNSt8ios_baseC2Ev@PLT
 2898      00
 2899 171f 488D4528 		leaq	40(%rbp), %rax
 2900 1723 31F6     		xorl	%esi, %esi
 2901 1725 4C89E7   		movq	%r12, %rdi
 2902 1728 48C78424 		movq	$0, 408(%rsp)
 2902      98010000 
 2902      00000000 
 2903 1734 C68424A0 		movb	$0, 416(%rsp)
 2903      01000000 
 2904 173c C68424A1 		movb	$0, 417(%rsp)
 2904      01000000 
 2905 1744 48C78424 		movq	$0, 424(%rsp)
 2905      A8010000 
 2905      00000000 
 2906 1750 48C78424 		movq	$0, 432(%rsp)
 2906      B0010000 
 2906      00000000 
 2907 175c 48C78424 		movq	$0, 440(%rsp)
 2907      B8010000 
 2907      00000000 
 2908 1768 48C78424 		movq	$0, 448(%rsp)
 2908      C0010000 
 2908      00000000 
 2909 1774 48896C24 		movq	%rbp, 48(%rsp)
 2909      30
 2910 1779 48898424 		movq	%rax, 192(%rsp)
 2910      C0000000 
 2911              	.LEHB83:
 2912 1781 E8000000 		call	_ZNSt9basic_iosIcSt11char_traitsIcEE4initEPSt15basic_streambufIcS1_E@PLT
 2912      00
 2913              	.LEHE83:
 2914 1786 488D0500 		leaq	24+_ZTCN8UnitTest15MemoryOutStreamE0_NSt7__cxx1119basic_ostringstreamIcSt11char_traitsIcESaIc
 2914      000000
 2915 178d 660FEFC0 		pxor	%xmm0, %xmm0
 2916 1791 488D7B40 		leaq	64(%rbx), %rdi
 2917 1795 4C8D2D00 		leaq	16+_ZTVSt15basic_streambufIcSt11char_traitsIcEE(%rip), %r13
 2917      000000
 2918 179c 4C8D7828 		leaq	40(%rax), %r15
 2919 17a0 48894424 		movq	%rax, 48(%rsp)
 2919      30
 2920 17a5 4C896C24 		movq	%r13, 56(%rsp)
 2920      38
 2921 17aa 4C89BC24 		movq	%r15, 192(%rsp)
 2921      C0000000 
 2922 17b2 0F294424 		movaps	%xmm0, 64(%rsp)
 2922      40
 2923 17b7 0F294424 		movaps	%xmm0, 80(%rsp)
 2923      50
 2924 17bc 0F294424 		movaps	%xmm0, 96(%rsp)
 2924      60
 2925 17c1 E8000000 		call	_ZNSt6localeC1Ev@PLT
 2925      00
 2926 17c6 488D0500 		leaq	16+_ZTVNSt7__cxx1115basic_stringbufIcSt11char_traitsIcESaIcEEE(%rip), %rax
 2926      000000
 2927 17cd 488D7308 		leaq	8(%rbx), %rsi
 2928 17d1 48894424 		movq	%rax, 56(%rsp)
 2928      38
 2929 17d6 488D4360 		leaq	96(%rbx), %rax
 2930 17da C7442478 		movl	$16, 120(%rsp)
 2930      10000000 
 2931 17e2 48C78424 		movq	$0, 136(%rsp)
 2931      88000000 
 2931      00000000 
 2932 17ee C6842490 		movb	$0, 144(%rsp)
 2932      00000000 
 2933 17f6 48898424 		movq	%rax, 128(%rsp)
 2933      80000000 
 2934 17fe 488B4424 		movq	48(%rsp), %rax
 2934      30
 2935 1803 488B78E8 		movq	-24(%rax), %rdi
 2936 1807 4801DF   		addq	%rbx, %rdi
 2937              	.LEHB84:
 2938 180a E8000000 		call	_ZNSt9basic_iosIcSt11char_traitsIcEE4initEPSt15basic_streambufIcS1_E@PLT
 2938      00
 2939              	.LEHE84:
 2940 180f 4C8D2500 		leaq	24+_ZTVN8UnitTest15MemoryOutStreamE(%rip), %r12
 2940      000000
 2941 1816 488D8380 		leaq	128(%rbx), %rax
 2941      000000
 2942 181d BE7B0000 		movl	$123, %esi
 2942      00
 2943 1822 4889DF   		movq	%rbx, %rdi
 2944 1825 48C78424 		movq	$0, 168(%rsp)
 2944      A8000000 
 2944      00000000 
 2945 1831 C68424B0 		movb	$0, 176(%rsp)
 2945      00000000 
 2946 1839 4D8D7424 		leaq	40(%r12), %r14
 2946      28
 2947 183e 4C896424 		movq	%r12, 48(%rsp)
 2947      30
 2948 1843 48898424 		movq	%rax, 160(%rsp)
 2948      A0000000 
 2949 184b 4C89B424 		movq	%r14, 192(%rsp)
 2949      C0000000 
 2950              	.LEHB85:
 2951 1853 E8000000 		call	_ZNSo9_M_insertImEERSoT_@PLT
 2951      00
 2952              	.LEHE85:
 2953              	.LEHB86:
 2954 1858 E8000000 		call	_ZN8UnitTest11CurrentTest7DetailsEv@PLT
 2954      00
 2955 185d 488D4C24 		leaq	16(%rsp), %rcx
 2955      10
 2956 1862 488B30   		movq	(%rax), %rsi
 2957 1865 BA390000 		movl	$57, %edx
 2957      00
 2958 186a 4889CF   		movq	%rcx, %rdi
 2959 186d 48890C24 		movq	%rcx, (%rsp)
 2960 1871 E8000000 		call	_ZN8UnitTest11TestDetailsC1ERKS0_i@PLT
 2960      00
 2961 1876 4889DF   		movq	%rbx, %rdi
 2962 1879 E8000000 		call	_ZNK8UnitTest15MemoryOutStream7GetTextEv@PLT
 2962      00
 2963 187e 48894424 		movq	%rax, 8(%rsp)
 2963      08
 2964 1883 E8000000 		call	_ZN8UnitTest11CurrentTest7ResultsEv@PLT
 2964      00
 2965 1888 488B0C24 		movq	(%rsp), %rcx
 2966 188c 488B5424 		movq	8(%rsp), %rdx
 2966      08
 2967 1891 488D3500 		leaq	.LC6(%rip), %rsi
 2967      000000
 2968 1898 488B38   		movq	(%rax), %rdi
 2969 189b E8000000 		call	_ZN8UnitTest10CheckEqualERNS_11TestResultsEPKcS3_RKNS_11TestDetailsE@PLT
 2969      00
 2970              	.LEHE86:
 2971              	.L227:
 2972 18a0 488BBC24 		movq	160(%rsp), %rdi
 2972      A0000000 
 2973 18a8 488D8380 		leaq	128(%rbx), %rax
 2973      000000
 2974 18af 4C896424 		movq	%r12, 48(%rsp)
 2974      30
 2975 18b4 4C89B424 		movq	%r14, 192(%rsp)
 2975      C0000000 
 2976 18bc 4839C7   		cmpq	%rax, %rdi
 2977 18bf 7405     		je	.L224
 2978 18c1 E8000000 		call	_ZdlPv@PLT
 2978      00
 2979              	.L224:
 2980 18c6 488BBC24 		movq	128(%rsp), %rdi
 2980      80000000 
 2981 18ce F30F7E05 		movq	.LC4(%rip), %xmm0
 2981      00000000 
 2982 18d6 488D4360 		leaq	96(%rbx), %rax
 2983 18da 0F160500 		movhps	.LC5(%rip), %xmm0
 2983      000000
 2984 18e1 4C89BC24 		movq	%r15, 192(%rsp)
 2984      C0000000 
 2985 18e9 4839C7   		cmpq	%rax, %rdi
 2986 18ec 0F294424 		movaps	%xmm0, 48(%rsp)
 2986      30
 2987 18f1 7405     		je	.L225
 2988 18f3 E8000000 		call	_ZdlPv@PLT
 2988      00
 2989              	.L225:
 2990 18f8 488D7B40 		leaq	64(%rbx), %rdi
 2991 18fc 4C896C24 		movq	%r13, 56(%rsp)
 2991      38
 2992 1901 E8000000 		call	_ZNSt6localeD1Ev@PLT
 2992      00
 2993 1906 488D0500 		leaq	16+_ZTVSt9basic_iosIcSt11char_traitsIcEE(%rip), %rax
 2993      000000
 2994 190d 488DBB90 		leaq	144(%rbx), %rdi
 2994      000000
 2995 1914 48896C24 		movq	%rbp, 48(%rsp)
 2995      30
 2996 1919 48898424 		movq	%rax, 192(%rsp)
 2996      C0000000 
 2997              	.LEHB87:
 2998 1921 E8000000 		call	_ZNSt8ios_baseD2Ev@PLT
 2998      00
 2999              	.LEHE87:
 3000 1926 488B8424 		movq	456(%rsp), %rax
 3000      C8010000 
 3001 192e 64483304 		xorq	%fs:40, %rax
 3001      25280000 
 3001      00
 3002 1937 7512     		jne	.L240
 3003 1939 4881C4D8 		addq	$472, %rsp
 3003      010000
 3004              		.cfi_remember_state
 3005              		.cfi_def_cfa_offset 56
 3006 1940 5B       		popq	%rbx
 3007              		.cfi_def_cfa_offset 48
 3008 1941 5D       		popq	%rbp
 3009              		.cfi_def_cfa_offset 40
 3010 1942 415C     		popq	%r12
 3011              		.cfi_def_cfa_offset 32
 3012 1944 415D     		popq	%r13
 3013              		.cfi_def_cfa_offset 24
 3014 1946 415E     		popq	%r14
 3015              		.cfi_def_cfa_offset 16
 3016 1948 415F     		popq	%r15
 3017              		.cfi_def_cfa_offset 8
 3018 194a C3       		ret
 3019              	.L240:
 3020              		.cfi_restore_state
 3021 194b E8000000 		call	__stack_chk_fail@PLT
 3021      00
 3022              	.L232:
 3023 1950 4889C7   		movq	%rax, %rdi
 3024 1953 E8000000 		call	__cxa_begin_catch@PLT
 3024      00
 3025              	.LEHB88:
 3026 1958 E8000000 		call	_ZN8UnitTest11CurrentTest7ResultsEv@PLT
 3026      00
 3027 195d 488B00   		movq	(%rax), %rax
 3028 1960 48894424 		movq	%rax, 8(%rsp)
 3028      08
 3029 1965 E8000000 		call	_ZN8UnitTest11CurrentTest7DetailsEv@PLT
 3029      00
 3030 196a 488D4C24 		leaq	16(%rsp), %rcx
 3030      10
 3031 196f 488B30   		movq	(%rax), %rsi
 3032 1972 BA390000 		movl	$57, %edx
 3032      00
 3033 1977 4889CF   		movq	%rcx, %rdi
 3034 197a 48890C24 		movq	%rcx, (%rsp)
 3035 197e E8000000 		call	_ZN8UnitTest11TestDetailsC1ERKS0_i@PLT
 3035      00
 3036 1983 488B3424 		movq	(%rsp), %rsi
 3037 1987 488B7C24 		movq	8(%rsp), %rdi
 3037      08
 3038 198c 488D1500 		leaq	.LC7(%rip), %rdx
 3038      000000
 3039 1993 E8000000 		call	_ZN8UnitTest11TestResults13OnTestFailureERKNS_11TestDetailsEPKc@PLT
 3039      00
 3040              	.LEHE88:
 3041              	.LEHB89:
 3042 1998 E8000000 		call	__cxa_end_catch@PLT
 3042      00
 3043              	.LEHE89:
 3044 199d E9FEFEFF 		jmp	.L227
 3044      FF
 3045              	.L231:
 3046 19a2 4889C5   		movq	%rax, %rbp
 3047              	.L229:
 3048 19a5 4889DF   		movq	%rbx, %rdi
 3049 19a8 E8000000 		call	_ZN8UnitTest15MemoryOutStreamD1Ev
 3049      00
 3050 19ad 4889EF   		movq	%rbp, %rdi
 3051              	.LEHB90:
 3052 19b0 E8000000 		call	_Unwind_Resume@PLT
 3052      00
 3053              	.LEHE90:
 3054              	.L233:
 3055 19b5 4889C5   		movq	%rax, %rbp
 3056 19b8 E8000000 		call	__cxa_end_catch@PLT
 3056      00
 3057 19bd EBE6     		jmp	.L229
 3058              	.L235:
 3059 19bf 488D7B08 		leaq	8(%rbx), %rdi
 3060 19c3 4989C4   		movq	%rax, %r12
 3061 19c6 E8000000 		call	_ZNSt7__cxx1115basic_stringbufIcSt11char_traitsIcESaIcEED1Ev
 3061      00
 3062 19cb 48896C24 		movq	%rbp, 48(%rsp)
 3062      30
 3063              	.L222:
 3064 19d0 488D0500 		leaq	16+_ZTVSt9basic_iosIcSt11char_traitsIcEE(%rip), %rax
 3064      000000
 3065 19d7 488DBB90 		leaq	144(%rbx), %rdi
 3065      000000
 3066 19de 48898424 		movq	%rax, 192(%rsp)
 3066      C0000000 
 3067 19e6 E8000000 		call	_ZNSt8ios_baseD2Ev@PLT
 3067      00
 3068 19eb 4C89E7   		movq	%r12, %rdi
 3069              	.LEHB91:
 3070 19ee E8000000 		call	_Unwind_Resume@PLT
 3070      00
 3071              	.LEHE91:
 3072              	.L234:
 3073 19f3 4989C4   		movq	%rax, %r12
 3074 19f6 EBD8     		jmp	.L222
 3075              		.cfi_endproc
 3076              	.LFE1169:
 3077              		.section	.gcc_except_table
 3078              		.align 4
 3079              	.LLSDA1169:
 3080 0234 FF       		.byte	0xff
 3081 0235 9B       		.byte	0x9b
 3082 0236 3D       		.uleb128 .LLSDATT1169-.LLSDATTD1169
 3083              	.LLSDATTD1169:
 3084 0237 01       		.byte	0x1
 3085 0238 33       		.uleb128 .LLSDACSE1169-.LLSDACSB1169
 3086              	.LLSDACSB1169:
 3087 0239 A101     		.uleb128 .LEHB83-.LFB1169
 3088 023b 05       		.uleb128 .LEHE83-.LEHB83
 3089 023c 9306     		.uleb128 .L234-.LFB1169
 3090 023e 00       		.uleb128 0
 3091 023f AA02     		.uleb128 .LEHB84-.LFB1169
 3092 0241 05       		.uleb128 .LEHE84-.LEHB84
 3093 0242 DF05     		.uleb128 .L235-.LFB1169
 3094 0244 00       		.uleb128 0
 3095 0245 F302     		.uleb128 .LEHB85-.LFB1169
 3096 0247 05       		.uleb128 .LEHE85-.LEHB85
 3097 0248 C205     		.uleb128 .L231-.LFB1169
 3098 024a 00       		.uleb128 0
 3099 024b F802     		.uleb128 .LEHB86-.LFB1169
 3100 024d 48       		.uleb128 .LEHE86-.LEHB86
 3101 024e F004     		.uleb128 .L232-.LFB1169
 3102 0250 01       		.uleb128 0x1
 3103 0251 C104     		.uleb128 .LEHB87-.LFB1169
 3104 0253 05       		.uleb128 .LEHE87-.LEHB87
 3105 0254 00       		.uleb128 0
 3106 0255 00       		.uleb128 0
 3107 0256 F804     		.uleb128 .LEHB88-.LFB1169
 3108 0258 40       		.uleb128 .LEHE88-.LEHB88
 3109 0259 D505     		.uleb128 .L233-.LFB1169
 3110 025b 00       		.uleb128 0
 3111 025c B805     		.uleb128 .LEHB89-.LFB1169
 3112 025e 05       		.uleb128 .LEHE89-.LEHB89
 3113 025f C205     		.uleb128 .L231-.LFB1169
 3114 0261 00       		.uleb128 0
 3115 0262 D005     		.uleb128 .LEHB90-.LFB1169
 3116 0264 05       		.uleb128 .LEHE90-.LEHB90
 3117 0265 00       		.uleb128 0
 3118 0266 00       		.uleb128 0
 3119 0267 8E06     		.uleb128 .LEHB91-.LFB1169
 3120 0269 05       		.uleb128 .LEHE91-.LEHB91
 3121 026a 00       		.uleb128 0
 3122 026b 00       		.uleb128 0
 3123              	.LLSDACSE1169:
 3124 026c 01       		.byte	0x1
 3125 026d 00       		.byte	0
 3126 026e 0000     		.align 4
 3127 0270 00000000 		.long	0
 3128              	
 3129              	.LLSDATT1169:
 3130              		.text
 3132              		.section	.rodata.str1.1
 3133              	.LC15:
 3134 002d 332E3134 		.string	"3.1415"
 3134      313500
 3135              		.section	.rodata.str1.8
 3136 0176 0000     		.align 8
 3137              	.LC16:
 3138 0178 73747273 		.string	"strstr(stream.GetText(), \"3.1415\")"
 3138      74722873 
 3138      74726561 
 3138      6D2E4765 
 3138      74546578 
 3139 019b 00000000 		.align 8
 3139      00
 3140              	.LC17:
 3141 01a0 556E6861 		.string	"Unhandled exception in CHECK(strstr(stream.GetText(), \"3.1415\"))"
 3141      6E646C65 
 3141      64206578 
 3141      63657074 
 3141      696F6E20 
 3142              		.text
 3143              		.align 2
 3144 19f8 0F1F8400 		.p2align 4,,15
 3144      00000000 
 3146              	_ZNK12_GLOBAL__N_142TestStreamingDoubleWritesCorrectCharacters7RunImplEv:
 3147              	.LFB1177:
 3148              		.cfi_startproc
 3149              		.cfi_personality 0x9b,DW.ref.__gxx_personality_v0
 3150              		.cfi_lsda 0x1b,.LLSDA1177
 3151 1a00 4157     		pushq	%r15
 3152              		.cfi_def_cfa_offset 16
 3153              		.cfi_offset 15, -16
 3154 1a02 4156     		pushq	%r14
 3155              		.cfi_def_cfa_offset 24
 3156              		.cfi_offset 14, -24
 3157 1a04 4155     		pushq	%r13
 3158              		.cfi_def_cfa_offset 32
 3159              		.cfi_offset 13, -32
 3160 1a06 4154     		pushq	%r12
 3161              		.cfi_def_cfa_offset 40
 3162              		.cfi_offset 12, -40
 3163 1a08 55       		pushq	%rbp
 3164              		.cfi_def_cfa_offset 48
 3165              		.cfi_offset 6, -48
 3166 1a09 53       		pushq	%rbx
 3167              		.cfi_def_cfa_offset 56
 3168              		.cfi_offset 3, -56
 3169 1a0a 488D2D00 		leaq	24+_ZTCN8UnitTest15MemoryOutStreamE0_So(%rip), %rbp
 3169      000000
 3170 1a11 4881ECD8 		subq	$472, %rsp
 3170      010000
 3171              		.cfi_def_cfa_offset 528
 3172 1a18 488D5C24 		leaq	48(%rsp), %rbx
 3172      30
 3173 1a1d 64488B04 		movq	%fs:40, %rax
 3173      25280000 
 3173      00
 3174 1a26 48898424 		movq	%rax, 456(%rsp)
 3174      C8010000 
 3175 1a2e 31C0     		xorl	%eax, %eax
 3176 1a30 4C8DA390 		leaq	144(%rbx), %r12
 3176      000000
 3177 1a37 4C89E7   		movq	%r12, %rdi
 3178 1a3a E8000000 		call	_ZNSt8ios_baseC2Ev@PLT
 3178      00
 3179 1a3f 488D4528 		leaq	40(%rbp), %rax
 3180 1a43 31F6     		xorl	%esi, %esi
 3181 1a45 4C89E7   		movq	%r12, %rdi
 3182 1a48 48C78424 		movq	$0, 408(%rsp)
 3182      98010000 
 3182      00000000 
 3183 1a54 C68424A0 		movb	$0, 416(%rsp)
 3183      01000000 
 3184 1a5c C68424A1 		movb	$0, 417(%rsp)
 3184      01000000 
 3185 1a64 48C78424 		movq	$0, 424(%rsp)
 3185      A8010000 
 3185      00000000 
 3186 1a70 48C78424 		movq	$0, 432(%rsp)
 3186      B0010000 
 3186      00000000 
 3187 1a7c 48C78424 		movq	$0, 440(%rsp)
 3187      B8010000 
 3187      00000000 
 3188 1a88 48C78424 		movq	$0, 448(%rsp)
 3188      C0010000 
 3188      00000000 
 3189 1a94 48896C24 		movq	%rbp, 48(%rsp)
 3189      30
 3190 1a99 48898424 		movq	%rax, 192(%rsp)
 3190      C0000000 
 3191              	.LEHB92:
 3192 1aa1 E8000000 		call	_ZNSt9basic_iosIcSt11char_traitsIcEE4initEPSt15basic_streambufIcS1_E@PLT
 3192      00
 3193              	.LEHE92:
 3194 1aa6 488D0500 		leaq	24+_ZTCN8UnitTest15MemoryOutStreamE0_NSt7__cxx1119basic_ostringstreamIcSt11char_traitsIcESaIc
 3194      000000
 3195 1aad 660FEFC0 		pxor	%xmm0, %xmm0
 3196 1ab1 488D7B40 		leaq	64(%rbx), %rdi
 3197 1ab5 4C8D2500 		leaq	16+_ZTVSt15basic_streambufIcSt11char_traitsIcEE(%rip), %r12
 3197      000000
 3198 1abc 4C8D7028 		leaq	40(%rax), %r14
 3199 1ac0 48894424 		movq	%rax, 48(%rsp)
 3199      30
 3200 1ac5 4C896424 		movq	%r12, 56(%rsp)
 3200      38
 3201 1aca 4C89B424 		movq	%r14, 192(%rsp)
 3201      C0000000 
 3202 1ad2 0F294424 		movaps	%xmm0, 64(%rsp)
 3202      40
 3203 1ad7 0F294424 		movaps	%xmm0, 80(%rsp)
 3203      50
 3204 1adc 0F294424 		movaps	%xmm0, 96(%rsp)
 3204      60
 3205 1ae1 E8000000 		call	_ZNSt6localeC1Ev@PLT
 3205      00
 3206 1ae6 488D0500 		leaq	16+_ZTVNSt7__cxx1115basic_stringbufIcSt11char_traitsIcESaIcEEE(%rip), %rax
 3206      000000
 3207 1aed 488D7308 		leaq	8(%rbx), %rsi
 3208 1af1 48894424 		movq	%rax, 56(%rsp)
 3208      38
 3209 1af6 488D4360 		leaq	96(%rbx), %rax
 3210 1afa C7442478 		movl	$16, 120(%rsp)
 3210      10000000 
 3211 1b02 48C78424 		movq	$0, 136(%rsp)
 3211      88000000 
 3211      00000000 
 3212 1b0e C6842490 		movb	$0, 144(%rsp)
 3212      00000000 
 3213 1b16 48898424 		movq	%rax, 128(%rsp)
 3213      80000000 
 3214 1b1e 488B4424 		movq	48(%rsp), %rax
 3214      30
 3215 1b23 488B78E8 		movq	-24(%rax), %rdi
 3216 1b27 4801DF   		addq	%rbx, %rdi
 3217              	.LEHB93:
 3218 1b2a E8000000 		call	_ZNSt9basic_iosIcSt11char_traitsIcEE4initEPSt15basic_streambufIcS1_E@PLT
 3218      00
 3219              	.LEHE93:
 3220 1b2f 4C8D3D00 		leaq	24+_ZTVN8UnitTest15MemoryOutStreamE(%rip), %r15
 3220      000000
 3221 1b36 488D8380 		leaq	128(%rbx), %rax
 3221      000000
 3222 1b3d 4889DF   		movq	%rbx, %rdi
 3223 1b40 F20F1005 		movsd	.LC14(%rip), %xmm0
 3223      00000000 
 3224 1b48 48C78424 		movq	$0, 168(%rsp)
 3224      A8000000 
 3224      00000000 
 3225 1b54 4D8D6F28 		leaq	40(%r15), %r13
 3226 1b58 4C897C24 		movq	%r15, 48(%rsp)
 3226      30
 3227 1b5d 48898424 		movq	%rax, 160(%rsp)
 3227      A0000000 
 3228 1b65 C68424B0 		movb	$0, 176(%rsp)
 3228      00000000 
 3229 1b6d 4C89AC24 		movq	%r13, 192(%rsp)
 3229      C0000000 
 3230              	.LEHB94:
 3231 1b75 E8000000 		call	_ZNSo9_M_insertIdEERSoT_@PLT
 3231      00
 3232              	.LEHE94:
 3233 1b7a 4889DF   		movq	%rbx, %rdi
 3234              	.LEHB95:
 3235 1b7d E8000000 		call	_ZNK8UnitTest15MemoryOutStream7GetTextEv@PLT
 3235      00
 3236              	.LEHE95:
 3237 1b82 488D3500 		leaq	.LC15(%rip), %rsi
 3237      000000
 3238 1b89 4889C7   		movq	%rax, %rdi
 3239 1b8c E8000000 		call	strstr@PLT
 3239      00
 3240 1b91 4885C0   		testq	%rax, %rax
 3241 1b94 0F84AE00 		je	.L264
 3241      0000
 3242              	.L247:
 3243 1b9a 488BBC24 		movq	160(%rsp), %rdi
 3243      A0000000 
 3244 1ba2 488D8380 		leaq	128(%rbx), %rax
 3244      000000
 3245 1ba9 4C897C24 		movq	%r15, 48(%rsp)
 3245      30
 3246 1bae 4C89AC24 		movq	%r13, 192(%rsp)
 3246      C0000000 
 3247 1bb6 4839C7   		cmpq	%rax, %rdi
 3248 1bb9 7405     		je	.L248
 3249 1bbb E8000000 		call	_ZdlPv@PLT
 3249      00
 3250              	.L248:
 3251 1bc0 488BBC24 		movq	128(%rsp), %rdi
 3251      80000000 
 3252 1bc8 F30F7E05 		movq	.LC4(%rip), %xmm0
 3252      00000000 
 3253 1bd0 488D4360 		leaq	96(%rbx), %rax
 3254 1bd4 0F160500 		movhps	.LC5(%rip), %xmm0
 3254      000000
 3255 1bdb 4C89B424 		movq	%r14, 192(%rsp)
 3255      C0000000 
 3256 1be3 4839C7   		cmpq	%rax, %rdi
 3257 1be6 0F294424 		movaps	%xmm0, 48(%rsp)
 3257      30
 3258 1beb 7405     		je	.L249
 3259 1bed E8000000 		call	_ZdlPv@PLT
 3259      00
 3260              	.L249:
 3261 1bf2 488D7B40 		leaq	64(%rbx), %rdi
 3262 1bf6 4C896424 		movq	%r12, 56(%rsp)
 3262      38
 3263 1bfb E8000000 		call	_ZNSt6localeD1Ev@PLT
 3263      00
 3264 1c00 488D0500 		leaq	16+_ZTVSt9basic_iosIcSt11char_traitsIcEE(%rip), %rax
 3264      000000
 3265 1c07 488DBB90 		leaq	144(%rbx), %rdi
 3265      000000
 3266 1c0e 48896C24 		movq	%rbp, 48(%rsp)
 3266      30
 3267 1c13 48898424 		movq	%rax, 192(%rsp)
 3267      C0000000 
 3268              	.LEHB96:
 3269 1c1b E8000000 		call	_ZNSt8ios_baseD2Ev@PLT
 3269      00
 3270              	.LEHE96:
 3271 1c20 488B8424 		movq	456(%rsp), %rax
 3271      C8010000 
 3272 1c28 64483304 		xorq	%fs:40, %rax
 3272      25280000 
 3272      00
 3273 1c31 755A     		jne	.L265
 3274 1c33 4881C4D8 		addq	$472, %rsp
 3274      010000
 3275              		.cfi_remember_state
 3276              		.cfi_def_cfa_offset 56
 3277 1c3a 5B       		popq	%rbx
 3278              		.cfi_def_cfa_offset 48
 3279 1c3b 5D       		popq	%rbp
 3280              		.cfi_def_cfa_offset 40
 3281 1c3c 415C     		popq	%r12
 3282              		.cfi_def_cfa_offset 32
 3283 1c3e 415D     		popq	%r13
 3284              		.cfi_def_cfa_offset 24
 3285 1c40 415E     		popq	%r14
 3286              		.cfi_def_cfa_offset 16
 3287 1c42 415F     		popq	%r15
 3288              		.cfi_def_cfa_offset 8
 3289 1c44 C3       		ret
 3290              		.p2align 4,,10
 3291 1c45 0F1F00   		.p2align 3
 3292              	.L264:
 3293              		.cfi_restore_state
 3294              	.LEHB97:
 3295 1c48 E8000000 		call	_ZN8UnitTest11CurrentTest7ResultsEv@PLT
 3295      00
 3296 1c4d 488B00   		movq	(%rax), %rax
 3297 1c50 48894424 		movq	%rax, 8(%rsp)
 3297      08
 3298 1c55 E8000000 		call	_ZN8UnitTest11CurrentTest7DetailsEv@PLT
 3298      00
 3299 1c5a 488D4C24 		leaq	16(%rsp), %rcx
 3299      10
 3300 1c5f 488B30   		movq	(%rax), %rsi
 3301 1c62 BA470000 		movl	$71, %edx
 3301      00
 3302 1c67 4889CF   		movq	%rcx, %rdi
 3303 1c6a 48890C24 		movq	%rcx, (%rsp)
 3304 1c6e E8000000 		call	_ZN8UnitTest11TestDetailsC1ERKS0_i@PLT
 3304      00
 3305 1c73 488B3424 		movq	(%rsp), %rsi
 3306 1c77 488B7C24 		movq	8(%rsp), %rdi
 3306      08
 3307 1c7c 488D1500 		leaq	.LC16(%rip), %rdx
 3307      000000
 3308 1c83 E8000000 		call	_ZN8UnitTest11TestResults13OnTestFailureERKNS_11TestDetailsEPKc@PLT
 3308      00
 3309              	.LEHE97:
 3310 1c88 E90DFFFF 		jmp	.L247
 3310      FF
 3311              	.L265:
 3312 1c8d E8000000 		call	__stack_chk_fail@PLT
 3312      00
 3313              	.L258:
 3314 1c92 4989C4   		movq	%rax, %r12
 3315              	.L244:
 3316 1c95 488D0500 		leaq	16+_ZTVSt9basic_iosIcSt11char_traitsIcEE(%rip), %rax
 3316      000000
 3317 1c9c 488DBB90 		leaq	144(%rbx), %rdi
 3317      000000
 3318 1ca3 48898424 		movq	%rax, 192(%rsp)
 3318      C0000000 
 3319 1cab E8000000 		call	_ZNSt8ios_baseD2Ev@PLT
 3319      00
 3320 1cb0 4C89E7   		movq	%r12, %rdi
 3321              	.LEHB98:
 3322 1cb3 E8000000 		call	_Unwind_Resume@PLT
 3322      00
 3323              	.LEHE98:
 3324              	.L255:
 3325 1cb8 4889C5   		movq	%rax, %rbp
 3326              	.L253:
 3327 1cbb 4889DF   		movq	%rbx, %rdi
 3328 1cbe E8000000 		call	_ZN8UnitTest15MemoryOutStreamD1Ev
 3328      00
 3329 1cc3 4889EF   		movq	%rbp, %rdi
 3330              	.LEHB99:
 3331 1cc6 E8000000 		call	_Unwind_Resume@PLT
 3331      00
 3332              	.LEHE99:
 3333              	.L256:
 3334 1ccb 4889C7   		movq	%rax, %rdi
 3335 1cce E8000000 		call	__cxa_begin_catch@PLT
 3335      00
 3336              	.LEHB100:
 3337 1cd3 E8000000 		call	_ZN8UnitTest11CurrentTest7ResultsEv@PLT
 3337      00
 3338 1cd8 488B00   		movq	(%rax), %rax
 3339 1cdb 48894424 		movq	%rax, 8(%rsp)
 3339      08
 3340 1ce0 E8000000 		call	_ZN8UnitTest11CurrentTest7DetailsEv@PLT
 3340      00
 3341 1ce5 488D4C24 		leaq	16(%rsp), %rcx
 3341      10
 3342 1cea 488B30   		movq	(%rax), %rsi
 3343 1ced BA470000 		movl	$71, %edx
 3343      00
 3344 1cf2 4889CF   		movq	%rcx, %rdi
 3345 1cf5 48890C24 		movq	%rcx, (%rsp)
 3346 1cf9 E8000000 		call	_ZN8UnitTest11TestDetailsC1ERKS0_i@PLT
 3346      00
 3347 1cfe 488B3424 		movq	(%rsp), %rsi
 3348 1d02 488B7C24 		movq	8(%rsp), %rdi
 3348      08
 3349 1d07 488D1500 		leaq	.LC17(%rip), %rdx
 3349      000000
 3350 1d0e E8000000 		call	_ZN8UnitTest11TestResults13OnTestFailureERKNS_11TestDetailsEPKc@PLT
 3350      00
 3351              	.LEHE100:
 3352              	.LEHB101:
 3353 1d13 E8000000 		call	__cxa_end_catch@PLT
 3353      00
 3354              	.LEHE101:
 3355 1d18 E97DFEFF 		jmp	.L247
 3355      FF
 3356              	.L259:
 3357 1d1d 488D7B08 		leaq	8(%rbx), %rdi
 3358 1d21 4989C4   		movq	%rax, %r12
 3359 1d24 E8000000 		call	_ZNSt7__cxx1115basic_stringbufIcSt11char_traitsIcESaIcEED1Ev
 3359      00
 3360 1d29 48896C24 		movq	%rbp, 48(%rsp)
 3360      30
 3361 1d2e E962FFFF 		jmp	.L244
 3361      FF
 3362              	.L257:
 3363 1d33 4889C5   		movq	%rax, %rbp
 3364 1d36 E8000000 		call	__cxa_end_catch@PLT
 3364      00
 3365 1d3b E97BFFFF 		jmp	.L253
 3365      FF
 3366              		.cfi_endproc
 3367              	.LFE1177:
 3368              		.section	.gcc_except_table
 3369              		.align 4
 3370              	.LLSDA1177:
 3371 0274 FF       		.byte	0xff
 3372 0275 9B       		.byte	0x9b
 3373 0276 41       		.uleb128 .LLSDATT1177-.LLSDATTD1177
 3374              	.LLSDATTD1177:
 3375 0277 01       		.byte	0x1
 3376 0278 39       		.uleb128 .LLSDACSE1177-.LLSDACSB1177
 3377              	.LLSDACSB1177:
 3378 0279 A101     		.uleb128 .LEHB92-.LFB1177
 3379 027b 05       		.uleb128 .LEHE92-.LEHB92
 3380 027c 9205     		.uleb128 .L258-.LFB1177
 3381 027e 00       		.uleb128 0
 3382 027f AA02     		.uleb128 .LEHB93-.LFB1177
 3383 0281 05       		.uleb128 .LEHE93-.LEHB93
 3384 0282 9D06     		.uleb128 .L259-.LFB1177
 3385 0284 00       		.uleb128 0
 3386 0285 F502     		.uleb128 .LEHB94-.LFB1177
 3387 0287 05       		.uleb128 .LEHE94-.LEHB94
 3388 0288 B805     		.uleb128 .L255-.LFB1177
 3389 028a 00       		.uleb128 0
 3390 028b FD02     		.uleb128 .LEHB95-.LFB1177
 3391 028d 05       		.uleb128 .LEHE95-.LEHB95
 3392 028e CB05     		.uleb128 .L256-.LFB1177
 3393 0290 01       		.uleb128 0x1
 3394 0291 9B04     		.uleb128 .LEHB96-.LFB1177
 3395 0293 05       		.uleb128 .LEHE96-.LEHB96
 3396 0294 00       		.uleb128 0
 3397 0295 00       		.uleb128 0
 3398 0296 C804     		.uleb128 .LEHB97-.LFB1177
 3399 0298 40       		.uleb128 .LEHE97-.LEHB97
 3400 0299 CB05     		.uleb128 .L256-.LFB1177
 3401 029b 01       		.uleb128 0x1
 3402 029c B305     		.uleb128 .LEHB98-.LFB1177
 3403 029e 05       		.uleb128 .LEHE98-.LEHB98
 3404 029f 00       		.uleb128 0
 3405 02a0 00       		.uleb128 0
 3406 02a1 C605     		.uleb128 .LEHB99-.LFB1177
 3407 02a3 05       		.uleb128 .LEHE99-.LEHB99
 3408 02a4 00       		.uleb128 0
 3409 02a5 00       		.uleb128 0
 3410 02a6 D305     		.uleb128 .LEHB100-.LFB1177
 3411 02a8 40       		.uleb128 .LEHE100-.LEHB100
 3412 02a9 B306     		.uleb128 .L257-.LFB1177
 3413 02ab 00       		.uleb128 0
 3414 02ac 9306     		.uleb128 .LEHB101-.LFB1177
 3415 02ae 05       		.uleb128 .LEHE101-.LEHB101
 3416 02af B805     		.uleb128 .L255-.LFB1177
 3417 02b1 00       		.uleb128 0
 3418              	.LLSDACSE1177:
 3419 02b2 01       		.byte	0x1
 3420 02b3 00       		.byte	0
 3421              		.align 4
 3422 02b4 00000000 		.long	0
 3423              	
 3424              	.LLSDATT1177:
 3425              		.text
 3427              		.align 2
 3428              		.p2align 4,,15
 3430              	_ZNK12_GLOBAL__N_141TestStreamingFloatWritesCorrectCharacters7RunImplEv:
 3431              	.LFB1173:
 3432              		.cfi_startproc
 3433              		.cfi_personality 0x9b,DW.ref.__gxx_personality_v0
 3434              		.cfi_lsda 0x1b,.LLSDA1173
 3435 1d40 4157     		pushq	%r15
 3436              		.cfi_def_cfa_offset 16
 3437              		.cfi_offset 15, -16
 3438 1d42 4156     		pushq	%r14
 3439              		.cfi_def_cfa_offset 24
 3440              		.cfi_offset 14, -24
 3441 1d44 4155     		pushq	%r13
 3442              		.cfi_def_cfa_offset 32
 3443              		.cfi_offset 13, -32
 3444 1d46 4154     		pushq	%r12
 3445              		.cfi_def_cfa_offset 40
 3446              		.cfi_offset 12, -40
 3447 1d48 55       		pushq	%rbp
 3448              		.cfi_def_cfa_offset 48
 3449              		.cfi_offset 6, -48
 3450 1d49 53       		pushq	%rbx
 3451              		.cfi_def_cfa_offset 56
 3452              		.cfi_offset 3, -56
 3453 1d4a 488D2D00 		leaq	24+_ZTCN8UnitTest15MemoryOutStreamE0_So(%rip), %rbp
 3453      000000
 3454 1d51 4881ECD8 		subq	$472, %rsp
 3454      010000
 3455              		.cfi_def_cfa_offset 528
 3456 1d58 488D5C24 		leaq	48(%rsp), %rbx
 3456      30
 3457 1d5d 64488B04 		movq	%fs:40, %rax
 3457      25280000 
 3457      00
 3458 1d66 48898424 		movq	%rax, 456(%rsp)
 3458      C8010000 
 3459 1d6e 31C0     		xorl	%eax, %eax
 3460 1d70 4C8DA390 		leaq	144(%rbx), %r12
 3460      000000
 3461 1d77 4C89E7   		movq	%r12, %rdi
 3462 1d7a E8000000 		call	_ZNSt8ios_baseC2Ev@PLT
 3462      00
 3463 1d7f 488D4528 		leaq	40(%rbp), %rax
 3464 1d83 31F6     		xorl	%esi, %esi
 3465 1d85 4C89E7   		movq	%r12, %rdi
 3466 1d88 48C78424 		movq	$0, 408(%rsp)
 3466      98010000 
 3466      00000000 
 3467 1d94 C68424A0 		movb	$0, 416(%rsp)
 3467      01000000 
 3468 1d9c C68424A1 		movb	$0, 417(%rsp)
 3468      01000000 
 3469 1da4 48C78424 		movq	$0, 424(%rsp)
 3469      A8010000 
 3469      00000000 
 3470 1db0 48C78424 		movq	$0, 432(%rsp)
 3470      B0010000 
 3470      00000000 
 3471 1dbc 48C78424 		movq	$0, 440(%rsp)
 3471      B8010000 
 3471      00000000 
 3472 1dc8 48C78424 		movq	$0, 448(%rsp)
 3472      C0010000 
 3472      00000000 
 3473 1dd4 48896C24 		movq	%rbp, 48(%rsp)
 3473      30
 3474 1dd9 48898424 		movq	%rax, 192(%rsp)
 3474      C0000000 
 3475              	.LEHB102:
 3476 1de1 E8000000 		call	_ZNSt9basic_iosIcSt11char_traitsIcEE4initEPSt15basic_streambufIcS1_E@PLT
 3476      00
 3477              	.LEHE102:
 3478 1de6 488D0500 		leaq	24+_ZTCN8UnitTest15MemoryOutStreamE0_NSt7__cxx1119basic_ostringstreamIcSt11char_traitsIcESaIc
 3478      000000
 3479 1ded 660FEFC0 		pxor	%xmm0, %xmm0
 3480 1df1 488D7B40 		leaq	64(%rbx), %rdi
 3481 1df5 4C8D2500 		leaq	16+_ZTVSt15basic_streambufIcSt11char_traitsIcEE(%rip), %r12
 3481      000000
 3482 1dfc 4C8D7028 		leaq	40(%rax), %r14
 3483 1e00 48894424 		movq	%rax, 48(%rsp)
 3483      30
 3484 1e05 4C896424 		movq	%r12, 56(%rsp)
 3484      38
 3485 1e0a 4C89B424 		movq	%r14, 192(%rsp)
 3485      C0000000 
 3486 1e12 0F294424 		movaps	%xmm0, 64(%rsp)
 3486      40
 3487 1e17 0F294424 		movaps	%xmm0, 80(%rsp)
 3487      50
 3488 1e1c 0F294424 		movaps	%xmm0, 96(%rsp)
 3488      60
 3489 1e21 E8000000 		call	_ZNSt6localeC1Ev@PLT
 3489      00
 3490 1e26 488D0500 		leaq	16+_ZTVNSt7__cxx1115basic_stringbufIcSt11char_traitsIcESaIcEEE(%rip), %rax
 3490      000000
 3491 1e2d 488D7308 		leaq	8(%rbx), %rsi
 3492 1e31 48894424 		movq	%rax, 56(%rsp)
 3492      38
 3493 1e36 488D4360 		leaq	96(%rbx), %rax
 3494 1e3a C7442478 		movl	$16, 120(%rsp)
 3494      10000000 
 3495 1e42 48C78424 		movq	$0, 136(%rsp)
 3495      88000000 
 3495      00000000 
 3496 1e4e C6842490 		movb	$0, 144(%rsp)
 3496      00000000 
 3497 1e56 48898424 		movq	%rax, 128(%rsp)
 3497      80000000 
 3498 1e5e 488B4424 		movq	48(%rsp), %rax
 3498      30
 3499 1e63 488B78E8 		movq	-24(%rax), %rdi
 3500 1e67 4801DF   		addq	%rbx, %rdi
 3501              	.LEHB103:
 3502 1e6a E8000000 		call	_ZNSt9basic_iosIcSt11char_traitsIcEE4initEPSt15basic_streambufIcS1_E@PLT
 3502      00
 3503              	.LEHE103:
 3504 1e6f 4C8D3D00 		leaq	24+_ZTVN8UnitTest15MemoryOutStreamE(%rip), %r15
 3504      000000
 3505 1e76 488D8380 		leaq	128(%rbx), %rax
 3505      000000
 3506 1e7d 4889DF   		movq	%rbx, %rdi
 3507 1e80 F20F1005 		movsd	.LC18(%rip), %xmm0
 3507      00000000 
 3508 1e88 48C78424 		movq	$0, 168(%rsp)
 3508      A8000000 
 3508      00000000 
 3509 1e94 4D8D6F28 		leaq	40(%r15), %r13
 3510 1e98 4C897C24 		movq	%r15, 48(%rsp)
 3510      30
 3511 1e9d 48898424 		movq	%rax, 160(%rsp)
 3511      A0000000 
 3512 1ea5 C68424B0 		movb	$0, 176(%rsp)
 3512      00000000 
 3513 1ead 4C89AC24 		movq	%r13, 192(%rsp)
 3513      C0000000 
 3514              	.LEHB104:
 3515 1eb5 E8000000 		call	_ZNSo9_M_insertIdEERSoT_@PLT
 3515      00
 3516              	.LEHE104:
 3517 1eba 4889DF   		movq	%rbx, %rdi
 3518              	.LEHB105:
 3519 1ebd E8000000 		call	_ZNK8UnitTest15MemoryOutStream7GetTextEv@PLT
 3519      00
 3520              	.LEHE105:
 3521 1ec2 488D3500 		leaq	.LC15(%rip), %rsi
 3521      000000
 3522 1ec9 4889C7   		movq	%rax, %rdi
 3523 1ecc E8000000 		call	strstr@PLT
 3523      00
 3524 1ed1 4885C0   		testq	%rax, %rax
 3525 1ed4 0F84AE00 		je	.L289
 3525      0000
 3526              	.L272:
 3527 1eda 488BBC24 		movq	160(%rsp), %rdi
 3527      A0000000 
 3528 1ee2 488D8380 		leaq	128(%rbx), %rax
 3528      000000
 3529 1ee9 4C897C24 		movq	%r15, 48(%rsp)
 3529      30
 3530 1eee 4C89AC24 		movq	%r13, 192(%rsp)
 3530      C0000000 
 3531 1ef6 4839C7   		cmpq	%rax, %rdi
 3532 1ef9 7405     		je	.L273
 3533 1efb E8000000 		call	_ZdlPv@PLT
 3533      00
 3534              	.L273:
 3535 1f00 488BBC24 		movq	128(%rsp), %rdi
 3535      80000000 
 3536 1f08 F30F7E05 		movq	.LC4(%rip), %xmm0
 3536      00000000 
 3537 1f10 488D4360 		leaq	96(%rbx), %rax
 3538 1f14 0F160500 		movhps	.LC5(%rip), %xmm0
 3538      000000
 3539 1f1b 4C89B424 		movq	%r14, 192(%rsp)
 3539      C0000000 
 3540 1f23 4839C7   		cmpq	%rax, %rdi
 3541 1f26 0F294424 		movaps	%xmm0, 48(%rsp)
 3541      30
 3542 1f2b 7405     		je	.L274
 3543 1f2d E8000000 		call	_ZdlPv@PLT
 3543      00
 3544              	.L274:
 3545 1f32 488D7B40 		leaq	64(%rbx), %rdi
 3546 1f36 4C896424 		movq	%r12, 56(%rsp)
 3546      38
 3547 1f3b E8000000 		call	_ZNSt6localeD1Ev@PLT
 3547      00
 3548 1f40 488D0500 		leaq	16+_ZTVSt9basic_iosIcSt11char_traitsIcEE(%rip), %rax
 3548      000000
 3549 1f47 488DBB90 		leaq	144(%rbx), %rdi
 3549      000000
 3550 1f4e 48896C24 		movq	%rbp, 48(%rsp)
 3550      30
 3551 1f53 48898424 		movq	%rax, 192(%rsp)
 3551      C0000000 
 3552              	.LEHB106:
 3553 1f5b E8000000 		call	_ZNSt8ios_baseD2Ev@PLT
 3553      00
 3554              	.LEHE106:
 3555 1f60 488B8424 		movq	456(%rsp), %rax
 3555      C8010000 
 3556 1f68 64483304 		xorq	%fs:40, %rax
 3556      25280000 
 3556      00
 3557 1f71 755A     		jne	.L290
 3558 1f73 4881C4D8 		addq	$472, %rsp
 3558      010000
 3559              		.cfi_remember_state
 3560              		.cfi_def_cfa_offset 56
 3561 1f7a 5B       		popq	%rbx
 3562              		.cfi_def_cfa_offset 48
 3563 1f7b 5D       		popq	%rbp
 3564              		.cfi_def_cfa_offset 40
 3565 1f7c 415C     		popq	%r12
 3566              		.cfi_def_cfa_offset 32
 3567 1f7e 415D     		popq	%r13
 3568              		.cfi_def_cfa_offset 24
 3569 1f80 415E     		popq	%r14
 3570              		.cfi_def_cfa_offset 16
 3571 1f82 415F     		popq	%r15
 3572              		.cfi_def_cfa_offset 8
 3573 1f84 C3       		ret
 3574              		.p2align 4,,10
 3575 1f85 0F1F00   		.p2align 3
 3576              	.L289:
 3577              		.cfi_restore_state
 3578              	.LEHB107:
 3579 1f88 E8000000 		call	_ZN8UnitTest11CurrentTest7ResultsEv@PLT
 3579      00
 3580 1f8d 488B00   		movq	(%rax), %rax
 3581 1f90 48894424 		movq	%rax, 8(%rsp)
 3581      08
 3582 1f95 E8000000 		call	_ZN8UnitTest11CurrentTest7DetailsEv@PLT
 3582      00
 3583 1f9a 488D4C24 		leaq	16(%rsp), %rcx
 3583      10
 3584 1f9f 488B30   		movq	(%rax), %rsi
 3585 1fa2 BA400000 		movl	$64, %edx
 3585      00
 3586 1fa7 4889CF   		movq	%rcx, %rdi
 3587 1faa 48890C24 		movq	%rcx, (%rsp)
 3588 1fae E8000000 		call	_ZN8UnitTest11TestDetailsC1ERKS0_i@PLT
 3588      00
 3589 1fb3 488B3424 		movq	(%rsp), %rsi
 3590 1fb7 488B7C24 		movq	8(%rsp), %rdi
 3590      08
 3591 1fbc 488D1500 		leaq	.LC16(%rip), %rdx
 3591      000000
 3592 1fc3 E8000000 		call	_ZN8UnitTest11TestResults13OnTestFailureERKNS_11TestDetailsEPKc@PLT
 3592      00
 3593              	.LEHE107:
 3594 1fc8 E90DFFFF 		jmp	.L272
 3594      FF
 3595              	.L290:
 3596 1fcd E8000000 		call	__stack_chk_fail@PLT
 3596      00
 3597              	.L283:
 3598 1fd2 4989C4   		movq	%rax, %r12
 3599              	.L269:
 3600 1fd5 488D0500 		leaq	16+_ZTVSt9basic_iosIcSt11char_traitsIcEE(%rip), %rax
 3600      000000
 3601 1fdc 488DBB90 		leaq	144(%rbx), %rdi
 3601      000000
 3602 1fe3 48898424 		movq	%rax, 192(%rsp)
 3602      C0000000 
 3603 1feb E8000000 		call	_ZNSt8ios_baseD2Ev@PLT
 3603      00
 3604 1ff0 4C89E7   		movq	%r12, %rdi
 3605              	.LEHB108:
 3606 1ff3 E8000000 		call	_Unwind_Resume@PLT
 3606      00
 3607              	.LEHE108:
 3608              	.L280:
 3609 1ff8 4889C5   		movq	%rax, %rbp
 3610              	.L278:
 3611 1ffb 4889DF   		movq	%rbx, %rdi
 3612 1ffe E8000000 		call	_ZN8UnitTest15MemoryOutStreamD1Ev
 3612      00
 3613 2003 4889EF   		movq	%rbp, %rdi
 3614              	.LEHB109:
 3615 2006 E8000000 		call	_Unwind_Resume@PLT
 3615      00
 3616              	.LEHE109:
 3617              	.L281:
 3618 200b 4889C7   		movq	%rax, %rdi
 3619 200e E8000000 		call	__cxa_begin_catch@PLT
 3619      00
 3620              	.LEHB110:
 3621 2013 E8000000 		call	_ZN8UnitTest11CurrentTest7ResultsEv@PLT
 3621      00
 3622 2018 488B00   		movq	(%rax), %rax
 3623 201b 48894424 		movq	%rax, 8(%rsp)
 3623      08
 3624 2020 E8000000 		call	_ZN8UnitTest11CurrentTest7DetailsEv@PLT
 3624      00
 3625 2025 488D4C24 		leaq	16(%rsp), %rcx
 3625      10
 3626 202a 488B30   		movq	(%rax), %rsi
 3627 202d BA400000 		movl	$64, %edx
 3627      00
 3628 2032 4889CF   		movq	%rcx, %rdi
 3629 2035 48890C24 		movq	%rcx, (%rsp)
 3630 2039 E8000000 		call	_ZN8UnitTest11TestDetailsC1ERKS0_i@PLT
 3630      00
 3631 203e 488B3424 		movq	(%rsp), %rsi
 3632 2042 488B7C24 		movq	8(%rsp), %rdi
 3632      08
 3633 2047 488D1500 		leaq	.LC17(%rip), %rdx
 3633      000000
 3634 204e E8000000 		call	_ZN8UnitTest11TestResults13OnTestFailureERKNS_11TestDetailsEPKc@PLT
 3634      00
 3635              	.LEHE110:
 3636              	.LEHB111:
 3637 2053 E8000000 		call	__cxa_end_catch@PLT
 3637      00
 3638              	.LEHE111:
 3639 2058 E97DFEFF 		jmp	.L272
 3639      FF
 3640              	.L284:
 3641 205d 488D7B08 		leaq	8(%rbx), %rdi
 3642 2061 4989C4   		movq	%rax, %r12
 3643 2064 E8000000 		call	_ZNSt7__cxx1115basic_stringbufIcSt11char_traitsIcESaIcEED1Ev
 3643      00
 3644 2069 48896C24 		movq	%rbp, 48(%rsp)
 3644      30
 3645 206e E962FFFF 		jmp	.L269
 3645      FF
 3646              	.L282:
 3647 2073 4889C5   		movq	%rax, %rbp
 3648 2076 E8000000 		call	__cxa_end_catch@PLT
 3648      00
 3649 207b E97BFFFF 		jmp	.L278
 3649      FF
 3650              		.cfi_endproc
 3651              	.LFE1173:
 3652              		.section	.gcc_except_table
 3653              		.align 4
 3654              	.LLSDA1173:
 3655 02b8 FF       		.byte	0xff
 3656 02b9 9B       		.byte	0x9b
 3657 02ba 41       		.uleb128 .LLSDATT1173-.LLSDATTD1173
 3658              	.LLSDATTD1173:
 3659 02bb 01       		.byte	0x1
 3660 02bc 39       		.uleb128 .LLSDACSE1173-.LLSDACSB1173
 3661              	.LLSDACSB1173:
 3662 02bd A101     		.uleb128 .LEHB102-.LFB1173
 3663 02bf 05       		.uleb128 .LEHE102-.LEHB102
 3664 02c0 9205     		.uleb128 .L283-.LFB1173
 3665 02c2 00       		.uleb128 0
 3666 02c3 AA02     		.uleb128 .LEHB103-.LFB1173
 3667 02c5 05       		.uleb128 .LEHE103-.LEHB103
 3668 02c6 9D06     		.uleb128 .L284-.LFB1173
 3669 02c8 00       		.uleb128 0
 3670 02c9 F502     		.uleb128 .LEHB104-.LFB1173
 3671 02cb 05       		.uleb128 .LEHE104-.LEHB104
 3672 02cc B805     		.uleb128 .L280-.LFB1173
 3673 02ce 00       		.uleb128 0
 3674 02cf FD02     		.uleb128 .LEHB105-.LFB1173
 3675 02d1 05       		.uleb128 .LEHE105-.LEHB105
 3676 02d2 CB05     		.uleb128 .L281-.LFB1173
 3677 02d4 01       		.uleb128 0x1
 3678 02d5 9B04     		.uleb128 .LEHB106-.LFB1173
 3679 02d7 05       		.uleb128 .LEHE106-.LEHB106
 3680 02d8 00       		.uleb128 0
 3681 02d9 00       		.uleb128 0
 3682 02da C804     		.uleb128 .LEHB107-.LFB1173
 3683 02dc 40       		.uleb128 .LEHE107-.LEHB107
 3684 02dd CB05     		.uleb128 .L281-.LFB1173
 3685 02df 01       		.uleb128 0x1
 3686 02e0 B305     		.uleb128 .LEHB108-.LFB1173
 3687 02e2 05       		.uleb128 .LEHE108-.LEHB108
 3688 02e3 00       		.uleb128 0
 3689 02e4 00       		.uleb128 0
 3690 02e5 C605     		.uleb128 .LEHB109-.LFB1173
 3691 02e7 05       		.uleb128 .LEHE109-.LEHB109
 3692 02e8 00       		.uleb128 0
 3693 02e9 00       		.uleb128 0
 3694 02ea D305     		.uleb128 .LEHB110-.LFB1173
 3695 02ec 40       		.uleb128 .LEHE110-.LEHB110
 3696 02ed B306     		.uleb128 .L282-.LFB1173
 3697 02ef 00       		.uleb128 0
 3698 02f0 9306     		.uleb128 .LEHB111-.LFB1173
 3699 02f2 05       		.uleb128 .LEHE111-.LEHB111
 3700 02f3 B805     		.uleb128 .L280-.LFB1173
 3701 02f5 00       		.uleb128 0
 3702              	.LLSDACSE1173:
 3703 02f6 01       		.byte	0x1
 3704 02f7 00       		.byte	0
 3705              		.align 4
 3706 02f8 00000000 		.long	0
 3707              	
 3708              	.LLSDATT1173:
 3709              		.text
 3711              		.section	.rodata.str1.1
 3712              	.LC19:
 3713 0034 31323334 		.string	"1234"
 3713      00
 3714              		.section	.rodata.str1.8
 3715 01e1 00000000 		.align 8
 3715      000000
 3716              	.LC20:
 3717 01e8 73747273 		.string	"strstr(stream.GetText(), \"1234\")"
 3717      74722873 
 3717      74726561 
 3717      6D2E4765 
 3717      74546578 
 3718 0209 00000000 		.align 8
 3718      000000
 3719              	.LC21:
 3720 0210 556E6861 		.string	"Unhandled exception in CHECK(strstr(stream.GetText(), \"1234\"))"
 3720      6E646C65 
 3720      64206578 
 3720      63657074 
 3720      696F6E20 
 3721              		.text
 3722              		.align 2
 3723              		.p2align 4,,15
 3725              	_ZNK12_GLOBAL__N_143TestStreamingPointerWritesCorrectCharacters7RunImplEv:
 3726              	.LFB1181:
 3727              		.cfi_startproc
 3728              		.cfi_personality 0x9b,DW.ref.__gxx_personality_v0
 3729              		.cfi_lsda 0x1b,.LLSDA1181
 3730 2080 4157     		pushq	%r15
 3731              		.cfi_def_cfa_offset 16
 3732              		.cfi_offset 15, -16
 3733 2082 4156     		pushq	%r14
 3734              		.cfi_def_cfa_offset 24
 3735              		.cfi_offset 14, -24
 3736 2084 4155     		pushq	%r13
 3737              		.cfi_def_cfa_offset 32
 3738              		.cfi_offset 13, -32
 3739 2086 4154     		pushq	%r12
 3740              		.cfi_def_cfa_offset 40
 3741              		.cfi_offset 12, -40
 3742 2088 55       		pushq	%rbp
 3743              		.cfi_def_cfa_offset 48
 3744              		.cfi_offset 6, -48
 3745 2089 53       		pushq	%rbx
 3746              		.cfi_def_cfa_offset 56
 3747              		.cfi_offset 3, -56
 3748 208a 488D2D00 		leaq	24+_ZTCN8UnitTest15MemoryOutStreamE0_So(%rip), %rbp
 3748      000000
 3749 2091 4881ECD8 		subq	$472, %rsp
 3749      010000
 3750              		.cfi_def_cfa_offset 528
 3751 2098 488D5C24 		leaq	48(%rsp), %rbx
 3751      30
 3752 209d 64488B04 		movq	%fs:40, %rax
 3752      25280000 
 3752      00
 3753 20a6 48898424 		movq	%rax, 456(%rsp)
 3753      C8010000 
 3754 20ae 31C0     		xorl	%eax, %eax
 3755 20b0 4C8DA390 		leaq	144(%rbx), %r12
 3755      000000
 3756 20b7 4C89E7   		movq	%r12, %rdi
 3757 20ba E8000000 		call	_ZNSt8ios_baseC2Ev@PLT
 3757      00
 3758 20bf 488D4528 		leaq	40(%rbp), %rax
 3759 20c3 31F6     		xorl	%esi, %esi
 3760 20c5 4C89E7   		movq	%r12, %rdi
 3761 20c8 48C78424 		movq	$0, 408(%rsp)
 3761      98010000 
 3761      00000000 
 3762 20d4 C68424A0 		movb	$0, 416(%rsp)
 3762      01000000 
 3763 20dc C68424A1 		movb	$0, 417(%rsp)
 3763      01000000 
 3764 20e4 48C78424 		movq	$0, 424(%rsp)
 3764      A8010000 
 3764      00000000 
 3765 20f0 48C78424 		movq	$0, 432(%rsp)
 3765      B0010000 
 3765      00000000 
 3766 20fc 48C78424 		movq	$0, 440(%rsp)
 3766      B8010000 
 3766      00000000 
 3767 2108 48C78424 		movq	$0, 448(%rsp)
 3767      C0010000 
 3767      00000000 
 3768 2114 48896C24 		movq	%rbp, 48(%rsp)
 3768      30
 3769 2119 48898424 		movq	%rax, 192(%rsp)
 3769      C0000000 
 3770              	.LEHB112:
 3771 2121 E8000000 		call	_ZNSt9basic_iosIcSt11char_traitsIcEE4initEPSt15basic_streambufIcS1_E@PLT
 3771      00
 3772              	.LEHE112:
 3773 2126 488D0500 		leaq	24+_ZTCN8UnitTest15MemoryOutStreamE0_NSt7__cxx1119basic_ostringstreamIcSt11char_traitsIcESaIc
 3773      000000
 3774 212d 660FEFC0 		pxor	%xmm0, %xmm0
 3775 2131 488D7B40 		leaq	64(%rbx), %rdi
 3776 2135 4C8D2500 		leaq	16+_ZTVSt15basic_streambufIcSt11char_traitsIcEE(%rip), %r12
 3776      000000
 3777 213c 4C8D7028 		leaq	40(%rax), %r14
 3778 2140 48894424 		movq	%rax, 48(%rsp)
 3778      30
 3779 2145 4C896424 		movq	%r12, 56(%rsp)
 3779      38
 3780 214a 4C89B424 		movq	%r14, 192(%rsp)
 3780      C0000000 
 3781 2152 0F294424 		movaps	%xmm0, 64(%rsp)
 3781      40
 3782 2157 0F294424 		movaps	%xmm0, 80(%rsp)
 3782      50
 3783 215c 0F294424 		movaps	%xmm0, 96(%rsp)
 3783      60
 3784 2161 E8000000 		call	_ZNSt6localeC1Ev@PLT
 3784      00
 3785 2166 488D0500 		leaq	16+_ZTVNSt7__cxx1115basic_stringbufIcSt11char_traitsIcESaIcEEE(%rip), %rax
 3785      000000
 3786 216d 488D7308 		leaq	8(%rbx), %rsi
 3787 2171 48894424 		movq	%rax, 56(%rsp)
 3787      38
 3788 2176 488D4360 		leaq	96(%rbx), %rax
 3789 217a C7442478 		movl	$16, 120(%rsp)
 3789      10000000 
 3790 2182 48C78424 		movq	$0, 136(%rsp)
 3790      88000000 
 3790      00000000 
 3791 218e C6842490 		movb	$0, 144(%rsp)
 3791      00000000 
 3792 2196 48898424 		movq	%rax, 128(%rsp)
 3792      80000000 
 3793 219e 488B4424 		movq	48(%rsp), %rax
 3793      30
 3794 21a3 488B78E8 		movq	-24(%rax), %rdi
 3795 21a7 4801DF   		addq	%rbx, %rdi
 3796              	.LEHB113:
 3797 21aa E8000000 		call	_ZNSt9basic_iosIcSt11char_traitsIcEE4initEPSt15basic_streambufIcS1_E@PLT
 3797      00
 3798              	.LEHE113:
 3799 21af 4C8D3D00 		leaq	24+_ZTVN8UnitTest15MemoryOutStreamE(%rip), %r15
 3799      000000
 3800 21b6 488D8380 		leaq	128(%rbx), %rax
 3800      000000
 3801 21bd BE341200 		movl	$4660, %esi
 3801      00
 3802 21c2 4889DF   		movq	%rbx, %rdi
 3803 21c5 48C78424 		movq	$0, 168(%rsp)
 3803      A8000000 
 3803      00000000 
 3804 21d1 C68424B0 		movb	$0, 176(%rsp)
 3804      00000000 
 3805 21d9 4D8D6F28 		leaq	40(%r15), %r13
 3806 21dd 4C897C24 		movq	%r15, 48(%rsp)
 3806      30
 3807 21e2 48898424 		movq	%rax, 160(%rsp)
 3807      A0000000 
 3808 21ea 4C89AC24 		movq	%r13, 192(%rsp)
 3808      C0000000 
 3809              	.LEHB114:
 3810 21f2 E8000000 		call	_ZNSo9_M_insertIPKvEERSoT_@PLT
 3810      00
 3811              	.LEHE114:
 3812 21f7 4889DF   		movq	%rbx, %rdi
 3813              	.LEHB115:
 3814 21fa E8000000 		call	_ZNK8UnitTest15MemoryOutStream7GetTextEv@PLT
 3814      00
 3815              	.LEHE115:
 3816 21ff 488D3500 		leaq	.LC19(%rip), %rsi
 3816      000000
 3817 2206 4889C7   		movq	%rax, %rdi
 3818 2209 E8000000 		call	strstr@PLT
 3818      00
 3819 220e 4885C0   		testq	%rax, %rax
 3820 2211 0F84B100 		je	.L314
 3820      0000
 3821              	.L297:
 3822 2217 488BBC24 		movq	160(%rsp), %rdi
 3822      A0000000 
 3823 221f 488D8380 		leaq	128(%rbx), %rax
 3823      000000
 3824 2226 4C897C24 		movq	%r15, 48(%rsp)
 3824      30
 3825 222b 4C89AC24 		movq	%r13, 192(%rsp)
 3825      C0000000 
 3826 2233 4839C7   		cmpq	%rax, %rdi
 3827 2236 7405     		je	.L298
 3828 2238 E8000000 		call	_ZdlPv@PLT
 3828      00
 3829              	.L298:
 3830 223d 488BBC24 		movq	128(%rsp), %rdi
 3830      80000000 
 3831 2245 F30F7E05 		movq	.LC4(%rip), %xmm0
 3831      00000000 
 3832 224d 488D4360 		leaq	96(%rbx), %rax
 3833 2251 0F160500 		movhps	.LC5(%rip), %xmm0
 3833      000000
 3834 2258 4C89B424 		movq	%r14, 192(%rsp)
 3834      C0000000 
 3835 2260 4839C7   		cmpq	%rax, %rdi
 3836 2263 0F294424 		movaps	%xmm0, 48(%rsp)
 3836      30
 3837 2268 7405     		je	.L299
 3838 226a E8000000 		call	_ZdlPv@PLT
 3838      00
 3839              	.L299:
 3840 226f 488D7B40 		leaq	64(%rbx), %rdi
 3841 2273 4C896424 		movq	%r12, 56(%rsp)
 3841      38
 3842 2278 E8000000 		call	_ZNSt6localeD1Ev@PLT
 3842      00
 3843 227d 488D0500 		leaq	16+_ZTVSt9basic_iosIcSt11char_traitsIcEE(%rip), %rax
 3843      000000
 3844 2284 488DBB90 		leaq	144(%rbx), %rdi
 3844      000000
 3845 228b 48896C24 		movq	%rbp, 48(%rsp)
 3845      30
 3846 2290 48898424 		movq	%rax, 192(%rsp)
 3846      C0000000 
 3847              	.LEHB116:
 3848 2298 E8000000 		call	_ZNSt8ios_baseD2Ev@PLT
 3848      00
 3849              	.LEHE116:
 3850 229d 488B8424 		movq	456(%rsp), %rax
 3850      C8010000 
 3851 22a5 64483304 		xorq	%fs:40, %rax
 3851      25280000 
 3851      00
 3852 22ae 755D     		jne	.L315
 3853 22b0 4881C4D8 		addq	$472, %rsp
 3853      010000
 3854              		.cfi_remember_state
 3855              		.cfi_def_cfa_offset 56
 3856 22b7 5B       		popq	%rbx
 3857              		.cfi_def_cfa_offset 48
 3858 22b8 5D       		popq	%rbp
 3859              		.cfi_def_cfa_offset 40
 3860 22b9 415C     		popq	%r12
 3861              		.cfi_def_cfa_offset 32
 3862 22bb 415D     		popq	%r13
 3863              		.cfi_def_cfa_offset 24
 3864 22bd 415E     		popq	%r14
 3865              		.cfi_def_cfa_offset 16
 3866 22bf 415F     		popq	%r15
 3867              		.cfi_def_cfa_offset 8
 3868 22c1 C3       		ret
 3869              		.p2align 4,,10
 3870 22c2 660F1F44 		.p2align 3
 3870      0000
 3871              	.L314:
 3872              		.cfi_restore_state
 3873              	.LEHB117:
 3874 22c8 E8000000 		call	_ZN8UnitTest11CurrentTest7ResultsEv@PLT
 3874      00
 3875 22cd 488B00   		movq	(%rax), %rax
 3876 22d0 48894424 		movq	%rax, 8(%rsp)
 3876      08
 3877 22d5 E8000000 		call	_ZN8UnitTest11CurrentTest7DetailsEv@PLT
 3877      00
 3878 22da 488D4C24 		leaq	16(%rsp), %rcx
 3878      10
 3879 22df 488B30   		movq	(%rax), %rsi
 3880 22e2 BA4F0000 		movl	$79, %edx
 3880      00
 3881 22e7 4889CF   		movq	%rcx, %rdi
 3882 22ea 48890C24 		movq	%rcx, (%rsp)
 3883 22ee E8000000 		call	_ZN8UnitTest11TestDetailsC1ERKS0_i@PLT
 3883      00
 3884 22f3 488B3424 		movq	(%rsp), %rsi
 3885 22f7 488B7C24 		movq	8(%rsp), %rdi
 3885      08
 3886 22fc 488D1500 		leaq	.LC20(%rip), %rdx
 3886      000000
 3887 2303 E8000000 		call	_ZN8UnitTest11TestResults13OnTestFailureERKNS_11TestDetailsEPKc@PLT
 3887      00
 3888              	.LEHE117:
 3889 2308 E90AFFFF 		jmp	.L297
 3889      FF
 3890              	.L315:
 3891 230d E8000000 		call	__stack_chk_fail@PLT
 3891      00
 3892              	.L308:
 3893 2312 4989C4   		movq	%rax, %r12
 3894              	.L294:
 3895 2315 488D0500 		leaq	16+_ZTVSt9basic_iosIcSt11char_traitsIcEE(%rip), %rax
 3895      000000
 3896 231c 488DBB90 		leaq	144(%rbx), %rdi
 3896      000000
 3897 2323 48898424 		movq	%rax, 192(%rsp)
 3897      C0000000 
 3898 232b E8000000 		call	_ZNSt8ios_baseD2Ev@PLT
 3898      00
 3899 2330 4C89E7   		movq	%r12, %rdi
 3900              	.LEHB118:
 3901 2333 E8000000 		call	_Unwind_Resume@PLT
 3901      00
 3902              	.LEHE118:
 3903              	.L305:
 3904 2338 4889C5   		movq	%rax, %rbp
 3905              	.L303:
 3906 233b 4889DF   		movq	%rbx, %rdi
 3907 233e E8000000 		call	_ZN8UnitTest15MemoryOutStreamD1Ev
 3907      00
 3908 2343 4889EF   		movq	%rbp, %rdi
 3909              	.LEHB119:
 3910 2346 E8000000 		call	_Unwind_Resume@PLT
 3910      00
 3911              	.LEHE119:
 3912              	.L306:
 3913 234b 4889C7   		movq	%rax, %rdi
 3914 234e E8000000 		call	__cxa_begin_catch@PLT
 3914      00
 3915              	.LEHB120:
 3916 2353 E8000000 		call	_ZN8UnitTest11CurrentTest7ResultsEv@PLT
 3916      00
 3917 2358 488B00   		movq	(%rax), %rax
 3918 235b 48894424 		movq	%rax, 8(%rsp)
 3918      08
 3919 2360 E8000000 		call	_ZN8UnitTest11CurrentTest7DetailsEv@PLT
 3919      00
 3920 2365 488D4C24 		leaq	16(%rsp), %rcx
 3920      10
 3921 236a 488B30   		movq	(%rax), %rsi
 3922 236d BA4F0000 		movl	$79, %edx
 3922      00
 3923 2372 4889CF   		movq	%rcx, %rdi
 3924 2375 48890C24 		movq	%rcx, (%rsp)
 3925 2379 E8000000 		call	_ZN8UnitTest11TestDetailsC1ERKS0_i@PLT
 3925      00
 3926 237e 488B3424 		movq	(%rsp), %rsi
 3927 2382 488B7C24 		movq	8(%rsp), %rdi
 3927      08
 3928 2387 488D1500 		leaq	.LC21(%rip), %rdx
 3928      000000
 3929 238e E8000000 		call	_ZN8UnitTest11TestResults13OnTestFailureERKNS_11TestDetailsEPKc@PLT
 3929      00
 3930              	.LEHE120:
 3931              	.LEHB121:
 3932 2393 E8000000 		call	__cxa_end_catch@PLT
 3932      00
 3933              	.LEHE121:
 3934 2398 E97AFEFF 		jmp	.L297
 3934      FF
 3935              	.L309:
 3936 239d 488D7B08 		leaq	8(%rbx), %rdi
 3937 23a1 4989C4   		movq	%rax, %r12
 3938 23a4 E8000000 		call	_ZNSt7__cxx1115basic_stringbufIcSt11char_traitsIcESaIcEED1Ev
 3938      00
 3939 23a9 48896C24 		movq	%rbp, 48(%rsp)
 3939      30
 3940 23ae E962FFFF 		jmp	.L294
 3940      FF
 3941              	.L307:
 3942 23b3 4889C5   		movq	%rax, %rbp
 3943 23b6 E8000000 		call	__cxa_end_catch@PLT
 3943      00
 3944 23bb E97BFFFF 		jmp	.L303
 3944      FF
 3945              		.cfi_endproc
 3946              	.LFE1181:
 3947              		.section	.gcc_except_table
 3948              		.align 4
 3949              	.LLSDA1181:
 3950 02fc FF       		.byte	0xff
 3951 02fd 9B       		.byte	0x9b
 3952 02fe 41       		.uleb128 .LLSDATT1181-.LLSDATTD1181
 3953              	.LLSDATTD1181:
 3954 02ff 01       		.byte	0x1
 3955 0300 39       		.uleb128 .LLSDACSE1181-.LLSDACSB1181
 3956              	.LLSDACSB1181:
 3957 0301 A101     		.uleb128 .LEHB112-.LFB1181
 3958 0303 05       		.uleb128 .LEHE112-.LEHB112
 3959 0304 9205     		.uleb128 .L308-.LFB1181
 3960 0306 00       		.uleb128 0
 3961 0307 AA02     		.uleb128 .LEHB113-.LFB1181
 3962 0309 05       		.uleb128 .LEHE113-.LEHB113
 3963 030a 9D06     		.uleb128 .L309-.LFB1181
 3964 030c 00       		.uleb128 0
 3965 030d F202     		.uleb128 .LEHB114-.LFB1181
 3966 030f 05       		.uleb128 .LEHE114-.LEHB114
 3967 0310 B805     		.uleb128 .L305-.LFB1181
 3968 0312 00       		.uleb128 0
 3969 0313 FA02     		.uleb128 .LEHB115-.LFB1181
 3970 0315 05       		.uleb128 .LEHE115-.LEHB115
 3971 0316 CB05     		.uleb128 .L306-.LFB1181
 3972 0318 01       		.uleb128 0x1
 3973 0319 9804     		.uleb128 .LEHB116-.LFB1181
 3974 031b 05       		.uleb128 .LEHE116-.LEHB116
 3975 031c 00       		.uleb128 0
 3976 031d 00       		.uleb128 0
 3977 031e C804     		.uleb128 .LEHB117-.LFB1181
 3978 0320 40       		.uleb128 .LEHE117-.LEHB117
 3979 0321 CB05     		.uleb128 .L306-.LFB1181
 3980 0323 01       		.uleb128 0x1
 3981 0324 B305     		.uleb128 .LEHB118-.LFB1181
 3982 0326 05       		.uleb128 .LEHE118-.LEHB118
 3983 0327 00       		.uleb128 0
 3984 0328 00       		.uleb128 0
 3985 0329 C605     		.uleb128 .LEHB119-.LFB1181
 3986 032b 05       		.uleb128 .LEHE119-.LEHB119
 3987 032c 00       		.uleb128 0
 3988 032d 00       		.uleb128 0
 3989 032e D305     		.uleb128 .LEHB120-.LFB1181
 3990 0330 40       		.uleb128 .LEHE120-.LEHB120
 3991 0331 B306     		.uleb128 .L307-.LFB1181
 3992 0333 00       		.uleb128 0
 3993 0334 9306     		.uleb128 .LEHB121-.LFB1181
 3994 0336 05       		.uleb128 .LEHE121-.LEHB121
 3995 0337 B805     		.uleb128 .L305-.LFB1181
 3996 0339 00       		.uleb128 0
 3997              	.LLSDACSE1181:
 3998 033a 01       		.byte	0x1
 3999 033b 00       		.byte	0
 4000              		.align 4
 4001 033c 00000000 		.long	0
 4002              	
 4003              	.LLSDATT1181:
 4004              		.text
 4006              		.section	.rodata.str1.1
 4007              	.LC22:
 4008 0039 426F726B 		.string	"Bork"
 4008      00
 4009              	.LC23:
 4010 003e 466F6F00 		.string	"Foo"
 4011              	.LC24:
 4012 0042 42617200 		.string	"Bar"
 4013              	.LC25:
 4014 0046 426F726B 		.string	"BorkFooBar"
 4014      466F6F42 
 4014      617200
 4015              		.section	.rodata.str1.8
 4016 024f 00       		.align 8
 4017              	.LC26:
 4018 0250 556E6861 		.string	"Unhandled exception in CHECK_EQUAL(\"BorkFooBar\", stream.GetText())"
 4018      6E646C65 
 4018      64206578 
 4018      63657074 
 4018      696F6E20 
 4019              		.text
 4020              		.align 2
 4021              		.p2align 4,,15
 4023              	_ZNK12_GLOBAL__N_144TestStreamingMultipleTimesConcatenatesResult7RunImplEv:
 4024              	.LFB1153:
 4025              		.cfi_startproc
 4026              		.cfi_personality 0x9b,DW.ref.__gxx_personality_v0
 4027              		.cfi_lsda 0x1b,.LLSDA1153
 4028 23c0 4157     		pushq	%r15
 4029              		.cfi_def_cfa_offset 16
 4030              		.cfi_offset 15, -16
 4031 23c2 4156     		pushq	%r14
 4032              		.cfi_def_cfa_offset 24
 4033              		.cfi_offset 14, -24
 4034 23c4 4155     		pushq	%r13
 4035              		.cfi_def_cfa_offset 32
 4036              		.cfi_offset 13, -32
 4037 23c6 4154     		pushq	%r12
 4038              		.cfi_def_cfa_offset 40
 4039              		.cfi_offset 12, -40
 4040 23c8 55       		pushq	%rbp
 4041              		.cfi_def_cfa_offset 48
 4042              		.cfi_offset 6, -48
 4043 23c9 53       		pushq	%rbx
 4044              		.cfi_def_cfa_offset 56
 4045              		.cfi_offset 3, -56
 4046 23ca 488D2D00 		leaq	24+_ZTCN8UnitTest15MemoryOutStreamE0_So(%rip), %rbp
 4046      000000
 4047 23d1 4881ECD8 		subq	$472, %rsp
 4047      010000
 4048              		.cfi_def_cfa_offset 528
 4049 23d8 488D5C24 		leaq	48(%rsp), %rbx
 4049      30
 4050 23dd 64488B04 		movq	%fs:40, %rax
 4050      25280000 
 4050      00
 4051 23e6 48898424 		movq	%rax, 456(%rsp)
 4051      C8010000 
 4052 23ee 31C0     		xorl	%eax, %eax
 4053 23f0 4C8DA390 		leaq	144(%rbx), %r12
 4053      000000
 4054 23f7 4C89E7   		movq	%r12, %rdi
 4055 23fa E8000000 		call	_ZNSt8ios_baseC2Ev@PLT
 4055      00
 4056 23ff 488D4528 		leaq	40(%rbp), %rax
 4057 2403 31F6     		xorl	%esi, %esi
 4058 2405 4C89E7   		movq	%r12, %rdi
 4059 2408 48C78424 		movq	$0, 408(%rsp)
 4059      98010000 
 4059      00000000 
 4060 2414 C68424A0 		movb	$0, 416(%rsp)
 4060      01000000 
 4061 241c C68424A1 		movb	$0, 417(%rsp)
 4061      01000000 
 4062 2424 48C78424 		movq	$0, 424(%rsp)
 4062      A8010000 
 4062      00000000 
 4063 2430 48C78424 		movq	$0, 432(%rsp)
 4063      B0010000 
 4063      00000000 
 4064 243c 48C78424 		movq	$0, 440(%rsp)
 4064      B8010000 
 4064      00000000 
 4065 2448 48C78424 		movq	$0, 448(%rsp)
 4065      C0010000 
 4065      00000000 
 4066 2454 48896C24 		movq	%rbp, 48(%rsp)
 4066      30
 4067 2459 48898424 		movq	%rax, 192(%rsp)
 4067      C0000000 
 4068              	.LEHB122:
 4069 2461 E8000000 		call	_ZNSt9basic_iosIcSt11char_traitsIcEE4initEPSt15basic_streambufIcS1_E@PLT
 4069      00
 4070              	.LEHE122:
 4071 2466 488D0500 		leaq	24+_ZTCN8UnitTest15MemoryOutStreamE0_NSt7__cxx1119basic_ostringstreamIcSt11char_traitsIcESaIc
 4071      000000
 4072 246d 660FEFC0 		pxor	%xmm0, %xmm0
 4073 2471 488D7B40 		leaq	64(%rbx), %rdi
 4074 2475 4C8D2500 		leaq	16+_ZTVSt15basic_streambufIcSt11char_traitsIcEE(%rip), %r12
 4074      000000
 4075 247c 4C8D7028 		leaq	40(%rax), %r14
 4076 2480 48894424 		movq	%rax, 48(%rsp)
 4076      30
 4077 2485 4C896424 		movq	%r12, 56(%rsp)
 4077      38
 4078 248a 4C89B424 		movq	%r14, 192(%rsp)
 4078      C0000000 
 4079 2492 0F294424 		movaps	%xmm0, 64(%rsp)
 4079      40
 4080 2497 0F294424 		movaps	%xmm0, 80(%rsp)
 4080      50
 4081 249c 0F294424 		movaps	%xmm0, 96(%rsp)
 4081      60
 4082 24a1 E8000000 		call	_ZNSt6localeC1Ev@PLT
 4082      00
 4083 24a6 488D0500 		leaq	16+_ZTVNSt7__cxx1115basic_stringbufIcSt11char_traitsIcESaIcEEE(%rip), %rax
 4083      000000
 4084 24ad 488D7308 		leaq	8(%rbx), %rsi
 4085 24b1 48894424 		movq	%rax, 56(%rsp)
 4085      38
 4086 24b6 488D4360 		leaq	96(%rbx), %rax
 4087 24ba C7442478 		movl	$16, 120(%rsp)
 4087      10000000 
 4088 24c2 48C78424 		movq	$0, 136(%rsp)
 4088      88000000 
 4088      00000000 
 4089 24ce C6842490 		movb	$0, 144(%rsp)
 4089      00000000 
 4090 24d6 48898424 		movq	%rax, 128(%rsp)
 4090      80000000 
 4091 24de 488B4424 		movq	48(%rsp), %rax
 4091      30
 4092 24e3 488B78E8 		movq	-24(%rax), %rdi
 4093 24e7 4801DF   		addq	%rbx, %rdi
 4094              	.LEHB123:
 4095 24ea E8000000 		call	_ZNSt9basic_iosIcSt11char_traitsIcEE4initEPSt15basic_streambufIcS1_E@PLT
 4095      00
 4096              	.LEHE123:
 4097 24ef 4C8D3D00 		leaq	24+_ZTVN8UnitTest15MemoryOutStreamE(%rip), %r15
 4097      000000
 4098 24f6 488D8380 		leaq	128(%rbx), %rax
 4098      000000
 4099 24fd 488D3500 		leaq	.LC22(%rip), %rsi
 4099      000000
 4100 2504 BA040000 		movl	$4, %edx
 4100      00
 4101 2509 4889DF   		movq	%rbx, %rdi
 4102 250c 48C78424 		movq	$0, 168(%rsp)
 4102      A8000000 
 4102      00000000 
 4103 2518 4D8D6F28 		leaq	40(%r15), %r13
 4104 251c 4C897C24 		movq	%r15, 48(%rsp)
 4104      30
 4105 2521 48898424 		movq	%rax, 160(%rsp)
 4105      A0000000 
 4106 2529 C68424B0 		movb	$0, 176(%rsp)
 4106      00000000 
 4107 2531 4C89AC24 		movq	%r13, 192(%rsp)
 4107      C0000000 
 4108              	.LEHB124:
 4109 2539 E8000000 		call	_ZSt16__ostream_insertIcSt11char_traitsIcEERSt13basic_ostreamIT_T0_ES6_PKS3_l@PLT
 4109      00
 4110 253e 488D3500 		leaq	.LC23(%rip), %rsi
 4110      000000
 4111 2545 BA030000 		movl	$3, %edx
 4111      00
 4112 254a 4889DF   		movq	%rbx, %rdi
 4113 254d E8000000 		call	_ZSt16__ostream_insertIcSt11char_traitsIcEERSt13basic_ostreamIT_T0_ES6_PKS3_l@PLT
 4113      00
 4114 2552 488D3500 		leaq	.LC24(%rip), %rsi
 4114      000000
 4115 2559 BA030000 		movl	$3, %edx
 4115      00
 4116 255e 4889DF   		movq	%rbx, %rdi
 4117 2561 E8000000 		call	_ZSt16__ostream_insertIcSt11char_traitsIcEERSt13basic_ostreamIT_T0_ES6_PKS3_l@PLT
 4117      00
 4118              	.LEHE124:
 4119              	.LEHB125:
 4120 2566 E8000000 		call	_ZN8UnitTest11CurrentTest7DetailsEv@PLT
 4120      00
 4121 256b 488D4C24 		leaq	16(%rsp), %rcx
 4121      10
 4122 2570 488B30   		movq	(%rax), %rsi
 4123 2573 BA1D0000 		movl	$29, %edx
 4123      00
 4124 2578 4889CF   		movq	%rcx, %rdi
 4125 257b 48890C24 		movq	%rcx, (%rsp)
 4126 257f E8000000 		call	_ZN8UnitTest11TestDetailsC1ERKS0_i@PLT
 4126      00
 4127 2584 4889DF   		movq	%rbx, %rdi
 4128 2587 E8000000 		call	_ZNK8UnitTest15MemoryOutStream7GetTextEv@PLT
 4128      00
 4129 258c 48894424 		movq	%rax, 8(%rsp)
 4129      08
 4130 2591 E8000000 		call	_ZN8UnitTest11CurrentTest7ResultsEv@PLT
 4130      00
 4131 2596 488B0C24 		movq	(%rsp), %rcx
 4132 259a 488B5424 		movq	8(%rsp), %rdx
 4132      08
 4133 259f 488D3500 		leaq	.LC25(%rip), %rsi
 4133      000000
 4134 25a6 488B38   		movq	(%rax), %rdi
 4135 25a9 E8000000 		call	_ZN8UnitTest10CheckEqualERNS_11TestResultsEPKcS3_RKNS_11TestDetailsE@PLT
 4135      00
 4136              	.LEHE125:
 4137              	.L324:
 4138 25ae 488BBC24 		movq	160(%rsp), %rdi
 4138      A0000000 
 4139 25b6 488D8380 		leaq	128(%rbx), %rax
 4139      000000
 4140 25bd 4C897C24 		movq	%r15, 48(%rsp)
 4140      30
 4141 25c2 4C89AC24 		movq	%r13, 192(%rsp)
 4141      C0000000 
 4142 25ca 4839C7   		cmpq	%rax, %rdi
 4143 25cd 7405     		je	.L321
 4144 25cf E8000000 		call	_ZdlPv@PLT
 4144      00
 4145              	.L321:
 4146 25d4 488BBC24 		movq	128(%rsp), %rdi
 4146      80000000 
 4147 25dc F30F7E05 		movq	.LC4(%rip), %xmm0
 4147      00000000 
 4148 25e4 488D4360 		leaq	96(%rbx), %rax
 4149 25e8 0F160500 		movhps	.LC5(%rip), %xmm0
 4149      000000
 4150 25ef 4C89B424 		movq	%r14, 192(%rsp)
 4150      C0000000 
 4151 25f7 4839C7   		cmpq	%rax, %rdi
 4152 25fa 0F294424 		movaps	%xmm0, 48(%rsp)
 4152      30
 4153 25ff 7405     		je	.L322
 4154 2601 E8000000 		call	_ZdlPv@PLT
 4154      00
 4155              	.L322:
 4156 2606 488D7B40 		leaq	64(%rbx), %rdi
 4157 260a 4C896424 		movq	%r12, 56(%rsp)
 4157      38
 4158 260f E8000000 		call	_ZNSt6localeD1Ev@PLT
 4158      00
 4159 2614 488D0500 		leaq	16+_ZTVSt9basic_iosIcSt11char_traitsIcEE(%rip), %rax
 4159      000000
 4160 261b 488DBB90 		leaq	144(%rbx), %rdi
 4160      000000
 4161 2622 48896C24 		movq	%rbp, 48(%rsp)
 4161      30
 4162 2627 48898424 		movq	%rax, 192(%rsp)
 4162      C0000000 
 4163              	.LEHB126:
 4164 262f E8000000 		call	_ZNSt8ios_baseD2Ev@PLT
 4164      00
 4165              	.LEHE126:
 4166 2634 488B8424 		movq	456(%rsp), %rax
 4166      C8010000 
 4167 263c 64483304 		xorq	%fs:40, %rax
 4167      25280000 
 4167      00
 4168 2645 7512     		jne	.L337
 4169 2647 4881C4D8 		addq	$472, %rsp
 4169      010000
 4170              		.cfi_remember_state
 4171              		.cfi_def_cfa_offset 56
 4172 264e 5B       		popq	%rbx
 4173              		.cfi_def_cfa_offset 48
 4174 264f 5D       		popq	%rbp
 4175              		.cfi_def_cfa_offset 40
 4176 2650 415C     		popq	%r12
 4177              		.cfi_def_cfa_offset 32
 4178 2652 415D     		popq	%r13
 4179              		.cfi_def_cfa_offset 24
 4180 2654 415E     		popq	%r14
 4181              		.cfi_def_cfa_offset 16
 4182 2656 415F     		popq	%r15
 4183              		.cfi_def_cfa_offset 8
 4184 2658 C3       		ret
 4185              	.L337:
 4186              		.cfi_restore_state
 4187 2659 E8000000 		call	__stack_chk_fail@PLT
 4187      00
 4188              	.L329:
 4189 265e 4889C7   		movq	%rax, %rdi
 4190 2661 E8000000 		call	__cxa_begin_catch@PLT
 4190      00
 4191              	.LEHB127:
 4192 2666 E8000000 		call	_ZN8UnitTest11CurrentTest7ResultsEv@PLT
 4192      00
 4193 266b 488B00   		movq	(%rax), %rax
 4194 266e 48894424 		movq	%rax, 8(%rsp)
 4194      08
 4195 2673 E8000000 		call	_ZN8UnitTest11CurrentTest7DetailsEv@PLT
 4195      00
 4196 2678 488D4C24 		leaq	16(%rsp), %rcx
 4196      10
 4197 267d 488B30   		movq	(%rax), %rsi
 4198 2680 BA1D0000 		movl	$29, %edx
 4198      00
 4199 2685 4889CF   		movq	%rcx, %rdi
 4200 2688 48890C24 		movq	%rcx, (%rsp)
 4201 268c E8000000 		call	_ZN8UnitTest11TestDetailsC1ERKS0_i@PLT
 4201      00
 4202 2691 488B3424 		movq	(%rsp), %rsi
 4203 2695 488B7C24 		movq	8(%rsp), %rdi
 4203      08
 4204 269a 488D1500 		leaq	.LC26(%rip), %rdx
 4204      000000
 4205 26a1 E8000000 		call	_ZN8UnitTest11TestResults13OnTestFailureERKNS_11TestDetailsEPKc@PLT
 4205      00
 4206              	.LEHE127:
 4207              	.LEHB128:
 4208 26a6 E8000000 		call	__cxa_end_catch@PLT
 4208      00
 4209              	.LEHE128:
 4210 26ab E9FEFEFF 		jmp	.L324
 4210      FF
 4211              	.L328:
 4212 26b0 4889C5   		movq	%rax, %rbp
 4213              	.L326:
 4214 26b3 4889DF   		movq	%rbx, %rdi
 4215 26b6 E8000000 		call	_ZN8UnitTest15MemoryOutStreamD1Ev
 4215      00
 4216 26bb 4889EF   		movq	%rbp, %rdi
 4217              	.LEHB129:
 4218 26be E8000000 		call	_Unwind_Resume@PLT
 4218      00
 4219              	.LEHE129:
 4220              	.L330:
 4221 26c3 4889C5   		movq	%rax, %rbp
 4222 26c6 E8000000 		call	__cxa_end_catch@PLT
 4222      00
 4223 26cb EBE6     		jmp	.L326
 4224              	.L332:
 4225 26cd 488D7B08 		leaq	8(%rbx), %rdi
 4226 26d1 4989C4   		movq	%rax, %r12
 4227 26d4 E8000000 		call	_ZNSt7__cxx1115basic_stringbufIcSt11char_traitsIcESaIcEED1Ev
 4227      00
 4228 26d9 48896C24 		movq	%rbp, 48(%rsp)
 4228      30
 4229              	.L319:
 4230 26de 488D0500 		leaq	16+_ZTVSt9basic_iosIcSt11char_traitsIcEE(%rip), %rax
 4230      000000
 4231 26e5 488DBB90 		leaq	144(%rbx), %rdi
 4231      000000
 4232 26ec 48898424 		movq	%rax, 192(%rsp)
 4232      C0000000 
 4233 26f4 E8000000 		call	_ZNSt8ios_baseD2Ev@PLT
 4233      00
 4234 26f9 4C89E7   		movq	%r12, %rdi
 4235              	.LEHB130:
 4236 26fc E8000000 		call	_Unwind_Resume@PLT
 4236      00
 4237              	.LEHE130:
 4238              	.L331:
 4239 2701 4989C4   		movq	%rax, %r12
 4240 2704 EBD8     		jmp	.L319
 4241              		.cfi_endproc
 4242              	.LFE1153:
 4243              		.section	.gcc_except_table
 4244              		.align 4
 4245              	.LLSDA1153:
 4246 0340 FF       		.byte	0xff
 4247 0341 9B       		.byte	0x9b
 4248 0342 3D       		.uleb128 .LLSDATT1153-.LLSDATTD1153
 4249              	.LLSDATTD1153:
 4250 0343 01       		.byte	0x1
 4251 0344 33       		.uleb128 .LLSDACSE1153-.LLSDACSB1153
 4252              	.LLSDACSB1153:
 4253 0345 A101     		.uleb128 .LEHB122-.LFB1153
 4254 0347 05       		.uleb128 .LEHE122-.LEHB122
 4255 0348 C106     		.uleb128 .L331-.LFB1153
 4256 034a 00       		.uleb128 0
 4257 034b AA02     		.uleb128 .LEHB123-.LFB1153
 4258 034d 05       		.uleb128 .LEHE123-.LEHB123
 4259 034e 8D06     		.uleb128 .L332-.LFB1153
 4260 0350 00       		.uleb128 0
 4261 0351 F902     		.uleb128 .LEHB124-.LFB1153
 4262 0353 2D       		.uleb128 .LEHE124-.LEHB124
 4263 0354 F005     		.uleb128 .L328-.LFB1153
 4264 0356 00       		.uleb128 0
 4265 0357 A603     		.uleb128 .LEHB125-.LFB1153
 4266 0359 48       		.uleb128 .LEHE125-.LEHB125
 4267 035a 9E05     		.uleb128 .L329-.LFB1153
 4268 035c 01       		.uleb128 0x1
 4269 035d EF04     		.uleb128 .LEHB126-.LFB1153
 4270 035f 05       		.uleb128 .LEHE126-.LEHB126
 4271 0360 00       		.uleb128 0
 4272 0361 00       		.uleb128 0
 4273 0362 A605     		.uleb128 .LEHB127-.LFB1153
 4274 0364 40       		.uleb128 .LEHE127-.LEHB127
 4275 0365 8306     		.uleb128 .L330-.LFB1153
 4276 0367 00       		.uleb128 0
 4277 0368 E605     		.uleb128 .LEHB128-.LFB1153
 4278 036a 05       		.uleb128 .LEHE128-.LEHB128
 4279 036b F005     		.uleb128 .L328-.LFB1153
 4280 036d 00       		.uleb128 0
 4281 036e FE05     		.uleb128 .LEHB129-.LFB1153
 4282 0370 05       		.uleb128 .LEHE129-.LEHB129
 4283 0371 00       		.uleb128 0
 4284 0372 00       		.uleb128 0
 4285 0373 BC06     		.uleb128 .LEHB130-.LFB1153
 4286 0375 05       		.uleb128 .LEHE130-.LEHB130
 4287 0376 00       		.uleb128 0
 4288 0377 00       		.uleb128 0
 4289              	.LLSDACSE1153:
 4290 0378 01       		.byte	0x1
 4291 0379 00       		.byte	0
 4292 037a 0000     		.align 4
 4293 037c 00000000 		.long	0
 4294              	
 4295              	.LLSDATT1153:
 4296              		.text
 4298              		.section	.text._ZNSt7__cxx1115basic_stringbufIcSt11char_traitsIcESaIcEED0Ev,"axG",@progbits,_ZNSt7
 4299              		.align 2
 4300              		.p2align 4,,15
 4301              		.weak	_ZNSt7__cxx1115basic_stringbufIcSt11char_traitsIcESaIcEED0Ev
 4303              	_ZNSt7__cxx1115basic_stringbufIcSt11char_traitsIcESaIcEED0Ev:
 4304              	.LFB1197:
 4305              		.cfi_startproc
 4306 0000 488D0500 		leaq	16+_ZTVNSt7__cxx1115basic_stringbufIcSt11char_traitsIcESaIcEEE(%rip), %rax
 4306      000000
 4307 0007 53       		pushq	%rbx
 4308              		.cfi_def_cfa_offset 16
 4309              		.cfi_offset 3, -16
 4310 0008 4889FB   		movq	%rdi, %rbx
 4311 000b 488907   		movq	%rax, (%rdi)
 4312 000e 488B7F48 		movq	72(%rdi), %rdi
 4313 0012 488D4358 		leaq	88(%rbx), %rax
 4314 0016 4839C7   		cmpq	%rax, %rdi
 4315 0019 7405     		je	.L339
 4316 001b E8000000 		call	_ZdlPv@PLT
 4316      00
 4317              	.L339:
 4318 0020 488D0500 		leaq	16+_ZTVSt15basic_streambufIcSt11char_traitsIcEE(%rip), %rax
 4318      000000
 4319 0027 488D7B38 		leaq	56(%rbx), %rdi
 4320 002b 488903   		movq	%rax, (%rbx)
 4321 002e E8000000 		call	_ZNSt6localeD1Ev@PLT
 4321      00
 4322 0033 4889DF   		movq	%rbx, %rdi
 4323 0036 5B       		popq	%rbx
 4324              		.cfi_def_cfa_offset 8
 4325 0037 E9000000 		jmp	_ZdlPv@PLT
 4325      00
 4326              		.cfi_endproc
 4327              	.LFE1197:
 4329              		.section	.rodata.str1.1
 4330              	.LC27:
 4331 0051 54657374 		.string	"TestMemoryOutStream.cpp"
 4331      4D656D6F 
 4331      72794F75 
 4331      74537472 
 4331      65616D2E 
 4332              	.LC28:
 4333 0069 44656661 		.string	"DefaultSuite"
 4333      756C7453 
 4333      75697465 
 4333      00
 4334              	.LC29:
 4335 0076 44656661 		.string	"DefaultIsEmptyString"
 4335      756C7449 
 4335      73456D70 
 4335      74795374 
 4335      72696E67 
 4336              	.LC30:
 4337 008b 53747265 		.string	"StreamingTextCopiesCharacters"
 4337      616D696E 
 4337      67546578 
 4337      74436F70 
 4337      69657343 
 4338              		.section	.rodata.str1.8
 4339 0293 00000000 		.align 8
 4339      00
 4340              	.LC31:
 4341 0298 53747265 		.string	"StreamingMultipleTimesConcatenatesResult"
 4341      616D696E 
 4341      674D756C 
 4341      7469706C 
 4341      6554696D 
 4342 02c1 00000000 		.align 8
 4342      000000
 4343              	.LC32:
 4344 02c8 53747265 		.string	"StreamingIntWritesCorrectCharacters"
 4344      616D696E 
 4344      67496E74 
 4344      57726974 
 4344      6573436F 
 4345 02ec 00000000 		.align 8
 4346              	.LC33:
 4347 02f0 53747265 		.string	"StreamingUnsignedIntWritesCorrectCharacters"
 4347      616D696E 
 4347      67556E73 
 4347      69676E65 
 4347      64496E74 
 4348 031c 00000000 		.align 8
 4349              	.LC34:
 4350 0320 53747265 		.string	"StreamingLongWritesCorrectCharacters"
 4350      616D696E 
 4350      674C6F6E 
 4350      67577269 
 4350      74657343 
 4351 0345 000000   		.align 8
 4352              	.LC35:
 4353 0348 53747265 		.string	"StreamingUnsignedLongWritesCorrectCharacters"
 4353      616D696E 
 4353      67556E73 
 4353      69676E65 
 4353      644C6F6E 
 4354 0375 000000   		.align 8
 4355              	.LC36:
 4356 0378 53747265 		.string	"StreamingFloatWritesCorrectCharacters"
 4356      616D696E 
 4356      67466C6F 
 4356      61745772 
 4356      69746573 
 4357 039e 0000     		.align 8
 4358              	.LC37:
 4359 03a0 53747265 		.string	"StreamingDoubleWritesCorrectCharacters"
 4359      616D696E 
 4359      67446F75 
 4359      626C6557 
 4359      72697465 
 4360 03c7 00       		.align 8
 4361              	.LC38:
 4362 03c8 53747265 		.string	"StreamingPointerWritesCorrectCharacters"
 4362      616D696E 
 4362      67506F69 
 4362      6E746572 
 4362      57726974 
 4363              		.align 8
 4364              	.LC39:
 4365 03f0 53747265 		.string	"StreamingSizeTWritesCorrectCharacters"
 4365      616D696E 
 4365      6753697A 
 4365      65545772 
 4365      69746573 
 4366              		.section	.text.startup,"ax",@progbits
 4367              		.p2align 4,,15
 4369              	_GLOBAL__sub_I_TestMemoryOutStream.cpp:
 4370              	.LFB1322:
 4371              		.cfi_startproc
 4372 0000 53       		pushq	%rbx
 4373              		.cfi_def_cfa_offset 16
 4374              		.cfi_offset 3, -16
 4375 0001 488D0D00 		leaq	.LC27(%rip), %rcx
 4375      000000
 4376 0008 488D1500 		leaq	.LC28(%rip), %rdx
 4376      000000
 4377 000f 488D3500 		leaq	.LC29(%rip), %rsi
 4377      000000
 4378 0016 488D3D00 		leaq	_ZN12_GLOBAL__N_132testDefaultIsEmptyStringInstanceE(%rip), %rdi
 4378      000000
 4379 001d 41B80B00 		movl	$11, %r8d
 4379      0000
 4380 0023 488D1D00 		leaq	_ZN12_GLOBAL__N_132testDefaultIsEmptyStringInstanceE(%rip), %rbx
 4380      000000
 4381 002a E8000000 		call	_ZN8UnitTest4TestC2EPKcS2_S2_i@PLT
 4381      00
 4382 002f 488D1500 		leaq	__dso_handle(%rip), %rdx
 4382      000000
 4383 0036 488D3D00 		leaq	_ZN12_GLOBAL__N_124TestDefaultIsEmptyStringD1Ev(%rip), %rdi
 4383      000000
 4384 003d 488D0500 		leaq	16+_ZTVN12_GLOBAL__N_124TestDefaultIsEmptyStringE(%rip), %rax
 4384      000000
 4385 0044 4889DE   		movq	%rbx, %rsi
 4386 0047 48890500 		movq	%rax, _ZN12_GLOBAL__N_132testDefaultIsEmptyStringInstanceE(%rip)
 4386      000000
 4387 004e E8000000 		call	__cxa_atexit@PLT
 4387      00
 4388 0053 E8000000 		call	_ZN8UnitTest4Test11GetTestListEv@PLT
 4388      00
 4389 0058 488D3D00 		leaq	_ZN12_GLOBAL__N_125adderDefaultIsEmptyStringE(%rip), %rdi
 4389      000000
 4390 005f 4889C6   		movq	%rax, %rsi
 4391 0062 4889DA   		movq	%rbx, %rdx
 4392 0065 488D1D00 		leaq	_ZN12_GLOBAL__N_141testStreamingTextCopiesCharactersInstanceE(%rip), %rbx
 4392      000000
 4393 006c E8000000 		call	_ZN8UnitTest9ListAdderC1ERNS_8TestListEPNS_4TestE@PLT
 4393      00
 4394 0071 488D0D00 		leaq	.LC27(%rip), %rcx
 4394      000000
 4395 0078 488D1500 		leaq	.LC28(%rip), %rdx
 4395      000000
 4396 007f 488D3500 		leaq	.LC30(%rip), %rsi
 4396      000000
 4397 0086 488D3D00 		leaq	_ZN12_GLOBAL__N_141testStreamingTextCopiesCharactersInstanceE(%rip), %rdi
 4397      000000
 4398 008d 41B81200 		movl	$18, %r8d
 4398      0000
 4399 0093 E8000000 		call	_ZN8UnitTest4TestC2EPKcS2_S2_i@PLT
 4399      00
 4400 0098 488D1500 		leaq	__dso_handle(%rip), %rdx
 4400      000000
 4401 009f 488D3D00 		leaq	_ZN12_GLOBAL__N_133TestStreamingTextCopiesCharactersD1Ev(%rip), %rdi
 4401      000000
 4402 00a6 488D0500 		leaq	16+_ZTVN12_GLOBAL__N_133TestStreamingTextCopiesCharactersE(%rip), %rax
 4402      000000
 4403 00ad 4889DE   		movq	%rbx, %rsi
 4404 00b0 48890500 		movq	%rax, _ZN12_GLOBAL__N_141testStreamingTextCopiesCharactersInstanceE(%rip)
 4404      000000
 4405 00b7 E8000000 		call	__cxa_atexit@PLT
 4405      00
 4406 00bc E8000000 		call	_ZN8UnitTest4Test11GetTestListEv@PLT
 4406      00
 4407 00c1 488D3D00 		leaq	_ZN12_GLOBAL__N_134adderStreamingTextCopiesCharactersE(%rip), %rdi
 4407      000000
 4408 00c8 4889C6   		movq	%rax, %rsi
 4409 00cb 4889DA   		movq	%rbx, %rdx
 4410 00ce 488D1D00 		leaq	_ZN12_GLOBAL__N_152testStreamingMultipleTimesConcatenatesResultInstanceE(%rip), %rbx
 4410      000000
 4411 00d5 E8000000 		call	_ZN8UnitTest9ListAdderC1ERNS_8TestListEPNS_4TestE@PLT
 4411      00
 4412 00da 488D0D00 		leaq	.LC27(%rip), %rcx
 4412      000000
 4413 00e1 488D1500 		leaq	.LC28(%rip), %rdx
 4413      000000
 4414 00e8 488D3500 		leaq	.LC31(%rip), %rsi
 4414      000000
 4415 00ef 488D3D00 		leaq	_ZN12_GLOBAL__N_152testStreamingMultipleTimesConcatenatesResultInstanceE(%rip), %rdi
 4415      000000
 4416 00f6 41B81900 		movl	$25, %r8d
 4416      0000
 4417 00fc E8000000 		call	_ZN8UnitTest4TestC2EPKcS2_S2_i@PLT
 4417      00
 4418 0101 488D1500 		leaq	__dso_handle(%rip), %rdx
 4418      000000
 4419 0108 488D3D00 		leaq	_ZN12_GLOBAL__N_144TestStreamingMultipleTimesConcatenatesResultD1Ev(%rip), %rdi
 4419      000000
 4420 010f 488D0500 		leaq	16+_ZTVN12_GLOBAL__N_144TestStreamingMultipleTimesConcatenatesResultE(%rip), %rax
 4420      000000
 4421 0116 4889DE   		movq	%rbx, %rsi
 4422 0119 48890500 		movq	%rax, _ZN12_GLOBAL__N_152testStreamingMultipleTimesConcatenatesResultInstanceE(%rip)
 4422      000000
 4423 0120 E8000000 		call	__cxa_atexit@PLT
 4423      00
 4424 0125 E8000000 		call	_ZN8UnitTest4Test11GetTestListEv@PLT
 4424      00
 4425 012a 488D3D00 		leaq	_ZN12_GLOBAL__N_145adderStreamingMultipleTimesConcatenatesResultE(%rip), %rdi
 4425      000000
 4426 0131 4889C6   		movq	%rax, %rsi
 4427 0134 4889DA   		movq	%rbx, %rdx
 4428 0137 488D1D00 		leaq	_ZN12_GLOBAL__N_147testStreamingIntWritesCorrectCharactersInstanceE(%rip), %rbx
 4428      000000
 4429 013e E8000000 		call	_ZN8UnitTest9ListAdderC1ERNS_8TestListEPNS_4TestE@PLT
 4429      00
 4430 0143 488D0D00 		leaq	.LC27(%rip), %rcx
 4430      000000
 4431 014a 488D1500 		leaq	.LC28(%rip), %rdx
 4431      000000
 4432 0151 488D3500 		leaq	.LC32(%rip), %rsi
 4432      000000
 4433 0158 488D3D00 		leaq	_ZN12_GLOBAL__N_147testStreamingIntWritesCorrectCharactersInstanceE(%rip), %rdi
 4433      000000
 4434 015f 41B82000 		movl	$32, %r8d
 4434      0000
 4435 0165 E8000000 		call	_ZN8UnitTest4TestC2EPKcS2_S2_i@PLT
 4435      00
 4436 016a 488D1500 		leaq	__dso_handle(%rip), %rdx
 4436      000000
 4437 0171 488D3D00 		leaq	_ZN12_GLOBAL__N_139TestStreamingIntWritesCorrectCharactersD1Ev(%rip), %rdi
 4437      000000
 4438 0178 488D0500 		leaq	16+_ZTVN12_GLOBAL__N_139TestStreamingIntWritesCorrectCharactersE(%rip), %rax
 4438      000000
 4439 017f 4889DE   		movq	%rbx, %rsi
 4440 0182 48890500 		movq	%rax, _ZN12_GLOBAL__N_147testStreamingIntWritesCorrectCharactersInstanceE(%rip)
 4440      000000
 4441 0189 E8000000 		call	__cxa_atexit@PLT
 4441      00
 4442 018e E8000000 		call	_ZN8UnitTest4Test11GetTestListEv@PLT
 4442      00
 4443 0193 488D3D00 		leaq	_ZN12_GLOBAL__N_140adderStreamingIntWritesCorrectCharactersE(%rip), %rdi
 4443      000000
 4444 019a 4889C6   		movq	%rax, %rsi
 4445 019d 4889DA   		movq	%rbx, %rdx
 4446 01a0 488D1D00 		leaq	_ZN12_GLOBAL__N_155testStreamingUnsignedIntWritesCorrectCharactersInstanceE(%rip), %rbx
 4446      000000
 4447 01a7 E8000000 		call	_ZN8UnitTest9ListAdderC1ERNS_8TestListEPNS_4TestE@PLT
 4447      00
 4448 01ac 488D0D00 		leaq	.LC27(%rip), %rcx
 4448      000000
 4449 01b3 488D1500 		leaq	.LC28(%rip), %rdx
 4449      000000
 4450 01ba 488D3500 		leaq	.LC33(%rip), %rsi
 4450      000000
 4451 01c1 488D3D00 		leaq	_ZN12_GLOBAL__N_155testStreamingUnsignedIntWritesCorrectCharactersInstanceE(%rip), %rdi
 4451      000000
 4452 01c8 41B82700 		movl	$39, %r8d
 4452      0000
 4453 01ce E8000000 		call	_ZN8UnitTest4TestC2EPKcS2_S2_i@PLT
 4453      00
 4454 01d3 488D1500 		leaq	__dso_handle(%rip), %rdx
 4454      000000
 4455 01da 488D3D00 		leaq	_ZN12_GLOBAL__N_147TestStreamingUnsignedIntWritesCorrectCharactersD1Ev(%rip), %rdi
 4455      000000
 4456 01e1 488D0500 		leaq	16+_ZTVN12_GLOBAL__N_147TestStreamingUnsignedIntWritesCorrectCharactersE(%rip), %rax
 4456      000000
 4457 01e8 4889DE   		movq	%rbx, %rsi
 4458 01eb 48890500 		movq	%rax, _ZN12_GLOBAL__N_155testStreamingUnsignedIntWritesCorrectCharactersInstanceE(%rip)
 4458      000000
 4459 01f2 E8000000 		call	__cxa_atexit@PLT
 4459      00
 4460 01f7 E8000000 		call	_ZN8UnitTest4Test11GetTestListEv@PLT
 4460      00
 4461 01fc 488D3D00 		leaq	_ZN12_GLOBAL__N_148adderStreamingUnsignedIntWritesCorrectCharactersE(%rip), %rdi
 4461      000000
 4462 0203 4889C6   		movq	%rax, %rsi
 4463 0206 4889DA   		movq	%rbx, %rdx
 4464 0209 488D1D00 		leaq	_ZN12_GLOBAL__N_148testStreamingLongWritesCorrectCharactersInstanceE(%rip), %rbx
 4464      000000
 4465 0210 E8000000 		call	_ZN8UnitTest9ListAdderC1ERNS_8TestListEPNS_4TestE@PLT
 4465      00
 4466 0215 488D0D00 		leaq	.LC27(%rip), %rcx
 4466      000000
 4467 021c 488D1500 		leaq	.LC28(%rip), %rdx
 4467      000000
 4468 0223 488D3500 		leaq	.LC34(%rip), %rsi
 4468      000000
 4469 022a 488D3D00 		leaq	_ZN12_GLOBAL__N_148testStreamingLongWritesCorrectCharactersInstanceE(%rip), %rdi
 4469      000000
 4470 0231 41B82E00 		movl	$46, %r8d
 4470      0000
 4471 0237 E8000000 		call	_ZN8UnitTest4TestC2EPKcS2_S2_i@PLT
 4471      00
 4472 023c 488D1500 		leaq	__dso_handle(%rip), %rdx
 4472      000000
 4473 0243 488D3D00 		leaq	_ZN12_GLOBAL__N_140TestStreamingLongWritesCorrectCharactersD1Ev(%rip), %rdi
 4473      000000
 4474 024a 488D0500 		leaq	16+_ZTVN12_GLOBAL__N_140TestStreamingLongWritesCorrectCharactersE(%rip), %rax
 4474      000000
 4475 0251 4889DE   		movq	%rbx, %rsi
 4476 0254 48890500 		movq	%rax, _ZN12_GLOBAL__N_148testStreamingLongWritesCorrectCharactersInstanceE(%rip)
 4476      000000
 4477 025b E8000000 		call	__cxa_atexit@PLT
 4477      00
 4478 0260 E8000000 		call	_ZN8UnitTest4Test11GetTestListEv@PLT
 4478      00
 4479 0265 488D3D00 		leaq	_ZN12_GLOBAL__N_141adderStreamingLongWritesCorrectCharactersE(%rip), %rdi
 4479      000000
 4480 026c 4889C6   		movq	%rax, %rsi
 4481 026f 4889DA   		movq	%rbx, %rdx
 4482 0272 488D1D00 		leaq	_ZN12_GLOBAL__N_156testStreamingUnsignedLongWritesCorrectCharactersInstanceE(%rip), %rbx
 4482      000000
 4483 0279 E8000000 		call	_ZN8UnitTest9ListAdderC1ERNS_8TestListEPNS_4TestE@PLT
 4483      00
 4484 027e 488D0D00 		leaq	.LC27(%rip), %rcx
 4484      000000
 4485 0285 488D1500 		leaq	.LC28(%rip), %rdx
 4485      000000
 4486 028c 488D3500 		leaq	.LC35(%rip), %rsi
 4486      000000
 4487 0293 488D3D00 		leaq	_ZN12_GLOBAL__N_156testStreamingUnsignedLongWritesCorrectCharactersInstanceE(%rip), %rdi
 4487      000000
 4488 029a 41B83500 		movl	$53, %r8d
 4488      0000
 4489 02a0 E8000000 		call	_ZN8UnitTest4TestC2EPKcS2_S2_i@PLT
 4489      00
 4490 02a5 488D1500 		leaq	__dso_handle(%rip), %rdx
 4490      000000
 4491 02ac 488D3D00 		leaq	_ZN12_GLOBAL__N_148TestStreamingUnsignedLongWritesCorrectCharactersD1Ev(%rip), %rdi
 4491      000000
 4492 02b3 488D0500 		leaq	16+_ZTVN12_GLOBAL__N_148TestStreamingUnsignedLongWritesCorrectCharactersE(%rip), %rax
 4492      000000
 4493 02ba 4889DE   		movq	%rbx, %rsi
 4494 02bd 48890500 		movq	%rax, _ZN12_GLOBAL__N_156testStreamingUnsignedLongWritesCorrectCharactersInstanceE(%rip)
 4494      000000
 4495 02c4 E8000000 		call	__cxa_atexit@PLT
 4495      00
 4496 02c9 E8000000 		call	_ZN8UnitTest4Test11GetTestListEv@PLT
 4496      00
 4497 02ce 488D3D00 		leaq	_ZN12_GLOBAL__N_149adderStreamingUnsignedLongWritesCorrectCharactersE(%rip), %rdi
 4497      000000
 4498 02d5 4889C6   		movq	%rax, %rsi
 4499 02d8 4889DA   		movq	%rbx, %rdx
 4500 02db 488D1D00 		leaq	_ZN12_GLOBAL__N_149testStreamingFloatWritesCorrectCharactersInstanceE(%rip), %rbx
 4500      000000
 4501 02e2 E8000000 		call	_ZN8UnitTest9ListAdderC1ERNS_8TestListEPNS_4TestE@PLT
 4501      00
 4502 02e7 488D0D00 		leaq	.LC27(%rip), %rcx
 4502      000000
 4503 02ee 488D1500 		leaq	.LC28(%rip), %rdx
 4503      000000
 4504 02f5 488D3500 		leaq	.LC36(%rip), %rsi
 4504      000000
 4505 02fc 488D3D00 		leaq	_ZN12_GLOBAL__N_149testStreamingFloatWritesCorrectCharactersInstanceE(%rip), %rdi
 4505      000000
 4506 0303 41B83C00 		movl	$60, %r8d
 4506      0000
 4507 0309 E8000000 		call	_ZN8UnitTest4TestC2EPKcS2_S2_i@PLT
 4507      00
 4508 030e 488D1500 		leaq	__dso_handle(%rip), %rdx
 4508      000000
 4509 0315 488D3D00 		leaq	_ZN12_GLOBAL__N_141TestStreamingFloatWritesCorrectCharactersD1Ev(%rip), %rdi
 4509      000000
 4510 031c 488D0500 		leaq	16+_ZTVN12_GLOBAL__N_141TestStreamingFloatWritesCorrectCharactersE(%rip), %rax
 4510      000000
 4511 0323 4889DE   		movq	%rbx, %rsi
 4512 0326 48890500 		movq	%rax, _ZN12_GLOBAL__N_149testStreamingFloatWritesCorrectCharactersInstanceE(%rip)
 4512      000000
 4513 032d E8000000 		call	__cxa_atexit@PLT
 4513      00
 4514 0332 E8000000 		call	_ZN8UnitTest4Test11GetTestListEv@PLT
 4514      00
 4515 0337 488D3D00 		leaq	_ZN12_GLOBAL__N_142adderStreamingFloatWritesCorrectCharactersE(%rip), %rdi
 4515      000000
 4516 033e 4889C6   		movq	%rax, %rsi
 4517 0341 4889DA   		movq	%rbx, %rdx
 4518 0344 488D1D00 		leaq	_ZN12_GLOBAL__N_150testStreamingDoubleWritesCorrectCharactersInstanceE(%rip), %rbx
 4518      000000
 4519 034b E8000000 		call	_ZN8UnitTest9ListAdderC1ERNS_8TestListEPNS_4TestE@PLT
 4519      00
 4520 0350 488D0D00 		leaq	.LC27(%rip), %rcx
 4520      000000
 4521 0357 488D1500 		leaq	.LC28(%rip), %rdx
 4521      000000
 4522 035e 488D3500 		leaq	.LC37(%rip), %rsi
 4522      000000
 4523 0365 488D3D00 		leaq	_ZN12_GLOBAL__N_150testStreamingDoubleWritesCorrectCharactersInstanceE(%rip), %rdi
 4523      000000
 4524 036c 41B84300 		movl	$67, %r8d
 4524      0000
 4525 0372 E8000000 		call	_ZN8UnitTest4TestC2EPKcS2_S2_i@PLT
 4525      00
 4526 0377 488D1500 		leaq	__dso_handle(%rip), %rdx
 4526      000000
 4527 037e 488D3D00 		leaq	_ZN12_GLOBAL__N_142TestStreamingDoubleWritesCorrectCharactersD1Ev(%rip), %rdi
 4527      000000
 4528 0385 488D0500 		leaq	16+_ZTVN12_GLOBAL__N_142TestStreamingDoubleWritesCorrectCharactersE(%rip), %rax
 4528      000000
 4529 038c 4889DE   		movq	%rbx, %rsi
 4530 038f 48890500 		movq	%rax, _ZN12_GLOBAL__N_150testStreamingDoubleWritesCorrectCharactersInstanceE(%rip)
 4530      000000
 4531 0396 E8000000 		call	__cxa_atexit@PLT
 4531      00
 4532 039b E8000000 		call	_ZN8UnitTest4Test11GetTestListEv@PLT
 4532      00
 4533 03a0 488D3D00 		leaq	_ZN12_GLOBAL__N_143adderStreamingDoubleWritesCorrectCharactersE(%rip), %rdi
 4533      000000
 4534 03a7 4889C6   		movq	%rax, %rsi
 4535 03aa 4889DA   		movq	%rbx, %rdx
 4536 03ad 488D1D00 		leaq	_ZN12_GLOBAL__N_151testStreamingPointerWritesCorrectCharactersInstanceE(%rip), %rbx
 4536      000000
 4537 03b4 E8000000 		call	_ZN8UnitTest9ListAdderC1ERNS_8TestListEPNS_4TestE@PLT
 4537      00
 4538 03b9 488D0D00 		leaq	.LC27(%rip), %rcx
 4538      000000
 4539 03c0 488D1500 		leaq	.LC28(%rip), %rdx
 4539      000000
 4540 03c7 488D3500 		leaq	.LC38(%rip), %rsi
 4540      000000
 4541 03ce 488D3D00 		leaq	_ZN12_GLOBAL__N_151testStreamingPointerWritesCorrectCharactersInstanceE(%rip), %rdi
 4541      000000
 4542 03d5 41B84A00 		movl	$74, %r8d
 4542      0000
 4543 03db E8000000 		call	_ZN8UnitTest4TestC2EPKcS2_S2_i@PLT
 4543      00
 4544 03e0 488D1500 		leaq	__dso_handle(%rip), %rdx
 4544      000000
 4545 03e7 488D3D00 		leaq	_ZN12_GLOBAL__N_143TestStreamingPointerWritesCorrectCharactersD1Ev(%rip), %rdi
 4545      000000
 4546 03ee 488D0500 		leaq	16+_ZTVN12_GLOBAL__N_143TestStreamingPointerWritesCorrectCharactersE(%rip), %rax
 4546      000000
 4547 03f5 4889DE   		movq	%rbx, %rsi
 4548 03f8 48890500 		movq	%rax, _ZN12_GLOBAL__N_151testStreamingPointerWritesCorrectCharactersInstanceE(%rip)
 4548      000000
 4549 03ff E8000000 		call	__cxa_atexit@PLT
 4549      00
 4550 0404 E8000000 		call	_ZN8UnitTest4Test11GetTestListEv@PLT
 4550      00
 4551 0409 488D3D00 		leaq	_ZN12_GLOBAL__N_144adderStreamingPointerWritesCorrectCharactersE(%rip), %rdi
 4551      000000
 4552 0410 4889C6   		movq	%rax, %rsi
 4553 0413 4889DA   		movq	%rbx, %rdx
 4554 0416 488D1D00 		leaq	_ZN12_GLOBAL__N_149testStreamingSizeTWritesCorrectCharactersInstanceE(%rip), %rbx
 4554      000000
 4555 041d E8000000 		call	_ZN8UnitTest9ListAdderC1ERNS_8TestListEPNS_4TestE@PLT
 4555      00
 4556 0422 488D0D00 		leaq	.LC27(%rip), %rcx
 4556      000000
 4557 0429 488D1500 		leaq	.LC28(%rip), %rdx
 4557      000000
 4558 0430 488D3500 		leaq	.LC39(%rip), %rsi
 4558      000000
 4559 0437 488D3D00 		leaq	_ZN12_GLOBAL__N_149testStreamingSizeTWritesCorrectCharactersInstanceE(%rip), %rdi
 4559      000000
 4560 043e 41B85200 		movl	$82, %r8d
 4560      0000
 4561 0444 E8000000 		call	_ZN8UnitTest4TestC2EPKcS2_S2_i@PLT
 4561      00
 4562 0449 488D1500 		leaq	__dso_handle(%rip), %rdx
 4562      000000
 4563 0450 488D3D00 		leaq	_ZN12_GLOBAL__N_141TestStreamingSizeTWritesCorrectCharactersD1Ev(%rip), %rdi
 4563      000000
 4564 0457 488D0500 		leaq	16+_ZTVN12_GLOBAL__N_141TestStreamingSizeTWritesCorrectCharactersE(%rip), %rax
 4564      000000
 4565 045e 4889DE   		movq	%rbx, %rsi
 4566 0461 48890500 		movq	%rax, _ZN12_GLOBAL__N_149testStreamingSizeTWritesCorrectCharactersInstanceE(%rip)
 4566      000000
 4567 0468 E8000000 		call	__cxa_atexit@PLT
 4567      00
 4568 046d E8000000 		call	_ZN8UnitTest4Test11GetTestListEv@PLT
 4568      00
 4569 0472 4889DA   		movq	%rbx, %rdx
 4570 0475 488D3D00 		leaq	_ZN12_GLOBAL__N_142adderStreamingSizeTWritesCorrectCharactersE(%rip), %rdi
 4570      000000
 4571 047c 4889C6   		movq	%rax, %rsi
 4572 047f 5B       		popq	%rbx
 4573              		.cfi_def_cfa_offset 8
 4574 0480 E9000000 		jmp	_ZN8UnitTest9ListAdderC1ERNS_8TestListEPNS_4TestE@PLT
 4574      00
 4575              		.cfi_endproc
 4576              	.LFE1322:
 4578              		.section	.init_array,"aw"
 4579              		.align 8
 4580 0000 00000000 		.quad	_GLOBAL__sub_I_TestMemoryOutStream.cpp
 4580      00000000 
 4581              		.weak	_ZTSN8UnitTest15MemoryOutStreamE
 4582              		.section	.rodata._ZTSN8UnitTest15MemoryOutStreamE,"aG",@progbits,_ZTSN8UnitTest15MemoryOutStreamE,
 4583              		.align 16
 4586              	_ZTSN8UnitTest15MemoryOutStreamE:
 4587 0000 4E38556E 		.string	"N8UnitTest15MemoryOutStreamE"
 4587      69745465 
 4587      73743135 
 4587      4D656D6F 
 4587      72794F75 
 4588              		.weak	_ZTIN8UnitTest15MemoryOutStreamE
 4589              		.section	.data.rel.ro._ZTIN8UnitTest15MemoryOutStreamE,"awG",@progbits,_ZTIN8UnitTest15MemoryOutSt
 4590              		.align 8
 4593              	_ZTIN8UnitTest15MemoryOutStreamE:
 4594 0000 00000000 		.quad	_ZTVN10__cxxabiv120__si_class_type_infoE+16
 4594      00000000 
 4595 0008 00000000 		.quad	_ZTSN8UnitTest15MemoryOutStreamE
 4595      00000000 
 4596 0010 00000000 		.quad	_ZTINSt7__cxx1119basic_ostringstreamIcSt11char_traitsIcESaIcEEE
 4596      00000000 
 4597              		.section	.data.rel.ro,"aw",@progbits
 4598              		.align 8
 4601              	_ZTIN12_GLOBAL__N_124TestDefaultIsEmptyStringE:
 4602 0000 00000000 		.quad	_ZTVN10__cxxabiv120__si_class_type_infoE+16
 4602      00000000 
 4603 0008 00000000 		.quad	_ZTSN12_GLOBAL__N_124TestDefaultIsEmptyStringE
 4603      00000000 
 4604 0010 00000000 		.quad	_ZTIN8UnitTest4TestE
 4604      00000000 
 4605              		.section	.rodata
 4606              		.align 32
 4609              	_ZTSN12_GLOBAL__N_124TestDefaultIsEmptyStringE:
 4610 0000 2A4E3132 		.string	"*N12_GLOBAL__N_124TestDefaultIsEmptyStringE"
 4610      5F474C4F 
 4610      42414C5F 
 4610      5F4E5F31 
 4610      32345465 
 4611              		.section	.data.rel.ro
 4612              		.align 8
 4615              	_ZTIN12_GLOBAL__N_133TestStreamingTextCopiesCharactersE:
 4616 0018 00000000 		.quad	_ZTVN10__cxxabiv120__si_class_type_infoE+16
 4616      00000000 
 4617 0020 00000000 		.quad	_ZTSN12_GLOBAL__N_133TestStreamingTextCopiesCharactersE
 4617      00000000 
 4618 0028 00000000 		.quad	_ZTIN8UnitTest4TestE
 4618      00000000 
 4619              		.section	.rodata
 4620 002c 00000000 		.align 32
 4620      00000000 
 4620      00000000 
 4620      00000000 
 4620      00000000 
 4623              	_ZTSN12_GLOBAL__N_133TestStreamingTextCopiesCharactersE:
 4624 0040 2A4E3132 		.string	"*N12_GLOBAL__N_133TestStreamingTextCopiesCharactersE"
 4624      5F474C4F 
 4624      42414C5F 
 4624      5F4E5F31 
 4624      33335465 
 4625              		.section	.data.rel.ro
 4626              		.align 8
 4629              	_ZTIN12_GLOBAL__N_144TestStreamingMultipleTimesConcatenatesResultE:
 4630 0030 00000000 		.quad	_ZTVN10__cxxabiv120__si_class_type_infoE+16
 4630      00000000 
 4631 0038 00000000 		.quad	_ZTSN12_GLOBAL__N_144TestStreamingMultipleTimesConcatenatesResultE
 4631      00000000 
 4632 0040 00000000 		.quad	_ZTIN8UnitTest4TestE
 4632      00000000 
 4633              		.section	.rodata
 4634 0075 00000000 		.align 32
 4634      00000000 
 4634      000000
 4637              	_ZTSN12_GLOBAL__N_144TestStreamingMultipleTimesConcatenatesResultE:
 4638 0080 2A4E3132 		.string	"*N12_GLOBAL__N_144TestStreamingMultipleTimesConcatenatesResultE"
 4638      5F474C4F 
 4638      42414C5F 
 4638      5F4E5F31 
 4638      34345465 
 4639              		.section	.data.rel.ro
 4640              		.align 8
 4643              	_ZTIN12_GLOBAL__N_139TestStreamingIntWritesCorrectCharactersE:
 4644 0048 00000000 		.quad	_ZTVN10__cxxabiv120__si_class_type_infoE+16
 4644      00000000 
 4645 0050 00000000 		.quad	_ZTSN12_GLOBAL__N_139TestStreamingIntWritesCorrectCharactersE
 4645      00000000 
 4646 0058 00000000 		.quad	_ZTIN8UnitTest4TestE
 4646      00000000 
 4647              		.section	.rodata
 4648              		.align 32
 4651              	_ZTSN12_GLOBAL__N_139TestStreamingIntWritesCorrectCharactersE:
 4652 00c0 2A4E3132 		.string	"*N12_GLOBAL__N_139TestStreamingIntWritesCorrectCharactersE"
 4652      5F474C4F 
 4652      42414C5F 
 4652      5F4E5F31 
 4652      33395465 
 4653              		.section	.data.rel.ro
 4654              		.align 8
 4657              	_ZTIN12_GLOBAL__N_147TestStreamingUnsignedIntWritesCorrectCharactersE:
 4658 0060 00000000 		.quad	_ZTVN10__cxxabiv120__si_class_type_infoE+16
 4658      00000000 
 4659 0068 00000000 		.quad	_ZTSN12_GLOBAL__N_147TestStreamingUnsignedIntWritesCorrectCharactersE
 4659      00000000 
 4660 0070 00000000 		.quad	_ZTIN8UnitTest4TestE
 4660      00000000 
 4661              		.section	.rodata
 4662 00fb 00000000 		.align 32
 4662      00
 4665              	_ZTSN12_GLOBAL__N_147TestStreamingUnsignedIntWritesCorrectCharactersE:
 4666 0100 2A4E3132 		.string	"*N12_GLOBAL__N_147TestStreamingUnsignedIntWritesCorrectCharactersE"
 4666      5F474C4F 
 4666      42414C5F 
 4666      5F4E5F31 
 4666      34375465 
 4667              		.section	.data.rel.ro
 4668              		.align 8
 4671              	_ZTIN12_GLOBAL__N_140TestStreamingLongWritesCorrectCharactersE:
 4672 0078 00000000 		.quad	_ZTVN10__cxxabiv120__si_class_type_infoE+16
 4672      00000000 
 4673 0080 00000000 		.quad	_ZTSN12_GLOBAL__N_140TestStreamingLongWritesCorrectCharactersE
 4673      00000000 
 4674 0088 00000000 		.quad	_ZTIN8UnitTest4TestE
 4674      00000000 
 4675              		.section	.rodata
 4676 0143 00000000 		.align 32
 4676      00000000 
 4676      00000000 
 4676      00000000 
 4676      00000000 
 4679              	_ZTSN12_GLOBAL__N_140TestStreamingLongWritesCorrectCharactersE:
 4680 0160 2A4E3132 		.string	"*N12_GLOBAL__N_140TestStreamingLongWritesCorrectCharactersE"
 4680      5F474C4F 
 4680      42414C5F 
 4680      5F4E5F31 
 4680      34305465 
 4681              		.section	.data.rel.ro
 4682              		.align 8
 4685              	_ZTIN12_GLOBAL__N_148TestStreamingUnsignedLongWritesCorrectCharactersE:
 4686 0090 00000000 		.quad	_ZTVN10__cxxabiv120__si_class_type_infoE+16
 4686      00000000 
 4687 0098 00000000 		.quad	_ZTSN12_GLOBAL__N_148TestStreamingUnsignedLongWritesCorrectCharactersE
 4687      00000000 
 4688 00a0 00000000 		.quad	_ZTIN8UnitTest4TestE
 4688      00000000 
 4689              		.section	.rodata
 4690 019c 00000000 		.align 32
 4693              	_ZTSN12_GLOBAL__N_148TestStreamingUnsignedLongWritesCorrectCharactersE:
 4694 01a0 2A4E3132 		.string	"*N12_GLOBAL__N_148TestStreamingUnsignedLongWritesCorrectCharactersE"
 4694      5F474C4F 
 4694      42414C5F 
 4694      5F4E5F31 
 4694      34385465 
 4695              		.section	.data.rel.ro
 4696              		.align 8
 4699              	_ZTIN12_GLOBAL__N_141TestStreamingFloatWritesCorrectCharactersE:
 4700 00a8 00000000 		.quad	_ZTVN10__cxxabiv120__si_class_type_infoE+16
 4700      00000000 
 4701 00b0 00000000 		.quad	_ZTSN12_GLOBAL__N_141TestStreamingFloatWritesCorrectCharactersE
 4701      00000000 
 4702 00b8 00000000 		.quad	_ZTIN8UnitTest4TestE
 4702      00000000 
 4703              		.section	.rodata
 4704 01e4 00000000 		.align 32
 4704      00000000 
 4704      00000000 
 4704      00000000 
 4704      00000000 
 4707              	_ZTSN12_GLOBAL__N_141TestStreamingFloatWritesCorrectCharactersE:
 4708 0200 2A4E3132 		.string	"*N12_GLOBAL__N_141TestStreamingFloatWritesCorrectCharactersE"
 4708      5F474C4F 
 4708      42414C5F 
 4708      5F4E5F31 
 4708      34315465 
 4709              		.section	.data.rel.ro
 4710              		.align 8
 4713              	_ZTIN12_GLOBAL__N_142TestStreamingDoubleWritesCorrectCharactersE:
 4714 00c0 00000000 		.quad	_ZTVN10__cxxabiv120__si_class_type_infoE+16
 4714      00000000 
 4715 00c8 00000000 		.quad	_ZTSN12_GLOBAL__N_142TestStreamingDoubleWritesCorrectCharactersE
 4715      00000000 
 4716 00d0 00000000 		.quad	_ZTIN8UnitTest4TestE
 4716      00000000 
 4717              		.section	.rodata
 4718 023d 000000   		.align 32
 4721              	_ZTSN12_GLOBAL__N_142TestStreamingDoubleWritesCorrectCharactersE:
 4722 0240 2A4E3132 		.string	"*N12_GLOBAL__N_142TestStreamingDoubleWritesCorrectCharactersE"
 4722      5F474C4F 
 4722      42414C5F 
 4722      5F4E5F31 
 4722      34325465 
 4723              		.section	.data.rel.ro
 4724              		.align 8
 4727              	_ZTIN12_GLOBAL__N_143TestStreamingPointerWritesCorrectCharactersE:
 4728 00d8 00000000 		.quad	_ZTVN10__cxxabiv120__si_class_type_infoE+16
 4728      00000000 
 4729 00e0 00000000 		.quad	_ZTSN12_GLOBAL__N_143TestStreamingPointerWritesCorrectCharactersE
 4729      00000000 
 4730 00e8 00000000 		.quad	_ZTIN8UnitTest4TestE
 4730      00000000 
 4731              		.section	.rodata
 4732 027e 0000     		.align 32
 4735              	_ZTSN12_GLOBAL__N_143TestStreamingPointerWritesCorrectCharactersE:
 4736 0280 2A4E3132 		.string	"*N12_GLOBAL__N_143TestStreamingPointerWritesCorrectCharactersE"
 4736      5F474C4F 
 4736      42414C5F 
 4736      5F4E5F31 
 4736      34335465 
 4737              		.section	.data.rel.ro
 4738              		.align 8
 4741              	_ZTIN12_GLOBAL__N_141TestStreamingSizeTWritesCorrectCharactersE:
 4742 00f0 00000000 		.quad	_ZTVN10__cxxabiv120__si_class_type_infoE+16
 4742      00000000 
 4743 00f8 00000000 		.quad	_ZTSN12_GLOBAL__N_141TestStreamingSizeTWritesCorrectCharactersE
 4743      00000000 
 4744 0100 00000000 		.quad	_ZTIN8UnitTest4TestE
 4744      00000000 
 4745              		.section	.rodata
 4746 02bf 00       		.align 32
 4749              	_ZTSN12_GLOBAL__N_141TestStreamingSizeTWritesCorrectCharactersE:
 4750 02c0 2A4E3132 		.string	"*N12_GLOBAL__N_141TestStreamingSizeTWritesCorrectCharactersE"
 4750      5F474C4F 
 4750      42414C5F 
 4750      5F4E5F31 
 4750      34315465 
 4751              		.hidden	_ZTCN8UnitTest15MemoryOutStreamE0_So
 4752              		.weak	_ZTCN8UnitTest15MemoryOutStreamE0_So
 4753              		.section	.data.rel.ro._ZTCN8UnitTest15MemoryOutStreamE0_So,"awG",@progbits,_ZTVN8UnitTest15MemoryO
 4754              		.align 8
 4757              	_ZTCN8UnitTest15MemoryOutStreamE0_So:
 4758 0000 90000000 		.quad	144
 4758      00000000 
 4759 0008 00000000 		.quad	0
 4759      00000000 
 4760 0010 00000000 		.quad	_ZTISo
 4760      00000000 
 4761 0018 00000000 		.quad	0
 4761      00000000 
 4762 0020 00000000 		.quad	0
 4762      00000000 
 4763 0028 70FFFFFF 		.quad	-144
 4763      FFFFFFFF 
 4764 0030 70FFFFFF 		.quad	-144
 4764      FFFFFFFF 
 4765 0038 00000000 		.quad	_ZTISo
 4765      00000000 
 4766 0040 00000000 		.quad	0
 4766      00000000 
 4767 0048 00000000 		.quad	0
 4767      00000000 
 4768              		.hidden	_ZTCN8UnitTest15MemoryOutStreamE0_NSt7__cxx1119basic_ostringstreamIcSt11char_traitsIcESaIc
 4769              		.weak	_ZTCN8UnitTest15MemoryOutStreamE0_NSt7__cxx1119basic_ostringstreamIcSt11char_traitsIcESaIcEE
 4770              		.section	.data.rel.ro._ZTCN8UnitTest15MemoryOutStreamE0_NSt7__cxx1119basic_ostringstreamIcSt11char
 4771              		.align 8
 4774              	_ZTCN8UnitTest15MemoryOutStreamE0_NSt7__cxx1119basic_ostringstreamIcSt11char_traitsIcESaIcEEE:
 4775 0000 90000000 		.quad	144
 4775      00000000 
 4776 0008 00000000 		.quad	0
 4776      00000000 
 4777 0010 00000000 		.quad	_ZTINSt7__cxx1119basic_ostringstreamIcSt11char_traitsIcESaIcEEE
 4777      00000000 
 4778 0018 00000000 		.quad	0
 4778      00000000 
 4779 0020 00000000 		.quad	0
 4779      00000000 
 4780 0028 70FFFFFF 		.quad	-144
 4780      FFFFFFFF 
 4781 0030 70FFFFFF 		.quad	-144
 4781      FFFFFFFF 
 4782 0038 00000000 		.quad	_ZTINSt7__cxx1119basic_ostringstreamIcSt11char_traitsIcESaIcEEE
 4782      00000000 
 4783 0040 00000000 		.quad	0
 4783      00000000 
 4784 0048 00000000 		.quad	0
 4784      00000000 
 4785              		.weak	_ZTTN8UnitTest15MemoryOutStreamE
 4786              		.section	.data.rel.ro.local._ZTTN8UnitTest15MemoryOutStreamE,"awG",@progbits,_ZTVN8UnitTest15Memor
 4787              		.align 8
 4790              	_ZTTN8UnitTest15MemoryOutStreamE:
 4791 0000 00000000 		.quad	_ZTVN8UnitTest15MemoryOutStreamE+24
 4791      00000000 
 4792 0008 00000000 		.quad	_ZTCN8UnitTest15MemoryOutStreamE0_NSt7__cxx1119basic_ostringstreamIcSt11char_traitsIcESaIcEE
 4792      00000000 
 4793 0010 00000000 		.quad	_ZTCN8UnitTest15MemoryOutStreamE0_So+24
 4793      00000000 
 4794 0018 00000000 		.quad	_ZTCN8UnitTest15MemoryOutStreamE0_So+64
 4794      00000000 
 4795 0020 00000000 		.quad	_ZTCN8UnitTest15MemoryOutStreamE0_NSt7__cxx1119basic_ostringstreamIcSt11char_traitsIcESaIcEE
 4795      00000000 
 4796 0028 00000000 		.quad	_ZTVN8UnitTest15MemoryOutStreamE+64
 4796      00000000 
 4797              		.weak	_ZTVN8UnitTest15MemoryOutStreamE
 4798              		.section	.data.rel.ro.local._ZTVN8UnitTest15MemoryOutStreamE,"awG",@progbits,_ZTVN8UnitTest15Memor
 4799              		.align 8
 4802              	_ZTVN8UnitTest15MemoryOutStreamE:
 4803 0000 90000000 		.quad	144
 4803      00000000 
 4804 0008 00000000 		.quad	0
 4804      00000000 
 4805 0010 00000000 		.quad	_ZTIN8UnitTest15MemoryOutStreamE
 4805      00000000 
 4806 0018 00000000 		.quad	_ZN8UnitTest15MemoryOutStreamD1Ev
 4806      00000000 
 4807 0020 00000000 		.quad	_ZN8UnitTest15MemoryOutStreamD0Ev
 4807      00000000 
 4808 0028 70FFFFFF 		.quad	-144
 4808      FFFFFFFF 
 4809 0030 70FFFFFF 		.quad	-144
 4809      FFFFFFFF 
 4810 0038 00000000 		.quad	_ZTIN8UnitTest15MemoryOutStreamE
 4810      00000000 
 4811 0040 00000000 		.quad	_ZTv0_n24_N8UnitTest15MemoryOutStreamD1Ev
 4811      00000000 
 4812 0048 00000000 		.quad	_ZTv0_n24_N8UnitTest15MemoryOutStreamD0Ev
 4812      00000000 
 4813              		.section	.data.rel.ro.local,"aw",@progbits
 4814              		.align 8
 4817              	_ZTVN12_GLOBAL__N_124TestDefaultIsEmptyStringE:
 4818 0000 00000000 		.quad	0
 4818      00000000 
 4819 0008 00000000 		.quad	_ZTIN12_GLOBAL__N_124TestDefaultIsEmptyStringE
 4819      00000000 
 4820 0010 00000000 		.quad	_ZN12_GLOBAL__N_124TestDefaultIsEmptyStringD1Ev
 4820      00000000 
 4821 0018 00000000 		.quad	_ZN12_GLOBAL__N_124TestDefaultIsEmptyStringD0Ev
 4821      00000000 
 4822 0020 00000000 		.quad	_ZNK12_GLOBAL__N_124TestDefaultIsEmptyString7RunImplEv
 4822      00000000 
 4823              		.align 8
 4826              	_ZTVN12_GLOBAL__N_133TestStreamingTextCopiesCharactersE:
 4827 0028 00000000 		.quad	0
 4827      00000000 
 4828 0030 00000000 		.quad	_ZTIN12_GLOBAL__N_133TestStreamingTextCopiesCharactersE
 4828      00000000 
 4829 0038 00000000 		.quad	_ZN12_GLOBAL__N_133TestStreamingTextCopiesCharactersD1Ev
 4829      00000000 
 4830 0040 00000000 		.quad	_ZN12_GLOBAL__N_133TestStreamingTextCopiesCharactersD0Ev
 4830      00000000 
 4831 0048 00000000 		.quad	_ZNK12_GLOBAL__N_133TestStreamingTextCopiesCharacters7RunImplEv
 4831      00000000 
 4832              		.align 8
 4835              	_ZTVN12_GLOBAL__N_144TestStreamingMultipleTimesConcatenatesResultE:
 4836 0050 00000000 		.quad	0
 4836      00000000 
 4837 0058 00000000 		.quad	_ZTIN12_GLOBAL__N_144TestStreamingMultipleTimesConcatenatesResultE
 4837      00000000 
 4838 0060 00000000 		.quad	_ZN12_GLOBAL__N_144TestStreamingMultipleTimesConcatenatesResultD1Ev
 4838      00000000 
 4839 0068 00000000 		.quad	_ZN12_GLOBAL__N_144TestStreamingMultipleTimesConcatenatesResultD0Ev
 4839      00000000 
 4840 0070 00000000 		.quad	_ZNK12_GLOBAL__N_144TestStreamingMultipleTimesConcatenatesResult7RunImplEv
 4840      00000000 
 4841              		.align 8
 4844              	_ZTVN12_GLOBAL__N_139TestStreamingIntWritesCorrectCharactersE:
 4845 0078 00000000 		.quad	0
 4845      00000000 
 4846 0080 00000000 		.quad	_ZTIN12_GLOBAL__N_139TestStreamingIntWritesCorrectCharactersE
 4846      00000000 
 4847 0088 00000000 		.quad	_ZN12_GLOBAL__N_139TestStreamingIntWritesCorrectCharactersD1Ev
 4847      00000000 
 4848 0090 00000000 		.quad	_ZN12_GLOBAL__N_139TestStreamingIntWritesCorrectCharactersD0Ev
 4848      00000000 
 4849 0098 00000000 		.quad	_ZNK12_GLOBAL__N_139TestStreamingIntWritesCorrectCharacters7RunImplEv
 4849      00000000 
 4850              		.align 8
 4853              	_ZTVN12_GLOBAL__N_147TestStreamingUnsignedIntWritesCorrectCharactersE:
 4854 00a0 00000000 		.quad	0
 4854      00000000 
 4855 00a8 00000000 		.quad	_ZTIN12_GLOBAL__N_147TestStreamingUnsignedIntWritesCorrectCharactersE
 4855      00000000 
 4856 00b0 00000000 		.quad	_ZN12_GLOBAL__N_147TestStreamingUnsignedIntWritesCorrectCharactersD1Ev
 4856      00000000 
 4857 00b8 00000000 		.quad	_ZN12_GLOBAL__N_147TestStreamingUnsignedIntWritesCorrectCharactersD0Ev
 4857      00000000 
 4858 00c0 00000000 		.quad	_ZNK12_GLOBAL__N_147TestStreamingUnsignedIntWritesCorrectCharacters7RunImplEv
 4858      00000000 
 4859              		.align 8
 4862              	_ZTVN12_GLOBAL__N_140TestStreamingLongWritesCorrectCharactersE:
 4863 00c8 00000000 		.quad	0
 4863      00000000 
 4864 00d0 00000000 		.quad	_ZTIN12_GLOBAL__N_140TestStreamingLongWritesCorrectCharactersE
 4864      00000000 
 4865 00d8 00000000 		.quad	_ZN12_GLOBAL__N_140TestStreamingLongWritesCorrectCharactersD1Ev
 4865      00000000 
 4866 00e0 00000000 		.quad	_ZN12_GLOBAL__N_140TestStreamingLongWritesCorrectCharactersD0Ev
 4866      00000000 
 4867 00e8 00000000 		.quad	_ZNK12_GLOBAL__N_140TestStreamingLongWritesCorrectCharacters7RunImplEv
 4867      00000000 
 4868              		.align 8
 4871              	_ZTVN12_GLOBAL__N_148TestStreamingUnsignedLongWritesCorrectCharactersE:
 4872 00f0 00000000 		.quad	0
 4872      00000000 
 4873 00f8 00000000 		.quad	_ZTIN12_GLOBAL__N_148TestStreamingUnsignedLongWritesCorrectCharactersE
 4873      00000000 
 4874 0100 00000000 		.quad	_ZN12_GLOBAL__N_148TestStreamingUnsignedLongWritesCorrectCharactersD1Ev
 4874      00000000 
 4875 0108 00000000 		.quad	_ZN12_GLOBAL__N_148TestStreamingUnsignedLongWritesCorrectCharactersD0Ev
 4875      00000000 
 4876 0110 00000000 		.quad	_ZNK12_GLOBAL__N_148TestStreamingUnsignedLongWritesCorrectCharacters7RunImplEv
 4876      00000000 
 4877              		.align 8
 4880              	_ZTVN12_GLOBAL__N_141TestStreamingFloatWritesCorrectCharactersE:
 4881 0118 00000000 		.quad	0
 4881      00000000 
 4882 0120 00000000 		.quad	_ZTIN12_GLOBAL__N_141TestStreamingFloatWritesCorrectCharactersE
 4882      00000000 
 4883 0128 00000000 		.quad	_ZN12_GLOBAL__N_141TestStreamingFloatWritesCorrectCharactersD1Ev
 4883      00000000 
 4884 0130 00000000 		.quad	_ZN12_GLOBAL__N_141TestStreamingFloatWritesCorrectCharactersD0Ev
 4884      00000000 
 4885 0138 00000000 		.quad	_ZNK12_GLOBAL__N_141TestStreamingFloatWritesCorrectCharacters7RunImplEv
 4885      00000000 
 4886              		.align 8
 4889              	_ZTVN12_GLOBAL__N_142TestStreamingDoubleWritesCorrectCharactersE:
 4890 0140 00000000 		.quad	0
 4890      00000000 
 4891 0148 00000000 		.quad	_ZTIN12_GLOBAL__N_142TestStreamingDoubleWritesCorrectCharactersE
 4891      00000000 
 4892 0150 00000000 		.quad	_ZN12_GLOBAL__N_142TestStreamingDoubleWritesCorrectCharactersD1Ev
 4892      00000000 
 4893 0158 00000000 		.quad	_ZN12_GLOBAL__N_142TestStreamingDoubleWritesCorrectCharactersD0Ev
 4893      00000000 
 4894 0160 00000000 		.quad	_ZNK12_GLOBAL__N_142TestStreamingDoubleWritesCorrectCharacters7RunImplEv
 4894      00000000 
 4895              		.align 8
 4898              	_ZTVN12_GLOBAL__N_143TestStreamingPointerWritesCorrectCharactersE:
 4899 0168 00000000 		.quad	0
 4899      00000000 
 4900 0170 00000000 		.quad	_ZTIN12_GLOBAL__N_143TestStreamingPointerWritesCorrectCharactersE
 4900      00000000 
 4901 0178 00000000 		.quad	_ZN12_GLOBAL__N_143TestStreamingPointerWritesCorrectCharactersD1Ev
 4901      00000000 
 4902 0180 00000000 		.quad	_ZN12_GLOBAL__N_143TestStreamingPointerWritesCorrectCharactersD0Ev
 4902      00000000 
 4903 0188 00000000 		.quad	_ZNK12_GLOBAL__N_143TestStreamingPointerWritesCorrectCharacters7RunImplEv
 4903      00000000 
 4904              		.align 8
 4907              	_ZTVN12_GLOBAL__N_141TestStreamingSizeTWritesCorrectCharactersE:
 4908 0190 00000000 		.quad	0
 4908      00000000 
 4909 0198 00000000 		.quad	_ZTIN12_GLOBAL__N_141TestStreamingSizeTWritesCorrectCharactersE
 4909      00000000 
 4910 01a0 00000000 		.quad	_ZN12_GLOBAL__N_141TestStreamingSizeTWritesCorrectCharactersD1Ev
 4910      00000000 
 4911 01a8 00000000 		.quad	_ZN12_GLOBAL__N_141TestStreamingSizeTWritesCorrectCharactersD0Ev
 4911      00000000 
 4912 01b0 00000000 		.quad	_ZNK12_GLOBAL__N_141TestStreamingSizeTWritesCorrectCharacters7RunImplEv
 4912      00000000 
 4913              		.local	_ZN12_GLOBAL__N_142adderStreamingSizeTWritesCorrectCharactersE
 4914              		.comm	_ZN12_GLOBAL__N_142adderStreamingSizeTWritesCorrectCharactersE,1,1
 4915              		.local	_ZN12_GLOBAL__N_149testStreamingSizeTWritesCorrectCharactersInstanceE
 4916              		.comm	_ZN12_GLOBAL__N_149testStreamingSizeTWritesCorrectCharactersInstanceE,56,32
 4917              		.local	_ZN12_GLOBAL__N_144adderStreamingPointerWritesCorrectCharactersE
 4918              		.comm	_ZN12_GLOBAL__N_144adderStreamingPointerWritesCorrectCharactersE,1,1
 4919              		.local	_ZN12_GLOBAL__N_151testStreamingPointerWritesCorrectCharactersInstanceE
 4920              		.comm	_ZN12_GLOBAL__N_151testStreamingPointerWritesCorrectCharactersInstanceE,56,32
 4921              		.local	_ZN12_GLOBAL__N_143adderStreamingDoubleWritesCorrectCharactersE
 4922              		.comm	_ZN12_GLOBAL__N_143adderStreamingDoubleWritesCorrectCharactersE,1,1
 4923              		.local	_ZN12_GLOBAL__N_150testStreamingDoubleWritesCorrectCharactersInstanceE
 4924              		.comm	_ZN12_GLOBAL__N_150testStreamingDoubleWritesCorrectCharactersInstanceE,56,32
 4925              		.local	_ZN12_GLOBAL__N_142adderStreamingFloatWritesCorrectCharactersE
 4926              		.comm	_ZN12_GLOBAL__N_142adderStreamingFloatWritesCorrectCharactersE,1,1
 4927              		.local	_ZN12_GLOBAL__N_149testStreamingFloatWritesCorrectCharactersInstanceE
 4928              		.comm	_ZN12_GLOBAL__N_149testStreamingFloatWritesCorrectCharactersInstanceE,56,32
 4929              		.local	_ZN12_GLOBAL__N_149adderStreamingUnsignedLongWritesCorrectCharactersE
 4930              		.comm	_ZN12_GLOBAL__N_149adderStreamingUnsignedLongWritesCorrectCharactersE,1,1
 4931              		.local	_ZN12_GLOBAL__N_156testStreamingUnsignedLongWritesCorrectCharactersInstanceE
 4932              		.comm	_ZN12_GLOBAL__N_156testStreamingUnsignedLongWritesCorrectCharactersInstanceE,56,32
 4933              		.local	_ZN12_GLOBAL__N_141adderStreamingLongWritesCorrectCharactersE
 4934              		.comm	_ZN12_GLOBAL__N_141adderStreamingLongWritesCorrectCharactersE,1,1
 4935              		.local	_ZN12_GLOBAL__N_148testStreamingLongWritesCorrectCharactersInstanceE
 4936              		.comm	_ZN12_GLOBAL__N_148testStreamingLongWritesCorrectCharactersInstanceE,56,32
 4937              		.local	_ZN12_GLOBAL__N_148adderStreamingUnsignedIntWritesCorrectCharactersE
 4938              		.comm	_ZN12_GLOBAL__N_148adderStreamingUnsignedIntWritesCorrectCharactersE,1,1
 4939              		.local	_ZN12_GLOBAL__N_155testStreamingUnsignedIntWritesCorrectCharactersInstanceE
 4940              		.comm	_ZN12_GLOBAL__N_155testStreamingUnsignedIntWritesCorrectCharactersInstanceE,56,32
 4941              		.local	_ZN12_GLOBAL__N_140adderStreamingIntWritesCorrectCharactersE
 4942              		.comm	_ZN12_GLOBAL__N_140adderStreamingIntWritesCorrectCharactersE,1,1
 4943              		.local	_ZN12_GLOBAL__N_147testStreamingIntWritesCorrectCharactersInstanceE
 4944              		.comm	_ZN12_GLOBAL__N_147testStreamingIntWritesCorrectCharactersInstanceE,56,32
 4945              		.local	_ZN12_GLOBAL__N_145adderStreamingMultipleTimesConcatenatesResultE
 4946              		.comm	_ZN12_GLOBAL__N_145adderStreamingMultipleTimesConcatenatesResultE,1,1
 4947              		.local	_ZN12_GLOBAL__N_152testStreamingMultipleTimesConcatenatesResultInstanceE
 4948              		.comm	_ZN12_GLOBAL__N_152testStreamingMultipleTimesConcatenatesResultInstanceE,56,32
 4949              		.local	_ZN12_GLOBAL__N_134adderStreamingTextCopiesCharactersE
 4950              		.comm	_ZN12_GLOBAL__N_134adderStreamingTextCopiesCharactersE,1,1
 4951              		.local	_ZN12_GLOBAL__N_141testStreamingTextCopiesCharactersInstanceE
 4952              		.comm	_ZN12_GLOBAL__N_141testStreamingTextCopiesCharactersInstanceE,56,32
 4953              		.local	_ZN12_GLOBAL__N_125adderDefaultIsEmptyStringE
 4954              		.comm	_ZN12_GLOBAL__N_125adderDefaultIsEmptyStringE,1,1
 4955              		.local	_ZN12_GLOBAL__N_132testDefaultIsEmptyStringInstanceE
 4956              		.comm	_ZN12_GLOBAL__N_132testDefaultIsEmptyStringInstanceE,56,32
 4957              		.align 8
 4958              	.LC4:
 4959 01b8 00000000 		.quad	_ZTCN8UnitTest15MemoryOutStreamE0_NSt7__cxx1119basic_ostringstreamIcSt11char_traitsIcESaIcEE
 4959      00000000 
