   1              		.file	"TestTestRunner.cpp"
   2              		.section	.text._ZN17RecordingReporter13ReportSummaryEiiif,"axG",@progbits,_ZN17RecordingReporter13
   3              		.align 2
   4              		.p2align 4,,15
   5              		.weak	_ZN17RecordingReporter13ReportSummaryEiiif
   7              	_ZN17RecordingReporter13ReportSummaryEiiif:
   8              	.LFB1151:
   9              		.cfi_startproc
  10 0000 89B71C08 		movl	%esi, 2076(%rdi)
  10      0000
  11 0006 89972008 		movl	%edx, 2080(%rdi)
  11      0000
  12 000c F30F1187 		movss	%xmm0, 2088(%rdi)
  12      28080000 
  13 0014 898F2408 		movl	%ecx, 2084(%rdi)
  13      0000
  14 001a C3       		ret
  15              		.cfi_endproc
  16              	.LFE1151:
  18              		.text
  19              		.align 2
  20              		.p2align 4,,15
  22              	_ZN12_GLOBAL__N_180TestTestRunnerFixtureTestRunnerOnlyRunsTestsInSpecifiedSuiteAndThatPassPredicate
  23              	.LFB1483:
  24              		.cfi_startproc
  25 0000 488D0500 		leaq	16+_ZTVN12_GLOBAL__N_180TestTestRunnerFixtureTestRunnerOnlyRunsTestsInSpecifiedSuiteAndThatPa
  25      000000
  26 0007 488907   		movq	%rax, (%rdi)
  27 000a E9000000 		jmp	_ZN8UnitTest4TestD2Ev@PLT
  27      00
  28              		.cfi_endproc
  29              	.LFE1483:
  31              		.set	_ZN12_GLOBAL__N_180TestTestRunnerFixtureTestRunnerOnlyRunsTestsInSpecifiedSuiteAndThatPassPre
  32 000f 90       		.align 2
  33              		.p2align 4,,15
  35              	_ZN12_GLOBAL__N_157TestTestRunnerFixtureTestRunnerRunsTestsThatPassPredicateD2Ev:
  36              	.LFB1487:
  37              		.cfi_startproc
  38 0010 488D0500 		leaq	16+_ZTVN12_GLOBAL__N_157TestTestRunnerFixtureTestRunnerRunsTestsThatPassPredicateE(%rip), %ra
  38      000000
  39 0017 488907   		movq	%rax, (%rdi)
  40 001a E9000000 		jmp	_ZN8UnitTest4TestD2Ev@PLT
  40      00
  41              		.cfi_endproc
  42              	.LFE1487:
  44              		.set	_ZN12_GLOBAL__N_157TestTestRunnerFixtureTestRunnerRunsTestsThatPassPredicateD1Ev,_ZN12_GLOBAL
  45 001f 90       		.align 2
  46              		.p2align 4,,15
  48              	_ZN12_GLOBAL__N_137TestTestMockPredicateBehavesCorrectlyD2Ev:
  49              	.LFB1491:
  50              		.cfi_startproc
  51 0020 488D0500 		leaq	16+_ZTVN12_GLOBAL__N_137TestTestMockPredicateBehavesCorrectlyE(%rip), %rax
  51      000000
  52 0027 488907   		movq	%rax, (%rdi)
  53 002a E9000000 		jmp	_ZN8UnitTest4TestD2Ev@PLT
  53      00
  54              		.cfi_endproc
  55              	.LFE1491:
  57              		.set	_ZN12_GLOBAL__N_137TestTestMockPredicateBehavesCorrectlyD1Ev,_ZN12_GLOBAL__N_137TestTestMockP
  58 002f 90       		.align 2
  59              		.p2align 4,,15
  61              	_ZN12_GLOBAL__N_152TestTestSuiteFixtureTestRunnerRunsOnlySpecifiedSuiteD2Ev:
  62              	.LFB1495:
  63              		.cfi_startproc
  64 0030 488D0500 		leaq	16+_ZTVN12_GLOBAL__N_152TestTestSuiteFixtureTestRunnerRunsOnlySpecifiedSuiteE(%rip), %rax
  64      000000
  65 0037 488907   		movq	%rax, (%rdi)
  66 003a E9000000 		jmp	_ZN8UnitTest4TestD2Ev@PLT
  66      00
  67              		.cfi_endproc
  68              	.LFE1495:
  70              		.set	_ZN12_GLOBAL__N_152TestTestSuiteFixtureTestRunnerRunsOnlySpecifiedSuiteD1Ev,_ZN12_GLOBAL__N_1
  71 003f 90       		.align 2
  72              		.p2align 4,,15
  74              	_ZN12_GLOBAL__N_162TestTestSuiteFixtureTestRunnerRunsAllSuitesIfNullSuiteIsPassedD2Ev:
  75              	.LFB1499:
  76              		.cfi_startproc
  77 0040 488D0500 		leaq	16+_ZTVN12_GLOBAL__N_162TestTestSuiteFixtureTestRunnerRunsAllSuitesIfNullSuiteIsPassedE(%rip)
  77      000000
  78 0047 488907   		movq	%rax, (%rdi)
  79 004a E9000000 		jmp	_ZN8UnitTest4TestD2Ev@PLT
  79      00
  80              		.cfi_endproc
  81              	.LFE1499:
  83              		.set	_ZN12_GLOBAL__N_162TestTestSuiteFixtureTestRunnerRunsAllSuitesIfNullSuiteIsPassedD1Ev,_ZN12_G
  84 004f 90       		.align 2
  85              		.p2align 4,,15
  87              	_ZN12_GLOBAL__N_152TestTestRunnerFixtureSlowTestWithTimeExemptionPassesD2Ev:
  88              	.LFB1507:
  89              		.cfi_startproc
  90 0050 488D0500 		leaq	16+_ZTVN12_GLOBAL__N_152TestTestRunnerFixtureSlowTestWithTimeExemptionPassesE(%rip), %rax
  90      000000
  91 0057 488907   		movq	%rax, (%rdi)
  92 005a E9000000 		jmp	_ZN8UnitTest4TestD2Ev@PLT
  92      00
  93              		.cfi_endproc
  94              	.LFE1507:
  96              		.set	_ZN12_GLOBAL__N_152TestTestRunnerFixtureSlowTestWithTimeExemptionPassesD1Ev,_ZN12_GLOBAL__N_1
  97 005f 90       		.align 2
  98              		.p2align 4,,15
 100              	_ZZN12_GLOBAL__N_154TestRunnerFixtureSlowTestWithTimeExemptionPassesHelper7RunImplEvEN16SlowExempte
 101              	.LFB1503:
 102              		.cfi_startproc
 103 0060 488D0500 		leaq	16+_ZTVZN12_GLOBAL__N_154TestRunnerFixtureSlowTestWithTimeExemptionPassesHelper7RunImplEvE16S
 103      000000
 104 0067 488907   		movq	%rax, (%rdi)
 105 006a E9000000 		jmp	_ZN8UnitTest4TestD2Ev@PLT
 105      00
 106              		.cfi_endproc
 107              	.LFE1503:
 109              		.set	_ZZN12_GLOBAL__N_154TestRunnerFixtureSlowTestWithTimeExemptionPassesHelper7RunImplEvEN16SlowE
 110 006f 90       		.align 2
 111              		.p2align 4,,15
 113              	_ZN12_GLOBAL__N_157TestTestRunnerFixtureSlowTestHasCorrectFailureInformationD2Ev:
 114              	.LFB1511:
 115              		.cfi_startproc
 116 0070 488D0500 		leaq	16+_ZTVN12_GLOBAL__N_157TestTestRunnerFixtureSlowTestHasCorrectFailureInformationE(%rip), %ra
 116      000000
 117 0077 488907   		movq	%rax, (%rdi)
 118 007a E9000000 		jmp	_ZN8UnitTest4TestD2Ev@PLT
 118      00
 119              		.cfi_endproc
 120              	.LFE1511:
 122              		.set	_ZN12_GLOBAL__N_157TestTestRunnerFixtureSlowTestHasCorrectFailureInformationD1Ev,_ZN12_GLOBAL
 123 007f 90       		.align 2
 124              		.p2align 4,,15
 126              	_ZN12_GLOBAL__N_18SlowTestD2Ev:
 127              	.LFB1551:
 128              		.cfi_startproc
 129 0080 488D0500 		leaq	16+_ZTVN12_GLOBAL__N_18SlowTestE(%rip), %rax
 129      000000
 130 0087 488907   		movq	%rax, (%rdi)
 131 008a E9000000 		jmp	_ZN8UnitTest4TestD2Ev@PLT
 131      00
 132              		.cfi_endproc
 133              	.LFE1551:
 135              		.set	_ZN12_GLOBAL__N_18SlowTestD1Ev,_ZN12_GLOBAL__N_18SlowTestD2Ev
 136 008f 90       		.align 2
 137              		.p2align 4,,15
 139              	_ZN12_GLOBAL__N_153TestTestRunnerFixtureSlowTestFailsForLowTimeThresholdD2Ev:
 140              	.LFB1515:
 141              		.cfi_startproc
 142 0090 488D0500 		leaq	16+_ZTVN12_GLOBAL__N_153TestTestRunnerFixtureSlowTestFailsForLowTimeThresholdE(%rip), %rax
 142      000000
 143 0097 488907   		movq	%rax, (%rdi)
 144 009a E9000000 		jmp	_ZN8UnitTest4TestD2Ev@PLT
 144      00
 145              		.cfi_endproc
 146              	.LFE1515:
 148              		.set	_ZN12_GLOBAL__N_153TestTestRunnerFixtureSlowTestFailsForLowTimeThresholdD1Ev,_ZN12_GLOBAL__N_
 149 009f 90       		.align 2
 150              		.p2align 4,,15
 152              	_ZN12_GLOBAL__N_155TestTestRunnerFixtureSlowTestPassesForHighTimeThresholdD2Ev:
 153              	.LFB1519:
 154              		.cfi_startproc
 155 00a0 488D0500 		leaq	16+_ZTVN12_GLOBAL__N_155TestTestRunnerFixtureSlowTestPassesForHighTimeThresholdE(%rip), %rax
 155      000000
 156 00a7 488907   		movq	%rax, (%rdi)
 157 00aa E9000000 		jmp	_ZN8UnitTest4TestD2Ev@PLT
 157      00
 158              		.cfi_endproc
 159              	.LFE1519:
 161              		.set	_ZN12_GLOBAL__N_155TestTestRunnerFixtureSlowTestPassesForHighTimeThresholdD1Ev,_ZN12_GLOBAL__
 162 00af 90       		.align 2
 163              		.p2align 4,,15
 165              	_ZN12_GLOBAL__N_147TestTestRunnerFixtureReporterNotifiedOfFailuresD2Ev:
 166              	.LFB1523:
 167              		.cfi_startproc
 168 00b0 488D0500 		leaq	16+_ZTVN12_GLOBAL__N_147TestTestRunnerFixtureReporterNotifiedOfFailuresE(%rip), %rax
 168      000000
 169 00b7 488907   		movq	%rax, (%rdi)
 170 00ba E9000000 		jmp	_ZN8UnitTest4TestD2Ev@PLT
 170      00
 171              		.cfi_endproc
 172              	.LFE1523:
 174              		.set	_ZN12_GLOBAL__N_147TestTestRunnerFixtureReporterNotifiedOfFailuresD1Ev,_ZN12_GLOBAL__N_147Tes
 175 00bf 90       		.align 2
 176              		.p2align 4,,15
 178              	_ZN12_GLOBAL__N_18MockTestD2Ev:
 179              	.LFB1563:
 180              		.cfi_startproc
 181 00c0 488D0500 		leaq	16+_ZTVN12_GLOBAL__N_18MockTestE(%rip), %rax
 181      000000
 182 00c7 488907   		movq	%rax, (%rdi)
 183 00ca E9000000 		jmp	_ZN8UnitTest4TestD2Ev@PLT
 183      00
 184              		.cfi_endproc
 185              	.LFE1563:
 187              		.set	_ZN12_GLOBAL__N_18MockTestD1Ev,_ZN12_GLOBAL__N_18MockTestD2Ev
 188 00cf 90       		.align 2
 189              		.p2align 4,,15
 191              	_ZN12_GLOBAL__N_150TestTestRunnerFixtureReporterNotifiedOfFailedTestsD2Ev:
 192              	.LFB1527:
 193              		.cfi_startproc
 194 00d0 488D0500 		leaq	16+_ZTVN12_GLOBAL__N_150TestTestRunnerFixtureReporterNotifiedOfFailedTestsE(%rip), %rax
 194      000000
 195 00d7 488907   		movq	%rax, (%rdi)
 196 00da E9000000 		jmp	_ZN8UnitTest4TestD2Ev@PLT
 196      00
 197              		.cfi_endproc
 198              	.LFE1527:
 200              		.set	_ZN12_GLOBAL__N_150TestTestRunnerFixtureReporterNotifiedOfFailedTestsD1Ev,_ZN12_GLOBAL__N_150
 201 00df 90       		.align 2
 202              		.p2align 4,,15
 204              	_ZN12_GLOBAL__N_148TestTestRunnerFixtureReporterNotifiedOfTestCountD2Ev:
 205              	.LFB1531:
 206              		.cfi_startproc
 207 00e0 488D0500 		leaq	16+_ZTVN12_GLOBAL__N_148TestTestRunnerFixtureReporterNotifiedOfTestCountE(%rip), %rax
 207      000000
 208 00e7 488907   		movq	%rax, (%rdi)
 209 00ea E9000000 		jmp	_ZN8UnitTest4TestD2Ev@PLT
 209      00
 210              		.cfi_endproc
 211              	.LFE1531:
 213              		.set	_ZN12_GLOBAL__N_148TestTestRunnerFixtureReporterNotifiedOfTestCountD1Ev,_ZN12_GLOBAL__N_148Te
 214 00ef 90       		.align 2
 215              		.p2align 4,,15
 217              	_ZN12_GLOBAL__N_156TestTestRunnerFixtureTestsThatAssertAreReportedAsFailingD2Ev:
 218              	.LFB1535:
 219              		.cfi_startproc
 220 00f0 488D0500 		leaq	16+_ZTVN12_GLOBAL__N_156TestTestRunnerFixtureTestsThatAssertAreReportedAsFailingE(%rip), %rax
 220      000000
 221 00f7 488907   		movq	%rax, (%rdi)
 222 00fa E9000000 		jmp	_ZN8UnitTest4TestD2Ev@PLT
 222      00
 223              		.cfi_endproc
 224              	.LFE1535:
 226              		.set	_ZN12_GLOBAL__N_156TestTestRunnerFixtureTestsThatAssertAreReportedAsFailingD1Ev,_ZN12_GLOBAL_
 227 00ff 90       		.align 2
 228              		.p2align 4,,15
 230              	_ZN12_GLOBAL__N_157TestTestRunnerFixtureCallsReportFailureOncePerFailingTestD2Ev:
 231              	.LFB1539:
 232              		.cfi_startproc
 233 0100 488D0500 		leaq	16+_ZTVN12_GLOBAL__N_157TestTestRunnerFixtureCallsReportFailureOncePerFailingTestE(%rip), %ra
 233      000000
 234 0107 488907   		movq	%rax, (%rdi)
 235 010a E9000000 		jmp	_ZN8UnitTest4TestD2Ev@PLT
 235      00
 236              		.cfi_endproc
 237              	.LFE1539:
 239              		.set	_ZN12_GLOBAL__N_157TestTestRunnerFixtureCallsReportFailureOncePerFailingTestD1Ev,_ZN12_GLOBAL
 240 010f 90       		.align 2
 241              		.p2align 4,,15
 243              	_ZN12_GLOBAL__N_156TestTestRunnerFixtureFailureCountIsZeroWhenNoTestsAreRunD2Ev:
 244              	.LFB1543:
 245              		.cfi_startproc
 246 0110 488D0500 		leaq	16+_ZTVN12_GLOBAL__N_156TestTestRunnerFixtureFailureCountIsZeroWhenNoTestsAreRunE(%rip), %rax
 246      000000
 247 0117 488907   		movq	%rax, (%rdi)
 248 011a E9000000 		jmp	_ZN8UnitTest4TestD2Ev@PLT
 248      00
 249              		.cfi_endproc
 250              	.LFE1543:
 252              		.set	_ZN12_GLOBAL__N_156TestTestRunnerFixtureFailureCountIsZeroWhenNoTestsAreRunD1Ev,_ZN12_GLOBAL_
 253 011f 90       		.align 2
 254              		.p2align 4,,15
 256              	_ZN12_GLOBAL__N_154TestTestRunnerFixtureTestFinishIsCalledWithCorrectTimeD2Ev:
 257              	.LFB1547:
 258              		.cfi_startproc
 259 0120 488D0500 		leaq	16+_ZTVN12_GLOBAL__N_154TestTestRunnerFixtureTestFinishIsCalledWithCorrectTimeE(%rip), %rax
 259      000000
 260 0127 488907   		movq	%rax, (%rdi)
 261 012a E9000000 		jmp	_ZN8UnitTest4TestD2Ev@PLT
 261      00
 262              		.cfi_endproc
 263              	.LFE1547:
 265              		.set	_ZN12_GLOBAL__N_154TestTestRunnerFixtureTestFinishIsCalledWithCorrectTimeD1Ev,_ZN12_GLOBAL__N
 266 012f 90       		.align 2
 267              		.p2align 4,,15
 269              	_ZN12_GLOBAL__N_150TestTestRunnerFixtureTestFinishIsReportedCorrectlyD2Ev:
 270              	.LFB1555:
 271              		.cfi_startproc
 272 0130 488D0500 		leaq	16+_ZTVN12_GLOBAL__N_150TestTestRunnerFixtureTestFinishIsReportedCorrectlyE(%rip), %rax
 272      000000
 273 0137 488907   		movq	%rax, (%rdi)
 274 013a E9000000 		jmp	_ZN8UnitTest4TestD2Ev@PLT
 274      00
 275              		.cfi_endproc
 276              	.LFE1555:
 278              		.set	_ZN12_GLOBAL__N_150TestTestRunnerFixtureTestFinishIsReportedCorrectlyD1Ev,_ZN12_GLOBAL__N_150
 279 013f 90       		.align 2
 280              		.p2align 4,,15
 282              	_ZN12_GLOBAL__N_149TestTestRunnerFixtureTestStartIsReportedCorrectlyD2Ev:
 283              	.LFB1559:
 284              		.cfi_startproc
 285 0140 488D0500 		leaq	16+_ZTVN12_GLOBAL__N_149TestTestRunnerFixtureTestStartIsReportedCorrectlyE(%rip), %rax
 285      000000
 286 0147 488907   		movq	%rax, (%rdi)
 287 014a E9000000 		jmp	_ZN8UnitTest4TestD2Ev@PLT
 287      00
 288              		.cfi_endproc
 289              	.LFE1559:
 291              		.set	_ZN12_GLOBAL__N_149TestTestRunnerFixtureTestStartIsReportedCorrectlyD1Ev,_ZN12_GLOBAL__N_149T
 292              		.section	.text._ZN17RecordingReporter15ReportTestStartERKN8UnitTest11TestDetailsE,"axG",@progbits,
 293              		.align 2
 294              		.p2align 4,,15
 295              		.weak	_ZN17RecordingReporter15ReportTestStartERKN8UnitTest11TestDetailsE
 297              	_ZN17RecordingReporter15ReportTestStartERKN8UnitTest11TestDetailsE:
 298              	.LFB1148:
 299              		.cfi_startproc
 300 0000 55       		pushq	%rbp
 301              		.cfi_def_cfa_offset 16
 302              		.cfi_offset 6, -16
 303 0001 53       		pushq	%rbx
 304              		.cfi_def_cfa_offset 24
 305              		.cfi_offset 3, -24
 306 0002 4889F5   		movq	%rsi, %rbp
 307 0005 4889FB   		movq	%rdi, %rbx
 308 0008 BA000100 		movl	$256, %edx
 308      00
 309 000d 4883EC08 		subq	$8, %rsp
 310              		.cfi_def_cfa_offset 32
 311 0011 83470801 		addl	$1, 8(%rdi)
 312 0015 488D7F0C 		leaq	12(%rdi), %rdi
 313 0019 488B36   		movq	(%rsi), %rsi
 314 001c E8000000 		call	__strcpy_chk@PLT
 314      00
 315 0021 488B7508 		movq	8(%rbp), %rsi
 316 0025 4883C408 		addq	$8, %rsp
 317              		.cfi_def_cfa_offset 24
 318 0029 488DBB0C 		leaq	268(%rbx), %rdi
 318      010000
 319 0030 5B       		popq	%rbx
 320              		.cfi_def_cfa_offset 16
 321 0031 5D       		popq	%rbp
 322              		.cfi_def_cfa_offset 8
 323 0032 BA000100 		movl	$256, %edx
 323      00
 324 0037 E9000000 		jmp	__strcpy_chk@PLT
 324      00
 325              		.cfi_endproc
 326              	.LFE1148:
 328              		.section	.text._ZN17RecordingReporter13ReportFailureERKN8UnitTest11TestDetailsEPKc,"axG",@progbits
 329              		.align 2
 330              		.p2align 4,,15
 331              		.weak	_ZN17RecordingReporter13ReportFailureERKN8UnitTest11TestDetailsEPKc
 333              	_ZN17RecordingReporter13ReportFailureERKN8UnitTest11TestDetailsEPKc:
 334              	.LFB1149:
 335              		.cfi_startproc
 336 0000 4154     		pushq	%r12
 337              		.cfi_def_cfa_offset 16
 338              		.cfi_offset 12, -16
 339 0002 55       		pushq	%rbp
 340              		.cfi_def_cfa_offset 24
 341              		.cfi_offset 6, -24
 342 0003 4889F5   		movq	%rsi, %rbp
 343 0006 53       		pushq	%rbx
 344              		.cfi_def_cfa_offset 32
 345              		.cfi_offset 3, -32
 346 0007 83870C02 		addl	$1, 524(%rdi)
 346      000001
 347 000e 4889FB   		movq	%rdi, %rbx
 348 0011 488B7610 		movq	16(%rsi), %rsi
 349 0015 488DBF10 		leaq	528(%rdi), %rdi
 349      020000
 350 001c 4989D4   		movq	%rdx, %r12
 351 001f BA000100 		movl	$256, %edx
 351      00
 352 0024 E8000000 		call	__strcpy_chk@PLT
 352      00
 353 0029 8B4518   		movl	24(%rbp), %eax
 354 002c 488DBB14 		leaq	788(%rbx), %rdi
 354      030000
 355 0033 BA000100 		movl	$256, %edx
 355      00
 356 0038 89831003 		movl	%eax, 784(%rbx)
 356      0000
 357 003e 488B7500 		movq	0(%rbp), %rsi
 358 0042 E8000000 		call	__strcpy_chk@PLT
 358      00
 359 0047 488B7508 		movq	8(%rbp), %rsi
 360 004b 488DBB14 		leaq	1044(%rbx), %rdi
 360      040000
 361 0052 BA000100 		movl	$256, %edx
 361      00
 362 0057 E8000000 		call	__strcpy_chk@PLT
 362      00
 363 005c 488DBB14 		leaq	1300(%rbx), %rdi
 363      050000
 364 0063 4C89E6   		movq	%r12, %rsi
 365 0066 BA000100 		movl	$256, %edx
 365      00
 366 006b 5B       		popq	%rbx
 367              		.cfi_def_cfa_offset 24
 368 006c 5D       		popq	%rbp
 369              		.cfi_def_cfa_offset 16
 370 006d 415C     		popq	%r12
 371              		.cfi_def_cfa_offset 8
 372 006f E9000000 		jmp	__strcpy_chk@PLT
 372      00
 373              		.cfi_endproc
 374              	.LFE1149:
 376              		.section	.text._ZN17RecordingReporter16ReportTestFinishERKN8UnitTest11TestDetailsEf,"axG",@progbit
 377              		.align 2
 378              		.p2align 4,,15
 379              		.weak	_ZN17RecordingReporter16ReportTestFinishERKN8UnitTest11TestDetailsEf
 381              	_ZN17RecordingReporter16ReportTestFinishERKN8UnitTest11TestDetailsEf:
 382              	.LFB1150:
 383              		.cfi_startproc
 384 0000 55       		pushq	%rbp
 385              		.cfi_def_cfa_offset 16
 386              		.cfi_offset 6, -16
 387 0001 53       		pushq	%rbx
 388              		.cfi_def_cfa_offset 24
 389              		.cfi_offset 3, -24
 390 0002 4889F5   		movq	%rsi, %rbp
 391 0005 4889FB   		movq	%rdi, %rbx
 392 0008 BA000100 		movl	$256, %edx
 392      00
 393 000d 4883EC18 		subq	$24, %rsp
 394              		.cfi_def_cfa_offset 48
 395 0011 83871406 		addl	$1, 1556(%rdi)
 395      000001
 396 0018 488DBF18 		leaq	1560(%rdi), %rdi
 396      060000
 397 001f 488B36   		movq	(%rsi), %rsi
 398 0022 F30F1144 		movss	%xmm0, 12(%rsp)
 398      240C
 399 0028 E8000000 		call	__strcpy_chk@PLT
 399      00
 400 002d 488B7508 		movq	8(%rbp), %rsi
 401 0031 488DBB18 		leaq	1816(%rbx), %rdi
 401      070000
 402 0038 BA000100 		movl	$256, %edx
 402      00
 403 003d E8000000 		call	__strcpy_chk@PLT
 403      00
 404 0042 F30F1044 		movss	12(%rsp), %xmm0
 404      240C
 405 0048 F30F1183 		movss	%xmm0, 2072(%rbx)
 405      18080000 
 406 0050 4883C418 		addq	$24, %rsp
 407              		.cfi_def_cfa_offset 24
 408 0054 5B       		popq	%rbx
 409              		.cfi_def_cfa_offset 16
 410 0055 5D       		popq	%rbp
 411              		.cfi_def_cfa_offset 8
 412 0056 C3       		ret
 413              		.cfi_endproc
 414              	.LFE1150:
 416              		.text
 417 014f 90       		.align 2
 418              		.p2align 4,,15
 420              	_ZN12_GLOBAL__N_180TestTestRunnerFixtureTestRunnerOnlyRunsTestsInSpecifiedSuiteAndThatPassPredicate
 421              	.LFB1485:
 422              		.cfi_startproc
 423              		.cfi_personality 0x9b,DW.ref.__gxx_personality_v0
 424              		.cfi_lsda 0x1b,.LLSDA1485
 425 0150 55       		pushq	%rbp
 426              		.cfi_def_cfa_offset 16
 427              		.cfi_offset 6, -16
 428 0151 488D0500 		leaq	16+_ZTVN12_GLOBAL__N_180TestTestRunnerFixtureTestRunnerOnlyRunsTestsInSpecifiedSuiteAndThatPa
 428      000000
 429 0158 53       		pushq	%rbx
 430              		.cfi_def_cfa_offset 24
 431              		.cfi_offset 3, -24
 432 0159 4889FB   		movq	%rdi, %rbx
 433 015c 4883EC08 		subq	$8, %rsp
 434              		.cfi_def_cfa_offset 32
 435 0160 488907   		movq	%rax, (%rdi)
 436              	.LEHB0:
 437 0163 E8000000 		call	_ZN8UnitTest4TestD2Ev@PLT
 437      00
 438              	.LEHE0:
 439 0168 4883C408 		addq	$8, %rsp
 440              		.cfi_remember_state
 441              		.cfi_def_cfa_offset 24
 442 016c 4889DF   		movq	%rbx, %rdi
 443 016f 5B       		popq	%rbx
 444              		.cfi_def_cfa_offset 16
 445 0170 5D       		popq	%rbp
 446              		.cfi_def_cfa_offset 8
 447 0171 E9000000 		jmp	_ZdlPv@PLT
 447      00
 448              	.L32:
 449              		.cfi_restore_state
 450 0176 4889C5   		movq	%rax, %rbp
 451 0179 4889DF   		movq	%rbx, %rdi
 452 017c E8000000 		call	_ZdlPv@PLT
 452      00
 453 0181 4889EF   		movq	%rbp, %rdi
 454              	.LEHB1:
 455 0184 E8000000 		call	_Unwind_Resume@PLT
 455      00
 456              	.LEHE1:
 457              		.cfi_endproc
 458              	.LFE1485:
 459              		.globl	__gxx_personality_v0
 460              		.section	.gcc_except_table,"a",@progbits
 461              	.LLSDA1485:
 462 0000 FF       		.byte	0xff
 463 0001 FF       		.byte	0xff
 464 0002 01       		.byte	0x1
 465 0003 08       		.uleb128 .LLSDACSE1485-.LLSDACSB1485
 466              	.LLSDACSB1485:
 467 0004 13       		.uleb128 .LEHB0-.LFB1485
 468 0005 05       		.uleb128 .LEHE0-.LEHB0
 469 0006 26       		.uleb128 .L32-.LFB1485
 470 0007 00       		.uleb128 0
 471 0008 34       		.uleb128 .LEHB1-.LFB1485
 472 0009 05       		.uleb128 .LEHE1-.LEHB1
 473 000a 00       		.uleb128 0
 474 000b 00       		.uleb128 0
 475              	.LLSDACSE1485:
 476              		.text
 478 0189 90       		.align 2
 479 018a 660F1F44 		.p2align 4,,15
 479      0000
 481              	_ZN12_GLOBAL__N_157TestTestRunnerFixtureTestRunnerRunsTestsThatPassPredicateD0Ev:
 482              	.LFB1489:
 483              		.cfi_startproc
 484              		.cfi_personality 0x9b,DW.ref.__gxx_personality_v0
 485              		.cfi_lsda 0x1b,.LLSDA1489
 486 0190 55       		pushq	%rbp
 487              		.cfi_def_cfa_offset 16
 488              		.cfi_offset 6, -16
 489 0191 488D0500 		leaq	16+_ZTVN12_GLOBAL__N_157TestTestRunnerFixtureTestRunnerRunsTestsThatPassPredicateE(%rip), %ra
 489      000000
 490 0198 53       		pushq	%rbx
 491              		.cfi_def_cfa_offset 24
 492              		.cfi_offset 3, -24
 493 0199 4889FB   		movq	%rdi, %rbx
 494 019c 4883EC08 		subq	$8, %rsp
 495              		.cfi_def_cfa_offset 32
 496 01a0 488907   		movq	%rax, (%rdi)
 497              	.LEHB2:
 498 01a3 E8000000 		call	_ZN8UnitTest4TestD2Ev@PLT
 498      00
 499              	.LEHE2:
 500 01a8 4883C408 		addq	$8, %rsp
 501              		.cfi_remember_state
 502              		.cfi_def_cfa_offset 24
 503 01ac 4889DF   		movq	%rbx, %rdi
 504 01af 5B       		popq	%rbx
 505              		.cfi_def_cfa_offset 16
 506 01b0 5D       		popq	%rbp
 507              		.cfi_def_cfa_offset 8
 508 01b1 E9000000 		jmp	_ZdlPv@PLT
 508      00
 509              	.L36:
 510              		.cfi_restore_state
 511 01b6 4889C5   		movq	%rax, %rbp
 512 01b9 4889DF   		movq	%rbx, %rdi
 513 01bc E8000000 		call	_ZdlPv@PLT
 513      00
 514 01c1 4889EF   		movq	%rbp, %rdi
 515              	.LEHB3:
 516 01c4 E8000000 		call	_Unwind_Resume@PLT
 516      00
 517              	.LEHE3:
 518              		.cfi_endproc
 519              	.LFE1489:
 520              		.section	.gcc_except_table
 521              	.LLSDA1489:
 522 000c FF       		.byte	0xff
 523 000d FF       		.byte	0xff
 524 000e 01       		.byte	0x1
 525 000f 08       		.uleb128 .LLSDACSE1489-.LLSDACSB1489
 526              	.LLSDACSB1489:
 527 0010 13       		.uleb128 .LEHB2-.LFB1489
 528 0011 05       		.uleb128 .LEHE2-.LEHB2
 529 0012 26       		.uleb128 .L36-.LFB1489
 530 0013 00       		.uleb128 0
 531 0014 34       		.uleb128 .LEHB3-.LFB1489
 532 0015 05       		.uleb128 .LEHE3-.LEHB3
 533 0016 00       		.uleb128 0
 534 0017 00       		.uleb128 0
 535              	.LLSDACSE1489:
 536              		.text
 538 01c9 90       		.align 2
 539 01ca 660F1F44 		.p2align 4,,15
 539      0000
 541              	_ZN12_GLOBAL__N_137TestTestMockPredicateBehavesCorrectlyD0Ev:
 542              	.LFB1493:
 543              		.cfi_startproc
 544              		.cfi_personality 0x9b,DW.ref.__gxx_personality_v0
 545              		.cfi_lsda 0x1b,.LLSDA1493
 546 01d0 55       		pushq	%rbp
 547              		.cfi_def_cfa_offset 16
 548              		.cfi_offset 6, -16
 549 01d1 488D0500 		leaq	16+_ZTVN12_GLOBAL__N_137TestTestMockPredicateBehavesCorrectlyE(%rip), %rax
 549      000000
 550 01d8 53       		pushq	%rbx
 551              		.cfi_def_cfa_offset 24
 552              		.cfi_offset 3, -24
 553 01d9 4889FB   		movq	%rdi, %rbx
 554 01dc 4883EC08 		subq	$8, %rsp
 555              		.cfi_def_cfa_offset 32
 556 01e0 488907   		movq	%rax, (%rdi)
 557              	.LEHB4:
 558 01e3 E8000000 		call	_ZN8UnitTest4TestD2Ev@PLT
 558      00
 559              	.LEHE4:
 560 01e8 4883C408 		addq	$8, %rsp
 561              		.cfi_remember_state
 562              		.cfi_def_cfa_offset 24
 563 01ec 4889DF   		movq	%rbx, %rdi
 564 01ef 5B       		popq	%rbx
 565              		.cfi_def_cfa_offset 16
 566 01f0 5D       		popq	%rbp
 567              		.cfi_def_cfa_offset 8
 568 01f1 E9000000 		jmp	_ZdlPv@PLT
 568      00
 569              	.L40:
 570              		.cfi_restore_state
 571 01f6 4889C5   		movq	%rax, %rbp
 572 01f9 4889DF   		movq	%rbx, %rdi
 573 01fc E8000000 		call	_ZdlPv@PLT
 573      00
 574 0201 4889EF   		movq	%rbp, %rdi
 575              	.LEHB5:
 576 0204 E8000000 		call	_Unwind_Resume@PLT
 576      00
 577              	.LEHE5:
 578              		.cfi_endproc
 579              	.LFE1493:
 580              		.section	.gcc_except_table
 581              	.LLSDA1493:
 582 0018 FF       		.byte	0xff
 583 0019 FF       		.byte	0xff
 584 001a 01       		.byte	0x1
 585 001b 08       		.uleb128 .LLSDACSE1493-.LLSDACSB1493
 586              	.LLSDACSB1493:
 587 001c 13       		.uleb128 .LEHB4-.LFB1493
 588 001d 05       		.uleb128 .LEHE4-.LEHB4
 589 001e 26       		.uleb128 .L40-.LFB1493
 590 001f 00       		.uleb128 0
 591 0020 34       		.uleb128 .LEHB5-.LFB1493
 592 0021 05       		.uleb128 .LEHE5-.LEHB5
 593 0022 00       		.uleb128 0
 594 0023 00       		.uleb128 0
 595              	.LLSDACSE1493:
 596              		.text
 598 0209 90       		.align 2
 599 020a 660F1F44 		.p2align 4,,15
 599      0000
 601              	_ZN12_GLOBAL__N_152TestTestSuiteFixtureTestRunnerRunsOnlySpecifiedSuiteD0Ev:
 602              	.LFB1497:
 603              		.cfi_startproc
 604              		.cfi_personality 0x9b,DW.ref.__gxx_personality_v0
 605              		.cfi_lsda 0x1b,.LLSDA1497
 606 0210 55       		pushq	%rbp
 607              		.cfi_def_cfa_offset 16
 608              		.cfi_offset 6, -16
 609 0211 488D0500 		leaq	16+_ZTVN12_GLOBAL__N_152TestTestSuiteFixtureTestRunnerRunsOnlySpecifiedSuiteE(%rip), %rax
 609      000000
 610 0218 53       		pushq	%rbx
 611              		.cfi_def_cfa_offset 24
 612              		.cfi_offset 3, -24
 613 0219 4889FB   		movq	%rdi, %rbx
 614 021c 4883EC08 		subq	$8, %rsp
 615              		.cfi_def_cfa_offset 32
 616 0220 488907   		movq	%rax, (%rdi)
 617              	.LEHB6:
 618 0223 E8000000 		call	_ZN8UnitTest4TestD2Ev@PLT
 618      00
 619              	.LEHE6:
 620 0228 4883C408 		addq	$8, %rsp
 621              		.cfi_remember_state
 622              		.cfi_def_cfa_offset 24
 623 022c 4889DF   		movq	%rbx, %rdi
 624 022f 5B       		popq	%rbx
 625              		.cfi_def_cfa_offset 16
 626 0230 5D       		popq	%rbp
 627              		.cfi_def_cfa_offset 8
 628 0231 E9000000 		jmp	_ZdlPv@PLT
 628      00
 629              	.L44:
 630              		.cfi_restore_state
 631 0236 4889C5   		movq	%rax, %rbp
 632 0239 4889DF   		movq	%rbx, %rdi
 633 023c E8000000 		call	_ZdlPv@PLT
 633      00
 634 0241 4889EF   		movq	%rbp, %rdi
 635              	.LEHB7:
 636 0244 E8000000 		call	_Unwind_Resume@PLT
 636      00
 637              	.LEHE7:
 638              		.cfi_endproc
 639              	.LFE1497:
 640              		.section	.gcc_except_table
 641              	.LLSDA1497:
 642 0024 FF       		.byte	0xff
 643 0025 FF       		.byte	0xff
 644 0026 01       		.byte	0x1
 645 0027 08       		.uleb128 .LLSDACSE1497-.LLSDACSB1497
 646              	.LLSDACSB1497:
 647 0028 13       		.uleb128 .LEHB6-.LFB1497
 648 0029 05       		.uleb128 .LEHE6-.LEHB6
 649 002a 26       		.uleb128 .L44-.LFB1497
 650 002b 00       		.uleb128 0
 651 002c 34       		.uleb128 .LEHB7-.LFB1497
 652 002d 05       		.uleb128 .LEHE7-.LEHB7
 653 002e 00       		.uleb128 0
 654 002f 00       		.uleb128 0
 655              	.LLSDACSE1497:
 656              		.text
 658 0249 90       		.align 2
 659 024a 660F1F44 		.p2align 4,,15
 659      0000
 661              	_ZN12_GLOBAL__N_162TestTestSuiteFixtureTestRunnerRunsAllSuitesIfNullSuiteIsPassedD0Ev:
 662              	.LFB1501:
 663              		.cfi_startproc
 664              		.cfi_personality 0x9b,DW.ref.__gxx_personality_v0
 665              		.cfi_lsda 0x1b,.LLSDA1501
 666 0250 55       		pushq	%rbp
 667              		.cfi_def_cfa_offset 16
 668              		.cfi_offset 6, -16
 669 0251 488D0500 		leaq	16+_ZTVN12_GLOBAL__N_162TestTestSuiteFixtureTestRunnerRunsAllSuitesIfNullSuiteIsPassedE(%rip)
 669      000000
 670 0258 53       		pushq	%rbx
 671              		.cfi_def_cfa_offset 24
 672              		.cfi_offset 3, -24
 673 0259 4889FB   		movq	%rdi, %rbx
 674 025c 4883EC08 		subq	$8, %rsp
 675              		.cfi_def_cfa_offset 32
 676 0260 488907   		movq	%rax, (%rdi)
 677              	.LEHB8:
 678 0263 E8000000 		call	_ZN8UnitTest4TestD2Ev@PLT
 678      00
 679              	.LEHE8:
 680 0268 4883C408 		addq	$8, %rsp
 681              		.cfi_remember_state
 682              		.cfi_def_cfa_offset 24
 683 026c 4889DF   		movq	%rbx, %rdi
 684 026f 5B       		popq	%rbx
 685              		.cfi_def_cfa_offset 16
 686 0270 5D       		popq	%rbp
 687              		.cfi_def_cfa_offset 8
 688 0271 E9000000 		jmp	_ZdlPv@PLT
 688      00
 689              	.L48:
 690              		.cfi_restore_state
 691 0276 4889C5   		movq	%rax, %rbp
 692 0279 4889DF   		movq	%rbx, %rdi
 693 027c E8000000 		call	_ZdlPv@PLT
 693      00
 694 0281 4889EF   		movq	%rbp, %rdi
 695              	.LEHB9:
 696 0284 E8000000 		call	_Unwind_Resume@PLT
 696      00
 697              	.LEHE9:
 698              		.cfi_endproc
 699              	.LFE1501:
 700              		.section	.gcc_except_table
 701              	.LLSDA1501:
 702 0030 FF       		.byte	0xff
 703 0031 FF       		.byte	0xff
 704 0032 01       		.byte	0x1
 705 0033 08       		.uleb128 .LLSDACSE1501-.LLSDACSB1501
 706              	.LLSDACSB1501:
 707 0034 13       		.uleb128 .LEHB8-.LFB1501
 708 0035 05       		.uleb128 .LEHE8-.LEHB8
 709 0036 26       		.uleb128 .L48-.LFB1501
 710 0037 00       		.uleb128 0
 711 0038 34       		.uleb128 .LEHB9-.LFB1501
 712 0039 05       		.uleb128 .LEHE9-.LEHB9
 713 003a 00       		.uleb128 0
 714 003b 00       		.uleb128 0
 715              	.LLSDACSE1501:
 716              		.text
 718 0289 90       		.align 2
 719 028a 660F1F44 		.p2align 4,,15
 719      0000
 721              	_ZZN12_GLOBAL__N_154TestRunnerFixtureSlowTestWithTimeExemptionPassesHelper7RunImplEvEN16SlowExempte
 722              	.LFB1505:
 723              		.cfi_startproc
 724              		.cfi_personality 0x9b,DW.ref.__gxx_personality_v0
 725              		.cfi_lsda 0x1b,.LLSDA1505
 726 0290 55       		pushq	%rbp
 727              		.cfi_def_cfa_offset 16
 728              		.cfi_offset 6, -16
 729 0291 488D0500 		leaq	16+_ZTVZN12_GLOBAL__N_154TestRunnerFixtureSlowTestWithTimeExemptionPassesHelper7RunImplEvE16S
 729      000000
 730 0298 53       		pushq	%rbx
 731              		.cfi_def_cfa_offset 24
 732              		.cfi_offset 3, -24
 733 0299 4889FB   		movq	%rdi, %rbx
 734 029c 4883EC08 		subq	$8, %rsp
 735              		.cfi_def_cfa_offset 32
 736 02a0 488907   		movq	%rax, (%rdi)
 737              	.LEHB10:
 738 02a3 E8000000 		call	_ZN8UnitTest4TestD2Ev@PLT
 738      00
 739              	.LEHE10:
 740 02a8 4883C408 		addq	$8, %rsp
 741              		.cfi_remember_state
 742              		.cfi_def_cfa_offset 24
 743 02ac 4889DF   		movq	%rbx, %rdi
 744 02af 5B       		popq	%rbx
 745              		.cfi_def_cfa_offset 16
 746 02b0 5D       		popq	%rbp
 747              		.cfi_def_cfa_offset 8
 748 02b1 E9000000 		jmp	_ZdlPv@PLT
 748      00
 749              	.L52:
 750              		.cfi_restore_state
 751 02b6 4889C5   		movq	%rax, %rbp
 752 02b9 4889DF   		movq	%rbx, %rdi
 753 02bc E8000000 		call	_ZdlPv@PLT
 753      00
 754 02c1 4889EF   		movq	%rbp, %rdi
 755              	.LEHB11:
 756 02c4 E8000000 		call	_Unwind_Resume@PLT
 756      00
 757              	.LEHE11:
 758              		.cfi_endproc
 759              	.LFE1505:
 760              		.section	.gcc_except_table
 761              	.LLSDA1505:
 762 003c FF       		.byte	0xff
 763 003d FF       		.byte	0xff
 764 003e 01       		.byte	0x1
 765 003f 08       		.uleb128 .LLSDACSE1505-.LLSDACSB1505
 766              	.LLSDACSB1505:
 767 0040 13       		.uleb128 .LEHB10-.LFB1505
 768 0041 05       		.uleb128 .LEHE10-.LEHB10
 769 0042 26       		.uleb128 .L52-.LFB1505
 770 0043 00       		.uleb128 0
 771 0044 34       		.uleb128 .LEHB11-.LFB1505
 772 0045 05       		.uleb128 .LEHE11-.LEHB11
 773 0046 00       		.uleb128 0
 774 0047 00       		.uleb128 0
 775              	.LLSDACSE1505:
 776              		.text
 778 02c9 90       		.align 2
 779 02ca 660F1F44 		.p2align 4,,15
 779      0000
 781              	_ZN12_GLOBAL__N_152TestTestRunnerFixtureSlowTestWithTimeExemptionPassesD0Ev:
 782              	.LFB1509:
 783              		.cfi_startproc
 784              		.cfi_personality 0x9b,DW.ref.__gxx_personality_v0
 785              		.cfi_lsda 0x1b,.LLSDA1509
 786 02d0 55       		pushq	%rbp
 787              		.cfi_def_cfa_offset 16
 788              		.cfi_offset 6, -16
 789 02d1 488D0500 		leaq	16+_ZTVN12_GLOBAL__N_152TestTestRunnerFixtureSlowTestWithTimeExemptionPassesE(%rip), %rax
 789      000000
 790 02d8 53       		pushq	%rbx
 791              		.cfi_def_cfa_offset 24
 792              		.cfi_offset 3, -24
 793 02d9 4889FB   		movq	%rdi, %rbx
 794 02dc 4883EC08 		subq	$8, %rsp
 795              		.cfi_def_cfa_offset 32
 796 02e0 488907   		movq	%rax, (%rdi)
 797              	.LEHB12:
 798 02e3 E8000000 		call	_ZN8UnitTest4TestD2Ev@PLT
 798      00
 799              	.LEHE12:
 800 02e8 4883C408 		addq	$8, %rsp
 801              		.cfi_remember_state
 802              		.cfi_def_cfa_offset 24
 803 02ec 4889DF   		movq	%rbx, %rdi
 804 02ef 5B       		popq	%rbx
 805              		.cfi_def_cfa_offset 16
 806 02f0 5D       		popq	%rbp
 807              		.cfi_def_cfa_offset 8
 808 02f1 E9000000 		jmp	_ZdlPv@PLT
 808      00
 809              	.L56:
 810              		.cfi_restore_state
 811 02f6 4889C5   		movq	%rax, %rbp
 812 02f9 4889DF   		movq	%rbx, %rdi
 813 02fc E8000000 		call	_ZdlPv@PLT
 813      00
 814 0301 4889EF   		movq	%rbp, %rdi
 815              	.LEHB13:
 816 0304 E8000000 		call	_Unwind_Resume@PLT
 816      00
 817              	.LEHE13:
 818              		.cfi_endproc
 819              	.LFE1509:
 820              		.section	.gcc_except_table
 821              	.LLSDA1509:
 822 0048 FF       		.byte	0xff
 823 0049 FF       		.byte	0xff
 824 004a 01       		.byte	0x1
 825 004b 08       		.uleb128 .LLSDACSE1509-.LLSDACSB1509
 826              	.LLSDACSB1509:
 827 004c 13       		.uleb128 .LEHB12-.LFB1509
 828 004d 05       		.uleb128 .LEHE12-.LEHB12
 829 004e 26       		.uleb128 .L56-.LFB1509
 830 004f 00       		.uleb128 0
 831 0050 34       		.uleb128 .LEHB13-.LFB1509
 832 0051 05       		.uleb128 .LEHE13-.LEHB13
 833 0052 00       		.uleb128 0
 834 0053 00       		.uleb128 0
 835              	.LLSDACSE1509:
 836              		.text
 838 0309 90       		.align 2
 839 030a 660F1F44 		.p2align 4,,15
 839      0000
 841              	_ZN12_GLOBAL__N_18SlowTestD0Ev:
 842              	.LFB1553:
 843              		.cfi_startproc
 844              		.cfi_personality 0x9b,DW.ref.__gxx_personality_v0
 845              		.cfi_lsda 0x1b,.LLSDA1553
 846 0310 55       		pushq	%rbp
 847              		.cfi_def_cfa_offset 16
 848              		.cfi_offset 6, -16
 849 0311 488D0500 		leaq	16+_ZTVN12_GLOBAL__N_18SlowTestE(%rip), %rax
 849      000000
 850 0318 53       		pushq	%rbx
 851              		.cfi_def_cfa_offset 24
 852              		.cfi_offset 3, -24
 853 0319 4889FB   		movq	%rdi, %rbx
 854 031c 4883EC08 		subq	$8, %rsp
 855              		.cfi_def_cfa_offset 32
 856 0320 488907   		movq	%rax, (%rdi)
 857              	.LEHB14:
 858 0323 E8000000 		call	_ZN8UnitTest4TestD2Ev@PLT
 858      00
 859              	.LEHE14:
 860 0328 4883C408 		addq	$8, %rsp
 861              		.cfi_remember_state
 862              		.cfi_def_cfa_offset 24
 863 032c 4889DF   		movq	%rbx, %rdi
 864 032f 5B       		popq	%rbx
 865              		.cfi_def_cfa_offset 16
 866 0330 5D       		popq	%rbp
 867              		.cfi_def_cfa_offset 8
 868 0331 E9000000 		jmp	_ZdlPv@PLT
 868      00
 869              	.L60:
 870              		.cfi_restore_state
 871 0336 4889C5   		movq	%rax, %rbp
 872 0339 4889DF   		movq	%rbx, %rdi
 873 033c E8000000 		call	_ZdlPv@PLT
 873      00
 874 0341 4889EF   		movq	%rbp, %rdi
 875              	.LEHB15:
 876 0344 E8000000 		call	_Unwind_Resume@PLT
 876      00
 877              	.LEHE15:
 878              		.cfi_endproc
 879              	.LFE1553:
 880              		.section	.gcc_except_table
 881              	.LLSDA1553:
 882 0054 FF       		.byte	0xff
 883 0055 FF       		.byte	0xff
 884 0056 01       		.byte	0x1
 885 0057 08       		.uleb128 .LLSDACSE1553-.LLSDACSB1553
 886              	.LLSDACSB1553:
 887 0058 13       		.uleb128 .LEHB14-.LFB1553
 888 0059 05       		.uleb128 .LEHE14-.LEHB14
 889 005a 26       		.uleb128 .L60-.LFB1553
 890 005b 00       		.uleb128 0
 891 005c 34       		.uleb128 .LEHB15-.LFB1553
 892 005d 05       		.uleb128 .LEHE15-.LEHB15
 893 005e 00       		.uleb128 0
 894 005f 00       		.uleb128 0
 895              	.LLSDACSE1553:
 896              		.text
 898 0349 90       		.align 2
 899 034a 660F1F44 		.p2align 4,,15
 899      0000
 901              	_ZN12_GLOBAL__N_157TestTestRunnerFixtureSlowTestHasCorrectFailureInformationD0Ev:
 902              	.LFB1513:
 903              		.cfi_startproc
 904              		.cfi_personality 0x9b,DW.ref.__gxx_personality_v0
 905              		.cfi_lsda 0x1b,.LLSDA1513
 906 0350 55       		pushq	%rbp
 907              		.cfi_def_cfa_offset 16
 908              		.cfi_offset 6, -16
 909 0351 488D0500 		leaq	16+_ZTVN12_GLOBAL__N_157TestTestRunnerFixtureSlowTestHasCorrectFailureInformationE(%rip), %ra
 909      000000
 910 0358 53       		pushq	%rbx
 911              		.cfi_def_cfa_offset 24
 912              		.cfi_offset 3, -24
 913 0359 4889FB   		movq	%rdi, %rbx
 914 035c 4883EC08 		subq	$8, %rsp
 915              		.cfi_def_cfa_offset 32
 916 0360 488907   		movq	%rax, (%rdi)
 917              	.LEHB16:
 918 0363 E8000000 		call	_ZN8UnitTest4TestD2Ev@PLT
 918      00
 919              	.LEHE16:
 920 0368 4883C408 		addq	$8, %rsp
 921              		.cfi_remember_state
 922              		.cfi_def_cfa_offset 24
 923 036c 4889DF   		movq	%rbx, %rdi
 924 036f 5B       		popq	%rbx
 925              		.cfi_def_cfa_offset 16
 926 0370 5D       		popq	%rbp
 927              		.cfi_def_cfa_offset 8
 928 0371 E9000000 		jmp	_ZdlPv@PLT
 928      00
 929              	.L64:
 930              		.cfi_restore_state
 931 0376 4889C5   		movq	%rax, %rbp
 932 0379 4889DF   		movq	%rbx, %rdi
 933 037c E8000000 		call	_ZdlPv@PLT
 933      00
 934 0381 4889EF   		movq	%rbp, %rdi
 935              	.LEHB17:
 936 0384 E8000000 		call	_Unwind_Resume@PLT
 936      00
 937              	.LEHE17:
 938              		.cfi_endproc
 939              	.LFE1513:
 940              		.section	.gcc_except_table
 941              	.LLSDA1513:
 942 0060 FF       		.byte	0xff
 943 0061 FF       		.byte	0xff
 944 0062 01       		.byte	0x1
 945 0063 08       		.uleb128 .LLSDACSE1513-.LLSDACSB1513
 946              	.LLSDACSB1513:
 947 0064 13       		.uleb128 .LEHB16-.LFB1513
 948 0065 05       		.uleb128 .LEHE16-.LEHB16
 949 0066 26       		.uleb128 .L64-.LFB1513
 950 0067 00       		.uleb128 0
 951 0068 34       		.uleb128 .LEHB17-.LFB1513
 952 0069 05       		.uleb128 .LEHE17-.LEHB17
 953 006a 00       		.uleb128 0
 954 006b 00       		.uleb128 0
 955              	.LLSDACSE1513:
 956              		.text
 958 0389 90       		.align 2
 959 038a 660F1F44 		.p2align 4,,15
 959      0000
 961              	_ZN12_GLOBAL__N_153TestTestRunnerFixtureSlowTestFailsForLowTimeThresholdD0Ev:
 962              	.LFB1517:
 963              		.cfi_startproc
 964              		.cfi_personality 0x9b,DW.ref.__gxx_personality_v0
 965              		.cfi_lsda 0x1b,.LLSDA1517
 966 0390 55       		pushq	%rbp
 967              		.cfi_def_cfa_offset 16
 968              		.cfi_offset 6, -16
 969 0391 488D0500 		leaq	16+_ZTVN12_GLOBAL__N_153TestTestRunnerFixtureSlowTestFailsForLowTimeThresholdE(%rip), %rax
 969      000000
 970 0398 53       		pushq	%rbx
 971              		.cfi_def_cfa_offset 24
 972              		.cfi_offset 3, -24
 973 0399 4889FB   		movq	%rdi, %rbx
 974 039c 4883EC08 		subq	$8, %rsp
 975              		.cfi_def_cfa_offset 32
 976 03a0 488907   		movq	%rax, (%rdi)
 977              	.LEHB18:
 978 03a3 E8000000 		call	_ZN8UnitTest4TestD2Ev@PLT
 978      00
 979              	.LEHE18:
 980 03a8 4883C408 		addq	$8, %rsp
 981              		.cfi_remember_state
 982              		.cfi_def_cfa_offset 24
 983 03ac 4889DF   		movq	%rbx, %rdi
 984 03af 5B       		popq	%rbx
 985              		.cfi_def_cfa_offset 16
 986 03b0 5D       		popq	%rbp
 987              		.cfi_def_cfa_offset 8
 988 03b1 E9000000 		jmp	_ZdlPv@PLT
 988      00
 989              	.L68:
 990              		.cfi_restore_state
 991 03b6 4889C5   		movq	%rax, %rbp
 992 03b9 4889DF   		movq	%rbx, %rdi
 993 03bc E8000000 		call	_ZdlPv@PLT
 993      00
 994 03c1 4889EF   		movq	%rbp, %rdi
 995              	.LEHB19:
 996 03c4 E8000000 		call	_Unwind_Resume@PLT
 996      00
 997              	.LEHE19:
 998              		.cfi_endproc
 999              	.LFE1517:
 1000              		.section	.gcc_except_table
 1001              	.LLSDA1517:
 1002 006c FF       		.byte	0xff
 1003 006d FF       		.byte	0xff
 1004 006e 01       		.byte	0x1
 1005 006f 08       		.uleb128 .LLSDACSE1517-.LLSDACSB1517
 1006              	.LLSDACSB1517:
 1007 0070 13       		.uleb128 .LEHB18-.LFB1517
 1008 0071 05       		.uleb128 .LEHE18-.LEHB18
 1009 0072 26       		.uleb128 .L68-.LFB1517
 1010 0073 00       		.uleb128 0
 1011 0074 34       		.uleb128 .LEHB19-.LFB1517
 1012 0075 05       		.uleb128 .LEHE19-.LEHB19
 1013 0076 00       		.uleb128 0
 1014 0077 00       		.uleb128 0
 1015              	.LLSDACSE1517:
 1016              		.text
 1018 03c9 90       		.align 2
 1019 03ca 660F1F44 		.p2align 4,,15
 1019      0000
 1021              	_ZN12_GLOBAL__N_155TestTestRunnerFixtureSlowTestPassesForHighTimeThresholdD0Ev:
 1022              	.LFB1521:
 1023              		.cfi_startproc
 1024              		.cfi_personality 0x9b,DW.ref.__gxx_personality_v0
 1025              		.cfi_lsda 0x1b,.LLSDA1521
 1026 03d0 55       		pushq	%rbp
 1027              		.cfi_def_cfa_offset 16
 1028              		.cfi_offset 6, -16
 1029 03d1 488D0500 		leaq	16+_ZTVN12_GLOBAL__N_155TestTestRunnerFixtureSlowTestPassesForHighTimeThresholdE(%rip), %rax
 1029      000000
 1030 03d8 53       		pushq	%rbx
 1031              		.cfi_def_cfa_offset 24
 1032              		.cfi_offset 3, -24
 1033 03d9 4889FB   		movq	%rdi, %rbx
 1034 03dc 4883EC08 		subq	$8, %rsp
 1035              		.cfi_def_cfa_offset 32
 1036 03e0 488907   		movq	%rax, (%rdi)
 1037              	.LEHB20:
 1038 03e3 E8000000 		call	_ZN8UnitTest4TestD2Ev@PLT
 1038      00
 1039              	.LEHE20:
 1040 03e8 4883C408 		addq	$8, %rsp
 1041              		.cfi_remember_state
 1042              		.cfi_def_cfa_offset 24
 1043 03ec 4889DF   		movq	%rbx, %rdi
 1044 03ef 5B       		popq	%rbx
 1045              		.cfi_def_cfa_offset 16
 1046 03f0 5D       		popq	%rbp
 1047              		.cfi_def_cfa_offset 8
 1048 03f1 E9000000 		jmp	_ZdlPv@PLT
 1048      00
 1049              	.L72:
 1050              		.cfi_restore_state
 1051 03f6 4889C5   		movq	%rax, %rbp
 1052 03f9 4889DF   		movq	%rbx, %rdi
 1053 03fc E8000000 		call	_ZdlPv@PLT
 1053      00
 1054 0401 4889EF   		movq	%rbp, %rdi
 1055              	.LEHB21:
 1056 0404 E8000000 		call	_Unwind_Resume@PLT
 1056      00
 1057              	.LEHE21:
 1058              		.cfi_endproc
 1059              	.LFE1521:
 1060              		.section	.gcc_except_table
 1061              	.LLSDA1521:
 1062 0078 FF       		.byte	0xff
 1063 0079 FF       		.byte	0xff
 1064 007a 01       		.byte	0x1
 1065 007b 08       		.uleb128 .LLSDACSE1521-.LLSDACSB1521
 1066              	.LLSDACSB1521:
 1067 007c 13       		.uleb128 .LEHB20-.LFB1521
 1068 007d 05       		.uleb128 .LEHE20-.LEHB20
 1069 007e 26       		.uleb128 .L72-.LFB1521
 1070 007f 00       		.uleb128 0
 1071 0080 34       		.uleb128 .LEHB21-.LFB1521
 1072 0081 05       		.uleb128 .LEHE21-.LEHB21
 1073 0082 00       		.uleb128 0
 1074 0083 00       		.uleb128 0
 1075              	.LLSDACSE1521:
 1076              		.text
 1078 0409 90       		.align 2
 1079 040a 660F1F44 		.p2align 4,,15
 1079      0000
 1081              	_ZN12_GLOBAL__N_18MockTestD0Ev:
 1082              	.LFB1565:
 1083              		.cfi_startproc
 1084              		.cfi_personality 0x9b,DW.ref.__gxx_personality_v0
 1085              		.cfi_lsda 0x1b,.LLSDA1565
 1086 0410 55       		pushq	%rbp
 1087              		.cfi_def_cfa_offset 16
 1088              		.cfi_offset 6, -16
 1089 0411 488D0500 		leaq	16+_ZTVN12_GLOBAL__N_18MockTestE(%rip), %rax
 1089      000000
 1090 0418 53       		pushq	%rbx
 1091              		.cfi_def_cfa_offset 24
 1092              		.cfi_offset 3, -24
 1093 0419 4889FB   		movq	%rdi, %rbx
 1094 041c 4883EC08 		subq	$8, %rsp
 1095              		.cfi_def_cfa_offset 32
 1096 0420 488907   		movq	%rax, (%rdi)
 1097              	.LEHB22:
 1098 0423 E8000000 		call	_ZN8UnitTest4TestD2Ev@PLT
 1098      00
 1099              	.LEHE22:
 1100 0428 4883C408 		addq	$8, %rsp
 1101              		.cfi_remember_state
 1102              		.cfi_def_cfa_offset 24
 1103 042c 4889DF   		movq	%rbx, %rdi
 1104 042f 5B       		popq	%rbx
 1105              		.cfi_def_cfa_offset 16
 1106 0430 5D       		popq	%rbp
 1107              		.cfi_def_cfa_offset 8
 1108 0431 E9000000 		jmp	_ZdlPv@PLT
 1108      00
 1109              	.L76:
 1110              		.cfi_restore_state
 1111 0436 4889C5   		movq	%rax, %rbp
 1112 0439 4889DF   		movq	%rbx, %rdi
 1113 043c E8000000 		call	_ZdlPv@PLT
 1113      00
 1114 0441 4889EF   		movq	%rbp, %rdi
 1115              	.LEHB23:
 1116 0444 E8000000 		call	_Unwind_Resume@PLT
 1116      00
 1117              	.LEHE23:
 1118              		.cfi_endproc
 1119              	.LFE1565:
 1120              		.section	.gcc_except_table
 1121              	.LLSDA1565:
 1122 0084 FF       		.byte	0xff
 1123 0085 FF       		.byte	0xff
 1124 0086 01       		.byte	0x1
 1125 0087 08       		.uleb128 .LLSDACSE1565-.LLSDACSB1565
 1126              	.LLSDACSB1565:
 1127 0088 13       		.uleb128 .LEHB22-.LFB1565
 1128 0089 05       		.uleb128 .LEHE22-.LEHB22
 1129 008a 26       		.uleb128 .L76-.LFB1565
 1130 008b 00       		.uleb128 0
 1131 008c 34       		.uleb128 .LEHB23-.LFB1565
 1132 008d 05       		.uleb128 .LEHE23-.LEHB23
 1133 008e 00       		.uleb128 0
 1134 008f 00       		.uleb128 0
 1135              	.LLSDACSE1565:
 1136              		.text
 1138 0449 90       		.align 2
 1139 044a 660F1F44 		.p2align 4,,15
 1139      0000
 1141              	_ZN12_GLOBAL__N_147TestTestRunnerFixtureReporterNotifiedOfFailuresD0Ev:
 1142              	.LFB1525:
 1143              		.cfi_startproc
 1144              		.cfi_personality 0x9b,DW.ref.__gxx_personality_v0
 1145              		.cfi_lsda 0x1b,.LLSDA1525
 1146 0450 55       		pushq	%rbp
 1147              		.cfi_def_cfa_offset 16
 1148              		.cfi_offset 6, -16
 1149 0451 488D0500 		leaq	16+_ZTVN12_GLOBAL__N_147TestTestRunnerFixtureReporterNotifiedOfFailuresE(%rip), %rax
 1149      000000
 1150 0458 53       		pushq	%rbx
 1151              		.cfi_def_cfa_offset 24
 1152              		.cfi_offset 3, -24
 1153 0459 4889FB   		movq	%rdi, %rbx
 1154 045c 4883EC08 		subq	$8, %rsp
 1155              		.cfi_def_cfa_offset 32
 1156 0460 488907   		movq	%rax, (%rdi)
 1157              	.LEHB24:
 1158 0463 E8000000 		call	_ZN8UnitTest4TestD2Ev@PLT
 1158      00
 1159              	.LEHE24:
 1160 0468 4883C408 		addq	$8, %rsp
 1161              		.cfi_remember_state
 1162              		.cfi_def_cfa_offset 24
 1163 046c 4889DF   		movq	%rbx, %rdi
 1164 046f 5B       		popq	%rbx
 1165              		.cfi_def_cfa_offset 16
 1166 0470 5D       		popq	%rbp
 1167              		.cfi_def_cfa_offset 8
 1168 0471 E9000000 		jmp	_ZdlPv@PLT
 1168      00
 1169              	.L80:
 1170              		.cfi_restore_state
 1171 0476 4889C5   		movq	%rax, %rbp
 1172 0479 4889DF   		movq	%rbx, %rdi
 1173 047c E8000000 		call	_ZdlPv@PLT
 1173      00
 1174 0481 4889EF   		movq	%rbp, %rdi
 1175              	.LEHB25:
 1176 0484 E8000000 		call	_Unwind_Resume@PLT
 1176      00
 1177              	.LEHE25:
 1178              		.cfi_endproc
 1179              	.LFE1525:
 1180              		.section	.gcc_except_table
 1181              	.LLSDA1525:
 1182 0090 FF       		.byte	0xff
 1183 0091 FF       		.byte	0xff
 1184 0092 01       		.byte	0x1
 1185 0093 08       		.uleb128 .LLSDACSE1525-.LLSDACSB1525
 1186              	.LLSDACSB1525:
 1187 0094 13       		.uleb128 .LEHB24-.LFB1525
 1188 0095 05       		.uleb128 .LEHE24-.LEHB24
 1189 0096 26       		.uleb128 .L80-.LFB1525
 1190 0097 00       		.uleb128 0
 1191 0098 34       		.uleb128 .LEHB25-.LFB1525
 1192 0099 05       		.uleb128 .LEHE25-.LEHB25
 1193 009a 00       		.uleb128 0
 1194 009b 00       		.uleb128 0
 1195              	.LLSDACSE1525:
 1196              		.text
 1198 0489 90       		.align 2
 1199 048a 660F1F44 		.p2align 4,,15
 1199      0000
 1201              	_ZN12_GLOBAL__N_150TestTestRunnerFixtureReporterNotifiedOfFailedTestsD0Ev:
 1202              	.LFB1529:
 1203              		.cfi_startproc
 1204              		.cfi_personality 0x9b,DW.ref.__gxx_personality_v0
 1205              		.cfi_lsda 0x1b,.LLSDA1529
 1206 0490 55       		pushq	%rbp
 1207              		.cfi_def_cfa_offset 16
 1208              		.cfi_offset 6, -16
 1209 0491 488D0500 		leaq	16+_ZTVN12_GLOBAL__N_150TestTestRunnerFixtureReporterNotifiedOfFailedTestsE(%rip), %rax
 1209      000000
 1210 0498 53       		pushq	%rbx
 1211              		.cfi_def_cfa_offset 24
 1212              		.cfi_offset 3, -24
 1213 0499 4889FB   		movq	%rdi, %rbx
 1214 049c 4883EC08 		subq	$8, %rsp
 1215              		.cfi_def_cfa_offset 32
 1216 04a0 488907   		movq	%rax, (%rdi)
 1217              	.LEHB26:
 1218 04a3 E8000000 		call	_ZN8UnitTest4TestD2Ev@PLT
 1218      00
 1219              	.LEHE26:
 1220 04a8 4883C408 		addq	$8, %rsp
 1221              		.cfi_remember_state
 1222              		.cfi_def_cfa_offset 24
 1223 04ac 4889DF   		movq	%rbx, %rdi
 1224 04af 5B       		popq	%rbx
 1225              		.cfi_def_cfa_offset 16
 1226 04b0 5D       		popq	%rbp
 1227              		.cfi_def_cfa_offset 8
 1228 04b1 E9000000 		jmp	_ZdlPv@PLT
 1228      00
 1229              	.L84:
 1230              		.cfi_restore_state
 1231 04b6 4889C5   		movq	%rax, %rbp
 1232 04b9 4889DF   		movq	%rbx, %rdi
 1233 04bc E8000000 		call	_ZdlPv@PLT
 1233      00
 1234 04c1 4889EF   		movq	%rbp, %rdi
 1235              	.LEHB27:
 1236 04c4 E8000000 		call	_Unwind_Resume@PLT
 1236      00
 1237              	.LEHE27:
 1238              		.cfi_endproc
 1239              	.LFE1529:
 1240              		.section	.gcc_except_table
 1241              	.LLSDA1529:
 1242 009c FF       		.byte	0xff
 1243 009d FF       		.byte	0xff
 1244 009e 01       		.byte	0x1
 1245 009f 08       		.uleb128 .LLSDACSE1529-.LLSDACSB1529
 1246              	.LLSDACSB1529:
 1247 00a0 13       		.uleb128 .LEHB26-.LFB1529
 1248 00a1 05       		.uleb128 .LEHE26-.LEHB26
 1249 00a2 26       		.uleb128 .L84-.LFB1529
 1250 00a3 00       		.uleb128 0
 1251 00a4 34       		.uleb128 .LEHB27-.LFB1529
 1252 00a5 05       		.uleb128 .LEHE27-.LEHB27
 1253 00a6 00       		.uleb128 0
 1254 00a7 00       		.uleb128 0
 1255              	.LLSDACSE1529:
 1256              		.text
 1258 04c9 90       		.align 2
 1259 04ca 660F1F44 		.p2align 4,,15
 1259      0000
 1261              	_ZN12_GLOBAL__N_148TestTestRunnerFixtureReporterNotifiedOfTestCountD0Ev:
 1262              	.LFB1533:
 1263              		.cfi_startproc
 1264              		.cfi_personality 0x9b,DW.ref.__gxx_personality_v0
 1265              		.cfi_lsda 0x1b,.LLSDA1533
 1266 04d0 55       		pushq	%rbp
 1267              		.cfi_def_cfa_offset 16
 1268              		.cfi_offset 6, -16
 1269 04d1 488D0500 		leaq	16+_ZTVN12_GLOBAL__N_148TestTestRunnerFixtureReporterNotifiedOfTestCountE(%rip), %rax
 1269      000000
 1270 04d8 53       		pushq	%rbx
 1271              		.cfi_def_cfa_offset 24
 1272              		.cfi_offset 3, -24
 1273 04d9 4889FB   		movq	%rdi, %rbx
 1274 04dc 4883EC08 		subq	$8, %rsp
 1275              		.cfi_def_cfa_offset 32
 1276 04e0 488907   		movq	%rax, (%rdi)
 1277              	.LEHB28:
 1278 04e3 E8000000 		call	_ZN8UnitTest4TestD2Ev@PLT
 1278      00
 1279              	.LEHE28:
 1280 04e8 4883C408 		addq	$8, %rsp
 1281              		.cfi_remember_state
 1282              		.cfi_def_cfa_offset 24
 1283 04ec 4889DF   		movq	%rbx, %rdi
 1284 04ef 5B       		popq	%rbx
 1285              		.cfi_def_cfa_offset 16
 1286 04f0 5D       		popq	%rbp
 1287              		.cfi_def_cfa_offset 8
 1288 04f1 E9000000 		jmp	_ZdlPv@PLT
 1288      00
 1289              	.L88:
 1290              		.cfi_restore_state
 1291 04f6 4889C5   		movq	%rax, %rbp
 1292 04f9 4889DF   		movq	%rbx, %rdi
 1293 04fc E8000000 		call	_ZdlPv@PLT
 1293      00
 1294 0501 4889EF   		movq	%rbp, %rdi
 1295              	.LEHB29:
 1296 0504 E8000000 		call	_Unwind_Resume@PLT
 1296      00
 1297              	.LEHE29:
 1298              		.cfi_endproc
 1299              	.LFE1533:
 1300              		.section	.gcc_except_table
 1301              	.LLSDA1533:
 1302 00a8 FF       		.byte	0xff
 1303 00a9 FF       		.byte	0xff
 1304 00aa 01       		.byte	0x1
 1305 00ab 08       		.uleb128 .LLSDACSE1533-.LLSDACSB1533
 1306              	.LLSDACSB1533:
 1307 00ac 13       		.uleb128 .LEHB28-.LFB1533
 1308 00ad 05       		.uleb128 .LEHE28-.LEHB28
 1309 00ae 26       		.uleb128 .L88-.LFB1533
 1310 00af 00       		.uleb128 0
 1311 00b0 34       		.uleb128 .LEHB29-.LFB1533
 1312 00b1 05       		.uleb128 .LEHE29-.LEHB29
 1313 00b2 00       		.uleb128 0
 1314 00b3 00       		.uleb128 0
 1315              	.LLSDACSE1533:
 1316              		.text
 1318 0509 90       		.align 2
 1319 050a 660F1F44 		.p2align 4,,15
 1319      0000
 1321              	_ZN12_GLOBAL__N_156TestTestRunnerFixtureTestsThatAssertAreReportedAsFailingD0Ev:
 1322              	.LFB1537:
 1323              		.cfi_startproc
 1324              		.cfi_personality 0x9b,DW.ref.__gxx_personality_v0
 1325              		.cfi_lsda 0x1b,.LLSDA1537
 1326 0510 55       		pushq	%rbp
 1327              		.cfi_def_cfa_offset 16
 1328              		.cfi_offset 6, -16
 1329 0511 488D0500 		leaq	16+_ZTVN12_GLOBAL__N_156TestTestRunnerFixtureTestsThatAssertAreReportedAsFailingE(%rip), %rax
 1329      000000
 1330 0518 53       		pushq	%rbx
 1331              		.cfi_def_cfa_offset 24
 1332              		.cfi_offset 3, -24
 1333 0519 4889FB   		movq	%rdi, %rbx
 1334 051c 4883EC08 		subq	$8, %rsp
 1335              		.cfi_def_cfa_offset 32
 1336 0520 488907   		movq	%rax, (%rdi)
 1337              	.LEHB30:
 1338 0523 E8000000 		call	_ZN8UnitTest4TestD2Ev@PLT
 1338      00
 1339              	.LEHE30:
 1340 0528 4883C408 		addq	$8, %rsp
 1341              		.cfi_remember_state
 1342              		.cfi_def_cfa_offset 24
 1343 052c 4889DF   		movq	%rbx, %rdi
 1344 052f 5B       		popq	%rbx
 1345              		.cfi_def_cfa_offset 16
 1346 0530 5D       		popq	%rbp
 1347              		.cfi_def_cfa_offset 8
 1348 0531 E9000000 		jmp	_ZdlPv@PLT
 1348      00
 1349              	.L92:
 1350              		.cfi_restore_state
 1351 0536 4889C5   		movq	%rax, %rbp
 1352 0539 4889DF   		movq	%rbx, %rdi
 1353 053c E8000000 		call	_ZdlPv@PLT
 1353      00
 1354 0541 4889EF   		movq	%rbp, %rdi
 1355              	.LEHB31:
 1356 0544 E8000000 		call	_Unwind_Resume@PLT
 1356      00
 1357              	.LEHE31:
 1358              		.cfi_endproc
 1359              	.LFE1537:
 1360              		.section	.gcc_except_table
 1361              	.LLSDA1537:
 1362 00b4 FF       		.byte	0xff
 1363 00b5 FF       		.byte	0xff
 1364 00b6 01       		.byte	0x1
 1365 00b7 08       		.uleb128 .LLSDACSE1537-.LLSDACSB1537
 1366              	.LLSDACSB1537:
 1367 00b8 13       		.uleb128 .LEHB30-.LFB1537
 1368 00b9 05       		.uleb128 .LEHE30-.LEHB30
 1369 00ba 26       		.uleb128 .L92-.LFB1537
 1370 00bb 00       		.uleb128 0
 1371 00bc 34       		.uleb128 .LEHB31-.LFB1537
 1372 00bd 05       		.uleb128 .LEHE31-.LEHB31
 1373 00be 00       		.uleb128 0
 1374 00bf 00       		.uleb128 0
 1375              	.LLSDACSE1537:
 1376              		.text
 1378 0549 90       		.align 2
 1379 054a 660F1F44 		.p2align 4,,15
 1379      0000
 1381              	_ZN12_GLOBAL__N_157TestTestRunnerFixtureCallsReportFailureOncePerFailingTestD0Ev:
 1382              	.LFB1541:
 1383              		.cfi_startproc
 1384              		.cfi_personality 0x9b,DW.ref.__gxx_personality_v0
 1385              		.cfi_lsda 0x1b,.LLSDA1541
 1386 0550 55       		pushq	%rbp
 1387              		.cfi_def_cfa_offset 16
 1388              		.cfi_offset 6, -16
 1389 0551 488D0500 		leaq	16+_ZTVN12_GLOBAL__N_157TestTestRunnerFixtureCallsReportFailureOncePerFailingTestE(%rip), %ra
 1389      000000
 1390 0558 53       		pushq	%rbx
 1391              		.cfi_def_cfa_offset 24
 1392              		.cfi_offset 3, -24
 1393 0559 4889FB   		movq	%rdi, %rbx
 1394 055c 4883EC08 		subq	$8, %rsp
 1395              		.cfi_def_cfa_offset 32
 1396 0560 488907   		movq	%rax, (%rdi)
 1397              	.LEHB32:
 1398 0563 E8000000 		call	_ZN8UnitTest4TestD2Ev@PLT
 1398      00
 1399              	.LEHE32:
 1400 0568 4883C408 		addq	$8, %rsp
 1401              		.cfi_remember_state
 1402              		.cfi_def_cfa_offset 24
 1403 056c 4889DF   		movq	%rbx, %rdi
 1404 056f 5B       		popq	%rbx
 1405              		.cfi_def_cfa_offset 16
 1406 0570 5D       		popq	%rbp
 1407              		.cfi_def_cfa_offset 8
 1408 0571 E9000000 		jmp	_ZdlPv@PLT
 1408      00
 1409              	.L96:
 1410              		.cfi_restore_state
 1411 0576 4889C5   		movq	%rax, %rbp
 1412 0579 4889DF   		movq	%rbx, %rdi
 1413 057c E8000000 		call	_ZdlPv@PLT
 1413      00
 1414 0581 4889EF   		movq	%rbp, %rdi
 1415              	.LEHB33:
 1416 0584 E8000000 		call	_Unwind_Resume@PLT
 1416      00
 1417              	.LEHE33:
 1418              		.cfi_endproc
 1419              	.LFE1541:
 1420              		.section	.gcc_except_table
 1421              	.LLSDA1541:
 1422 00c0 FF       		.byte	0xff
 1423 00c1 FF       		.byte	0xff
 1424 00c2 01       		.byte	0x1
 1425 00c3 08       		.uleb128 .LLSDACSE1541-.LLSDACSB1541
 1426              	.LLSDACSB1541:
 1427 00c4 13       		.uleb128 .LEHB32-.LFB1541
 1428 00c5 05       		.uleb128 .LEHE32-.LEHB32
 1429 00c6 26       		.uleb128 .L96-.LFB1541
 1430 00c7 00       		.uleb128 0
 1431 00c8 34       		.uleb128 .LEHB33-.LFB1541
 1432 00c9 05       		.uleb128 .LEHE33-.LEHB33
 1433 00ca 00       		.uleb128 0
 1434 00cb 00       		.uleb128 0
 1435              	.LLSDACSE1541:
 1436              		.text
 1438 0589 90       		.align 2
 1439 058a 660F1F44 		.p2align 4,,15
 1439      0000
 1441              	_ZN12_GLOBAL__N_156TestTestRunnerFixtureFailureCountIsZeroWhenNoTestsAreRunD0Ev:
 1442              	.LFB1545:
 1443              		.cfi_startproc
 1444              		.cfi_personality 0x9b,DW.ref.__gxx_personality_v0
 1445              		.cfi_lsda 0x1b,.LLSDA1545
 1446 0590 55       		pushq	%rbp
 1447              		.cfi_def_cfa_offset 16
 1448              		.cfi_offset 6, -16
 1449 0591 488D0500 		leaq	16+_ZTVN12_GLOBAL__N_156TestTestRunnerFixtureFailureCountIsZeroWhenNoTestsAreRunE(%rip), %rax
 1449      000000
 1450 0598 53       		pushq	%rbx
 1451              		.cfi_def_cfa_offset 24
 1452              		.cfi_offset 3, -24
 1453 0599 4889FB   		movq	%rdi, %rbx
 1454 059c 4883EC08 		subq	$8, %rsp
 1455              		.cfi_def_cfa_offset 32
 1456 05a0 488907   		movq	%rax, (%rdi)
 1457              	.LEHB34:
 1458 05a3 E8000000 		call	_ZN8UnitTest4TestD2Ev@PLT
 1458      00
 1459              	.LEHE34:
 1460 05a8 4883C408 		addq	$8, %rsp
 1461              		.cfi_remember_state
 1462              		.cfi_def_cfa_offset 24
 1463 05ac 4889DF   		movq	%rbx, %rdi
 1464 05af 5B       		popq	%rbx
 1465              		.cfi_def_cfa_offset 16
 1466 05b0 5D       		popq	%rbp
 1467              		.cfi_def_cfa_offset 8
 1468 05b1 E9000000 		jmp	_ZdlPv@PLT
 1468      00
 1469              	.L100:
 1470              		.cfi_restore_state
 1471 05b6 4889C5   		movq	%rax, %rbp
 1472 05b9 4889DF   		movq	%rbx, %rdi
 1473 05bc E8000000 		call	_ZdlPv@PLT
 1473      00
 1474 05c1 4889EF   		movq	%rbp, %rdi
 1475              	.LEHB35:
 1476 05c4 E8000000 		call	_Unwind_Resume@PLT
 1476      00
 1477              	.LEHE35:
 1478              		.cfi_endproc
 1479              	.LFE1545:
 1480              		.section	.gcc_except_table
 1481              	.LLSDA1545:
 1482 00cc FF       		.byte	0xff
 1483 00cd FF       		.byte	0xff
 1484 00ce 01       		.byte	0x1
 1485 00cf 08       		.uleb128 .LLSDACSE1545-.LLSDACSB1545
 1486              	.LLSDACSB1545:
 1487 00d0 13       		.uleb128 .LEHB34-.LFB1545
 1488 00d1 05       		.uleb128 .LEHE34-.LEHB34
 1489 00d2 26       		.uleb128 .L100-.LFB1545
 1490 00d3 00       		.uleb128 0
 1491 00d4 34       		.uleb128 .LEHB35-.LFB1545
 1492 00d5 05       		.uleb128 .LEHE35-.LEHB35
 1493 00d6 00       		.uleb128 0
 1494 00d7 00       		.uleb128 0
 1495              	.LLSDACSE1545:
 1496              		.text
 1498 05c9 90       		.align 2
 1499 05ca 660F1F44 		.p2align 4,,15
 1499      0000
 1501              	_ZN12_GLOBAL__N_154TestTestRunnerFixtureTestFinishIsCalledWithCorrectTimeD0Ev:
 1502              	.LFB1549:
 1503              		.cfi_startproc
 1504              		.cfi_personality 0x9b,DW.ref.__gxx_personality_v0
 1505              		.cfi_lsda 0x1b,.LLSDA1549
 1506 05d0 55       		pushq	%rbp
 1507              		.cfi_def_cfa_offset 16
 1508              		.cfi_offset 6, -16
 1509 05d1 488D0500 		leaq	16+_ZTVN12_GLOBAL__N_154TestTestRunnerFixtureTestFinishIsCalledWithCorrectTimeE(%rip), %rax
 1509      000000
 1510 05d8 53       		pushq	%rbx
 1511              		.cfi_def_cfa_offset 24
 1512              		.cfi_offset 3, -24
 1513 05d9 4889FB   		movq	%rdi, %rbx
 1514 05dc 4883EC08 		subq	$8, %rsp
 1515              		.cfi_def_cfa_offset 32
 1516 05e0 488907   		movq	%rax, (%rdi)
 1517              	.LEHB36:
 1518 05e3 E8000000 		call	_ZN8UnitTest4TestD2Ev@PLT
 1518      00
 1519              	.LEHE36:
 1520 05e8 4883C408 		addq	$8, %rsp
 1521              		.cfi_remember_state
 1522              		.cfi_def_cfa_offset 24
 1523 05ec 4889DF   		movq	%rbx, %rdi
 1524 05ef 5B       		popq	%rbx
 1525              		.cfi_def_cfa_offset 16
 1526 05f0 5D       		popq	%rbp
 1527              		.cfi_def_cfa_offset 8
 1528 05f1 E9000000 		jmp	_ZdlPv@PLT
 1528      00
 1529              	.L104:
 1530              		.cfi_restore_state
 1531 05f6 4889C5   		movq	%rax, %rbp
 1532 05f9 4889DF   		movq	%rbx, %rdi
 1533 05fc E8000000 		call	_ZdlPv@PLT
 1533      00
 1534 0601 4889EF   		movq	%rbp, %rdi
 1535              	.LEHB37:
 1536 0604 E8000000 		call	_Unwind_Resume@PLT
 1536      00
 1537              	.LEHE37:
 1538              		.cfi_endproc
 1539              	.LFE1549:
 1540              		.section	.gcc_except_table
 1541              	.LLSDA1549:
 1542 00d8 FF       		.byte	0xff
 1543 00d9 FF       		.byte	0xff
 1544 00da 01       		.byte	0x1
 1545 00db 08       		.uleb128 .LLSDACSE1549-.LLSDACSB1549
 1546              	.LLSDACSB1549:
 1547 00dc 13       		.uleb128 .LEHB36-.LFB1549
 1548 00dd 05       		.uleb128 .LEHE36-.LEHB36
 1549 00de 26       		.uleb128 .L104-.LFB1549
 1550 00df 00       		.uleb128 0
 1551 00e0 34       		.uleb128 .LEHB37-.LFB1549
 1552 00e1 05       		.uleb128 .LEHE37-.LEHB37
 1553 00e2 00       		.uleb128 0
 1554 00e3 00       		.uleb128 0
 1555              	.LLSDACSE1549:
 1556              		.text
 1558 0609 90       		.align 2
 1559 060a 660F1F44 		.p2align 4,,15
 1559      0000
 1561              	_ZN12_GLOBAL__N_150TestTestRunnerFixtureTestFinishIsReportedCorrectlyD0Ev:
 1562              	.LFB1557:
 1563              		.cfi_startproc
 1564              		.cfi_personality 0x9b,DW.ref.__gxx_personality_v0
 1565              		.cfi_lsda 0x1b,.LLSDA1557
 1566 0610 55       		pushq	%rbp
 1567              		.cfi_def_cfa_offset 16
 1568              		.cfi_offset 6, -16
 1569 0611 488D0500 		leaq	16+_ZTVN12_GLOBAL__N_150TestTestRunnerFixtureTestFinishIsReportedCorrectlyE(%rip), %rax
 1569      000000
 1570 0618 53       		pushq	%rbx
 1571              		.cfi_def_cfa_offset 24
 1572              		.cfi_offset 3, -24
 1573 0619 4889FB   		movq	%rdi, %rbx
 1574 061c 4883EC08 		subq	$8, %rsp
 1575              		.cfi_def_cfa_offset 32
 1576 0620 488907   		movq	%rax, (%rdi)
 1577              	.LEHB38:
 1578 0623 E8000000 		call	_ZN8UnitTest4TestD2Ev@PLT
 1578      00
 1579              	.LEHE38:
 1580 0628 4883C408 		addq	$8, %rsp
 1581              		.cfi_remember_state
 1582              		.cfi_def_cfa_offset 24
 1583 062c 4889DF   		movq	%rbx, %rdi
 1584 062f 5B       		popq	%rbx
 1585              		.cfi_def_cfa_offset 16
 1586 0630 5D       		popq	%rbp
 1587              		.cfi_def_cfa_offset 8
 1588 0631 E9000000 		jmp	_ZdlPv@PLT
 1588      00
 1589              	.L108:
 1590              		.cfi_restore_state
 1591 0636 4889C5   		movq	%rax, %rbp
 1592 0639 4889DF   		movq	%rbx, %rdi
 1593 063c E8000000 		call	_ZdlPv@PLT
 1593      00
 1594 0641 4889EF   		movq	%rbp, %rdi
 1595              	.LEHB39:
 1596 0644 E8000000 		call	_Unwind_Resume@PLT
 1596      00
 1597              	.LEHE39:
 1598              		.cfi_endproc
 1599              	.LFE1557:
 1600              		.section	.gcc_except_table
 1601              	.LLSDA1557:
 1602 00e4 FF       		.byte	0xff
 1603 00e5 FF       		.byte	0xff
 1604 00e6 01       		.byte	0x1
 1605 00e7 08       		.uleb128 .LLSDACSE1557-.LLSDACSB1557
 1606              	.LLSDACSB1557:
 1607 00e8 13       		.uleb128 .LEHB38-.LFB1557
 1608 00e9 05       		.uleb128 .LEHE38-.LEHB38
 1609 00ea 26       		.uleb128 .L108-.LFB1557
 1610 00eb 00       		.uleb128 0
 1611 00ec 34       		.uleb128 .LEHB39-.LFB1557
 1612 00ed 05       		.uleb128 .LEHE39-.LEHB39
 1613 00ee 00       		.uleb128 0
 1614 00ef 00       		.uleb128 0
 1615              	.LLSDACSE1557:
 1616              		.text
 1618 0649 90       		.align 2
 1619 064a 660F1F44 		.p2align 4,,15
 1619      0000
 1621              	_ZN12_GLOBAL__N_149TestTestRunnerFixtureTestStartIsReportedCorrectlyD0Ev:
 1622              	.LFB1561:
 1623              		.cfi_startproc
 1624              		.cfi_personality 0x9b,DW.ref.__gxx_personality_v0
 1625              		.cfi_lsda 0x1b,.LLSDA1561
 1626 0650 55       		pushq	%rbp
 1627              		.cfi_def_cfa_offset 16
 1628              		.cfi_offset 6, -16
 1629 0651 488D0500 		leaq	16+_ZTVN12_GLOBAL__N_149TestTestRunnerFixtureTestStartIsReportedCorrectlyE(%rip), %rax
 1629      000000
 1630 0658 53       		pushq	%rbx
 1631              		.cfi_def_cfa_offset 24
 1632              		.cfi_offset 3, -24
 1633 0659 4889FB   		movq	%rdi, %rbx
 1634 065c 4883EC08 		subq	$8, %rsp
 1635              		.cfi_def_cfa_offset 32
 1636 0660 488907   		movq	%rax, (%rdi)
 1637              	.LEHB40:
 1638 0663 E8000000 		call	_ZN8UnitTest4TestD2Ev@PLT
 1638      00
 1639              	.LEHE40:
 1640 0668 4883C408 		addq	$8, %rsp
 1641              		.cfi_remember_state
 1642              		.cfi_def_cfa_offset 24
 1643 066c 4889DF   		movq	%rbx, %rdi
 1644 066f 5B       		popq	%rbx
 1645              		.cfi_def_cfa_offset 16
 1646 0670 5D       		popq	%rbp
 1647              		.cfi_def_cfa_offset 8
 1648 0671 E9000000 		jmp	_ZdlPv@PLT
 1648      00
 1649              	.L112:
 1650              		.cfi_restore_state
 1651 0676 4889C5   		movq	%rax, %rbp
 1652 0679 4889DF   		movq	%rbx, %rdi
 1653 067c E8000000 		call	_ZdlPv@PLT
 1653      00
 1654 0681 4889EF   		movq	%rbp, %rdi
 1655              	.LEHB41:
 1656 0684 E8000000 		call	_Unwind_Resume@PLT
 1656      00
 1657              	.LEHE41:
 1658              		.cfi_endproc
 1659              	.LFE1561:
 1660              		.section	.gcc_except_table
 1661              	.LLSDA1561:
 1662 00f0 FF       		.byte	0xff
 1663 00f1 FF       		.byte	0xff
 1664 00f2 01       		.byte	0x1
 1665 00f3 08       		.uleb128 .LLSDACSE1561-.LLSDACSB1561
 1666              	.LLSDACSB1561:
 1667 00f4 13       		.uleb128 .LEHB40-.LFB1561
 1668 00f5 05       		.uleb128 .LEHE40-.LEHB40
 1669 00f6 26       		.uleb128 .L112-.LFB1561
 1670 00f7 00       		.uleb128 0
 1671 00f8 34       		.uleb128 .LEHB41-.LFB1561
 1672 00f9 05       		.uleb128 .LEHE41-.LEHB41
 1673 00fa 00       		.uleb128 0
 1674 00fb 00       		.uleb128 0
 1675              	.LLSDACSE1561:
 1676              		.text
 1678              		.section	.text._ZN17RecordingReporterD2Ev,"axG",@progbits,_ZN17RecordingReporterD5Ev,comdat
 1679              		.align 2
 1680              		.p2align 4,,15
 1681              		.weak	_ZN17RecordingReporterD2Ev
 1683              	_ZN17RecordingReporterD2Ev:
 1684              	.LFB1567:
 1685              		.cfi_startproc
 1686 0000 488D0500 		leaq	16+_ZTV17RecordingReporter(%rip), %rax
 1686      000000
 1687 0007 488907   		movq	%rax, (%rdi)
 1688 000a E9000000 		jmp	_ZN8UnitTest12TestReporterD2Ev@PLT
 1688      00
 1689              		.cfi_endproc
 1690              	.LFE1567:
 1692              		.weak	_ZN17RecordingReporterD1Ev
 1693              		.set	_ZN17RecordingReporterD1Ev,_ZN17RecordingReporterD2Ev
 1694              		.section	.text._ZN17RecordingReporterD0Ev,"axG",@progbits,_ZN17RecordingReporterD5Ev,comdat
 1695              		.align 2
 1696              		.p2align 4,,15
 1697              		.weak	_ZN17RecordingReporterD0Ev
 1699              	_ZN17RecordingReporterD0Ev:
 1700              	.LFB1569:
 1701              		.cfi_startproc
 1702              		.cfi_personality 0x9b,DW.ref.__gxx_personality_v0
 1703              		.cfi_lsda 0x1b,.LLSDA1569
 1704 0000 55       		pushq	%rbp
 1705              		.cfi_def_cfa_offset 16
 1706              		.cfi_offset 6, -16
 1707 0001 488D0500 		leaq	16+_ZTV17RecordingReporter(%rip), %rax
 1707      000000
 1708 0008 53       		pushq	%rbx
 1709              		.cfi_def_cfa_offset 24
 1710              		.cfi_offset 3, -24
 1711 0009 4889FB   		movq	%rdi, %rbx
 1712 000c 4883EC08 		subq	$8, %rsp
 1713              		.cfi_def_cfa_offset 32
 1714 0010 488907   		movq	%rax, (%rdi)
 1715              	.LEHB42:
 1716 0013 E8000000 		call	_ZN8UnitTest12TestReporterD2Ev@PLT
 1716      00
 1717              	.LEHE42:
 1718 0018 4883C408 		addq	$8, %rsp
 1719              		.cfi_remember_state
 1720              		.cfi_def_cfa_offset 24
 1721 001c 4889DF   		movq	%rbx, %rdi
 1722 001f 5B       		popq	%rbx
 1723              		.cfi_def_cfa_offset 16
 1724 0020 5D       		popq	%rbp
 1725              		.cfi_def_cfa_offset 8
 1726 0021 E9000000 		jmp	_ZdlPv@PLT
 1726      00
 1727              	.L117:
 1728              		.cfi_restore_state
 1729 0026 4889C5   		movq	%rax, %rbp
 1730 0029 4889DF   		movq	%rbx, %rdi
 1731 002c E8000000 		call	_ZdlPv@PLT
 1731      00
 1732 0031 4889EF   		movq	%rbp, %rdi
 1733              	.LEHB43:
 1734 0034 E8000000 		call	_Unwind_Resume@PLT
 1734      00
 1735              	.LEHE43:
 1736              		.cfi_endproc
 1737              	.LFE1569:
 1738              		.section	.gcc_except_table
 1739              	.LLSDA1569:
 1740 00fc FF       		.byte	0xff
 1741 00fd FF       		.byte	0xff
 1742 00fe 01       		.byte	0x1
 1743 00ff 08       		.uleb128 .LLSDACSE1569-.LLSDACSB1569
 1744              	.LLSDACSB1569:
 1745 0100 13       		.uleb128 .LEHB42-.LFB1569
 1746 0101 05       		.uleb128 .LEHE42-.LEHB42
 1747 0102 26       		.uleb128 .L117-.LFB1569
 1748 0103 00       		.uleb128 0
 1749 0104 34       		.uleb128 .LEHB43-.LFB1569
 1750 0105 05       		.uleb128 .LEHE43-.LEHB43
 1751 0106 00       		.uleb128 0
 1752 0107 00       		.uleb128 0
 1753              	.LLSDACSE1569:
 1754              		.section	.text._ZN17RecordingReporterD0Ev,"axG",@progbits,_ZN17RecordingReporterD5Ev,comdat
 1756              		.section	.text.unlikely,"ax",@progbits
 1757              		.align 2
 1759              	_ZN12_GLOBAL__N_111FixtureBaseD2Ev:
 1760              	.LFB1163:
 1761              		.cfi_startproc
 1762              		.cfi_personality 0x9b,DW.ref.__gxx_personality_v0
 1763              		.cfi_lsda 0x1b,.LLSDA1163
 1764 0000 55       		pushq	%rbp
 1765              		.cfi_def_cfa_offset 16
 1766              		.cfi_offset 6, -16
 1767 0001 488D0500 		leaq	16+_ZTV17RecordingReporter(%rip), %rax
 1767      000000
 1768 0008 53       		pushq	%rbx
 1769              		.cfi_def_cfa_offset 24
 1770              		.cfi_offset 3, -24
 1771 0009 4889FB   		movq	%rdi, %rbx
 1772 000c 488D7F18 		leaq	24(%rdi), %rdi
 1773 0010 4883EC08 		subq	$8, %rsp
 1774              		.cfi_def_cfa_offset 32
 1775 0014 488907   		movq	%rax, (%rdi)
 1776              	.LEHB44:
 1777 0017 E8000000 		call	_ZN8UnitTest12TestReporterD2Ev@PLT
 1777      00
 1778              	.LEHE44:
 1779 001c 58       		popq	%rax
 1780              		.cfi_remember_state
 1781              		.cfi_def_cfa_offset 24
 1782 001d 4889DF   		movq	%rbx, %rdi
 1783 0020 5B       		popq	%rbx
 1784              		.cfi_def_cfa_offset 16
 1785 0021 5D       		popq	%rbp
 1786              		.cfi_def_cfa_offset 8
 1787              	.LEHB45:
 1788 0022 E9000000 		jmp	_ZN8UnitTest10TestRunnerD1Ev@PLT
 1788      00
 1789              	.LEHE45:
 1790              	.L121:
 1791              		.cfi_restore_state
 1792 0027 4889C5   		movq	%rax, %rbp
 1793 002a 4889DF   		movq	%rbx, %rdi
 1794 002d E8000000 		call	_ZN8UnitTest10TestRunnerD1Ev@PLT
 1794      00
 1795 0032 4889EF   		movq	%rbp, %rdi
 1796              	.LEHB46:
 1797 0035 E8000000 		call	_Unwind_Resume@PLT
 1797      00
 1798              	.LEHE46:
 1799              		.cfi_endproc
 1800              	.LFE1163:
 1801              		.section	.gcc_except_table
 1802              	.LLSDA1163:
 1803 0108 FF       		.byte	0xff
 1804 0109 FF       		.byte	0xff
 1805 010a 01       		.byte	0x1
 1806 010b 0C       		.uleb128 .LLSDACSE1163-.LLSDACSB1163
 1807              	.LLSDACSB1163:
 1808 010c 17       		.uleb128 .LEHB44-.LFB1163
 1809 010d 05       		.uleb128 .LEHE44-.LEHB44
 1810 010e 27       		.uleb128 .L121-.LFB1163
 1811 010f 00       		.uleb128 0
 1812 0110 22       		.uleb128 .LEHB45-.LFB1163
 1813 0111 05       		.uleb128 .LEHE45-.LEHB45
 1814 0112 00       		.uleb128 0
 1815 0113 00       		.uleb128 0
 1816 0114 35       		.uleb128 .LEHB46-.LFB1163
 1817 0115 05       		.uleb128 .LEHE46-.LEHB46
 1818 0116 00       		.uleb128 0
 1819 0117 00       		.uleb128 0
 1820              	.LLSDACSE1163:
 1821              		.section	.text.unlikely
 1823              		.text
 1824 0689 90       		.align 2
 1825 068a 660F1F44 		.p2align 4,,15
 1825      0000
 1827              	_ZZN12_GLOBAL__N_154TestRunnerFixtureSlowTestWithTimeExemptionPassesHelper7RunImplEvENK16SlowExempt
 1828              	.LFB1319:
 1829              		.cfi_startproc
 1830 0690 C6473001 		movb	$1, 48(%rdi)
 1831 0694 BF140000 		movl	$20, %edi
 1831      00
 1832 0699 E9000000 		jmp	_ZN8UnitTest11TimeHelpers7SleepMsEi@PLT
 1832      00
 1833              		.cfi_endproc
 1834              	.LFE1319:
 1836              		.align 2
 1837 069e 6690     		.p2align 4,,15
 1839              	_ZNK12_GLOBAL__N_18SlowTest7RunImplEv:
 1840              	.LFB1194:
 1841              		.cfi_startproc
 1842 06a0 BF140000 		movl	$20, %edi
 1842      00
 1843 06a5 E9000000 		jmp	_ZN8UnitTest11TimeHelpers7SleepMsEi@PLT
 1843      00
 1844              		.cfi_endproc
 1845              	.LFE1194:
 1847              		.section	.rodata.str1.1,"aMS",@progbits,1
 1848              	.LC0:
 1849 0000 66696C65 		.string	"file"
 1849      00
 1850              	.LC1:
 1851 0005 64657363 		.string	"desc"
 1851      00
 1852              	.LC2:
 1853 000a 6D657373 		.string	"message"
 1853      61676500 
 1854              		.text
 1855              		.align 2
 1856 06aa 660F1F44 		.p2align 4,,15
 1856      0000
 1858              	_ZNK12_GLOBAL__N_18MockTest7RunImplEv:
 1859              	.LFB1155:
 1860              		.cfi_startproc
 1861 06b0 4155     		pushq	%r13
 1862              		.cfi_def_cfa_offset 16
 1863              		.cfi_offset 13, -16
 1864 06b2 4154     		pushq	%r12
 1865              		.cfi_def_cfa_offset 24
 1866              		.cfi_offset 12, -24
 1867 06b4 55       		pushq	%rbp
 1868              		.cfi_def_cfa_offset 32
 1869              		.cfi_offset 6, -32
 1870 06b5 53       		pushq	%rbx
 1871              		.cfi_def_cfa_offset 40
 1872              		.cfi_offset 3, -40
 1873 06b6 4889FD   		movq	%rdi, %rbp
 1874 06b9 4883EC08 		subq	$8, %rsp
 1875              		.cfi_def_cfa_offset 48
 1876 06bd E8000000 		call	_ZN8UnitTest11CurrentTest7ResultsEv@PLT
 1876      00
 1877 06c2 4C8B20   		movq	(%rax), %r12
 1878 06c5 8B4534   		movl	52(%rbp), %eax
 1879 06c8 85C0     		testl	%eax, %eax
 1880 06ca 7E3E     		jle	.L125
 1881 06cc 31DB     		xorl	%ebx, %ebx
 1882 06ce 4C8D6D08 		leaq	8(%rbp), %r13
 1883 06d2 EB11     		jmp	.L129
 1884              		.p2align 4,,10
 1885 06d4 0F1F4000 		.p2align 3
 1886              	.L127:
 1887 06d8 807D3100 		cmpb	$0, 49(%rbp)
 1888 06dc 743A     		je	.L132
 1889              	.L128:
 1890 06de 83C301   		addl	$1, %ebx
 1891 06e1 39C3     		cmpl	%eax, %ebx
 1892 06e3 7D25     		jge	.L125
 1893              	.L129:
 1894 06e5 807D3200 		cmpb	$0, 50(%rbp)
 1895 06e9 74ED     		je	.L127
 1896 06eb 488D3500 		leaq	.LC0(%rip), %rsi
 1896      000000
 1897 06f2 488D3D00 		leaq	.LC1(%rip), %rdi
 1897      000000
 1898 06f9 31D2     		xorl	%edx, %edx
 1899 06fb 83C301   		addl	$1, %ebx
 1900 06fe E8000000 		call	_ZN8UnitTest12ReportAssertEPKcS1_i@PLT
 1900      00
 1901 0703 8B4534   		movl	52(%rbp), %eax
 1902 0706 39C3     		cmpl	%eax, %ebx
 1903 0708 7CDB     		jl	.L129
 1904              	.L125:
 1905 070a 4883C408 		addq	$8, %rsp
 1906              		.cfi_remember_state
 1907              		.cfi_def_cfa_offset 40
 1908 070e 5B       		popq	%rbx
 1909              		.cfi_def_cfa_offset 32
 1910 070f 5D       		popq	%rbp
 1911              		.cfi_def_cfa_offset 24
 1912 0710 415C     		popq	%r12
 1913              		.cfi_def_cfa_offset 16
 1914 0712 415D     		popq	%r13
 1915              		.cfi_def_cfa_offset 8
 1916 0714 C3       		ret
 1917              		.p2align 4,,10
 1918 0715 0F1F00   		.p2align 3
 1919              	.L132:
 1920              		.cfi_restore_state
 1921 0718 488D1500 		leaq	.LC2(%rip), %rdx
 1921      000000
 1922 071f 4C89EE   		movq	%r13, %rsi
 1923 0722 4C89E7   		movq	%r12, %rdi
 1924 0725 E8000000 		call	_ZN8UnitTest11TestResults13OnTestFailureERKNS_11TestDetailsEPKc@PLT
 1924      00
 1925 072a 8B4534   		movl	52(%rbp), %eax
 1926 072d EBAF     		jmp	.L128
 1927              		.cfi_endproc
 1928              	.LFE1155:
 1930              		.section	.text._ZN8UnitTest15MemoryOutStreamD1Ev,"axG",@progbits,_ZN8UnitTest15MemoryOutStreamD1Ev
 1931              		.align 2
 1932              		.p2align 4,,15
 1933              		.weak	_ZN8UnitTest15MemoryOutStreamD1Ev
 1935              	_ZN8UnitTest15MemoryOutStreamD1Ev:
 1936              	.LFB1572:
 1937              		.cfi_startproc
 1938 0000 55       		pushq	%rbp
 1939              		.cfi_def_cfa_offset 16
 1940              		.cfi_offset 6, -16
 1941 0001 488D0500 		leaq	24+_ZTVN8UnitTest15MemoryOutStreamE(%rip), %rax
 1941      000000
 1942 0008 53       		pushq	%rbx
 1943              		.cfi_def_cfa_offset 24
 1944              		.cfi_offset 3, -24
 1945 0009 4889FB   		movq	%rdi, %rbx
 1946 000c 4883EC08 		subq	$8, %rsp
 1947              		.cfi_def_cfa_offset 32
 1948 0010 488907   		movq	%rax, (%rdi)
 1949 0013 4883C028 		addq	$40, %rax
 1950 0017 48898790 		movq	%rax, 144(%rdi)
 1950      000000
 1951 001e 488B7F70 		movq	112(%rdi), %rdi
 1952 0022 488D8380 		leaq	128(%rbx), %rax
 1952      000000
 1953 0029 4839C7   		cmpq	%rax, %rdi
 1954 002c 7405     		je	.L134
 1955 002e E8000000 		call	_ZdlPv@PLT
 1955      00
 1956              	.L134:
 1957 0033 488D0500 		leaq	24+_ZTCN8UnitTest15MemoryOutStreamE0_NSt7__cxx1119basic_ostringstreamIcSt11char_traitsIcESaIc
 1957      000000
 1958 003a 488B7B50 		movq	80(%rbx), %rdi
 1959 003e 488DAB90 		leaq	144(%rbx), %rbp
 1959      000000
 1960 0045 488903   		movq	%rax, (%rbx)
 1961 0048 4883C028 		addq	$40, %rax
 1962 004c 48898390 		movq	%rax, 144(%rbx)
 1962      000000
 1963 0053 488D0500 		leaq	16+_ZTVNSt7__cxx1115basic_stringbufIcSt11char_traitsIcESaIcEEE(%rip), %rax
 1963      000000
 1964 005a 48894308 		movq	%rax, 8(%rbx)
 1965 005e 488D4360 		leaq	96(%rbx), %rax
 1966 0062 4839C7   		cmpq	%rax, %rdi
 1967 0065 7405     		je	.L135
 1968 0067 E8000000 		call	_ZdlPv@PLT
 1968      00
 1969              	.L135:
 1970 006c 488D0500 		leaq	16+_ZTVSt15basic_streambufIcSt11char_traitsIcEE(%rip), %rax
 1970      000000
 1971 0073 488D7B40 		leaq	64(%rbx), %rdi
 1972 0077 48894308 		movq	%rax, 8(%rbx)
 1973 007b E8000000 		call	_ZNSt6localeD1Ev@PLT
 1973      00
 1974 0080 488D0500 		leaq	24+_ZTCN8UnitTest15MemoryOutStreamE0_So(%rip), %rax
 1974      000000
 1975 0087 4889EF   		movq	%rbp, %rdi
 1976 008a 488903   		movq	%rax, (%rbx)
 1977 008d 488D0500 		leaq	16+_ZTVSt9basic_iosIcSt11char_traitsIcEE(%rip), %rax
 1977      000000
 1978 0094 48898390 		movq	%rax, 144(%rbx)
 1978      000000
 1979 009b 4883C408 		addq	$8, %rsp
 1980              		.cfi_def_cfa_offset 24
 1981 009f 5B       		popq	%rbx
 1982              		.cfi_def_cfa_offset 16
 1983 00a0 5D       		popq	%rbp
 1984              		.cfi_def_cfa_offset 8
 1985 00a1 E9000000 		jmp	_ZNSt8ios_baseD2Ev@PLT
 1985      00
 1986              		.cfi_endproc
 1987              	.LFE1572:
 1989              		.section	.text._ZN8UnitTest15MemoryOutStreamD0Ev,"axG",@progbits,_ZN8UnitTest15MemoryOutStreamD0Ev
 1990              		.p2align 4,,15
 1991              		.weak	_ZTv0_n24_N8UnitTest15MemoryOutStreamD0Ev
 1993              	_ZTv0_n24_N8UnitTest15MemoryOutStreamD0Ev:
 1994              	.LFB1592:
 1995              		.cfi_startproc
 1996              		.cfi_personality 0x9b,DW.ref.__gxx_personality_v0
 1997              		.cfi_lsda 0x1b,.LLSDA1592
 1998 0000 55       		pushq	%rbp
 1999              		.cfi_def_cfa_offset 16
 2000              		.cfi_offset 6, -16
 2001 0001 53       		pushq	%rbx
 2002              		.cfi_def_cfa_offset 24
 2003              		.cfi_offset 3, -24
 2004 0002 4883EC08 		subq	$8, %rsp
 2005              		.cfi_def_cfa_offset 32
 2006 0006 488B07   		movq	(%rdi), %rax
 2007 0009 480378E8 		addq	-24(%rax), %rdi
 2008 000d 488D0500 		leaq	24+_ZTVN8UnitTest15MemoryOutStreamE(%rip), %rax
 2008      000000
 2009 0014 488907   		movq	%rax, (%rdi)
 2010 0017 4883C028 		addq	$40, %rax
 2011 001b 4889FB   		movq	%rdi, %rbx
 2012 001e 48898790 		movq	%rax, 144(%rdi)
 2012      000000
 2013 0025 488B7F70 		movq	112(%rdi), %rdi
 2014 0029 488D8380 		leaq	128(%rbx), %rax
 2014      000000
 2015 0030 4839C7   		cmpq	%rax, %rdi
 2016 0033 7405     		je	.L138
 2017 0035 E8000000 		call	_ZdlPv@PLT
 2017      00
 2018              	.L138:
 2019 003a 488D0500 		leaq	24+_ZTCN8UnitTest15MemoryOutStreamE0_NSt7__cxx1119basic_ostringstreamIcSt11char_traitsIcESaIc
 2019      000000
 2020 0041 488B7B50 		movq	80(%rbx), %rdi
 2021 0045 488DAB90 		leaq	144(%rbx), %rbp
 2021      000000
 2022 004c 488903   		movq	%rax, (%rbx)
 2023 004f 4883C028 		addq	$40, %rax
 2024 0053 48898390 		movq	%rax, 144(%rbx)
 2024      000000
 2025 005a 488D0500 		leaq	16+_ZTVNSt7__cxx1115basic_stringbufIcSt11char_traitsIcESaIcEEE(%rip), %rax
 2025      000000
 2026 0061 48894308 		movq	%rax, 8(%rbx)
 2027 0065 488D4360 		leaq	96(%rbx), %rax
 2028 0069 4839C7   		cmpq	%rax, %rdi
 2029 006c 7405     		je	.L139
 2030 006e E8000000 		call	_ZdlPv@PLT
 2030      00
 2031              	.L139:
 2032 0073 488D0500 		leaq	16+_ZTVSt15basic_streambufIcSt11char_traitsIcEE(%rip), %rax
 2032      000000
 2033 007a 488D7B40 		leaq	64(%rbx), %rdi
 2034 007e 48894308 		movq	%rax, 8(%rbx)
 2035 0082 E8000000 		call	_ZNSt6localeD1Ev@PLT
 2035      00
 2036 0087 488D0500 		leaq	24+_ZTCN8UnitTest15MemoryOutStreamE0_So(%rip), %rax
 2036      000000
 2037 008e 4889EF   		movq	%rbp, %rdi
 2038 0091 488903   		movq	%rax, (%rbx)
 2039 0094 488D0500 		leaq	16+_ZTVSt9basic_iosIcSt11char_traitsIcEE(%rip), %rax
 2039      000000
 2040 009b 48898390 		movq	%rax, 144(%rbx)
 2040      000000
 2041              	.LEHB47:
 2042 00a2 E8000000 		call	_ZNSt8ios_baseD2Ev@PLT
 2042      00
 2043              	.LEHE47:
 2044 00a7 4883C408 		addq	$8, %rsp
 2045              		.cfi_remember_state
 2046              		.cfi_def_cfa_offset 24
 2047 00ab 4889DF   		movq	%rbx, %rdi
 2048 00ae 5B       		popq	%rbx
 2049              		.cfi_def_cfa_offset 16
 2050 00af 5D       		popq	%rbp
 2051              		.cfi_def_cfa_offset 8
 2052 00b0 E9000000 		jmp	_ZdlPv@PLT
 2052      00
 2053              	.L141:
 2054              		.cfi_restore_state
 2055 00b5 4889C5   		movq	%rax, %rbp
 2056 00b8 4889DF   		movq	%rbx, %rdi
 2057 00bb E8000000 		call	_ZdlPv@PLT
 2057      00
 2058 00c0 4889EF   		movq	%rbp, %rdi
 2059              	.LEHB48:
 2060 00c3 E8000000 		call	_Unwind_Resume@PLT
 2060      00
 2061              	.LEHE48:
 2062              		.cfi_endproc
 2063              	.LFE1592:
 2064              		.section	.gcc_except_table
 2065              	.LLSDA1592:
 2066 0118 FF       		.byte	0xff
 2067 0119 FF       		.byte	0xff
 2068 011a 01       		.byte	0x1
 2069 011b 0B       		.uleb128 .LLSDACSE1592-.LLSDACSB1592
 2070              	.LLSDACSB1592:
 2071 011c A201     		.uleb128 .LEHB47-.LFB1592
 2072 011e 05       		.uleb128 .LEHE47-.LEHB47
 2073 011f B501     		.uleb128 .L141-.LFB1592
 2074 0121 00       		.uleb128 0
 2075 0122 C301     		.uleb128 .LEHB48-.LFB1592
 2076 0124 05       		.uleb128 .LEHE48-.LEHB48
 2077 0125 00       		.uleb128 0
 2078 0126 00       		.uleb128 0
 2079              	.LLSDACSE1592:
 2080              		.section	.text._ZN8UnitTest15MemoryOutStreamD0Ev,"axG",@progbits,_ZN8UnitTest15MemoryOutStreamD0Ev
 2082              		.section	.text._ZN8UnitTest15MemoryOutStreamD1Ev,"axG",@progbits,_ZN8UnitTest15MemoryOutStreamD1Ev
 2083 00a6 662E0F1F 		.p2align 4,,15
 2083      84000000 
 2083      0000
 2084              		.weak	_ZTv0_n24_N8UnitTest15MemoryOutStreamD1Ev
 2086              	_ZTv0_n24_N8UnitTest15MemoryOutStreamD1Ev:
 2087              	.LFB1593:
 2088              		.cfi_startproc
 2089 00b0 55       		pushq	%rbp
 2090              		.cfi_def_cfa_offset 16
 2091              		.cfi_offset 6, -16
 2092 00b1 53       		pushq	%rbx
 2093              		.cfi_def_cfa_offset 24
 2094              		.cfi_offset 3, -24
 2095 00b2 4883EC08 		subq	$8, %rsp
 2096              		.cfi_def_cfa_offset 32
 2097 00b6 488B07   		movq	(%rdi), %rax
 2098 00b9 480378E8 		addq	-24(%rax), %rdi
 2099 00bd 488D0500 		leaq	24+_ZTVN8UnitTest15MemoryOutStreamE(%rip), %rax
 2099      000000
 2100 00c4 488907   		movq	%rax, (%rdi)
 2101 00c7 4883C028 		addq	$40, %rax
 2102 00cb 4889FB   		movq	%rdi, %rbx
 2103 00ce 48898790 		movq	%rax, 144(%rdi)
 2103      000000
 2104 00d5 488B7F70 		movq	112(%rdi), %rdi
 2105 00d9 488D8380 		leaq	128(%rbx), %rax
 2105      000000
 2106 00e0 4839C7   		cmpq	%rax, %rdi
 2107 00e3 7405     		je	.L144
 2108 00e5 E8000000 		call	_ZdlPv@PLT
 2108      00
 2109              	.L144:
 2110 00ea 488D0500 		leaq	24+_ZTCN8UnitTest15MemoryOutStreamE0_NSt7__cxx1119basic_ostringstreamIcSt11char_traitsIcESaIc
 2110      000000
 2111 00f1 488B7B50 		movq	80(%rbx), %rdi
 2112 00f5 488DAB90 		leaq	144(%rbx), %rbp
 2112      000000
 2113 00fc 488903   		movq	%rax, (%rbx)
 2114 00ff 4883C028 		addq	$40, %rax
 2115 0103 48898390 		movq	%rax, 144(%rbx)
 2115      000000
 2116 010a 488D0500 		leaq	16+_ZTVNSt7__cxx1115basic_stringbufIcSt11char_traitsIcESaIcEEE(%rip), %rax
 2116      000000
 2117 0111 48894308 		movq	%rax, 8(%rbx)
 2118 0115 488D4360 		leaq	96(%rbx), %rax
 2119 0119 4839C7   		cmpq	%rax, %rdi
 2120 011c 7405     		je	.L145
 2121 011e E8000000 		call	_ZdlPv@PLT
 2121      00
 2122              	.L145:
 2123 0123 488D0500 		leaq	16+_ZTVSt15basic_streambufIcSt11char_traitsIcEE(%rip), %rax
 2123      000000
 2124 012a 488D7B40 		leaq	64(%rbx), %rdi
 2125 012e 48894308 		movq	%rax, 8(%rbx)
 2126 0132 E8000000 		call	_ZNSt6localeD1Ev@PLT
 2126      00
 2127 0137 488D0500 		leaq	24+_ZTCN8UnitTest15MemoryOutStreamE0_So(%rip), %rax
 2127      000000
 2128 013e 4889EF   		movq	%rbp, %rdi
 2129 0141 488903   		movq	%rax, (%rbx)
 2130 0144 488D0500 		leaq	16+_ZTVSt9basic_iosIcSt11char_traitsIcEE(%rip), %rax
 2130      000000
 2131 014b 48898390 		movq	%rax, 144(%rbx)
 2131      000000
 2132 0152 4883C408 		addq	$8, %rsp
 2133              		.cfi_def_cfa_offset 24
 2134 0156 5B       		popq	%rbx
 2135              		.cfi_def_cfa_offset 16
 2136 0157 5D       		popq	%rbp
 2137              		.cfi_def_cfa_offset 8
 2138 0158 E9000000 		jmp	_ZNSt8ios_baseD2Ev@PLT
 2138      00
 2139              		.cfi_endproc
 2140              	.LFE1593:
 2142              		.section	.text._ZN8UnitTest15MemoryOutStreamD0Ev,"axG",@progbits,_ZN8UnitTest15MemoryOutStreamD0Ev
 2143              		.align 2
 2144 00c8 0F1F8400 		.p2align 4,,15
 2144      00000000 
 2145              		.weak	_ZN8UnitTest15MemoryOutStreamD0Ev
 2147              	_ZN8UnitTest15MemoryOutStreamD0Ev:
 2148              	.LFB1573:
 2149              		.cfi_startproc
 2150              		.cfi_personality 0x9b,DW.ref.__gxx_personality_v0
 2151              		.cfi_lsda 0x1b,.LLSDA1573
 2152 00d0 55       		pushq	%rbp
 2153              		.cfi_def_cfa_offset 16
 2154              		.cfi_offset 6, -16
 2155 00d1 488D0500 		leaq	24+_ZTVN8UnitTest15MemoryOutStreamE(%rip), %rax
 2155      000000
 2156 00d8 53       		pushq	%rbx
 2157              		.cfi_def_cfa_offset 24
 2158              		.cfi_offset 3, -24
 2159 00d9 4889FB   		movq	%rdi, %rbx
 2160 00dc 4883EC08 		subq	$8, %rsp
 2161              		.cfi_def_cfa_offset 32
 2162 00e0 488907   		movq	%rax, (%rdi)
 2163 00e3 4883C028 		addq	$40, %rax
 2164 00e7 48898790 		movq	%rax, 144(%rdi)
 2164      000000
 2165 00ee 488B7F70 		movq	112(%rdi), %rdi
 2166 00f2 488D8380 		leaq	128(%rbx), %rax
 2166      000000
 2167 00f9 4839C7   		cmpq	%rax, %rdi
 2168 00fc 7405     		je	.L148
 2169 00fe E8000000 		call	_ZdlPv@PLT
 2169      00
 2170              	.L148:
 2171 0103 488D0500 		leaq	24+_ZTCN8UnitTest15MemoryOutStreamE0_NSt7__cxx1119basic_ostringstreamIcSt11char_traitsIcESaIc
 2171      000000
 2172 010a 488B7B50 		movq	80(%rbx), %rdi
 2173 010e 488DAB90 		leaq	144(%rbx), %rbp
 2173      000000
 2174 0115 488903   		movq	%rax, (%rbx)
 2175 0118 4883C028 		addq	$40, %rax
 2176 011c 48898390 		movq	%rax, 144(%rbx)
 2176      000000
 2177 0123 488D0500 		leaq	16+_ZTVNSt7__cxx1115basic_stringbufIcSt11char_traitsIcESaIcEEE(%rip), %rax
 2177      000000
 2178 012a 48894308 		movq	%rax, 8(%rbx)
 2179 012e 488D4360 		leaq	96(%rbx), %rax
 2180 0132 4839C7   		cmpq	%rax, %rdi
 2181 0135 7405     		je	.L149
 2182 0137 E8000000 		call	_ZdlPv@PLT
 2182      00
 2183              	.L149:
 2184 013c 488D0500 		leaq	16+_ZTVSt15basic_streambufIcSt11char_traitsIcEE(%rip), %rax
 2184      000000
 2185 0143 488D7B40 		leaq	64(%rbx), %rdi
 2186 0147 48894308 		movq	%rax, 8(%rbx)
 2187 014b E8000000 		call	_ZNSt6localeD1Ev@PLT
 2187      00
 2188 0150 488D0500 		leaq	24+_ZTCN8UnitTest15MemoryOutStreamE0_So(%rip), %rax
 2188      000000
 2189 0157 4889EF   		movq	%rbp, %rdi
 2190 015a 488903   		movq	%rax, (%rbx)
 2191 015d 488D0500 		leaq	16+_ZTVSt9basic_iosIcSt11char_traitsIcEE(%rip), %rax
 2191      000000
 2192 0164 48898390 		movq	%rax, 144(%rbx)
 2192      000000
 2193              	.LEHB49:
 2194 016b E8000000 		call	_ZNSt8ios_baseD2Ev@PLT
 2194      00
 2195              	.LEHE49:
 2196 0170 4883C408 		addq	$8, %rsp
 2197              		.cfi_remember_state
 2198              		.cfi_def_cfa_offset 24
 2199 0174 4889DF   		movq	%rbx, %rdi
 2200 0177 5B       		popq	%rbx
 2201              		.cfi_def_cfa_offset 16
 2202 0178 5D       		popq	%rbp
 2203              		.cfi_def_cfa_offset 8
 2204 0179 E9000000 		jmp	_ZdlPv@PLT
 2204      00
 2205              	.L151:
 2206              		.cfi_restore_state
 2207 017e 4889C5   		movq	%rax, %rbp
 2208 0181 4889DF   		movq	%rbx, %rdi
 2209 0184 E8000000 		call	_ZdlPv@PLT
 2209      00
 2210 0189 4889EF   		movq	%rbp, %rdi
 2211              	.LEHB50:
 2212 018c E8000000 		call	_Unwind_Resume@PLT
 2212      00
 2213              	.LEHE50:
 2214              		.cfi_endproc
 2215              	.LFE1573:
 2216              		.section	.gcc_except_table
 2217              	.LLSDA1573:
 2218 0127 FF       		.byte	0xff
 2219 0128 FF       		.byte	0xff
 2220 0129 01       		.byte	0x1
 2221 012a 0B       		.uleb128 .LLSDACSE1573-.LLSDACSB1573
 2222              	.LLSDACSB1573:
 2223 012b 9B01     		.uleb128 .LEHB49-.LFB1573
 2224 012d 05       		.uleb128 .LEHE49-.LEHB49
 2225 012e AE01     		.uleb128 .L151-.LFB1573
 2226 0130 00       		.uleb128 0
 2227 0131 BC01     		.uleb128 .LEHB50-.LFB1573
 2228 0133 05       		.uleb128 .LEHE50-.LEHB50
 2229 0134 00       		.uleb128 0
 2230 0135 00       		.uleb128 0
 2231              	.LLSDACSE1573:
 2232              		.section	.text._ZN8UnitTest15MemoryOutStreamD0Ev,"axG",@progbits,_ZN8UnitTest15MemoryOutStreamD0Ev
 2234              		.section	.text._ZNSt7__cxx1115basic_stringbufIcSt11char_traitsIcESaIcEED2Ev,"axG",@progbits,_ZNSt7
 2235              		.align 2
 2236              		.p2align 4,,15
 2237              		.weak	_ZNSt7__cxx1115basic_stringbufIcSt11char_traitsIcESaIcEED2Ev
 2239              	_ZNSt7__cxx1115basic_stringbufIcSt11char_traitsIcESaIcEED2Ev:
 2240              	.LFB1387:
 2241              		.cfi_startproc
 2242 0000 488D0500 		leaq	16+_ZTVNSt7__cxx1115basic_stringbufIcSt11char_traitsIcESaIcEEE(%rip), %rax
 2242      000000
 2243 0007 53       		pushq	%rbx
 2244              		.cfi_def_cfa_offset 16
 2245              		.cfi_offset 3, -16
 2246 0008 4889FB   		movq	%rdi, %rbx
 2247 000b 488907   		movq	%rax, (%rdi)
 2248 000e 488B7F48 		movq	72(%rdi), %rdi
 2249 0012 488D4358 		leaq	88(%rbx), %rax
 2250 0016 4839C7   		cmpq	%rax, %rdi
 2251 0019 7405     		je	.L154
 2252 001b E8000000 		call	_ZdlPv@PLT
 2252      00
 2253              	.L154:
 2254 0020 488D0500 		leaq	16+_ZTVSt15basic_streambufIcSt11char_traitsIcEE(%rip), %rax
 2254      000000
 2255 0027 488D7B38 		leaq	56(%rbx), %rdi
 2256 002b 488903   		movq	%rax, (%rbx)
 2257 002e 5B       		popq	%rbx
 2258              		.cfi_def_cfa_offset 8
 2259 002f E9000000 		jmp	_ZNSt6localeD1Ev@PLT
 2259      00
 2260              		.cfi_endproc
 2261              	.LFE1387:
 2263              		.weak	_ZNSt7__cxx1115basic_stringbufIcSt11char_traitsIcESaIcEED1Ev
 2264              		.set	_ZNSt7__cxx1115basic_stringbufIcSt11char_traitsIcESaIcEED1Ev,_ZNSt7__cxx1115basic_stringbufIc
 2265              		.section	.text._ZN8UnitTest15MemoryOutStreamC1Ev,"axG",@progbits,_ZN8UnitTest15MemoryOutStreamC1Ev
 2266              		.align 2
 2267              		.p2align 4,,15
 2268              		.weak	_ZN8UnitTest15MemoryOutStreamC1Ev
 2270              	_ZN8UnitTest15MemoryOutStreamC1Ev:
 2271              	.LFB1103:
 2272              		.cfi_startproc
 2273              		.cfi_personality 0x9b,DW.ref.__gxx_personality_v0
 2274              		.cfi_lsda 0x1b,.LLSDA1103
 2275 0000 4156     		pushq	%r14
 2276              		.cfi_def_cfa_offset 16
 2277              		.cfi_offset 14, -16
 2278 0002 4155     		pushq	%r13
 2279              		.cfi_def_cfa_offset 24
 2280              		.cfi_offset 13, -24
 2281 0004 4154     		pushq	%r12
 2282              		.cfi_def_cfa_offset 32
 2283              		.cfi_offset 12, -32
 2284 0006 55       		pushq	%rbp
 2285              		.cfi_def_cfa_offset 40
 2286              		.cfi_offset 6, -40
 2287 0007 488DAF90 		leaq	144(%rdi), %rbp
 2287      000000
 2288 000e 53       		pushq	%rbx
 2289              		.cfi_def_cfa_offset 48
 2290              		.cfi_offset 3, -48
 2291 000f 4C8D2500 		leaq	24+_ZTCN8UnitTest15MemoryOutStreamE0_So(%rip), %r12
 2291      000000
 2292 0016 4889FB   		movq	%rdi, %rbx
 2293 0019 4889EF   		movq	%rbp, %rdi
 2294 001c E8000000 		call	_ZNSt8ios_baseC2Ev@PLT
 2294      00
 2295 0021 498D4424 		leaq	40(%r12), %rax
 2295      28
 2296 0026 48C78368 		movq	$0, 360(%rbx)
 2296      01000000 
 2296      000000
 2297 0031 C6837001 		movb	$0, 368(%rbx)
 2297      000000
 2298 0038 C6837101 		movb	$0, 369(%rbx)
 2298      000000
 2299 003f 48C78378 		movq	$0, 376(%rbx)
 2299      01000000 
 2299      000000
 2300 004a 31F6     		xorl	%esi, %esi
 2301 004c 48C78380 		movq	$0, 384(%rbx)
 2301      01000000 
 2301      000000
 2302 0057 48C78388 		movq	$0, 392(%rbx)
 2302      01000000 
 2302      000000
 2303 0062 4889EF   		movq	%rbp, %rdi
 2304 0065 48C78390 		movq	$0, 400(%rbx)
 2304      01000000 
 2304      000000
 2305 0070 4C8923   		movq	%r12, (%rbx)
 2306 0073 48898390 		movq	%rax, 144(%rbx)
 2306      000000
 2307              	.LEHB51:
 2308 007a E8000000 		call	_ZNSt9basic_iosIcSt11char_traitsIcEE4initEPSt15basic_streambufIcS1_E@PLT
 2308      00
 2309              	.LEHE51:
 2310 007f 488D0500 		leaq	24+_ZTCN8UnitTest15MemoryOutStreamE0_NSt7__cxx1119basic_ostringstreamIcSt11char_traitsIcESaIc
 2310      000000
 2311 0086 488D7B40 		leaq	64(%rbx), %rdi
 2312 008a 48C74310 		movq	$0, 16(%rbx)
 2312      00000000 
 2313 0092 48C74318 		movq	$0, 24(%rbx)
 2313      00000000 
 2314 009a 48C74320 		movq	$0, 32(%rbx)
 2314      00000000 
 2315 00a2 4C8D6B08 		leaq	8(%rbx), %r13
 2316 00a6 488903   		movq	%rax, (%rbx)
 2317 00a9 4883C028 		addq	$40, %rax
 2318 00ad 48C74328 		movq	$0, 40(%rbx)
 2318      00000000 
 2319 00b5 48898390 		movq	%rax, 144(%rbx)
 2319      000000
 2320 00bc 488D0500 		leaq	16+_ZTVSt15basic_streambufIcSt11char_traitsIcEE(%rip), %rax
 2320      000000
 2321 00c3 48C74330 		movq	$0, 48(%rbx)
 2321      00000000 
 2322 00cb 48C74338 		movq	$0, 56(%rbx)
 2322      00000000 
 2323 00d3 48894308 		movq	%rax, 8(%rbx)
 2324 00d7 E8000000 		call	_ZNSt6localeC1Ev@PLT
 2324      00
 2325 00dc 488D0500 		leaq	16+_ZTVNSt7__cxx1115basic_stringbufIcSt11char_traitsIcESaIcEEE(%rip), %rax
 2325      000000
 2326 00e3 C7434810 		movl	$16, 72(%rbx)
 2326      000000
 2327 00ea 48C74358 		movq	$0, 88(%rbx)
 2327      00000000 
 2328 00f2 C6436000 		movb	$0, 96(%rbx)
 2329 00f6 4C89EE   		movq	%r13, %rsi
 2330 00f9 48894308 		movq	%rax, 8(%rbx)
 2331 00fd 488D4360 		leaq	96(%rbx), %rax
 2332 0101 48894350 		movq	%rax, 80(%rbx)
 2333 0105 488B03   		movq	(%rbx), %rax
 2334 0108 488B78E8 		movq	-24(%rax), %rdi
 2335 010c 4801DF   		addq	%rbx, %rdi
 2336              	.LEHB52:
 2337 010f E8000000 		call	_ZNSt9basic_iosIcSt11char_traitsIcEE4initEPSt15basic_streambufIcS1_E@PLT
 2337      00
 2338              	.LEHE52:
 2339 0114 488D0500 		leaq	24+_ZTVN8UnitTest15MemoryOutStreamE(%rip), %rax
 2339      000000
 2340 011b 48C74378 		movq	$0, 120(%rbx)
 2340      00000000 
 2341 0123 C6838000 		movb	$0, 128(%rbx)
 2341      000000
 2342 012a 488903   		movq	%rax, (%rbx)
 2343 012d 4883C028 		addq	$40, %rax
 2344 0131 48898390 		movq	%rax, 144(%rbx)
 2344      000000
 2345 0138 488D8380 		leaq	128(%rbx), %rax
 2345      000000
 2346 013f 48894370 		movq	%rax, 112(%rbx)
 2347 0143 5B       		popq	%rbx
 2348              		.cfi_remember_state
 2349              		.cfi_def_cfa_offset 40
 2350 0144 5D       		popq	%rbp
 2351              		.cfi_def_cfa_offset 32
 2352 0145 415C     		popq	%r12
 2353              		.cfi_def_cfa_offset 24
 2354 0147 415D     		popq	%r13
 2355              		.cfi_def_cfa_offset 16
 2356 0149 415E     		popq	%r14
 2357              		.cfi_def_cfa_offset 8
 2358 014b C3       		ret
 2359              	.L160:
 2360              		.cfi_restore_state
 2361 014c 4989C4   		movq	%rax, %r12
 2362              	.L159:
 2363 014f 488D0500 		leaq	16+_ZTVSt9basic_iosIcSt11char_traitsIcEE(%rip), %rax
 2363      000000
 2364 0156 4889EF   		movq	%rbp, %rdi
 2365 0159 48898390 		movq	%rax, 144(%rbx)
 2365      000000
 2366 0160 E8000000 		call	_ZNSt8ios_baseD2Ev@PLT
 2366      00
 2367 0165 4C89E7   		movq	%r12, %rdi
 2368              	.LEHB53:
 2369 0168 E8000000 		call	_Unwind_Resume@PLT
 2369      00
 2370              	.LEHE53:
 2371              	.L161:
 2372 016d 4989C6   		movq	%rax, %r14
 2373 0170 4C89EF   		movq	%r13, %rdi
 2374 0173 E8000000 		call	_ZNSt7__cxx1115basic_stringbufIcSt11char_traitsIcESaIcEED1Ev
 2374      00
 2375 0178 4C8923   		movq	%r12, (%rbx)
 2376 017b 4D89F4   		movq	%r14, %r12
 2377 017e EBCF     		jmp	.L159
 2378              		.cfi_endproc
 2379              	.LFE1103:
 2380              		.section	.gcc_except_table
 2381              	.LLSDA1103:
 2382 0136 FF       		.byte	0xff
 2383 0137 FF       		.byte	0xff
 2384 0138 01       		.byte	0x1
 2385 0139 10       		.uleb128 .LLSDACSE1103-.LLSDACSB1103
 2386              	.LLSDACSB1103:
 2387 013a 7A       		.uleb128 .LEHB51-.LFB1103
 2388 013b 05       		.uleb128 .LEHE51-.LEHB51
 2389 013c CC02     		.uleb128 .L160-.LFB1103
 2390 013e 00       		.uleb128 0
 2391 013f 8F02     		.uleb128 .LEHB52-.LFB1103
 2392 0141 05       		.uleb128 .LEHE52-.LEHB52
 2393 0142 ED02     		.uleb128 .L161-.LFB1103
 2394 0144 00       		.uleb128 0
 2395 0145 E802     		.uleb128 .LEHB53-.LFB1103
 2396 0147 05       		.uleb128 .LEHE53-.LEHB53
 2397 0148 00       		.uleb128 0
 2398 0149 00       		.uleb128 0
 2399              	.LLSDACSE1103:
 2400              		.section	.text._ZN8UnitTest15MemoryOutStreamC1Ev,"axG",@progbits,_ZN8UnitTest15MemoryOutStreamC1Ev
 2402              		.section	.rodata.str1.1
 2403              	.LC3:
 2404 0012 556E6861 		.string	"Unhandled system exception"
 2404      6E646C65 
 2404      64207379 
 2404      7374656D 
 2404      20657863 
 2405              	.LC4:
 2406 002d 66696C65 		.string	"filename"
 2406      6E616D65 
 2406      00
 2407              	.LC5:
 2408 0036 736F6D65 		.string	"somesuite"
 2408      73756974 
 2408      6500
 2409              	.LC6:
 2410 0040 736C6F77 		.string	"slow"
 2410      00
 2411              		.section	.rodata.str1.8,"aMS",@progbits,1
 2412              		.align 8
 2413              	.LC9:
 2414 0000 7265706F 		.string	"reporter.lastFinishedTestTime >= 0.005f && reporter.lastFinishedTestTime <= 0.050f"
 2414      72746572 
 2414      2E6C6173 
 2414      7446696E 
 2414      69736865 
 2415 0053 00000000 		.align 8
 2415      00
 2416              	.LC10:
 2417 0058 556E6861 		.string	"Unhandled exception in CHECK(reporter.lastFinishedTestTime >= 0.005f && reporter.lastFini
 2417      6E646C65 
 2417      64206578 
 2417      63657074 
 2417      696F6E20 
 2418              		.section	.rodata.str1.1
 2419              	.LC11:
 2420 0045 556E6861 		.string	"Unhandled exception: "
 2420      6E646C65 
 2420      64206578 
 2420      63657074 
 2420      696F6E3A 
 2421              	.LC12:
 2422 005b 556E6861 		.string	"Unhandled exception: Crash!"
 2422      6E646C65 
 2422      64206578 
 2422      63657074 
 2422      696F6E3A 
 2423              		.text
 2424 072f 90       		.p2align 4,,15
 2426              	_ZN8UnitTest11ExecuteTestIN12_GLOBAL__N_156TestRunnerFixtureTestFinishIsCalledWithCorrectTimeHelper
 2427              	.LFB1410:
 2428              		.cfi_startproc
 2429              		.cfi_personality 0x9b,DW.ref.__gxx_personality_v0
 2430              		.cfi_lsda 0x1b,.LLSDA1410
 2431 0730 4155     		pushq	%r13
 2432              		.cfi_def_cfa_offset 16
 2433              		.cfi_offset 13, -16
 2434 0732 4154     		pushq	%r12
 2435              		.cfi_def_cfa_offset 24
 2436              		.cfi_offset 12, -24
 2437 0734 55       		pushq	%rbp
 2438              		.cfi_def_cfa_offset 32
 2439              		.cfi_offset 6, -32
 2440 0735 53       		pushq	%rbx
 2441              		.cfi_def_cfa_offset 40
 2442              		.cfi_offset 3, -40
 2443 0736 4889F3   		movq	%rsi, %rbx
 2444 0739 4881ECC8 		subq	$1736, %rsp
 2444      060000
 2445              		.cfi_def_cfa_offset 1776
 2446 0740 48893C24 		movq	%rdi, (%rsp)
 2447 0744 48897424 		movq	%rsi, 8(%rsp)
 2447      08
 2448 0749 64488B04 		movq	%fs:40, %rax
 2448      25280000 
 2448      00
 2449 0752 48898424 		movq	%rax, 1720(%rsp)
 2449      B8060000 
 2450 075a 31C0     		xorl	%eax, %eax
 2451              	.LEHB54:
 2452 075c E8000000 		call	_ZN8UnitTest11CurrentTest7DetailsEv@PLT
 2452      00
 2453              	.LEHE54:
 2454 0761 488DBC24 		leaq	592(%rsp), %rdi
 2454      50020000 
 2455 0769 488918   		movq	%rbx, (%rax)
 2456              	.LEHB55:
 2457 076c E8000000 		call	_ZN8UnitTest16SignalTranslatorC1Ev@PLT
 2457      00
 2458              	.LEHE55:
 2459 0771 488B3D00 		movq	_ZN8UnitTest16SignalTranslator12s_jumpTargetE(%rip), %rdi
 2459      000000
 2460 0778 BE010000 		movl	$1, %esi
 2460      00
 2461 077d E8000000 		call	__sigsetjmp@PLT
 2461      00
 2462 0782 85C0     		testl	%eax, %eax
 2463 0784 742A     		je	.L167
 2464 0786 BF080000 		movl	$8, %edi
 2464      00
 2465 078b E8000000 		call	__cxa_allocate_exception@PLT
 2465      00
 2466 0790 488D0D00 		leaq	.LC3(%rip), %rcx
 2466      000000
 2467 0797 488D3500 		leaq	_ZTIPKc(%rip), %rsi
 2467      000000
 2468 079e 31D2     		xorl	%edx, %edx
 2469 07a0 4889C7   		movq	%rax, %rdi
 2470 07a3 488908   		movq	%rcx, (%rax)
 2471              	.LEHB56:
 2472 07a6 E8000000 		call	__cxa_throw@PLT
 2472      00
 2473 07ab 0F1F4400 		.p2align 4,,10
 2473      00
 2474              		.p2align 3
 2475              	.L167:
 2476 07b0 488D7C24 		leaq	112(%rsp), %rdi
 2476      70
 2477 07b5 488D0D00 		leaq	.LC4(%rip), %rcx
 2477      000000
 2478 07bc 488D1500 		leaq	.LC5(%rip), %rdx
 2478      000000
 2479 07c3 488D3500 		leaq	.LC6(%rip), %rsi
 2479      000000
 2480 07ca 41B87B00 		movl	$123, %r8d
 2480      0000
 2481 07d0 E8000000 		call	_ZN8UnitTest4TestC2EPKcS2_S2_i@PLT
 2481      00
 2482              	.LEHE56:
 2483 07d5 488B2C24 		movq	(%rsp), %rbp
 2484 07d9 488D0500 		leaq	16+_ZTVN12_GLOBAL__N_18SlowTestE(%rip), %rax
 2484      000000
 2485 07e0 488D7424 		leaq	112(%rsp), %rsi
 2485      70
 2486 07e5 48894424 		movq	%rax, 112(%rsp)
 2486      70
 2487 07ea 488D9D48 		leaq	2120(%rbp), %rbx
 2487      080000
 2488 07f1 4889DF   		movq	%rbx, %rdi
 2489              	.LEHB57:
 2490 07f4 E8000000 		call	_ZN8UnitTest8TestList3AddEPNS_4TestE@PLT
 2490      00
 2491 07f9 E8000000 		call	_ZN8UnitTest11CurrentTest7ResultsEv@PLT
 2491      00
 2492 07fe 4C8B28   		movq	(%rax), %r13
 2493 0801 E8000000 		call	_ZN8UnitTest11CurrentTest7DetailsEv@PLT
 2493      00
 2494 0806 4889DF   		movq	%rbx, %rdi
 2495 0809 4C8B20   		movq	(%rax), %r12
 2496 080c E8000000 		call	_ZNK8UnitTest8TestList7GetHeadEv@PLT
 2496      00
 2497 0811 4885C0   		testq	%rax, %rax
 2498 0814 4889C3   		movq	%rax, %rbx
 2499 0817 0F85DD00 		jne	.L170
 2499      0000
 2500 081d 0F1F00   		.p2align 4,,10
 2501              		.p2align 3
 2502              	.L168:
 2503 0820 488B1C24 		movq	(%rsp), %rbx
 2504 0824 4889DF   		movq	%rbx, %rdi
 2505 0827 E8000000 		call	_ZNK8UnitTest10TestRunner6FinishEv@PLT
 2505      00
 2506 082c E8000000 		call	_ZN8UnitTest11CurrentTest7ResultsEv@PLT
 2506      00
 2507 0831 4C8928   		movq	%r13, (%rax)
 2508 0834 E8000000 		call	_ZN8UnitTest11CurrentTest7DetailsEv@PLT
 2508      00
 2509              	.LEHE57:
 2510 0839 4C8920   		movq	%r12, (%rax)
 2511 083c F30F1083 		movss	2096(%rbx), %xmm0
 2511      30080000 
 2512 0844 0F2E0500 		ucomiss	.LC7(%rip), %xmm0
 2512      000000
 2513 084b 720D     		jb	.L172
 2514 084d F30F100D 		movss	.LC8(%rip), %xmm1
 2514      00000000 
 2515 0855 0F2EC8   		ucomiss	%xmm0, %xmm1
 2516 0858 7333     		jnb	.L175
 2517              	.L172:
 2518              	.LEHB58:
 2519 085a E8000000 		call	_ZN8UnitTest11CurrentTest7ResultsEv@PLT
 2519      00
 2520 085f 488B18   		movq	(%rax), %rbx
 2521 0862 E8000000 		call	_ZN8UnitTest11CurrentTest7DetailsEv@PLT
 2521      00
 2522 0867 488B30   		movq	(%rax), %rsi
 2523 086a 488D7C24 		leaq	80(%rsp), %rdi
 2523      50
 2524 086f BA620000 		movl	$98, %edx
 2524      00
 2525 0874 E8000000 		call	_ZN8UnitTest11TestDetailsC1ERKS0_i@PLT
 2525      00
 2526 0879 488D7424 		leaq	80(%rsp), %rsi
 2526      50
 2527 087e 488D1500 		leaq	.LC9(%rip), %rdx
 2527      000000
 2528 0885 4889DF   		movq	%rbx, %rdi
 2529 0888 E8000000 		call	_ZN8UnitTest11TestResults13OnTestFailureERKNS_11TestDetailsEPKc@PLT
 2529      00
 2530              	.LEHE58:
 2531              	.L175:
 2532 088d 488D0500 		leaq	16+_ZTVN12_GLOBAL__N_18SlowTestE(%rip), %rax
 2532      000000
 2533 0894 488D7C24 		leaq	112(%rsp), %rdi
 2533      70
 2534 0899 48894424 		movq	%rax, 112(%rsp)
 2534      70
 2535              	.LEHB59:
 2536 089e E8000000 		call	_ZN8UnitTest4TestD2Ev@PLT
 2536      00
 2537              	.LEHE59:
 2538 08a3 488DBC24 		leaq	592(%rsp), %rdi
 2538      50020000 
 2539              	.LEHB60:
 2540 08ab E8000000 		call	_ZN8UnitTest16SignalTranslatorD1Ev@PLT
 2540      00
 2541              	.LEHE60:
 2542              	.L165:
 2543 08b0 488B8424 		movq	1720(%rsp), %rax
 2543      B8060000 
 2544 08b8 64483304 		xorq	%fs:40, %rax
 2544      25280000 
 2544      00
 2545 08c1 0F85F600 		jne	.L207
 2545      0000
 2546 08c7 4881C4C8 		addq	$1736, %rsp
 2546      060000
 2547              		.cfi_remember_state
 2548              		.cfi_def_cfa_offset 40
 2549 08ce 5B       		popq	%rbx
 2550              		.cfi_def_cfa_offset 32
 2551 08cf 5D       		popq	%rbp
 2552              		.cfi_def_cfa_offset 24
 2553 08d0 415C     		popq	%r12
 2554              		.cfi_def_cfa_offset 16
 2555 08d2 415D     		popq	%r13
 2556              		.cfi_def_cfa_offset 8
 2557 08d4 C3       		ret
 2558              		.p2align 4,,10
 2559 08d5 0F1F00   		.p2align 3
 2560              	.L169:
 2561              		.cfi_restore_state
 2562 08d8 488B0424 		movq	(%rsp), %rax
 2563 08dc 31C9     		xorl	%ecx, %ecx
 2564 08de 4889DA   		movq	%rbx, %rdx
 2565 08e1 4889EF   		movq	%rbp, %rdi
 2566 08e4 488B7008 		movq	8(%rax), %rsi
 2567              	.LEHB61:
 2568 08e8 E8000000 		call	_ZNK8UnitTest10TestRunner7RunTestEPNS_11TestResultsEPNS_4TestEi@PLT
 2568      00
 2569              	.L171:
 2570 08ed 488B5B28 		movq	40(%rbx), %rbx
 2571 08f1 4885DB   		testq	%rbx, %rbx
 2572 08f4 0F8426FF 		je	.L168
 2572      FFFF
 2573              	.L170:
 2574 08fa 31D2     		xorl	%edx, %edx
 2575 08fc 4889DE   		movq	%rbx, %rsi
 2576 08ff 4889EF   		movq	%rbp, %rdi
 2577 0902 E8000000 		call	_ZNK8UnitTest10TestRunner13IsTestInSuiteEPKNS_4TestEPKc@PLT
 2577      00
 2578              	.LEHE61:
 2579 0907 84C0     		testb	%al, %al
 2580 0909 74E2     		je	.L171
 2581 090b EBCB     		jmp	.L169
 2582              	.L194:
 2583 090d 4889C3   		movq	%rax, %rbx
 2584 0910 4889D5   		movq	%rdx, %rbp
 2585              	.L181:
 2586 0913 488DBC24 		leaq	592(%rsp), %rdi
 2586      50020000 
 2587 091b E8000000 		call	_ZN8UnitTest16SignalTranslatorD1Ev@PLT
 2587      00
 2588 0920 4889DF   		movq	%rbx, %rdi
 2589 0923 4889EA   		movq	%rbp, %rdx
 2590              	.L182:
 2591 0926 4883FA01 		cmpq	$1, %rdx
 2592 092a 0F845701 		je	.L184
 2592      0000
 2593 0930 4883FA02 		cmpq	$2, %rdx
 2594 0934 0F852501 		jne	.L208
 2594      0000
 2595 093a E8000000 		call	__cxa_begin_catch@PLT
 2595      00
 2596 093f 488DBC24 		leaq	176(%rsp), %rdi
 2596      B0000000 
 2597 0947 4889C3   		movq	%rax, %rbx
 2598              	.LEHB62:
 2599 094a E8000000 		call	_ZN8UnitTest15MemoryOutStreamC1Ev
 2599      00
 2600              	.LEHE62:
 2601 094f 488DBC24 		leaq	176(%rsp), %rdi
 2601      B0000000 
 2602 0957 488D3500 		leaq	.LC11(%rip), %rsi
 2602      000000
 2603 095e BA150000 		movl	$21, %edx
 2603      00
 2604              	.LEHB63:
 2605 0963 E8000000 		call	_ZSt16__ostream_insertIcSt11char_traitsIcEERSt13basic_ostreamIT_T0_ES6_PKS3_l@PLT
 2605      00
 2606 0968 488B03   		movq	(%rbx), %rax
 2607 096b 4889DF   		movq	%rbx, %rdi
 2608 096e FF5010   		call	*16(%rax)
 2609 0971 488DBC24 		leaq	176(%rsp), %rdi
 2609      B0000000 
 2610 0979 4889C6   		movq	%rax, %rsi
 2611 097c E8000000 		call	_ZStlsISt11char_traitsIcEERSt13basic_ostreamIcT_ES5_PKc@PLT
 2611      00
 2612 0981 E8000000 		call	_ZN8UnitTest11CurrentTest7ResultsEv@PLT
 2612      00
 2613 0986 488DBC24 		leaq	176(%rsp), %rdi
 2613      B0000000 
 2614 098e 488B18   		movq	(%rax), %rbx
 2615 0991 E8000000 		call	_ZNK8UnitTest15MemoryOutStream7GetTextEv@PLT
 2615      00
 2616 0996 488B7424 		movq	8(%rsp), %rsi
 2616      08
 2617 099b 4889C2   		movq	%rax, %rdx
 2618 099e 4889DF   		movq	%rbx, %rdi
 2619 09a1 E8000000 		call	_ZN8UnitTest11TestResults13OnTestFailureERKNS_11TestDetailsEPKc@PLT
 2619      00
 2620              	.LEHE63:
 2621 09a6 488DBC24 		leaq	176(%rsp), %rdi
 2621      B0000000 
 2622              	.LEHB64:
 2623 09ae E8000000 		call	_ZN8UnitTest15MemoryOutStreamD1Ev
 2623      00
 2624              	.LEHE64:
 2625              	.L205:
 2626 09b3 E8000000 		call	__cxa_end_catch@PLT
 2626      00
 2627 09b8 E9F3FEFF 		jmp	.L165
 2627      FF
 2628              	.L207:
 2629 09bd E8000000 		call	__stack_chk_fail@PLT
 2629      00
 2630              	.L201:
 2631 09c2 4889C7   		movq	%rax, %rdi
 2632 09c5 E8000000 		call	__cxa_begin_catch@PLT
 2632      00
 2633              	.LEHB65:
 2634 09ca E8000000 		call	_ZN8UnitTest11CurrentTest7ResultsEv@PLT
 2634      00
 2635 09cf 488B18   		movq	(%rax), %rbx
 2636 09d2 E8000000 		call	_ZN8UnitTest11CurrentTest7DetailsEv@PLT
 2636      00
 2637 09d7 488B30   		movq	(%rax), %rsi
 2638 09da 488D7C24 		leaq	48(%rsp), %rdi
 2638      30
 2639 09df BA620000 		movl	$98, %edx
 2639      00
 2640 09e4 E8000000 		call	_ZN8UnitTest11TestDetailsC1ERKS0_i@PLT
 2640      00
 2641 09e9 488D7424 		leaq	48(%rsp), %rsi
 2641      30
 2642 09ee 488D1500 		leaq	.LC10(%rip), %rdx
 2642      000000
 2643 09f5 4889DF   		movq	%rbx, %rdi
 2644 09f8 E8000000 		call	_ZN8UnitTest11TestResults13OnTestFailureERKNS_11TestDetailsEPKc@PLT
 2644      00
 2645              	.LEHE65:
 2646              	.LEHB66:
 2647 09fd E8000000 		call	__cxa_end_catch@PLT
 2647      00
 2648              	.LEHE66:
 2649 0a02 E986FEFF 		jmp	.L175
 2649      FF
 2650              	.L199:
 2651 0a07 4889C3   		movq	%rax, %rbx
 2652 0a0a 4889D5   		movq	%rdx, %rbp
 2653              	.L180:
 2654 0a0d 488D0500 		leaq	16+_ZTVN12_GLOBAL__N_18SlowTestE(%rip), %rax
 2654      000000
 2655 0a14 488D7C24 		leaq	112(%rsp), %rdi
 2655      70
 2656 0a19 48894424 		movq	%rax, 112(%rsp)
 2656      70
 2657 0a1e E8000000 		call	_ZN8UnitTest4TestD2Ev@PLT
 2657      00
 2658 0a23 E9EBFEFF 		jmp	.L181
 2658      FF
 2659              	.L193:
 2660 0a28 4889C7   		movq	%rax, %rdi
 2661 0a2b E9F6FEFF 		jmp	.L182
 2661      FF
 2662              	.L200:
 2663 0a30 4889C3   		movq	%rax, %rbx
 2664 0a33 4889D5   		movq	%rdx, %rbp
 2665 0a36 E8000000 		call	__cxa_end_catch@PLT
 2665      00
 2666 0a3b EBD0     		jmp	.L180
 2667              	.L197:
 2668 0a3d 488DBC24 		leaq	176(%rsp), %rdi
 2668      B0000000 
 2669 0a45 4889C3   		movq	%rax, %rbx
 2670 0a48 E8000000 		call	_ZN8UnitTest15MemoryOutStreamD1Ev
 2670      00
 2671              	.L190:
 2672 0a4d E8000000 		call	__cxa_end_catch@PLT
 2672      00
 2673 0a52 4889DF   		movq	%rbx, %rdi
 2674              	.LEHB67:
 2675 0a55 E8000000 		call	_Unwind_Resume@PLT
 2675      00
 2676              	.LEHE67:
 2677              	.L196:
 2678              	.L206:
 2679 0a5a 4889C3   		movq	%rax, %rbx
 2680 0a5d EBEE     		jmp	.L190
 2681              	.L208:
 2682 0a5f E8000000 		call	__cxa_begin_catch@PLT
 2682      00
 2683              	.LEHB68:
 2684 0a64 E8000000 		call	_ZN8UnitTest11CurrentTest7ResultsEv@PLT
 2684      00
 2685 0a69 488B7424 		movq	8(%rsp), %rsi
 2685      08
 2686 0a6e 488B38   		movq	(%rax), %rdi
 2687 0a71 488D1500 		leaq	.LC12(%rip), %rdx
 2687      000000
 2688 0a78 E8000000 		call	_ZN8UnitTest11TestResults13OnTestFailureERKNS_11TestDetailsEPKc@PLT
 2688      00
 2689              	.LEHE68:
 2690              	.LEHB69:
 2691 0a7d E8000000 		call	__cxa_end_catch@PLT
 2691      00
 2692              	.LEHE69:
 2693 0a82 E929FEFF 		jmp	.L165
 2693      FF
 2694              	.L184:
 2695 0a87 E8000000 		call	__cxa_begin_catch@PLT
 2695      00
 2696 0a8c 4889C3   		movq	%rax, %rbx
 2697              	.LEHB70:
 2698 0a8f E8000000 		call	_ZN8UnitTest11CurrentTest7ResultsEv@PLT
 2698      00
 2699 0a94 488B28   		movq	(%rax), %rbp
 2700 0a97 488B03   		movq	(%rbx), %rax
 2701 0a9a 4889DF   		movq	%rbx, %rdi
 2702 0a9d FF5010   		call	*16(%rax)
 2703 0aa0 4889DF   		movq	%rbx, %rdi
 2704 0aa3 4989C4   		movq	%rax, %r12
 2705 0aa6 E8000000 		call	_ZNK8UnitTest15AssertException10LineNumberEv@PLT
 2705      00
 2706 0aab 4889DF   		movq	%rbx, %rdi
 2707 0aae 4189C5   		movl	%eax, %r13d
 2708 0ab1 E8000000 		call	_ZNK8UnitTest15AssertException8FilenameEv@PLT
 2708      00
 2709 0ab6 488B5424 		movq	8(%rsp), %rdx
 2709      08
 2710 0abb 488D7C24 		leaq	16(%rsp), %rdi
 2710      10
 2711 0ac0 4589E8   		movl	%r13d, %r8d
 2712 0ac3 4889C1   		movq	%rax, %rcx
 2713 0ac6 488B7208 		movq	8(%rdx), %rsi
 2714 0aca 488B12   		movq	(%rdx), %rdx
 2715 0acd E8000000 		call	_ZN8UnitTest11TestDetailsC1EPKcS2_S2_i@PLT
 2715      00
 2716 0ad2 488D7424 		leaq	16(%rsp), %rsi
 2716      10
 2717 0ad7 4C89E2   		movq	%r12, %rdx
 2718 0ada 4889EF   		movq	%rbp, %rdi
 2719 0add E8000000 		call	_ZN8UnitTest11TestResults13OnTestFailureERKNS_11TestDetailsEPKc@PLT
 2719      00
 2720              	.LEHE70:
 2721 0ae2 E9CCFEFF 		jmp	.L205
 2721      FF
 2722              	.L198:
 2723 0ae7 4889C3   		movq	%rax, %rbx
 2724 0aea E8000000 		call	__cxa_end_catch@PLT
 2724      00
 2725 0aef 4889DF   		movq	%rbx, %rdi
 2726              	.LEHB71:
 2727 0af2 E8000000 		call	_Unwind_Resume@PLT
 2727      00
 2728              	.LEHE71:
 2729              	.L195:
 2730 0af7 E95EFFFF 		jmp	.L206
 2730      FF
 2731              		.cfi_endproc
 2732              	.LFE1410:
 2733              		.section	.gcc_except_table
 2734 014a 0000     		.align 4
 2735              	.LLSDA1410:
 2736 014c FF       		.byte	0xff
 2737 014d 9B       		.byte	0x9b
 2738 014e 7D       		.uleb128 .LLSDATT1410-.LLSDATTD1410
 2739              	.LLSDATTD1410:
 2740 014f 01       		.byte	0x1
 2741 0150 65       		.uleb128 .LLSDACSE1410-.LLSDACSB1410
 2742              	.LLSDACSB1410:
 2743 0151 2C       		.uleb128 .LEHB54-.LFB1410
 2744 0152 05       		.uleb128 .LEHE54-.LEHB54
 2745 0153 00       		.uleb128 0
 2746 0154 00       		.uleb128 0
 2747 0155 3C       		.uleb128 .LEHB55-.LFB1410
 2748 0156 05       		.uleb128 .LEHE55-.LEHB55
 2749 0157 F805     		.uleb128 .L193-.LFB1410
 2750 0159 05       		.uleb128 0x5
 2751 015a 76       		.uleb128 .LEHB56-.LFB1410
 2752 015b 2F       		.uleb128 .LEHE56-.LEHB56
 2753 015c DD03     		.uleb128 .L194-.LFB1410
 2754 015e 07       		.uleb128 0x7
 2755 015f C401     		.uleb128 .LEHB57-.LFB1410
 2756 0161 45       		.uleb128 .LEHE57-.LEHB57
 2757 0162 D705     		.uleb128 .L199-.LFB1410
 2758 0164 07       		.uleb128 0x7
 2759 0165 AA02     		.uleb128 .LEHB58-.LFB1410
 2760 0167 33       		.uleb128 .LEHE58-.LEHB58
 2761 0168 9205     		.uleb128 .L201-.LFB1410
 2762 016a 01       		.uleb128 0x1
 2763 016b EE02     		.uleb128 .LEHB59-.LFB1410
 2764 016d 05       		.uleb128 .LEHE59-.LEHB59
 2765 016e DD03     		.uleb128 .L194-.LFB1410
 2766 0170 07       		.uleb128 0x7
 2767 0171 FB02     		.uleb128 .LEHB60-.LFB1410
 2768 0173 05       		.uleb128 .LEHE60-.LEHB60
 2769 0174 F805     		.uleb128 .L193-.LFB1410
 2770 0176 05       		.uleb128 0x5
 2771 0177 B803     		.uleb128 .LEHB61-.LFB1410
 2772 0179 1F       		.uleb128 .LEHE61-.LEHB61
 2773 017a D705     		.uleb128 .L199-.LFB1410
 2774 017c 07       		.uleb128 0x7
 2775 017d 9A04     		.uleb128 .LEHB62-.LFB1410
 2776 017f 05       		.uleb128 .LEHE62-.LEHB62
 2777 0180 AA06     		.uleb128 .L196-.LFB1410
 2778 0182 00       		.uleb128 0
 2779 0183 B304     		.uleb128 .LEHB63-.LFB1410
 2780 0185 43       		.uleb128 .LEHE63-.LEHB63
 2781 0186 8D06     		.uleb128 .L197-.LFB1410
 2782 0188 00       		.uleb128 0
 2783 0189 FE04     		.uleb128 .LEHB64-.LFB1410
 2784 018b 05       		.uleb128 .LEHE64-.LEHB64
 2785 018c AA06     		.uleb128 .L196-.LFB1410
 2786 018e 00       		.uleb128 0
 2787 018f 9A05     		.uleb128 .LEHB65-.LFB1410
 2788 0191 33       		.uleb128 .LEHE65-.LEHB65
 2789 0192 8006     		.uleb128 .L200-.LFB1410
 2790 0194 07       		.uleb128 0x7
 2791 0195 CD05     		.uleb128 .LEHB66-.LFB1410
 2792 0197 05       		.uleb128 .LEHE66-.LEHB66
 2793 0198 D705     		.uleb128 .L199-.LFB1410
 2794 019a 07       		.uleb128 0x7
 2795 019b A506     		.uleb128 .LEHB67-.LFB1410
 2796 019d 05       		.uleb128 .LEHE67-.LEHB67
 2797 019e 00       		.uleb128 0
 2798 019f 00       		.uleb128 0
 2799 01a0 B406     		.uleb128 .LEHB68-.LFB1410
 2800 01a2 19       		.uleb128 .LEHE68-.LEHB68
 2801 01a3 B707     		.uleb128 .L198-.LFB1410
 2802 01a5 00       		.uleb128 0
 2803 01a6 CD06     		.uleb128 .LEHB69-.LFB1410
 2804 01a8 05       		.uleb128 .LEHE69-.LEHB69
 2805 01a9 00       		.uleb128 0
 2806 01aa 00       		.uleb128 0
 2807 01ab DF06     		.uleb128 .LEHB70-.LFB1410
 2808 01ad 53       		.uleb128 .LEHE70-.LEHB70
 2809 01ae C707     		.uleb128 .L195-.LFB1410
 2810 01b0 00       		.uleb128 0
 2811 01b1 C207     		.uleb128 .LEHB71-.LFB1410
 2812 01b3 05       		.uleb128 .LEHE71-.LEHB71
 2813 01b4 00       		.uleb128 0
 2814 01b5 00       		.uleb128 0
 2815              	.LLSDACSE1410:
 2816 01b6 03       		.byte	0x3
 2817 01b7 00       		.byte	0
 2818 01b8 02       		.byte	0x2
 2819 01b9 7D       		.byte	0x7d
 2820 01ba 01       		.byte	0x1
 2821 01bb 7D       		.byte	0x7d
 2822 01bc 00       		.byte	0
 2823 01bd 7D       		.byte	0x7d
 2824 01be 0000     		.align 4
 2825 01c0 00000000 		.long	0
 2826              	
 2827 01c4 00000000 		.long	DW.ref._ZTISt9exception-.
 2828 01c8 00000000 		.long	DW.ref._ZTIN8UnitTest15AssertExceptionE-.
 2829              	.LLSDATT1410:
 2830              		.text
 2832              		.section	.rodata.str1.8
 2833 00c9 00000000 		.align 8
 2833      000000
 2834              	.LC13:
 2835 00d0 556E6861 		.string	"Unhandled exception while destroying fixture TestRunnerFixture"
 2835      6E646C65 
 2835      64206578 
 2835      63657074 
 2835      696F6E20 
 2836 010f 00       		.align 8
 2837              	.LC14:
 2838 0110 556E6861 		.string	"Unhandled exception while constructing fixture TestRunnerFixture"
 2838      6E646C65 
 2838      64206578 
 2838      63657074 
 2838      696F6E20 
 2839              		.text
 2840              		.align 2
 2841 0afc 0F1F4000 		.p2align 4,,15
 2843              	_ZNK12_GLOBAL__N_154TestTestRunnerFixtureTestFinishIsCalledWithCorrectTime7RunImplEv:
 2844              	.LFB1201:
 2845              		.cfi_startproc
 2846              		.cfi_personality 0x9b,DW.ref.__gxx_personality_v0
 2847              		.cfi_lsda 0x1b,.LLSDA1201
 2848 0b00 4156     		pushq	%r14
 2849              		.cfi_def_cfa_offset 16
 2850              		.cfi_offset 14, -16
 2851 0b02 4155     		pushq	%r13
 2852              		.cfi_def_cfa_offset 24
 2853              		.cfi_offset 13, -24
 2854 0b04 4989FD   		movq	%rdi, %r13
 2855 0b07 4154     		pushq	%r12
 2856              		.cfi_def_cfa_offset 32
 2857              		.cfi_offset 12, -32
 2858 0b09 55       		pushq	%rbp
 2859              		.cfi_def_cfa_offset 40
 2860              		.cfi_offset 6, -40
 2861 0b0a 488D6F08 		leaq	8(%rdi), %rbp
 2862 0b0e 53       		pushq	%rbx
 2863              		.cfi_def_cfa_offset 48
 2864              		.cfi_offset 3, -48
 2865 0b0f 4881EC90 		subq	$2192, %rsp
 2865      080000
 2866              		.cfi_def_cfa_offset 2240
 2867 0b16 488D5C24 		leaq	32(%rsp), %rbx
 2867      20
 2868 0b1b 64488B04 		movq	%fs:40, %rax
 2868      25280000 
 2868      00
 2869 0b24 48898424 		movq	%rax, 2184(%rsp)
 2869      88080000 
 2870 0b2c 31C0     		xorl	%eax, %eax
 2871 0b2e 488D7318 		leaq	24(%rbx), %rsi
 2872 0b32 4889DF   		movq	%rbx, %rdi
 2873              	.LEHB72:
 2874 0b35 E8000000 		call	_ZN8UnitTest10TestRunnerC1ERNS_12TestReporterE@PLT
 2874      00
 2875              	.LEHE72:
 2876 0b3a 4C8D2500 		leaq	16+_ZTV17RecordingReporter(%rip), %r12
 2876      000000
 2877 0b41 488DBB48 		leaq	2120(%rbx), %rdi
 2877      080000
 2878 0b48 C7442440 		movl	$0, 64(%rsp)
 2878      00000000 
 2879 0b50 C7842444 		movl	$0, 580(%rsp)
 2879      02000000 
 2879      000000
 2880 0b5b C7842448 		movl	$0, 840(%rsp)
 2880      03000000 
 2880      000000
 2881 0b66 4C896424 		movq	%r12, 56(%rsp)
 2881      38
 2882 0b6b C784244C 		movl	$0, 1612(%rsp)
 2882      06000000 
 2882      000000
 2883 0b76 48C78424 		movq	$0, 2128(%rsp)
 2883      50080000 
 2883      00000000 
 2884 0b82 48C78424 		movq	$0, 2136(%rsp)
 2884      58080000 
 2884      00000000 
 2885 0b8e C7842460 		movl	$0, 2144(%rsp)
 2885      08000000 
 2885      000000
 2886 0b99 C6442444 		movb	$0, 68(%rsp)
 2886      00
 2887 0b9e C6842444 		movb	$0, 324(%rsp)
 2887      01000000 
 2888 0ba6 C6842448 		movb	$0, 584(%rsp)
 2888      02000000 
 2889 0bae C684244C 		movb	$0, 844(%rsp)
 2889      03000000 
 2890 0bb6 C684244C 		movb	$0, 1100(%rsp)
 2890      04000000 
 2891 0bbe C684244C 		movb	$0, 1356(%rsp)
 2891      05000000 
 2892 0bc6 C6842450 		movb	$0, 1616(%rsp)
 2892      06000000 
 2893 0bce C6842450 		movb	$0, 1872(%rsp)
 2893      07000000 
 2894              	.LEHB73:
 2895 0bd6 E8000000 		call	_ZN8UnitTest8TestListC1Ev@PLT
 2895      00
 2896              	.LEHE73:
 2897 0bdb 4889EE   		movq	%rbp, %rsi
 2898 0bde 4889DF   		movq	%rbx, %rdi
 2899 0be1 4889AC24 		movq	%rbp, 2168(%rsp)
 2899      78080000 
 2900              	.LEHB74:
 2901 0be9 E842FBFF 		call	_ZN8UnitTest11ExecuteTestIN12_GLOBAL__N_156TestRunnerFixtureTestFinishIsCalledWithCorrectTime
 2901      FF
 2902              	.LEHE74:
 2903 0bee 488D7B18 		leaq	24(%rbx), %rdi
 2904 0bf2 4C896424 		movq	%r12, 56(%rsp)
 2904      38
 2905              	.LEHB75:
 2906 0bf7 E8000000 		call	_ZN8UnitTest12TestReporterD2Ev@PLT
 2906      00
 2907              	.LEHE75:
 2908 0bfc 4889DF   		movq	%rbx, %rdi
 2909              	.LEHB76:
 2910 0bff E8000000 		call	_ZN8UnitTest10TestRunnerD1Ev@PLT
 2910      00
 2911              	.LEHE76:
 2912              	.L209:
 2913 0c04 488B8424 		movq	2184(%rsp), %rax
 2913      88080000 
 2914 0c0c 64483304 		xorq	%fs:40, %rax
 2914      25280000 
 2914      00
 2915 0c15 7510     		jne	.L257
 2916 0c17 4881C490 		addq	$2192, %rsp
 2916      080000
 2917              		.cfi_remember_state
 2918              		.cfi_def_cfa_offset 48
 2919 0c1e 5B       		popq	%rbx
 2920              		.cfi_def_cfa_offset 40
 2921 0c1f 5D       		popq	%rbp
 2922              		.cfi_def_cfa_offset 32
 2923 0c20 415C     		popq	%r12
 2924              		.cfi_def_cfa_offset 24
 2925 0c22 415D     		popq	%r13
 2926              		.cfi_def_cfa_offset 16
 2927 0c24 415E     		popq	%r14
 2928              		.cfi_def_cfa_offset 8
 2929 0c26 C3       		ret
 2930              	.L257:
 2931              		.cfi_restore_state
 2932 0c27 E8000000 		call	__stack_chk_fail@PLT
 2932      00
 2933              	.L229:
 2934 0c2c 4889C7   		movq	%rax, %rdi
 2935              	.L215:
 2936 0c2f 4883FA01 		cmpq	$1, %rdx
 2937 0c33 0F846F01 		je	.L217
 2937      0000
 2938 0c39 4883FA02 		cmpq	$2, %rdx
 2939 0c3d 0F853101 		jne	.L258
 2939      0000
 2940              	.L218:
 2941 0c43 E8000000 		call	__cxa_begin_catch@PLT
 2941      00
 2942 0c48 4889DF   		movq	%rbx, %rdi
 2943 0c4b 4989C4   		movq	%rax, %r12
 2944              	.LEHB77:
 2945 0c4e E8000000 		call	_ZN8UnitTest15MemoryOutStreamC1Ev
 2945      00
 2946              	.LEHE77:
 2947 0c53 488D3500 		leaq	.LC11(%rip), %rsi
 2947      000000
 2948 0c5a BA150000 		movl	$21, %edx
 2948      00
 2949 0c5f 4889DF   		movq	%rbx, %rdi
 2950              	.LEHB78:
 2951 0c62 E8000000 		call	_ZSt16__ostream_insertIcSt11char_traitsIcEERSt13basic_ostreamIT_T0_ES6_PKS3_l@PLT
 2951      00
 2952 0c67 498B0424 		movq	(%r12), %rax
 2953 0c6b 4C89E7   		movq	%r12, %rdi
 2954 0c6e FF5010   		call	*16(%rax)
 2955 0c71 4889DF   		movq	%rbx, %rdi
 2956 0c74 4889C6   		movq	%rax, %rsi
 2957 0c77 E8000000 		call	_ZStlsISt11char_traitsIcEERSt13basic_ostreamIcT_ES5_PKc@PLT
 2957      00
 2958 0c7c E8000000 		call	_ZN8UnitTest11CurrentTest7ResultsEv@PLT
 2958      00
 2959 0c81 4889DF   		movq	%rbx, %rdi
 2960 0c84 4C8B20   		movq	(%rax), %r12
 2961 0c87 E8000000 		call	_ZNK8UnitTest15MemoryOutStream7GetTextEv@PLT
 2961      00
 2962 0c8c 4889C2   		movq	%rax, %rdx
 2963 0c8f 4889EE   		movq	%rbp, %rsi
 2964 0c92 4C89E7   		movq	%r12, %rdi
 2965 0c95 E8000000 		call	_ZN8UnitTest11TestResults13OnTestFailureERKNS_11TestDetailsEPKc@PLT
 2965      00
 2966              	.LEHE78:
 2967 0c9a 4889DF   		movq	%rbx, %rdi
 2968              	.LEHB79:
 2969 0c9d E8000000 		call	_ZN8UnitTest15MemoryOutStreamD1Ev
 2969      00
 2970              	.LEHE79:
 2971              	.L256:
 2972 0ca2 E8000000 		call	__cxa_end_catch@PLT
 2972      00
 2973 0ca7 E958FFFF 		jmp	.L209
 2973      FF
 2974              	.L236:
 2975 0cac 4989C4   		movq	%rax, %r12
 2976 0caf 4989D6   		movq	%rdx, %r14
 2977 0cb2 4889DF   		movq	%rbx, %rdi
 2978 0cb5 E8000000 		call	_ZN8UnitTest10TestRunnerD1Ev@PLT
 2978      00
 2979 0cba 4C89E7   		movq	%r12, %rdi
 2980 0cbd 4C89F2   		movq	%r14, %rdx
 2981 0cc0 E96AFFFF 		jmp	.L215
 2981      FF
 2982              	.L230:
 2983 0cc5 4989C4   		movq	%rax, %r12
 2984 0cc8 4989D6   		movq	%rdx, %r14
 2985 0ccb 4889DF   		movq	%rbx, %rdi
 2986 0cce E8000000 		call	_ZN12_GLOBAL__N_111FixtureBaseD2Ev
 2986      00
 2987 0cd3 4C89E7   		movq	%r12, %rdi
 2988 0cd6 4C89F2   		movq	%r14, %rdx
 2989 0cd9 E951FFFF 		jmp	.L215
 2989      FF
 2990              	.L235:
 2991 0cde 4989C4   		movq	%rax, %r12
 2992 0ce1 4989D6   		movq	%rdx, %r14
 2993 0ce4 4889DF   		movq	%rbx, %rdi
 2994 0ce7 E8000000 		call	_ZN12_GLOBAL__N_111FixtureBaseD2Ev
 2994      00
 2995 0cec 4C89E7   		movq	%r12, %rdi
 2996 0cef 4C89F2   		movq	%r14, %rdx
 2997              	.L212:
 2998 0cf2 4883FA01 		cmpq	$1, %rdx
 2999 0cf6 0F84AC00 		je	.L217
 2999      0000
 3000 0cfc 4883FA02 		cmpq	$2, %rdx
 3001 0d00 0F843DFF 		je	.L218
 3001      FFFF
 3002 0d06 E8000000 		call	__cxa_begin_catch@PLT
 3002      00
 3003              	.LEHB80:
 3004 0d0b E8000000 		call	_ZN8UnitTest11CurrentTest7ResultsEv@PLT
 3004      00
 3005 0d10 4889E3   		movq	%rsp, %rbx
 3006 0d13 BA5C0000 		movl	$92, %edx
 3006      00
 3007 0d18 4889EE   		movq	%rbp, %rsi
 3008 0d1b 4889DF   		movq	%rbx, %rdi
 3009 0d1e 4C8B20   		movq	(%rax), %r12
 3010 0d21 E8000000 		call	_ZN8UnitTest11TestDetailsC1ERKS0_i@PLT
 3010      00
 3011 0d26 488D1500 		leaq	.LC14(%rip), %rdx
 3011      000000
 3012 0d2d 4889DE   		movq	%rbx, %rsi
 3013 0d30 4C89E7   		movq	%r12, %rdi
 3014 0d33 E8000000 		call	_ZN8UnitTest11TestResults13OnTestFailureERKNS_11TestDetailsEPKc@PLT
 3014      00
 3015              	.LEHE80:
 3016              	.L219:
 3017              	.LEHB81:
 3018 0d38 E8000000 		call	__cxa_end_catch@PLT
 3018      00
 3019              	.LEHE81:
 3020 0d3d E9C2FEFF 		jmp	.L209
 3020      FF
 3021              	.L237:
 3022 0d42 4889C7   		movq	%rax, %rdi
 3023 0d45 EBAB     		jmp	.L212
 3024              	.L234:
 3025 0d47 4889C3   		movq	%rax, %rbx
 3026 0d4a E8000000 		call	__cxa_end_catch@PLT
 3026      00
 3027 0d4f 4889DF   		movq	%rbx, %rdi
 3028              	.LEHB82:
 3029 0d52 E8000000 		call	_Unwind_Resume@PLT
 3029      00
 3030              	.LEHE82:
 3031              	.L233:
 3032 0d57 4889DF   		movq	%rbx, %rdi
 3033 0d5a 4889C5   		movq	%rax, %rbp
 3034 0d5d E8000000 		call	_ZN8UnitTest15MemoryOutStreamD1Ev
 3034      00
 3035              	.L222:
 3036 0d62 E8000000 		call	__cxa_end_catch@PLT
 3036      00
 3037 0d67 4889EF   		movq	%rbp, %rdi
 3038              	.LEHB83:
 3039 0d6a E8000000 		call	_Unwind_Resume@PLT
 3039      00
 3040              	.LEHE83:
 3041              	.L232:
 3042 0d6f 4889C5   		movq	%rax, %rbp
 3043 0d72 EBEE     		jmp	.L222
 3044              	.L258:
 3045 0d74 E8000000 		call	__cxa_begin_catch@PLT
 3045      00
 3046              	.LEHB84:
 3047 0d79 E8000000 		call	_ZN8UnitTest11CurrentTest7ResultsEv@PLT
 3047      00
 3048 0d7e 4889E3   		movq	%rsp, %rbx
 3049 0d81 BA5C0000 		movl	$92, %edx
 3049      00
 3050 0d86 4889EE   		movq	%rbp, %rsi
 3051 0d89 4889DF   		movq	%rbx, %rdi
 3052 0d8c 4C8B20   		movq	(%rax), %r12
 3053 0d8f E8000000 		call	_ZN8UnitTest11TestDetailsC1ERKS0_i@PLT
 3053      00
 3054 0d94 488D1500 		leaq	.LC13(%rip), %rdx
 3054      000000
 3055 0d9b 4889DE   		movq	%rbx, %rsi
 3056 0d9e 4C89E7   		movq	%r12, %rdi
 3057 0da1 E8000000 		call	_ZN8UnitTest11TestResults13OnTestFailureERKNS_11TestDetailsEPKc@PLT
 3057      00
 3058              	.LEHE84:
 3059 0da6 EB90     		jmp	.L219
 3060              	.L217:
 3061 0da8 E8000000 		call	__cxa_begin_catch@PLT
 3061      00
 3062 0dad 4889C3   		movq	%rax, %rbx
 3063              	.LEHB85:
 3064 0db0 E8000000 		call	_ZN8UnitTest11CurrentTest7ResultsEv@PLT
 3064      00
 3065 0db5 488B28   		movq	(%rax), %rbp
 3066 0db8 488B03   		movq	(%rbx), %rax
 3067 0dbb 4889DF   		movq	%rbx, %rdi
 3068 0dbe FF5010   		call	*16(%rax)
 3069 0dc1 4889DF   		movq	%rbx, %rdi
 3070 0dc4 4989C4   		movq	%rax, %r12
 3071 0dc7 E8000000 		call	_ZNK8UnitTest15AssertException10LineNumberEv@PLT
 3071      00
 3072 0dcc 4889DF   		movq	%rbx, %rdi
 3073 0dcf 4189C6   		movl	%eax, %r14d
 3074 0dd2 E8000000 		call	_ZNK8UnitTest15AssertException8FilenameEv@PLT
 3074      00
 3075 0dd7 498B5508 		movq	8(%r13), %rdx
 3076 0ddb 498B7510 		movq	16(%r13), %rsi
 3077 0ddf 4889E3   		movq	%rsp, %rbx
 3078 0de2 4589F0   		movl	%r14d, %r8d
 3079 0de5 4889C1   		movq	%rax, %rcx
 3080 0de8 4889DF   		movq	%rbx, %rdi
 3081 0deb E8000000 		call	_ZN8UnitTest11TestDetailsC1EPKcS2_S2_i@PLT
 3081      00
 3082 0df0 4C89E2   		movq	%r12, %rdx
 3083 0df3 4889DE   		movq	%rbx, %rsi
 3084 0df6 4889EF   		movq	%rbp, %rdi
 3085 0df9 E8000000 		call	_ZN8UnitTest11TestResults13OnTestFailureERKNS_11TestDetailsEPKc@PLT
 3085      00
 3086              	.LEHE85:
 3087 0dfe E99FFEFF 		jmp	.L256
 3087      FF
 3088              	.L231:
 3089 0e03 4889C3   		movq	%rax, %rbx
 3090 0e06 E8000000 		call	__cxa_end_catch@PLT
 3090      00
 3091 0e0b 4889DF   		movq	%rbx, %rdi
 3092              	.LEHB86:
 3093 0e0e E8000000 		call	_Unwind_Resume@PLT
 3093      00
 3094              	.LEHE86:
 3095              		.cfi_endproc
 3096              	.LFE1201:
 3097              		.section	.gcc_except_table
 3098              		.align 4
 3099              	.LLSDA1201:
 3100 01cc FF       		.byte	0xff
 3101 01cd 9B       		.byte	0x9b
 3102 01ce 6D       		.uleb128 .LLSDATT1201-.LLSDATTD1201
 3103              	.LLSDATTD1201:
 3104 01cf 01       		.byte	0x1
 3105 01d0 55       		.uleb128 .LLSDACSE1201-.LLSDACSB1201
 3106              	.LLSDACSB1201:
 3107 01d1 35       		.uleb128 .LEHB72-.LFB1201
 3108 01d2 05       		.uleb128 .LEHE72-.LEHB72
 3109 01d3 C204     		.uleb128 .L237-.LFB1201
 3110 01d5 05       		.uleb128 0x5
 3111 01d6 D601     		.uleb128 .LEHB73-.LFB1201
 3112 01d8 05       		.uleb128 .LEHE73-.LEHB73
 3113 01d9 DE03     		.uleb128 .L235-.LFB1201
 3114 01db 07       		.uleb128 0x7
 3115 01dc E901     		.uleb128 .LEHB74-.LFB1201
 3116 01de 05       		.uleb128 .LEHE74-.LEHB74
 3117 01df C503     		.uleb128 .L230-.LFB1201
 3118 01e1 07       		.uleb128 0x7
 3119 01e2 F701     		.uleb128 .LEHB75-.LFB1201
 3120 01e4 05       		.uleb128 .LEHE75-.LEHB75
 3121 01e5 AC03     		.uleb128 .L236-.LFB1201
 3122 01e7 07       		.uleb128 0x7
 3123 01e8 FF01     		.uleb128 .LEHB76-.LFB1201
 3124 01ea 05       		.uleb128 .LEHE76-.LEHB76
 3125 01eb AC02     		.uleb128 .L229-.LFB1201
 3126 01ed 05       		.uleb128 0x5
 3127 01ee CE02     		.uleb128 .LEHB77-.LFB1201
 3128 01f0 05       		.uleb128 .LEHE77-.LEHB77
 3129 01f1 EF04     		.uleb128 .L232-.LFB1201
 3130 01f3 00       		.uleb128 0
 3131 01f4 E202     		.uleb128 .LEHB78-.LFB1201
 3132 01f6 38       		.uleb128 .LEHE78-.LEHB78
 3133 01f7 D704     		.uleb128 .L233-.LFB1201
 3134 01f9 00       		.uleb128 0
 3135 01fa 9D03     		.uleb128 .LEHB79-.LFB1201
 3136 01fc 05       		.uleb128 .LEHE79-.LEHB79
 3137 01fd EF04     		.uleb128 .L232-.LFB1201
 3138 01ff 00       		.uleb128 0
 3139 0200 8B04     		.uleb128 .LEHB80-.LFB1201
 3140 0202 2D       		.uleb128 .LEHE80-.LEHB80
 3141 0203 C704     		.uleb128 .L234-.LFB1201
 3142 0205 00       		.uleb128 0
 3143 0206 B804     		.uleb128 .LEHB81-.LFB1201
 3144 0208 05       		.uleb128 .LEHE81-.LEHB81
 3145 0209 00       		.uleb128 0
 3146 020a 00       		.uleb128 0
 3147 020b D204     		.uleb128 .LEHB82-.LFB1201
 3148 020d 05       		.uleb128 .LEHE82-.LEHB82
 3149 020e 00       		.uleb128 0
 3150 020f 00       		.uleb128 0
 3151 0210 EA04     		.uleb128 .LEHB83-.LFB1201
 3152 0212 05       		.uleb128 .LEHE83-.LEHB83
 3153 0213 00       		.uleb128 0
 3154 0214 00       		.uleb128 0
 3155 0215 F904     		.uleb128 .LEHB84-.LFB1201
 3156 0217 2D       		.uleb128 .LEHE84-.LEHB84
 3157 0218 C704     		.uleb128 .L234-.LFB1201
 3158 021a 00       		.uleb128 0
 3159 021b B005     		.uleb128 .LEHB85-.LFB1201
 3160 021d 4E       		.uleb128 .LEHE85-.LEHB85
 3161 021e 8306     		.uleb128 .L231-.LFB1201
 3162 0220 00       		.uleb128 0
 3163 0221 8E06     		.uleb128 .LEHB86-.LFB1201
 3164 0223 05       		.uleb128 .LEHE86-.LEHB86
 3165 0224 00       		.uleb128 0
 3166 0225 00       		.uleb128 0
 3167              	.LLSDACSE1201:
 3168 0226 03       		.byte	0x3
 3169 0227 00       		.byte	0
 3170 0228 02       		.byte	0x2
 3171 0229 7D       		.byte	0x7d
 3172 022a 01       		.byte	0x1
 3173 022b 7D       		.byte	0x7d
 3174 022c 00       		.byte	0
 3175 022d 7D       		.byte	0x7d
 3176 022e 0000     		.align 4
 3177 0230 00000000 		.long	0
 3178              	
 3179 0234 00000000 		.long	DW.ref._ZTISt9exception-.
 3180 0238 00000000 		.long	DW.ref._ZTIN8UnitTest15AssertExceptionE-.
 3181              	.LLSDATT1201:
 3182              		.text
 3184              		.section	.text._ZNSt7__cxx1115basic_stringbufIcSt11char_traitsIcESaIcEED0Ev,"axG",@progbits,_ZNSt7
 3185              		.align 2
 3186              		.p2align 4,,15
 3187              		.weak	_ZNSt7__cxx1115basic_stringbufIcSt11char_traitsIcESaIcEED0Ev
 3189              	_ZNSt7__cxx1115basic_stringbufIcSt11char_traitsIcESaIcEED0Ev:
 3190              	.LFB1389:
 3191              		.cfi_startproc
 3192 0000 488D0500 		leaq	16+_ZTVNSt7__cxx1115basic_stringbufIcSt11char_traitsIcESaIcEEE(%rip), %rax
 3192      000000
 3193 0007 53       		pushq	%rbx
 3194              		.cfi_def_cfa_offset 16
 3195              		.cfi_offset 3, -16
 3196 0008 4889FB   		movq	%rdi, %rbx
 3197 000b 488907   		movq	%rax, (%rdi)
 3198 000e 488B7F48 		movq	72(%rdi), %rdi
 3199 0012 488D4358 		leaq	88(%rbx), %rax
 3200 0016 4839C7   		cmpq	%rax, %rdi
 3201 0019 7405     		je	.L260
 3202 001b E8000000 		call	_ZdlPv@PLT
 3202      00
 3203              	.L260:
 3204 0020 488D0500 		leaq	16+_ZTVSt15basic_streambufIcSt11char_traitsIcEE(%rip), %rax
 3204      000000
 3205 0027 488D7B38 		leaq	56(%rbx), %rdi
 3206 002b 488903   		movq	%rax, (%rbx)
 3207 002e E8000000 		call	_ZNSt6localeD1Ev@PLT
 3207      00
 3208 0033 4889DF   		movq	%rbx, %rdi
 3209 0036 5B       		popq	%rbx
 3210              		.cfi_def_cfa_offset 8
 3211 0037 E9000000 		jmp	_ZdlPv@PLT
 3211      00
 3212              		.cfi_endproc
 3213              	.LFE1389:
 3215              		.section	.rodata._ZN8UnitTest10CheckEqualIiiEEvRNS_11TestResultsERKT_RKT0_RKNS_11TestDetailsE.str1
 3216              	.LC15:
 3217 0000 45787065 		.string	"Expected "
 3217      63746564 
 3217      2000
 3218              	.LC16:
 3219 000a 20627574 		.string	" but was "
 3219      20776173 
 3219      2000
 3220              		.section	.text._ZN8UnitTest10CheckEqualIiiEEvRNS_11TestResultsERKT_RKT0_RKNS_11TestDetailsE,"axG",
 3221              		.p2align 4,,15
 3222              		.weak	_ZN8UnitTest10CheckEqualIiiEEvRNS_11TestResultsERKT_RKT0_RKNS_11TestDetailsE
 3224              	_ZN8UnitTest10CheckEqualIiiEEvRNS_11TestResultsERKT_RKT0_RKNS_11TestDetailsE:
 3225              	.LFB1408:
 3226              		.cfi_startproc
 3227              		.cfi_personality 0x9b,DW.ref.__gxx_personality_v0
 3228              		.cfi_lsda 0x1b,.LLSDA1408
 3229 0000 4157     		pushq	%r15
 3230              		.cfi_def_cfa_offset 16
 3231              		.cfi_offset 15, -16
 3232 0002 4156     		pushq	%r14
 3233              		.cfi_def_cfa_offset 24
 3234              		.cfi_offset 14, -24
 3235 0004 4155     		pushq	%r13
 3236              		.cfi_def_cfa_offset 32
 3237              		.cfi_offset 13, -32
 3238 0006 4154     		pushq	%r12
 3239              		.cfi_def_cfa_offset 40
 3240              		.cfi_offset 12, -40
 3241 0008 55       		pushq	%rbp
 3242              		.cfi_def_cfa_offset 48
 3243              		.cfi_offset 6, -48
 3244 0009 53       		pushq	%rbx
 3245              		.cfi_def_cfa_offset 56
 3246              		.cfi_offset 3, -56
 3247 000a 4881ECB8 		subq	$440, %rsp
 3247      010000
 3248              		.cfi_def_cfa_offset 496
 3249 0011 64488B04 		movq	%fs:40, %rax
 3249      25280000 
 3249      00
 3250 001a 48898424 		movq	%rax, 424(%rsp)
 3250      A8010000 
 3251 0022 31C0     		xorl	%eax, %eax
 3252 0024 8B02     		movl	(%rdx), %eax
 3253 0026 3906     		cmpl	%eax, (%rsi)
 3254 0028 48893C24 		movq	%rdi, (%rsp)
 3255 002c 48894C24 		movq	%rcx, 8(%rsp)
 3255      08
 3256 0031 0F842F02 		je	.L262
 3256      0000
 3257 0037 488D5C24 		leaq	16(%rsp), %rbx
 3257      10
 3258 003c 4C8D2D00 		leaq	24+_ZTCN8UnitTest15MemoryOutStreamE0_So(%rip), %r13
 3258      000000
 3259 0043 4989F4   		movq	%rsi, %r12
 3260 0046 4889D5   		movq	%rdx, %rbp
 3261 0049 4C8DB390 		leaq	144(%rbx), %r14
 3261      000000
 3262 0050 4C89F7   		movq	%r14, %rdi
 3263 0053 E8000000 		call	_ZNSt8ios_baseC2Ev@PLT
 3263      00
 3264 0058 498D4528 		leaq	40(%r13), %rax
 3265 005c 31F6     		xorl	%esi, %esi
 3266 005e 4C89F7   		movq	%r14, %rdi
 3267 0061 48C78424 		movq	$0, 376(%rsp)
 3267      78010000 
 3267      00000000 
 3268 006d C6842480 		movb	$0, 384(%rsp)
 3268      01000000 
 3269 0075 C6842481 		movb	$0, 385(%rsp)
 3269      01000000 
 3270 007d 48C78424 		movq	$0, 392(%rsp)
 3270      88010000 
 3270      00000000 
 3271 0089 48C78424 		movq	$0, 400(%rsp)
 3271      90010000 
 3271      00000000 
 3272 0095 48C78424 		movq	$0, 408(%rsp)
 3272      98010000 
 3272      00000000 
 3273 00a1 48C78424 		movq	$0, 416(%rsp)
 3273      A0010000 
 3273      00000000 
 3274 00ad 4C896C24 		movq	%r13, 16(%rsp)
 3274      10
 3275 00b2 48898424 		movq	%rax, 160(%rsp)
 3275      A0000000 
 3276              	.LEHB87:
 3277 00ba E8000000 		call	_ZNSt9basic_iosIcSt11char_traitsIcEE4initEPSt15basic_streambufIcS1_E@PLT
 3277      00
 3278              	.LEHE87:
 3279 00bf 488D0500 		leaq	24+_ZTCN8UnitTest15MemoryOutStreamE0_NSt7__cxx1119basic_ostringstreamIcSt11char_traitsIcESaIc
 3279      000000
 3280 00c6 660FEFC0 		pxor	%xmm0, %xmm0
 3281 00ca 488D7B40 		leaq	64(%rbx), %rdi
 3282 00ce 48894424 		movq	%rax, 16(%rsp)
 3282      10
 3283 00d3 4883C028 		addq	$40, %rax
 3284 00d7 48898424 		movq	%rax, 160(%rsp)
 3284      A0000000 
 3285 00df 488D0500 		leaq	16+_ZTVSt15basic_streambufIcSt11char_traitsIcEE(%rip), %rax
 3285      000000
 3286 00e6 0F294424 		movaps	%xmm0, 32(%rsp)
 3286      20
 3287 00eb 48894424 		movq	%rax, 24(%rsp)
 3287      18
 3288 00f0 0F294424 		movaps	%xmm0, 48(%rsp)
 3288      30
 3289 00f5 0F294424 		movaps	%xmm0, 64(%rsp)
 3289      40
 3290 00fa E8000000 		call	_ZNSt6localeC1Ev@PLT
 3290      00
 3291 00ff 488D0500 		leaq	16+_ZTVNSt7__cxx1115basic_stringbufIcSt11char_traitsIcESaIcEEE(%rip), %rax
 3291      000000
 3292 0106 488D7308 		leaq	8(%rbx), %rsi
 3293 010a 48894424 		movq	%rax, 24(%rsp)
 3293      18
 3294 010f 488D4360 		leaq	96(%rbx), %rax
 3295 0113 C7442458 		movl	$16, 88(%rsp)
 3295      10000000 
 3296 011b 48C74424 		movq	$0, 104(%rsp)
 3296      68000000 
 3296      00
 3297 0124 C6442470 		movb	$0, 112(%rsp)
 3297      00
 3298 0129 48894424 		movq	%rax, 96(%rsp)
 3298      60
 3299 012e 488B4424 		movq	16(%rsp), %rax
 3299      10
 3300 0133 488B78E8 		movq	-24(%rax), %rdi
 3301 0137 4801DF   		addq	%rbx, %rdi
 3302              	.LEHB88:
 3303 013a E8000000 		call	_ZNSt9basic_iosIcSt11char_traitsIcEE4initEPSt15basic_streambufIcS1_E@PLT
 3303      00
 3304              	.LEHE88:
 3305 013f 4C8D3D00 		leaq	24+_ZTVN8UnitTest15MemoryOutStreamE(%rip), %r15
 3305      000000
 3306 0146 488D8380 		leaq	128(%rbx), %rax
 3306      000000
 3307 014d 488D3500 		leaq	.LC15(%rip), %rsi
 3307      000000
 3308 0154 BA090000 		movl	$9, %edx
 3308      00
 3309 0159 4889DF   		movq	%rbx, %rdi
 3310 015c 48C78424 		movq	$0, 136(%rsp)
 3310      88000000 
 3310      00000000 
 3311 0168 4D8D7728 		leaq	40(%r15), %r14
 3312 016c 4C897C24 		movq	%r15, 16(%rsp)
 3312      10
 3313 0171 48898424 		movq	%rax, 128(%rsp)
 3313      80000000 
 3314 0179 C6842490 		movb	$0, 144(%rsp)
 3314      00000000 
 3315 0181 4C89B424 		movq	%r14, 160(%rsp)
 3315      A0000000 
 3316              	.LEHB89:
 3317 0189 E8000000 		call	_ZSt16__ostream_insertIcSt11char_traitsIcEERSt13basic_ostreamIT_T0_ES6_PKS3_l@PLT
 3317      00
 3318 018e 418B3424 		movl	(%r12), %esi
 3319 0192 4889DF   		movq	%rbx, %rdi
 3320 0195 E8000000 		call	_ZNSolsEi@PLT
 3320      00
 3321 019a 488D3500 		leaq	.LC16(%rip), %rsi
 3321      000000
 3322 01a1 BA090000 		movl	$9, %edx
 3322      00
 3323 01a6 4889C7   		movq	%rax, %rdi
 3324 01a9 4989C4   		movq	%rax, %r12
 3325 01ac E8000000 		call	_ZSt16__ostream_insertIcSt11char_traitsIcEERSt13basic_ostreamIT_T0_ES6_PKS3_l@PLT
 3325      00
 3326 01b1 8B7500   		movl	0(%rbp), %esi
 3327 01b4 4C89E7   		movq	%r12, %rdi
 3328 01b7 E8000000 		call	_ZNSolsEi@PLT
 3328      00
 3329 01bc 4889DF   		movq	%rbx, %rdi
 3330 01bf E8000000 		call	_ZNK8UnitTest15MemoryOutStream7GetTextEv@PLT
 3330      00
 3331 01c4 488B7424 		movq	8(%rsp), %rsi
 3331      08
 3332 01c9 488B3C24 		movq	(%rsp), %rdi
 3333 01cd 4889C2   		movq	%rax, %rdx
 3334 01d0 E8000000 		call	_ZN8UnitTest11TestResults13OnTestFailureERKNS_11TestDetailsEPKc@PLT
 3334      00
 3335              	.LEHE89:
 3336 01d5 488BBC24 		movq	128(%rsp), %rdi
 3336      80000000 
 3337 01dd 488D8380 		leaq	128(%rbx), %rax
 3337      000000
 3338 01e4 4C897C24 		movq	%r15, 16(%rsp)
 3338      10
 3339 01e9 4C89B424 		movq	%r14, 160(%rsp)
 3339      A0000000 
 3340 01f1 4839C7   		cmpq	%rax, %rdi
 3341 01f4 7405     		je	.L268
 3342 01f6 E8000000 		call	_ZdlPv@PLT
 3342      00
 3343              	.L268:
 3344 01fb 488D0500 		leaq	64+_ZTCN8UnitTest15MemoryOutStreamE0_NSt7__cxx1119basic_ostringstreamIcSt11char_traitsIcESaIc
 3344      000000
 3345 0202 488B7C24 		movq	96(%rsp), %rdi
 3345      60
 3346 0207 F30F7E05 		movq	.LC17(%rip), %xmm0
 3346      00000000 
 3347 020f 48898424 		movq	%rax, 160(%rsp)
 3347      A0000000 
 3348 0217 488D4360 		leaq	96(%rbx), %rax
 3349 021b 0F160500 		movhps	.LC18(%rip), %xmm0
 3349      000000
 3350 0222 4839C7   		cmpq	%rax, %rdi
 3351 0225 0F294424 		movaps	%xmm0, 16(%rsp)
 3351      10
 3352 022a 7405     		je	.L269
 3353 022c E8000000 		call	_ZdlPv@PLT
 3353      00
 3354              	.L269:
 3355 0231 488D0500 		leaq	16+_ZTVSt15basic_streambufIcSt11char_traitsIcEE(%rip), %rax
 3355      000000
 3356 0238 488D7B40 		leaq	64(%rbx), %rdi
 3357 023c 48894424 		movq	%rax, 24(%rsp)
 3357      18
 3358 0241 E8000000 		call	_ZNSt6localeD1Ev@PLT
 3358      00
 3359 0246 488D0500 		leaq	16+_ZTVSt9basic_iosIcSt11char_traitsIcEE(%rip), %rax
 3359      000000
 3360 024d 488DBB90 		leaq	144(%rbx), %rdi
 3360      000000
 3361 0254 4C896C24 		movq	%r13, 16(%rsp)
 3361      10
 3362 0259 48898424 		movq	%rax, 160(%rsp)
 3362      A0000000 
 3363              	.LEHB90:
 3364 0261 E8000000 		call	_ZNSt8ios_baseD2Ev@PLT
 3364      00
 3365              	.LEHE90:
 3366              	.L262:
 3367 0266 488B8424 		movq	424(%rsp), %rax
 3367      A8010000 
 3368 026e 64483304 		xorq	%fs:40, %rax
 3368      25280000 
 3368      00
 3369 0277 7512     		jne	.L278
 3370 0279 4881C4B8 		addq	$440, %rsp
 3370      010000
 3371              		.cfi_remember_state
 3372              		.cfi_def_cfa_offset 56
 3373 0280 5B       		popq	%rbx
 3374              		.cfi_def_cfa_offset 48
 3375 0281 5D       		popq	%rbp
 3376              		.cfi_def_cfa_offset 40
 3377 0282 415C     		popq	%r12
 3378              		.cfi_def_cfa_offset 32
 3379 0284 415D     		popq	%r13
 3380              		.cfi_def_cfa_offset 24
 3381 0286 415E     		popq	%r14
 3382              		.cfi_def_cfa_offset 16
 3383 0288 415F     		popq	%r15
 3384              		.cfi_def_cfa_offset 8
 3385 028a C3       		ret
 3386              	.L278:
 3387              		.cfi_restore_state
 3388 028b E8000000 		call	__stack_chk_fail@PLT
 3388      00
 3389              	.L273:
 3390 0290 4889C5   		movq	%rax, %rbp
 3391              	.L266:
 3392 0293 488D0500 		leaq	16+_ZTVSt9basic_iosIcSt11char_traitsIcEE(%rip), %rax
 3392      000000
 3393 029a 488DBB90 		leaq	144(%rbx), %rdi
 3393      000000
 3394 02a1 48898424 		movq	%rax, 160(%rsp)
 3394      A0000000 
 3395 02a9 E8000000 		call	_ZNSt8ios_baseD2Ev@PLT
 3395      00
 3396 02ae 4889EF   		movq	%rbp, %rdi
 3397              	.LEHB91:
 3398 02b1 E8000000 		call	_Unwind_Resume@PLT
 3398      00
 3399              	.LEHE91:
 3400              	.L272:
 3401 02b6 4889C5   		movq	%rax, %rbp
 3402 02b9 4889DF   		movq	%rbx, %rdi
 3403 02bc E8000000 		call	_ZN8UnitTest15MemoryOutStreamD1Ev
 3403      00
 3404 02c1 4889EF   		movq	%rbp, %rdi
 3405              	.LEHB92:
 3406 02c4 E8000000 		call	_Unwind_Resume@PLT
 3406      00
 3407              	.LEHE92:
 3408              	.L274:
 3409 02c9 488D7B08 		leaq	8(%rbx), %rdi
 3410 02cd 4889C5   		movq	%rax, %rbp
 3411 02d0 E8000000 		call	_ZNSt7__cxx1115basic_stringbufIcSt11char_traitsIcESaIcEED1Ev
 3411      00
 3412 02d5 4C896C24 		movq	%r13, 16(%rsp)
 3412      10
 3413 02da EBB7     		jmp	.L266
 3414              		.cfi_endproc
 3415              	.LFE1408:
 3416              		.section	.gcc_except_table
 3417              	.LLSDA1408:
 3418 023c FF       		.byte	0xff
 3419 023d FF       		.byte	0xff
 3420 023e 01       		.byte	0x1
 3421 023f 21       		.uleb128 .LLSDACSE1408-.LLSDACSB1408
 3422              	.LLSDACSB1408:
 3423 0240 BA01     		.uleb128 .LEHB87-.LFB1408
 3424 0242 05       		.uleb128 .LEHE87-.LEHB87
 3425 0243 9005     		.uleb128 .L273-.LFB1408
 3426 0245 00       		.uleb128 0
 3427 0246 BA02     		.uleb128 .LEHB88-.LFB1408
 3428 0248 05       		.uleb128 .LEHE88-.LEHB88
 3429 0249 C905     		.uleb128 .L274-.LFB1408
 3430 024b 00       		.uleb128 0
 3431 024c 8903     		.uleb128 .LEHB89-.LFB1408
 3432 024e 4C       		.uleb128 .LEHE89-.LEHB89
 3433 024f B605     		.uleb128 .L272-.LFB1408
 3434 0251 00       		.uleb128 0
 3435 0252 E104     		.uleb128 .LEHB90-.LFB1408
 3436 0254 05       		.uleb128 .LEHE90-.LEHB90
 3437 0255 00       		.uleb128 0
 3438 0256 00       		.uleb128 0
 3439 0257 B105     		.uleb128 .LEHB91-.LFB1408
 3440 0259 05       		.uleb128 .LEHE91-.LEHB91
 3441 025a 00       		.uleb128 0
 3442 025b 00       		.uleb128 0
 3443 025c C405     		.uleb128 .LEHB92-.LFB1408
 3444 025e 05       		.uleb128 .LEHE92-.LEHB92
 3445 025f 00       		.uleb128 0
 3446 0260 00       		.uleb128 0
 3447              	.LLSDACSE1408:
 3448              		.section	.text._ZN8UnitTest10CheckEqualIiiEEvRNS_11TestResultsERKT_RKT0_RKNS_11TestDetailsE,"axG",
 3450              		.section	.rodata.str1.1
 3451              	.LC19:
 3452 0077 4F746865 		.string	"OtherSuite"
 3452      72537569 
 3452      746500
 3453              	.LC20:
 3454 0082 54657374 		.string	"TestInOtherSuite"
 3454      496E4F74 
 3454      68657253 
 3454      75697465 
 3454      00
 3455              		.section	.rodata.str1.8
 3456 0151 00000000 		.align 8
 3456      000000
 3457              	.LC21:
 3458 0158 556E6861 		.string	"Unhandled exception in CHECK_EQUAL(1, reporter.summaryTotalTestCount)"
 3458      6E646C65 
 3458      64206578 
 3458      63657074 
 3458      696F6E20 
 3459 019e 0000     		.align 8
 3460              	.LC22:
 3461 01a0 556E6861 		.string	"Unhandled exception in CHECK_EQUAL(\"TestInOtherSuite\", reporter.lastFinishedTest)"
 3461      6E646C65 
 3461      64206578 
 3461      63657074 
 3461      696F6E20 
 3462              		.text
 3463 0e13 0F1F0066 		.p2align 4,,15
 3463      2E0F1F84 
 3463      00000000 
 3463      00
 3465              	_ZN8UnitTest11ExecuteTestIN12_GLOBAL__N_154TestSuiteFixtureTestRunnerRunsOnlySpecifiedSuiteHelperEE
 3466              	.LFB1425:
 3467              		.cfi_startproc
 3468              		.cfi_personality 0x9b,DW.ref.__gxx_personality_v0
 3469              		.cfi_lsda 0x1b,.LLSDA1425
 3470 0e20 4156     		pushq	%r14
 3471              		.cfi_def_cfa_offset 16
 3472              		.cfi_offset 14, -16
 3473 0e22 4155     		pushq	%r13
 3474              		.cfi_def_cfa_offset 24
 3475              		.cfi_offset 13, -24
 3476 0e24 4154     		pushq	%r12
 3477              		.cfi_def_cfa_offset 32
 3478              		.cfi_offset 12, -32
 3479 0e26 55       		pushq	%rbp
 3480              		.cfi_def_cfa_offset 40
 3481              		.cfi_offset 6, -40
 3482 0e27 53       		pushq	%rbx
 3483              		.cfi_def_cfa_offset 48
 3484              		.cfi_offset 3, -48
 3485 0e28 4889F3   		movq	%rsi, %rbx
 3486 0e2b 4881ECD0 		subq	$1744, %rsp
 3486      060000
 3487              		.cfi_def_cfa_offset 1792
 3488 0e32 48893C24 		movq	%rdi, (%rsp)
 3489 0e36 48897424 		movq	%rsi, 8(%rsp)
 3489      08
 3490 0e3b 64488B04 		movq	%fs:40, %rax
 3490      25280000 
 3490      00
 3491 0e44 48898424 		movq	%rax, 1736(%rsp)
 3491      C8060000 
 3492 0e4c 31C0     		xorl	%eax, %eax
 3493              	.LEHB93:
 3494 0e4e E8000000 		call	_ZN8UnitTest11CurrentTest7DetailsEv@PLT
 3494      00
 3495              	.LEHE93:
 3496 0e53 488DBC24 		leaq	608(%rsp), %rdi
 3496      60020000 
 3497 0e5b 488918   		movq	%rbx, (%rax)
 3498              	.LEHB94:
 3499 0e5e E8000000 		call	_ZN8UnitTest16SignalTranslatorC1Ev@PLT
 3499      00
 3500              	.LEHE94:
 3501 0e63 488B3D00 		movq	_ZN8UnitTest16SignalTranslator12s_jumpTargetE(%rip), %rdi
 3501      000000
 3502 0e6a BE010000 		movl	$1, %esi
 3502      00
 3503 0e6f E8000000 		call	__sigsetjmp@PLT
 3503      00
 3504 0e74 85C0     		testl	%eax, %eax
 3505 0e76 7428     		je	.L281
 3506 0e78 BF080000 		movl	$8, %edi
 3506      00
 3507 0e7d E8000000 		call	__cxa_allocate_exception@PLT
 3507      00
 3508 0e82 488D0D00 		leaq	.LC3(%rip), %rcx
 3508      000000
 3509 0e89 488D3500 		leaq	_ZTIPKc(%rip), %rsi
 3509      000000
 3510 0e90 31D2     		xorl	%edx, %edx
 3511 0e92 4889C7   		movq	%rax, %rdi
 3512 0e95 488908   		movq	%rcx, (%rax)
 3513              	.LEHB95:
 3514 0e98 E8000000 		call	__cxa_throw@PLT
 3514      00
 3515 0e9d 0F1F00   		.p2align 4,,10
 3516              		.p2align 3
 3517              	.L281:
 3518 0ea0 488B2C24 		movq	(%rsp), %rbp
 3519 0ea4 488D9DF0 		leaq	2288(%rbp), %rbx
 3519      080000
 3520 0eab E8000000 		call	_ZN8UnitTest11CurrentTest7ResultsEv@PLT
 3520      00
 3521 0eb0 4C8B30   		movq	(%rax), %r14
 3522 0eb3 E8000000 		call	_ZN8UnitTest11CurrentTest7DetailsEv@PLT
 3522      00
 3523 0eb8 4889DF   		movq	%rbx, %rdi
 3524 0ebb 4C8B28   		movq	(%rax), %r13
 3525 0ebe E8000000 		call	_ZNK8UnitTest8TestList7GetHeadEv@PLT
 3525      00
 3526 0ec3 4885C0   		testq	%rax, %rax
 3527 0ec6 4889C3   		movq	%rax, %rbx
 3528 0ec9 7446     		je	.L282
 3529 0ecb 4C8D2500 		leaq	.LC19(%rip), %r12
 3529      000000
 3530 0ed2 EB0D     		jmp	.L284
 3531              		.p2align 4,,10
 3532 0ed4 0F1F4000 		.p2align 3
 3533              	.L318:
 3534 0ed8 488B5B28 		movq	40(%rbx), %rbx
 3535 0edc 4885DB   		testq	%rbx, %rbx
 3536 0edf 7430     		je	.L282
 3537              	.L284:
 3538 0ee1 4C89E2   		movq	%r12, %rdx
 3539 0ee4 4889DE   		movq	%rbx, %rsi
 3540 0ee7 4889EF   		movq	%rbp, %rdi
 3541 0eea E8000000 		call	_ZNK8UnitTest10TestRunner13IsTestInSuiteEPKNS_4TestEPKc@PLT
 3541      00
 3542 0eef 84C0     		testb	%al, %al
 3543 0ef1 74E5     		je	.L318
 3544 0ef3 488B0424 		movq	(%rsp), %rax
 3545 0ef7 31C9     		xorl	%ecx, %ecx
 3546 0ef9 4889DA   		movq	%rbx, %rdx
 3547 0efc 4889EF   		movq	%rbp, %rdi
 3548 0eff 488B7008 		movq	8(%rax), %rsi
 3549 0f03 E8000000 		call	_ZNK8UnitTest10TestRunner7RunTestEPNS_11TestResultsEPNS_4TestEi@PLT
 3549      00
 3550 0f08 488B5B28 		movq	40(%rbx), %rbx
 3551 0f0c 4885DB   		testq	%rbx, %rbx
 3552 0f0f 75D0     		jne	.L284
 3553              	.L282:
 3554 0f11 488B1C24 		movq	(%rsp), %rbx
 3555 0f15 4889DF   		movq	%rbx, %rdi
 3556 0f18 E8000000 		call	_ZNK8UnitTest10TestRunner6FinishEv@PLT
 3556      00
 3557 0f1d E8000000 		call	_ZN8UnitTest11CurrentTest7ResultsEv@PLT
 3557      00
 3558 0f22 4C8930   		movq	%r14, (%rax)
 3559 0f25 E8000000 		call	_ZN8UnitTest11CurrentTest7DetailsEv@PLT
 3559      00
 3560              	.LEHE95:
 3561 0f2a 4C8928   		movq	%r13, (%rax)
 3562              	.LEHB96:
 3563 0f2d E8000000 		call	_ZN8UnitTest11CurrentTest7DetailsEv@PLT
 3563      00
 3564 0f32 488B30   		movq	(%rax), %rsi
 3565 0f35 488DBC24 		leaq	160(%rsp), %rdi
 3565      A0000000 
 3566 0f3d BAFB0000 		movl	$251, %edx
 3566      00
 3567 0f42 E8000000 		call	_ZN8UnitTest11TestDetailsC1ERKS0_i@PLT
 3567      00
 3568 0f47 4881C334 		addq	$2100, %rbx
 3568      080000
 3569 0f4e C744241C 		movl	$1, 28(%rsp)
 3569      01000000 
 3570 0f56 E8000000 		call	_ZN8UnitTest11CurrentTest7ResultsEv@PLT
 3570      00
 3571 0f5b 488B38   		movq	(%rax), %rdi
 3572 0f5e 488D8C24 		leaq	160(%rsp), %rcx
 3572      A0000000 
 3573 0f66 488D7424 		leaq	28(%rsp), %rsi
 3573      1C
 3574 0f6b 4889DA   		movq	%rbx, %rdx
 3575 0f6e E8000000 		call	_ZN8UnitTest10CheckEqualIiiEEvRNS_11TestResultsERKT_RKT0_RKNS_11TestDetailsE
 3575      00
 3576              	.LEHE96:
 3577              	.L288:
 3578              	.LEHB97:
 3579 0f73 E8000000 		call	_ZN8UnitTest11CurrentTest7DetailsEv@PLT
 3579      00
 3580 0f78 488B30   		movq	(%rax), %rsi
 3581 0f7b 488D7C24 		leaq	96(%rsp), %rdi
 3581      60
 3582 0f80 BAFC0000 		movl	$252, %edx
 3582      00
 3583 0f85 E8000000 		call	_ZN8UnitTest11TestDetailsC1ERKS0_i@PLT
 3583      00
 3584 0f8a 488B1C24 		movq	(%rsp), %rbx
 3585 0f8e 4881C330 		addq	$1840, %rbx
 3585      070000
 3586 0f95 E8000000 		call	_ZN8UnitTest11CurrentTest7ResultsEv@PLT
 3586      00
 3587 0f9a 488B38   		movq	(%rax), %rdi
 3588 0f9d 488D4C24 		leaq	96(%rsp), %rcx
 3588      60
 3589 0fa2 488D3500 		leaq	.LC20(%rip), %rsi
 3589      000000
 3590 0fa9 4889DA   		movq	%rbx, %rdx
 3591 0fac E8000000 		call	_ZN8UnitTest10CheckEqualERNS_11TestResultsEPKcPcRKNS_11TestDetailsE@PLT
 3591      00
 3592              	.LEHE97:
 3593              	.L286:
 3594 0fb1 488DBC24 		leaq	608(%rsp), %rdi
 3594      60020000 
 3595              	.LEHB98:
 3596 0fb9 E8000000 		call	_ZN8UnitTest16SignalTranslatorD1Ev@PLT
 3596      00
 3597              	.LEHE98:
 3598              	.L279:
 3599 0fbe 488B8424 		movq	1736(%rsp), %rax
 3599      C8060000 
 3600 0fc6 64483304 		xorq	%fs:40, %rax
 3600      25280000 
 3600      00
 3601 0fcf 0F85C000 		jne	.L319
 3601      0000
 3602 0fd5 4881C4D0 		addq	$1744, %rsp
 3602      060000
 3603              		.cfi_remember_state
 3604              		.cfi_def_cfa_offset 48
 3605 0fdc 5B       		popq	%rbx
 3606              		.cfi_def_cfa_offset 40
 3607 0fdd 5D       		popq	%rbp
 3608              		.cfi_def_cfa_offset 32
 3609 0fde 415C     		popq	%r12
 3610              		.cfi_def_cfa_offset 24
 3611 0fe0 415D     		popq	%r13
 3612              		.cfi_def_cfa_offset 16
 3613 0fe2 415E     		popq	%r14
 3614              		.cfi_def_cfa_offset 8
 3615 0fe4 C3       		ret
 3616              	.L305:
 3617              		.cfi_restore_state
 3618 0fe5 4889C3   		movq	%rax, %rbx
 3619 0fe8 4889D5   		movq	%rdx, %rbp
 3620              	.L290:
 3621 0feb 488DBC24 		leaq	608(%rsp), %rdi
 3621      60020000 
 3622 0ff3 E8000000 		call	_ZN8UnitTest16SignalTranslatorD1Ev@PLT
 3622      00
 3623 0ff8 4889DF   		movq	%rbx, %rdi
 3624 0ffb 4889EA   		movq	%rbp, %rdx
 3625              	.L293:
 3626 0ffe 4883FA01 		cmpq	$1, %rdx
 3627 1002 0F849401 		je	.L295
 3627      0000
 3628 1008 4883FA02 		cmpq	$2, %rdx
 3629 100c 0F856201 		jne	.L320
 3629      0000
 3630 1012 E8000000 		call	__cxa_begin_catch@PLT
 3630      00
 3631 1017 488DBC24 		leaq	192(%rsp), %rdi
 3631      C0000000 
 3632 101f 4889C3   		movq	%rax, %rbx
 3633              	.LEHB99:
 3634 1022 E8000000 		call	_ZN8UnitTest15MemoryOutStreamC1Ev
 3634      00
 3635              	.LEHE99:
 3636 1027 488DBC24 		leaq	192(%rsp), %rdi
 3636      C0000000 
 3637 102f 488D3500 		leaq	.LC11(%rip), %rsi
 3637      000000
 3638 1036 BA150000 		movl	$21, %edx
 3638      00
 3639              	.LEHB100:
 3640 103b E8000000 		call	_ZSt16__ostream_insertIcSt11char_traitsIcEERSt13basic_ostreamIT_T0_ES6_PKS3_l@PLT
 3640      00
 3641 1040 488B03   		movq	(%rbx), %rax
 3642 1043 4889DF   		movq	%rbx, %rdi
 3643 1046 FF5010   		call	*16(%rax)
 3644 1049 488DBC24 		leaq	192(%rsp), %rdi
 3644      C0000000 
 3645 1051 4889C6   		movq	%rax, %rsi
 3646 1054 E8000000 		call	_ZStlsISt11char_traitsIcEERSt13basic_ostreamIcT_ES5_PKc@PLT
 3646      00
 3647 1059 E8000000 		call	_ZN8UnitTest11CurrentTest7ResultsEv@PLT
 3647      00
 3648 105e 488DBC24 		leaq	192(%rsp), %rdi
 3648      C0000000 
 3649 1066 488B18   		movq	(%rax), %rbx
 3650 1069 E8000000 		call	_ZNK8UnitTest15MemoryOutStream7GetTextEv@PLT
 3650      00
 3651 106e 488B7424 		movq	8(%rsp), %rsi
 3651      08
 3652 1073 4889C2   		movq	%rax, %rdx
 3653 1076 4889DF   		movq	%rbx, %rdi
 3654 1079 E8000000 		call	_ZN8UnitTest11TestResults13OnTestFailureERKNS_11TestDetailsEPKc@PLT
 3654      00
 3655              	.LEHE100:
 3656 107e 488DBC24 		leaq	192(%rsp), %rdi
 3656      C0000000 
 3657              	.LEHB101:
 3658 1086 E8000000 		call	_ZN8UnitTest15MemoryOutStreamD1Ev
 3658      00
 3659              	.LEHE101:
 3660              	.L316:
 3661 108b E8000000 		call	__cxa_end_catch@PLT
 3661      00
 3662 1090 E929FFFF 		jmp	.L279
 3662      FF
 3663              	.L319:
 3664 1095 E8000000 		call	__stack_chk_fail@PLT
 3664      00
 3665              	.L304:
 3666 109a 4889C7   		movq	%rax, %rdi
 3667 109d E95CFFFF 		jmp	.L293
 3667      FF
 3668              	.L311:
 3669 10a2 4889C7   		movq	%rax, %rdi
 3670 10a5 E8000000 		call	__cxa_begin_catch@PLT
 3670      00
 3671              	.LEHB102:
 3672 10aa E8000000 		call	_ZN8UnitTest11CurrentTest7ResultsEv@PLT
 3672      00
 3673 10af 488B18   		movq	(%rax), %rbx
 3674 10b2 E8000000 		call	_ZN8UnitTest11CurrentTest7DetailsEv@PLT
 3674      00
 3675 10b7 488B30   		movq	(%rax), %rsi
 3676 10ba 488D7C24 		leaq	64(%rsp), %rdi
 3676      40
 3677 10bf BAFC0000 		movl	$252, %edx
 3677      00
 3678 10c4 E8000000 		call	_ZN8UnitTest11TestDetailsC1ERKS0_i@PLT
 3678      00
 3679 10c9 488D7424 		leaq	64(%rsp), %rsi
 3679      40
 3680 10ce 488D1500 		leaq	.LC22(%rip), %rdx
 3680      000000
 3681 10d5 4889DF   		movq	%rbx, %rdi
 3682 10d8 E8000000 		call	_ZN8UnitTest11TestResults13OnTestFailureERKNS_11TestDetailsEPKc@PLT
 3682      00
 3683              	.LEHE102:
 3684              	.LEHB103:
 3685 10dd E8000000 		call	__cxa_end_catch@PLT
 3685      00
 3686              	.LEHE103:
 3687 10e2 E9CAFEFF 		jmp	.L286
 3687      FF
 3688              	.L313:
 3689 10e7 4889C7   		movq	%rax, %rdi
 3690 10ea E8000000 		call	__cxa_begin_catch@PLT
 3690      00
 3691              	.LEHB104:
 3692 10ef E8000000 		call	_ZN8UnitTest11CurrentTest7ResultsEv@PLT
 3692      00
 3693 10f4 488B18   		movq	(%rax), %rbx
 3694 10f7 E8000000 		call	_ZN8UnitTest11CurrentTest7DetailsEv@PLT
 3694      00
 3695 10fc 488B30   		movq	(%rax), %rsi
 3696 10ff 488DBC24 		leaq	128(%rsp), %rdi
 3696      80000000 
 3697 1107 BAFB0000 		movl	$251, %edx
 3697      00
 3698 110c E8000000 		call	_ZN8UnitTest11TestDetailsC1ERKS0_i@PLT
 3698      00
 3699 1111 488DB424 		leaq	128(%rsp), %rsi
 3699      80000000 
 3700 1119 488D1500 		leaq	.LC21(%rip), %rdx
 3700      000000
 3701 1120 4889DF   		movq	%rbx, %rdi
 3702 1123 E8000000 		call	_ZN8UnitTest11TestResults13OnTestFailureERKNS_11TestDetailsEPKc@PLT
 3702      00
 3703              	.LEHE104:
 3704              	.LEHB105:
 3705 1128 E8000000 		call	__cxa_end_catch@PLT
 3705      00
 3706              	.LEHE105:
 3707 112d E941FEFF 		jmp	.L288
 3707      FF
 3708              	.L310:
 3709 1132 4889C3   		movq	%rax, %rbx
 3710 1135 4889D5   		movq	%rdx, %rbp
 3711 1138 E8000000 		call	__cxa_end_catch@PLT
 3711      00
 3712 113d E9A9FEFF 		jmp	.L290
 3712      FF
 3713              	.L312:
 3714 1142 4889C3   		movq	%rax, %rbx
 3715 1145 4889D5   		movq	%rdx, %rbp
 3716 1148 E8000000 		call	__cxa_end_catch@PLT
 3716      00
 3717 114d E999FEFF 		jmp	.L290
 3717      FF
 3718              	.L308:
 3719 1152 488DBC24 		leaq	192(%rsp), %rdi
 3719      C0000000 
 3720 115a 4889C3   		movq	%rax, %rbx
 3721 115d E8000000 		call	_ZN8UnitTest15MemoryOutStreamD1Ev
 3721      00
 3722              	.L301:
 3723 1162 E8000000 		call	__cxa_end_catch@PLT
 3723      00
 3724 1167 4889DF   		movq	%rbx, %rdi
 3725              	.LEHB106:
 3726 116a E8000000 		call	_Unwind_Resume@PLT
 3726      00
 3727              	.LEHE106:
 3728              	.L307:
 3729              	.L317:
 3730 116f 4889C3   		movq	%rax, %rbx
 3731 1172 EBEE     		jmp	.L301
 3732              	.L320:
 3733 1174 E8000000 		call	__cxa_begin_catch@PLT
 3733      00
 3734              	.LEHB107:
 3735 1179 E8000000 		call	_ZN8UnitTest11CurrentTest7ResultsEv@PLT
 3735      00
 3736 117e 488B7424 		movq	8(%rsp), %rsi
 3736      08
 3737 1183 488B38   		movq	(%rax), %rdi
 3738 1186 488D1500 		leaq	.LC12(%rip), %rdx
 3738      000000
 3739 118d E8000000 		call	_ZN8UnitTest11TestResults13OnTestFailureERKNS_11TestDetailsEPKc@PLT
 3739      00
 3740              	.LEHE107:
 3741              	.LEHB108:
 3742 1192 E8000000 		call	__cxa_end_catch@PLT
 3742      00
 3743              	.LEHE108:
 3744 1197 E922FEFF 		jmp	.L279
 3744      FF
 3745              	.L295:
 3746 119c E8000000 		call	__cxa_begin_catch@PLT
 3746      00
 3747 11a1 4889C3   		movq	%rax, %rbx
 3748              	.LEHB109:
 3749 11a4 E8000000 		call	_ZN8UnitTest11CurrentTest7ResultsEv@PLT
 3749      00
 3750 11a9 488B28   		movq	(%rax), %rbp
 3751 11ac 488B03   		movq	(%rbx), %rax
 3752 11af 4889DF   		movq	%rbx, %rdi
 3753 11b2 FF5010   		call	*16(%rax)
 3754 11b5 4889DF   		movq	%rbx, %rdi
 3755 11b8 4989C4   		movq	%rax, %r12
 3756 11bb E8000000 		call	_ZNK8UnitTest15AssertException10LineNumberEv@PLT
 3756      00
 3757 11c0 4889DF   		movq	%rbx, %rdi
 3758 11c3 4189C5   		movl	%eax, %r13d
 3759 11c6 E8000000 		call	_ZNK8UnitTest15AssertException8FilenameEv@PLT
 3759      00
 3760 11cb 488B5424 		movq	8(%rsp), %rdx
 3760      08
 3761 11d0 488D7C24 		leaq	32(%rsp), %rdi
 3761      20
 3762 11d5 4589E8   		movl	%r13d, %r8d
 3763 11d8 4889C1   		movq	%rax, %rcx
 3764 11db 488B7208 		movq	8(%rdx), %rsi
 3765 11df 488B12   		movq	(%rdx), %rdx
 3766 11e2 E8000000 		call	_ZN8UnitTest11TestDetailsC1EPKcS2_S2_i@PLT
 3766      00
 3767 11e7 488D7424 		leaq	32(%rsp), %rsi
 3767      20
 3768 11ec 4C89E2   		movq	%r12, %rdx
 3769 11ef 4889EF   		movq	%rbp, %rdi
 3770 11f2 E8000000 		call	_ZN8UnitTest11TestResults13OnTestFailureERKNS_11TestDetailsEPKc@PLT
 3770      00
 3771              	.LEHE109:
 3772 11f7 E98FFEFF 		jmp	.L316
 3772      FF
 3773              	.L309:
 3774 11fc 4889C3   		movq	%rax, %rbx
 3775 11ff E8000000 		call	__cxa_end_catch@PLT
 3775      00
 3776 1204 4889DF   		movq	%rbx, %rdi
 3777              	.LEHB110:
 3778 1207 E8000000 		call	_Unwind_Resume@PLT
 3778      00
 3779              	.LEHE110:
 3780              	.L306:
 3781 120c E95EFFFF 		jmp	.L317
 3781      FF
 3782              		.cfi_endproc
 3783              	.LFE1425:
 3784              		.section	.gcc_except_table
 3785 0261 000000   		.align 4
 3786              	.LLSDA1425:
 3787 0264 FF       		.byte	0xff
 3788 0265 9B       		.byte	0x9b
 3789 0266 7D       		.uleb128 .LLSDATT1425-.LLSDATTD1425
 3790              	.LLSDATTD1425:
 3791 0267 01       		.byte	0x1
 3792 0268 66       		.uleb128 .LLSDACSE1425-.LLSDACSB1425
 3793              	.LLSDACSB1425:
 3794 0269 2E       		.uleb128 .LEHB93-.LFB1425
 3795 026a 05       		.uleb128 .LEHE93-.LEHB93
 3796 026b 00       		.uleb128 0
 3797 026c 00       		.uleb128 0
 3798 026d 3E       		.uleb128 .LEHB94-.LFB1425
 3799 026e 05       		.uleb128 .LEHE94-.LEHB94
 3800 026f FA04     		.uleb128 .L304-.LFB1425
 3801 0271 05       		.uleb128 0x5
 3802 0272 78       		.uleb128 .LEHB95-.LFB1425
 3803 0273 9201     		.uleb128 .LEHE95-.LEHB95
 3804 0275 C503     		.uleb128 .L305-.LFB1425
 3805 0277 07       		.uleb128 0x7
 3806 0278 8D02     		.uleb128 .LEHB96-.LFB1425
 3807 027a 46       		.uleb128 .LEHE96-.LEHB96
 3808 027b C705     		.uleb128 .L313-.LFB1425
 3809 027d 01       		.uleb128 0x1
 3810 027e D302     		.uleb128 .LEHB97-.LFB1425
 3811 0280 3E       		.uleb128 .LEHE97-.LEHB97
 3812 0281 8205     		.uleb128 .L311-.LFB1425
 3813 0283 01       		.uleb128 0x1
 3814 0284 9903     		.uleb128 .LEHB98-.LFB1425
 3815 0286 05       		.uleb128 .LEHE98-.LEHB98
 3816 0287 FA04     		.uleb128 .L304-.LFB1425
 3817 0289 05       		.uleb128 0x5
 3818 028a 8204     		.uleb128 .LEHB99-.LFB1425
 3819 028c 05       		.uleb128 .LEHE99-.LEHB99
 3820 028d CF06     		.uleb128 .L307-.LFB1425
 3821 028f 00       		.uleb128 0
 3822 0290 9B04     		.uleb128 .LEHB100-.LFB1425
 3823 0292 43       		.uleb128 .LEHE100-.LEHB100
 3824 0293 B206     		.uleb128 .L308-.LFB1425
 3825 0295 00       		.uleb128 0
 3826 0296 E604     		.uleb128 .LEHB101-.LFB1425
 3827 0298 05       		.uleb128 .LEHE101-.LEHB101
 3828 0299 CF06     		.uleb128 .L307-.LFB1425
 3829 029b 00       		.uleb128 0
 3830 029c 8A05     		.uleb128 .LEHB102-.LFB1425
 3831 029e 33       		.uleb128 .LEHE102-.LEHB102
 3832 029f 9206     		.uleb128 .L310-.LFB1425
 3833 02a1 07       		.uleb128 0x7
 3834 02a2 BD05     		.uleb128 .LEHB103-.LFB1425
 3835 02a4 05       		.uleb128 .LEHE103-.LEHB103
 3836 02a5 C503     		.uleb128 .L305-.LFB1425
 3837 02a7 07       		.uleb128 0x7
 3838 02a8 CF05     		.uleb128 .LEHB104-.LFB1425
 3839 02aa 39       		.uleb128 .LEHE104-.LEHB104
 3840 02ab A206     		.uleb128 .L312-.LFB1425
 3841 02ad 07       		.uleb128 0x7
 3842 02ae 8806     		.uleb128 .LEHB105-.LFB1425
 3843 02b0 05       		.uleb128 .LEHE105-.LEHB105
 3844 02b1 C503     		.uleb128 .L305-.LFB1425
 3845 02b3 07       		.uleb128 0x7
 3846 02b4 CA06     		.uleb128 .LEHB106-.LFB1425
 3847 02b6 05       		.uleb128 .LEHE106-.LEHB106
 3848 02b7 00       		.uleb128 0
 3849 02b8 00       		.uleb128 0
 3850 02b9 D906     		.uleb128 .LEHB107-.LFB1425
 3851 02bb 19       		.uleb128 .LEHE107-.LEHB107
 3852 02bc DC07     		.uleb128 .L309-.LFB1425
 3853 02be 00       		.uleb128 0
 3854 02bf F206     		.uleb128 .LEHB108-.LFB1425
 3855 02c1 05       		.uleb128 .LEHE108-.LEHB108
 3856 02c2 00       		.uleb128 0
 3857 02c3 00       		.uleb128 0
 3858 02c4 8407     		.uleb128 .LEHB109-.LFB1425
 3859 02c6 53       		.uleb128 .LEHE109-.LEHB109
 3860 02c7 EC07     		.uleb128 .L306-.LFB1425
 3861 02c9 00       		.uleb128 0
 3862 02ca E707     		.uleb128 .LEHB110-.LFB1425
 3863 02cc 05       		.uleb128 .LEHE110-.LEHB110
 3864 02cd 00       		.uleb128 0
 3865 02ce 00       		.uleb128 0
 3866              	.LLSDACSE1425:
 3867 02cf 03       		.byte	0x3
 3868 02d0 00       		.byte	0
 3869 02d1 02       		.byte	0x2
 3870 02d2 7D       		.byte	0x7d
 3871 02d3 01       		.byte	0x1
 3872 02d4 7D       		.byte	0x7d
 3873 02d5 00       		.byte	0
 3874 02d6 7D       		.byte	0x7d
 3875 02d7 00       		.align 4
 3876 02d8 00000000 		.long	0
 3877              	
 3878 02dc 00000000 		.long	DW.ref._ZTISt9exception-.
 3879 02e0 00000000 		.long	DW.ref._ZTIN8UnitTest15AssertExceptionE-.
 3880              	.LLSDATT1425:
 3881              		.text
 3883              		.section	.rodata.str1.8
 3884 01f2 00000000 		.align 8
 3884      0000
 3885              	.LC23:
 3886 01f8 556E6861 		.string	"Unhandled exception in CHECK_EQUAL(2, reporter.summaryTotalTestCount)"
 3886      6E646C65 
 3886      64206578 
 3886      63657074 
 3886      696F6E20 
 3887              		.text
 3888 1211 0F1F4400 		.p2align 4,,15
 3888      00662E0F 
 3888      1F840000 
 3888      000000
 3890              	_ZN8UnitTest11ExecuteTestIN12_GLOBAL__N_164TestSuiteFixtureTestRunnerRunsAllSuitesIfNullSuiteIsPass
 3891              	.LFB1424:
 3892              		.cfi_startproc
 3893              		.cfi_personality 0x9b,DW.ref.__gxx_personality_v0
 3894              		.cfi_lsda 0x1b,.LLSDA1424
 3895 1220 4155     		pushq	%r13
 3896              		.cfi_def_cfa_offset 16
 3897              		.cfi_offset 13, -16
 3898 1222 4154     		pushq	%r12
 3899              		.cfi_def_cfa_offset 24
 3900              		.cfi_offset 12, -24
 3901 1224 55       		pushq	%rbp
 3902              		.cfi_def_cfa_offset 32
 3903              		.cfi_offset 6, -32
 3904 1225 53       		pushq	%rbx
 3905              		.cfi_def_cfa_offset 40
 3906              		.cfi_offset 3, -40
 3907 1226 4889F3   		movq	%rsi, %rbx
 3908 1229 4881EC98 		subq	$1688, %rsp
 3908      060000
 3909              		.cfi_def_cfa_offset 1728
 3910 1230 48893C24 		movq	%rdi, (%rsp)
 3911 1234 48897424 		movq	%rsi, 8(%rsp)
 3911      08
 3912 1239 64488B04 		movq	%fs:40, %rax
 3912      25280000 
 3912      00
 3913 1242 48898424 		movq	%rax, 1672(%rsp)
 3913      88060000 
 3914 124a 31C0     		xorl	%eax, %eax
 3915              	.LEHB111:
 3916 124c E8000000 		call	_ZN8UnitTest11CurrentTest7DetailsEv@PLT
 3916      00
 3917              	.LEHE111:
 3918 1251 488DBC24 		leaq	544(%rsp), %rdi
 3918      20020000 
 3919 1259 488918   		movq	%rbx, (%rax)
 3920              	.LEHB112:
 3921 125c E8000000 		call	_ZN8UnitTest16SignalTranslatorC1Ev@PLT
 3921      00
 3922              	.LEHE112:
 3923 1261 488B3D00 		movq	_ZN8UnitTest16SignalTranslator12s_jumpTargetE(%rip), %rdi
 3923      000000
 3924 1268 BE010000 		movl	$1, %esi
 3924      00
 3925 126d E8000000 		call	__sigsetjmp@PLT
 3925      00
 3926 1272 85C0     		testl	%eax, %eax
 3927 1274 742A     		je	.L323
 3928 1276 BF080000 		movl	$8, %edi
 3928      00
 3929 127b E8000000 		call	__cxa_allocate_exception@PLT
 3929      00
 3930 1280 488D0D00 		leaq	.LC3(%rip), %rcx
 3930      000000
 3931 1287 488D3500 		leaq	_ZTIPKc(%rip), %rsi
 3931      000000
 3932 128e 31D2     		xorl	%edx, %edx
 3933 1290 4889C7   		movq	%rax, %rdi
 3934 1293 488908   		movq	%rcx, (%rax)
 3935              	.LEHB113:
 3936 1296 E8000000 		call	__cxa_throw@PLT
 3936      00
 3937 129b 0F1F4400 		.p2align 4,,10
 3937      00
 3938              		.p2align 3
 3939              	.L323:
 3940 12a0 488B2C24 		movq	(%rsp), %rbp
 3941 12a4 488D9DF0 		leaq	2288(%rbp), %rbx
 3941      080000
 3942 12ab E8000000 		call	_ZN8UnitTest11CurrentTest7ResultsEv@PLT
 3942      00
 3943 12b0 4C8B28   		movq	(%rax), %r13
 3944 12b3 E8000000 		call	_ZN8UnitTest11CurrentTest7DetailsEv@PLT
 3944      00
 3945 12b8 4889DF   		movq	%rbx, %rdi
 3946 12bb 4C8B20   		movq	(%rax), %r12
 3947 12be E8000000 		call	_ZNK8UnitTest8TestList7GetHeadEv@PLT
 3947      00
 3948 12c3 4885C0   		testq	%rax, %rax
 3949 12c6 4889C3   		movq	%rax, %rbx
 3950 12c9 0F85B300 		jne	.L326
 3950      0000
 3951 12cf 90       		.p2align 4,,10
 3952              		.p2align 3
 3953              	.L324:
 3954 12d0 488B1C24 		movq	(%rsp), %rbx
 3955 12d4 4889DF   		movq	%rbx, %rdi
 3956 12d7 E8000000 		call	_ZNK8UnitTest10TestRunner6FinishEv@PLT
 3956      00
 3957 12dc E8000000 		call	_ZN8UnitTest11CurrentTest7ResultsEv@PLT
 3957      00
 3958 12e1 4C8928   		movq	%r13, (%rax)
 3959 12e4 E8000000 		call	_ZN8UnitTest11CurrentTest7DetailsEv@PLT
 3959      00
 3960              	.LEHE113:
 3961 12e9 4C8920   		movq	%r12, (%rax)
 3962              	.LEHB114:
 3963 12ec E8000000 		call	_ZN8UnitTest11CurrentTest7DetailsEv@PLT
 3963      00
 3964 12f1 488B30   		movq	(%rax), %rsi
 3965 12f4 488D7C24 		leaq	96(%rsp), %rdi
 3965      60
 3966 12f9 BAF50000 		movl	$245, %edx
 3966      00
 3967 12fe E8000000 		call	_ZN8UnitTest11TestDetailsC1ERKS0_i@PLT
 3967      00
 3968 1303 4881C334 		addq	$2100, %rbx
 3968      080000
 3969 130a C744241C 		movl	$2, 28(%rsp)
 3969      02000000 
 3970 1312 E8000000 		call	_ZN8UnitTest11CurrentTest7ResultsEv@PLT
 3970      00
 3971 1317 488B38   		movq	(%rax), %rdi
 3972 131a 488D4C24 		leaq	96(%rsp), %rcx
 3972      60
 3973 131f 488D7424 		leaq	28(%rsp), %rsi
 3973      1C
 3974 1324 4889DA   		movq	%rbx, %rdx
 3975 1327 E8000000 		call	_ZN8UnitTest10CheckEqualIiiEEvRNS_11TestResultsERKT_RKT0_RKNS_11TestDetailsE
 3975      00
 3976              	.LEHE114:
 3977              	.L328:
 3978 132c 488DBC24 		leaq	544(%rsp), %rdi
 3978      20020000 
 3979              	.LEHB115:
 3980 1334 E8000000 		call	_ZN8UnitTest16SignalTranslatorD1Ev@PLT
 3980      00
 3981              	.LEHE115:
 3982              	.L321:
 3983 1339 488B8424 		movq	1672(%rsp), %rax
 3983      88060000 
 3984 1341 64483304 		xorq	%fs:40, %rax
 3984      25280000 
 3984      00
 3985 134a 0F85F500 		jne	.L355
 3985      0000
 3986 1350 4881C498 		addq	$1688, %rsp
 3986      060000
 3987              		.cfi_remember_state
 3988              		.cfi_def_cfa_offset 40
 3989 1357 5B       		popq	%rbx
 3990              		.cfi_def_cfa_offset 32
 3991 1358 5D       		popq	%rbp
 3992              		.cfi_def_cfa_offset 24
 3993 1359 415C     		popq	%r12
 3994              		.cfi_def_cfa_offset 16
 3995 135b 415D     		popq	%r13
 3996              		.cfi_def_cfa_offset 8
 3997 135d C3       		ret
 3998 135e 6690     		.p2align 4,,10
 3999              		.p2align 3
 4000              	.L325:
 4001              		.cfi_restore_state
 4002 1360 488B0424 		movq	(%rsp), %rax
 4003 1364 31C9     		xorl	%ecx, %ecx
 4004 1366 4889DA   		movq	%rbx, %rdx
 4005 1369 4889EF   		movq	%rbp, %rdi
 4006 136c 488B7008 		movq	8(%rax), %rsi
 4007              	.LEHB116:
 4008 1370 E8000000 		call	_ZNK8UnitTest10TestRunner7RunTestEPNS_11TestResultsEPNS_4TestEi@PLT
 4008      00
 4009              	.L327:
 4010 1375 488B5B28 		movq	40(%rbx), %rbx
 4011 1379 4885DB   		testq	%rbx, %rbx
 4012 137c 0F844EFF 		je	.L324
 4012      FFFF
 4013              	.L326:
 4014 1382 31D2     		xorl	%edx, %edx
 4015 1384 4889DE   		movq	%rbx, %rsi
 4016 1387 4889EF   		movq	%rbp, %rdi
 4017 138a E8000000 		call	_ZNK8UnitTest10TestRunner13IsTestInSuiteEPKNS_4TestEPKc@PLT
 4017      00
 4018              	.LEHE116:
 4019 138f 84C0     		testb	%al, %al
 4020 1391 74E2     		je	.L327
 4021 1393 EBCB     		jmp	.L325
 4022              	.L344:
 4023 1395 4889C3   		movq	%rax, %rbx
 4024 1398 4889D5   		movq	%rdx, %rbp
 4025              	.L331:
 4026 139b 488DBC24 		leaq	544(%rsp), %rdi
 4026      20020000 
 4027 13a3 E8000000 		call	_ZN8UnitTest16SignalTranslatorD1Ev@PLT
 4027      00
 4028 13a8 4889DF   		movq	%rbx, %rdi
 4029 13ab 4889EA   		movq	%rbp, %rdx
 4030              	.L332:
 4031 13ae 4883FA01 		cmpq	$1, %rdx
 4032 13b2 0F843901 		je	.L334
 4032      0000
 4033 13b8 4883FA02 		cmpq	$2, %rdx
 4034 13bc 0F850701 		jne	.L356
 4034      0000
 4035 13c2 E8000000 		call	__cxa_begin_catch@PLT
 4035      00
 4036 13c7 488DBC24 		leaq	128(%rsp), %rdi
 4036      80000000 
 4037 13cf 4889C3   		movq	%rax, %rbx
 4038              	.LEHB117:
 4039 13d2 E8000000 		call	_ZN8UnitTest15MemoryOutStreamC1Ev
 4039      00
 4040              	.LEHE117:
 4041 13d7 488DBC24 		leaq	128(%rsp), %rdi
 4041      80000000 
 4042 13df 488D3500 		leaq	.LC11(%rip), %rsi
 4042      000000
 4043 13e6 BA150000 		movl	$21, %edx
 4043      00
 4044              	.LEHB118:
 4045 13eb E8000000 		call	_ZSt16__ostream_insertIcSt11char_traitsIcEERSt13basic_ostreamIT_T0_ES6_PKS3_l@PLT
 4045      00
 4046 13f0 488B03   		movq	(%rbx), %rax
 4047 13f3 4889DF   		movq	%rbx, %rdi
 4048 13f6 FF5010   		call	*16(%rax)
 4049 13f9 488DBC24 		leaq	128(%rsp), %rdi
 4049      80000000 
 4050 1401 4889C6   		movq	%rax, %rsi
 4051 1404 E8000000 		call	_ZStlsISt11char_traitsIcEERSt13basic_ostreamIcT_ES5_PKc@PLT
 4051      00
 4052 1409 E8000000 		call	_ZN8UnitTest11CurrentTest7ResultsEv@PLT
 4052      00
 4053 140e 488DBC24 		leaq	128(%rsp), %rdi
 4053      80000000 
 4054 1416 488B18   		movq	(%rax), %rbx
 4055 1419 E8000000 		call	_ZNK8UnitTest15MemoryOutStream7GetTextEv@PLT
 4055      00
 4056 141e 488B7424 		movq	8(%rsp), %rsi
 4056      08
 4057 1423 4889C2   		movq	%rax, %rdx
 4058 1426 4889DF   		movq	%rbx, %rdi
 4059 1429 E8000000 		call	_ZN8UnitTest11TestResults13OnTestFailureERKNS_11TestDetailsEPKc@PLT
 4059      00
 4060              	.LEHE118:
 4061 142e 488DBC24 		leaq	128(%rsp), %rdi
 4061      80000000 
 4062              	.LEHB119:
 4063 1436 E8000000 		call	_ZN8UnitTest15MemoryOutStreamD1Ev
 4063      00
 4064              	.LEHE119:
 4065              	.L353:
 4066 143b E8000000 		call	__cxa_end_catch@PLT
 4066      00
 4067 1440 E9F4FEFF 		jmp	.L321
 4067      FF
 4068              	.L355:
 4069 1445 E8000000 		call	__stack_chk_fail@PLT
 4069      00
 4070              	.L350:
 4071 144a 4889C7   		movq	%rax, %rdi
 4072 144d E8000000 		call	__cxa_begin_catch@PLT
 4072      00
 4073              	.LEHB120:
 4074 1452 E8000000 		call	_ZN8UnitTest11CurrentTest7ResultsEv@PLT
 4074      00
 4075 1457 488B18   		movq	(%rax), %rbx
 4076 145a E8000000 		call	_ZN8UnitTest11CurrentTest7DetailsEv@PLT
 4076      00
 4077 145f 488B30   		movq	(%rax), %rsi
 4078 1462 488D7C24 		leaq	64(%rsp), %rdi
 4078      40
 4079 1467 BAF50000 		movl	$245, %edx
 4079      00
 4080 146c E8000000 		call	_ZN8UnitTest11TestDetailsC1ERKS0_i@PLT
 4080      00
 4081 1471 488D7424 		leaq	64(%rsp), %rsi
 4081      40
 4082 1476 488D1500 		leaq	.LC23(%rip), %rdx
 4082      000000
 4083 147d 4889DF   		movq	%rbx, %rdi
 4084 1480 E8000000 		call	_ZN8UnitTest11TestResults13OnTestFailureERKNS_11TestDetailsEPKc@PLT
 4084      00
 4085              	.LEHE120:
 4086              	.LEHB121:
 4087 1485 E8000000 		call	__cxa_end_catch@PLT
 4087      00
 4088              	.LEHE121:
 4089 148a E99DFEFF 		jmp	.L328
 4089      FF
 4090              	.L343:
 4091 148f 4889C7   		movq	%rax, %rdi
 4092 1492 E917FFFF 		jmp	.L332
 4092      FF
 4093              	.L349:
 4094 1497 4889C3   		movq	%rax, %rbx
 4095 149a 4889D5   		movq	%rdx, %rbp
 4096 149d E8000000 		call	__cxa_end_catch@PLT
 4096      00
 4097 14a2 E9F4FEFF 		jmp	.L331
 4097      FF
 4098              	.L347:
 4099 14a7 488DBC24 		leaq	128(%rsp), %rdi
 4099      80000000 
 4100 14af 4889C3   		movq	%rax, %rbx
 4101 14b2 E8000000 		call	_ZN8UnitTest15MemoryOutStreamD1Ev
 4101      00
 4102              	.L340:
 4103 14b7 E8000000 		call	__cxa_end_catch@PLT
 4103      00
 4104 14bc 4889DF   		movq	%rbx, %rdi
 4105              	.LEHB122:
 4106 14bf E8000000 		call	_Unwind_Resume@PLT
 4106      00
 4107              	.LEHE122:
 4108              	.L346:
 4109              	.L354:
 4110 14c4 4889C3   		movq	%rax, %rbx
 4111 14c7 EBEE     		jmp	.L340
 4112              	.L356:
 4113 14c9 E8000000 		call	__cxa_begin_catch@PLT
 4113      00
 4114              	.LEHB123:
 4115 14ce E8000000 		call	_ZN8UnitTest11CurrentTest7ResultsEv@PLT
 4115      00
 4116 14d3 488B7424 		movq	8(%rsp), %rsi
 4116      08
 4117 14d8 488B38   		movq	(%rax), %rdi
 4118 14db 488D1500 		leaq	.LC12(%rip), %rdx
 4118      000000
 4119 14e2 E8000000 		call	_ZN8UnitTest11TestResults13OnTestFailureERKNS_11TestDetailsEPKc@PLT
 4119      00
 4120              	.LEHE123:
 4121              	.LEHB124:
 4122 14e7 E8000000 		call	__cxa_end_catch@PLT
 4122      00
 4123              	.LEHE124:
 4124 14ec E948FEFF 		jmp	.L321
 4124      FF
 4125              	.L334:
 4126 14f1 E8000000 		call	__cxa_begin_catch@PLT
 4126      00
 4127 14f6 4889C3   		movq	%rax, %rbx
 4128              	.LEHB125:
 4129 14f9 E8000000 		call	_ZN8UnitTest11CurrentTest7ResultsEv@PLT
 4129      00
 4130 14fe 488B28   		movq	(%rax), %rbp
 4131 1501 488B03   		movq	(%rbx), %rax
 4132 1504 4889DF   		movq	%rbx, %rdi
 4133 1507 FF5010   		call	*16(%rax)
 4134 150a 4889DF   		movq	%rbx, %rdi
 4135 150d 4989C4   		movq	%rax, %r12
 4136 1510 E8000000 		call	_ZNK8UnitTest15AssertException10LineNumberEv@PLT
 4136      00
 4137 1515 4889DF   		movq	%rbx, %rdi
 4138 1518 4189C5   		movl	%eax, %r13d
 4139 151b E8000000 		call	_ZNK8UnitTest15AssertException8FilenameEv@PLT
 4139      00
 4140 1520 488B5424 		movq	8(%rsp), %rdx
 4140      08
 4141 1525 488D7C24 		leaq	32(%rsp), %rdi
 4141      20
 4142 152a 4589E8   		movl	%r13d, %r8d
 4143 152d 4889C1   		movq	%rax, %rcx
 4144 1530 488B7208 		movq	8(%rdx), %rsi
 4145 1534 488B12   		movq	(%rdx), %rdx
 4146 1537 E8000000 		call	_ZN8UnitTest11TestDetailsC1EPKcS2_S2_i@PLT
 4146      00
 4147 153c 488D7424 		leaq	32(%rsp), %rsi
 4147      20
 4148 1541 4C89E2   		movq	%r12, %rdx
 4149 1544 4889EF   		movq	%rbp, %rdi
 4150 1547 E8000000 		call	_ZN8UnitTest11TestResults13OnTestFailureERKNS_11TestDetailsEPKc@PLT
 4150      00
 4151              	.LEHE125:
 4152 154c E9EAFEFF 		jmp	.L353
 4152      FF
 4153              	.L348:
 4154 1551 4889C3   		movq	%rax, %rbx
 4155 1554 E8000000 		call	__cxa_end_catch@PLT
 4155      00
 4156 1559 4889DF   		movq	%rbx, %rdi
 4157              	.LEHB126:
 4158 155c E8000000 		call	_Unwind_Resume@PLT
 4158      00
 4159              	.LEHE126:
 4160              	.L345:
 4161 1561 E95EFFFF 		jmp	.L354
 4161      FF
 4162              		.cfi_endproc
 4163              	.LFE1424:
 4164              		.section	.gcc_except_table
 4165              		.align 4
 4166              	.LLSDA1424:
 4167 02e4 FF       		.byte	0xff
 4168 02e5 9B       		.byte	0x9b
 4169 02e6 71       		.uleb128 .LLSDATT1424-.LLSDATTD1424
 4170              	.LLSDATTD1424:
 4171 02e7 01       		.byte	0x1
 4172 02e8 59       		.uleb128 .LLSDACSE1424-.LLSDACSB1424
 4173              	.LLSDACSB1424:
 4174 02e9 2C       		.uleb128 .LEHB111-.LFB1424
 4175 02ea 05       		.uleb128 .LEHE111-.LEHB111
 4176 02eb 00       		.uleb128 0
 4177 02ec 00       		.uleb128 0
 4178 02ed 3C       		.uleb128 .LEHB112-.LFB1424
 4179 02ee 05       		.uleb128 .LEHE112-.LEHB112
 4180 02ef EF04     		.uleb128 .L343-.LFB1424
 4181 02f1 05       		.uleb128 0x5
 4182 02f2 76       		.uleb128 .LEHB113-.LFB1424
 4183 02f3 53       		.uleb128 .LEHE113-.LEHB113
 4184 02f4 F502     		.uleb128 .L344-.LFB1424
 4185 02f6 07       		.uleb128 0x7
 4186 02f7 CC01     		.uleb128 .LEHB114-.LFB1424
 4187 02f9 40       		.uleb128 .LEHE114-.LEHB114
 4188 02fa AA04     		.uleb128 .L350-.LFB1424
 4189 02fc 01       		.uleb128 0x1
 4190 02fd 9402     		.uleb128 .LEHB115-.LFB1424
 4191 02ff 05       		.uleb128 .LEHE115-.LEHB115
 4192 0300 EF04     		.uleb128 .L343-.LFB1424
 4193 0302 05       		.uleb128 0x5
 4194 0303 D002     		.uleb128 .LEHB116-.LFB1424
 4195 0305 1F       		.uleb128 .LEHE116-.LEHB116
 4196 0306 F502     		.uleb128 .L344-.LFB1424
 4197 0308 07       		.uleb128 0x7
 4198 0309 B203     		.uleb128 .LEHB117-.LFB1424
 4199 030b 05       		.uleb128 .LEHE117-.LEHB117
 4200 030c A405     		.uleb128 .L346-.LFB1424
 4201 030e 00       		.uleb128 0
 4202 030f CB03     		.uleb128 .LEHB118-.LFB1424
 4203 0311 43       		.uleb128 .LEHE118-.LEHB118
 4204 0312 8705     		.uleb128 .L347-.LFB1424
 4205 0314 00       		.uleb128 0
 4206 0315 9604     		.uleb128 .LEHB119-.LFB1424
 4207 0317 05       		.uleb128 .LEHE119-.LEHB119
 4208 0318 A405     		.uleb128 .L346-.LFB1424
 4209 031a 00       		.uleb128 0
 4210 031b B204     		.uleb128 .LEHB120-.LFB1424
 4211 031d 33       		.uleb128 .LEHE120-.LEHB120
 4212 031e F704     		.uleb128 .L349-.LFB1424
 4213 0320 07       		.uleb128 0x7
 4214 0321 E504     		.uleb128 .LEHB121-.LFB1424
 4215 0323 05       		.uleb128 .LEHE121-.LEHB121
 4216 0324 F502     		.uleb128 .L344-.LFB1424
 4217 0326 07       		.uleb128 0x7
 4218 0327 9F05     		.uleb128 .LEHB122-.LFB1424
 4219 0329 05       		.uleb128 .LEHE122-.LEHB122
 4220 032a 00       		.uleb128 0
 4221 032b 00       		.uleb128 0
 4222 032c AE05     		.uleb128 .LEHB123-.LFB1424
 4223 032e 19       		.uleb128 .LEHE123-.LEHB123
 4224 032f B106     		.uleb128 .L348-.LFB1424
 4225 0331 00       		.uleb128 0
 4226 0332 C705     		.uleb128 .LEHB124-.LFB1424
 4227 0334 05       		.uleb128 .LEHE124-.LEHB124
 4228 0335 00       		.uleb128 0
 4229 0336 00       		.uleb128 0
 4230 0337 D905     		.uleb128 .LEHB125-.LFB1424
 4231 0339 53       		.uleb128 .LEHE125-.LEHB125
 4232 033a C106     		.uleb128 .L345-.LFB1424
 4233 033c 00       		.uleb128 0
 4234 033d BC06     		.uleb128 .LEHB126-.LFB1424
 4235 033f 05       		.uleb128 .LEHE126-.LEHB126
 4236 0340 00       		.uleb128 0
 4237 0341 00       		.uleb128 0
 4238              	.LLSDACSE1424:
 4239 0342 03       		.byte	0x3
 4240 0343 00       		.byte	0
 4241 0344 02       		.byte	0x2
 4242 0345 7D       		.byte	0x7d
 4243 0346 01       		.byte	0x1
 4244 0347 7D       		.byte	0x7d
 4245 0348 00       		.byte	0
 4246 0349 7D       		.byte	0x7d
 4247 034a 0000     		.align 4
 4248 034c 00000000 		.long	0
 4249              	
 4250 0350 00000000 		.long	DW.ref._ZTISt9exception-.
 4251 0354 00000000 		.long	DW.ref._ZTIN8UnitTest15AssertExceptionE-.
 4252              	.LLSDATT1424:
 4253              		.text
 4255              		.section	.rodata.str1.1
 4256              	.LC24:
 4257 0093 00       		.string	""
 4258              	.LC25:
 4259 0094 736C6F77 		.string	"slowexempted"
 4259      6578656D 
 4259      70746564 
 4259      00
 4260              		.section	.rodata.str1.8
 4261 023e 0000     		.align 8
 4262              	.LC26:
 4263 0240 556E6861 		.string	"Unhandled exception in CHECK_EQUAL(0, reporter.testFailedCount)"
 4263      6E646C65 
 4263      64206578 
 4263      63657074 
 4263      696F6E20 
 4264              		.text
 4265 1566 662E0F1F 		.p2align 4,,15
 4265      84000000 
 4265      0000
 4267              	_ZN8UnitTest11ExecuteTestIN12_GLOBAL__N_154TestRunnerFixtureSlowTestWithTimeExemptionPassesHelperEE
 4268              	.LFB1423:
 4269              		.cfi_startproc
 4270              		.cfi_personality 0x9b,DW.ref.__gxx_personality_v0
 4271              		.cfi_lsda 0x1b,.LLSDA1423
 4272 1570 4155     		pushq	%r13
 4273              		.cfi_def_cfa_offset 16
 4274              		.cfi_offset 13, -16
 4275 1572 4154     		pushq	%r12
 4276              		.cfi_def_cfa_offset 24
 4277              		.cfi_offset 12, -24
 4278 1574 55       		pushq	%rbp
 4279              		.cfi_def_cfa_offset 32
 4280              		.cfi_offset 6, -32
 4281 1575 53       		pushq	%rbx
 4282              		.cfi_def_cfa_offset 40
 4283              		.cfi_offset 3, -40
 4284 1576 4889F3   		movq	%rsi, %rbx
 4285 1579 4881ECD8 		subq	$1752, %rsp
 4285      060000
 4286              		.cfi_def_cfa_offset 1792
 4287 1580 48893C24 		movq	%rdi, (%rsp)
 4288 1584 48897424 		movq	%rsi, 8(%rsp)
 4288      08
 4289 1589 64488B04 		movq	%fs:40, %rax
 4289      25280000 
 4289      00
 4290 1592 48898424 		movq	%rax, 1736(%rsp)
 4290      C8060000 
 4291 159a 31C0     		xorl	%eax, %eax
 4292              	.LEHB127:
 4293 159c E8000000 		call	_ZN8UnitTest11CurrentTest7DetailsEv@PLT
 4293      00
 4294              	.LEHE127:
 4295 15a1 488DBC24 		leaq	608(%rsp), %rdi
 4295      60020000 
 4296 15a9 488918   		movq	%rbx, (%rax)
 4297              	.LEHB128:
 4298 15ac E8000000 		call	_ZN8UnitTest16SignalTranslatorC1Ev@PLT
 4298      00
 4299              	.LEHE128:
 4300 15b1 488B3D00 		movq	_ZN8UnitTest16SignalTranslator12s_jumpTargetE(%rip), %rdi
 4300      000000
 4301 15b8 BE010000 		movl	$1, %esi
 4301      00
 4302 15bd E8000000 		call	__sigsetjmp@PLT
 4302      00
 4303 15c2 85C0     		testl	%eax, %eax
 4304 15c4 742A     		je	.L359
 4305 15c6 BF080000 		movl	$8, %edi
 4305      00
 4306 15cb E8000000 		call	__cxa_allocate_exception@PLT
 4306      00
 4307 15d0 488D0D00 		leaq	.LC3(%rip), %rcx
 4307      000000
 4308 15d7 488D3500 		leaq	_ZTIPKc(%rip), %rsi
 4308      000000
 4309 15de 31D2     		xorl	%edx, %edx
 4310 15e0 4889C7   		movq	%rax, %rdi
 4311 15e3 488908   		movq	%rcx, (%rax)
 4312              	.LEHB129:
 4313 15e6 E8000000 		call	__cxa_throw@PLT
 4313      00
 4314 15eb 0F1F4400 		.p2align 4,,10
 4314      00
 4315              		.p2align 3
 4316              	.L359:
 4317 15f0 488DBC24 		leaq	128(%rsp), %rdi
 4317      80000000 
 4318 15f8 488D1500 		leaq	.LC24(%rip), %rdx
 4318      000000
 4319 15ff 488D3500 		leaq	.LC25(%rip), %rsi
 4319      000000
 4320 1606 4531C0   		xorl	%r8d, %r8d
 4321 1609 31C9     		xorl	%ecx, %ecx
 4322 160b E8000000 		call	_ZN8UnitTest4TestC2EPKcS2_S2_i@PLT
 4322      00
 4323              	.LEHE129:
 4324 1610 488B2C24 		movq	(%rsp), %rbp
 4325 1614 488D0500 		leaq	16+_ZTVZN12_GLOBAL__N_154TestRunnerFixtureSlowTestWithTimeExemptionPassesHelper7RunImplEvE16S
 4325      000000
 4326 161b 488DB424 		leaq	128(%rsp), %rsi
 4326      80000000 
 4327 1623 48898424 		movq	%rax, 128(%rsp)
 4327      80000000 
 4328 162b 488D9D48 		leaq	2120(%rbp), %rbx
 4328      080000
 4329 1632 4889DF   		movq	%rbx, %rdi
 4330              	.LEHB130:
 4331 1635 E8000000 		call	_ZN8UnitTest8TestList3AddEPNS_4TestE@PLT
 4331      00
 4332 163a E8000000 		call	_ZN8UnitTest11CurrentTest7ResultsEv@PLT
 4332      00
 4333 163f 4C8B28   		movq	(%rax), %r13
 4334 1642 E8000000 		call	_ZN8UnitTest11CurrentTest7DetailsEv@PLT
 4334      00
 4335 1647 4889DF   		movq	%rbx, %rdi
 4336 164a 4C8B20   		movq	(%rax), %r12
 4337 164d E8000000 		call	_ZNK8UnitTest8TestList7GetHeadEv@PLT
 4337      00
 4338 1652 4885C0   		testq	%rax, %rax
 4339 1655 4889C3   		movq	%rax, %rbx
 4340 1658 0F85D700 		jne	.L362
 4340      0000
 4341 165e 6690     		.p2align 4,,10
 4342              		.p2align 3
 4343              	.L360:
 4344 1660 488B1C24 		movq	(%rsp), %rbx
 4345 1664 4889DF   		movq	%rbx, %rdi
 4346 1667 E8000000 		call	_ZNK8UnitTest10TestRunner6FinishEv@PLT
 4346      00
 4347 166c E8000000 		call	_ZN8UnitTest11CurrentTest7ResultsEv@PLT
 4347      00
 4348 1671 4C8928   		movq	%r13, (%rax)
 4349 1674 E8000000 		call	_ZN8UnitTest11CurrentTest7DetailsEv@PLT
 4349      00
 4350              	.LEHE130:
 4351 1679 4C8920   		movq	%r12, (%rax)
 4352              	.LEHB131:
 4353 167c E8000000 		call	_ZN8UnitTest11CurrentTest7DetailsEv@PLT
 4353      00
 4354 1681 488B30   		movq	(%rax), %rsi
 4355 1684 488D7C24 		leaq	96(%rsp), %rdi
 4355      60
 4356 1689 BADE0000 		movl	$222, %edx
 4356      00
 4357 168e E8000000 		call	_ZN8UnitTest11TestDetailsC1ERKS0_i@PLT
 4357      00
 4358 1693 4881C324 		addq	$548, %rbx
 4358      020000
 4359 169a C744241C 		movl	$0, 28(%rsp)
 4359      00000000 
 4360 16a2 E8000000 		call	_ZN8UnitTest11CurrentTest7ResultsEv@PLT
 4360      00
 4361 16a7 488B38   		movq	(%rax), %rdi
 4362 16aa 488D4C24 		leaq	96(%rsp), %rcx
 4362      60
 4363 16af 488D7424 		leaq	28(%rsp), %rsi
 4363      1C
 4364 16b4 4889DA   		movq	%rbx, %rdx
 4365 16b7 E8000000 		call	_ZN8UnitTest10CheckEqualIiiEEvRNS_11TestResultsERKT_RKT0_RKNS_11TestDetailsE
 4365      00
 4366              	.LEHE131:
 4367              	.L366:
 4368 16bc 488D0500 		leaq	16+_ZTVZN12_GLOBAL__N_154TestRunnerFixtureSlowTestWithTimeExemptionPassesHelper7RunImplEvE16S
 4368      000000
 4369 16c3 488DBC24 		leaq	128(%rsp), %rdi
 4369      80000000 
 4370 16cb 48898424 		movq	%rax, 128(%rsp)
 4370      80000000 
 4371              	.LEHB132:
 4372 16d3 E8000000 		call	_ZN8UnitTest4TestD2Ev@PLT
 4372      00
 4373              	.LEHE132:
 4374 16d8 488DBC24 		leaq	608(%rsp), %rdi
 4374      60020000 
 4375              	.LEHB133:
 4376 16e0 E8000000 		call	_ZN8UnitTest16SignalTranslatorD1Ev@PLT
 4376      00
 4377              	.LEHE133:
 4378              	.L357:
 4379 16e5 488B8424 		movq	1736(%rsp), %rax
 4379      C8060000 
 4380 16ed 64483304 		xorq	%fs:40, %rax
 4380      25280000 
 4380      00
 4381 16f6 0F85FC00 		jne	.L394
 4381      0000
 4382 16fc 4881C4D8 		addq	$1752, %rsp
 4382      060000
 4383              		.cfi_remember_state
 4384              		.cfi_def_cfa_offset 40
 4385 1703 5B       		popq	%rbx
 4386              		.cfi_def_cfa_offset 32
 4387 1704 5D       		popq	%rbp
 4388              		.cfi_def_cfa_offset 24
 4389 1705 415C     		popq	%r12
 4390              		.cfi_def_cfa_offset 16
 4391 1707 415D     		popq	%r13
 4392              		.cfi_def_cfa_offset 8
 4393 1709 C3       		ret
 4394 170a 660F1F44 		.p2align 4,,10
 4394      0000
 4395              		.p2align 3
 4396              	.L361:
 4397              		.cfi_restore_state
 4398 1710 488B0424 		movq	(%rsp), %rax
 4399 1714 B9030000 		movl	$3, %ecx
 4399      00
 4400 1719 4889DA   		movq	%rbx, %rdx
 4401 171c 4889EF   		movq	%rbp, %rdi
 4402 171f 488B7008 		movq	8(%rax), %rsi
 4403              	.LEHB134:
 4404 1723 E8000000 		call	_ZNK8UnitTest10TestRunner7RunTestEPNS_11TestResultsEPNS_4TestEi@PLT
 4404      00
 4405              	.L363:
 4406 1728 488B5B28 		movq	40(%rbx), %rbx
 4407 172c 4885DB   		testq	%rbx, %rbx
 4408 172f 0F842BFF 		je	.L360
 4408      FFFF
 4409              	.L362:
 4410 1735 31D2     		xorl	%edx, %edx
 4411 1737 4889DE   		movq	%rbx, %rsi
 4412 173a 4889EF   		movq	%rbp, %rdi
 4413 173d E8000000 		call	_ZNK8UnitTest10TestRunner13IsTestInSuiteEPKNS_4TestEPKc@PLT
 4413      00
 4414              	.LEHE134:
 4415 1742 84C0     		testb	%al, %al
 4416 1744 74E2     		je	.L363
 4417 1746 EBC8     		jmp	.L361
 4418              	.L382:
 4419 1748 4889C3   		movq	%rax, %rbx
 4420 174b 4889D5   		movq	%rdx, %rbp
 4421              	.L369:
 4422 174e 488DBC24 		leaq	608(%rsp), %rdi
 4422      60020000 
 4423 1756 E8000000 		call	_ZN8UnitTest16SignalTranslatorD1Ev@PLT
 4423      00
 4424 175b 4889DF   		movq	%rbx, %rdi
 4425 175e 4889EA   		movq	%rbp, %rdx
 4426              	.L370:
 4427 1761 4883FA01 		cmpq	$1, %rdx
 4428 1765 0F845D01 		je	.L372
 4428      0000
 4429 176b 4883FA02 		cmpq	$2, %rdx
 4430 176f 0F852B01 		jne	.L395
 4430      0000
 4431 1775 E8000000 		call	__cxa_begin_catch@PLT
 4431      00
 4432 177a 488DBC24 		leaq	192(%rsp), %rdi
 4432      C0000000 
 4433 1782 4889C3   		movq	%rax, %rbx
 4434              	.LEHB135:
 4435 1785 E8000000 		call	_ZN8UnitTest15MemoryOutStreamC1Ev
 4435      00
 4436              	.LEHE135:
 4437 178a 488DBC24 		leaq	192(%rsp), %rdi
 4437      C0000000 
 4438 1792 488D3500 		leaq	.LC11(%rip), %rsi
 4438      000000
 4439 1799 BA150000 		movl	$21, %edx
 4439      00
 4440              	.LEHB136:
 4441 179e E8000000 		call	_ZSt16__ostream_insertIcSt11char_traitsIcEERSt13basic_ostreamIT_T0_ES6_PKS3_l@PLT
 4441      00
 4442 17a3 488B03   		movq	(%rbx), %rax
 4443 17a6 4889DF   		movq	%rbx, %rdi
 4444 17a9 FF5010   		call	*16(%rax)
 4445 17ac 488DBC24 		leaq	192(%rsp), %rdi
 4445      C0000000 
 4446 17b4 4889C6   		movq	%rax, %rsi
 4447 17b7 E8000000 		call	_ZStlsISt11char_traitsIcEERSt13basic_ostreamIcT_ES5_PKc@PLT
 4447      00
 4448 17bc E8000000 		call	_ZN8UnitTest11CurrentTest7ResultsEv@PLT
 4448      00
 4449 17c1 488DBC24 		leaq	192(%rsp), %rdi
 4449      C0000000 
 4450 17c9 488B18   		movq	(%rax), %rbx
 4451 17cc E8000000 		call	_ZNK8UnitTest15MemoryOutStream7GetTextEv@PLT
 4451      00
 4452 17d1 488B7424 		movq	8(%rsp), %rsi
 4452      08
 4453 17d6 4889C2   		movq	%rax, %rdx
 4454 17d9 4889DF   		movq	%rbx, %rdi
 4455 17dc E8000000 		call	_ZN8UnitTest11TestResults13OnTestFailureERKNS_11TestDetailsEPKc@PLT
 4455      00
 4456              	.LEHE136:
 4457 17e1 488DBC24 		leaq	192(%rsp), %rdi
 4457      C0000000 
 4458              	.LEHB137:
 4459 17e9 E8000000 		call	_ZN8UnitTest15MemoryOutStreamD1Ev
 4459      00
 4460              	.LEHE137:
 4461              	.L392:
 4462 17ee E8000000 		call	__cxa_end_catch@PLT
 4462      00
 4463 17f3 E9EDFEFF 		jmp	.L357
 4463      FF
 4464              	.L394:
 4465 17f8 E8000000 		call	__stack_chk_fail@PLT
 4465      00
 4466              	.L381:
 4467 17fd 4889C7   		movq	%rax, %rdi
 4468 1800 E95CFFFF 		jmp	.L370
 4468      FF
 4469              	.L389:
 4470 1805 4889C7   		movq	%rax, %rdi
 4471 1808 E8000000 		call	__cxa_begin_catch@PLT
 4471      00
 4472              	.LEHB138:
 4473 180d E8000000 		call	_ZN8UnitTest11CurrentTest7ResultsEv@PLT
 4473      00
 4474 1812 488B18   		movq	(%rax), %rbx
 4475 1815 E8000000 		call	_ZN8UnitTest11CurrentTest7DetailsEv@PLT
 4475      00
 4476 181a 488B30   		movq	(%rax), %rsi
 4477 181d 488D7C24 		leaq	64(%rsp), %rdi
 4477      40
 4478 1822 BADE0000 		movl	$222, %edx
 4478      00
 4479 1827 E8000000 		call	_ZN8UnitTest11TestDetailsC1ERKS0_i@PLT
 4479      00
 4480 182c 488D7424 		leaq	64(%rsp), %rsi
 4480      40
 4481 1831 488D1500 		leaq	.LC26(%rip), %rdx
 4481      000000
 4482 1838 4889DF   		movq	%rbx, %rdi
 4483 183b E8000000 		call	_ZN8UnitTest11TestResults13OnTestFailureERKNS_11TestDetailsEPKc@PLT
 4483      00
 4484              	.LEHE138:
 4485              	.LEHB139:
 4486 1840 E8000000 		call	__cxa_end_catch@PLT
 4486      00
 4487              	.LEHE139:
 4488 1845 E972FEFF 		jmp	.L366
 4488      FF
 4489              	.L387:
 4490 184a 4889C3   		movq	%rax, %rbx
 4491 184d 4889D5   		movq	%rdx, %rbp
 4492              	.L368:
 4493 1850 488D0500 		leaq	16+_ZTVZN12_GLOBAL__N_154TestRunnerFixtureSlowTestWithTimeExemptionPassesHelper7RunImplEvE16S
 4493      000000
 4494 1857 488DBC24 		leaq	128(%rsp), %rdi
 4494      80000000 
 4495 185f 48898424 		movq	%rax, 128(%rsp)
 4495      80000000 
 4496 1867 E8000000 		call	_ZN8UnitTest4TestD2Ev@PLT
 4496      00
 4497 186c E9DDFEFF 		jmp	.L369
 4497      FF
 4498              	.L388:
 4499 1871 4889C3   		movq	%rax, %rbx
 4500 1874 4889D5   		movq	%rdx, %rbp
 4501 1877 E8000000 		call	__cxa_end_catch@PLT
 4501      00
 4502 187c EBD2     		jmp	.L368
 4503              	.L385:
 4504 187e 488DBC24 		leaq	192(%rsp), %rdi
 4504      C0000000 
 4505 1886 4889C3   		movq	%rax, %rbx
 4506 1889 E8000000 		call	_ZN8UnitTest15MemoryOutStreamD1Ev
 4506      00
 4507              	.L378:
 4508 188e E8000000 		call	__cxa_end_catch@PLT
 4508      00
 4509 1893 4889DF   		movq	%rbx, %rdi
 4510              	.LEHB140:
 4511 1896 E8000000 		call	_Unwind_Resume@PLT
 4511      00
 4512              	.LEHE140:
 4513              	.L384:
 4514              	.L393:
 4515 189b 4889C3   		movq	%rax, %rbx
 4516 189e EBEE     		jmp	.L378
 4517              	.L395:
 4518 18a0 E8000000 		call	__cxa_begin_catch@PLT
 4518      00
 4519              	.LEHB141:
 4520 18a5 E8000000 		call	_ZN8UnitTest11CurrentTest7ResultsEv@PLT
 4520      00
 4521 18aa 488B7424 		movq	8(%rsp), %rsi
 4521      08
 4522 18af 488B38   		movq	(%rax), %rdi
 4523 18b2 488D1500 		leaq	.LC12(%rip), %rdx
 4523      000000
 4524 18b9 E8000000 		call	_ZN8UnitTest11TestResults13OnTestFailureERKNS_11TestDetailsEPKc@PLT
 4524      00
 4525              	.LEHE141:
 4526              	.LEHB142:
 4527 18be E8000000 		call	__cxa_end_catch@PLT
 4527      00
 4528              	.LEHE142:
 4529 18c3 E91DFEFF 		jmp	.L357
 4529      FF
 4530              	.L372:
 4531 18c8 E8000000 		call	__cxa_begin_catch@PLT
 4531      00
 4532 18cd 4889C3   		movq	%rax, %rbx
 4533              	.LEHB143:
 4534 18d0 E8000000 		call	_ZN8UnitTest11CurrentTest7ResultsEv@PLT
 4534      00
 4535 18d5 488B28   		movq	(%rax), %rbp
 4536 18d8 488B03   		movq	(%rbx), %rax
 4537 18db 4889DF   		movq	%rbx, %rdi
 4538 18de FF5010   		call	*16(%rax)
 4539 18e1 4889DF   		movq	%rbx, %rdi
 4540 18e4 4989C4   		movq	%rax, %r12
 4541 18e7 E8000000 		call	_ZNK8UnitTest15AssertException10LineNumberEv@PLT
 4541      00
 4542 18ec 4889DF   		movq	%rbx, %rdi
 4543 18ef 4189C5   		movl	%eax, %r13d
 4544 18f2 E8000000 		call	_ZNK8UnitTest15AssertException8FilenameEv@PLT
 4544      00
 4545 18f7 488B5424 		movq	8(%rsp), %rdx
 4545      08
 4546 18fc 488D7C24 		leaq	32(%rsp), %rdi
 4546      20
 4547 1901 4589E8   		movl	%r13d, %r8d
 4548 1904 4889C1   		movq	%rax, %rcx
 4549 1907 488B7208 		movq	8(%rdx), %rsi
 4550 190b 488B12   		movq	(%rdx), %rdx
 4551 190e E8000000 		call	_ZN8UnitTest11TestDetailsC1EPKcS2_S2_i@PLT
 4551      00
 4552 1913 488D7424 		leaq	32(%rsp), %rsi
 4552      20
 4553 1918 4C89E2   		movq	%r12, %rdx
 4554 191b 4889EF   		movq	%rbp, %rdi
 4555 191e E8000000 		call	_ZN8UnitTest11TestResults13OnTestFailureERKNS_11TestDetailsEPKc@PLT
 4555      00
 4556              	.LEHE143:
 4557 1923 E9C6FEFF 		jmp	.L392
 4557      FF
 4558              	.L386:
 4559 1928 4889C3   		movq	%rax, %rbx
 4560 192b E8000000 		call	__cxa_end_catch@PLT
 4560      00
 4561 1930 4889DF   		movq	%rbx, %rdi
 4562              	.LEHB144:
 4563 1933 E8000000 		call	_Unwind_Resume@PLT
 4563      00
 4564              	.LEHE144:
 4565              	.L383:
 4566 1938 E95EFFFF 		jmp	.L393
 4566      FF
 4567              		.cfi_endproc
 4568              	.LFE1423:
 4569              		.section	.gcc_except_table
 4570              		.align 4
 4571              	.LLSDA1423:
 4572 0358 FF       		.byte	0xff
 4573 0359 9B       		.byte	0x9b
 4574 035a 7D       		.uleb128 .LLSDATT1423-.LLSDATTD1423
 4575              	.LLSDATTD1423:
 4576 035b 01       		.byte	0x1
 4577 035c 65       		.uleb128 .LLSDACSE1423-.LLSDACSB1423
 4578              	.LLSDACSB1423:
 4579 035d 2C       		.uleb128 .LEHB127-.LFB1423
 4580 035e 05       		.uleb128 .LEHE127-.LEHB127
 4581 035f 00       		.uleb128 0
 4582 0360 00       		.uleb128 0
 4583 0361 3C       		.uleb128 .LEHB128-.LFB1423
 4584 0362 05       		.uleb128 .LEHE128-.LEHB128
 4585 0363 8D05     		.uleb128 .L381-.LFB1423
 4586 0365 05       		.uleb128 0x5
 4587 0366 76       		.uleb128 .LEHB129-.LFB1423
 4588 0367 2A       		.uleb128 .LEHE129-.LEHB129
 4589 0368 D803     		.uleb128 .L382-.LFB1423
 4590 036a 07       		.uleb128 0x7
 4591 036b C501     		.uleb128 .LEHB130-.LFB1423
 4592 036d 44       		.uleb128 .LEHE130-.LEHB130
 4593 036e DA05     		.uleb128 .L387-.LFB1423
 4594 0370 07       		.uleb128 0x7
 4595 0371 8C02     		.uleb128 .LEHB131-.LFB1423
 4596 0373 40       		.uleb128 .LEHE131-.LEHB131
 4597 0374 9505     		.uleb128 .L389-.LFB1423
 4598 0376 01       		.uleb128 0x1
 4599 0377 E302     		.uleb128 .LEHB132-.LFB1423
 4600 0379 05       		.uleb128 .LEHE132-.LEHB132
 4601 037a D803     		.uleb128 .L382-.LFB1423
 4602 037c 07       		.uleb128 0x7
 4603 037d F002     		.uleb128 .LEHB133-.LFB1423
 4604 037f 05       		.uleb128 .LEHE133-.LEHB133
 4605 0380 8D05     		.uleb128 .L381-.LFB1423
 4606 0382 05       		.uleb128 0x5
 4607 0383 B303     		.uleb128 .LEHB134-.LFB1423
 4608 0385 1F       		.uleb128 .LEHE134-.LEHB134
 4609 0386 DA05     		.uleb128 .L387-.LFB1423
 4610 0388 07       		.uleb128 0x7
 4611 0389 9504     		.uleb128 .LEHB135-.LFB1423
 4612 038b 05       		.uleb128 .LEHE135-.LEHB135
 4613 038c AB06     		.uleb128 .L384-.LFB1423
 4614 038e 00       		.uleb128 0
 4615 038f AE04     		.uleb128 .LEHB136-.LFB1423
 4616 0391 43       		.uleb128 .LEHE136-.LEHB136
 4617 0392 8E06     		.uleb128 .L385-.LFB1423
 4618 0394 00       		.uleb128 0
 4619 0395 F904     		.uleb128 .LEHB137-.LFB1423
 4620 0397 05       		.uleb128 .LEHE137-.LEHB137
 4621 0398 AB06     		.uleb128 .L384-.LFB1423
 4622 039a 00       		.uleb128 0
 4623 039b 9D05     		.uleb128 .LEHB138-.LFB1423
 4624 039d 33       		.uleb128 .LEHE138-.LEHB138
 4625 039e 8106     		.uleb128 .L388-.LFB1423
 4626 03a0 07       		.uleb128 0x7
 4627 03a1 D005     		.uleb128 .LEHB139-.LFB1423
 4628 03a3 05       		.uleb128 .LEHE139-.LEHB139
 4629 03a4 DA05     		.uleb128 .L387-.LFB1423
 4630 03a6 07       		.uleb128 0x7
 4631 03a7 A606     		.uleb128 .LEHB140-.LFB1423
 4632 03a9 05       		.uleb128 .LEHE140-.LEHB140
 4633 03aa 00       		.uleb128 0
 4634 03ab 00       		.uleb128 0
 4635 03ac B506     		.uleb128 .LEHB141-.LFB1423
 4636 03ae 19       		.uleb128 .LEHE141-.LEHB141
 4637 03af B807     		.uleb128 .L386-.LFB1423
 4638 03b1 00       		.uleb128 0
 4639 03b2 CE06     		.uleb128 .LEHB142-.LFB1423
 4640 03b4 05       		.uleb128 .LEHE142-.LEHB142
 4641 03b5 00       		.uleb128 0
 4642 03b6 00       		.uleb128 0
 4643 03b7 E006     		.uleb128 .LEHB143-.LFB1423
 4644 03b9 53       		.uleb128 .LEHE143-.LEHB143
 4645 03ba C807     		.uleb128 .L383-.LFB1423
 4646 03bc 00       		.uleb128 0
 4647 03bd C307     		.uleb128 .LEHB144-.LFB1423
 4648 03bf 05       		.uleb128 .LEHE144-.LEHB144
 4649 03c0 00       		.uleb128 0
 4650 03c1 00       		.uleb128 0
 4651              	.LLSDACSE1423:
 4652 03c2 03       		.byte	0x3
 4653 03c3 00       		.byte	0
 4654 03c4 02       		.byte	0x2
 4655 03c5 7D       		.byte	0x7d
 4656 03c6 01       		.byte	0x1
 4657 03c7 7D       		.byte	0x7d
 4658 03c8 00       		.byte	0
 4659 03c9 7D       		.byte	0x7d
 4660 03ca 0000     		.align 4
 4661 03cc 00000000 		.long	0
 4662              	
 4663 03d0 00000000 		.long	DW.ref._ZTISt9exception-.
 4664 03d4 00000000 		.long	DW.ref._ZTIN8UnitTest15AssertExceptionE-.
 4665              	.LLSDATT1423:
 4666              		.text
 4668 193d 90       		.align 2
 4669 193e 6690     		.p2align 4,,15
 4671              	_ZNK12_GLOBAL__N_152TestTestRunnerFixtureSlowTestWithTimeExemptionPasses7RunImplEv:
 4672              	.LFB1311:
 4673              		.cfi_startproc
 4674              		.cfi_personality 0x9b,DW.ref.__gxx_personality_v0
 4675              		.cfi_lsda 0x1b,.LLSDA1311
 4676 1940 4156     		pushq	%r14
 4677              		.cfi_def_cfa_offset 16
 4678              		.cfi_offset 14, -16
 4679 1942 4155     		pushq	%r13
 4680              		.cfi_def_cfa_offset 24
 4681              		.cfi_offset 13, -24
 4682 1944 4989FD   		movq	%rdi, %r13
 4683 1947 4154     		pushq	%r12
 4684              		.cfi_def_cfa_offset 32
 4685              		.cfi_offset 12, -32
 4686 1949 55       		pushq	%rbp
 4687              		.cfi_def_cfa_offset 40
 4688              		.cfi_offset 6, -40
 4689 194a 488D6F08 		leaq	8(%rdi), %rbp
 4690 194e 53       		pushq	%rbx
 4691              		.cfi_def_cfa_offset 48
 4692              		.cfi_offset 3, -48
 4693 194f 4881EC90 		subq	$2192, %rsp
 4693      080000
 4694              		.cfi_def_cfa_offset 2240
 4695 1956 488D5C24 		leaq	32(%rsp), %rbx
 4695      20
 4696 195b 64488B04 		movq	%fs:40, %rax
 4696      25280000 
 4696      00
 4697 1964 48898424 		movq	%rax, 2184(%rsp)
 4697      88080000 
 4698 196c 31C0     		xorl	%eax, %eax
 4699 196e 488D7318 		leaq	24(%rbx), %rsi
 4700 1972 4889DF   		movq	%rbx, %rdi
 4701              	.LEHB145:
 4702 1975 E8000000 		call	_ZN8UnitTest10TestRunnerC1ERNS_12TestReporterE@PLT
 4702      00
 4703              	.LEHE145:
 4704 197a 4C8D2500 		leaq	16+_ZTV17RecordingReporter(%rip), %r12
 4704      000000
 4705 1981 488DBB48 		leaq	2120(%rbx), %rdi
 4705      080000
 4706 1988 C7442440 		movl	$0, 64(%rsp)
 4706      00000000 
 4707 1990 C7842444 		movl	$0, 580(%rsp)
 4707      02000000 
 4707      000000
 4708 199b C7842448 		movl	$0, 840(%rsp)
 4708      03000000 
 4708      000000
 4709 19a6 4C896424 		movq	%r12, 56(%rsp)
 4709      38
 4710 19ab C784244C 		movl	$0, 1612(%rsp)
 4710      06000000 
 4710      000000
 4711 19b6 48C78424 		movq	$0, 2128(%rsp)
 4711      50080000 
 4711      00000000 
 4712 19c2 48C78424 		movq	$0, 2136(%rsp)
 4712      58080000 
 4712      00000000 
 4713 19ce C7842460 		movl	$0, 2144(%rsp)
 4713      08000000 
 4713      000000
 4714 19d9 C6442444 		movb	$0, 68(%rsp)
 4714      00
 4715 19de C6842444 		movb	$0, 324(%rsp)
 4715      01000000 
 4716 19e6 C6842448 		movb	$0, 584(%rsp)
 4716      02000000 
 4717 19ee C684244C 		movb	$0, 844(%rsp)
 4717      03000000 
 4718 19f6 C684244C 		movb	$0, 1100(%rsp)
 4718      04000000 
 4719 19fe C684244C 		movb	$0, 1356(%rsp)
 4719      05000000 
 4720 1a06 C6842450 		movb	$0, 1616(%rsp)
 4720      06000000 
 4721 1a0e C6842450 		movb	$0, 1872(%rsp)
 4721      07000000 
 4722              	.LEHB146:
 4723 1a16 E8000000 		call	_ZN8UnitTest8TestListC1Ev@PLT
 4723      00
 4724              	.LEHE146:
 4725 1a1b 4889EE   		movq	%rbp, %rsi
 4726 1a1e 4889DF   		movq	%rbx, %rdi
 4727 1a21 4889AC24 		movq	%rbp, 2168(%rsp)
 4727      78080000 
 4728              	.LEHB147:
 4729 1a29 E842FBFF 		call	_ZN8UnitTest11ExecuteTestIN12_GLOBAL__N_154TestRunnerFixtureSlowTestWithTimeExemptionPassesHe
 4729      FF
 4730              	.LEHE147:
 4731 1a2e 488D7B18 		leaq	24(%rbx), %rdi
 4732 1a32 4C896424 		movq	%r12, 56(%rsp)
 4732      38
 4733              	.LEHB148:
 4734 1a37 E8000000 		call	_ZN8UnitTest12TestReporterD2Ev@PLT
 4734      00
 4735              	.LEHE148:
 4736 1a3c 4889DF   		movq	%rbx, %rdi
 4737              	.LEHB149:
 4738 1a3f E8000000 		call	_ZN8UnitTest10TestRunnerD1Ev@PLT
 4738      00
 4739              	.LEHE149:
 4740              	.L396:
 4741 1a44 488B8424 		movq	2184(%rsp), %rax
 4741      88080000 
 4742 1a4c 64483304 		xorq	%fs:40, %rax
 4742      25280000 
 4742      00
 4743 1a55 7510     		jne	.L444
 4744 1a57 4881C490 		addq	$2192, %rsp
 4744      080000
 4745              		.cfi_remember_state
 4746              		.cfi_def_cfa_offset 48
 4747 1a5e 5B       		popq	%rbx
 4748              		.cfi_def_cfa_offset 40
 4749 1a5f 5D       		popq	%rbp
 4750              		.cfi_def_cfa_offset 32
 4751 1a60 415C     		popq	%r12
 4752              		.cfi_def_cfa_offset 24
 4753 1a62 415D     		popq	%r13
 4754              		.cfi_def_cfa_offset 16
 4755 1a64 415E     		popq	%r14
 4756              		.cfi_def_cfa_offset 8
 4757 1a66 C3       		ret
 4758              	.L444:
 4759              		.cfi_restore_state
 4760 1a67 E8000000 		call	__stack_chk_fail@PLT
 4760      00
 4761              	.L416:
 4762 1a6c 4889C7   		movq	%rax, %rdi
 4763              	.L402:
 4764 1a6f 4883FA01 		cmpq	$1, %rdx
 4765 1a73 0F846F01 		je	.L404
 4765      0000
 4766 1a79 4883FA02 		cmpq	$2, %rdx
 4767 1a7d 0F853101 		jne	.L445
 4767      0000
 4768              	.L405:
 4769 1a83 E8000000 		call	__cxa_begin_catch@PLT
 4769      00
 4770 1a88 4889DF   		movq	%rbx, %rdi
 4771 1a8b 4989C4   		movq	%rax, %r12
 4772              	.LEHB150:
 4773 1a8e E8000000 		call	_ZN8UnitTest15MemoryOutStreamC1Ev
 4773      00
 4774              	.LEHE150:
 4775 1a93 488D3500 		leaq	.LC11(%rip), %rsi
 4775      000000
 4776 1a9a BA150000 		movl	$21, %edx
 4776      00
 4777 1a9f 4889DF   		movq	%rbx, %rdi
 4778              	.LEHB151:
 4779 1aa2 E8000000 		call	_ZSt16__ostream_insertIcSt11char_traitsIcEERSt13basic_ostreamIT_T0_ES6_PKS3_l@PLT
 4779      00
 4780 1aa7 498B0424 		movq	(%r12), %rax
 4781 1aab 4C89E7   		movq	%r12, %rdi
 4782 1aae FF5010   		call	*16(%rax)
 4783 1ab1 4889DF   		movq	%rbx, %rdi
 4784 1ab4 4889C6   		movq	%rax, %rsi
 4785 1ab7 E8000000 		call	_ZStlsISt11char_traitsIcEERSt13basic_ostreamIcT_ES5_PKc@PLT
 4785      00
 4786 1abc E8000000 		call	_ZN8UnitTest11CurrentTest7ResultsEv@PLT
 4786      00
 4787 1ac1 4889DF   		movq	%rbx, %rdi
 4788 1ac4 4C8B20   		movq	(%rax), %r12
 4789 1ac7 E8000000 		call	_ZNK8UnitTest15MemoryOutStream7GetTextEv@PLT
 4789      00
 4790 1acc 4889C2   		movq	%rax, %rdx
 4791 1acf 4889EE   		movq	%rbp, %rsi
 4792 1ad2 4C89E7   		movq	%r12, %rdi
 4793 1ad5 E8000000 		call	_ZN8UnitTest11TestResults13OnTestFailureERKNS_11TestDetailsEPKc@PLT
 4793      00
 4794              	.LEHE151:
 4795 1ada 4889DF   		movq	%rbx, %rdi
 4796              	.LEHB152:
 4797 1add E8000000 		call	_ZN8UnitTest15MemoryOutStreamD1Ev
 4797      00
 4798              	.LEHE152:
 4799              	.L443:
 4800 1ae2 E8000000 		call	__cxa_end_catch@PLT
 4800      00
 4801 1ae7 E958FFFF 		jmp	.L396
 4801      FF
 4802              	.L423:
 4803 1aec 4989C4   		movq	%rax, %r12
 4804 1aef 4989D6   		movq	%rdx, %r14
 4805 1af2 4889DF   		movq	%rbx, %rdi
 4806 1af5 E8000000 		call	_ZN8UnitTest10TestRunnerD1Ev@PLT
 4806      00
 4807 1afa 4C89E7   		movq	%r12, %rdi
 4808 1afd 4C89F2   		movq	%r14, %rdx
 4809 1b00 E96AFFFF 		jmp	.L402
 4809      FF
 4810              	.L417:
 4811 1b05 4989C4   		movq	%rax, %r12
 4812 1b08 4989D6   		movq	%rdx, %r14
 4813 1b0b 4889DF   		movq	%rbx, %rdi
 4814 1b0e E8000000 		call	_ZN12_GLOBAL__N_111FixtureBaseD2Ev
 4814      00
 4815 1b13 4C89E7   		movq	%r12, %rdi
 4816 1b16 4C89F2   		movq	%r14, %rdx
 4817 1b19 E951FFFF 		jmp	.L402
 4817      FF
 4818              	.L422:
 4819 1b1e 4989C4   		movq	%rax, %r12
 4820 1b21 4989D6   		movq	%rdx, %r14
 4821 1b24 4889DF   		movq	%rbx, %rdi
 4822 1b27 E8000000 		call	_ZN12_GLOBAL__N_111FixtureBaseD2Ev
 4822      00
 4823 1b2c 4C89E7   		movq	%r12, %rdi
 4824 1b2f 4C89F2   		movq	%r14, %rdx
 4825              	.L399:
 4826 1b32 4883FA01 		cmpq	$1, %rdx
 4827 1b36 0F84AC00 		je	.L404
 4827      0000
 4828 1b3c 4883FA02 		cmpq	$2, %rdx
 4829 1b40 0F843DFF 		je	.L405
 4829      FFFF
 4830 1b46 E8000000 		call	__cxa_begin_catch@PLT
 4830      00
 4831              	.LEHB153:
 4832 1b4b E8000000 		call	_ZN8UnitTest11CurrentTest7ResultsEv@PLT
 4832      00
 4833 1b50 4889E3   		movq	%rsp, %rbx
 4834 1b53 BACD0000 		movl	$205, %edx
 4834      00
 4835 1b58 4889EE   		movq	%rbp, %rsi
 4836 1b5b 4889DF   		movq	%rbx, %rdi
 4837 1b5e 4C8B20   		movq	(%rax), %r12
 4838 1b61 E8000000 		call	_ZN8UnitTest11TestDetailsC1ERKS0_i@PLT
 4838      00
 4839 1b66 488D1500 		leaq	.LC14(%rip), %rdx
 4839      000000
 4840 1b6d 4889DE   		movq	%rbx, %rsi
 4841 1b70 4C89E7   		movq	%r12, %rdi
 4842 1b73 E8000000 		call	_ZN8UnitTest11TestResults13OnTestFailureERKNS_11TestDetailsEPKc@PLT
 4842      00
 4843              	.LEHE153:
 4844              	.L406:
 4845              	.LEHB154:
 4846 1b78 E8000000 		call	__cxa_end_catch@PLT
 4846      00
 4847              	.LEHE154:
 4848 1b7d E9C2FEFF 		jmp	.L396
 4848      FF
 4849              	.L424:
 4850 1b82 4889C7   		movq	%rax, %rdi
 4851 1b85 EBAB     		jmp	.L399
 4852              	.L421:
 4853 1b87 4889C3   		movq	%rax, %rbx
 4854 1b8a E8000000 		call	__cxa_end_catch@PLT
 4854      00
 4855 1b8f 4889DF   		movq	%rbx, %rdi
 4856              	.LEHB155:
 4857 1b92 E8000000 		call	_Unwind_Resume@PLT
 4857      00
 4858              	.LEHE155:
 4859              	.L420:
 4860 1b97 4889DF   		movq	%rbx, %rdi
 4861 1b9a 4889C5   		movq	%rax, %rbp
 4862 1b9d E8000000 		call	_ZN8UnitTest15MemoryOutStreamD1Ev
 4862      00
 4863              	.L409:
 4864 1ba2 E8000000 		call	__cxa_end_catch@PLT
 4864      00
 4865 1ba7 4889EF   		movq	%rbp, %rdi
 4866              	.LEHB156:
 4867 1baa E8000000 		call	_Unwind_Resume@PLT
 4867      00
 4868              	.LEHE156:
 4869              	.L419:
 4870 1baf 4889C5   		movq	%rax, %rbp
 4871 1bb2 EBEE     		jmp	.L409
 4872              	.L445:
 4873 1bb4 E8000000 		call	__cxa_begin_catch@PLT
 4873      00
 4874              	.LEHB157:
 4875 1bb9 E8000000 		call	_ZN8UnitTest11CurrentTest7ResultsEv@PLT
 4875      00
 4876 1bbe 4889E3   		movq	%rsp, %rbx
 4877 1bc1 BACD0000 		movl	$205, %edx
 4877      00
 4878 1bc6 4889EE   		movq	%rbp, %rsi
 4879 1bc9 4889DF   		movq	%rbx, %rdi
 4880 1bcc 4C8B20   		movq	(%rax), %r12
 4881 1bcf E8000000 		call	_ZN8UnitTest11TestDetailsC1ERKS0_i@PLT
 4881      00
 4882 1bd4 488D1500 		leaq	.LC13(%rip), %rdx
 4882      000000
 4883 1bdb 4889DE   		movq	%rbx, %rsi
 4884 1bde 4C89E7   		movq	%r12, %rdi
 4885 1be1 E8000000 		call	_ZN8UnitTest11TestResults13OnTestFailureERKNS_11TestDetailsEPKc@PLT
 4885      00
 4886              	.LEHE157:
 4887 1be6 EB90     		jmp	.L406
 4888              	.L404:
 4889 1be8 E8000000 		call	__cxa_begin_catch@PLT
 4889      00
 4890 1bed 4889C3   		movq	%rax, %rbx
 4891              	.LEHB158:
 4892 1bf0 E8000000 		call	_ZN8UnitTest11CurrentTest7ResultsEv@PLT
 4892      00
 4893 1bf5 488B28   		movq	(%rax), %rbp
 4894 1bf8 488B03   		movq	(%rbx), %rax
 4895 1bfb 4889DF   		movq	%rbx, %rdi
 4896 1bfe FF5010   		call	*16(%rax)
 4897 1c01 4889DF   		movq	%rbx, %rdi
 4898 1c04 4989C4   		movq	%rax, %r12
 4899 1c07 E8000000 		call	_ZNK8UnitTest15AssertException10LineNumberEv@PLT
 4899      00
 4900 1c0c 4889DF   		movq	%rbx, %rdi
 4901 1c0f 4189C6   		movl	%eax, %r14d
 4902 1c12 E8000000 		call	_ZNK8UnitTest15AssertException8FilenameEv@PLT
 4902      00
 4903 1c17 498B5508 		movq	8(%r13), %rdx
 4904 1c1b 498B7510 		movq	16(%r13), %rsi
 4905 1c1f 4889E3   		movq	%rsp, %rbx
 4906 1c22 4589F0   		movl	%r14d, %r8d
 4907 1c25 4889C1   		movq	%rax, %rcx
 4908 1c28 4889DF   		movq	%rbx, %rdi
 4909 1c2b E8000000 		call	_ZN8UnitTest11TestDetailsC1EPKcS2_S2_i@PLT
 4909      00
 4910 1c30 4C89E2   		movq	%r12, %rdx
 4911 1c33 4889DE   		movq	%rbx, %rsi
 4912 1c36 4889EF   		movq	%rbp, %rdi
 4913 1c39 E8000000 		call	_ZN8UnitTest11TestResults13OnTestFailureERKNS_11TestDetailsEPKc@PLT
 4913      00
 4914              	.LEHE158:
 4915 1c3e E99FFEFF 		jmp	.L443
 4915      FF
 4916              	.L418:
 4917 1c43 4889C3   		movq	%rax, %rbx
 4918 1c46 E8000000 		call	__cxa_end_catch@PLT
 4918      00
 4919 1c4b 4889DF   		movq	%rbx, %rdi
 4920              	.LEHB159:
 4921 1c4e E8000000 		call	_Unwind_Resume@PLT
 4921      00
 4922              	.LEHE159:
 4923              		.cfi_endproc
 4924              	.LFE1311:
 4925              		.section	.gcc_except_table
 4926              		.align 4
 4927              	.LLSDA1311:
 4928 03d8 FF       		.byte	0xff
 4929 03d9 9B       		.byte	0x9b
 4930 03da 6D       		.uleb128 .LLSDATT1311-.LLSDATTD1311
 4931              	.LLSDATTD1311:
 4932 03db 01       		.byte	0x1
 4933 03dc 55       		.uleb128 .LLSDACSE1311-.LLSDACSB1311
 4934              	.LLSDACSB1311:
 4935 03dd 35       		.uleb128 .LEHB145-.LFB1311
 4936 03de 05       		.uleb128 .LEHE145-.LEHB145
 4937 03df C204     		.uleb128 .L424-.LFB1311
 4938 03e1 05       		.uleb128 0x5
 4939 03e2 D601     		.uleb128 .LEHB146-.LFB1311
 4940 03e4 05       		.uleb128 .LEHE146-.LEHB146
 4941 03e5 DE03     		.uleb128 .L422-.LFB1311
 4942 03e7 07       		.uleb128 0x7
 4943 03e8 E901     		.uleb128 .LEHB147-.LFB1311
 4944 03ea 05       		.uleb128 .LEHE147-.LEHB147
 4945 03eb C503     		.uleb128 .L417-.LFB1311
 4946 03ed 07       		.uleb128 0x7
 4947 03ee F701     		.uleb128 .LEHB148-.LFB1311
 4948 03f0 05       		.uleb128 .LEHE148-.LEHB148
 4949 03f1 AC03     		.uleb128 .L423-.LFB1311
 4950 03f3 07       		.uleb128 0x7
 4951 03f4 FF01     		.uleb128 .LEHB149-.LFB1311
 4952 03f6 05       		.uleb128 .LEHE149-.LEHB149
 4953 03f7 AC02     		.uleb128 .L416-.LFB1311
 4954 03f9 05       		.uleb128 0x5
 4955 03fa CE02     		.uleb128 .LEHB150-.LFB1311
 4956 03fc 05       		.uleb128 .LEHE150-.LEHB150
 4957 03fd EF04     		.uleb128 .L419-.LFB1311
 4958 03ff 00       		.uleb128 0
 4959 0400 E202     		.uleb128 .LEHB151-.LFB1311
 4960 0402 38       		.uleb128 .LEHE151-.LEHB151
 4961 0403 D704     		.uleb128 .L420-.LFB1311
 4962 0405 00       		.uleb128 0
 4963 0406 9D03     		.uleb128 .LEHB152-.LFB1311
 4964 0408 05       		.uleb128 .LEHE152-.LEHB152
 4965 0409 EF04     		.uleb128 .L419-.LFB1311
 4966 040b 00       		.uleb128 0
 4967 040c 8B04     		.uleb128 .LEHB153-.LFB1311
 4968 040e 2D       		.uleb128 .LEHE153-.LEHB153
 4969 040f C704     		.uleb128 .L421-.LFB1311
 4970 0411 00       		.uleb128 0
 4971 0412 B804     		.uleb128 .LEHB154-.LFB1311
 4972 0414 05       		.uleb128 .LEHE154-.LEHB154
 4973 0415 00       		.uleb128 0
 4974 0416 00       		.uleb128 0
 4975 0417 D204     		.uleb128 .LEHB155-.LFB1311
 4976 0419 05       		.uleb128 .LEHE155-.LEHB155
 4977 041a 00       		.uleb128 0
 4978 041b 00       		.uleb128 0
 4979 041c EA04     		.uleb128 .LEHB156-.LFB1311
 4980 041e 05       		.uleb128 .LEHE156-.LEHB156
 4981 041f 00       		.uleb128 0
 4982 0420 00       		.uleb128 0
 4983 0421 F904     		.uleb128 .LEHB157-.LFB1311
 4984 0423 2D       		.uleb128 .LEHE157-.LEHB157
 4985 0424 C704     		.uleb128 .L421-.LFB1311
 4986 0426 00       		.uleb128 0
 4987 0427 B005     		.uleb128 .LEHB158-.LFB1311
 4988 0429 4E       		.uleb128 .LEHE158-.LEHB158
 4989 042a 8306     		.uleb128 .L418-.LFB1311
 4990 042c 00       		.uleb128 0
 4991 042d 8E06     		.uleb128 .LEHB159-.LFB1311
 4992 042f 05       		.uleb128 .LEHE159-.LEHB159
 4993 0430 00       		.uleb128 0
 4994 0431 00       		.uleb128 0
 4995              	.LLSDACSE1311:
 4996 0432 03       		.byte	0x3
 4997 0433 00       		.byte	0
 4998 0434 02       		.byte	0x2
 4999 0435 7D       		.byte	0x7d
 5000 0436 01       		.byte	0x1
 5001 0437 7D       		.byte	0x7d
 5002 0438 00       		.byte	0
 5003 0439 7D       		.byte	0x7d
 5004 043a 0000     		.align 4
 5005 043c 00000000 		.long	0
 5006              	
 5007 0440 00000000 		.long	DW.ref._ZTISt9exception-.
 5008 0444 00000000 		.long	DW.ref._ZTIN8UnitTest15AssertExceptionE-.
 5009              	.LLSDATT1311:
 5010              		.text
 5012              		.section	.rodata.str1.8
 5013              		.align 8
 5014              	.LC27:
 5015 0280 73747273 		.string	"strstr(test.m_details.filename, reporter.lastFailedFile)"
 5015      74722874 
 5015      6573742E 
 5015      6D5F6465 
 5015      7461696C 
 5016              		.section	.rodata.str1.1
 5017              	.LC28:
 5018 00a1 476C6F62 		.string	"Global time constraint failed"
 5018      616C2074 
 5018      696D6520 
 5018      636F6E73 
 5018      74726169 
 5019              		.section	.rodata.str1.8
 5020 02b9 00000000 		.align 8
 5020      000000
 5021              	.LC29:
 5022 02c0 73747273 		.string	"strstr(reporter.lastFailedMessage, \"Global time constraint failed\")"
 5022      74722872 
 5022      65706F72 
 5022      7465722E 
 5022      6C617374 
 5023              		.section	.rodata.str1.1
 5024              	.LC30:
 5025 00bf 336D7300 		.string	"3ms"
 5026              		.section	.rodata.str1.8
 5027 0304 00000000 		.align 8
 5028              	.LC31:
 5029 0308 73747273 		.string	"strstr(reporter.lastFailedMessage, \"3ms\")"
 5029      74722872 
 5029      65706F72 
 5029      7465722E 
 5029      6C617374 
 5030 0332 00000000 		.align 8
 5030      0000
 5031              	.LC32:
 5032 0338 556E6861 		.string	"Unhandled exception in CHECK_EQUAL(test.m_details.testName, reporter.lastFailedTest)"
 5032      6E646C65 
 5032      64206578 
 5032      63657074 
 5032      696F6E20 
 5033 038d 000000   		.align 8
 5034              	.LC33:
 5035 0390 556E6861 		.string	"Unhandled exception in CHECK(strstr(test.m_details.filename, reporter.lastFailedFile))"
 5035      6E646C65 
 5035      64206578 
 5035      63657074 
 5035      696F6E20 
 5036 03e7 00       		.align 8
 5037              	.LC34:
 5038 03e8 556E6861 		.string	"Unhandled exception in CHECK_EQUAL(test.m_details.lineNumber, reporter.lastFailedLine)"
 5038      6E646C65 
 5038      64206578 
 5038      63657074 
 5038      696F6E20 
 5039 043f 00       		.align 8
 5040              	.LC35:
 5041 0440 556E6861 		.string	"Unhandled exception in CHECK(strstr(reporter.lastFailedMessage, \"Global time constraint 
 5041      6E646C65 
 5041      64206578 
 5041      63657074 
 5041      696F6E20 
 5042 04a2 00000000 		.align 8
 5042      0000
 5043              	.LC36:
 5044 04a8 556E6861 		.string	"Unhandled exception in CHECK(strstr(reporter.lastFailedMessage, \"3ms\"))"
 5044      6E646C65 
 5044      64206578 
 5044      63657074 
 5044      696F6E20 
 5045              		.text
 5046 1c53 0F1F0066 		.p2align 4,,15
 5046      2E0F1F84 
 5046      00000000 
 5046      00
 5048              	_ZN8UnitTest11ExecuteTestIN12_GLOBAL__N_159TestRunnerFixtureSlowTestHasCorrectFailureInformationHel
 5049              	.LFB1420:
 5050              		.cfi_startproc
 5051              		.cfi_personality 0x9b,DW.ref.__gxx_personality_v0
 5052              		.cfi_lsda 0x1b,.LLSDA1420
 5053 1c60 4155     		pushq	%r13
 5054              		.cfi_def_cfa_offset 16
 5055              		.cfi_offset 13, -16
 5056 1c62 4154     		pushq	%r12
 5057              		.cfi_def_cfa_offset 24
 5058              		.cfi_offset 12, -24
 5059 1c64 55       		pushq	%rbp
 5060              		.cfi_def_cfa_offset 32
 5061              		.cfi_offset 6, -32
 5062 1c65 53       		pushq	%rbx
 5063              		.cfi_def_cfa_offset 40
 5064              		.cfi_offset 3, -40
 5065 1c66 4889F3   		movq	%rsi, %rbx
 5066 1c69 4881ECC8 		subq	$1992, %rsp
 5066      070000
 5067              		.cfi_def_cfa_offset 2032
 5068 1c70 48893C24 		movq	%rdi, (%rsp)
 5069 1c74 48897424 		movq	%rsi, 8(%rsp)
 5069      08
 5070 1c79 64488B04 		movq	%fs:40, %rax
 5070      25280000 
 5070      00
 5071 1c82 48898424 		movq	%rax, 1976(%rsp)
 5071      B8070000 
 5072 1c8a 31C0     		xorl	%eax, %eax
 5073              	.LEHB160:
 5074 1c8c E8000000 		call	_ZN8UnitTest11CurrentTest7DetailsEv@PLT
 5074      00
 5075              	.LEHE160:
 5076 1c91 488DBC24 		leaq	848(%rsp), %rdi
 5076      50030000 
 5077 1c99 488918   		movq	%rbx, (%rax)
 5078              	.LEHB161:
 5079 1c9c E8000000 		call	_ZN8UnitTest16SignalTranslatorC1Ev@PLT
 5079      00
 5080              	.LEHE161:
 5081 1ca1 488B3D00 		movq	_ZN8UnitTest16SignalTranslator12s_jumpTargetE(%rip), %rdi
 5081      000000
 5082 1ca8 BE010000 		movl	$1, %esi
 5082      00
 5083 1cad E8000000 		call	__sigsetjmp@PLT
 5083      00
 5084 1cb2 85C0     		testl	%eax, %eax
 5085 1cb4 742A     		je	.L448
 5086 1cb6 BF080000 		movl	$8, %edi
 5086      00
 5087 1cbb E8000000 		call	__cxa_allocate_exception@PLT
 5087      00
 5088 1cc0 488D0D00 		leaq	.LC3(%rip), %rcx
 5088      000000
 5089 1cc7 488D3500 		leaq	_ZTIPKc(%rip), %rsi
 5089      000000
 5090 1cce 31D2     		xorl	%edx, %edx
 5091 1cd0 4889C7   		movq	%rax, %rdi
 5092 1cd3 488908   		movq	%rcx, (%rax)
 5093              	.LEHB162:
 5094 1cd6 E8000000 		call	__cxa_throw@PLT
 5094      00
 5095 1cdb 0F1F4400 		.p2align 4,,10
 5095      00
 5096              		.p2align 3
 5097              	.L448:
 5098 1ce0 488DBC24 		leaq	368(%rsp), %rdi
 5098      70010000 
 5099 1ce8 488D0D00 		leaq	.LC4(%rip), %rcx
 5099      000000
 5100 1cef 488D1500 		leaq	.LC5(%rip), %rdx
 5100      000000
 5101 1cf6 488D3500 		leaq	.LC6(%rip), %rsi
 5101      000000
 5102 1cfd 41B87B00 		movl	$123, %r8d
 5102      0000
 5103 1d03 E8000000 		call	_ZN8UnitTest4TestC2EPKcS2_S2_i@PLT
 5103      00
 5104              	.LEHE162:
 5105 1d08 488B2C24 		movq	(%rsp), %rbp
 5106 1d0c 488D0500 		leaq	16+_ZTVN12_GLOBAL__N_18SlowTestE(%rip), %rax
 5106      000000
 5107 1d13 488DB424 		leaq	368(%rsp), %rsi
 5107      70010000 
 5108 1d1b 48898424 		movq	%rax, 368(%rsp)
 5108      70010000 
 5109 1d23 488D9D48 		leaq	2120(%rbp), %rbx
 5109      080000
 5110 1d2a 4889DF   		movq	%rbx, %rdi
 5111              	.LEHB163:
 5112 1d2d E8000000 		call	_ZN8UnitTest8TestList3AddEPNS_4TestE@PLT
 5112      00
 5113 1d32 E8000000 		call	_ZN8UnitTest11CurrentTest7ResultsEv@PLT
 5113      00
 5114 1d37 4C8B28   		movq	(%rax), %r13
 5115 1d3a E8000000 		call	_ZN8UnitTest11CurrentTest7DetailsEv@PLT
 5115      00
 5116 1d3f 4889DF   		movq	%rbx, %rdi
 5117 1d42 4C8B20   		movq	(%rax), %r12
 5118 1d45 E8000000 		call	_ZNK8UnitTest8TestList7GetHeadEv@PLT
 5118      00
 5119 1d4a 4885C0   		testq	%rax, %rax
 5120 1d4d 4889C3   		movq	%rax, %rbx
 5121 1d50 0F857F01 		jne	.L451
 5121      0000
 5122 1d56 662E0F1F 		.p2align 4,,10
 5122      84000000 
 5122      0000
 5123              		.p2align 3
 5124              	.L449:
 5125 1d60 488B1C24 		movq	(%rsp), %rbx
 5126 1d64 4889DF   		movq	%rbx, %rdi
 5127 1d67 E8000000 		call	_ZNK8UnitTest10TestRunner6FinishEv@PLT
 5127      00
 5128 1d6c E8000000 		call	_ZN8UnitTest11CurrentTest7ResultsEv@PLT
 5128      00
 5129 1d71 4C8928   		movq	%r13, (%rax)
 5130 1d74 E8000000 		call	_ZN8UnitTest11CurrentTest7DetailsEv@PLT
 5130      00
 5131              	.LEHE163:
 5132 1d79 4C8920   		movq	%r12, (%rax)
 5133              	.LEHB164:
 5134 1d7c E8000000 		call	_ZN8UnitTest11CurrentTest7DetailsEv@PLT
 5134      00
 5135 1d81 488B30   		movq	(%rax), %rsi
 5136 1d84 488DBC24 		leaq	336(%rsp), %rdi
 5136      50010000 
 5137 1d8c BAC50000 		movl	$197, %edx
 5137      00
 5138 1d91 E8000000 		call	_ZN8UnitTest11TestDetailsC1ERKS0_i@PLT
 5138      00
 5139 1d96 488DAB2C 		leaq	1068(%rbx), %rbp
 5139      040000
 5140 1d9d 488B9C24 		movq	384(%rsp), %rbx
 5140      80010000 
 5141 1da5 E8000000 		call	_ZN8UnitTest11CurrentTest7ResultsEv@PLT
 5141      00
 5142 1daa 488B38   		movq	(%rax), %rdi
 5143 1dad 488D8C24 		leaq	336(%rsp), %rcx
 5143      50010000 
 5144 1db5 4889EA   		movq	%rbp, %rdx
 5145 1db8 4889DE   		movq	%rbx, %rsi
 5146 1dbb E8000000 		call	_ZN8UnitTest10CheckEqualERNS_11TestResultsEPKcPcRKNS_11TestDetailsE@PLT
 5146      00
 5147              	.LEHE164:
 5148              	.L461:
 5149 1dc0 488B0424 		movq	(%rsp), %rax
 5150 1dc4 488BBC24 		movq	392(%rsp), %rdi
 5150      88010000 
 5151 1dcc 488DB028 		leaq	552(%rax), %rsi
 5151      020000
 5152 1dd3 E8000000 		call	strstr@PLT
 5152      00
 5153 1dd8 4885C0   		testq	%rax, %rax
 5154 1ddb 0F844F01 		je	.L509
 5154      0000
 5155              	.L454:
 5156              	.LEHB165:
 5157 1de1 E8000000 		call	_ZN8UnitTest11CurrentTest7DetailsEv@PLT
 5157      00
 5158 1de6 488B30   		movq	(%rax), %rsi
 5159 1de9 488DBC24 		leaq	208(%rsp), %rdi
 5159      D0000000 
 5160 1df1 BAC70000 		movl	$199, %edx
 5160      00
 5161 1df6 E8000000 		call	_ZN8UnitTest11TestDetailsC1ERKS0_i@PLT
 5161      00
 5162 1dfb 488B0424 		movq	(%rsp), %rax
 5163 1dff 488D9828 		leaq	808(%rax), %rbx
 5163      030000
 5164 1e06 E8000000 		call	_ZN8UnitTest11CurrentTest7ResultsEv@PLT
 5164      00
 5165 1e0b 488B38   		movq	(%rax), %rdi
 5166 1e0e 488D8C24 		leaq	208(%rsp), %rcx
 5166      D0000000 
 5167 1e16 488DB424 		leaq	400(%rsp), %rsi
 5167      90010000 
 5168 1e1e 4889DA   		movq	%rbx, %rdx
 5169 1e21 E8000000 		call	_ZN8UnitTest10CheckEqualIiiEEvRNS_11TestResultsERKT_RKT0_RKNS_11TestDetailsE
 5169      00
 5170              	.LEHE165:
 5171              	.L468:
 5172 1e26 488B1C24 		movq	(%rsp), %rbx
 5173 1e2a 488D3500 		leaq	.LC28(%rip), %rsi
 5173      000000
 5174 1e31 4881C32C 		addq	$1324, %rbx
 5174      050000
 5175 1e38 4889DF   		movq	%rbx, %rdi
 5176 1e3b E8000000 		call	strstr@PLT
 5176      00
 5177 1e40 4885C0   		testq	%rax, %rax
 5178 1e43 0F842701 		je	.L510
 5178      0000
 5179              	.L456:
 5180 1e49 488D3500 		leaq	.LC30(%rip), %rsi
 5180      000000
 5181 1e50 4889DF   		movq	%rbx, %rdi
 5182 1e53 E8000000 		call	strstr@PLT
 5182      00
 5183 1e58 4885C0   		testq	%rax, %rax
 5184 1e5b 0F848F00 		je	.L511
 5184      0000
 5185              	.L458:
 5186 1e61 488D0500 		leaq	16+_ZTVN12_GLOBAL__N_18SlowTestE(%rip), %rax
 5186      000000
 5187 1e68 488DBC24 		leaq	368(%rsp), %rdi
 5187      70010000 
 5188 1e70 48898424 		movq	%rax, 368(%rsp)
 5188      70010000 
 5189              	.LEHB166:
 5190 1e78 E8000000 		call	_ZN8UnitTest4TestD2Ev@PLT
 5190      00
 5191              	.LEHE166:
 5192 1e7d 488DBC24 		leaq	848(%rsp), %rdi
 5192      50030000 
 5193              	.LEHB167:
 5194 1e85 E8000000 		call	_ZN8UnitTest16SignalTranslatorD1Ev@PLT
 5194      00
 5195              	.LEHE167:
 5196              	.L446:
 5197 1e8a 488B8424 		movq	1976(%rsp), %rax
 5197      B8070000 
 5198 1e92 64483304 		xorq	%fs:40, %rax
 5198      25280000 
 5198      00
 5199 1e9b 0F85BD01 		jne	.L512
 5199      0000
 5200 1ea1 4881C4C8 		addq	$1992, %rsp
 5200      070000
 5201              		.cfi_remember_state
 5202              		.cfi_def_cfa_offset 40
 5203 1ea8 5B       		popq	%rbx
 5204              		.cfi_def_cfa_offset 32
 5205 1ea9 5D       		popq	%rbp
 5206              		.cfi_def_cfa_offset 24
 5207 1eaa 415C     		popq	%r12
 5208              		.cfi_def_cfa_offset 16
 5209 1eac 415D     		popq	%r13
 5210              		.cfi_def_cfa_offset 8
 5211 1eae C3       		ret
 5212 1eaf 90       		.p2align 4,,10
 5213              		.p2align 3
 5214              	.L450:
 5215              		.cfi_restore_state
 5216 1eb0 488B0424 		movq	(%rsp), %rax
 5217 1eb4 B9030000 		movl	$3, %ecx
 5217      00
 5218 1eb9 4889DA   		movq	%rbx, %rdx
 5219 1ebc 4889EF   		movq	%rbp, %rdi
 5220 1ebf 488B7008 		movq	8(%rax), %rsi
 5221              	.LEHB168:
 5222 1ec3 E8000000 		call	_ZNK8UnitTest10TestRunner7RunTestEPNS_11TestResultsEPNS_4TestEi@PLT
 5222      00
 5223              	.L452:
 5224 1ec8 488B5B28 		movq	40(%rbx), %rbx
 5225 1ecc 4885DB   		testq	%rbx, %rbx
 5226 1ecf 0F848BFE 		je	.L449
 5226      FFFF
 5227              	.L451:
 5228 1ed5 31D2     		xorl	%edx, %edx
 5229 1ed7 4889DE   		movq	%rbx, %rsi
 5230 1eda 4889EF   		movq	%rbp, %rdi
 5231 1edd E8000000 		call	_ZNK8UnitTest10TestRunner13IsTestInSuiteEPKNS_4TestEPKc@PLT
 5231      00
 5232              	.LEHE168:
 5233 1ee2 84C0     		testb	%al, %al
 5234 1ee4 74E2     		je	.L452
 5235 1ee6 EBC8     		jmp	.L450
 5236 1ee8 0F1F8400 		.p2align 4,,10
 5236      00000000 
 5237              		.p2align 3
 5238              	.L511:
 5239              	.LEHB169:
 5240 1ef0 E8000000 		call	_ZN8UnitTest11CurrentTest7ResultsEv@PLT
 5240      00
 5241 1ef5 488B18   		movq	(%rax), %rbx
 5242 1ef8 E8000000 		call	_ZN8UnitTest11CurrentTest7DetailsEv@PLT
 5242      00
 5243 1efd 488B30   		movq	(%rax), %rsi
 5244 1f00 488D7C24 		leaq	80(%rsp), %rdi
 5244      50
 5245 1f05 BACA0000 		movl	$202, %edx
 5245      00
 5246 1f0a E8000000 		call	_ZN8UnitTest11TestDetailsC1ERKS0_i@PLT
 5246      00
 5247 1f0f 488D7424 		leaq	80(%rsp), %rsi
 5247      50
 5248 1f14 488D1500 		leaq	.LC31(%rip), %rdx
 5248      000000
 5249 1f1b 4889DF   		movq	%rbx, %rdi
 5250 1f1e E8000000 		call	_ZN8UnitTest11TestResults13OnTestFailureERKNS_11TestDetailsEPKc@PLT
 5250      00
 5251              	.LEHE169:
 5252 1f23 E939FFFF 		jmp	.L458
 5252      FF
 5253 1f28 0F1F8400 		.p2align 4,,10
 5253      00000000 
 5254              		.p2align 3
 5255              	.L509:
 5256              	.LEHB170:
 5257 1f30 E8000000 		call	_ZN8UnitTest11CurrentTest7ResultsEv@PLT
 5257      00
 5258 1f35 488B18   		movq	(%rax), %rbx
 5259 1f38 E8000000 		call	_ZN8UnitTest11CurrentTest7DetailsEv@PLT
 5259      00
 5260 1f3d 488B30   		movq	(%rax), %rsi
 5261 1f40 488DBC24 		leaq	272(%rsp), %rdi
 5261      10010000 
 5262 1f48 BAC60000 		movl	$198, %edx
 5262      00
 5263 1f4d E8000000 		call	_ZN8UnitTest11TestDetailsC1ERKS0_i@PLT
 5263      00
 5264 1f52 488DB424 		leaq	272(%rsp), %rsi
 5264      10010000 
 5265 1f5a 488D1500 		leaq	.LC27(%rip), %rdx
 5265      000000
 5266 1f61 4889DF   		movq	%rbx, %rdi
 5267 1f64 E8000000 		call	_ZN8UnitTest11TestResults13OnTestFailureERKNS_11TestDetailsEPKc@PLT
 5267      00
 5268              	.LEHE170:
 5269 1f69 E973FEFF 		jmp	.L454
 5269      FF
 5270 1f6e 6690     		.p2align 4,,10
 5271              		.p2align 3
 5272              	.L510:
 5273              	.LEHB171:
 5274 1f70 E8000000 		call	_ZN8UnitTest11CurrentTest7ResultsEv@PLT
 5274      00
 5275 1f75 488B28   		movq	(%rax), %rbp
 5276 1f78 E8000000 		call	_ZN8UnitTest11CurrentTest7DetailsEv@PLT
 5276      00
 5277 1f7d 488B30   		movq	(%rax), %rsi
 5278 1f80 488DBC24 		leaq	144(%rsp), %rdi
 5278      90000000 
 5279 1f88 BAC90000 		movl	$201, %edx
 5279      00
 5280 1f8d E8000000 		call	_ZN8UnitTest11TestDetailsC1ERKS0_i@PLT
 5280      00
 5281 1f92 488DB424 		leaq	144(%rsp), %rsi
 5281      90000000 
 5282 1f9a 488D1500 		leaq	.LC29(%rip), %rdx
 5282      000000
 5283 1fa1 4889EF   		movq	%rbp, %rdi
 5284 1fa4 E8000000 		call	_ZN8UnitTest11TestResults13OnTestFailureERKNS_11TestDetailsEPKc@PLT
 5284      00
 5285              	.LEHE171:
 5286 1fa9 E99BFEFF 		jmp	.L456
 5286      FF
 5287              	.L489:
 5288 1fae 4889C3   		movq	%rax, %rbx
 5289 1fb1 4889D5   		movq	%rdx, %rbp
 5290              	.L476:
 5291 1fb4 488DBC24 		leaq	848(%rsp), %rdi
 5291      50030000 
 5292 1fbc E8000000 		call	_ZN8UnitTest16SignalTranslatorD1Ev@PLT
 5292      00
 5293 1fc1 4889DF   		movq	%rbx, %rdi
 5294 1fc4 4889EA   		movq	%rbp, %rdx
 5295              	.L477:
 5296 1fc7 4883FA01 		cmpq	$1, %rdx
 5297 1fcb 0F84AB02 		je	.L479
 5297      0000
 5298 1fd1 4883FA02 		cmpq	$2, %rdx
 5299 1fd5 0F857902 		jne	.L513
 5299      0000
 5300 1fdb E8000000 		call	__cxa_begin_catch@PLT
 5300      00
 5301 1fe0 488DBC24 		leaq	432(%rsp), %rdi
 5301      B0010000 
 5302 1fe8 4889C3   		movq	%rax, %rbx
 5303              	.LEHB172:
 5304 1feb E8000000 		call	_ZN8UnitTest15MemoryOutStreamC1Ev
 5304      00
 5305              	.LEHE172:
 5306 1ff0 488DBC24 		leaq	432(%rsp), %rdi
 5306      B0010000 
 5307 1ff8 488D3500 		leaq	.LC11(%rip), %rsi
 5307      000000
 5308 1fff BA150000 		movl	$21, %edx
 5308      00
 5309              	.LEHB173:
 5310 2004 E8000000 		call	_ZSt16__ostream_insertIcSt11char_traitsIcEERSt13basic_ostreamIT_T0_ES6_PKS3_l@PLT
 5310      00
 5311 2009 488B03   		movq	(%rbx), %rax
 5312 200c 4889DF   		movq	%rbx, %rdi
 5313 200f FF5010   		call	*16(%rax)
 5314 2012 488DBC24 		leaq	432(%rsp), %rdi
 5314      B0010000 
 5315 201a 4889C6   		movq	%rax, %rsi
 5316 201d E8000000 		call	_ZStlsISt11char_traitsIcEERSt13basic_ostreamIcT_ES5_PKc@PLT
 5316      00
 5317 2022 E8000000 		call	_ZN8UnitTest11CurrentTest7ResultsEv@PLT
 5317      00
 5318 2027 488DBC24 		leaq	432(%rsp), %rdi
 5318      B0010000 
 5319 202f 488B18   		movq	(%rax), %rbx
 5320 2032 E8000000 		call	_ZNK8UnitTest15MemoryOutStream7GetTextEv@PLT
 5320      00
 5321 2037 488B7424 		movq	8(%rsp), %rsi
 5321      08
 5322 203c 4889C2   		movq	%rax, %rdx
 5323 203f 4889DF   		movq	%rbx, %rdi
 5324 2042 E8000000 		call	_ZN8UnitTest11TestResults13OnTestFailureERKNS_11TestDetailsEPKc@PLT
 5324      00
 5325              	.LEHE173:
 5326 2047 488DBC24 		leaq	432(%rsp), %rdi
 5326      B0010000 
 5327              	.LEHB174:
 5328 204f E8000000 		call	_ZN8UnitTest15MemoryOutStreamD1Ev
 5328      00
 5329              	.LEHE174:
 5330              	.L507:
 5331 2054 E8000000 		call	__cxa_end_catch@PLT
 5331      00
 5332 2059 E92CFEFF 		jmp	.L446
 5332      FF
 5333              	.L512:
 5334 205e E8000000 		call	__stack_chk_fail@PLT
 5334      00
 5335              	.L498:
 5336 2063 4889C7   		movq	%rax, %rdi
 5337 2066 E8000000 		call	__cxa_begin_catch@PLT
 5337      00
 5338              	.LEHB175:
 5339 206b E8000000 		call	_ZN8UnitTest11CurrentTest7ResultsEv@PLT
 5339      00
 5340 2070 488B28   		movq	(%rax), %rbp
 5341 2073 E8000000 		call	_ZN8UnitTest11CurrentTest7DetailsEv@PLT
 5341      00
 5342 2078 488B30   		movq	(%rax), %rsi
 5343 207b 488D7C24 		leaq	112(%rsp), %rdi
 5343      70
 5344 2080 BAC90000 		movl	$201, %edx
 5344      00
 5345 2085 E8000000 		call	_ZN8UnitTest11TestDetailsC1ERKS0_i@PLT
 5345      00
 5346 208a 488D7424 		leaq	112(%rsp), %rsi
 5346      70
 5347 208f 488D1500 		leaq	.LC35(%rip), %rdx
 5347      000000
 5348 2096 4889EF   		movq	%rbp, %rdi
 5349 2099 E8000000 		call	_ZN8UnitTest11TestResults13OnTestFailureERKNS_11TestDetailsEPKc@PLT
 5349      00
 5350              	.LEHE175:
 5351              	.LEHB176:
 5352 209e E8000000 		call	__cxa_end_catch@PLT
 5352      00
 5353              	.LEHE176:
 5354 20a3 E9A1FDFF 		jmp	.L456
 5354      FF
 5355              	.L502:
 5356 20a8 4889C7   		movq	%rax, %rdi
 5357 20ab E8000000 		call	__cxa_begin_catch@PLT
 5357      00
 5358              	.LEHB177:
 5359 20b0 E8000000 		call	_ZN8UnitTest11CurrentTest7ResultsEv@PLT
 5359      00
 5360 20b5 488B18   		movq	(%rax), %rbx
 5361 20b8 E8000000 		call	_ZN8UnitTest11CurrentTest7DetailsEv@PLT
 5361      00
 5362 20bd 488B30   		movq	(%rax), %rsi
 5363 20c0 488DBC24 		leaq	240(%rsp), %rdi
 5363      F0000000 
 5364 20c8 BAC60000 		movl	$198, %edx
 5364      00
 5365 20cd E8000000 		call	_ZN8UnitTest11TestDetailsC1ERKS0_i@PLT
 5365      00
 5366 20d2 488DB424 		leaq	240(%rsp), %rsi
 5366      F0000000 
 5367 20da 488D1500 		leaq	.LC33(%rip), %rdx
 5367      000000
 5368 20e1 4889DF   		movq	%rbx, %rdi
 5369 20e4 E8000000 		call	_ZN8UnitTest11TestResults13OnTestFailureERKNS_11TestDetailsEPKc@PLT
 5369      00
 5370              	.LEHE177:
 5371              	.LEHB178:
 5372 20e9 E8000000 		call	__cxa_end_catch@PLT
 5372      00
 5373              	.LEHE178:
 5374 20ee E9EEFCFF 		jmp	.L454
 5374      FF
 5375              	.L496:
 5376 20f3 4889C7   		movq	%rax, %rdi
 5377 20f6 E8000000 		call	__cxa_begin_catch@PLT
 5377      00
 5378              	.LEHB179:
 5379 20fb E8000000 		call	_ZN8UnitTest11CurrentTest7ResultsEv@PLT
 5379      00
 5380 2100 488B18   		movq	(%rax), %rbx
 5381 2103 E8000000 		call	_ZN8UnitTest11CurrentTest7DetailsEv@PLT
 5381      00
 5382 2108 488B30   		movq	(%rax), %rsi
 5383 210b 488D7C24 		leaq	48(%rsp), %rdi
 5383      30
 5384 2110 BACA0000 		movl	$202, %edx
 5384      00
 5385 2115 E8000000 		call	_ZN8UnitTest11TestDetailsC1ERKS0_i@PLT
 5385      00
 5386 211a 488D7424 		leaq	48(%rsp), %rsi
 5386      30
 5387 211f 488D1500 		leaq	.LC36(%rip), %rdx
 5387      000000
 5388 2126 4889DF   		movq	%rbx, %rdi
 5389 2129 E8000000 		call	_ZN8UnitTest11TestResults13OnTestFailureERKNS_11TestDetailsEPKc@PLT
 5389      00
 5390              	.LEHE179:
 5391              	.LEHB180:
 5392 212e E8000000 		call	__cxa_end_catch@PLT
 5392      00
 5393              	.LEHE180:
 5394 2133 E929FDFF 		jmp	.L458
 5394      FF
 5395              	.L497:
 5396 2138 4889C3   		movq	%rax, %rbx
 5397 213b 4889D5   		movq	%rdx, %rbp
 5398 213e E8000000 		call	__cxa_end_catch@PLT
 5398      00
 5399              	.L463:
 5400 2143 488D0500 		leaq	16+_ZTVN12_GLOBAL__N_18SlowTestE(%rip), %rax
 5400      000000
 5401 214a 488DBC24 		leaq	368(%rsp), %rdi
 5401      70010000 
 5402 2152 48898424 		movq	%rax, 368(%rsp)
 5402      70010000 
 5403 215a E8000000 		call	_ZN8UnitTest4TestD2Ev@PLT
 5403      00
 5404 215f E950FEFF 		jmp	.L476
 5404      FF
 5405              	.L501:
 5406 2164 4889C3   		movq	%rax, %rbx
 5407 2167 4889D5   		movq	%rdx, %rbp
 5408 216a E8000000 		call	__cxa_end_catch@PLT
 5408      00
 5409 216f EBD2     		jmp	.L463
 5410              	.L495:
 5411 2171 4889C3   		movq	%rax, %rbx
 5412 2174 4889D5   		movq	%rdx, %rbp
 5413 2177 E8000000 		call	__cxa_end_catch@PLT
 5413      00
 5414 217c EBC5     		jmp	.L463
 5415              	.L500:
 5416 217e 4889C7   		movq	%rax, %rdi
 5417 2181 E8000000 		call	__cxa_begin_catch@PLT
 5417      00
 5418              	.LEHB181:
 5419 2186 E8000000 		call	_ZN8UnitTest11CurrentTest7ResultsEv@PLT
 5419      00
 5420 218b 488B18   		movq	(%rax), %rbx
 5421 218e E8000000 		call	_ZN8UnitTest11CurrentTest7DetailsEv@PLT
 5421      00
 5422 2193 488B30   		movq	(%rax), %rsi
 5423 2196 488DBC24 		leaq	176(%rsp), %rdi
 5423      B0000000 
 5424 219e BAC70000 		movl	$199, %edx
 5424      00
 5425 21a3 E8000000 		call	_ZN8UnitTest11TestDetailsC1ERKS0_i@PLT
 5425      00
 5426 21a8 488DB424 		leaq	176(%rsp), %rsi
 5426      B0000000 
 5427 21b0 488D1500 		leaq	.LC34(%rip), %rdx
 5427      000000
 5428 21b7 4889DF   		movq	%rbx, %rdi
 5429 21ba E8000000 		call	_ZN8UnitTest11TestResults13OnTestFailureERKNS_11TestDetailsEPKc@PLT
 5429      00
 5430              	.LEHE181:
 5431              	.LEHB182:
 5432 21bf E8000000 		call	__cxa_end_catch@PLT
 5432      00
 5433              	.LEHE182:
 5434 21c4 E95DFCFF 		jmp	.L468
 5434      FF
 5435              	.L488:
 5436 21c9 4889C7   		movq	%rax, %rdi
 5437 21cc E9F6FDFF 		jmp	.L477
 5437      FF
 5438              	.L499:
 5439 21d1 4889C3   		movq	%rax, %rbx
 5440 21d4 4889D5   		movq	%rdx, %rbp
 5441 21d7 E8000000 		call	__cxa_end_catch@PLT
 5441      00
 5442 21dc E962FFFF 		jmp	.L463
 5442      FF
 5443              	.L494:
 5444 21e1 4889C3   		movq	%rax, %rbx
 5445 21e4 4889D5   		movq	%rdx, %rbp
 5446 21e7 E957FFFF 		jmp	.L463
 5446      FF
 5447              	.L504:
 5448 21ec 4889C7   		movq	%rax, %rdi
 5449 21ef E8000000 		call	__cxa_begin_catch@PLT
 5449      00
 5450              	.LEHB183:
 5451 21f4 E8000000 		call	_ZN8UnitTest11CurrentTest7ResultsEv@PLT
 5451      00
 5452 21f9 488B18   		movq	(%rax), %rbx
