   1              		.file	"TestTestRunner.cpp"
   2              		.section	.text._ZN17RecordingReporter13ReportSummaryEiiif,"axG",@progbits,_ZN17RecordingReporter13
   3              		.align 2
   4              		.p2align 4,,15
   5              		.weak	_ZN17RecordingReporter13ReportSummaryEiiif
   7              	_ZN17RecordingReporter13ReportSummaryEiiif:
   8              	.LFB1151:
   9              		.cfi_startproc
  10 0000 89B71C08 		movl	%esi, 2076(%rdi)
  10      0000
  11 0006 89972008 		movl	%edx, 2080(%rdi)
  11      0000
  12 000c F30F1187 		movss	%xmm0, 2088(%rdi)
  12      28080000 
  13 0014 898F2408 		movl	%ecx, 2084(%rdi)
  13      0000
  14 001a C3       		ret
  15              		.cfi_endproc
  16              	.LFE1151:
  18              		.text
  19              		.align 2
  20              		.p2align 4,,15
  22              	_ZN12_GLOBAL__N_180TestTestRunnerFixtureTestRunnerOnlyRunsTestsInSpecifiedSuiteAndThatPassPredicate
  23              	.LFB1483:
  24              		.cfi_startproc
  25 0000 488D0500 		leaq	16+_ZTVN12_GLOBAL__N_180TestTestRunnerFixtureTestRunnerOnlyRunsTestsInSpecifiedSuiteAndThatPa
  25      000000
  26 0007 488907   		movq	%rax, (%rdi)
  27 000a E9000000 		jmp	_ZN8UnitTest4TestD2Ev@PLT
  27      00
  28              		.cfi_endproc
  29              	.LFE1483:
  31              		.set	_ZN12_GLOBAL__N_180TestTestRunnerFixtureTestRunnerOnlyRunsTestsInSpecifiedSuiteAndThatPassPre
  32 000f 90       		.align 2
  33              		.p2align 4,,15
  35              	_ZN12_GLOBAL__N_157TestTestRunnerFixtureTestRunnerRunsTestsThatPassPredicateD2Ev:
  36              	.LFB1487:
  37              		.cfi_startproc
  38 0010 488D0500 		leaq	16+_ZTVN12_GLOBAL__N_157TestTestRunnerFixtureTestRunnerRunsTestsThatPassPredicateE(%rip), %ra
  38      000000
  39 0017 488907   		movq	%rax, (%rdi)
  40 001a E9000000 		jmp	_ZN8UnitTest4TestD2Ev@PLT
  40      00
  41              		.cfi_endproc
  42              	.LFE1487:
  44              		.set	_ZN12_GLOBAL__N_157TestTestRunnerFixtureTestRunnerRunsTestsThatPassPredicateD1Ev,_ZN12_GLOBAL
  45 001f 90       		.align 2
  46              		.p2align 4,,15
  48              	_ZN12_GLOBAL__N_137TestTestMockPredicateBehavesCorrectlyD2Ev:
  49              	.LFB1491:
  50              		.cfi_startproc
  51 0020 488D0500 		leaq	16+_ZTVN12_GLOBAL__N_137TestTestMockPredicateBehavesCorrectlyE(%rip), %rax
  51      000000
  52 0027 488907   		movq	%rax, (%rdi)
  53 002a E9000000 		jmp	_ZN8UnitTest4TestD2Ev@PLT
  53      00
  54              		.cfi_endproc
  55              	.LFE1491:
  57              		.set	_ZN12_GLOBAL__N_137TestTestMockPredicateBehavesCorrectlyD1Ev,_ZN12_GLOBAL__N_137TestTestMockP
  58 002f 90       		.align 2
  59              		.p2align 4,,15
  61              	_ZN12_GLOBAL__N_152TestTestSuiteFixtureTestRunnerRunsOnlySpecifiedSuiteD2Ev:
  62              	.LFB1495:
  63              		.cfi_startproc
  64 0030 488D0500 		leaq	16+_ZTVN12_GLOBAL__N_152TestTestSuiteFixtureTestRunnerRunsOnlySpecifiedSuiteE(%rip), %rax
  64      000000
  65 0037 488907   		movq	%rax, (%rdi)
  66 003a E9000000 		jmp	_ZN8UnitTest4TestD2Ev@PLT
  66      00
  67              		.cfi_endproc
  68              	.LFE1495:
  70              		.set	_ZN12_GLOBAL__N_152TestTestSuiteFixtureTestRunnerRunsOnlySpecifiedSuiteD1Ev,_ZN12_GLOBAL__N_1
  71 003f 90       		.align 2
  72              		.p2align 4,,15
  74              	_ZN12_GLOBAL__N_162TestTestSuiteFixtureTestRunnerRunsAllSuitesIfNullSuiteIsPassedD2Ev:
  75              	.LFB1499:
  76              		.cfi_startproc
  77 0040 488D0500 		leaq	16+_ZTVN12_GLOBAL__N_162TestTestSuiteFixtureTestRunnerRunsAllSuitesIfNullSuiteIsPassedE(%rip)
  77      000000
  78 0047 488907   		movq	%rax, (%rdi)
  79 004a E9000000 		jmp	_ZN8UnitTest4TestD2Ev@PLT
  79      00
  80              		.cfi_endproc
  81              	.LFE1499:
  83              		.set	_ZN12_GLOBAL__N_162TestTestSuiteFixtureTestRunnerRunsAllSuitesIfNullSuiteIsPassedD1Ev,_ZN12_G
  84 004f 90       		.align 2
  85              		.p2align 4,,15
  87              	_ZN12_GLOBAL__N_152TestTestRunnerFixtureSlowTestWithTimeExemptionPassesD2Ev:
  88              	.LFB1507:
  89              		.cfi_startproc
  90 0050 488D0500 		leaq	16+_ZTVN12_GLOBAL__N_152TestTestRunnerFixtureSlowTestWithTimeExemptionPassesE(%rip), %rax
  90      000000
  91 0057 488907   		movq	%rax, (%rdi)
  92 005a E9000000 		jmp	_ZN8UnitTest4TestD2Ev@PLT
  92      00
  93              		.cfi_endproc
  94              	.LFE1507:
  96              		.set	_ZN12_GLOBAL__N_152TestTestRunnerFixtureSlowTestWithTimeExemptionPassesD1Ev,_ZN12_GLOBAL__N_1
  97 005f 90       		.align 2
  98              		.p2align 4,,15
 100              	_ZZN12_GLOBAL__N_154TestRunnerFixtureSlowTestWithTimeExemptionPassesHelper7RunImplEvEN16SlowExempte
 101              	.LFB1503:
 102              		.cfi_startproc
 103 0060 488D0500 		leaq	16+_ZTVZN12_GLOBAL__N_154TestRunnerFixtureSlowTestWithTimeExemptionPassesHelper7RunImplEvE16S
 103      000000
 104 0067 488907   		movq	%rax, (%rdi)
 105 006a E9000000 		jmp	_ZN8UnitTest4TestD2Ev@PLT
 105      00
 106              		.cfi_endproc
 107              	.LFE1503:
 109              		.set	_ZZN12_GLOBAL__N_154TestRunnerFixtureSlowTestWithTimeExemptionPassesHelper7RunImplEvEN16SlowE
 110 006f 90       		.align 2
 111              		.p2align 4,,15
 113              	_ZN12_GLOBAL__N_157TestTestRunnerFixtureSlowTestHasCorrectFailureInformationD2Ev:
 114              	.LFB1511:
 115              		.cfi_startproc
 116 0070 488D0500 		leaq	16+_ZTVN12_GLOBAL__N_157TestTestRunnerFixtureSlowTestHasCorrectFailureInformationE(%rip), %ra
 116      000000
 117 0077 488907   		movq	%rax, (%rdi)
 118 007a E9000000 		jmp	_ZN8UnitTest4TestD2Ev@PLT
 118      00
 119              		.cfi_endproc
 120              	.LFE1511:
 122              		.set	_ZN12_GLOBAL__N_157TestTestRunnerFixtureSlowTestHasCorrectFailureInformationD1Ev,_ZN12_GLOBAL
 123 007f 90       		.align 2
 124              		.p2align 4,,15
 126              	_ZN12_GLOBAL__N_18SlowTestD2Ev:
 127              	.LFB1551:
 128              		.cfi_startproc
 129 0080 488D0500 		leaq	16+_ZTVN12_GLOBAL__N_18SlowTestE(%rip), %rax
 129      000000
 130 0087 488907   		movq	%rax, (%rdi)
 131 008a E9000000 		jmp	_ZN8UnitTest4TestD2Ev@PLT
 131      00
 132              		.cfi_endproc
 133              	.LFE1551:
 135              		.set	_ZN12_GLOBAL__N_18SlowTestD1Ev,_ZN12_GLOBAL__N_18SlowTestD2Ev
 136 008f 90       		.align 2
 137              		.p2align 4,,15
 139              	_ZN12_GLOBAL__N_153TestTestRunnerFixtureSlowTestFailsForLowTimeThresholdD2Ev:
 140              	.LFB1515:
 141              		.cfi_startproc
 142 0090 488D0500 		leaq	16+_ZTVN12_GLOBAL__N_153TestTestRunnerFixtureSlowTestFailsForLowTimeThresholdE(%rip), %rax
 142      000000
 143 0097 488907   		movq	%rax, (%rdi)
 144 009a E9000000 		jmp	_ZN8UnitTest4TestD2Ev@PLT
 144      00
 145              		.cfi_endproc
 146              	.LFE1515:
 148              		.set	_ZN12_GLOBAL__N_153TestTestRunnerFixtureSlowTestFailsForLowTimeThresholdD1Ev,_ZN12_GLOBAL__N_
 149 009f 90       		.align 2
 150              		.p2align 4,,15
 152              	_ZN12_GLOBAL__N_155TestTestRunnerFixtureSlowTestPassesForHighTimeThresholdD2Ev:
 153              	.LFB1519:
 154              		.cfi_startproc
 155 00a0 488D0500 		leaq	16+_ZTVN12_GLOBAL__N_155TestTestRunnerFixtureSlowTestPassesForHighTimeThresholdE(%rip), %rax
 155      000000
 156 00a7 488907   		movq	%rax, (%rdi)
 157 00aa E9000000 		jmp	_ZN8UnitTest4TestD2Ev@PLT
 157      00
 158              		.cfi_endproc
 159              	.LFE1519:
 161              		.set	_ZN12_GLOBAL__N_155TestTestRunnerFixtureSlowTestPassesForHighTimeThresholdD1Ev,_ZN12_GLOBAL__
 162 00af 90       		.align 2
 163              		.p2align 4,,15
 165              	_ZN12_GLOBAL__N_147TestTestRunnerFixtureReporterNotifiedOfFailuresD2Ev:
 166              	.LFB1523:
 167              		.cfi_startproc
 168 00b0 488D0500 		leaq	16+_ZTVN12_GLOBAL__N_147TestTestRunnerFixtureReporterNotifiedOfFailuresE(%rip), %rax
 168      000000
 169 00b7 488907   		movq	%rax, (%rdi)
 170 00ba E9000000 		jmp	_ZN8UnitTest4TestD2Ev@PLT
 170      00
 171              		.cfi_endproc
 172              	.LFE1523:
 174              		.set	_ZN12_GLOBAL__N_147TestTestRunnerFixtureReporterNotifiedOfFailuresD1Ev,_ZN12_GLOBAL__N_147Tes
 175 00bf 90       		.align 2
 176              		.p2align 4,,15
 178              	_ZN12_GLOBAL__N_18MockTestD2Ev:
 179              	.LFB1563:
 180              		.cfi_startproc
 181 00c0 488D0500 		leaq	16+_ZTVN12_GLOBAL__N_18MockTestE(%rip), %rax
 181      000000
 182 00c7 488907   		movq	%rax, (%rdi)
 183 00ca E9000000 		jmp	_ZN8UnitTest4TestD2Ev@PLT
 183      00
 184              		.cfi_endproc
 185              	.LFE1563:
 187              		.set	_ZN12_GLOBAL__N_18MockTestD1Ev,_ZN12_GLOBAL__N_18MockTestD2Ev
 188 00cf 90       		.align 2
 189              		.p2align 4,,15
 191              	_ZN12_GLOBAL__N_150TestTestRunnerFixtureReporterNotifiedOfFailedTestsD2Ev:
 192              	.LFB1527:
 193              		.cfi_startproc
 194 00d0 488D0500 		leaq	16+_ZTVN12_GLOBAL__N_150TestTestRunnerFixtureReporterNotifiedOfFailedTestsE(%rip), %rax
 194      000000
 195 00d7 488907   		movq	%rax, (%rdi)
 196 00da E9000000 		jmp	_ZN8UnitTest4TestD2Ev@PLT
 196      00
 197              		.cfi_endproc
 198              	.LFE1527:
 200              		.set	_ZN12_GLOBAL__N_150TestTestRunnerFixtureReporterNotifiedOfFailedTestsD1Ev,_ZN12_GLOBAL__N_150
 201 00df 90       		.align 2
 202              		.p2align 4,,15
 204              	_ZN12_GLOBAL__N_148TestTestRunnerFixtureReporterNotifiedOfTestCountD2Ev:
 205              	.LFB1531:
 206              		.cfi_startproc
 207 00e0 488D0500 		leaq	16+_ZTVN12_GLOBAL__N_148TestTestRunnerFixtureReporterNotifiedOfTestCountE(%rip), %rax
 207      000000
 208 00e7 488907   		movq	%rax, (%rdi)
 209 00ea E9000000 		jmp	_ZN8UnitTest4TestD2Ev@PLT
 209      00
 210              		.cfi_endproc
 211              	.LFE1531:
 213              		.set	_ZN12_GLOBAL__N_148TestTestRunnerFixtureReporterNotifiedOfTestCountD1Ev,_ZN12_GLOBAL__N_148Te
 214 00ef 90       		.align 2
 215              		.p2align 4,,15
 217              	_ZN12_GLOBAL__N_156TestTestRunnerFixtureTestsThatAssertAreReportedAsFailingD2Ev:
 218              	.LFB1535:
 219              		.cfi_startproc
 220 00f0 488D0500 		leaq	16+_ZTVN12_GLOBAL__N_156TestTestRunnerFixtureTestsThatAssertAreReportedAsFailingE(%rip), %rax
 220      000000
 221 00f7 488907   		movq	%rax, (%rdi)
 222 00fa E9000000 		jmp	_ZN8UnitTest4TestD2Ev@PLT
 222      00
 223              		.cfi_endproc
 224              	.LFE1535:
 226              		.set	_ZN12_GLOBAL__N_156TestTestRunnerFixtureTestsThatAssertAreReportedAsFailingD1Ev,_ZN12_GLOBAL_
 227 00ff 90       		.align 2
 228              		.p2align 4,,15
 230              	_ZN12_GLOBAL__N_157TestTestRunnerFixtureCallsReportFailureOncePerFailingTestD2Ev:
 231              	.LFB1539:
 232              		.cfi_startproc
 233 0100 488D0500 		leaq	16+_ZTVN12_GLOBAL__N_157TestTestRunnerFixtureCallsReportFailureOncePerFailingTestE(%rip), %ra
 233      000000
 234 0107 488907   		movq	%rax, (%rdi)
 235 010a E9000000 		jmp	_ZN8UnitTest4TestD2Ev@PLT
 235      00
 236              		.cfi_endproc
 237              	.LFE1539:
 239              		.set	_ZN12_GLOBAL__N_157TestTestRunnerFixtureCallsReportFailureOncePerFailingTestD1Ev,_ZN12_GLOBAL
 240 010f 90       		.align 2
 241              		.p2align 4,,15
 243              	_ZN12_GLOBAL__N_156TestTestRunnerFixtureFailureCountIsZeroWhenNoTestsAreRunD2Ev:
 244              	.LFB1543:
 245              		.cfi_startproc
 246 0110 488D0500 		leaq	16+_ZTVN12_GLOBAL__N_156TestTestRunnerFixtureFailureCountIsZeroWhenNoTestsAreRunE(%rip), %rax
 246      000000
 247 0117 488907   		movq	%rax, (%rdi)
 248 011a E9000000 		jmp	_ZN8UnitTest4TestD2Ev@PLT
 248      00
 249              		.cfi_endproc
 250              	.LFE1543:
 252              		.set	_ZN12_GLOBAL__N_156TestTestRunnerFixtureFailureCountIsZeroWhenNoTestsAreRunD1Ev,_ZN12_GLOBAL_
 253 011f 90       		.align 2
 254              		.p2align 4,,15
 256              	_ZN12_GLOBAL__N_154TestTestRunnerFixtureTestFinishIsCalledWithCorrectTimeD2Ev:
 257              	.LFB1547:
 258              		.cfi_startproc
 259 0120 488D0500 		leaq	16+_ZTVN12_GLOBAL__N_154TestTestRunnerFixtureTestFinishIsCalledWithCorrectTimeE(%rip), %rax
 259      000000
 260 0127 488907   		movq	%rax, (%rdi)
 261 012a E9000000 		jmp	_ZN8UnitTest4TestD2Ev@PLT
 261      00
 262              		.cfi_endproc
 263              	.LFE1547:
 265              		.set	_ZN12_GLOBAL__N_154TestTestRunnerFixtureTestFinishIsCalledWithCorrectTimeD1Ev,_ZN12_GLOBAL__N
 266 012f 90       		.align 2
 267              		.p2align 4,,15
 269              	_ZN12_GLOBAL__N_150TestTestRunnerFixtureTestFinishIsReportedCorrectlyD2Ev:
 270              	.LFB1555:
 271              		.cfi_startproc
 272 0130 488D0500 		leaq	16+_ZTVN12_GLOBAL__N_150TestTestRunnerFixtureTestFinishIsReportedCorrectlyE(%rip), %rax
 272      000000
 273 0137 488907   		movq	%rax, (%rdi)
 274 013a E9000000 		jmp	_ZN8UnitTest4TestD2Ev@PLT
 274      00
 275              		.cfi_endproc
 276              	.LFE1555:
 278              		.set	_ZN12_GLOBAL__N_150TestTestRunnerFixtureTestFinishIsReportedCorrectlyD1Ev,_ZN12_GLOBAL__N_150
 279 013f 90       		.align 2
 280              		.p2align 4,,15
 282              	_ZN12_GLOBAL__N_149TestTestRunnerFixtureTestStartIsReportedCorrectlyD2Ev:
 283              	.LFB1559:
 284              		.cfi_startproc
 285 0140 488D0500 		leaq	16+_ZTVN12_GLOBAL__N_149TestTestRunnerFixtureTestStartIsReportedCorrectlyE(%rip), %rax
 285      000000
 286 0147 488907   		movq	%rax, (%rdi)
 287 014a E9000000 		jmp	_ZN8UnitTest4TestD2Ev@PLT
 287      00
 288              		.cfi_endproc
 289              	.LFE1559:
 291              		.set	_ZN12_GLOBAL__N_149TestTestRunnerFixtureTestStartIsReportedCorrectlyD1Ev,_ZN12_GLOBAL__N_149T
 292              		.section	.text._ZN17RecordingReporter15ReportTestStartERKN8UnitTest11TestDetailsE,"axG",@progbits,
 293              		.align 2
 294              		.p2align 4,,15
 295              		.weak	_ZN17RecordingReporter15ReportTestStartERKN8UnitTest11TestDetailsE
 297              	_ZN17RecordingReporter15ReportTestStartERKN8UnitTest11TestDetailsE:
 298              	.LFB1148:
 299              		.cfi_startproc
 300 0000 55       		pushq	%rbp
 301              		.cfi_def_cfa_offset 16
 302              		.cfi_offset 6, -16
 303 0001 53       		pushq	%rbx
 304              		.cfi_def_cfa_offset 24
 305              		.cfi_offset 3, -24
 306 0002 4889F5   		movq	%rsi, %rbp
 307 0005 4889FB   		movq	%rdi, %rbx
 308 0008 BA000100 		movl	$256, %edx
 308      00
 309 000d 4883EC08 		subq	$8, %rsp
 310              		.cfi_def_cfa_offset 32
 311 0011 83470801 		addl	$1, 8(%rdi)
 312 0015 488D7F0C 		leaq	12(%rdi), %rdi
 313 0019 488B36   		movq	(%rsi), %rsi
 314 001c E8000000 		call	__strcpy_chk@PLT
 314      00
 315 0021 488B7508 		movq	8(%rbp), %rsi
 316 0025 4883C408 		addq	$8, %rsp
 317              		.cfi_def_cfa_offset 24
 318 0029 488DBB0C 		leaq	268(%rbx), %rdi
 318      010000
 319 0030 5B       		popq	%rbx
 320              		.cfi_def_cfa_offset 16
 321 0031 5D       		popq	%rbp
 322              		.cfi_def_cfa_offset 8
 323 0032 BA000100 		movl	$256, %edx
 323      00
 324 0037 E9000000 		jmp	__strcpy_chk@PLT
 324      00
 325              		.cfi_endproc
 326              	.LFE1148:
 328              		.section	.text._ZN17RecordingReporter13ReportFailureERKN8UnitTest11TestDetailsEPKc,"axG",@progbits
 329              		.align 2
 330              		.p2align 4,,15
 331              		.weak	_ZN17RecordingReporter13ReportFailureERKN8UnitTest11TestDetailsEPKc
 333              	_ZN17RecordingReporter13ReportFailureERKN8UnitTest11TestDetailsEPKc:
 334              	.LFB1149:
 335              		.cfi_startproc
 336 0000 4154     		pushq	%r12
 337              		.cfi_def_cfa_offset 16
 338              		.cfi_offset 12, -16
 339 0002 55       		pushq	%rbp
 340              		.cfi_def_cfa_offset 24
 341              		.cfi_offset 6, -24
 342 0003 4889F5   		movq	%rsi, %rbp
 343 0006 53       		pushq	%rbx
 344              		.cfi_def_cfa_offset 32
 345              		.cfi_offset 3, -32
 346 0007 83870C02 		addl	$1, 524(%rdi)
 346      000001
 347 000e 4889FB   		movq	%rdi, %rbx
 348 0011 488B7610 		movq	16(%rsi), %rsi
 349 0015 488DBF10 		leaq	528(%rdi), %rdi
 349      020000
 350 001c 4989D4   		movq	%rdx, %r12
 351 001f BA000100 		movl	$256, %edx
 351      00
 352 0024 E8000000 		call	__strcpy_chk@PLT
 352      00
 353 0029 8B4518   		movl	24(%rbp), %eax
 354 002c 488DBB14 		leaq	788(%rbx), %rdi
 354      030000
 355 0033 BA000100 		movl	$256, %edx
 355      00
 356 0038 89831003 		movl	%eax, 784(%rbx)
 356      0000
 357 003e 488B7500 		movq	0(%rbp), %rsi
 358 0042 E8000000 		call	__strcpy_chk@PLT
 358      00
 359 0047 488B7508 		movq	8(%rbp), %rsi
 360 004b 488DBB14 		leaq	1044(%rbx), %rdi
 360      040000
 361 0052 BA000100 		movl	$256, %edx
 361      00
 362 0057 E8000000 		call	__strcpy_chk@PLT
 362      00
 363 005c 488DBB14 		leaq	1300(%rbx), %rdi
 363      050000
 364 0063 4C89E6   		movq	%r12, %rsi
 365 0066 BA000100 		movl	$256, %edx
 365      00
 366 006b 5B       		popq	%rbx
 367              		.cfi_def_cfa_offset 24
 368 006c 5D       		popq	%rbp
 369              		.cfi_def_cfa_offset 16
 370 006d 415C     		popq	%r12
 371              		.cfi_def_cfa_offset 8
 372 006f E9000000 		jmp	__strcpy_chk@PLT
 372      00
 373              		.cfi_endproc
 374              	.LFE1149:
 376              		.section	.text._ZN17RecordingReporter16ReportTestFinishERKN8UnitTest11TestDetailsEf,"axG",@progbit
 377              		.align 2
 378              		.p2align 4,,15
 379              		.weak	_ZN17RecordingReporter16ReportTestFinishERKN8UnitTest11TestDetailsEf
 381              	_ZN17RecordingReporter16ReportTestFinishERKN8UnitTest11TestDetailsEf:
 382              	.LFB1150:
 383              		.cfi_startproc
 384 0000 55       		pushq	%rbp
 385              		.cfi_def_cfa_offset 16
 386              		.cfi_offset 6, -16
 387 0001 53       		pushq	%rbx
 388              		.cfi_def_cfa_offset 24
 389              		.cfi_offset 3, -24
 390 0002 4889F5   		movq	%rsi, %rbp
 391 0005 4889FB   		movq	%rdi, %rbx
 392 0008 BA000100 		movl	$256, %edx
 392      00
 393 000d 4883EC18 		subq	$24, %rsp
 394              		.cfi_def_cfa_offset 48
 395 0011 83871406 		addl	$1, 1556(%rdi)
 395      000001
 396 0018 488DBF18 		leaq	1560(%rdi), %rdi
 396      060000
 397 001f 488B36   		movq	(%rsi), %rsi
 398 0022 F30F1144 		movss	%xmm0, 12(%rsp)
 398      240C
 399 0028 E8000000 		call	__strcpy_chk@PLT
 399      00
 400 002d 488B7508 		movq	8(%rbp), %rsi
 401 0031 488DBB18 		leaq	1816(%rbx), %rdi
 401      070000
 402 0038 BA000100 		movl	$256, %edx
 402      00
 403 003d E8000000 		call	__strcpy_chk@PLT
 403      00
 404 0042 F30F1044 		movss	12(%rsp), %xmm0
 404      240C
 405 0048 F30F1183 		movss	%xmm0, 2072(%rbx)
 405      18080000 
 406 0050 4883C418 		addq	$24, %rsp
 407              		.cfi_def_cfa_offset 24
 408 0054 5B       		popq	%rbx
 409              		.cfi_def_cfa_offset 16
 410 0055 5D       		popq	%rbp
 411              		.cfi_def_cfa_offset 8
 412 0056 C3       		ret
 413              		.cfi_endproc
 414              	.LFE1150:
 416              		.text
 417 014f 90       		.align 2
 418              		.p2align 4,,15
 420              	_ZN12_GLOBAL__N_180TestTestRunnerFixtureTestRunnerOnlyRunsTestsInSpecifiedSuiteAndThatPassPredicate
 421              	.LFB1485:
 422              		.cfi_startproc
 423              		.cfi_personality 0x9b,DW.ref.__gxx_personality_v0
 424              		.cfi_lsda 0x1b,.LLSDA1485
 425 0150 55       		pushq	%rbp
 426              		.cfi_def_cfa_offset 16
 427              		.cfi_offset 6, -16
 428 0151 488D0500 		leaq	16+_ZTVN12_GLOBAL__N_180TestTestRunnerFixtureTestRunnerOnlyRunsTestsInSpecifiedSuiteAndThatPa
 428      000000
 429 0158 53       		pushq	%rbx
 430              		.cfi_def_cfa_offset 24
 431              		.cfi_offset 3, -24
 432 0159 4889FB   		movq	%rdi, %rbx
 433 015c 4883EC08 		subq	$8, %rsp
 434              		.cfi_def_cfa_offset 32
 435 0160 488907   		movq	%rax, (%rdi)
 436              	.LEHB0:
 437 0163 E8000000 		call	_ZN8UnitTest4TestD2Ev@PLT
 437      00
 438              	.LEHE0:
 439 0168 4883C408 		addq	$8, %rsp
 440              		.cfi_remember_state
 441              		.cfi_def_cfa_offset 24
 442 016c 4889DF   		movq	%rbx, %rdi
 443 016f 5B       		popq	%rbx
 444              		.cfi_def_cfa_offset 16
 445 0170 5D       		popq	%rbp
 446              		.cfi_def_cfa_offset 8
 447 0171 E9000000 		jmp	_ZdlPv@PLT
 447      00
 448              	.L32:
 449              		.cfi_restore_state
 450 0176 4889C5   		movq	%rax, %rbp
 451 0179 4889DF   		movq	%rbx, %rdi
 452 017c E8000000 		call	_ZdlPv@PLT
 452      00
 453 0181 4889EF   		movq	%rbp, %rdi
 454              	.LEHB1:
 455 0184 E8000000 		call	_Unwind_Resume@PLT
 455      00
 456              	.LEHE1:
 457              		.cfi_endproc
 458              	.LFE1485:
 459              		.globl	__gxx_personality_v0
 460              		.section	.gcc_except_table,"a",@progbits
 461              	.LLSDA1485:
 462 0000 FF       		.byte	0xff
 463 0001 FF       		.byte	0xff
 464 0002 01       		.byte	0x1
 465 0003 08       		.uleb128 .LLSDACSE1485-.LLSDACSB1485
 466              	.LLSDACSB1485:
 467 0004 13       		.uleb128 .LEHB0-.LFB1485
 468 0005 05       		.uleb128 .LEHE0-.LEHB0
 469 0006 26       		.uleb128 .L32-.LFB1485
 470 0007 00       		.uleb128 0
 471 0008 34       		.uleb128 .LEHB1-.LFB1485
 472 0009 05       		.uleb128 .LEHE1-.LEHB1
 473 000a 00       		.uleb128 0
 474 000b 00       		.uleb128 0
 475              	.LLSDACSE1485:
 476              		.text
 478 0189 90       		.align 2
 479 018a 660F1F44 		.p2align 4,,15
 479      0000
 481              	_ZN12_GLOBAL__N_157TestTestRunnerFixtureTestRunnerRunsTestsThatPassPredicateD0Ev:
 482              	.LFB1489:
 483              		.cfi_startproc
 484              		.cfi_personality 0x9b,DW.ref.__gxx_personality_v0
 485              		.cfi_lsda 0x1b,.LLSDA1489
 486 0190 55       		pushq	%rbp
 487              		.cfi_def_cfa_offset 16
 488              		.cfi_offset 6, -16
 489 0191 488D0500 		leaq	16+_ZTVN12_GLOBAL__N_157TestTestRunnerFixtureTestRunnerRunsTestsThatPassPredicateE(%rip), %ra
 489      000000
 490 0198 53       		pushq	%rbx
 491              		.cfi_def_cfa_offset 24
 492              		.cfi_offset 3, -24
 493 0199 4889FB   		movq	%rdi, %rbx
 494 019c 4883EC08 		subq	$8, %rsp
 495              		.cfi_def_cfa_offset 32
 496 01a0 488907   		movq	%rax, (%rdi)
 497              	.LEHB2:
 498 01a3 E8000000 		call	_ZN8UnitTest4TestD2Ev@PLT
 498      00
 499              	.LEHE2:
 500 01a8 4883C408 		addq	$8, %rsp
 501              		.cfi_remember_state
 502              		.cfi_def_cfa_offset 24
 503 01ac 4889DF   		movq	%rbx, %rdi
 504 01af 5B       		popq	%rbx
 505              		.cfi_def_cfa_offset 16
 506 01b0 5D       		popq	%rbp
 507              		.cfi_def_cfa_offset 8
 508 01b1 E9000000 		jmp	_ZdlPv@PLT
 508      00
 509              	.L36:
 510              		.cfi_restore_state
 511 01b6 4889C5   		movq	%rax, %rbp
 512 01b9 4889DF   		movq	%rbx, %rdi
 513 01bc E8000000 		call	_ZdlPv@PLT
 513      00
 514 01c1 4889EF   		movq	%rbp, %rdi
 515              	.LEHB3:
 516 01c4 E8000000 		call	_Unwind_Resume@PLT
 516      00
 517              	.LEHE3:
 518              		.cfi_endproc
 519              	.LFE1489:
 520              		.section	.gcc_except_table
 521              	.LLSDA1489:
 522 000c FF       		.byte	0xff
 523 000d FF       		.byte	0xff
 524 000e 01       		.byte	0x1
 525 000f 08       		.uleb128 .LLSDACSE1489-.LLSDACSB1489
 526              	.LLSDACSB1489:
 527 0010 13       		.uleb128 .LEHB2-.LFB1489
 528 0011 05       		.uleb128 .LEHE2-.LEHB2
 529 0012 26       		.uleb128 .L36-.LFB1489
 530 0013 00       		.uleb128 0
 531 0014 34       		.uleb128 .LEHB3-.LFB1489
 532 0015 05       		.uleb128 .LEHE3-.LEHB3
 533 0016 00       		.uleb128 0
 534 0017 00       		.uleb128 0
 535              	.LLSDACSE1489:
 536              		.text
 538 01c9 90       		.align 2
 539 01ca 660F1F44 		.p2align 4,,15
 539      0000
 541              	_ZN12_GLOBAL__N_137TestTestMockPredicateBehavesCorrectlyD0Ev:
 542              	.LFB1493:
 543              		.cfi_startproc
 544              		.cfi_personality 0x9b,DW.ref.__gxx_personality_v0
 545              		.cfi_lsda 0x1b,.LLSDA1493
 546 01d0 55       		pushq	%rbp
 547              		.cfi_def_cfa_offset 16
 548              		.cfi_offset 6, -16
 549 01d1 488D0500 		leaq	16+_ZTVN12_GLOBAL__N_137TestTestMockPredicateBehavesCorrectlyE(%rip), %rax
 549      000000
 550 01d8 53       		pushq	%rbx
 551              		.cfi_def_cfa_offset 24
 552              		.cfi_offset 3, -24
 553 01d9 4889FB   		movq	%rdi, %rbx
 554 01dc 4883EC08 		subq	$8, %rsp
 555              		.cfi_def_cfa_offset 32
 556 01e0 488907   		movq	%rax, (%rdi)
 557              	.LEHB4:
 558 01e3 E8000000 		call	_ZN8UnitTest4TestD2Ev@PLT
 558      00
 559              	.LEHE4:
 560 01e8 4883C408 		addq	$8, %rsp
 561              		.cfi_remember_state
 562              		.cfi_def_cfa_offset 24
 563 01ec 4889DF   		movq	%rbx, %rdi
 564 01ef 5B       		popq	%rbx
 565              		.cfi_def_cfa_offset 16
 566 01f0 5D       		popq	%rbp
 567              		.cfi_def_cfa_offset 8
 568 01f1 E9000000 		jmp	_ZdlPv@PLT
 568      00
 569              	.L40:
 570              		.cfi_restore_state
 571 01f6 4889C5   		movq	%rax, %rbp
 572 01f9 4889DF   		movq	%rbx, %rdi
 573 01fc E8000000 		call	_ZdlPv@PLT
 573      00
 574 0201 4889EF   		movq	%rbp, %rdi
 575              	.LEHB5:
 576 0204 E8000000 		call	_Unwind_Resume@PLT
 576      00
 577              	.LEHE5:
 578              		.cfi_endproc
 579              	.LFE1493:
 580              		.section	.gcc_except_table
 581              	.LLSDA1493:
 582 0018 FF       		.byte	0xff
 583 0019 FF       		.byte	0xff
 584 001a 01       		.byte	0x1
 585 001b 08       		.uleb128 .LLSDACSE1493-.LLSDACSB1493
 586              	.LLSDACSB1493:
 587 001c 13       		.uleb128 .LEHB4-.LFB1493
 588 001d 05       		.uleb128 .LEHE4-.LEHB4
 589 001e 26       		.uleb128 .L40-.LFB1493
 590 001f 00       		.uleb128 0
 591 0020 34       		.uleb128 .LEHB5-.LFB1493
 592 0021 05       		.uleb128 .LEHE5-.LEHB5
 593 0022 00       		.uleb128 0
 594 0023 00       		.uleb128 0
 595              	.LLSDACSE1493:
 596              		.text
 598 0209 90       		.align 2
 599 020a 660F1F44 		.p2align 4,,15
 599      0000
 601              	_ZN12_GLOBAL__N_152TestTestSuiteFixtureTestRunnerRunsOnlySpecifiedSuiteD0Ev:
 602              	.LFB1497:
 603              		.cfi_startproc
 604              		.cfi_personality 0x9b,DW.ref.__gxx_personality_v0
 605              		.cfi_lsda 0x1b,.LLSDA1497
 606 0210 55       		pushq	%rbp
 607              		.cfi_def_cfa_offset 16
 608              		.cfi_offset 6, -16
 609 0211 488D0500 		leaq	16+_ZTVN12_GLOBAL__N_152TestTestSuiteFixtureTestRunnerRunsOnlySpecifiedSuiteE(%rip), %rax
 609      000000
 610 0218 53       		pushq	%rbx
 611              		.cfi_def_cfa_offset 24
 612              		.cfi_offset 3, -24
 613 0219 4889FB   		movq	%rdi, %rbx
 614 021c 4883EC08 		subq	$8, %rsp
 615              		.cfi_def_cfa_offset 32
 616 0220 488907   		movq	%rax, (%rdi)
 617              	.LEHB6:
 618 0223 E8000000 		call	_ZN8UnitTest4TestD2Ev@PLT
 618      00
 619              	.LEHE6:
 620 0228 4883C408 		addq	$8, %rsp
 621              		.cfi_remember_state
 622              		.cfi_def_cfa_offset 24
 623 022c 4889DF   		movq	%rbx, %rdi
 624 022f 5B       		popq	%rbx
 625              		.cfi_def_cfa_offset 16
 626 0230 5D       		popq	%rbp
 627              		.cfi_def_cfa_offset 8
 628 0231 E9000000 		jmp	_ZdlPv@PLT
 628      00
 629              	.L44:
 630              		.cfi_restore_state
 631 0236 4889C5   		movq	%rax, %rbp
 632 0239 4889DF   		movq	%rbx, %rdi
 633 023c E8000000 		call	_ZdlPv@PLT
 633      00
 634 0241 4889EF   		movq	%rbp, %rdi
 635              	.LEHB7:
 636 0244 E8000000 		call	_Unwind_Resume@PLT
 636      00
 637              	.LEHE7:
 638              		.cfi_endproc
 639              	.LFE1497:
 640              		.section	.gcc_except_table
 641              	.LLSDA1497:
 642 0024 FF       		.byte	0xff
 643 0025 FF       		.byte	0xff
 644 0026 01       		.byte	0x1
 645 0027 08       		.uleb128 .LLSDACSE1497-.LLSDACSB1497
 646              	.LLSDACSB1497:
 647 0028 13       		.uleb128 .LEHB6-.LFB1497
 648 0029 05       		.uleb128 .LEHE6-.LEHB6
 649 002a 26       		.uleb128 .L44-.LFB1497
 650 002b 00       		.uleb128 0
 651 002c 34       		.uleb128 .LEHB7-.LFB1497
 652 002d 05       		.uleb128 .LEHE7-.LEHB7
 653 002e 00       		.uleb128 0
 654 002f 00       		.uleb128 0
 655              	.LLSDACSE1497:
 656              		.text
 658 0249 90       		.align 2
 659 024a 660F1F44 		.p2align 4,,15
 659      0000
 661              	_ZN12_GLOBAL__N_162TestTestSuiteFixtureTestRunnerRunsAllSuitesIfNullSuiteIsPassedD0Ev:
 662              	.LFB1501:
 663              		.cfi_startproc
 664              		.cfi_personality 0x9b,DW.ref.__gxx_personality_v0
 665              		.cfi_lsda 0x1b,.LLSDA1501
 666 0250 55       		pushq	%rbp
 667              		.cfi_def_cfa_offset 16
 668              		.cfi_offset 6, -16
 669 0251 488D0500 		leaq	16+_ZTVN12_GLOBAL__N_162TestTestSuiteFixtureTestRunnerRunsAllSuitesIfNullSuiteIsPassedE(%rip)
 669      000000
 670 0258 53       		pushq	%rbx
 671              		.cfi_def_cfa_offset 24
 672              		.cfi_offset 3, -24
 673 0259 4889FB   		movq	%rdi, %rbx
 674 025c 4883EC08 		subq	$8, %rsp
 675              		.cfi_def_cfa_offset 32
 676 0260 488907   		movq	%rax, (%rdi)
 677              	.LEHB8:
 678 0263 E8000000 		call	_ZN8UnitTest4TestD2Ev@PLT
 678      00
 679              	.LEHE8:
 680 0268 4883C408 		addq	$8, %rsp
 681              		.cfi_remember_state
 682              		.cfi_def_cfa_offset 24
 683 026c 4889DF   		movq	%rbx, %rdi
 684 026f 5B       		popq	%rbx
 685              		.cfi_def_cfa_offset 16
 686 0270 5D       		popq	%rbp
 687              		.cfi_def_cfa_offset 8
 688 0271 E9000000 		jmp	_ZdlPv@PLT
 688      00
 689              	.L48:
 690              		.cfi_restore_state
 691 0276 4889C5   		movq	%rax, %rbp
 692 0279 4889DF   		movq	%rbx, %rdi
 693 027c E8000000 		call	_ZdlPv@PLT
 693      00
 694 0281 4889EF   		movq	%rbp, %rdi
 695              	.LEHB9:
 696 0284 E8000000 		call	_Unwind_Resume@PLT
 696      00
 697              	.LEHE9:
 698              		.cfi_endproc
 699              	.LFE1501:
 700              		.section	.gcc_except_table
 701              	.LLSDA1501:
 702 0030 FF       		.byte	0xff
 703 0031 FF       		.byte	0xff
 704 0032 01       		.byte	0x1
 705 0033 08       		.uleb128 .LLSDACSE1501-.LLSDACSB1501
 706              	.LLSDACSB1501:
 707 0034 13       		.uleb128 .LEHB8-.LFB1501
 708 0035 05       		.uleb128 .LEHE8-.LEHB8
 709 0036 26       		.uleb128 .L48-.LFB1501
 710 0037 00       		.uleb128 0
 711 0038 34       		.uleb128 .LEHB9-.LFB1501
 712 0039 05       		.uleb128 .LEHE9-.LEHB9
 713 003a 00       		.uleb128 0
 714 003b 00       		.uleb128 0
 715              	.LLSDACSE1501:
 716              		.text
 718 0289 90       		.align 2
 719 028a 660F1F44 		.p2align 4,,15
 719      0000
 721              	_ZZN12_GLOBAL__N_154TestRunnerFixtureSlowTestWithTimeExemptionPassesHelper7RunImplEvEN16SlowExempte
 722              	.LFB1505:
 723              		.cfi_startproc
 724              		.cfi_personality 0x9b,DW.ref.__gxx_personality_v0
 725              		.cfi_lsda 0x1b,.LLSDA1505
 726 0290 55       		pushq	%rbp
 727              		.cfi_def_cfa_offset 16
 728              		.cfi_offset 6, -16
 729 0291 488D0500 		leaq	16+_ZTVZN12_GLOBAL__N_154TestRunnerFixtureSlowTestWithTimeExemptionPassesHelper7RunImplEvE16S
 729      000000
 730 0298 53       		pushq	%rbx
 731              		.cfi_def_cfa_offset 24
 732              		.cfi_offset 3, -24
 733 0299 4889FB   		movq	%rdi, %rbx
 734 029c 4883EC08 		subq	$8, %rsp
 735              		.cfi_def_cfa_offset 32
 736 02a0 488907   		movq	%rax, (%rdi)
 737              	.LEHB10:
 738 02a3 E8000000 		call	_ZN8UnitTest4TestD2Ev@PLT
 738      00
 739              	.LEHE10:
 740 02a8 4883C408 		addq	$8, %rsp
 741              		.cfi_remember_state
 742              		.cfi_def_cfa_offset 24
 743 02ac 4889DF   		movq	%rbx, %rdi
 744 02af 5B       		popq	%rbx
 745              		.cfi_def_cfa_offset 16
 746 02b0 5D       		popq	%rbp
 747              		.cfi_def_cfa_offset 8
 748 02b1 E9000000 		jmp	_ZdlPv@PLT
 748      00
 749              	.L52:
 750              		.cfi_restore_state
 751 02b6 4889C5   		movq	%rax, %rbp
 752 02b9 4889DF   		movq	%rbx, %rdi
 753 02bc E8000000 		call	_ZdlPv@PLT
 753      00
 754 02c1 4889EF   		movq	%rbp, %rdi
 755              	.LEHB11:
 756 02c4 E8000000 		call	_Unwind_Resume@PLT
 756      00
 757              	.LEHE11:
 758              		.cfi_endproc
 759              	.LFE1505:
 760              		.section	.gcc_except_table
 761              	.LLSDA1505:
 762 003c FF       		.byte	0xff
 763 003d FF       		.byte	0xff
 764 003e 01       		.byte	0x1
 765 003f 08       		.uleb128 .LLSDACSE1505-.LLSDACSB1505
 766              	.LLSDACSB1505:
 767 0040 13       		.uleb128 .LEHB10-.LFB1505
 768 0041 05       		.uleb128 .LEHE10-.LEHB10
 769 0042 26       		.uleb128 .L52-.LFB1505
 770 0043 00       		.uleb128 0
 771 0044 34       		.uleb128 .LEHB11-.LFB1505
 772 0045 05       		.uleb128 .LEHE11-.LEHB11
 773 0046 00       		.uleb128 0
 774 0047 00       		.uleb128 0
 775              	.LLSDACSE1505:
 776              		.text
 778 02c9 90       		.align 2
 779 02ca 660F1F44 		.p2align 4,,15
 779      0000
 781              	_ZN12_GLOBAL__N_152TestTestRunnerFixtureSlowTestWithTimeExemptionPassesD0Ev:
 782              	.LFB1509:
 783              		.cfi_startproc
 784              		.cfi_personality 0x9b,DW.ref.__gxx_personality_v0
 785              		.cfi_lsda 0x1b,.LLSDA1509
 786 02d0 55       		pushq	%rbp
 787              		.cfi_def_cfa_offset 16
 788              		.cfi_offset 6, -16
 789 02d1 488D0500 		leaq	16+_ZTVN12_GLOBAL__N_152TestTestRunnerFixtureSlowTestWithTimeExemptionPassesE(%rip), %rax
 789      000000
 790 02d8 53       		pushq	%rbx
 791              		.cfi_def_cfa_offset 24
 792              		.cfi_offset 3, -24
 793 02d9 4889FB   		movq	%rdi, %rbx
 794 02dc 4883EC08 		subq	$8, %rsp
 795              		.cfi_def_cfa_offset 32
 796 02e0 488907   		movq	%rax, (%rdi)
 797              	.LEHB12:
 798 02e3 E8000000 		call	_ZN8UnitTest4TestD2Ev@PLT
 798      00
 799              	.LEHE12:
 800 02e8 4883C408 		addq	$8, %rsp
 801              		.cfi_remember_state
 802              		.cfi_def_cfa_offset 24
 803 02ec 4889DF   		movq	%rbx, %rdi
 804 02ef 5B       		popq	%rbx
 805              		.cfi_def_cfa_offset 16
 806 02f0 5D       		popq	%rbp
 807              		.cfi_def_cfa_offset 8
 808 02f1 E9000000 		jmp	_ZdlPv@PLT
 808      00
 809              	.L56:
 810              		.cfi_restore_state
 811 02f6 4889C5   		movq	%rax, %rbp
 812 02f9 4889DF   		movq	%rbx, %rdi
 813 02fc E8000000 		call	_ZdlPv@PLT
 813      00
 814 0301 4889EF   		movq	%rbp, %rdi
 815              	.LEHB13:
 816 0304 E8000000 		call	_Unwind_Resume@PLT
 816      00
 817              	.LEHE13:
 818              		.cfi_endproc
 819              	.LFE1509:
 820              		.section	.gcc_except_table
 821              	.LLSDA1509:
 822 0048 FF       		.byte	0xff
 823 0049 FF       		.byte	0xff
 824 004a 01       		.byte	0x1
 825 004b 08       		.uleb128 .LLSDACSE1509-.LLSDACSB1509
 826              	.LLSDACSB1509:
 827 004c 13       		.uleb128 .LEHB12-.LFB1509
 828 004d 05       		.uleb128 .LEHE12-.LEHB12
 829 004e 26       		.uleb128 .L56-.LFB1509
 830 004f 00       		.uleb128 0
 831 0050 34       		.uleb128 .LEHB13-.LFB1509
 832 0051 05       		.uleb128 .LEHE13-.LEHB13
 833 0052 00       		.uleb128 0
 834 0053 00       		.uleb128 0
 835              	.LLSDACSE1509:
 836              		.text
 838 0309 90       		.align 2
 839 030a 660F1F44 		.p2align 4,,15
 839      0000
 841              	_ZN12_GLOBAL__N_18SlowTestD0Ev:
 842              	.LFB1553:
 843              		.cfi_startproc
 844              		.cfi_personality 0x9b,DW.ref.__gxx_personality_v0
 845              		.cfi_lsda 0x1b,.LLSDA1553
 846 0310 55       		pushq	%rbp
 847              		.cfi_def_cfa_offset 16
 848              		.cfi_offset 6, -16
 849 0311 488D0500 		leaq	16+_ZTVN12_GLOBAL__N_18SlowTestE(%rip), %rax
 849      000000
 850 0318 53       		pushq	%rbx
 851              		.cfi_def_cfa_offset 24
 852              		.cfi_offset 3, -24
 853 0319 4889FB   		movq	%rdi, %rbx
 854 031c 4883EC08 		subq	$8, %rsp
 855              		.cfi_def_cfa_offset 32
 856 0320 488907   		movq	%rax, (%rdi)
 857              	.LEHB14:
 858 0323 E8000000 		call	_ZN8UnitTest4TestD2Ev@PLT
 858      00
 859              	.LEHE14:
 860 0328 4883C408 		addq	$8, %rsp
 861              		.cfi_remember_state
 862              		.cfi_def_cfa_offset 24
 863 032c 4889DF   		movq	%rbx, %rdi
 864 032f 5B       		popq	%rbx
 865              		.cfi_def_cfa_offset 16
 866 0330 5D       		popq	%rbp
 867              		.cfi_def_cfa_offset 8
 868 0331 E9000000 		jmp	_ZdlPv@PLT
 868      00
 869              	.L60:
 870              		.cfi_restore_state
 871 0336 4889C5   		movq	%rax, %rbp
 872 0339 4889DF   		movq	%rbx, %rdi
 873 033c E8000000 		call	_ZdlPv@PLT
 873      00
 874 0341 4889EF   		movq	%rbp, %rdi
 875              	.LEHB15:
 876 0344 E8000000 		call	_Unwind_Resume@PLT
 876      00
 877              	.LEHE15:
 878              		.cfi_endproc
 879              	.LFE1553:
 880              		.section	.gcc_except_table
 881              	.LLSDA1553:
 882 0054 FF       		.byte	0xff
 883 0055 FF       		.byte	0xff
 884 0056 01       		.byte	0x1
 885 0057 08       		.uleb128 .LLSDACSE1553-.LLSDACSB1553
 886              	.LLSDACSB1553:
 887 0058 13       		.uleb128 .LEHB14-.LFB1553
 888 0059 05       		.uleb128 .LEHE14-.LEHB14
 889 005a 26       		.uleb128 .L60-.LFB1553
 890 005b 00       		.uleb128 0
 891 005c 34       		.uleb128 .LEHB15-.LFB1553
 892 005d 05       		.uleb128 .LEHE15-.LEHB15
 893 005e 00       		.uleb128 0
 894 005f 00       		.uleb128 0
 895              	.LLSDACSE1553:
 896              		.text
 898 0349 90       		.align 2
 899 034a 660F1F44 		.p2align 4,,15
 899      0000
 901              	_ZN12_GLOBAL__N_157TestTestRunnerFixtureSlowTestHasCorrectFailureInformationD0Ev:
 902              	.LFB1513:
 903              		.cfi_startproc
 904              		.cfi_personality 0x9b,DW.ref.__gxx_personality_v0
 905              		.cfi_lsda 0x1b,.LLSDA1513
 906 0350 55       		pushq	%rbp
 907              		.cfi_def_cfa_offset 16
 908              		.cfi_offset 6, -16
 909 0351 488D0500 		leaq	16+_ZTVN12_GLOBAL__N_157TestTestRunnerFixtureSlowTestHasCorrectFailureInformationE(%rip), %ra
 909      000000
 910 0358 53       		pushq	%rbx
 911              		.cfi_def_cfa_offset 24
 912              		.cfi_offset 3, -24
 913 0359 4889FB   		movq	%rdi, %rbx
 914 035c 4883EC08 		subq	$8, %rsp
 915              		.cfi_def_cfa_offset 32
 916 0360 488907   		movq	%rax, (%rdi)
 917              	.LEHB16:
 918 0363 E8000000 		call	_ZN8UnitTest4TestD2Ev@PLT
 918      00
 919              	.LEHE16:
 920 0368 4883C408 		addq	$8, %rsp
 921              		.cfi_remember_state
 922              		.cfi_def_cfa_offset 24
 923 036c 4889DF   		movq	%rbx, %rdi
 924 036f 5B       		popq	%rbx
 925              		.cfi_def_cfa_offset 16
 926 0370 5D       		popq	%rbp
 927              		.cfi_def_cfa_offset 8
 928 0371 E9000000 		jmp	_ZdlPv@PLT
 928      00
 929              	.L64:
 930              		.cfi_restore_state
 931 0376 4889C5   		movq	%rax, %rbp
 932 0379 4889DF   		movq	%rbx, %rdi
 933 037c E8000000 		call	_ZdlPv@PLT
 933      00
 934 0381 4889EF   		movq	%rbp, %rdi
 935              	.LEHB17:
 936 0384 E8000000 		call	_Unwind_Resume@PLT
 936      00
 937              	.LEHE17:
 938              		.cfi_endproc
 939              	.LFE1513:
 940              		.section	.gcc_except_table
 941              	.LLSDA1513:
 942 0060 FF       		.byte	0xff
 943 0061 FF       		.byte	0xff
 944 0062 01       		.byte	0x1
 945 0063 08       		.uleb128 .LLSDACSE1513-.LLSDACSB1513
 946              	.LLSDACSB1513:
 947 0064 13       		.uleb128 .LEHB16-.LFB1513
 948 0065 05       		.uleb128 .LEHE16-.LEHB16
 949 0066 26       		.uleb128 .L64-.LFB1513
 950 0067 00       		.uleb128 0
 951 0068 34       		.uleb128 .LEHB17-.LFB1513
 952 0069 05       		.uleb128 .LEHE17-.LEHB17
 953 006a 00       		.uleb128 0
 954 006b 00       		.uleb128 0
 955              	.LLSDACSE1513:
 956              		.text
 958 0389 90       		.align 2
 959 038a 660F1F44 		.p2align 4,,15
 959      0000
 961              	_ZN12_GLOBAL__N_153TestTestRunnerFixtureSlowTestFailsForLowTimeThresholdD0Ev:
 962              	.LFB1517:
 963              		.cfi_startproc
 964              		.cfi_personality 0x9b,DW.ref.__gxx_personality_v0
 965              		.cfi_lsda 0x1b,.LLSDA1517
 966 0390 55       		pushq	%rbp
 967              		.cfi_def_cfa_offset 16
 968              		.cfi_offset 6, -16
 969 0391 488D0500 		leaq	16+_ZTVN12_GLOBAL__N_153TestTestRunnerFixtureSlowTestFailsForLowTimeThresholdE(%rip), %rax
 969      000000
 970 0398 53       		pushq	%rbx
 971              		.cfi_def_cfa_offset 24
 972              		.cfi_offset 3, -24
 973 0399 4889FB   		movq	%rdi, %rbx
 974 039c 4883EC08 		subq	$8, %rsp
 975              		.cfi_def_cfa_offset 32
 976 03a0 488907   		movq	%rax, (%rdi)
 977              	.LEHB18:
 978 03a3 E8000000 		call	_ZN8UnitTest4TestD2Ev@PLT
 978      00
 979              	.LEHE18:
 980 03a8 4883C408 		addq	$8, %rsp
 981              		.cfi_remember_state
 982              		.cfi_def_cfa_offset 24
 983 03ac 4889DF   		movq	%rbx, %rdi
 984 03af 5B       		popq	%rbx
 985              		.cfi_def_cfa_offset 16
 986 03b0 5D       		popq	%rbp
 987              		.cfi_def_cfa_offset 8
 988 03b1 E9000000 		jmp	_ZdlPv@PLT
 988      00
 989              	.L68:
 990              		.cfi_restore_state
 991 03b6 4889C5   		movq	%rax, %rbp
 992 03b9 4889DF   		movq	%rbx, %rdi
 993 03bc E8000000 		call	_ZdlPv@PLT
 993      00
 994 03c1 4889EF   		movq	%rbp, %rdi
 995              	.LEHB19:
 996 03c4 E8000000 		call	_Unwind_Resume@PLT
 996      00
 997              	.LEHE19:
 998              		.cfi_endproc
 999              	.LFE1517:
 1000              		.section	.gcc_except_table
 1001              	.LLSDA1517:
 1002 006c FF       		.byte	0xff
 1003 006d FF       		.byte	0xff
 1004 006e 01       		.byte	0x1
 1005 006f 08       		.uleb128 .LLSDACSE1517-.LLSDACSB1517
 1006              	.LLSDACSB1517:
 1007 0070 13       		.uleb128 .LEHB18-.LFB1517
 1008 0071 05       		.uleb128 .LEHE18-.LEHB18
 1009 0072 26       		.uleb128 .L68-.LFB1517
 1010 0073 00       		.uleb128 0
 1011 0074 34       		.uleb128 .LEHB19-.LFB1517
 1012 0075 05       		.uleb128 .LEHE19-.LEHB19
 1013 0076 00       		.uleb128 0
 1014 0077 00       		.uleb128 0
 1015              	.LLSDACSE1517:
 1016              		.text
 1018 03c9 90       		.align 2
 1019 03ca 660F1F44 		.p2align 4,,15
 1019      0000
 1021              	_ZN12_GLOBAL__N_155TestTestRunnerFixtureSlowTestPassesForHighTimeThresholdD0Ev:
 1022              	.LFB1521:
 1023              		.cfi_startproc
 1024              		.cfi_personality 0x9b,DW.ref.__gxx_personality_v0
 1025              		.cfi_lsda 0x1b,.LLSDA1521
 1026 03d0 55       		pushq	%rbp
 1027              		.cfi_def_cfa_offset 16
 1028              		.cfi_offset 6, -16
 1029 03d1 488D0500 		leaq	16+_ZTVN12_GLOBAL__N_155TestTestRunnerFixtureSlowTestPassesForHighTimeThresholdE(%rip), %rax
 1029      000000
 1030 03d8 53       		pushq	%rbx
 1031              		.cfi_def_cfa_offset 24
 1032              		.cfi_offset 3, -24
 1033 03d9 4889FB   		movq	%rdi, %rbx
 1034 03dc 4883EC08 		subq	$8, %rsp
 1035              		.cfi_def_cfa_offset 32
 1036 03e0 488907   		movq	%rax, (%rdi)
 1037              	.LEHB20:
 1038 03e3 E8000000 		call	_ZN8UnitTest4TestD2Ev@PLT
 1038      00
 1039              	.LEHE20:
 1040 03e8 4883C408 		addq	$8, %rsp
 1041              		.cfi_remember_state
 1042              		.cfi_def_cfa_offset 24
 1043 03ec 4889DF   		movq	%rbx, %rdi
 1044 03ef 5B       		popq	%rbx
 1045              		.cfi_def_cfa_offset 16
 1046 03f0 5D       		popq	%rbp
 1047              		.cfi_def_cfa_offset 8
 1048 03f1 E9000000 		jmp	_ZdlPv@PLT
 1048      00
 1049              	.L72:
 1050              		.cfi_restore_state
 1051 03f6 4889C5   		movq	%rax, %rbp
 1052 03f9 4889DF   		movq	%rbx, %rdi
 1053 03fc E8000000 		call	_ZdlPv@PLT
 1053      00
 1054 0401 4889EF   		movq	%rbp, %rdi
 1055              	.LEHB21:
 1056 0404 E8000000 		call	_Unwind_Resume@PLT
 1056      00
 1057              	.LEHE21:
 1058              		.cfi_endproc
 1059              	.LFE1521:
 1060              		.section	.gcc_except_table
 1061              	.LLSDA1521:
 1062 0078 FF       		.byte	0xff
 1063 0079 FF       		.byte	0xff
 1064 007a 01       		.byte	0x1
 1065 007b 08       		.uleb128 .LLSDACSE1521-.LLSDACSB1521
 1066              	.LLSDACSB1521:
 1067 007c 13       		.uleb128 .LEHB20-.LFB1521
 1068 007d 05       		.uleb128 .LEHE20-.LEHB20
 1069 007e 26       		.uleb128 .L72-.LFB1521
 1070 007f 00       		.uleb128 0
 1071 0080 34       		.uleb128 .LEHB21-.LFB1521
 1072 0081 05       		.uleb128 .LEHE21-.LEHB21
 1073 0082 00       		.uleb128 0
 1074 0083 00       		.uleb128 0
 1075              	.LLSDACSE1521:
 1076              		.text
 1078 0409 90       		.align 2
 1079 040a 660F1F44 		.p2align 4,,15
 1079      0000
 1081              	_ZN12_GLOBAL__N_18MockTestD0Ev:
 1082              	.LFB1565:
 1083              		.cfi_startproc
 1084              		.cfi_personality 0x9b,DW.ref.__gxx_personality_v0
 1085              		.cfi_lsda 0x1b,.LLSDA1565
 1086 0410 55       		pushq	%rbp
 1087              		.cfi_def_cfa_offset 16
 1088              		.cfi_offset 6, -16
 1089 0411 488D0500 		leaq	16+_ZTVN12_GLOBAL__N_18MockTestE(%rip), %rax
 1089      000000
 1090 0418 53       		pushq	%rbx
 1091              		.cfi_def_cfa_offset 24
 1092              		.cfi_offset 3, -24
 1093 0419 4889FB   		movq	%rdi, %rbx
 1094 041c 4883EC08 		subq	$8, %rsp
 1095              		.cfi_def_cfa_offset 32
 1096 0420 488907   		movq	%rax, (%rdi)
 1097              	.LEHB22:
 1098 0423 E8000000 		call	_ZN8UnitTest4TestD2Ev@PLT
 1098      00
 1099              	.LEHE22:
 1100 0428 4883C408 		addq	$8, %rsp
 1101              		.cfi_remember_state
 1102              		.cfi_def_cfa_offset 24
 1103 042c 4889DF   		movq	%rbx, %rdi
 1104 042f 5B       		popq	%rbx
 1105              		.cfi_def_cfa_offset 16
 1106 0430 5D       		popq	%rbp
 1107              		.cfi_def_cfa_offset 8
 1108 0431 E9000000 		jmp	_ZdlPv@PLT
 1108      00
 1109              	.L76:
 1110              		.cfi_restore_state
 1111 0436 4889C5   		movq	%rax, %rbp
 1112 0439 4889DF   		movq	%rbx, %rdi
 1113 043c E8000000 		call	_ZdlPv@PLT
 1113      00
 1114 0441 4889EF   		movq	%rbp, %rdi
 1115              	.LEHB23:
 1116 0444 E8000000 		call	_Unwind_Resume@PLT
 1116      00
 1117              	.LEHE23:
 1118              		.cfi_endproc
 1119              	.LFE1565:
 1120              		.section	.gcc_except_table
 1121              	.LLSDA1565:
 1122 0084 FF       		.byte	0xff
 1123 0085 FF       		.byte	0xff
 1124 0086 01       		.byte	0x1
 1125 0087 08       		.uleb128 .LLSDACSE1565-.LLSDACSB1565
 1126              	.LLSDACSB1565:
 1127 0088 13       		.uleb128 .LEHB22-.LFB1565
 1128 0089 05       		.uleb128 .LEHE22-.LEHB22
 1129 008a 26       		.uleb128 .L76-.LFB1565
 1130 008b 00       		.uleb128 0
 1131 008c 34       		.uleb128 .LEHB23-.LFB1565
 1132 008d 05       		.uleb128 .LEHE23-.LEHB23
 1133 008e 00       		.uleb128 0
 1134 008f 00       		.uleb128 0
 1135              	.LLSDACSE1565:
 1136              		.text
 1138 0449 90       		.align 2
 1139 044a 660F1F44 		.p2align 4,,15
 1139      0000
 1141              	_ZN12_GLOBAL__N_147TestTestRunnerFixtureReporterNotifiedOfFailuresD0Ev:
 1142              	.LFB1525:
 1143              		.cfi_startproc
 1144              		.cfi_personality 0x9b,DW.ref.__gxx_personality_v0
 1145              		.cfi_lsda 0x1b,.LLSDA1525
 1146 0450 55       		pushq	%rbp
 1147              		.cfi_def_cfa_offset 16
 1148              		.cfi_offset 6, -16
 1149 0451 488D0500 		leaq	16+_ZTVN12_GLOBAL__N_147TestTestRunnerFixtureReporterNotifiedOfFailuresE(%rip), %rax
 1149      000000
 1150 0458 53       		pushq	%rbx
 1151              		.cfi_def_cfa_offset 24
 1152              		.cfi_offset 3, -24
 1153 0459 4889FB   		movq	%rdi, %rbx
 1154 045c 4883EC08 		subq	$8, %rsp
 1155              		.cfi_def_cfa_offset 32
 1156 0460 488907   		movq	%rax, (%rdi)
 1157              	.LEHB24:
 1158 0463 E8000000 		call	_ZN8UnitTest4TestD2Ev@PLT
 1158      00
 1159              	.LEHE24:
 1160 0468 4883C408 		addq	$8, %rsp
 1161              		.cfi_remember_state
 1162              		.cfi_def_cfa_offset 24
 1163 046c 4889DF   		movq	%rbx, %rdi
 1164 046f 5B       		popq	%rbx
 1165              		.cfi_def_cfa_offset 16
 1166 0470 5D       		popq	%rbp
 1167              		.cfi_def_cfa_offset 8
 1168 0471 E9000000 		jmp	_ZdlPv@PLT
 1168      00
 1169              	.L80:
 1170              		.cfi_restore_state
 1171 0476 4889C5   		movq	%rax, %rbp
 1172 0479 4889DF   		movq	%rbx, %rdi
 1173 047c E8000000 		call	_ZdlPv@PLT
 1173      00
 1174 0481 4889EF   		movq	%rbp, %rdi
 1175              	.LEHB25:
 1176 0484 E8000000 		call	_Unwind_Resume@PLT
 1176      00
 1177              	.LEHE25:
 1178              		.cfi_endproc
 1179              	.LFE1525:
 1180              		.section	.gcc_except_table
 1181              	.LLSDA1525:
 1182 0090 FF       		.byte	0xff
 1183 0091 FF       		.byte	0xff
 1184 0092 01       		.byte	0x1
 1185 0093 08       		.uleb128 .LLSDACSE1525-.LLSDACSB1525
 1186              	.LLSDACSB1525:
 1187 0094 13       		.uleb128 .LEHB24-.LFB1525
 1188 0095 05       		.uleb128 .LEHE24-.LEHB24
 1189 0096 26       		.uleb128 .L80-.LFB1525
 1190 0097 00       		.uleb128 0
 1191 0098 34       		.uleb128 .LEHB25-.LFB1525
 1192 0099 05       		.uleb128 .LEHE25-.LEHB25
 1193 009a 00       		.uleb128 0
 1194 009b 00       		.uleb128 0
 1195              	.LLSDACSE1525:
 1196              		.text
 1198 0489 90       		.align 2
 1199 048a 660F1F44 		.p2align 4,,15
 1199      0000
 1201              	_ZN12_GLOBAL__N_150TestTestRunnerFixtureReporterNotifiedOfFailedTestsD0Ev:
 1202              	.LFB1529:
 1203              		.cfi_startproc
 1204              		.cfi_personality 0x9b,DW.ref.__gxx_personality_v0
 1205              		.cfi_lsda 0x1b,.LLSDA1529
 1206 0490 55       		pushq	%rbp
 1207              		.cfi_def_cfa_offset 16
 1208              		.cfi_offset 6, -16
 1209 0491 488D0500 		leaq	16+_ZTVN12_GLOBAL__N_150TestTestRunnerFixtureReporterNotifiedOfFailedTestsE(%rip), %rax
 1209      000000
 1210 0498 53       		pushq	%rbx
 1211              		.cfi_def_cfa_offset 24
 1212              		.cfi_offset 3, -24
 1213 0499 4889FB   		movq	%rdi, %rbx
 1214 049c 4883EC08 		subq	$8, %rsp
 1215              		.cfi_def_cfa_offset 32
 1216 04a0 488907   		movq	%rax, (%rdi)
 1217              	.LEHB26:
 1218 04a3 E8000000 		call	_ZN8UnitTest4TestD2Ev@PLT
 1218      00
 1219              	.LEHE26:
 1220 04a8 4883C408 		addq	$8, %rsp
 1221              		.cfi_remember_state
 1222              		.cfi_def_cfa_offset 24
 1223 04ac 4889DF   		movq	%rbx, %rdi
 1224 04af 5B       		popq	%rbx
 1225              		.cfi_def_cfa_offset 16
 1226 04b0 5D       		popq	%rbp
 1227              		.cfi_def_cfa_offset 8
 1228 04b1 E9000000 		jmp	_ZdlPv@PLT
 1228      00
 1229              	.L84:
 1230              		.cfi_restore_state
 1231 04b6 4889C5   		movq	%rax, %rbp
 1232 04b9 4889DF   		movq	%rbx, %rdi
 1233 04bc E8000000 		call	_ZdlPv@PLT
 1233      00
 1234 04c1 4889EF   		movq	%rbp, %rdi
 1235              	.LEHB27:
 1236 04c4 E8000000 		call	_Unwind_Resume@PLT
 1236      00
 1237              	.LEHE27:
 1238              		.cfi_endproc
 1239              	.LFE1529:
 1240              		.section	.gcc_except_table
 1241              	.LLSDA1529:
 1242 009c FF       		.byte	0xff
 1243 009d FF       		.byte	0xff
 1244 009e 01       		.byte	0x1
 1245 009f 08       		.uleb128 .LLSDACSE1529-.LLSDACSB1529
 1246              	.LLSDACSB1529:
 1247 00a0 13       		.uleb128 .LEHB26-.LFB1529
 1248 00a1 05       		.uleb128 .LEHE26-.LEHB26
 1249 00a2 26       		.uleb128 .L84-.LFB1529
 1250 00a3 00       		.uleb128 0
 1251 00a4 34       		.uleb128 .LEHB27-.LFB1529
 1252 00a5 05       		.uleb128 .LEHE27-.LEHB27
 1253 00a6 00       		.uleb128 0
 1254 00a7 00       		.uleb128 0
 1255              	.LLSDACSE1529:
 1256              		.text
 1258 04c9 90       		.align 2
 1259 04ca 660F1F44 		.p2align 4,,15
 1259      0000
 1261              	_ZN12_GLOBAL__N_148TestTestRunnerFixtureReporterNotifiedOfTestCountD0Ev:
 1262              	.LFB1533:
 1263              		.cfi_startproc
 1264              		.cfi_personality 0x9b,DW.ref.__gxx_personality_v0
 1265              		.cfi_lsda 0x1b,.LLSDA1533
 1266 04d0 55       		pushq	%rbp
 1267              		.cfi_def_cfa_offset 16
 1268              		.cfi_offset 6, -16
 1269 04d1 488D0500 		leaq	16+_ZTVN12_GLOBAL__N_148TestTestRunnerFixtureReporterNotifiedOfTestCountE(%rip), %rax
 1269      000000
 1270 04d8 53       		pushq	%rbx
 1271              		.cfi_def_cfa_offset 24
 1272              		.cfi_offset 3, -24
 1273 04d9 4889FB   		movq	%rdi, %rbx
 1274 04dc 4883EC08 		subq	$8, %rsp
 1275              		.cfi_def_cfa_offset 32
 1276 04e0 488907   		movq	%rax, (%rdi)
 1277              	.LEHB28:
 1278 04e3 E8000000 		call	_ZN8UnitTest4TestD2Ev@PLT
 1278      00
 1279              	.LEHE28:
 1280 04e8 4883C408 		addq	$8, %rsp
 1281              		.cfi_remember_state
 1282              		.cfi_def_cfa_offset 24
 1283 04ec 4889DF   		movq	%rbx, %rdi
 1284 04ef 5B       		popq	%rbx
 1285              		.cfi_def_cfa_offset 16
 1286 04f0 5D       		popq	%rbp
 1287              		.cfi_def_cfa_offset 8
 1288 04f1 E9000000 		jmp	_ZdlPv@PLT
 1288      00
 1289              	.L88:
 1290              		.cfi_restore_state
 1291 04f6 4889C5   		movq	%rax, %rbp
 1292 04f9 4889DF   		movq	%rbx, %rdi
 1293 04fc E8000000 		call	_ZdlPv@PLT
 1293      00
 1294 0501 4889EF   		movq	%rbp, %rdi
 1295              	.LEHB29:
 1296 0504 E8000000 		call	_Unwind_Resume@PLT
 1296      00
 1297              	.LEHE29:
 1298              		.cfi_endproc
 1299              	.LFE1533:
 1300              		.section	.gcc_except_table
 1301              	.LLSDA1533:
 1302 00a8 FF       		.byte	0xff
 1303 00a9 FF       		.byte	0xff
 1304 00aa 01       		.byte	0x1
 1305 00ab 08       		.uleb128 .LLSDACSE1533-.LLSDACSB1533
 1306              	.LLSDACSB1533:
 1307 00ac 13       		.uleb128 .LEHB28-.LFB1533
 1308 00ad 05       		.uleb128 .LEHE28-.LEHB28
 1309 00ae 26       		.uleb128 .L88-.LFB1533
 1310 00af 00       		.uleb128 0
 1311 00b0 34       		.uleb128 .LEHB29-.LFB1533
 1312 00b1 05       		.uleb128 .LEHE29-.LEHB29
 1313 00b2 00       		.uleb128 0
 1314 00b3 00       		.uleb128 0
 1315              	.LLSDACSE1533:
 1316              		.text
 1318 0509 90       		.align 2
 1319 050a 660F1F44 		.p2align 4,,15
 1319      0000
 1321              	_ZN12_GLOBAL__N_156TestTestRunnerFixtureTestsThatAssertAreReportedAsFailingD0Ev:
 1322              	.LFB1537:
 1323              		.cfi_startproc
 1324              		.cfi_personality 0x9b,DW.ref.__gxx_personality_v0
 1325              		.cfi_lsda 0x1b,.LLSDA1537
 1326 0510 55       		pushq	%rbp
 1327              		.cfi_def_cfa_offset 16
 1328              		.cfi_offset 6, -16
 1329 0511 488D0500 		leaq	16+_ZTVN12_GLOBAL__N_156TestTestRunnerFixtureTestsThatAssertAreReportedAsFailingE(%rip), %rax
 1329      000000
 1330 0518 53       		pushq	%rbx
 1331              		.cfi_def_cfa_offset 24
 1332              		.cfi_offset 3, -24
 1333 0519 4889FB   		movq	%rdi, %rbx
 1334 051c 4883EC08 		subq	$8, %rsp
 1335              		.cfi_def_cfa_offset 32
 1336 0520 488907   		movq	%rax, (%rdi)
 1337              	.LEHB30:
 1338 0523 E8000000 		call	_ZN8UnitTest4TestD2Ev@PLT
 1338      00
 1339              	.LEHE30:
 1340 0528 4883C408 		addq	$8, %rsp
 1341              		.cfi_remember_state
 1342              		.cfi_def_cfa_offset 24
 1343 052c 4889DF   		movq	%rbx, %rdi
 1344 052f 5B       		popq	%rbx
 1345              		.cfi_def_cfa_offset 16
 1346 0530 5D       		popq	%rbp
 1347              		.cfi_def_cfa_offset 8
 1348 0531 E9000000 		jmp	_ZdlPv@PLT
 1348      00
 1349              	.L92:
 1350              		.cfi_restore_state
 1351 0536 4889C5   		movq	%rax, %rbp
 1352 0539 4889DF   		movq	%rbx, %rdi
 1353 053c E8000000 		call	_ZdlPv@PLT
 1353      00
 1354 0541 4889EF   		movq	%rbp, %rdi
 1355              	.LEHB31:
 1356 0544 E8000000 		call	_Unwind_Resume@PLT
 1356      00
 1357              	.LEHE31:
 1358              		.cfi_endproc
 1359              	.LFE1537:
 1360              		.section	.gcc_except_table
 1361              	.LLSDA1537:
 1362 00b4 FF       		.byte	0xff
 1363 00b5 FF       		.byte	0xff
 1364 00b6 01       		.byte	0x1
 1365 00b7 08       		.uleb128 .LLSDACSE1537-.LLSDACSB1537
 1366              	.LLSDACSB1537:
 1367 00b8 13       		.uleb128 .LEHB30-.LFB1537
 1368 00b9 05       		.uleb128 .LEHE30-.LEHB30
 1369 00ba 26       		.uleb128 .L92-.LFB1537
 1370 00bb 00       		.uleb128 0
 1371 00bc 34       		.uleb128 .LEHB31-.LFB1537
 1372 00bd 05       		.uleb128 .LEHE31-.LEHB31
 1373 00be 00       		.uleb128 0
 1374 00bf 00       		.uleb128 0
 1375              	.LLSDACSE1537:
 1376              		.text
 1378 0549 90       		.align 2
 1379 054a 660F1F44 		.p2align 4,,15
 1379      0000
 1381              	_ZN12_GLOBAL__N_157TestTestRunnerFixtureCallsReportFailureOncePerFailingTestD0Ev:
 1382              	.LFB1541:
 1383              		.cfi_startproc
 1384              		.cfi_personality 0x9b,DW.ref.__gxx_personality_v0
 1385              		.cfi_lsda 0x1b,.LLSDA1541
 1386 0550 55       		pushq	%rbp
 1387              		.cfi_def_cfa_offset 16
 1388              		.cfi_offset 6, -16
 1389 0551 488D0500 		leaq	16+_ZTVN12_GLOBAL__N_157TestTestRunnerFixtureCallsReportFailureOncePerFailingTestE(%rip), %ra
 1389      000000
 1390 0558 53       		pushq	%rbx
 1391              		.cfi_def_cfa_offset 24
 1392              		.cfi_offset 3, -24
 1393 0559 4889FB   		movq	%rdi, %rbx
 1394 055c 4883EC08 		subq	$8, %rsp
 1395              		.cfi_def_cfa_offset 32
 1396 0560 488907   		movq	%rax, (%rdi)
 1397              	.LEHB32:
 1398 0563 E8000000 		call	_ZN8UnitTest4TestD2Ev@PLT
 1398      00
 1399              	.LEHE32:
 1400 0568 4883C408 		addq	$8, %rsp
 1401              		.cfi_remember_state
 1402              		.cfi_def_cfa_offset 24
 1403 056c 4889DF   		movq	%rbx, %rdi
 1404 056f 5B       		popq	%rbx
 1405              		.cfi_def_cfa_offset 16
 1406 0570 5D       		popq	%rbp
 1407              		.cfi_def_cfa_offset 8
 1408 0571 E9000000 		jmp	_ZdlPv@PLT
 1408      00
 1409              	.L96:
 1410              		.cfi_restore_state
 1411 0576 4889C5   		movq	%rax, %rbp
 1412 0579 4889DF   		movq	%rbx, %rdi
 1413 057c E8000000 		call	_ZdlPv@PLT
 1413      00
 1414 0581 4889EF   		movq	%rbp, %rdi
 1415              	.LEHB33:
 1416 0584 E8000000 		call	_Unwind_Resume@PLT
 1416      00
 1417              	.LEHE33:
 1418              		.cfi_endproc
 1419              	.LFE1541:
 1420              		.section	.gcc_except_table
 1421              	.LLSDA1541:
 1422 00c0 FF       		.byte	0xff
 1423 00c1 FF       		.byte	0xff
 1424 00c2 01       		.byte	0x1
 1425 00c3 08       		.uleb128 .LLSDACSE1541-.LLSDACSB1541
 1426              	.LLSDACSB1541:
 1427 00c4 13       		.uleb128 .LEHB32-.LFB1541
 1428 00c5 05       		.uleb128 .LEHE32-.LEHB32
 1429 00c6 26       		.uleb128 .L96-.LFB1541
 1430 00c7 00       		.uleb128 0
 1431 00c8 34       		.uleb128 .LEHB33-.LFB1541
 1432 00c9 05       		.uleb128 .LEHE33-.LEHB33
 1433 00ca 00       		.uleb128 0
 1434 00cb 00       		.uleb128 0
 1435              	.LLSDACSE1541:
 1436              		.text
 1438 0589 90       		.align 2
 1439 058a 660F1F44 		.p2align 4,,15
 1439      0000
 1441              	_ZN12_GLOBAL__N_156TestTestRunnerFixtureFailureCountIsZeroWhenNoTestsAreRunD0Ev:
 1442              	.LFB1545:
 1443              		.cfi_startproc
 1444              		.cfi_personality 0x9b,DW.ref.__gxx_personality_v0
 1445              		.cfi_lsda 0x1b,.LLSDA1545
 1446 0590 55       		pushq	%rbp
 1447              		.cfi_def_cfa_offset 16
 1448              		.cfi_offset 6, -16
 1449 0591 488D0500 		leaq	16+_ZTVN12_GLOBAL__N_156TestTestRunnerFixtureFailureCountIsZeroWhenNoTestsAreRunE(%rip), %rax
 1449      000000
 1450 0598 53       		pushq	%rbx
 1451              		.cfi_def_cfa_offset 24
 1452              		.cfi_offset 3, -24
 1453 0599 4889FB   		movq	%rdi, %rbx
 1454 059c 4883EC08 		subq	$8, %rsp
 1455              		.cfi_def_cfa_offset 32
 1456 05a0 488907   		movq	%rax, (%rdi)
 1457              	.LEHB34:
 1458 05a3 E8000000 		call	_ZN8UnitTest4TestD2Ev@PLT
 1458      00
 1459              	.LEHE34:
 1460 05a8 4883C408 		addq	$8, %rsp
 1461              		.cfi_remember_state
 1462              		.cfi_def_cfa_offset 24
 1463 05ac 4889DF   		movq	%rbx, %rdi
 1464 05af 5B       		popq	%rbx
 1465              		.cfi_def_cfa_offset 16
 1466 05b0 5D       		popq	%rbp
 1467              		.cfi_def_cfa_offset 8
 1468 05b1 E9000000 		jmp	_ZdlPv@PLT
 1468      00
 1469              	.L100:
 1470              		.cfi_restore_state
 1471 05b6 4889C5   		movq	%rax, %rbp
 1472 05b9 4889DF   		movq	%rbx, %rdi
 1473 05bc E8000000 		call	_ZdlPv@PLT
 1473      00
 1474 05c1 4889EF   		movq	%rbp, %rdi
 1475              	.LEHB35:
 1476 05c4 E8000000 		call	_Unwind_Resume@PLT
 1476      00
 1477              	.LEHE35:
 1478              		.cfi_endproc
 1479              	.LFE1545:
 1480              		.section	.gcc_except_table
 1481              	.LLSDA1545:
 1482 00cc FF       		.byte	0xff
 1483 00cd FF       		.byte	0xff
 1484 00ce 01       		.byte	0x1
 1485 00cf 08       		.uleb128 .LLSDACSE1545-.LLSDACSB1545
 1486              	.LLSDACSB1545:
 1487 00d0 13       		.uleb128 .LEHB34-.LFB1545
 1488 00d1 05       		.uleb128 .LEHE34-.LEHB34
 1489 00d2 26       		.uleb128 .L100-.LFB1545
 1490 00d3 00       		.uleb128 0
 1491 00d4 34       		.uleb128 .LEHB35-.LFB1545
 1492 00d5 05       		.uleb128 .LEHE35-.LEHB35
 1493 00d6 00       		.uleb128 0
 1494 00d7 00       		.uleb128 0
 1495              	.LLSDACSE1545:
 1496              		.text
 1498 05c9 90       		.align 2
 1499 05ca 660F1F44 		.p2align 4,,15
 1499      0000
 1501              	_ZN12_GLOBAL__N_154TestTestRunnerFixtureTestFinishIsCalledWithCorrectTimeD0Ev:
 1502              	.LFB1549:
 1503              		.cfi_startproc
 1504              		.cfi_personality 0x9b,DW.ref.__gxx_personality_v0
 1505              		.cfi_lsda 0x1b,.LLSDA1549
 1506 05d0 55       		pushq	%rbp
 1507              		.cfi_def_cfa_offset 16
 1508              		.cfi_offset 6, -16
 1509 05d1 488D0500 		leaq	16+_ZTVN12_GLOBAL__N_154TestTestRunnerFixtureTestFinishIsCalledWithCorrectTimeE(%rip), %rax
 1509      000000
 1510 05d8 53       		pushq	%rbx
 1511              		.cfi_def_cfa_offset 24
 1512              		.cfi_offset 3, -24
 1513 05d9 4889FB   		movq	%rdi, %rbx
 1514 05dc 4883EC08 		subq	$8, %rsp
 1515              		.cfi_def_cfa_offset 32
 1516 05e0 488907   		movq	%rax, (%rdi)
 1517              	.LEHB36:
 1518 05e3 E8000000 		call	_ZN8UnitTest4TestD2Ev@PLT
 1518      00
 1519              	.LEHE36:
 1520 05e8 4883C408 		addq	$8, %rsp
 1521              		.cfi_remember_state
 1522              		.cfi_def_cfa_offset 24
 1523 05ec 4889DF   		movq	%rbx, %rdi
 1524 05ef 5B       		popq	%rbx
 1525              		.cfi_def_cfa_offset 16
 1526 05f0 5D       		popq	%rbp
 1527              		.cfi_def_cfa_offset 8
 1528 05f1 E9000000 		jmp	_ZdlPv@PLT
 1528      00
 1529              	.L104:
 1530              		.cfi_restore_state
 1531 05f6 4889C5   		movq	%rax, %rbp
 1532 05f9 4889DF   		movq	%rbx, %rdi
 1533 05fc E8000000 		call	_ZdlPv@PLT
 1533      00
 1534 0601 4889EF   		movq	%rbp, %rdi
 1535              	.LEHB37:
 1536 0604 E8000000 		call	_Unwind_Resume@PLT
 1536      00
 1537              	.LEHE37:
 1538              		.cfi_endproc
 1539              	.LFE1549:
 1540              		.section	.gcc_except_table
 1541              	.LLSDA1549:
 1542 00d8 FF       		.byte	0xff
 1543 00d9 FF       		.byte	0xff
 1544 00da 01       		.byte	0x1
 1545 00db 08       		.uleb128 .LLSDACSE1549-.LLSDACSB1549
 1546              	.LLSDACSB1549:
 1547 00dc 13       		.uleb128 .LEHB36-.LFB1549
 1548 00dd 05       		.uleb128 .LEHE36-.LEHB36
 1549 00de 26       		.uleb128 .L104-.LFB1549
 1550 00df 00       		.uleb128 0
 1551 00e0 34       		.uleb128 .LEHB37-.LFB1549
 1552 00e1 05       		.uleb128 .LEHE37-.LEHB37
 1553 00e2 00       		.uleb128 0
 1554 00e3 00       		.uleb128 0
 1555              	.LLSDACSE1549:
 1556              		.text
 1558 0609 90       		.align 2
 1559 060a 660F1F44 		.p2align 4,,15
 1559      0000
 1561              	_ZN12_GLOBAL__N_150TestTestRunnerFixtureTestFinishIsReportedCorrectlyD0Ev:
 1562              	.LFB1557:
 1563              		.cfi_startproc
 1564              		.cfi_personality 0x9b,DW.ref.__gxx_personality_v0
 1565              		.cfi_lsda 0x1b,.LLSDA1557
 1566 0610 55       		pushq	%rbp
 1567              		.cfi_def_cfa_offset 16
 1568              		.cfi_offset 6, -16
 1569 0611 488D0500 		leaq	16+_ZTVN12_GLOBAL__N_150TestTestRunnerFixtureTestFinishIsReportedCorrectlyE(%rip), %rax
 1569      000000
 1570 0618 53       		pushq	%rbx
 1571              		.cfi_def_cfa_offset 24
 1572              		.cfi_offset 3, -24
 1573 0619 4889FB   		movq	%rdi, %rbx
 1574 061c 4883EC08 		subq	$8, %rsp
 1575              		.cfi_def_cfa_offset 32
 1576 0620 488907   		movq	%rax, (%rdi)
 1577              	.LEHB38:
 1578 0623 E8000000 		call	_ZN8UnitTest4TestD2Ev@PLT
 1578      00
 1579              	.LEHE38:
 1580 0628 4883C408 		addq	$8, %rsp
 1581              		.cfi_remember_state
 1582              		.cfi_def_cfa_offset 24
 1583 062c 4889DF   		movq	%rbx, %rdi
 1584 062f 5B       		popq	%rbx
 1585              		.cfi_def_cfa_offset 16
 1586 0630 5D       		popq	%rbp
 1587              		.cfi_def_cfa_offset 8
 1588 0631 E9000000 		jmp	_ZdlPv@PLT
 1588      00
 1589              	.L108:
 1590              		.cfi_restore_state
 1591 0636 4889C5   		movq	%rax, %rbp
 1592 0639 4889DF   		movq	%rbx, %rdi
 1593 063c E8000000 		call	_ZdlPv@PLT
 1593      00
 1594 0641 4889EF   		movq	%rbp, %rdi
 1595              	.LEHB39:
 1596 0644 E8000000 		call	_Unwind_Resume@PLT
 1596      00
 1597              	.LEHE39:
 1598              		.cfi_endproc
 1599              	.LFE1557:
 1600              		.section	.gcc_except_table
 1601              	.LLSDA1557:
 1602 00e4 FF       		.byte	0xff
 1603 00e5 FF       		.byte	0xff
 1604 00e6 01       		.byte	0x1
 1605 00e7 08       		.uleb128 .LLSDACSE1557-.LLSDACSB1557
 1606              	.LLSDACSB1557:
 1607 00e8 13       		.uleb128 .LEHB38-.LFB1557
 1608 00e9 05       		.uleb128 .LEHE38-.LEHB38
 1609 00ea 26       		.uleb128 .L108-.LFB1557
 1610 00eb 00       		.uleb128 0
 1611 00ec 34       		.uleb128 .LEHB39-.LFB1557
 1612 00ed 05       		.uleb128 .LEHE39-.LEHB39
 1613 00ee 00       		.uleb128 0
 1614 00ef 00       		.uleb128 0
 1615              	.LLSDACSE1557:
 1616              		.text
 1618 0649 90       		.align 2
 1619 064a 660F1F44 		.p2align 4,,15
 1619      0000
 1621              	_ZN12_GLOBAL__N_149TestTestRunnerFixtureTestStartIsReportedCorrectlyD0Ev:
 1622              	.LFB1561:
 1623              		.cfi_startproc
 1624              		.cfi_personality 0x9b,DW.ref.__gxx_personality_v0
 1625              		.cfi_lsda 0x1b,.LLSDA1561
 1626 0650 55       		pushq	%rbp
 1627              		.cfi_def_cfa_offset 16
 1628              		.cfi_offset 6, -16
 1629 0651 488D0500 		leaq	16+_ZTVN12_GLOBAL__N_149TestTestRunnerFixtureTestStartIsReportedCorrectlyE(%rip), %rax
 1629      000000
 1630 0658 53       		pushq	%rbx
 1631              		.cfi_def_cfa_offset 24
 1632              		.cfi_offset 3, -24
 1633 0659 4889FB   		movq	%rdi, %rbx
 1634 065c 4883EC08 		subq	$8, %rsp
 1635              		.cfi_def_cfa_offset 32
 1636 0660 488907   		movq	%rax, (%rdi)
 1637              	.LEHB40:
 1638 0663 E8000000 		call	_ZN8UnitTest4TestD2Ev@PLT
 1638      00
 1639              	.LEHE40:
 1640 0668 4883C408 		addq	$8, %rsp
 1641              		.cfi_remember_state
 1642              		.cfi_def_cfa_offset 24
 1643 066c 4889DF   		movq	%rbx, %rdi
 1644 066f 5B       		popq	%rbx
 1645              		.cfi_def_cfa_offset 16
 1646 0670 5D       		popq	%rbp
 1647              		.cfi_def_cfa_offset 8
 1648 0671 E9000000 		jmp	_ZdlPv@PLT
 1648      00
 1649              	.L112:
 1650              		.cfi_restore_state
 1651 0676 4889C5   		movq	%rax, %rbp
 1652 0679 4889DF   		movq	%rbx, %rdi
 1653 067c E8000000 		call	_ZdlPv@PLT
 1653      00
 1654 0681 4889EF   		movq	%rbp, %rdi
 1655              	.LEHB41:
 1656 0684 E8000000 		call	_Unwind_Resume@PLT
 1656      00
 1657              	.LEHE41:
 1658              		.cfi_endproc
 1659              	.LFE1561:
 1660              		.section	.gcc_except_table
 1661              	.LLSDA1561:
 1662 00f0 FF       		.byte	0xff
 1663 00f1 FF       		.byte	0xff
 1664 00f2 01       		.byte	0x1
 1665 00f3 08       		.uleb128 .LLSDACSE1561-.LLSDACSB1561
 1666              	.LLSDACSB1561:
 1667 00f4 13       		.uleb128 .LEHB40-.LFB1561
 1668 00f5 05       		.uleb128 .LEHE40-.LEHB40
 1669 00f6 26       		.uleb128 .L112-.LFB1561
 1670 00f7 00       		.uleb128 0
 1671 00f8 34       		.uleb128 .LEHB41-.LFB1561
 1672 00f9 05       		.uleb128 .LEHE41-.LEHB41
 1673 00fa 00       		.uleb128 0
 1674 00fb 00       		.uleb128 0
 1675              	.LLSDACSE1561:
 1676              		.text
 1678              		.section	.text._ZN17RecordingReporterD2Ev,"axG",@progbits,_ZN17RecordingReporterD5Ev,comdat
 1679              		.align 2
 1680              		.p2align 4,,15
 1681              		.weak	_ZN17RecordingReporterD2Ev
 1683              	_ZN17RecordingReporterD2Ev:
 1684              	.LFB1567:
 1685              		.cfi_startproc
 1686 0000 488D0500 		leaq	16+_ZTV17RecordingReporter(%rip), %rax
 1686      000000
 1687 0007 488907   		movq	%rax, (%rdi)
 1688 000a E9000000 		jmp	_ZN8UnitTest12TestReporterD2Ev@PLT
 1688      00
 1689              		.cfi_endproc
 1690              	.LFE1567:
 1692              		.weak	_ZN17RecordingReporterD1Ev
 1693              		.set	_ZN17RecordingReporterD1Ev,_ZN17RecordingReporterD2Ev
 1694              		.section	.text._ZN17RecordingReporterD0Ev,"axG",@progbits,_ZN17RecordingReporterD5Ev,comdat
 1695              		.align 2
 1696              		.p2align 4,,15
 1697              		.weak	_ZN17RecordingReporterD0Ev
 1699              	_ZN17RecordingReporterD0Ev:
 1700              	.LFB1569:
 1701              		.cfi_startproc
 1702              		.cfi_personality 0x9b,DW.ref.__gxx_personality_v0
 1703              		.cfi_lsda 0x1b,.LLSDA1569
 1704 0000 55       		pushq	%rbp
 1705              		.cfi_def_cfa_offset 16
 1706              		.cfi_offset 6, -16
 1707 0001 488D0500 		leaq	16+_ZTV17RecordingReporter(%rip), %rax
 1707      000000
 1708 0008 53       		pushq	%rbx
 1709              		.cfi_def_cfa_offset 24
 1710              		.cfi_offset 3, -24
 1711 0009 4889FB   		movq	%rdi, %rbx
 1712 000c 4883EC08 		subq	$8, %rsp
 1713              		.cfi_def_cfa_offset 32
 1714 0010 488907   		movq	%rax, (%rdi)
 1715              	.LEHB42:
 1716 0013 E8000000 		call	_ZN8UnitTest12TestReporterD2Ev@PLT
 1716      00
 1717              	.LEHE42:
 1718 0018 4883C408 		addq	$8, %rsp
 1719              		.cfi_remember_state
 1720              		.cfi_def_cfa_offset 24
 1721 001c 4889DF   		movq	%rbx, %rdi
 1722 001f 5B       		popq	%rbx
 1723              		.cfi_def_cfa_offset 16
 1724 0020 5D       		popq	%rbp
 1725              		.cfi_def_cfa_offset 8
 1726 0021 E9000000 		jmp	_ZdlPv@PLT
 1726      00
 1727              	.L117:
 1728              		.cfi_restore_state
 1729 0026 4889C5   		movq	%rax, %rbp
 1730 0029 4889DF   		movq	%rbx, %rdi
 1731 002c E8000000 		call	_ZdlPv@PLT
 1731      00
 1732 0031 4889EF   		movq	%rbp, %rdi
 1733              	.LEHB43:
 1734 0034 E8000000 		call	_Unwind_Resume@PLT
 1734      00
 1735              	.LEHE43:
 1736              		.cfi_endproc
 1737              	.LFE1569:
 1738              		.section	.gcc_except_table
 1739              	.LLSDA1569:
 1740 00fc FF       		.byte	0xff
 1741 00fd FF       		.byte	0xff
 1742 00fe 01       		.byte	0x1
 1743 00ff 08       		.uleb128 .LLSDACSE1569-.LLSDACSB1569
 1744              	.LLSDACSB1569:
 1745 0100 13       		.uleb128 .LEHB42-.LFB1569
 1746 0101 05       		.uleb128 .LEHE42-.LEHB42
 1747 0102 26       		.uleb128 .L117-.LFB1569
 1748 0103 00       		.uleb128 0
 1749 0104 34       		.uleb128 .LEHB43-.LFB1569
 1750 0105 05       		.uleb128 .LEHE43-.LEHB43
 1751 0106 00       		.uleb128 0
 1752 0107 00       		.uleb128 0
 1753              	.LLSDACSE1569:
 1754              		.section	.text._ZN17RecordingReporterD0Ev,"axG",@progbits,_ZN17RecordingReporterD5Ev,comdat
 1756              		.section	.text.unlikely,"ax",@progbits
 1757              		.align 2
 1759              	_ZN12_GLOBAL__N_111FixtureBaseD2Ev:
 1760              	.LFB1163:
 1761              		.cfi_startproc
 1762              		.cfi_personality 0x9b,DW.ref.__gxx_personality_v0
 1763              		.cfi_lsda 0x1b,.LLSDA1163
 1764 0000 55       		pushq	%rbp
 1765              		.cfi_def_cfa_offset 16
 1766              		.cfi_offset 6, -16
 1767 0001 488D0500 		leaq	16+_ZTV17RecordingReporter(%rip), %rax
 1767      000000
 1768 0008 53       		pushq	%rbx
 1769              		.cfi_def_cfa_offset 24
 1770              		.cfi_offset 3, -24
 1771 0009 4889FB   		movq	%rdi, %rbx
 1772 000c 488D7F18 		leaq	24(%rdi), %rdi
 1773 0010 4883EC08 		subq	$8, %rsp
 1774              		.cfi_def_cfa_offset 32
 1775 0014 488907   		movq	%rax, (%rdi)
 1776              	.LEHB44:
 1777 0017 E8000000 		call	_ZN8UnitTest12TestReporterD2Ev@PLT
 1777      00
 1778              	.LEHE44:
 1779 001c 58       		popq	%rax
 1780              		.cfi_remember_state
 1781              		.cfi_def_cfa_offset 24
 1782 001d 4889DF   		movq	%rbx, %rdi
 1783 0020 5B       		popq	%rbx
 1784              		.cfi_def_cfa_offset 16
 1785 0021 5D       		popq	%rbp
 1786              		.cfi_def_cfa_offset 8
 1787              	.LEHB45:
 1788 0022 E9000000 		jmp	_ZN8UnitTest10TestRunnerD1Ev@PLT
 1788      00
 1789              	.LEHE45:
 1790              	.L121:
 1791              		.cfi_restore_state
 1792 0027 4889C5   		movq	%rax, %rbp
 1793 002a 4889DF   		movq	%rbx, %rdi
 1794 002d E8000000 		call	_ZN8UnitTest10TestRunnerD1Ev@PLT
 1794      00
 1795 0032 4889EF   		movq	%rbp, %rdi
 1796              	.LEHB46:
 1797 0035 E8000000 		call	_Unwind_Resume@PLT
 1797      00
 1798              	.LEHE46:
 1799              		.cfi_endproc
 1800              	.LFE1163:
 1801              		.section	.gcc_except_table
 1802              	.LLSDA1163:
 1803 0108 FF       		.byte	0xff
 1804 0109 FF       		.byte	0xff
 1805 010a 01       		.byte	0x1
 1806 010b 0C       		.uleb128 .LLSDACSE1163-.LLSDACSB1163
 1807              	.LLSDACSB1163:
 1808 010c 17       		.uleb128 .LEHB44-.LFB1163
 1809 010d 05       		.uleb128 .LEHE44-.LEHB44
 1810 010e 27       		.uleb128 .L121-.LFB1163
 1811 010f 00       		.uleb128 0
 1812 0110 22       		.uleb128 .LEHB45-.LFB1163
 1813 0111 05       		.uleb128 .LEHE45-.LEHB45
 1814 0112 00       		.uleb128 0
 1815 0113 00       		.uleb128 0
 1816 0114 35       		.uleb128 .LEHB46-.LFB1163
 1817 0115 05       		.uleb128 .LEHE46-.LEHB46
 1818 0116 00       		.uleb128 0
 1819 0117 00       		.uleb128 0
 1820              	.LLSDACSE1163:
 1821              		.section	.text.unlikely
 1823              		.text
 1824 0689 90       		.align 2
 1825 068a 660F1F44 		.p2align 4,,15
 1825      0000
 1827              	_ZZN12_GLOBAL__N_154TestRunnerFixtureSlowTestWithTimeExemptionPassesHelper7RunImplEvENK16SlowExempt
 1828              	.LFB1319:
 1829              		.cfi_startproc
 1830 0690 C6473001 		movb	$1, 48(%rdi)
 1831 0694 BF140000 		movl	$20, %edi
 1831      00
 1832 0699 E9000000 		jmp	_ZN8UnitTest11TimeHelpers7SleepMsEi@PLT
 1832      00
 1833              		.cfi_endproc
 1834              	.LFE1319:
 1836              		.align 2
 1837 069e 6690     		.p2align 4,,15
 1839              	_ZNK12_GLOBAL__N_18SlowTest7RunImplEv:
 1840              	.LFB1194:
 1841              		.cfi_startproc
 1842 06a0 BF140000 		movl	$20, %edi
 1842      00
 1843 06a5 E9000000 		jmp	_ZN8UnitTest11TimeHelpers7SleepMsEi@PLT
 1843      00
 1844              		.cfi_endproc
 1845              	.LFE1194:
 1847              		.section	.rodata.str1.1,"aMS",@progbits,1
 1848              	.LC0:
 1849 0000 66696C65 		.string	"file"
 1849      00
 1850              	.LC1:
 1851 0005 64657363 		.string	"desc"
 1851      00
 1852              	.LC2:
 1853 000a 6D657373 		.string	"message"
 1853      61676500 
 1854              		.text
 1855              		.align 2
 1856 06aa 660F1F44 		.p2align 4,,15
 1856      0000
 1858              	_ZNK12_GLOBAL__N_18MockTest7RunImplEv:
 1859              	.LFB1155:
 1860              		.cfi_startproc
 1861 06b0 4155     		pushq	%r13
 1862              		.cfi_def_cfa_offset 16
 1863              		.cfi_offset 13, -16
 1864 06b2 4154     		pushq	%r12
 1865              		.cfi_def_cfa_offset 24
 1866              		.cfi_offset 12, -24
 1867 06b4 55       		pushq	%rbp
 1868              		.cfi_def_cfa_offset 32
 1869              		.cfi_offset 6, -32
 1870 06b5 53       		pushq	%rbx
 1871              		.cfi_def_cfa_offset 40
 1872              		.cfi_offset 3, -40
 1873 06b6 4889FD   		movq	%rdi, %rbp
 1874 06b9 4883EC08 		subq	$8, %rsp
 1875              		.cfi_def_cfa_offset 48
 1876 06bd E8000000 		call	_ZN8UnitTest11CurrentTest7ResultsEv@PLT
 1876      00
 1877 06c2 4C8B20   		movq	(%rax), %r12
 1878 06c5 8B4534   		movl	52(%rbp), %eax
 1879 06c8 85C0     		testl	%eax, %eax
 1880 06ca 7E3E     		jle	.L125
 1881 06cc 31DB     		xorl	%ebx, %ebx
 1882 06ce 4C8D6D08 		leaq	8(%rbp), %r13
 1883 06d2 EB11     		jmp	.L129
 1884              		.p2align 4,,10
 1885 06d4 0F1F4000 		.p2align 3
 1886              	.L127:
 1887 06d8 807D3100 		cmpb	$0, 49(%rbp)
 1888 06dc 743A     		je	.L132
 1889              	.L128:
 1890 06de 83C301   		addl	$1, %ebx
 1891 06e1 39C3     		cmpl	%eax, %ebx
 1892 06e3 7D25     		jge	.L125
 1893              	.L129:
 1894 06e5 807D3200 		cmpb	$0, 50(%rbp)
 1895 06e9 74ED     		je	.L127
 1896 06eb 488D3500 		leaq	.LC0(%rip), %rsi
 1896      000000
 1897 06f2 488D3D00 		leaq	.LC1(%rip), %rdi
 1897      000000
 1898 06f9 31D2     		xorl	%edx, %edx
 1899 06fb 83C301   		addl	$1, %ebx
 1900 06fe E8000000 		call	_ZN8UnitTest12ReportAssertEPKcS1_i@PLT
 1900      00
 1901 0703 8B4534   		movl	52(%rbp), %eax
 1902 0706 39C3     		cmpl	%eax, %ebx
 1903 0708 7CDB     		jl	.L129
 1904              	.L125:
 1905 070a 4883C408 		addq	$8, %rsp
 1906              		.cfi_remember_state
 1907              		.cfi_def_cfa_offset 40
 1908 070e 5B       		popq	%rbx
 1909              		.cfi_def_cfa_offset 32
 1910 070f 5D       		popq	%rbp
 1911              		.cfi_def_cfa_offset 24
 1912 0710 415C     		popq	%r12
 1913              		.cfi_def_cfa_offset 16
 1914 0712 415D     		popq	%r13
 1915              		.cfi_def_cfa_offset 8
 1916 0714 C3       		ret
 1917              		.p2align 4,,10
 1918 0715 0F1F00   		.p2align 3
 1919              	.L132:
 1920              		.cfi_restore_state
 1921 0718 488D1500 		leaq	.LC2(%rip), %rdx
 1921      000000
 1922 071f 4C89EE   		movq	%r13, %rsi
 1923 0722 4C89E7   		movq	%r12, %rdi
 1924 0725 E8000000 		call	_ZN8UnitTest11TestResults13OnTestFailureERKNS_11TestDetailsEPKc@PLT
 1924      00
 1925 072a 8B4534   		movl	52(%rbp), %eax
 1926 072d EBAF     		jmp	.L128
 1927              		.cfi_endproc
 1928              	.LFE1155:
 1930              		.section	.text._ZN8UnitTest15MemoryOutStreamD1Ev,"axG",@progbits,_ZN8UnitTest15MemoryOutStreamD1Ev
 1931              		.align 2
 1932              		.p2align 4,,15
 1933              		.weak	_ZN8UnitTest15MemoryOutStreamD1Ev
 1935              	_ZN8UnitTest15MemoryOutStreamD1Ev:
 1936              	.LFB1572:
 1937              		.cfi_startproc
 1938 0000 55       		pushq	%rbp
 1939              		.cfi_def_cfa_offset 16
 1940              		.cfi_offset 6, -16
 1941 0001 488D0500 		leaq	24+_ZTVN8UnitTest15MemoryOutStreamE(%rip), %rax
 1941      000000
 1942 0008 53       		pushq	%rbx
 1943              		.cfi_def_cfa_offset 24
 1944              		.cfi_offset 3, -24
 1945 0009 4889FB   		movq	%rdi, %rbx
 1946 000c 4883EC08 		subq	$8, %rsp
 1947              		.cfi_def_cfa_offset 32
 1948 0010 488907   		movq	%rax, (%rdi)
 1949 0013 4883C028 		addq	$40, %rax
 1950 0017 48898790 		movq	%rax, 144(%rdi)
 1950      000000
 1951 001e 488B7F70 		movq	112(%rdi), %rdi
 1952 0022 488D8380 		leaq	128(%rbx), %rax
 1952      000000
 1953 0029 4839C7   		cmpq	%rax, %rdi
 1954 002c 7405     		je	.L134
 1955 002e E8000000 		call	_ZdlPv@PLT
 1955      00
 1956              	.L134:
 1957 0033 488D0500 		leaq	24+_ZTCN8UnitTest15MemoryOutStreamE0_NSt7__cxx1119basic_ostringstreamIcSt11char_traitsIcESaIc
 1957      000000
 1958 003a 488B7B50 		movq	80(%rbx), %rdi
 1959 003e 488DAB90 		leaq	144(%rbx), %rbp
 1959      000000
 1960 0045 488903   		movq	%rax, (%rbx)
 1961 0048 4883C028 		addq	$40, %rax
 1962 004c 48898390 		movq	%rax, 144(%rbx)
 1962      000000
 1963 0053 488D0500 		leaq	16+_ZTVNSt7__cxx1115basic_stringbufIcSt11char_traitsIcESaIcEEE(%rip), %rax
 1963      000000
 1964 005a 48894308 		movq	%rax, 8(%rbx)
 1965 005e 488D4360 		leaq	96(%rbx), %rax
 1966 0062 4839C7   		cmpq	%rax, %rdi
 1967 0065 7405     		je	.L135
 1968 0067 E8000000 		call	_ZdlPv@PLT
 1968      00
 1969              	.L135:
 1970 006c 488D0500 		leaq	16+_ZTVSt15basic_streambufIcSt11char_traitsIcEE(%rip), %rax
 1970      000000
 1971 0073 488D7B40 		leaq	64(%rbx), %rdi
 1972 0077 48894308 		movq	%rax, 8(%rbx)
 1973 007b E8000000 		call	_ZNSt6localeD1Ev@PLT
 1973      00
 1974 0080 488D0500 		leaq	24+_ZTCN8UnitTest15MemoryOutStreamE0_So(%rip), %rax
 1974      000000
 1975 0087 4889EF   		movq	%rbp, %rdi
 1976 008a 488903   		movq	%rax, (%rbx)
 1977 008d 488D0500 		leaq	16+_ZTVSt9basic_iosIcSt11char_traitsIcEE(%rip), %rax
 1977      000000
 1978 0094 48898390 		movq	%rax, 144(%rbx)
 1978      000000
 1979 009b 4883C408 		addq	$8, %rsp
 1980              		.cfi_def_cfa_offset 24
 1981 009f 5B       		popq	%rbx
 1982              		.cfi_def_cfa_offset 16
 1983 00a0 5D       		popq	%rbp
 1984              		.cfi_def_cfa_offset 8
 1985 00a1 E9000000 		jmp	_ZNSt8ios_baseD2Ev@PLT
 1985      00
 1986              		.cfi_endproc
 1987              	.LFE1572:
 1989              		.section	.text._ZN8UnitTest15MemoryOutStreamD0Ev,"axG",@progbits,_ZN8UnitTest15MemoryOutStreamD0Ev
 1990              		.p2align 4,,15
 1991              		.weak	_ZTv0_n24_N8UnitTest15MemoryOutStreamD0Ev
 1993              	_ZTv0_n24_N8UnitTest15MemoryOutStreamD0Ev:
 1994              	.LFB1592:
 1995              		.cfi_startproc
 1996              		.cfi_personality 0x9b,DW.ref.__gxx_personality_v0
 1997              		.cfi_lsda 0x1b,.LLSDA1592
 1998 0000 55       		pushq	%rbp
 1999              		.cfi_def_cfa_offset 16
 2000              		.cfi_offset 6, -16
 2001 0001 53       		pushq	%rbx
 2002              		.cfi_def_cfa_offset 24
 2003              		.cfi_offset 3, -24
 2004 0002 4883EC08 		subq	$8, %rsp
 2005              		.cfi_def_cfa_offset 32
 2006 0006 488B07   		movq	(%rdi), %rax
 2007 0009 480378E8 		addq	-24(%rax), %rdi
 2008 000d 488D0500 		leaq	24+_ZTVN8UnitTest15MemoryOutStreamE(%rip), %rax
 2008      000000
 2009 0014 488907   		movq	%rax, (%rdi)
 2010 0017 4883C028 		addq	$40, %rax
 2011 001b 4889FB   		movq	%rdi, %rbx
 2012 001e 48898790 		movq	%rax, 144(%rdi)
 2012      000000
 2013 0025 488B7F70 		movq	112(%rdi), %rdi
 2014 0029 488D8380 		leaq	128(%rbx), %rax
 2014      000000
 2015 0030 4839C7   		cmpq	%rax, %rdi
 2016 0033 7405     		je	.L138
 2017 0035 E8000000 		call	_ZdlPv@PLT
 2017      00
 2018              	.L138:
 2019 003a 488D0500 		leaq	24+_ZTCN8UnitTest15MemoryOutStreamE0_NSt7__cxx1119basic_ostringstreamIcSt11char_traitsIcESaIc
 2019      000000
 2020 0041 488B7B50 		movq	80(%rbx), %rdi
 2021 0045 488DAB90 		leaq	144(%rbx), %rbp
 2021      000000
 2022 004c 488903   		movq	%rax, (%rbx)
 2023 004f 4883C028 		addq	$40, %rax
 2024 0053 48898390 		movq	%rax, 144(%rbx)
 2024      000000
 2025 005a 488D0500 		leaq	16+_ZTVNSt7__cxx1115basic_stringbufIcSt11char_traitsIcESaIcEEE(%rip), %rax
 2025      000000
 2026 0061 48894308 		movq	%rax, 8(%rbx)
 2027 0065 488D4360 		leaq	96(%rbx), %rax
 2028 0069 4839C7   		cmpq	%rax, %rdi
 2029 006c 7405     		je	.L139
 2030 006e E8000000 		call	_ZdlPv@PLT
 2030      00
 2031              	.L139:
 2032 0073 488D0500 		leaq	16+_ZTVSt15basic_streambufIcSt11char_traitsIcEE(%rip), %rax
 2032      000000
 2033 007a 488D7B40 		leaq	64(%rbx), %rdi
 2034 007e 48894308 		movq	%rax, 8(%rbx)
 2035 0082 E8000000 		call	_ZNSt6localeD1Ev@PLT
 2035      00
 2036 0087 488D0500 		leaq	24+_ZTCN8UnitTest15MemoryOutStreamE0_So(%rip), %rax
 2036      000000
 2037 008e 4889EF   		movq	%rbp, %rdi
 2038 0091 488903   		movq	%rax, (%rbx)
 2039 0094 488D0500 		leaq	16+_ZTVSt9basic_iosIcSt11char_traitsIcEE(%rip), %rax
 2039      000000
 2040 009b 48898390 		movq	%rax, 144(%rbx)
 2040      000000
 2041              	.LEHB47:
 2042 00a2 E8000000 		call	_ZNSt8ios_baseD2Ev@PLT
 2042      00
 2043              	.LEHE47:
 2044 00a7 4883C408 		addq	$8, %rsp
 2045              		.cfi_remember_state
 2046              		.cfi_def_cfa_offset 24
 2047 00ab 4889DF   		movq	%rbx, %rdi
 2048 00ae 5B       		popq	%rbx
 2049              		.cfi_def_cfa_offset 16
 2050 00af 5D       		popq	%rbp
 2051              		.cfi_def_cfa_offset 8
 2052 00b0 E9000000 		jmp	_ZdlPv@PLT
 2052      00
 2053              	.L141:
 2054              		.cfi_restore_state
 2055 00b5 4889C5   		movq	%rax, %rbp
 2056 00b8 4889DF   		movq	%rbx, %rdi
 2057 00bb E8000000 		call	_ZdlPv@PLT
 2057      00
 2058 00c0 4889EF   		movq	%rbp, %rdi
 2059              	.LEHB48:
 2060 00c3 E8000000 		call	_Unwind_Resume@PLT
 2060      00
 2061              	.LEHE48:
 2062              		.cfi_endproc
 2063              	.LFE1592:
 2064              		.section	.gcc_except_table
 2065              	.LLSDA1592:
 2066 0118 FF       		.byte	0xff
 2067 0119 FF       		.byte	0xff
 2068 011a 01       		.byte	0x1
 2069 011b 0B       		.uleb128 .LLSDACSE1592-.LLSDACSB1592
 2070              	.LLSDACSB1592:
 2071 011c A201     		.uleb128 .LEHB47-.LFB1592
 2072 011e 05       		.uleb128 .LEHE47-.LEHB47
 2073 011f B501     		.uleb128 .L141-.LFB1592
 2074 0121 00       		.uleb128 0
 2075 0122 C301     		.uleb128 .LEHB48-.LFB1592
 2076 0124 05       		.uleb128 .LEHE48-.LEHB48
 2077 0125 00       		.uleb128 0
 2078 0126 00       		.uleb128 0
 2079              	.LLSDACSE1592:
 2080              		.section	.text._ZN8UnitTest15MemoryOutStreamD0Ev,"axG",@progbits,_ZN8UnitTest15MemoryOutStreamD0Ev
 2082              		.section	.text._ZN8UnitTest15MemoryOutStreamD1Ev,"axG",@progbits,_ZN8UnitTest15MemoryOutStreamD1Ev
 2083 00a6 662E0F1F 		.p2align 4,,15
 2083      84000000 
 2083      0000
 2084              		.weak	_ZTv0_n24_N8UnitTest15MemoryOutStreamD1Ev
 2086              	_ZTv0_n24_N8UnitTest15MemoryOutStreamD1Ev:
 2087              	.LFB1593:
 2088              		.cfi_startproc
 2089 00b0 55       		pushq	%rbp
 2090              		.cfi_def_cfa_offset 16
 2091              		.cfi_offset 6, -16
 2092 00b1 53       		pushq	%rbx
 2093              		.cfi_def_cfa_offset 24
 2094              		.cfi_offset 3, -24
 2095 00b2 4883EC08 		subq	$8, %rsp
 2096              		.cfi_def_cfa_offset 32
 2097 00b6 488B07   		movq	(%rdi), %rax
 2098 00b9 480378E8 		addq	-24(%rax), %rdi
 2099 00bd 488D0500 		leaq	24+_ZTVN8UnitTest15MemoryOutStreamE(%rip), %rax
 2099      000000
 2100 00c4 488907   		movq	%rax, (%rdi)
 2101 00c7 4883C028 		addq	$40, %rax
 2102 00cb 4889FB   		movq	%rdi, %rbx
 2103 00ce 48898790 		movq	%rax, 144(%rdi)
 2103      000000
 2104 00d5 488B7F70 		movq	112(%rdi), %rdi
 2105 00d9 488D8380 		leaq	128(%rbx), %rax
 2105      000000
 2106 00e0 4839C7   		cmpq	%rax, %rdi
 2107 00e3 7405     		je	.L144
 2108 00e5 E8000000 		call	_ZdlPv@PLT
 2108      00
 2109              	.L144:
 2110 00ea 488D0500 		leaq	24+_ZTCN8UnitTest15MemoryOutStreamE0_NSt7__cxx1119basic_ostringstreamIcSt11char_traitsIcESaIc
 2110      000000
 2111 00f1 488B7B50 		movq	80(%rbx), %rdi
 2112 00f5 488DAB90 		leaq	144(%rbx), %rbp
 2112      000000
 2113 00fc 488903   		movq	%rax, (%rbx)
 2114 00ff 4883C028 		addq	$40, %rax
 2115 0103 48898390 		movq	%rax, 144(%rbx)
 2115      000000
 2116 010a 488D0500 		leaq	16+_ZTVNSt7__cxx1115basic_stringbufIcSt11char_traitsIcESaIcEEE(%rip), %rax
 2116      000000
 2117 0111 48894308 		movq	%rax, 8(%rbx)
 2118 0115 488D4360 		leaq	96(%rbx), %rax
 2119 0119 4839C7   		cmpq	%rax, %rdi
 2120 011c 7405     		je	.L145
 2121 011e E8000000 		call	_ZdlPv@PLT
 2121      00
 2122              	.L145:
 2123 0123 488D0500 		leaq	16+_ZTVSt15basic_streambufIcSt11char_traitsIcEE(%rip), %rax
 2123      000000
 2124 012a 488D7B40 		leaq	64(%rbx), %rdi
 2125 012e 48894308 		movq	%rax, 8(%rbx)
 2126 0132 E8000000 		call	_ZNSt6localeD1Ev@PLT
 2126      00
 2127 0137 488D0500 		leaq	24+_ZTCN8UnitTest15MemoryOutStreamE0_So(%rip), %rax
 2127      000000
 2128 013e 4889EF   		movq	%rbp, %rdi
 2129 0141 488903   		movq	%rax, (%rbx)
 2130 0144 488D0500 		leaq	16+_ZTVSt9basic_iosIcSt11char_traitsIcEE(%rip), %rax
 2130      000000
 2131 014b 48898390 		movq	%rax, 144(%rbx)
 2131      000000
 2132 0152 4883C408 		addq	$8, %rsp
 2133              		.cfi_def_cfa_offset 24
 2134 0156 5B       		popq	%rbx
 2135              		.cfi_def_cfa_offset 16
 2136 0157 5D       		popq	%rbp
 2137              		.cfi_def_cfa_offset 8
 2138 0158 E9000000 		jmp	_ZNSt8ios_baseD2Ev@PLT
 2138      00
 2139              		.cfi_endproc
 2140              	.LFE1593:
 2142              		.section	.text._ZN8UnitTest15MemoryOutStreamD0Ev,"axG",@progbits,_ZN8UnitTest15MemoryOutStreamD0Ev
 2143              		.align 2
 2144 00c8 0F1F8400 		.p2align 4,,15
 2144      00000000 
 2145              		.weak	_ZN8UnitTest15MemoryOutStreamD0Ev
 2147              	_ZN8UnitTest15MemoryOutStreamD0Ev:
 2148              	.LFB1573:
 2149              		.cfi_startproc
 2150              		.cfi_personality 0x9b,DW.ref.__gxx_personality_v0
 2151              		.cfi_lsda 0x1b,.LLSDA1573
 2152 00d0 55       		pushq	%rbp
 2153              		.cfi_def_cfa_offset 16
 2154              		.cfi_offset 6, -16
 2155 00d1 488D0500 		leaq	24+_ZTVN8UnitTest15MemoryOutStreamE(%rip), %rax
 2155      000000
 2156 00d8 53       		pushq	%rbx
 2157              		.cfi_def_cfa_offset 24
 2158              		.cfi_offset 3, -24
 2159 00d9 4889FB   		movq	%rdi, %rbx
 2160 00dc 4883EC08 		subq	$8, %rsp
 2161              		.cfi_def_cfa_offset 32
 2162 00e0 488907   		movq	%rax, (%rdi)
 2163 00e3 4883C028 		addq	$40, %rax
 2164 00e7 48898790 		movq	%rax, 144(%rdi)
 2164      000000
 2165 00ee 488B7F70 		movq	112(%rdi), %rdi
 2166 00f2 488D8380 		leaq	128(%rbx), %rax
 2166      000000
 2167 00f9 4839C7   		cmpq	%rax, %rdi
 2168 00fc 7405     		je	.L148
 2169 00fe E8000000 		call	_ZdlPv@PLT
 2169      00
 2170              	.L148:
 2171 0103 488D0500 		leaq	24+_ZTCN8UnitTest15MemoryOutStreamE0_NSt7__cxx1119basic_ostringstreamIcSt11char_traitsIcESaIc
 2171      000000
 2172 010a 488B7B50 		movq	80(%rbx), %rdi
 2173 010e 488DAB90 		leaq	144(%rbx), %rbp
 2173      000000
 2174 0115 488903   		movq	%rax, (%rbx)
 2175 0118 4883C028 		addq	$40, %rax
 2176 011c 48898390 		movq	%rax, 144(%rbx)
 2176      000000
 2177 0123 488D0500 		leaq	16+_ZTVNSt7__cxx1115basic_stringbufIcSt11char_traitsIcESaIcEEE(%rip), %rax
 2177      000000
 2178 012a 48894308 		movq	%rax, 8(%rbx)
 2179 012e 488D4360 		leaq	96(%rbx), %rax
 2180 0132 4839C7   		cmpq	%rax, %rdi
 2181 0135 7405     		je	.L149
 2182 0137 E8000000 		call	_ZdlPv@PLT
 2182      00
 2183              	.L149:
 2184 013c 488D0500 		leaq	16+_ZTVSt15basic_streambufIcSt11char_traitsIcEE(%rip), %rax
 2184      000000
 2185 0143 488D7B40 		leaq	64(%rbx), %rdi
 2186 0147 48894308 		movq	%rax, 8(%rbx)
 2187 014b E8000000 		call	_ZNSt6localeD1Ev@PLT
 2187      00
 2188 0150 488D0500 		leaq	24+_ZTCN8UnitTest15MemoryOutStreamE0_So(%rip), %rax
 2188      000000
 2189 0157 4889EF   		movq	%rbp, %rdi
 2190 015a 488903   		movq	%rax, (%rbx)
 2191 015d 488D0500 		leaq	16+_ZTVSt9basic_iosIcSt11char_traitsIcEE(%rip), %rax
 2191      000000
 2192 0164 48898390 		movq	%rax, 144(%rbx)
 2192      000000
 2193              	.LEHB49:
 2194 016b E8000000 		call	_ZNSt8ios_baseD2Ev@PLT
 2194      00
 2195              	.LEHE49:
 2196 0170 4883C408 		addq	$8, %rsp
 2197              		.cfi_remember_state
 2198              		.cfi_def_cfa_offset 24
 2199 0174 4889DF   		movq	%rbx, %rdi
 2200 0177 5B       		popq	%rbx
 2201              		.cfi_def_cfa_offset 16
 2202 0178 5D       		popq	%rbp
 2203              		.cfi_def_cfa_offset 8
 2204 0179 E9000000 		jmp	_ZdlPv@PLT
 2204      00
 2205              	.L151:
 2206              		.cfi_restore_state
 2207 017e 4889C5   		movq	%rax, %rbp
 2208 0181 4889DF   		movq	%rbx, %rdi
 2209 0184 E8000000 		call	_ZdlPv@PLT
 2209      00
 2210 0189 4889EF   		movq	%rbp, %rdi
 2211              	.LEHB50:
 2212 018c E8000000 		call	_Unwind_Resume@PLT
 2212      00
 2213              	.LEHE50:
 2214              		.cfi_endproc
 2215              	.LFE1573:
 2216              		.section	.gcc_except_table
 2217              	.LLSDA1573:
 2218 0127 FF       		.byte	0xff
 2219 0128 FF       		.byte	0xff
 2220 0129 01       		.byte	0x1
 2221 012a 0B       		.uleb128 .LLSDACSE1573-.LLSDACSB1573
 2222              	.LLSDACSB1573:
 2223 012b 9B01     		.uleb128 .LEHB49-.LFB1573
 2224 012d 05       		.uleb128 .LEHE49-.LEHB49
 2225 012e AE01     		.uleb128 .L151-.LFB1573
 2226 0130 00       		.uleb128 0
 2227 0131 BC01     		.uleb128 .LEHB50-.LFB1573
 2228 0133 05       		.uleb128 .LEHE50-.LEHB50
 2229 0134 00       		.uleb128 0
 2230 0135 00       		.uleb128 0
 2231              	.LLSDACSE1573:
 2232              		.section	.text._ZN8UnitTest15MemoryOutStreamD0Ev,"axG",@progbits,_ZN8UnitTest15MemoryOutStreamD0Ev
 2234              		.section	.text._ZNSt7__cxx1115basic_stringbufIcSt11char_traitsIcESaIcEED2Ev,"axG",@progbits,_ZNSt7
 2235              		.align 2
 2236              		.p2align 4,,15
 2237              		.weak	_ZNSt7__cxx1115basic_stringbufIcSt11char_traitsIcESaIcEED2Ev
 2239              	_ZNSt7__cxx1115basic_stringbufIcSt11char_traitsIcESaIcEED2Ev:
 2240              	.LFB1387:
 2241              		.cfi_startproc
 2242 0000 488D0500 		leaq	16+_ZTVNSt7__cxx1115basic_stringbufIcSt11char_traitsIcESaIcEEE(%rip), %rax
 2242      000000
 2243 0007 53       		pushq	%rbx
 2244              		.cfi_def_cfa_offset 16
 2245              		.cfi_offset 3, -16
 2246 0008 4889FB   		movq	%rdi, %rbx
 2247 000b 488907   		movq	%rax, (%rdi)
 2248 000e 488B7F48 		movq	72(%rdi), %rdi
 2249 0012 488D4358 		leaq	88(%rbx), %rax
 2250 0016 4839C7   		cmpq	%rax, %rdi
 2251 0019 7405     		je	.L154
 2252 001b E8000000 		call	_ZdlPv@PLT
 2252      00
 2253              	.L154:
 2254 0020 488D0500 		leaq	16+_ZTVSt15basic_streambufIcSt11char_traitsIcEE(%rip), %rax
 2254      000000
 2255 0027 488D7B38 		leaq	56(%rbx), %rdi
 2256 002b 488903   		movq	%rax, (%rbx)
 2257 002e 5B       		popq	%rbx
 2258              		.cfi_def_cfa_offset 8
 2259 002f E9000000 		jmp	_ZNSt6localeD1Ev@PLT
 2259      00
 2260              		.cfi_endproc
 2261              	.LFE1387:
 2263              		.weak	_ZNSt7__cxx1115basic_stringbufIcSt11char_traitsIcESaIcEED1Ev
 2264              		.set	_ZNSt7__cxx1115basic_stringbufIcSt11char_traitsIcESaIcEED1Ev,_ZNSt7__cxx1115basic_stringbufIc
 2265              		.section	.text._ZN8UnitTest15MemoryOutStreamC1Ev,"axG",@progbits,_ZN8UnitTest15MemoryOutStreamC1Ev
 2266              		.align 2
 2267              		.p2align 4,,15
 2268              		.weak	_ZN8UnitTest15MemoryOutStreamC1Ev
 2270              	_ZN8UnitTest15MemoryOutStreamC1Ev:
 2271              	.LFB1103:
 2272              		.cfi_startproc
 2273              		.cfi_personality 0x9b,DW.ref.__gxx_personality_v0
 2274              		.cfi_lsda 0x1b,.LLSDA1103
 2275 0000 4156     		pushq	%r14
 2276              		.cfi_def_cfa_offset 16
 2277              		.cfi_offset 14, -16
 2278 0002 4155     		pushq	%r13
 2279              		.cfi_def_cfa_offset 24
 2280              		.cfi_offset 13, -24
 2281 0004 4154     		pushq	%r12
 2282              		.cfi_def_cfa_offset 32
 2283              		.cfi_offset 12, -32
 2284 0006 55       		pushq	%rbp
 2285              		.cfi_def_cfa_offset 40
 2286              		.cfi_offset 6, -40
 2287 0007 488DAF90 		leaq	144(%rdi), %rbp
 2287      000000
 2288 000e 53       		pushq	%rbx
 2289              		.cfi_def_cfa_offset 48
 2290              		.cfi_offset 3, -48
 2291 000f 4C8D2500 		leaq	24+_ZTCN8UnitTest15MemoryOutStreamE0_So(%rip), %r12
 2291      000000
 2292 0016 4889FB   		movq	%rdi, %rbx
 2293 0019 4889EF   		movq	%rbp, %rdi
 2294 001c E8000000 		call	_ZNSt8ios_baseC2Ev@PLT
 2294      00
 2295 0021 498D4424 		leaq	40(%r12), %rax
 2295      28
 2296 0026 48C78368 		movq	$0, 360(%rbx)
 2296      01000000 
 2296      000000
 2297 0031 C6837001 		movb	$0, 368(%rbx)
 2297      000000
 2298 0038 C6837101 		movb	$0, 369(%rbx)
 2298      000000
 2299 003f 48C78378 		movq	$0, 376(%rbx)
 2299      01000000 
 2299      000000
 2300 004a 31F6     		xorl	%esi, %esi
 2301 004c 48C78380 		movq	$0, 384(%rbx)
 2301      01000000 
 2301      000000
 2302 0057 48C78388 		movq	$0, 392(%rbx)
 2302      01000000 
 2302      000000
 2303 0062 4889EF   		movq	%rbp, %rdi
 2304 0065 48C78390 		movq	$0, 400(%rbx)
 2304      01000000 
 2304      000000
 2305 0070 4C8923   		movq	%r12, (%rbx)
 2306 0073 48898390 		movq	%rax, 144(%rbx)
 2306      000000
 2307              	.LEHB51:
 2308 007a E8000000 		call	_ZNSt9basic_iosIcSt11char_traitsIcEE4initEPSt15basic_streambufIcS1_E@PLT
 2308      00
 2309              	.LEHE51:
 2310 007f 488D0500 		leaq	24+_ZTCN8UnitTest15MemoryOutStreamE0_NSt7__cxx1119basic_ostringstreamIcSt11char_traitsIcESaIc
 2310      000000
 2311 0086 488D7B40 		leaq	64(%rbx), %rdi
 2312 008a 48C74310 		movq	$0, 16(%rbx)
 2312      00000000 
 2313 0092 48C74318 		movq	$0, 24(%rbx)
 2313      00000000 
 2314 009a 48C74320 		movq	$0, 32(%rbx)
 2314      00000000 
 2315 00a2 4C8D6B08 		leaq	8(%rbx), %r13
 2316 00a6 488903   		movq	%rax, (%rbx)
 2317 00a9 4883C028 		addq	$40, %rax
 2318 00ad 48C74328 		movq	$0, 40(%rbx)
 2318      00000000 
 2319 00b5 48898390 		movq	%rax, 144(%rbx)
 2319      000000
 2320 00bc 488D0500 		leaq	16+_ZTVSt15basic_streambufIcSt11char_traitsIcEE(%rip), %rax
 2320      000000
 2321 00c3 48C74330 		movq	$0, 48(%rbx)
 2321      00000000 
 2322 00cb 48C74338 		movq	$0, 56(%rbx)
 2322      00000000 
 2323 00d3 48894308 		movq	%rax, 8(%rbx)
 2324 00d7 E8000000 		call	_ZNSt6localeC1Ev@PLT
 2324      00
 2325 00dc 488D0500 		leaq	16+_ZTVNSt7__cxx1115basic_stringbufIcSt11char_traitsIcESaIcEEE(%rip), %rax
 2325      000000
 2326 00e3 C7434810 		movl	$16, 72(%rbx)
 2326      000000
 2327 00ea 48C74358 		movq	$0, 88(%rbx)
 2327      00000000 
 2328 00f2 C6436000 		movb	$0, 96(%rbx)
 2329 00f6 4C89EE   		movq	%r13, %rsi
 2330 00f9 48894308 		movq	%rax, 8(%rbx)
 2331 00fd 488D4360 		leaq	96(%rbx), %rax
 2332 0101 48894350 		movq	%rax, 80(%rbx)
 2333 0105 488B03   		movq	(%rbx), %rax
 2334 0108 488B78E8 		movq	-24(%rax), %rdi
 2335 010c 4801DF   		addq	%rbx, %rdi
 2336              	.LEHB52:
 2337 010f E8000000 		call	_ZNSt9basic_iosIcSt11char_traitsIcEE4initEPSt15basic_streambufIcS1_E@PLT
 2337      00
 2338              	.LEHE52:
 2339 0114 488D0500 		leaq	24+_ZTVN8UnitTest15MemoryOutStreamE(%rip), %rax
 2339      000000
 2340 011b 48C74378 		movq	$0, 120(%rbx)
 2340      00000000 
 2341 0123 C6838000 		movb	$0, 128(%rbx)
 2341      000000
 2342 012a 488903   		movq	%rax, (%rbx)
 2343 012d 4883C028 		addq	$40, %rax
 2344 0131 48898390 		movq	%rax, 144(%rbx)
 2344      000000
 2345 0138 488D8380 		leaq	128(%rbx), %rax
 2345      000000
 2346 013f 48894370 		movq	%rax, 112(%rbx)
 2347 0143 5B       		popq	%rbx
 2348              		.cfi_remember_state
 2349              		.cfi_def_cfa_offset 40
 2350 0144 5D       		popq	%rbp
 2351              		.cfi_def_cfa_offset 32
 2352 0145 415C     		popq	%r12
 2353              		.cfi_def_cfa_offset 24
 2354 0147 415D     		popq	%r13
 2355              		.cfi_def_cfa_offset 16
 2356 0149 415E     		popq	%r14
 2357              		.cfi_def_cfa_offset 8
 2358 014b C3       		ret
 2359              	.L160:
 2360              		.cfi_restore_state
 2361 014c 4989C4   		movq	%rax, %r12
 2362              	.L159:
 2363 014f 488D0500 		leaq	16+_ZTVSt9basic_iosIcSt11char_traitsIcEE(%rip), %rax
 2363      000000
 2364 0156 4889EF   		movq	%rbp, %rdi
 2365 0159 48898390 		movq	%rax, 144(%rbx)
 2365      000000
 2366 0160 E8000000 		call	_ZNSt8ios_baseD2Ev@PLT
 2366      00
 2367 0165 4C89E7   		movq	%r12, %rdi
 2368              	.LEHB53:
 2369 0168 E8000000 		call	_Unwind_Resume@PLT
 2369      00
 2370              	.LEHE53:
 2371              	.L161:
 2372 016d 4989C6   		movq	%rax, %r14
 2373 0170 4C89EF   		movq	%r13, %rdi
 2374 0173 E8000000 		call	_ZNSt7__cxx1115basic_stringbufIcSt11char_traitsIcESaIcEED1Ev
 2374      00
 2375 0178 4C8923   		movq	%r12, (%rbx)
 2376 017b 4D89F4   		movq	%r14, %r12
 2377 017e EBCF     		jmp	.L159
 2378              		.cfi_endproc
 2379              	.LFE1103:
 2380              		.section	.gcc_except_table
 2381              	.LLSDA1103:
 2382 0136 FF       		.byte	0xff
 2383 0137 FF       		.byte	0xff
 2384 0138 01       		.byte	0x1
 2385 0139 10       		.uleb128 .LLSDACSE1103-.LLSDACSB1103
 2386              	.LLSDACSB1103:
 2387 013a 7A       		.uleb128 .LEHB51-.LFB1103
 2388 013b 05       		.uleb128 .LEHE51-.LEHB51
 2389 013c CC02     		.uleb128 .L160-.LFB1103
 2390 013e 00       		.uleb128 0
 2391 013f 8F02     		.uleb128 .LEHB52-.LFB1103
 2392 0141 05       		.uleb128 .LEHE52-.LEHB52
 2393 0142 ED02     		.uleb128 .L161-.LFB1103
 2394 0144 00       		.uleb128 0
 2395 0145 E802     		.uleb128 .LEHB53-.LFB1103
 2396 0147 05       		.uleb128 .LEHE53-.LEHB53
 2397 0148 00       		.uleb128 0
 2398 0149 00       		.uleb128 0
 2399              	.LLSDACSE1103:
 2400              		.section	.text._ZN8UnitTest15MemoryOutStreamC1Ev,"axG",@progbits,_ZN8UnitTest15MemoryOutStreamC1Ev
 2402              		.section	.rodata.str1.1
 2403              	.LC3:
 2404 0012 556E6861 		.string	"Unhandled system exception"
 2404      6E646C65 
 2404      64207379 
 2404      7374656D 
 2404      20657863 
 2405              	.LC4:
 2406 002d 66696C65 		.string	"filename"
 2406      6E616D65 
 2406      00
 2407              	.LC5:
 2408 0036 736F6D65 		.string	"somesuite"
 2408      73756974 
 2408      6500
 2409              	.LC6:
 2410 0040 736C6F77 		.string	"slow"
 2410      00
 2411              		.section	.rodata.str1.8,"aMS",@progbits,1
 2412              		.align 8
 2413              	.LC9:
 2414 0000 7265706F 		.string	"reporter.lastFinishedTestTime >= 0.005f && reporter.lastFinishedTestTime <= 0.050f"
 2414      72746572 
 2414      2E6C6173 
 2414      7446696E 
 2414      69736865 
 2415 0053 00000000 		.align 8
 2415      00
 2416              	.LC10:
 2417 0058 556E6861 		.string	"Unhandled exception in CHECK(reporter.lastFinishedTestTime >= 0.005f && reporter.lastFini
 2417      6E646C65 
 2417      64206578 
 2417      63657074 
 2417      696F6E20 
 2418              		.section	.rodata.str1.1
 2419              	.LC11:
 2420 0045 556E6861 		.string	"Unhandled exception: "
 2420      6E646C65 
 2420      64206578 
 2420      63657074 
 2420      696F6E3A 
 2421              	.LC12:
 2422 005b 556E6861 		.string	"Unhandled exception: Crash!"
 2422      6E646C65 
 2422      64206578 
 2422      63657074 
 2422      696F6E3A 
 2423              		.text
 2424 072f 90       		.p2align 4,,15
 2426              	_ZN8UnitTest11ExecuteTestIN12_GLOBAL__N_156TestRunnerFixtureTestFinishIsCalledWithCorrectTimeHelper
 2427              	.LFB1410:
 2428              		.cfi_startproc
 2429              		.cfi_personality 0x9b,DW.ref.__gxx_personality_v0
 2430              		.cfi_lsda 0x1b,.LLSDA1410
 2431 0730 4155     		pushq	%r13
 2432              		.cfi_def_cfa_offset 16
 2433              		.cfi_offset 13, -16
 2434 0732 4154     		pushq	%r12
 2435              		.cfi_def_cfa_offset 24
 2436              		.cfi_offset 12, -24
 2437 0734 55       		pushq	%rbp
 2438              		.cfi_def_cfa_offset 32
 2439              		.cfi_offset 6, -32
 2440 0735 53       		pushq	%rbx
 2441              		.cfi_def_cfa_offset 40
 2442              		.cfi_offset 3, -40
 2443 0736 4889F3   		movq	%rsi, %rbx
 2444 0739 4881ECC8 		subq	$1736, %rsp
 2444      060000
 2445              		.cfi_def_cfa_offset 1776
 2446 0740 48893C24 		movq	%rdi, (%rsp)
 2447 0744 48897424 		movq	%rsi, 8(%rsp)
 2447      08
 2448 0749 64488B04 		movq	%fs:40, %rax
 2448      25280000 
 2448      00
 2449 0752 48898424 		movq	%rax, 1720(%rsp)
 2449      B8060000 
 2450 075a 31C0     		xorl	%eax, %eax
 2451              	.LEHB54:
 2452 075c E8000000 		call	_ZN8UnitTest11CurrentTest7DetailsEv@PLT
 2452      00
 2453              	.LEHE54:
 2454 0761 488DBC24 		leaq	592(%rsp), %rdi
 2454      50020000 
 2455 0769 488918   		movq	%rbx, (%rax)
 2456              	.LEHB55:
 2457 076c E8000000 		call	_ZN8UnitTest16SignalTranslatorC1Ev@PLT
 2457      00
 2458              	.LEHE55:
 2459 0771 488B3D00 		movq	_ZN8UnitTest16SignalTranslator12s_jumpTargetE(%rip), %rdi
 2459      000000
 2460 0778 BE010000 		movl	$1, %esi
 2460      00
 2461 077d E8000000 		call	__sigsetjmp@PLT
 2461      00
 2462 0782 85C0     		testl	%eax, %eax
 2463 0784 742A     		je	.L167
 2464 0786 BF080000 		movl	$8, %edi
 2464      00
 2465 078b E8000000 		call	__cxa_allocate_exception@PLT
 2465      00
 2466 0790 488D0D00 		leaq	.LC3(%rip), %rcx
 2466      000000
 2467 0797 488D3500 		leaq	_ZTIPKc(%rip), %rsi
 2467      000000
 2468 079e 31D2     		xorl	%edx, %edx
 2469 07a0 4889C7   		movq	%rax, %rdi
 2470 07a3 488908   		movq	%rcx, (%rax)
 2471              	.LEHB56:
 2472 07a6 E8000000 		call	__cxa_throw@PLT
 2472      00
 2473 07ab 0F1F4400 		.p2align 4,,10
 2473      00
 2474              		.p2align 3
 2475              	.L167:
 2476 07b0 488D7C24 		leaq	112(%rsp), %rdi
 2476      70
 2477 07b5 488D0D00 		leaq	.LC4(%rip), %rcx
 2477      000000
 2478 07bc 488D1500 		leaq	.LC5(%rip), %rdx
 2478      000000
 2479 07c3 488D3500 		leaq	.LC6(%rip), %rsi
 2479      000000
 2480 07ca 41B87B00 		movl	$123, %r8d
 2480      0000
 2481 07d0 E8000000 		call	_ZN8UnitTest4TestC2EPKcS2_S2_i@PLT
 2481      00
 2482              	.LEHE56:
 2483 07d5 488B2C24 		movq	(%rsp), %rbp
 2484 07d9 488D0500 		leaq	16+_ZTVN12_GLOBAL__N_18SlowTestE(%rip), %rax
 2484      000000
 2485 07e0 488D7424 		leaq	112(%rsp), %rsi
 2485      70
 2486 07e5 48894424 		movq	%rax, 112(%rsp)
 2486      70
 2487 07ea 488D9D48 		leaq	2120(%rbp), %rbx
 2487      080000
 2488 07f1 4889DF   		movq	%rbx, %rdi
 2489              	.LEHB57:
 2490 07f4 E8000000 		call	_ZN8UnitTest8TestList3AddEPNS_4TestE@PLT
 2490      00
 2491 07f9 E8000000 		call	_ZN8UnitTest11CurrentTest7ResultsEv@PLT
 2491      00
 2492 07fe 4C8B28   		movq	(%rax), %r13
 2493 0801 E8000000 		call	_ZN8UnitTest11CurrentTest7DetailsEv@PLT
 2493      00
 2494 0806 4889DF   		movq	%rbx, %rdi
 2495 0809 4C8B20   		movq	(%rax), %r12
 2496 080c E8000000 		call	_ZNK8UnitTest8TestList7GetHeadEv@PLT
 2496      00
 2497 0811 4885C0   		testq	%rax, %rax
 2498 0814 4889C3   		movq	%rax, %rbx
 2499 0817 0F85DD00 		jne	.L170
 2499      0000
 2500 081d 0F1F00   		.p2align 4,,10
 2501              		.p2align 3
 2502              	.L168:
 2503 0820 488B1C24 		movq	(%rsp), %rbx
 2504 0824 4889DF   		movq	%rbx, %rdi
 2505 0827 E8000000 		call	_ZNK8UnitTest10TestRunner6FinishEv@PLT
 2505      00
 2506 082c E8000000 		call	_ZN8UnitTest11CurrentTest7ResultsEv@PLT
 2506      00
 2507 0831 4C8928   		movq	%r13, (%rax)
 2508 0834 E8000000 		call	_ZN8UnitTest11CurrentTest7DetailsEv@PLT
 2508      00
 2509              	.LEHE57:
 2510 0839 4C8920   		movq	%r12, (%rax)
 2511 083c F30F1083 		movss	2096(%rbx), %xmm0
 2511      30080000 
 2512 0844 0F2E0500 		ucomiss	.LC7(%rip), %xmm0
 2512      000000
 2513 084b 720D     		jb	.L172
 2514 084d F30F100D 		movss	.LC8(%rip), %xmm1
 2514      00000000 
 2515 0855 0F2EC8   		ucomiss	%xmm0, %xmm1
 2516 0858 7333     		jnb	.L175
 2517              	.L172:
 2518              	.LEHB58:
 2519 085a E8000000 		call	_ZN8UnitTest11CurrentTest7ResultsEv@PLT
 2519      00
 2520 085f 488B18   		movq	(%rax), %rbx
 2521 0862 E8000000 		call	_ZN8UnitTest11CurrentTest7DetailsEv@PLT
 2521      00
 2522 0867 488B30   		movq	(%rax), %rsi
 2523 086a 488D7C24 		leaq	80(%rsp), %rdi
 2523      50
 2524 086f BA620000 		movl	$98, %edx
 2524      00
 2525 0874 E8000000 		call	_ZN8UnitTest11TestDetailsC1ERKS0_i@PLT
 2525      00
 2526 0879 488D7424 		leaq	80(%rsp), %rsi
 2526      50
 2527 087e 488D1500 		leaq	.LC9(%rip), %rdx
 2527      000000
 2528 0885 4889DF   		movq	%rbx, %rdi
 2529 0888 E8000000 		call	_ZN8UnitTest11TestResults13OnTestFailureERKNS_11TestDetailsEPKc@PLT
 2529      00
 2530              	.LEHE58:
 2531              	.L175:
 2532 088d 488D0500 		leaq	16+_ZTVN12_GLOBAL__N_18SlowTestE(%rip), %rax
 2532      000000
 2533 0894 488D7C24 		leaq	112(%rsp), %rdi
 2533      70
 2534 0899 48894424 		movq	%rax, 112(%rsp)
 2534      70
 2535              	.LEHB59:
 2536 089e E8000000 		call	_ZN8UnitTest4TestD2Ev@PLT
 2536      00
 2537              	.LEHE59:
 2538 08a3 488DBC24 		leaq	592(%rsp), %rdi
 2538      50020000 
 2539              	.LEHB60:
 2540 08ab E8000000 		call	_ZN8UnitTest16SignalTranslatorD1Ev@PLT
 2540      00
 2541              	.LEHE60:
 2542              	.L165:
 2543 08b0 488B8424 		movq	1720(%rsp), %rax
 2543      B8060000 
 2544 08b8 64483304 		xorq	%fs:40, %rax
 2544      25280000 
 2544      00
 2545 08c1 0F85F600 		jne	.L207
 2545      0000
 2546 08c7 4881C4C8 		addq	$1736, %rsp
 2546      060000
 2547              		.cfi_remember_state
 2548              		.cfi_def_cfa_offset 40
 2549 08ce 5B       		popq	%rbx
 2550              		.cfi_def_cfa_offset 32
 2551 08cf 5D       		popq	%rbp
 2552              		.cfi_def_cfa_offset 24
 2553 08d0 415C     		popq	%r12
 2554              		.cfi_def_cfa_offset 16
 2555 08d2 415D     		popq	%r13
 2556              		.cfi_def_cfa_offset 8
 2557 08d4 C3       		ret
 2558              		.p2align 4,,10
 2559 08d5 0F1F00   		.p2align 3
 2560              	.L169:
 2561              		.cfi_restore_state
 2562 08d8 488B0424 		movq	(%rsp), %rax
 2563 08dc 31C9     		xorl	%ecx, %ecx
 2564 08de 4889DA   		movq	%rbx, %rdx
 2565 08e1 4889EF   		movq	%rbp, %rdi
 2566 08e4 488B7008 		movq	8(%rax), %rsi
 2567              	.LEHB61:
 2568 08e8 E8000000 		call	_ZNK8UnitTest10TestRunner7RunTestEPNS_11TestResultsEPNS_4TestEi@PLT
 2568      00
 2569              	.L171:
 2570 08ed 488B5B28 		movq	40(%rbx), %rbx
 2571 08f1 4885DB   		testq	%rbx, %rbx
 2572 08f4 0F8426FF 		je	.L168
 2572      FFFF
 2573              	.L170:
 2574 08fa 31D2     		xorl	%edx, %edx
 2575 08fc 4889DE   		movq	%rbx, %rsi
 2576 08ff 4889EF   		movq	%rbp, %rdi
 2577 0902 E8000000 		call	_ZNK8UnitTest10TestRunner13IsTestInSuiteEPKNS_4TestEPKc@PLT
 2577      00
 2578              	.LEHE61:
 2579 0907 84C0     		testb	%al, %al
 2580 0909 74E2     		je	.L171
 2581 090b EBCB     		jmp	.L169
 2582              	.L194:
 2583 090d 4889C3   		movq	%rax, %rbx
 2584 0910 4889D5   		movq	%rdx, %rbp
 2585              	.L181:
 2586 0913 488DBC24 		leaq	592(%rsp), %rdi
 2586      50020000 
 2587 091b E8000000 		call	_ZN8UnitTest16SignalTranslatorD1Ev@PLT
 2587      00
 2588 0920 4889DF   		movq	%rbx, %rdi
 2589 0923 4889EA   		movq	%rbp, %rdx
 2590              	.L182:
 2591 0926 4883FA01 		cmpq	$1, %rdx
 2592 092a 0F845701 		je	.L184
 2592      0000
 2593 0930 4883FA02 		cmpq	$2, %rdx
 2594 0934 0F852501 		jne	.L208
 2594      0000
 2595 093a E8000000 		call	__cxa_begin_catch@PLT
 2595      00
 2596 093f 488DBC24 		leaq	176(%rsp), %rdi
 2596      B0000000 
 2597 0947 4889C3   		movq	%rax, %rbx
 2598              	.LEHB62:
 2599 094a E8000000 		call	_ZN8UnitTest15MemoryOutStreamC1Ev
 2599      00
 2600              	.LEHE62:
 2601 094f 488DBC24 		leaq	176(%rsp), %rdi
 2601      B0000000 
 2602 0957 488D3500 		leaq	.LC11(%rip), %rsi
 2602      000000
 2603 095e BA150000 		movl	$21, %edx
 2603      00
 2604              	.LEHB63:
 2605 0963 E8000000 		call	_ZSt16__ostream_insertIcSt11char_traitsIcEERSt13basic_ostreamIT_T0_ES6_PKS3_l@PLT
 2605      00
 2606 0968 488B03   		movq	(%rbx), %rax
 2607 096b 4889DF   		movq	%rbx, %rdi
 2608 096e FF5010   		call	*16(%rax)
 2609 0971 488DBC24 		leaq	176(%rsp), %rdi
 2609      B0000000 
 2610 0979 4889C6   		movq	%rax, %rsi
 2611 097c E8000000 		call	_ZStlsISt11char_traitsIcEERSt13basic_ostreamIcT_ES5_PKc@PLT
 2611      00
 2612 0981 E8000000 		call	_ZN8UnitTest11CurrentTest7ResultsEv@PLT
 2612      00
 2613 0986 488DBC24 		leaq	176(%rsp), %rdi
 2613      B0000000 
 2614 098e 488B18   		movq	(%rax), %rbx
 2615 0991 E8000000 		call	_ZNK8UnitTest15MemoryOutStream7GetTextEv@PLT
 2615      00
 2616 0996 488B7424 		movq	8(%rsp), %rsi
 2616      08
 2617 099b 4889C2   		movq	%rax, %rdx
 2618 099e 4889DF   		movq	%rbx, %rdi
 2619 09a1 E8000000 		call	_ZN8UnitTest11TestResults13OnTestFailureERKNS_11TestDetailsEPKc@PLT
 2619      00
 2620              	.LEHE63:
 2621 09a6 488DBC24 		leaq	176(%rsp), %rdi
 2621      B0000000 
 2622              	.LEHB64:
 2623 09ae E8000000 		call	_ZN8UnitTest15MemoryOutStreamD1Ev
 2623      00
 2624              	.LEHE64:
 2625              	.L205:
 2626 09b3 E8000000 		call	__cxa_end_catch@PLT
 2626      00
 2627 09b8 E9F3FEFF 		jmp	.L165
 2627      FF
 2628              	.L207:
 2629 09bd E8000000 		call	__stack_chk_fail@PLT
 2629      00
 2630              	.L201:
 2631 09c2 4889C7   		movq	%rax, %rdi
 2632 09c5 E8000000 		call	__cxa_begin_catch@PLT
 2632      00
 2633              	.LEHB65:
 2634 09ca E8000000 		call	_ZN8UnitTest11CurrentTest7ResultsEv@PLT
 2634      00
 2635 09cf 488B18   		movq	(%rax), %rbx
 2636 09d2 E8000000 		call	_ZN8UnitTest11CurrentTest7DetailsEv@PLT
 2636      00
 2637 09d7 488B30   		movq	(%rax), %rsi
 2638 09da 488D7C24 		leaq	48(%rsp), %rdi
 2638      30
 2639 09df BA620000 		movl	$98, %edx
 2639      00
 2640 09e4 E8000000 		call	_ZN8UnitTest11TestDetailsC1ERKS0_i@PLT
 2640      00
 2641 09e9 488D7424 		leaq	48(%rsp), %rsi
 2641      30
 2642 09ee 488D1500 		leaq	.LC10(%rip), %rdx
 2642      000000
 2643 09f5 4889DF   		movq	%rbx, %rdi
 2644 09f8 E8000000 		call	_ZN8UnitTest11TestResults13OnTestFailureERKNS_11TestDetailsEPKc@PLT
 2644      00
 2645              	.LEHE65:
 2646              	.LEHB66:
 2647 09fd E8000000 		call	__cxa_end_catch@PLT
 2647      00
 2648              	.LEHE66:
 2649 0a02 E986FEFF 		jmp	.L175
 2649      FF
 2650              	.L199:
 2651 0a07 4889C3   		movq	%rax, %rbx
 2652 0a0a 4889D5   		movq	%rdx, %rbp
 2653              	.L180:
 2654 0a0d 488D0500 		leaq	16+_ZTVN12_GLOBAL__N_18SlowTestE(%rip), %rax
 2654      000000
 2655 0a14 488D7C24 		leaq	112(%rsp), %rdi
 2655      70
 2656 0a19 48894424 		movq	%rax, 112(%rsp)
 2656      70
 2657 0a1e E8000000 		call	_ZN8UnitTest4TestD2Ev@PLT
 2657      00
 2658 0a23 E9EBFEFF 		jmp	.L181
 2658      FF
 2659              	.L193:
 2660 0a28 4889C7   		movq	%rax, %rdi
 2661 0a2b E9F6FEFF 		jmp	.L182
 2661      FF
 2662              	.L200:
 2663 0a30 4889C3   		movq	%rax, %rbx
 2664 0a33 4889D5   		movq	%rdx, %rbp
 2665 0a36 E8000000 		call	__cxa_end_catch@PLT
 2665      00
 2666 0a3b EBD0     		jmp	.L180
 2667              	.L197:
 2668 0a3d 488DBC24 		leaq	176(%rsp), %rdi
 2668      B0000000 
 2669 0a45 4889C3   		movq	%rax, %rbx
 2670 0a48 E8000000 		call	_ZN8UnitTest15MemoryOutStreamD1Ev
 2670      00
 2671              	.L190:
 2672 0a4d E8000000 		call	__cxa_end_catch@PLT
 2672      00
 2673 0a52 4889DF   		movq	%rbx, %rdi
 2674              	.LEHB67:
 2675 0a55 E8000000 		call	_Unwind_Resume@PLT
 2675      00
 2676              	.LEHE67:
 2677              	.L196:
 2678              	.L206:
 2679 0a5a 4889C3   		movq	%rax, %rbx
 2680 0a5d EBEE     		jmp	.L190
 2681              	.L208:
 2682 0a5f E8000000 		call	__cxa_begin_catch@PLT
 2682      00
 2683              	.LEHB68:
 2684 0a64 E8000000 		call	_ZN8UnitTest11CurrentTest7ResultsEv@PLT
 2684      00
 2685 0a69 488B7424 		movq	8(%rsp), %rsi
 2685      08
 2686 0a6e 488B38   		movq	(%rax), %rdi
 2687 0a71 488D1500 		leaq	.LC12(%rip), %rdx
 2687      000000
 2688 0a78 E8000000 		call	_ZN8UnitTest11TestResults13OnTestFailureERKNS_11TestDetailsEPKc@PLT
 2688      00
 2689              	.LEHE68:
 2690              	.LEHB69:
 2691 0a7d E8000000 		call	__cxa_end_catch@PLT
 2691      00
 2692              	.LEHE69:
 2693 0a82 E929FEFF 		jmp	.L165
 2693      FF
 2694              	.L184:
 2695 0a87 E8000000 		call	__cxa_begin_catch@PLT
 2695      00
 2696 0a8c 4889C3   		movq	%rax, %rbx
 2697              	.LEHB70:
 2698 0a8f E8000000 		call	_ZN8UnitTest11CurrentTest7ResultsEv@PLT
 2698      00
 2699 0a94 488B28   		movq	(%rax), %rbp
 2700 0a97 488B03   		movq	(%rbx), %rax
 2701 0a9a 4889DF   		movq	%rbx, %rdi
 2702 0a9d FF5010   		call	*16(%rax)
 2703 0aa0 4889DF   		movq	%rbx, %rdi
 2704 0aa3 4989C4   		movq	%rax, %r12
 2705 0aa6 E8000000 		call	_ZNK8UnitTest15AssertException10LineNumberEv@PLT
 2705      00
 2706 0aab 4889DF   		movq	%rbx, %rdi
 2707 0aae 4189C5   		movl	%eax, %r13d
 2708 0ab1 E8000000 		call	_ZNK8UnitTest15AssertException8FilenameEv@PLT
 2708      00
 2709 0ab6 488B5424 		movq	8(%rsp), %rdx
 2709      08
 2710 0abb 488D7C24 		leaq	16(%rsp), %rdi
 2710      10
 2711 0ac0 4589E8   		movl	%r13d, %r8d
 2712 0ac3 4889C1   		movq	%rax, %rcx
 2713 0ac6 488B7208 		movq	8(%rdx), %rsi
 2714 0aca 488B12   		movq	(%rdx), %rdx
 2715 0acd E8000000 		call	_ZN8UnitTest11TestDetailsC1EPKcS2_S2_i@PLT
 2715      00
 2716 0ad2 488D7424 		leaq	16(%rsp), %rsi
 2716      10
 2717 0ad7 4C89E2   		movq	%r12, %rdx
 2718 0ada 4889EF   		movq	%rbp, %rdi
 2719 0add E8000000 		call	_ZN8UnitTest11TestResults13OnTestFailureERKNS_11TestDetailsEPKc@PLT
 2719      00
 2720              	.LEHE70:
 2721 0ae2 E9CCFEFF 		jmp	.L205
 2721      FF
 2722              	.L198:
 2723 0ae7 4889C3   		movq	%rax, %rbx
 2724 0aea E8000000 		call	__cxa_end_catch@PLT
 2724      00
 2725 0aef 4889DF   		movq	%rbx, %rdi
 2726              	.LEHB71:
 2727 0af2 E8000000 		call	_Unwind_Resume@PLT
 2727      00
 2728              	.LEHE71:
 2729              	.L195:
 2730 0af7 E95EFFFF 		jmp	.L206
 2730      FF
 2731              		.cfi_endproc
 2732              	.LFE1410:
 2733              		.section	.gcc_except_table
 2734 014a 0000     		.align 4
 2735              	.LLSDA1410:
 2736 014c FF       		.byte	0xff
 2737 014d 9B       		.byte	0x9b
 2738 014e 7D       		.uleb128 .LLSDATT1410-.LLSDATTD1410
 2739              	.LLSDATTD1410:
 2740 014f 01       		.byte	0x1
 2741 0150 65       		.uleb128 .LLSDACSE1410-.LLSDACSB1410
 2742              	.LLSDACSB1410:
 2743 0151 2C       		.uleb128 .LEHB54-.LFB1410
 2744 0152 05       		.uleb128 .LEHE54-.LEHB54
 2745 0153 00       		.uleb128 0
 2746 0154 00       		.uleb128 0
 2747 0155 3C       		.uleb128 .LEHB55-.LFB1410
 2748 0156 05       		.uleb128 .LEHE55-.LEHB55
 2749 0157 F805     		.uleb128 .L193-.LFB1410
 2750 0159 05       		.uleb128 0x5
 2751 015a 76       		.uleb128 .LEHB56-.LFB1410
 2752 015b 2F       		.uleb128 .LEHE56-.LEHB56
 2753 015c DD03     		.uleb128 .L194-.LFB1410
 2754 015e 07       		.uleb128 0x7
 2755 015f C401     		.uleb128 .LEHB57-.LFB1410
 2756 0161 45       		.uleb128 .LEHE57-.LEHB57
 2757 0162 D705     		.uleb128 .L199-.LFB1410
 2758 0164 07       		.uleb128 0x7
 2759 0165 AA02     		.uleb128 .LEHB58-.LFB1410
 2760 0167 33       		.uleb128 .LEHE58-.LEHB58
 2761 0168 9205     		.uleb128 .L201-.LFB1410
 2762 016a 01       		.uleb128 0x1
 2763 016b EE02     		.uleb128 .LEHB59-.LFB1410
 2764 016d 05       		.uleb128 .LEHE59-.LEHB59
 2765 016e DD03     		.uleb128 .L194-.LFB1410
 2766 0170 07       		.uleb128 0x7
 2767 0171 FB02     		.uleb128 .LEHB60-.LFB1410
 2768 0173 05       		.uleb128 .LEHE60-.LEHB60
 2769 0174 F805     		.uleb128 .L193-.LFB1410
 2770 0176 05       		.uleb128 0x5
 2771 0177 B803     		.uleb128 .LEHB61-.LFB1410
 2772 0179 1F       		.uleb128 .LEHE61-.LEHB61
 2773 017a D705     		.uleb128 .L199-.LFB1410
 2774 017c 07       		.uleb128 0x7
 2775 017d 9A04     		.uleb128 .LEHB62-.LFB1410
 2776 017f 05       		.uleb128 .LEHE62-.LEHB62
 2777 0180 AA06     		.uleb128 .L196-.LFB1410
 2778 0182 00       		.uleb128 0
 2779 0183 B304     		.uleb128 .LEHB63-.LFB1410
 2780 0185 43       		.uleb128 .LEHE63-.LEHB63
 2781 0186 8D06     		.uleb128 .L197-.LFB1410
 2782 0188 00       		.uleb128 0
 2783 0189 FE04     		.uleb128 .LEHB64-.LFB1410
 2784 018b 05       		.uleb128 .LEHE64-.LEHB64
 2785 018c AA06     		.uleb128 .L196-.LFB1410
 2786 018e 00       		.uleb128 0
 2787 018f 9A05     		.uleb128 .LEHB65-.LFB1410
 2788 0191 33       		.uleb128 .LEHE65-.LEHB65
 2789 0192 8006     		.uleb128 .L200-.LFB1410
 2790 0194 07       		.uleb128 0x7
 2791 0195 CD05     		.uleb128 .LEHB66-.LFB1410
 2792 0197 05       		.uleb128 .LEHE66-.LEHB66
 2793 0198 D705     		.uleb128 .L199-.LFB1410
 2794 019a 07       		.uleb128 0x7
 2795 019b A506     		.uleb128 .LEHB67-.LFB1410
 2796 019d 05       		.uleb128 .LEHE67-.LEHB67
 2797 019e 00       		.uleb128 0
 2798 019f 00       		.uleb128 0
 2799 01a0 B406     		.uleb128 .LEHB68-.LFB1410
 2800 01a2 19       		.uleb128 .LEHE68-.LEHB68
 2801 01a3 B707     		.uleb128 .L198-.LFB1410
 2802 01a5 00       		.uleb128 0
 2803 01a6 CD06     		.uleb128 .LEHB69-.LFB1410
 2804 01a8 05       		.uleb128 .LEHE69-.LEHB69
 2805 01a9 00       		.uleb128 0
 2806 01aa 00       		.uleb128 0
 2807 01ab DF06     		.uleb128 .LEHB70-.LFB1410
 2808 01ad 53       		.uleb128 .LEHE70-.LEHB70
 2809 01ae C707     		.uleb128 .L195-.LFB1410
 2810 01b0 00       		.uleb128 0
 2811 01b1 C207     		.uleb128 .LEHB71-.LFB1410
 2812 01b3 05       		.uleb128 .LEHE71-.LEHB71
 2813 01b4 00       		.uleb128 0
 2814 01b5 00       		.uleb128 0
 2815              	.LLSDACSE1410:
 2816 01b6 03       		.byte	0x3
 2817 01b7 00       		.byte	0
 2818 01b8 02       		.byte	0x2
 2819 01b9 7D       		.byte	0x7d
 2820 01ba 01       		.byte	0x1
 2821 01bb 7D       		.byte	0x7d
 2822 01bc 00       		.byte	0
 2823 01bd 7D       		.byte	0x7d
 2824 01be 0000     		.align 4
 2825 01c0 00000000 		.long	0
 2826              	
 2827 01c4 00000000 		.long	DW.ref._ZTISt9exception-.
 2828 01c8 00000000 		.long	DW.ref._ZTIN8UnitTest15AssertExceptionE-.
 2829              	.LLSDATT1410:
 2830              		.text
 2832              		.section	.rodata.str1.8
 2833 00c9 00000000 		.align 8
 2833      000000
 2834              	.LC13:
 2835 00d0 556E6861 		.string	"Unhandled exception while destroying fixture TestRunnerFixture"
 2835      6E646C65 
 2835      64206578 
 2835      63657074 
 2835      696F6E20 
 2836 010f 00       		.align 8
 2837              	.LC14:
 2838 0110 556E6861 		.string	"Unhandled exception while constructing fixture TestRunnerFixture"
 2838      6E646C65 
 2838      64206578 
 2838      63657074 
 2838      696F6E20 
 2839              		.text
 2840              		.align 2
 2841 0afc 0F1F4000 		.p2align 4,,15
 2843              	_ZNK12_GLOBAL__N_154TestTestRunnerFixtureTestFinishIsCalledWithCorrectTime7RunImplEv:
 2844              	.LFB1201:
 2845              		.cfi_startproc
 2846              		.cfi_personality 0x9b,DW.ref.__gxx_personality_v0
 2847              		.cfi_lsda 0x1b,.LLSDA1201
 2848 0b00 4156     		pushq	%r14
 2849              		.cfi_def_cfa_offset 16
 2850              		.cfi_offset 14, -16
 2851 0b02 4155     		pushq	%r13
 2852              		.cfi_def_cfa_offset 24
 2853              		.cfi_offset 13, -24
 2854 0b04 4989FD   		movq	%rdi, %r13
 2855 0b07 4154     		pushq	%r12
 2856              		.cfi_def_cfa_offset 32
 2857              		.cfi_offset 12, -32
 2858 0b09 55       		pushq	%rbp
 2859              		.cfi_def_cfa_offset 40
 2860              		.cfi_offset 6, -40
 2861 0b0a 488D6F08 		leaq	8(%rdi), %rbp
 2862 0b0e 53       		pushq	%rbx
 2863              		.cfi_def_cfa_offset 48
 2864              		.cfi_offset 3, -48
 2865 0b0f 4881EC90 		subq	$2192, %rsp
 2865      080000
 2866              		.cfi_def_cfa_offset 2240
 2867 0b16 488D5C24 		leaq	32(%rsp), %rbx
 2867      20
 2868 0b1b 64488B04 		movq	%fs:40, %rax
 2868      25280000 
 2868      00
 2869 0b24 48898424 		movq	%rax, 2184(%rsp)
 2869      88080000 
 2870 0b2c 31C0     		xorl	%eax, %eax
 2871 0b2e 488D7318 		leaq	24(%rbx), %rsi
 2872 0b32 4889DF   		movq	%rbx, %rdi
 2873              	.LEHB72:
 2874 0b35 E8000000 		call	_ZN8UnitTest10TestRunnerC1ERNS_12TestReporterE@PLT
 2874      00
 2875              	.LEHE72:
 2876 0b3a 4C8D2500 		leaq	16+_ZTV17RecordingReporter(%rip), %r12
 2876      000000
 2877 0b41 488DBB48 		leaq	2120(%rbx), %rdi
 2877      080000
 2878 0b48 C7442440 		movl	$0, 64(%rsp)
 2878      00000000 
 2879 0b50 C7842444 		movl	$0, 580(%rsp)
 2879      02000000 
 2879      000000
 2880 0b5b C7842448 		movl	$0, 840(%rsp)
 2880      03000000 
 2880      000000
 2881 0b66 4C896424 		movq	%r12, 56(%rsp)
 2881      38
 2882 0b6b C784244C 		movl	$0, 1612(%rsp)
 2882      06000000 
 2882      000000
 2883 0b76 48C78424 		movq	$0, 2128(%rsp)
 2883      50080000 
 2883      00000000 
 2884 0b82 48C78424 		movq	$0, 2136(%rsp)
 2884      58080000 
 2884      00000000 
 2885 0b8e C7842460 		movl	$0, 2144(%rsp)
 2885      08000000 
 2885      000000
 2886 0b99 C6442444 		movb	$0, 68(%rsp)
 2886      00
 2887 0b9e C6842444 		movb	$0, 324(%rsp)
 2887      01000000 
 2888 0ba6 C6842448 		movb	$0, 584(%rsp)
 2888      02000000 
 2889 0bae C684244C 		movb	$0, 844(%rsp)
 2889      03000000 
 2890 0bb6 C684244C 		movb	$0, 1100(%rsp)
 2890      04000000 
 2891 0bbe C684244C 		movb	$0, 1356(%rsp)
 2891      05000000 
 2892 0bc6 C6842450 		movb	$0, 1616(%rsp)
 2892      06000000 
 2893 0bce C6842450 		movb	$0, 1872(%rsp)
 2893      07000000 
 2894              	.LEHB73:
 2895 0bd6 E8000000 		call	_ZN8UnitTest8TestListC1Ev@PLT
 2895      00
 2896              	.LEHE73:
 2897 0bdb 4889EE   		movq	%rbp, %rsi
 2898 0bde 4889DF   		movq	%rbx, %rdi
 2899 0be1 4889AC24 		movq	%rbp, 2168(%rsp)
 2899      78080000 
 2900              	.LEHB74:
 2901 0be9 E842FBFF 		call	_ZN8UnitTest11ExecuteTestIN12_GLOBAL__N_156TestRunnerFixtureTestFinishIsCalledWithCorrectTime
 2901      FF
 2902              	.LEHE74:
 2903 0bee 488D7B18 		leaq	24(%rbx), %rdi
 2904 0bf2 4C896424 		movq	%r12, 56(%rsp)
 2904      38
 2905              	.LEHB75:
 2906 0bf7 E8000000 		call	_ZN8UnitTest12TestReporterD2Ev@PLT
 2906      00
 2907              	.LEHE75:
 2908 0bfc 4889DF   		movq	%rbx, %rdi
 2909              	.LEHB76:
 2910 0bff E8000000 		call	_ZN8UnitTest10TestRunnerD1Ev@PLT
 2910      00
 2911              	.LEHE76:
 2912              	.L209:
 2913 0c04 488B8424 		movq	2184(%rsp), %rax
 2913      88080000 
 2914 0c0c 64483304 		xorq	%fs:40, %rax
 2914      25280000 
 2914      00
 2915 0c15 7510     		jne	.L257
 2916 0c17 4881C490 		addq	$2192, %rsp
 2916      080000
 2917              		.cfi_remember_state
 2918              		.cfi_def_cfa_offset 48
 2919 0c1e 5B       		popq	%rbx
 2920              		.cfi_def_cfa_offset 40
 2921 0c1f 5D       		popq	%rbp
 2922              		.cfi_def_cfa_offset 32
 2923 0c20 415C     		popq	%r12
 2924              		.cfi_def_cfa_offset 24
 2925 0c22 415D     		popq	%r13
 2926              		.cfi_def_cfa_offset 16
 2927 0c24 415E     		popq	%r14
 2928              		.cfi_def_cfa_offset 8
 2929 0c26 C3       		ret
 2930              	.L257:
 2931              		.cfi_restore_state
 2932 0c27 E8000000 		call	__stack_chk_fail@PLT
 2932      00
 2933              	.L229:
 2934 0c2c 4889C7   		movq	%rax, %rdi
 2935              	.L215:
 2936 0c2f 4883FA01 		cmpq	$1, %rdx
 2937 0c33 0F846F01 		je	.L217
 2937      0000
 2938 0c39 4883FA02 		cmpq	$2, %rdx
 2939 0c3d 0F853101 		jne	.L258
 2939      0000
 2940              	.L218:
 2941 0c43 E8000000 		call	__cxa_begin_catch@PLT
 2941      00
 2942 0c48 4889DF   		movq	%rbx, %rdi
 2943 0c4b 4989C4   		movq	%rax, %r12
 2944              	.LEHB77:
 2945 0c4e E8000000 		call	_ZN8UnitTest15MemoryOutStreamC1Ev
 2945      00
 2946              	.LEHE77:
 2947 0c53 488D3500 		leaq	.LC11(%rip), %rsi
 2947      000000
 2948 0c5a BA150000 		movl	$21, %edx
 2948      00
 2949 0c5f 4889DF   		movq	%rbx, %rdi
 2950              	.LEHB78:
 2951 0c62 E8000000 		call	_ZSt16__ostream_insertIcSt11char_traitsIcEERSt13basic_ostreamIT_T0_ES6_PKS3_l@PLT
 2951      00
 2952 0c67 498B0424 		movq	(%r12), %rax
 2953 0c6b 4C89E7   		movq	%r12, %rdi
 2954 0c6e FF5010   		call	*16(%rax)
 2955 0c71 4889DF   		movq	%rbx, %rdi
 2956 0c74 4889C6   		movq	%rax, %rsi
 2957 0c77 E8000000 		call	_ZStlsISt11char_traitsIcEERSt13basic_ostreamIcT_ES5_PKc@PLT
 2957      00
 2958 0c7c E8000000 		call	_ZN8UnitTest11CurrentTest7ResultsEv@PLT
 2958      00
 2959 0c81 4889DF   		movq	%rbx, %rdi
 2960 0c84 4C8B20   		movq	(%rax), %r12
 2961 0c87 E8000000 		call	_ZNK8UnitTest15MemoryOutStream7GetTextEv@PLT
 2961      00
 2962 0c8c 4889C2   		movq	%rax, %rdx
 2963 0c8f 4889EE   		movq	%rbp, %rsi
 2964 0c92 4C89E7   		movq	%r12, %rdi
 2965 0c95 E8000000 		call	_ZN8UnitTest11TestResults13OnTestFailureERKNS_11TestDetailsEPKc@PLT
 2965      00
 2966              	.LEHE78:
 2967 0c9a 4889DF   		movq	%rbx, %rdi
 2968              	.LEHB79:
 2969 0c9d E8000000 		call	_ZN8UnitTest15MemoryOutStreamD1Ev
 2969      00
 2970              	.LEHE79:
 2971              	.L256:
 2972 0ca2 E8000000 		call	__cxa_end_catch@PLT
 2972      00
 2973 0ca7 E958FFFF 		jmp	.L209
 2973      FF
 2974              	.L236:
 2975 0cac 4989C4   		movq	%rax, %r12
 2976 0caf 4989D6   		movq	%rdx, %r14
 2977 0cb2 4889DF   		movq	%rbx, %rdi
 2978 0cb5 E8000000 		call	_ZN8UnitTest10TestRunnerD1Ev@PLT
 2978      00
 2979 0cba 4C89E7   		movq	%r12, %rdi
 2980 0cbd 4C89F2   		movq	%r14, %rdx
 2981 0cc0 E96AFFFF 		jmp	.L215
 2981      FF
 2982              	.L230:
 2983 0cc5 4989C4   		movq	%rax, %r12
 2984 0cc8 4989D6   		movq	%rdx, %r14
 2985 0ccb 4889DF   		movq	%rbx, %rdi
 2986 0cce E8000000 		call	_ZN12_GLOBAL__N_111FixtureBaseD2Ev
 2986      00
 2987 0cd3 4C89E7   		movq	%r12, %rdi
 2988 0cd6 4C89F2   		movq	%r14, %rdx
 2989 0cd9 E951FFFF 		jmp	.L215
 2989      FF
 2990              	.L235:
 2991 0cde 4989C4   		movq	%rax, %r12
 2992 0ce1 4989D6   		movq	%rdx, %r14
 2993 0ce4 4889DF   		movq	%rbx, %rdi
 2994 0ce7 E8000000 		call	_ZN12_GLOBAL__N_111FixtureBaseD2Ev
 2994      00
 2995 0cec 4C89E7   		movq	%r12, %rdi
 2996 0cef 4C89F2   		movq	%r14, %rdx
 2997              	.L212:
 2998 0cf2 4883FA01 		cmpq	$1, %rdx
 2999 0cf6 0F84AC00 		je	.L217
 2999      0000
 3000 0cfc 4883FA02 		cmpq	$2, %rdx
 3001 0d00 0F843DFF 		je	.L218
 3001      FFFF
 3002 0d06 E8000000 		call	__cxa_begin_catch@PLT
 3002      00
 3003              	.LEHB80:
 3004 0d0b E8000000 		call	_ZN8UnitTest11CurrentTest7ResultsEv@PLT
 3004      00
 3005 0d10 4889E3   		movq	%rsp, %rbx
 3006 0d13 BA5C0000 		movl	$92, %edx
 3006      00
 3007 0d18 4889EE   		movq	%rbp, %rsi
 3008 0d1b 4889DF   		movq	%rbx, %rdi
 3009 0d1e 4C8B20   		movq	(%rax), %r12
 3010 0d21 E8000000 		call	_ZN8UnitTest11TestDetailsC1ERKS0_i@PLT
 3010      00
 3011 0d26 488D1500 		leaq	.LC14(%rip), %rdx
 3011      000000
 3012 0d2d 4889DE   		movq	%rbx, %rsi
 3013 0d30 4C89E7   		movq	%r12, %rdi
 3014 0d33 E8000000 		call	_ZN8UnitTest11TestResults13OnTestFailureERKNS_11TestDetailsEPKc@PLT
 3014      00
 3015              	.LEHE80:
 3016              	.L219:
 3017              	.LEHB81:
 3018 0d38 E8000000 		call	__cxa_end_catch@PLT
 3018      00
 3019              	.LEHE81:
 3020 0d3d E9C2FEFF 		jmp	.L209
 3020      FF
 3021              	.L237:
 3022 0d42 4889C7   		movq	%rax, %rdi
 3023 0d45 EBAB     		jmp	.L212
 3024              	.L234:
 3025 0d47 4889C3   		movq	%rax, %rbx
 3026 0d4a E8000000 		call	__cxa_end_catch@PLT
 3026      00
 3027 0d4f 4889DF   		movq	%rbx, %rdi
 3028              	.LEHB82:
 3029 0d52 E8000000 		call	_Unwind_Resume@PLT
 3029      00
 3030              	.LEHE82:
 3031              	.L233:
 3032 0d57 4889DF   		movq	%rbx, %rdi
 3033 0d5a 4889C5   		movq	%rax, %rbp
 3034 0d5d E8000000 		call	_ZN8UnitTest15MemoryOutStreamD1Ev
 3034      00
 3035              	.L222:
 3036 0d62 E8000000 		call	__cxa_end_catch@PLT
 3036      00
 3037 0d67 4889EF   		movq	%rbp, %rdi
 3038              	.LEHB83:
 3039 0d6a E8000000 		call	_Unwind_Resume@PLT
 3039      00
 3040              	.LEHE83:
 3041              	.L232:
 3042 0d6f 4889C5   		movq	%rax, %rbp
 3043 0d72 EBEE     		jmp	.L222
 3044              	.L258:
 3045 0d74 E8000000 		call	__cxa_begin_catch@PLT
 3045      00
 3046              	.LEHB84:
 3047 0d79 E8000000 		call	_ZN8UnitTest11CurrentTest7ResultsEv@PLT
 3047      00
 3048 0d7e 4889E3   		movq	%rsp, %rbx
 3049 0d81 BA5C0000 		movl	$92, %edx
 3049      00
 3050 0d86 4889EE   		movq	%rbp, %rsi
 3051 0d89 4889DF   		movq	%rbx, %rdi
 3052 0d8c 4C8B20   		movq	(%rax), %r12
 3053 0d8f E8000000 		call	_ZN8UnitTest11TestDetailsC1ERKS0_i@PLT
 3053      00
 3054 0d94 488D1500 		leaq	.LC13(%rip), %rdx
 3054      000000
 3055 0d9b 4889DE   		movq	%rbx, %rsi
 3056 0d9e 4C89E7   		movq	%r12, %rdi
 3057 0da1 E8000000 		call	_ZN8UnitTest11TestResults13OnTestFailureERKNS_11TestDetailsEPKc@PLT
 3057      00
 3058              	.LEHE84:
 3059 0da6 EB90     		jmp	.L219
 3060              	.L217:
 3061 0da8 E8000000 		call	__cxa_begin_catch@PLT
 3061      00
 3062 0dad 4889C3   		movq	%rax, %rbx
 3063              	.LEHB85:
 3064 0db0 E8000000 		call	_ZN8UnitTest11CurrentTest7ResultsEv@PLT
 3064      00
 3065 0db5 488B28   		movq	(%rax), %rbp
 3066 0db8 488B03   		movq	(%rbx), %rax
 3067 0dbb 4889DF   		movq	%rbx, %rdi
 3068 0dbe FF5010   		call	*16(%rax)
 3069 0dc1 4889DF   		movq	%rbx, %rdi
 3070 0dc4 4989C4   		movq	%rax, %r12
 3071 0dc7 E8000000 		call	_ZNK8UnitTest15AssertException10LineNumberEv@PLT
 3071      00
 3072 0dcc 4889DF   		movq	%rbx, %rdi
 3073 0dcf 4189C6   		movl	%eax, %r14d
 3074 0dd2 E8000000 		call	_ZNK8UnitTest15AssertException8FilenameEv@PLT
 3074      00
 3075 0dd7 498B5508 		movq	8(%r13), %rdx
 3076 0ddb 498B7510 		movq	16(%r13), %rsi
 3077 0ddf 4889E3   		movq	%rsp, %rbx
 3078 0de2 4589F0   		movl	%r14d, %r8d
 3079 0de5 4889C1   		movq	%rax, %rcx
 3080 0de8 4889DF   		movq	%rbx, %rdi
 3081 0deb E8000000 		call	_ZN8UnitTest11TestDetailsC1EPKcS2_S2_i@PLT
 3081      00
 3082 0df0 4C89E2   		movq	%r12, %rdx
 3083 0df3 4889DE   		movq	%rbx, %rsi
 3084 0df6 4889EF   		movq	%rbp, %rdi
 3085 0df9 E8000000 		call	_ZN8UnitTest11TestResults13OnTestFailureERKNS_11TestDetailsEPKc@PLT
 3085      00
 3086              	.LEHE85:
 3087 0dfe E99FFEFF 		jmp	.L256
 3087      FF
 3088              	.L231:
 3089 0e03 4889C3   		movq	%rax, %rbx
 3090 0e06 E8000000 		call	__cxa_end_catch@PLT
 3090      00
 3091 0e0b 4889DF   		movq	%rbx, %rdi
 3092              	.LEHB86:
 3093 0e0e E8000000 		call	_Unwind_Resume@PLT
 3093      00
 3094              	.LEHE86:
 3095              		.cfi_endproc
 3096              	.LFE1201:
 3097              		.section	.gcc_except_table
 3098              		.align 4
 3099              	.LLSDA1201:
 3100 01cc FF       		.byte	0xff
 3101 01cd 9B       		.byte	0x9b
 3102 01ce 6D       		.uleb128 .LLSDATT1201-.LLSDATTD1201
 3103              	.LLSDATTD1201:
 3104 01cf 01       		.byte	0x1
 3105 01d0 55       		.uleb128 .LLSDACSE1201-.LLSDACSB1201
 3106              	.LLSDACSB1201:
 3107 01d1 35       		.uleb128 .LEHB72-.LFB1201
 3108 01d2 05       		.uleb128 .LEHE72-.LEHB72
 3109 01d3 C204     		.uleb128 .L237-.LFB1201
 3110 01d5 05       		.uleb128 0x5
 3111 01d6 D601     		.uleb128 .LEHB73-.LFB1201
 3112 01d8 05       		.uleb128 .LEHE73-.LEHB73
 3113 01d9 DE03     		.uleb128 .L235-.LFB1201
 3114 01db 07       		.uleb128 0x7
 3115 01dc E901     		.uleb128 .LEHB74-.LFB1201
 3116 01de 05       		.uleb128 .LEHE74-.LEHB74
 3117 01df C503     		.uleb128 .L230-.LFB1201
 3118 01e1 07       		.uleb128 0x7
 3119 01e2 F701     		.uleb128 .LEHB75-.LFB1201
 3120 01e4 05       		.uleb128 .LEHE75-.LEHB75
 3121 01e5 AC03     		.uleb128 .L236-.LFB1201
 3122 01e7 07       		.uleb128 0x7
 3123 01e8 FF01     		.uleb128 .LEHB76-.LFB1201
 3124 01ea 05       		.uleb128 .LEHE76-.LEHB76
 3125 01eb AC02     		.uleb128 .L229-.LFB1201
 3126 01ed 05       		.uleb128 0x5
 3127 01ee CE02     		.uleb128 .LEHB77-.LFB1201
 3128 01f0 05       		.uleb128 .LEHE77-.LEHB77
 3129 01f1 EF04     		.uleb128 .L232-.LFB1201
 3130 01f3 00       		.uleb128 0
 3131 01f4 E202     		.uleb128 .LEHB78-.LFB1201
 3132 01f6 38       		.uleb128 .LEHE78-.LEHB78
 3133 01f7 D704     		.uleb128 .L233-.LFB1201
 3134 01f9 00       		.uleb128 0
 3135 01fa 9D03     		.uleb128 .LEHB79-.LFB1201
 3136 01fc 05       		.uleb128 .LEHE79-.LEHB79
 3137 01fd EF04     		.uleb128 .L232-.LFB1201
 3138 01ff 00       		.uleb128 0
 3139 0200 8B04     		.uleb128 .LEHB80-.LFB1201
 3140 0202 2D       		.uleb128 .LEHE80-.LEHB80
 3141 0203 C704     		.uleb128 .L234-.LFB1201
 3142 0205 00       		.uleb128 0
 3143 0206 B804     		.uleb128 .LEHB81-.LFB1201
 3144 0208 05       		.uleb128 .LEHE81-.LEHB81
 3145 0209 00       		.uleb128 0
 3146 020a 00       		.uleb128 0
 3147 020b D204     		.uleb128 .LEHB82-.LFB1201
 3148 020d 05       		.uleb128 .LEHE82-.LEHB82
 3149 020e 00       		.uleb128 0
 3150 020f 00       		.uleb128 0
 3151 0210 EA04     		.uleb128 .LEHB83-.LFB1201
 3152 0212 05       		.uleb128 .LEHE83-.LEHB83
 3153 0213 00       		.uleb128 0
 3154 0214 00       		.uleb128 0
 3155 0215 F904     		.uleb128 .LEHB84-.LFB1201
 3156 0217 2D       		.uleb128 .LEHE84-.LEHB84
 3157 0218 C704     		.uleb128 .L234-.LFB1201
 3158 021a 00       		.uleb128 0
 3159 021b B005     		.uleb128 .LEHB85-.LFB1201
 3160 021d 4E       		.uleb128 .LEHE85-.LEHB85
 3161 021e 8306     		.uleb128 .L231-.LFB1201
 3162 0220 00       		.uleb128 0
 3163 0221 8E06     		.uleb128 .LEHB86-.LFB1201
 3164 0223 05       		.uleb128 .LEHE86-.LEHB86
 3165 0224 00       		.uleb128 0
 3166 0225 00       		.uleb128 0
 3167              	.LLSDACSE1201:
 3168 0226 03       		.byte	0x3
 3169 0227 00       		.byte	0
 3170 0228 02       		.byte	0x2
 3171 0229 7D       		.byte	0x7d
 3172 022a 01       		.byte	0x1
 3173 022b 7D       		.byte	0x7d
 3174 022c 00       		.byte	0
 3175 022d 7D       		.byte	0x7d
 3176 022e 0000     		.align 4
 3177 0230 00000000 		.long	0
 3178              	
 3179 0234 00000000 		.long	DW.ref._ZTISt9exception-.
 3180 0238 00000000 		.long	DW.ref._ZTIN8UnitTest15AssertExceptionE-.
 3181              	.LLSDATT1201:
 3182              		.text
 3184              		.section	.text._ZNSt7__cxx1115basic_stringbufIcSt11char_traitsIcESaIcEED0Ev,"axG",@progbits,_ZNSt7
 3185              		.align 2
 3186              		.p2align 4,,15
 3187              		.weak	_ZNSt7__cxx1115basic_stringbufIcSt11char_traitsIcESaIcEED0Ev
 3189              	_ZNSt7__cxx1115basic_stringbufIcSt11char_traitsIcESaIcEED0Ev:
 3190              	.LFB1389:
 3191              		.cfi_startproc
 3192 0000 488D0500 		leaq	16+_ZTVNSt7__cxx1115basic_stringbufIcSt11char_traitsIcESaIcEEE(%rip), %rax
 3192      000000
 3193 0007 53       		pushq	%rbx
 3194              		.cfi_def_cfa_offset 16
 3195              		.cfi_offset 3, -16
 3196 0008 4889FB   		movq	%rdi, %rbx
 3197 000b 488907   		movq	%rax, (%rdi)
 3198 000e 488B7F48 		movq	72(%rdi), %rdi
 3199 0012 488D4358 		leaq	88(%rbx), %rax
 3200 0016 4839C7   		cmpq	%rax, %rdi
 3201 0019 7405     		je	.L260
 3202 001b E8000000 		call	_ZdlPv@PLT
 3202      00
 3203              	.L260:
 3204 0020 488D0500 		leaq	16+_ZTVSt15basic_streambufIcSt11char_traitsIcEE(%rip), %rax
 3204      000000
 3205 0027 488D7B38 		leaq	56(%rbx), %rdi
 3206 002b 488903   		movq	%rax, (%rbx)
 3207 002e E8000000 		call	_ZNSt6localeD1Ev@PLT
 3207      00
 3208 0033 4889DF   		movq	%rbx, %rdi
 3209 0036 5B       		popq	%rbx
 3210              		.cfi_def_cfa_offset 8
 3211 0037 E9000000 		jmp	_ZdlPv@PLT
 3211      00
 3212              		.cfi_endproc
 3213              	.LFE1389:
 3215              		.section	.rodata._ZN8UnitTest10CheckEqualIiiEEvRNS_11TestResultsERKT_RKT0_RKNS_11TestDetailsE.str1
 3216              	.LC15:
 3217 0000 45787065 		.string	"Expected "
 3217      63746564 
 3217      2000
 3218              	.LC16:
 3219 000a 20627574 		.string	" but was "
 3219      20776173 
 3219      2000
 3220              		.section	.text._ZN8UnitTest10CheckEqualIiiEEvRNS_11TestResultsERKT_RKT0_RKNS_11TestDetailsE,"axG",
 3221              		.p2align 4,,15
 3222              		.weak	_ZN8UnitTest10CheckEqualIiiEEvRNS_11TestResultsERKT_RKT0_RKNS_11TestDetailsE
 3224              	_ZN8UnitTest10CheckEqualIiiEEvRNS_11TestResultsERKT_RKT0_RKNS_11TestDetailsE:
 3225              	.LFB1408:
 3226              		.cfi_startproc
 3227              		.cfi_personality 0x9b,DW.ref.__gxx_personality_v0
 3228              		.cfi_lsda 0x1b,.LLSDA1408
 3229 0000 4157     		pushq	%r15
 3230              		.cfi_def_cfa_offset 16
 3231              		.cfi_offset 15, -16
 3232 0002 4156     		pushq	%r14
 3233              		.cfi_def_cfa_offset 24
 3234              		.cfi_offset 14, -24
 3235 0004 4155     		pushq	%r13
 3236              		.cfi_def_cfa_offset 32
 3237              		.cfi_offset 13, -32
 3238 0006 4154     		pushq	%r12
 3239              		.cfi_def_cfa_offset 40
 3240              		.cfi_offset 12, -40
 3241 0008 55       		pushq	%rbp
 3242              		.cfi_def_cfa_offset 48
 3243              		.cfi_offset 6, -48
 3244 0009 53       		pushq	%rbx
 3245              		.cfi_def_cfa_offset 56
 3246              		.cfi_offset 3, -56
 3247 000a 4881ECB8 		subq	$440, %rsp
 3247      010000
 3248              		.cfi_def_cfa_offset 496
 3249 0011 64488B04 		movq	%fs:40, %rax
 3249      25280000 
 3249      00
 3250 001a 48898424 		movq	%rax, 424(%rsp)
 3250      A8010000 
 3251 0022 31C0     		xorl	%eax, %eax
 3252 0024 8B02     		movl	(%rdx), %eax
 3253 0026 3906     		cmpl	%eax, (%rsi)
 3254 0028 48893C24 		movq	%rdi, (%rsp)
 3255 002c 48894C24 		movq	%rcx, 8(%rsp)
 3255      08
 3256 0031 0F842F02 		je	.L262
 3256      0000
 3257 0037 488D5C24 		leaq	16(%rsp), %rbx
 3257      10
 3258 003c 4C8D2D00 		leaq	24+_ZTCN8UnitTest15MemoryOutStreamE0_So(%rip), %r13
 3258      000000
 3259 0043 4989F4   		movq	%rsi, %r12
 3260 0046 4889D5   		movq	%rdx, %rbp
 3261 0049 4C8DB390 		leaq	144(%rbx), %r14
 3261      000000
 3262 0050 4C89F7   		movq	%r14, %rdi
 3263 0053 E8000000 		call	_ZNSt8ios_baseC2Ev@PLT
 3263      00
 3264 0058 498D4528 		leaq	40(%r13), %rax
 3265 005c 31F6     		xorl	%esi, %esi
 3266 005e 4C89F7   		movq	%r14, %rdi
 3267 0061 48C78424 		movq	$0, 376(%rsp)
 3267      78010000 
 3267      00000000 
 3268 006d C6842480 		movb	$0, 384(%rsp)
 3268      01000000 
 3269 0075 C6842481 		movb	$0, 385(%rsp)
 3269      01000000 
 3270 007d 48C78424 		movq	$0, 392(%rsp)
 3270      88010000 
 3270      00000000 
 3271 0089 48C78424 		movq	$0, 400(%rsp)
 3271      90010000 
 3271      00000000 
 3272 0095 48C78424 		movq	$0, 408(%rsp)
 3272      98010000 
 3272      00000000 
 3273 00a1 48C78424 		movq	$0, 416(%rsp)
 3273      A0010000 
 3273      00000000 
 3274 00ad 4C896C24 		movq	%r13, 16(%rsp)
 3274      10
 3275 00b2 48898424 		movq	%rax, 160(%rsp)
 3275      A0000000 
 3276              	.LEHB87:
 3277 00ba E8000000 		call	_ZNSt9basic_iosIcSt11char_traitsIcEE4initEPSt15basic_streambufIcS1_E@PLT
 3277      00
 3278              	.LEHE87:
 3279 00bf 488D0500 		leaq	24+_ZTCN8UnitTest15MemoryOutStreamE0_NSt7__cxx1119basic_ostringstreamIcSt11char_traitsIcESaIc
 3279      000000
 3280 00c6 660FEFC0 		pxor	%xmm0, %xmm0
 3281 00ca 488D7B40 		leaq	64(%rbx), %rdi
 3282 00ce 48894424 		movq	%rax, 16(%rsp)
 3282      10
 3283 00d3 4883C028 		addq	$40, %rax
 3284 00d7 48898424 		movq	%rax, 160(%rsp)
 3284      A0000000 
 3285 00df 488D0500 		leaq	16+_ZTVSt15basic_streambufIcSt11char_traitsIcEE(%rip), %rax
 3285      000000
 3286 00e6 0F294424 		movaps	%xmm0, 32(%rsp)
 3286      20
 3287 00eb 48894424 		movq	%rax, 24(%rsp)
 3287      18
 3288 00f0 0F294424 		movaps	%xmm0, 48(%rsp)
 3288      30
 3289 00f5 0F294424 		movaps	%xmm0, 64(%rsp)
 3289      40
 3290 00fa E8000000 		call	_ZNSt6localeC1Ev@PLT
 3290      00
 3291 00ff 488D0500 		leaq	16+_ZTVNSt7__cxx1115basic_stringbufIcSt11char_traitsIcESaIcEEE(%rip), %rax
 3291      000000
 3292 0106 488D7308 		leaq	8(%rbx), %rsi
 3293 010a 48894424 		movq	%rax, 24(%rsp)
 3293      18
 3294 010f 488D4360 		leaq	96(%rbx), %rax
 3295 0113 C7442458 		movl	$16, 88(%rsp)
 3295      10000000 
 3296 011b 48C74424 		movq	$0, 104(%rsp)
 3296      68000000 
 3296      00
 3297 0124 C6442470 		movb	$0, 112(%rsp)
 3297      00
 3298 0129 48894424 		movq	%rax, 96(%rsp)
 3298      60
 3299 012e 488B4424 		movq	16(%rsp), %rax
 3299      10
 3300 0133 488B78E8 		movq	-24(%rax), %rdi
 3301 0137 4801DF   		addq	%rbx, %rdi
 3302              	.LEHB88:
 3303 013a E8000000 		call	_ZNSt9basic_iosIcSt11char_traitsIcEE4initEPSt15basic_streambufIcS1_E@PLT
 3303      00
 3304              	.LEHE88:
 3305 013f 4C8D3D00 		leaq	24+_ZTVN8UnitTest15MemoryOutStreamE(%rip), %r15
 3305      000000
 3306 0146 488D8380 		leaq	128(%rbx), %rax
 3306      000000
 3307 014d 488D3500 		leaq	.LC15(%rip), %rsi
 3307      000000
 3308 0154 BA090000 		movl	$9, %edx
 3308      00
 3309 0159 4889DF   		movq	%rbx, %rdi
 3310 015c 48C78424 		movq	$0, 136(%rsp)
 3310      88000000 
 3310      00000000 
 3311 0168 4D8D7728 		leaq	40(%r15), %r14
 3312 016c 4C897C24 		movq	%r15, 16(%rsp)
 3312      10
 3313 0171 48898424 		movq	%rax, 128(%rsp)
 3313      80000000 
 3314 0179 C6842490 		movb	$0, 144(%rsp)
 3314      00000000 
 3315 0181 4C89B424 		movq	%r14, 160(%rsp)
 3315      A0000000 
 3316              	.LEHB89:
 3317 0189 E8000000 		call	_ZSt16__ostream_insertIcSt11char_traitsIcEERSt13basic_ostreamIT_T0_ES6_PKS3_l@PLT
 3317      00
 3318 018e 418B3424 		movl	(%r12), %esi
 3319 0192 4889DF   		movq	%rbx, %rdi
 3320 0195 E8000000 		call	_ZNSolsEi@PLT
 3320      00
 3321 019a 488D3500 		leaq	.LC16(%rip), %rsi
 3321      000000
 3322 01a1 BA090000 		movl	$9, %edx
 3322      00
 3323 01a6 4889C7   		movq	%rax, %rdi
 3324 01a9 4989C4   		movq	%rax, %r12
 3325 01ac E8000000 		call	_ZSt16__ostream_insertIcSt11char_traitsIcEERSt13basic_ostreamIT_T0_ES6_PKS3_l@PLT
 3325      00
 3326 01b1 8B7500   		movl	0(%rbp), %esi
 3327 01b4 4C89E7   		movq	%r12, %rdi
 3328 01b7 E8000000 		call	_ZNSolsEi@PLT
 3328      00
 3329 01bc 4889DF   		movq	%rbx, %rdi
 3330 01bf E8000000 		call	_ZNK8UnitTest15MemoryOutStream7GetTextEv@PLT
 3330      00
 3331 01c4 488B7424 		movq	8(%rsp), %rsi
 3331      08
 3332 01c9 488B3C24 		movq	(%rsp), %rdi
 3333 01cd 4889C2   		movq	%rax, %rdx
 3334 01d0 E8000000 		call	_ZN8UnitTest11TestResults13OnTestFailureERKNS_11TestDetailsEPKc@PLT
 3334      00
 3335              	.LEHE89:
 3336 01d5 488BBC24 		movq	128(%rsp), %rdi
 3336      80000000 
 3337 01dd 488D8380 		leaq	128(%rbx), %rax
 3337      000000
 3338 01e4 4C897C24 		movq	%r15, 16(%rsp)
 3338      10
 3339 01e9 4C89B424 		movq	%r14, 160(%rsp)
 3339      A0000000 
 3340 01f1 4839C7   		cmpq	%rax, %rdi
 3341 01f4 7405     		je	.L268
 3342 01f6 E8000000 		call	_ZdlPv@PLT
 3342      00
 3343              	.L268:
 3344 01fb 488D0500 		leaq	64+_ZTCN8UnitTest15MemoryOutStreamE0_NSt7__cxx1119basic_ostringstreamIcSt11char_traitsIcESaIc
 3344      000000
 3345 0202 488B7C24 		movq	96(%rsp), %rdi
 3345      60
 3346 0207 F30F7E05 		movq	.LC17(%rip), %xmm0
 3346      00000000 
 3347 020f 48898424 		movq	%rax, 160(%rsp)
 3347      A0000000 
 3348 0217 488D4360 		leaq	96(%rbx), %rax
 3349 021b 0F160500 		movhps	.LC18(%rip), %xmm0
 3349      000000
 3350 0222 4839C7   		cmpq	%rax, %rdi
 3351 0225 0F294424 		movaps	%xmm0, 16(%rsp)
 3351      10
 3352 022a 7405     		je	.L269
 3353 022c E8000000 		call	_ZdlPv@PLT
 3353      00
 3354              	.L269:
 3355 0231 488D0500 		leaq	16+_ZTVSt15basic_streambufIcSt11char_traitsIcEE(%rip), %rax
 3355      000000
 3356 0238 488D7B40 		leaq	64(%rbx), %rdi
 3357 023c 48894424 		movq	%rax, 24(%rsp)
 3357      18
 3358 0241 E8000000 		call	_ZNSt6localeD1Ev@PLT
 3358      00
 3359 0246 488D0500 		leaq	16+_ZTVSt9basic_iosIcSt11char_traitsIcEE(%rip), %rax
 3359      000000
 3360 024d 488DBB90 		leaq	144(%rbx), %rdi
 3360      000000
 3361 0254 4C896C24 		movq	%r13, 16(%rsp)
 3361      10
 3362 0259 48898424 		movq	%rax, 160(%rsp)
 3362      A0000000 
 3363              	.LEHB90:
 3364 0261 E8000000 		call	_ZNSt8ios_baseD2Ev@PLT
 3364      00
 3365              	.LEHE90:
 3366              	.L262:
 3367 0266 488B8424 		movq	424(%rsp), %rax
 3367      A8010000 
 3368 026e 64483304 		xorq	%fs:40, %rax
 3368      25280000 
 3368      00
 3369 0277 7512     		jne	.L278
 3370 0279 4881C4B8 		addq	$440, %rsp
 3370      010000
 3371              		.cfi_remember_state
 3372              		.cfi_def_cfa_offset 56
 3373 0280 5B       		popq	%rbx
 3374              		.cfi_def_cfa_offset 48
 3375 0281 5D       		popq	%rbp
 3376              		.cfi_def_cfa_offset 40
 3377 0282 415C     		popq	%r12
 3378              		.cfi_def_cfa_offset 32
 3379 0284 415D     		popq	%r13
 3380              		.cfi_def_cfa_offset 24
 3381 0286 415E     		popq	%r14
 3382              		.cfi_def_cfa_offset 16
 3383 0288 415F     		popq	%r15
 3384              		.cfi_def_cfa_offset 8
 3385 028a C3       		ret
 3386              	.L278:
 3387              		.cfi_restore_state
 3388 028b E8000000 		call	__stack_chk_fail@PLT
 3388      00
 3389              	.L273:
 3390 0290 4889C5   		movq	%rax, %rbp
 3391              	.L266:
 3392 0293 488D0500 		leaq	16+_ZTVSt9basic_iosIcSt11char_traitsIcEE(%rip), %rax
 3392      000000
 3393 029a 488DBB90 		leaq	144(%rbx), %rdi
 3393      000000
 3394 02a1 48898424 		movq	%rax, 160(%rsp)
 3394      A0000000 
 3395 02a9 E8000000 		call	_ZNSt8ios_baseD2Ev@PLT
 3395      00
 3396 02ae 4889EF   		movq	%rbp, %rdi
 3397              	.LEHB91:
 3398 02b1 E8000000 		call	_Unwind_Resume@PLT
 3398      00
 3399              	.LEHE91:
 3400              	.L272:
 3401 02b6 4889C5   		movq	%rax, %rbp
 3402 02b9 4889DF   		movq	%rbx, %rdi
 3403 02bc E8000000 		call	_ZN8UnitTest15MemoryOutStreamD1Ev
 3403      00
 3404 02c1 4889EF   		movq	%rbp, %rdi
 3405              	.LEHB92:
 3406 02c4 E8000000 		call	_Unwind_Resume@PLT
 3406      00
 3407              	.LEHE92:
 3408              	.L274:
 3409 02c9 488D7B08 		leaq	8(%rbx), %rdi
 3410 02cd 4889C5   		movq	%rax, %rbp
 3411 02d0 E8000000 		call	_ZNSt7__cxx1115basic_stringbufIcSt11char_traitsIcESaIcEED1Ev
 3411      00
 3412 02d5 4C896C24 		movq	%r13, 16(%rsp)
 3412      10
 3413 02da EBB7     		jmp	.L266
 3414              		.cfi_endproc
 3415              	.LFE1408:
 3416              		.section	.gcc_except_table
 3417              	.LLSDA1408:
 3418 023c FF       		.byte	0xff
 3419 023d FF       		.byte	0xff
 3420 023e 01       		.byte	0x1
 3421 023f 21       		.uleb128 .LLSDACSE1408-.LLSDACSB1408
 3422              	.LLSDACSB1408:
 3423 0240 BA01     		.uleb128 .LEHB87-.LFB1408
 3424 0242 05       		.uleb128 .LEHE87-.LEHB87
 3425 0243 9005     		.uleb128 .L273-.LFB1408
 3426 0245 00       		.uleb128 0
 3427 0246 BA02     		.uleb128 .LEHB88-.LFB1408
 3428 0248 05       		.uleb128 .LEHE88-.LEHB88
 3429 0249 C905     		.uleb128 .L274-.LFB1408
 3430 024b 00       		.uleb128 0
 3431 024c 8903     		.uleb128 .LEHB89-.LFB1408
 3432 024e 4C       		.uleb128 .LEHE89-.LEHB89
 3433 024f B605     		.uleb128 .L272-.LFB1408
 3434 0251 00       		.uleb128 0
 3435 0252 E104     		.uleb128 .LEHB90-.LFB1408
 3436 0254 05       		.uleb128 .LEHE90-.LEHB90
 3437 0255 00       		.uleb128 0
 3438 0256 00       		.uleb128 0
 3439 0257 B105     		.uleb128 .LEHB91-.LFB1408
 3440 0259 05       		.uleb128 .LEHE91-.LEHB91
 3441 025a 00       		.uleb128 0
 3442 025b 00       		.uleb128 0
 3443 025c C405     		.uleb128 .LEHB92-.LFB1408
 3444 025e 05       		.uleb128 .LEHE92-.LEHB92
 3445 025f 00       		.uleb128 0
 3446 0260 00       		.uleb128 0
 3447              	.LLSDACSE1408:
 3448              		.section	.text._ZN8UnitTest10CheckEqualIiiEEvRNS_11TestResultsERKT_RKT0_RKNS_11TestDetailsE,"axG",
 3450              		.section	.rodata.str1.1
 3451              	.LC19:
 3452 0077 4F746865 		.string	"OtherSuite"
 3452      72537569 
 3452      746500
 3453              	.LC20:
 3454 0082 54657374 		.string	"TestInOtherSuite"
 3454      496E4F74 
 3454      68657253 
 3454      75697465 
 3454      00
 3455              		.section	.rodata.str1.8
 3456 0151 00000000 		.align 8
 3456      000000
 3457              	.LC21:
 3458 0158 556E6861 		.string	"Unhandled exception in CHECK_EQUAL(1, reporter.summaryTotalTestCount)"
 3458      6E646C65 
 3458      64206578 
 3458      63657074 
 3458      696F6E20 
 3459 019e 0000     		.align 8
 3460              	.LC22:
 3461 01a0 556E6861 		.string	"Unhandled exception in CHECK_EQUAL(\"TestInOtherSuite\", reporter.lastFinishedTest)"
 3461      6E646C65 
 3461      64206578 
 3461      63657074 
 3461      696F6E20 
 3462              		.text
 3463 0e13 0F1F0066 		.p2align 4,,15
 3463      2E0F1F84 
 3463      00000000 
 3463      00
 3465              	_ZN8UnitTest11ExecuteTestIN12_GLOBAL__N_154TestSuiteFixtureTestRunnerRunsOnlySpecifiedSuiteHelperEE
 3466              	.LFB1425:
 3467              		.cfi_startproc
 3468              		.cfi_personality 0x9b,DW.ref.__gxx_personality_v0
 3469              		.cfi_lsda 0x1b,.LLSDA1425
 3470 0e20 4156     		pushq	%r14
 3471              		.cfi_def_cfa_offset 16
 3472              		.cfi_offset 14, -16
 3473 0e22 4155     		pushq	%r13
 3474              		.cfi_def_cfa_offset 24
 3475              		.cfi_offset 13, -24
 3476 0e24 4154     		pushq	%r12
 3477              		.cfi_def_cfa_offset 32
 3478              		.cfi_offset 12, -32
 3479 0e26 55       		pushq	%rbp
 3480              		.cfi_def_cfa_offset 40
 3481              		.cfi_offset 6, -40
 3482 0e27 53       		pushq	%rbx
 3483              		.cfi_def_cfa_offset 48
 3484              		.cfi_offset 3, -48
 3485 0e28 4889F3   		movq	%rsi, %rbx
 3486 0e2b 4881ECD0 		subq	$1744, %rsp
 3486      060000
 3487              		.cfi_def_cfa_offset 1792
 3488 0e32 48893C24 		movq	%rdi, (%rsp)
 3489 0e36 48897424 		movq	%rsi, 8(%rsp)
 3489      08
 3490 0e3b 64488B04 		movq	%fs:40, %rax
 3490      25280000 
 3490      00
 3491 0e44 48898424 		movq	%rax, 1736(%rsp)
 3491      C8060000 
 3492 0e4c 31C0     		xorl	%eax, %eax
 3493              	.LEHB93:
 3494 0e4e E8000000 		call	_ZN8UnitTest11CurrentTest7DetailsEv@PLT
 3494      00
 3495              	.LEHE93:
 3496 0e53 488DBC24 		leaq	608(%rsp), %rdi
 3496      60020000 
 3497 0e5b 488918   		movq	%rbx, (%rax)
 3498              	.LEHB94:
 3499 0e5e E8000000 		call	_ZN8UnitTest16SignalTranslatorC1Ev@PLT
 3499      00
 3500              	.LEHE94:
 3501 0e63 488B3D00 		movq	_ZN8UnitTest16SignalTranslator12s_jumpTargetE(%rip), %rdi
 3501      000000
 3502 0e6a BE010000 		movl	$1, %esi
 3502      00
 3503 0e6f E8000000 		call	__sigsetjmp@PLT
 3503      00
 3504 0e74 85C0     		testl	%eax, %eax
 3505 0e76 7428     		je	.L281
 3506 0e78 BF080000 		movl	$8, %edi
 3506      00
 3507 0e7d E8000000 		call	__cxa_allocate_exception@PLT
 3507      00
 3508 0e82 488D0D00 		leaq	.LC3(%rip), %rcx
 3508      000000
 3509 0e89 488D3500 		leaq	_ZTIPKc(%rip), %rsi
 3509      000000
 3510 0e90 31D2     		xorl	%edx, %edx
 3511 0e92 4889C7   		movq	%rax, %rdi
 3512 0e95 488908   		movq	%rcx, (%rax)
 3513              	.LEHB95:
 3514 0e98 E8000000 		call	__cxa_throw@PLT
 3514      00
 3515 0e9d 0F1F00   		.p2align 4,,10
 3516              		.p2align 3
 3517              	.L281:
 3518 0ea0 488B2C24 		movq	(%rsp), %rbp
 3519 0ea4 488D9DF0 		leaq	2288(%rbp), %rbx
 3519      080000
 3520 0eab E8000000 		call	_ZN8UnitTest11CurrentTest7ResultsEv@PLT
 3520      00
 3521 0eb0 4C8B30   		movq	(%rax), %r14
 3522 0eb3 E8000000 		call	_ZN8UnitTest11CurrentTest7DetailsEv@PLT
 3522      00
 3523 0eb8 4889DF   		movq	%rbx, %rdi
 3524 0ebb 4C8B28   		movq	(%rax), %r13
 3525 0ebe E8000000 		call	_ZNK8UnitTest8TestList7GetHeadEv@PLT
 3525      00
 3526 0ec3 4885C0   		testq	%rax, %rax
 3527 0ec6 4889C3   		movq	%rax, %rbx
 3528 0ec9 7446     		je	.L282
 3529 0ecb 4C8D2500 		leaq	.LC19(%rip), %r12
 3529      000000
 3530 0ed2 EB0D     		jmp	.L284
 3531              		.p2align 4,,10
 3532 0ed4 0F1F4000 		.p2align 3
 3533              	.L318:
 3534 0ed8 488B5B28 		movq	40(%rbx), %rbx
 3535 0edc 4885DB   		testq	%rbx, %rbx
 3536 0edf 7430     		je	.L282
 3537              	.L284:
 3538 0ee1 4C89E2   		movq	%r12, %rdx
 3539 0ee4 4889DE   		movq	%rbx, %rsi
 3540 0ee7 4889EF   		movq	%rbp, %rdi
 3541 0eea E8000000 		call	_ZNK8UnitTest10TestRunner13IsTestInSuiteEPKNS_4TestEPKc@PLT
 3541      00
 3542 0eef 84C0     		testb	%al, %al
 3543 0ef1 74E5     		je	.L318
 3544 0ef3 488B0424 		movq	(%rsp), %rax
 3545 0ef7 31C9     		xorl	%ecx, %ecx
 3546 0ef9 4889DA   		movq	%rbx, %rdx
 3547 0efc 4889EF   		movq	%rbp, %rdi
 3548 0eff 488B7008 		movq	8(%rax), %rsi
 3549 0f03 E8000000 		call	_ZNK8UnitTest10TestRunner7RunTestEPNS_11TestResultsEPNS_4TestEi@PLT
 3549      00
 3550 0f08 488B5B28 		movq	40(%rbx), %rbx
 3551 0f0c 4885DB   		testq	%rbx, %rbx
 3552 0f0f 75D0     		jne	.L284
 3553              	.L282:
 3554 0f11 488B1C24 		movq	(%rsp), %rbx
 3555 0f15 4889DF   		movq	%rbx, %rdi
 3556 0f18 E8000000 		call	_ZNK8UnitTest10TestRunner6FinishEv@PLT
 3556      00
 3557 0f1d E8000000 		call	_ZN8UnitTest11CurrentTest7ResultsEv@PLT
 3557      00
 3558 0f22 4C8930   		movq	%r14, (%rax)
 3559 0f25 E8000000 		call	_ZN8UnitTest11CurrentTest7DetailsEv@PLT
 3559      00
 3560              	.LEHE95:
 3561 0f2a 4C8928   		movq	%r13, (%rax)
 3562              	.LEHB96:
 3563 0f2d E8000000 		call	_ZN8UnitTest11CurrentTest7DetailsEv@PLT
 3563      00
 3564 0f32 488B30   		movq	(%rax), %rsi
 3565 0f35 488DBC24 		leaq	160(%rsp), %rdi
 3565      A0000000 
 3566 0f3d BAFB0000 		movl	$251, %edx
 3566      00
 3567 0f42 E8000000 		call	_ZN8UnitTest11TestDetailsC1ERKS0_i@PLT
 3567      00
 3568 0f47 4881C334 		addq	$2100, %rbx
 3568      080000
 3569 0f4e C744241C 		movl	$1, 28(%rsp)
 3569      01000000 
 3570 0f56 E8000000 		call	_ZN8UnitTest11CurrentTest7ResultsEv@PLT
 3570      00
 3571 0f5b 488B38   		movq	(%rax), %rdi
 3572 0f5e 488D8C24 		leaq	160(%rsp), %rcx
 3572      A0000000 
 3573 0f66 488D7424 		leaq	28(%rsp), %rsi
 3573      1C
 3574 0f6b 4889DA   		movq	%rbx, %rdx
 3575 0f6e E8000000 		call	_ZN8UnitTest10CheckEqualIiiEEvRNS_11TestResultsERKT_RKT0_RKNS_11TestDetailsE
 3575      00
 3576              	.LEHE96:
 3577              	.L288:
 3578              	.LEHB97:
 3579 0f73 E8000000 		call	_ZN8UnitTest11CurrentTest7DetailsEv@PLT
 3579      00
 3580 0f78 488B30   		movq	(%rax), %rsi
 3581 0f7b 488D7C24 		leaq	96(%rsp), %rdi
 3581      60
 3582 0f80 BAFC0000 		movl	$252, %edx
 3582      00
 3583 0f85 E8000000 		call	_ZN8UnitTest11TestDetailsC1ERKS0_i@PLT
 3583      00
 3584 0f8a 488B1C24 		movq	(%rsp), %rbx
 3585 0f8e 4881C330 		addq	$1840, %rbx
 3585      070000
 3586 0f95 E8000000 		call	_ZN8UnitTest11CurrentTest7ResultsEv@PLT
 3586      00
 3587 0f9a 488B38   		movq	(%rax), %rdi
 3588 0f9d 488D4C24 		leaq	96(%rsp), %rcx
 3588      60
 3589 0fa2 488D3500 		leaq	.LC20(%rip), %rsi
 3589      000000
 3590 0fa9 4889DA   		movq	%rbx, %rdx
 3591 0fac E8000000 		call	_ZN8UnitTest10CheckEqualERNS_11TestResultsEPKcPcRKNS_11TestDetailsE@PLT
 3591      00
 3592              	.LEHE97:
 3593              	.L286:
 3594 0fb1 488DBC24 		leaq	608(%rsp), %rdi
 3594      60020000 
 3595              	.LEHB98:
 3596 0fb9 E8000000 		call	_ZN8UnitTest16SignalTranslatorD1Ev@PLT
 3596      00
 3597              	.LEHE98:
 3598              	.L279:
 3599 0fbe 488B8424 		movq	1736(%rsp), %rax
 3599      C8060000 
 3600 0fc6 64483304 		xorq	%fs:40, %rax
 3600      25280000 
 3600      00
 3601 0fcf 0F85C000 		jne	.L319
 3601      0000
 3602 0fd5 4881C4D0 		addq	$1744, %rsp
 3602      060000
 3603              		.cfi_remember_state
 3604              		.cfi_def_cfa_offset 48
 3605 0fdc 5B       		popq	%rbx
 3606              		.cfi_def_cfa_offset 40
 3607 0fdd 5D       		popq	%rbp
 3608              		.cfi_def_cfa_offset 32
 3609 0fde 415C     		popq	%r12
 3610              		.cfi_def_cfa_offset 24
 3611 0fe0 415D     		popq	%r13
 3612              		.cfi_def_cfa_offset 16
 3613 0fe2 415E     		popq	%r14
 3614              		.cfi_def_cfa_offset 8
 3615 0fe4 C3       		ret
 3616              	.L305:
 3617              		.cfi_restore_state
 3618 0fe5 4889C3   		movq	%rax, %rbx
 3619 0fe8 4889D5   		movq	%rdx, %rbp
 3620              	.L290:
 3621 0feb 488DBC24 		leaq	608(%rsp), %rdi
 3621      60020000 
 3622 0ff3 E8000000 		call	_ZN8UnitTest16SignalTranslatorD1Ev@PLT
 3622      00
 3623 0ff8 4889DF   		movq	%rbx, %rdi
 3624 0ffb 4889EA   		movq	%rbp, %rdx
 3625              	.L293:
 3626 0ffe 4883FA01 		cmpq	$1, %rdx
 3627 1002 0F849401 		je	.L295
 3627      0000
 3628 1008 4883FA02 		cmpq	$2, %rdx
 3629 100c 0F856201 		jne	.L320
 3629      0000
 3630 1012 E8000000 		call	__cxa_begin_catch@PLT
 3630      00
 3631 1017 488DBC24 		leaq	192(%rsp), %rdi
 3631      C0000000 
 3632 101f 4889C3   		movq	%rax, %rbx
 3633              	.LEHB99:
 3634 1022 E8000000 		call	_ZN8UnitTest15MemoryOutStreamC1Ev
 3634      00
 3635              	.LEHE99:
 3636 1027 488DBC24 		leaq	192(%rsp), %rdi
 3636      C0000000 
 3637 102f 488D3500 		leaq	.LC11(%rip), %rsi
 3637      000000
 3638 1036 BA150000 		movl	$21, %edx
 3638      00
 3639              	.LEHB100:
 3640 103b E8000000 		call	_ZSt16__ostream_insertIcSt11char_traitsIcEERSt13basic_ostreamIT_T0_ES6_PKS3_l@PLT
 3640      00
 3641 1040 488B03   		movq	(%rbx), %rax
 3642 1043 4889DF   		movq	%rbx, %rdi
 3643 1046 FF5010   		call	*16(%rax)
 3644 1049 488DBC24 		leaq	192(%rsp), %rdi
 3644      C0000000 
 3645 1051 4889C6   		movq	%rax, %rsi
 3646 1054 E8000000 		call	_ZStlsISt11char_traitsIcEERSt13basic_ostreamIcT_ES5_PKc@PLT
 3646      00
 3647 1059 E8000000 		call	_ZN8UnitTest11CurrentTest7ResultsEv@PLT
 3647      00
 3648 105e 488DBC24 		leaq	192(%rsp), %rdi
 3648      C0000000 
 3649 1066 488B18   		movq	(%rax), %rbx
 3650 1069 E8000000 		call	_ZNK8UnitTest15MemoryOutStream7GetTextEv@PLT
 3650      00
 3651 106e 488B7424 		movq	8(%rsp), %rsi
 3651      08
 3652 1073 4889C2   		movq	%rax, %rdx
 3653 1076 4889DF   		movq	%rbx, %rdi
 3654 1079 E8000000 		call	_ZN8UnitTest11TestResults13OnTestFailureERKNS_11TestDetailsEPKc@PLT
 3654      00
 3655              	.LEHE100:
 3656 107e 488DBC24 		leaq	192(%rsp), %rdi
 3656      C0000000 
 3657              	.LEHB101:
 3658 1086 E8000000 		call	_ZN8UnitTest15MemoryOutStreamD1Ev
 3658      00
 3659              	.LEHE101:
 3660              	.L316:
 3661 108b E8000000 		call	__cxa_end_catch@PLT
 3661      00
 3662 1090 E929FFFF 		jmp	.L279
 3662      FF
 3663              	.L319:
 3664 1095 E8000000 		call	__stack_chk_fail@PLT
 3664      00
 3665              	.L304:
 3666 109a 4889C7   		movq	%rax, %rdi
 3667 109d E95CFFFF 		jmp	.L293
 3667      FF
 3668              	.L311:
 3669 10a2 4889C7   		movq	%rax, %rdi
 3670 10a5 E8000000 		call	__cxa_begin_catch@PLT
 3670      00
 3671              	.LEHB102:
 3672 10aa E8000000 		call	_ZN8UnitTest11CurrentTest7ResultsEv@PLT
 3672      00
 3673 10af 488B18   		movq	(%rax), %rbx
 3674 10b2 E8000000 		call	_ZN8UnitTest11CurrentTest7DetailsEv@PLT
 3674      00
 3675 10b7 488B30   		movq	(%rax), %rsi
 3676 10ba 488D7C24 		leaq	64(%rsp), %rdi
 3676      40
 3677 10bf BAFC0000 		movl	$252, %edx
 3677      00
 3678 10c4 E8000000 		call	_ZN8UnitTest11TestDetailsC1ERKS0_i@PLT
 3678      00
 3679 10c9 488D7424 		leaq	64(%rsp), %rsi
 3679      40
 3680 10ce 488D1500 		leaq	.LC22(%rip), %rdx
 3680      000000
 3681 10d5 4889DF   		movq	%rbx, %rdi
 3682 10d8 E8000000 		call	_ZN8UnitTest11TestResults13OnTestFailureERKNS_11TestDetailsEPKc@PLT
 3682      00
 3683              	.LEHE102:
 3684              	.LEHB103:
 3685 10dd E8000000 		call	__cxa_end_catch@PLT
 3685      00
 3686              	.LEHE103:
 3687 10e2 E9CAFEFF 		jmp	.L286
 3687      FF
 3688              	.L313:
 3689 10e7 4889C7   		movq	%rax, %rdi
 3690 10ea E8000000 		call	__cxa_begin_catch@PLT
 3690      00
 3691              	.LEHB104:
 3692 10ef E8000000 		call	_ZN8UnitTest11CurrentTest7ResultsEv@PLT
 3692      00
 3693 10f4 488B18   		movq	(%rax), %rbx
 3694 10f7 E8000000 		call	_ZN8UnitTest11CurrentTest7DetailsEv@PLT
 3694      00
 3695 10fc 488B30   		movq	(%rax), %rsi
 3696 10ff 488DBC24 		leaq	128(%rsp), %rdi
 3696      80000000 
 3697 1107 BAFB0000 		movl	$251, %edx
 3697      00
 3698 110c E8000000 		call	_ZN8UnitTest11TestDetailsC1ERKS0_i@PLT
 3698      00
 3699 1111 488DB424 		leaq	128(%rsp), %rsi
 3699      80000000 
 3700 1119 488D1500 		leaq	.LC21(%rip), %rdx
 3700      000000
 3701 1120 4889DF   		movq	%rbx, %rdi
 3702 1123 E8000000 		call	_ZN8UnitTest11TestResults13OnTestFailureERKNS_11TestDetailsEPKc@PLT
 3702      00
 3703              	.LEHE104:
 3704              	.LEHB105:
 3705 1128 E8000000 		call	__cxa_end_catch@PLT
 3705      00
 3706              	.LEHE105:
 3707 112d E941FEFF 		jmp	.L288
 3707      FF
 3708              	.L310:
 3709 1132 4889C3   		movq	%rax, %rbx
 3710 1135 4889D5   		movq	%rdx, %rbp
 3711 1138 E8000000 		call	__cxa_end_catch@PLT
 3711      00
 3712 113d E9A9FEFF 		jmp	.L290
 3712      FF
 3713              	.L312:
 3714 1142 4889C3   		movq	%rax, %rbx
 3715 1145 4889D5   		movq	%rdx, %rbp
 3716 1148 E8000000 		call	__cxa_end_catch@PLT
 3716      00
 3717 114d E999FEFF 		jmp	.L290
 3717      FF
 3718              	.L308:
 3719 1152 488DBC24 		leaq	192(%rsp), %rdi
 3719      C0000000 
 3720 115a 4889C3   		movq	%rax, %rbx
 3721 115d E8000000 		call	_ZN8UnitTest15MemoryOutStreamD1Ev
 3721      00
 3722              	.L301:
 3723 1162 E8000000 		call	__cxa_end_catch@PLT
 3723      00
 3724 1167 4889DF   		movq	%rbx, %rdi
 3725              	.LEHB106:
 3726 116a E8000000 		call	_Unwind_Resume@PLT
 3726      00
 3727              	.LEHE106:
 3728              	.L307:
 3729              	.L317:
 3730 116f 4889C3   		movq	%rax, %rbx
 3731 1172 EBEE     		jmp	.L301
 3732              	.L320:
 3733 1174 E8000000 		call	__cxa_begin_catch@PLT
 3733      00
 3734              	.LEHB107:
 3735 1179 E8000000 		call	_ZN8UnitTest11CurrentTest7ResultsEv@PLT
 3735      00
 3736 117e 488B7424 		movq	8(%rsp), %rsi
 3736      08
 3737 1183 488B38   		movq	(%rax), %rdi
 3738 1186 488D1500 		leaq	.LC12(%rip), %rdx
 3738      000000
 3739 118d E8000000 		call	_ZN8UnitTest11TestResults13OnTestFailureERKNS_11TestDetailsEPKc@PLT
 3739      00
 3740              	.LEHE107:
 3741              	.LEHB108:
 3742 1192 E8000000 		call	__cxa_end_catch@PLT
 3742      00
 3743              	.LEHE108:
 3744 1197 E922FEFF 		jmp	.L279
 3744      FF
 3745              	.L295:
 3746 119c E8000000 		call	__cxa_begin_catch@PLT
 3746      00
 3747 11a1 4889C3   		movq	%rax, %rbx
 3748              	.LEHB109:
 3749 11a4 E8000000 		call	_ZN8UnitTest11CurrentTest7ResultsEv@PLT
 3749      00
 3750 11a9 488B28   		movq	(%rax), %rbp
 3751 11ac 488B03   		movq	(%rbx), %rax
 3752 11af 4889DF   		movq	%rbx, %rdi
 3753 11b2 FF5010   		call	*16(%rax)
 3754 11b5 4889DF   		movq	%rbx, %rdi
 3755 11b8 4989C4   		movq	%rax, %r12
 3756 11bb E8000000 		call	_ZNK8UnitTest15AssertException10LineNumberEv@PLT
 3756      00
 3757 11c0 4889DF   		movq	%rbx, %rdi
 3758 11c3 4189C5   		movl	%eax, %r13d
 3759 11c6 E8000000 		call	_ZNK8UnitTest15AssertException8FilenameEv@PLT
 3759      00
 3760 11cb 488B5424 		movq	8(%rsp), %rdx
 3760      08
 3761 11d0 488D7C24 		leaq	32(%rsp), %rdi
 3761      20
 3762 11d5 4589E8   		movl	%r13d, %r8d
 3763 11d8 4889C1   		movq	%rax, %rcx
 3764 11db 488B7208 		movq	8(%rdx), %rsi
 3765 11df 488B12   		movq	(%rdx), %rdx
 3766 11e2 E8000000 		call	_ZN8UnitTest11TestDetailsC1EPKcS2_S2_i@PLT
 3766      00
 3767 11e7 488D7424 		leaq	32(%rsp), %rsi
 3767      20
 3768 11ec 4C89E2   		movq	%r12, %rdx
 3769 11ef 4889EF   		movq	%rbp, %rdi
 3770 11f2 E8000000 		call	_ZN8UnitTest11TestResults13OnTestFailureERKNS_11TestDetailsEPKc@PLT
 3770      00
 3771              	.LEHE109:
 3772 11f7 E98FFEFF 		jmp	.L316
 3772      FF
 3773              	.L309:
 3774 11fc 4889C3   		movq	%rax, %rbx
 3775 11ff E8000000 		call	__cxa_end_catch@PLT
 3775      00
 3776 1204 4889DF   		movq	%rbx, %rdi
 3777              	.LEHB110:
 3778 1207 E8000000 		call	_Unwind_Resume@PLT
 3778      00
 3779              	.LEHE110:
 3780              	.L306:
 3781 120c E95EFFFF 		jmp	.L317
 3781      FF
 3782              		.cfi_endproc
 3783              	.LFE1425:
 3784              		.section	.gcc_except_table
 3785 0261 000000   		.align 4
 3786              	.LLSDA1425:
 3787 0264 FF       		.byte	0xff
 3788 0265 9B       		.byte	0x9b
 3789 0266 7D       		.uleb128 .LLSDATT1425-.LLSDATTD1425
 3790              	.LLSDATTD1425:
 3791 0267 01       		.byte	0x1
 3792 0268 66       		.uleb128 .LLSDACSE1425-.LLSDACSB1425
 3793              	.LLSDACSB1425:
 3794 0269 2E       		.uleb128 .LEHB93-.LFB1425
 3795 026a 05       		.uleb128 .LEHE93-.LEHB93
 3796 026b 00       		.uleb128 0
 3797 026c 00       		.uleb128 0
 3798 026d 3E       		.uleb128 .LEHB94-.LFB1425
 3799 026e 05       		.uleb128 .LEHE94-.LEHB94
 3800 026f FA04     		.uleb128 .L304-.LFB1425
 3801 0271 05       		.uleb128 0x5
 3802 0272 78       		.uleb128 .LEHB95-.LFB1425
 3803 0273 9201     		.uleb128 .LEHE95-.LEHB95
 3804 0275 C503     		.uleb128 .L305-.LFB1425
 3805 0277 07       		.uleb128 0x7
 3806 0278 8D02     		.uleb128 .LEHB96-.LFB1425
 3807 027a 46       		.uleb128 .LEHE96-.LEHB96
 3808 027b C705     		.uleb128 .L313-.LFB1425
 3809 027d 01       		.uleb128 0x1
 3810 027e D302     		.uleb128 .LEHB97-.LFB1425
 3811 0280 3E       		.uleb128 .LEHE97-.LEHB97
 3812 0281 8205     		.uleb128 .L311-.LFB1425
 3813 0283 01       		.uleb128 0x1
 3814 0284 9903     		.uleb128 .LEHB98-.LFB1425
 3815 0286 05       		.uleb128 .LEHE98-.LEHB98
 3816 0287 FA04     		.uleb128 .L304-.LFB1425
 3817 0289 05       		.uleb128 0x5
 3818 028a 8204     		.uleb128 .LEHB99-.LFB1425
 3819 028c 05       		.uleb128 .LEHE99-.LEHB99
 3820 028d CF06     		.uleb128 .L307-.LFB1425
 3821 028f 00       		.uleb128 0
 3822 0290 9B04     		.uleb128 .LEHB100-.LFB1425
 3823 0292 43       		.uleb128 .LEHE100-.LEHB100
 3824 0293 B206     		.uleb128 .L308-.LFB1425
 3825 0295 00       		.uleb128 0
 3826 0296 E604     		.uleb128 .LEHB101-.LFB1425
 3827 0298 05       		.uleb128 .LEHE101-.LEHB101
 3828 0299 CF06     		.uleb128 .L307-.LFB1425
 3829 029b 00       		.uleb128 0
 3830 029c 8A05     		.uleb128 .LEHB102-.LFB1425
 3831 029e 33       		.uleb128 .LEHE102-.LEHB102
 3832 029f 9206     		.uleb128 .L310-.LFB1425
 3833 02a1 07       		.uleb128 0x7
 3834 02a2 BD05     		.uleb128 .LEHB103-.LFB1425
 3835 02a4 05       		.uleb128 .LEHE103-.LEHB103
 3836 02a5 C503     		.uleb128 .L305-.LFB1425
 3837 02a7 07       		.uleb128 0x7
 3838 02a8 CF05     		.uleb128 .LEHB104-.LFB1425
 3839 02aa 39       		.uleb128 .LEHE104-.LEHB104
 3840 02ab A206     		.uleb128 .L312-.LFB1425
 3841 02ad 07       		.uleb128 0x7
 3842 02ae 8806     		.uleb128 .LEHB105-.LFB1425
 3843 02b0 05       		.uleb128 .LEHE105-.LEHB105
 3844 02b1 C503     		.uleb128 .L305-.LFB1425
 3845 02b3 07       		.uleb128 0x7
 3846 02b4 CA06     		.uleb128 .LEHB106-.LFB1425
 3847 02b6 05       		.uleb128 .LEHE106-.LEHB106
 3848 02b7 00       		.uleb128 0
 3849 02b8 00       		.uleb128 0
 3850 02b9 D906     		.uleb128 .LEHB107-.LFB1425
 3851 02bb 19       		.uleb128 .LEHE107-.LEHB107
 3852 02bc DC07     		.uleb128 .L309-.LFB1425
 3853 02be 00       		.uleb128 0
 3854 02bf F206     		.uleb128 .LEHB108-.LFB1425
 3855 02c1 05       		.uleb128 .LEHE108-.LEHB108
 3856 02c2 00       		.uleb128 0
 3857 02c3 00       		.uleb128 0
 3858 02c4 8407     		.uleb128 .LEHB109-.LFB1425
 3859 02c6 53       		.uleb128 .LEHE109-.LEHB109
 3860 02c7 EC07     		.uleb128 .L306-.LFB1425
 3861 02c9 00       		.uleb128 0
 3862 02ca E707     		.uleb128 .LEHB110-.LFB1425
 3863 02cc 05       		.uleb128 .LEHE110-.LEHB110
 3864 02cd 00       		.uleb128 0
 3865 02ce 00       		.uleb128 0
 3866              	.LLSDACSE1425:
 3867 02cf 03       		.byte	0x3
 3868 02d0 00       		.byte	0
 3869 02d1 02       		.byte	0x2
 3870 02d2 7D       		.byte	0x7d
 3871 02d3 01       		.byte	0x1
 3872 02d4 7D       		.byte	0x7d
 3873 02d5 00       		.byte	0
 3874 02d6 7D       		.byte	0x7d
 3875 02d7 00       		.align 4
 3876 02d8 00000000 		.long	0
 3877              	
 3878 02dc 00000000 		.long	DW.ref._ZTISt9exception-.
 3879 02e0 00000000 		.long	DW.ref._ZTIN8UnitTest15AssertExceptionE-.
 3880              	.LLSDATT1425:
 3881              		.text
 3883              		.section	.rodata.str1.8
 3884 01f2 00000000 		.align 8
 3884      0000
 3885              	.LC23:
 3886 01f8 556E6861 		.string	"Unhandled exception in CHECK_EQUAL(2, reporter.summaryTotalTestCount)"
 3886      6E646C65 
 3886      64206578 
 3886      63657074 
 3886      696F6E20 
 3887              		.text
 3888 1211 0F1F4400 		.p2align 4,,15
 3888      00662E0F 
 3888      1F840000 
 3888      000000
 3890              	_ZN8UnitTest11ExecuteTestIN12_GLOBAL__N_164TestSuiteFixtureTestRunnerRunsAllSuitesIfNullSuiteIsPass
 3891              	.LFB1424:
 3892              		.cfi_startproc
 3893              		.cfi_personality 0x9b,DW.ref.__gxx_personality_v0
 3894              		.cfi_lsda 0x1b,.LLSDA1424
 3895 1220 4155     		pushq	%r13
 3896              		.cfi_def_cfa_offset 16
 3897              		.cfi_offset 13, -16
 3898 1222 4154     		pushq	%r12
 3899              		.cfi_def_cfa_offset 24
 3900              		.cfi_offset 12, -24
 3901 1224 55       		pushq	%rbp
 3902              		.cfi_def_cfa_offset 32
 3903              		.cfi_offset 6, -32
 3904 1225 53       		pushq	%rbx
 3905              		.cfi_def_cfa_offset 40
 3906              		.cfi_offset 3, -40
 3907 1226 4889F3   		movq	%rsi, %rbx
 3908 1229 4881EC98 		subq	$1688, %rsp
 3908      060000
 3909              		.cfi_def_cfa_offset 1728
 3910 1230 48893C24 		movq	%rdi, (%rsp)
 3911 1234 48897424 		movq	%rsi, 8(%rsp)
 3911      08
 3912 1239 64488B04 		movq	%fs:40, %rax
 3912      25280000 
 3912      00
 3913 1242 48898424 		movq	%rax, 1672(%rsp)
 3913      88060000 
 3914 124a 31C0     		xorl	%eax, %eax
 3915              	.LEHB111:
 3916 124c E8000000 		call	_ZN8UnitTest11CurrentTest7DetailsEv@PLT
 3916      00
 3917              	.LEHE111:
 3918 1251 488DBC24 		leaq	544(%rsp), %rdi
 3918      20020000 
 3919 1259 488918   		movq	%rbx, (%rax)
 3920              	.LEHB112:
 3921 125c E8000000 		call	_ZN8UnitTest16SignalTranslatorC1Ev@PLT
 3921      00
 3922              	.LEHE112:
 3923 1261 488B3D00 		movq	_ZN8UnitTest16SignalTranslator12s_jumpTargetE(%rip), %rdi
 3923      000000
 3924 1268 BE010000 		movl	$1, %esi
 3924      00
 3925 126d E8000000 		call	__sigsetjmp@PLT
 3925      00
 3926 1272 85C0     		testl	%eax, %eax
 3927 1274 742A     		je	.L323
 3928 1276 BF080000 		movl	$8, %edi
 3928      00
 3929 127b E8000000 		call	__cxa_allocate_exception@PLT
 3929      00
 3930 1280 488D0D00 		leaq	.LC3(%rip), %rcx
 3930      000000
 3931 1287 488D3500 		leaq	_ZTIPKc(%rip), %rsi
 3931      000000
 3932 128e 31D2     		xorl	%edx, %edx
 3933 1290 4889C7   		movq	%rax, %rdi
 3934 1293 488908   		movq	%rcx, (%rax)
 3935              	.LEHB113:
 3936 1296 E8000000 		call	__cxa_throw@PLT
 3936      00
 3937 129b 0F1F4400 		.p2align 4,,10
 3937      00
 3938              		.p2align 3
 3939              	.L323:
 3940 12a0 488B2C24 		movq	(%rsp), %rbp
 3941 12a4 488D9DF0 		leaq	2288(%rbp), %rbx
 3941      080000
 3942 12ab E8000000 		call	_ZN8UnitTest11CurrentTest7ResultsEv@PLT
 3942      00
 3943 12b0 4C8B28   		movq	(%rax), %r13
 3944 12b3 E8000000 		call	_ZN8UnitTest11CurrentTest7DetailsEv@PLT
 3944      00
 3945 12b8 4889DF   		movq	%rbx, %rdi
 3946 12bb 4C8B20   		movq	(%rax), %r12
 3947 12be E8000000 		call	_ZNK8UnitTest8TestList7GetHeadEv@PLT
 3947      00
 3948 12c3 4885C0   		testq	%rax, %rax
 3949 12c6 4889C3   		movq	%rax, %rbx
 3950 12c9 0F85B300 		jne	.L326
 3950      0000
 3951 12cf 90       		.p2align 4,,10
 3952              		.p2align 3
 3953              	.L324:
 3954 12d0 488B1C24 		movq	(%rsp), %rbx
 3955 12d4 4889DF   		movq	%rbx, %rdi
 3956 12d7 E8000000 		call	_ZNK8UnitTest10TestRunner6FinishEv@PLT
 3956      00
 3957 12dc E8000000 		call	_ZN8UnitTest11CurrentTest7ResultsEv@PLT
 3957      00
 3958 12e1 4C8928   		movq	%r13, (%rax)
 3959 12e4 E8000000 		call	_ZN8UnitTest11CurrentTest7DetailsEv@PLT
 3959      00
 3960              	.LEHE113:
 3961 12e9 4C8920   		movq	%r12, (%rax)
 3962              	.LEHB114:
 3963 12ec E8000000 		call	_ZN8UnitTest11CurrentTest7DetailsEv@PLT
 3963      00
 3964 12f1 488B30   		movq	(%rax), %rsi
 3965 12f4 488D7C24 		leaq	96(%rsp), %rdi
 3965      60
 3966 12f9 BAF50000 		movl	$245, %edx
 3966      00
 3967 12fe E8000000 		call	_ZN8UnitTest11TestDetailsC1ERKS0_i@PLT
 3967      00
 3968 1303 4881C334 		addq	$2100, %rbx
 3968      080000
 3969 130a C744241C 		movl	$2, 28(%rsp)
 3969      02000000 
 3970 1312 E8000000 		call	_ZN8UnitTest11CurrentTest7ResultsEv@PLT
 3970      00
 3971 1317 488B38   		movq	(%rax), %rdi
 3972 131a 488D4C24 		leaq	96(%rsp), %rcx
 3972      60
 3973 131f 488D7424 		leaq	28(%rsp), %rsi
 3973      1C
 3974 1324 4889DA   		movq	%rbx, %rdx
 3975 1327 E8000000 		call	_ZN8UnitTest10CheckEqualIiiEEvRNS_11TestResultsERKT_RKT0_RKNS_11TestDetailsE
 3975      00
 3976              	.LEHE114:
 3977              	.L328:
 3978 132c 488DBC24 		leaq	544(%rsp), %rdi
 3978      20020000 
 3979              	.LEHB115:
 3980 1334 E8000000 		call	_ZN8UnitTest16SignalTranslatorD1Ev@PLT
 3980      00
 3981              	.LEHE115:
 3982              	.L321:
 3983 1339 488B8424 		movq	1672(%rsp), %rax
 3983      88060000 
 3984 1341 64483304 		xorq	%fs:40, %rax
 3984      25280000 
 3984      00
 3985 134a 0F85F500 		jne	.L355
 3985      0000
 3986 1350 4881C498 		addq	$1688, %rsp
 3986      060000
 3987              		.cfi_remember_state
 3988              		.cfi_def_cfa_offset 40
 3989 1357 5B       		popq	%rbx
 3990              		.cfi_def_cfa_offset 32
 3991 1358 5D       		popq	%rbp
 3992              		.cfi_def_cfa_offset 24
 3993 1359 415C     		popq	%r12
 3994              		.cfi_def_cfa_offset 16
 3995 135b 415D     		popq	%r13
 3996              		.cfi_def_cfa_offset 8
 3997 135d C3       		ret
 3998 135e 6690     		.p2align 4,,10
 3999              		.p2align 3
 4000              	.L325:
 4001              		.cfi_restore_state
 4002 1360 488B0424 		movq	(%rsp), %rax
 4003 1364 31C9     		xorl	%ecx, %ecx
 4004 1366 4889DA   		movq	%rbx, %rdx
 4005 1369 4889EF   		movq	%rbp, %rdi
 4006 136c 488B7008 		movq	8(%rax), %rsi
 4007              	.LEHB116:
 4008 1370 E8000000 		call	_ZNK8UnitTest10TestRunner7RunTestEPNS_11TestResultsEPNS_4TestEi@PLT
 4008      00
 4009              	.L327:
 4010 1375 488B5B28 		movq	40(%rbx), %rbx
 4011 1379 4885DB   		testq	%rbx, %rbx
 4012 137c 0F844EFF 		je	.L324
 4012      FFFF
 4013              	.L326:
 4014 1382 31D2     		xorl	%edx, %edx
 4015 1384 4889DE   		movq	%rbx, %rsi
 4016 1387 4889EF   		movq	%rbp, %rdi
 4017 138a E8000000 		call	_ZNK8UnitTest10TestRunner13IsTestInSuiteEPKNS_4TestEPKc@PLT
 4017      00
 4018              	.LEHE116:
 4019 138f 84C0     		testb	%al, %al
 4020 1391 74E2     		je	.L327
 4021 1393 EBCB     		jmp	.L325
 4022              	.L344:
 4023 1395 4889C3   		movq	%rax, %rbx
 4024 1398 4889D5   		movq	%rdx, %rbp
 4025              	.L331:
 4026 139b 488DBC24 		leaq	544(%rsp), %rdi
 4026      20020000 
 4027 13a3 E8000000 		call	_ZN8UnitTest16SignalTranslatorD1Ev@PLT
 4027      00
 4028 13a8 4889DF   		movq	%rbx, %rdi
 4029 13ab 4889EA   		movq	%rbp, %rdx
 4030              	.L332:
 4031 13ae 4883FA01 		cmpq	$1, %rdx
 4032 13b2 0F843901 		je	.L334
 4032      0000
 4033 13b8 4883FA02 		cmpq	$2, %rdx
 4034 13bc 0F850701 		jne	.L356
 4034      0000
 4035 13c2 E8000000 		call	__cxa_begin_catch@PLT
 4035      00
 4036 13c7 488DBC24 		leaq	128(%rsp), %rdi
 4036      80000000 
 4037 13cf 4889C3   		movq	%rax, %rbx
 4038              	.LEHB117:
 4039 13d2 E8000000 		call	_ZN8UnitTest15MemoryOutStreamC1Ev
 4039      00
 4040              	.LEHE117:
 4041 13d7 488DBC24 		leaq	128(%rsp), %rdi
 4041      80000000 
 4042 13df 488D3500 		leaq	.LC11(%rip), %rsi
 4042      000000
 4043 13e6 BA150000 		movl	$21, %edx
 4043      00
 4044              	.LEHB118:
 4045 13eb E8000000 		call	_ZSt16__ostream_insertIcSt11char_traitsIcEERSt13basic_ostreamIT_T0_ES6_PKS3_l@PLT
 4045      00
 4046 13f0 488B03   		movq	(%rbx), %rax
 4047 13f3 4889DF   		movq	%rbx, %rdi
 4048 13f6 FF5010   		call	*16(%rax)
 4049 13f9 488DBC24 		leaq	128(%rsp), %rdi
 4049      80000000 
 4050 1401 4889C6   		movq	%rax, %rsi
 4051 1404 E8000000 		call	_ZStlsISt11char_traitsIcEERSt13basic_ostreamIcT_ES5_PKc@PLT
 4051      00
 4052 1409 E8000000 		call	_ZN8UnitTest11CurrentTest7ResultsEv@PLT
 4052      00
 4053 140e 488DBC24 		leaq	128(%rsp), %rdi
 4053      80000000 
 4054 1416 488B18   		movq	(%rax), %rbx
 4055 1419 E8000000 		call	_ZNK8UnitTest15MemoryOutStream7GetTextEv@PLT
 4055      00
 4056 141e 488B7424 		movq	8(%rsp), %rsi
 4056      08
 4057 1423 4889C2   		movq	%rax, %rdx
 4058 1426 4889DF   		movq	%rbx, %rdi
 4059 1429 E8000000 		call	_ZN8UnitTest11TestResults13OnTestFailureERKNS_11TestDetailsEPKc@PLT
 4059      00
 4060              	.LEHE118:
 4061 142e 488DBC24 		leaq	128(%rsp), %rdi
 4061      80000000 
 4062              	.LEHB119:
 4063 1436 E8000000 		call	_ZN8UnitTest15MemoryOutStreamD1Ev
 4063      00
 4064              	.LEHE119:
 4065              	.L353:
 4066 143b E8000000 		call	__cxa_end_catch@PLT
 4066      00
 4067 1440 E9F4FEFF 		jmp	.L321
 4067      FF
 4068              	.L355:
 4069 1445 E8000000 		call	__stack_chk_fail@PLT
 4069      00
 4070              	.L350:
 4071 144a 4889C7   		movq	%rax, %rdi
 4072 144d E8000000 		call	__cxa_begin_catch@PLT
 4072      00
 4073              	.LEHB120:
 4074 1452 E8000000 		call	_ZN8UnitTest11CurrentTest7ResultsEv@PLT
 4074      00
 4075 1457 488B18   		movq	(%rax), %rbx
 4076 145a E8000000 		call	_ZN8UnitTest11CurrentTest7DetailsEv@PLT
 4076      00
 4077 145f 488B30   		movq	(%rax), %rsi
 4078 1462 488D7C24 		leaq	64(%rsp), %rdi
 4078      40
 4079 1467 BAF50000 		movl	$245, %edx
 4079      00
 4080 146c E8000000 		call	_ZN8UnitTest11TestDetailsC1ERKS0_i@PLT
 4080      00
 4081 1471 488D7424 		leaq	64(%rsp), %rsi
 4081      40
 4082 1476 488D1500 		leaq	.LC23(%rip), %rdx
 4082      000000
 4083 147d 4889DF   		movq	%rbx, %rdi
 4084 1480 E8000000 		call	_ZN8UnitTest11TestResults13OnTestFailureERKNS_11TestDetailsEPKc@PLT
 4084      00
 4085              	.LEHE120:
 4086              	.LEHB121:
 4087 1485 E8000000 		call	__cxa_end_catch@PLT
 4087      00
 4088              	.LEHE121:
 4089 148a E99DFEFF 		jmp	.L328
 4089      FF
 4090              	.L343:
 4091 148f 4889C7   		movq	%rax, %rdi
 4092 1492 E917FFFF 		jmp	.L332
 4092      FF
 4093              	.L349:
 4094 1497 4889C3   		movq	%rax, %rbx
 4095 149a 4889D5   		movq	%rdx, %rbp
 4096 149d E8000000 		call	__cxa_end_catch@PLT
 4096      00
 4097 14a2 E9F4FEFF 		jmp	.L331
 4097      FF
 4098              	.L347:
 4099 14a7 488DBC24 		leaq	128(%rsp), %rdi
 4099      80000000 
 4100 14af 4889C3   		movq	%rax, %rbx
 4101 14b2 E8000000 		call	_ZN8UnitTest15MemoryOutStreamD1Ev
 4101      00
 4102              	.L340:
 4103 14b7 E8000000 		call	__cxa_end_catch@PLT
 4103      00
 4104 14bc 4889DF   		movq	%rbx, %rdi
 4105              	.LEHB122:
 4106 14bf E8000000 		call	_Unwind_Resume@PLT
 4106      00
 4107              	.LEHE122:
 4108              	.L346:
 4109              	.L354:
 4110 14c4 4889C3   		movq	%rax, %rbx
 4111 14c7 EBEE     		jmp	.L340
 4112              	.L356:
 4113 14c9 E8000000 		call	__cxa_begin_catch@PLT
 4113      00
 4114              	.LEHB123:
 4115 14ce E8000000 		call	_ZN8UnitTest11CurrentTest7ResultsEv@PLT
 4115      00
 4116 14d3 488B7424 		movq	8(%rsp), %rsi
 4116      08
 4117 14d8 488B38   		movq	(%rax), %rdi
 4118 14db 488D1500 		leaq	.LC12(%rip), %rdx
 4118      000000
 4119 14e2 E8000000 		call	_ZN8UnitTest11TestResults13OnTestFailureERKNS_11TestDetailsEPKc@PLT
 4119      00
 4120              	.LEHE123:
 4121              	.LEHB124:
 4122 14e7 E8000000 		call	__cxa_end_catch@PLT
 4122      00
 4123              	.LEHE124:
 4124 14ec E948FEFF 		jmp	.L321
 4124      FF
 4125              	.L334:
 4126 14f1 E8000000 		call	__cxa_begin_catch@PLT
 4126      00
 4127 14f6 4889C3   		movq	%rax, %rbx
 4128              	.LEHB125:
 4129 14f9 E8000000 		call	_ZN8UnitTest11CurrentTest7ResultsEv@PLT
 4129      00
 4130 14fe 488B28   		movq	(%rax), %rbp
 4131 1501 488B03   		movq	(%rbx), %rax
 4132 1504 4889DF   		movq	%rbx, %rdi
 4133 1507 FF5010   		call	*16(%rax)
 4134 150a 4889DF   		movq	%rbx, %rdi
 4135 150d 4989C4   		movq	%rax, %r12
 4136 1510 E8000000 		call	_ZNK8UnitTest15AssertException10LineNumberEv@PLT
 4136      00
 4137 1515 4889DF   		movq	%rbx, %rdi
 4138 1518 4189C5   		movl	%eax, %r13d
 4139 151b E8000000 		call	_ZNK8UnitTest15AssertException8FilenameEv@PLT
 4139      00
 4140 1520 488B5424 		movq	8(%rsp), %rdx
 4140      08
 4141 1525 488D7C24 		leaq	32(%rsp), %rdi
 4141      20
 4142 152a 4589E8   		movl	%r13d, %r8d
 4143 152d 4889C1   		movq	%rax, %rcx
 4144 1530 488B7208 		movq	8(%rdx), %rsi
 4145 1534 488B12   		movq	(%rdx), %rdx
 4146 1537 E8000000 		call	_ZN8UnitTest11TestDetailsC1EPKcS2_S2_i@PLT
 4146      00
 4147 153c 488D7424 		leaq	32(%rsp), %rsi
 4147      20
 4148 1541 4C89E2   		movq	%r12, %rdx
 4149 1544 4889EF   		movq	%rbp, %rdi
 4150 1547 E8000000 		call	_ZN8UnitTest11TestResults13OnTestFailureERKNS_11TestDetailsEPKc@PLT
 4150      00
 4151              	.LEHE125:
 4152 154c E9EAFEFF 		jmp	.L353
 4152      FF
 4153              	.L348:
 4154 1551 4889C3   		movq	%rax, %rbx
 4155 1554 E8000000 		call	__cxa_end_catch@PLT
 4155      00
 4156 1559 4889DF   		movq	%rbx, %rdi
 4157              	.LEHB126:
 4158 155c E8000000 		call	_Unwind_Resume@PLT
 4158      00
 4159              	.LEHE126:
 4160              	.L345:
 4161 1561 E95EFFFF 		jmp	.L354
 4161      FF
 4162              		.cfi_endproc
 4163              	.LFE1424:
 4164              		.section	.gcc_except_table
 4165              		.align 4
 4166              	.LLSDA1424:
 4167 02e4 FF       		.byte	0xff
 4168 02e5 9B       		.byte	0x9b
 4169 02e6 71       		.uleb128 .LLSDATT1424-.LLSDATTD1424
 4170              	.LLSDATTD1424:
 4171 02e7 01       		.byte	0x1
 4172 02e8 59       		.uleb128 .LLSDACSE1424-.LLSDACSB1424
 4173              	.LLSDACSB1424:
 4174 02e9 2C       		.uleb128 .LEHB111-.LFB1424
 4175 02ea 05       		.uleb128 .LEHE111-.LEHB111
 4176 02eb 00       		.uleb128 0
 4177 02ec 00       		.uleb128 0
 4178 02ed 3C       		.uleb128 .LEHB112-.LFB1424
 4179 02ee 05       		.uleb128 .LEHE112-.LEHB112
 4180 02ef EF04     		.uleb128 .L343-.LFB1424
 4181 02f1 05       		.uleb128 0x5
 4182 02f2 76       		.uleb128 .LEHB113-.LFB1424
 4183 02f3 53       		.uleb128 .LEHE113-.LEHB113
 4184 02f4 F502     		.uleb128 .L344-.LFB1424
 4185 02f6 07       		.uleb128 0x7
 4186 02f7 CC01     		.uleb128 .LEHB114-.LFB1424
 4187 02f9 40       		.uleb128 .LEHE114-.LEHB114
 4188 02fa AA04     		.uleb128 .L350-.LFB1424
 4189 02fc 01       		.uleb128 0x1
 4190 02fd 9402     		.uleb128 .LEHB115-.LFB1424
 4191 02ff 05       		.uleb128 .LEHE115-.LEHB115
 4192 0300 EF04     		.uleb128 .L343-.LFB1424
 4193 0302 05       		.uleb128 0x5
 4194 0303 D002     		.uleb128 .LEHB116-.LFB1424
 4195 0305 1F       		.uleb128 .LEHE116-.LEHB116
 4196 0306 F502     		.uleb128 .L344-.LFB1424
 4197 0308 07       		.uleb128 0x7
 4198 0309 B203     		.uleb128 .LEHB117-.LFB1424
 4199 030b 05       		.uleb128 .LEHE117-.LEHB117
 4200 030c A405     		.uleb128 .L346-.LFB1424
 4201 030e 00       		.uleb128 0
 4202 030f CB03     		.uleb128 .LEHB118-.LFB1424
 4203 0311 43       		.uleb128 .LEHE118-.LEHB118
 4204 0312 8705     		.uleb128 .L347-.LFB1424
 4205 0314 00       		.uleb128 0
 4206 0315 9604     		.uleb128 .LEHB119-.LFB1424
 4207 0317 05       		.uleb128 .LEHE119-.LEHB119
 4208 0318 A405     		.uleb128 .L346-.LFB1424
 4209 031a 00       		.uleb128 0
 4210 031b B204     		.uleb128 .LEHB120-.LFB1424
 4211 031d 33       		.uleb128 .LEHE120-.LEHB120
 4212 031e F704     		.uleb128 .L349-.LFB1424
 4213 0320 07       		.uleb128 0x7
 4214 0321 E504     		.uleb128 .LEHB121-.LFB1424
 4215 0323 05       		.uleb128 .LEHE121-.LEHB121
 4216 0324 F502     		.uleb128 .L344-.LFB1424
 4217 0326 07       		.uleb128 0x7
 4218 0327 9F05     		.uleb128 .LEHB122-.LFB1424
 4219 0329 05       		.uleb128 .LEHE122-.LEHB122
 4220 032a 00       		.uleb128 0
 4221 032b 00       		.uleb128 0
 4222 032c AE05     		.uleb128 .LEHB123-.LFB1424
 4223 032e 19       		.uleb128 .LEHE123-.LEHB123
 4224 032f B106     		.uleb128 .L348-.LFB1424
 4225 0331 00       		.uleb128 0
 4226 0332 C705     		.uleb128 .LEHB124-.LFB1424
 4227 0334 05       		.uleb128 .LEHE124-.LEHB124
 4228 0335 00       		.uleb128 0
 4229 0336 00       		.uleb128 0
 4230 0337 D905     		.uleb128 .LEHB125-.LFB1424
 4231 0339 53       		.uleb128 .LEHE125-.LEHB125
 4232 033a C106     		.uleb128 .L345-.LFB1424
 4233 033c 00       		.uleb128 0
 4234 033d BC06     		.uleb128 .LEHB126-.LFB1424
 4235 033f 05       		.uleb128 .LEHE126-.LEHB126
 4236 0340 00       		.uleb128 0
 4237 0341 00       		.uleb128 0
 4238              	.LLSDACSE1424:
 4239 0342 03       		.byte	0x3
 4240 0343 00       		.byte	0
 4241 0344 02       		.byte	0x2
 4242 0345 7D       		.byte	0x7d
 4243 0346 01       		.byte	0x1
 4244 0347 7D       		.byte	0x7d
 4245 0348 00       		.byte	0
 4246 0349 7D       		.byte	0x7d
 4247 034a 0000     		.align 4
 4248 034c 00000000 		.long	0
 4249              	
 4250 0350 00000000 		.long	DW.ref._ZTISt9exception-.
 4251 0354 00000000 		.long	DW.ref._ZTIN8UnitTest15AssertExceptionE-.
 4252              	.LLSDATT1424:
 4253              		.text
 4255              		.section	.rodata.str1.1
 4256              	.LC24:
 4257 0093 00       		.string	""
 4258              	.LC25:
 4259 0094 736C6F77 		.string	"slowexempted"
 4259      6578656D 
 4259      70746564 
 4259      00
 4260              		.section	.rodata.str1.8
 4261 023e 0000     		.align 8
 4262              	.LC26:
 4263 0240 556E6861 		.string	"Unhandled exception in CHECK_EQUAL(0, reporter.testFailedCount)"
 4263      6E646C65 
 4263      64206578 
 4263      63657074 
 4263      696F6E20 
 4264              		.text
 4265 1566 662E0F1F 		.p2align 4,,15
 4265      84000000 
 4265      0000
 4267              	_ZN8UnitTest11ExecuteTestIN12_GLOBAL__N_154TestRunnerFixtureSlowTestWithTimeExemptionPassesHelperEE
 4268              	.LFB1423:
 4269              		.cfi_startproc
 4270              		.cfi_personality 0x9b,DW.ref.__gxx_personality_v0
 4271              		.cfi_lsda 0x1b,.LLSDA1423
 4272 1570 4155     		pushq	%r13
 4273              		.cfi_def_cfa_offset 16
 4274              		.cfi_offset 13, -16
 4275 1572 4154     		pushq	%r12
 4276              		.cfi_def_cfa_offset 24
 4277              		.cfi_offset 12, -24
 4278 1574 55       		pushq	%rbp
 4279              		.cfi_def_cfa_offset 32
 4280              		.cfi_offset 6, -32
 4281 1575 53       		pushq	%rbx
 4282              		.cfi_def_cfa_offset 40
 4283              		.cfi_offset 3, -40
 4284 1576 4889F3   		movq	%rsi, %rbx
 4285 1579 4881ECD8 		subq	$1752, %rsp
 4285      060000
 4286              		.cfi_def_cfa_offset 1792
 4287 1580 48893C24 		movq	%rdi, (%rsp)
 4288 1584 48897424 		movq	%rsi, 8(%rsp)
 4288      08
 4289 1589 64488B04 		movq	%fs:40, %rax
 4289      25280000 
 4289      00
 4290 1592 48898424 		movq	%rax, 1736(%rsp)
 4290      C8060000 
 4291 159a 31C0     		xorl	%eax, %eax
 4292              	.LEHB127:
 4293 159c E8000000 		call	_ZN8UnitTest11CurrentTest7DetailsEv@PLT
 4293      00
 4294              	.LEHE127:
 4295 15a1 488DBC24 		leaq	608(%rsp), %rdi
 4295      60020000 
 4296 15a9 488918   		movq	%rbx, (%rax)
 4297              	.LEHB128:
 4298 15ac E8000000 		call	_ZN8UnitTest16SignalTranslatorC1Ev@PLT
 4298      00
 4299              	.LEHE128:
 4300 15b1 488B3D00 		movq	_ZN8UnitTest16SignalTranslator12s_jumpTargetE(%rip), %rdi
 4300      000000
 4301 15b8 BE010000 		movl	$1, %esi
 4301      00
 4302 15bd E8000000 		call	__sigsetjmp@PLT
 4302      00
 4303 15c2 85C0     		testl	%eax, %eax
 4304 15c4 742A     		je	.L359
 4305 15c6 BF080000 		movl	$8, %edi
 4305      00
 4306 15cb E8000000 		call	__cxa_allocate_exception@PLT
 4306      00
 4307 15d0 488D0D00 		leaq	.LC3(%rip), %rcx
 4307      000000
 4308 15d7 488D3500 		leaq	_ZTIPKc(%rip), %rsi
 4308      000000
 4309 15de 31D2     		xorl	%edx, %edx
 4310 15e0 4889C7   		movq	%rax, %rdi
 4311 15e3 488908   		movq	%rcx, (%rax)
 4312              	.LEHB129:
 4313 15e6 E8000000 		call	__cxa_throw@PLT
 4313      00
 4314 15eb 0F1F4400 		.p2align 4,,10
 4314      00
 4315              		.p2align 3
 4316              	.L359:
 4317 15f0 488DBC24 		leaq	128(%rsp), %rdi
 4317      80000000 
 4318 15f8 488D1500 		leaq	.LC24(%rip), %rdx
 4318      000000
 4319 15ff 488D3500 		leaq	.LC25(%rip), %rsi
 4319      000000
 4320 1606 4531C0   		xorl	%r8d, %r8d
 4321 1609 31C9     		xorl	%ecx, %ecx
 4322 160b E8000000 		call	_ZN8UnitTest4TestC2EPKcS2_S2_i@PLT
 4322      00
 4323              	.LEHE129:
 4324 1610 488B2C24 		movq	(%rsp), %rbp
 4325 1614 488D0500 		leaq	16+_ZTVZN12_GLOBAL__N_154TestRunnerFixtureSlowTestWithTimeExemptionPassesHelper7RunImplEvE16S
 4325      000000
 4326 161b 488DB424 		leaq	128(%rsp), %rsi
 4326      80000000 
 4327 1623 48898424 		movq	%rax, 128(%rsp)
 4327      80000000 
 4328 162b 488D9D48 		leaq	2120(%rbp), %rbx
 4328      080000
 4329 1632 4889DF   		movq	%rbx, %rdi
 4330              	.LEHB130:
 4331 1635 E8000000 		call	_ZN8UnitTest8TestList3AddEPNS_4TestE@PLT
 4331      00
 4332 163a E8000000 		call	_ZN8UnitTest11CurrentTest7ResultsEv@PLT
 4332      00
 4333 163f 4C8B28   		movq	(%rax), %r13
 4334 1642 E8000000 		call	_ZN8UnitTest11CurrentTest7DetailsEv@PLT
 4334      00
 4335 1647 4889DF   		movq	%rbx, %rdi
 4336 164a 4C8B20   		movq	(%rax), %r12
 4337 164d E8000000 		call	_ZNK8UnitTest8TestList7GetHeadEv@PLT
 4337      00
 4338 1652 4885C0   		testq	%rax, %rax
 4339 1655 4889C3   		movq	%rax, %rbx
 4340 1658 0F85D700 		jne	.L362
 4340      0000
 4341 165e 6690     		.p2align 4,,10
 4342              		.p2align 3
 4343              	.L360:
 4344 1660 488B1C24 		movq	(%rsp), %rbx
 4345 1664 4889DF   		movq	%rbx, %rdi
 4346 1667 E8000000 		call	_ZNK8UnitTest10TestRunner6FinishEv@PLT
 4346      00
 4347 166c E8000000 		call	_ZN8UnitTest11CurrentTest7ResultsEv@PLT
 4347      00
 4348 1671 4C8928   		movq	%r13, (%rax)
 4349 1674 E8000000 		call	_ZN8UnitTest11CurrentTest7DetailsEv@PLT
 4349      00
 4350              	.LEHE130:
 4351 1679 4C8920   		movq	%r12, (%rax)
 4352              	.LEHB131:
 4353 167c E8000000 		call	_ZN8UnitTest11CurrentTest7DetailsEv@PLT
 4353      00
 4354 1681 488B30   		movq	(%rax), %rsi
 4355 1684 488D7C24 		leaq	96(%rsp), %rdi
 4355      60
 4356 1689 BADE0000 		movl	$222, %edx
 4356      00
 4357 168e E8000000 		call	_ZN8UnitTest11TestDetailsC1ERKS0_i@PLT
 4357      00
 4358 1693 4881C324 		addq	$548, %rbx
 4358      020000
 4359 169a C744241C 		movl	$0, 28(%rsp)
 4359      00000000 
 4360 16a2 E8000000 		call	_ZN8UnitTest11CurrentTest7ResultsEv@PLT
 4360      00
 4361 16a7 488B38   		movq	(%rax), %rdi
 4362 16aa 488D4C24 		leaq	96(%rsp), %rcx
 4362      60
 4363 16af 488D7424 		leaq	28(%rsp), %rsi
 4363      1C
 4364 16b4 4889DA   		movq	%rbx, %rdx
 4365 16b7 E8000000 		call	_ZN8UnitTest10CheckEqualIiiEEvRNS_11TestResultsERKT_RKT0_RKNS_11TestDetailsE
 4365      00
 4366              	.LEHE131:
 4367              	.L366:
 4368 16bc 488D0500 		leaq	16+_ZTVZN12_GLOBAL__N_154TestRunnerFixtureSlowTestWithTimeExemptionPassesHelper7RunImplEvE16S
 4368      000000
 4369 16c3 488DBC24 		leaq	128(%rsp), %rdi
 4369      80000000 
 4370 16cb 48898424 		movq	%rax, 128(%rsp)
 4370      80000000 
 4371              	.LEHB132:
 4372 16d3 E8000000 		call	_ZN8UnitTest4TestD2Ev@PLT
 4372      00
 4373              	.LEHE132:
 4374 16d8 488DBC24 		leaq	608(%rsp), %rdi
 4374      60020000 
 4375              	.LEHB133:
 4376 16e0 E8000000 		call	_ZN8UnitTest16SignalTranslatorD1Ev@PLT
 4376      00
 4377              	.LEHE133:
 4378              	.L357:
 4379 16e5 488B8424 		movq	1736(%rsp), %rax
 4379      C8060000 
 4380 16ed 64483304 		xorq	%fs:40, %rax
 4380      25280000 
 4380      00
 4381 16f6 0F85FC00 		jne	.L394
 4381      0000
 4382 16fc 4881C4D8 		addq	$1752, %rsp
 4382      060000
 4383              		.cfi_remember_state
 4384              		.cfi_def_cfa_offset 40
 4385 1703 5B       		popq	%rbx
 4386              		.cfi_def_cfa_offset 32
 4387 1704 5D       		popq	%rbp
 4388              		.cfi_def_cfa_offset 24
 4389 1705 415C     		popq	%r12
 4390              		.cfi_def_cfa_offset 16
 4391 1707 415D     		popq	%r13
 4392              		.cfi_def_cfa_offset 8
 4393 1709 C3       		ret
 4394 170a 660F1F44 		.p2align 4,,10
 4394      0000
 4395              		.p2align 3
 4396              	.L361:
 4397              		.cfi_restore_state
 4398 1710 488B0424 		movq	(%rsp), %rax
 4399 1714 B9030000 		movl	$3, %ecx
 4399      00
 4400 1719 4889DA   		movq	%rbx, %rdx
 4401 171c 4889EF   		movq	%rbp, %rdi
 4402 171f 488B7008 		movq	8(%rax), %rsi
 4403              	.LEHB134:
 4404 1723 E8000000 		call	_ZNK8UnitTest10TestRunner7RunTestEPNS_11TestResultsEPNS_4TestEi@PLT
 4404      00
 4405              	.L363:
 4406 1728 488B5B28 		movq	40(%rbx), %rbx
 4407 172c 4885DB   		testq	%rbx, %rbx
 4408 172f 0F842BFF 		je	.L360
 4408      FFFF
 4409              	.L362:
 4410 1735 31D2     		xorl	%edx, %edx
 4411 1737 4889DE   		movq	%rbx, %rsi
 4412 173a 4889EF   		movq	%rbp, %rdi
 4413 173d E8000000 		call	_ZNK8UnitTest10TestRunner13IsTestInSuiteEPKNS_4TestEPKc@PLT
 4413      00
 4414              	.LEHE134:
 4415 1742 84C0     		testb	%al, %al
 4416 1744 74E2     		je	.L363
 4417 1746 EBC8     		jmp	.L361
 4418              	.L382:
 4419 1748 4889C3   		movq	%rax, %rbx
 4420 174b 4889D5   		movq	%rdx, %rbp
 4421              	.L369:
 4422 174e 488DBC24 		leaq	608(%rsp), %rdi
 4422      60020000 
 4423 1756 E8000000 		call	_ZN8UnitTest16SignalTranslatorD1Ev@PLT
 4423      00
 4424 175b 4889DF   		movq	%rbx, %rdi
 4425 175e 4889EA   		movq	%rbp, %rdx
 4426              	.L370:
 4427 1761 4883FA01 		cmpq	$1, %rdx
 4428 1765 0F845D01 		je	.L372
 4428      0000
 4429 176b 4883FA02 		cmpq	$2, %rdx
 4430 176f 0F852B01 		jne	.L395
 4430      0000
 4431 1775 E8000000 		call	__cxa_begin_catch@PLT
 4431      00
 4432 177a 488DBC24 		leaq	192(%rsp), %rdi
 4432      C0000000 
 4433 1782 4889C3   		movq	%rax, %rbx
 4434              	.LEHB135:
 4435 1785 E8000000 		call	_ZN8UnitTest15MemoryOutStreamC1Ev
 4435      00
 4436              	.LEHE135:
 4437 178a 488DBC24 		leaq	192(%rsp), %rdi
 4437      C0000000 
 4438 1792 488D3500 		leaq	.LC11(%rip), %rsi
 4438      000000
 4439 1799 BA150000 		movl	$21, %edx
 4439      00
 4440              	.LEHB136:
 4441 179e E8000000 		call	_ZSt16__ostream_insertIcSt11char_traitsIcEERSt13basic_ostreamIT_T0_ES6_PKS3_l@PLT
 4441      00
 4442 17a3 488B03   		movq	(%rbx), %rax
 4443 17a6 4889DF   		movq	%rbx, %rdi
 4444 17a9 FF5010   		call	*16(%rax)
 4445 17ac 488DBC24 		leaq	192(%rsp), %rdi
 4445      C0000000 
 4446 17b4 4889C6   		movq	%rax, %rsi
 4447 17b7 E8000000 		call	_ZStlsISt11char_traitsIcEERSt13basic_ostreamIcT_ES5_PKc@PLT
 4447      00
 4448 17bc E8000000 		call	_ZN8UnitTest11CurrentTest7ResultsEv@PLT
 4448      00
 4449 17c1 488DBC24 		leaq	192(%rsp), %rdi
 4449      C0000000 
 4450 17c9 488B18   		movq	(%rax), %rbx
 4451 17cc E8000000 		call	_ZNK8UnitTest15MemoryOutStream7GetTextEv@PLT
 4451      00
 4452 17d1 488B7424 		movq	8(%rsp), %rsi
 4452      08
 4453 17d6 4889C2   		movq	%rax, %rdx
 4454 17d9 4889DF   		movq	%rbx, %rdi
 4455 17dc E8000000 		call	_ZN8UnitTest11TestResults13OnTestFailureERKNS_11TestDetailsEPKc@PLT
 4455      00
 4456              	.LEHE136:
 4457 17e1 488DBC24 		leaq	192(%rsp), %rdi
 4457      C0000000 
 4458              	.LEHB137:
 4459 17e9 E8000000 		call	_ZN8UnitTest15MemoryOutStreamD1Ev
 4459      00
 4460              	.LEHE137:
 4461              	.L392:
 4462 17ee E8000000 		call	__cxa_end_catch@PLT
 4462      00
 4463 17f3 E9EDFEFF 		jmp	.L357
 4463      FF
 4464              	.L394:
 4465 17f8 E8000000 		call	__stack_chk_fail@PLT
 4465      00
 4466              	.L381:
 4467 17fd 4889C7   		movq	%rax, %rdi
 4468 1800 E95CFFFF 		jmp	.L370
 4468      FF
 4469              	.L389:
 4470 1805 4889C7   		movq	%rax, %rdi
 4471 1808 E8000000 		call	__cxa_begin_catch@PLT
 4471      00
 4472              	.LEHB138:
 4473 180d E8000000 		call	_ZN8UnitTest11CurrentTest7ResultsEv@PLT
 4473      00
 4474 1812 488B18   		movq	(%rax), %rbx
 4475 1815 E8000000 		call	_ZN8UnitTest11CurrentTest7DetailsEv@PLT
 4475      00
 4476 181a 488B30   		movq	(%rax), %rsi
 4477 181d 488D7C24 		leaq	64(%rsp), %rdi
 4477      40
 4478 1822 BADE0000 		movl	$222, %edx
 4478      00
 4479 1827 E8000000 		call	_ZN8UnitTest11TestDetailsC1ERKS0_i@PLT
 4479      00
 4480 182c 488D7424 		leaq	64(%rsp), %rsi
 4480      40
 4481 1831 488D1500 		leaq	.LC26(%rip), %rdx
 4481      000000
 4482 1838 4889DF   		movq	%rbx, %rdi
 4483 183b E8000000 		call	_ZN8UnitTest11TestResults13OnTestFailureERKNS_11TestDetailsEPKc@PLT
 4483      00
 4484              	.LEHE138:
 4485              	.LEHB139:
 4486 1840 E8000000 		call	__cxa_end_catch@PLT
 4486      00
 4487              	.LEHE139:
 4488 1845 E972FEFF 		jmp	.L366
 4488      FF
 4489              	.L387:
 4490 184a 4889C3   		movq	%rax, %rbx
 4491 184d 4889D5   		movq	%rdx, %rbp
 4492              	.L368:
 4493 1850 488D0500 		leaq	16+_ZTVZN12_GLOBAL__N_154TestRunnerFixtureSlowTestWithTimeExemptionPassesHelper7RunImplEvE16S
 4493      000000
 4494 1857 488DBC24 		leaq	128(%rsp), %rdi
 4494      80000000 
 4495 185f 48898424 		movq	%rax, 128(%rsp)
 4495      80000000 
 4496 1867 E8000000 		call	_ZN8UnitTest4TestD2Ev@PLT
 4496      00
 4497 186c E9DDFEFF 		jmp	.L369
 4497      FF
 4498              	.L388:
 4499 1871 4889C3   		movq	%rax, %rbx
 4500 1874 4889D5   		movq	%rdx, %rbp
 4501 1877 E8000000 		call	__cxa_end_catch@PLT
 4501      00
 4502 187c EBD2     		jmp	.L368
 4503              	.L385:
 4504 187e 488DBC24 		leaq	192(%rsp), %rdi
 4504      C0000000 
 4505 1886 4889C3   		movq	%rax, %rbx
 4506 1889 E8000000 		call	_ZN8UnitTest15MemoryOutStreamD1Ev
 4506      00
 4507              	.L378:
 4508 188e E8000000 		call	__cxa_end_catch@PLT
 4508      00
 4509 1893 4889DF   		movq	%rbx, %rdi
 4510              	.LEHB140:
 4511 1896 E8000000 		call	_Unwind_Resume@PLT
 4511      00
 4512              	.LEHE140:
 4513              	.L384:
 4514              	.L393:
 4515 189b 4889C3   		movq	%rax, %rbx
 4516 189e EBEE     		jmp	.L378
 4517              	.L395:
 4518 18a0 E8000000 		call	__cxa_begin_catch@PLT
 4518      00
 4519              	.LEHB141:
 4520 18a5 E8000000 		call	_ZN8UnitTest11CurrentTest7ResultsEv@PLT
 4520      00
 4521 18aa 488B7424 		movq	8(%rsp), %rsi
 4521      08
 4522 18af 488B38   		movq	(%rax), %rdi
 4523 18b2 488D1500 		leaq	.LC12(%rip), %rdx
 4523      000000
 4524 18b9 E8000000 		call	_ZN8UnitTest11TestResults13OnTestFailureERKNS_11TestDetailsEPKc@PLT
 4524      00
 4525              	.LEHE141:
 4526              	.LEHB142:
 4527 18be E8000000 		call	__cxa_end_catch@PLT
 4527      00
 4528              	.LEHE142:
 4529 18c3 E91DFEFF 		jmp	.L357
 4529      FF
 4530              	.L372:
 4531 18c8 E8000000 		call	__cxa_begin_catch@PLT
 4531      00
 4532 18cd 4889C3   		movq	%rax, %rbx
 4533              	.LEHB143:
 4534 18d0 E8000000 		call	_ZN8UnitTest11CurrentTest7ResultsEv@PLT
 4534      00
 4535 18d5 488B28   		movq	(%rax), %rbp
 4536 18d8 488B03   		movq	(%rbx), %rax
 4537 18db 4889DF   		movq	%rbx, %rdi
 4538 18de FF5010   		call	*16(%rax)
 4539 18e1 4889DF   		movq	%rbx, %rdi
 4540 18e4 4989C4   		movq	%rax, %r12
 4541 18e7 E8000000 		call	_ZNK8UnitTest15AssertException10LineNumberEv@PLT
 4541      00
 4542 18ec 4889DF   		movq	%rbx, %rdi
 4543 18ef 4189C5   		movl	%eax, %r13d
 4544 18f2 E8000000 		call	_ZNK8UnitTest15AssertException8FilenameEv@PLT
 4544      00
 4545 18f7 488B5424 		movq	8(%rsp), %rdx
 4545      08
 4546 18fc 488D7C24 		leaq	32(%rsp), %rdi
 4546      20
 4547 1901 4589E8   		movl	%r13d, %r8d
 4548 1904 4889C1   		movq	%rax, %rcx
 4549 1907 488B7208 		movq	8(%rdx), %rsi
 4550 190b 488B12   		movq	(%rdx), %rdx
 4551 190e E8000000 		call	_ZN8UnitTest11TestDetailsC1EPKcS2_S2_i@PLT
 4551      00
 4552 1913 488D7424 		leaq	32(%rsp), %rsi
 4552      20
 4553 1918 4C89E2   		movq	%r12, %rdx
 4554 191b 4889EF   		movq	%rbp, %rdi
 4555 191e E8000000 		call	_ZN8UnitTest11TestResults13OnTestFailureERKNS_11TestDetailsEPKc@PLT
 4555      00
 4556              	.LEHE143:
 4557 1923 E9C6FEFF 		jmp	.L392
 4557      FF
 4558              	.L386:
 4559 1928 4889C3   		movq	%rax, %rbx
 4560 192b E8000000 		call	__cxa_end_catch@PLT
 4560      00
 4561 1930 4889DF   		movq	%rbx, %rdi
 4562              	.LEHB144:
 4563 1933 E8000000 		call	_Unwind_Resume@PLT
 4563      00
 4564              	.LEHE144:
 4565              	.L383:
 4566 1938 E95EFFFF 		jmp	.L393
 4566      FF
 4567              		.cfi_endproc
 4568              	.LFE1423:
 4569              		.section	.gcc_except_table
 4570              		.align 4
 4571              	.LLSDA1423:
 4572 0358 FF       		.byte	0xff
 4573 0359 9B       		.byte	0x9b
 4574 035a 7D       		.uleb128 .LLSDATT1423-.LLSDATTD1423
 4575              	.LLSDATTD1423:
 4576 035b 01       		.byte	0x1
 4577 035c 65       		.uleb128 .LLSDACSE1423-.LLSDACSB1423
 4578              	.LLSDACSB1423:
 4579 035d 2C       		.uleb128 .LEHB127-.LFB1423
 4580 035e 05       		.uleb128 .LEHE127-.LEHB127
 4581 035f 00       		.uleb128 0
 4582 0360 00       		.uleb128 0
 4583 0361 3C       		.uleb128 .LEHB128-.LFB1423
 4584 0362 05       		.uleb128 .LEHE128-.LEHB128
 4585 0363 8D05     		.uleb128 .L381-.LFB1423
 4586 0365 05       		.uleb128 0x5
 4587 0366 76       		.uleb128 .LEHB129-.LFB1423
 4588 0367 2A       		.uleb128 .LEHE129-.LEHB129
 4589 0368 D803     		.uleb128 .L382-.LFB1423
 4590 036a 07       		.uleb128 0x7
 4591 036b C501     		.uleb128 .LEHB130-.LFB1423
 4592 036d 44       		.uleb128 .LEHE130-.LEHB130
 4593 036e DA05     		.uleb128 .L387-.LFB1423
 4594 0370 07       		.uleb128 0x7
 4595 0371 8C02     		.uleb128 .LEHB131-.LFB1423
 4596 0373 40       		.uleb128 .LEHE131-.LEHB131
 4597 0374 9505     		.uleb128 .L389-.LFB1423
 4598 0376 01       		.uleb128 0x1
 4599 0377 E302     		.uleb128 .LEHB132-.LFB1423
 4600 0379 05       		.uleb128 .LEHE132-.LEHB132
 4601 037a D803     		.uleb128 .L382-.LFB1423
 4602 037c 07       		.uleb128 0x7
 4603 037d F002     		.uleb128 .LEHB133-.LFB1423
 4604 037f 05       		.uleb128 .LEHE133-.LEHB133
 4605 0380 8D05     		.uleb128 .L381-.LFB1423
 4606 0382 05       		.uleb128 0x5
 4607 0383 B303     		.uleb128 .LEHB134-.LFB1423
 4608 0385 1F       		.uleb128 .LEHE134-.LEHB134
 4609 0386 DA05     		.uleb128 .L387-.LFB1423
 4610 0388 07       		.uleb128 0x7
 4611 0389 9504     		.uleb128 .LEHB135-.LFB1423
 4612 038b 05       		.uleb128 .LEHE135-.LEHB135
 4613 038c AB06     		.uleb128 .L384-.LFB1423
 4614 038e 00       		.uleb128 0
 4615 038f AE04     		.uleb128 .LEHB136-.LFB1423
 4616 0391 43       		.uleb128 .LEHE136-.LEHB136
 4617 0392 8E06     		.uleb128 .L385-.LFB1423
 4618 0394 00       		.uleb128 0
 4619 0395 F904     		.uleb128 .LEHB137-.LFB1423
 4620 0397 05       		.uleb128 .LEHE137-.LEHB137
 4621 0398 AB06     		.uleb128 .L384-.LFB1423
 4622 039a 00       		.uleb128 0
 4623 039b 9D05     		.uleb128 .LEHB138-.LFB1423
 4624 039d 33       		.uleb128 .LEHE138-.LEHB138
 4625 039e 8106     		.uleb128 .L388-.LFB1423
 4626 03a0 07       		.uleb128 0x7
 4627 03a1 D005     		.uleb128 .LEHB139-.LFB1423
 4628 03a3 05       		.uleb128 .LEHE139-.LEHB139
 4629 03a4 DA05     		.uleb128 .L387-.LFB1423
 4630 03a6 07       		.uleb128 0x7
 4631 03a7 A606     		.uleb128 .LEHB140-.LFB1423
 4632 03a9 05       		.uleb128 .LEHE140-.LEHB140
 4633 03aa 00       		.uleb128 0
 4634 03ab 00       		.uleb128 0
 4635 03ac B506     		.uleb128 .LEHB141-.LFB1423
 4636 03ae 19       		.uleb128 .LEHE141-.LEHB141
 4637 03af B807     		.uleb128 .L386-.LFB1423
 4638 03b1 00       		.uleb128 0
 4639 03b2 CE06     		.uleb128 .LEHB142-.LFB1423
 4640 03b4 05       		.uleb128 .LEHE142-.LEHB142
 4641 03b5 00       		.uleb128 0
 4642 03b6 00       		.uleb128 0
 4643 03b7 E006     		.uleb128 .LEHB143-.LFB1423
 4644 03b9 53       		.uleb128 .LEHE143-.LEHB143
 4645 03ba C807     		.uleb128 .L383-.LFB1423
 4646 03bc 00       		.uleb128 0
 4647 03bd C307     		.uleb128 .LEHB144-.LFB1423
 4648 03bf 05       		.uleb128 .LEHE144-.LEHB144
 4649 03c0 00       		.uleb128 0
 4650 03c1 00       		.uleb128 0
 4651              	.LLSDACSE1423:
 4652 03c2 03       		.byte	0x3
 4653 03c3 00       		.byte	0
 4654 03c4 02       		.byte	0x2
 4655 03c5 7D       		.byte	0x7d
 4656 03c6 01       		.byte	0x1
 4657 03c7 7D       		.byte	0x7d
 4658 03c8 00       		.byte	0
 4659 03c9 7D       		.byte	0x7d
 4660 03ca 0000     		.align 4
 4661 03cc 00000000 		.long	0
 4662              	
 4663 03d0 00000000 		.long	DW.ref._ZTISt9exception-.
 4664 03d4 00000000 		.long	DW.ref._ZTIN8UnitTest15AssertExceptionE-.
 4665              	.LLSDATT1423:
 4666              		.text
 4668 193d 90       		.align 2
 4669 193e 6690     		.p2align 4,,15
 4671              	_ZNK12_GLOBAL__N_152TestTestRunnerFixtureSlowTestWithTimeExemptionPasses7RunImplEv:
 4672              	.LFB1311:
 4673              		.cfi_startproc
 4674              		.cfi_personality 0x9b,DW.ref.__gxx_personality_v0
 4675              		.cfi_lsda 0x1b,.LLSDA1311
 4676 1940 4156     		pushq	%r14
 4677              		.cfi_def_cfa_offset 16
 4678              		.cfi_offset 14, -16
 4679 1942 4155     		pushq	%r13
 4680              		.cfi_def_cfa_offset 24
 4681              		.cfi_offset 13, -24
 4682 1944 4989FD   		movq	%rdi, %r13
 4683 1947 4154     		pushq	%r12
 4684              		.cfi_def_cfa_offset 32
 4685              		.cfi_offset 12, -32
 4686 1949 55       		pushq	%rbp
 4687              		.cfi_def_cfa_offset 40
 4688              		.cfi_offset 6, -40
 4689 194a 488D6F08 		leaq	8(%rdi), %rbp
 4690 194e 53       		pushq	%rbx
 4691              		.cfi_def_cfa_offset 48
 4692              		.cfi_offset 3, -48
 4693 194f 4881EC90 		subq	$2192, %rsp
 4693      080000
 4694              		.cfi_def_cfa_offset 2240
 4695 1956 488D5C24 		leaq	32(%rsp), %rbx
 4695      20
 4696 195b 64488B04 		movq	%fs:40, %rax
 4696      25280000 
 4696      00
 4697 1964 48898424 		movq	%rax, 2184(%rsp)
 4697      88080000 
 4698 196c 31C0     		xorl	%eax, %eax
 4699 196e 488D7318 		leaq	24(%rbx), %rsi
 4700 1972 4889DF   		movq	%rbx, %rdi
 4701              	.LEHB145:
 4702 1975 E8000000 		call	_ZN8UnitTest10TestRunnerC1ERNS_12TestReporterE@PLT
 4702      00
 4703              	.LEHE145:
 4704 197a 4C8D2500 		leaq	16+_ZTV17RecordingReporter(%rip), %r12
 4704      000000
 4705 1981 488DBB48 		leaq	2120(%rbx), %rdi
 4705      080000
 4706 1988 C7442440 		movl	$0, 64(%rsp)
 4706      00000000 
 4707 1990 C7842444 		movl	$0, 580(%rsp)
 4707      02000000 
 4707      000000
 4708 199b C7842448 		movl	$0, 840(%rsp)
 4708      03000000 
 4708      000000
 4709 19a6 4C896424 		movq	%r12, 56(%rsp)
 4709      38
 4710 19ab C784244C 		movl	$0, 1612(%rsp)
 4710      06000000 
 4710      000000
 4711 19b6 48C78424 		movq	$0, 2128(%rsp)
 4711      50080000 
 4711      00000000 
 4712 19c2 48C78424 		movq	$0, 2136(%rsp)
 4712      58080000 
 4712      00000000 
 4713 19ce C7842460 		movl	$0, 2144(%rsp)
 4713      08000000 
 4713      000000
 4714 19d9 C6442444 		movb	$0, 68(%rsp)
 4714      00
 4715 19de C6842444 		movb	$0, 324(%rsp)
 4715      01000000 
 4716 19e6 C6842448 		movb	$0, 584(%rsp)
 4716      02000000 
 4717 19ee C684244C 		movb	$0, 844(%rsp)
 4717      03000000 
 4718 19f6 C684244C 		movb	$0, 1100(%rsp)
 4718      04000000 
 4719 19fe C684244C 		movb	$0, 1356(%rsp)
 4719      05000000 
 4720 1a06 C6842450 		movb	$0, 1616(%rsp)
 4720      06000000 
 4721 1a0e C6842450 		movb	$0, 1872(%rsp)
 4721      07000000 
 4722              	.LEHB146:
 4723 1a16 E8000000 		call	_ZN8UnitTest8TestListC1Ev@PLT
 4723      00
 4724              	.LEHE146:
 4725 1a1b 4889EE   		movq	%rbp, %rsi
 4726 1a1e 4889DF   		movq	%rbx, %rdi
 4727 1a21 4889AC24 		movq	%rbp, 2168(%rsp)
 4727      78080000 
 4728              	.LEHB147:
 4729 1a29 E842FBFF 		call	_ZN8UnitTest11ExecuteTestIN12_GLOBAL__N_154TestRunnerFixtureSlowTestWithTimeExemptionPassesHe
 4729      FF
 4730              	.LEHE147:
 4731 1a2e 488D7B18 		leaq	24(%rbx), %rdi
 4732 1a32 4C896424 		movq	%r12, 56(%rsp)
 4732      38
 4733              	.LEHB148:
 4734 1a37 E8000000 		call	_ZN8UnitTest12TestReporterD2Ev@PLT
 4734      00
 4735              	.LEHE148:
 4736 1a3c 4889DF   		movq	%rbx, %rdi
 4737              	.LEHB149:
 4738 1a3f E8000000 		call	_ZN8UnitTest10TestRunnerD1Ev@PLT
 4738      00
 4739              	.LEHE149:
 4740              	.L396:
 4741 1a44 488B8424 		movq	2184(%rsp), %rax
 4741      88080000 
 4742 1a4c 64483304 		xorq	%fs:40, %rax
 4742      25280000 
 4742      00
 4743 1a55 7510     		jne	.L444
 4744 1a57 4881C490 		addq	$2192, %rsp
 4744      080000
 4745              		.cfi_remember_state
 4746              		.cfi_def_cfa_offset 48
 4747 1a5e 5B       		popq	%rbx
 4748              		.cfi_def_cfa_offset 40
 4749 1a5f 5D       		popq	%rbp
 4750              		.cfi_def_cfa_offset 32
 4751 1a60 415C     		popq	%r12
 4752              		.cfi_def_cfa_offset 24
 4753 1a62 415D     		popq	%r13
 4754              		.cfi_def_cfa_offset 16
 4755 1a64 415E     		popq	%r14
 4756              		.cfi_def_cfa_offset 8
 4757 1a66 C3       		ret
 4758              	.L444:
 4759              		.cfi_restore_state
 4760 1a67 E8000000 		call	__stack_chk_fail@PLT
 4760      00
 4761              	.L416:
 4762 1a6c 4889C7   		movq	%rax, %rdi
 4763              	.L402:
 4764 1a6f 4883FA01 		cmpq	$1, %rdx
 4765 1a73 0F846F01 		je	.L404
 4765      0000
 4766 1a79 4883FA02 		cmpq	$2, %rdx
 4767 1a7d 0F853101 		jne	.L445
 4767      0000
 4768              	.L405:
 4769 1a83 E8000000 		call	__cxa_begin_catch@PLT
 4769      00
 4770 1a88 4889DF   		movq	%rbx, %rdi
 4771 1a8b 4989C4   		movq	%rax, %r12
 4772              	.LEHB150:
 4773 1a8e E8000000 		call	_ZN8UnitTest15MemoryOutStreamC1Ev
 4773      00
 4774              	.LEHE150:
 4775 1a93 488D3500 		leaq	.LC11(%rip), %rsi
 4775      000000
 4776 1a9a BA150000 		movl	$21, %edx
 4776      00
 4777 1a9f 4889DF   		movq	%rbx, %rdi
 4778              	.LEHB151:
 4779 1aa2 E8000000 		call	_ZSt16__ostream_insertIcSt11char_traitsIcEERSt13basic_ostreamIT_T0_ES6_PKS3_l@PLT
 4779      00
 4780 1aa7 498B0424 		movq	(%r12), %rax
 4781 1aab 4C89E7   		movq	%r12, %rdi
 4782 1aae FF5010   		call	*16(%rax)
 4783 1ab1 4889DF   		movq	%rbx, %rdi
 4784 1ab4 4889C6   		movq	%rax, %rsi
 4785 1ab7 E8000000 		call	_ZStlsISt11char_traitsIcEERSt13basic_ostreamIcT_ES5_PKc@PLT
 4785      00
 4786 1abc E8000000 		call	_ZN8UnitTest11CurrentTest7ResultsEv@PLT
 4786      00
 4787 1ac1 4889DF   		movq	%rbx, %rdi
 4788 1ac4 4C8B20   		movq	(%rax), %r12
 4789 1ac7 E8000000 		call	_ZNK8UnitTest15MemoryOutStream7GetTextEv@PLT
 4789      00
 4790 1acc 4889C2   		movq	%rax, %rdx
 4791 1acf 4889EE   		movq	%rbp, %rsi
 4792 1ad2 4C89E7   		movq	%r12, %rdi
 4793 1ad5 E8000000 		call	_ZN8UnitTest11TestResults13OnTestFailureERKNS_11TestDetailsEPKc@PLT
 4793      00
 4794              	.LEHE151:
 4795 1ada 4889DF   		movq	%rbx, %rdi
 4796              	.LEHB152:
 4797 1add E8000000 		call	_ZN8UnitTest15MemoryOutStreamD1Ev
 4797      00
 4798              	.LEHE152:
 4799              	.L443:
 4800 1ae2 E8000000 		call	__cxa_end_catch@PLT
 4800      00
 4801 1ae7 E958FFFF 		jmp	.L396
 4801      FF
 4802              	.L423:
 4803 1aec 4989C4   		movq	%rax, %r12
 4804 1aef 4989D6   		movq	%rdx, %r14
 4805 1af2 4889DF   		movq	%rbx, %rdi
 4806 1af5 E8000000 		call	_ZN8UnitTest10TestRunnerD1Ev@PLT
 4806      00
 4807 1afa 4C89E7   		movq	%r12, %rdi
 4808 1afd 4C89F2   		movq	%r14, %rdx
 4809 1b00 E96AFFFF 		jmp	.L402
 4809      FF
 4810              	.L417:
 4811 1b05 4989C4   		movq	%rax, %r12
 4812 1b08 4989D6   		movq	%rdx, %r14
 4813 1b0b 4889DF   		movq	%rbx, %rdi
 4814 1b0e E8000000 		call	_ZN12_GLOBAL__N_111FixtureBaseD2Ev
 4814      00
 4815 1b13 4C89E7   		movq	%r12, %rdi
 4816 1b16 4C89F2   		movq	%r14, %rdx
 4817 1b19 E951FFFF 		jmp	.L402
 4817      FF
 4818              	.L422:
 4819 1b1e 4989C4   		movq	%rax, %r12
 4820 1b21 4989D6   		movq	%rdx, %r14
 4821 1b24 4889DF   		movq	%rbx, %rdi
 4822 1b27 E8000000 		call	_ZN12_GLOBAL__N_111FixtureBaseD2Ev
 4822      00
 4823 1b2c 4C89E7   		movq	%r12, %rdi
 4824 1b2f 4C89F2   		movq	%r14, %rdx
 4825              	.L399:
 4826 1b32 4883FA01 		cmpq	$1, %rdx
 4827 1b36 0F84AC00 		je	.L404
 4827      0000
 4828 1b3c 4883FA02 		cmpq	$2, %rdx
 4829 1b40 0F843DFF 		je	.L405
 4829      FFFF
 4830 1b46 E8000000 		call	__cxa_begin_catch@PLT
 4830      00
 4831              	.LEHB153:
 4832 1b4b E8000000 		call	_ZN8UnitTest11CurrentTest7ResultsEv@PLT
 4832      00
 4833 1b50 4889E3   		movq	%rsp, %rbx
 4834 1b53 BACD0000 		movl	$205, %edx
 4834      00
 4835 1b58 4889EE   		movq	%rbp, %rsi
 4836 1b5b 4889DF   		movq	%rbx, %rdi
 4837 1b5e 4C8B20   		movq	(%rax), %r12
 4838 1b61 E8000000 		call	_ZN8UnitTest11TestDetailsC1ERKS0_i@PLT
 4838      00
 4839 1b66 488D1500 		leaq	.LC14(%rip), %rdx
 4839      000000
 4840 1b6d 4889DE   		movq	%rbx, %rsi
 4841 1b70 4C89E7   		movq	%r12, %rdi
 4842 1b73 E8000000 		call	_ZN8UnitTest11TestResults13OnTestFailureERKNS_11TestDetailsEPKc@PLT
 4842      00
 4843              	.LEHE153:
 4844              	.L406:
 4845              	.LEHB154:
 4846 1b78 E8000000 		call	__cxa_end_catch@PLT
 4846      00
 4847              	.LEHE154:
 4848 1b7d E9C2FEFF 		jmp	.L396
 4848      FF
 4849              	.L424:
 4850 1b82 4889C7   		movq	%rax, %rdi
 4851 1b85 EBAB     		jmp	.L399
 4852              	.L421:
 4853 1b87 4889C3   		movq	%rax, %rbx
 4854 1b8a E8000000 		call	__cxa_end_catch@PLT
 4854      00
 4855 1b8f 4889DF   		movq	%rbx, %rdi
 4856              	.LEHB155:
 4857 1b92 E8000000 		call	_Unwind_Resume@PLT
 4857      00
 4858              	.LEHE155:
 4859              	.L420:
 4860 1b97 4889DF   		movq	%rbx, %rdi
 4861 1b9a 4889C5   		movq	%rax, %rbp
 4862 1b9d E8000000 		call	_ZN8UnitTest15MemoryOutStreamD1Ev
 4862      00
 4863              	.L409:
 4864 1ba2 E8000000 		call	__cxa_end_catch@PLT
 4864      00
 4865 1ba7 4889EF   		movq	%rbp, %rdi
 4866              	.LEHB156:
 4867 1baa E8000000 		call	_Unwind_Resume@PLT
 4867      00
 4868              	.LEHE156:
 4869              	.L419:
 4870 1baf 4889C5   		movq	%rax, %rbp
 4871 1bb2 EBEE     		jmp	.L409
 4872              	.L445:
 4873 1bb4 E8000000 		call	__cxa_begin_catch@PLT
 4873      00
 4874              	.LEHB157:
 4875 1bb9 E8000000 		call	_ZN8UnitTest11CurrentTest7ResultsEv@PLT
 4875      00
 4876 1bbe 4889E3   		movq	%rsp, %rbx
 4877 1bc1 BACD0000 		movl	$205, %edx
 4877      00
 4878 1bc6 4889EE   		movq	%rbp, %rsi
 4879 1bc9 4889DF   		movq	%rbx, %rdi
 4880 1bcc 4C8B20   		movq	(%rax), %r12
 4881 1bcf E8000000 		call	_ZN8UnitTest11TestDetailsC1ERKS0_i@PLT
 4881      00
 4882 1bd4 488D1500 		leaq	.LC13(%rip), %rdx
 4882      000000
 4883 1bdb 4889DE   		movq	%rbx, %rsi
 4884 1bde 4C89E7   		movq	%r12, %rdi
 4885 1be1 E8000000 		call	_ZN8UnitTest11TestResults13OnTestFailureERKNS_11TestDetailsEPKc@PLT
 4885      00
 4886              	.LEHE157:
 4887 1be6 EB90     		jmp	.L406
 4888              	.L404:
 4889 1be8 E8000000 		call	__cxa_begin_catch@PLT
 4889      00
 4890 1bed 4889C3   		movq	%rax, %rbx
 4891              	.LEHB158:
 4892 1bf0 E8000000 		call	_ZN8UnitTest11CurrentTest7ResultsEv@PLT
 4892      00
 4893 1bf5 488B28   		movq	(%rax), %rbp
 4894 1bf8 488B03   		movq	(%rbx), %rax
 4895 1bfb 4889DF   		movq	%rbx, %rdi
 4896 1bfe FF5010   		call	*16(%rax)
 4897 1c01 4889DF   		movq	%rbx, %rdi
 4898 1c04 4989C4   		movq	%rax, %r12
 4899 1c07 E8000000 		call	_ZNK8UnitTest15AssertException10LineNumberEv@PLT
 4899      00
 4900 1c0c 4889DF   		movq	%rbx, %rdi
 4901 1c0f 4189C6   		movl	%eax, %r14d
 4902 1c12 E8000000 		call	_ZNK8UnitTest15AssertException8FilenameEv@PLT
 4902      00
 4903 1c17 498B5508 		movq	8(%r13), %rdx
 4904 1c1b 498B7510 		movq	16(%r13), %rsi
 4905 1c1f 4889E3   		movq	%rsp, %rbx
 4906 1c22 4589F0   		movl	%r14d, %r8d
 4907 1c25 4889C1   		movq	%rax, %rcx
 4908 1c28 4889DF   		movq	%rbx, %rdi
 4909 1c2b E8000000 		call	_ZN8UnitTest11TestDetailsC1EPKcS2_S2_i@PLT
 4909      00
 4910 1c30 4C89E2   		movq	%r12, %rdx
 4911 1c33 4889DE   		movq	%rbx, %rsi
 4912 1c36 4889EF   		movq	%rbp, %rdi
 4913 1c39 E8000000 		call	_ZN8UnitTest11TestResults13OnTestFailureERKNS_11TestDetailsEPKc@PLT
 4913      00
 4914              	.LEHE158:
 4915 1c3e E99FFEFF 		jmp	.L443
 4915      FF
 4916              	.L418:
 4917 1c43 4889C3   		movq	%rax, %rbx
 4918 1c46 E8000000 		call	__cxa_end_catch@PLT
 4918      00
 4919 1c4b 4889DF   		movq	%rbx, %rdi
 4920              	.LEHB159:
 4921 1c4e E8000000 		call	_Unwind_Resume@PLT
 4921      00
 4922              	.LEHE159:
 4923              		.cfi_endproc
 4924              	.LFE1311:
 4925              		.section	.gcc_except_table
 4926              		.align 4
 4927              	.LLSDA1311:
 4928 03d8 FF       		.byte	0xff
 4929 03d9 9B       		.byte	0x9b
 4930 03da 6D       		.uleb128 .LLSDATT1311-.LLSDATTD1311
 4931              	.LLSDATTD1311:
 4932 03db 01       		.byte	0x1
 4933 03dc 55       		.uleb128 .LLSDACSE1311-.LLSDACSB1311
 4934              	.LLSDACSB1311:
 4935 03dd 35       		.uleb128 .LEHB145-.LFB1311
 4936 03de 05       		.uleb128 .LEHE145-.LEHB145
 4937 03df C204     		.uleb128 .L424-.LFB1311
 4938 03e1 05       		.uleb128 0x5
 4939 03e2 D601     		.uleb128 .LEHB146-.LFB1311
 4940 03e4 05       		.uleb128 .LEHE146-.LEHB146
 4941 03e5 DE03     		.uleb128 .L422-.LFB1311
 4942 03e7 07       		.uleb128 0x7
 4943 03e8 E901     		.uleb128 .LEHB147-.LFB1311
 4944 03ea 05       		.uleb128 .LEHE147-.LEHB147
 4945 03eb C503     		.uleb128 .L417-.LFB1311
 4946 03ed 07       		.uleb128 0x7
 4947 03ee F701     		.uleb128 .LEHB148-.LFB1311
 4948 03f0 05       		.uleb128 .LEHE148-.LEHB148
 4949 03f1 AC03     		.uleb128 .L423-.LFB1311
 4950 03f3 07       		.uleb128 0x7
 4951 03f4 FF01     		.uleb128 .LEHB149-.LFB1311
 4952 03f6 05       		.uleb128 .LEHE149-.LEHB149
 4953 03f7 AC02     		.uleb128 .L416-.LFB1311
 4954 03f9 05       		.uleb128 0x5
 4955 03fa CE02     		.uleb128 .LEHB150-.LFB1311
 4956 03fc 05       		.uleb128 .LEHE150-.LEHB150
 4957 03fd EF04     		.uleb128 .L419-.LFB1311
 4958 03ff 00       		.uleb128 0
 4959 0400 E202     		.uleb128 .LEHB151-.LFB1311
 4960 0402 38       		.uleb128 .LEHE151-.LEHB151
 4961 0403 D704     		.uleb128 .L420-.LFB1311
 4962 0405 00       		.uleb128 0
 4963 0406 9D03     		.uleb128 .LEHB152-.LFB1311
 4964 0408 05       		.uleb128 .LEHE152-.LEHB152
 4965 0409 EF04     		.uleb128 .L419-.LFB1311
 4966 040b 00       		.uleb128 0
 4967 040c 8B04     		.uleb128 .LEHB153-.LFB1311
 4968 040e 2D       		.uleb128 .LEHE153-.LEHB153
 4969 040f C704     		.uleb128 .L421-.LFB1311
 4970 0411 00       		.uleb128 0
 4971 0412 B804     		.uleb128 .LEHB154-.LFB1311
 4972 0414 05       		.uleb128 .LEHE154-.LEHB154
 4973 0415 00       		.uleb128 0
 4974 0416 00       		.uleb128 0
 4975 0417 D204     		.uleb128 .LEHB155-.LFB1311
 4976 0419 05       		.uleb128 .LEHE155-.LEHB155
 4977 041a 00       		.uleb128 0
 4978 041b 00       		.uleb128 0
 4979 041c EA04     		.uleb128 .LEHB156-.LFB1311
 4980 041e 05       		.uleb128 .LEHE156-.LEHB156
 4981 041f 00       		.uleb128 0
 4982 0420 00       		.uleb128 0
 4983 0421 F904     		.uleb128 .LEHB157-.LFB1311
 4984 0423 2D       		.uleb128 .LEHE157-.LEHB157
 4985 0424 C704     		.uleb128 .L421-.LFB1311
 4986 0426 00       		.uleb128 0
 4987 0427 B005     		.uleb128 .LEHB158-.LFB1311
 4988 0429 4E       		.uleb128 .LEHE158-.LEHB158
 4989 042a 8306     		.uleb128 .L418-.LFB1311
 4990 042c 00       		.uleb128 0
 4991 042d 8E06     		.uleb128 .LEHB159-.LFB1311
 4992 042f 05       		.uleb128 .LEHE159-.LEHB159
 4993 0430 00       		.uleb128 0
 4994 0431 00       		.uleb128 0
 4995              	.LLSDACSE1311:
 4996 0432 03       		.byte	0x3
 4997 0433 00       		.byte	0
 4998 0434 02       		.byte	0x2
 4999 0435 7D       		.byte	0x7d
 5000 0436 01       		.byte	0x1
 5001 0437 7D       		.byte	0x7d
 5002 0438 00       		.byte	0
 5003 0439 7D       		.byte	0x7d
 5004 043a 0000     		.align 4
 5005 043c 00000000 		.long	0
 5006              	
 5007 0440 00000000 		.long	DW.ref._ZTISt9exception-.
 5008 0444 00000000 		.long	DW.ref._ZTIN8UnitTest15AssertExceptionE-.
 5009              	.LLSDATT1311:
 5010              		.text
 5012              		.section	.rodata.str1.8
 5013              		.align 8
 5014              	.LC27:
 5015 0280 73747273 		.string	"strstr(test.m_details.filename, reporter.lastFailedFile)"
 5015      74722874 
 5015      6573742E 
 5015      6D5F6465 
 5015      7461696C 
 5016              		.section	.rodata.str1.1
 5017              	.LC28:
 5018 00a1 476C6F62 		.string	"Global time constraint failed"
 5018      616C2074 
 5018      696D6520 
 5018      636F6E73 
 5018      74726169 
 5019              		.section	.rodata.str1.8
 5020 02b9 00000000 		.align 8
 5020      000000
 5021              	.LC29:
 5022 02c0 73747273 		.string	"strstr(reporter.lastFailedMessage, \"Global time constraint failed\")"
 5022      74722872 
 5022      65706F72 
 5022      7465722E 
 5022      6C617374 
 5023              		.section	.rodata.str1.1
 5024              	.LC30:
 5025 00bf 336D7300 		.string	"3ms"
 5026              		.section	.rodata.str1.8
 5027 0304 00000000 		.align 8
 5028              	.LC31:
 5029 0308 73747273 		.string	"strstr(reporter.lastFailedMessage, \"3ms\")"
 5029      74722872 
 5029      65706F72 
 5029      7465722E 
 5029      6C617374 
 5030 0332 00000000 		.align 8
 5030      0000
 5031              	.LC32:
 5032 0338 556E6861 		.string	"Unhandled exception in CHECK_EQUAL(test.m_details.testName, reporter.lastFailedTest)"
 5032      6E646C65 
 5032      64206578 
 5032      63657074 
 5032      696F6E20 
 5033 038d 000000   		.align 8
 5034              	.LC33:
 5035 0390 556E6861 		.string	"Unhandled exception in CHECK(strstr(test.m_details.filename, reporter.lastFailedFile))"
 5035      6E646C65 
 5035      64206578 
 5035      63657074 
 5035      696F6E20 
 5036 03e7 00       		.align 8
 5037              	.LC34:
 5038 03e8 556E6861 		.string	"Unhandled exception in CHECK_EQUAL(test.m_details.lineNumber, reporter.lastFailedLine)"
 5038      6E646C65 
 5038      64206578 
 5038      63657074 
 5038      696F6E20 
 5039 043f 00       		.align 8
 5040              	.LC35:
 5041 0440 556E6861 		.string	"Unhandled exception in CHECK(strstr(reporter.lastFailedMessage, \"Global time constraint 
 5041      6E646C65 
 5041      64206578 
 5041      63657074 
 5041      696F6E20 
 5042 04a2 00000000 		.align 8
 5042      0000
 5043              	.LC36:
 5044 04a8 556E6861 		.string	"Unhandled exception in CHECK(strstr(reporter.lastFailedMessage, \"3ms\"))"
 5044      6E646C65 
 5044      64206578 
 5044      63657074 
 5044      696F6E20 
 5045              		.text
 5046 1c53 0F1F0066 		.p2align 4,,15
 5046      2E0F1F84 
 5046      00000000 
 5046      00
 5048              	_ZN8UnitTest11ExecuteTestIN12_GLOBAL__N_159TestRunnerFixtureSlowTestHasCorrectFailureInformationHel
 5049              	.LFB1420:
 5050              		.cfi_startproc
 5051              		.cfi_personality 0x9b,DW.ref.__gxx_personality_v0
 5052              		.cfi_lsda 0x1b,.LLSDA1420
 5053 1c60 4155     		pushq	%r13
 5054              		.cfi_def_cfa_offset 16
 5055              		.cfi_offset 13, -16
 5056 1c62 4154     		pushq	%r12
 5057              		.cfi_def_cfa_offset 24
 5058              		.cfi_offset 12, -24
 5059 1c64 55       		pushq	%rbp
 5060              		.cfi_def_cfa_offset 32
 5061              		.cfi_offset 6, -32
 5062 1c65 53       		pushq	%rbx
 5063              		.cfi_def_cfa_offset 40
 5064              		.cfi_offset 3, -40
 5065 1c66 4889F3   		movq	%rsi, %rbx
 5066 1c69 4881ECC8 		subq	$1992, %rsp
 5066      070000
 5067              		.cfi_def_cfa_offset 2032
 5068 1c70 48893C24 		movq	%rdi, (%rsp)
 5069 1c74 48897424 		movq	%rsi, 8(%rsp)
 5069      08
 5070 1c79 64488B04 		movq	%fs:40, %rax
 5070      25280000 
 5070      00
 5071 1c82 48898424 		movq	%rax, 1976(%rsp)
 5071      B8070000 
 5072 1c8a 31C0     		xorl	%eax, %eax
 5073              	.LEHB160:
 5074 1c8c E8000000 		call	_ZN8UnitTest11CurrentTest7DetailsEv@PLT
 5074      00
 5075              	.LEHE160:
 5076 1c91 488DBC24 		leaq	848(%rsp), %rdi
 5076      50030000 
 5077 1c99 488918   		movq	%rbx, (%rax)
 5078              	.LEHB161:
 5079 1c9c E8000000 		call	_ZN8UnitTest16SignalTranslatorC1Ev@PLT
 5079      00
 5080              	.LEHE161:
 5081 1ca1 488B3D00 		movq	_ZN8UnitTest16SignalTranslator12s_jumpTargetE(%rip), %rdi
 5081      000000
 5082 1ca8 BE010000 		movl	$1, %esi
 5082      00
 5083 1cad E8000000 		call	__sigsetjmp@PLT
 5083      00
 5084 1cb2 85C0     		testl	%eax, %eax
 5085 1cb4 742A     		je	.L448
 5086 1cb6 BF080000 		movl	$8, %edi
 5086      00
 5087 1cbb E8000000 		call	__cxa_allocate_exception@PLT
 5087      00
 5088 1cc0 488D0D00 		leaq	.LC3(%rip), %rcx
 5088      000000
 5089 1cc7 488D3500 		leaq	_ZTIPKc(%rip), %rsi
 5089      000000
 5090 1cce 31D2     		xorl	%edx, %edx
 5091 1cd0 4889C7   		movq	%rax, %rdi
 5092 1cd3 488908   		movq	%rcx, (%rax)
 5093              	.LEHB162:
 5094 1cd6 E8000000 		call	__cxa_throw@PLT
 5094      00
 5095 1cdb 0F1F4400 		.p2align 4,,10
 5095      00
 5096              		.p2align 3
 5097              	.L448:
 5098 1ce0 488DBC24 		leaq	368(%rsp), %rdi
 5098      70010000 
 5099 1ce8 488D0D00 		leaq	.LC4(%rip), %rcx
 5099      000000
 5100 1cef 488D1500 		leaq	.LC5(%rip), %rdx
 5100      000000
 5101 1cf6 488D3500 		leaq	.LC6(%rip), %rsi
 5101      000000
 5102 1cfd 41B87B00 		movl	$123, %r8d
 5102      0000
 5103 1d03 E8000000 		call	_ZN8UnitTest4TestC2EPKcS2_S2_i@PLT
 5103      00
 5104              	.LEHE162:
 5105 1d08 488B2C24 		movq	(%rsp), %rbp
 5106 1d0c 488D0500 		leaq	16+_ZTVN12_GLOBAL__N_18SlowTestE(%rip), %rax
 5106      000000
 5107 1d13 488DB424 		leaq	368(%rsp), %rsi
 5107      70010000 
 5108 1d1b 48898424 		movq	%rax, 368(%rsp)
 5108      70010000 
 5109 1d23 488D9D48 		leaq	2120(%rbp), %rbx
 5109      080000
 5110 1d2a 4889DF   		movq	%rbx, %rdi
 5111              	.LEHB163:
 5112 1d2d E8000000 		call	_ZN8UnitTest8TestList3AddEPNS_4TestE@PLT
 5112      00
 5113 1d32 E8000000 		call	_ZN8UnitTest11CurrentTest7ResultsEv@PLT
 5113      00
 5114 1d37 4C8B28   		movq	(%rax), %r13
 5115 1d3a E8000000 		call	_ZN8UnitTest11CurrentTest7DetailsEv@PLT
 5115      00
 5116 1d3f 4889DF   		movq	%rbx, %rdi
 5117 1d42 4C8B20   		movq	(%rax), %r12
 5118 1d45 E8000000 		call	_ZNK8UnitTest8TestList7GetHeadEv@PLT
 5118      00
 5119 1d4a 4885C0   		testq	%rax, %rax
 5120 1d4d 4889C3   		movq	%rax, %rbx
 5121 1d50 0F857F01 		jne	.L451
 5121      0000
 5122 1d56 662E0F1F 		.p2align 4,,10
 5122      84000000 
 5122      0000
 5123              		.p2align 3
 5124              	.L449:
 5125 1d60 488B1C24 		movq	(%rsp), %rbx
 5126 1d64 4889DF   		movq	%rbx, %rdi
 5127 1d67 E8000000 		call	_ZNK8UnitTest10TestRunner6FinishEv@PLT
 5127      00
 5128 1d6c E8000000 		call	_ZN8UnitTest11CurrentTest7ResultsEv@PLT
 5128      00
 5129 1d71 4C8928   		movq	%r13, (%rax)
 5130 1d74 E8000000 		call	_ZN8UnitTest11CurrentTest7DetailsEv@PLT
 5130      00
 5131              	.LEHE163:
 5132 1d79 4C8920   		movq	%r12, (%rax)
 5133              	.LEHB164:
 5134 1d7c E8000000 		call	_ZN8UnitTest11CurrentTest7DetailsEv@PLT
 5134      00
 5135 1d81 488B30   		movq	(%rax), %rsi
 5136 1d84 488DBC24 		leaq	336(%rsp), %rdi
 5136      50010000 
 5137 1d8c BAC50000 		movl	$197, %edx
 5137      00
 5138 1d91 E8000000 		call	_ZN8UnitTest11TestDetailsC1ERKS0_i@PLT
 5138      00
 5139 1d96 488DAB2C 		leaq	1068(%rbx), %rbp
 5139      040000
 5140 1d9d 488B9C24 		movq	384(%rsp), %rbx
 5140      80010000 
 5141 1da5 E8000000 		call	_ZN8UnitTest11CurrentTest7ResultsEv@PLT
 5141      00
 5142 1daa 488B38   		movq	(%rax), %rdi
 5143 1dad 488D8C24 		leaq	336(%rsp), %rcx
 5143      50010000 
 5144 1db5 4889EA   		movq	%rbp, %rdx
 5145 1db8 4889DE   		movq	%rbx, %rsi
 5146 1dbb E8000000 		call	_ZN8UnitTest10CheckEqualERNS_11TestResultsEPKcPcRKNS_11TestDetailsE@PLT
 5146      00
 5147              	.LEHE164:
 5148              	.L461:
 5149 1dc0 488B0424 		movq	(%rsp), %rax
 5150 1dc4 488BBC24 		movq	392(%rsp), %rdi
 5150      88010000 
 5151 1dcc 488DB028 		leaq	552(%rax), %rsi
 5151      020000
 5152 1dd3 E8000000 		call	strstr@PLT
 5152      00
 5153 1dd8 4885C0   		testq	%rax, %rax
 5154 1ddb 0F844F01 		je	.L509
 5154      0000
 5155              	.L454:
 5156              	.LEHB165:
 5157 1de1 E8000000 		call	_ZN8UnitTest11CurrentTest7DetailsEv@PLT
 5157      00
 5158 1de6 488B30   		movq	(%rax), %rsi
 5159 1de9 488DBC24 		leaq	208(%rsp), %rdi
 5159      D0000000 
 5160 1df1 BAC70000 		movl	$199, %edx
 5160      00
 5161 1df6 E8000000 		call	_ZN8UnitTest11TestDetailsC1ERKS0_i@PLT
 5161      00
 5162 1dfb 488B0424 		movq	(%rsp), %rax
 5163 1dff 488D9828 		leaq	808(%rax), %rbx
 5163      030000
 5164 1e06 E8000000 		call	_ZN8UnitTest11CurrentTest7ResultsEv@PLT
 5164      00
 5165 1e0b 488B38   		movq	(%rax), %rdi
 5166 1e0e 488D8C24 		leaq	208(%rsp), %rcx
 5166      D0000000 
 5167 1e16 488DB424 		leaq	400(%rsp), %rsi
 5167      90010000 
 5168 1e1e 4889DA   		movq	%rbx, %rdx
 5169 1e21 E8000000 		call	_ZN8UnitTest10CheckEqualIiiEEvRNS_11TestResultsERKT_RKT0_RKNS_11TestDetailsE
 5169      00
 5170              	.LEHE165:
 5171              	.L468:
 5172 1e26 488B1C24 		movq	(%rsp), %rbx
 5173 1e2a 488D3500 		leaq	.LC28(%rip), %rsi
 5173      000000
 5174 1e31 4881C32C 		addq	$1324, %rbx
 5174      050000
 5175 1e38 4889DF   		movq	%rbx, %rdi
 5176 1e3b E8000000 		call	strstr@PLT
 5176      00
 5177 1e40 4885C0   		testq	%rax, %rax
 5178 1e43 0F842701 		je	.L510
 5178      0000
 5179              	.L456:
 5180 1e49 488D3500 		leaq	.LC30(%rip), %rsi
 5180      000000
 5181 1e50 4889DF   		movq	%rbx, %rdi
 5182 1e53 E8000000 		call	strstr@PLT
 5182      00
 5183 1e58 4885C0   		testq	%rax, %rax
 5184 1e5b 0F848F00 		je	.L511
 5184      0000
 5185              	.L458:
 5186 1e61 488D0500 		leaq	16+_ZTVN12_GLOBAL__N_18SlowTestE(%rip), %rax
 5186      000000
 5187 1e68 488DBC24 		leaq	368(%rsp), %rdi
 5187      70010000 
 5188 1e70 48898424 		movq	%rax, 368(%rsp)
 5188      70010000 
 5189              	.LEHB166:
 5190 1e78 E8000000 		call	_ZN8UnitTest4TestD2Ev@PLT
 5190      00
 5191              	.LEHE166:
 5192 1e7d 488DBC24 		leaq	848(%rsp), %rdi
 5192      50030000 
 5193              	.LEHB167:
 5194 1e85 E8000000 		call	_ZN8UnitTest16SignalTranslatorD1Ev@PLT
 5194      00
 5195              	.LEHE167:
 5196              	.L446:
 5197 1e8a 488B8424 		movq	1976(%rsp), %rax
 5197      B8070000 
 5198 1e92 64483304 		xorq	%fs:40, %rax
 5198      25280000 
 5198      00
 5199 1e9b 0F85BD01 		jne	.L512
 5199      0000
 5200 1ea1 4881C4C8 		addq	$1992, %rsp
 5200      070000
 5201              		.cfi_remember_state
 5202              		.cfi_def_cfa_offset 40
 5203 1ea8 5B       		popq	%rbx
 5204              		.cfi_def_cfa_offset 32
 5205 1ea9 5D       		popq	%rbp
 5206              		.cfi_def_cfa_offset 24
 5207 1eaa 415C     		popq	%r12
 5208              		.cfi_def_cfa_offset 16
 5209 1eac 415D     		popq	%r13
 5210              		.cfi_def_cfa_offset 8
 5211 1eae C3       		ret
 5212 1eaf 90       		.p2align 4,,10
 5213              		.p2align 3
 5214              	.L450:
 5215              		.cfi_restore_state
 5216 1eb0 488B0424 		movq	(%rsp), %rax
 5217 1eb4 B9030000 		movl	$3, %ecx
 5217      00
 5218 1eb9 4889DA   		movq	%rbx, %rdx
 5219 1ebc 4889EF   		movq	%rbp, %rdi
 5220 1ebf 488B7008 		movq	8(%rax), %rsi
 5221              	.LEHB168:
 5222 1ec3 E8000000 		call	_ZNK8UnitTest10TestRunner7RunTestEPNS_11TestResultsEPNS_4TestEi@PLT
 5222      00
 5223              	.L452:
 5224 1ec8 488B5B28 		movq	40(%rbx), %rbx
 5225 1ecc 4885DB   		testq	%rbx, %rbx
 5226 1ecf 0F848BFE 		je	.L449
 5226      FFFF
 5227              	.L451:
 5228 1ed5 31D2     		xorl	%edx, %edx
 5229 1ed7 4889DE   		movq	%rbx, %rsi
 5230 1eda 4889EF   		movq	%rbp, %rdi
 5231 1edd E8000000 		call	_ZNK8UnitTest10TestRunner13IsTestInSuiteEPKNS_4TestEPKc@PLT
 5231      00
 5232              	.LEHE168:
 5233 1ee2 84C0     		testb	%al, %al
 5234 1ee4 74E2     		je	.L452
 5235 1ee6 EBC8     		jmp	.L450
 5236 1ee8 0F1F8400 		.p2align 4,,10
 5236      00000000 
 5237              		.p2align 3
 5238              	.L511:
 5239              	.LEHB169:
 5240 1ef0 E8000000 		call	_ZN8UnitTest11CurrentTest7ResultsEv@PLT
 5240      00
 5241 1ef5 488B18   		movq	(%rax), %rbx
 5242 1ef8 E8000000 		call	_ZN8UnitTest11CurrentTest7DetailsEv@PLT
 5242      00
 5243 1efd 488B30   		movq	(%rax), %rsi
 5244 1f00 488D7C24 		leaq	80(%rsp), %rdi
 5244      50
 5245 1f05 BACA0000 		movl	$202, %edx
 5245      00
 5246 1f0a E8000000 		call	_ZN8UnitTest11TestDetailsC1ERKS0_i@PLT
 5246      00
 5247 1f0f 488D7424 		leaq	80(%rsp), %rsi
 5247      50
 5248 1f14 488D1500 		leaq	.LC31(%rip), %rdx
 5248      000000
 5249 1f1b 4889DF   		movq	%rbx, %rdi
 5250 1f1e E8000000 		call	_ZN8UnitTest11TestResults13OnTestFailureERKNS_11TestDetailsEPKc@PLT
 5250      00
 5251              	.LEHE169:
 5252 1f23 E939FFFF 		jmp	.L458
 5252      FF
 5253 1f28 0F1F8400 		.p2align 4,,10
 5253      00000000 
 5254              		.p2align 3
 5255              	.L509:
 5256              	.LEHB170:
 5257 1f30 E8000000 		call	_ZN8UnitTest11CurrentTest7ResultsEv@PLT
 5257      00
 5258 1f35 488B18   		movq	(%rax), %rbx
 5259 1f38 E8000000 		call	_ZN8UnitTest11CurrentTest7DetailsEv@PLT
 5259      00
 5260 1f3d 488B30   		movq	(%rax), %rsi
 5261 1f40 488DBC24 		leaq	272(%rsp), %rdi
 5261      10010000 
 5262 1f48 BAC60000 		movl	$198, %edx
 5262      00
 5263 1f4d E8000000 		call	_ZN8UnitTest11TestDetailsC1ERKS0_i@PLT
 5263      00
 5264 1f52 488DB424 		leaq	272(%rsp), %rsi
 5264      10010000 
 5265 1f5a 488D1500 		leaq	.LC27(%rip), %rdx
 5265      000000
 5266 1f61 4889DF   		movq	%rbx, %rdi
 5267 1f64 E8000000 		call	_ZN8UnitTest11TestResults13OnTestFailureERKNS_11TestDetailsEPKc@PLT
 5267      00
 5268              	.LEHE170:
 5269 1f69 E973FEFF 		jmp	.L454
 5269      FF
 5270 1f6e 6690     		.p2align 4,,10
 5271              		.p2align 3
 5272              	.L510:
 5273              	.LEHB171:
 5274 1f70 E8000000 		call	_ZN8UnitTest11CurrentTest7ResultsEv@PLT
 5274      00
 5275 1f75 488B28   		movq	(%rax), %rbp
 5276 1f78 E8000000 		call	_ZN8UnitTest11CurrentTest7DetailsEv@PLT
 5276      00
 5277 1f7d 488B30   		movq	(%rax), %rsi
 5278 1f80 488DBC24 		leaq	144(%rsp), %rdi
 5278      90000000 
 5279 1f88 BAC90000 		movl	$201, %edx
 5279      00
 5280 1f8d E8000000 		call	_ZN8UnitTest11TestDetailsC1ERKS0_i@PLT
 5280      00
 5281 1f92 488DB424 		leaq	144(%rsp), %rsi
 5281      90000000 
 5282 1f9a 488D1500 		leaq	.LC29(%rip), %rdx
 5282      000000
 5283 1fa1 4889EF   		movq	%rbp, %rdi
 5284 1fa4 E8000000 		call	_ZN8UnitTest11TestResults13OnTestFailureERKNS_11TestDetailsEPKc@PLT
 5284      00
 5285              	.LEHE171:
 5286 1fa9 E99BFEFF 		jmp	.L456
 5286      FF
 5287              	.L489:
 5288 1fae 4889C3   		movq	%rax, %rbx
 5289 1fb1 4889D5   		movq	%rdx, %rbp
 5290              	.L476:
 5291 1fb4 488DBC24 		leaq	848(%rsp), %rdi
 5291      50030000 
 5292 1fbc E8000000 		call	_ZN8UnitTest16SignalTranslatorD1Ev@PLT
 5292      00
 5293 1fc1 4889DF   		movq	%rbx, %rdi
 5294 1fc4 4889EA   		movq	%rbp, %rdx
 5295              	.L477:
 5296 1fc7 4883FA01 		cmpq	$1, %rdx
 5297 1fcb 0F84AB02 		je	.L479
 5297      0000
 5298 1fd1 4883FA02 		cmpq	$2, %rdx
 5299 1fd5 0F857902 		jne	.L513
 5299      0000
 5300 1fdb E8000000 		call	__cxa_begin_catch@PLT
 5300      00
 5301 1fe0 488DBC24 		leaq	432(%rsp), %rdi
 5301      B0010000 
 5302 1fe8 4889C3   		movq	%rax, %rbx
 5303              	.LEHB172:
 5304 1feb E8000000 		call	_ZN8UnitTest15MemoryOutStreamC1Ev
 5304      00
 5305              	.LEHE172:
 5306 1ff0 488DBC24 		leaq	432(%rsp), %rdi
 5306      B0010000 
 5307 1ff8 488D3500 		leaq	.LC11(%rip), %rsi
 5307      000000
 5308 1fff BA150000 		movl	$21, %edx
 5308      00
 5309              	.LEHB173:
 5310 2004 E8000000 		call	_ZSt16__ostream_insertIcSt11char_traitsIcEERSt13basic_ostreamIT_T0_ES6_PKS3_l@PLT
 5310      00
 5311 2009 488B03   		movq	(%rbx), %rax
 5312 200c 4889DF   		movq	%rbx, %rdi
 5313 200f FF5010   		call	*16(%rax)
 5314 2012 488DBC24 		leaq	432(%rsp), %rdi
 5314      B0010000 
 5315 201a 4889C6   		movq	%rax, %rsi
 5316 201d E8000000 		call	_ZStlsISt11char_traitsIcEERSt13basic_ostreamIcT_ES5_PKc@PLT
 5316      00
 5317 2022 E8000000 		call	_ZN8UnitTest11CurrentTest7ResultsEv@PLT
 5317      00
 5318 2027 488DBC24 		leaq	432(%rsp), %rdi
 5318      B0010000 
 5319 202f 488B18   		movq	(%rax), %rbx
 5320 2032 E8000000 		call	_ZNK8UnitTest15MemoryOutStream7GetTextEv@PLT
 5320      00
 5321 2037 488B7424 		movq	8(%rsp), %rsi
 5321      08
 5322 203c 4889C2   		movq	%rax, %rdx
 5323 203f 4889DF   		movq	%rbx, %rdi
 5324 2042 E8000000 		call	_ZN8UnitTest11TestResults13OnTestFailureERKNS_11TestDetailsEPKc@PLT
 5324      00
 5325              	.LEHE173:
 5326 2047 488DBC24 		leaq	432(%rsp), %rdi
 5326      B0010000 
 5327              	.LEHB174:
 5328 204f E8000000 		call	_ZN8UnitTest15MemoryOutStreamD1Ev
 5328      00
 5329              	.LEHE174:
 5330              	.L507:
 5331 2054 E8000000 		call	__cxa_end_catch@PLT
 5331      00
 5332 2059 E92CFEFF 		jmp	.L446
 5332      FF
 5333              	.L512:
 5334 205e E8000000 		call	__stack_chk_fail@PLT
 5334      00
 5335              	.L498:
 5336 2063 4889C7   		movq	%rax, %rdi
 5337 2066 E8000000 		call	__cxa_begin_catch@PLT
 5337      00
 5338              	.LEHB175:
 5339 206b E8000000 		call	_ZN8UnitTest11CurrentTest7ResultsEv@PLT
 5339      00
 5340 2070 488B28   		movq	(%rax), %rbp
 5341 2073 E8000000 		call	_ZN8UnitTest11CurrentTest7DetailsEv@PLT
 5341      00
 5342 2078 488B30   		movq	(%rax), %rsi
 5343 207b 488D7C24 		leaq	112(%rsp), %rdi
 5343      70
 5344 2080 BAC90000 		movl	$201, %edx
 5344      00
 5345 2085 E8000000 		call	_ZN8UnitTest11TestDetailsC1ERKS0_i@PLT
 5345      00
 5346 208a 488D7424 		leaq	112(%rsp), %rsi
 5346      70
 5347 208f 488D1500 		leaq	.LC35(%rip), %rdx
 5347      000000
 5348 2096 4889EF   		movq	%rbp, %rdi
 5349 2099 E8000000 		call	_ZN8UnitTest11TestResults13OnTestFailureERKNS_11TestDetailsEPKc@PLT
 5349      00
 5350              	.LEHE175:
 5351              	.LEHB176:
 5352 209e E8000000 		call	__cxa_end_catch@PLT
 5352      00
 5353              	.LEHE176:
 5354 20a3 E9A1FDFF 		jmp	.L456
 5354      FF
 5355              	.L502:
 5356 20a8 4889C7   		movq	%rax, %rdi
 5357 20ab E8000000 		call	__cxa_begin_catch@PLT
 5357      00
 5358              	.LEHB177:
 5359 20b0 E8000000 		call	_ZN8UnitTest11CurrentTest7ResultsEv@PLT
 5359      00
 5360 20b5 488B18   		movq	(%rax), %rbx
 5361 20b8 E8000000 		call	_ZN8UnitTest11CurrentTest7DetailsEv@PLT
 5361      00
 5362 20bd 488B30   		movq	(%rax), %rsi
 5363 20c0 488DBC24 		leaq	240(%rsp), %rdi
 5363      F0000000 
 5364 20c8 BAC60000 		movl	$198, %edx
 5364      00
 5365 20cd E8000000 		call	_ZN8UnitTest11TestDetailsC1ERKS0_i@PLT
 5365      00
 5366 20d2 488DB424 		leaq	240(%rsp), %rsi
 5366      F0000000 
 5367 20da 488D1500 		leaq	.LC33(%rip), %rdx
 5367      000000
 5368 20e1 4889DF   		movq	%rbx, %rdi
 5369 20e4 E8000000 		call	_ZN8UnitTest11TestResults13OnTestFailureERKNS_11TestDetailsEPKc@PLT
 5369      00
 5370              	.LEHE177:
 5371              	.LEHB178:
 5372 20e9 E8000000 		call	__cxa_end_catch@PLT
 5372      00
 5373              	.LEHE178:
 5374 20ee E9EEFCFF 		jmp	.L454
 5374      FF
 5375              	.L496:
 5376 20f3 4889C7   		movq	%rax, %rdi
 5377 20f6 E8000000 		call	__cxa_begin_catch@PLT
 5377      00
 5378              	.LEHB179:
 5379 20fb E8000000 		call	_ZN8UnitTest11CurrentTest7ResultsEv@PLT
 5379      00
 5380 2100 488B18   		movq	(%rax), %rbx
 5381 2103 E8000000 		call	_ZN8UnitTest11CurrentTest7DetailsEv@PLT
 5381      00
 5382 2108 488B30   		movq	(%rax), %rsi
 5383 210b 488D7C24 		leaq	48(%rsp), %rdi
 5383      30
 5384 2110 BACA0000 		movl	$202, %edx
 5384      00
 5385 2115 E8000000 		call	_ZN8UnitTest11TestDetailsC1ERKS0_i@PLT
 5385      00
 5386 211a 488D7424 		leaq	48(%rsp), %rsi
 5386      30
 5387 211f 488D1500 		leaq	.LC36(%rip), %rdx
 5387      000000
 5388 2126 4889DF   		movq	%rbx, %rdi
 5389 2129 E8000000 		call	_ZN8UnitTest11TestResults13OnTestFailureERKNS_11TestDetailsEPKc@PLT
 5389      00
 5390              	.LEHE179:
 5391              	.LEHB180:
 5392 212e E8000000 		call	__cxa_end_catch@PLT
 5392      00
 5393              	.LEHE180:
 5394 2133 E929FDFF 		jmp	.L458
 5394      FF
 5395              	.L497:
 5396 2138 4889C3   		movq	%rax, %rbx
 5397 213b 4889D5   		movq	%rdx, %rbp
 5398 213e E8000000 		call	__cxa_end_catch@PLT
 5398      00
 5399              	.L463:
 5400 2143 488D0500 		leaq	16+_ZTVN12_GLOBAL__N_18SlowTestE(%rip), %rax
 5400      000000
 5401 214a 488DBC24 		leaq	368(%rsp), %rdi
 5401      70010000 
 5402 2152 48898424 		movq	%rax, 368(%rsp)
 5402      70010000 
 5403 215a E8000000 		call	_ZN8UnitTest4TestD2Ev@PLT
 5403      00
 5404 215f E950FEFF 		jmp	.L476
 5404      FF
 5405              	.L501:
 5406 2164 4889C3   		movq	%rax, %rbx
 5407 2167 4889D5   		movq	%rdx, %rbp
 5408 216a E8000000 		call	__cxa_end_catch@PLT
 5408      00
 5409 216f EBD2     		jmp	.L463
 5410              	.L495:
 5411 2171 4889C3   		movq	%rax, %rbx
 5412 2174 4889D5   		movq	%rdx, %rbp
 5413 2177 E8000000 		call	__cxa_end_catch@PLT
 5413      00
 5414 217c EBC5     		jmp	.L463
 5415              	.L500:
 5416 217e 4889C7   		movq	%rax, %rdi
 5417 2181 E8000000 		call	__cxa_begin_catch@PLT
 5417      00
 5418              	.LEHB181:
 5419 2186 E8000000 		call	_ZN8UnitTest11CurrentTest7ResultsEv@PLT
 5419      00
 5420 218b 488B18   		movq	(%rax), %rbx
 5421 218e E8000000 		call	_ZN8UnitTest11CurrentTest7DetailsEv@PLT
 5421      00
 5422 2193 488B30   		movq	(%rax), %rsi
 5423 2196 488DBC24 		leaq	176(%rsp), %rdi
 5423      B0000000 
 5424 219e BAC70000 		movl	$199, %edx
 5424      00
 5425 21a3 E8000000 		call	_ZN8UnitTest11TestDetailsC1ERKS0_i@PLT
 5425      00
 5426 21a8 488DB424 		leaq	176(%rsp), %rsi
 5426      B0000000 
 5427 21b0 488D1500 		leaq	.LC34(%rip), %rdx
 5427      000000
 5428 21b7 4889DF   		movq	%rbx, %rdi
 5429 21ba E8000000 		call	_ZN8UnitTest11TestResults13OnTestFailureERKNS_11TestDetailsEPKc@PLT
 5429      00
 5430              	.LEHE181:
 5431              	.LEHB182:
 5432 21bf E8000000 		call	__cxa_end_catch@PLT
 5432      00
 5433              	.LEHE182:
 5434 21c4 E95DFCFF 		jmp	.L468
 5434      FF
 5435              	.L488:
 5436 21c9 4889C7   		movq	%rax, %rdi
 5437 21cc E9F6FDFF 		jmp	.L477
 5437      FF
 5438              	.L499:
 5439 21d1 4889C3   		movq	%rax, %rbx
 5440 21d4 4889D5   		movq	%rdx, %rbp
 5441 21d7 E8000000 		call	__cxa_end_catch@PLT
 5441      00
 5442 21dc E962FFFF 		jmp	.L463
 5442      FF
 5443              	.L494:
 5444 21e1 4889C3   		movq	%rax, %rbx
 5445 21e4 4889D5   		movq	%rdx, %rbp
 5446 21e7 E957FFFF 		jmp	.L463
 5446      FF
 5447              	.L504:
 5448 21ec 4889C7   		movq	%rax, %rdi
 5449 21ef E8000000 		call	__cxa_begin_catch@PLT
 5449      00
 5450              	.LEHB183:
 5451 21f4 E8000000 		call	_ZN8UnitTest11CurrentTest7ResultsEv@PLT
 5451      00
 5452 21f9 488B18   		movq	(%rax), %rbx
 5453 21fc E8000000 		call	_ZN8UnitTest11CurrentTest7DetailsEv@PLT
 5453      00
 5454 2201 488B30   		movq	(%rax), %rsi
 5455 2204 488DBC24 		leaq	304(%rsp), %rdi
 5455      30010000 
 5456 220c BAC50000 		movl	$197, %edx
 5456      00
 5457 2211 E8000000 		call	_ZN8UnitTest11TestDetailsC1ERKS0_i@PLT
 5457      00
 5458 2216 488DB424 		leaq	304(%rsp), %rsi
 5458      30010000 
 5459 221e 488D1500 		leaq	.LC32(%rip), %rdx
 5459      000000
 5460 2225 4889DF   		movq	%rbx, %rdi
 5461 2228 E8000000 		call	_ZN8UnitTest11TestResults13OnTestFailureERKNS_11TestDetailsEPKc@PLT
 5461      00
 5462              	.LEHE183:
 5463              	.LEHB184:
 5464 222d E8000000 		call	__cxa_end_catch@PLT
 5464      00
 5465              	.LEHE184:
 5466 2232 E989FBFF 		jmp	.L461
 5466      FF
 5467              	.L492:
 5468 2237 488DBC24 		leaq	432(%rsp), %rdi
 5468      B0010000 
 5469 223f 4889C3   		movq	%rax, %rbx
 5470 2242 E8000000 		call	_ZN8UnitTest15MemoryOutStreamD1Ev
 5470      00
 5471              	.L485:
 5472 2247 E8000000 		call	__cxa_end_catch@PLT
 5472      00
 5473 224c 4889DF   		movq	%rbx, %rdi
 5474              	.LEHB185:
 5475 224f E8000000 		call	_Unwind_Resume@PLT
 5475      00
 5476              	.LEHE185:
 5477              	.L513:
 5478 2254 E8000000 		call	__cxa_begin_catch@PLT
 5478      00
 5479              	.LEHB186:
 5480 2259 E8000000 		call	_ZN8UnitTest11CurrentTest7ResultsEv@PLT
 5480      00
 5481 225e 488B7424 		movq	8(%rsp), %rsi
 5481      08
 5482 2263 488B38   		movq	(%rax), %rdi
 5483 2266 488D1500 		leaq	.LC12(%rip), %rdx
 5483      000000
 5484 226d E8000000 		call	_ZN8UnitTest11TestResults13OnTestFailureERKNS_11TestDetailsEPKc@PLT
 5484      00
 5485              	.LEHE186:
 5486              	.LEHB187:
 5487 2272 E8000000 		call	__cxa_end_catch@PLT
 5487      00
 5488              	.LEHE187:
 5489 2277 E90EFCFF 		jmp	.L446
 5489      FF
 5490              	.L479:
 5491 227c E8000000 		call	__cxa_begin_catch@PLT
 5491      00
 5492 2281 4889C3   		movq	%rax, %rbx
 5493              	.LEHB188:
 5494 2284 E8000000 		call	_ZN8UnitTest11CurrentTest7ResultsEv@PLT
 5494      00
 5495 2289 488B28   		movq	(%rax), %rbp
 5496 228c 488B03   		movq	(%rbx), %rax
 5497 228f 4889DF   		movq	%rbx, %rdi
 5498 2292 FF5010   		call	*16(%rax)
 5499 2295 4889DF   		movq	%rbx, %rdi
 5500 2298 4989C4   		movq	%rax, %r12
 5501 229b E8000000 		call	_ZNK8UnitTest15AssertException10LineNumberEv@PLT
 5501      00
 5502 22a0 4889DF   		movq	%rbx, %rdi
 5503 22a3 4189C5   		movl	%eax, %r13d
 5504 22a6 E8000000 		call	_ZNK8UnitTest15AssertException8FilenameEv@PLT
 5504      00
 5505 22ab 488B5424 		movq	8(%rsp), %rdx
 5505      08
 5506 22b0 488D7C24 		leaq	16(%rsp), %rdi
 5506      10
 5507 22b5 4589E8   		movl	%r13d, %r8d
 5508 22b8 4889C1   		movq	%rax, %rcx
 5509 22bb 488B7208 		movq	8(%rdx), %rsi
 5510 22bf 488B12   		movq	(%rdx), %rdx
 5511 22c2 E8000000 		call	_ZN8UnitTest11TestDetailsC1EPKcS2_S2_i@PLT
 5511      00
 5512 22c7 488D7424 		leaq	16(%rsp), %rsi
 5512      10
 5513 22cc 4C89E2   		movq	%r12, %rdx
 5514 22cf 4889EF   		movq	%rbp, %rdi
 5515 22d2 E8000000 		call	_ZN8UnitTest11TestResults13OnTestFailureERKNS_11TestDetailsEPKc@PLT
 5515      00
 5516              	.LEHE188:
 5517 22d7 E978FDFF 		jmp	.L507
 5517      FF
 5518              	.L493:
 5519 22dc 4889C3   		movq	%rax, %rbx
 5520 22df E8000000 		call	__cxa_end_catch@PLT
 5520      00
 5521 22e4 4889DF   		movq	%rbx, %rdi
 5522              	.LEHB189:
 5523 22e7 E8000000 		call	_Unwind_Resume@PLT
 5523      00
 5524              	.LEHE189:
 5525              	.L490:
 5526              	.L508:
 5527 22ec 4889C3   		movq	%rax, %rbx
 5528 22ef E953FFFF 		jmp	.L485
 5528      FF
 5529              	.L491:
 5530 22f4 EBF6     		jmp	.L508
 5531              	.L503:
 5532 22f6 4889C3   		movq	%rax, %rbx
 5533 22f9 4889D5   		movq	%rdx, %rbp
 5534 22fc E8000000 		call	__cxa_end_catch@PLT
 5534      00
 5535 2301 E93DFEFF 		jmp	.L463
 5535      FF
 5536              		.cfi_endproc
 5537              	.LFE1420:
 5538              		.section	.gcc_except_table
 5539              		.align 4
 5540              	.LLSDA1420:
 5541 0448 FF       		.byte	0xff
 5542 0449 9B       		.byte	0x9b
 5543 044a C401     		.uleb128 .LLSDATT1420-.LLSDATTD1420
 5544              	.LLSDATTD1420:
 5545 044c 01       		.byte	0x1
 5546 044d AD01     		.uleb128 .LLSDACSE1420-.LLSDACSB1420
 5547              	.LLSDACSB1420:
 5548 044f 2C       		.uleb128 .LEHB160-.LFB1420
 5549 0450 05       		.uleb128 .LEHE160-.LEHB160
 5550 0451 00       		.uleb128 0
 5551 0452 00       		.uleb128 0
 5552 0453 3C       		.uleb128 .LEHB161-.LFB1420
 5553 0454 05       		.uleb128 .LEHE161-.LEHB161
 5554 0455 E90A     		.uleb128 .L488-.LFB1420
 5555 0457 05       		.uleb128 0x5
 5556 0458 76       		.uleb128 .LEHB162-.LFB1420
 5557 0459 32       		.uleb128 .LEHE162-.LEHB162
 5558 045a CE06     		.uleb128 .L489-.LFB1420
 5559 045c 07       		.uleb128 0x7
 5560 045d CD01     		.uleb128 .LEHB163-.LFB1420
 5561 045f 4C       		.uleb128 .LEHE163-.LEHB163
 5562 0460 810B     		.uleb128 .L494-.LFB1420
 5563 0462 07       		.uleb128 0x7
 5564 0463 9C02     		.uleb128 .LEHB164-.LFB1420
 5565 0465 44       		.uleb128 .LEHE164-.LEHB164
 5566 0466 8C0B     		.uleb128 .L504-.LFB1420
 5567 0468 01       		.uleb128 0x1
 5568 0469 8103     		.uleb128 .LEHB165-.LFB1420
 5569 046b 45       		.uleb128 .LEHE165-.LEHB165
 5570 046c 9E0A     		.uleb128 .L500-.LFB1420
 5571 046e 01       		.uleb128 0x1
 5572 046f 9804     		.uleb128 .LEHB166-.LFB1420
 5573 0471 05       		.uleb128 .LEHE166-.LEHB166
 5574 0472 CE06     		.uleb128 .L489-.LFB1420
 5575 0474 07       		.uleb128 0x7
 5576 0475 A504     		.uleb128 .LEHB167-.LFB1420
 5577 0477 05       		.uleb128 .LEHE167-.LEHB167
 5578 0478 E90A     		.uleb128 .L488-.LFB1420
 5579 047a 05       		.uleb128 0x5
 5580 047b E304     		.uleb128 .LEHB168-.LFB1420
 5581 047d 1F       		.uleb128 .LEHE168-.LEHB168
 5582 047e 810B     		.uleb128 .L494-.LFB1420
 5583 0480 07       		.uleb128 0x7
 5584 0481 9005     		.uleb128 .LEHB169-.LFB1420
 5585 0483 33       		.uleb128 .LEHE169-.LEHB169
 5586 0484 9309     		.uleb128 .L496-.LFB1420
 5587 0486 01       		.uleb128 0x1
 5588 0487 D005     		.uleb128 .LEHB170-.LFB1420
 5589 0489 39       		.uleb128 .LEHE170-.LEHB170
 5590 048a C808     		.uleb128 .L502-.LFB1420
 5591 048c 01       		.uleb128 0x1
 5592 048d 9006     		.uleb128 .LEHB171-.LFB1420
 5593 048f 39       		.uleb128 .LEHE171-.LEHB171
 5594 0490 8308     		.uleb128 .L498-.LFB1420
 5595 0492 01       		.uleb128 0x1
 5596 0493 8B07     		.uleb128 .LEHB172-.LFB1420
 5597 0495 05       		.uleb128 .LEHE172-.LEHB172
 5598 0496 940D     		.uleb128 .L491-.LFB1420
 5599 0498 00       		.uleb128 0
 5600 0499 A407     		.uleb128 .LEHB173-.LFB1420
 5601 049b 43       		.uleb128 .LEHE173-.LEHB173
 5602 049c D70B     		.uleb128 .L492-.LFB1420
 5603 049e 00       		.uleb128 0
 5604 049f EF07     		.uleb128 .LEHB174-.LFB1420
 5605 04a1 05       		.uleb128 .LEHE174-.LEHB174
 5606 04a2 940D     		.uleb128 .L491-.LFB1420
 5607 04a4 00       		.uleb128 0
 5608 04a5 8B08     		.uleb128 .LEHB175-.LFB1420
 5609 04a7 33       		.uleb128 .LEHE175-.LEHB175
 5610 04a8 D809     		.uleb128 .L497-.LFB1420
 5611 04aa 07       		.uleb128 0x7
 5612 04ab BE08     		.uleb128 .LEHB176-.LFB1420
 5613 04ad 05       		.uleb128 .LEHE176-.LEHB176
 5614 04ae 810B     		.uleb128 .L494-.LFB1420
 5615 04b0 07       		.uleb128 0x7
 5616 04b1 D008     		.uleb128 .LEHB177-.LFB1420
 5617 04b3 39       		.uleb128 .LEHE177-.LEHB177
 5618 04b4 840A     		.uleb128 .L501-.LFB1420
 5619 04b6 07       		.uleb128 0x7
 5620 04b7 8909     		.uleb128 .LEHB178-.LFB1420
 5621 04b9 05       		.uleb128 .LEHE178-.LEHB178
 5622 04ba 810B     		.uleb128 .L494-.LFB1420
 5623 04bc 07       		.uleb128 0x7
 5624 04bd 9B09     		.uleb128 .LEHB179-.LFB1420
 5625 04bf 33       		.uleb128 .LEHE179-.LEHB179
 5626 04c0 910A     		.uleb128 .L495-.LFB1420
 5627 04c2 07       		.uleb128 0x7
 5628 04c3 CE09     		.uleb128 .LEHB180-.LFB1420
 5629 04c5 05       		.uleb128 .LEHE180-.LEHB180
 5630 04c6 810B     		.uleb128 .L494-.LFB1420
 5631 04c8 07       		.uleb128 0x7
 5632 04c9 A60A     		.uleb128 .LEHB181-.LFB1420
 5633 04cb 39       		.uleb128 .LEHE181-.LEHB181
 5634 04cc F10A     		.uleb128 .L499-.LFB1420
 5635 04ce 07       		.uleb128 0x7
 5636 04cf DF0A     		.uleb128 .LEHB182-.LFB1420
 5637 04d1 05       		.uleb128 .LEHE182-.LEHB182
 5638 04d2 810B     		.uleb128 .L494-.LFB1420
 5639 04d4 07       		.uleb128 0x7
 5640 04d5 940B     		.uleb128 .LEHB183-.LFB1420
 5641 04d7 39       		.uleb128 .LEHE183-.LEHB183
 5642 04d8 960D     		.uleb128 .L503-.LFB1420
 5643 04da 07       		.uleb128 0x7
 5644 04db CD0B     		.uleb128 .LEHB184-.LFB1420
 5645 04dd 05       		.uleb128 .LEHE184-.LEHB184
 5646 04de 810B     		.uleb128 .L494-.LFB1420
 5647 04e0 07       		.uleb128 0x7
 5648 04e1 EF0B     		.uleb128 .LEHB185-.LFB1420
 5649 04e3 05       		.uleb128 .LEHE185-.LEHB185
 5650 04e4 00       		.uleb128 0
 5651 04e5 00       		.uleb128 0
 5652 04e6 F90B     		.uleb128 .LEHB186-.LFB1420
 5653 04e8 19       		.uleb128 .LEHE186-.LEHB186
 5654 04e9 FC0C     		.uleb128 .L493-.LFB1420
 5655 04eb 00       		.uleb128 0
 5656 04ec 920C     		.uleb128 .LEHB187-.LFB1420
 5657 04ee 05       		.uleb128 .LEHE187-.LEHB187
 5658 04ef 00       		.uleb128 0
 5659 04f0 00       		.uleb128 0
 5660 04f1 A40C     		.uleb128 .LEHB188-.LFB1420
 5661 04f3 53       		.uleb128 .LEHE188-.LEHB188
 5662 04f4 8C0D     		.uleb128 .L490-.LFB1420
 5663 04f6 00       		.uleb128 0
 5664 04f7 870D     		.uleb128 .LEHB189-.LFB1420
 5665 04f9 05       		.uleb128 .LEHE189-.LEHB189
 5666 04fa 00       		.uleb128 0
 5667 04fb 00       		.uleb128 0
 5668              	.LLSDACSE1420:
 5669 04fc 03       		.byte	0x3
 5670 04fd 00       		.byte	0
 5671 04fe 02       		.byte	0x2
 5672 04ff 7D       		.byte	0x7d
 5673 0500 01       		.byte	0x1
 5674 0501 7D       		.byte	0x7d
 5675 0502 00       		.byte	0
 5676 0503 7D       		.byte	0x7d
 5677              		.align 4
 5678 0504 00000000 		.long	0
 5679              	
 5680 0508 00000000 		.long	DW.ref._ZTISt9exception-.
 5681 050c 00000000 		.long	DW.ref._ZTIN8UnitTest15AssertExceptionE-.
 5682              	.LLSDATT1420:
 5683              		.text
 5685              		.align 2
 5686 2306 662E0F1F 		.p2align 4,,15
 5686      84000000 
 5686      0000
 5688              	_ZNK12_GLOBAL__N_157TestTestRunnerFixtureSlowTestHasCorrectFailureInformation7RunImplEv:
 5689              	.LFB1300:
 5690              		.cfi_startproc
 5691              		.cfi_personality 0x9b,DW.ref.__gxx_personality_v0
 5692              		.cfi_lsda 0x1b,.LLSDA1300
 5693 2310 4156     		pushq	%r14
 5694              		.cfi_def_cfa_offset 16
 5695              		.cfi_offset 14, -16
 5696 2312 4155     		pushq	%r13
 5697              		.cfi_def_cfa_offset 24
 5698              		.cfi_offset 13, -24
 5699 2314 4989FD   		movq	%rdi, %r13
 5700 2317 4154     		pushq	%r12
 5701              		.cfi_def_cfa_offset 32
 5702              		.cfi_offset 12, -32
 5703 2319 55       		pushq	%rbp
 5704              		.cfi_def_cfa_offset 40
 5705              		.cfi_offset 6, -40
 5706 231a 488D6F08 		leaq	8(%rdi), %rbp
 5707 231e 53       		pushq	%rbx
 5708              		.cfi_def_cfa_offset 48
 5709              		.cfi_offset 3, -48
 5710 231f 4881EC90 		subq	$2192, %rsp
 5710      080000
 5711              		.cfi_def_cfa_offset 2240
 5712 2326 488D5C24 		leaq	32(%rsp), %rbx
 5712      20
 5713 232b 64488B04 		movq	%fs:40, %rax
 5713      25280000 
 5713      00
 5714 2334 48898424 		movq	%rax, 2184(%rsp)
 5714      88080000 
 5715 233c 31C0     		xorl	%eax, %eax
 5716 233e 488D7318 		leaq	24(%rbx), %rsi
 5717 2342 4889DF   		movq	%rbx, %rdi
 5718              	.LEHB190:
 5719 2345 E8000000 		call	_ZN8UnitTest10TestRunnerC1ERNS_12TestReporterE@PLT
 5719      00
 5720              	.LEHE190:
 5721 234a 4C8D2500 		leaq	16+_ZTV17RecordingReporter(%rip), %r12
 5721      000000
 5722 2351 488DBB48 		leaq	2120(%rbx), %rdi
 5722      080000
 5723 2358 C7442440 		movl	$0, 64(%rsp)
 5723      00000000 
 5724 2360 C7842444 		movl	$0, 580(%rsp)
 5724      02000000 
 5724      000000
 5725 236b C7842448 		movl	$0, 840(%rsp)
 5725      03000000 
 5725      000000
 5726 2376 4C896424 		movq	%r12, 56(%rsp)
 5726      38
 5727 237b C784244C 		movl	$0, 1612(%rsp)
 5727      06000000 
 5727      000000
 5728 2386 48C78424 		movq	$0, 2128(%rsp)
 5728      50080000 
 5728      00000000 
 5729 2392 48C78424 		movq	$0, 2136(%rsp)
 5729      58080000 
 5729      00000000 
 5730 239e C7842460 		movl	$0, 2144(%rsp)
 5730      08000000 
 5730      000000
 5731 23a9 C6442444 		movb	$0, 68(%rsp)
 5731      00
 5732 23ae C6842444 		movb	$0, 324(%rsp)
 5732      01000000 
 5733 23b6 C6842448 		movb	$0, 584(%rsp)
 5733      02000000 
 5734 23be C684244C 		movb	$0, 844(%rsp)
 5734      03000000 
 5735 23c6 C684244C 		movb	$0, 1100(%rsp)
 5735      04000000 
 5736 23ce C684244C 		movb	$0, 1356(%rsp)
 5736      05000000 
 5737 23d6 C6842450 		movb	$0, 1616(%rsp)
 5737      06000000 
 5738 23de C6842450 		movb	$0, 1872(%rsp)
 5738      07000000 
 5739              	.LEHB191:
 5740 23e6 E8000000 		call	_ZN8UnitTest8TestListC1Ev@PLT
 5740      00
 5741              	.LEHE191:
 5742 23eb 4889EE   		movq	%rbp, %rsi
 5743 23ee 4889DF   		movq	%rbx, %rdi
 5744 23f1 4889AC24 		movq	%rbp, 2168(%rsp)
 5744      78080000 
 5745              	.LEHB192:
 5746 23f9 E862F8FF 		call	_ZN8UnitTest11ExecuteTestIN12_GLOBAL__N_159TestRunnerFixtureSlowTestHasCorrectFailureInformat
 5746      FF
 5747              	.LEHE192:
 5748 23fe 488D7B18 		leaq	24(%rbx), %rdi
 5749 2402 4C896424 		movq	%r12, 56(%rsp)
 5749      38
 5750              	.LEHB193:
 5751 2407 E8000000 		call	_ZN8UnitTest12TestReporterD2Ev@PLT
 5751      00
 5752              	.LEHE193:
 5753 240c 4889DF   		movq	%rbx, %rdi
 5754              	.LEHB194:
 5755 240f E8000000 		call	_ZN8UnitTest10TestRunnerD1Ev@PLT
 5755      00
 5756              	.LEHE194:
 5757              	.L514:
 5758 2414 488B8424 		movq	2184(%rsp), %rax
 5758      88080000 
 5759 241c 64483304 		xorq	%fs:40, %rax
 5759      25280000 
 5759      00
 5760 2425 7510     		jne	.L562
 5761 2427 4881C490 		addq	$2192, %rsp
 5761      080000
 5762              		.cfi_remember_state
 5763              		.cfi_def_cfa_offset 48
 5764 242e 5B       		popq	%rbx
 5765              		.cfi_def_cfa_offset 40
 5766 242f 5D       		popq	%rbp
 5767              		.cfi_def_cfa_offset 32
 5768 2430 415C     		popq	%r12
 5769              		.cfi_def_cfa_offset 24
 5770 2432 415D     		popq	%r13
 5771              		.cfi_def_cfa_offset 16
 5772 2434 415E     		popq	%r14
 5773              		.cfi_def_cfa_offset 8
 5774 2436 C3       		ret
 5775              	.L562:
 5776              		.cfi_restore_state
 5777 2437 E8000000 		call	__stack_chk_fail@PLT
 5777      00
 5778              	.L534:
 5779 243c 4889C7   		movq	%rax, %rdi
 5780              	.L520:
 5781 243f 4883FA01 		cmpq	$1, %rdx
 5782 2443 0F846F01 		je	.L522
 5782      0000
 5783 2449 4883FA02 		cmpq	$2, %rdx
 5784 244d 0F853101 		jne	.L563
 5784      0000
 5785              	.L523:
 5786 2453 E8000000 		call	__cxa_begin_catch@PLT
 5786      00
 5787 2458 4889DF   		movq	%rbx, %rdi
 5788 245b 4989C4   		movq	%rax, %r12
 5789              	.LEHB195:
 5790 245e E8000000 		call	_ZN8UnitTest15MemoryOutStreamC1Ev
 5790      00
 5791              	.LEHE195:
 5792 2463 488D3500 		leaq	.LC11(%rip), %rsi
 5792      000000
 5793 246a BA150000 		movl	$21, %edx
 5793      00
 5794 246f 4889DF   		movq	%rbx, %rdi
 5795              	.LEHB196:
 5796 2472 E8000000 		call	_ZSt16__ostream_insertIcSt11char_traitsIcEERSt13basic_ostreamIT_T0_ES6_PKS3_l@PLT
 5796      00
 5797 2477 498B0424 		movq	(%r12), %rax
 5798 247b 4C89E7   		movq	%r12, %rdi
 5799 247e FF5010   		call	*16(%rax)
 5800 2481 4889DF   		movq	%rbx, %rdi
 5801 2484 4889C6   		movq	%rax, %rsi
 5802 2487 E8000000 		call	_ZStlsISt11char_traitsIcEERSt13basic_ostreamIcT_ES5_PKc@PLT
 5802      00
 5803 248c E8000000 		call	_ZN8UnitTest11CurrentTest7ResultsEv@PLT
 5803      00
 5804 2491 4889DF   		movq	%rbx, %rdi
 5805 2494 4C8B20   		movq	(%rax), %r12
 5806 2497 E8000000 		call	_ZNK8UnitTest15MemoryOutStream7GetTextEv@PLT
 5806      00
 5807 249c 4889C2   		movq	%rax, %rdx
 5808 249f 4889EE   		movq	%rbp, %rsi
 5809 24a2 4C89E7   		movq	%r12, %rdi
 5810 24a5 E8000000 		call	_ZN8UnitTest11TestResults13OnTestFailureERKNS_11TestDetailsEPKc@PLT
 5810      00
 5811              	.LEHE196:
 5812 24aa 4889DF   		movq	%rbx, %rdi
 5813              	.LEHB197:
 5814 24ad E8000000 		call	_ZN8UnitTest15MemoryOutStreamD1Ev
 5814      00
 5815              	.LEHE197:
 5816              	.L561:
 5817 24b2 E8000000 		call	__cxa_end_catch@PLT
 5817      00
 5818 24b7 E958FFFF 		jmp	.L514
 5818      FF
 5819              	.L541:
 5820 24bc 4989C4   		movq	%rax, %r12
 5821 24bf 4989D6   		movq	%rdx, %r14
 5822 24c2 4889DF   		movq	%rbx, %rdi
 5823 24c5 E8000000 		call	_ZN8UnitTest10TestRunnerD1Ev@PLT
 5823      00
 5824 24ca 4C89E7   		movq	%r12, %rdi
 5825 24cd 4C89F2   		movq	%r14, %rdx
 5826 24d0 E96AFFFF 		jmp	.L520
 5826      FF
 5827              	.L535:
 5828 24d5 4989C4   		movq	%rax, %r12
 5829 24d8 4989D6   		movq	%rdx, %r14
 5830 24db 4889DF   		movq	%rbx, %rdi
 5831 24de E8000000 		call	_ZN12_GLOBAL__N_111FixtureBaseD2Ev
 5831      00
 5832 24e3 4C89E7   		movq	%r12, %rdi
 5833 24e6 4C89F2   		movq	%r14, %rdx
 5834 24e9 E951FFFF 		jmp	.L520
 5834      FF
 5835              	.L540:
 5836 24ee 4989C4   		movq	%rax, %r12
 5837 24f1 4989D6   		movq	%rdx, %r14
 5838 24f4 4889DF   		movq	%rbx, %rdi
 5839 24f7 E8000000 		call	_ZN12_GLOBAL__N_111FixtureBaseD2Ev
 5839      00
 5840 24fc 4C89E7   		movq	%r12, %rdi
 5841 24ff 4C89F2   		movq	%r14, %rdx
 5842              	.L517:
 5843 2502 4883FA01 		cmpq	$1, %rdx
 5844 2506 0F84AC00 		je	.L522
 5844      0000
 5845 250c 4883FA02 		cmpq	$2, %rdx
 5846 2510 0F843DFF 		je	.L523
 5846      FFFF
 5847 2516 E8000000 		call	__cxa_begin_catch@PLT
 5847      00
 5848              	.LEHB198:
 5849 251b E8000000 		call	_ZN8UnitTest11CurrentTest7ResultsEv@PLT
 5849      00
 5850 2520 4889E3   		movq	%rsp, %rbx
 5851 2523 BABC0000 		movl	$188, %edx
 5851      00
 5852 2528 4889EE   		movq	%rbp, %rsi
 5853 252b 4889DF   		movq	%rbx, %rdi
 5854 252e 4C8B20   		movq	(%rax), %r12
 5855 2531 E8000000 		call	_ZN8UnitTest11TestDetailsC1ERKS0_i@PLT
 5855      00
 5856 2536 488D1500 		leaq	.LC14(%rip), %rdx
 5856      000000
 5857 253d 4889DE   		movq	%rbx, %rsi
 5858 2540 4C89E7   		movq	%r12, %rdi
 5859 2543 E8000000 		call	_ZN8UnitTest11TestResults13OnTestFailureERKNS_11TestDetailsEPKc@PLT
 5859      00
 5860              	.LEHE198:
 5861              	.L524:
 5862              	.LEHB199:
 5863 2548 E8000000 		call	__cxa_end_catch@PLT
 5863      00
 5864              	.LEHE199:
 5865 254d E9C2FEFF 		jmp	.L514
 5865      FF
 5866              	.L542:
 5867 2552 4889C7   		movq	%rax, %rdi
 5868 2555 EBAB     		jmp	.L517
 5869              	.L539:
 5870 2557 4889C3   		movq	%rax, %rbx
 5871 255a E8000000 		call	__cxa_end_catch@PLT
 5871      00
 5872 255f 4889DF   		movq	%rbx, %rdi
 5873              	.LEHB200:
 5874 2562 E8000000 		call	_Unwind_Resume@PLT
 5874      00
 5875              	.LEHE200:
 5876              	.L538:
 5877 2567 4889DF   		movq	%rbx, %rdi
 5878 256a 4889C5   		movq	%rax, %rbp
 5879 256d E8000000 		call	_ZN8UnitTest15MemoryOutStreamD1Ev
 5879      00
 5880              	.L527:
 5881 2572 E8000000 		call	__cxa_end_catch@PLT
 5881      00
 5882 2577 4889EF   		movq	%rbp, %rdi
 5883              	.LEHB201:
 5884 257a E8000000 		call	_Unwind_Resume@PLT
 5884      00
 5885              	.LEHE201:
 5886              	.L537:
 5887 257f 4889C5   		movq	%rax, %rbp
 5888 2582 EBEE     		jmp	.L527
 5889              	.L563:
 5890 2584 E8000000 		call	__cxa_begin_catch@PLT
 5890      00
 5891              	.LEHB202:
 5892 2589 E8000000 		call	_ZN8UnitTest11CurrentTest7ResultsEv@PLT
 5892      00
 5893 258e 4889E3   		movq	%rsp, %rbx
 5894 2591 BABC0000 		movl	$188, %edx
 5894      00
 5895 2596 4889EE   		movq	%rbp, %rsi
 5896 2599 4889DF   		movq	%rbx, %rdi
 5897 259c 4C8B20   		movq	(%rax), %r12
 5898 259f E8000000 		call	_ZN8UnitTest11TestDetailsC1ERKS0_i@PLT
 5898      00
 5899 25a4 488D1500 		leaq	.LC13(%rip), %rdx
 5899      000000
 5900 25ab 4889DE   		movq	%rbx, %rsi
 5901 25ae 4C89E7   		movq	%r12, %rdi
 5902 25b1 E8000000 		call	_ZN8UnitTest11TestResults13OnTestFailureERKNS_11TestDetailsEPKc@PLT
 5902      00
 5903              	.LEHE202:
 5904 25b6 EB90     		jmp	.L524
 5905              	.L522:
 5906 25b8 E8000000 		call	__cxa_begin_catch@PLT
 5906      00
 5907 25bd 4889C3   		movq	%rax, %rbx
 5908              	.LEHB203:
 5909 25c0 E8000000 		call	_ZN8UnitTest11CurrentTest7ResultsEv@PLT
 5909      00
 5910 25c5 488B28   		movq	(%rax), %rbp
 5911 25c8 488B03   		movq	(%rbx), %rax
 5912 25cb 4889DF   		movq	%rbx, %rdi
 5913 25ce FF5010   		call	*16(%rax)
 5914 25d1 4889DF   		movq	%rbx, %rdi
 5915 25d4 4989C4   		movq	%rax, %r12
 5916 25d7 E8000000 		call	_ZNK8UnitTest15AssertException10LineNumberEv@PLT
 5916      00
 5917 25dc 4889DF   		movq	%rbx, %rdi
 5918 25df 4189C6   		movl	%eax, %r14d
 5919 25e2 E8000000 		call	_ZNK8UnitTest15AssertException8FilenameEv@PLT
 5919      00
 5920 25e7 498B5508 		movq	8(%r13), %rdx
 5921 25eb 498B7510 		movq	16(%r13), %rsi
 5922 25ef 4889E3   		movq	%rsp, %rbx
 5923 25f2 4589F0   		movl	%r14d, %r8d
 5924 25f5 4889C1   		movq	%rax, %rcx
 5925 25f8 4889DF   		movq	%rbx, %rdi
 5926 25fb E8000000 		call	_ZN8UnitTest11TestDetailsC1EPKcS2_S2_i@PLT
 5926      00
 5927 2600 4C89E2   		movq	%r12, %rdx
 5928 2603 4889DE   		movq	%rbx, %rsi
 5929 2606 4889EF   		movq	%rbp, %rdi
 5930 2609 E8000000 		call	_ZN8UnitTest11TestResults13OnTestFailureERKNS_11TestDetailsEPKc@PLT
 5930      00
 5931              	.LEHE203:
 5932 260e E99FFEFF 		jmp	.L561
 5932      FF
 5933              	.L536:
 5934 2613 4889C3   		movq	%rax, %rbx
 5935 2616 E8000000 		call	__cxa_end_catch@PLT
 5935      00
 5936 261b 4889DF   		movq	%rbx, %rdi
 5937              	.LEHB204:
 5938 261e E8000000 		call	_Unwind_Resume@PLT
 5938      00
 5939              	.LEHE204:
 5940              		.cfi_endproc
 5941              	.LFE1300:
 5942              		.section	.gcc_except_table
 5943              		.align 4
 5944              	.LLSDA1300:
 5945 0510 FF       		.byte	0xff
 5946 0511 9B       		.byte	0x9b
 5947 0512 6D       		.uleb128 .LLSDATT1300-.LLSDATTD1300
 5948              	.LLSDATTD1300:
 5949 0513 01       		.byte	0x1
 5950 0514 55       		.uleb128 .LLSDACSE1300-.LLSDACSB1300
 5951              	.LLSDACSB1300:
 5952 0515 35       		.uleb128 .LEHB190-.LFB1300
 5953 0516 05       		.uleb128 .LEHE190-.LEHB190
 5954 0517 C204     		.uleb128 .L542-.LFB1300
 5955 0519 05       		.uleb128 0x5
 5956 051a D601     		.uleb128 .LEHB191-.LFB1300
 5957 051c 05       		.uleb128 .LEHE191-.LEHB191
 5958 051d DE03     		.uleb128 .L540-.LFB1300
 5959 051f 07       		.uleb128 0x7
 5960 0520 E901     		.uleb128 .LEHB192-.LFB1300
 5961 0522 05       		.uleb128 .LEHE192-.LEHB192
 5962 0523 C503     		.uleb128 .L535-.LFB1300
 5963 0525 07       		.uleb128 0x7
 5964 0526 F701     		.uleb128 .LEHB193-.LFB1300
 5965 0528 05       		.uleb128 .LEHE193-.LEHB193
 5966 0529 AC03     		.uleb128 .L541-.LFB1300
 5967 052b 07       		.uleb128 0x7
 5968 052c FF01     		.uleb128 .LEHB194-.LFB1300
 5969 052e 05       		.uleb128 .LEHE194-.LEHB194
 5970 052f AC02     		.uleb128 .L534-.LFB1300
 5971 0531 05       		.uleb128 0x5
 5972 0532 CE02     		.uleb128 .LEHB195-.LFB1300
 5973 0534 05       		.uleb128 .LEHE195-.LEHB195
 5974 0535 EF04     		.uleb128 .L537-.LFB1300
 5975 0537 00       		.uleb128 0
 5976 0538 E202     		.uleb128 .LEHB196-.LFB1300
 5977 053a 38       		.uleb128 .LEHE196-.LEHB196
 5978 053b D704     		.uleb128 .L538-.LFB1300
 5979 053d 00       		.uleb128 0
 5980 053e 9D03     		.uleb128 .LEHB197-.LFB1300
 5981 0540 05       		.uleb128 .LEHE197-.LEHB197
 5982 0541 EF04     		.uleb128 .L537-.LFB1300
 5983 0543 00       		.uleb128 0
 5984 0544 8B04     		.uleb128 .LEHB198-.LFB1300
 5985 0546 2D       		.uleb128 .LEHE198-.LEHB198
 5986 0547 C704     		.uleb128 .L539-.LFB1300
 5987 0549 00       		.uleb128 0
 5988 054a B804     		.uleb128 .LEHB199-.LFB1300
 5989 054c 05       		.uleb128 .LEHE199-.LEHB199
 5990 054d 00       		.uleb128 0
 5991 054e 00       		.uleb128 0
 5992 054f D204     		.uleb128 .LEHB200-.LFB1300
 5993 0551 05       		.uleb128 .LEHE200-.LEHB200
 5994 0552 00       		.uleb128 0
 5995 0553 00       		.uleb128 0
 5996 0554 EA04     		.uleb128 .LEHB201-.LFB1300
 5997 0556 05       		.uleb128 .LEHE201-.LEHB201
 5998 0557 00       		.uleb128 0
 5999 0558 00       		.uleb128 0
 6000 0559 F904     		.uleb128 .LEHB202-.LFB1300
 6001 055b 2D       		.uleb128 .LEHE202-.LEHB202
 6002 055c C704     		.uleb128 .L539-.LFB1300
 6003 055e 00       		.uleb128 0
 6004 055f B005     		.uleb128 .LEHB203-.LFB1300
 6005 0561 4E       		.uleb128 .LEHE203-.LEHB203
 6006 0562 8306     		.uleb128 .L536-.LFB1300
 6007 0564 00       		.uleb128 0
 6008 0565 8E06     		.uleb128 .LEHB204-.LFB1300
 6009 0567 05       		.uleb128 .LEHE204-.LEHB204
 6010 0568 00       		.uleb128 0
 6011 0569 00       		.uleb128 0
 6012              	.LLSDACSE1300:
 6013 056a 03       		.byte	0x3
 6014 056b 00       		.byte	0
 6015 056c 02       		.byte	0x2
 6016 056d 7D       		.byte	0x7d
 6017 056e 01       		.byte	0x1
 6018 056f 7D       		.byte	0x7d
 6019 0570 00       		.byte	0
 6020 0571 7D       		.byte	0x7d
 6021 0572 0000     		.align 4
 6022 0574 00000000 		.long	0
 6023              	
 6024 0578 00000000 		.long	DW.ref._ZTISt9exception-.
 6025 057c 00000000 		.long	DW.ref._ZTIN8UnitTest15AssertExceptionE-.
 6026              	.LLSDATT1300:
 6027              		.text
 6029              		.section	.rodata.str1.8
 6030              		.align 8
 6031              	.LC37:
 6032 04f0 556E6861 		.string	"Unhandled exception in CHECK_EQUAL(1, reporter.testFailedCount)"
 6032      6E646C65 
 6032      64206578 
 6032      63657074 
 6032      696F6E20 
 6033              		.text
 6034 2623 0F1F0066 		.p2align 4,,15
 6034      2E0F1F84 
 6034      00000000 
 6034      00
 6036              	_ZN8UnitTest11ExecuteTestIN12_GLOBAL__N_155TestRunnerFixtureSlowTestFailsForLowTimeThresholdHelperE
 6037              	.LFB1419:
 6038              		.cfi_startproc
 6039              		.cfi_personality 0x9b,DW.ref.__gxx_personality_v0
 6040              		.cfi_lsda 0x1b,.LLSDA1419
 6041 2630 4155     		pushq	%r13
 6042              		.cfi_def_cfa_offset 16
 6043              		.cfi_offset 13, -16
 6044 2632 4154     		pushq	%r12
 6045              		.cfi_def_cfa_offset 24
 6046              		.cfi_offset 12, -24
 6047 2634 55       		pushq	%rbp
 6048              		.cfi_def_cfa_offset 32
 6049              		.cfi_offset 6, -32
 6050 2635 53       		pushq	%rbx
 6051              		.cfi_def_cfa_offset 40
 6052              		.cfi_offset 3, -40
 6053 2636 4889F3   		movq	%rsi, %rbx
 6054 2639 4881ECD8 		subq	$1752, %rsp
 6054      060000
 6055              		.cfi_def_cfa_offset 1792
 6056 2640 48893C24 		movq	%rdi, (%rsp)
 6057 2644 48897424 		movq	%rsi, 8(%rsp)
 6057      08
 6058 2649 64488B04 		movq	%fs:40, %rax
 6058      25280000 
 6058      00
 6059 2652 48898424 		movq	%rax, 1736(%rsp)
 6059      C8060000 
 6060 265a 31C0     		xorl	%eax, %eax
 6061              	.LEHB205:
 6062 265c E8000000 		call	_ZN8UnitTest11CurrentTest7DetailsEv@PLT
 6062      00
 6063              	.LEHE205:
 6064 2661 488DBC24 		leaq	608(%rsp), %rdi
 6064      60020000 
 6065 2669 488918   		movq	%rbx, (%rax)
 6066              	.LEHB206:
 6067 266c E8000000 		call	_ZN8UnitTest16SignalTranslatorC1Ev@PLT
 6067      00
 6068              	.LEHE206:
 6069 2671 488B3D00 		movq	_ZN8UnitTest16SignalTranslator12s_jumpTargetE(%rip), %rdi
 6069      000000
 6070 2678 BE010000 		movl	$1, %esi
 6070      00
 6071 267d E8000000 		call	__sigsetjmp@PLT
 6071      00
 6072 2682 85C0     		testl	%eax, %eax
 6073 2684 742A     		je	.L566
 6074 2686 BF080000 		movl	$8, %edi
 6074      00
 6075 268b E8000000 		call	__cxa_allocate_exception@PLT
 6075      00
 6076 2690 488D0D00 		leaq	.LC3(%rip), %rcx
 6076      000000
 6077 2697 488D3500 		leaq	_ZTIPKc(%rip), %rsi
 6077      000000
 6078 269e 31D2     		xorl	%edx, %edx
 6079 26a0 4889C7   		movq	%rax, %rdi
 6080 26a3 488908   		movq	%rcx, (%rax)
 6081              	.LEHB207:
 6082 26a6 E8000000 		call	__cxa_throw@PLT
 6082      00
 6083 26ab 0F1F4400 		.p2align 4,,10
 6083      00
 6084              		.p2align 3
 6085              	.L566:
 6086 26b0 488DBC24 		leaq	128(%rsp), %rdi
 6086      80000000 
 6087 26b8 488D0D00 		leaq	.LC4(%rip), %rcx
 6087      000000
 6088 26bf 488D1500 		leaq	.LC5(%rip), %rdx
 6088      000000
 6089 26c6 488D3500 		leaq	.LC6(%rip), %rsi
 6089      000000
 6090 26cd 41B87B00 		movl	$123, %r8d
 6090      0000
 6091 26d3 E8000000 		call	_ZN8UnitTest4TestC2EPKcS2_S2_i@PLT
 6091      00
 6092              	.LEHE207:
 6093 26d8 488B2C24 		movq	(%rsp), %rbp
 6094 26dc 488D0500 		leaq	16+_ZTVN12_GLOBAL__N_18SlowTestE(%rip), %rax
 6094      000000
 6095 26e3 488DB424 		leaq	128(%rsp), %rsi
 6095      80000000 
 6096 26eb 48898424 		movq	%rax, 128(%rsp)
 6096      80000000 
 6097 26f3 488D9D48 		leaq	2120(%rbp), %rbx
 6097      080000
 6098 26fa 4889DF   		movq	%rbx, %rdi
 6099              	.LEHB208:
 6100 26fd E8000000 		call	_ZN8UnitTest8TestList3AddEPNS_4TestE@PLT
 6100      00
 6101 2702 E8000000 		call	_ZN8UnitTest11CurrentTest7ResultsEv@PLT
 6101      00
 6102 2707 4C8B28   		movq	(%rax), %r13
 6103 270a E8000000 		call	_ZN8UnitTest11CurrentTest7DetailsEv@PLT
 6103      00
 6104 270f 4889DF   		movq	%rbx, %rdi
 6105 2712 4C8B20   		movq	(%rax), %r12
 6106 2715 E8000000 		call	_ZNK8UnitTest8TestList7GetHeadEv@PLT
 6106      00
 6107 271a 4885C0   		testq	%rax, %rax
 6108 271d 4889C3   		movq	%rax, %rbx
 6109 2720 0F85DF00 		jne	.L569
 6109      0000
 6110 2726 662E0F1F 		.p2align 4,,10
 6110      84000000 
 6110      0000
 6111              		.p2align 3
 6112              	.L567:
 6113 2730 488B1C24 		movq	(%rsp), %rbx
 6114 2734 4889DF   		movq	%rbx, %rdi
 6115 2737 E8000000 		call	_ZNK8UnitTest10TestRunner6FinishEv@PLT
 6115      00
 6116 273c E8000000 		call	_ZN8UnitTest11CurrentTest7ResultsEv@PLT
 6116      00
 6117 2741 4C8928   		movq	%r13, (%rax)
 6118 2744 E8000000 		call	_ZN8UnitTest11CurrentTest7DetailsEv@PLT
 6118      00
 6119              	.LEHE208:
 6120 2749 4C8920   		movq	%r12, (%rax)
 6121              	.LEHB209:
 6122 274c E8000000 		call	_ZN8UnitTest11CurrentTest7DetailsEv@PLT
 6122      00
 6123 2751 488B30   		movq	(%rax), %rsi
 6124 2754 488D7C24 		leaq	96(%rsp), %rdi
 6124      60
 6125 2759 BAB90000 		movl	$185, %edx
 6125      00
 6126 275e E8000000 		call	_ZN8UnitTest11TestDetailsC1ERKS0_i@PLT
 6126      00
 6127 2763 4881C324 		addq	$548, %rbx
 6127      020000
 6128 276a C744241C 		movl	$1, 28(%rsp)
 6128      01000000 
 6129 2772 E8000000 		call	_ZN8UnitTest11CurrentTest7ResultsEv@PLT
 6129      00
 6130 2777 488B38   		movq	(%rax), %rdi
 6131 277a 488D4C24 		leaq	96(%rsp), %rcx
 6131      60
 6132 277f 488D7424 		leaq	28(%rsp), %rsi
 6132      1C
 6133 2784 4889DA   		movq	%rbx, %rdx
 6134 2787 E8000000 		call	_ZN8UnitTest10CheckEqualIiiEEvRNS_11TestResultsERKT_RKT0_RKNS_11TestDetailsE
 6134      00
 6135              	.LEHE209:
 6136              	.L573:
 6137 278c 488D0500 		leaq	16+_ZTVN12_GLOBAL__N_18SlowTestE(%rip), %rax
 6137      000000
 6138 2793 488DBC24 		leaq	128(%rsp), %rdi
 6138      80000000 
 6139 279b 48898424 		movq	%rax, 128(%rsp)
 6139      80000000 
 6140              	.LEHB210:
 6141 27a3 E8000000 		call	_ZN8UnitTest4TestD2Ev@PLT
 6141      00
 6142              	.LEHE210:
 6143 27a8 488DBC24 		leaq	608(%rsp), %rdi
 6143      60020000 
 6144              	.LEHB211:
 6145 27b0 E8000000 		call	_ZN8UnitTest16SignalTranslatorD1Ev@PLT
 6145      00
 6146              	.LEHE211:
 6147              	.L564:
 6148 27b5 488B8424 		movq	1736(%rsp), %rax
 6148      C8060000 
 6149 27bd 64483304 		xorq	%fs:40, %rax
 6149      25280000 
 6149      00
 6150 27c6 0F85FC00 		jne	.L601
 6150      0000
 6151 27cc 4881C4D8 		addq	$1752, %rsp
 6151      060000
 6152              		.cfi_remember_state
 6153              		.cfi_def_cfa_offset 40
 6154 27d3 5B       		popq	%rbx
 6155              		.cfi_def_cfa_offset 32
 6156 27d4 5D       		popq	%rbp
 6157              		.cfi_def_cfa_offset 24
 6158 27d5 415C     		popq	%r12
 6159              		.cfi_def_cfa_offset 16
 6160 27d7 415D     		popq	%r13
 6161              		.cfi_def_cfa_offset 8
 6162 27d9 C3       		ret
 6163 27da 660F1F44 		.p2align 4,,10
 6163      0000
 6164              		.p2align 3
 6165              	.L568:
 6166              		.cfi_restore_state
 6167 27e0 488B0424 		movq	(%rsp), %rax
 6168 27e4 B9030000 		movl	$3, %ecx
 6168      00
 6169 27e9 4889DA   		movq	%rbx, %rdx
 6170 27ec 4889EF   		movq	%rbp, %rdi
 6171 27ef 488B7008 		movq	8(%rax), %rsi
 6172              	.LEHB212:
 6173 27f3 E8000000 		call	_ZNK8UnitTest10TestRunner7RunTestEPNS_11TestResultsEPNS_4TestEi@PLT
 6173      00
 6174              	.L570:
 6175 27f8 488B5B28 		movq	40(%rbx), %rbx
 6176 27fc 4885DB   		testq	%rbx, %rbx
 6177 27ff 0F842BFF 		je	.L567
 6177      FFFF
 6178              	.L569:
 6179 2805 31D2     		xorl	%edx, %edx
 6180 2807 4889DE   		movq	%rbx, %rsi
 6181 280a 4889EF   		movq	%rbp, %rdi
 6182 280d E8000000 		call	_ZNK8UnitTest10TestRunner13IsTestInSuiteEPKNS_4TestEPKc@PLT
 6182      00
 6183              	.LEHE212:
 6184 2812 84C0     		testb	%al, %al
 6185 2814 74E2     		je	.L570
 6186 2816 EBC8     		jmp	.L568
 6187              	.L589:
 6188 2818 4889C3   		movq	%rax, %rbx
 6189 281b 4889D5   		movq	%rdx, %rbp
 6190              	.L576:
 6191 281e 488DBC24 		leaq	608(%rsp), %rdi
 6191      60020000 
 6192 2826 E8000000 		call	_ZN8UnitTest16SignalTranslatorD1Ev@PLT
 6192      00
 6193 282b 4889DF   		movq	%rbx, %rdi
 6194 282e 4889EA   		movq	%rbp, %rdx
 6195              	.L577:
 6196 2831 4883FA01 		cmpq	$1, %rdx
 6197 2835 0F845D01 		je	.L579
 6197      0000
 6198 283b 4883FA02 		cmpq	$2, %rdx
 6199 283f 0F852B01 		jne	.L602
 6199      0000
 6200 2845 E8000000 		call	__cxa_begin_catch@PLT
 6200      00
 6201 284a 488DBC24 		leaq	192(%rsp), %rdi
 6201      C0000000 
 6202 2852 4889C3   		movq	%rax, %rbx
 6203              	.LEHB213:
 6204 2855 E8000000 		call	_ZN8UnitTest15MemoryOutStreamC1Ev
 6204      00
 6205              	.LEHE213:
 6206 285a 488DBC24 		leaq	192(%rsp), %rdi
 6206      C0000000 
 6207 2862 488D3500 		leaq	.LC11(%rip), %rsi
 6207      000000
 6208 2869 BA150000 		movl	$21, %edx
 6208      00
 6209              	.LEHB214:
 6210 286e E8000000 		call	_ZSt16__ostream_insertIcSt11char_traitsIcEERSt13basic_ostreamIT_T0_ES6_PKS3_l@PLT
 6210      00
 6211 2873 488B03   		movq	(%rbx), %rax
 6212 2876 4889DF   		movq	%rbx, %rdi
 6213 2879 FF5010   		call	*16(%rax)
 6214 287c 488DBC24 		leaq	192(%rsp), %rdi
 6214      C0000000 
 6215 2884 4889C6   		movq	%rax, %rsi
 6216 2887 E8000000 		call	_ZStlsISt11char_traitsIcEERSt13basic_ostreamIcT_ES5_PKc@PLT
 6216      00
 6217 288c E8000000 		call	_ZN8UnitTest11CurrentTest7ResultsEv@PLT
 6217      00
 6218 2891 488DBC24 		leaq	192(%rsp), %rdi
 6218      C0000000 
 6219 2899 488B18   		movq	(%rax), %rbx
 6220 289c E8000000 		call	_ZNK8UnitTest15MemoryOutStream7GetTextEv@PLT
 6220      00
 6221 28a1 488B7424 		movq	8(%rsp), %rsi
 6221      08
 6222 28a6 4889C2   		movq	%rax, %rdx
 6223 28a9 4889DF   		movq	%rbx, %rdi
 6224 28ac E8000000 		call	_ZN8UnitTest11TestResults13OnTestFailureERKNS_11TestDetailsEPKc@PLT
 6224      00
 6225              	.LEHE214:
 6226 28b1 488DBC24 		leaq	192(%rsp), %rdi
 6226      C0000000 
 6227              	.LEHB215:
 6228 28b9 E8000000 		call	_ZN8UnitTest15MemoryOutStreamD1Ev
 6228      00
 6229              	.LEHE215:
 6230              	.L599:
 6231 28be E8000000 		call	__cxa_end_catch@PLT
 6231      00
 6232 28c3 E9EDFEFF 		jmp	.L564
 6232      FF
 6233              	.L601:
 6234 28c8 E8000000 		call	__stack_chk_fail@PLT
 6234      00
 6235              	.L588:
 6236 28cd 4889C7   		movq	%rax, %rdi
 6237 28d0 E95CFFFF 		jmp	.L577
 6237      FF
 6238              	.L596:
 6239 28d5 4889C7   		movq	%rax, %rdi
 6240 28d8 E8000000 		call	__cxa_begin_catch@PLT
 6240      00
 6241              	.LEHB216:
 6242 28dd E8000000 		call	_ZN8UnitTest11CurrentTest7ResultsEv@PLT
 6242      00
 6243 28e2 488B18   		movq	(%rax), %rbx
 6244 28e5 E8000000 		call	_ZN8UnitTest11CurrentTest7DetailsEv@PLT
 6244      00
 6245 28ea 488B30   		movq	(%rax), %rsi
 6246 28ed 488D7C24 		leaq	64(%rsp), %rdi
 6246      40
 6247 28f2 BAB90000 		movl	$185, %edx
 6247      00
 6248 28f7 E8000000 		call	_ZN8UnitTest11TestDetailsC1ERKS0_i@PLT
 6248      00
 6249 28fc 488D7424 		leaq	64(%rsp), %rsi
 6249      40
 6250 2901 488D1500 		leaq	.LC37(%rip), %rdx
 6250      000000
 6251 2908 4889DF   		movq	%rbx, %rdi
 6252 290b E8000000 		call	_ZN8UnitTest11TestResults13OnTestFailureERKNS_11TestDetailsEPKc@PLT
 6252      00
 6253              	.LEHE216:
 6254              	.LEHB217:
 6255 2910 E8000000 		call	__cxa_end_catch@PLT
 6255      00
 6256              	.LEHE217:
 6257 2915 E972FEFF 		jmp	.L573
 6257      FF
 6258              	.L594:
 6259 291a 4889C3   		movq	%rax, %rbx
 6260 291d 4889D5   		movq	%rdx, %rbp
 6261              	.L575:
 6262 2920 488D0500 		leaq	16+_ZTVN12_GLOBAL__N_18SlowTestE(%rip), %rax
 6262      000000
 6263 2927 488DBC24 		leaq	128(%rsp), %rdi
 6263      80000000 
 6264 292f 48898424 		movq	%rax, 128(%rsp)
 6264      80000000 
 6265 2937 E8000000 		call	_ZN8UnitTest4TestD2Ev@PLT
 6265      00
 6266 293c E9DDFEFF 		jmp	.L576
 6266      FF
 6267              	.L595:
 6268 2941 4889C3   		movq	%rax, %rbx
 6269 2944 4889D5   		movq	%rdx, %rbp
 6270 2947 E8000000 		call	__cxa_end_catch@PLT
 6270      00
 6271 294c EBD2     		jmp	.L575
 6272              	.L592:
 6273 294e 488DBC24 		leaq	192(%rsp), %rdi
 6273      C0000000 
 6274 2956 4889C3   		movq	%rax, %rbx
 6275 2959 E8000000 		call	_ZN8UnitTest15MemoryOutStreamD1Ev
 6275      00
 6276              	.L585:
 6277 295e E8000000 		call	__cxa_end_catch@PLT
 6277      00
 6278 2963 4889DF   		movq	%rbx, %rdi
 6279              	.LEHB218:
 6280 2966 E8000000 		call	_Unwind_Resume@PLT
 6280      00
 6281              	.LEHE218:
 6282              	.L591:
 6283              	.L600:
 6284 296b 4889C3   		movq	%rax, %rbx
 6285 296e EBEE     		jmp	.L585
 6286              	.L602:
 6287 2970 E8000000 		call	__cxa_begin_catch@PLT
 6287      00
 6288              	.LEHB219:
 6289 2975 E8000000 		call	_ZN8UnitTest11CurrentTest7ResultsEv@PLT
 6289      00
 6290 297a 488B7424 		movq	8(%rsp), %rsi
 6290      08
 6291 297f 488B38   		movq	(%rax), %rdi
 6292 2982 488D1500 		leaq	.LC12(%rip), %rdx
 6292      000000
 6293 2989 E8000000 		call	_ZN8UnitTest11TestResults13OnTestFailureERKNS_11TestDetailsEPKc@PLT
 6293      00
 6294              	.LEHE219:
 6295              	.LEHB220:
 6296 298e E8000000 		call	__cxa_end_catch@PLT
 6296      00
 6297              	.LEHE220:
 6298 2993 E91DFEFF 		jmp	.L564
 6298      FF
 6299              	.L579:
 6300 2998 E8000000 		call	__cxa_begin_catch@PLT
 6300      00
 6301 299d 4889C3   		movq	%rax, %rbx
 6302              	.LEHB221:
 6303 29a0 E8000000 		call	_ZN8UnitTest11CurrentTest7ResultsEv@PLT
 6303      00
 6304 29a5 488B28   		movq	(%rax), %rbp
 6305 29a8 488B03   		movq	(%rbx), %rax
 6306 29ab 4889DF   		movq	%rbx, %rdi
 6307 29ae FF5010   		call	*16(%rax)
 6308 29b1 4889DF   		movq	%rbx, %rdi
 6309 29b4 4989C4   		movq	%rax, %r12
 6310 29b7 E8000000 		call	_ZNK8UnitTest15AssertException10LineNumberEv@PLT
 6310      00
 6311 29bc 4889DF   		movq	%rbx, %rdi
 6312 29bf 4189C5   		movl	%eax, %r13d
 6313 29c2 E8000000 		call	_ZNK8UnitTest15AssertException8FilenameEv@PLT
 6313      00
 6314 29c7 488B5424 		movq	8(%rsp), %rdx
 6314      08
 6315 29cc 488D7C24 		leaq	32(%rsp), %rdi
 6315      20
 6316 29d1 4589E8   		movl	%r13d, %r8d
 6317 29d4 4889C1   		movq	%rax, %rcx
 6318 29d7 488B7208 		movq	8(%rdx), %rsi
 6319 29db 488B12   		movq	(%rdx), %rdx
 6320 29de E8000000 		call	_ZN8UnitTest11TestDetailsC1EPKcS2_S2_i@PLT
 6320      00
 6321 29e3 488D7424 		leaq	32(%rsp), %rsi
 6321      20
 6322 29e8 4C89E2   		movq	%r12, %rdx
 6323 29eb 4889EF   		movq	%rbp, %rdi
 6324 29ee E8000000 		call	_ZN8UnitTest11TestResults13OnTestFailureERKNS_11TestDetailsEPKc@PLT
 6324      00
 6325              	.LEHE221:
 6326 29f3 E9C6FEFF 		jmp	.L599
 6326      FF
 6327              	.L593:
 6328 29f8 4889C3   		movq	%rax, %rbx
 6329 29fb E8000000 		call	__cxa_end_catch@PLT
 6329      00
 6330 2a00 4889DF   		movq	%rbx, %rdi
 6331              	.LEHB222:
 6332 2a03 E8000000 		call	_Unwind_Resume@PLT
 6332      00
 6333              	.LEHE222:
 6334              	.L590:
 6335 2a08 E95EFFFF 		jmp	.L600
 6335      FF
 6336              		.cfi_endproc
 6337              	.LFE1419:
 6338              		.section	.gcc_except_table
 6339              		.align 4
 6340              	.LLSDA1419:
 6341 0580 FF       		.byte	0xff
 6342 0581 9B       		.byte	0x9b
 6343 0582 7D       		.uleb128 .LLSDATT1419-.LLSDATTD1419
 6344              	.LLSDATTD1419:
 6345 0583 01       		.byte	0x1
 6346 0584 65       		.uleb128 .LLSDACSE1419-.LLSDACSB1419
 6347              	.LLSDACSB1419:
 6348 0585 2C       		.uleb128 .LEHB205-.LFB1419
 6349 0586 05       		.uleb128 .LEHE205-.LEHB205
 6350 0587 00       		.uleb128 0
 6351 0588 00       		.uleb128 0
 6352 0589 3C       		.uleb128 .LEHB206-.LFB1419
 6353 058a 05       		.uleb128 .LEHE206-.LEHB206
 6354 058b 9D05     		.uleb128 .L588-.LFB1419
 6355 058d 05       		.uleb128 0x5
 6356 058e 76       		.uleb128 .LEHB207-.LFB1419
 6357 058f 32       		.uleb128 .LEHE207-.LEHB207
 6358 0590 E803     		.uleb128 .L589-.LFB1419
 6359 0592 07       		.uleb128 0x7
 6360 0593 CD01     		.uleb128 .LEHB208-.LFB1419
 6361 0595 4C       		.uleb128 .LEHE208-.LEHB208
 6362 0596 EA05     		.uleb128 .L594-.LFB1419
 6363 0598 07       		.uleb128 0x7
 6364 0599 9C02     		.uleb128 .LEHB209-.LFB1419
 6365 059b 40       		.uleb128 .LEHE209-.LEHB209
 6366 059c A505     		.uleb128 .L596-.LFB1419
 6367 059e 01       		.uleb128 0x1
 6368 059f F302     		.uleb128 .LEHB210-.LFB1419
 6369 05a1 05       		.uleb128 .LEHE210-.LEHB210
 6370 05a2 E803     		.uleb128 .L589-.LFB1419
 6371 05a4 07       		.uleb128 0x7
 6372 05a5 8003     		.uleb128 .LEHB211-.LFB1419
 6373 05a7 05       		.uleb128 .LEHE211-.LEHB211
 6374 05a8 9D05     		.uleb128 .L588-.LFB1419
 6375 05aa 05       		.uleb128 0x5
 6376 05ab C303     		.uleb128 .LEHB212-.LFB1419
 6377 05ad 1F       		.uleb128 .LEHE212-.LEHB212
 6378 05ae EA05     		.uleb128 .L594-.LFB1419
 6379 05b0 07       		.uleb128 0x7
 6380 05b1 A504     		.uleb128 .LEHB213-.LFB1419
 6381 05b3 05       		.uleb128 .LEHE213-.LEHB213
 6382 05b4 BB06     		.uleb128 .L591-.LFB1419
 6383 05b6 00       		.uleb128 0
 6384 05b7 BE04     		.uleb128 .LEHB214-.LFB1419
 6385 05b9 43       		.uleb128 .LEHE214-.LEHB214
 6386 05ba 9E06     		.uleb128 .L592-.LFB1419
 6387 05bc 00       		.uleb128 0
 6388 05bd 8905     		.uleb128 .LEHB215-.LFB1419
 6389 05bf 05       		.uleb128 .LEHE215-.LEHB215
 6390 05c0 BB06     		.uleb128 .L591-.LFB1419
 6391 05c2 00       		.uleb128 0
 6392 05c3 AD05     		.uleb128 .LEHB216-.LFB1419
 6393 05c5 33       		.uleb128 .LEHE216-.LEHB216
 6394 05c6 9106     		.uleb128 .L595-.LFB1419
 6395 05c8 07       		.uleb128 0x7
 6396 05c9 E005     		.uleb128 .LEHB217-.LFB1419
 6397 05cb 05       		.uleb128 .LEHE217-.LEHB217
 6398 05cc EA05     		.uleb128 .L594-.LFB1419
 6399 05ce 07       		.uleb128 0x7
 6400 05cf B606     		.uleb128 .LEHB218-.LFB1419
 6401 05d1 05       		.uleb128 .LEHE218-.LEHB218
 6402 05d2 00       		.uleb128 0
 6403 05d3 00       		.uleb128 0
 6404 05d4 C506     		.uleb128 .LEHB219-.LFB1419
 6405 05d6 19       		.uleb128 .LEHE219-.LEHB219
 6406 05d7 C807     		.uleb128 .L593-.LFB1419
 6407 05d9 00       		.uleb128 0
 6408 05da DE06     		.uleb128 .LEHB220-.LFB1419
 6409 05dc 05       		.uleb128 .LEHE220-.LEHB220
 6410 05dd 00       		.uleb128 0
 6411 05de 00       		.uleb128 0
 6412 05df F006     		.uleb128 .LEHB221-.LFB1419
 6413 05e1 53       		.uleb128 .LEHE221-.LEHB221
 6414 05e2 D807     		.uleb128 .L590-.LFB1419
 6415 05e4 00       		.uleb128 0
 6416 05e5 D307     		.uleb128 .LEHB222-.LFB1419
 6417 05e7 05       		.uleb128 .LEHE222-.LEHB222
 6418 05e8 00       		.uleb128 0
 6419 05e9 00       		.uleb128 0
 6420              	.LLSDACSE1419:
 6421 05ea 03       		.byte	0x3
 6422 05eb 00       		.byte	0
 6423 05ec 02       		.byte	0x2
 6424 05ed 7D       		.byte	0x7d
 6425 05ee 01       		.byte	0x1
 6426 05ef 7D       		.byte	0x7d
 6427 05f0 00       		.byte	0
 6428 05f1 7D       		.byte	0x7d
 6429 05f2 0000     		.align 4
 6430 05f4 00000000 		.long	0
 6431              	
 6432 05f8 00000000 		.long	DW.ref._ZTISt9exception-.
 6433 05fc 00000000 		.long	DW.ref._ZTIN8UnitTest15AssertExceptionE-.
 6434              	.LLSDATT1419:
 6435              		.text
 6437 2a0d 90       		.align 2
 6438 2a0e 6690     		.p2align 4,,15
 6440              	_ZNK12_GLOBAL__N_153TestTestRunnerFixtureSlowTestFailsForLowTimeThreshold7RunImplEv:
 6441              	.LFB1289:
 6442              		.cfi_startproc
 6443              		.cfi_personality 0x9b,DW.ref.__gxx_personality_v0
 6444              		.cfi_lsda 0x1b,.LLSDA1289
 6445 2a10 4156     		pushq	%r14
 6446              		.cfi_def_cfa_offset 16
 6447              		.cfi_offset 14, -16
 6448 2a12 4155     		pushq	%r13
 6449              		.cfi_def_cfa_offset 24
 6450              		.cfi_offset 13, -24
 6451 2a14 4989FD   		movq	%rdi, %r13
 6452 2a17 4154     		pushq	%r12
 6453              		.cfi_def_cfa_offset 32
 6454              		.cfi_offset 12, -32
 6455 2a19 55       		pushq	%rbp
 6456              		.cfi_def_cfa_offset 40
 6457              		.cfi_offset 6, -40
 6458 2a1a 488D6F08 		leaq	8(%rdi), %rbp
 6459 2a1e 53       		pushq	%rbx
 6460              		.cfi_def_cfa_offset 48
 6461              		.cfi_offset 3, -48
 6462 2a1f 4881EC90 		subq	$2192, %rsp
 6462      080000
 6463              		.cfi_def_cfa_offset 2240
 6464 2a26 488D5C24 		leaq	32(%rsp), %rbx
 6464      20
 6465 2a2b 64488B04 		movq	%fs:40, %rax
 6465      25280000 
 6465      00
 6466 2a34 48898424 		movq	%rax, 2184(%rsp)
 6466      88080000 
 6467 2a3c 31C0     		xorl	%eax, %eax
 6468 2a3e 488D7318 		leaq	24(%rbx), %rsi
 6469 2a42 4889DF   		movq	%rbx, %rdi
 6470              	.LEHB223:
 6471 2a45 E8000000 		call	_ZN8UnitTest10TestRunnerC1ERNS_12TestReporterE@PLT
 6471      00
 6472              	.LEHE223:
 6473 2a4a 4C8D2500 		leaq	16+_ZTV17RecordingReporter(%rip), %r12
 6473      000000
 6474 2a51 488DBB48 		leaq	2120(%rbx), %rdi
 6474      080000
 6475 2a58 C7442440 		movl	$0, 64(%rsp)
 6475      00000000 
 6476 2a60 C7842444 		movl	$0, 580(%rsp)
 6476      02000000 
 6476      000000
 6477 2a6b C7842448 		movl	$0, 840(%rsp)
 6477      03000000 
 6477      000000
 6478 2a76 4C896424 		movq	%r12, 56(%rsp)
 6478      38
 6479 2a7b C784244C 		movl	$0, 1612(%rsp)
 6479      06000000 
 6479      000000
 6480 2a86 48C78424 		movq	$0, 2128(%rsp)
 6480      50080000 
 6480      00000000 
 6481 2a92 48C78424 		movq	$0, 2136(%rsp)
 6481      58080000 
 6481      00000000 
 6482 2a9e C7842460 		movl	$0, 2144(%rsp)
 6482      08000000 
 6482      000000
 6483 2aa9 C6442444 		movb	$0, 68(%rsp)
 6483      00
 6484 2aae C6842444 		movb	$0, 324(%rsp)
 6484      01000000 
 6485 2ab6 C6842448 		movb	$0, 584(%rsp)
 6485      02000000 
 6486 2abe C684244C 		movb	$0, 844(%rsp)
 6486      03000000 
 6487 2ac6 C684244C 		movb	$0, 1100(%rsp)
 6487      04000000 
 6488 2ace C684244C 		movb	$0, 1356(%rsp)
 6488      05000000 
 6489 2ad6 C6842450 		movb	$0, 1616(%rsp)
 6489      06000000 
 6490 2ade C6842450 		movb	$0, 1872(%rsp)
 6490      07000000 
 6491              	.LEHB224:
 6492 2ae6 E8000000 		call	_ZN8UnitTest8TestListC1Ev@PLT
 6492      00
 6493              	.LEHE224:
 6494 2aeb 4889EE   		movq	%rbp, %rsi
 6495 2aee 4889DF   		movq	%rbx, %rdi
 6496 2af1 4889AC24 		movq	%rbp, 2168(%rsp)
 6496      78080000 
 6497              	.LEHB225:
 6498 2af9 E832FBFF 		call	_ZN8UnitTest11ExecuteTestIN12_GLOBAL__N_155TestRunnerFixtureSlowTestFailsForLowTimeThresholdH
 6498      FF
 6499              	.LEHE225:
 6500 2afe 488D7B18 		leaq	24(%rbx), %rdi
 6501 2b02 4C896424 		movq	%r12, 56(%rsp)
 6501      38
 6502              	.LEHB226:
 6503 2b07 E8000000 		call	_ZN8UnitTest12TestReporterD2Ev@PLT
 6503      00
 6504              	.LEHE226:
 6505 2b0c 4889DF   		movq	%rbx, %rdi
 6506              	.LEHB227:
 6507 2b0f E8000000 		call	_ZN8UnitTest10TestRunnerD1Ev@PLT
 6507      00
 6508              	.LEHE227:
 6509              	.L603:
 6510 2b14 488B8424 		movq	2184(%rsp), %rax
 6510      88080000 
 6511 2b1c 64483304 		xorq	%fs:40, %rax
 6511      25280000 
 6511      00
 6512 2b25 7510     		jne	.L651
 6513 2b27 4881C490 		addq	$2192, %rsp
 6513      080000
 6514              		.cfi_remember_state
 6515              		.cfi_def_cfa_offset 48
 6516 2b2e 5B       		popq	%rbx
 6517              		.cfi_def_cfa_offset 40
 6518 2b2f 5D       		popq	%rbp
 6519              		.cfi_def_cfa_offset 32
 6520 2b30 415C     		popq	%r12
 6521              		.cfi_def_cfa_offset 24
 6522 2b32 415D     		popq	%r13
 6523              		.cfi_def_cfa_offset 16
 6524 2b34 415E     		popq	%r14
 6525              		.cfi_def_cfa_offset 8
 6526 2b36 C3       		ret
 6527              	.L651:
 6528              		.cfi_restore_state
 6529 2b37 E8000000 		call	__stack_chk_fail@PLT
 6529      00
 6530              	.L623:
 6531 2b3c 4889C7   		movq	%rax, %rdi
 6532              	.L609:
 6533 2b3f 4883FA01 		cmpq	$1, %rdx
 6534 2b43 0F846F01 		je	.L611
 6534      0000
 6535 2b49 4883FA02 		cmpq	$2, %rdx
 6536 2b4d 0F853101 		jne	.L652
 6536      0000
 6537              	.L612:
 6538 2b53 E8000000 		call	__cxa_begin_catch@PLT
 6538      00
 6539 2b58 4889DF   		movq	%rbx, %rdi
 6540 2b5b 4989C4   		movq	%rax, %r12
 6541              	.LEHB228:
 6542 2b5e E8000000 		call	_ZN8UnitTest15MemoryOutStreamC1Ev
 6542      00
 6543              	.LEHE228:
 6544 2b63 488D3500 		leaq	.LC11(%rip), %rsi
 6544      000000
 6545 2b6a BA150000 		movl	$21, %edx
 6545      00
 6546 2b6f 4889DF   		movq	%rbx, %rdi
 6547              	.LEHB229:
 6548 2b72 E8000000 		call	_ZSt16__ostream_insertIcSt11char_traitsIcEERSt13basic_ostreamIT_T0_ES6_PKS3_l@PLT
 6548      00
 6549 2b77 498B0424 		movq	(%r12), %rax
 6550 2b7b 4C89E7   		movq	%r12, %rdi
 6551 2b7e FF5010   		call	*16(%rax)
 6552 2b81 4889DF   		movq	%rbx, %rdi
 6553 2b84 4889C6   		movq	%rax, %rsi
 6554 2b87 E8000000 		call	_ZStlsISt11char_traitsIcEERSt13basic_ostreamIcT_ES5_PKc@PLT
 6554      00
 6555 2b8c E8000000 		call	_ZN8UnitTest11CurrentTest7ResultsEv@PLT
 6555      00
 6556 2b91 4889DF   		movq	%rbx, %rdi
 6557 2b94 4C8B20   		movq	(%rax), %r12
 6558 2b97 E8000000 		call	_ZNK8UnitTest15MemoryOutStream7GetTextEv@PLT
 6558      00
 6559 2b9c 4889C2   		movq	%rax, %rdx
 6560 2b9f 4889EE   		movq	%rbp, %rsi
 6561 2ba2 4C89E7   		movq	%r12, %rdi
 6562 2ba5 E8000000 		call	_ZN8UnitTest11TestResults13OnTestFailureERKNS_11TestDetailsEPKc@PLT
 6562      00
 6563              	.LEHE229:
 6564 2baa 4889DF   		movq	%rbx, %rdi
 6565              	.LEHB230:
 6566 2bad E8000000 		call	_ZN8UnitTest15MemoryOutStreamD1Ev
 6566      00
 6567              	.LEHE230:
 6568              	.L650:
 6569 2bb2 E8000000 		call	__cxa_end_catch@PLT
 6569      00
 6570 2bb7 E958FFFF 		jmp	.L603
 6570      FF
 6571              	.L630:
 6572 2bbc 4989C4   		movq	%rax, %r12
 6573 2bbf 4989D6   		movq	%rdx, %r14
 6574 2bc2 4889DF   		movq	%rbx, %rdi
 6575 2bc5 E8000000 		call	_ZN8UnitTest10TestRunnerD1Ev@PLT
 6575      00
 6576 2bca 4C89E7   		movq	%r12, %rdi
 6577 2bcd 4C89F2   		movq	%r14, %rdx
 6578 2bd0 E96AFFFF 		jmp	.L609
 6578      FF
 6579              	.L624:
 6580 2bd5 4989C4   		movq	%rax, %r12
 6581 2bd8 4989D6   		movq	%rdx, %r14
 6582 2bdb 4889DF   		movq	%rbx, %rdi
 6583 2bde E8000000 		call	_ZN12_GLOBAL__N_111FixtureBaseD2Ev
 6583      00
 6584 2be3 4C89E7   		movq	%r12, %rdi
 6585 2be6 4C89F2   		movq	%r14, %rdx
 6586 2be9 E951FFFF 		jmp	.L609
 6586      FF
 6587              	.L629:
 6588 2bee 4989C4   		movq	%rax, %r12
 6589 2bf1 4989D6   		movq	%rdx, %r14
 6590 2bf4 4889DF   		movq	%rbx, %rdi
 6591 2bf7 E8000000 		call	_ZN12_GLOBAL__N_111FixtureBaseD2Ev
 6591      00
 6592 2bfc 4C89E7   		movq	%r12, %rdi
 6593 2bff 4C89F2   		movq	%r14, %rdx
 6594              	.L606:
 6595 2c02 4883FA01 		cmpq	$1, %rdx
 6596 2c06 0F84AC00 		je	.L611
 6596      0000
 6597 2c0c 4883FA02 		cmpq	$2, %rdx
 6598 2c10 0F843DFF 		je	.L612
 6598      FFFF
 6599 2c16 E8000000 		call	__cxa_begin_catch@PLT
 6599      00
 6600              	.LEHB231:
 6601 2c1b E8000000 		call	_ZN8UnitTest11CurrentTest7ResultsEv@PLT
 6601      00
 6602 2c20 4889E3   		movq	%rsp, %rbx
 6603 2c23 BAB30000 		movl	$179, %edx
 6603      00
 6604 2c28 4889EE   		movq	%rbp, %rsi
 6605 2c2b 4889DF   		movq	%rbx, %rdi
 6606 2c2e 4C8B20   		movq	(%rax), %r12
 6607 2c31 E8000000 		call	_ZN8UnitTest11TestDetailsC1ERKS0_i@PLT
 6607      00
 6608 2c36 488D1500 		leaq	.LC14(%rip), %rdx
 6608      000000
 6609 2c3d 4889DE   		movq	%rbx, %rsi
 6610 2c40 4C89E7   		movq	%r12, %rdi
 6611 2c43 E8000000 		call	_ZN8UnitTest11TestResults13OnTestFailureERKNS_11TestDetailsEPKc@PLT
 6611      00
 6612              	.LEHE231:
 6613              	.L613:
 6614              	.LEHB232:
 6615 2c48 E8000000 		call	__cxa_end_catch@PLT
 6615      00
 6616              	.LEHE232:
 6617 2c4d E9C2FEFF 		jmp	.L603
 6617      FF
 6618              	.L631:
 6619 2c52 4889C7   		movq	%rax, %rdi
 6620 2c55 EBAB     		jmp	.L606
 6621              	.L628:
 6622 2c57 4889C3   		movq	%rax, %rbx
 6623 2c5a E8000000 		call	__cxa_end_catch@PLT
 6623      00
 6624 2c5f 4889DF   		movq	%rbx, %rdi
 6625              	.LEHB233:
 6626 2c62 E8000000 		call	_Unwind_Resume@PLT
 6626      00
 6627              	.LEHE233:
 6628              	.L627:
 6629 2c67 4889DF   		movq	%rbx, %rdi
 6630 2c6a 4889C5   		movq	%rax, %rbp
 6631 2c6d E8000000 		call	_ZN8UnitTest15MemoryOutStreamD1Ev
 6631      00
 6632              	.L616:
 6633 2c72 E8000000 		call	__cxa_end_catch@PLT
 6633      00
 6634 2c77 4889EF   		movq	%rbp, %rdi
 6635              	.LEHB234:
 6636 2c7a E8000000 		call	_Unwind_Resume@PLT
 6636      00
 6637              	.LEHE234:
 6638              	.L626:
 6639 2c7f 4889C5   		movq	%rax, %rbp
 6640 2c82 EBEE     		jmp	.L616
 6641              	.L652:
 6642 2c84 E8000000 		call	__cxa_begin_catch@PLT
 6642      00
 6643              	.LEHB235:
 6644 2c89 E8000000 		call	_ZN8UnitTest11CurrentTest7ResultsEv@PLT
 6644      00
 6645 2c8e 4889E3   		movq	%rsp, %rbx
 6646 2c91 BAB30000 		movl	$179, %edx
 6646      00
 6647 2c96 4889EE   		movq	%rbp, %rsi
 6648 2c99 4889DF   		movq	%rbx, %rdi
 6649 2c9c 4C8B20   		movq	(%rax), %r12
 6650 2c9f E8000000 		call	_ZN8UnitTest11TestDetailsC1ERKS0_i@PLT
 6650      00
 6651 2ca4 488D1500 		leaq	.LC13(%rip), %rdx
 6651      000000
 6652 2cab 4889DE   		movq	%rbx, %rsi
 6653 2cae 4C89E7   		movq	%r12, %rdi
 6654 2cb1 E8000000 		call	_ZN8UnitTest11TestResults13OnTestFailureERKNS_11TestDetailsEPKc@PLT
 6654      00
 6655              	.LEHE235:
 6656 2cb6 EB90     		jmp	.L613
 6657              	.L611:
 6658 2cb8 E8000000 		call	__cxa_begin_catch@PLT
 6658      00
 6659 2cbd 4889C3   		movq	%rax, %rbx
 6660              	.LEHB236:
 6661 2cc0 E8000000 		call	_ZN8UnitTest11CurrentTest7ResultsEv@PLT
 6661      00
 6662 2cc5 488B28   		movq	(%rax), %rbp
 6663 2cc8 488B03   		movq	(%rbx), %rax
 6664 2ccb 4889DF   		movq	%rbx, %rdi
 6665 2cce FF5010   		call	*16(%rax)
 6666 2cd1 4889DF   		movq	%rbx, %rdi
 6667 2cd4 4989C4   		movq	%rax, %r12
 6668 2cd7 E8000000 		call	_ZNK8UnitTest15AssertException10LineNumberEv@PLT
 6668      00
 6669 2cdc 4889DF   		movq	%rbx, %rdi
 6670 2cdf 4189C6   		movl	%eax, %r14d
 6671 2ce2 E8000000 		call	_ZNK8UnitTest15AssertException8FilenameEv@PLT
 6671      00
 6672 2ce7 498B5508 		movq	8(%r13), %rdx
 6673 2ceb 498B7510 		movq	16(%r13), %rsi
 6674 2cef 4889E3   		movq	%rsp, %rbx
 6675 2cf2 4589F0   		movl	%r14d, %r8d
 6676 2cf5 4889C1   		movq	%rax, %rcx
 6677 2cf8 4889DF   		movq	%rbx, %rdi
 6678 2cfb E8000000 		call	_ZN8UnitTest11TestDetailsC1EPKcS2_S2_i@PLT
 6678      00
 6679 2d00 4C89E2   		movq	%r12, %rdx
 6680 2d03 4889DE   		movq	%rbx, %rsi
 6681 2d06 4889EF   		movq	%rbp, %rdi
 6682 2d09 E8000000 		call	_ZN8UnitTest11TestResults13OnTestFailureERKNS_11TestDetailsEPKc@PLT
 6682      00
 6683              	.LEHE236:
 6684 2d0e E99FFEFF 		jmp	.L650
 6684      FF
 6685              	.L625:
 6686 2d13 4889C3   		movq	%rax, %rbx
 6687 2d16 E8000000 		call	__cxa_end_catch@PLT
 6687      00
 6688 2d1b 4889DF   		movq	%rbx, %rdi
 6689              	.LEHB237:
 6690 2d1e E8000000 		call	_Unwind_Resume@PLT
 6690      00
 6691              	.LEHE237:
 6692              		.cfi_endproc
 6693              	.LFE1289:
 6694              		.section	.gcc_except_table
 6695              		.align 4
 6696              	.LLSDA1289:
 6697 0600 FF       		.byte	0xff
 6698 0601 9B       		.byte	0x9b
 6699 0602 6D       		.uleb128 .LLSDATT1289-.LLSDATTD1289
 6700              	.LLSDATTD1289:
 6701 0603 01       		.byte	0x1
 6702 0604 55       		.uleb128 .LLSDACSE1289-.LLSDACSB1289
 6703              	.LLSDACSB1289:
 6704 0605 35       		.uleb128 .LEHB223-.LFB1289
 6705 0606 05       		.uleb128 .LEHE223-.LEHB223
 6706 0607 C204     		.uleb128 .L631-.LFB1289
 6707 0609 05       		.uleb128 0x5
 6708 060a D601     		.uleb128 .LEHB224-.LFB1289
 6709 060c 05       		.uleb128 .LEHE224-.LEHB224
 6710 060d DE03     		.uleb128 .L629-.LFB1289
 6711 060f 07       		.uleb128 0x7
 6712 0610 E901     		.uleb128 .LEHB225-.LFB1289
 6713 0612 05       		.uleb128 .LEHE225-.LEHB225
 6714 0613 C503     		.uleb128 .L624-.LFB1289
 6715 0615 07       		.uleb128 0x7
 6716 0616 F701     		.uleb128 .LEHB226-.LFB1289
 6717 0618 05       		.uleb128 .LEHE226-.LEHB226
 6718 0619 AC03     		.uleb128 .L630-.LFB1289
 6719 061b 07       		.uleb128 0x7
 6720 061c FF01     		.uleb128 .LEHB227-.LFB1289
 6721 061e 05       		.uleb128 .LEHE227-.LEHB227
 6722 061f AC02     		.uleb128 .L623-.LFB1289
 6723 0621 05       		.uleb128 0x5
 6724 0622 CE02     		.uleb128 .LEHB228-.LFB1289
 6725 0624 05       		.uleb128 .LEHE228-.LEHB228
 6726 0625 EF04     		.uleb128 .L626-.LFB1289
 6727 0627 00       		.uleb128 0
 6728 0628 E202     		.uleb128 .LEHB229-.LFB1289
 6729 062a 38       		.uleb128 .LEHE229-.LEHB229
 6730 062b D704     		.uleb128 .L627-.LFB1289
 6731 062d 00       		.uleb128 0
 6732 062e 9D03     		.uleb128 .LEHB230-.LFB1289
 6733 0630 05       		.uleb128 .LEHE230-.LEHB230
 6734 0631 EF04     		.uleb128 .L626-.LFB1289
 6735 0633 00       		.uleb128 0
 6736 0634 8B04     		.uleb128 .LEHB231-.LFB1289
 6737 0636 2D       		.uleb128 .LEHE231-.LEHB231
 6738 0637 C704     		.uleb128 .L628-.LFB1289
 6739 0639 00       		.uleb128 0
 6740 063a B804     		.uleb128 .LEHB232-.LFB1289
 6741 063c 05       		.uleb128 .LEHE232-.LEHB232
 6742 063d 00       		.uleb128 0
 6743 063e 00       		.uleb128 0
 6744 063f D204     		.uleb128 .LEHB233-.LFB1289
 6745 0641 05       		.uleb128 .LEHE233-.LEHB233
 6746 0642 00       		.uleb128 0
 6747 0643 00       		.uleb128 0
 6748 0644 EA04     		.uleb128 .LEHB234-.LFB1289
 6749 0646 05       		.uleb128 .LEHE234-.LEHB234
 6750 0647 00       		.uleb128 0
 6751 0648 00       		.uleb128 0
 6752 0649 F904     		.uleb128 .LEHB235-.LFB1289
 6753 064b 2D       		.uleb128 .LEHE235-.LEHB235
 6754 064c C704     		.uleb128 .L628-.LFB1289
 6755 064e 00       		.uleb128 0
 6756 064f B005     		.uleb128 .LEHB236-.LFB1289
 6757 0651 4E       		.uleb128 .LEHE236-.LEHB236
 6758 0652 8306     		.uleb128 .L625-.LFB1289
 6759 0654 00       		.uleb128 0
 6760 0655 8E06     		.uleb128 .LEHB237-.LFB1289
 6761 0657 05       		.uleb128 .LEHE237-.LEHB237
 6762 0658 00       		.uleb128 0
 6763 0659 00       		.uleb128 0
 6764              	.LLSDACSE1289:
 6765 065a 03       		.byte	0x3
 6766 065b 00       		.byte	0
 6767 065c 02       		.byte	0x2
 6768 065d 7D       		.byte	0x7d
 6769 065e 01       		.byte	0x1
 6770 065f 7D       		.byte	0x7d
 6771 0660 00       		.byte	0
 6772 0661 7D       		.byte	0x7d
 6773 0662 0000     		.align 4
 6774 0664 00000000 		.long	0
 6775              	
 6776 0668 00000000 		.long	DW.ref._ZTISt9exception-.
 6777 066c 00000000 		.long	DW.ref._ZTIN8UnitTest15AssertExceptionE-.
 6778              	.LLSDATT1289:
 6779              		.text
 6781 2d23 0F1F0066 		.p2align 4,,15
 6781      2E0F1F84 
 6781      00000000 
 6781      00
 6783              	_ZN8UnitTest11ExecuteTestIN12_GLOBAL__N_157TestRunnerFixtureSlowTestPassesForHighTimeThresholdHelpe
 6784              	.LFB1418:
 6785              		.cfi_startproc
 6786              		.cfi_personality 0x9b,DW.ref.__gxx_personality_v0
 6787              		.cfi_lsda 0x1b,.LLSDA1418
 6788 2d30 4155     		pushq	%r13
 6789              		.cfi_def_cfa_offset 16
 6790              		.cfi_offset 13, -16
 6791 2d32 4154     		pushq	%r12
 6792              		.cfi_def_cfa_offset 24
 6793              		.cfi_offset 12, -24
 6794 2d34 55       		pushq	%rbp
 6795              		.cfi_def_cfa_offset 32
 6796              		.cfi_offset 6, -32
 6797 2d35 53       		pushq	%rbx
 6798              		.cfi_def_cfa_offset 40
 6799              		.cfi_offset 3, -40
 6800 2d36 4889F3   		movq	%rsi, %rbx
 6801 2d39 4881ECD8 		subq	$1752, %rsp
 6801      060000
 6802              		.cfi_def_cfa_offset 1792
 6803 2d40 48893C24 		movq	%rdi, (%rsp)
 6804 2d44 48897424 		movq	%rsi, 8(%rsp)
 6804      08
 6805 2d49 64488B04 		movq	%fs:40, %rax
 6805      25280000 
 6805      00
 6806 2d52 48898424 		movq	%rax, 1736(%rsp)
 6806      C8060000 
 6807 2d5a 31C0     		xorl	%eax, %eax
 6808              	.LEHB238:
 6809 2d5c E8000000 		call	_ZN8UnitTest11CurrentTest7DetailsEv@PLT
 6809      00
 6810              	.LEHE238:
 6811 2d61 488DBC24 		leaq	608(%rsp), %rdi
 6811      60020000 
 6812 2d69 488918   		movq	%rbx, (%rax)
 6813              	.LEHB239:
 6814 2d6c E8000000 		call	_ZN8UnitTest16SignalTranslatorC1Ev@PLT
 6814      00
 6815              	.LEHE239:
 6816 2d71 488B3D00 		movq	_ZN8UnitTest16SignalTranslator12s_jumpTargetE(%rip), %rdi
 6816      000000
 6817 2d78 BE010000 		movl	$1, %esi
 6817      00
 6818 2d7d E8000000 		call	__sigsetjmp@PLT
 6818      00
 6819 2d82 85C0     		testl	%eax, %eax
 6820 2d84 742A     		je	.L655
 6821 2d86 BF080000 		movl	$8, %edi
 6821      00
 6822 2d8b E8000000 		call	__cxa_allocate_exception@PLT
 6822      00
 6823 2d90 488D0D00 		leaq	.LC3(%rip), %rcx
 6823      000000
 6824 2d97 488D3500 		leaq	_ZTIPKc(%rip), %rsi
 6824      000000
 6825 2d9e 31D2     		xorl	%edx, %edx
 6826 2da0 4889C7   		movq	%rax, %rdi
 6827 2da3 488908   		movq	%rcx, (%rax)
 6828              	.LEHB240:
 6829 2da6 E8000000 		call	__cxa_throw@PLT
 6829      00
 6830 2dab 0F1F4400 		.p2align 4,,10
 6830      00
 6831              		.p2align 3
 6832              	.L655:
 6833 2db0 488DBC24 		leaq	128(%rsp), %rdi
 6833      80000000 
 6834 2db8 488D0D00 		leaq	.LC4(%rip), %rcx
 6834      000000
 6835 2dbf 488D1500 		leaq	.LC5(%rip), %rdx
 6835      000000
 6836 2dc6 488D3500 		leaq	.LC6(%rip), %rsi
 6836      000000
 6837 2dcd 41B87B00 		movl	$123, %r8d
 6837      0000
 6838 2dd3 E8000000 		call	_ZN8UnitTest4TestC2EPKcS2_S2_i@PLT
 6838      00
 6839              	.LEHE240:
 6840 2dd8 488B2C24 		movq	(%rsp), %rbp
 6841 2ddc 488D0500 		leaq	16+_ZTVN12_GLOBAL__N_18SlowTestE(%rip), %rax
 6841      000000
 6842 2de3 488DB424 		leaq	128(%rsp), %rsi
 6842      80000000 
 6843 2deb 48898424 		movq	%rax, 128(%rsp)
 6843      80000000 
 6844 2df3 488D9D48 		leaq	2120(%rbp), %rbx
 6844      080000
 6845 2dfa 4889DF   		movq	%rbx, %rdi
 6846              	.LEHB241:
 6847 2dfd E8000000 		call	_ZN8UnitTest8TestList3AddEPNS_4TestE@PLT
 6847      00
 6848 2e02 E8000000 		call	_ZN8UnitTest11CurrentTest7ResultsEv@PLT
 6848      00
 6849 2e07 4C8B28   		movq	(%rax), %r13
 6850 2e0a E8000000 		call	_ZN8UnitTest11CurrentTest7DetailsEv@PLT
 6850      00
 6851 2e0f 4889DF   		movq	%rbx, %rdi
 6852 2e12 4C8B20   		movq	(%rax), %r12
 6853 2e15 E8000000 		call	_ZNK8UnitTest8TestList7GetHeadEv@PLT
 6853      00
 6854 2e1a 4885C0   		testq	%rax, %rax
 6855 2e1d 4889C3   		movq	%rax, %rbx
 6856 2e20 0F85DC00 		jne	.L658
 6856      0000
 6857 2e26 662E0F1F 		.p2align 4,,10
 6857      84000000 
 6857      0000
 6858              		.p2align 3
 6859              	.L656:
 6860 2e30 488B1C24 		movq	(%rsp), %rbx
 6861 2e34 4889DF   		movq	%rbx, %rdi
 6862 2e37 E8000000 		call	_ZNK8UnitTest10TestRunner6FinishEv@PLT
 6862      00
 6863 2e3c E8000000 		call	_ZN8UnitTest11CurrentTest7ResultsEv@PLT
 6863      00
 6864 2e41 4C8928   		movq	%r13, (%rax)
 6865 2e44 E8000000 		call	_ZN8UnitTest11CurrentTest7DetailsEv@PLT
 6865      00
 6866              	.LEHE241:
 6867 2e49 4C8920   		movq	%r12, (%rax)
 6868              	.LEHB242:
 6869 2e4c E8000000 		call	_ZN8UnitTest11CurrentTest7DetailsEv@PLT
 6869      00
 6870 2e51 488B30   		movq	(%rax), %rsi
 6871 2e54 488D7C24 		leaq	96(%rsp), %rdi
 6871      60
 6872 2e59 BAB00000 		movl	$176, %edx
 6872      00
 6873 2e5e E8000000 		call	_ZN8UnitTest11TestDetailsC1ERKS0_i@PLT
 6873      00
 6874 2e63 4881C324 		addq	$548, %rbx
 6874      020000
 6875 2e6a C744241C 		movl	$0, 28(%rsp)
 6875      00000000 
 6876 2e72 E8000000 		call	_ZN8UnitTest11CurrentTest7ResultsEv@PLT
 6876      00
 6877 2e77 488B38   		movq	(%rax), %rdi
 6878 2e7a 488D4C24 		leaq	96(%rsp), %rcx
 6878      60
 6879 2e7f 488D7424 		leaq	28(%rsp), %rsi
 6879      1C
 6880 2e84 4889DA   		movq	%rbx, %rdx
 6881 2e87 E8000000 		call	_ZN8UnitTest10CheckEqualIiiEEvRNS_11TestResultsERKT_RKT0_RKNS_11TestDetailsE
 6881      00
 6882              	.LEHE242:
 6883              	.L662:
 6884 2e8c 488D0500 		leaq	16+_ZTVN12_GLOBAL__N_18SlowTestE(%rip), %rax
 6884      000000
 6885 2e93 488DBC24 		leaq	128(%rsp), %rdi
 6885      80000000 
 6886 2e9b 48898424 		movq	%rax, 128(%rsp)
 6886      80000000 
 6887              	.LEHB243:
 6888 2ea3 E8000000 		call	_ZN8UnitTest4TestD2Ev@PLT
 6888      00
 6889              	.LEHE243:
 6890 2ea8 488DBC24 		leaq	608(%rsp), %rdi
 6890      60020000 
 6891              	.LEHB244:
 6892 2eb0 E8000000 		call	_ZN8UnitTest16SignalTranslatorD1Ev@PLT
 6892      00
 6893              	.LEHE244:
 6894              	.L653:
 6895 2eb5 488B8424 		movq	1736(%rsp), %rax
 6895      C8060000 
 6896 2ebd 64483304 		xorq	%fs:40, %rax
 6896      25280000 
 6896      00
 6897 2ec6 0F85F900 		jne	.L690
 6897      0000
 6898 2ecc 4881C4D8 		addq	$1752, %rsp
 6898      060000
 6899              		.cfi_remember_state
 6900              		.cfi_def_cfa_offset 40
 6901 2ed3 5B       		popq	%rbx
 6902              		.cfi_def_cfa_offset 32
 6903 2ed4 5D       		popq	%rbp
 6904              		.cfi_def_cfa_offset 24
 6905 2ed5 415C     		popq	%r12
 6906              		.cfi_def_cfa_offset 16
 6907 2ed7 415D     		popq	%r13
 6908              		.cfi_def_cfa_offset 8
 6909 2ed9 C3       		ret
 6910 2eda 660F1F44 		.p2align 4,,10
 6910      0000
 6911              		.p2align 3
 6912              	.L657:
 6913              		.cfi_restore_state
 6914 2ee0 488B0424 		movq	(%rsp), %rax
 6915 2ee4 31C9     		xorl	%ecx, %ecx
 6916 2ee6 4889DA   		movq	%rbx, %rdx
 6917 2ee9 4889EF   		movq	%rbp, %rdi
 6918 2eec 488B7008 		movq	8(%rax), %rsi
 6919              	.LEHB245:
 6920 2ef0 E8000000 		call	_ZNK8UnitTest10TestRunner7RunTestEPNS_11TestResultsEPNS_4TestEi@PLT
 6920      00
 6921              	.L659:
 6922 2ef5 488B5B28 		movq	40(%rbx), %rbx
 6923 2ef9 4885DB   		testq	%rbx, %rbx
 6924 2efc 0F842EFF 		je	.L656
 6924      FFFF
 6925              	.L658:
 6926 2f02 31D2     		xorl	%edx, %edx
 6927 2f04 4889DE   		movq	%rbx, %rsi
 6928 2f07 4889EF   		movq	%rbp, %rdi
 6929 2f0a E8000000 		call	_ZNK8UnitTest10TestRunner13IsTestInSuiteEPKNS_4TestEPKc@PLT
 6929      00
 6930              	.LEHE245:
 6931 2f0f 84C0     		testb	%al, %al
 6932 2f11 74E2     		je	.L659
 6933 2f13 EBCB     		jmp	.L657
 6934              	.L678:
 6935 2f15 4889C3   		movq	%rax, %rbx
 6936 2f18 4889D5   		movq	%rdx, %rbp
 6937              	.L665:
 6938 2f1b 488DBC24 		leaq	608(%rsp), %rdi
 6938      60020000 
 6939 2f23 E8000000 		call	_ZN8UnitTest16SignalTranslatorD1Ev@PLT
 6939      00
 6940 2f28 4889DF   		movq	%rbx, %rdi
 6941 2f2b 4889EA   		movq	%rbp, %rdx
 6942              	.L666:
 6943 2f2e 4883FA01 		cmpq	$1, %rdx
 6944 2f32 0F845D01 		je	.L668
 6944      0000
 6945 2f38 4883FA02 		cmpq	$2, %rdx
 6946 2f3c 0F852B01 		jne	.L691
 6946      0000
 6947 2f42 E8000000 		call	__cxa_begin_catch@PLT
 6947      00
 6948 2f47 488DBC24 		leaq	192(%rsp), %rdi
 6948      C0000000 
 6949 2f4f 4889C3   		movq	%rax, %rbx
 6950              	.LEHB246:
 6951 2f52 E8000000 		call	_ZN8UnitTest15MemoryOutStreamC1Ev
 6951      00
 6952              	.LEHE246:
 6953 2f57 488DBC24 		leaq	192(%rsp), %rdi
 6953      C0000000 
 6954 2f5f 488D3500 		leaq	.LC11(%rip), %rsi
 6954      000000
 6955 2f66 BA150000 		movl	$21, %edx
 6955      00
 6956              	.LEHB247:
 6957 2f6b E8000000 		call	_ZSt16__ostream_insertIcSt11char_traitsIcEERSt13basic_ostreamIT_T0_ES6_PKS3_l@PLT
 6957      00
 6958 2f70 488B03   		movq	(%rbx), %rax
 6959 2f73 4889DF   		movq	%rbx, %rdi
 6960 2f76 FF5010   		call	*16(%rax)
 6961 2f79 488DBC24 		leaq	192(%rsp), %rdi
 6961      C0000000 
 6962 2f81 4889C6   		movq	%rax, %rsi
 6963 2f84 E8000000 		call	_ZStlsISt11char_traitsIcEERSt13basic_ostreamIcT_ES5_PKc@PLT
 6963      00
 6964 2f89 E8000000 		call	_ZN8UnitTest11CurrentTest7ResultsEv@PLT
 6964      00
 6965 2f8e 488DBC24 		leaq	192(%rsp), %rdi
 6965      C0000000 
 6966 2f96 488B18   		movq	(%rax), %rbx
 6967 2f99 E8000000 		call	_ZNK8UnitTest15MemoryOutStream7GetTextEv@PLT
 6967      00
 6968 2f9e 488B7424 		movq	8(%rsp), %rsi
 6968      08
 6969 2fa3 4889C2   		movq	%rax, %rdx
 6970 2fa6 4889DF   		movq	%rbx, %rdi
 6971 2fa9 E8000000 		call	_ZN8UnitTest11TestResults13OnTestFailureERKNS_11TestDetailsEPKc@PLT
 6971      00
 6972              	.LEHE247:
 6973 2fae 488DBC24 		leaq	192(%rsp), %rdi
 6973      C0000000 
 6974              	.LEHB248:
 6975 2fb6 E8000000 		call	_ZN8UnitTest15MemoryOutStreamD1Ev
 6975      00
 6976              	.LEHE248:
 6977              	.L688:
 6978 2fbb E8000000 		call	__cxa_end_catch@PLT
 6978      00
 6979 2fc0 E9F0FEFF 		jmp	.L653
 6979      FF
 6980              	.L690:
 6981 2fc5 E8000000 		call	__stack_chk_fail@PLT
 6981      00
 6982              	.L677:
 6983 2fca 4889C7   		movq	%rax, %rdi
 6984 2fcd E95CFFFF 		jmp	.L666
 6984      FF
 6985              	.L685:
 6986 2fd2 4889C7   		movq	%rax, %rdi
 6987 2fd5 E8000000 		call	__cxa_begin_catch@PLT
 6987      00
 6988              	.LEHB249:
 6989 2fda E8000000 		call	_ZN8UnitTest11CurrentTest7ResultsEv@PLT
 6989      00
 6990 2fdf 488B18   		movq	(%rax), %rbx
 6991 2fe2 E8000000 		call	_ZN8UnitTest11CurrentTest7DetailsEv@PLT
 6991      00
 6992 2fe7 488B30   		movq	(%rax), %rsi
 6993 2fea 488D7C24 		leaq	64(%rsp), %rdi
 6993      40
 6994 2fef BAB00000 		movl	$176, %edx
 6994      00
 6995 2ff4 E8000000 		call	_ZN8UnitTest11TestDetailsC1ERKS0_i@PLT
 6995      00
 6996 2ff9 488D7424 		leaq	64(%rsp), %rsi
 6996      40
 6997 2ffe 488D1500 		leaq	.LC26(%rip), %rdx
 6997      000000
 6998 3005 4889DF   		movq	%rbx, %rdi
 6999 3008 E8000000 		call	_ZN8UnitTest11TestResults13OnTestFailureERKNS_11TestDetailsEPKc@PLT
 6999      00
 7000              	.LEHE249:
 7001              	.LEHB250:
 7002 300d E8000000 		call	__cxa_end_catch@PLT
 7002      00
 7003              	.LEHE250:
 7004 3012 E975FEFF 		jmp	.L662
 7004      FF
 7005              	.L683:
 7006 3017 4889C3   		movq	%rax, %rbx
 7007 301a 4889D5   		movq	%rdx, %rbp
 7008              	.L664:
 7009 301d 488D0500 		leaq	16+_ZTVN12_GLOBAL__N_18SlowTestE(%rip), %rax
 7009      000000
 7010 3024 488DBC24 		leaq	128(%rsp), %rdi
 7010      80000000 
 7011 302c 48898424 		movq	%rax, 128(%rsp)
 7011      80000000 
 7012 3034 E8000000 		call	_ZN8UnitTest4TestD2Ev@PLT
 7012      00
 7013 3039 E9DDFEFF 		jmp	.L665
 7013      FF
 7014              	.L684:
 7015 303e 4889C3   		movq	%rax, %rbx
 7016 3041 4889D5   		movq	%rdx, %rbp
 7017 3044 E8000000 		call	__cxa_end_catch@PLT
 7017      00
 7018 3049 EBD2     		jmp	.L664
 7019              	.L681:
 7020 304b 488DBC24 		leaq	192(%rsp), %rdi
 7020      C0000000 
 7021 3053 4889C3   		movq	%rax, %rbx
 7022 3056 E8000000 		call	_ZN8UnitTest15MemoryOutStreamD1Ev
 7022      00
 7023              	.L674:
 7024 305b E8000000 		call	__cxa_end_catch@PLT
 7024      00
 7025 3060 4889DF   		movq	%rbx, %rdi
 7026              	.LEHB251:
 7027 3063 E8000000 		call	_Unwind_Resume@PLT
 7027      00
 7028              	.LEHE251:
 7029              	.L680:
 7030              	.L689:
 7031 3068 4889C3   		movq	%rax, %rbx
 7032 306b EBEE     		jmp	.L674
 7033              	.L691:
 7034 306d E8000000 		call	__cxa_begin_catch@PLT
 7034      00
 7035              	.LEHB252:
 7036 3072 E8000000 		call	_ZN8UnitTest11CurrentTest7ResultsEv@PLT
 7036      00
 7037 3077 488B7424 		movq	8(%rsp), %rsi
 7037      08
 7038 307c 488B38   		movq	(%rax), %rdi
 7039 307f 488D1500 		leaq	.LC12(%rip), %rdx
 7039      000000
 7040 3086 E8000000 		call	_ZN8UnitTest11TestResults13OnTestFailureERKNS_11TestDetailsEPKc@PLT
 7040      00
 7041              	.LEHE252:
 7042              	.LEHB253:
 7043 308b E8000000 		call	__cxa_end_catch@PLT
 7043      00
 7044              	.LEHE253:
 7045 3090 E920FEFF 		jmp	.L653
 7045      FF
 7046              	.L668:
 7047 3095 E8000000 		call	__cxa_begin_catch@PLT
 7047      00
 7048 309a 4889C3   		movq	%rax, %rbx
 7049              	.LEHB254:
 7050 309d E8000000 		call	_ZN8UnitTest11CurrentTest7ResultsEv@PLT
 7050      00
 7051 30a2 488B28   		movq	(%rax), %rbp
 7052 30a5 488B03   		movq	(%rbx), %rax
 7053 30a8 4889DF   		movq	%rbx, %rdi
 7054 30ab FF5010   		call	*16(%rax)
 7055 30ae 4889DF   		movq	%rbx, %rdi
 7056 30b1 4989C4   		movq	%rax, %r12
 7057 30b4 E8000000 		call	_ZNK8UnitTest15AssertException10LineNumberEv@PLT
 7057      00
 7058 30b9 4889DF   		movq	%rbx, %rdi
 7059 30bc 4189C5   		movl	%eax, %r13d
 7060 30bf E8000000 		call	_ZNK8UnitTest15AssertException8FilenameEv@PLT
 7060      00
 7061 30c4 488B5424 		movq	8(%rsp), %rdx
 7061      08
 7062 30c9 488D7C24 		leaq	32(%rsp), %rdi
 7062      20
 7063 30ce 4589E8   		movl	%r13d, %r8d
 7064 30d1 4889C1   		movq	%rax, %rcx
 7065 30d4 488B7208 		movq	8(%rdx), %rsi
 7066 30d8 488B12   		movq	(%rdx), %rdx
 7067 30db E8000000 		call	_ZN8UnitTest11TestDetailsC1EPKcS2_S2_i@PLT
 7067      00
 7068 30e0 488D7424 		leaq	32(%rsp), %rsi
 7068      20
 7069 30e5 4C89E2   		movq	%r12, %rdx
 7070 30e8 4889EF   		movq	%rbp, %rdi
 7071 30eb E8000000 		call	_ZN8UnitTest11TestResults13OnTestFailureERKNS_11TestDetailsEPKc@PLT
 7071      00
 7072              	.LEHE254:
 7073 30f0 E9C6FEFF 		jmp	.L688
 7073      FF
 7074              	.L682:
 7075 30f5 4889C3   		movq	%rax, %rbx
 7076 30f8 E8000000 		call	__cxa_end_catch@PLT
 7076      00
 7077 30fd 4889DF   		movq	%rbx, %rdi
 7078              	.LEHB255:
 7079 3100 E8000000 		call	_Unwind_Resume@PLT
 7079      00
 7080              	.LEHE255:
 7081              	.L679:
 7082 3105 E95EFFFF 		jmp	.L689
 7082      FF
 7083              		.cfi_endproc
 7084              	.LFE1418:
 7085              		.section	.gcc_except_table
 7086              		.align 4
 7087              	.LLSDA1418:
 7088 0670 FF       		.byte	0xff
 7089 0671 9B       		.byte	0x9b
 7090 0672 7D       		.uleb128 .LLSDATT1418-.LLSDATTD1418
 7091              	.LLSDATTD1418:
 7092 0673 01       		.byte	0x1
 7093 0674 65       		.uleb128 .LLSDACSE1418-.LLSDACSB1418
 7094              	.LLSDACSB1418:
 7095 0675 2C       		.uleb128 .LEHB238-.LFB1418
 7096 0676 05       		.uleb128 .LEHE238-.LEHB238
 7097 0677 00       		.uleb128 0
 7098 0678 00       		.uleb128 0
 7099 0679 3C       		.uleb128 .LEHB239-.LFB1418
 7100 067a 05       		.uleb128 .LEHE239-.LEHB239
 7101 067b 9A05     		.uleb128 .L677-.LFB1418
 7102 067d 05       		.uleb128 0x5
 7103 067e 76       		.uleb128 .LEHB240-.LFB1418
 7104 067f 32       		.uleb128 .LEHE240-.LEHB240
 7105 0680 E503     		.uleb128 .L678-.LFB1418
 7106 0682 07       		.uleb128 0x7
 7107 0683 CD01     		.uleb128 .LEHB241-.LFB1418
 7108 0685 4C       		.uleb128 .LEHE241-.LEHB241
 7109 0686 E705     		.uleb128 .L683-.LFB1418
 7110 0688 07       		.uleb128 0x7
 7111 0689 9C02     		.uleb128 .LEHB242-.LFB1418
 7112 068b 40       		.uleb128 .LEHE242-.LEHB242
 7113 068c A205     		.uleb128 .L685-.LFB1418
 7114 068e 01       		.uleb128 0x1
 7115 068f F302     		.uleb128 .LEHB243-.LFB1418
 7116 0691 05       		.uleb128 .LEHE243-.LEHB243
 7117 0692 E503     		.uleb128 .L678-.LFB1418
 7118 0694 07       		.uleb128 0x7
 7119 0695 8003     		.uleb128 .LEHB244-.LFB1418
 7120 0697 05       		.uleb128 .LEHE244-.LEHB244
 7121 0698 9A05     		.uleb128 .L677-.LFB1418
 7122 069a 05       		.uleb128 0x5
 7123 069b C003     		.uleb128 .LEHB245-.LFB1418
 7124 069d 1F       		.uleb128 .LEHE245-.LEHB245
 7125 069e E705     		.uleb128 .L683-.LFB1418
 7126 06a0 07       		.uleb128 0x7
 7127 06a1 A204     		.uleb128 .LEHB246-.LFB1418
 7128 06a3 05       		.uleb128 .LEHE246-.LEHB246
 7129 06a4 B806     		.uleb128 .L680-.LFB1418
 7130 06a6 00       		.uleb128 0
 7131 06a7 BB04     		.uleb128 .LEHB247-.LFB1418
 7132 06a9 43       		.uleb128 .LEHE247-.LEHB247
 7133 06aa 9B06     		.uleb128 .L681-.LFB1418
 7134 06ac 00       		.uleb128 0
 7135 06ad 8605     		.uleb128 .LEHB248-.LFB1418
 7136 06af 05       		.uleb128 .LEHE248-.LEHB248
 7137 06b0 B806     		.uleb128 .L680-.LFB1418
 7138 06b2 00       		.uleb128 0
 7139 06b3 AA05     		.uleb128 .LEHB249-.LFB1418
 7140 06b5 33       		.uleb128 .LEHE249-.LEHB249
 7141 06b6 8E06     		.uleb128 .L684-.LFB1418
 7142 06b8 07       		.uleb128 0x7
 7143 06b9 DD05     		.uleb128 .LEHB250-.LFB1418
 7144 06bb 05       		.uleb128 .LEHE250-.LEHB250
 7145 06bc E705     		.uleb128 .L683-.LFB1418
 7146 06be 07       		.uleb128 0x7
 7147 06bf B306     		.uleb128 .LEHB251-.LFB1418
 7148 06c1 05       		.uleb128 .LEHE251-.LEHB251
 7149 06c2 00       		.uleb128 0
 7150 06c3 00       		.uleb128 0
 7151 06c4 C206     		.uleb128 .LEHB252-.LFB1418
 7152 06c6 19       		.uleb128 .LEHE252-.LEHB252
 7153 06c7 C507     		.uleb128 .L682-.LFB1418
 7154 06c9 00       		.uleb128 0
 7155 06ca DB06     		.uleb128 .LEHB253-.LFB1418
 7156 06cc 05       		.uleb128 .LEHE253-.LEHB253
 7157 06cd 00       		.uleb128 0
 7158 06ce 00       		.uleb128 0
 7159 06cf ED06     		.uleb128 .LEHB254-.LFB1418
 7160 06d1 53       		.uleb128 .LEHE254-.LEHB254
 7161 06d2 D507     		.uleb128 .L679-.LFB1418
 7162 06d4 00       		.uleb128 0
 7163 06d5 D007     		.uleb128 .LEHB255-.LFB1418
 7164 06d7 05       		.uleb128 .LEHE255-.LEHB255
 7165 06d8 00       		.uleb128 0
 7166 06d9 00       		.uleb128 0
 7167              	.LLSDACSE1418:
 7168 06da 03       		.byte	0x3
 7169 06db 00       		.byte	0
 7170 06dc 02       		.byte	0x2
 7171 06dd 7D       		.byte	0x7d
 7172 06de 01       		.byte	0x1
 7173 06df 7D       		.byte	0x7d
 7174 06e0 00       		.byte	0
 7175 06e1 7D       		.byte	0x7d
 7176 06e2 0000     		.align 4
 7177 06e4 00000000 		.long	0
 7178              	
 7179 06e8 00000000 		.long	DW.ref._ZTISt9exception-.
 7180 06ec 00000000 		.long	DW.ref._ZTIN8UnitTest15AssertExceptionE-.
 7181              	.LLSDATT1418:
 7182              		.text
 7184              		.align 2
 7185 310a 660F1F44 		.p2align 4,,15
 7185      0000
 7187              	_ZNK12_GLOBAL__N_155TestTestRunnerFixtureSlowTestPassesForHighTimeThreshold7RunImplEv:
 7188              	.LFB1278:
 7189              		.cfi_startproc
 7190              		.cfi_personality 0x9b,DW.ref.__gxx_personality_v0
 7191              		.cfi_lsda 0x1b,.LLSDA1278
 7192 3110 4156     		pushq	%r14
 7193              		.cfi_def_cfa_offset 16
 7194              		.cfi_offset 14, -16
 7195 3112 4155     		pushq	%r13
 7196              		.cfi_def_cfa_offset 24
 7197              		.cfi_offset 13, -24
 7198 3114 4989FD   		movq	%rdi, %r13
 7199 3117 4154     		pushq	%r12
 7200              		.cfi_def_cfa_offset 32
 7201              		.cfi_offset 12, -32
 7202 3119 55       		pushq	%rbp
 7203              		.cfi_def_cfa_offset 40
 7204              		.cfi_offset 6, -40
 7205 311a 488D6F08 		leaq	8(%rdi), %rbp
 7206 311e 53       		pushq	%rbx
 7207              		.cfi_def_cfa_offset 48
 7208              		.cfi_offset 3, -48
 7209 311f 4881EC90 		subq	$2192, %rsp
 7209      080000
 7210              		.cfi_def_cfa_offset 2240
 7211 3126 488D5C24 		leaq	32(%rsp), %rbx
 7211      20
 7212 312b 64488B04 		movq	%fs:40, %rax
 7212      25280000 
 7212      00
 7213 3134 48898424 		movq	%rax, 2184(%rsp)
 7213      88080000 
 7214 313c 31C0     		xorl	%eax, %eax
 7215 313e 488D7318 		leaq	24(%rbx), %rsi
 7216 3142 4889DF   		movq	%rbx, %rdi
 7217              	.LEHB256:
 7218 3145 E8000000 		call	_ZN8UnitTest10TestRunnerC1ERNS_12TestReporterE@PLT
 7218      00
 7219              	.LEHE256:
 7220 314a 4C8D2500 		leaq	16+_ZTV17RecordingReporter(%rip), %r12
 7220      000000
 7221 3151 488DBB48 		leaq	2120(%rbx), %rdi
 7221      080000
 7222 3158 C7442440 		movl	$0, 64(%rsp)
 7222      00000000 
 7223 3160 C7842444 		movl	$0, 580(%rsp)
 7223      02000000 
 7223      000000
 7224 316b C7842448 		movl	$0, 840(%rsp)
 7224      03000000 
 7224      000000
 7225 3176 4C896424 		movq	%r12, 56(%rsp)
 7225      38
 7226 317b C784244C 		movl	$0, 1612(%rsp)
 7226      06000000 
 7226      000000
 7227 3186 48C78424 		movq	$0, 2128(%rsp)
 7227      50080000 
 7227      00000000 
 7228 3192 48C78424 		movq	$0, 2136(%rsp)
 7228      58080000 
 7228      00000000 
 7229 319e C7842460 		movl	$0, 2144(%rsp)
 7229      08000000 
 7229      000000
 7230 31a9 C6442444 		movb	$0, 68(%rsp)
 7230      00
 7231 31ae C6842444 		movb	$0, 324(%rsp)
 7231      01000000 
 7232 31b6 C6842448 		movb	$0, 584(%rsp)
 7232      02000000 
 7233 31be C684244C 		movb	$0, 844(%rsp)
 7233      03000000 
 7234 31c6 C684244C 		movb	$0, 1100(%rsp)
 7234      04000000 
 7235 31ce C684244C 		movb	$0, 1356(%rsp)
 7235      05000000 
 7236 31d6 C6842450 		movb	$0, 1616(%rsp)
 7236      06000000 
 7237 31de C6842450 		movb	$0, 1872(%rsp)
 7237      07000000 
 7238              	.LEHB257:
 7239 31e6 E8000000 		call	_ZN8UnitTest8TestListC1Ev@PLT
 7239      00
 7240              	.LEHE257:
 7241 31eb 4889EE   		movq	%rbp, %rsi
 7242 31ee 4889DF   		movq	%rbx, %rdi
 7243 31f1 4889AC24 		movq	%rbp, 2168(%rsp)
 7243      78080000 
 7244              	.LEHB258:
 7245 31f9 E832FBFF 		call	_ZN8UnitTest11ExecuteTestIN12_GLOBAL__N_157TestRunnerFixtureSlowTestPassesForHighTimeThreshol
 7245      FF
 7246              	.LEHE258:
 7247 31fe 488D7B18 		leaq	24(%rbx), %rdi
 7248 3202 4C896424 		movq	%r12, 56(%rsp)
 7248      38
 7249              	.LEHB259:
 7250 3207 E8000000 		call	_ZN8UnitTest12TestReporterD2Ev@PLT
 7250      00
 7251              	.LEHE259:
 7252 320c 4889DF   		movq	%rbx, %rdi
 7253              	.LEHB260:
 7254 320f E8000000 		call	_ZN8UnitTest10TestRunnerD1Ev@PLT
 7254      00
 7255              	.LEHE260:
 7256              	.L692:
 7257 3214 488B8424 		movq	2184(%rsp), %rax
 7257      88080000 
 7258 321c 64483304 		xorq	%fs:40, %rax
 7258      25280000 
 7258      00
 7259 3225 7510     		jne	.L740
 7260 3227 4881C490 		addq	$2192, %rsp
 7260      080000
 7261              		.cfi_remember_state
 7262              		.cfi_def_cfa_offset 48
 7263 322e 5B       		popq	%rbx
 7264              		.cfi_def_cfa_offset 40
 7265 322f 5D       		popq	%rbp
 7266              		.cfi_def_cfa_offset 32
 7267 3230 415C     		popq	%r12
 7268              		.cfi_def_cfa_offset 24
 7269 3232 415D     		popq	%r13
 7270              		.cfi_def_cfa_offset 16
 7271 3234 415E     		popq	%r14
 7272              		.cfi_def_cfa_offset 8
 7273 3236 C3       		ret
 7274              	.L740:
 7275              		.cfi_restore_state
 7276 3237 E8000000 		call	__stack_chk_fail@PLT
 7276      00
 7277              	.L712:
 7278 323c 4889C7   		movq	%rax, %rdi
 7279              	.L698:
 7280 323f 4883FA01 		cmpq	$1, %rdx
 7281 3243 0F846F01 		je	.L700
 7281      0000
 7282 3249 4883FA02 		cmpq	$2, %rdx
 7283 324d 0F853101 		jne	.L741
 7283      0000
 7284              	.L701:
 7285 3253 E8000000 		call	__cxa_begin_catch@PLT
 7285      00
 7286 3258 4889DF   		movq	%rbx, %rdi
 7287 325b 4989C4   		movq	%rax, %r12
 7288              	.LEHB261:
 7289 325e E8000000 		call	_ZN8UnitTest15MemoryOutStreamC1Ev
 7289      00
 7290              	.LEHE261:
 7291 3263 488D3500 		leaq	.LC11(%rip), %rsi
 7291      000000
 7292 326a BA150000 		movl	$21, %edx
 7292      00
 7293 326f 4889DF   		movq	%rbx, %rdi
 7294              	.LEHB262:
 7295 3272 E8000000 		call	_ZSt16__ostream_insertIcSt11char_traitsIcEERSt13basic_ostreamIT_T0_ES6_PKS3_l@PLT
 7295      00
 7296 3277 498B0424 		movq	(%r12), %rax
 7297 327b 4C89E7   		movq	%r12, %rdi
 7298 327e FF5010   		call	*16(%rax)
 7299 3281 4889DF   		movq	%rbx, %rdi
 7300 3284 4889C6   		movq	%rax, %rsi
 7301 3287 E8000000 		call	_ZStlsISt11char_traitsIcEERSt13basic_ostreamIcT_ES5_PKc@PLT
 7301      00
 7302 328c E8000000 		call	_ZN8UnitTest11CurrentTest7ResultsEv@PLT
 7302      00
 7303 3291 4889DF   		movq	%rbx, %rdi
 7304 3294 4C8B20   		movq	(%rax), %r12
 7305 3297 E8000000 		call	_ZNK8UnitTest15MemoryOutStream7GetTextEv@PLT
 7305      00
 7306 329c 4889C2   		movq	%rax, %rdx
 7307 329f 4889EE   		movq	%rbp, %rsi
 7308 32a2 4C89E7   		movq	%r12, %rdi
 7309 32a5 E8000000 		call	_ZN8UnitTest11TestResults13OnTestFailureERKNS_11TestDetailsEPKc@PLT
 7309      00
 7310              	.LEHE262:
 7311 32aa 4889DF   		movq	%rbx, %rdi
 7312              	.LEHB263:
 7313 32ad E8000000 		call	_ZN8UnitTest15MemoryOutStreamD1Ev
 7313      00
 7314              	.LEHE263:
 7315              	.L739:
 7316 32b2 E8000000 		call	__cxa_end_catch@PLT
 7316      00
 7317 32b7 E958FFFF 		jmp	.L692
 7317      FF
 7318              	.L719:
 7319 32bc 4989C4   		movq	%rax, %r12
 7320 32bf 4989D6   		movq	%rdx, %r14
 7321 32c2 4889DF   		movq	%rbx, %rdi
 7322 32c5 E8000000 		call	_ZN8UnitTest10TestRunnerD1Ev@PLT
 7322      00
 7323 32ca 4C89E7   		movq	%r12, %rdi
 7324 32cd 4C89F2   		movq	%r14, %rdx
 7325 32d0 E96AFFFF 		jmp	.L698
 7325      FF
 7326              	.L713:
 7327 32d5 4989C4   		movq	%rax, %r12
 7328 32d8 4989D6   		movq	%rdx, %r14
 7329 32db 4889DF   		movq	%rbx, %rdi
 7330 32de E8000000 		call	_ZN12_GLOBAL__N_111FixtureBaseD2Ev
 7330      00
 7331 32e3 4C89E7   		movq	%r12, %rdi
 7332 32e6 4C89F2   		movq	%r14, %rdx
 7333 32e9 E951FFFF 		jmp	.L698
 7333      FF
 7334              	.L718:
 7335 32ee 4989C4   		movq	%rax, %r12
 7336 32f1 4989D6   		movq	%rdx, %r14
 7337 32f4 4889DF   		movq	%rbx, %rdi
 7338 32f7 E8000000 		call	_ZN12_GLOBAL__N_111FixtureBaseD2Ev
 7338      00
 7339 32fc 4C89E7   		movq	%r12, %rdi
 7340 32ff 4C89F2   		movq	%r14, %rdx
 7341              	.L695:
 7342 3302 4883FA01 		cmpq	$1, %rdx
 7343 3306 0F84AC00 		je	.L700
 7343      0000
 7344 330c 4883FA02 		cmpq	$2, %rdx
 7345 3310 0F843DFF 		je	.L701
 7345      FFFF
 7346 3316 E8000000 		call	__cxa_begin_catch@PLT
 7346      00
 7347              	.LEHB264:
 7348 331b E8000000 		call	_ZN8UnitTest11CurrentTest7ResultsEv@PLT
 7348      00
 7349 3320 4889E3   		movq	%rsp, %rbx
 7350 3323 BAAA0000 		movl	$170, %edx
 7350      00
 7351 3328 4889EE   		movq	%rbp, %rsi
 7352 332b 4889DF   		movq	%rbx, %rdi
 7353 332e 4C8B20   		movq	(%rax), %r12
 7354 3331 E8000000 		call	_ZN8UnitTest11TestDetailsC1ERKS0_i@PLT
 7354      00
 7355 3336 488D1500 		leaq	.LC14(%rip), %rdx
 7355      000000
 7356 333d 4889DE   		movq	%rbx, %rsi
 7357 3340 4C89E7   		movq	%r12, %rdi
 7358 3343 E8000000 		call	_ZN8UnitTest11TestResults13OnTestFailureERKNS_11TestDetailsEPKc@PLT
 7358      00
 7359              	.LEHE264:
 7360              	.L702:
 7361              	.LEHB265:
 7362 3348 E8000000 		call	__cxa_end_catch@PLT
 7362      00
 7363              	.LEHE265:
 7364 334d E9C2FEFF 		jmp	.L692
 7364      FF
 7365              	.L720:
 7366 3352 4889C7   		movq	%rax, %rdi
 7367 3355 EBAB     		jmp	.L695
 7368              	.L717:
 7369 3357 4889C3   		movq	%rax, %rbx
 7370 335a E8000000 		call	__cxa_end_catch@PLT
 7370      00
 7371 335f 4889DF   		movq	%rbx, %rdi
 7372              	.LEHB266:
 7373 3362 E8000000 		call	_Unwind_Resume@PLT
 7373      00
 7374              	.LEHE266:
 7375              	.L716:
 7376 3367 4889DF   		movq	%rbx, %rdi
 7377 336a 4889C5   		movq	%rax, %rbp
 7378 336d E8000000 		call	_ZN8UnitTest15MemoryOutStreamD1Ev
 7378      00
 7379              	.L705:
 7380 3372 E8000000 		call	__cxa_end_catch@PLT
 7380      00
 7381 3377 4889EF   		movq	%rbp, %rdi
 7382              	.LEHB267:
 7383 337a E8000000 		call	_Unwind_Resume@PLT
 7383      00
 7384              	.LEHE267:
 7385              	.L715:
 7386 337f 4889C5   		movq	%rax, %rbp
 7387 3382 EBEE     		jmp	.L705
 7388              	.L741:
 7389 3384 E8000000 		call	__cxa_begin_catch@PLT
 7389      00
 7390              	.LEHB268:
 7391 3389 E8000000 		call	_ZN8UnitTest11CurrentTest7ResultsEv@PLT
 7391      00
 7392 338e 4889E3   		movq	%rsp, %rbx
 7393 3391 BAAA0000 		movl	$170, %edx
 7393      00
 7394 3396 4889EE   		movq	%rbp, %rsi
 7395 3399 4889DF   		movq	%rbx, %rdi
 7396 339c 4C8B20   		movq	(%rax), %r12
 7397 339f E8000000 		call	_ZN8UnitTest11TestDetailsC1ERKS0_i@PLT
 7397      00
 7398 33a4 488D1500 		leaq	.LC13(%rip), %rdx
 7398      000000
 7399 33ab 4889DE   		movq	%rbx, %rsi
 7400 33ae 4C89E7   		movq	%r12, %rdi
 7401 33b1 E8000000 		call	_ZN8UnitTest11TestResults13OnTestFailureERKNS_11TestDetailsEPKc@PLT
 7401      00
 7402              	.LEHE268:
 7403 33b6 EB90     		jmp	.L702
 7404              	.L700:
 7405 33b8 E8000000 		call	__cxa_begin_catch@PLT
 7405      00
 7406 33bd 4889C3   		movq	%rax, %rbx
 7407              	.LEHB269:
 7408 33c0 E8000000 		call	_ZN8UnitTest11CurrentTest7ResultsEv@PLT
 7408      00
 7409 33c5 488B28   		movq	(%rax), %rbp
 7410 33c8 488B03   		movq	(%rbx), %rax
 7411 33cb 4889DF   		movq	%rbx, %rdi
 7412 33ce FF5010   		call	*16(%rax)
 7413 33d1 4889DF   		movq	%rbx, %rdi
 7414 33d4 4989C4   		movq	%rax, %r12
 7415 33d7 E8000000 		call	_ZNK8UnitTest15AssertException10LineNumberEv@PLT
 7415      00
 7416 33dc 4889DF   		movq	%rbx, %rdi
 7417 33df 4189C6   		movl	%eax, %r14d
 7418 33e2 E8000000 		call	_ZNK8UnitTest15AssertException8FilenameEv@PLT
 7418      00
 7419 33e7 498B5508 		movq	8(%r13), %rdx
 7420 33eb 498B7510 		movq	16(%r13), %rsi
 7421 33ef 4889E3   		movq	%rsp, %rbx
 7422 33f2 4589F0   		movl	%r14d, %r8d
 7423 33f5 4889C1   		movq	%rax, %rcx
 7424 33f8 4889DF   		movq	%rbx, %rdi
 7425 33fb E8000000 		call	_ZN8UnitTest11TestDetailsC1EPKcS2_S2_i@PLT
 7425      00
 7426 3400 4C89E2   		movq	%r12, %rdx
 7427 3403 4889DE   		movq	%rbx, %rsi
 7428 3406 4889EF   		movq	%rbp, %rdi
 7429 3409 E8000000 		call	_ZN8UnitTest11TestResults13OnTestFailureERKNS_11TestDetailsEPKc@PLT
 7429      00
 7430              	.LEHE269:
 7431 340e E99FFEFF 		jmp	.L739
 7431      FF
 7432              	.L714:
 7433 3413 4889C3   		movq	%rax, %rbx
 7434 3416 E8000000 		call	__cxa_end_catch@PLT
 7434      00
 7435 341b 4889DF   		movq	%rbx, %rdi
 7436              	.LEHB270:
 7437 341e E8000000 		call	_Unwind_Resume@PLT
 7437      00
 7438              	.LEHE270:
 7439              		.cfi_endproc
 7440              	.LFE1278:
 7441              		.section	.gcc_except_table
 7442              		.align 4
 7443              	.LLSDA1278:
 7444 06f0 FF       		.byte	0xff
 7445 06f1 9B       		.byte	0x9b
 7446 06f2 6D       		.uleb128 .LLSDATT1278-.LLSDATTD1278
 7447              	.LLSDATTD1278:
 7448 06f3 01       		.byte	0x1
 7449 06f4 55       		.uleb128 .LLSDACSE1278-.LLSDACSB1278
 7450              	.LLSDACSB1278:
 7451 06f5 35       		.uleb128 .LEHB256-.LFB1278
 7452 06f6 05       		.uleb128 .LEHE256-.LEHB256
 7453 06f7 C204     		.uleb128 .L720-.LFB1278
 7454 06f9 05       		.uleb128 0x5
 7455 06fa D601     		.uleb128 .LEHB257-.LFB1278
 7456 06fc 05       		.uleb128 .LEHE257-.LEHB257
 7457 06fd DE03     		.uleb128 .L718-.LFB1278
 7458 06ff 07       		.uleb128 0x7
 7459 0700 E901     		.uleb128 .LEHB258-.LFB1278
 7460 0702 05       		.uleb128 .LEHE258-.LEHB258
 7461 0703 C503     		.uleb128 .L713-.LFB1278
 7462 0705 07       		.uleb128 0x7
 7463 0706 F701     		.uleb128 .LEHB259-.LFB1278
 7464 0708 05       		.uleb128 .LEHE259-.LEHB259
 7465 0709 AC03     		.uleb128 .L719-.LFB1278
 7466 070b 07       		.uleb128 0x7
 7467 070c FF01     		.uleb128 .LEHB260-.LFB1278
 7468 070e 05       		.uleb128 .LEHE260-.LEHB260
 7469 070f AC02     		.uleb128 .L712-.LFB1278
 7470 0711 05       		.uleb128 0x5
 7471 0712 CE02     		.uleb128 .LEHB261-.LFB1278
 7472 0714 05       		.uleb128 .LEHE261-.LEHB261
 7473 0715 EF04     		.uleb128 .L715-.LFB1278
 7474 0717 00       		.uleb128 0
 7475 0718 E202     		.uleb128 .LEHB262-.LFB1278
 7476 071a 38       		.uleb128 .LEHE262-.LEHB262
 7477 071b D704     		.uleb128 .L716-.LFB1278
 7478 071d 00       		.uleb128 0
 7479 071e 9D03     		.uleb128 .LEHB263-.LFB1278
 7480 0720 05       		.uleb128 .LEHE263-.LEHB263
 7481 0721 EF04     		.uleb128 .L715-.LFB1278
 7482 0723 00       		.uleb128 0
 7483 0724 8B04     		.uleb128 .LEHB264-.LFB1278
 7484 0726 2D       		.uleb128 .LEHE264-.LEHB264
 7485 0727 C704     		.uleb128 .L717-.LFB1278
 7486 0729 00       		.uleb128 0
 7487 072a B804     		.uleb128 .LEHB265-.LFB1278
 7488 072c 05       		.uleb128 .LEHE265-.LEHB265
 7489 072d 00       		.uleb128 0
 7490 072e 00       		.uleb128 0
 7491 072f D204     		.uleb128 .LEHB266-.LFB1278
 7492 0731 05       		.uleb128 .LEHE266-.LEHB266
 7493 0732 00       		.uleb128 0
 7494 0733 00       		.uleb128 0
 7495 0734 EA04     		.uleb128 .LEHB267-.LFB1278
 7496 0736 05       		.uleb128 .LEHE267-.LEHB267
 7497 0737 00       		.uleb128 0
 7498 0738 00       		.uleb128 0
 7499 0739 F904     		.uleb128 .LEHB268-.LFB1278
 7500 073b 2D       		.uleb128 .LEHE268-.LEHB268
 7501 073c C704     		.uleb128 .L717-.LFB1278
 7502 073e 00       		.uleb128 0
 7503 073f B005     		.uleb128 .LEHB269-.LFB1278
 7504 0741 4E       		.uleb128 .LEHE269-.LEHB269
 7505 0742 8306     		.uleb128 .L714-.LFB1278
 7506 0744 00       		.uleb128 0
 7507 0745 8E06     		.uleb128 .LEHB270-.LFB1278
 7508 0747 05       		.uleb128 .LEHE270-.LEHB270
 7509 0748 00       		.uleb128 0
 7510 0749 00       		.uleb128 0
 7511              	.LLSDACSE1278:
 7512 074a 03       		.byte	0x3
 7513 074b 00       		.byte	0
 7514 074c 02       		.byte	0x2
 7515 074d 7D       		.byte	0x7d
 7516 074e 01       		.byte	0x1
 7517 074f 7D       		.byte	0x7d
 7518 0750 00       		.byte	0
 7519 0751 7D       		.byte	0x7d
 7520 0752 0000     		.align 4
 7521 0754 00000000 		.long	0
 7522              	
 7523 0758 00000000 		.long	DW.ref._ZTISt9exception-.
 7524 075c 00000000 		.long	DW.ref._ZTIN8UnitTest15AssertExceptionE-.
 7525              	.LLSDATT1278:
 7526              		.text
 7528              		.section	.rodata.str1.1
 7529              	.LC38:
 7530 00c3 44656661 		.string	"DefaultSuite"
 7530      756C7453 
 7530      75697465 
 7530      00
 7531              	.LC39:
 7532 00d0 74657374 		.string	"test"
 7532      00
 7533              		.section	.rodata.str1.8
 7534              		.align 8
 7535              	.LC40:
 7536 0530 556E6861 		.string	"Unhandled exception in CHECK_EQUAL(5, reporter.summaryFailureCount)"
 7536      6E646C65 
 7536      64206578 
 7536      63657074 
 7536      696F6E20 
 7537              		.text
 7538 3423 0F1F0066 		.p2align 4,,15
 7538      2E0F1F84 
 7538      00000000 
 7538      00
 7540              	_ZN8UnitTest11ExecuteTestIN12_GLOBAL__N_149TestRunnerFixtureReporterNotifiedOfFailuresHelperEEEvRT_
 7541              	.LFB1417:
 7542              		.cfi_startproc
 7543              		.cfi_personality 0x9b,DW.ref.__gxx_personality_v0
 7544              		.cfi_lsda 0x1b,.LLSDA1417
 7545 3430 4155     		pushq	%r13
 7546              		.cfi_def_cfa_offset 16
 7547              		.cfi_offset 13, -16
 7548 3432 4154     		pushq	%r12
 7549              		.cfi_def_cfa_offset 24
 7550              		.cfi_offset 12, -24
 7551 3434 55       		pushq	%rbp
 7552              		.cfi_def_cfa_offset 32
 7553              		.cfi_offset 6, -32
 7554 3435 53       		pushq	%rbx
 7555              		.cfi_def_cfa_offset 40
 7556              		.cfi_offset 3, -40
 7557 3436 4889F3   		movq	%rsi, %rbx
 7558 3439 4881EC58 		subq	$1880, %rsp
 7558      070000
 7559              		.cfi_def_cfa_offset 1920
 7560 3440 48893C24 		movq	%rdi, (%rsp)
 7561 3444 48897424 		movq	%rsi, 8(%rsp)
 7561      08
 7562 3449 64488B04 		movq	%fs:40, %rax
 7562      25280000 
 7562      00
 7563 3452 48898424 		movq	%rax, 1864(%rsp)
 7563      48070000 
 7564 345a 31C0     		xorl	%eax, %eax
 7565              	.LEHB271:
 7566 345c E8000000 		call	_ZN8UnitTest11CurrentTest7DetailsEv@PLT
 7566      00
 7567              	.LEHE271:
 7568 3461 488DBC24 		leaq	736(%rsp), %rdi
 7568      E0020000 
 7569 3469 488918   		movq	%rbx, (%rax)
 7570              	.LEHB272:
 7571 346c E8000000 		call	_ZN8UnitTest16SignalTranslatorC1Ev@PLT
 7571      00
 7572              	.LEHE272:
 7573 3471 488B3D00 		movq	_ZN8UnitTest16SignalTranslator12s_jumpTargetE(%rip), %rdi
 7573      000000
 7574 3478 BE010000 		movl	$1, %esi
 7574      00
 7575 347d E8000000 		call	__sigsetjmp@PLT
 7575      00
 7576 3482 85C0     		testl	%eax, %eax
 7577 3484 742A     		je	.L744
 7578 3486 BF080000 		movl	$8, %edi
 7578      00
 7579 348b E8000000 		call	__cxa_allocate_exception@PLT
 7579      00
 7580 3490 488D0D00 		leaq	.LC3(%rip), %rcx
 7580      000000
 7581 3497 488D3500 		leaq	_ZTIPKc(%rip), %rsi
 7581      000000
 7582 349e 31D2     		xorl	%edx, %edx
 7583 34a0 4889C7   		movq	%rax, %rdi
 7584 34a3 488908   		movq	%rcx, (%rax)
 7585              	.LEHB273:
 7586 34a6 E8000000 		call	__cxa_throw@PLT
 7586      00
 7587 34ab 0F1F4400 		.p2align 4,,10
 7587      00
 7588              		.p2align 3
 7589              	.L744:
 7590 34b0 488DBC24 		leaq	128(%rsp), %rdi
 7590      80000000 
 7591 34b8 488D0D00 		leaq	.LC24(%rip), %rcx
 7591      000000
 7592 34bf 488D1500 		leaq	.LC38(%rip), %rdx
 7592      000000
 7593 34c6 488D3500 		leaq	.LC39(%rip), %rsi
 7593      000000
 7594 34cd 4531C0   		xorl	%r8d, %r8d
 7595 34d0 E8000000 		call	_ZN8UnitTest4TestC2EPKcS2_S2_i@PLT
 7595      00
 7596              	.LEHE273:
 7597 34d5 488D1D00 		leaq	16+_ZTVN12_GLOBAL__N_18MockTestE(%rip), %rbx
 7597      000000
 7598 34dc 488DBC24 		leaq	192(%rsp), %rdi
 7598      C0000000 
 7599 34e4 488D0D00 		leaq	.LC24(%rip), %rcx
 7599      000000
 7600 34eb 488D1500 		leaq	.LC38(%rip), %rdx
 7600      000000
 7601 34f2 488D3500 		leaq	.LC39(%rip), %rsi
 7601      000000
 7602 34f9 4531C0   		xorl	%r8d, %r8d
 7603 34fc 48899C24 		movq	%rbx, 128(%rsp)
 7603      80000000 
 7604 3504 C68424B1 		movb	$0, 177(%rsp)
 7604      00000000 
 7605 350c C68424B2 		movb	$0, 178(%rsp)
 7605      00000000 
 7606 3514 C78424B4 		movl	$2, 180(%rsp)
 7606      00000002 
 7606      000000
 7607              	.LEHB274:
 7608 351f E8000000 		call	_ZN8UnitTest4TestC2EPKcS2_S2_i@PLT
 7608      00
 7609              	.LEHE274:
 7610 3524 488DBC24 		leaq	256(%rsp), %rdi
 7610      00010000 
 7611 352c 488D0D00 		leaq	.LC24(%rip), %rcx
 7611      000000
 7612 3533 488D1500 		leaq	.LC38(%rip), %rdx
 7612      000000
 7613 353a 488D3500 		leaq	.LC39(%rip), %rsi
 7613      000000
 7614 3541 4531C0   		xorl	%r8d, %r8d
 7615 3544 48899C24 		movq	%rbx, 192(%rsp)
 7615      C0000000 
 7616 354c C68424F1 		movb	$1, 241(%rsp)
 7616      00000001 
 7617 3554 C68424F2 		movb	$0, 242(%rsp)
 7617      00000000 
 7618 355c C78424F4 		movl	$1, 244(%rsp)
 7618      00000001 
 7618      000000
 7619              	.LEHB275:
 7620 3567 E8000000 		call	_ZN8UnitTest4TestC2EPKcS2_S2_i@PLT
 7620      00
 7621              	.LEHE275:
 7622 356c 488B2C24 		movq	(%rsp), %rbp
 7623 3570 48899C24 		movq	%rbx, 256(%rsp)
 7623      00010000 
 7624 3578 488DB424 		leaq	128(%rsp), %rsi
 7624      80000000 
 7625 3580 C6842431 		movb	$0, 305(%rsp)
 7625      01000000 
 7626 3588 C6842432 		movb	$0, 306(%rsp)
 7626      01000000 
 7627 3590 C7842434 		movl	$3, 308(%rsp)
 7627      01000003 
 7627      000000
 7628 359b 488D9D48 		leaq	2120(%rbp), %rbx
 7628      080000
 7629 35a2 4889DF   		movq	%rbx, %rdi
 7630              	.LEHB276:
 7631 35a5 E8000000 		call	_ZN8UnitTest8TestList3AddEPNS_4TestE@PLT
 7631      00
 7632 35aa 488DB424 		leaq	192(%rsp), %rsi
 7632      C0000000 
 7633 35b2 4889DF   		movq	%rbx, %rdi
 7634 35b5 E8000000 		call	_ZN8UnitTest8TestList3AddEPNS_4TestE@PLT
 7634      00
 7635 35ba 488DB424 		leaq	256(%rsp), %rsi
 7635      00010000 
 7636 35c2 4889DF   		movq	%rbx, %rdi
 7637 35c5 E8000000 		call	_ZN8UnitTest8TestList3AddEPNS_4TestE@PLT
 7637      00
 7638 35ca E8000000 		call	_ZN8UnitTest11CurrentTest7ResultsEv@PLT
 7638      00
 7639 35cf 4C8B28   		movq	(%rax), %r13
 7640 35d2 E8000000 		call	_ZN8UnitTest11CurrentTest7DetailsEv@PLT
 7640      00
 7641 35d7 4889DF   		movq	%rbx, %rdi
 7642 35da 4C8B20   		movq	(%rax), %r12
 7643 35dd E8000000 		call	_ZNK8UnitTest8TestList7GetHeadEv@PLT
 7643      00
 7644 35e2 4885C0   		testq	%rax, %rax
 7645 35e5 4889C3   		movq	%rax, %rbx
 7646 35e8 0F85FC00 		jne	.L747
 7646      0000
 7647 35ee 6690     		.p2align 4,,10
 7648              		.p2align 3
 7649              	.L745:
 7650 35f0 488B1C24 		movq	(%rsp), %rbx
 7651 35f4 4889DF   		movq	%rbx, %rdi
 7652 35f7 E8000000 		call	_ZNK8UnitTest10TestRunner6FinishEv@PLT
 7652      00
 7653 35fc E8000000 		call	_ZN8UnitTest11CurrentTest7ResultsEv@PLT
 7653      00
 7654 3601 4C8928   		movq	%r13, (%rax)
 7655 3604 E8000000 		call	_ZN8UnitTest11CurrentTest7DetailsEv@PLT
 7655      00
 7656              	.LEHE276:
 7657 3609 4C8920   		movq	%r12, (%rax)
 7658              	.LEHB277:
 7659 360c E8000000 		call	_ZN8UnitTest11CurrentTest7DetailsEv@PLT
 7659      00
 7660 3611 488B30   		movq	(%rax), %rsi
 7661 3614 488D7C24 		leaq	96(%rsp), %rdi
 7661      60
 7662 3619 BAA70000 		movl	$167, %edx
 7662      00
 7663 361e E8000000 		call	_ZN8UnitTest11TestDetailsC1ERKS0_i@PLT
 7663      00
 7664 3623 4881C33C 		addq	$2108, %rbx
 7664      080000
 7665 362a C744241C 		movl	$5, 28(%rsp)
 7665      05000000 
 7666 3632 E8000000 		call	_ZN8UnitTest11CurrentTest7ResultsEv@PLT
 7666      00
 7667 3637 488B38   		movq	(%rax), %rdi
 7668 363a 488D4C24 		leaq	96(%rsp), %rcx
 7668      60
 7669 363f 488D7424 		leaq	28(%rsp), %rsi
 7669      1C
 7670 3644 4889DA   		movq	%rbx, %rdx
 7671 3647 E8000000 		call	_ZN8UnitTest10CheckEqualIiiEEvRNS_11TestResultsERKT_RKT0_RKNS_11TestDetailsE
 7671      00
 7672              	.LEHE277:
 7673              	.L751:
 7674 364c 488D1D00 		leaq	16+_ZTVN12_GLOBAL__N_18MockTestE(%rip), %rbx
 7674      000000
 7675 3653 488DBC24 		leaq	256(%rsp), %rdi
 7675      00010000 
 7676 365b 48899C24 		movq	%rbx, 256(%rsp)
 7676      00010000 
 7677              	.LEHB278:
 7678 3663 E8000000 		call	_ZN8UnitTest4TestD2Ev@PLT
 7678      00
 7679              	.LEHE278:
 7680 3668 488DBC24 		leaq	192(%rsp), %rdi
 7680      C0000000 
 7681 3670 48899C24 		movq	%rbx, 192(%rsp)
 7681      C0000000 
 7682              	.LEHB279:
 7683 3678 E8000000 		call	_ZN8UnitTest4TestD2Ev@PLT
 7683      00
 7684              	.LEHE279:
 7685 367d 488DBC24 		leaq	128(%rsp), %rdi
 7685      80000000 
 7686 3685 48899C24 		movq	%rbx, 128(%rsp)
 7686      80000000 
 7687              	.LEHB280:
 7688 368d E8000000 		call	_ZN8UnitTest4TestD2Ev@PLT
 7688      00
 7689              	.LEHE280:
 7690 3692 488DBC24 		leaq	736(%rsp), %rdi
 7690      E0020000 
 7691              	.LEHB281:
 7692 369a E8000000 		call	_ZN8UnitTest16SignalTranslatorD1Ev@PLT
 7692      00
 7693              	.LEHE281:
 7694              	.L742:
 7695 369f 488B8424 		movq	1864(%rsp), %rax
 7695      48070000 
 7696 36a7 64483304 		xorq	%fs:40, %rax
 7696      25280000 
 7696      00
 7697 36b0 0F85F700 		jne	.L783
 7697      0000
 7698 36b6 4881C458 		addq	$1880, %rsp
 7698      070000
 7699              		.cfi_remember_state
 7700              		.cfi_def_cfa_offset 40
 7701 36bd 5B       		popq	%rbx
 7702              		.cfi_def_cfa_offset 32
 7703 36be 5D       		popq	%rbp
 7704              		.cfi_def_cfa_offset 24
 7705 36bf 415C     		popq	%r12
 7706              		.cfi_def_cfa_offset 16
 7707 36c1 415D     		popq	%r13
 7708              		.cfi_def_cfa_offset 8
 7709 36c3 C3       		ret
 7710              		.p2align 4,,10
 7711 36c4 0F1F4000 		.p2align 3
 7712              	.L746:
 7713              		.cfi_restore_state
 7714 36c8 488B0424 		movq	(%rsp), %rax
 7715 36cc 31C9     		xorl	%ecx, %ecx
 7716 36ce 4889DA   		movq	%rbx, %rdx
 7717 36d1 4889EF   		movq	%rbp, %rdi
 7718 36d4 488B7008 		movq	8(%rax), %rsi
 7719              	.LEHB282:
 7720 36d8 E8000000 		call	_ZNK8UnitTest10TestRunner7RunTestEPNS_11TestResultsEPNS_4TestEi@PLT
 7720      00
 7721              	.L748:
 7722 36dd 488B5B28 		movq	40(%rbx), %rbx
 7723 36e1 4885DB   		testq	%rbx, %rbx
 7724 36e4 0F8406FF 		je	.L745
 7724      FFFF
 7725              	.L747:
 7726 36ea 31D2     		xorl	%edx, %edx
 7727 36ec 4889DE   		movq	%rbx, %rsi
 7728 36ef 4889EF   		movq	%rbp, %rdi
 7729 36f2 E8000000 		call	_ZNK8UnitTest10TestRunner13IsTestInSuiteEPKNS_4TestEPKc@PLT
 7729      00
 7730              	.LEHE282:
 7731 36f7 84C0     		testb	%al, %al
 7732 36f9 74E2     		je	.L748
 7733 36fb EBCB     		jmp	.L746
 7734              	.L769:
 7735 36fd 4889C3   		movq	%rax, %rbx
 7736 3700 4889D5   		movq	%rdx, %rbp
 7737              	.L756:
 7738 3703 488DBC24 		leaq	736(%rsp), %rdi
 7738      E0020000 
 7739 370b E8000000 		call	_ZN8UnitTest16SignalTranslatorD1Ev@PLT
 7739      00
 7740 3710 4889DF   		movq	%rbx, %rdi
 7741 3713 4889EA   		movq	%rbp, %rdx
 7742              	.L757:
 7743 3716 4883FA01 		cmpq	$1, %rdx
 7744 371a 0F84A801 		je	.L759
 7744      0000
 7745 3720 4883FA02 		cmpq	$2, %rdx
 7746 3724 0F857601 		jne	.L784
 7746      0000
 7747 372a E8000000 		call	__cxa_begin_catch@PLT
 7747      00
 7748 372f 488DBC24 		leaq	320(%rsp), %rdi
 7748      40010000 
 7749 3737 4889C3   		movq	%rax, %rbx
 7750              	.LEHB283:
 7751 373a E8000000 		call	_ZN8UnitTest15MemoryOutStreamC1Ev
 7751      00
 7752              	.LEHE283:
 7753 373f 488DBC24 		leaq	320(%rsp), %rdi
 7753      40010000 
 7754 3747 488D3500 		leaq	.LC11(%rip), %rsi
 7754      000000
 7755 374e BA150000 		movl	$21, %edx
 7755      00
 7756              	.LEHB284:
 7757 3753 E8000000 		call	_ZSt16__ostream_insertIcSt11char_traitsIcEERSt13basic_ostreamIT_T0_ES6_PKS3_l@PLT
 7757      00
 7758 3758 488B03   		movq	(%rbx), %rax
 7759 375b 4889DF   		movq	%rbx, %rdi
 7760 375e FF5010   		call	*16(%rax)
 7761 3761 488DBC24 		leaq	320(%rsp), %rdi
 7761      40010000 
 7762 3769 4889C6   		movq	%rax, %rsi
 7763 376c E8000000 		call	_ZStlsISt11char_traitsIcEERSt13basic_ostreamIcT_ES5_PKc@PLT
 7763      00
 7764 3771 E8000000 		call	_ZN8UnitTest11CurrentTest7ResultsEv@PLT
 7764      00
 7765 3776 488DBC24 		leaq	320(%rsp), %rdi
 7765      40010000 
 7766 377e 488B18   		movq	(%rax), %rbx
 7767 3781 E8000000 		call	_ZNK8UnitTest15MemoryOutStream7GetTextEv@PLT
 7767      00
 7768 3786 488B7424 		movq	8(%rsp), %rsi
 7768      08
 7769 378b 4889C2   		movq	%rax, %rdx
 7770 378e 4889DF   		movq	%rbx, %rdi
 7771 3791 E8000000 		call	_ZN8UnitTest11TestResults13OnTestFailureERKNS_11TestDetailsEPKc@PLT
 7771      00
 7772              	.LEHE284:
 7773 3796 488DBC24 		leaq	320(%rsp), %rdi
 7773      40010000 
 7774              	.LEHB285:
 7775 379e E8000000 		call	_ZN8UnitTest15MemoryOutStreamD1Ev
 7775      00
 7776              	.LEHE285:
 7777              	.L781:
 7778 37a3 E8000000 		call	__cxa_end_catch@PLT
 7778      00
 7779 37a8 E9F2FEFF 		jmp	.L742
 7779      FF
 7780              	.L783:
 7781 37ad E8000000 		call	__stack_chk_fail@PLT
 7781      00
 7782              	.L768:
 7783 37b2 4889C7   		movq	%rax, %rdi
 7784 37b5 E95CFFFF 		jmp	.L757
 7784      FF
 7785              	.L776:
 7786 37ba 4889C3   		movq	%rax, %rbx
 7787 37bd 4889D5   		movq	%rdx, %rbp
 7788              	.L753:
 7789 37c0 488D0500 		leaq	16+_ZTVN12_GLOBAL__N_18MockTestE(%rip), %rax
 7789      000000
 7790 37c7 488DBC24 		leaq	256(%rsp), %rdi
 7790      00010000 
 7791 37cf 48898424 		movq	%rax, 256(%rsp)
 7791      00010000 
 7792 37d7 E8000000 		call	_ZN8UnitTest4TestD2Ev@PLT
 7792      00
 7793              	.L754:
 7794 37dc 488D0500 		leaq	16+_ZTVN12_GLOBAL__N_18MockTestE(%rip), %rax
 7794      000000
 7795 37e3 488DBC24 		leaq	192(%rsp), %rdi
 7795      C0000000 
 7796 37eb 48898424 		movq	%rax, 192(%rsp)
 7796      C0000000 
 7797 37f3 E8000000 		call	_ZN8UnitTest4TestD2Ev@PLT
 7797      00
 7798              	.L755:
 7799 37f8 488D0500 		leaq	16+_ZTVN12_GLOBAL__N_18MockTestE(%rip), %rax
 7799      000000
 7800 37ff 488DBC24 		leaq	128(%rsp), %rdi
 7800      80000000 
 7801 3807 48898424 		movq	%rax, 128(%rsp)
 7801      80000000 
 7802 380f E8000000 		call	_ZN8UnitTest4TestD2Ev@PLT
 7802      00
 7803 3814 E9EAFEFF 		jmp	.L756
 7803      FF
 7804              	.L775:
 7805 3819 4889C3   		movq	%rax, %rbx
 7806 381c 4889D5   		movq	%rdx, %rbp
 7807 381f EBBB     		jmp	.L754
 7808              	.L778:
 7809 3821 4889C7   		movq	%rax, %rdi
 7810 3824 E8000000 		call	__cxa_begin_catch@PLT
 7810      00
 7811              	.LEHB286:
 7812 3829 E8000000 		call	_ZN8UnitTest11CurrentTest7ResultsEv@PLT
 7812      00
 7813 382e 488B18   		movq	(%rax), %rbx
 7814 3831 E8000000 		call	_ZN8UnitTest11CurrentTest7DetailsEv@PLT
 7814      00
 7815 3836 488B30   		movq	(%rax), %rsi
 7816 3839 488D7C24 		leaq	64(%rsp), %rdi
 7816      40
 7817 383e BAA70000 		movl	$167, %edx
 7817      00
 7818 3843 E8000000 		call	_ZN8UnitTest11TestDetailsC1ERKS0_i@PLT
 7818      00
 7819 3848 488D7424 		leaq	64(%rsp), %rsi
 7819      40
 7820 384d 488D1500 		leaq	.LC40(%rip), %rdx
 7820      000000
 7821 3854 4889DF   		movq	%rbx, %rdi
 7822 3857 E8000000 		call	_ZN8UnitTest11TestResults13OnTestFailureERKNS_11TestDetailsEPKc@PLT
 7822      00
 7823              	.LEHE286:
 7824              	.LEHB287:
 7825 385c E8000000 		call	__cxa_end_catch@PLT
 7825      00
 7826              	.LEHE287:
 7827 3861 E9E6FDFF 		jmp	.L751
 7827      FF
 7828              	.L774:
 7829 3866 4889C3   		movq	%rax, %rbx
 7830 3869 4889D5   		movq	%rdx, %rbp
 7831 386c EB8A     		jmp	.L755
 7832              	.L777:
 7833 386e 4889C3   		movq	%rax, %rbx
 7834 3871 4889D5   		movq	%rdx, %rbp
 7835 3874 E8000000 		call	__cxa_end_catch@PLT
 7835      00
 7836 3879 E942FFFF 		jmp	.L753
 7836      FF
 7837              	.L772:
 7838 387e 488DBC24 		leaq	320(%rsp), %rdi
 7838      40010000 
 7839 3886 4889C3   		movq	%rax, %rbx
 7840 3889 E8000000 		call	_ZN8UnitTest15MemoryOutStreamD1Ev
 7840      00
 7841              	.L765:
 7842 388e E8000000 		call	__cxa_end_catch@PLT
 7842      00
 7843 3893 4889DF   		movq	%rbx, %rdi
 7844              	.LEHB288:
 7845 3896 E8000000 		call	_Unwind_Resume@PLT
 7845      00
 7846              	.LEHE288:
 7847              	.L771:
 7848              	.L782:
 7849 389b 4889C3   		movq	%rax, %rbx
 7850 389e EBEE     		jmp	.L765
 7851              	.L784:
 7852 38a0 E8000000 		call	__cxa_begin_catch@PLT
 7852      00
 7853              	.LEHB289:
 7854 38a5 E8000000 		call	_ZN8UnitTest11CurrentTest7ResultsEv@PLT
 7854      00
 7855 38aa 488B7424 		movq	8(%rsp), %rsi
 7855      08
 7856 38af 488B38   		movq	(%rax), %rdi
 7857 38b2 488D1500 		leaq	.LC12(%rip), %rdx
 7857      000000
 7858 38b9 E8000000 		call	_ZN8UnitTest11TestResults13OnTestFailureERKNS_11TestDetailsEPKc@PLT
 7858      00
 7859              	.LEHE289:
 7860              	.LEHB290:
 7861 38be E8000000 		call	__cxa_end_catch@PLT
 7861      00
 7862              	.LEHE290:
 7863 38c3 E9D7FDFF 		jmp	.L742
 7863      FF
 7864              	.L759:
 7865 38c8 E8000000 		call	__cxa_begin_catch@PLT
 7865      00
 7866 38cd 4889C3   		movq	%rax, %rbx
 7867              	.LEHB291:
 7868 38d0 E8000000 		call	_ZN8UnitTest11CurrentTest7ResultsEv@PLT
 7868      00
 7869 38d5 488B28   		movq	(%rax), %rbp
 7870 38d8 488B03   		movq	(%rbx), %rax
 7871 38db 4889DF   		movq	%rbx, %rdi
 7872 38de FF5010   		call	*16(%rax)
 7873 38e1 4889DF   		movq	%rbx, %rdi
 7874 38e4 4989C4   		movq	%rax, %r12
 7875 38e7 E8000000 		call	_ZNK8UnitTest15AssertException10LineNumberEv@PLT
 7875      00
 7876 38ec 4889DF   		movq	%rbx, %rdi
 7877 38ef 4189C5   		movl	%eax, %r13d
 7878 38f2 E8000000 		call	_ZNK8UnitTest15AssertException8FilenameEv@PLT
 7878      00
 7879 38f7 488B5424 		movq	8(%rsp), %rdx
 7879      08
 7880 38fc 488D7C24 		leaq	32(%rsp), %rdi
 7880      20
 7881 3901 4589E8   		movl	%r13d, %r8d
 7882 3904 4889C1   		movq	%rax, %rcx
 7883 3907 488B7208 		movq	8(%rdx), %rsi
 7884 390b 488B12   		movq	(%rdx), %rdx
 7885 390e E8000000 		call	_ZN8UnitTest11TestDetailsC1EPKcS2_S2_i@PLT
 7885      00
 7886 3913 488D7424 		leaq	32(%rsp), %rsi
 7886      20
 7887 3918 4C89E2   		movq	%r12, %rdx
 7888 391b 4889EF   		movq	%rbp, %rdi
 7889 391e E8000000 		call	_ZN8UnitTest11TestResults13OnTestFailureERKNS_11TestDetailsEPKc@PLT
 7889      00
 7890              	.LEHE291:
 7891 3923 E97BFEFF 		jmp	.L781
 7891      FF
 7892              	.L773:
 7893 3928 4889C3   		movq	%rax, %rbx
 7894 392b E8000000 		call	__cxa_end_catch@PLT
 7894      00
 7895 3930 4889DF   		movq	%rbx, %rdi
 7896              	.LEHB292:
 7897 3933 E8000000 		call	_Unwind_Resume@PLT
 7897      00
 7898              	.LEHE292:
 7899              	.L770:
 7900 3938 E95EFFFF 		jmp	.L782
 7900      FF
 7901              		.cfi_endproc
 7902              	.LFE1417:
 7903              		.section	.gcc_except_table
 7904              		.align 4
 7905              	.LLSDA1417:
 7906 0760 FF       		.byte	0xff
 7907 0761 9B       		.byte	0x9b
 7908 0762 9401     		.uleb128 .LLSDATT1417-.LLSDATTD1417
 7909              	.LLSDATTD1417:
 7910 0764 01       		.byte	0x1
 7911 0765 7D       		.uleb128 .LLSDACSE1417-.LLSDACSB1417
 7912              	.LLSDACSB1417:
 7913 0766 2C       		.uleb128 .LEHB271-.LFB1417
 7914 0767 05       		.uleb128 .LEHE271-.LEHB271
 7915 0768 00       		.uleb128 0
 7916 0769 00       		.uleb128 0
 7917 076a 3C       		.uleb128 .LEHB272-.LFB1417
 7918 076b 05       		.uleb128 .LEHE272-.LEHB272
 7919 076c 8207     		.uleb128 .L768-.LFB1417
 7920 076e 05       		.uleb128 0x5
 7921 076f 76       		.uleb128 .LEHB273-.LFB1417
 7922 0770 2F       		.uleb128 .LEHE273-.LEHB273
 7923 0771 CD05     		.uleb128 .L769-.LFB1417
 7924 0773 07       		.uleb128 0x7
 7925 0774 EF01     		.uleb128 .LEHB274-.LFB1417
 7926 0776 05       		.uleb128 .LEHE274-.LEHB274
 7927 0777 B608     		.uleb128 .L774-.LFB1417
 7928 0779 07       		.uleb128 0x7
 7929 077a B702     		.uleb128 .LEHB275-.LFB1417
 7930 077c 05       		.uleb128 .LEHE275-.LEHB275
 7931 077d E907     		.uleb128 .L775-.LFB1417
 7932 077f 07       		.uleb128 0x7
 7933 0780 F502     		.uleb128 .LEHB276-.LFB1417
 7934 0782 64       		.uleb128 .LEHE276-.LEHB276
 7935 0783 8A07     		.uleb128 .L776-.LFB1417
 7936 0785 07       		.uleb128 0x7
 7937 0786 DC03     		.uleb128 .LEHB277-.LFB1417
 7938 0788 40       		.uleb128 .LEHE277-.LEHB277
 7939 0789 F107     		.uleb128 .L778-.LFB1417
 7940 078b 01       		.uleb128 0x1
 7941 078c B304     		.uleb128 .LEHB278-.LFB1417
 7942 078e 05       		.uleb128 .LEHE278-.LEHB278
 7943 078f E907     		.uleb128 .L775-.LFB1417
 7944 0791 07       		.uleb128 0x7
 7945 0792 C804     		.uleb128 .LEHB279-.LFB1417
 7946 0794 05       		.uleb128 .LEHE279-.LEHB279
 7947 0795 B608     		.uleb128 .L774-.LFB1417
 7948 0797 07       		.uleb128 0x7
 7949 0798 DD04     		.uleb128 .LEHB280-.LFB1417
 7950 079a 05       		.uleb128 .LEHE280-.LEHB280
 7951 079b CD05     		.uleb128 .L769-.LFB1417
 7952 079d 07       		.uleb128 0x7
 7953 079e EA04     		.uleb128 .LEHB281-.LFB1417
 7954 07a0 05       		.uleb128 .LEHE281-.LEHB281
 7955 07a1 8207     		.uleb128 .L768-.LFB1417
 7956 07a3 05       		.uleb128 0x5
 7957 07a4 A805     		.uleb128 .LEHB282-.LFB1417
 7958 07a6 1F       		.uleb128 .LEHE282-.LEHB282
 7959 07a7 8A07     		.uleb128 .L776-.LFB1417
 7960 07a9 07       		.uleb128 0x7
 7961 07aa 8A06     		.uleb128 .LEHB283-.LFB1417
 7962 07ac 05       		.uleb128 .LEHE283-.LEHB283
 7963 07ad EB08     		.uleb128 .L771-.LFB1417
 7964 07af 00       		.uleb128 0
 7965 07b0 A306     		.uleb128 .LEHB284-.LFB1417
 7966 07b2 43       		.uleb128 .LEHE284-.LEHB284
 7967 07b3 CE08     		.uleb128 .L772-.LFB1417
 7968 07b5 00       		.uleb128 0
 7969 07b6 EE06     		.uleb128 .LEHB285-.LFB1417
 7970 07b8 05       		.uleb128 .LEHE285-.LEHB285
 7971 07b9 EB08     		.uleb128 .L771-.LFB1417
 7972 07bb 00       		.uleb128 0
 7973 07bc F907     		.uleb128 .LEHB286-.LFB1417
 7974 07be 33       		.uleb128 .LEHE286-.LEHB286
 7975 07bf BE08     		.uleb128 .L777-.LFB1417
 7976 07c1 07       		.uleb128 0x7
 7977 07c2 AC08     		.uleb128 .LEHB287-.LFB1417
 7978 07c4 05       		.uleb128 .LEHE287-.LEHB287
 7979 07c5 8A07     		.uleb128 .L776-.LFB1417
 7980 07c7 07       		.uleb128 0x7
 7981 07c8 E608     		.uleb128 .LEHB288-.LFB1417
 7982 07ca 05       		.uleb128 .LEHE288-.LEHB288
 7983 07cb 00       		.uleb128 0
 7984 07cc 00       		.uleb128 0
 7985 07cd F508     		.uleb128 .LEHB289-.LFB1417
 7986 07cf 19       		.uleb128 .LEHE289-.LEHB289
 7987 07d0 F809     		.uleb128 .L773-.LFB1417
 7988 07d2 00       		.uleb128 0
 7989 07d3 8E09     		.uleb128 .LEHB290-.LFB1417
 7990 07d5 05       		.uleb128 .LEHE290-.LEHB290
 7991 07d6 00       		.uleb128 0
 7992 07d7 00       		.uleb128 0
 7993 07d8 A009     		.uleb128 .LEHB291-.LFB1417
 7994 07da 53       		.uleb128 .LEHE291-.LEHB291
 7995 07db 880A     		.uleb128 .L770-.LFB1417
 7996 07dd 00       		.uleb128 0
 7997 07de 830A     		.uleb128 .LEHB292-.LFB1417
 7998 07e0 05       		.uleb128 .LEHE292-.LEHB292
 7999 07e1 00       		.uleb128 0
 8000 07e2 00       		.uleb128 0
 8001              	.LLSDACSE1417:
 8002 07e3 03       		.byte	0x3
 8003 07e4 00       		.byte	0
 8004 07e5 02       		.byte	0x2
 8005 07e6 7D       		.byte	0x7d
 8006 07e7 01       		.byte	0x1
 8007 07e8 7D       		.byte	0x7d
 8008 07e9 00       		.byte	0
 8009 07ea 7D       		.byte	0x7d
 8010 07eb 00       		.align 4
 8011 07ec 00000000 		.long	0
 8012              	
 8013 07f0 00000000 		.long	DW.ref._ZTISt9exception-.
 8014 07f4 00000000 		.long	DW.ref._ZTIN8UnitTest15AssertExceptionE-.
 8015              	.LLSDATT1417:
 8016              		.text
 8018 393d 90       		.align 2
 8019 393e 6690     		.p2align 4,,15
 8021              	_ZNK12_GLOBAL__N_147TestTestRunnerFixtureReporterNotifiedOfFailures7RunImplEv:
 8022              	.LFB1267:
 8023              		.cfi_startproc
 8024              		.cfi_personality 0x9b,DW.ref.__gxx_personality_v0
 8025              		.cfi_lsda 0x1b,.LLSDA1267
 8026 3940 4156     		pushq	%r14
 8027              		.cfi_def_cfa_offset 16
 8028              		.cfi_offset 14, -16
 8029 3942 4155     		pushq	%r13
 8030              		.cfi_def_cfa_offset 24
 8031              		.cfi_offset 13, -24
 8032 3944 4989FD   		movq	%rdi, %r13
 8033 3947 4154     		pushq	%r12
 8034              		.cfi_def_cfa_offset 32
 8035              		.cfi_offset 12, -32
 8036 3949 55       		pushq	%rbp
 8037              		.cfi_def_cfa_offset 40
 8038              		.cfi_offset 6, -40
 8039 394a 488D6F08 		leaq	8(%rdi), %rbp
 8040 394e 53       		pushq	%rbx
 8041              		.cfi_def_cfa_offset 48
 8042              		.cfi_offset 3, -48
 8043 394f 4881EC90 		subq	$2192, %rsp
 8043      080000
 8044              		.cfi_def_cfa_offset 2240
 8045 3956 488D5C24 		leaq	32(%rsp), %rbx
 8045      20
 8046 395b 64488B04 		movq	%fs:40, %rax
 8046      25280000 
 8046      00
 8047 3964 48898424 		movq	%rax, 2184(%rsp)
 8047      88080000 
 8048 396c 31C0     		xorl	%eax, %eax
 8049 396e 488D7318 		leaq	24(%rbx), %rsi
 8050 3972 4889DF   		movq	%rbx, %rdi
 8051              	.LEHB293:
 8052 3975 E8000000 		call	_ZN8UnitTest10TestRunnerC1ERNS_12TestReporterE@PLT
 8052      00
 8053              	.LEHE293:
 8054 397a 4C8D2500 		leaq	16+_ZTV17RecordingReporter(%rip), %r12
 8054      000000
 8055 3981 488DBB48 		leaq	2120(%rbx), %rdi
 8055      080000
 8056 3988 C7442440 		movl	$0, 64(%rsp)
 8056      00000000 
 8057 3990 C7842444 		movl	$0, 580(%rsp)
 8057      02000000 
 8057      000000
 8058 399b C7842448 		movl	$0, 840(%rsp)
 8058      03000000 
 8058      000000
 8059 39a6 4C896424 		movq	%r12, 56(%rsp)
 8059      38
 8060 39ab C784244C 		movl	$0, 1612(%rsp)
 8060      06000000 
 8060      000000
 8061 39b6 48C78424 		movq	$0, 2128(%rsp)
 8061      50080000 
 8061      00000000 
 8062 39c2 48C78424 		movq	$0, 2136(%rsp)
 8062      58080000 
 8062      00000000 
 8063 39ce C7842460 		movl	$0, 2144(%rsp)
 8063      08000000 
 8063      000000
 8064 39d9 C6442444 		movb	$0, 68(%rsp)
 8064      00
 8065 39de C6842444 		movb	$0, 324(%rsp)
 8065      01000000 
 8066 39e6 C6842448 		movb	$0, 584(%rsp)
 8066      02000000 
 8067 39ee C684244C 		movb	$0, 844(%rsp)
 8067      03000000 
 8068 39f6 C684244C 		movb	$0, 1100(%rsp)
 8068      04000000 
 8069 39fe C684244C 		movb	$0, 1356(%rsp)
 8069      05000000 
 8070 3a06 C6842450 		movb	$0, 1616(%rsp)
 8070      06000000 
 8071 3a0e C6842450 		movb	$0, 1872(%rsp)
 8071      07000000 
 8072              	.LEHB294:
 8073 3a16 E8000000 		call	_ZN8UnitTest8TestListC1Ev@PLT
 8073      00
 8074              	.LEHE294:
 8075 3a1b 4889EE   		movq	%rbp, %rsi
 8076 3a1e 4889DF   		movq	%rbx, %rdi
 8077 3a21 4889AC24 		movq	%rbp, 2168(%rsp)
 8077      78080000 
 8078              	.LEHB295:
 8079 3a29 E802FAFF 		call	_ZN8UnitTest11ExecuteTestIN12_GLOBAL__N_149TestRunnerFixtureReporterNotifiedOfFailuresHelperE
 8079      FF
 8080              	.LEHE295:
 8081 3a2e 488D7B18 		leaq	24(%rbx), %rdi
 8082 3a32 4C896424 		movq	%r12, 56(%rsp)
 8082      38
 8083              	.LEHB296:
 8084 3a37 E8000000 		call	_ZN8UnitTest12TestReporterD2Ev@PLT
 8084      00
 8085              	.LEHE296:
 8086 3a3c 4889DF   		movq	%rbx, %rdi
 8087              	.LEHB297:
 8088 3a3f E8000000 		call	_ZN8UnitTest10TestRunnerD1Ev@PLT
 8088      00
 8089              	.LEHE297:
 8090              	.L785:
 8091 3a44 488B8424 		movq	2184(%rsp), %rax
 8091      88080000 
 8092 3a4c 64483304 		xorq	%fs:40, %rax
 8092      25280000 
 8092      00
 8093 3a55 7510     		jne	.L833
 8094 3a57 4881C490 		addq	$2192, %rsp
 8094      080000
 8095              		.cfi_remember_state
 8096              		.cfi_def_cfa_offset 48
 8097 3a5e 5B       		popq	%rbx
 8098              		.cfi_def_cfa_offset 40
 8099 3a5f 5D       		popq	%rbp
 8100              		.cfi_def_cfa_offset 32
 8101 3a60 415C     		popq	%r12
 8102              		.cfi_def_cfa_offset 24
 8103 3a62 415D     		popq	%r13
 8104              		.cfi_def_cfa_offset 16
 8105 3a64 415E     		popq	%r14
 8106              		.cfi_def_cfa_offset 8
 8107 3a66 C3       		ret
 8108              	.L833:
 8109              		.cfi_restore_state
 8110 3a67 E8000000 		call	__stack_chk_fail@PLT
 8110      00
 8111              	.L805:
 8112 3a6c 4889C7   		movq	%rax, %rdi
 8113              	.L791:
 8114 3a6f 4883FA01 		cmpq	$1, %rdx
 8115 3a73 0F846F01 		je	.L793
 8115      0000
 8116 3a79 4883FA02 		cmpq	$2, %rdx
 8117 3a7d 0F853101 		jne	.L834
 8117      0000
 8118              	.L794:
 8119 3a83 E8000000 		call	__cxa_begin_catch@PLT
 8119      00
 8120 3a88 4889DF   		movq	%rbx, %rdi
 8121 3a8b 4989C4   		movq	%rax, %r12
 8122              	.LEHB298:
 8123 3a8e E8000000 		call	_ZN8UnitTest15MemoryOutStreamC1Ev
 8123      00
 8124              	.LEHE298:
 8125 3a93 488D3500 		leaq	.LC11(%rip), %rsi
 8125      000000
 8126 3a9a BA150000 		movl	$21, %edx
 8126      00
 8127 3a9f 4889DF   		movq	%rbx, %rdi
 8128              	.LEHB299:
 8129 3aa2 E8000000 		call	_ZSt16__ostream_insertIcSt11char_traitsIcEERSt13basic_ostreamIT_T0_ES6_PKS3_l@PLT
 8129      00
 8130 3aa7 498B0424 		movq	(%r12), %rax
 8131 3aab 4C89E7   		movq	%r12, %rdi
 8132 3aae FF5010   		call	*16(%rax)
 8133 3ab1 4889DF   		movq	%rbx, %rdi
 8134 3ab4 4889C6   		movq	%rax, %rsi
 8135 3ab7 E8000000 		call	_ZStlsISt11char_traitsIcEERSt13basic_ostreamIcT_ES5_PKc@PLT
 8135      00
 8136 3abc E8000000 		call	_ZN8UnitTest11CurrentTest7ResultsEv@PLT
 8136      00
 8137 3ac1 4889DF   		movq	%rbx, %rdi
 8138 3ac4 4C8B20   		movq	(%rax), %r12
 8139 3ac7 E8000000 		call	_ZNK8UnitTest15MemoryOutStream7GetTextEv@PLT
 8139      00
 8140 3acc 4889C2   		movq	%rax, %rdx
 8141 3acf 4889EE   		movq	%rbp, %rsi
 8142 3ad2 4C89E7   		movq	%r12, %rdi
 8143 3ad5 E8000000 		call	_ZN8UnitTest11TestResults13OnTestFailureERKNS_11TestDetailsEPKc@PLT
 8143      00
 8144              	.LEHE299:
 8145 3ada 4889DF   		movq	%rbx, %rdi
 8146              	.LEHB300:
 8147 3add E8000000 		call	_ZN8UnitTest15MemoryOutStreamD1Ev
 8147      00
 8148              	.LEHE300:
 8149              	.L832:
 8150 3ae2 E8000000 		call	__cxa_end_catch@PLT
 8150      00
 8151 3ae7 E958FFFF 		jmp	.L785
 8151      FF
 8152              	.L812:
 8153 3aec 4989C4   		movq	%rax, %r12
 8154 3aef 4989D6   		movq	%rdx, %r14
 8155 3af2 4889DF   		movq	%rbx, %rdi
 8156 3af5 E8000000 		call	_ZN8UnitTest10TestRunnerD1Ev@PLT
 8156      00
 8157 3afa 4C89E7   		movq	%r12, %rdi
 8158 3afd 4C89F2   		movq	%r14, %rdx
 8159 3b00 E96AFFFF 		jmp	.L791
 8159      FF
 8160              	.L806:
 8161 3b05 4989C4   		movq	%rax, %r12
 8162 3b08 4989D6   		movq	%rdx, %r14
 8163 3b0b 4889DF   		movq	%rbx, %rdi
 8164 3b0e E8000000 		call	_ZN12_GLOBAL__N_111FixtureBaseD2Ev
 8164      00
 8165 3b13 4C89E7   		movq	%r12, %rdi
 8166 3b16 4C89F2   		movq	%r14, %rdx
 8167 3b19 E951FFFF 		jmp	.L791
 8167      FF
 8168              	.L811:
 8169 3b1e 4989C4   		movq	%rax, %r12
 8170 3b21 4989D6   		movq	%rdx, %r14
 8171 3b24 4889DF   		movq	%rbx, %rdi
 8172 3b27 E8000000 		call	_ZN12_GLOBAL__N_111FixtureBaseD2Ev
 8172      00
 8173 3b2c 4C89E7   		movq	%r12, %rdi
 8174 3b2f 4C89F2   		movq	%r14, %rdx
 8175              	.L788:
 8176 3b32 4883FA01 		cmpq	$1, %rdx
 8177 3b36 0F84AC00 		je	.L793
 8177      0000
 8178 3b3c 4883FA02 		cmpq	$2, %rdx
 8179 3b40 0F843DFF 		je	.L794
 8179      FFFF
 8180 3b46 E8000000 		call	__cxa_begin_catch@PLT
 8180      00
 8181              	.LEHB301:
 8182 3b4b E8000000 		call	_ZN8UnitTest11CurrentTest7ResultsEv@PLT
 8182      00
 8183 3b50 4889E3   		movq	%rsp, %rbx
 8184 3b53 BA9D0000 		movl	$157, %edx
 8184      00
 8185 3b58 4889EE   		movq	%rbp, %rsi
 8186 3b5b 4889DF   		movq	%rbx, %rdi
 8187 3b5e 4C8B20   		movq	(%rax), %r12
 8188 3b61 E8000000 		call	_ZN8UnitTest11TestDetailsC1ERKS0_i@PLT
 8188      00
 8189 3b66 488D1500 		leaq	.LC14(%rip), %rdx
 8189      000000
 8190 3b6d 4889DE   		movq	%rbx, %rsi
 8191 3b70 4C89E7   		movq	%r12, %rdi
 8192 3b73 E8000000 		call	_ZN8UnitTest11TestResults13OnTestFailureERKNS_11TestDetailsEPKc@PLT
 8192      00
 8193              	.LEHE301:
 8194              	.L795:
 8195              	.LEHB302:
 8196 3b78 E8000000 		call	__cxa_end_catch@PLT
 8196      00
 8197              	.LEHE302:
 8198 3b7d E9C2FEFF 		jmp	.L785
 8198      FF
 8199              	.L813:
 8200 3b82 4889C7   		movq	%rax, %rdi
 8201 3b85 EBAB     		jmp	.L788
 8202              	.L810:
 8203 3b87 4889C3   		movq	%rax, %rbx
 8204 3b8a E8000000 		call	__cxa_end_catch@PLT
 8204      00
 8205 3b8f 4889DF   		movq	%rbx, %rdi
 8206              	.LEHB303:
 8207 3b92 E8000000 		call	_Unwind_Resume@PLT
 8207      00
 8208              	.LEHE303:
 8209              	.L809:
 8210 3b97 4889DF   		movq	%rbx, %rdi
 8211 3b9a 4889C5   		movq	%rax, %rbp
 8212 3b9d E8000000 		call	_ZN8UnitTest15MemoryOutStreamD1Ev
 8212      00
 8213              	.L798:
 8214 3ba2 E8000000 		call	__cxa_end_catch@PLT
 8214      00
 8215 3ba7 4889EF   		movq	%rbp, %rdi
 8216              	.LEHB304:
 8217 3baa E8000000 		call	_Unwind_Resume@PLT
 8217      00
 8218              	.LEHE304:
 8219              	.L808:
 8220 3baf 4889C5   		movq	%rax, %rbp
 8221 3bb2 EBEE     		jmp	.L798
 8222              	.L834:
 8223 3bb4 E8000000 		call	__cxa_begin_catch@PLT
 8223      00
 8224              	.LEHB305:
 8225 3bb9 E8000000 		call	_ZN8UnitTest11CurrentTest7ResultsEv@PLT
 8225      00
 8226 3bbe 4889E3   		movq	%rsp, %rbx
 8227 3bc1 BA9D0000 		movl	$157, %edx
 8227      00
 8228 3bc6 4889EE   		movq	%rbp, %rsi
 8229 3bc9 4889DF   		movq	%rbx, %rdi
 8230 3bcc 4C8B20   		movq	(%rax), %r12
 8231 3bcf E8000000 		call	_ZN8UnitTest11TestDetailsC1ERKS0_i@PLT
 8231      00
 8232 3bd4 488D1500 		leaq	.LC13(%rip), %rdx
 8232      000000
 8233 3bdb 4889DE   		movq	%rbx, %rsi
 8234 3bde 4C89E7   		movq	%r12, %rdi
 8235 3be1 E8000000 		call	_ZN8UnitTest11TestResults13OnTestFailureERKNS_11TestDetailsEPKc@PLT
 8235      00
 8236              	.LEHE305:
 8237 3be6 EB90     		jmp	.L795
 8238              	.L793:
 8239 3be8 E8000000 		call	__cxa_begin_catch@PLT
 8239      00
 8240 3bed 4889C3   		movq	%rax, %rbx
 8241              	.LEHB306:
 8242 3bf0 E8000000 		call	_ZN8UnitTest11CurrentTest7ResultsEv@PLT
 8242      00
 8243 3bf5 488B28   		movq	(%rax), %rbp
 8244 3bf8 488B03   		movq	(%rbx), %rax
 8245 3bfb 4889DF   		movq	%rbx, %rdi
 8246 3bfe FF5010   		call	*16(%rax)
 8247 3c01 4889DF   		movq	%rbx, %rdi
 8248 3c04 4989C4   		movq	%rax, %r12
 8249 3c07 E8000000 		call	_ZNK8UnitTest15AssertException10LineNumberEv@PLT
 8249      00
 8250 3c0c 4889DF   		movq	%rbx, %rdi
 8251 3c0f 4189C6   		movl	%eax, %r14d
 8252 3c12 E8000000 		call	_ZNK8UnitTest15AssertException8FilenameEv@PLT
 8252      00
 8253 3c17 498B5508 		movq	8(%r13), %rdx
 8254 3c1b 498B7510 		movq	16(%r13), %rsi
 8255 3c1f 4889E3   		movq	%rsp, %rbx
 8256 3c22 4589F0   		movl	%r14d, %r8d
 8257 3c25 4889C1   		movq	%rax, %rcx
 8258 3c28 4889DF   		movq	%rbx, %rdi
 8259 3c2b E8000000 		call	_ZN8UnitTest11TestDetailsC1EPKcS2_S2_i@PLT
 8259      00
 8260 3c30 4C89E2   		movq	%r12, %rdx
 8261 3c33 4889DE   		movq	%rbx, %rsi
 8262 3c36 4889EF   		movq	%rbp, %rdi
 8263 3c39 E8000000 		call	_ZN8UnitTest11TestResults13OnTestFailureERKNS_11TestDetailsEPKc@PLT
 8263      00
 8264              	.LEHE306:
 8265 3c3e E99FFEFF 		jmp	.L832
 8265      FF
 8266              	.L807:
 8267 3c43 4889C3   		movq	%rax, %rbx
 8268 3c46 E8000000 		call	__cxa_end_catch@PLT
 8268      00
 8269 3c4b 4889DF   		movq	%rbx, %rdi
 8270              	.LEHB307:
 8271 3c4e E8000000 		call	_Unwind_Resume@PLT
 8271      00
 8272              	.LEHE307:
 8273              		.cfi_endproc
 8274              	.LFE1267:
 8275              		.section	.gcc_except_table
 8276              		.align 4
 8277              	.LLSDA1267:
 8278 07f8 FF       		.byte	0xff
 8279 07f9 9B       		.byte	0x9b
 8280 07fa 6D       		.uleb128 .LLSDATT1267-.LLSDATTD1267
 8281              	.LLSDATTD1267:
 8282 07fb 01       		.byte	0x1
 8283 07fc 55       		.uleb128 .LLSDACSE1267-.LLSDACSB1267
 8284              	.LLSDACSB1267:
 8285 07fd 35       		.uleb128 .LEHB293-.LFB1267
 8286 07fe 05       		.uleb128 .LEHE293-.LEHB293
 8287 07ff C204     		.uleb128 .L813-.LFB1267
 8288 0801 05       		.uleb128 0x5
 8289 0802 D601     		.uleb128 .LEHB294-.LFB1267
 8290 0804 05       		.uleb128 .LEHE294-.LEHB294
 8291 0805 DE03     		.uleb128 .L811-.LFB1267
 8292 0807 07       		.uleb128 0x7
 8293 0808 E901     		.uleb128 .LEHB295-.LFB1267
 8294 080a 05       		.uleb128 .LEHE295-.LEHB295
 8295 080b C503     		.uleb128 .L806-.LFB1267
 8296 080d 07       		.uleb128 0x7
 8297 080e F701     		.uleb128 .LEHB296-.LFB1267
 8298 0810 05       		.uleb128 .LEHE296-.LEHB296
 8299 0811 AC03     		.uleb128 .L812-.LFB1267
 8300 0813 07       		.uleb128 0x7
 8301 0814 FF01     		.uleb128 .LEHB297-.LFB1267
 8302 0816 05       		.uleb128 .LEHE297-.LEHB297
 8303 0817 AC02     		.uleb128 .L805-.LFB1267
 8304 0819 05       		.uleb128 0x5
 8305 081a CE02     		.uleb128 .LEHB298-.LFB1267
 8306 081c 05       		.uleb128 .LEHE298-.LEHB298
 8307 081d EF04     		.uleb128 .L808-.LFB1267
 8308 081f 00       		.uleb128 0
 8309 0820 E202     		.uleb128 .LEHB299-.LFB1267
 8310 0822 38       		.uleb128 .LEHE299-.LEHB299
 8311 0823 D704     		.uleb128 .L809-.LFB1267
 8312 0825 00       		.uleb128 0
 8313 0826 9D03     		.uleb128 .LEHB300-.LFB1267
 8314 0828 05       		.uleb128 .LEHE300-.LEHB300
 8315 0829 EF04     		.uleb128 .L808-.LFB1267
 8316 082b 00       		.uleb128 0
 8317 082c 8B04     		.uleb128 .LEHB301-.LFB1267
 8318 082e 2D       		.uleb128 .LEHE301-.LEHB301
 8319 082f C704     		.uleb128 .L810-.LFB1267
 8320 0831 00       		.uleb128 0
 8321 0832 B804     		.uleb128 .LEHB302-.LFB1267
 8322 0834 05       		.uleb128 .LEHE302-.LEHB302
 8323 0835 00       		.uleb128 0
 8324 0836 00       		.uleb128 0
 8325 0837 D204     		.uleb128 .LEHB303-.LFB1267
 8326 0839 05       		.uleb128 .LEHE303-.LEHB303
 8327 083a 00       		.uleb128 0
 8328 083b 00       		.uleb128 0
 8329 083c EA04     		.uleb128 .LEHB304-.LFB1267
 8330 083e 05       		.uleb128 .LEHE304-.LEHB304
 8331 083f 00       		.uleb128 0
 8332 0840 00       		.uleb128 0
 8333 0841 F904     		.uleb128 .LEHB305-.LFB1267
 8334 0843 2D       		.uleb128 .LEHE305-.LEHB305
 8335 0844 C704     		.uleb128 .L810-.LFB1267
 8336 0846 00       		.uleb128 0
 8337 0847 B005     		.uleb128 .LEHB306-.LFB1267
 8338 0849 4E       		.uleb128 .LEHE306-.LEHB306
 8339 084a 8306     		.uleb128 .L807-.LFB1267
 8340 084c 00       		.uleb128 0
 8341 084d 8E06     		.uleb128 .LEHB307-.LFB1267
 8342 084f 05       		.uleb128 .LEHE307-.LEHB307
 8343 0850 00       		.uleb128 0
 8344 0851 00       		.uleb128 0
 8345              	.LLSDACSE1267:
 8346 0852 03       		.byte	0x3
 8347 0853 00       		.byte	0
 8348 0854 02       		.byte	0x2
 8349 0855 7D       		.byte	0x7d
 8350 0856 01       		.byte	0x1
 8351 0857 7D       		.byte	0x7d
 8352 0858 00       		.byte	0
 8353 0859 7D       		.byte	0x7d
 8354 085a 0000     		.align 4
 8355 085c 00000000 		.long	0
 8356              	
 8357 0860 00000000 		.long	DW.ref._ZTISt9exception-.
 8358 0864 00000000 		.long	DW.ref._ZTIN8UnitTest15AssertExceptionE-.
 8359              	.LLSDATT1267:
 8360              		.text
 8362              		.section	.rodata.str1.8
 8363 0574 00000000 		.align 8
 8364              	.LC41:
 8365 0578 556E6861 		.string	"Unhandled exception in CHECK_EQUAL(2, reporter.summaryFailedTestCount)"
 8365      6E646C65 
 8365      64206578 
 8365      63657074 
 8365      696F6E20 
 8366              		.text
 8367 3c53 0F1F0066 		.p2align 4,,15
 8367      2E0F1F84 
 8367      00000000 
 8367      00
 8369              	_ZN8UnitTest11ExecuteTestIN12_GLOBAL__N_152TestRunnerFixtureReporterNotifiedOfFailedTestsHelperEEEv
 8370              	.LFB1416:
 8371              		.cfi_startproc
 8372              		.cfi_personality 0x9b,DW.ref.__gxx_personality_v0
 8373              		.cfi_lsda 0x1b,.LLSDA1416
 8374 3c60 4155     		pushq	%r13
 8375              		.cfi_def_cfa_offset 16
 8376              		.cfi_offset 13, -16
 8377 3c62 4154     		pushq	%r12
 8378              		.cfi_def_cfa_offset 24
 8379              		.cfi_offset 12, -24
 8380 3c64 55       		pushq	%rbp
 8381              		.cfi_def_cfa_offset 32
 8382              		.cfi_offset 6, -32
 8383 3c65 53       		pushq	%rbx
 8384              		.cfi_def_cfa_offset 40
 8385              		.cfi_offset 3, -40
 8386 3c66 4889F3   		movq	%rsi, %rbx
 8387 3c69 4881EC58 		subq	$1880, %rsp
 8387      070000
 8388              		.cfi_def_cfa_offset 1920
 8389 3c70 48893C24 		movq	%rdi, (%rsp)
 8390 3c74 48897424 		movq	%rsi, 8(%rsp)
 8390      08
 8391 3c79 64488B04 		movq	%fs:40, %rax
 8391      25280000 
 8391      00
 8392 3c82 48898424 		movq	%rax, 1864(%rsp)
 8392      48070000 
 8393 3c8a 31C0     		xorl	%eax, %eax
 8394              	.LEHB308:
 8395 3c8c E8000000 		call	_ZN8UnitTest11CurrentTest7DetailsEv@PLT
 8395      00
 8396              	.LEHE308:
 8397 3c91 488DBC24 		leaq	736(%rsp), %rdi
 8397      E0020000 
 8398 3c99 488918   		movq	%rbx, (%rax)
 8399              	.LEHB309:
 8400 3c9c E8000000 		call	_ZN8UnitTest16SignalTranslatorC1Ev@PLT
 8400      00
 8401              	.LEHE309:
 8402 3ca1 488B3D00 		movq	_ZN8UnitTest16SignalTranslator12s_jumpTargetE(%rip), %rdi
 8402      000000
 8403 3ca8 BE010000 		movl	$1, %esi
 8403      00
 8404 3cad E8000000 		call	__sigsetjmp@PLT
 8404      00
 8405 3cb2 85C0     		testl	%eax, %eax
 8406 3cb4 742A     		je	.L837
 8407 3cb6 BF080000 		movl	$8, %edi
 8407      00
 8408 3cbb E8000000 		call	__cxa_allocate_exception@PLT
 8408      00
 8409 3cc0 488D0D00 		leaq	.LC3(%rip), %rcx
 8409      000000
 8410 3cc7 488D3500 		leaq	_ZTIPKc(%rip), %rsi
 8410      000000
 8411 3cce 31D2     		xorl	%edx, %edx
 8412 3cd0 4889C7   		movq	%rax, %rdi
 8413 3cd3 488908   		movq	%rcx, (%rax)
 8414              	.LEHB310:
 8415 3cd6 E8000000 		call	__cxa_throw@PLT
 8415      00
 8416 3cdb 0F1F4400 		.p2align 4,,10
 8416      00
 8417              		.p2align 3
 8418              	.L837:
 8419 3ce0 488DBC24 		leaq	128(%rsp), %rdi
 8419      80000000 
 8420 3ce8 488D0D00 		leaq	.LC24(%rip), %rcx
 8420      000000
 8421 3cef 488D1500 		leaq	.LC38(%rip), %rdx
 8421      000000
 8422 3cf6 488D3500 		leaq	.LC39(%rip), %rsi
 8422      000000
 8423 3cfd 4531C0   		xorl	%r8d, %r8d
 8424 3d00 E8000000 		call	_ZN8UnitTest4TestC2EPKcS2_S2_i@PLT
 8424      00
 8425              	.LEHE310:
 8426 3d05 488D1D00 		leaq	16+_ZTVN12_GLOBAL__N_18MockTestE(%rip), %rbx
 8426      000000
 8427 3d0c 488DBC24 		leaq	192(%rsp), %rdi
 8427      C0000000 
 8428 3d14 488D0D00 		leaq	.LC24(%rip), %rcx
 8428      000000
 8429 3d1b 488D1500 		leaq	.LC38(%rip), %rdx
 8429      000000
 8430 3d22 488D3500 		leaq	.LC39(%rip), %rsi
 8430      000000
 8431 3d29 4531C0   		xorl	%r8d, %r8d
 8432 3d2c 48899C24 		movq	%rbx, 128(%rsp)
 8432      80000000 
 8433 3d34 C68424B1 		movb	$0, 177(%rsp)
 8433      00000000 
 8434 3d3c C68424B2 		movb	$0, 178(%rsp)
 8434      00000000 
 8435 3d44 C78424B4 		movl	$2, 180(%rsp)
 8435      00000002 
 8435      000000
 8436              	.LEHB311:
 8437 3d4f E8000000 		call	_ZN8UnitTest4TestC2EPKcS2_S2_i@PLT
 8437      00
 8438              	.LEHE311:
 8439 3d54 488DBC24 		leaq	256(%rsp), %rdi
 8439      00010000 
 8440 3d5c 488D0D00 		leaq	.LC24(%rip), %rcx
 8440      000000
 8441 3d63 488D1500 		leaq	.LC38(%rip), %rdx
 8441      000000
 8442 3d6a 488D3500 		leaq	.LC39(%rip), %rsi
 8442      000000
 8443 3d71 4531C0   		xorl	%r8d, %r8d
 8444 3d74 48899C24 		movq	%rbx, 192(%rsp)
 8444      C0000000 
 8445 3d7c C68424F1 		movb	$1, 241(%rsp)
 8445      00000001 
 8446 3d84 C68424F2 		movb	$0, 242(%rsp)
 8446      00000000 
 8447 3d8c C78424F4 		movl	$1, 244(%rsp)
 8447      00000001 
 8447      000000
 8448              	.LEHB312:
 8449 3d97 E8000000 		call	_ZN8UnitTest4TestC2EPKcS2_S2_i@PLT
 8449      00
 8450              	.LEHE312:
 8451 3d9c 488B2C24 		movq	(%rsp), %rbp
 8452 3da0 48899C24 		movq	%rbx, 256(%rsp)
 8452      00010000 
 8453 3da8 488DB424 		leaq	128(%rsp), %rsi
 8453      80000000 
 8454 3db0 C6842431 		movb	$0, 305(%rsp)
 8454      01000000 
 8455 3db8 C6842432 		movb	$0, 306(%rsp)
 8455      01000000 
 8456 3dc0 C7842434 		movl	$3, 308(%rsp)
 8456      01000003 
 8456      000000
 8457 3dcb 488D9D48 		leaq	2120(%rbp), %rbx
 8457      080000
 8458 3dd2 4889DF   		movq	%rbx, %rdi
 8459              	.LEHB313:
 8460 3dd5 E8000000 		call	_ZN8UnitTest8TestList3AddEPNS_4TestE@PLT
 8460      00
 8461 3dda 488DB424 		leaq	192(%rsp), %rsi
 8461      C0000000 
 8462 3de2 4889DF   		movq	%rbx, %rdi
 8463 3de5 E8000000 		call	_ZN8UnitTest8TestList3AddEPNS_4TestE@PLT
 8463      00
 8464 3dea 488DB424 		leaq	256(%rsp), %rsi
 8464      00010000 
 8465 3df2 4889DF   		movq	%rbx, %rdi
 8466 3df5 E8000000 		call	_ZN8UnitTest8TestList3AddEPNS_4TestE@PLT
 8466      00
 8467 3dfa E8000000 		call	_ZN8UnitTest11CurrentTest7ResultsEv@PLT
 8467      00
 8468 3dff 4C8B28   		movq	(%rax), %r13
 8469 3e02 E8000000 		call	_ZN8UnitTest11CurrentTest7DetailsEv@PLT
 8469      00
 8470 3e07 4889DF   		movq	%rbx, %rdi
 8471 3e0a 4C8B20   		movq	(%rax), %r12
 8472 3e0d E8000000 		call	_ZNK8UnitTest8TestList7GetHeadEv@PLT
 8472      00
 8473 3e12 4885C0   		testq	%rax, %rax
 8474 3e15 4889C3   		movq	%rax, %rbx
 8475 3e18 0F85FC00 		jne	.L840
 8475      0000
 8476 3e1e 6690     		.p2align 4,,10
 8477              		.p2align 3
 8478              	.L838:
 8479 3e20 488B1C24 		movq	(%rsp), %rbx
 8480 3e24 4889DF   		movq	%rbx, %rdi
 8481 3e27 E8000000 		call	_ZNK8UnitTest10TestRunner6FinishEv@PLT
 8481      00
 8482 3e2c E8000000 		call	_ZN8UnitTest11CurrentTest7ResultsEv@PLT
 8482      00
 8483 3e31 4C8928   		movq	%r13, (%rax)
 8484 3e34 E8000000 		call	_ZN8UnitTest11CurrentTest7DetailsEv@PLT
 8484      00
 8485              	.LEHE313:
 8486 3e39 4C8920   		movq	%r12, (%rax)
 8487              	.LEHB314:
 8488 3e3c E8000000 		call	_ZN8UnitTest11CurrentTest7DetailsEv@PLT
 8488      00
 8489 3e41 488B30   		movq	(%rax), %rsi
 8490 3e44 488D7C24 		leaq	96(%rsp), %rdi
 8490      60
 8491 3e49 BA9A0000 		movl	$154, %edx
 8491      00
 8492 3e4e E8000000 		call	_ZN8UnitTest11TestDetailsC1ERKS0_i@PLT
 8492      00
 8493 3e53 4881C338 		addq	$2104, %rbx
 8493      080000
 8494 3e5a C744241C 		movl	$2, 28(%rsp)
 8494      02000000 
 8495 3e62 E8000000 		call	_ZN8UnitTest11CurrentTest7ResultsEv@PLT
 8495      00
 8496 3e67 488B38   		movq	(%rax), %rdi
 8497 3e6a 488D4C24 		leaq	96(%rsp), %rcx
 8497      60
 8498 3e6f 488D7424 		leaq	28(%rsp), %rsi
 8498      1C
 8499 3e74 4889DA   		movq	%rbx, %rdx
 8500 3e77 E8000000 		call	_ZN8UnitTest10CheckEqualIiiEEvRNS_11TestResultsERKT_RKT0_RKNS_11TestDetailsE
 8500      00
 8501              	.LEHE314:
 8502              	.L844:
 8503 3e7c 488D1D00 		leaq	16+_ZTVN12_GLOBAL__N_18MockTestE(%rip), %rbx
 8503      000000
 8504 3e83 488DBC24 		leaq	256(%rsp), %rdi
 8504      00010000 
 8505 3e8b 48899C24 		movq	%rbx, 256(%rsp)
 8505      00010000 
 8506              	.LEHB315:
 8507 3e93 E8000000 		call	_ZN8UnitTest4TestD2Ev@PLT
 8507      00
 8508              	.LEHE315:
 8509 3e98 488DBC24 		leaq	192(%rsp), %rdi
 8509      C0000000 
 8510 3ea0 48899C24 		movq	%rbx, 192(%rsp)
 8510      C0000000 
 8511              	.LEHB316:
 8512 3ea8 E8000000 		call	_ZN8UnitTest4TestD2Ev@PLT
 8512      00
 8513              	.LEHE316:
 8514 3ead 488DBC24 		leaq	128(%rsp), %rdi
 8514      80000000 
 8515 3eb5 48899C24 		movq	%rbx, 128(%rsp)
 8515      80000000 
 8516              	.LEHB317:
 8517 3ebd E8000000 		call	_ZN8UnitTest4TestD2Ev@PLT
 8517      00
 8518              	.LEHE317:
 8519 3ec2 488DBC24 		leaq	736(%rsp), %rdi
 8519      E0020000 
 8520              	.LEHB318:
 8521 3eca E8000000 		call	_ZN8UnitTest16SignalTranslatorD1Ev@PLT
 8521      00
 8522              	.LEHE318:
 8523              	.L835:
 8524 3ecf 488B8424 		movq	1864(%rsp), %rax
 8524      48070000 
 8525 3ed7 64483304 		xorq	%fs:40, %rax
 8525      25280000 
 8525      00
 8526 3ee0 0F85F700 		jne	.L876
 8526      0000
 8527 3ee6 4881C458 		addq	$1880, %rsp
 8527      070000
 8528              		.cfi_remember_state
 8529              		.cfi_def_cfa_offset 40
 8530 3eed 5B       		popq	%rbx
 8531              		.cfi_def_cfa_offset 32
 8532 3eee 5D       		popq	%rbp
 8533              		.cfi_def_cfa_offset 24
 8534 3eef 415C     		popq	%r12
 8535              		.cfi_def_cfa_offset 16
 8536 3ef1 415D     		popq	%r13
 8537              		.cfi_def_cfa_offset 8
 8538 3ef3 C3       		ret
 8539              		.p2align 4,,10
 8540 3ef4 0F1F4000 		.p2align 3
 8541              	.L839:
 8542              		.cfi_restore_state
 8543 3ef8 488B0424 		movq	(%rsp), %rax
 8544 3efc 31C9     		xorl	%ecx, %ecx
 8545 3efe 4889DA   		movq	%rbx, %rdx
 8546 3f01 4889EF   		movq	%rbp, %rdi
 8547 3f04 488B7008 		movq	8(%rax), %rsi
 8548              	.LEHB319:
 8549 3f08 E8000000 		call	_ZNK8UnitTest10TestRunner7RunTestEPNS_11TestResultsEPNS_4TestEi@PLT
 8549      00
 8550              	.L841:
 8551 3f0d 488B5B28 		movq	40(%rbx), %rbx
 8552 3f11 4885DB   		testq	%rbx, %rbx
 8553 3f14 0F8406FF 		je	.L838
 8553      FFFF
 8554              	.L840:
 8555 3f1a 31D2     		xorl	%edx, %edx
 8556 3f1c 4889DE   		movq	%rbx, %rsi
 8557 3f1f 4889EF   		movq	%rbp, %rdi
 8558 3f22 E8000000 		call	_ZNK8UnitTest10TestRunner13IsTestInSuiteEPKNS_4TestEPKc@PLT
 8558      00
 8559              	.LEHE319:
 8560 3f27 84C0     		testb	%al, %al
 8561 3f29 74E2     		je	.L841
 8562 3f2b EBCB     		jmp	.L839
 8563              	.L862:
 8564 3f2d 4889C3   		movq	%rax, %rbx
 8565 3f30 4889D5   		movq	%rdx, %rbp
 8566              	.L849:
 8567 3f33 488DBC24 		leaq	736(%rsp), %rdi
 8567      E0020000 
 8568 3f3b E8000000 		call	_ZN8UnitTest16SignalTranslatorD1Ev@PLT
 8568      00
 8569 3f40 4889DF   		movq	%rbx, %rdi
 8570 3f43 4889EA   		movq	%rbp, %rdx
 8571              	.L850:
 8572 3f46 4883FA01 		cmpq	$1, %rdx
 8573 3f4a 0F84A801 		je	.L852
 8573      0000
 8574 3f50 4883FA02 		cmpq	$2, %rdx
 8575 3f54 0F857601 		jne	.L877
 8575      0000
 8576 3f5a E8000000 		call	__cxa_begin_catch@PLT
 8576      00
 8577 3f5f 488DBC24 		leaq	320(%rsp), %rdi
 8577      40010000 
 8578 3f67 4889C3   		movq	%rax, %rbx
 8579              	.LEHB320:
 8580 3f6a E8000000 		call	_ZN8UnitTest15MemoryOutStreamC1Ev
 8580      00
 8581              	.LEHE320:
 8582 3f6f 488DBC24 		leaq	320(%rsp), %rdi
 8582      40010000 
 8583 3f77 488D3500 		leaq	.LC11(%rip), %rsi
 8583      000000
 8584 3f7e BA150000 		movl	$21, %edx
 8584      00
 8585              	.LEHB321:
 8586 3f83 E8000000 		call	_ZSt16__ostream_insertIcSt11char_traitsIcEERSt13basic_ostreamIT_T0_ES6_PKS3_l@PLT
 8586      00
 8587 3f88 488B03   		movq	(%rbx), %rax
 8588 3f8b 4889DF   		movq	%rbx, %rdi
 8589 3f8e FF5010   		call	*16(%rax)
 8590 3f91 488DBC24 		leaq	320(%rsp), %rdi
 8590      40010000 
 8591 3f99 4889C6   		movq	%rax, %rsi
 8592 3f9c E8000000 		call	_ZStlsISt11char_traitsIcEERSt13basic_ostreamIcT_ES5_PKc@PLT
 8592      00
 8593 3fa1 E8000000 		call	_ZN8UnitTest11CurrentTest7ResultsEv@PLT
 8593      00
 8594 3fa6 488DBC24 		leaq	320(%rsp), %rdi
 8594      40010000 
 8595 3fae 488B18   		movq	(%rax), %rbx
 8596 3fb1 E8000000 		call	_ZNK8UnitTest15MemoryOutStream7GetTextEv@PLT
 8596      00
 8597 3fb6 488B7424 		movq	8(%rsp), %rsi
 8597      08
 8598 3fbb 4889C2   		movq	%rax, %rdx
 8599 3fbe 4889DF   		movq	%rbx, %rdi
 8600 3fc1 E8000000 		call	_ZN8UnitTest11TestResults13OnTestFailureERKNS_11TestDetailsEPKc@PLT
 8600      00
 8601              	.LEHE321:
 8602 3fc6 488DBC24 		leaq	320(%rsp), %rdi
 8602      40010000 
 8603              	.LEHB322:
 8604 3fce E8000000 		call	_ZN8UnitTest15MemoryOutStreamD1Ev
 8604      00
 8605              	.LEHE322:
 8606              	.L874:
 8607 3fd3 E8000000 		call	__cxa_end_catch@PLT
 8607      00
 8608 3fd8 E9F2FEFF 		jmp	.L835
 8608      FF
 8609              	.L876:
 8610 3fdd E8000000 		call	__stack_chk_fail@PLT
 8610      00
 8611              	.L861:
 8612 3fe2 4889C7   		movq	%rax, %rdi
 8613 3fe5 E95CFFFF 		jmp	.L850
 8613      FF
 8614              	.L869:
 8615 3fea 4889C3   		movq	%rax, %rbx
 8616 3fed 4889D5   		movq	%rdx, %rbp
 8617              	.L846:
 8618 3ff0 488D0500 		leaq	16+_ZTVN12_GLOBAL__N_18MockTestE(%rip), %rax
 8618      000000
 8619 3ff7 488DBC24 		leaq	256(%rsp), %rdi
 8619      00010000 
 8620 3fff 48898424 		movq	%rax, 256(%rsp)
 8620      00010000 
 8621 4007 E8000000 		call	_ZN8UnitTest4TestD2Ev@PLT
 8621      00
 8622              	.L847:
 8623 400c 488D0500 		leaq	16+_ZTVN12_GLOBAL__N_18MockTestE(%rip), %rax
 8623      000000
 8624 4013 488DBC24 		leaq	192(%rsp), %rdi
 8624      C0000000 
 8625 401b 48898424 		movq	%rax, 192(%rsp)
 8625      C0000000 
 8626 4023 E8000000 		call	_ZN8UnitTest4TestD2Ev@PLT
 8626      00
 8627              	.L848:
 8628 4028 488D0500 		leaq	16+_ZTVN12_GLOBAL__N_18MockTestE(%rip), %rax
 8628      000000
 8629 402f 488DBC24 		leaq	128(%rsp), %rdi
 8629      80000000 
 8630 4037 48898424 		movq	%rax, 128(%rsp)
 8630      80000000 
 8631 403f E8000000 		call	_ZN8UnitTest4TestD2Ev@PLT
 8631      00
 8632 4044 E9EAFEFF 		jmp	.L849
 8632      FF
 8633              	.L868:
 8634 4049 4889C3   		movq	%rax, %rbx
 8635 404c 4889D5   		movq	%rdx, %rbp
 8636 404f EBBB     		jmp	.L847
 8637              	.L871:
 8638 4051 4889C7   		movq	%rax, %rdi
 8639 4054 E8000000 		call	__cxa_begin_catch@PLT
 8639      00
 8640              	.LEHB323:
 8641 4059 E8000000 		call	_ZN8UnitTest11CurrentTest7ResultsEv@PLT
 8641      00
 8642 405e 488B18   		movq	(%rax), %rbx
 8643 4061 E8000000 		call	_ZN8UnitTest11CurrentTest7DetailsEv@PLT
 8643      00
 8644 4066 488B30   		movq	(%rax), %rsi
 8645 4069 488D7C24 		leaq	64(%rsp), %rdi
 8645      40
 8646 406e BA9A0000 		movl	$154, %edx
 8646      00
 8647 4073 E8000000 		call	_ZN8UnitTest11TestDetailsC1ERKS0_i@PLT
 8647      00
 8648 4078 488D7424 		leaq	64(%rsp), %rsi
 8648      40
 8649 407d 488D1500 		leaq	.LC41(%rip), %rdx
 8649      000000
 8650 4084 4889DF   		movq	%rbx, %rdi
 8651 4087 E8000000 		call	_ZN8UnitTest11TestResults13OnTestFailureERKNS_11TestDetailsEPKc@PLT
 8651      00
 8652              	.LEHE323:
 8653              	.LEHB324:
 8654 408c E8000000 		call	__cxa_end_catch@PLT
 8654      00
 8655              	.LEHE324:
 8656 4091 E9E6FDFF 		jmp	.L844
 8656      FF
 8657              	.L867:
 8658 4096 4889C3   		movq	%rax, %rbx
 8659 4099 4889D5   		movq	%rdx, %rbp
 8660 409c EB8A     		jmp	.L848
 8661              	.L870:
 8662 409e 4889C3   		movq	%rax, %rbx
 8663 40a1 4889D5   		movq	%rdx, %rbp
 8664 40a4 E8000000 		call	__cxa_end_catch@PLT
 8664      00
 8665 40a9 E942FFFF 		jmp	.L846
 8665      FF
 8666              	.L865:
 8667 40ae 488DBC24 		leaq	320(%rsp), %rdi
 8667      40010000 
 8668 40b6 4889C3   		movq	%rax, %rbx
 8669 40b9 E8000000 		call	_ZN8UnitTest15MemoryOutStreamD1Ev
 8669      00
 8670              	.L858:
 8671 40be E8000000 		call	__cxa_end_catch@PLT
 8671      00
 8672 40c3 4889DF   		movq	%rbx, %rdi
 8673              	.LEHB325:
 8674 40c6 E8000000 		call	_Unwind_Resume@PLT
 8674      00
 8675              	.LEHE325:
 8676              	.L864:
 8677              	.L875:
 8678 40cb 4889C3   		movq	%rax, %rbx
 8679 40ce EBEE     		jmp	.L858
 8680              	.L877:
 8681 40d0 E8000000 		call	__cxa_begin_catch@PLT
 8681      00
 8682              	.LEHB326:
 8683 40d5 E8000000 		call	_ZN8UnitTest11CurrentTest7ResultsEv@PLT
 8683      00
 8684 40da 488B7424 		movq	8(%rsp), %rsi
 8684      08
 8685 40df 488B38   		movq	(%rax), %rdi
 8686 40e2 488D1500 		leaq	.LC12(%rip), %rdx
 8686      000000
 8687 40e9 E8000000 		call	_ZN8UnitTest11TestResults13OnTestFailureERKNS_11TestDetailsEPKc@PLT
 8687      00
 8688              	.LEHE326:
 8689              	.LEHB327:
 8690 40ee E8000000 		call	__cxa_end_catch@PLT
 8690      00
 8691              	.LEHE327:
 8692 40f3 E9D7FDFF 		jmp	.L835
 8692      FF
 8693              	.L852:
 8694 40f8 E8000000 		call	__cxa_begin_catch@PLT
 8694      00
 8695 40fd 4889C3   		movq	%rax, %rbx
 8696              	.LEHB328:
 8697 4100 E8000000 		call	_ZN8UnitTest11CurrentTest7ResultsEv@PLT
 8697      00
 8698 4105 488B28   		movq	(%rax), %rbp
 8699 4108 488B03   		movq	(%rbx), %rax
 8700 410b 4889DF   		movq	%rbx, %rdi
 8701 410e FF5010   		call	*16(%rax)
 8702 4111 4889DF   		movq	%rbx, %rdi
 8703 4114 4989C4   		movq	%rax, %r12
 8704 4117 E8000000 		call	_ZNK8UnitTest15AssertException10LineNumberEv@PLT
 8704      00
 8705 411c 4889DF   		movq	%rbx, %rdi
 8706 411f 4189C5   		movl	%eax, %r13d
 8707 4122 E8000000 		call	_ZNK8UnitTest15AssertException8FilenameEv@PLT
 8707      00
 8708 4127 488B5424 		movq	8(%rsp), %rdx
 8708      08
 8709 412c 488D7C24 		leaq	32(%rsp), %rdi
 8709      20
 8710 4131 4589E8   		movl	%r13d, %r8d
 8711 4134 4889C1   		movq	%rax, %rcx
 8712 4137 488B7208 		movq	8(%rdx), %rsi
 8713 413b 488B12   		movq	(%rdx), %rdx
 8714 413e E8000000 		call	_ZN8UnitTest11TestDetailsC1EPKcS2_S2_i@PLT
 8714      00
 8715 4143 488D7424 		leaq	32(%rsp), %rsi
 8715      20
 8716 4148 4C89E2   		movq	%r12, %rdx
 8717 414b 4889EF   		movq	%rbp, %rdi
 8718 414e E8000000 		call	_ZN8UnitTest11TestResults13OnTestFailureERKNS_11TestDetailsEPKc@PLT
 8718      00
 8719              	.LEHE328:
 8720 4153 E97BFEFF 		jmp	.L874
 8720      FF
 8721              	.L866:
 8722 4158 4889C3   		movq	%rax, %rbx
 8723 415b E8000000 		call	__cxa_end_catch@PLT
 8723      00
 8724 4160 4889DF   		movq	%rbx, %rdi
 8725              	.LEHB329:
 8726 4163 E8000000 		call	_Unwind_Resume@PLT
 8726      00
 8727              	.LEHE329:
 8728              	.L863:
 8729 4168 E95EFFFF 		jmp	.L875
 8729      FF
 8730              		.cfi_endproc
 8731              	.LFE1416:
 8732              		.section	.gcc_except_table
 8733              		.align 4
 8734              	.LLSDA1416:
 8735 0868 FF       		.byte	0xff
 8736 0869 9B       		.byte	0x9b
 8737 086a 9401     		.uleb128 .LLSDATT1416-.LLSDATTD1416
 8738              	.LLSDATTD1416:
 8739 086c 01       		.byte	0x1
 8740 086d 7D       		.uleb128 .LLSDACSE1416-.LLSDACSB1416
 8741              	.LLSDACSB1416:
 8742 086e 2C       		.uleb128 .LEHB308-.LFB1416
 8743 086f 05       		.uleb128 .LEHE308-.LEHB308
 8744 0870 00       		.uleb128 0
 8745 0871 00       		.uleb128 0
 8746 0872 3C       		.uleb128 .LEHB309-.LFB1416
 8747 0873 05       		.uleb128 .LEHE309-.LEHB309
 8748 0874 8207     		.uleb128 .L861-.LFB1416
 8749 0876 05       		.uleb128 0x5
 8750 0877 76       		.uleb128 .LEHB310-.LFB1416
 8751 0878 2F       		.uleb128 .LEHE310-.LEHB310
 8752 0879 CD05     		.uleb128 .L862-.LFB1416
 8753 087b 07       		.uleb128 0x7
 8754 087c EF01     		.uleb128 .LEHB311-.LFB1416
 8755 087e 05       		.uleb128 .LEHE311-.LEHB311
 8756 087f B608     		.uleb128 .L867-.LFB1416
 8757 0881 07       		.uleb128 0x7
 8758 0882 B702     		.uleb128 .LEHB312-.LFB1416
 8759 0884 05       		.uleb128 .LEHE312-.LEHB312
 8760 0885 E907     		.uleb128 .L868-.LFB1416
 8761 0887 07       		.uleb128 0x7
 8762 0888 F502     		.uleb128 .LEHB313-.LFB1416
 8763 088a 64       		.uleb128 .LEHE313-.LEHB313
 8764 088b 8A07     		.uleb128 .L869-.LFB1416
 8765 088d 07       		.uleb128 0x7
 8766 088e DC03     		.uleb128 .LEHB314-.LFB1416
 8767 0890 40       		.uleb128 .LEHE314-.LEHB314
 8768 0891 F107     		.uleb128 .L871-.LFB1416
 8769 0893 01       		.uleb128 0x1
 8770 0894 B304     		.uleb128 .LEHB315-.LFB1416
 8771 0896 05       		.uleb128 .LEHE315-.LEHB315
 8772 0897 E907     		.uleb128 .L868-.LFB1416
 8773 0899 07       		.uleb128 0x7
 8774 089a C804     		.uleb128 .LEHB316-.LFB1416
 8775 089c 05       		.uleb128 .LEHE316-.LEHB316
 8776 089d B608     		.uleb128 .L867-.LFB1416
 8777 089f 07       		.uleb128 0x7
 8778 08a0 DD04     		.uleb128 .LEHB317-.LFB1416
 8779 08a2 05       		.uleb128 .LEHE317-.LEHB317
 8780 08a3 CD05     		.uleb128 .L862-.LFB1416
 8781 08a5 07       		.uleb128 0x7
 8782 08a6 EA04     		.uleb128 .LEHB318-.LFB1416
 8783 08a8 05       		.uleb128 .LEHE318-.LEHB318
 8784 08a9 8207     		.uleb128 .L861-.LFB1416
 8785 08ab 05       		.uleb128 0x5
 8786 08ac A805     		.uleb128 .LEHB319-.LFB1416
 8787 08ae 1F       		.uleb128 .LEHE319-.LEHB319
 8788 08af 8A07     		.uleb128 .L869-.LFB1416
 8789 08b1 07       		.uleb128 0x7
 8790 08b2 8A06     		.uleb128 .LEHB320-.LFB1416
 8791 08b4 05       		.uleb128 .LEHE320-.LEHB320
 8792 08b5 EB08     		.uleb128 .L864-.LFB1416
 8793 08b7 00       		.uleb128 0
 8794 08b8 A306     		.uleb128 .LEHB321-.LFB1416
 8795 08ba 43       		.uleb128 .LEHE321-.LEHB321
 8796 08bb CE08     		.uleb128 .L865-.LFB1416
 8797 08bd 00       		.uleb128 0
 8798 08be EE06     		.uleb128 .LEHB322-.LFB1416
 8799 08c0 05       		.uleb128 .LEHE322-.LEHB322
 8800 08c1 EB08     		.uleb128 .L864-.LFB1416
 8801 08c3 00       		.uleb128 0
 8802 08c4 F907     		.uleb128 .LEHB323-.LFB1416
 8803 08c6 33       		.uleb128 .LEHE323-.LEHB323
 8804 08c7 BE08     		.uleb128 .L870-.LFB1416
 8805 08c9 07       		.uleb128 0x7
 8806 08ca AC08     		.uleb128 .LEHB324-.LFB1416
 8807 08cc 05       		.uleb128 .LEHE324-.LEHB324
 8808 08cd 8A07     		.uleb128 .L869-.LFB1416
 8809 08cf 07       		.uleb128 0x7
 8810 08d0 E608     		.uleb128 .LEHB325-.LFB1416
 8811 08d2 05       		.uleb128 .LEHE325-.LEHB325
 8812 08d3 00       		.uleb128 0
 8813 08d4 00       		.uleb128 0
 8814 08d5 F508     		.uleb128 .LEHB326-.LFB1416
 8815 08d7 19       		.uleb128 .LEHE326-.LEHB326
 8816 08d8 F809     		.uleb128 .L866-.LFB1416
 8817 08da 00       		.uleb128 0
 8818 08db 8E09     		.uleb128 .LEHB327-.LFB1416
 8819 08dd 05       		.uleb128 .LEHE327-.LEHB327
 8820 08de 00       		.uleb128 0
 8821 08df 00       		.uleb128 0
 8822 08e0 A009     		.uleb128 .LEHB328-.LFB1416
 8823 08e2 53       		.uleb128 .LEHE328-.LEHB328
 8824 08e3 880A     		.uleb128 .L863-.LFB1416
 8825 08e5 00       		.uleb128 0
 8826 08e6 830A     		.uleb128 .LEHB329-.LFB1416
 8827 08e8 05       		.uleb128 .LEHE329-.LEHB329
 8828 08e9 00       		.uleb128 0
 8829 08ea 00       		.uleb128 0
 8830              	.LLSDACSE1416:
 8831 08eb 03       		.byte	0x3
 8832 08ec 00       		.byte	0
 8833 08ed 02       		.byte	0x2
 8834 08ee 7D       		.byte	0x7d
 8835 08ef 01       		.byte	0x1
 8836 08f0 7D       		.byte	0x7d
 8837 08f1 00       		.byte	0
 8838 08f2 7D       		.byte	0x7d
 8839 08f3 00       		.align 4
 8840 08f4 00000000 		.long	0
 8841              	
 8842 08f8 00000000 		.long	DW.ref._ZTISt9exception-.
 8843 08fc 00000000 		.long	DW.ref._ZTIN8UnitTest15AssertExceptionE-.
 8844              	.LLSDATT1416:
 8845              		.text
 8847 416d 90       		.align 2
 8848 416e 6690     		.p2align 4,,15
 8850              	_ZNK12_GLOBAL__N_150TestTestRunnerFixtureReporterNotifiedOfFailedTests7RunImplEv:
 8851              	.LFB1256:
 8852              		.cfi_startproc
 8853              		.cfi_personality 0x9b,DW.ref.__gxx_personality_v0
 8854              		.cfi_lsda 0x1b,.LLSDA1256
 8855 4170 4156     		pushq	%r14
 8856              		.cfi_def_cfa_offset 16
 8857              		.cfi_offset 14, -16
 8858 4172 4155     		pushq	%r13
 8859              		.cfi_def_cfa_offset 24
 8860              		.cfi_offset 13, -24
 8861 4174 4989FD   		movq	%rdi, %r13
 8862 4177 4154     		pushq	%r12
 8863              		.cfi_def_cfa_offset 32
 8864              		.cfi_offset 12, -32
 8865 4179 55       		pushq	%rbp
 8866              		.cfi_def_cfa_offset 40
 8867              		.cfi_offset 6, -40
 8868 417a 488D6F08 		leaq	8(%rdi), %rbp
 8869 417e 53       		pushq	%rbx
 8870              		.cfi_def_cfa_offset 48
 8871              		.cfi_offset 3, -48
 8872 417f 4881EC90 		subq	$2192, %rsp
 8872      080000
 8873              		.cfi_def_cfa_offset 2240
 8874 4186 488D5C24 		leaq	32(%rsp), %rbx
 8874      20
 8875 418b 64488B04 		movq	%fs:40, %rax
 8875      25280000 
 8875      00
 8876 4194 48898424 		movq	%rax, 2184(%rsp)
 8876      88080000 
 8877 419c 31C0     		xorl	%eax, %eax
 8878 419e 488D7318 		leaq	24(%rbx), %rsi
 8879 41a2 4889DF   		movq	%rbx, %rdi
 8880              	.LEHB330:
 8881 41a5 E8000000 		call	_ZN8UnitTest10TestRunnerC1ERNS_12TestReporterE@PLT
 8881      00
 8882              	.LEHE330:
 8883 41aa 4C8D2500 		leaq	16+_ZTV17RecordingReporter(%rip), %r12
 8883      000000
 8884 41b1 488DBB48 		leaq	2120(%rbx), %rdi
 8884      080000
 8885 41b8 C7442440 		movl	$0, 64(%rsp)
 8885      00000000 
 8886 41c0 C7842444 		movl	$0, 580(%rsp)
 8886      02000000 
 8886      000000
 8887 41cb C7842448 		movl	$0, 840(%rsp)
 8887      03000000 
 8887      000000
 8888 41d6 4C896424 		movq	%r12, 56(%rsp)
 8888      38
 8889 41db C784244C 		movl	$0, 1612(%rsp)
 8889      06000000 
 8889      000000
 8890 41e6 48C78424 		movq	$0, 2128(%rsp)
 8890      50080000 
 8890      00000000 
 8891 41f2 48C78424 		movq	$0, 2136(%rsp)
 8891      58080000 
 8891      00000000 
 8892 41fe C7842460 		movl	$0, 2144(%rsp)
 8892      08000000 
 8892      000000
 8893 4209 C6442444 		movb	$0, 68(%rsp)
 8893      00
 8894 420e C6842444 		movb	$0, 324(%rsp)
 8894      01000000 
 8895 4216 C6842448 		movb	$0, 584(%rsp)
 8895      02000000 
 8896 421e C684244C 		movb	$0, 844(%rsp)
 8896      03000000 
 8897 4226 C684244C 		movb	$0, 1100(%rsp)
 8897      04000000 
 8898 422e C684244C 		movb	$0, 1356(%rsp)
 8898      05000000 
 8899 4236 C6842450 		movb	$0, 1616(%rsp)
 8899      06000000 
 8900 423e C6842450 		movb	$0, 1872(%rsp)
 8900      07000000 
 8901              	.LEHB331:
 8902 4246 E8000000 		call	_ZN8UnitTest8TestListC1Ev@PLT
 8902      00
 8903              	.LEHE331:
 8904 424b 4889EE   		movq	%rbp, %rsi
 8905 424e 4889DF   		movq	%rbx, %rdi
 8906 4251 4889AC24 		movq	%rbp, 2168(%rsp)
 8906      78080000 
 8907              	.LEHB332:
 8908 4259 E802FAFF 		call	_ZN8UnitTest11ExecuteTestIN12_GLOBAL__N_152TestRunnerFixtureReporterNotifiedOfFailedTestsHelp
 8908      FF
 8909              	.LEHE332:
 8910 425e 488D7B18 		leaq	24(%rbx), %rdi
 8911 4262 4C896424 		movq	%r12, 56(%rsp)
 8911      38
 8912              	.LEHB333:
 8913 4267 E8000000 		call	_ZN8UnitTest12TestReporterD2Ev@PLT
 8913      00
 8914              	.LEHE333:
 8915 426c 4889DF   		movq	%rbx, %rdi
 8916              	.LEHB334:
 8917 426f E8000000 		call	_ZN8UnitTest10TestRunnerD1Ev@PLT
 8917      00
 8918              	.LEHE334:
 8919              	.L878:
 8920 4274 488B8424 		movq	2184(%rsp), %rax
 8920      88080000 
 8921 427c 64483304 		xorq	%fs:40, %rax
 8921      25280000 
 8921      00
 8922 4285 7510     		jne	.L926
 8923 4287 4881C490 		addq	$2192, %rsp
 8923      080000
 8924              		.cfi_remember_state
 8925              		.cfi_def_cfa_offset 48
 8926 428e 5B       		popq	%rbx
 8927              		.cfi_def_cfa_offset 40
 8928 428f 5D       		popq	%rbp
 8929              		.cfi_def_cfa_offset 32
 8930 4290 415C     		popq	%r12
 8931              		.cfi_def_cfa_offset 24
 8932 4292 415D     		popq	%r13
 8933              		.cfi_def_cfa_offset 16
 8934 4294 415E     		popq	%r14
 8935              		.cfi_def_cfa_offset 8
 8936 4296 C3       		ret
 8937              	.L926:
 8938              		.cfi_restore_state
 8939 4297 E8000000 		call	__stack_chk_fail@PLT
 8939      00
 8940              	.L898:
 8941 429c 4889C7   		movq	%rax, %rdi
 8942              	.L884:
 8943 429f 4883FA01 		cmpq	$1, %rdx
 8944 42a3 0F846F01 		je	.L886
 8944      0000
 8945 42a9 4883FA02 		cmpq	$2, %rdx
 8946 42ad 0F853101 		jne	.L927
 8946      0000
 8947              	.L887:
 8948 42b3 E8000000 		call	__cxa_begin_catch@PLT
 8948      00
 8949 42b8 4889DF   		movq	%rbx, %rdi
 8950 42bb 4989C4   		movq	%rax, %r12
 8951              	.LEHB335:
 8952 42be E8000000 		call	_ZN8UnitTest15MemoryOutStreamC1Ev
 8952      00
 8953              	.LEHE335:
 8954 42c3 488D3500 		leaq	.LC11(%rip), %rsi
 8954      000000
 8955 42ca BA150000 		movl	$21, %edx
 8955      00
 8956 42cf 4889DF   		movq	%rbx, %rdi
 8957              	.LEHB336:
 8958 42d2 E8000000 		call	_ZSt16__ostream_insertIcSt11char_traitsIcEERSt13basic_ostreamIT_T0_ES6_PKS3_l@PLT
 8958      00
 8959 42d7 498B0424 		movq	(%r12), %rax
 8960 42db 4C89E7   		movq	%r12, %rdi
 8961 42de FF5010   		call	*16(%rax)
 8962 42e1 4889DF   		movq	%rbx, %rdi
 8963 42e4 4889C6   		movq	%rax, %rsi
 8964 42e7 E8000000 		call	_ZStlsISt11char_traitsIcEERSt13basic_ostreamIcT_ES5_PKc@PLT
 8964      00
 8965 42ec E8000000 		call	_ZN8UnitTest11CurrentTest7ResultsEv@PLT
 8965      00
 8966 42f1 4889DF   		movq	%rbx, %rdi
 8967 42f4 4C8B20   		movq	(%rax), %r12
 8968 42f7 E8000000 		call	_ZNK8UnitTest15MemoryOutStream7GetTextEv@PLT
 8968      00
 8969 42fc 4889C2   		movq	%rax, %rdx
 8970 42ff 4889EE   		movq	%rbp, %rsi
 8971 4302 4C89E7   		movq	%r12, %rdi
 8972 4305 E8000000 		call	_ZN8UnitTest11TestResults13OnTestFailureERKNS_11TestDetailsEPKc@PLT
 8972      00
 8973              	.LEHE336:
 8974 430a 4889DF   		movq	%rbx, %rdi
 8975              	.LEHB337:
 8976 430d E8000000 		call	_ZN8UnitTest15MemoryOutStreamD1Ev
 8976      00
 8977              	.LEHE337:
 8978              	.L925:
 8979 4312 E8000000 		call	__cxa_end_catch@PLT
 8979      00
 8980 4317 E958FFFF 		jmp	.L878
 8980      FF
 8981              	.L905:
 8982 431c 4989C4   		movq	%rax, %r12
 8983 431f 4989D6   		movq	%rdx, %r14
 8984 4322 4889DF   		movq	%rbx, %rdi
 8985 4325 E8000000 		call	_ZN8UnitTest10TestRunnerD1Ev@PLT
 8985      00
 8986 432a 4C89E7   		movq	%r12, %rdi
 8987 432d 4C89F2   		movq	%r14, %rdx
 8988 4330 E96AFFFF 		jmp	.L884
 8988      FF
 8989              	.L899:
 8990 4335 4989C4   		movq	%rax, %r12
 8991 4338 4989D6   		movq	%rdx, %r14
 8992 433b 4889DF   		movq	%rbx, %rdi
 8993 433e E8000000 		call	_ZN12_GLOBAL__N_111FixtureBaseD2Ev
 8993      00
 8994 4343 4C89E7   		movq	%r12, %rdi
 8995 4346 4C89F2   		movq	%r14, %rdx
 8996 4349 E951FFFF 		jmp	.L884
 8996      FF
 8997              	.L904:
 8998 434e 4989C4   		movq	%rax, %r12
 8999 4351 4989D6   		movq	%rdx, %r14
 9000 4354 4889DF   		movq	%rbx, %rdi
 9001 4357 E8000000 		call	_ZN12_GLOBAL__N_111FixtureBaseD2Ev
 9001      00
 9002 435c 4C89E7   		movq	%r12, %rdi
 9003 435f 4C89F2   		movq	%r14, %rdx
 9004              	.L881:
 9005 4362 4883FA01 		cmpq	$1, %rdx
 9006 4366 0F84AC00 		je	.L886
 9006      0000
 9007 436c 4883FA02 		cmpq	$2, %rdx
 9008 4370 0F843DFF 		je	.L887
 9008      FFFF
 9009 4376 E8000000 		call	__cxa_begin_catch@PLT
 9009      00
 9010              	.LEHB338:
 9011 437b E8000000 		call	_ZN8UnitTest11CurrentTest7ResultsEv@PLT
 9011      00
 9012 4380 4889E3   		movq	%rsp, %rbx
 9013 4383 BA900000 		movl	$144, %edx
 9013      00
 9014 4388 4889EE   		movq	%rbp, %rsi
 9015 438b 4889DF   		movq	%rbx, %rdi
 9016 438e 4C8B20   		movq	(%rax), %r12
 9017 4391 E8000000 		call	_ZN8UnitTest11TestDetailsC1ERKS0_i@PLT
 9017      00
 9018 4396 488D1500 		leaq	.LC14(%rip), %rdx
 9018      000000
 9019 439d 4889DE   		movq	%rbx, %rsi
 9020 43a0 4C89E7   		movq	%r12, %rdi
 9021 43a3 E8000000 		call	_ZN8UnitTest11TestResults13OnTestFailureERKNS_11TestDetailsEPKc@PLT
 9021      00
 9022              	.LEHE338:
 9023              	.L888:
 9024              	.LEHB339:
 9025 43a8 E8000000 		call	__cxa_end_catch@PLT
 9025      00
 9026              	.LEHE339:
 9027 43ad E9C2FEFF 		jmp	.L878
 9027      FF
 9028              	.L906:
 9029 43b2 4889C7   		movq	%rax, %rdi
 9030 43b5 EBAB     		jmp	.L881
 9031              	.L903:
 9032 43b7 4889C3   		movq	%rax, %rbx
 9033 43ba E8000000 		call	__cxa_end_catch@PLT
 9033      00
 9034 43bf 4889DF   		movq	%rbx, %rdi
 9035              	.LEHB340:
 9036 43c2 E8000000 		call	_Unwind_Resume@PLT
 9036      00
 9037              	.LEHE340:
 9038              	.L902:
 9039 43c7 4889DF   		movq	%rbx, %rdi
 9040 43ca 4889C5   		movq	%rax, %rbp
 9041 43cd E8000000 		call	_ZN8UnitTest15MemoryOutStreamD1Ev
 9041      00
 9042              	.L891:
 9043 43d2 E8000000 		call	__cxa_end_catch@PLT
 9043      00
 9044 43d7 4889EF   		movq	%rbp, %rdi
 9045              	.LEHB341:
 9046 43da E8000000 		call	_Unwind_Resume@PLT
 9046      00
 9047              	.LEHE341:
 9048              	.L901:
 9049 43df 4889C5   		movq	%rax, %rbp
 9050 43e2 EBEE     		jmp	.L891
 9051              	.L927:
 9052 43e4 E8000000 		call	__cxa_begin_catch@PLT
 9052      00
 9053              	.LEHB342:
 9054 43e9 E8000000 		call	_ZN8UnitTest11CurrentTest7ResultsEv@PLT
 9054      00
 9055 43ee 4889E3   		movq	%rsp, %rbx
 9056 43f1 BA900000 		movl	$144, %edx
 9056      00
 9057 43f6 4889EE   		movq	%rbp, %rsi
 9058 43f9 4889DF   		movq	%rbx, %rdi
 9059 43fc 4C8B20   		movq	(%rax), %r12
 9060 43ff E8000000 		call	_ZN8UnitTest11TestDetailsC1ERKS0_i@PLT
 9060      00
 9061 4404 488D1500 		leaq	.LC13(%rip), %rdx
 9061      000000
 9062 440b 4889DE   		movq	%rbx, %rsi
 9063 440e 4C89E7   		movq	%r12, %rdi
 9064 4411 E8000000 		call	_ZN8UnitTest11TestResults13OnTestFailureERKNS_11TestDetailsEPKc@PLT
 9064      00
 9065              	.LEHE342:
 9066 4416 EB90     		jmp	.L888
 9067              	.L886:
 9068 4418 E8000000 		call	__cxa_begin_catch@PLT
 9068      00
 9069 441d 4889C3   		movq	%rax, %rbx
 9070              	.LEHB343:
 9071 4420 E8000000 		call	_ZN8UnitTest11CurrentTest7ResultsEv@PLT
 9071      00
 9072 4425 488B28   		movq	(%rax), %rbp
 9073 4428 488B03   		movq	(%rbx), %rax
 9074 442b 4889DF   		movq	%rbx, %rdi
 9075 442e FF5010   		call	*16(%rax)
 9076 4431 4889DF   		movq	%rbx, %rdi
 9077 4434 4989C4   		movq	%rax, %r12
 9078 4437 E8000000 		call	_ZNK8UnitTest15AssertException10LineNumberEv@PLT
 9078      00
 9079 443c 4889DF   		movq	%rbx, %rdi
 9080 443f 4189C6   		movl	%eax, %r14d
 9081 4442 E8000000 		call	_ZNK8UnitTest15AssertException8FilenameEv@PLT
 9081      00
 9082 4447 498B5508 		movq	8(%r13), %rdx
 9083 444b 498B7510 		movq	16(%r13), %rsi
 9084 444f 4889E3   		movq	%rsp, %rbx
 9085 4452 4589F0   		movl	%r14d, %r8d
 9086 4455 4889C1   		movq	%rax, %rcx
 9087 4458 4889DF   		movq	%rbx, %rdi
 9088 445b E8000000 		call	_ZN8UnitTest11TestDetailsC1EPKcS2_S2_i@PLT
 9088      00
 9089 4460 4C89E2   		movq	%r12, %rdx
 9090 4463 4889DE   		movq	%rbx, %rsi
 9091 4466 4889EF   		movq	%rbp, %rdi
 9092 4469 E8000000 		call	_ZN8UnitTest11TestResults13OnTestFailureERKNS_11TestDetailsEPKc@PLT
 9092      00
 9093              	.LEHE343:
 9094 446e E99FFEFF 		jmp	.L925
 9094      FF
 9095              	.L900:
 9096 4473 4889C3   		movq	%rax, %rbx
 9097 4476 E8000000 		call	__cxa_end_catch@PLT
 9097      00
 9098 447b 4889DF   		movq	%rbx, %rdi
 9099              	.LEHB344:
 9100 447e E8000000 		call	_Unwind_Resume@PLT
 9100      00
 9101              	.LEHE344:
 9102              		.cfi_endproc
 9103              	.LFE1256:
 9104              		.section	.gcc_except_table
 9105              		.align 4
 9106              	.LLSDA1256:
 9107 0900 FF       		.byte	0xff
 9108 0901 9B       		.byte	0x9b
 9109 0902 6D       		.uleb128 .LLSDATT1256-.LLSDATTD1256
 9110              	.LLSDATTD1256:
 9111 0903 01       		.byte	0x1
 9112 0904 55       		.uleb128 .LLSDACSE1256-.LLSDACSB1256
 9113              	.LLSDACSB1256:
 9114 0905 35       		.uleb128 .LEHB330-.LFB1256
 9115 0906 05       		.uleb128 .LEHE330-.LEHB330
 9116 0907 C204     		.uleb128 .L906-.LFB1256
 9117 0909 05       		.uleb128 0x5
 9118 090a D601     		.uleb128 .LEHB331-.LFB1256
 9119 090c 05       		.uleb128 .LEHE331-.LEHB331
 9120 090d DE03     		.uleb128 .L904-.LFB1256
 9121 090f 07       		.uleb128 0x7
 9122 0910 E901     		.uleb128 .LEHB332-.LFB1256
 9123 0912 05       		.uleb128 .LEHE332-.LEHB332
 9124 0913 C503     		.uleb128 .L899-.LFB1256
 9125 0915 07       		.uleb128 0x7
 9126 0916 F701     		.uleb128 .LEHB333-.LFB1256
 9127 0918 05       		.uleb128 .LEHE333-.LEHB333
 9128 0919 AC03     		.uleb128 .L905-.LFB1256
 9129 091b 07       		.uleb128 0x7
 9130 091c FF01     		.uleb128 .LEHB334-.LFB1256
 9131 091e 05       		.uleb128 .LEHE334-.LEHB334
 9132 091f AC02     		.uleb128 .L898-.LFB1256
 9133 0921 05       		.uleb128 0x5
 9134 0922 CE02     		.uleb128 .LEHB335-.LFB1256
 9135 0924 05       		.uleb128 .LEHE335-.LEHB335
 9136 0925 EF04     		.uleb128 .L901-.LFB1256
 9137 0927 00       		.uleb128 0
 9138 0928 E202     		.uleb128 .LEHB336-.LFB1256
 9139 092a 38       		.uleb128 .LEHE336-.LEHB336
 9140 092b D704     		.uleb128 .L902-.LFB1256
 9141 092d 00       		.uleb128 0
 9142 092e 9D03     		.uleb128 .LEHB337-.LFB1256
 9143 0930 05       		.uleb128 .LEHE337-.LEHB337
 9144 0931 EF04     		.uleb128 .L901-.LFB1256
 9145 0933 00       		.uleb128 0
 9146 0934 8B04     		.uleb128 .LEHB338-.LFB1256
 9147 0936 2D       		.uleb128 .LEHE338-.LEHB338
 9148 0937 C704     		.uleb128 .L903-.LFB1256
 9149 0939 00       		.uleb128 0
 9150 093a B804     		.uleb128 .LEHB339-.LFB1256
 9151 093c 05       		.uleb128 .LEHE339-.LEHB339
 9152 093d 00       		.uleb128 0
 9153 093e 00       		.uleb128 0
 9154 093f D204     		.uleb128 .LEHB340-.LFB1256
 9155 0941 05       		.uleb128 .LEHE340-.LEHB340
 9156 0942 00       		.uleb128 0
 9157 0943 00       		.uleb128 0
 9158 0944 EA04     		.uleb128 .LEHB341-.LFB1256
 9159 0946 05       		.uleb128 .LEHE341-.LEHB341
 9160 0947 00       		.uleb128 0
 9161 0948 00       		.uleb128 0
 9162 0949 F904     		.uleb128 .LEHB342-.LFB1256
 9163 094b 2D       		.uleb128 .LEHE342-.LEHB342
 9164 094c C704     		.uleb128 .L903-.LFB1256
 9165 094e 00       		.uleb128 0
 9166 094f B005     		.uleb128 .LEHB343-.LFB1256
 9167 0951 4E       		.uleb128 .LEHE343-.LEHB343
 9168 0952 8306     		.uleb128 .L900-.LFB1256
 9169 0954 00       		.uleb128 0
 9170 0955 8E06     		.uleb128 .LEHB344-.LFB1256
 9171 0957 05       		.uleb128 .LEHE344-.LEHB344
 9172 0958 00       		.uleb128 0
 9173 0959 00       		.uleb128 0
 9174              	.LLSDACSE1256:
 9175 095a 03       		.byte	0x3
 9176 095b 00       		.byte	0
 9177 095c 02       		.byte	0x2
 9178 095d 7D       		.byte	0x7d
 9179 095e 01       		.byte	0x1
 9180 095f 7D       		.byte	0x7d
 9181 0960 00       		.byte	0
 9182 0961 7D       		.byte	0x7d
 9183 0962 0000     		.align 4
 9184 0964 00000000 		.long	0
 9185              	
 9186 0968 00000000 		.long	DW.ref._ZTISt9exception-.
 9187 096c 00000000 		.long	DW.ref._ZTIN8UnitTest15AssertExceptionE-.
 9188              	.LLSDATT1256:
 9189              		.text
 9191              		.section	.rodata.str1.8
 9192 05bf 00       		.align 8
 9193              	.LC42:
 9194 05c0 556E6861 		.string	"Unhandled exception in CHECK_EQUAL(3, reporter.summaryTotalTestCount)"
 9194      6E646C65 
 9194      64206578 
 9194      63657074 
 9194      696F6E20 
 9195              		.text
 9196 4483 0F1F0066 		.p2align 4,,15
 9196      2E0F1F84 
 9196      00000000 
 9196      00
 9198              	_ZN8UnitTest11ExecuteTestIN12_GLOBAL__N_150TestRunnerFixtureReporterNotifiedOfTestCountHelperEEEvRT
 9199              	.LFB1415:
 9200              		.cfi_startproc
 9201              		.cfi_personality 0x9b,DW.ref.__gxx_personality_v0
 9202              		.cfi_lsda 0x1b,.LLSDA1415
 9203 4490 4155     		pushq	%r13
 9204              		.cfi_def_cfa_offset 16
 9205              		.cfi_offset 13, -16
 9206 4492 4154     		pushq	%r12
 9207              		.cfi_def_cfa_offset 24
 9208              		.cfi_offset 12, -24
 9209 4494 55       		pushq	%rbp
 9210              		.cfi_def_cfa_offset 32
 9211              		.cfi_offset 6, -32
 9212 4495 53       		pushq	%rbx
 9213              		.cfi_def_cfa_offset 40
 9214              		.cfi_offset 3, -40
 9215 4496 4889F3   		movq	%rsi, %rbx
 9216 4499 4881EC58 		subq	$1880, %rsp
 9216      070000
 9217              		.cfi_def_cfa_offset 1920
 9218 44a0 48893C24 		movq	%rdi, (%rsp)
 9219 44a4 48897424 		movq	%rsi, 8(%rsp)
 9219      08
 9220 44a9 64488B04 		movq	%fs:40, %rax
 9220      25280000 
 9220      00
 9221 44b2 48898424 		movq	%rax, 1864(%rsp)
 9221      48070000 
 9222 44ba 31C0     		xorl	%eax, %eax
 9223              	.LEHB345:
 9224 44bc E8000000 		call	_ZN8UnitTest11CurrentTest7DetailsEv@PLT
 9224      00
 9225              	.LEHE345:
 9226 44c1 488DBC24 		leaq	736(%rsp), %rdi
 9226      E0020000 
 9227 44c9 488918   		movq	%rbx, (%rax)
 9228              	.LEHB346:
 9229 44cc E8000000 		call	_ZN8UnitTest16SignalTranslatorC1Ev@PLT
 9229      00
 9230              	.LEHE346:
 9231 44d1 488B3D00 		movq	_ZN8UnitTest16SignalTranslator12s_jumpTargetE(%rip), %rdi
 9231      000000
 9232 44d8 BE010000 		movl	$1, %esi
 9232      00
 9233 44dd E8000000 		call	__sigsetjmp@PLT
 9233      00
 9234 44e2 85C0     		testl	%eax, %eax
 9235 44e4 742A     		je	.L930
 9236 44e6 BF080000 		movl	$8, %edi
 9236      00
 9237 44eb E8000000 		call	__cxa_allocate_exception@PLT
 9237      00
 9238 44f0 488D0D00 		leaq	.LC3(%rip), %rcx
 9238      000000
 9239 44f7 488D3500 		leaq	_ZTIPKc(%rip), %rsi
 9239      000000
 9240 44fe 31D2     		xorl	%edx, %edx
 9241 4500 4889C7   		movq	%rax, %rdi
 9242 4503 488908   		movq	%rcx, (%rax)
 9243              	.LEHB347:
 9244 4506 E8000000 		call	__cxa_throw@PLT
 9244      00
 9245 450b 0F1F4400 		.p2align 4,,10
 9245      00
 9246              		.p2align 3
 9247              	.L930:
 9248 4510 488DBC24 		leaq	128(%rsp), %rdi
 9248      80000000 
 9249 4518 488D0D00 		leaq	.LC24(%rip), %rcx
 9249      000000
 9250 451f 488D1500 		leaq	.LC38(%rip), %rdx
 9250      000000
 9251 4526 488D3500 		leaq	.LC39(%rip), %rsi
 9251      000000
 9252 452d 4531C0   		xorl	%r8d, %r8d
 9253 4530 E8000000 		call	_ZN8UnitTest4TestC2EPKcS2_S2_i@PLT
 9253      00
 9254              	.LEHE347:
 9255 4535 488D1D00 		leaq	16+_ZTVN12_GLOBAL__N_18MockTestE(%rip), %rbx
 9255      000000
 9256 453c 488DBC24 		leaq	192(%rsp), %rdi
 9256      C0000000 
 9257 4544 488D0D00 		leaq	.LC24(%rip), %rcx
 9257      000000
 9258 454b 488D1500 		leaq	.LC38(%rip), %rdx
 9258      000000
 9259 4552 488D3500 		leaq	.LC39(%rip), %rsi
 9259      000000
 9260 4559 4531C0   		xorl	%r8d, %r8d
 9261 455c 48899C24 		movq	%rbx, 128(%rsp)
 9261      80000000 
 9262 4564 C68424B1 		movb	$1, 177(%rsp)
 9262      00000001 
 9263 456c C68424B2 		movb	$0, 178(%rsp)
 9263      00000000 
 9264 4574 C78424B4 		movl	$1, 180(%rsp)
 9264      00000001 
 9264      000000
 9265              	.LEHB348:
 9266 457f E8000000 		call	_ZN8UnitTest4TestC2EPKcS2_S2_i@PLT
 9266      00
 9267              	.LEHE348:
 9268 4584 488DBC24 		leaq	256(%rsp), %rdi
 9268      00010000 
 9269 458c 488D0D00 		leaq	.LC24(%rip), %rcx
 9269      000000
 9270 4593 488D1500 		leaq	.LC38(%rip), %rdx
 9270      000000
 9271 459a 488D3500 		leaq	.LC39(%rip), %rsi
 9271      000000
 9272 45a1 4531C0   		xorl	%r8d, %r8d
 9273 45a4 48899C24 		movq	%rbx, 192(%rsp)
 9273      C0000000 
 9274 45ac C68424F1 		movb	$1, 241(%rsp)
 9274      00000001 
 9275 45b4 C68424F2 		movb	$0, 242(%rsp)
 9275      00000000 
 9276 45bc C78424F4 		movl	$1, 244(%rsp)
 9276      00000001 
 9276      000000
 9277              	.LEHB349:
 9278 45c7 E8000000 		call	_ZN8UnitTest4TestC2EPKcS2_S2_i@PLT
 9278      00
 9279              	.LEHE349:
 9280 45cc 488B2C24 		movq	(%rsp), %rbp
 9281 45d0 48899C24 		movq	%rbx, 256(%rsp)
 9281      00010000 
 9282 45d8 488DB424 		leaq	128(%rsp), %rsi
 9282      80000000 
 9283 45e0 C6842431 		movb	$1, 305(%rsp)
 9283      01000001 
 9284 45e8 C6842432 		movb	$0, 306(%rsp)
 9284      01000000 
 9285 45f0 C7842434 		movl	$1, 308(%rsp)
 9285      01000001 
 9285      000000
 9286 45fb 488D9D48 		leaq	2120(%rbp), %rbx
 9286      080000
 9287 4602 4889DF   		movq	%rbx, %rdi
 9288              	.LEHB350:
 9289 4605 E8000000 		call	_ZN8UnitTest8TestList3AddEPNS_4TestE@PLT
 9289      00
 9290 460a 488DB424 		leaq	192(%rsp), %rsi
 9290      C0000000 
 9291 4612 4889DF   		movq	%rbx, %rdi
 9292 4615 E8000000 		call	_ZN8UnitTest8TestList3AddEPNS_4TestE@PLT
 9292      00
 9293 461a 488DB424 		leaq	256(%rsp), %rsi
 9293      00010000 
 9294 4622 4889DF   		movq	%rbx, %rdi
 9295 4625 E8000000 		call	_ZN8UnitTest8TestList3AddEPNS_4TestE@PLT
 9295      00
 9296 462a E8000000 		call	_ZN8UnitTest11CurrentTest7ResultsEv@PLT
 9296      00
 9297 462f 4C8B28   		movq	(%rax), %r13
 9298 4632 E8000000 		call	_ZN8UnitTest11CurrentTest7DetailsEv@PLT
 9298      00
 9299 4637 4889DF   		movq	%rbx, %rdi
 9300 463a 4C8B20   		movq	(%rax), %r12
 9301 463d E8000000 		call	_ZNK8UnitTest8TestList7GetHeadEv@PLT
 9301      00
 9302 4642 4885C0   		testq	%rax, %rax
 9303 4645 4889C3   		movq	%rax, %rbx
 9304 4648 0F85FC00 		jne	.L933
 9304      0000
 9305 464e 6690     		.p2align 4,,10
 9306              		.p2align 3
 9307              	.L931:
 9308 4650 488B1C24 		movq	(%rsp), %rbx
 9309 4654 4889DF   		movq	%rbx, %rdi
 9310 4657 E8000000 		call	_ZNK8UnitTest10TestRunner6FinishEv@PLT
 9310      00
 9311 465c E8000000 		call	_ZN8UnitTest11CurrentTest7ResultsEv@PLT
 9311      00
 9312 4661 4C8928   		movq	%r13, (%rax)
 9313 4664 E8000000 		call	_ZN8UnitTest11CurrentTest7DetailsEv@PLT
 9313      00
 9314              	.LEHE350:
 9315 4669 4C8920   		movq	%r12, (%rax)
 9316              	.LEHB351:
 9317 466c E8000000 		call	_ZN8UnitTest11CurrentTest7DetailsEv@PLT
 9317      00
 9318 4671 488B30   		movq	(%rax), %rsi
 9319 4674 488D7C24 		leaq	96(%rsp), %rdi
 9319      60
 9320 4679 BA8D0000 		movl	$141, %edx
 9320      00
 9321 467e E8000000 		call	_ZN8UnitTest11TestDetailsC1ERKS0_i@PLT
 9321      00
 9322 4683 4881C334 		addq	$2100, %rbx
 9322      080000
 9323 468a C744241C 		movl	$3, 28(%rsp)
 9323      03000000 
 9324 4692 E8000000 		call	_ZN8UnitTest11CurrentTest7ResultsEv@PLT
 9324      00
 9325 4697 488B38   		movq	(%rax), %rdi
 9326 469a 488D4C24 		leaq	96(%rsp), %rcx
 9326      60
 9327 469f 488D7424 		leaq	28(%rsp), %rsi
 9327      1C
 9328 46a4 4889DA   		movq	%rbx, %rdx
 9329 46a7 E8000000 		call	_ZN8UnitTest10CheckEqualIiiEEvRNS_11TestResultsERKT_RKT0_RKNS_11TestDetailsE
 9329      00
 9330              	.LEHE351:
 9331              	.L937:
 9332 46ac 488D1D00 		leaq	16+_ZTVN12_GLOBAL__N_18MockTestE(%rip), %rbx
 9332      000000
 9333 46b3 488DBC24 		leaq	256(%rsp), %rdi
 9333      00010000 
 9334 46bb 48899C24 		movq	%rbx, 256(%rsp)
 9334      00010000 
 9335              	.LEHB352:
 9336 46c3 E8000000 		call	_ZN8UnitTest4TestD2Ev@PLT
 9336      00
 9337              	.LEHE352:
 9338 46c8 488DBC24 		leaq	192(%rsp), %rdi
 9338      C0000000 
 9339 46d0 48899C24 		movq	%rbx, 192(%rsp)
 9339      C0000000 
 9340              	.LEHB353:
 9341 46d8 E8000000 		call	_ZN8UnitTest4TestD2Ev@PLT
 9341      00
 9342              	.LEHE353:
 9343 46dd 488DBC24 		leaq	128(%rsp), %rdi
 9343      80000000 
 9344 46e5 48899C24 		movq	%rbx, 128(%rsp)
 9344      80000000 
 9345              	.LEHB354:
 9346 46ed E8000000 		call	_ZN8UnitTest4TestD2Ev@PLT
 9346      00
 9347              	.LEHE354:
 9348 46f2 488DBC24 		leaq	736(%rsp), %rdi
 9348      E0020000 
 9349              	.LEHB355:
 9350 46fa E8000000 		call	_ZN8UnitTest16SignalTranslatorD1Ev@PLT
 9350      00
 9351              	.LEHE355:
 9352              	.L928:
 9353 46ff 488B8424 		movq	1864(%rsp), %rax
 9353      48070000 
 9354 4707 64483304 		xorq	%fs:40, %rax
 9354      25280000 
 9354      00
 9355 4710 0F85F700 		jne	.L969
 9355      0000
 9356 4716 4881C458 		addq	$1880, %rsp
 9356      070000
 9357              		.cfi_remember_state
 9358              		.cfi_def_cfa_offset 40
 9359 471d 5B       		popq	%rbx
 9360              		.cfi_def_cfa_offset 32
 9361 471e 5D       		popq	%rbp
 9362              		.cfi_def_cfa_offset 24
 9363 471f 415C     		popq	%r12
 9364              		.cfi_def_cfa_offset 16
 9365 4721 415D     		popq	%r13
 9366              		.cfi_def_cfa_offset 8
 9367 4723 C3       		ret
 9368              		.p2align 4,,10
 9369 4724 0F1F4000 		.p2align 3
 9370              	.L932:
 9371              		.cfi_restore_state
 9372 4728 488B0424 		movq	(%rsp), %rax
 9373 472c 31C9     		xorl	%ecx, %ecx
 9374 472e 4889DA   		movq	%rbx, %rdx
 9375 4731 4889EF   		movq	%rbp, %rdi
 9376 4734 488B7008 		movq	8(%rax), %rsi
 9377              	.LEHB356:
 9378 4738 E8000000 		call	_ZNK8UnitTest10TestRunner7RunTestEPNS_11TestResultsEPNS_4TestEi@PLT
 9378      00
 9379              	.L934:
 9380 473d 488B5B28 		movq	40(%rbx), %rbx
 9381 4741 4885DB   		testq	%rbx, %rbx
 9382 4744 0F8406FF 		je	.L931
 9382      FFFF
 9383              	.L933:
 9384 474a 31D2     		xorl	%edx, %edx
 9385 474c 4889DE   		movq	%rbx, %rsi
 9386 474f 4889EF   		movq	%rbp, %rdi
 9387 4752 E8000000 		call	_ZNK8UnitTest10TestRunner13IsTestInSuiteEPKNS_4TestEPKc@PLT
 9387      00
 9388              	.LEHE356:
 9389 4757 84C0     		testb	%al, %al
 9390 4759 74E2     		je	.L934
 9391 475b EBCB     		jmp	.L932
 9392              	.L955:
 9393 475d 4889C3   		movq	%rax, %rbx
 9394 4760 4889D5   		movq	%rdx, %rbp
 9395              	.L942:
 9396 4763 488DBC24 		leaq	736(%rsp), %rdi
 9396      E0020000 
 9397 476b E8000000 		call	_ZN8UnitTest16SignalTranslatorD1Ev@PLT
 9397      00
 9398 4770 4889DF   		movq	%rbx, %rdi
 9399 4773 4889EA   		movq	%rbp, %rdx
 9400              	.L943:
 9401 4776 4883FA01 		cmpq	$1, %rdx
 9402 477a 0F84A801 		je	.L945
 9402      0000
 9403 4780 4883FA02 		cmpq	$2, %rdx
 9404 4784 0F857601 		jne	.L970
 9404      0000
 9405 478a E8000000 		call	__cxa_begin_catch@PLT
 9405      00
 9406 478f 488DBC24 		leaq	320(%rsp), %rdi
 9406      40010000 
 9407 4797 4889C3   		movq	%rax, %rbx
 9408              	.LEHB357:
 9409 479a E8000000 		call	_ZN8UnitTest15MemoryOutStreamC1Ev
 9409      00
 9410              	.LEHE357:
 9411 479f 488DBC24 		leaq	320(%rsp), %rdi
 9411      40010000 
 9412 47a7 488D3500 		leaq	.LC11(%rip), %rsi
 9412      000000
 9413 47ae BA150000 		movl	$21, %edx
 9413      00
 9414              	.LEHB358:
 9415 47b3 E8000000 		call	_ZSt16__ostream_insertIcSt11char_traitsIcEERSt13basic_ostreamIT_T0_ES6_PKS3_l@PLT
 9415      00
 9416 47b8 488B03   		movq	(%rbx), %rax
 9417 47bb 4889DF   		movq	%rbx, %rdi
 9418 47be FF5010   		call	*16(%rax)
 9419 47c1 488DBC24 		leaq	320(%rsp), %rdi
 9419      40010000 
 9420 47c9 4889C6   		movq	%rax, %rsi
 9421 47cc E8000000 		call	_ZStlsISt11char_traitsIcEERSt13basic_ostreamIcT_ES5_PKc@PLT
 9421      00
 9422 47d1 E8000000 		call	_ZN8UnitTest11CurrentTest7ResultsEv@PLT
 9422      00
 9423 47d6 488DBC24 		leaq	320(%rsp), %rdi
 9423      40010000 
 9424 47de 488B18   		movq	(%rax), %rbx
 9425 47e1 E8000000 		call	_ZNK8UnitTest15MemoryOutStream7GetTextEv@PLT
 9425      00
 9426 47e6 488B7424 		movq	8(%rsp), %rsi
 9426      08
 9427 47eb 4889C2   		movq	%rax, %rdx
 9428 47ee 4889DF   		movq	%rbx, %rdi
 9429 47f1 E8000000 		call	_ZN8UnitTest11TestResults13OnTestFailureERKNS_11TestDetailsEPKc@PLT
 9429      00
 9430              	.LEHE358:
 9431 47f6 488DBC24 		leaq	320(%rsp), %rdi
 9431      40010000 
 9432              	.LEHB359:
 9433 47fe E8000000 		call	_ZN8UnitTest15MemoryOutStreamD1Ev
 9433      00
 9434              	.LEHE359:
 9435              	.L967:
 9436 4803 E8000000 		call	__cxa_end_catch@PLT
 9436      00
 9437 4808 E9F2FEFF 		jmp	.L928
 9437      FF
 9438              	.L969:
 9439 480d E8000000 		call	__stack_chk_fail@PLT
 9439      00
 9440              	.L954:
 9441 4812 4889C7   		movq	%rax, %rdi
 9442 4815 E95CFFFF 		jmp	.L943
 9442      FF
 9443              	.L962:
 9444 481a 4889C3   		movq	%rax, %rbx
 9445 481d 4889D5   		movq	%rdx, %rbp
 9446              	.L939:
 9447 4820 488D0500 		leaq	16+_ZTVN12_GLOBAL__N_18MockTestE(%rip), %rax
 9447      000000
 9448 4827 488DBC24 		leaq	256(%rsp), %rdi
 9448      00010000 
 9449 482f 48898424 		movq	%rax, 256(%rsp)
 9449      00010000 
 9450 4837 E8000000 		call	_ZN8UnitTest4TestD2Ev@PLT
 9450      00
 9451              	.L940:
 9452 483c 488D0500 		leaq	16+_ZTVN12_GLOBAL__N_18MockTestE(%rip), %rax
 9452      000000
 9453 4843 488DBC24 		leaq	192(%rsp), %rdi
 9453      C0000000 
 9454 484b 48898424 		movq	%rax, 192(%rsp)
 9454      C0000000 
 9455 4853 E8000000 		call	_ZN8UnitTest4TestD2Ev@PLT
 9455      00
 9456              	.L941:
 9457 4858 488D0500 		leaq	16+_ZTVN12_GLOBAL__N_18MockTestE(%rip), %rax
 9457      000000
 9458 485f 488DBC24 		leaq	128(%rsp), %rdi
 9458      80000000 
 9459 4867 48898424 		movq	%rax, 128(%rsp)
 9459      80000000 
 9460 486f E8000000 		call	_ZN8UnitTest4TestD2Ev@PLT
 9460      00
 9461 4874 E9EAFEFF 		jmp	.L942
 9461      FF
 9462              	.L961:
 9463 4879 4889C3   		movq	%rax, %rbx
 9464 487c 4889D5   		movq	%rdx, %rbp
 9465 487f EBBB     		jmp	.L940
 9466              	.L964:
 9467 4881 4889C7   		movq	%rax, %rdi
 9468 4884 E8000000 		call	__cxa_begin_catch@PLT
 9468      00
 9469              	.LEHB360:
 9470 4889 E8000000 		call	_ZN8UnitTest11CurrentTest7ResultsEv@PLT
 9470      00
 9471 488e 488B18   		movq	(%rax), %rbx
 9472 4891 E8000000 		call	_ZN8UnitTest11CurrentTest7DetailsEv@PLT
 9472      00
 9473 4896 488B30   		movq	(%rax), %rsi
 9474 4899 488D7C24 		leaq	64(%rsp), %rdi
 9474      40
 9475 489e BA8D0000 		movl	$141, %edx
 9475      00
 9476 48a3 E8000000 		call	_ZN8UnitTest11TestDetailsC1ERKS0_i@PLT
 9476      00
 9477 48a8 488D7424 		leaq	64(%rsp), %rsi
 9477      40
 9478 48ad 488D1500 		leaq	.LC42(%rip), %rdx
 9478      000000
 9479 48b4 4889DF   		movq	%rbx, %rdi
 9480 48b7 E8000000 		call	_ZN8UnitTest11TestResults13OnTestFailureERKNS_11TestDetailsEPKc@PLT
 9480      00
 9481              	.LEHE360:
 9482              	.LEHB361:
 9483 48bc E8000000 		call	__cxa_end_catch@PLT
 9483      00
 9484              	.LEHE361:
 9485 48c1 E9E6FDFF 		jmp	.L937
 9485      FF
 9486              	.L960:
 9487 48c6 4889C3   		movq	%rax, %rbx
 9488 48c9 4889D5   		movq	%rdx, %rbp
 9489 48cc EB8A     		jmp	.L941
 9490              	.L963:
 9491 48ce 4889C3   		movq	%rax, %rbx
 9492 48d1 4889D5   		movq	%rdx, %rbp
 9493 48d4 E8000000 		call	__cxa_end_catch@PLT
 9493      00
 9494 48d9 E942FFFF 		jmp	.L939
 9494      FF
 9495              	.L958:
 9496 48de 488DBC24 		leaq	320(%rsp), %rdi
 9496      40010000 
 9497 48e6 4889C3   		movq	%rax, %rbx
 9498 48e9 E8000000 		call	_ZN8UnitTest15MemoryOutStreamD1Ev
 9498      00
 9499              	.L951:
 9500 48ee E8000000 		call	__cxa_end_catch@PLT
 9500      00
 9501 48f3 4889DF   		movq	%rbx, %rdi
 9502              	.LEHB362:
 9503 48f6 E8000000 		call	_Unwind_Resume@PLT
 9503      00
 9504              	.LEHE362:
 9505              	.L957:
 9506              	.L968:
 9507 48fb 4889C3   		movq	%rax, %rbx
 9508 48fe EBEE     		jmp	.L951
 9509              	.L970:
 9510 4900 E8000000 		call	__cxa_begin_catch@PLT
 9510      00
 9511              	.LEHB363:
 9512 4905 E8000000 		call	_ZN8UnitTest11CurrentTest7ResultsEv@PLT
 9512      00
 9513 490a 488B7424 		movq	8(%rsp), %rsi
 9513      08
 9514 490f 488B38   		movq	(%rax), %rdi
 9515 4912 488D1500 		leaq	.LC12(%rip), %rdx
 9515      000000
 9516 4919 E8000000 		call	_ZN8UnitTest11TestResults13OnTestFailureERKNS_11TestDetailsEPKc@PLT
 9516      00
 9517              	.LEHE363:
 9518              	.LEHB364:
 9519 491e E8000000 		call	__cxa_end_catch@PLT
 9519      00
 9520              	.LEHE364:
 9521 4923 E9D7FDFF 		jmp	.L928
 9521      FF
 9522              	.L945:
 9523 4928 E8000000 		call	__cxa_begin_catch@PLT
 9523      00
 9524 492d 4889C3   		movq	%rax, %rbx
 9525              	.LEHB365:
 9526 4930 E8000000 		call	_ZN8UnitTest11CurrentTest7ResultsEv@PLT
 9526      00
 9527 4935 488B28   		movq	(%rax), %rbp
 9528 4938 488B03   		movq	(%rbx), %rax
 9529 493b 4889DF   		movq	%rbx, %rdi
 9530 493e FF5010   		call	*16(%rax)
 9531 4941 4889DF   		movq	%rbx, %rdi
 9532 4944 4989C4   		movq	%rax, %r12
 9533 4947 E8000000 		call	_ZNK8UnitTest15AssertException10LineNumberEv@PLT
 9533      00
 9534 494c 4889DF   		movq	%rbx, %rdi
 9535 494f 4189C5   		movl	%eax, %r13d
 9536 4952 E8000000 		call	_ZNK8UnitTest15AssertException8FilenameEv@PLT
 9536      00
 9537 4957 488B5424 		movq	8(%rsp), %rdx
 9537      08
 9538 495c 488D7C24 		leaq	32(%rsp), %rdi
 9538      20
 9539 4961 4589E8   		movl	%r13d, %r8d
 9540 4964 4889C1   		movq	%rax, %rcx
 9541 4967 488B7208 		movq	8(%rdx), %rsi
 9542 496b 488B12   		movq	(%rdx), %rdx
 9543 496e E8000000 		call	_ZN8UnitTest11TestDetailsC1EPKcS2_S2_i@PLT
 9543      00
 9544 4973 488D7424 		leaq	32(%rsp), %rsi
 9544      20
 9545 4978 4C89E2   		movq	%r12, %rdx
 9546 497b 4889EF   		movq	%rbp, %rdi
 9547 497e E8000000 		call	_ZN8UnitTest11TestResults13OnTestFailureERKNS_11TestDetailsEPKc@PLT
 9547      00
 9548              	.LEHE365:
 9549 4983 E97BFEFF 		jmp	.L967
 9549      FF
 9550              	.L959:
 9551 4988 4889C3   		movq	%rax, %rbx
 9552 498b E8000000 		call	__cxa_end_catch@PLT
 9552      00
 9553 4990 4889DF   		movq	%rbx, %rdi
 9554              	.LEHB366:
 9555 4993 E8000000 		call	_Unwind_Resume@PLT
 9555      00
 9556              	.LEHE366:
 9557              	.L956:
 9558 4998 E95EFFFF 		jmp	.L968
 9558      FF
 9559              		.cfi_endproc
 9560              	.LFE1415:
 9561              		.section	.gcc_except_table
 9562              		.align 4
 9563              	.LLSDA1415:
 9564 0970 FF       		.byte	0xff
 9565 0971 9B       		.byte	0x9b
 9566 0972 9401     		.uleb128 .LLSDATT1415-.LLSDATTD1415
 9567              	.LLSDATTD1415:
 9568 0974 01       		.byte	0x1
 9569 0975 7D       		.uleb128 .LLSDACSE1415-.LLSDACSB1415
 9570              	.LLSDACSB1415:
 9571 0976 2C       		.uleb128 .LEHB345-.LFB1415
 9572 0977 05       		.uleb128 .LEHE345-.LEHB345
 9573 0978 00       		.uleb128 0
 9574 0979 00       		.uleb128 0
 9575 097a 3C       		.uleb128 .LEHB346-.LFB1415
 9576 097b 05       		.uleb128 .LEHE346-.LEHB346
 9577 097c 8207     		.uleb128 .L954-.LFB1415
 9578 097e 05       		.uleb128 0x5
 9579 097f 76       		.uleb128 .LEHB347-.LFB1415
 9580 0980 2F       		.uleb128 .LEHE347-.LEHB347
 9581 0981 CD05     		.uleb128 .L955-.LFB1415
 9582 0983 07       		.uleb128 0x7
 9583 0984 EF01     		.uleb128 .LEHB348-.LFB1415
 9584 0986 05       		.uleb128 .LEHE348-.LEHB348
 9585 0987 B608     		.uleb128 .L960-.LFB1415
 9586 0989 07       		.uleb128 0x7
 9587 098a B702     		.uleb128 .LEHB349-.LFB1415
 9588 098c 05       		.uleb128 .LEHE349-.LEHB349
 9589 098d E907     		.uleb128 .L961-.LFB1415
 9590 098f 07       		.uleb128 0x7
 9591 0990 F502     		.uleb128 .LEHB350-.LFB1415
 9592 0992 64       		.uleb128 .LEHE350-.LEHB350
 9593 0993 8A07     		.uleb128 .L962-.LFB1415
 9594 0995 07       		.uleb128 0x7
 9595 0996 DC03     		.uleb128 .LEHB351-.LFB1415
 9596 0998 40       		.uleb128 .LEHE351-.LEHB351
 9597 0999 F107     		.uleb128 .L964-.LFB1415
 9598 099b 01       		.uleb128 0x1
 9599 099c B304     		.uleb128 .LEHB352-.LFB1415
 9600 099e 05       		.uleb128 .LEHE352-.LEHB352
 9601 099f E907     		.uleb128 .L961-.LFB1415
 9602 09a1 07       		.uleb128 0x7
 9603 09a2 C804     		.uleb128 .LEHB353-.LFB1415
 9604 09a4 05       		.uleb128 .LEHE353-.LEHB353
 9605 09a5 B608     		.uleb128 .L960-.LFB1415
 9606 09a7 07       		.uleb128 0x7
 9607 09a8 DD04     		.uleb128 .LEHB354-.LFB1415
 9608 09aa 05       		.uleb128 .LEHE354-.LEHB354
 9609 09ab CD05     		.uleb128 .L955-.LFB1415
 9610 09ad 07       		.uleb128 0x7
 9611 09ae EA04     		.uleb128 .LEHB355-.LFB1415
 9612 09b0 05       		.uleb128 .LEHE355-.LEHB355
 9613 09b1 8207     		.uleb128 .L954-.LFB1415
 9614 09b3 05       		.uleb128 0x5
 9615 09b4 A805     		.uleb128 .LEHB356-.LFB1415
 9616 09b6 1F       		.uleb128 .LEHE356-.LEHB356
 9617 09b7 8A07     		.uleb128 .L962-.LFB1415
 9618 09b9 07       		.uleb128 0x7
 9619 09ba 8A06     		.uleb128 .LEHB357-.LFB1415
 9620 09bc 05       		.uleb128 .LEHE357-.LEHB357
 9621 09bd EB08     		.uleb128 .L957-.LFB1415
 9622 09bf 00       		.uleb128 0
 9623 09c0 A306     		.uleb128 .LEHB358-.LFB1415
 9624 09c2 43       		.uleb128 .LEHE358-.LEHB358
 9625 09c3 CE08     		.uleb128 .L958-.LFB1415
 9626 09c5 00       		.uleb128 0
 9627 09c6 EE06     		.uleb128 .LEHB359-.LFB1415
 9628 09c8 05       		.uleb128 .LEHE359-.LEHB359
 9629 09c9 EB08     		.uleb128 .L957-.LFB1415
 9630 09cb 00       		.uleb128 0
 9631 09cc F907     		.uleb128 .LEHB360-.LFB1415
 9632 09ce 33       		.uleb128 .LEHE360-.LEHB360
 9633 09cf BE08     		.uleb128 .L963-.LFB1415
 9634 09d1 07       		.uleb128 0x7
 9635 09d2 AC08     		.uleb128 .LEHB361-.LFB1415
 9636 09d4 05       		.uleb128 .LEHE361-.LEHB361
 9637 09d5 8A07     		.uleb128 .L962-.LFB1415
 9638 09d7 07       		.uleb128 0x7
 9639 09d8 E608     		.uleb128 .LEHB362-.LFB1415
 9640 09da 05       		.uleb128 .LEHE362-.LEHB362
 9641 09db 00       		.uleb128 0
 9642 09dc 00       		.uleb128 0
 9643 09dd F508     		.uleb128 .LEHB363-.LFB1415
 9644 09df 19       		.uleb128 .LEHE363-.LEHB363
 9645 09e0 F809     		.uleb128 .L959-.LFB1415
 9646 09e2 00       		.uleb128 0
 9647 09e3 8E09     		.uleb128 .LEHB364-.LFB1415
 9648 09e5 05       		.uleb128 .LEHE364-.LEHB364
 9649 09e6 00       		.uleb128 0
 9650 09e7 00       		.uleb128 0
 9651 09e8 A009     		.uleb128 .LEHB365-.LFB1415
 9652 09ea 53       		.uleb128 .LEHE365-.LEHB365
 9653 09eb 880A     		.uleb128 .L956-.LFB1415
 9654 09ed 00       		.uleb128 0
 9655 09ee 830A     		.uleb128 .LEHB366-.LFB1415
 9656 09f0 05       		.uleb128 .LEHE366-.LEHB366
 9657 09f1 00       		.uleb128 0
 9658 09f2 00       		.uleb128 0
 9659              	.LLSDACSE1415:
 9660 09f3 03       		.byte	0x3
 9661 09f4 00       		.byte	0
 9662 09f5 02       		.byte	0x2
 9663 09f6 7D       		.byte	0x7d
 9664 09f7 01       		.byte	0x1
 9665 09f8 7D       		.byte	0x7d
 9666 09f9 00       		.byte	0
 9667 09fa 7D       		.byte	0x7d
 9668 09fb 00       		.align 4
 9669 09fc 00000000 		.long	0
 9670              	
 9671 0a00 00000000 		.long	DW.ref._ZTISt9exception-.
 9672 0a04 00000000 		.long	DW.ref._ZTIN8UnitTest15AssertExceptionE-.
 9673              	.LLSDATT1415:
 9674              		.text
 9676 499d 90       		.align 2
 9677 499e 6690     		.p2align 4,,15
 9679              	_ZNK12_GLOBAL__N_148TestTestRunnerFixtureReporterNotifiedOfTestCount7RunImplEv:
 9680              	.LFB1245:
 9681              		.cfi_startproc
 9682              		.cfi_personality 0x9b,DW.ref.__gxx_personality_v0
 9683              		.cfi_lsda 0x1b,.LLSDA1245
 9684 49a0 4156     		pushq	%r14
 9685              		.cfi_def_cfa_offset 16
 9686              		.cfi_offset 14, -16
 9687 49a2 4155     		pushq	%r13
 9688              		.cfi_def_cfa_offset 24
 9689              		.cfi_offset 13, -24
 9690 49a4 4989FD   		movq	%rdi, %r13
 9691 49a7 4154     		pushq	%r12
 9692              		.cfi_def_cfa_offset 32
 9693              		.cfi_offset 12, -32
 9694 49a9 55       		pushq	%rbp
 9695              		.cfi_def_cfa_offset 40
 9696              		.cfi_offset 6, -40
 9697 49aa 488D6F08 		leaq	8(%rdi), %rbp
 9698 49ae 53       		pushq	%rbx
 9699              		.cfi_def_cfa_offset 48
 9700              		.cfi_offset 3, -48
 9701 49af 4881EC90 		subq	$2192, %rsp
 9701      080000
 9702              		.cfi_def_cfa_offset 2240
 9703 49b6 488D5C24 		leaq	32(%rsp), %rbx
 9703      20
 9704 49bb 64488B04 		movq	%fs:40, %rax
 9704      25280000 
 9704      00
 9705 49c4 48898424 		movq	%rax, 2184(%rsp)
 9705      88080000 
 9706 49cc 31C0     		xorl	%eax, %eax
 9707 49ce 488D7318 		leaq	24(%rbx), %rsi
 9708 49d2 4889DF   		movq	%rbx, %rdi
 9709              	.LEHB367:
 9710 49d5 E8000000 		call	_ZN8UnitTest10TestRunnerC1ERNS_12TestReporterE@PLT
 9710      00
 9711              	.LEHE367:
 9712 49da 4C8D2500 		leaq	16+_ZTV17RecordingReporter(%rip), %r12
 9712      000000
 9713 49e1 488DBB48 		leaq	2120(%rbx), %rdi
 9713      080000
 9714 49e8 C7442440 		movl	$0, 64(%rsp)
 9714      00000000 
 9715 49f0 C7842444 		movl	$0, 580(%rsp)
 9715      02000000 
 9715      000000
 9716 49fb C7842448 		movl	$0, 840(%rsp)
 9716      03000000 
 9716      000000
 9717 4a06 4C896424 		movq	%r12, 56(%rsp)
 9717      38
 9718 4a0b C784244C 		movl	$0, 1612(%rsp)
 9718      06000000 
 9718      000000
 9719 4a16 48C78424 		movq	$0, 2128(%rsp)
 9719      50080000 
 9719      00000000 
 9720 4a22 48C78424 		movq	$0, 2136(%rsp)
 9720      58080000 
 9720      00000000 
 9721 4a2e C7842460 		movl	$0, 2144(%rsp)
 9721      08000000 
 9721      000000
 9722 4a39 C6442444 		movb	$0, 68(%rsp)
 9722      00
 9723 4a3e C6842444 		movb	$0, 324(%rsp)
 9723      01000000 
 9724 4a46 C6842448 		movb	$0, 584(%rsp)
 9724      02000000 
 9725 4a4e C684244C 		movb	$0, 844(%rsp)
 9725      03000000 
 9726 4a56 C684244C 		movb	$0, 1100(%rsp)
 9726      04000000 
 9727 4a5e C684244C 		movb	$0, 1356(%rsp)
 9727      05000000 
 9728 4a66 C6842450 		movb	$0, 1616(%rsp)
 9728      06000000 
 9729 4a6e C6842450 		movb	$0, 1872(%rsp)
 9729      07000000 
 9730              	.LEHB368:
 9731 4a76 E8000000 		call	_ZN8UnitTest8TestListC1Ev@PLT
 9731      00
 9732              	.LEHE368:
 9733 4a7b 4889EE   		movq	%rbp, %rsi
 9734 4a7e 4889DF   		movq	%rbx, %rdi
 9735 4a81 4889AC24 		movq	%rbp, 2168(%rsp)
 9735      78080000 
 9736              	.LEHB369:
 9737 4a89 E802FAFF 		call	_ZN8UnitTest11ExecuteTestIN12_GLOBAL__N_150TestRunnerFixtureReporterNotifiedOfTestCountHelper
 9737      FF
 9738              	.LEHE369:
 9739 4a8e 488D7B18 		leaq	24(%rbx), %rdi
 9740 4a92 4C896424 		movq	%r12, 56(%rsp)
 9740      38
 9741              	.LEHB370:
 9742 4a97 E8000000 		call	_ZN8UnitTest12TestReporterD2Ev@PLT
 9742      00
 9743              	.LEHE370:
 9744 4a9c 4889DF   		movq	%rbx, %rdi
 9745              	.LEHB371:
 9746 4a9f E8000000 		call	_ZN8UnitTest10TestRunnerD1Ev@PLT
 9746      00
 9747              	.LEHE371:
 9748              	.L971:
 9749 4aa4 488B8424 		movq	2184(%rsp), %rax
 9749      88080000 
 9750 4aac 64483304 		xorq	%fs:40, %rax
 9750      25280000 
 9750      00
 9751 4ab5 7510     		jne	.L1019
 9752 4ab7 4881C490 		addq	$2192, %rsp
 9752      080000
 9753              		.cfi_remember_state
 9754              		.cfi_def_cfa_offset 48
 9755 4abe 5B       		popq	%rbx
 9756              		.cfi_def_cfa_offset 40
 9757 4abf 5D       		popq	%rbp
 9758              		.cfi_def_cfa_offset 32
 9759 4ac0 415C     		popq	%r12
 9760              		.cfi_def_cfa_offset 24
 9761 4ac2 415D     		popq	%r13
 9762              		.cfi_def_cfa_offset 16
 9763 4ac4 415E     		popq	%r14
 9764              		.cfi_def_cfa_offset 8
 9765 4ac6 C3       		ret
 9766              	.L1019:
 9767              		.cfi_restore_state
 9768 4ac7 E8000000 		call	__stack_chk_fail@PLT
 9768      00
 9769              	.L991:
 9770 4acc 4889C7   		movq	%rax, %rdi
 9771              	.L977:
 9772 4acf 4883FA01 		cmpq	$1, %rdx
 9773 4ad3 0F846F01 		je	.L979
 9773      0000
 9774 4ad9 4883FA02 		cmpq	$2, %rdx
 9775 4add 0F853101 		jne	.L1020
 9775      0000
 9776              	.L980:
 9777 4ae3 E8000000 		call	__cxa_begin_catch@PLT
 9777      00
 9778 4ae8 4889DF   		movq	%rbx, %rdi
 9779 4aeb 4989C4   		movq	%rax, %r12
 9780              	.LEHB372:
 9781 4aee E8000000 		call	_ZN8UnitTest15MemoryOutStreamC1Ev
 9781      00
 9782              	.LEHE372:
 9783 4af3 488D3500 		leaq	.LC11(%rip), %rsi
 9783      000000
 9784 4afa BA150000 		movl	$21, %edx
 9784      00
 9785 4aff 4889DF   		movq	%rbx, %rdi
 9786              	.LEHB373:
 9787 4b02 E8000000 		call	_ZSt16__ostream_insertIcSt11char_traitsIcEERSt13basic_ostreamIT_T0_ES6_PKS3_l@PLT
 9787      00
 9788 4b07 498B0424 		movq	(%r12), %rax
 9789 4b0b 4C89E7   		movq	%r12, %rdi
 9790 4b0e FF5010   		call	*16(%rax)
 9791 4b11 4889DF   		movq	%rbx, %rdi
 9792 4b14 4889C6   		movq	%rax, %rsi
 9793 4b17 E8000000 		call	_ZStlsISt11char_traitsIcEERSt13basic_ostreamIcT_ES5_PKc@PLT
 9793      00
 9794 4b1c E8000000 		call	_ZN8UnitTest11CurrentTest7ResultsEv@PLT
 9794      00
 9795 4b21 4889DF   		movq	%rbx, %rdi
 9796 4b24 4C8B20   		movq	(%rax), %r12
 9797 4b27 E8000000 		call	_ZNK8UnitTest15MemoryOutStream7GetTextEv@PLT
 9797      00
 9798 4b2c 4889C2   		movq	%rax, %rdx
 9799 4b2f 4889EE   		movq	%rbp, %rsi
 9800 4b32 4C89E7   		movq	%r12, %rdi
 9801 4b35 E8000000 		call	_ZN8UnitTest11TestResults13OnTestFailureERKNS_11TestDetailsEPKc@PLT
 9801      00
 9802              	.LEHE373:
 9803 4b3a 4889DF   		movq	%rbx, %rdi
 9804              	.LEHB374:
 9805 4b3d E8000000 		call	_ZN8UnitTest15MemoryOutStreamD1Ev
 9805      00
 9806              	.LEHE374:
 9807              	.L1018:
 9808 4b42 E8000000 		call	__cxa_end_catch@PLT
 9808      00
 9809 4b47 E958FFFF 		jmp	.L971
 9809      FF
 9810              	.L998:
 9811 4b4c 4989C4   		movq	%rax, %r12
 9812 4b4f 4989D6   		movq	%rdx, %r14
 9813 4b52 4889DF   		movq	%rbx, %rdi
 9814 4b55 E8000000 		call	_ZN8UnitTest10TestRunnerD1Ev@PLT
 9814      00
 9815 4b5a 4C89E7   		movq	%r12, %rdi
 9816 4b5d 4C89F2   		movq	%r14, %rdx
 9817 4b60 E96AFFFF 		jmp	.L977
 9817      FF
 9818              	.L992:
 9819 4b65 4989C4   		movq	%rax, %r12
 9820 4b68 4989D6   		movq	%rdx, %r14
 9821 4b6b 4889DF   		movq	%rbx, %rdi
 9822 4b6e E8000000 		call	_ZN12_GLOBAL__N_111FixtureBaseD2Ev
 9822      00
 9823 4b73 4C89E7   		movq	%r12, %rdi
 9824 4b76 4C89F2   		movq	%r14, %rdx
 9825 4b79 E951FFFF 		jmp	.L977
 9825      FF
 9826              	.L997:
 9827 4b7e 4989C4   		movq	%rax, %r12
 9828 4b81 4989D6   		movq	%rdx, %r14
 9829 4b84 4889DF   		movq	%rbx, %rdi
 9830 4b87 E8000000 		call	_ZN12_GLOBAL__N_111FixtureBaseD2Ev
 9830      00
 9831 4b8c 4C89E7   		movq	%r12, %rdi
 9832 4b8f 4C89F2   		movq	%r14, %rdx
 9833              	.L974:
 9834 4b92 4883FA01 		cmpq	$1, %rdx
 9835 4b96 0F84AC00 		je	.L979
 9835      0000
 9836 4b9c 4883FA02 		cmpq	$2, %rdx
 9837 4ba0 0F843DFF 		je	.L980
 9837      FFFF
 9838 4ba6 E8000000 		call	__cxa_begin_catch@PLT
 9838      00
 9839              	.LEHB375:
 9840 4bab E8000000 		call	_ZN8UnitTest11CurrentTest7ResultsEv@PLT
 9840      00
 9841 4bb0 4889E3   		movq	%rsp, %rbx
 9842 4bb3 BA830000 		movl	$131, %edx
 9842      00
 9843 4bb8 4889EE   		movq	%rbp, %rsi
 9844 4bbb 4889DF   		movq	%rbx, %rdi
 9845 4bbe 4C8B20   		movq	(%rax), %r12
 9846 4bc1 E8000000 		call	_ZN8UnitTest11TestDetailsC1ERKS0_i@PLT
 9846      00
 9847 4bc6 488D1500 		leaq	.LC14(%rip), %rdx
 9847      000000
 9848 4bcd 4889DE   		movq	%rbx, %rsi
 9849 4bd0 4C89E7   		movq	%r12, %rdi
 9850 4bd3 E8000000 		call	_ZN8UnitTest11TestResults13OnTestFailureERKNS_11TestDetailsEPKc@PLT
 9850      00
 9851              	.LEHE375:
 9852              	.L981:
 9853              	.LEHB376:
 9854 4bd8 E8000000 		call	__cxa_end_catch@PLT
 9854      00
 9855              	.LEHE376:
 9856 4bdd E9C2FEFF 		jmp	.L971
 9856      FF
 9857              	.L999:
 9858 4be2 4889C7   		movq	%rax, %rdi
 9859 4be5 EBAB     		jmp	.L974
 9860              	.L996:
 9861 4be7 4889C3   		movq	%rax, %rbx
 9862 4bea E8000000 		call	__cxa_end_catch@PLT
 9862      00
 9863 4bef 4889DF   		movq	%rbx, %rdi
 9864              	.LEHB377:
 9865 4bf2 E8000000 		call	_Unwind_Resume@PLT
 9865      00
 9866              	.LEHE377:
 9867              	.L995:
 9868 4bf7 4889DF   		movq	%rbx, %rdi
 9869 4bfa 4889C5   		movq	%rax, %rbp
 9870 4bfd E8000000 		call	_ZN8UnitTest15MemoryOutStreamD1Ev
 9870      00
 9871              	.L984:
 9872 4c02 E8000000 		call	__cxa_end_catch@PLT
 9872      00
 9873 4c07 4889EF   		movq	%rbp, %rdi
 9874              	.LEHB378:
 9875 4c0a E8000000 		call	_Unwind_Resume@PLT
 9875      00
 9876              	.LEHE378:
 9877              	.L994:
 9878 4c0f 4889C5   		movq	%rax, %rbp
 9879 4c12 EBEE     		jmp	.L984
 9880              	.L1020:
 9881 4c14 E8000000 		call	__cxa_begin_catch@PLT
 9881      00
 9882              	.LEHB379:
 9883 4c19 E8000000 		call	_ZN8UnitTest11CurrentTest7ResultsEv@PLT
 9883      00
 9884 4c1e 4889E3   		movq	%rsp, %rbx
 9885 4c21 BA830000 		movl	$131, %edx
 9885      00
 9886 4c26 4889EE   		movq	%rbp, %rsi
 9887 4c29 4889DF   		movq	%rbx, %rdi
 9888 4c2c 4C8B20   		movq	(%rax), %r12
 9889 4c2f E8000000 		call	_ZN8UnitTest11TestDetailsC1ERKS0_i@PLT
 9889      00
 9890 4c34 488D1500 		leaq	.LC13(%rip), %rdx
 9890      000000
 9891 4c3b 4889DE   		movq	%rbx, %rsi
 9892 4c3e 4C89E7   		movq	%r12, %rdi
 9893 4c41 E8000000 		call	_ZN8UnitTest11TestResults13OnTestFailureERKNS_11TestDetailsEPKc@PLT
 9893      00
 9894              	.LEHE379:
 9895 4c46 EB90     		jmp	.L981
 9896              	.L979:
 9897 4c48 E8000000 		call	__cxa_begin_catch@PLT
 9897      00
 9898 4c4d 4889C3   		movq	%rax, %rbx
 9899              	.LEHB380:
 9900 4c50 E8000000 		call	_ZN8UnitTest11CurrentTest7ResultsEv@PLT
 9900      00
 9901 4c55 488B28   		movq	(%rax), %rbp
 9902 4c58 488B03   		movq	(%rbx), %rax
 9903 4c5b 4889DF   		movq	%rbx, %rdi
 9904 4c5e FF5010   		call	*16(%rax)
 9905 4c61 4889DF   		movq	%rbx, %rdi
 9906 4c64 4989C4   		movq	%rax, %r12
 9907 4c67 E8000000 		call	_ZNK8UnitTest15AssertException10LineNumberEv@PLT
 9907      00
 9908 4c6c 4889DF   		movq	%rbx, %rdi
 9909 4c6f 4189C6   		movl	%eax, %r14d
 9910 4c72 E8000000 		call	_ZNK8UnitTest15AssertException8FilenameEv@PLT
 9910      00
 9911 4c77 498B5508 		movq	8(%r13), %rdx
 9912 4c7b 498B7510 		movq	16(%r13), %rsi
 9913 4c7f 4889E3   		movq	%rsp, %rbx
 9914 4c82 4589F0   		movl	%r14d, %r8d
 9915 4c85 4889C1   		movq	%rax, %rcx
 9916 4c88 4889DF   		movq	%rbx, %rdi
 9917 4c8b E8000000 		call	_ZN8UnitTest11TestDetailsC1EPKcS2_S2_i@PLT
 9917      00
 9918 4c90 4C89E2   		movq	%r12, %rdx
 9919 4c93 4889DE   		movq	%rbx, %rsi
 9920 4c96 4889EF   		movq	%rbp, %rdi
 9921 4c99 E8000000 		call	_ZN8UnitTest11TestResults13OnTestFailureERKNS_11TestDetailsEPKc@PLT
 9921      00
 9922              	.LEHE380:
 9923 4c9e E99FFEFF 		jmp	.L1018
 9923      FF
 9924              	.L993:
 9925 4ca3 4889C3   		movq	%rax, %rbx
 9926 4ca6 E8000000 		call	__cxa_end_catch@PLT
 9926      00
 9927 4cab 4889DF   		movq	%rbx, %rdi
 9928              	.LEHB381:
 9929 4cae E8000000 		call	_Unwind_Resume@PLT
 9929      00
 9930              	.LEHE381:
 9931              		.cfi_endproc
 9932              	.LFE1245:
 9933              		.section	.gcc_except_table
 9934              		.align 4
 9935              	.LLSDA1245:
 9936 0a08 FF       		.byte	0xff
 9937 0a09 9B       		.byte	0x9b
 9938 0a0a 6D       		.uleb128 .LLSDATT1245-.LLSDATTD1245
 9939              	.LLSDATTD1245:
 9940 0a0b 01       		.byte	0x1
 9941 0a0c 55       		.uleb128 .LLSDACSE1245-.LLSDACSB1245
 9942              	.LLSDACSB1245:
 9943 0a0d 35       		.uleb128 .LEHB367-.LFB1245
 9944 0a0e 05       		.uleb128 .LEHE367-.LEHB367
 9945 0a0f C204     		.uleb128 .L999-.LFB1245
 9946 0a11 05       		.uleb128 0x5
 9947 0a12 D601     		.uleb128 .LEHB368-.LFB1245
 9948 0a14 05       		.uleb128 .LEHE368-.LEHB368
 9949 0a15 DE03     		.uleb128 .L997-.LFB1245
 9950 0a17 07       		.uleb128 0x7
 9951 0a18 E901     		.uleb128 .LEHB369-.LFB1245
 9952 0a1a 05       		.uleb128 .LEHE369-.LEHB369
 9953 0a1b C503     		.uleb128 .L992-.LFB1245
 9954 0a1d 07       		.uleb128 0x7
 9955 0a1e F701     		.uleb128 .LEHB370-.LFB1245
 9956 0a20 05       		.uleb128 .LEHE370-.LEHB370
 9957 0a21 AC03     		.uleb128 .L998-.LFB1245
 9958 0a23 07       		.uleb128 0x7
 9959 0a24 FF01     		.uleb128 .LEHB371-.LFB1245
 9960 0a26 05       		.uleb128 .LEHE371-.LEHB371
 9961 0a27 AC02     		.uleb128 .L991-.LFB1245
 9962 0a29 05       		.uleb128 0x5
 9963 0a2a CE02     		.uleb128 .LEHB372-.LFB1245
 9964 0a2c 05       		.uleb128 .LEHE372-.LEHB372
 9965 0a2d EF04     		.uleb128 .L994-.LFB1245
 9966 0a2f 00       		.uleb128 0
 9967 0a30 E202     		.uleb128 .LEHB373-.LFB1245
 9968 0a32 38       		.uleb128 .LEHE373-.LEHB373
 9969 0a33 D704     		.uleb128 .L995-.LFB1245
 9970 0a35 00       		.uleb128 0
 9971 0a36 9D03     		.uleb128 .LEHB374-.LFB1245
 9972 0a38 05       		.uleb128 .LEHE374-.LEHB374
 9973 0a39 EF04     		.uleb128 .L994-.LFB1245
 9974 0a3b 00       		.uleb128 0
 9975 0a3c 8B04     		.uleb128 .LEHB375-.LFB1245
 9976 0a3e 2D       		.uleb128 .LEHE375-.LEHB375
 9977 0a3f C704     		.uleb128 .L996-.LFB1245
 9978 0a41 00       		.uleb128 0
 9979 0a42 B804     		.uleb128 .LEHB376-.LFB1245
 9980 0a44 05       		.uleb128 .LEHE376-.LEHB376
 9981 0a45 00       		.uleb128 0
 9982 0a46 00       		.uleb128 0
 9983 0a47 D204     		.uleb128 .LEHB377-.LFB1245
 9984 0a49 05       		.uleb128 .LEHE377-.LEHB377
 9985 0a4a 00       		.uleb128 0
 9986 0a4b 00       		.uleb128 0
 9987 0a4c EA04     		.uleb128 .LEHB378-.LFB1245
 9988 0a4e 05       		.uleb128 .LEHE378-.LEHB378
 9989 0a4f 00       		.uleb128 0
 9990 0a50 00       		.uleb128 0
 9991 0a51 F904     		.uleb128 .LEHB379-.LFB1245
 9992 0a53 2D       		.uleb128 .LEHE379-.LEHB379
 9993 0a54 C704     		.uleb128 .L996-.LFB1245
 9994 0a56 00       		.uleb128 0
 9995 0a57 B005     		.uleb128 .LEHB380-.LFB1245
 9996 0a59 4E       		.uleb128 .LEHE380-.LEHB380
 9997 0a5a 8306     		.uleb128 .L993-.LFB1245
 9998 0a5c 00       		.uleb128 0
 9999 0a5d 8E06     		.uleb128 .LEHB381-.LFB1245
 10000 0a5f 05       		.uleb128 .LEHE381-.LEHB381
 10001 0a60 00       		.uleb128 0
 10002 0a61 00       		.uleb128 0
 10003              	.LLSDACSE1245:
 10004 0a62 03       		.byte	0x3
 10005 0a63 00       		.byte	0
 10006 0a64 02       		.byte	0x2
 10007 0a65 7D       		.byte	0x7d
 10008 0a66 01       		.byte	0x1
 10009 0a67 7D       		.byte	0x7d
 10010 0a68 00       		.byte	0
 10011 0a69 7D       		.byte	0x7d
 10012 0a6a 0000     		.align 4
 10013 0a6c 00000000 		.long	0
 10014              	
 10015 0a70 00000000 		.long	DW.ref._ZTISt9exception-.
 10016 0a74 00000000 		.long	DW.ref._ZTIN8UnitTest15AssertExceptionE-.
 10017              	.LLSDATT1245:
 10018              		.text
 10020 4cb3 0F1F0066 		.p2align 4,,15
 10020      2E0F1F84 
 10020      00000000 
 10020      00
 10022              	_ZN8UnitTest11ExecuteTestIN12_GLOBAL__N_158TestRunnerFixtureTestsThatAssertAreReportedAsFailingHelp
 10023              	.LFB1414:
 10024              		.cfi_startproc
 10025              		.cfi_personality 0x9b,DW.ref.__gxx_personality_v0
 10026              		.cfi_lsda 0x1b,.LLSDA1414
 10027 4cc0 4155     		pushq	%r13
 10028              		.cfi_def_cfa_offset 16
 10029              		.cfi_offset 13, -16
 10030 4cc2 4154     		pushq	%r12
 10031              		.cfi_def_cfa_offset 24
 10032              		.cfi_offset 12, -24
 10033 4cc4 55       		pushq	%rbp
 10034              		.cfi_def_cfa_offset 32
 10035              		.cfi_offset 6, -32
 10036 4cc5 53       		pushq	%rbx
 10037              		.cfi_def_cfa_offset 40
 10038              		.cfi_offset 3, -40
 10039 4cc6 4889F3   		movq	%rsi, %rbx
 10040 4cc9 4881ECD8 		subq	$1752, %rsp
 10040      060000
 10041              		.cfi_def_cfa_offset 1792
 10042 4cd0 48893C24 		movq	%rdi, (%rsp)
 10043 4cd4 48897424 		movq	%rsi, 8(%rsp)
 10043      08
 10044 4cd9 64488B04 		movq	%fs:40, %rax
 10044      25280000 
 10044      00
 10045 4ce2 48898424 		movq	%rax, 1736(%rsp)
 10045      C8060000 
 10046 4cea 31C0     		xorl	%eax, %eax
 10047              	.LEHB382:
 10048 4cec E8000000 		call	_ZN8UnitTest11CurrentTest7DetailsEv@PLT
 10048      00
 10049              	.LEHE382:
 10050 4cf1 488DBC24 		leaq	608(%rsp), %rdi
 10050      60020000 
 10051 4cf9 488918   		movq	%rbx, (%rax)
 10052              	.LEHB383:
 10053 4cfc E8000000 		call	_ZN8UnitTest16SignalTranslatorC1Ev@PLT
 10053      00
 10054              	.LEHE383:
 10055 4d01 488B3D00 		movq	_ZN8UnitTest16SignalTranslator12s_jumpTargetE(%rip), %rdi
 10055      000000
 10056 4d08 BE010000 		movl	$1, %esi
 10056      00
 10057 4d0d E8000000 		call	__sigsetjmp@PLT
 10057      00
 10058 4d12 85C0     		testl	%eax, %eax
 10059 4d14 742A     		je	.L1023
 10060 4d16 BF080000 		movl	$8, %edi
 10060      00
 10061 4d1b E8000000 		call	__cxa_allocate_exception@PLT
 10061      00
 10062 4d20 488D0D00 		leaq	.LC3(%rip), %rcx
 10062      000000
 10063 4d27 488D3500 		leaq	_ZTIPKc(%rip), %rsi
 10063      000000
 10064 4d2e 31D2     		xorl	%edx, %edx
 10065 4d30 4889C7   		movq	%rax, %rdi
 10066 4d33 488908   		movq	%rcx, (%rax)
 10067              	.LEHB384:
 10068 4d36 E8000000 		call	__cxa_throw@PLT
 10068      00
 10069 4d3b 0F1F4400 		.p2align 4,,10
 10069      00
 10070              		.p2align 3
 10071              	.L1023:
 10072 4d40 488DBC24 		leaq	128(%rsp), %rdi
 10072      80000000 
 10073 4d48 488D0D00 		leaq	.LC24(%rip), %rcx
 10073      000000
 10074 4d4f 488D1500 		leaq	.LC38(%rip), %rdx
 10074      000000
 10075 4d56 488D3500 		leaq	.LC39(%rip), %rsi
 10075      000000
 10076 4d5d 4531C0   		xorl	%r8d, %r8d
 10077 4d60 E8000000 		call	_ZN8UnitTest4TestC2EPKcS2_S2_i@PLT
 10077      00
 10078              	.LEHE384:
 10079 4d65 488B2C24 		movq	(%rsp), %rbp
 10080 4d69 488D0500 		leaq	16+_ZTVN12_GLOBAL__N_18MockTestE(%rip), %rax
 10080      000000
 10081 4d70 488DB424 		leaq	128(%rsp), %rsi
 10081      80000000 
 10082 4d78 C68424B1 		movb	$1, 177(%rsp)
 10082      00000001 
 10083 4d80 C68424B2 		movb	$1, 178(%rsp)
 10083      00000001 
 10084 4d88 48898424 		movq	%rax, 128(%rsp)
 10084      80000000 
 10085 4d90 C78424B4 		movl	$1, 180(%rsp)
 10085      00000001 
 10085      000000
 10086 4d9b 488D9D48 		leaq	2120(%rbp), %rbx
 10086      080000
 10087 4da2 4889DF   		movq	%rbx, %rdi
 10088              	.LEHB385:
 10089 4da5 E8000000 		call	_ZN8UnitTest8TestList3AddEPNS_4TestE@PLT
 10089      00
 10090 4daa E8000000 		call	_ZN8UnitTest11CurrentTest7ResultsEv@PLT
 10090      00
 10091 4daf 4C8B28   		movq	(%rax), %r13
 10092 4db2 E8000000 		call	_ZN8UnitTest11CurrentTest7DetailsEv@PLT
 10092      00
 10093 4db7 4889DF   		movq	%rbx, %rdi
 10094 4dba 4C8B20   		movq	(%rax), %r12
 10095 4dbd E8000000 		call	_ZNK8UnitTest8TestList7GetHeadEv@PLT
 10095      00
 10096 4dc2 4885C0   		testq	%rax, %rax
 10097 4dc5 4889C3   		movq	%rax, %rbx
 10098 4dc8 0F85D400 		jne	.L1026
 10098      0000
 10099 4dce 6690     		.p2align 4,,10
 10100              		.p2align 3
 10101              	.L1024:
 10102 4dd0 488B1C24 		movq	(%rsp), %rbx
 10103 4dd4 4889DF   		movq	%rbx, %rdi
 10104 4dd7 E8000000 		call	_ZNK8UnitTest10TestRunner6FinishEv@PLT
 10104      00
 10105 4ddc E8000000 		call	_ZN8UnitTest11CurrentTest7ResultsEv@PLT
 10105      00
 10106 4de1 4C8928   		movq	%r13, (%rax)
 10107 4de4 E8000000 		call	_ZN8UnitTest11CurrentTest7DetailsEv@PLT
 10107      00
 10108              	.LEHE385:
 10109 4de9 4C8920   		movq	%r12, (%rax)
 10110              	.LEHB386:
 10111 4dec E8000000 		call	_ZN8UnitTest11CurrentTest7DetailsEv@PLT
 10111      00
 10112 4df1 488B30   		movq	(%rax), %rsi
 10113 4df4 488D7C24 		leaq	96(%rsp), %rdi
 10113      60
 10114 4df9 BA7F0000 		movl	$127, %edx
 10114      00
 10115 4dfe E8000000 		call	_ZN8UnitTest11TestDetailsC1ERKS0_i@PLT
 10115      00
 10116 4e03 4881C324 		addq	$548, %rbx
 10116      020000
 10117 4e0a C744241C 		movl	$1, 28(%rsp)
 10117      01000000 
 10118 4e12 E8000000 		call	_ZN8UnitTest11CurrentTest7ResultsEv@PLT
 10118      00
 10119 4e17 488B38   		movq	(%rax), %rdi
 10120 4e1a 488D4C24 		leaq	96(%rsp), %rcx
 10120      60
 10121 4e1f 488D7424 		leaq	28(%rsp), %rsi
 10121      1C
 10122 4e24 4889DA   		movq	%rbx, %rdx
 10123 4e27 E8000000 		call	_ZN8UnitTest10CheckEqualIiiEEvRNS_11TestResultsERKT_RKT0_RKNS_11TestDetailsE
 10123      00
 10124              	.LEHE386:
 10125              	.L1030:
 10126 4e2c 488D0500 		leaq	16+_ZTVN12_GLOBAL__N_18MockTestE(%rip), %rax
 10126      000000
 10127 4e33 488DBC24 		leaq	128(%rsp), %rdi
 10127      80000000 
 10128 4e3b 48898424 		movq	%rax, 128(%rsp)
 10128      80000000 
 10129              	.LEHB387:
 10130 4e43 E8000000 		call	_ZN8UnitTest4TestD2Ev@PLT
 10130      00
 10131              	.LEHE387:
 10132 4e48 488DBC24 		leaq	608(%rsp), %rdi
 10132      60020000 
 10133              	.LEHB388:
 10134 4e50 E8000000 		call	_ZN8UnitTest16SignalTranslatorD1Ev@PLT
 10134      00
 10135              	.LEHE388:
 10136              	.L1021:
 10137 4e55 488B8424 		movq	1736(%rsp), %rax
 10137      C8060000 
 10138 4e5d 64483304 		xorq	%fs:40, %rax
 10138      25280000 
 10138      00
 10139 4e66 0F85F900 		jne	.L1058
 10139      0000
 10140 4e6c 4881C4D8 		addq	$1752, %rsp
 10140      060000
 10141              		.cfi_remember_state
 10142              		.cfi_def_cfa_offset 40
 10143 4e73 5B       		popq	%rbx
 10144              		.cfi_def_cfa_offset 32
 10145 4e74 5D       		popq	%rbp
 10146              		.cfi_def_cfa_offset 24
 10147 4e75 415C     		popq	%r12
 10148              		.cfi_def_cfa_offset 16
 10149 4e77 415D     		popq	%r13
 10150              		.cfi_def_cfa_offset 8
 10151 4e79 C3       		ret
 10152 4e7a 660F1F44 		.p2align 4,,10
 10152      0000
 10153              		.p2align 3
 10154              	.L1025:
 10155              		.cfi_restore_state
 10156 4e80 488B0424 		movq	(%rsp), %rax
 10157 4e84 31C9     		xorl	%ecx, %ecx
 10158 4e86 4889DA   		movq	%rbx, %rdx
 10159 4e89 4889EF   		movq	%rbp, %rdi
 10160 4e8c 488B7008 		movq	8(%rax), %rsi
 10161              	.LEHB389:
 10162 4e90 E8000000 		call	_ZNK8UnitTest10TestRunner7RunTestEPNS_11TestResultsEPNS_4TestEi@PLT
 10162      00
 10163              	.L1027:
 10164 4e95 488B5B28 		movq	40(%rbx), %rbx
 10165 4e99 4885DB   		testq	%rbx, %rbx
 10166 4e9c 0F842EFF 		je	.L1024
 10166      FFFF
 10167              	.L1026:
 10168 4ea2 31D2     		xorl	%edx, %edx
 10169 4ea4 4889DE   		movq	%rbx, %rsi
 10170 4ea7 4889EF   		movq	%rbp, %rdi
 10171 4eaa E8000000 		call	_ZNK8UnitTest10TestRunner13IsTestInSuiteEPKNS_4TestEPKc@PLT
 10171      00
 10172              	.LEHE389:
 10173 4eaf 84C0     		testb	%al, %al
 10174 4eb1 74E2     		je	.L1027
 10175 4eb3 EBCB     		jmp	.L1025
 10176              	.L1046:
 10177 4eb5 4889C3   		movq	%rax, %rbx
 10178 4eb8 4889D5   		movq	%rdx, %rbp
 10179              	.L1033:
 10180 4ebb 488DBC24 		leaq	608(%rsp), %rdi
 10180      60020000 
 10181 4ec3 E8000000 		call	_ZN8UnitTest16SignalTranslatorD1Ev@PLT
 10181      00
 10182 4ec8 4889DF   		movq	%rbx, %rdi
 10183 4ecb 4889EA   		movq	%rbp, %rdx
 10184              	.L1034:
 10185 4ece 4883FA01 		cmpq	$1, %rdx
 10186 4ed2 0F845D01 		je	.L1036
 10186      0000
 10187 4ed8 4883FA02 		cmpq	$2, %rdx
 10188 4edc 0F852B01 		jne	.L1059
 10188      0000
 10189 4ee2 E8000000 		call	__cxa_begin_catch@PLT
 10189      00
 10190 4ee7 488DBC24 		leaq	192(%rsp), %rdi
 10190      C0000000 
 10191 4eef 4889C3   		movq	%rax, %rbx
 10192              	.LEHB390:
 10193 4ef2 E8000000 		call	_ZN8UnitTest15MemoryOutStreamC1Ev
 10193      00
 10194              	.LEHE390:
 10195 4ef7 488DBC24 		leaq	192(%rsp), %rdi
 10195      C0000000 
 10196 4eff 488D3500 		leaq	.LC11(%rip), %rsi
 10196      000000
 10197 4f06 BA150000 		movl	$21, %edx
 10197      00
 10198              	.LEHB391:
 10199 4f0b E8000000 		call	_ZSt16__ostream_insertIcSt11char_traitsIcEERSt13basic_ostreamIT_T0_ES6_PKS3_l@PLT
 10199      00
 10200 4f10 488B03   		movq	(%rbx), %rax
 10201 4f13 4889DF   		movq	%rbx, %rdi
 10202 4f16 FF5010   		call	*16(%rax)
 10203 4f19 488DBC24 		leaq	192(%rsp), %rdi
 10203      C0000000 
 10204 4f21 4889C6   		movq	%rax, %rsi
 10205 4f24 E8000000 		call	_ZStlsISt11char_traitsIcEERSt13basic_ostreamIcT_ES5_PKc@PLT
 10205      00
 10206 4f29 E8000000 		call	_ZN8UnitTest11CurrentTest7ResultsEv@PLT
 10206      00
 10207 4f2e 488DBC24 		leaq	192(%rsp), %rdi
 10207      C0000000 
 10208 4f36 488B18   		movq	(%rax), %rbx
 10209 4f39 E8000000 		call	_ZNK8UnitTest15MemoryOutStream7GetTextEv@PLT
 10209      00
 10210 4f3e 488B7424 		movq	8(%rsp), %rsi
 10210      08
 10211 4f43 4889C2   		movq	%rax, %rdx
 10212 4f46 4889DF   		movq	%rbx, %rdi
 10213 4f49 E8000000 		call	_ZN8UnitTest11TestResults13OnTestFailureERKNS_11TestDetailsEPKc@PLT
 10213      00
 10214              	.LEHE391:
 10215 4f4e 488DBC24 		leaq	192(%rsp), %rdi
 10215      C0000000 
 10216              	.LEHB392:
 10217 4f56 E8000000 		call	_ZN8UnitTest15MemoryOutStreamD1Ev
 10217      00
 10218              	.LEHE392:
 10219              	.L1056:
 10220 4f5b E8000000 		call	__cxa_end_catch@PLT
 10220      00
 10221 4f60 E9F0FEFF 		jmp	.L1021
 10221      FF
 10222              	.L1058:
 10223 4f65 E8000000 		call	__stack_chk_fail@PLT
 10223      00
 10224              	.L1045:
 10225 4f6a 4889C7   		movq	%rax, %rdi
 10226 4f6d E95CFFFF 		jmp	.L1034
 10226      FF
 10227              	.L1053:
 10228 4f72 4889C7   		movq	%rax, %rdi
 10229 4f75 E8000000 		call	__cxa_begin_catch@PLT
 10229      00
 10230              	.LEHB393:
 10231 4f7a E8000000 		call	_ZN8UnitTest11CurrentTest7ResultsEv@PLT
 10231      00
 10232 4f7f 488B18   		movq	(%rax), %rbx
 10233 4f82 E8000000 		call	_ZN8UnitTest11CurrentTest7DetailsEv@PLT
 10233      00
 10234 4f87 488B30   		movq	(%rax), %rsi
 10235 4f8a 488D7C24 		leaq	64(%rsp), %rdi
 10235      40
 10236 4f8f BA7F0000 		movl	$127, %edx
 10236      00
 10237 4f94 E8000000 		call	_ZN8UnitTest11TestDetailsC1ERKS0_i@PLT
 10237      00
 10238 4f99 488D7424 		leaq	64(%rsp), %rsi
 10238      40
 10239 4f9e 488D1500 		leaq	.LC37(%rip), %rdx
 10239      000000
 10240 4fa5 4889DF   		movq	%rbx, %rdi
 10241 4fa8 E8000000 		call	_ZN8UnitTest11TestResults13OnTestFailureERKNS_11TestDetailsEPKc@PLT
 10241      00
 10242              	.LEHE393:
 10243              	.LEHB394:
 10244 4fad E8000000 		call	__cxa_end_catch@PLT
 10244      00
 10245              	.LEHE394:
 10246 4fb2 E975FEFF 		jmp	.L1030
 10246      FF
 10247              	.L1051:
 10248 4fb7 4889C3   		movq	%rax, %rbx
 10249 4fba 4889D5   		movq	%rdx, %rbp
 10250              	.L1032:
 10251 4fbd 488D0500 		leaq	16+_ZTVN12_GLOBAL__N_18MockTestE(%rip), %rax
 10251      000000
 10252 4fc4 488DBC24 		leaq	128(%rsp), %rdi
 10252      80000000 
 10253 4fcc 48898424 		movq	%rax, 128(%rsp)
 10253      80000000 
 10254 4fd4 E8000000 		call	_ZN8UnitTest4TestD2Ev@PLT
 10254      00
 10255 4fd9 E9DDFEFF 		jmp	.L1033
 10255      FF
 10256              	.L1052:
 10257 4fde 4889C3   		movq	%rax, %rbx
 10258 4fe1 4889D5   		movq	%rdx, %rbp
 10259 4fe4 E8000000 		call	__cxa_end_catch@PLT
 10259      00
 10260 4fe9 EBD2     		jmp	.L1032
 10261              	.L1049:
 10262 4feb 488DBC24 		leaq	192(%rsp), %rdi
 10262      C0000000 
 10263 4ff3 4889C3   		movq	%rax, %rbx
 10264 4ff6 E8000000 		call	_ZN8UnitTest15MemoryOutStreamD1Ev
 10264      00
 10265              	.L1042:
 10266 4ffb E8000000 		call	__cxa_end_catch@PLT
 10266      00
 10267 5000 4889DF   		movq	%rbx, %rdi
 10268              	.LEHB395:
 10269 5003 E8000000 		call	_Unwind_Resume@PLT
 10269      00
 10270              	.LEHE395:
 10271              	.L1048:
 10272              	.L1057:
 10273 5008 4889C3   		movq	%rax, %rbx
 10274 500b EBEE     		jmp	.L1042
 10275              	.L1059:
 10276 500d E8000000 		call	__cxa_begin_catch@PLT
 10276      00
 10277              	.LEHB396:
 10278 5012 E8000000 		call	_ZN8UnitTest11CurrentTest7ResultsEv@PLT
 10278      00
 10279 5017 488B7424 		movq	8(%rsp), %rsi
 10279      08
 10280 501c 488B38   		movq	(%rax), %rdi
 10281 501f 488D1500 		leaq	.LC12(%rip), %rdx
 10281      000000
 10282 5026 E8000000 		call	_ZN8UnitTest11TestResults13OnTestFailureERKNS_11TestDetailsEPKc@PLT
 10282      00
 10283              	.LEHE396:
 10284              	.LEHB397:
 10285 502b E8000000 		call	__cxa_end_catch@PLT
 10285      00
 10286              	.LEHE397:
 10287 5030 E920FEFF 		jmp	.L1021
 10287      FF
 10288              	.L1036:
 10289 5035 E8000000 		call	__cxa_begin_catch@PLT
 10289      00
 10290 503a 4889C3   		movq	%rax, %rbx
 10291              	.LEHB398:
 10292 503d E8000000 		call	_ZN8UnitTest11CurrentTest7ResultsEv@PLT
 10292      00
 10293 5042 488B28   		movq	(%rax), %rbp
 10294 5045 488B03   		movq	(%rbx), %rax
 10295 5048 4889DF   		movq	%rbx, %rdi
 10296 504b FF5010   		call	*16(%rax)
 10297 504e 4889DF   		movq	%rbx, %rdi
 10298 5051 4989C4   		movq	%rax, %r12
 10299 5054 E8000000 		call	_ZNK8UnitTest15AssertException10LineNumberEv@PLT
 10299      00
 10300 5059 4889DF   		movq	%rbx, %rdi
 10301 505c 4189C5   		movl	%eax, %r13d
 10302 505f E8000000 		call	_ZNK8UnitTest15AssertException8FilenameEv@PLT
 10302      00
 10303 5064 488B5424 		movq	8(%rsp), %rdx
 10303      08
 10304 5069 488D7C24 		leaq	32(%rsp), %rdi
 10304      20
 10305 506e 4589E8   		movl	%r13d, %r8d
 10306 5071 4889C1   		movq	%rax, %rcx
 10307 5074 488B7208 		movq	8(%rdx), %rsi
 10308 5078 488B12   		movq	(%rdx), %rdx
 10309 507b E8000000 		call	_ZN8UnitTest11TestDetailsC1EPKcS2_S2_i@PLT
 10309      00
 10310 5080 488D7424 		leaq	32(%rsp), %rsi
 10310      20
 10311 5085 4C89E2   		movq	%r12, %rdx
 10312 5088 4889EF   		movq	%rbp, %rdi
 10313 508b E8000000 		call	_ZN8UnitTest11TestResults13OnTestFailureERKNS_11TestDetailsEPKc@PLT
 10313      00
 10314              	.LEHE398:
 10315 5090 E9C6FEFF 		jmp	.L1056
 10315      FF
 10316              	.L1050:
 10317 5095 4889C3   		movq	%rax, %rbx
 10318 5098 E8000000 		call	__cxa_end_catch@PLT
 10318      00
 10319 509d 4889DF   		movq	%rbx, %rdi
 10320              	.LEHB399:
 10321 50a0 E8000000 		call	_Unwind_Resume@PLT
 10321      00
 10322              	.LEHE399:
 10323              	.L1047:
 10324 50a5 E95EFFFF 		jmp	.L1057
 10324      FF
 10325              		.cfi_endproc
 10326              	.LFE1414:
 10327              		.section	.gcc_except_table
 10328              		.align 4
 10329              	.LLSDA1414:
 10330 0a78 FF       		.byte	0xff
 10331 0a79 9B       		.byte	0x9b
 10332 0a7a 7D       		.uleb128 .LLSDATT1414-.LLSDATTD1414
 10333              	.LLSDATTD1414:
 10334 0a7b 01       		.byte	0x1
 10335 0a7c 65       		.uleb128 .LLSDACSE1414-.LLSDACSB1414
 10336              	.LLSDACSB1414:
 10337 0a7d 2C       		.uleb128 .LEHB382-.LFB1414
 10338 0a7e 05       		.uleb128 .LEHE382-.LEHB382
 10339 0a7f 00       		.uleb128 0
 10340 0a80 00       		.uleb128 0
 10341 0a81 3C       		.uleb128 .LEHB383-.LFB1414
 10342 0a82 05       		.uleb128 .LEHE383-.LEHB383
 10343 0a83 AA05     		.uleb128 .L1045-.LFB1414
 10344 0a85 05       		.uleb128 0x5
 10345 0a86 76       		.uleb128 .LEHB384-.LFB1414
 10346 0a87 2F       		.uleb128 .LEHE384-.LEHB384
 10347 0a88 F503     		.uleb128 .L1046-.LFB1414
 10348 0a8a 07       		.uleb128 0x7
 10349 0a8b E501     		.uleb128 .LEHB385-.LFB1414
 10350 0a8d 44       		.uleb128 .LEHE385-.LEHB385
 10351 0a8e F705     		.uleb128 .L1051-.LFB1414
 10352 0a90 07       		.uleb128 0x7
 10353 0a91 AC02     		.uleb128 .LEHB386-.LFB1414
 10354 0a93 40       		.uleb128 .LEHE386-.LEHB386
 10355 0a94 B205     		.uleb128 .L1053-.LFB1414
 10356 0a96 01       		.uleb128 0x1
 10357 0a97 8303     		.uleb128 .LEHB387-.LFB1414
 10358 0a99 05       		.uleb128 .LEHE387-.LEHB387
 10359 0a9a F503     		.uleb128 .L1046-.LFB1414
 10360 0a9c 07       		.uleb128 0x7
 10361 0a9d 9003     		.uleb128 .LEHB388-.LFB1414
 10362 0a9f 05       		.uleb128 .LEHE388-.LEHB388
 10363 0aa0 AA05     		.uleb128 .L1045-.LFB1414
 10364 0aa2 05       		.uleb128 0x5
 10365 0aa3 D003     		.uleb128 .LEHB389-.LFB1414
 10366 0aa5 1F       		.uleb128 .LEHE389-.LEHB389
 10367 0aa6 F705     		.uleb128 .L1051-.LFB1414
 10368 0aa8 07       		.uleb128 0x7
 10369 0aa9 B204     		.uleb128 .LEHB390-.LFB1414
 10370 0aab 05       		.uleb128 .LEHE390-.LEHB390
 10371 0aac C806     		.uleb128 .L1048-.LFB1414
 10372 0aae 00       		.uleb128 0
 10373 0aaf CB04     		.uleb128 .LEHB391-.LFB1414
 10374 0ab1 43       		.uleb128 .LEHE391-.LEHB391
 10375 0ab2 AB06     		.uleb128 .L1049-.LFB1414
 10376 0ab4 00       		.uleb128 0
 10377 0ab5 9605     		.uleb128 .LEHB392-.LFB1414
 10378 0ab7 05       		.uleb128 .LEHE392-.LEHB392
 10379 0ab8 C806     		.uleb128 .L1048-.LFB1414
 10380 0aba 00       		.uleb128 0
 10381 0abb BA05     		.uleb128 .LEHB393-.LFB1414
 10382 0abd 33       		.uleb128 .LEHE393-.LEHB393
 10383 0abe 9E06     		.uleb128 .L1052-.LFB1414
 10384 0ac0 07       		.uleb128 0x7
 10385 0ac1 ED05     		.uleb128 .LEHB394-.LFB1414
 10386 0ac3 05       		.uleb128 .LEHE394-.LEHB394
 10387 0ac4 F705     		.uleb128 .L1051-.LFB1414
 10388 0ac6 07       		.uleb128 0x7
 10389 0ac7 C306     		.uleb128 .LEHB395-.LFB1414
 10390 0ac9 05       		.uleb128 .LEHE395-.LEHB395
 10391 0aca 00       		.uleb128 0
 10392 0acb 00       		.uleb128 0
 10393 0acc D206     		.uleb128 .LEHB396-.LFB1414
 10394 0ace 19       		.uleb128 .LEHE396-.LEHB396
 10395 0acf D507     		.uleb128 .L1050-.LFB1414
 10396 0ad1 00       		.uleb128 0
 10397 0ad2 EB06     		.uleb128 .LEHB397-.LFB1414
 10398 0ad4 05       		.uleb128 .LEHE397-.LEHB397
 10399 0ad5 00       		.uleb128 0
 10400 0ad6 00       		.uleb128 0
 10401 0ad7 FD06     		.uleb128 .LEHB398-.LFB1414
 10402 0ad9 53       		.uleb128 .LEHE398-.LEHB398
 10403 0ada E507     		.uleb128 .L1047-.LFB1414
 10404 0adc 00       		.uleb128 0
 10405 0add E007     		.uleb128 .LEHB399-.LFB1414
 10406 0adf 05       		.uleb128 .LEHE399-.LEHB399
 10407 0ae0 00       		.uleb128 0
 10408 0ae1 00       		.uleb128 0
 10409              	.LLSDACSE1414:
 10410 0ae2 03       		.byte	0x3
 10411 0ae3 00       		.byte	0
 10412 0ae4 02       		.byte	0x2
 10413 0ae5 7D       		.byte	0x7d
 10414 0ae6 01       		.byte	0x1
 10415 0ae7 7D       		.byte	0x7d
 10416 0ae8 00       		.byte	0
 10417 0ae9 7D       		.byte	0x7d
 10418 0aea 0000     		.align 4
 10419 0aec 00000000 		.long	0
 10420              	
 10421 0af0 00000000 		.long	DW.ref._ZTISt9exception-.
 10422 0af4 00000000 		.long	DW.ref._ZTIN8UnitTest15AssertExceptionE-.
 10423              	.LLSDATT1414:
 10424              		.text
 10426              		.align 2
 10427 50aa 660F1F44 		.p2align 4,,15
 10427      0000
 10429              	_ZNK12_GLOBAL__N_156TestTestRunnerFixtureTestsThatAssertAreReportedAsFailing7RunImplEv:
 10430              	.LFB1234:
 10431              		.cfi_startproc
 10432              		.cfi_personality 0x9b,DW.ref.__gxx_personality_v0
 10433              		.cfi_lsda 0x1b,.LLSDA1234
 10434 50b0 4156     		pushq	%r14
 10435              		.cfi_def_cfa_offset 16
 10436              		.cfi_offset 14, -16
 10437 50b2 4155     		pushq	%r13
 10438              		.cfi_def_cfa_offset 24
 10439              		.cfi_offset 13, -24
 10440 50b4 4989FD   		movq	%rdi, %r13
 10441 50b7 4154     		pushq	%r12
 10442              		.cfi_def_cfa_offset 32
 10443              		.cfi_offset 12, -32
 10444 50b9 55       		pushq	%rbp
 10445              		.cfi_def_cfa_offset 40
 10446              		.cfi_offset 6, -40
 10447 50ba 488D6F08 		leaq	8(%rdi), %rbp
 10448 50be 53       		pushq	%rbx
 10449              		.cfi_def_cfa_offset 48
 10450              		.cfi_offset 3, -48
 10451 50bf 4881EC90 		subq	$2192, %rsp
 10451      080000
 10452              		.cfi_def_cfa_offset 2240
 10453 50c6 488D5C24 		leaq	32(%rsp), %rbx
 10453      20
 10454 50cb 64488B04 		movq	%fs:40, %rax
 10454      25280000 
 10454      00
 10455 50d4 48898424 		movq	%rax, 2184(%rsp)
 10455      88080000 
 10456 50dc 31C0     		xorl	%eax, %eax
 10457 50de 488D7318 		leaq	24(%rbx), %rsi
 10458 50e2 4889DF   		movq	%rbx, %rdi
 10459              	.LEHB400:
 10460 50e5 E8000000 		call	_ZN8UnitTest10TestRunnerC1ERNS_12TestReporterE@PLT
 10460      00
 10461              	.LEHE400:
 10462 50ea 4C8D2500 		leaq	16+_ZTV17RecordingReporter(%rip), %r12
 10462      000000
 10463 50f1 488DBB48 		leaq	2120(%rbx), %rdi
 10463      080000
 10464 50f8 C7442440 		movl	$0, 64(%rsp)
 10464      00000000 
 10465 5100 C7842444 		movl	$0, 580(%rsp)
 10465      02000000 
 10465      000000
 10466 510b C7842448 		movl	$0, 840(%rsp)
 10466      03000000 
 10466      000000
 10467 5116 4C896424 		movq	%r12, 56(%rsp)
 10467      38
 10468 511b C784244C 		movl	$0, 1612(%rsp)
 10468      06000000 
 10468      000000
 10469 5126 48C78424 		movq	$0, 2128(%rsp)
 10469      50080000 
 10469      00000000 
 10470 5132 48C78424 		movq	$0, 2136(%rsp)
 10470      58080000 
 10470      00000000 
 10471 513e C7842460 		movl	$0, 2144(%rsp)
 10471      08000000 
 10471      000000
 10472 5149 C6442444 		movb	$0, 68(%rsp)
 10472      00
 10473 514e C6842444 		movb	$0, 324(%rsp)
 10473      01000000 
 10474 5156 C6842448 		movb	$0, 584(%rsp)
 10474      02000000 
 10475 515e C684244C 		movb	$0, 844(%rsp)
 10475      03000000 
 10476 5166 C684244C 		movb	$0, 1100(%rsp)
 10476      04000000 
 10477 516e C684244C 		movb	$0, 1356(%rsp)
 10477      05000000 
 10478 5176 C6842450 		movb	$0, 1616(%rsp)
 10478      06000000 
 10479 517e C6842450 		movb	$0, 1872(%rsp)
 10479      07000000 
 10480              	.LEHB401:
 10481 5186 E8000000 		call	_ZN8UnitTest8TestListC1Ev@PLT
 10481      00
 10482              	.LEHE401:
 10483 518b 4889EE   		movq	%rbp, %rsi
 10484 518e 4889DF   		movq	%rbx, %rdi
 10485 5191 4889AC24 		movq	%rbp, 2168(%rsp)
 10485      78080000 
 10486              	.LEHB402:
 10487 5199 E822FBFF 		call	_ZN8UnitTest11ExecuteTestIN12_GLOBAL__N_158TestRunnerFixtureTestsThatAssertAreReportedAsFaili
 10487      FF
 10488              	.LEHE402:
 10489 519e 488D7B18 		leaq	24(%rbx), %rdi
 10490 51a2 4C896424 		movq	%r12, 56(%rsp)
 10490      38
 10491              	.LEHB403:
 10492 51a7 E8000000 		call	_ZN8UnitTest12TestReporterD2Ev@PLT
 10492      00
 10493              	.LEHE403:
 10494 51ac 4889DF   		movq	%rbx, %rdi
 10495              	.LEHB404:
 10496 51af E8000000 		call	_ZN8UnitTest10TestRunnerD1Ev@PLT
 10496      00
 10497              	.LEHE404:
 10498              	.L1060:
 10499 51b4 488B8424 		movq	2184(%rsp), %rax
 10499      88080000 
 10500 51bc 64483304 		xorq	%fs:40, %rax
 10500      25280000 
 10500      00
 10501 51c5 7510     		jne	.L1108
 10502 51c7 4881C490 		addq	$2192, %rsp
 10502      080000
 10503              		.cfi_remember_state
 10504              		.cfi_def_cfa_offset 48
 10505 51ce 5B       		popq	%rbx
 10506              		.cfi_def_cfa_offset 40
 10507 51cf 5D       		popq	%rbp
 10508              		.cfi_def_cfa_offset 32
 10509 51d0 415C     		popq	%r12
 10510              		.cfi_def_cfa_offset 24
 10511 51d2 415D     		popq	%r13
 10512              		.cfi_def_cfa_offset 16
 10513 51d4 415E     		popq	%r14
 10514              		.cfi_def_cfa_offset 8
 10515 51d6 C3       		ret
 10516              	.L1108:
 10517              		.cfi_restore_state
 10518 51d7 E8000000 		call	__stack_chk_fail@PLT
 10518      00
 10519              	.L1080:
 10520 51dc 4889C7   		movq	%rax, %rdi
 10521              	.L1066:
 10522 51df 4883FA01 		cmpq	$1, %rdx
 10523 51e3 0F846F01 		je	.L1068
 10523      0000
 10524 51e9 4883FA02 		cmpq	$2, %rdx
 10525 51ed 0F853101 		jne	.L1109
 10525      0000
 10526              	.L1069:
 10527 51f3 E8000000 		call	__cxa_begin_catch@PLT
 10527      00
 10528 51f8 4889DF   		movq	%rbx, %rdi
 10529 51fb 4989C4   		movq	%rax, %r12
 10530              	.LEHB405:
 10531 51fe E8000000 		call	_ZN8UnitTest15MemoryOutStreamC1Ev
 10531      00
 10532              	.LEHE405:
 10533 5203 488D3500 		leaq	.LC11(%rip), %rsi
 10533      000000
 10534 520a BA150000 		movl	$21, %edx
 10534      00
 10535 520f 4889DF   		movq	%rbx, %rdi
 10536              	.LEHB406:
 10537 5212 E8000000 		call	_ZSt16__ostream_insertIcSt11char_traitsIcEERSt13basic_ostreamIT_T0_ES6_PKS3_l@PLT
 10537      00
 10538 5217 498B0424 		movq	(%r12), %rax
 10539 521b 4C89E7   		movq	%r12, %rdi
 10540 521e FF5010   		call	*16(%rax)
 10541 5221 4889DF   		movq	%rbx, %rdi
 10542 5224 4889C6   		movq	%rax, %rsi
 10543 5227 E8000000 		call	_ZStlsISt11char_traitsIcEERSt13basic_ostreamIcT_ES5_PKc@PLT
 10543      00
 10544 522c E8000000 		call	_ZN8UnitTest11CurrentTest7ResultsEv@PLT
 10544      00
 10545 5231 4889DF   		movq	%rbx, %rdi
 10546 5234 4C8B20   		movq	(%rax), %r12
 10547 5237 E8000000 		call	_ZNK8UnitTest15MemoryOutStream7GetTextEv@PLT
 10547      00
 10548 523c 4889C2   		movq	%rax, %rdx
 10549 523f 4889EE   		movq	%rbp, %rsi
 10550 5242 4C89E7   		movq	%r12, %rdi
 10551 5245 E8000000 		call	_ZN8UnitTest11TestResults13OnTestFailureERKNS_11TestDetailsEPKc@PLT
 10551      00
 10552              	.LEHE406:
 10553 524a 4889DF   		movq	%rbx, %rdi
 10554              	.LEHB407:
 10555 524d E8000000 		call	_ZN8UnitTest15MemoryOutStreamD1Ev
 10555      00
 10556              	.LEHE407:
 10557              	.L1107:
 10558 5252 E8000000 		call	__cxa_end_catch@PLT
 10558      00
 10559 5257 E958FFFF 		jmp	.L1060
 10559      FF
 10560              	.L1087:
 10561 525c 4989C4   		movq	%rax, %r12
 10562 525f 4989D6   		movq	%rdx, %r14
 10563 5262 4889DF   		movq	%rbx, %rdi
 10564 5265 E8000000 		call	_ZN8UnitTest10TestRunnerD1Ev@PLT
 10564      00
 10565 526a 4C89E7   		movq	%r12, %rdi
 10566 526d 4C89F2   		movq	%r14, %rdx
 10567 5270 E96AFFFF 		jmp	.L1066
 10567      FF
 10568              	.L1081:
 10569 5275 4989C4   		movq	%rax, %r12
 10570 5278 4989D6   		movq	%rdx, %r14
 10571 527b 4889DF   		movq	%rbx, %rdi
 10572 527e E8000000 		call	_ZN12_GLOBAL__N_111FixtureBaseD2Ev
 10572      00
 10573 5283 4C89E7   		movq	%r12, %rdi
 10574 5286 4C89F2   		movq	%r14, %rdx
 10575 5289 E951FFFF 		jmp	.L1066
 10575      FF
 10576              	.L1086:
 10577 528e 4989C4   		movq	%rax, %r12
 10578 5291 4989D6   		movq	%rdx, %r14
 10579 5294 4889DF   		movq	%rbx, %rdi
 10580 5297 E8000000 		call	_ZN12_GLOBAL__N_111FixtureBaseD2Ev
 10580      00
 10581 529c 4C89E7   		movq	%r12, %rdi
 10582 529f 4C89F2   		movq	%r14, %rdx
 10583              	.L1063:
 10584 52a2 4883FA01 		cmpq	$1, %rdx
 10585 52a6 0F84AC00 		je	.L1068
 10585      0000
 10586 52ac 4883FA02 		cmpq	$2, %rdx
 10587 52b0 0F843DFF 		je	.L1069
 10587      FFFF
 10588 52b6 E8000000 		call	__cxa_begin_catch@PLT
 10588      00
 10589              	.LEHB408:
 10590 52bb E8000000 		call	_ZN8UnitTest11CurrentTest7ResultsEv@PLT
 10590      00
 10591 52c0 4889E3   		movq	%rsp, %rbx
 10592 52c3 BA790000 		movl	$121, %edx
 10592      00
 10593 52c8 4889EE   		movq	%rbp, %rsi
 10594 52cb 4889DF   		movq	%rbx, %rdi
 10595 52ce 4C8B20   		movq	(%rax), %r12
 10596 52d1 E8000000 		call	_ZN8UnitTest11TestDetailsC1ERKS0_i@PLT
 10596      00
 10597 52d6 488D1500 		leaq	.LC14(%rip), %rdx
 10597      000000
 10598 52dd 4889DE   		movq	%rbx, %rsi
 10599 52e0 4C89E7   		movq	%r12, %rdi
 10600 52e3 E8000000 		call	_ZN8UnitTest11TestResults13OnTestFailureERKNS_11TestDetailsEPKc@PLT
 10600      00
 10601              	.LEHE408:
 10602              	.L1070:
 10603              	.LEHB409:
 10604 52e8 E8000000 		call	__cxa_end_catch@PLT
 10604      00
 10605              	.LEHE409:
 10606 52ed E9C2FEFF 		jmp	.L1060
 10606      FF
 10607              	.L1088:
 10608 52f2 4889C7   		movq	%rax, %rdi
 10609 52f5 EBAB     		jmp	.L1063
 10610              	.L1085:
 10611 52f7 4889C3   		movq	%rax, %rbx
 10612 52fa E8000000 		call	__cxa_end_catch@PLT
 10612      00
 10613 52ff 4889DF   		movq	%rbx, %rdi
 10614              	.LEHB410:
 10615 5302 E8000000 		call	_Unwind_Resume@PLT
 10615      00
 10616              	.LEHE410:
 10617              	.L1084:
 10618 5307 4889DF   		movq	%rbx, %rdi
 10619 530a 4889C5   		movq	%rax, %rbp
 10620 530d E8000000 		call	_ZN8UnitTest15MemoryOutStreamD1Ev
 10620      00
 10621              	.L1073:
 10622 5312 E8000000 		call	__cxa_end_catch@PLT
 10622      00
 10623 5317 4889EF   		movq	%rbp, %rdi
 10624              	.LEHB411:
 10625 531a E8000000 		call	_Unwind_Resume@PLT
 10625      00
 10626              	.LEHE411:
 10627              	.L1083:
 10628 531f 4889C5   		movq	%rax, %rbp
 10629 5322 EBEE     		jmp	.L1073
 10630              	.L1109:
 10631 5324 E8000000 		call	__cxa_begin_catch@PLT
 10631      00
 10632              	.LEHB412:
 10633 5329 E8000000 		call	_ZN8UnitTest11CurrentTest7ResultsEv@PLT
 10633      00
 10634 532e 4889E3   		movq	%rsp, %rbx
 10635 5331 BA790000 		movl	$121, %edx
 10635      00
 10636 5336 4889EE   		movq	%rbp, %rsi
 10637 5339 4889DF   		movq	%rbx, %rdi
 10638 533c 4C8B20   		movq	(%rax), %r12
 10639 533f E8000000 		call	_ZN8UnitTest11TestDetailsC1ERKS0_i@PLT
 10639      00
 10640 5344 488D1500 		leaq	.LC13(%rip), %rdx
 10640      000000
 10641 534b 4889DE   		movq	%rbx, %rsi
 10642 534e 4C89E7   		movq	%r12, %rdi
 10643 5351 E8000000 		call	_ZN8UnitTest11TestResults13OnTestFailureERKNS_11TestDetailsEPKc@PLT
 10643      00
 10644              	.LEHE412:
 10645 5356 EB90     		jmp	.L1070
 10646              	.L1068:
 10647 5358 E8000000 		call	__cxa_begin_catch@PLT
 10647      00
 10648 535d 4889C3   		movq	%rax, %rbx
 10649              	.LEHB413:
 10650 5360 E8000000 		call	_ZN8UnitTest11CurrentTest7ResultsEv@PLT
 10650      00
 10651 5365 488B28   		movq	(%rax), %rbp
 10652 5368 488B03   		movq	(%rbx), %rax
 10653 536b 4889DF   		movq	%rbx, %rdi
 10654 536e FF5010   		call	*16(%rax)
 10655 5371 4889DF   		movq	%rbx, %rdi
 10656 5374 4989C4   		movq	%rax, %r12
 10657 5377 E8000000 		call	_ZNK8UnitTest15AssertException10LineNumberEv@PLT
 10657      00
 10658 537c 4889DF   		movq	%rbx, %rdi
 10659 537f 4189C6   		movl	%eax, %r14d
 10660 5382 E8000000 		call	_ZNK8UnitTest15AssertException8FilenameEv@PLT
 10660      00
 10661 5387 498B5508 		movq	8(%r13), %rdx
 10662 538b 498B7510 		movq	16(%r13), %rsi
 10663 538f 4889E3   		movq	%rsp, %rbx
 10664 5392 4589F0   		movl	%r14d, %r8d
 10665 5395 4889C1   		movq	%rax, %rcx
 10666 5398 4889DF   		movq	%rbx, %rdi
 10667 539b E8000000 		call	_ZN8UnitTest11TestDetailsC1EPKcS2_S2_i@PLT
 10667      00
 10668 53a0 4C89E2   		movq	%r12, %rdx
 10669 53a3 4889DE   		movq	%rbx, %rsi
 10670 53a6 4889EF   		movq	%rbp, %rdi
 10671 53a9 E8000000 		call	_ZN8UnitTest11TestResults13OnTestFailureERKNS_11TestDetailsEPKc@PLT
 10671      00
 10672              	.LEHE413:
 10673 53ae E99FFEFF 		jmp	.L1107
 10673      FF
 10674              	.L1082:
 10675 53b3 4889C3   		movq	%rax, %rbx
 10676 53b6 E8000000 		call	__cxa_end_catch@PLT
 10676      00
 10677 53bb 4889DF   		movq	%rbx, %rdi
 10678              	.LEHB414:
 10679 53be E8000000 		call	_Unwind_Resume@PLT
 10679      00
 10680              	.LEHE414:
 10681              		.cfi_endproc
 10682              	.LFE1234:
 10683              		.section	.gcc_except_table
 10684              		.align 4
 10685              	.LLSDA1234:
 10686 0af8 FF       		.byte	0xff
 10687 0af9 9B       		.byte	0x9b
 10688 0afa 6D       		.uleb128 .LLSDATT1234-.LLSDATTD1234
 10689              	.LLSDATTD1234:
 10690 0afb 01       		.byte	0x1
 10691 0afc 55       		.uleb128 .LLSDACSE1234-.LLSDACSB1234
 10692              	.LLSDACSB1234:
 10693 0afd 35       		.uleb128 .LEHB400-.LFB1234
 10694 0afe 05       		.uleb128 .LEHE400-.LEHB400
 10695 0aff C204     		.uleb128 .L1088-.LFB1234
 10696 0b01 05       		.uleb128 0x5
 10697 0b02 D601     		.uleb128 .LEHB401-.LFB1234
 10698 0b04 05       		.uleb128 .LEHE401-.LEHB401
 10699 0b05 DE03     		.uleb128 .L1086-.LFB1234
 10700 0b07 07       		.uleb128 0x7
 10701 0b08 E901     		.uleb128 .LEHB402-.LFB1234
 10702 0b0a 05       		.uleb128 .LEHE402-.LEHB402
 10703 0b0b C503     		.uleb128 .L1081-.LFB1234
 10704 0b0d 07       		.uleb128 0x7
 10705 0b0e F701     		.uleb128 .LEHB403-.LFB1234
 10706 0b10 05       		.uleb128 .LEHE403-.LEHB403
 10707 0b11 AC03     		.uleb128 .L1087-.LFB1234
 10708 0b13 07       		.uleb128 0x7
 10709 0b14 FF01     		.uleb128 .LEHB404-.LFB1234
 10710 0b16 05       		.uleb128 .LEHE404-.LEHB404
 10711 0b17 AC02     		.uleb128 .L1080-.LFB1234
 10712 0b19 05       		.uleb128 0x5
 10713 0b1a CE02     		.uleb128 .LEHB405-.LFB1234
 10714 0b1c 05       		.uleb128 .LEHE405-.LEHB405
 10715 0b1d EF04     		.uleb128 .L1083-.LFB1234
 10716 0b1f 00       		.uleb128 0
 10717 0b20 E202     		.uleb128 .LEHB406-.LFB1234
 10718 0b22 38       		.uleb128 .LEHE406-.LEHB406
 10719 0b23 D704     		.uleb128 .L1084-.LFB1234
 10720 0b25 00       		.uleb128 0
 10721 0b26 9D03     		.uleb128 .LEHB407-.LFB1234
 10722 0b28 05       		.uleb128 .LEHE407-.LEHB407
 10723 0b29 EF04     		.uleb128 .L1083-.LFB1234
 10724 0b2b 00       		.uleb128 0
 10725 0b2c 8B04     		.uleb128 .LEHB408-.LFB1234
 10726 0b2e 2D       		.uleb128 .LEHE408-.LEHB408
 10727 0b2f C704     		.uleb128 .L1085-.LFB1234
 10728 0b31 00       		.uleb128 0
 10729 0b32 B804     		.uleb128 .LEHB409-.LFB1234
 10730 0b34 05       		.uleb128 .LEHE409-.LEHB409
 10731 0b35 00       		.uleb128 0
 10732 0b36 00       		.uleb128 0
 10733 0b37 D204     		.uleb128 .LEHB410-.LFB1234
 10734 0b39 05       		.uleb128 .LEHE410-.LEHB410
 10735 0b3a 00       		.uleb128 0
 10736 0b3b 00       		.uleb128 0
 10737 0b3c EA04     		.uleb128 .LEHB411-.LFB1234
 10738 0b3e 05       		.uleb128 .LEHE411-.LEHB411
 10739 0b3f 00       		.uleb128 0
 10740 0b40 00       		.uleb128 0
 10741 0b41 F904     		.uleb128 .LEHB412-.LFB1234
 10742 0b43 2D       		.uleb128 .LEHE412-.LEHB412
 10743 0b44 C704     		.uleb128 .L1085-.LFB1234
 10744 0b46 00       		.uleb128 0
 10745 0b47 B005     		.uleb128 .LEHB413-.LFB1234
 10746 0b49 4E       		.uleb128 .LEHE413-.LEHB413
 10747 0b4a 8306     		.uleb128 .L1082-.LFB1234
 10748 0b4c 00       		.uleb128 0
 10749 0b4d 8E06     		.uleb128 .LEHB414-.LFB1234
 10750 0b4f 05       		.uleb128 .LEHE414-.LEHB414
 10751 0b50 00       		.uleb128 0
 10752 0b51 00       		.uleb128 0
 10753              	.LLSDACSE1234:
 10754 0b52 03       		.byte	0x3
 10755 0b53 00       		.byte	0
 10756 0b54 02       		.byte	0x2
 10757 0b55 7D       		.byte	0x7d
 10758 0b56 01       		.byte	0x1
 10759 0b57 7D       		.byte	0x7d
 10760 0b58 00       		.byte	0
 10761 0b59 7D       		.byte	0x7d
 10762 0b5a 0000     		.align 4
 10763 0b5c 00000000 		.long	0
 10764              	
 10765 0b60 00000000 		.long	DW.ref._ZTISt9exception-.
 10766 0b64 00000000 		.long	DW.ref._ZTIN8UnitTest15AssertExceptionE-.
 10767              	.LLSDATT1234:
 10768              		.text
 10770              		.section	.rodata.str1.8
 10771 0606 0000     		.align 8
 10772              	.LC43:
 10773 0608 556E6861 		.string	"Unhandled exception in CHECK_EQUAL(2, RunTestsIf(list, NULL, True(), 0))"
 10773      6E646C65 
 10773      64206578 
 10773      63657074 
 10773      696F6E20 
 10774 0651 00000000 		.align 8
 10774      000000
 10775              	.LC44:
 10776 0658 556E6861 		.string	"Unhandled exception in CHECK_EQUAL(2, reporter.testFailedCount)"
 10776      6E646C65 
 10776      64206578 
 10776      63657074 
 10776      696F6E20 
 10777              		.text
 10778 53c3 0F1F0066 		.p2align 4,,15
 10778      2E0F1F84 
 10778      00000000 
 10778      00
 10780              	_ZN8UnitTest11ExecuteTestIN12_GLOBAL__N_159TestRunnerFixtureCallsReportFailureOncePerFailingTestHel
 10781              	.LFB1413:
 10782              		.cfi_startproc
 10783              		.cfi_personality 0x9b,DW.ref.__gxx_personality_v0
 10784              		.cfi_lsda 0x1b,.LLSDA1413
 10785 53d0 4155     		pushq	%r13
 10786              		.cfi_def_cfa_offset 16
 10787              		.cfi_offset 13, -16
 10788 53d2 4154     		pushq	%r12
 10789              		.cfi_def_cfa_offset 24
 10790              		.cfi_offset 12, -24
 10791 53d4 55       		pushq	%rbp
 10792              		.cfi_def_cfa_offset 32
 10793              		.cfi_offset 6, -32
 10794 53d5 53       		pushq	%rbx
 10795              		.cfi_def_cfa_offset 40
 10796              		.cfi_offset 3, -40
 10797 53d6 4889F3   		movq	%rsi, %rbx
 10798 53d9 4881EC98 		subq	$1944, %rsp
 10798      070000
 10799              		.cfi_def_cfa_offset 1984
 10800 53e0 48893C24 		movq	%rdi, (%rsp)
 10801 53e4 48897424 		movq	%rsi, 8(%rsp)
 10801      08
 10802 53e9 64488B04 		movq	%fs:40, %rax
 10802      25280000 
 10802      00
 10803 53f2 48898424 		movq	%rax, 1928(%rsp)
 10803      88070000 
 10804 53fa 31C0     		xorl	%eax, %eax
 10805              	.LEHB415:
 10806 53fc E8000000 		call	_ZN8UnitTest11CurrentTest7DetailsEv@PLT
 10806      00
 10807              	.LEHE415:
 10808 5401 488DBC24 		leaq	800(%rsp), %rdi
 10808      20030000 
 10809 5409 488918   		movq	%rbx, (%rax)
 10810              	.LEHB416:
 10811 540c E8000000 		call	_ZN8UnitTest16SignalTranslatorC1Ev@PLT
 10811      00
 10812              	.LEHE416:
 10813 5411 488B3D00 		movq	_ZN8UnitTest16SignalTranslator12s_jumpTargetE(%rip), %rdi
 10813      000000
 10814 5418 BE010000 		movl	$1, %esi
 10814      00
 10815 541d E8000000 		call	__sigsetjmp@PLT
 10815      00
 10816 5422 85C0     		testl	%eax, %eax
 10817 5424 742A     		je	.L1112
 10818 5426 BF080000 		movl	$8, %edi
 10818      00
 10819 542b E8000000 		call	__cxa_allocate_exception@PLT
 10819      00
 10820 5430 488D0D00 		leaq	.LC3(%rip), %rcx
 10820      000000
 10821 5437 488D3500 		leaq	_ZTIPKc(%rip), %rsi
 10821      000000
 10822 543e 31D2     		xorl	%edx, %edx
 10823 5440 4889C7   		movq	%rax, %rdi
 10824 5443 488908   		movq	%rcx, (%rax)
 10825              	.LEHB417:
 10826 5446 E8000000 		call	__cxa_throw@PLT
 10826      00
 10827 544b 0F1F4400 		.p2align 4,,10
 10827      00
 10828              		.p2align 3
 10829              	.L1112:
 10830 5450 488DBC24 		leaq	192(%rsp), %rdi
 10830      C0000000 
 10831 5458 488D0D00 		leaq	.LC24(%rip), %rcx
 10831      000000
 10832 545f 488D1500 		leaq	.LC38(%rip), %rdx
 10832      000000
 10833 5466 488D3500 		leaq	.LC39(%rip), %rsi
 10833      000000
 10834 546d 4531C0   		xorl	%r8d, %r8d
 10835 5470 E8000000 		call	_ZN8UnitTest4TestC2EPKcS2_S2_i@PLT
 10835      00
 10836              	.LEHE417:
 10837 5475 488B2C24 		movq	(%rsp), %rbp
 10838 5479 4C8D2500 		leaq	16+_ZTVN12_GLOBAL__N_18MockTestE(%rip), %r12
 10838      000000
 10839 5480 488DB424 		leaq	192(%rsp), %rsi
 10839      C0000000 
 10840 5488 C68424F1 		movb	$0, 241(%rsp)
 10840      00000000 
 10841 5490 C68424F2 		movb	$0, 242(%rsp)
 10841      00000000 
 10842 5498 4C89A424 		movq	%r12, 192(%rsp)
 10842      C0000000 
 10843 54a0 C78424F4 		movl	$1, 244(%rsp)
 10843      00000001 
 10843      000000
 10844 54ab 488D9D48 		leaq	2120(%rbp), %rbx
 10844      080000
 10845 54b2 4889DF   		movq	%rbx, %rdi
 10846              	.LEHB418:
 10847 54b5 E8000000 		call	_ZN8UnitTest8TestList3AddEPNS_4TestE@PLT
 10847      00
 10848 54ba 488DBC24 		leaq	256(%rsp), %rdi
 10848      00010000 
 10849 54c2 488D0D00 		leaq	.LC24(%rip), %rcx
 10849      000000
 10850 54c9 488D1500 		leaq	.LC38(%rip), %rdx
 10850      000000
 10851 54d0 488D3500 		leaq	.LC39(%rip), %rsi
 10851      000000
 10852 54d7 4531C0   		xorl	%r8d, %r8d
 10853 54da E8000000 		call	_ZN8UnitTest4TestC2EPKcS2_S2_i@PLT
 10853      00
 10854              	.LEHE418:
 10855 54df 488DB424 		leaq	256(%rsp), %rsi
 10855      00010000 
 10856 54e7 4889DF   		movq	%rbx, %rdi
 10857 54ea 4C89A424 		movq	%r12, 256(%rsp)
 10857      00010000 
 10858 54f2 C6842431 		movb	$1, 305(%rsp)
 10858      01000001 
 10859 54fa C6842432 		movb	$0, 306(%rsp)
 10859      01000000 
 10860 5502 C7842434 		movl	$1, 308(%rsp)
 10860      01000001 
 10860      000000
 10861              	.LEHB419:
 10862 550d E8000000 		call	_ZN8UnitTest8TestList3AddEPNS_4TestE@PLT
 10862      00
 10863 5512 488DBC24 		leaq	320(%rsp), %rdi
 10863      40010000 
 10864 551a 488D0D00 		leaq	.LC24(%rip), %rcx
 10864      000000
 10865 5521 488D1500 		leaq	.LC38(%rip), %rdx
 10865      000000
 10866 5528 488D3500 		leaq	.LC39(%rip), %rsi
 10866      000000
 10867 552f 4531C0   		xorl	%r8d, %r8d
 10868 5532 E8000000 		call	_ZN8UnitTest4TestC2EPKcS2_S2_i@PLT
 10868      00
 10869              	.LEHE419:
 10870 5537 488DB424 		leaq	320(%rsp), %rsi
 10870      40010000 
 10871 553f 4889DF   		movq	%rbx, %rdi
 10872 5542 4C89A424 		movq	%r12, 320(%rsp)
 10872      40010000 
 10873 554a C6842471 		movb	$0, 369(%rsp)
 10873      01000000 
 10874 5552 C6842472 		movb	$0, 370(%rsp)
 10874      01000000 
 10875 555a C7842474 		movl	$1, 372(%rsp)
 10875      01000001 
 10875      000000
 10876              	.LEHB420:
 10877 5565 E8000000 		call	_ZN8UnitTest8TestList3AddEPNS_4TestE@PLT
 10877      00
 10878              	.LEHE420:
 10879              	.LEHB421:
 10880 556a E8000000 		call	_ZN8UnitTest11CurrentTest7DetailsEv@PLT
 10880      00
 10881 556f 488B30   		movq	(%rax), %rsi
 10882 5572 488DBC24 		leaq	160(%rsp), %rdi
 10882      A0000000 
 10883 557a BA750000 		movl	$117, %edx
 10883      00
 10884 557f E8000000 		call	_ZN8UnitTest11TestDetailsC1ERKS0_i@PLT
 10884      00
 10885 5584 E8000000 		call	_ZN8UnitTest11CurrentTest7ResultsEv@PLT
 10885      00
 10886 5589 4C8B28   		movq	(%rax), %r13
 10887 558c E8000000 		call	_ZN8UnitTest11CurrentTest7DetailsEv@PLT
 10887      00
 10888 5591 4889DF   		movq	%rbx, %rdi
 10889 5594 4C8B20   		movq	(%rax), %r12
 10890 5597 E8000000 		call	_ZNK8UnitTest8TestList7GetHeadEv@PLT
 10890      00
 10891 559c 4885C0   		testq	%rax, %rax
 10892 559f 4889C3   		movq	%rax, %rbx
 10893 55a2 0F853201 		jne	.L1115
 10893      0000
 10894 55a8 0F1F8400 		.p2align 4,,10
 10894      00000000 
 10895              		.p2align 3
 10896              	.L1113:
 10897 55b0 488B3C24 		movq	(%rsp), %rdi
 10898 55b4 E8000000 		call	_ZNK8UnitTest10TestRunner6FinishEv@PLT
 10898      00
 10899 55b9 89C3     		movl	%eax, %ebx
 10900 55bb E8000000 		call	_ZN8UnitTest11CurrentTest7ResultsEv@PLT
 10900      00
 10901 55c0 4C8928   		movq	%r13, (%rax)
 10902 55c3 E8000000 		call	_ZN8UnitTest11CurrentTest7DetailsEv@PLT
 10902      00
 10903 55c8 4C8920   		movq	%r12, (%rax)
 10904 55cb 895C241C 		movl	%ebx, 28(%rsp)
 10905 55cf C7442418 		movl	$2, 24(%rsp)
 10905      02000000 
 10906 55d7 E8000000 		call	_ZN8UnitTest11CurrentTest7ResultsEv@PLT
 10906      00
 10907 55dc 488B38   		movq	(%rax), %rdi
 10908 55df 488D8C24 		leaq	160(%rsp), %rcx
 10908      A0000000 
 10909 55e7 488D5424 		leaq	28(%rsp), %rdx
 10909      1C
 10910 55ec 488D7424 		leaq	24(%rsp), %rsi
 10910      18
 10911 55f1 E8000000 		call	_ZN8UnitTest10CheckEqualIiiEEvRNS_11TestResultsERKT_RKT0_RKNS_11TestDetailsE
 10911      00
 10912              	.LEHE421:
 10913              	.L1119:
 10914              	.LEHB422:
 10915 55f6 E8000000 		call	_ZN8UnitTest11CurrentTest7DetailsEv@PLT
 10915      00
 10916 55fb 488B30   		movq	(%rax), %rsi
 10917 55fe 488D7C24 		leaq	96(%rsp), %rdi
 10917      60
 10918 5603 BA760000 		movl	$118, %edx
 10918      00
 10919 5608 E8000000 		call	_ZN8UnitTest11TestDetailsC1ERKS0_i@PLT
 10919      00
 10920 560d 488B1C24 		movq	(%rsp), %rbx
 10921 5611 C7442414 		movl	$2, 20(%rsp)
 10921      02000000 
 10922 5619 4881C324 		addq	$548, %rbx
 10922      020000
 10923 5620 E8000000 		call	_ZN8UnitTest11CurrentTest7ResultsEv@PLT
 10923      00
 10924 5625 488B38   		movq	(%rax), %rdi
 10925 5628 488D4C24 		leaq	96(%rsp), %rcx
 10925      60
 10926 562d 488D7424 		leaq	20(%rsp), %rsi
 10926      14
 10927 5632 4889DA   		movq	%rbx, %rdx
 10928 5635 E8000000 		call	_ZN8UnitTest10CheckEqualIiiEEvRNS_11TestResultsERKT_RKT0_RKNS_11TestDetailsE
 10928      00
 10929              	.LEHE422:
 10930              	.L1123:
 10931 563a 488D1D00 		leaq	16+_ZTVN12_GLOBAL__N_18MockTestE(%rip), %rbx
 10931      000000
 10932 5641 488DBC24 		leaq	320(%rsp), %rdi
 10932      40010000 
 10933 5649 48899C24 		movq	%rbx, 320(%rsp)
 10933      40010000 
 10934              	.LEHB423:
 10935 5651 E8000000 		call	_ZN8UnitTest4TestD2Ev@PLT
 10935      00
 10936              	.LEHE423:
 10937 5656 488DBC24 		leaq	256(%rsp), %rdi
 10937      00010000 
 10938 565e 48899C24 		movq	%rbx, 256(%rsp)
 10938      00010000 
 10939              	.LEHB424:
 10940 5666 E8000000 		call	_ZN8UnitTest4TestD2Ev@PLT
 10940      00
 10941              	.LEHE424:
 10942 566b 488DBC24 		leaq	192(%rsp), %rdi
 10942      C0000000 
 10943 5673 48899C24 		movq	%rbx, 192(%rsp)
 10943      C0000000 
 10944              	.LEHB425:
 10945 567b E8000000 		call	_ZN8UnitTest4TestD2Ev@PLT
 10945      00
 10946              	.LEHE425:
 10947 5680 488DBC24 		leaq	800(%rsp), %rdi
 10947      20030000 
 10948              	.LEHB426:
 10949 5688 E8000000 		call	_ZN8UnitTest16SignalTranslatorD1Ev@PLT
 10949      00
 10950              	.LEHE426:
 10951              	.L1110:
 10952 568d 488B8424 		movq	1928(%rsp), %rax
 10952      88070000 
 10953 5695 64483304 		xorq	%fs:40, %rax
 10953      25280000 
 10953      00
 10954 569e 0F85F900 		jne	.L1156
 10954      0000
 10955 56a4 4881C498 		addq	$1944, %rsp
 10955      070000
 10956              		.cfi_remember_state
 10957              		.cfi_def_cfa_offset 40
 10958 56ab 5B       		popq	%rbx
 10959              		.cfi_def_cfa_offset 32
 10960 56ac 5D       		popq	%rbp
 10961              		.cfi_def_cfa_offset 24
 10962 56ad 415C     		popq	%r12
 10963              		.cfi_def_cfa_offset 16
 10964 56af 415D     		popq	%r13
 10965              		.cfi_def_cfa_offset 8
 10966 56b1 C3       		ret
 10967              		.p2align 4,,10
 10968 56b2 660F1F44 		.p2align 3
 10968      0000
 10969              	.L1114:
 10970              		.cfi_restore_state
 10971 56b8 488B0424 		movq	(%rsp), %rax
 10972 56bc 31C9     		xorl	%ecx, %ecx
 10973 56be 4889DA   		movq	%rbx, %rdx
 10974 56c1 4889EF   		movq	%rbp, %rdi
 10975 56c4 488B7008 		movq	8(%rax), %rsi
 10976              	.LEHB427:
 10977 56c8 E8000000 		call	_ZNK8UnitTest10TestRunner7RunTestEPNS_11TestResultsEPNS_4TestEi@PLT
 10977      00
 10978              	.L1116:
 10979 56cd 488B5B28 		movq	40(%rbx), %rbx
 10980 56d1 4885DB   		testq	%rbx, %rbx
 10981 56d4 0F84D6FE 		je	.L1113
 10981      FFFF
 10982              	.L1115:
 10983 56da 31D2     		xorl	%edx, %edx
 10984 56dc 4889DE   		movq	%rbx, %rsi
 10985 56df 4889EF   		movq	%rbp, %rdi
 10986 56e2 E8000000 		call	_ZNK8UnitTest10TestRunner13IsTestInSuiteEPKNS_4TestEPKc@PLT
 10986      00
 10987              	.LEHE427:
 10988 56e7 84C0     		testb	%al, %al
 10989 56e9 74E2     		je	.L1116
 10990 56eb EBCB     		jmp	.L1114
 10991              	.L1140:
 10992 56ed 4889C3   		movq	%rax, %rbx
 10993 56f0 4889D5   		movq	%rdx, %rbp
 10994              	.L1127:
 10995 56f3 488DBC24 		leaq	800(%rsp), %rdi
 10995      20030000 
 10996 56fb E8000000 		call	_ZN8UnitTest16SignalTranslatorD1Ev@PLT
 10996      00
 10997 5700 4889DF   		movq	%rbx, %rdi
 10998 5703 4889EA   		movq	%rbp, %rdx
 10999              	.L1128:
 11000 5706 4883FA01 		cmpq	$1, %rdx
 11001 570a 0F84EB01 		je	.L1130
 11001      0000
 11002 5710 4883FA02 		cmpq	$2, %rdx
 11003 5714 0F85B901 		jne	.L1157
 11003      0000
 11004 571a E8000000 		call	__cxa_begin_catch@PLT
 11004      00
 11005 571f 488DBC24 		leaq	384(%rsp), %rdi
 11005      80010000 
 11006 5727 4889C3   		movq	%rax, %rbx
 11007              	.LEHB428:
 11008 572a E8000000 		call	_ZN8UnitTest15MemoryOutStreamC1Ev
 11008      00
 11009              	.LEHE428:
 11010 572f 488DBC24 		leaq	384(%rsp), %rdi
 11010      80010000 
 11011 5737 488D3500 		leaq	.LC11(%rip), %rsi
 11011      000000
 11012 573e BA150000 		movl	$21, %edx
 11012      00
 11013              	.LEHB429:
 11014 5743 E8000000 		call	_ZSt16__ostream_insertIcSt11char_traitsIcEERSt13basic_ostreamIT_T0_ES6_PKS3_l@PLT
 11014      00
 11015 5748 488B03   		movq	(%rbx), %rax
 11016 574b 4889DF   		movq	%rbx, %rdi
 11017 574e FF5010   		call	*16(%rax)
 11018 5751 488DBC24 		leaq	384(%rsp), %rdi
 11018      80010000 
 11019 5759 4889C6   		movq	%rax, %rsi
 11020 575c E8000000 		call	_ZStlsISt11char_traitsIcEERSt13basic_ostreamIcT_ES5_PKc@PLT
 11020      00
 11021 5761 E8000000 		call	_ZN8UnitTest11CurrentTest7ResultsEv@PLT
 11021      00
 11022 5766 488DBC24 		leaq	384(%rsp), %rdi
 11022      80010000 
 11023 576e 488B18   		movq	(%rax), %rbx
 11024 5771 E8000000 		call	_ZNK8UnitTest15MemoryOutStream7GetTextEv@PLT
 11024      00
 11025 5776 488B7424 		movq	8(%rsp), %rsi
 11025      08
 11026 577b 4889C2   		movq	%rax, %rdx
 11027 577e 4889DF   		movq	%rbx, %rdi
 11028 5781 E8000000 		call	_ZN8UnitTest11TestResults13OnTestFailureERKNS_11TestDetailsEPKc@PLT
 11028      00
 11029              	.LEHE429:
 11030 5786 488DBC24 		leaq	384(%rsp), %rdi
 11030      80010000 
 11031              	.LEHB430:
 11032 578e E8000000 		call	_ZN8UnitTest15MemoryOutStreamD1Ev
 11032      00
 11033              	.LEHE430:
 11034              	.L1154:
 11035 5793 E8000000 		call	__cxa_end_catch@PLT
 11035      00
 11036 5798 E9F0FEFF 		jmp	.L1110
 11036      FF
 11037              	.L1156:
 11038 579d E8000000 		call	__stack_chk_fail@PLT
 11038      00
 11039              	.L1149:
 11040 57a2 4889C7   		movq	%rax, %rdi
 11041 57a5 E8000000 		call	__cxa_begin_catch@PLT
 11041      00
 11042              	.LEHB431:
 11043 57aa E8000000 		call	_ZN8UnitTest11CurrentTest7ResultsEv@PLT
 11043      00
 11044 57af 488B18   		movq	(%rax), %rbx
 11045 57b2 E8000000 		call	_ZN8UnitTest11CurrentTest7DetailsEv@PLT
 11045      00
 11046 57b7 488B30   		movq	(%rax), %rsi
 11047 57ba 488D7C24 		leaq	64(%rsp), %rdi
 11047      40
 11048 57bf BA760000 		movl	$118, %edx
 11048      00
 11049 57c4 E8000000 		call	_ZN8UnitTest11TestDetailsC1ERKS0_i@PLT
 11049      00
 11050 57c9 488D7424 		leaq	64(%rsp), %rsi
 11050      40
 11051 57ce 488D1500 		leaq	.LC44(%rip), %rdx
 11051      000000
 11052 57d5 4889DF   		movq	%rbx, %rdi
 11053 57d8 E8000000 		call	_ZN8UnitTest11TestResults13OnTestFailureERKNS_11TestDetailsEPKc@PLT
 11053      00
 11054              	.LEHE431:
 11055              	.LEHB432:
 11056 57dd E8000000 		call	__cxa_end_catch@PLT
 11056      00
 11057              	.LEHE432:
 11058 57e2 E953FEFF 		jmp	.L1123
 11058      FF
 11059              	.L1145:
 11060 57e7 4889C3   		movq	%rax, %rbx
 11061 57ea 4889D5   		movq	%rdx, %rbp
 11062              	.L1126:
 11063 57ed 488D0500 		leaq	16+_ZTVN12_GLOBAL__N_18MockTestE(%rip), %rax
 11063      000000
 11064 57f4 488DBC24 		leaq	192(%rsp), %rdi
 11064      C0000000 
 11065 57fc 48898424 		movq	%rax, 192(%rsp)
 11065      C0000000 
 11066 5804 E8000000 		call	_ZN8UnitTest4TestD2Ev@PLT
 11066      00
 11067 5809 E9E5FEFF 		jmp	.L1127
 11067      FF
 11068              	.L1148:
 11069 580e 4889C3   		movq	%rax, %rbx
 11070 5811 4889D5   		movq	%rdx, %rbp
 11071 5814 E8000000 		call	__cxa_end_catch@PLT
 11071      00
 11072              	.L1121:
 11073 5819 488D0500 		leaq	16+_ZTVN12_GLOBAL__N_18MockTestE(%rip), %rax
 11073      000000
 11074 5820 488DBC24 		leaq	320(%rsp), %rdi
 11074      40010000 
 11075 5828 48898424 		movq	%rax, 320(%rsp)
 11075      40010000 
 11076 5830 E8000000 		call	_ZN8UnitTest4TestD2Ev@PLT
 11076      00
 11077              	.L1125:
 11078 5835 488D0500 		leaq	16+_ZTVN12_GLOBAL__N_18MockTestE(%rip), %rax
 11078      000000
 11079 583c 488DBC24 		leaq	256(%rsp), %rdi
 11079      00010000 
 11080 5844 48898424 		movq	%rax, 256(%rsp)
 11080      00010000 
 11081 584c E8000000 		call	_ZN8UnitTest4TestD2Ev@PLT
 11081      00
 11082 5851 EB9A     		jmp	.L1126
 11083              	.L1139:
 11084 5853 4889C7   		movq	%rax, %rdi
 11085 5856 E9ABFEFF 		jmp	.L1128
 11085      FF
 11086              	.L1147:
 11087 585b 4889C3   		movq	%rax, %rbx
 11088 585e 4889D5   		movq	%rdx, %rbp
 11089 5861 EBB6     		jmp	.L1121
 11090              	.L1146:
 11091 5863 4889C3   		movq	%rax, %rbx
 11092 5866 4889D5   		movq	%rdx, %rbp
 11093 5869 EBCA     		jmp	.L1125
 11094              	.L1151:
 11095 586b 4889C7   		movq	%rax, %rdi
 11096 586e E8000000 		call	__cxa_begin_catch@PLT
 11096      00
 11097              	.LEHB433:
 11098 5873 E8000000 		call	_ZN8UnitTest11CurrentTest7ResultsEv@PLT
 11098      00
 11099 5878 488B18   		movq	(%rax), %rbx
 11100 587b E8000000 		call	_ZN8UnitTest11CurrentTest7DetailsEv@PLT
 11100      00
 11101 5880 488B30   		movq	(%rax), %rsi
 11102 5883 488DBC24 		leaq	128(%rsp), %rdi
 11102      80000000 
 11103 588b BA750000 		movl	$117, %edx
 11103      00
 11104 5890 E8000000 		call	_ZN8UnitTest11TestDetailsC1ERKS0_i@PLT
 11104      00
 11105 5895 488DB424 		leaq	128(%rsp), %rsi
 11105      80000000 
 11106 589d 488D1500 		leaq	.LC43(%rip), %rdx
 11106      000000
 11107 58a4 4889DF   		movq	%rbx, %rdi
 11108 58a7 E8000000 		call	_ZN8UnitTest11TestResults13OnTestFailureERKNS_11TestDetailsEPKc@PLT
 11108      00
 11109              	.LEHE433:
 11110              	.LEHB434:
 11111 58ac E8000000 		call	__cxa_end_catch@PLT
 11111      00
 11112              	.LEHE434:
 11113 58b1 E940FDFF 		jmp	.L1119
 11113      FF
 11114              	.L1143:
 11115 58b6 488DBC24 		leaq	384(%rsp), %rdi
 11115      80010000 
 11116 58be 4889C3   		movq	%rax, %rbx
 11117 58c1 E8000000 		call	_ZN8UnitTest15MemoryOutStreamD1Ev
 11117      00
 11118              	.L1136:
 11119 58c6 E8000000 		call	__cxa_end_catch@PLT
 11119      00
 11120 58cb 4889DF   		movq	%rbx, %rdi
 11121              	.LEHB435:
 11122 58ce E8000000 		call	_Unwind_Resume@PLT
 11122      00
 11123              	.LEHE435:
 11124              	.L1157:
 11125 58d3 E8000000 		call	__cxa_begin_catch@PLT
 11125      00
 11126              	.LEHB436:
 11127 58d8 E8000000 		call	_ZN8UnitTest11CurrentTest7ResultsEv@PLT
 11127      00
 11128 58dd 488B7424 		movq	8(%rsp), %rsi
 11128      08
 11129 58e2 488B38   		movq	(%rax), %rdi
 11130 58e5 488D1500 		leaq	.LC12(%rip), %rdx
 11130      000000
 11131 58ec E8000000 		call	_ZN8UnitTest11TestResults13OnTestFailureERKNS_11TestDetailsEPKc@PLT
 11131      00
 11132              	.LEHE436:
 11133              	.LEHB437:
 11134 58f1 E8000000 		call	__cxa_end_catch@PLT
 11134      00
 11135              	.LEHE437:
 11136 58f6 E992FDFF 		jmp	.L1110
 11136      FF
 11137              	.L1130:
 11138 58fb E8000000 		call	__cxa_begin_catch@PLT
 11138      00
 11139 5900 4889C3   		movq	%rax, %rbx
 11140              	.LEHB438:
 11141 5903 E8000000 		call	_ZN8UnitTest11CurrentTest7ResultsEv@PLT
 11141      00
 11142 5908 488B28   		movq	(%rax), %rbp
 11143 590b 488B03   		movq	(%rbx), %rax
 11144 590e 4889DF   		movq	%rbx, %rdi
 11145 5911 FF5010   		call	*16(%rax)
 11146 5914 4889DF   		movq	%rbx, %rdi
 11147 5917 4989C4   		movq	%rax, %r12
 11148 591a E8000000 		call	_ZNK8UnitTest15AssertException10LineNumberEv@PLT
 11148      00
 11149 591f 4889DF   		movq	%rbx, %rdi
 11150 5922 4189C5   		movl	%eax, %r13d
 11151 5925 E8000000 		call	_ZNK8UnitTest15AssertException8FilenameEv@PLT
 11151      00
 11152 592a 488B5424 		movq	8(%rsp), %rdx
 11152      08
 11153 592f 488D7C24 		leaq	32(%rsp), %rdi
 11153      20
 11154 5934 4589E8   		movl	%r13d, %r8d
 11155 5937 4889C1   		movq	%rax, %rcx
 11156 593a 488B7208 		movq	8(%rdx), %rsi
 11157 593e 488B12   		movq	(%rdx), %rdx
 11158 5941 E8000000 		call	_ZN8UnitTest11TestDetailsC1EPKcS2_S2_i@PLT
 11158      00
 11159 5946 488D7424 		leaq	32(%rsp), %rsi
 11159      20
 11160 594b 4C89E2   		movq	%r12, %rdx
 11161 594e 4889EF   		movq	%rbp, %rdi
 11162 5951 E8000000 		call	_ZN8UnitTest11TestResults13OnTestFailureERKNS_11TestDetailsEPKc@PLT
 11162      00
 11163              	.LEHE438:
 11164 5956 E938FEFF 		jmp	.L1154
 11164      FF
 11165              	.L1144:
 11166 595b 4889C3   		movq	%rax, %rbx
 11167 595e E8000000 		call	__cxa_end_catch@PLT
 11167      00
 11168 5963 4889DF   		movq	%rbx, %rdi
 11169              	.LEHB439:
 11170 5966 E8000000 		call	_Unwind_Resume@PLT
 11170      00
 11171              	.LEHE439:
 11172              	.L1141:
 11173              	.L1155:
 11174 596b 4889C3   		movq	%rax, %rbx
 11175 596e E953FFFF 		jmp	.L1136
 11175      FF
 11176              	.L1142:
 11177 5973 EBF6     		jmp	.L1155
 11178              	.L1150:
 11179 5975 4889C3   		movq	%rax, %rbx
 11180 5978 4889D5   		movq	%rdx, %rbp
 11181 597b E8000000 		call	__cxa_end_catch@PLT
 11181      00
 11182 5980 E994FEFF 		jmp	.L1121
 11182      FF
 11183              		.cfi_endproc
 11184              	.LFE1413:
 11185              		.section	.gcc_except_table
 11186              		.align 4
 11187              	.LLSDA1413:
 11188 0b68 FF       		.byte	0xff
 11189 0b69 9B       		.byte	0x9b
 11190 0b6a A801     		.uleb128 .LLSDATT1413-.LLSDATTD1413
 11191              	.LLSDATTD1413:
 11192 0b6c 01       		.byte	0x1
 11193 0b6d 9001     		.uleb128 .LLSDACSE1413-.LLSDACSB1413
 11194              	.LLSDACSB1413:
 11195 0b6f 2C       		.uleb128 .LEHB415-.LFB1413
 11196 0b70 05       		.uleb128 .LEHE415-.LEHB415
 11197 0b71 00       		.uleb128 0
 11198 0b72 00       		.uleb128 0
 11199 0b73 3C       		.uleb128 .LEHB416-.LFB1413
 11200 0b74 05       		.uleb128 .LEHE416-.LEHB416
 11201 0b75 8309     		.uleb128 .L1139-.LFB1413
 11202 0b77 05       		.uleb128 0x5
 11203 0b78 76       		.uleb128 .LEHB417-.LFB1413
 11204 0b79 2F       		.uleb128 .LEHE417-.LEHB417
 11205 0b7a 9D06     		.uleb128 .L1140-.LFB1413
 11206 0b7c 07       		.uleb128 0x7
 11207 0b7d E501     		.uleb128 .LEHB418-.LFB1413
 11208 0b7f 2A       		.uleb128 .LEHE418-.LEHB418
 11209 0b80 9708     		.uleb128 .L1145-.LFB1413
 11210 0b82 07       		.uleb128 0x7
 11211 0b83 BD02     		.uleb128 .LEHB419-.LFB1413
 11212 0b85 2A       		.uleb128 .LEHE419-.LEHB419
 11213 0b86 9309     		.uleb128 .L1146-.LFB1413
 11214 0b88 07       		.uleb128 0x7
 11215 0b89 9503     		.uleb128 .LEHB420-.LFB1413
 11216 0b8b 05       		.uleb128 .LEHE420-.LEHB420
 11217 0b8c 8B09     		.uleb128 .L1147-.LFB1413
 11218 0b8e 07       		.uleb128 0x7
 11219 0b8f 9A03     		.uleb128 .LEHB421-.LFB1413
 11220 0b91 8C01     		.uleb128 .LEHE421-.LEHB421
 11221 0b93 9B09     		.uleb128 .L1151-.LFB1413
 11222 0b95 01       		.uleb128 0x1
 11223 0b96 A604     		.uleb128 .LEHB422-.LFB1413
 11224 0b98 44       		.uleb128 .LEHE422-.LEHB422
 11225 0b99 D207     		.uleb128 .L1149-.LFB1413
 11226 0b9b 01       		.uleb128 0x1
 11227 0b9c 8105     		.uleb128 .LEHB423-.LFB1413
 11228 0b9e 05       		.uleb128 .LEHE423-.LEHB423
 11229 0b9f 9309     		.uleb128 .L1146-.LFB1413
 11230 0ba1 07       		.uleb128 0x7
 11231 0ba2 9605     		.uleb128 .LEHB424-.LFB1413
 11232 0ba4 05       		.uleb128 .LEHE424-.LEHB424
 11233 0ba5 9708     		.uleb128 .L1145-.LFB1413
 11234 0ba7 07       		.uleb128 0x7
 11235 0ba8 AB05     		.uleb128 .LEHB425-.LFB1413
 11236 0baa 05       		.uleb128 .LEHE425-.LEHB425
 11237 0bab 9D06     		.uleb128 .L1140-.LFB1413
 11238 0bad 07       		.uleb128 0x7
 11239 0bae B805     		.uleb128 .LEHB426-.LFB1413
 11240 0bb0 05       		.uleb128 .LEHE426-.LEHB426
 11241 0bb1 8309     		.uleb128 .L1139-.LFB1413
 11242 0bb3 05       		.uleb128 0x5
 11243 0bb4 F805     		.uleb128 .LEHB427-.LFB1413
 11244 0bb6 1F       		.uleb128 .LEHE427-.LEHB427
 11245 0bb7 9B09     		.uleb128 .L1151-.LFB1413
 11246 0bb9 01       		.uleb128 0x1
 11247 0bba DA06     		.uleb128 .LEHB428-.LFB1413
 11248 0bbc 05       		.uleb128 .LEHE428-.LEHB428
 11249 0bbd A30B     		.uleb128 .L1142-.LFB1413
 11250 0bbf 00       		.uleb128 0
 11251 0bc0 F306     		.uleb128 .LEHB429-.LFB1413
 11252 0bc2 43       		.uleb128 .LEHE429-.LEHB429
 11253 0bc3 E609     		.uleb128 .L1143-.LFB1413
 11254 0bc5 00       		.uleb128 0
 11255 0bc6 BE07     		.uleb128 .LEHB430-.LFB1413
 11256 0bc8 05       		.uleb128 .LEHE430-.LEHB430
 11257 0bc9 A30B     		.uleb128 .L1142-.LFB1413
 11258 0bcb 00       		.uleb128 0
 11259 0bcc DA07     		.uleb128 .LEHB431-.LFB1413
 11260 0bce 33       		.uleb128 .LEHE431-.LEHB431
 11261 0bcf BE08     		.uleb128 .L1148-.LFB1413
 11262 0bd1 07       		.uleb128 0x7
 11263 0bd2 8D08     		.uleb128 .LEHB432-.LFB1413
 11264 0bd4 05       		.uleb128 .LEHE432-.LEHB432
 11265 0bd5 8B09     		.uleb128 .L1147-.LFB1413
 11266 0bd7 07       		.uleb128 0x7
 11267 0bd8 A309     		.uleb128 .LEHB433-.LFB1413
 11268 0bda 39       		.uleb128 .LEHE433-.LEHB433
 11269 0bdb A50B     		.uleb128 .L1150-.LFB1413
 11270 0bdd 07       		.uleb128 0x7
 11271 0bde DC09     		.uleb128 .LEHB434-.LFB1413
 11272 0be0 05       		.uleb128 .LEHE434-.LEHB434
 11273 0be1 8B09     		.uleb128 .L1147-.LFB1413
 11274 0be3 07       		.uleb128 0x7
 11275 0be4 FE09     		.uleb128 .LEHB435-.LFB1413
 11276 0be6 05       		.uleb128 .LEHE435-.LEHB435
 11277 0be7 00       		.uleb128 0
 11278 0be8 00       		.uleb128 0
 11279 0be9 880A     		.uleb128 .LEHB436-.LFB1413
 11280 0beb 19       		.uleb128 .LEHE436-.LEHB436
 11281 0bec 8B0B     		.uleb128 .L1144-.LFB1413
 11282 0bee 00       		.uleb128 0
 11283 0bef A10A     		.uleb128 .LEHB437-.LFB1413
 11284 0bf1 05       		.uleb128 .LEHE437-.LEHB437
 11285 0bf2 00       		.uleb128 0
 11286 0bf3 00       		.uleb128 0
 11287 0bf4 B30A     		.uleb128 .LEHB438-.LFB1413
 11288 0bf6 53       		.uleb128 .LEHE438-.LEHB438
 11289 0bf7 9B0B     		.uleb128 .L1141-.LFB1413
 11290 0bf9 00       		.uleb128 0
 11291 0bfa 960B     		.uleb128 .LEHB439-.LFB1413
 11292 0bfc 05       		.uleb128 .LEHE439-.LEHB439
 11293 0bfd 00       		.uleb128 0
 11294 0bfe 00       		.uleb128 0
 11295              	.LLSDACSE1413:
 11296 0bff 03       		.byte	0x3
 11297 0c00 00       		.byte	0
 11298 0c01 02       		.byte	0x2
 11299 0c02 7D       		.byte	0x7d
 11300 0c03 01       		.byte	0x1
 11301 0c04 7D       		.byte	0x7d
 11302 0c05 00       		.byte	0
 11303 0c06 7D       		.byte	0x7d
 11304 0c07 00       		.align 4
 11305 0c08 00000000 		.long	0
 11306              	
 11307 0c0c 00000000 		.long	DW.ref._ZTISt9exception-.
 11308 0c10 00000000 		.long	DW.ref._ZTIN8UnitTest15AssertExceptionE-.
 11309              	.LLSDATT1413:
 11310              		.text
 11312 5985 90       		.align 2
 11313 5986 662E0F1F 		.p2align 4,,15
 11313      84000000 
 11313      0000
 11315              	_ZNK12_GLOBAL__N_157TestTestRunnerFixtureCallsReportFailureOncePerFailingTest7RunImplEv:
 11316              	.LFB1223:
 11317              		.cfi_startproc
 11318              		.cfi_personality 0x9b,DW.ref.__gxx_personality_v0
 11319              		.cfi_lsda 0x1b,.LLSDA1223
 11320 5990 4156     		pushq	%r14
 11321              		.cfi_def_cfa_offset 16
 11322              		.cfi_offset 14, -16
 11323 5992 4155     		pushq	%r13
 11324              		.cfi_def_cfa_offset 24
 11325              		.cfi_offset 13, -24
 11326 5994 4989FD   		movq	%rdi, %r13
 11327 5997 4154     		pushq	%r12
 11328              		.cfi_def_cfa_offset 32
 11329              		.cfi_offset 12, -32
 11330 5999 55       		pushq	%rbp
 11331              		.cfi_def_cfa_offset 40
 11332              		.cfi_offset 6, -40
 11333 599a 488D6F08 		leaq	8(%rdi), %rbp
 11334 599e 53       		pushq	%rbx
 11335              		.cfi_def_cfa_offset 48
 11336              		.cfi_offset 3, -48
 11337 599f 4881EC90 		subq	$2192, %rsp
 11337      080000
 11338              		.cfi_def_cfa_offset 2240
 11339 59a6 488D5C24 		leaq	32(%rsp), %rbx
 11339      20
 11340 59ab 64488B04 		movq	%fs:40, %rax
 11340      25280000 
 11340      00
 11341 59b4 48898424 		movq	%rax, 2184(%rsp)
 11341      88080000 
 11342 59bc 31C0     		xorl	%eax, %eax
 11343 59be 488D7318 		leaq	24(%rbx), %rsi
 11344 59c2 4889DF   		movq	%rbx, %rdi
 11345              	.LEHB440:
 11346 59c5 E8000000 		call	_ZN8UnitTest10TestRunnerC1ERNS_12TestReporterE@PLT
 11346      00
 11347              	.LEHE440:
 11348 59ca 4C8D2500 		leaq	16+_ZTV17RecordingReporter(%rip), %r12
 11348      000000
 11349 59d1 488DBB48 		leaq	2120(%rbx), %rdi
 11349      080000
 11350 59d8 C7442440 		movl	$0, 64(%rsp)
 11350      00000000 
 11351 59e0 C7842444 		movl	$0, 580(%rsp)
 11351      02000000 
 11351      000000
 11352 59eb C7842448 		movl	$0, 840(%rsp)
 11352      03000000 
 11352      000000
 11353 59f6 4C896424 		movq	%r12, 56(%rsp)
 11353      38
 11354 59fb C784244C 		movl	$0, 1612(%rsp)
 11354      06000000 
 11354      000000
 11355 5a06 48C78424 		movq	$0, 2128(%rsp)
 11355      50080000 
 11355      00000000 
 11356 5a12 48C78424 		movq	$0, 2136(%rsp)
 11356      58080000 
 11356      00000000 
 11357 5a1e C7842460 		movl	$0, 2144(%rsp)
 11357      08000000 
 11357      000000
 11358 5a29 C6442444 		movb	$0, 68(%rsp)
 11358      00
 11359 5a2e C6842444 		movb	$0, 324(%rsp)
 11359      01000000 
 11360 5a36 C6842448 		movb	$0, 584(%rsp)
 11360      02000000 
 11361 5a3e C684244C 		movb	$0, 844(%rsp)
 11361      03000000 
 11362 5a46 C684244C 		movb	$0, 1100(%rsp)
 11362      04000000 
 11363 5a4e C684244C 		movb	$0, 1356(%rsp)
 11363      05000000 
 11364 5a56 C6842450 		movb	$0, 1616(%rsp)
 11364      06000000 
 11365 5a5e C6842450 		movb	$0, 1872(%rsp)
 11365      07000000 
 11366              	.LEHB441:
 11367 5a66 E8000000 		call	_ZN8UnitTest8TestListC1Ev@PLT
 11367      00
 11368              	.LEHE441:
 11369 5a6b 4889EE   		movq	%rbp, %rsi
 11370 5a6e 4889DF   		movq	%rbx, %rdi
 11371 5a71 4889AC24 		movq	%rbp, 2168(%rsp)
 11371      78080000 
 11372              	.LEHB442:
 11373 5a79 E852F9FF 		call	_ZN8UnitTest11ExecuteTestIN12_GLOBAL__N_159TestRunnerFixtureCallsReportFailureOncePerFailingT
 11373      FF
 11374              	.LEHE442:
 11375 5a7e 488D7B18 		leaq	24(%rbx), %rdi
 11376 5a82 4C896424 		movq	%r12, 56(%rsp)
 11376      38
 11377              	.LEHB443:
 11378 5a87 E8000000 		call	_ZN8UnitTest12TestReporterD2Ev@PLT
 11378      00
 11379              	.LEHE443:
 11380 5a8c 4889DF   		movq	%rbx, %rdi
 11381              	.LEHB444:
 11382 5a8f E8000000 		call	_ZN8UnitTest10TestRunnerD1Ev@PLT
 11382      00
 11383              	.LEHE444:
 11384              	.L1158:
 11385 5a94 488B8424 		movq	2184(%rsp), %rax
 11385      88080000 
 11386 5a9c 64483304 		xorq	%fs:40, %rax
 11386      25280000 
 11386      00
 11387 5aa5 7510     		jne	.L1206
 11388 5aa7 4881C490 		addq	$2192, %rsp
 11388      080000
 11389              		.cfi_remember_state
 11390              		.cfi_def_cfa_offset 48
 11391 5aae 5B       		popq	%rbx
 11392              		.cfi_def_cfa_offset 40
 11393 5aaf 5D       		popq	%rbp
 11394              		.cfi_def_cfa_offset 32
 11395 5ab0 415C     		popq	%r12
 11396              		.cfi_def_cfa_offset 24
 11397 5ab2 415D     		popq	%r13
 11398              		.cfi_def_cfa_offset 16
 11399 5ab4 415E     		popq	%r14
 11400              		.cfi_def_cfa_offset 8
 11401 5ab6 C3       		ret
 11402              	.L1206:
 11403              		.cfi_restore_state
 11404 5ab7 E8000000 		call	__stack_chk_fail@PLT
 11404      00
 11405              	.L1178:
 11406 5abc 4889C7   		movq	%rax, %rdi
 11407              	.L1164:
 11408 5abf 4883FA01 		cmpq	$1, %rdx
 11409 5ac3 0F846F01 		je	.L1166
 11409      0000
 11410 5ac9 4883FA02 		cmpq	$2, %rdx
 11411 5acd 0F853101 		jne	.L1207
 11411      0000
 11412              	.L1167:
 11413 5ad3 E8000000 		call	__cxa_begin_catch@PLT
 11413      00
 11414 5ad8 4889DF   		movq	%rbx, %rdi
 11415 5adb 4989C4   		movq	%rax, %r12
 11416              	.LEHB445:
 11417 5ade E8000000 		call	_ZN8UnitTest15MemoryOutStreamC1Ev
 11417      00
 11418              	.LEHE445:
 11419 5ae3 488D3500 		leaq	.LC11(%rip), %rsi
 11419      000000
 11420 5aea BA150000 		movl	$21, %edx
 11420      00
 11421 5aef 4889DF   		movq	%rbx, %rdi
 11422              	.LEHB446:
 11423 5af2 E8000000 		call	_ZSt16__ostream_insertIcSt11char_traitsIcEERSt13basic_ostreamIT_T0_ES6_PKS3_l@PLT
 11423      00
 11424 5af7 498B0424 		movq	(%r12), %rax
 11425 5afb 4C89E7   		movq	%r12, %rdi
 11426 5afe FF5010   		call	*16(%rax)
 11427 5b01 4889DF   		movq	%rbx, %rdi
 11428 5b04 4889C6   		movq	%rax, %rsi
 11429 5b07 E8000000 		call	_ZStlsISt11char_traitsIcEERSt13basic_ostreamIcT_ES5_PKc@PLT
 11429      00
 11430 5b0c E8000000 		call	_ZN8UnitTest11CurrentTest7ResultsEv@PLT
 11430      00
 11431 5b11 4889DF   		movq	%rbx, %rdi
 11432 5b14 4C8B20   		movq	(%rax), %r12
 11433 5b17 E8000000 		call	_ZNK8UnitTest15MemoryOutStream7GetTextEv@PLT
 11433      00
 11434 5b1c 4889C2   		movq	%rax, %rdx
 11435 5b1f 4889EE   		movq	%rbp, %rsi
 11436 5b22 4C89E7   		movq	%r12, %rdi
 11437 5b25 E8000000 		call	_ZN8UnitTest11TestResults13OnTestFailureERKNS_11TestDetailsEPKc@PLT
 11437      00
 11438              	.LEHE446:
 11439 5b2a 4889DF   		movq	%rbx, %rdi
 11440              	.LEHB447:
 11441 5b2d E8000000 		call	_ZN8UnitTest15MemoryOutStreamD1Ev
 11441      00
 11442              	.LEHE447:
 11443              	.L1205:
 11444 5b32 E8000000 		call	__cxa_end_catch@PLT
 11444      00
 11445 5b37 E958FFFF 		jmp	.L1158
 11445      FF
 11446              	.L1185:
 11447 5b3c 4989C4   		movq	%rax, %r12
 11448 5b3f 4989D6   		movq	%rdx, %r14
 11449 5b42 4889DF   		movq	%rbx, %rdi
 11450 5b45 E8000000 		call	_ZN8UnitTest10TestRunnerD1Ev@PLT
 11450      00
 11451 5b4a 4C89E7   		movq	%r12, %rdi
 11452 5b4d 4C89F2   		movq	%r14, %rdx
 11453 5b50 E96AFFFF 		jmp	.L1164
 11453      FF
 11454              	.L1179:
 11455 5b55 4989C4   		movq	%rax, %r12
 11456 5b58 4989D6   		movq	%rdx, %r14
 11457 5b5b 4889DF   		movq	%rbx, %rdi
 11458 5b5e E8000000 		call	_ZN12_GLOBAL__N_111FixtureBaseD2Ev
 11458      00
 11459 5b63 4C89E7   		movq	%r12, %rdi
 11460 5b66 4C89F2   		movq	%r14, %rdx
 11461 5b69 E951FFFF 		jmp	.L1164
 11461      FF
 11462              	.L1184:
 11463 5b6e 4989C4   		movq	%rax, %r12
 11464 5b71 4989D6   		movq	%rdx, %r14
 11465 5b74 4889DF   		movq	%rbx, %rdi
 11466 5b77 E8000000 		call	_ZN12_GLOBAL__N_111FixtureBaseD2Ev
 11466      00
 11467 5b7c 4C89E7   		movq	%r12, %rdi
 11468 5b7f 4C89F2   		movq	%r14, %rdx
 11469              	.L1161:
 11470 5b82 4883FA01 		cmpq	$1, %rdx
 11471 5b86 0F84AC00 		je	.L1166
 11471      0000
 11472 5b8c 4883FA02 		cmpq	$2, %rdx
 11473 5b90 0F843DFF 		je	.L1167
 11473      FFFF
 11474 5b96 E8000000 		call	__cxa_begin_catch@PLT
 11474      00
 11475              	.LEHB448:
 11476 5b9b E8000000 		call	_ZN8UnitTest11CurrentTest7ResultsEv@PLT
 11476      00
 11477 5ba0 4889E3   		movq	%rsp, %rbx
 11478 5ba3 BA6C0000 		movl	$108, %edx
 11478      00
 11479 5ba8 4889EE   		movq	%rbp, %rsi
 11480 5bab 4889DF   		movq	%rbx, %rdi
 11481 5bae 4C8B20   		movq	(%rax), %r12
 11482 5bb1 E8000000 		call	_ZN8UnitTest11TestDetailsC1ERKS0_i@PLT
 11482      00
 11483 5bb6 488D1500 		leaq	.LC14(%rip), %rdx
 11483      000000
 11484 5bbd 4889DE   		movq	%rbx, %rsi
 11485 5bc0 4C89E7   		movq	%r12, %rdi
 11486 5bc3 E8000000 		call	_ZN8UnitTest11TestResults13OnTestFailureERKNS_11TestDetailsEPKc@PLT
 11486      00
 11487              	.LEHE448:
 11488              	.L1168:
 11489              	.LEHB449:
 11490 5bc8 E8000000 		call	__cxa_end_catch@PLT
 11490      00
 11491              	.LEHE449:
 11492 5bcd E9C2FEFF 		jmp	.L1158
 11492      FF
 11493              	.L1186:
 11494 5bd2 4889C7   		movq	%rax, %rdi
 11495 5bd5 EBAB     		jmp	.L1161
 11496              	.L1183:
 11497 5bd7 4889C3   		movq	%rax, %rbx
 11498 5bda E8000000 		call	__cxa_end_catch@PLT
 11498      00
 11499 5bdf 4889DF   		movq	%rbx, %rdi
 11500              	.LEHB450:
 11501 5be2 E8000000 		call	_Unwind_Resume@PLT
 11501      00
 11502              	.LEHE450:
 11503              	.L1182:
 11504 5be7 4889DF   		movq	%rbx, %rdi
 11505 5bea 4889C5   		movq	%rax, %rbp
 11506 5bed E8000000 		call	_ZN8UnitTest15MemoryOutStreamD1Ev
 11506      00
 11507              	.L1171:
 11508 5bf2 E8000000 		call	__cxa_end_catch@PLT
 11508      00
 11509 5bf7 4889EF   		movq	%rbp, %rdi
 11510              	.LEHB451:
 11511 5bfa E8000000 		call	_Unwind_Resume@PLT
 11511      00
 11512              	.LEHE451:
 11513              	.L1181:
 11514 5bff 4889C5   		movq	%rax, %rbp
 11515 5c02 EBEE     		jmp	.L1171
 11516              	.L1207:
 11517 5c04 E8000000 		call	__cxa_begin_catch@PLT
 11517      00
 11518              	.LEHB452:
 11519 5c09 E8000000 		call	_ZN8UnitTest11CurrentTest7ResultsEv@PLT
 11519      00
 11520 5c0e 4889E3   		movq	%rsp, %rbx
 11521 5c11 BA6C0000 		movl	$108, %edx
 11521      00
 11522 5c16 4889EE   		movq	%rbp, %rsi
 11523 5c19 4889DF   		movq	%rbx, %rdi
 11524 5c1c 4C8B20   		movq	(%rax), %r12
 11525 5c1f E8000000 		call	_ZN8UnitTest11TestDetailsC1ERKS0_i@PLT
 11525      00
 11526 5c24 488D1500 		leaq	.LC13(%rip), %rdx
 11526      000000
 11527 5c2b 4889DE   		movq	%rbx, %rsi
 11528 5c2e 4C89E7   		movq	%r12, %rdi
 11529 5c31 E8000000 		call	_ZN8UnitTest11TestResults13OnTestFailureERKNS_11TestDetailsEPKc@PLT
 11529      00
 11530              	.LEHE452:
 11531 5c36 EB90     		jmp	.L1168
 11532              	.L1166:
 11533 5c38 E8000000 		call	__cxa_begin_catch@PLT
 11533      00
 11534 5c3d 4889C3   		movq	%rax, %rbx
 11535              	.LEHB453:
 11536 5c40 E8000000 		call	_ZN8UnitTest11CurrentTest7ResultsEv@PLT
 11536      00
 11537 5c45 488B28   		movq	(%rax), %rbp
 11538 5c48 488B03   		movq	(%rbx), %rax
 11539 5c4b 4889DF   		movq	%rbx, %rdi
 11540 5c4e FF5010   		call	*16(%rax)
 11541 5c51 4889DF   		movq	%rbx, %rdi
 11542 5c54 4989C4   		movq	%rax, %r12
 11543 5c57 E8000000 		call	_ZNK8UnitTest15AssertException10LineNumberEv@PLT
 11543      00
 11544 5c5c 4889DF   		movq	%rbx, %rdi
 11545 5c5f 4189C6   		movl	%eax, %r14d
 11546 5c62 E8000000 		call	_ZNK8UnitTest15AssertException8FilenameEv@PLT
 11546      00
 11547 5c67 498B5508 		movq	8(%r13), %rdx
 11548 5c6b 498B7510 		movq	16(%r13), %rsi
 11549 5c6f 4889E3   		movq	%rsp, %rbx
 11550 5c72 4589F0   		movl	%r14d, %r8d
 11551 5c75 4889C1   		movq	%rax, %rcx
 11552 5c78 4889DF   		movq	%rbx, %rdi
 11553 5c7b E8000000 		call	_ZN8UnitTest11TestDetailsC1EPKcS2_S2_i@PLT
 11553      00
 11554 5c80 4C89E2   		movq	%r12, %rdx
 11555 5c83 4889DE   		movq	%rbx, %rsi
 11556 5c86 4889EF   		movq	%rbp, %rdi
 11557 5c89 E8000000 		call	_ZN8UnitTest11TestResults13OnTestFailureERKNS_11TestDetailsEPKc@PLT
 11557      00
 11558              	.LEHE453:
 11559 5c8e E99FFEFF 		jmp	.L1205
 11559      FF
 11560              	.L1180:
 11561 5c93 4889C3   		movq	%rax, %rbx
 11562 5c96 E8000000 		call	__cxa_end_catch@PLT
 11562      00
 11563 5c9b 4889DF   		movq	%rbx, %rdi
 11564              	.LEHB454:
 11565 5c9e E8000000 		call	_Unwind_Resume@PLT
 11565      00
 11566              	.LEHE454:
 11567              		.cfi_endproc
 11568              	.LFE1223:
 11569              		.section	.gcc_except_table
 11570              		.align 4
 11571              	.LLSDA1223:
 11572 0c14 FF       		.byte	0xff
 11573 0c15 9B       		.byte	0x9b
 11574 0c16 6D       		.uleb128 .LLSDATT1223-.LLSDATTD1223
 11575              	.LLSDATTD1223:
 11576 0c17 01       		.byte	0x1
 11577 0c18 55       		.uleb128 .LLSDACSE1223-.LLSDACSB1223
 11578              	.LLSDACSB1223:
 11579 0c19 35       		.uleb128 .LEHB440-.LFB1223
 11580 0c1a 05       		.uleb128 .LEHE440-.LEHB440
 11581 0c1b C204     		.uleb128 .L1186-.LFB1223
 11582 0c1d 05       		.uleb128 0x5
 11583 0c1e D601     		.uleb128 .LEHB441-.LFB1223
 11584 0c20 05       		.uleb128 .LEHE441-.LEHB441
 11585 0c21 DE03     		.uleb128 .L1184-.LFB1223
 11586 0c23 07       		.uleb128 0x7
 11587 0c24 E901     		.uleb128 .LEHB442-.LFB1223
 11588 0c26 05       		.uleb128 .LEHE442-.LEHB442
 11589 0c27 C503     		.uleb128 .L1179-.LFB1223
 11590 0c29 07       		.uleb128 0x7
 11591 0c2a F701     		.uleb128 .LEHB443-.LFB1223
 11592 0c2c 05       		.uleb128 .LEHE443-.LEHB443
 11593 0c2d AC03     		.uleb128 .L1185-.LFB1223
 11594 0c2f 07       		.uleb128 0x7
 11595 0c30 FF01     		.uleb128 .LEHB444-.LFB1223
 11596 0c32 05       		.uleb128 .LEHE444-.LEHB444
 11597 0c33 AC02     		.uleb128 .L1178-.LFB1223
 11598 0c35 05       		.uleb128 0x5
 11599 0c36 CE02     		.uleb128 .LEHB445-.LFB1223
 11600 0c38 05       		.uleb128 .LEHE445-.LEHB445
 11601 0c39 EF04     		.uleb128 .L1181-.LFB1223
 11602 0c3b 00       		.uleb128 0
 11603 0c3c E202     		.uleb128 .LEHB446-.LFB1223
 11604 0c3e 38       		.uleb128 .LEHE446-.LEHB446
 11605 0c3f D704     		.uleb128 .L1182-.LFB1223
 11606 0c41 00       		.uleb128 0
 11607 0c42 9D03     		.uleb128 .LEHB447-.LFB1223
 11608 0c44 05       		.uleb128 .LEHE447-.LEHB447
 11609 0c45 EF04     		.uleb128 .L1181-.LFB1223
 11610 0c47 00       		.uleb128 0
 11611 0c48 8B04     		.uleb128 .LEHB448-.LFB1223
 11612 0c4a 2D       		.uleb128 .LEHE448-.LEHB448
 11613 0c4b C704     		.uleb128 .L1183-.LFB1223
 11614 0c4d 00       		.uleb128 0
 11615 0c4e B804     		.uleb128 .LEHB449-.LFB1223
 11616 0c50 05       		.uleb128 .LEHE449-.LEHB449
 11617 0c51 00       		.uleb128 0
 11618 0c52 00       		.uleb128 0
 11619 0c53 D204     		.uleb128 .LEHB450-.LFB1223
 11620 0c55 05       		.uleb128 .LEHE450-.LEHB450
 11621 0c56 00       		.uleb128 0
 11622 0c57 00       		.uleb128 0
 11623 0c58 EA04     		.uleb128 .LEHB451-.LFB1223
 11624 0c5a 05       		.uleb128 .LEHE451-.LEHB451
 11625 0c5b 00       		.uleb128 0
 11626 0c5c 00       		.uleb128 0
 11627 0c5d F904     		.uleb128 .LEHB452-.LFB1223
 11628 0c5f 2D       		.uleb128 .LEHE452-.LEHB452
 11629 0c60 C704     		.uleb128 .L1183-.LFB1223
 11630 0c62 00       		.uleb128 0
 11631 0c63 B005     		.uleb128 .LEHB453-.LFB1223
 11632 0c65 4E       		.uleb128 .LEHE453-.LEHB453
 11633 0c66 8306     		.uleb128 .L1180-.LFB1223
 11634 0c68 00       		.uleb128 0
 11635 0c69 8E06     		.uleb128 .LEHB454-.LFB1223
 11636 0c6b 05       		.uleb128 .LEHE454-.LEHB454
 11637 0c6c 00       		.uleb128 0
 11638 0c6d 00       		.uleb128 0
 11639              	.LLSDACSE1223:
 11640 0c6e 03       		.byte	0x3
 11641 0c6f 00       		.byte	0
 11642 0c70 02       		.byte	0x2
 11643 0c71 7D       		.byte	0x7d
 11644 0c72 01       		.byte	0x1
 11645 0c73 7D       		.byte	0x7d
 11646 0c74 00       		.byte	0
 11647 0c75 7D       		.byte	0x7d
 11648 0c76 0000     		.align 4
 11649 0c78 00000000 		.long	0
 11650              	
 11651 0c7c 00000000 		.long	DW.ref._ZTISt9exception-.
 11652 0c80 00000000 		.long	DW.ref._ZTIN8UnitTest15AssertExceptionE-.
 11653              	.LLSDATT1223:
 11654              		.text
 11656              		.section	.rodata.str1.8
 11657              		.align 8
 11658              	.LC45:
 11659 0698 556E6861 		.string	"Unhandled exception in CHECK_EQUAL(0, RunTestsIf(list, NULL, True(), 0))"
 11659      6E646C65 
 11659      64206578 
 11659      63657074 
 11659      696F6E20 
 11660 06e1 00000000 		.align 8
 11660      000000
 11661              	.LC46:
 11662 06e8 556E6861 		.string	"Unhandled exception in CHECK_EQUAL(0, reporter.testRunCount)"
 11662      6E646C65 
 11662      64206578 
 11662      63657074 
 11662      696F6E20 
 11663              		.text
 11664 5ca3 0F1F0066 		.p2align 4,,15
 11664      2E0F1F84 
 11664      00000000 
 11664      00
 11666              	_ZN8UnitTest11ExecuteTestIN12_GLOBAL__N_158TestRunnerFixtureFailureCountIsZeroWhenNoTestsAreRunHelp
 11667              	.LFB1412:
 11668              		.cfi_startproc
 11669              		.cfi_personality 0x9b,DW.ref.__gxx_personality_v0
 11670              		.cfi_lsda 0x1b,.LLSDA1412
 11671 5cb0 4155     		pushq	%r13
 11672              		.cfi_def_cfa_offset 16
 11673              		.cfi_offset 13, -16
 11674 5cb2 4154     		pushq	%r12
 11675              		.cfi_def_cfa_offset 24
 11676              		.cfi_offset 12, -24
 11677 5cb4 55       		pushq	%rbp
 11678              		.cfi_def_cfa_offset 32
 11679              		.cfi_offset 6, -32
 11680 5cb5 53       		pushq	%rbx
 11681              		.cfi_def_cfa_offset 40
 11682              		.cfi_offset 3, -40
 11683 5cb6 4889F3   		movq	%rsi, %rbx
 11684 5cb9 4881EC18 		subq	$1816, %rsp
 11684      070000
 11685              		.cfi_def_cfa_offset 1856
 11686 5cc0 48893C24 		movq	%rdi, (%rsp)
 11687 5cc4 48897424 		movq	%rsi, 8(%rsp)
 11687      08
 11688 5cc9 64488B04 		movq	%fs:40, %rax
 11688      25280000 
 11688      00
 11689 5cd2 48898424 		movq	%rax, 1800(%rsp)
 11689      08070000 
 11690 5cda 31C0     		xorl	%eax, %eax
 11691              	.LEHB455:
 11692 5cdc E8000000 		call	_ZN8UnitTest11CurrentTest7DetailsEv@PLT
 11692      00
 11693              	.LEHE455:
 11694 5ce1 488DBC24 		leaq	672(%rsp), %rdi
 11694      A0020000 
 11695 5ce9 488918   		movq	%rbx, (%rax)
 11696              	.LEHB456:
 11697 5cec E8000000 		call	_ZN8UnitTest16SignalTranslatorC1Ev@PLT
 11697      00
 11698              	.LEHE456:
 11699 5cf1 488B3D00 		movq	_ZN8UnitTest16SignalTranslator12s_jumpTargetE(%rip), %rdi
 11699      000000
 11700 5cf8 BE010000 		movl	$1, %esi
 11700      00
 11701 5cfd E8000000 		call	__sigsetjmp@PLT
 11701      00
 11702 5d02 85C0     		testl	%eax, %eax
 11703 5d04 742A     		je	.L1210
 11704 5d06 BF080000 		movl	$8, %edi
 11704      00
 11705 5d0b E8000000 		call	__cxa_allocate_exception@PLT
 11705      00
 11706 5d10 488D0D00 		leaq	.LC3(%rip), %rcx
 11706      000000
 11707 5d17 488D3500 		leaq	_ZTIPKc(%rip), %rsi
 11707      000000
 11708 5d1e 31D2     		xorl	%edx, %edx
 11709 5d20 4889C7   		movq	%rax, %rdi
 11710 5d23 488908   		movq	%rcx, (%rax)
 11711              	.LEHB457:
 11712 5d26 E8000000 		call	__cxa_throw@PLT
 11712      00
 11713              	.LEHE457:
 11714 5d2b 0F1F4400 		.p2align 4,,10
 11714      00
 11715              		.p2align 3
 11716              	.L1210:
 11717              	.LEHB458:
 11718 5d30 E8000000 		call	_ZN8UnitTest11CurrentTest7DetailsEv@PLT
 11718      00
 11719 5d35 488B30   		movq	(%rax), %rsi
 11720 5d38 488DBC24 		leaq	224(%rsp), %rdi
 11720      E0000000 
 11721 5d40 BA670000 		movl	$103, %edx
 11721      00
 11722 5d45 E8000000 		call	_ZN8UnitTest11TestDetailsC1ERKS0_i@PLT
 11722      00
 11723 5d4a 488B2C24 		movq	(%rsp), %rbp
 11724 5d4e 488D9D48 		leaq	2120(%rbp), %rbx
 11724      080000
 11725 5d55 E8000000 		call	_ZN8UnitTest11CurrentTest7ResultsEv@PLT
 11725      00
 11726 5d5a 4C8B28   		movq	(%rax), %r13
 11727 5d5d E8000000 		call	_ZN8UnitTest11CurrentTest7DetailsEv@PLT
 11727      00
 11728 5d62 4889DF   		movq	%rbx, %rdi
 11729 5d65 4C8B20   		movq	(%rax), %r12
 11730 5d68 E8000000 		call	_ZNK8UnitTest8TestList7GetHeadEv@PLT
 11730      00
 11731 5d6d 4885C0   		testq	%rax, %rax
 11732 5d70 4889C3   		movq	%rax, %rbx
 11733 5d73 0F853101 		jne	.L1213
 11733      0000
 11734 5d79 0F1F8000 		.p2align 4,,10
 11734      000000
 11735              		.p2align 3
 11736              	.L1211:
 11737 5d80 488B3C24 		movq	(%rsp), %rdi
 11738 5d84 E8000000 		call	_ZNK8UnitTest10TestRunner6FinishEv@PLT
 11738      00
 11739 5d89 89C3     		movl	%eax, %ebx
 11740 5d8b E8000000 		call	_ZN8UnitTest11CurrentTest7ResultsEv@PLT
 11740      00
 11741 5d90 4C8928   		movq	%r13, (%rax)
 11742 5d93 E8000000 		call	_ZN8UnitTest11CurrentTest7DetailsEv@PLT
 11742      00
 11743 5d98 4C8920   		movq	%r12, (%rax)
 11744 5d9b 895C241C 		movl	%ebx, 28(%rsp)
 11745 5d9f C7442418 		movl	$0, 24(%rsp)
 11745      00000000 
 11746 5da7 E8000000 		call	_ZN8UnitTest11CurrentTest7ResultsEv@PLT
 11746      00
 11747 5dac 488B38   		movq	(%rax), %rdi
 11748 5daf 488D8C24 		leaq	224(%rsp), %rcx
 11748      E0000000 
 11749 5db7 488D5424 		leaq	28(%rsp), %rdx
 11749      1C
 11750 5dbc 488D7424 		leaq	24(%rsp), %rsi
 11750      18
 11751 5dc1 E8000000 		call	_ZN8UnitTest10CheckEqualIiiEEvRNS_11TestResultsERKT_RKT0_RKNS_11TestDetailsE
 11751      00
 11752              	.LEHE458:
 11753              	.L1217:
 11754              	.LEHB459:
 11755 5dc6 E8000000 		call	_ZN8UnitTest11CurrentTest7DetailsEv@PLT
 11755      00
 11756 5dcb 488B30   		movq	(%rax), %rsi
 11757 5dce 488DBC24 		leaq	160(%rsp), %rdi
 11757      A0000000 
 11758 5dd6 BA680000 		movl	$104, %edx
 11758      00
 11759 5ddb E8000000 		call	_ZN8UnitTest11TestDetailsC1ERKS0_i@PLT
 11759      00
 11760 5de0 488B0424 		movq	(%rsp), %rax
 11761 5de4 C7442414 		movl	$0, 20(%rsp)
 11761      00000000 
 11762 5dec 488D5820 		leaq	32(%rax), %rbx
 11763 5df0 E8000000 		call	_ZN8UnitTest11CurrentTest7ResultsEv@PLT
 11763      00
 11764 5df5 488B38   		movq	(%rax), %rdi
 11765 5df8 488D8C24 		leaq	160(%rsp), %rcx
 11765      A0000000 
 11766 5e00 488D7424 		leaq	20(%rsp), %rsi
 11766      14
 11767 5e05 4889DA   		movq	%rbx, %rdx
 11768 5e08 E8000000 		call	_ZN8UnitTest10CheckEqualIiiEEvRNS_11TestResultsERKT_RKT0_RKNS_11TestDetailsE
 11768      00
 11769              	.LEHE459:
 11770              	.L1221:
 11771              	.LEHB460:
 11772 5e0d E8000000 		call	_ZN8UnitTest11CurrentTest7DetailsEv@PLT
 11772      00
 11773 5e12 488B30   		movq	(%rax), %rsi
 11774 5e15 488D7C24 		leaq	96(%rsp), %rdi
 11774      60
 11775 5e1a BA690000 		movl	$105, %edx
 11775      00
 11776 5e1f E8000000 		call	_ZN8UnitTest11TestDetailsC1ERKS0_i@PLT
 11776      00
 11777 5e24 488B1C24 		movq	(%rsp), %rbx
 11778 5e28 C7442410 		movl	$0, 16(%rsp)
 11778      00000000 
 11779 5e30 4881C324 		addq	$548, %rbx
 11779      020000
 11780 5e37 E8000000 		call	_ZN8UnitTest11CurrentTest7ResultsEv@PLT
 11780      00
 11781 5e3c 488B38   		movq	(%rax), %rdi
 11782 5e3f 488D4C24 		leaq	96(%rsp), %rcx
 11782      60
 11783 5e44 488D7424 		leaq	16(%rsp), %rsi
 11783      10
 11784 5e49 4889DA   		movq	%rbx, %rdx
 11785 5e4c E8000000 		call	_ZN8UnitTest10CheckEqualIiiEEvRNS_11TestResultsERKT_RKT0_RKNS_11TestDetailsE
 11785      00
 11786              	.LEHE460:
 11787              	.L1215:
 11788 5e51 488DBC24 		leaq	672(%rsp), %rdi
 11788      A0020000 
 11789              	.LEHB461:
 11790 5e59 E8000000 		call	_ZN8UnitTest16SignalTranslatorD1Ev@PLT
 11790      00
 11791              	.LEHE461:
 11792              	.L1208:
 11793 5e5e 488B8424 		movq	1800(%rsp), %rax
 11793      08070000 
 11794 5e66 64483304 		xorq	%fs:40, %rax
 11794      25280000 
 11794      00
 11795 5e6f 0F85F800 		jne	.L1252
 11795      0000
 11796 5e75 4881C418 		addq	$1816, %rsp
 11796      070000
 11797              		.cfi_remember_state
 11798              		.cfi_def_cfa_offset 40
 11799 5e7c 5B       		popq	%rbx
 11800              		.cfi_def_cfa_offset 32
 11801 5e7d 5D       		popq	%rbp
 11802              		.cfi_def_cfa_offset 24
 11803 5e7e 415C     		popq	%r12
 11804              		.cfi_def_cfa_offset 16
 11805 5e80 415D     		popq	%r13
 11806              		.cfi_def_cfa_offset 8
 11807 5e82 C3       		ret
 11808              		.p2align 4,,10
 11809 5e83 0F1F4400 		.p2align 3
 11809      00
 11810              	.L1212:
 11811              		.cfi_restore_state
 11812 5e88 488B0424 		movq	(%rsp), %rax
 11813 5e8c 31C9     		xorl	%ecx, %ecx
 11814 5e8e 4889DA   		movq	%rbx, %rdx
 11815 5e91 4889EF   		movq	%rbp, %rdi
 11816 5e94 488B7008 		movq	8(%rax), %rsi
 11817              	.LEHB462:
 11818 5e98 E8000000 		call	_ZNK8UnitTest10TestRunner7RunTestEPNS_11TestResultsEPNS_4TestEi@PLT
 11818      00
 11819              	.L1214:
 11820 5e9d 488B5B28 		movq	40(%rbx), %rbx
 11821 5ea1 4885DB   		testq	%rbx, %rbx
 11822 5ea4 0F84D6FE 		je	.L1211
 11822      FFFF
 11823              	.L1213:
 11824 5eaa 31D2     		xorl	%edx, %edx
 11825 5eac 4889DE   		movq	%rbx, %rsi
 11826 5eaf 4889EF   		movq	%rbp, %rdi
 11827 5eb2 E8000000 		call	_ZNK8UnitTest10TestRunner13IsTestInSuiteEPKNS_4TestEPKc@PLT
 11827      00
 11828              	.LEHE462:
 11829 5eb7 84C0     		testb	%al, %al
 11830 5eb9 74E2     		je	.L1214
 11831 5ebb EBCB     		jmp	.L1212
 11832              	.L1237:
 11833 5ebd 4889C3   		movq	%rax, %rbx
 11834 5ec0 4889D5   		movq	%rdx, %rbp
 11835              	.L1219:
 11836 5ec3 488DBC24 		leaq	672(%rsp), %rdi
 11836      A0020000 
 11837 5ecb E8000000 		call	_ZN8UnitTest16SignalTranslatorD1Ev@PLT
 11837      00
 11838 5ed0 4889DF   		movq	%rbx, %rdi
 11839 5ed3 4889EA   		movq	%rbp, %rdx
 11840              	.L1225:
 11841 5ed6 4883FA01 		cmpq	$1, %rdx
 11842 5eda 0F84EF01 		je	.L1227
 11842      0000
 11843 5ee0 4883FA02 		cmpq	$2, %rdx
 11844 5ee4 0F85BD01 		jne	.L1253
 11844      0000
 11845 5eea E8000000 		call	__cxa_begin_catch@PLT
 11845      00
 11846 5eef 488DBC24 		leaq	256(%rsp), %rdi
 11846      00010000 
 11847 5ef7 4889C3   		movq	%rax, %rbx
 11848              	.LEHB463:
 11849 5efa E8000000 		call	_ZN8UnitTest15MemoryOutStreamC1Ev
 11849      00
 11850              	.LEHE463:
 11851 5eff 488DBC24 		leaq	256(%rsp), %rdi
 11851      00010000 
 11852 5f07 488D3500 		leaq	.LC11(%rip), %rsi
 11852      000000
 11853 5f0e BA150000 		movl	$21, %edx
 11853      00
 11854              	.LEHB464:
 11855 5f13 E8000000 		call	_ZSt16__ostream_insertIcSt11char_traitsIcEERSt13basic_ostreamIT_T0_ES6_PKS3_l@PLT
 11855      00
 11856 5f18 488B03   		movq	(%rbx), %rax
 11857 5f1b 4889DF   		movq	%rbx, %rdi
 11858 5f1e FF5010   		call	*16(%rax)
 11859 5f21 488DBC24 		leaq	256(%rsp), %rdi
 11859      00010000 
 11860 5f29 4889C6   		movq	%rax, %rsi
 11861 5f2c E8000000 		call	_ZStlsISt11char_traitsIcEERSt13basic_ostreamIcT_ES5_PKc@PLT
 11861      00
 11862 5f31 E8000000 		call	_ZN8UnitTest11CurrentTest7ResultsEv@PLT
 11862      00
 11863 5f36 488DBC24 		leaq	256(%rsp), %rdi
 11863      00010000 
 11864 5f3e 488B18   		movq	(%rax), %rbx
 11865 5f41 E8000000 		call	_ZNK8UnitTest15MemoryOutStream7GetTextEv@PLT
 11865      00
 11866 5f46 488B7424 		movq	8(%rsp), %rsi
 11866      08
 11867 5f4b 4889C2   		movq	%rax, %rdx
 11868 5f4e 4889DF   		movq	%rbx, %rdi
 11869 5f51 E8000000 		call	_ZN8UnitTest11TestResults13OnTestFailureERKNS_11TestDetailsEPKc@PLT
 11869      00
 11870              	.LEHE464:
 11871 5f56 488DBC24 		leaq	256(%rsp), %rdi
 11871      00010000 
 11872              	.LEHB465:
 11873 5f5e E8000000 		call	_ZN8UnitTest15MemoryOutStreamD1Ev
 11873      00
 11874              	.LEHE465:
 11875              	.L1250:
 11876 5f63 E8000000 		call	__cxa_end_catch@PLT
 11876      00
 11877 5f68 E9F1FEFF 		jmp	.L1208
 11877      FF
 11878              	.L1252:
 11879 5f6d E8000000 		call	__stack_chk_fail@PLT
 11879      00
 11880              	.L1236:
 11881 5f72 4889C7   		movq	%rax, %rdi
 11882 5f75 E95CFFFF 		jmp	.L1225
 11882      FF
 11883              	.L1245:
 11884 5f7a 4889C7   		movq	%rax, %rdi
 11885 5f7d E8000000 		call	__cxa_begin_catch@PLT
 11885      00
 11886              	.LEHB466:
 11887 5f82 E8000000 		call	_ZN8UnitTest11CurrentTest7ResultsEv@PLT
 11887      00
 11888 5f87 488B18   		movq	(%rax), %rbx
 11889 5f8a E8000000 		call	_ZN8UnitTest11CurrentTest7DetailsEv@PLT
 11889      00
 11890 5f8f 488B30   		movq	(%rax), %rsi
 11891 5f92 488DBC24 		leaq	128(%rsp), %rdi
 11891      80000000 
 11892 5f9a BA680000 		movl	$104, %edx
 11892      00
 11893 5f9f E8000000 		call	_ZN8UnitTest11TestDetailsC1ERKS0_i@PLT
 11893      00
 11894 5fa4 488DB424 		leaq	128(%rsp), %rsi
 11894      80000000 
 11895 5fac 488D1500 		leaq	.LC46(%rip), %rdx
 11895      000000
 11896 5fb3 4889DF   		movq	%rbx, %rdi
 11897 5fb6 E8000000 		call	_ZN8UnitTest11TestResults13OnTestFailureERKNS_11TestDetailsEPKc@PLT
 11897      00
 11898              	.LEHE466:
 11899              	.LEHB467:
 11900 5fbb E8000000 		call	__cxa_end_catch@PLT
 11900      00
 11901              	.LEHE467:
 11902 5fc0 E948FEFF 		jmp	.L1221
 11902      FF
 11903              	.L1243:
 11904 5fc5 4889C7   		movq	%rax, %rdi
 11905 5fc8 E8000000 		call	__cxa_begin_catch@PLT
 11905      00
 11906              	.LEHB468:
 11907 5fcd E8000000 		call	_ZN8UnitTest11CurrentTest7ResultsEv@PLT
 11907      00
 11908 5fd2 488B18   		movq	(%rax), %rbx
 11909 5fd5 E8000000 		call	_ZN8UnitTest11CurrentTest7DetailsEv@PLT
 11909      00
 11910 5fda 488B30   		movq	(%rax), %rsi
 11911 5fdd 488D7C24 		leaq	64(%rsp), %rdi
 11911      40
 11912 5fe2 BA690000 		movl	$105, %edx
 11912      00
 11913 5fe7 E8000000 		call	_ZN8UnitTest11TestDetailsC1ERKS0_i@PLT
 11913      00
 11914 5fec 488D7424 		leaq	64(%rsp), %rsi
 11914      40
 11915 5ff1 488D1500 		leaq	.LC26(%rip), %rdx
 11915      000000
 11916 5ff8 4889DF   		movq	%rbx, %rdi
 11917 5ffb E8000000 		call	_ZN8UnitTest11TestResults13OnTestFailureERKNS_11TestDetailsEPKc@PLT
 11917      00
 11918              	.LEHE468:
 11919              	.LEHB469:
 11920 6000 E8000000 		call	__cxa_end_catch@PLT
 11920      00
 11921              	.LEHE469:
 11922 6005 E947FEFF 		jmp	.L1215
 11922      FF
 11923              	.L1247:
 11924 600a 4889C7   		movq	%rax, %rdi
 11925 600d E8000000 		call	__cxa_begin_catch@PLT
 11925      00
 11926              	.LEHB470:
 11927 6012 E8000000 		call	_ZN8UnitTest11CurrentTest7ResultsEv@PLT
 11927      00
 11928 6017 488B18   		movq	(%rax), %rbx
 11929 601a E8000000 		call	_ZN8UnitTest11CurrentTest7DetailsEv@PLT
 11929      00
 11930 601f 488B30   		movq	(%rax), %rsi
 11931 6022 488DBC24 		leaq	192(%rsp), %rdi
 11931      C0000000 
 11932 602a BA670000 		movl	$103, %edx
 11932      00
 11933 602f E8000000 		call	_ZN8UnitTest11TestDetailsC1ERKS0_i@PLT
 11933      00
 11934 6034 488DB424 		leaq	192(%rsp), %rsi
 11934      C0000000 
 11935 603c 488D1500 		leaq	.LC45(%rip), %rdx
 11935      000000
 11936 6043 4889DF   		movq	%rbx, %rdi
 11937 6046 E8000000 		call	_ZN8UnitTest11TestResults13OnTestFailureERKNS_11TestDetailsEPKc@PLT
 11937      00
 11938              	.LEHE470:
 11939              	.LEHB471:
 11940 604b E8000000 		call	__cxa_end_catch@PLT
 11940      00
 11941              	.LEHE471:
 11942 6050 E971FDFF 		jmp	.L1217
 11942      FF
 11943              	.L1244:
 11944 6055 4889C3   		movq	%rax, %rbx
 11945 6058 4889D5   		movq	%rdx, %rbp
 11946 605b E8000000 		call	__cxa_end_catch@PLT
 11946      00
 11947 6060 E95EFEFF 		jmp	.L1219
 11947      FF
 11948              	.L1242:
 11949 6065 4889C3   		movq	%rax, %rbx
 11950 6068 4889D5   		movq	%rdx, %rbp
 11951 606b E8000000 		call	__cxa_end_catch@PLT
 11951      00
 11952 6070 E94EFEFF 		jmp	.L1219
 11952      FF
 11953              	.L1246:
 11954 6075 4889C3   		movq	%rax, %rbx
 11955 6078 4889D5   		movq	%rdx, %rbp
 11956 607b E8000000 		call	__cxa_end_catch@PLT
 11956      00
 11957 6080 E93EFEFF 		jmp	.L1219
 11957      FF
 11958              	.L1240:
 11959 6085 488DBC24 		leaq	256(%rsp), %rdi
 11959      00010000 
 11960 608d 4889C3   		movq	%rax, %rbx
 11961 6090 E8000000 		call	_ZN8UnitTest15MemoryOutStreamD1Ev
 11961      00
 11962              	.L1233:
 11963 6095 E8000000 		call	__cxa_end_catch@PLT
 11963      00
 11964 609a 4889DF   		movq	%rbx, %rdi
 11965              	.LEHB472:
 11966 609d E8000000 		call	_Unwind_Resume@PLT
 11966      00
 11967              	.LEHE472:
 11968              	.L1239:
 11969              	.L1251:
 11970 60a2 4889C3   		movq	%rax, %rbx
 11971 60a5 EBEE     		jmp	.L1233
 11972              	.L1253:
 11973 60a7 E8000000 		call	__cxa_begin_catch@PLT
 11973      00
 11974              	.LEHB473:
 11975 60ac E8000000 		call	_ZN8UnitTest11CurrentTest7ResultsEv@PLT
 11975      00
 11976 60b1 488B7424 		movq	8(%rsp), %rsi
 11976      08
 11977 60b6 488B38   		movq	(%rax), %rdi
 11978 60b9 488D1500 		leaq	.LC12(%rip), %rdx
 11978      000000
 11979 60c0 E8000000 		call	_ZN8UnitTest11TestResults13OnTestFailureERKNS_11TestDetailsEPKc@PLT
 11979      00
 11980              	.LEHE473:
 11981              	.LEHB474:
 11982 60c5 E8000000 		call	__cxa_end_catch@PLT
 11982      00
 11983              	.LEHE474:
 11984 60ca E98FFDFF 		jmp	.L1208
 11984      FF
 11985              	.L1227:
 11986 60cf E8000000 		call	__cxa_begin_catch@PLT
 11986      00
 11987 60d4 4889C3   		movq	%rax, %rbx
 11988              	.LEHB475:
 11989 60d7 E8000000 		call	_ZN8UnitTest11CurrentTest7ResultsEv@PLT
 11989      00
 11990 60dc 488B28   		movq	(%rax), %rbp
 11991 60df 488B03   		movq	(%rbx), %rax
 11992 60e2 4889DF   		movq	%rbx, %rdi
 11993 60e5 FF5010   		call	*16(%rax)
 11994 60e8 4889DF   		movq	%rbx, %rdi
 11995 60eb 4989C4   		movq	%rax, %r12
 11996 60ee E8000000 		call	_ZNK8UnitTest15AssertException10LineNumberEv@PLT
 11996      00
 11997 60f3 4889DF   		movq	%rbx, %rdi
 11998 60f6 4189C5   		movl	%eax, %r13d
 11999 60f9 E8000000 		call	_ZNK8UnitTest15AssertException8FilenameEv@PLT
 11999      00
 12000 60fe 488B5424 		movq	8(%rsp), %rdx
 12000      08
 12001 6103 488D7C24 		leaq	32(%rsp), %rdi
 12001      20
 12002 6108 4589E8   		movl	%r13d, %r8d
 12003 610b 4889C1   		movq	%rax, %rcx
 12004 610e 488B7208 		movq	8(%rdx), %rsi
 12005 6112 488B12   		movq	(%rdx), %rdx
 12006 6115 E8000000 		call	_ZN8UnitTest11TestDetailsC1EPKcS2_S2_i@PLT
 12006      00
 12007 611a 488D7424 		leaq	32(%rsp), %rsi
 12007      20
 12008 611f 4C89E2   		movq	%r12, %rdx
 12009 6122 4889EF   		movq	%rbp, %rdi
 12010 6125 E8000000 		call	_ZN8UnitTest11TestResults13OnTestFailureERKNS_11TestDetailsEPKc@PLT
 12010      00
 12011              	.LEHE475:
 12012 612a E934FEFF 		jmp	.L1250
 12012      FF
 12013              	.L1241:
 12014 612f 4889C3   		movq	%rax, %rbx
 12015 6132 E8000000 		call	__cxa_end_catch@PLT
 12015      00
 12016 6137 4889DF   		movq	%rbx, %rdi
 12017              	.LEHB476:
 12018 613a E8000000 		call	_Unwind_Resume@PLT
 12018      00
 12019              	.LEHE476:
 12020              	.L1238:
 12021 613f E95EFFFF 		jmp	.L1251
 12021      FF
 12022              		.cfi_endproc
 12023              	.LFE1412:
 12024              		.section	.gcc_except_table
 12025              		.align 4
 12026              	.LLSDA1412:
 12027 0c84 FF       		.byte	0xff
 12028 0c85 9B       		.byte	0x9b
 12029 0c86 9401     		.uleb128 .LLSDATT1412-.LLSDATTD1412
 12030              	.LLSDATTD1412:
 12031 0c88 01       		.byte	0x1
 12032 0c89 7E       		.uleb128 .LLSDACSE1412-.LLSDACSB1412
 12033              	.LLSDACSB1412:
 12034 0c8a 2C       		.uleb128 .LEHB455-.LFB1412
 12035 0c8b 05       		.uleb128 .LEHE455-.LEHB455
 12036 0c8c 00       		.uleb128 0
 12037 0c8d 00       		.uleb128 0
 12038 0c8e 3C       		.uleb128 .LEHB456-.LFB1412
 12039 0c8f 05       		.uleb128 .LEHE456-.LEHB456
 12040 0c90 C205     		.uleb128 .L1236-.LFB1412
 12041 0c92 05       		.uleb128 0x5
 12042 0c93 76       		.uleb128 .LEHB457-.LFB1412
 12043 0c94 05       		.uleb128 .LEHE457-.LEHB457
 12044 0c95 8D04     		.uleb128 .L1237-.LFB1412
 12045 0c97 07       		.uleb128 0x7
 12046 0c98 8001     		.uleb128 .LEHB458-.LFB1412
 12047 0c9a 9601     		.uleb128 .LEHE458-.LEHB458
 12048 0c9c DA06     		.uleb128 .L1247-.LFB1412
 12049 0c9e 01       		.uleb128 0x1
 12050 0c9f 9602     		.uleb128 .LEHB459-.LFB1412
 12051 0ca1 47       		.uleb128 .LEHE459-.LEHB459
 12052 0ca2 CA05     		.uleb128 .L1245-.LFB1412
 12053 0ca4 01       		.uleb128 0x1
 12054 0ca5 DD02     		.uleb128 .LEHB460-.LFB1412
 12055 0ca7 44       		.uleb128 .LEHE460-.LEHB460
 12056 0ca8 9506     		.uleb128 .L1243-.LFB1412
 12057 0caa 01       		.uleb128 0x1
 12058 0cab A903     		.uleb128 .LEHB461-.LFB1412
 12059 0cad 05       		.uleb128 .LEHE461-.LEHB461
 12060 0cae C205     		.uleb128 .L1236-.LFB1412
 12061 0cb0 05       		.uleb128 0x5
 12062 0cb1 E803     		.uleb128 .LEHB462-.LFB1412
 12063 0cb3 1F       		.uleb128 .LEHE462-.LEHB462
 12064 0cb4 DA06     		.uleb128 .L1247-.LFB1412
 12065 0cb6 01       		.uleb128 0x1
 12066 0cb7 CA04     		.uleb128 .LEHB463-.LFB1412
 12067 0cb9 05       		.uleb128 .LEHE463-.LEHB463
 12068 0cba F207     		.uleb128 .L1239-.LFB1412
 12069 0cbc 00       		.uleb128 0
 12070 0cbd E304     		.uleb128 .LEHB464-.LFB1412
 12071 0cbf 43       		.uleb128 .LEHE464-.LEHB464
 12072 0cc0 D507     		.uleb128 .L1240-.LFB1412
 12073 0cc2 00       		.uleb128 0
 12074 0cc3 AE05     		.uleb128 .LEHB465-.LFB1412
 12075 0cc5 05       		.uleb128 .LEHE465-.LEHB465
 12076 0cc6 F207     		.uleb128 .L1239-.LFB1412
 12077 0cc8 00       		.uleb128 0
 12078 0cc9 D205     		.uleb128 .LEHB466-.LFB1412
 12079 0ccb 39       		.uleb128 .LEHE466-.LEHB466
 12080 0ccc A507     		.uleb128 .L1244-.LFB1412
 12081 0cce 07       		.uleb128 0x7
 12082 0ccf 8B06     		.uleb128 .LEHB467-.LFB1412
 12083 0cd1 05       		.uleb128 .LEHE467-.LEHB467
 12084 0cd2 8D04     		.uleb128 .L1237-.LFB1412
 12085 0cd4 07       		.uleb128 0x7
 12086 0cd5 9D06     		.uleb128 .LEHB468-.LFB1412
 12087 0cd7 33       		.uleb128 .LEHE468-.LEHB468
 12088 0cd8 B507     		.uleb128 .L1242-.LFB1412
 12089 0cda 07       		.uleb128 0x7
 12090 0cdb D006     		.uleb128 .LEHB469-.LFB1412
 12091 0cdd 05       		.uleb128 .LEHE469-.LEHB469
 12092 0cde 8D04     		.uleb128 .L1237-.LFB1412
 12093 0ce0 07       		.uleb128 0x7
 12094 0ce1 E206     		.uleb128 .LEHB470-.LFB1412
 12095 0ce3 39       		.uleb128 .LEHE470-.LEHB470
 12096 0ce4 C507     		.uleb128 .L1246-.LFB1412
 12097 0ce6 07       		.uleb128 0x7
 12098 0ce7 9B07     		.uleb128 .LEHB471-.LFB1412
 12099 0ce9 05       		.uleb128 .LEHE471-.LEHB471
 12100 0cea 8D04     		.uleb128 .L1237-.LFB1412
 12101 0cec 07       		.uleb128 0x7
 12102 0ced ED07     		.uleb128 .LEHB472-.LFB1412
 12103 0cef 05       		.uleb128 .LEHE472-.LEHB472
 12104 0cf0 00       		.uleb128 0
 12105 0cf1 00       		.uleb128 0
 12106 0cf2 FC07     		.uleb128 .LEHB473-.LFB1412
 12107 0cf4 19       		.uleb128 .LEHE473-.LEHB473
 12108 0cf5 FF08     		.uleb128 .L1241-.LFB1412
 12109 0cf7 00       		.uleb128 0
 12110 0cf8 9508     		.uleb128 .LEHB474-.LFB1412
 12111 0cfa 05       		.uleb128 .LEHE474-.LEHB474
 12112 0cfb 00       		.uleb128 0
 12113 0cfc 00       		.uleb128 0
 12114 0cfd A708     		.uleb128 .LEHB475-.LFB1412
 12115 0cff 53       		.uleb128 .LEHE475-.LEHB475
 12116 0d00 8F09     		.uleb128 .L1238-.LFB1412
 12117 0d02 00       		.uleb128 0
 12118 0d03 8A09     		.uleb128 .LEHB476-.LFB1412
 12119 0d05 05       		.uleb128 .LEHE476-.LEHB476
 12120 0d06 00       		.uleb128 0
 12121 0d07 00       		.uleb128 0
 12122              	.LLSDACSE1412:
 12123 0d08 03       		.byte	0x3
 12124 0d09 00       		.byte	0
 12125 0d0a 02       		.byte	0x2
 12126 0d0b 7D       		.byte	0x7d
 12127 0d0c 01       		.byte	0x1
 12128 0d0d 7D       		.byte	0x7d
 12129 0d0e 00       		.byte	0
 12130 0d0f 7D       		.byte	0x7d
 12131              		.align 4
 12132 0d10 00000000 		.long	0
 12133              	
 12134 0d14 00000000 		.long	DW.ref._ZTISt9exception-.
 12135 0d18 00000000 		.long	DW.ref._ZTIN8UnitTest15AssertExceptionE-.
 12136              	.LLSDATT1412:
 12137              		.text
 12139              		.align 2
 12140 6144 6690662E 		.p2align 4,,15
 12140      0F1F8400 
 12140      00000000 
 12142              	_ZNK12_GLOBAL__N_156TestTestRunnerFixtureFailureCountIsZeroWhenNoTestsAreRun7RunImplEv:
 12143              	.LFB1212:
 12144              		.cfi_startproc
 12145              		.cfi_personality 0x9b,DW.ref.__gxx_personality_v0
 12146              		.cfi_lsda 0x1b,.LLSDA1212
 12147 6150 4156     		pushq	%r14
 12148              		.cfi_def_cfa_offset 16
 12149              		.cfi_offset 14, -16
 12150 6152 4155     		pushq	%r13
 12151              		.cfi_def_cfa_offset 24
 12152              		.cfi_offset 13, -24
 12153 6154 4989FD   		movq	%rdi, %r13
 12154 6157 4154     		pushq	%r12
 12155              		.cfi_def_cfa_offset 32
 12156              		.cfi_offset 12, -32
 12157 6159 55       		pushq	%rbp
 12158              		.cfi_def_cfa_offset 40
 12159              		.cfi_offset 6, -40
 12160 615a 488D6F08 		leaq	8(%rdi), %rbp
 12161 615e 53       		pushq	%rbx
 12162              		.cfi_def_cfa_offset 48
 12163              		.cfi_offset 3, -48
 12164 615f 4881EC90 		subq	$2192, %rsp
 12164      080000
 12165              		.cfi_def_cfa_offset 2240
 12166 6166 488D5C24 		leaq	32(%rsp), %rbx
 12166      20
 12167 616b 64488B04 		movq	%fs:40, %rax
 12167      25280000 
 12167      00
 12168 6174 48898424 		movq	%rax, 2184(%rsp)
 12168      88080000 
 12169 617c 31C0     		xorl	%eax, %eax
 12170 617e 488D7318 		leaq	24(%rbx), %rsi
 12171 6182 4889DF   		movq	%rbx, %rdi
 12172              	.LEHB477:
 12173 6185 E8000000 		call	_ZN8UnitTest10TestRunnerC1ERNS_12TestReporterE@PLT
 12173      00
 12174              	.LEHE477:
 12175 618a 4C8D2500 		leaq	16+_ZTV17RecordingReporter(%rip), %r12
 12175      000000
 12176 6191 488DBB48 		leaq	2120(%rbx), %rdi
 12176      080000
 12177 6198 C7442440 		movl	$0, 64(%rsp)
 12177      00000000 
 12178 61a0 C7842444 		movl	$0, 580(%rsp)
 12178      02000000 
 12178      000000
 12179 61ab C7842448 		movl	$0, 840(%rsp)
 12179      03000000 
 12179      000000
 12180 61b6 4C896424 		movq	%r12, 56(%rsp)
 12180      38
 12181 61bb C784244C 		movl	$0, 1612(%rsp)
 12181      06000000 
 12181      000000
 12182 61c6 48C78424 		movq	$0, 2128(%rsp)
 12182      50080000 
 12182      00000000 
 12183 61d2 48C78424 		movq	$0, 2136(%rsp)
 12183      58080000 
 12183      00000000 
 12184 61de C7842460 		movl	$0, 2144(%rsp)
 12184      08000000 
 12184      000000
 12185 61e9 C6442444 		movb	$0, 68(%rsp)
 12185      00
 12186 61ee C6842444 		movb	$0, 324(%rsp)
 12186      01000000 
 12187 61f6 C6842448 		movb	$0, 584(%rsp)
 12187      02000000 
 12188 61fe C684244C 		movb	$0, 844(%rsp)
 12188      03000000 
 12189 6206 C684244C 		movb	$0, 1100(%rsp)
 12189      04000000 
 12190 620e C684244C 		movb	$0, 1356(%rsp)
 12190      05000000 
 12191 6216 C6842450 		movb	$0, 1616(%rsp)
 12191      06000000 
 12192 621e C6842450 		movb	$0, 1872(%rsp)
 12192      07000000 
 12193              	.LEHB478:
 12194 6226 E8000000 		call	_ZN8UnitTest8TestListC1Ev@PLT
 12194      00
 12195              	.LEHE478:
 12196 622b 4889EE   		movq	%rbp, %rsi
 12197 622e 4889DF   		movq	%rbx, %rdi
 12198 6231 4889AC24 		movq	%rbp, 2168(%rsp)
 12198      78080000 
 12199              	.LEHB479:
 12200 6239 E872FAFF 		call	_ZN8UnitTest11ExecuteTestIN12_GLOBAL__N_158TestRunnerFixtureFailureCountIsZeroWhenNoTestsAreR
 12200      FF
 12201              	.LEHE479:
 12202 623e 488D7B18 		leaq	24(%rbx), %rdi
 12203 6242 4C896424 		movq	%r12, 56(%rsp)
 12203      38
 12204              	.LEHB480:
 12205 6247 E8000000 		call	_ZN8UnitTest12TestReporterD2Ev@PLT
 12205      00
 12206              	.LEHE480:
 12207 624c 4889DF   		movq	%rbx, %rdi
 12208              	.LEHB481:
 12209 624f E8000000 		call	_ZN8UnitTest10TestRunnerD1Ev@PLT
 12209      00
 12210              	.LEHE481:
 12211              	.L1254:
 12212 6254 488B8424 		movq	2184(%rsp), %rax
 12212      88080000 
 12213 625c 64483304 		xorq	%fs:40, %rax
 12213      25280000 
 12213      00
 12214 6265 7510     		jne	.L1302
 12215 6267 4881C490 		addq	$2192, %rsp
 12215      080000
 12216              		.cfi_remember_state
 12217              		.cfi_def_cfa_offset 48
 12218 626e 5B       		popq	%rbx
 12219              		.cfi_def_cfa_offset 40
 12220 626f 5D       		popq	%rbp
 12221              		.cfi_def_cfa_offset 32
 12222 6270 415C     		popq	%r12
 12223              		.cfi_def_cfa_offset 24
 12224 6272 415D     		popq	%r13
 12225              		.cfi_def_cfa_offset 16
 12226 6274 415E     		popq	%r14
 12227              		.cfi_def_cfa_offset 8
 12228 6276 C3       		ret
 12229              	.L1302:
 12230              		.cfi_restore_state
 12231 6277 E8000000 		call	__stack_chk_fail@PLT
 12231      00
 12232              	.L1274:
 12233 627c 4889C7   		movq	%rax, %rdi
 12234              	.L1260:
 12235 627f 4883FA01 		cmpq	$1, %rdx
 12236 6283 0F846F01 		je	.L1262
 12236      0000
 12237 6289 4883FA02 		cmpq	$2, %rdx
 12238 628d 0F853101 		jne	.L1303
 12238      0000
 12239              	.L1263:
 12240 6293 E8000000 		call	__cxa_begin_catch@PLT
 12240      00
 12241 6298 4889DF   		movq	%rbx, %rdi
 12242 629b 4989C4   		movq	%rax, %r12
 12243              	.LEHB482:
 12244 629e E8000000 		call	_ZN8UnitTest15MemoryOutStreamC1Ev
 12244      00
 12245              	.LEHE482:
 12246 62a3 488D3500 		leaq	.LC11(%rip), %rsi
 12246      000000
 12247 62aa BA150000 		movl	$21, %edx
 12247      00
 12248 62af 4889DF   		movq	%rbx, %rdi
 12249              	.LEHB483:
 12250 62b2 E8000000 		call	_ZSt16__ostream_insertIcSt11char_traitsIcEERSt13basic_ostreamIT_T0_ES6_PKS3_l@PLT
 12250      00
 12251 62b7 498B0424 		movq	(%r12), %rax
 12252 62bb 4C89E7   		movq	%r12, %rdi
 12253 62be FF5010   		call	*16(%rax)
 12254 62c1 4889DF   		movq	%rbx, %rdi
 12255 62c4 4889C6   		movq	%rax, %rsi
 12256 62c7 E8000000 		call	_ZStlsISt11char_traitsIcEERSt13basic_ostreamIcT_ES5_PKc@PLT
 12256      00
 12257 62cc E8000000 		call	_ZN8UnitTest11CurrentTest7ResultsEv@PLT
 12257      00
 12258 62d1 4889DF   		movq	%rbx, %rdi
 12259 62d4 4C8B20   		movq	(%rax), %r12
 12260 62d7 E8000000 		call	_ZNK8UnitTest15MemoryOutStream7GetTextEv@PLT
 12260      00
 12261 62dc 4889C2   		movq	%rax, %rdx
 12262 62df 4889EE   		movq	%rbp, %rsi
 12263 62e2 4C89E7   		movq	%r12, %rdi
 12264 62e5 E8000000 		call	_ZN8UnitTest11TestResults13OnTestFailureERKNS_11TestDetailsEPKc@PLT
 12264      00
 12265              	.LEHE483:
 12266 62ea 4889DF   		movq	%rbx, %rdi
 12267              	.LEHB484:
 12268 62ed E8000000 		call	_ZN8UnitTest15MemoryOutStreamD1Ev
 12268      00
 12269              	.LEHE484:
 12270              	.L1301:
 12271 62f2 E8000000 		call	__cxa_end_catch@PLT
 12271      00
 12272 62f7 E958FFFF 		jmp	.L1254
 12272      FF
 12273              	.L1281:
 12274 62fc 4989C4   		movq	%rax, %r12
 12275 62ff 4989D6   		movq	%rdx, %r14
 12276 6302 4889DF   		movq	%rbx, %rdi
 12277 6305 E8000000 		call	_ZN8UnitTest10TestRunnerD1Ev@PLT
 12277      00
 12278 630a 4C89E7   		movq	%r12, %rdi
 12279 630d 4C89F2   		movq	%r14, %rdx
 12280 6310 E96AFFFF 		jmp	.L1260
 12280      FF
 12281              	.L1275:
 12282 6315 4989C4   		movq	%rax, %r12
 12283 6318 4989D6   		movq	%rdx, %r14
 12284 631b 4889DF   		movq	%rbx, %rdi
 12285 631e E8000000 		call	_ZN12_GLOBAL__N_111FixtureBaseD2Ev
 12285      00
 12286 6323 4C89E7   		movq	%r12, %rdi
 12287 6326 4C89F2   		movq	%r14, %rdx
 12288 6329 E951FFFF 		jmp	.L1260
 12288      FF
 12289              	.L1280:
 12290 632e 4989C4   		movq	%rax, %r12
 12291 6331 4989D6   		movq	%rdx, %r14
 12292 6334 4889DF   		movq	%rbx, %rdi
 12293 6337 E8000000 		call	_ZN12_GLOBAL__N_111FixtureBaseD2Ev
 12293      00
 12294 633c 4C89E7   		movq	%r12, %rdi
 12295 633f 4C89F2   		movq	%r14, %rdx
 12296              	.L1257:
 12297 6342 4883FA01 		cmpq	$1, %rdx
 12298 6346 0F84AC00 		je	.L1262
 12298      0000
 12299 634c 4883FA02 		cmpq	$2, %rdx
 12300 6350 0F843DFF 		je	.L1263
 12300      FFFF
 12301 6356 E8000000 		call	__cxa_begin_catch@PLT
 12301      00
 12302              	.LEHB485:
 12303 635b E8000000 		call	_ZN8UnitTest11CurrentTest7ResultsEv@PLT
 12303      00
 12304 6360 4889E3   		movq	%rsp, %rbx
 12305 6363 BA650000 		movl	$101, %edx
 12305      00
 12306 6368 4889EE   		movq	%rbp, %rsi
 12307 636b 4889DF   		movq	%rbx, %rdi
 12308 636e 4C8B20   		movq	(%rax), %r12
 12309 6371 E8000000 		call	_ZN8UnitTest11TestDetailsC1ERKS0_i@PLT
 12309      00
 12310 6376 488D1500 		leaq	.LC14(%rip), %rdx
 12310      000000
 12311 637d 4889DE   		movq	%rbx, %rsi
 12312 6380 4C89E7   		movq	%r12, %rdi
 12313 6383 E8000000 		call	_ZN8UnitTest11TestResults13OnTestFailureERKNS_11TestDetailsEPKc@PLT
 12313      00
 12314              	.LEHE485:
 12315              	.L1264:
 12316              	.LEHB486:
 12317 6388 E8000000 		call	__cxa_end_catch@PLT
 12317      00
 12318              	.LEHE486:
 12319 638d E9C2FEFF 		jmp	.L1254
 12319      FF
 12320              	.L1282:
 12321 6392 4889C7   		movq	%rax, %rdi
 12322 6395 EBAB     		jmp	.L1257
 12323              	.L1279:
 12324 6397 4889C3   		movq	%rax, %rbx
 12325 639a E8000000 		call	__cxa_end_catch@PLT
 12325      00
 12326 639f 4889DF   		movq	%rbx, %rdi
 12327              	.LEHB487:
 12328 63a2 E8000000 		call	_Unwind_Resume@PLT
 12328      00
 12329              	.LEHE487:
 12330              	.L1278:
 12331 63a7 4889DF   		movq	%rbx, %rdi
 12332 63aa 4889C5   		movq	%rax, %rbp
 12333 63ad E8000000 		call	_ZN8UnitTest15MemoryOutStreamD1Ev
 12333      00
 12334              	.L1267:
 12335 63b2 E8000000 		call	__cxa_end_catch@PLT
 12335      00
 12336 63b7 4889EF   		movq	%rbp, %rdi
 12337              	.LEHB488:
 12338 63ba E8000000 		call	_Unwind_Resume@PLT
 12338      00
 12339              	.LEHE488:
 12340              	.L1277:
 12341 63bf 4889C5   		movq	%rax, %rbp
 12342 63c2 EBEE     		jmp	.L1267
 12343              	.L1303:
 12344 63c4 E8000000 		call	__cxa_begin_catch@PLT
 12344      00
 12345              	.LEHB489:
 12346 63c9 E8000000 		call	_ZN8UnitTest11CurrentTest7ResultsEv@PLT
 12346      00
 12347 63ce 4889E3   		movq	%rsp, %rbx
 12348 63d1 BA650000 		movl	$101, %edx
 12348      00
 12349 63d6 4889EE   		movq	%rbp, %rsi
 12350 63d9 4889DF   		movq	%rbx, %rdi
 12351 63dc 4C8B20   		movq	(%rax), %r12
 12352 63df E8000000 		call	_ZN8UnitTest11TestDetailsC1ERKS0_i@PLT
 12352      00
 12353 63e4 488D1500 		leaq	.LC13(%rip), %rdx
 12353      000000
 12354 63eb 4889DE   		movq	%rbx, %rsi
 12355 63ee 4C89E7   		movq	%r12, %rdi
 12356 63f1 E8000000 		call	_ZN8UnitTest11TestResults13OnTestFailureERKNS_11TestDetailsEPKc@PLT
 12356      00
 12357              	.LEHE489:
 12358 63f6 EB90     		jmp	.L1264
 12359              	.L1262:
 12360 63f8 E8000000 		call	__cxa_begin_catch@PLT
 12360      00
 12361 63fd 4889C3   		movq	%rax, %rbx
 12362              	.LEHB490:
 12363 6400 E8000000 		call	_ZN8UnitTest11CurrentTest7ResultsEv@PLT
 12363      00
 12364 6405 488B28   		movq	(%rax), %rbp
 12365 6408 488B03   		movq	(%rbx), %rax
 12366 640b 4889DF   		movq	%rbx, %rdi
 12367 640e FF5010   		call	*16(%rax)
 12368 6411 4889DF   		movq	%rbx, %rdi
 12369 6414 4989C4   		movq	%rax, %r12
 12370 6417 E8000000 		call	_ZNK8UnitTest15AssertException10LineNumberEv@PLT
 12370      00
 12371 641c 4889DF   		movq	%rbx, %rdi
 12372 641f 4189C6   		movl	%eax, %r14d
 12373 6422 E8000000 		call	_ZNK8UnitTest15AssertException8FilenameEv@PLT
 12373      00
 12374 6427 498B5508 		movq	8(%r13), %rdx
 12375 642b 498B7510 		movq	16(%r13), %rsi
 12376 642f 4889E3   		movq	%rsp, %rbx
 12377 6432 4589F0   		movl	%r14d, %r8d
 12378 6435 4889C1   		movq	%rax, %rcx
 12379 6438 4889DF   		movq	%rbx, %rdi
 12380 643b E8000000 		call	_ZN8UnitTest11TestDetailsC1EPKcS2_S2_i@PLT
 12380      00
 12381 6440 4C89E2   		movq	%r12, %rdx
 12382 6443 4889DE   		movq	%rbx, %rsi
 12383 6446 4889EF   		movq	%rbp, %rdi
 12384 6449 E8000000 		call	_ZN8UnitTest11TestResults13OnTestFailureERKNS_11TestDetailsEPKc@PLT
 12384      00
 12385              	.LEHE490:
 12386 644e E99FFEFF 		jmp	.L1301
 12386      FF
 12387              	.L1276:
 12388 6453 4889C3   		movq	%rax, %rbx
 12389 6456 E8000000 		call	__cxa_end_catch@PLT
 12389      00
 12390 645b 4889DF   		movq	%rbx, %rdi
 12391              	.LEHB491:
 12392 645e E8000000 		call	_Unwind_Resume@PLT
 12392      00
 12393              	.LEHE491:
 12394              		.cfi_endproc
 12395              	.LFE1212:
 12396              		.section	.gcc_except_table
 12397              		.align 4
 12398              	.LLSDA1212:
 12399 0d1c FF       		.byte	0xff
 12400 0d1d 9B       		.byte	0x9b
 12401 0d1e 6D       		.uleb128 .LLSDATT1212-.LLSDATTD1212
 12402              	.LLSDATTD1212:
 12403 0d1f 01       		.byte	0x1
 12404 0d20 55       		.uleb128 .LLSDACSE1212-.LLSDACSB1212
 12405              	.LLSDACSB1212:
 12406 0d21 35       		.uleb128 .LEHB477-.LFB1212
 12407 0d22 05       		.uleb128 .LEHE477-.LEHB477
 12408 0d23 C204     		.uleb128 .L1282-.LFB1212
 12409 0d25 05       		.uleb128 0x5
 12410 0d26 D601     		.uleb128 .LEHB478-.LFB1212
 12411 0d28 05       		.uleb128 .LEHE478-.LEHB478
 12412 0d29 DE03     		.uleb128 .L1280-.LFB1212
 12413 0d2b 07       		.uleb128 0x7
 12414 0d2c E901     		.uleb128 .LEHB479-.LFB1212
 12415 0d2e 05       		.uleb128 .LEHE479-.LEHB479
 12416 0d2f C503     		.uleb128 .L1275-.LFB1212
 12417 0d31 07       		.uleb128 0x7
 12418 0d32 F701     		.uleb128 .LEHB480-.LFB1212
 12419 0d34 05       		.uleb128 .LEHE480-.LEHB480
 12420 0d35 AC03     		.uleb128 .L1281-.LFB1212
 12421 0d37 07       		.uleb128 0x7
 12422 0d38 FF01     		.uleb128 .LEHB481-.LFB1212
 12423 0d3a 05       		.uleb128 .LEHE481-.LEHB481
 12424 0d3b AC02     		.uleb128 .L1274-.LFB1212
 12425 0d3d 05       		.uleb128 0x5
 12426 0d3e CE02     		.uleb128 .LEHB482-.LFB1212
 12427 0d40 05       		.uleb128 .LEHE482-.LEHB482
 12428 0d41 EF04     		.uleb128 .L1277-.LFB1212
 12429 0d43 00       		.uleb128 0
 12430 0d44 E202     		.uleb128 .LEHB483-.LFB1212
 12431 0d46 38       		.uleb128 .LEHE483-.LEHB483
 12432 0d47 D704     		.uleb128 .L1278-.LFB1212
 12433 0d49 00       		.uleb128 0
 12434 0d4a 9D03     		.uleb128 .LEHB484-.LFB1212
 12435 0d4c 05       		.uleb128 .LEHE484-.LEHB484
 12436 0d4d EF04     		.uleb128 .L1277-.LFB1212
 12437 0d4f 00       		.uleb128 0
 12438 0d50 8B04     		.uleb128 .LEHB485-.LFB1212
 12439 0d52 2D       		.uleb128 .LEHE485-.LEHB485
 12440 0d53 C704     		.uleb128 .L1279-.LFB1212
 12441 0d55 00       		.uleb128 0
 12442 0d56 B804     		.uleb128 .LEHB486-.LFB1212
 12443 0d58 05       		.uleb128 .LEHE486-.LEHB486
 12444 0d59 00       		.uleb128 0
 12445 0d5a 00       		.uleb128 0
 12446 0d5b D204     		.uleb128 .LEHB487-.LFB1212
 12447 0d5d 05       		.uleb128 .LEHE487-.LEHB487
 12448 0d5e 00       		.uleb128 0
 12449 0d5f 00       		.uleb128 0
 12450 0d60 EA04     		.uleb128 .LEHB488-.LFB1212
 12451 0d62 05       		.uleb128 .LEHE488-.LEHB488
 12452 0d63 00       		.uleb128 0
 12453 0d64 00       		.uleb128 0
 12454 0d65 F904     		.uleb128 .LEHB489-.LFB1212
 12455 0d67 2D       		.uleb128 .LEHE489-.LEHB489
 12456 0d68 C704     		.uleb128 .L1279-.LFB1212
 12457 0d6a 00       		.uleb128 0
 12458 0d6b B005     		.uleb128 .LEHB490-.LFB1212
 12459 0d6d 4E       		.uleb128 .LEHE490-.LEHB490
 12460 0d6e 8306     		.uleb128 .L1276-.LFB1212
 12461 0d70 00       		.uleb128 0
 12462 0d71 8E06     		.uleb128 .LEHB491-.LFB1212
 12463 0d73 05       		.uleb128 .LEHE491-.LEHB491
 12464 0d74 00       		.uleb128 0
 12465 0d75 00       		.uleb128 0
 12466              	.LLSDACSE1212:
 12467 0d76 03       		.byte	0x3
 12468 0d77 00       		.byte	0
 12469 0d78 02       		.byte	0x2
 12470 0d79 7D       		.byte	0x7d
 12471 0d7a 01       		.byte	0x1
 12472 0d7b 7D       		.byte	0x7d
 12473 0d7c 00       		.byte	0
 12474 0d7d 7D       		.byte	0x7d
 12475 0d7e 0000     		.align 4
 12476 0d80 00000000 		.long	0
 12477              	
 12478 0d84 00000000 		.long	DW.ref._ZTISt9exception-.
 12479 0d88 00000000 		.long	DW.ref._ZTIN8UnitTest15AssertExceptionE-.
 12480              	.LLSDATT1212:
 12481              		.text
 12483              		.section	.rodata.str1.1
 12484              	.LC47:
 12485 00d5 676F6F64 		.string	"goodtest"
 12485      74657374 
 12485      00
 12486              		.section	.rodata.str1.8
 12487 0725 000000   		.align 8
 12488              	.LC48:
 12489 0728 556E6861 		.string	"Unhandled exception in CHECK_EQUAL(1, reporter.testFinishedCount)"
 12489      6E646C65 
 12489      64206578 
 12489      63657074 
 12489      696F6E20 
 12490 076a 00000000 		.align 8
 12490      0000
 12491              	.LC49:
 12492 0770 556E6861 		.string	"Unhandled exception in CHECK_EQUAL(\"goodtest\", reporter.lastFinishedTest)"
 12492      6E646C65 
 12492      64206578 
 12492      63657074 
 12492      696F6E20 
 12493              		.text
 12494 6463 0F1F0066 		.p2align 4,,15
 12494      2E0F1F84 
 12494      00000000 
 12494      00
 12496              	_ZN8UnitTest11ExecuteTestIN12_GLOBAL__N_152TestRunnerFixtureTestFinishIsReportedCorrectlyHelperEEEv
 12497              	.LFB1409:
 12498              		.cfi_startproc
 12499              		.cfi_personality 0x9b,DW.ref.__gxx_personality_v0
 12500              		.cfi_lsda 0x1b,.LLSDA1409
 12501 6470 4155     		pushq	%r13
 12502              		.cfi_def_cfa_offset 16
 12503              		.cfi_offset 13, -16
 12504 6472 4154     		pushq	%r12
 12505              		.cfi_def_cfa_offset 24
 12506              		.cfi_offset 12, -24
 12507 6474 55       		pushq	%rbp
 12508              		.cfi_def_cfa_offset 32
 12509              		.cfi_offset 6, -32
 12510 6475 53       		pushq	%rbx
 12511              		.cfi_def_cfa_offset 40
 12512              		.cfi_offset 3, -40
 12513 6476 4889F3   		movq	%rsi, %rbx
 12514 6479 4881EC18 		subq	$1816, %rsp
 12514      070000
 12515              		.cfi_def_cfa_offset 1856
 12516 6480 48893C24 		movq	%rdi, (%rsp)
 12517 6484 48897424 		movq	%rsi, 8(%rsp)
 12517      08
 12518 6489 64488B04 		movq	%fs:40, %rax
 12518      25280000 
 12518      00
 12519 6492 48898424 		movq	%rax, 1800(%rsp)
 12519      08070000 
 12520 649a 31C0     		xorl	%eax, %eax
 12521              	.LEHB492:
 12522 649c E8000000 		call	_ZN8UnitTest11CurrentTest7DetailsEv@PLT
 12522      00
 12523              	.LEHE492:
 12524 64a1 488DBC24 		leaq	672(%rsp), %rdi
 12524      A0020000 
 12525 64a9 488918   		movq	%rbx, (%rax)
 12526              	.LEHB493:
 12527 64ac E8000000 		call	_ZN8UnitTest16SignalTranslatorC1Ev@PLT
 12527      00
 12528              	.LEHE493:
 12529 64b1 488B3D00 		movq	_ZN8UnitTest16SignalTranslator12s_jumpTargetE(%rip), %rdi
 12529      000000
 12530 64b8 BE010000 		movl	$1, %esi
 12530      00
 12531 64bd E8000000 		call	__sigsetjmp@PLT
 12531      00
 12532 64c2 85C0     		testl	%eax, %eax
 12533 64c4 742A     		je	.L1306
 12534 64c6 BF080000 		movl	$8, %edi
 12534      00
 12535 64cb E8000000 		call	__cxa_allocate_exception@PLT
 12535      00
 12536 64d0 488D0D00 		leaq	.LC3(%rip), %rcx
 12536      000000
 12537 64d7 488D3500 		leaq	_ZTIPKc(%rip), %rsi
 12537      000000
 12538 64de 31D2     		xorl	%edx, %edx
 12539 64e0 4889C7   		movq	%rax, %rdi
 12540 64e3 488908   		movq	%rcx, (%rax)
 12541              	.LEHB494:
 12542 64e6 E8000000 		call	__cxa_throw@PLT
 12542      00
 12543 64eb 0F1F4400 		.p2align 4,,10
 12543      00
 12544              		.p2align 3
 12545              	.L1306:
 12546 64f0 488DBC24 		leaq	192(%rsp), %rdi
 12546      C0000000 
 12547 64f8 488D0D00 		leaq	.LC24(%rip), %rcx
 12547      000000
 12548 64ff 488D1500 		leaq	.LC38(%rip), %rdx
 12548      000000
 12549 6506 488D3500 		leaq	.LC47(%rip), %rsi
 12549      000000
 12550 650d 4531C0   		xorl	%r8d, %r8d
 12551 6510 E8000000 		call	_ZN8UnitTest4TestC2EPKcS2_S2_i@PLT
 12551      00
 12552              	.LEHE494:
 12553 6515 488B2C24 		movq	(%rsp), %rbp
 12554 6519 488D0500 		leaq	16+_ZTVN12_GLOBAL__N_18MockTestE(%rip), %rax
 12554      000000
 12555 6520 488DB424 		leaq	192(%rsp), %rsi
 12555      C0000000 
 12556 6528 C68424F1 		movb	$1, 241(%rsp)
 12556      00000001 
 12557 6530 C68424F2 		movb	$0, 242(%rsp)
 12557      00000000 
 12558 6538 48898424 		movq	%rax, 192(%rsp)
 12558      C0000000 
 12559 6540 C78424F4 		movl	$1, 244(%rsp)
 12559      00000001 
 12559      000000
 12560 654b 488D9D48 		leaq	2120(%rbp), %rbx
 12560      080000
 12561 6552 4889DF   		movq	%rbx, %rdi
 12562              	.LEHB495:
 12563 6555 E8000000 		call	_ZN8UnitTest8TestList3AddEPNS_4TestE@PLT
 12563      00
 12564 655a E8000000 		call	_ZN8UnitTest11CurrentTest7ResultsEv@PLT
 12564      00
 12565 655f 4C8B28   		movq	(%rax), %r13
 12566 6562 E8000000 		call	_ZN8UnitTest11CurrentTest7DetailsEv@PLT
 12566      00
 12567 6567 4889DF   		movq	%rbx, %rdi
 12568 656a 4C8B20   		movq	(%rax), %r12
 12569 656d E8000000 		call	_ZNK8UnitTest8TestList7GetHeadEv@PLT
 12569      00
 12570 6572 4885C0   		testq	%rax, %rax
 12571 6575 4889C3   		movq	%rax, %rbx
 12572 6578 0F851401 		jne	.L1309
 12572      0000
 12573 657e 6690     		.p2align 4,,10
 12574              		.p2align 3
 12575              	.L1307:
 12576 6580 488B1C24 		movq	(%rsp), %rbx
 12577 6584 4889DF   		movq	%rbx, %rdi
 12578 6587 E8000000 		call	_ZNK8UnitTest10TestRunner6FinishEv@PLT
 12578      00
 12579 658c E8000000 		call	_ZN8UnitTest11CurrentTest7ResultsEv@PLT
 12579      00
 12580 6591 4C8928   		movq	%r13, (%rax)
 12581 6594 E8000000 		call	_ZN8UnitTest11CurrentTest7DetailsEv@PLT
 12581      00
 12582              	.LEHE495:
 12583 6599 4C8920   		movq	%r12, (%rax)
 12584              	.LEHB496:
 12585 659c E8000000 		call	_ZN8UnitTest11CurrentTest7DetailsEv@PLT
 12585      00
 12586 65a1 488B30   		movq	(%rax), %rsi
 12587 65a4 488DBC24 		leaq	160(%rsp), %rdi
 12587      A0000000 
 12588 65ac BA4E0000 		movl	$78, %edx
 12588      00
 12589 65b1 E8000000 		call	_ZN8UnitTest11TestDetailsC1ERKS0_i@PLT
 12589      00
 12590 65b6 4881C32C 		addq	$1580, %rbx
 12590      060000
 12591 65bd C744241C 		movl	$1, 28(%rsp)
 12591      01000000 
 12592 65c5 E8000000 		call	_ZN8UnitTest11CurrentTest7ResultsEv@PLT
 12592      00
 12593 65ca 488B38   		movq	(%rax), %rdi
 12594 65cd 488D8C24 		leaq	160(%rsp), %rcx
 12594      A0000000 
 12595 65d5 488D7424 		leaq	28(%rsp), %rsi
 12595      1C
 12596 65da 4889DA   		movq	%rbx, %rdx
 12597 65dd E8000000 		call	_ZN8UnitTest10CheckEqualIiiEEvRNS_11TestResultsERKT_RKT0_RKNS_11TestDetailsE
 12597      00
 12598              	.LEHE496:
 12599              	.L1313:
 12600              	.LEHB497:
 12601 65e2 E8000000 		call	_ZN8UnitTest11CurrentTest7DetailsEv@PLT
 12601      00
 12602 65e7 488B30   		movq	(%rax), %rsi
 12603 65ea 488D7C24 		leaq	96(%rsp), %rdi
 12603      60
 12604 65ef BA4F0000 		movl	$79, %edx
 12604      00
 12605 65f4 E8000000 		call	_ZN8UnitTest11TestDetailsC1ERKS0_i@PLT
 12605      00
 12606 65f9 488B1C24 		movq	(%rsp), %rbx
 12607 65fd 4881C330 		addq	$1840, %rbx
 12607      070000
 12608 6604 E8000000 		call	_ZN8UnitTest11CurrentTest7ResultsEv@PLT
 12608      00
 12609 6609 488B38   		movq	(%rax), %rdi
 12610 660c 488D4C24 		leaq	96(%rsp), %rcx
 12610      60
 12611 6611 488D3500 		leaq	.LC47(%rip), %rsi
 12611      000000
 12612 6618 4889DA   		movq	%rbx, %rdx
 12613 661b E8000000 		call	_ZN8UnitTest10CheckEqualERNS_11TestResultsEPKcPcRKNS_11TestDetailsE@PLT
 12613      00
 12614              	.LEHE497:
 12615              	.L1317:
 12616 6620 488D0500 		leaq	16+_ZTVN12_GLOBAL__N_18MockTestE(%rip), %rax
 12616      000000
 12617 6627 488DBC24 		leaq	192(%rsp), %rdi
 12617      C0000000 
 12618 662f 48898424 		movq	%rax, 192(%rsp)
 12618      C0000000 
 12619              	.LEHB498:
 12620 6637 E8000000 		call	_ZN8UnitTest4TestD2Ev@PLT
 12620      00
 12621              	.LEHE498:
 12622 663c 488DBC24 		leaq	672(%rsp), %rdi
 12622      A0020000 
 12623              	.LEHB499:
 12624 6644 E8000000 		call	_ZN8UnitTest16SignalTranslatorD1Ev@PLT
 12624      00
 12625              	.LEHE499:
 12626              	.L1304:
 12627 6649 488B8424 		movq	1800(%rsp), %rax
 12627      08070000 
 12628 6651 64483304 		xorq	%fs:40, %rax
 12628      25280000 
 12628      00
 12629 665a 0F85F500 		jne	.L1346
 12629      0000
 12630 6660 4881C418 		addq	$1816, %rsp
 12630      070000
 12631              		.cfi_remember_state
 12632              		.cfi_def_cfa_offset 40
 12633 6667 5B       		popq	%rbx
 12634              		.cfi_def_cfa_offset 32
 12635 6668 5D       		popq	%rbp
 12636              		.cfi_def_cfa_offset 24
 12637 6669 415C     		popq	%r12
 12638              		.cfi_def_cfa_offset 16
 12639 666b 415D     		popq	%r13
 12640              		.cfi_def_cfa_offset 8
 12641 666d C3       		ret
 12642 666e 6690     		.p2align 4,,10
 12643              		.p2align 3
 12644              	.L1308:
 12645              		.cfi_restore_state
 12646 6670 488B0424 		movq	(%rsp), %rax
 12647 6674 31C9     		xorl	%ecx, %ecx
 12648 6676 4889DA   		movq	%rbx, %rdx
 12649 6679 4889EF   		movq	%rbp, %rdi
 12650 667c 488B7008 		movq	8(%rax), %rsi
 12651              	.LEHB500:
 12652 6680 E8000000 		call	_ZNK8UnitTest10TestRunner7RunTestEPNS_11TestResultsEPNS_4TestEi@PLT
 12652      00
 12653              	.L1310:
 12654 6685 488B5B28 		movq	40(%rbx), %rbx
 12655 6689 4885DB   		testq	%rbx, %rbx
 12656 668c 0F84EEFE 		je	.L1307
 12656      FFFF
 12657              	.L1309:
 12658 6692 31D2     		xorl	%edx, %edx
 12659 6694 4889DE   		movq	%rbx, %rsi
 12660 6697 4889EF   		movq	%rbp, %rdi
 12661 669a E8000000 		call	_ZNK8UnitTest10TestRunner13IsTestInSuiteEPKNS_4TestEPKc@PLT
 12661      00
 12662              	.LEHE500:
 12663 669f 84C0     		testb	%al, %al
 12664 66a1 74E2     		je	.L1310
 12665 66a3 EBCB     		jmp	.L1308
 12666              	.L1332:
 12667 66a5 4889C3   		movq	%rax, %rbx
 12668 66a8 4889D5   		movq	%rdx, %rbp
 12669              	.L1319:
 12670 66ab 488DBC24 		leaq	672(%rsp), %rdi
 12670      A0020000 
 12671 66b3 E8000000 		call	_ZN8UnitTest16SignalTranslatorD1Ev@PLT
 12671      00
 12672 66b8 4889DF   		movq	%rbx, %rdi
 12673 66bb 4889EA   		movq	%rbp, %rdx
 12674              	.L1320:
 12675 66be 4883FA01 		cmpq	$1, %rdx
 12676 66c2 0F84B501 		je	.L1322
 12676      0000
 12677 66c8 4883FA02 		cmpq	$2, %rdx
 12678 66cc 0F858301 		jne	.L1347
 12678      0000
 12679 66d2 E8000000 		call	__cxa_begin_catch@PLT
 12679      00
 12680 66d7 488DBC24 		leaq	256(%rsp), %rdi
 12680      00010000 
 12681 66df 4889C3   		movq	%rax, %rbx
 12682              	.LEHB501:
 12683 66e2 E8000000 		call	_ZN8UnitTest15MemoryOutStreamC1Ev
 12683      00
 12684              	.LEHE501:
 12685 66e7 488DBC24 		leaq	256(%rsp), %rdi
 12685      00010000 
 12686 66ef 488D3500 		leaq	.LC11(%rip), %rsi
 12686      000000
 12687 66f6 BA150000 		movl	$21, %edx
 12687      00
 12688              	.LEHB502:
 12689 66fb E8000000 		call	_ZSt16__ostream_insertIcSt11char_traitsIcEERSt13basic_ostreamIT_T0_ES6_PKS3_l@PLT
 12689      00
 12690 6700 488B03   		movq	(%rbx), %rax
 12691 6703 4889DF   		movq	%rbx, %rdi
 12692 6706 FF5010   		call	*16(%rax)
 12693 6709 488DBC24 		leaq	256(%rsp), %rdi
 12693      00010000 
 12694 6711 4889C6   		movq	%rax, %rsi
 12695 6714 E8000000 		call	_ZStlsISt11char_traitsIcEERSt13basic_ostreamIcT_ES5_PKc@PLT
 12695      00
 12696 6719 E8000000 		call	_ZN8UnitTest11CurrentTest7ResultsEv@PLT
 12696      00
 12697 671e 488DBC24 		leaq	256(%rsp), %rdi
 12697      00010000 
 12698 6726 488B18   		movq	(%rax), %rbx
 12699 6729 E8000000 		call	_ZNK8UnitTest15MemoryOutStream7GetTextEv@PLT
 12699      00
 12700 672e 488B7424 		movq	8(%rsp), %rsi
 12700      08
 12701 6733 4889C2   		movq	%rax, %rdx
 12702 6736 4889DF   		movq	%rbx, %rdi
 12703 6739 E8000000 		call	_ZN8UnitTest11TestResults13OnTestFailureERKNS_11TestDetailsEPKc@PLT
 12703      00
 12704              	.LEHE502:
 12705 673e 488DBC24 		leaq	256(%rsp), %rdi
 12705      00010000 
 12706              	.LEHB503:
 12707 6746 E8000000 		call	_ZN8UnitTest15MemoryOutStreamD1Ev
 12707      00
 12708              	.LEHE503:
 12709              	.L1344:
 12710 674b E8000000 		call	__cxa_end_catch@PLT
 12710      00
 12711 6750 E9F4FEFF 		jmp	.L1304
 12711      FF
 12712              	.L1346:
 12713 6755 E8000000 		call	__stack_chk_fail@PLT
 12713      00
 12714              	.L1331:
 12715 675a 4889C7   		movq	%rax, %rdi
 12716 675d E95CFFFF 		jmp	.L1320
 12716      FF
 12717              	.L1341:
 12718 6762 4889C7   		movq	%rax, %rdi
 12719 6765 E8000000 		call	__cxa_begin_catch@PLT
 12719      00
 12720              	.LEHB504:
 12721 676a E8000000 		call	_ZN8UnitTest11CurrentTest7ResultsEv@PLT
 12721      00
 12722 676f 488B18   		movq	(%rax), %rbx
 12723 6772 E8000000 		call	_ZN8UnitTest11CurrentTest7DetailsEv@PLT
 12723      00
 12724 6777 488B30   		movq	(%rax), %rsi
 12725 677a 488DBC24 		leaq	128(%rsp), %rdi
 12725      80000000 
 12726 6782 BA4E0000 		movl	$78, %edx
 12726      00
 12727 6787 E8000000 		call	_ZN8UnitTest11TestDetailsC1ERKS0_i@PLT
 12727      00
 12728 678c 488DB424 		leaq	128(%rsp), %rsi
 12728      80000000 
 12729 6794 488D1500 		leaq	.LC48(%rip), %rdx
 12729      000000
 12730 679b 4889DF   		movq	%rbx, %rdi
 12731 679e E8000000 		call	_ZN8UnitTest11TestResults13OnTestFailureERKNS_11TestDetailsEPKc@PLT
 12731      00
 12732              	.LEHE504:
 12733              	.LEHB505:
 12734 67a3 E8000000 		call	__cxa_end_catch@PLT
 12734      00
 12735              	.LEHE505:
 12736 67a8 E935FEFF 		jmp	.L1313
 12736      FF
 12737              	.L1339:
 12738 67ad 4889C7   		movq	%rax, %rdi
 12739 67b0 E8000000 		call	__cxa_begin_catch@PLT
 12739      00
 12740              	.LEHB506:
 12741 67b5 E8000000 		call	_ZN8UnitTest11CurrentTest7ResultsEv@PLT
 12741      00
 12742 67ba 488B18   		movq	(%rax), %rbx
 12743 67bd E8000000 		call	_ZN8UnitTest11CurrentTest7DetailsEv@PLT
 12743      00
 12744 67c2 488B30   		movq	(%rax), %rsi
 12745 67c5 488D7C24 		leaq	64(%rsp), %rdi
 12745      40
 12746 67ca BA4F0000 		movl	$79, %edx
 12746      00
 12747 67cf E8000000 		call	_ZN8UnitTest11TestDetailsC1ERKS0_i@PLT
 12747      00
 12748 67d4 488D7424 		leaq	64(%rsp), %rsi
 12748      40
 12749 67d9 488D1500 		leaq	.LC49(%rip), %rdx
 12749      000000
 12750 67e0 4889DF   		movq	%rbx, %rdi
 12751 67e3 E8000000 		call	_ZN8UnitTest11TestResults13OnTestFailureERKNS_11TestDetailsEPKc@PLT
 12751      00
 12752              	.LEHE506:
 12753              	.LEHB507:
 12754 67e8 E8000000 		call	__cxa_end_catch@PLT
 12754      00
 12755              	.LEHE507:
 12756 67ed E92EFEFF 		jmp	.L1317
 12756      FF
 12757              	.L1337:
 12758 67f2 4889C3   		movq	%rax, %rbx
 12759 67f5 4889D5   		movq	%rdx, %rbp
 12760              	.L1315:
 12761 67f8 488D0500 		leaq	16+_ZTVN12_GLOBAL__N_18MockTestE(%rip), %rax
 12761      000000
 12762 67ff 488DBC24 		leaq	192(%rsp), %rdi
 12762      C0000000 
 12763 6807 48898424 		movq	%rax, 192(%rsp)
 12763      C0000000 
 12764 680f E8000000 		call	_ZN8UnitTest4TestD2Ev@PLT
 12764      00
 12765 6814 E992FEFF 		jmp	.L1319
 12765      FF
 12766              	.L1340:
 12767 6819 4889C3   		movq	%rax, %rbx
 12768 681c 4889D5   		movq	%rdx, %rbp
 12769 681f E8000000 		call	__cxa_end_catch@PLT
 12769      00
 12770 6824 EBD2     		jmp	.L1315
 12771              	.L1338:
 12772 6826 4889C3   		movq	%rax, %rbx
 12773 6829 4889D5   		movq	%rdx, %rbp
 12774 682c E8000000 		call	__cxa_end_catch@PLT
 12774      00
 12775 6831 EBC5     		jmp	.L1315
 12776              	.L1335:
 12777 6833 488DBC24 		leaq	256(%rsp), %rdi
 12777      00010000 
 12778 683b 4889C3   		movq	%rax, %rbx
 12779 683e E8000000 		call	_ZN8UnitTest15MemoryOutStreamD1Ev
 12779      00
 12780              	.L1328:
 12781 6843 E8000000 		call	__cxa_end_catch@PLT
 12781      00
 12782 6848 4889DF   		movq	%rbx, %rdi
 12783              	.LEHB508:
 12784 684b E8000000 		call	_Unwind_Resume@PLT
 12784      00
 12785              	.LEHE508:
 12786              	.L1334:
 12787              	.L1345:
 12788 6850 4889C3   		movq	%rax, %rbx
 12789 6853 EBEE     		jmp	.L1328
 12790              	.L1347:
 12791 6855 E8000000 		call	__cxa_begin_catch@PLT
 12791      00
 12792              	.LEHB509:
 12793 685a E8000000 		call	_ZN8UnitTest11CurrentTest7ResultsEv@PLT
 12793      00
 12794 685f 488B7424 		movq	8(%rsp), %rsi
 12794      08
 12795 6864 488B38   		movq	(%rax), %rdi
 12796 6867 488D1500 		leaq	.LC12(%rip), %rdx
 12796      000000
 12797 686e E8000000 		call	_ZN8UnitTest11TestResults13OnTestFailureERKNS_11TestDetailsEPKc@PLT
 12797      00
 12798              	.LEHE509:
 12799              	.LEHB510:
 12800 6873 E8000000 		call	__cxa_end_catch@PLT
 12800      00
 12801              	.LEHE510:
 12802 6878 E9CCFDFF 		jmp	.L1304
 12802      FF
 12803              	.L1322:
 12804 687d E8000000 		call	__cxa_begin_catch@PLT
 12804      00
 12805 6882 4889C3   		movq	%rax, %rbx
 12806              	.LEHB511:
 12807 6885 E8000000 		call	_ZN8UnitTest11CurrentTest7ResultsEv@PLT
 12807      00
 12808 688a 488B28   		movq	(%rax), %rbp
 12809 688d 488B03   		movq	(%rbx), %rax
 12810 6890 4889DF   		movq	%rbx, %rdi
 12811 6893 FF5010   		call	*16(%rax)
 12812 6896 4889DF   		movq	%rbx, %rdi
 12813 6899 4989C4   		movq	%rax, %r12
 12814 689c E8000000 		call	_ZNK8UnitTest15AssertException10LineNumberEv@PLT
 12814      00
 12815 68a1 4889DF   		movq	%rbx, %rdi
 12816 68a4 4189C5   		movl	%eax, %r13d
 12817 68a7 E8000000 		call	_ZNK8UnitTest15AssertException8FilenameEv@PLT
 12817      00
 12818 68ac 488B5424 		movq	8(%rsp), %rdx
 12818      08
 12819 68b1 488D7C24 		leaq	32(%rsp), %rdi
 12819      20
 12820 68b6 4589E8   		movl	%r13d, %r8d
 12821 68b9 4889C1   		movq	%rax, %rcx
 12822 68bc 488B7208 		movq	8(%rdx), %rsi
 12823 68c0 488B12   		movq	(%rdx), %rdx
 12824 68c3 E8000000 		call	_ZN8UnitTest11TestDetailsC1EPKcS2_S2_i@PLT
 12824      00
 12825 68c8 488D7424 		leaq	32(%rsp), %rsi
 12825      20
 12826 68cd 4C89E2   		movq	%r12, %rdx
 12827 68d0 4889EF   		movq	%rbp, %rdi
 12828 68d3 E8000000 		call	_ZN8UnitTest11TestResults13OnTestFailureERKNS_11TestDetailsEPKc@PLT
 12828      00
 12829              	.LEHE511:
 12830 68d8 E96EFEFF 		jmp	.L1344
 12830      FF
 12831              	.L1336:
 12832 68dd 4889C3   		movq	%rax, %rbx
 12833 68e0 E8000000 		call	__cxa_end_catch@PLT
 12833      00
 12834 68e5 4889DF   		movq	%rbx, %rdi
 12835              	.LEHB512:
 12836 68e8 E8000000 		call	_Unwind_Resume@PLT
 12836      00
 12837              	.LEHE512:
 12838              	.L1333:
 12839 68ed E95EFFFF 		jmp	.L1345
 12839      FF
 12840              		.cfi_endproc
 12841              	.LFE1409:
 12842              		.section	.gcc_except_table
 12843              		.align 4
 12844              	.LLSDA1409:
 12845 0d8c FF       		.byte	0xff
 12846 0d8d 9B       		.byte	0x9b
 12847 0d8e 9001     		.uleb128 .LLSDATT1409-.LLSDATTD1409
 12848              	.LLSDATTD1409:
 12849 0d90 01       		.byte	0x1
 12850 0d91 77       		.uleb128 .LLSDACSE1409-.LLSDACSB1409
 12851              	.LLSDACSB1409:
 12852 0d92 2C       		.uleb128 .LEHB492-.LFB1409
 12853 0d93 05       		.uleb128 .LEHE492-.LEHB492
 12854 0d94 00       		.uleb128 0
 12855 0d95 00       		.uleb128 0
 12856 0d96 3C       		.uleb128 .LEHB493-.LFB1409
 12857 0d97 05       		.uleb128 .LEHE493-.LEHB493
 12858 0d98 EA05     		.uleb128 .L1331-.LFB1409
 12859 0d9a 05       		.uleb128 0x5
 12860 0d9b 76       		.uleb128 .LEHB494-.LFB1409
 12861 0d9c 2F       		.uleb128 .LEHE494-.LEHB494
 12862 0d9d B504     		.uleb128 .L1332-.LFB1409
 12863 0d9f 07       		.uleb128 0x7
 12864 0da0 E501     		.uleb128 .LEHB495-.LFB1409
 12865 0da2 44       		.uleb128 .LEHE495-.LEHB495
 12866 0da3 8207     		.uleb128 .L1337-.LFB1409
 12867 0da5 07       		.uleb128 0x7
 12868 0da6 AC02     		.uleb128 .LEHB496-.LFB1409
 12869 0da8 46       		.uleb128 .LEHE496-.LEHB496
 12870 0da9 F205     		.uleb128 .L1341-.LFB1409
 12871 0dab 01       		.uleb128 0x1
 12872 0dac F202     		.uleb128 .LEHB497-.LFB1409
 12873 0dae 3E       		.uleb128 .LEHE497-.LEHB497
 12874 0daf BD06     		.uleb128 .L1339-.LFB1409
 12875 0db1 01       		.uleb128 0x1
 12876 0db2 C703     		.uleb128 .LEHB498-.LFB1409
 12877 0db4 05       		.uleb128 .LEHE498-.LEHB498
 12878 0db5 B504     		.uleb128 .L1332-.LFB1409
 12879 0db7 07       		.uleb128 0x7
 12880 0db8 D403     		.uleb128 .LEHB499-.LFB1409
 12881 0dba 05       		.uleb128 .LEHE499-.LEHB499
 12882 0dbb EA05     		.uleb128 .L1331-.LFB1409
 12883 0dbd 05       		.uleb128 0x5
 12884 0dbe 9004     		.uleb128 .LEHB500-.LFB1409
 12885 0dc0 1F       		.uleb128 .LEHE500-.LEHB500
 12886 0dc1 8207     		.uleb128 .L1337-.LFB1409
 12887 0dc3 07       		.uleb128 0x7
 12888 0dc4 F204     		.uleb128 .LEHB501-.LFB1409
 12889 0dc6 05       		.uleb128 .LEHE501-.LEHB501
 12890 0dc7 E007     		.uleb128 .L1334-.LFB1409
 12891 0dc9 00       		.uleb128 0
 12892 0dca 8B05     		.uleb128 .LEHB502-.LFB1409
 12893 0dcc 43       		.uleb128 .LEHE502-.LEHB502
 12894 0dcd C307     		.uleb128 .L1335-.LFB1409
 12895 0dcf 00       		.uleb128 0
 12896 0dd0 D605     		.uleb128 .LEHB503-.LFB1409
 12897 0dd2 05       		.uleb128 .LEHE503-.LEHB503
 12898 0dd3 E007     		.uleb128 .L1334-.LFB1409
 12899 0dd5 00       		.uleb128 0
 12900 0dd6 FA05     		.uleb128 .LEHB504-.LFB1409
 12901 0dd8 39       		.uleb128 .LEHE504-.LEHB504
 12902 0dd9 A907     		.uleb128 .L1340-.LFB1409
 12903 0ddb 07       		.uleb128 0x7
 12904 0ddc B306     		.uleb128 .LEHB505-.LFB1409
 12905 0dde 05       		.uleb128 .LEHE505-.LEHB505
 12906 0ddf 8207     		.uleb128 .L1337-.LFB1409
 12907 0de1 07       		.uleb128 0x7
 12908 0de2 C506     		.uleb128 .LEHB506-.LFB1409
 12909 0de4 33       		.uleb128 .LEHE506-.LEHB506
 12910 0de5 B607     		.uleb128 .L1338-.LFB1409
 12911 0de7 07       		.uleb128 0x7
 12912 0de8 F806     		.uleb128 .LEHB507-.LFB1409
 12913 0dea 05       		.uleb128 .LEHE507-.LEHB507
 12914 0deb 8207     		.uleb128 .L1337-.LFB1409
 12915 0ded 07       		.uleb128 0x7
 12916 0dee DB07     		.uleb128 .LEHB508-.LFB1409
 12917 0df0 05       		.uleb128 .LEHE508-.LEHB508
 12918 0df1 00       		.uleb128 0
 12919 0df2 00       		.uleb128 0
 12920 0df3 EA07     		.uleb128 .LEHB509-.LFB1409
 12921 0df5 19       		.uleb128 .LEHE509-.LEHB509
 12922 0df6 ED08     		.uleb128 .L1336-.LFB1409
 12923 0df8 00       		.uleb128 0
 12924 0df9 8308     		.uleb128 .LEHB510-.LFB1409
 12925 0dfb 05       		.uleb128 .LEHE510-.LEHB510
 12926 0dfc 00       		.uleb128 0
 12927 0dfd 00       		.uleb128 0
 12928 0dfe 9508     		.uleb128 .LEHB511-.LFB1409
 12929 0e00 53       		.uleb128 .LEHE511-.LEHB511
 12930 0e01 FD08     		.uleb128 .L1333-.LFB1409
 12931 0e03 00       		.uleb128 0
 12932 0e04 F808     		.uleb128 .LEHB512-.LFB1409
 12933 0e06 05       		.uleb128 .LEHE512-.LEHB512
 12934 0e07 00       		.uleb128 0
 12935 0e08 00       		.uleb128 0
 12936              	.LLSDACSE1409:
 12937 0e09 03       		.byte	0x3
 12938 0e0a 00       		.byte	0
 12939 0e0b 02       		.byte	0x2
 12940 0e0c 7D       		.byte	0x7d
 12941 0e0d 01       		.byte	0x1
 12942 0e0e 7D       		.byte	0x7d
 12943 0e0f 00       		.byte	0
 12944 0e10 7D       		.byte	0x7d
 12945 0e11 000000   		.align 4
 12946 0e14 00000000 		.long	0
 12947              	
 12948 0e18 00000000 		.long	DW.ref._ZTISt9exception-.
 12949 0e1c 00000000 		.long	DW.ref._ZTIN8UnitTest15AssertExceptionE-.
 12950              	.LLSDATT1409:
 12951              		.text
 12953              		.align 2
 12954 68f2 0F1F4000 		.p2align 4,,15
 12954      662E0F1F 
 12954      84000000 
 12954      0000
 12956              	_ZNK12_GLOBAL__N_150TestTestRunnerFixtureTestFinishIsReportedCorrectly7RunImplEv:
 12957              	.LFB1186:
 12958              		.cfi_startproc
 12959              		.cfi_personality 0x9b,DW.ref.__gxx_personality_v0
 12960              		.cfi_lsda 0x1b,.LLSDA1186
 12961 6900 4156     		pushq	%r14
 12962              		.cfi_def_cfa_offset 16
 12963              		.cfi_offset 14, -16
 12964 6902 4155     		pushq	%r13
 12965              		.cfi_def_cfa_offset 24
 12966              		.cfi_offset 13, -24
 12967 6904 4989FD   		movq	%rdi, %r13
 12968 6907 4154     		pushq	%r12
 12969              		.cfi_def_cfa_offset 32
 12970              		.cfi_offset 12, -32
 12971 6909 55       		pushq	%rbp
 12972              		.cfi_def_cfa_offset 40
 12973              		.cfi_offset 6, -40
 12974 690a 488D6F08 		leaq	8(%rdi), %rbp
 12975 690e 53       		pushq	%rbx
 12976              		.cfi_def_cfa_offset 48
 12977              		.cfi_offset 3, -48
 12978 690f 4881EC90 		subq	$2192, %rsp
 12978      080000
 12979              		.cfi_def_cfa_offset 2240
 12980 6916 488D5C24 		leaq	32(%rsp), %rbx
 12980      20
 12981 691b 64488B04 		movq	%fs:40, %rax
 12981      25280000 
 12981      00
 12982 6924 48898424 		movq	%rax, 2184(%rsp)
 12982      88080000 
 12983 692c 31C0     		xorl	%eax, %eax
 12984 692e 488D7318 		leaq	24(%rbx), %rsi
 12985 6932 4889DF   		movq	%rbx, %rdi
 12986              	.LEHB513:
 12987 6935 E8000000 		call	_ZN8UnitTest10TestRunnerC1ERNS_12TestReporterE@PLT
 12987      00
 12988              	.LEHE513:
 12989 693a 4C8D2500 		leaq	16+_ZTV17RecordingReporter(%rip), %r12
 12989      000000
 12990 6941 488DBB48 		leaq	2120(%rbx), %rdi
 12990      080000
 12991 6948 C7442440 		movl	$0, 64(%rsp)
 12991      00000000 
 12992 6950 C7842444 		movl	$0, 580(%rsp)
 12992      02000000 
 12992      000000
 12993 695b C7842448 		movl	$0, 840(%rsp)
 12993      03000000 
 12993      000000
 12994 6966 4C896424 		movq	%r12, 56(%rsp)
 12994      38
 12995 696b C784244C 		movl	$0, 1612(%rsp)
 12995      06000000 
 12995      000000
 12996 6976 48C78424 		movq	$0, 2128(%rsp)
 12996      50080000 
 12996      00000000 
 12997 6982 48C78424 		movq	$0, 2136(%rsp)
 12997      58080000 
 12997      00000000 
 12998 698e C7842460 		movl	$0, 2144(%rsp)
 12998      08000000 
 12998      000000
 12999 6999 C6442444 		movb	$0, 68(%rsp)
 12999      00
 13000 699e C6842444 		movb	$0, 324(%rsp)
 13000      01000000 
 13001 69a6 C6842448 		movb	$0, 584(%rsp)
 13001      02000000 
 13002 69ae C684244C 		movb	$0, 844(%rsp)
 13002      03000000 
 13003 69b6 C684244C 		movb	$0, 1100(%rsp)
 13003      04000000 
 13004 69be C684244C 		movb	$0, 1356(%rsp)
 13004      05000000 
 13005 69c6 C6842450 		movb	$0, 1616(%rsp)
 13005      06000000 
 13006 69ce C6842450 		movb	$0, 1872(%rsp)
 13006      07000000 
 13007              	.LEHB514:
 13008 69d6 E8000000 		call	_ZN8UnitTest8TestListC1Ev@PLT
 13008      00
 13009              	.LEHE514:
 13010 69db 4889EE   		movq	%rbp, %rsi
 13011 69de 4889DF   		movq	%rbx, %rdi
 13012 69e1 4889AC24 		movq	%rbp, 2168(%rsp)
 13012      78080000 
 13013              	.LEHB515:
 13014 69e9 E882FAFF 		call	_ZN8UnitTest11ExecuteTestIN12_GLOBAL__N_152TestRunnerFixtureTestFinishIsReportedCorrectlyHelp
 13014      FF
 13015              	.LEHE515:
 13016 69ee 488D7B18 		leaq	24(%rbx), %rdi
 13017 69f2 4C896424 		movq	%r12, 56(%rsp)
 13017      38
 13018              	.LEHB516:
 13019 69f7 E8000000 		call	_ZN8UnitTest12TestReporterD2Ev@PLT
 13019      00
 13020              	.LEHE516:
 13021 69fc 4889DF   		movq	%rbx, %rdi
 13022              	.LEHB517:
 13023 69ff E8000000 		call	_ZN8UnitTest10TestRunnerD1Ev@PLT
 13023      00
 13024              	.LEHE517:
 13025              	.L1348:
 13026 6a04 488B8424 		movq	2184(%rsp), %rax
 13026      88080000 
 13027 6a0c 64483304 		xorq	%fs:40, %rax
 13027      25280000 
 13027      00
 13028 6a15 7510     		jne	.L1396
 13029 6a17 4881C490 		addq	$2192, %rsp
 13029      080000
 13030              		.cfi_remember_state
 13031              		.cfi_def_cfa_offset 48
 13032 6a1e 5B       		popq	%rbx
 13033              		.cfi_def_cfa_offset 40
 13034 6a1f 5D       		popq	%rbp
 13035              		.cfi_def_cfa_offset 32
 13036 6a20 415C     		popq	%r12
 13037              		.cfi_def_cfa_offset 24
 13038 6a22 415D     		popq	%r13
 13039              		.cfi_def_cfa_offset 16
 13040 6a24 415E     		popq	%r14
 13041              		.cfi_def_cfa_offset 8
 13042 6a26 C3       		ret
 13043              	.L1396:
 13044              		.cfi_restore_state
 13045 6a27 E8000000 		call	__stack_chk_fail@PLT
 13045      00
 13046              	.L1368:
 13047 6a2c 4889C7   		movq	%rax, %rdi
 13048              	.L1354:
 13049 6a2f 4883FA01 		cmpq	$1, %rdx
 13050 6a33 0F846F01 		je	.L1356
 13050      0000
 13051 6a39 4883FA02 		cmpq	$2, %rdx
 13052 6a3d 0F853101 		jne	.L1397
 13052      0000
 13053              	.L1357:
 13054 6a43 E8000000 		call	__cxa_begin_catch@PLT
 13054      00
 13055 6a48 4889DF   		movq	%rbx, %rdi
 13056 6a4b 4989C4   		movq	%rax, %r12
 13057              	.LEHB518:
 13058 6a4e E8000000 		call	_ZN8UnitTest15MemoryOutStreamC1Ev
 13058      00
 13059              	.LEHE518:
 13060 6a53 488D3500 		leaq	.LC11(%rip), %rsi
 13060      000000
 13061 6a5a BA150000 		movl	$21, %edx
 13061      00
 13062 6a5f 4889DF   		movq	%rbx, %rdi
 13063              	.LEHB519:
 13064 6a62 E8000000 		call	_ZSt16__ostream_insertIcSt11char_traitsIcEERSt13basic_ostreamIT_T0_ES6_PKS3_l@PLT
 13064      00
 13065 6a67 498B0424 		movq	(%r12), %rax
 13066 6a6b 4C89E7   		movq	%r12, %rdi
 13067 6a6e FF5010   		call	*16(%rax)
 13068 6a71 4889DF   		movq	%rbx, %rdi
 13069 6a74 4889C6   		movq	%rax, %rsi
 13070 6a77 E8000000 		call	_ZStlsISt11char_traitsIcEERSt13basic_ostreamIcT_ES5_PKc@PLT
 13070      00
 13071 6a7c E8000000 		call	_ZN8UnitTest11CurrentTest7ResultsEv@PLT
 13071      00
 13072 6a81 4889DF   		movq	%rbx, %rdi
 13073 6a84 4C8B20   		movq	(%rax), %r12
 13074 6a87 E8000000 		call	_ZNK8UnitTest15MemoryOutStream7GetTextEv@PLT
 13074      00
 13075 6a8c 4889C2   		movq	%rax, %rdx
 13076 6a8f 4889EE   		movq	%rbp, %rsi
 13077 6a92 4C89E7   		movq	%r12, %rdi
 13078 6a95 E8000000 		call	_ZN8UnitTest11TestResults13OnTestFailureERKNS_11TestDetailsEPKc@PLT
 13078      00
 13079              	.LEHE519:
 13080 6a9a 4889DF   		movq	%rbx, %rdi
 13081              	.LEHB520:
 13082 6a9d E8000000 		call	_ZN8UnitTest15MemoryOutStreamD1Ev
 13082      00
 13083              	.LEHE520:
 13084              	.L1395:
 13085 6aa2 E8000000 		call	__cxa_end_catch@PLT
 13085      00
 13086 6aa7 E958FFFF 		jmp	.L1348
 13086      FF
 13087              	.L1375:
 13088 6aac 4989C4   		movq	%rax, %r12
 13089 6aaf 4989D6   		movq	%rdx, %r14
 13090 6ab2 4889DF   		movq	%rbx, %rdi
 13091 6ab5 E8000000 		call	_ZN8UnitTest10TestRunnerD1Ev@PLT
 13091      00
 13092 6aba 4C89E7   		movq	%r12, %rdi
 13093 6abd 4C89F2   		movq	%r14, %rdx
 13094 6ac0 E96AFFFF 		jmp	.L1354
 13094      FF
 13095              	.L1369:
 13096 6ac5 4989C4   		movq	%rax, %r12
 13097 6ac8 4989D6   		movq	%rdx, %r14
 13098 6acb 4889DF   		movq	%rbx, %rdi
 13099 6ace E8000000 		call	_ZN12_GLOBAL__N_111FixtureBaseD2Ev
 13099      00
 13100 6ad3 4C89E7   		movq	%r12, %rdi
 13101 6ad6 4C89F2   		movq	%r14, %rdx
 13102 6ad9 E951FFFF 		jmp	.L1354
 13102      FF
 13103              	.L1374:
 13104 6ade 4989C4   		movq	%rax, %r12
 13105 6ae1 4989D6   		movq	%rdx, %r14
 13106 6ae4 4889DF   		movq	%rbx, %rdi
 13107 6ae7 E8000000 		call	_ZN12_GLOBAL__N_111FixtureBaseD2Ev
 13107      00
 13108 6aec 4C89E7   		movq	%r12, %rdi
 13109 6aef 4C89F2   		movq	%r14, %rdx
 13110              	.L1351:
 13111 6af2 4883FA01 		cmpq	$1, %rdx
 13112 6af6 0F84AC00 		je	.L1356
 13112      0000
 13113 6afc 4883FA02 		cmpq	$2, %rdx
 13114 6b00 0F843DFF 		je	.L1357
 13114      FFFF
 13115 6b06 E8000000 		call	__cxa_begin_catch@PLT
 13115      00
 13116              	.LEHB521:
 13117 6b0b E8000000 		call	_ZN8UnitTest11CurrentTest7ResultsEv@PLT
 13117      00
 13118 6b10 4889E3   		movq	%rsp, %rbx
 13119 6b13 BA480000 		movl	$72, %edx
 13119      00
 13120 6b18 4889EE   		movq	%rbp, %rsi
 13121 6b1b 4889DF   		movq	%rbx, %rdi
 13122 6b1e 4C8B20   		movq	(%rax), %r12
 13123 6b21 E8000000 		call	_ZN8UnitTest11TestDetailsC1ERKS0_i@PLT
 13123      00
 13124 6b26 488D1500 		leaq	.LC14(%rip), %rdx
 13124      000000
 13125 6b2d 4889DE   		movq	%rbx, %rsi
 13126 6b30 4C89E7   		movq	%r12, %rdi
 13127 6b33 E8000000 		call	_ZN8UnitTest11TestResults13OnTestFailureERKNS_11TestDetailsEPKc@PLT
 13127      00
 13128              	.LEHE521:
 13129              	.L1358:
 13130              	.LEHB522:
 13131 6b38 E8000000 		call	__cxa_end_catch@PLT
 13131      00
 13132              	.LEHE522:
 13133 6b3d E9C2FEFF 		jmp	.L1348
 13133      FF
 13134              	.L1376:
 13135 6b42 4889C7   		movq	%rax, %rdi
 13136 6b45 EBAB     		jmp	.L1351
 13137              	.L1373:
 13138 6b47 4889C3   		movq	%rax, %rbx
 13139 6b4a E8000000 		call	__cxa_end_catch@PLT
 13139      00
 13140 6b4f 4889DF   		movq	%rbx, %rdi
 13141              	.LEHB523:
 13142 6b52 E8000000 		call	_Unwind_Resume@PLT
 13142      00
 13143              	.LEHE523:
 13144              	.L1372:
 13145 6b57 4889DF   		movq	%rbx, %rdi
 13146 6b5a 4889C5   		movq	%rax, %rbp
 13147 6b5d E8000000 		call	_ZN8UnitTest15MemoryOutStreamD1Ev
 13147      00
 13148              	.L1361:
 13149 6b62 E8000000 		call	__cxa_end_catch@PLT
 13149      00
 13150 6b67 4889EF   		movq	%rbp, %rdi
 13151              	.LEHB524:
 13152 6b6a E8000000 		call	_Unwind_Resume@PLT
 13152      00
 13153              	.LEHE524:
 13154              	.L1371:
 13155 6b6f 4889C5   		movq	%rax, %rbp
 13156 6b72 EBEE     		jmp	.L1361
 13157              	.L1397:
 13158 6b74 E8000000 		call	__cxa_begin_catch@PLT
 13158      00
 13159              	.LEHB525:
 13160 6b79 E8000000 		call	_ZN8UnitTest11CurrentTest7ResultsEv@PLT
 13160      00
 13161 6b7e 4889E3   		movq	%rsp, %rbx
 13162 6b81 BA480000 		movl	$72, %edx
 13162      00
 13163 6b86 4889EE   		movq	%rbp, %rsi
 13164 6b89 4889DF   		movq	%rbx, %rdi
 13165 6b8c 4C8B20   		movq	(%rax), %r12
 13166 6b8f E8000000 		call	_ZN8UnitTest11TestDetailsC1ERKS0_i@PLT
 13166      00
 13167 6b94 488D1500 		leaq	.LC13(%rip), %rdx
 13167      000000
 13168 6b9b 4889DE   		movq	%rbx, %rsi
 13169 6b9e 4C89E7   		movq	%r12, %rdi
 13170 6ba1 E8000000 		call	_ZN8UnitTest11TestResults13OnTestFailureERKNS_11TestDetailsEPKc@PLT
 13170      00
 13171              	.LEHE525:
 13172 6ba6 EB90     		jmp	.L1358
 13173              	.L1356:
 13174 6ba8 E8000000 		call	__cxa_begin_catch@PLT
 13174      00
 13175 6bad 4889C3   		movq	%rax, %rbx
 13176              	.LEHB526:
 13177 6bb0 E8000000 		call	_ZN8UnitTest11CurrentTest7ResultsEv@PLT
 13177      00
 13178 6bb5 488B28   		movq	(%rax), %rbp
 13179 6bb8 488B03   		movq	(%rbx), %rax
 13180 6bbb 4889DF   		movq	%rbx, %rdi
 13181 6bbe FF5010   		call	*16(%rax)
 13182 6bc1 4889DF   		movq	%rbx, %rdi
 13183 6bc4 4989C4   		movq	%rax, %r12
 13184 6bc7 E8000000 		call	_ZNK8UnitTest15AssertException10LineNumberEv@PLT
 13184      00
 13185 6bcc 4889DF   		movq	%rbx, %rdi
 13186 6bcf 4189C6   		movl	%eax, %r14d
 13187 6bd2 E8000000 		call	_ZNK8UnitTest15AssertException8FilenameEv@PLT
 13187      00
 13188 6bd7 498B5508 		movq	8(%r13), %rdx
 13189 6bdb 498B7510 		movq	16(%r13), %rsi
 13190 6bdf 4889E3   		movq	%rsp, %rbx
 13191 6be2 4589F0   		movl	%r14d, %r8d
 13192 6be5 4889C1   		movq	%rax, %rcx
 13193 6be8 4889DF   		movq	%rbx, %rdi
 13194 6beb E8000000 		call	_ZN8UnitTest11TestDetailsC1EPKcS2_S2_i@PLT
 13194      00
 13195 6bf0 4C89E2   		movq	%r12, %rdx
 13196 6bf3 4889DE   		movq	%rbx, %rsi
 13197 6bf6 4889EF   		movq	%rbp, %rdi
 13198 6bf9 E8000000 		call	_ZN8UnitTest11TestResults13OnTestFailureERKNS_11TestDetailsEPKc@PLT
 13198      00
 13199              	.LEHE526:
 13200 6bfe E99FFEFF 		jmp	.L1395
 13200      FF
 13201              	.L1370:
 13202 6c03 4889C3   		movq	%rax, %rbx
 13203 6c06 E8000000 		call	__cxa_end_catch@PLT
 13203      00
 13204 6c0b 4889DF   		movq	%rbx, %rdi
 13205              	.LEHB527:
 13206 6c0e E8000000 		call	_Unwind_Resume@PLT
 13206      00
 13207              	.LEHE527:
 13208              		.cfi_endproc
 13209              	.LFE1186:
 13210              		.section	.gcc_except_table
 13211              		.align 4
 13212              	.LLSDA1186:
 13213 0e20 FF       		.byte	0xff
 13214 0e21 9B       		.byte	0x9b
 13215 0e22 6D       		.uleb128 .LLSDATT1186-.LLSDATTD1186
 13216              	.LLSDATTD1186:
 13217 0e23 01       		.byte	0x1
 13218 0e24 55       		.uleb128 .LLSDACSE1186-.LLSDACSB1186
 13219              	.LLSDACSB1186:
 13220 0e25 35       		.uleb128 .LEHB513-.LFB1186
 13221 0e26 05       		.uleb128 .LEHE513-.LEHB513
 13222 0e27 C204     		.uleb128 .L1376-.LFB1186
 13223 0e29 05       		.uleb128 0x5
 13224 0e2a D601     		.uleb128 .LEHB514-.LFB1186
 13225 0e2c 05       		.uleb128 .LEHE514-.LEHB514
 13226 0e2d DE03     		.uleb128 .L1374-.LFB1186
 13227 0e2f 07       		.uleb128 0x7
 13228 0e30 E901     		.uleb128 .LEHB515-.LFB1186
 13229 0e32 05       		.uleb128 .LEHE515-.LEHB515
 13230 0e33 C503     		.uleb128 .L1369-.LFB1186
 13231 0e35 07       		.uleb128 0x7
 13232 0e36 F701     		.uleb128 .LEHB516-.LFB1186
 13233 0e38 05       		.uleb128 .LEHE516-.LEHB516
 13234 0e39 AC03     		.uleb128 .L1375-.LFB1186
 13235 0e3b 07       		.uleb128 0x7
 13236 0e3c FF01     		.uleb128 .LEHB517-.LFB1186
 13237 0e3e 05       		.uleb128 .LEHE517-.LEHB517
 13238 0e3f AC02     		.uleb128 .L1368-.LFB1186
 13239 0e41 05       		.uleb128 0x5
 13240 0e42 CE02     		.uleb128 .LEHB518-.LFB1186
 13241 0e44 05       		.uleb128 .LEHE518-.LEHB518
 13242 0e45 EF04     		.uleb128 .L1371-.LFB1186
 13243 0e47 00       		.uleb128 0
 13244 0e48 E202     		.uleb128 .LEHB519-.LFB1186
 13245 0e4a 38       		.uleb128 .LEHE519-.LEHB519
 13246 0e4b D704     		.uleb128 .L1372-.LFB1186
 13247 0e4d 00       		.uleb128 0
 13248 0e4e 9D03     		.uleb128 .LEHB520-.LFB1186
 13249 0e50 05       		.uleb128 .LEHE520-.LEHB520
 13250 0e51 EF04     		.uleb128 .L1371-.LFB1186
 13251 0e53 00       		.uleb128 0
 13252 0e54 8B04     		.uleb128 .LEHB521-.LFB1186
 13253 0e56 2D       		.uleb128 .LEHE521-.LEHB521
 13254 0e57 C704     		.uleb128 .L1373-.LFB1186
 13255 0e59 00       		.uleb128 0
 13256 0e5a B804     		.uleb128 .LEHB522-.LFB1186
 13257 0e5c 05       		.uleb128 .LEHE522-.LEHB522
 13258 0e5d 00       		.uleb128 0
 13259 0e5e 00       		.uleb128 0
 13260 0e5f D204     		.uleb128 .LEHB523-.LFB1186
 13261 0e61 05       		.uleb128 .LEHE523-.LEHB523
 13262 0e62 00       		.uleb128 0
 13263 0e63 00       		.uleb128 0
 13264 0e64 EA04     		.uleb128 .LEHB524-.LFB1186
 13265 0e66 05       		.uleb128 .LEHE524-.LEHB524
 13266 0e67 00       		.uleb128 0
 13267 0e68 00       		.uleb128 0
 13268 0e69 F904     		.uleb128 .LEHB525-.LFB1186
 13269 0e6b 2D       		.uleb128 .LEHE525-.LEHB525
 13270 0e6c C704     		.uleb128 .L1373-.LFB1186
 13271 0e6e 00       		.uleb128 0
 13272 0e6f B005     		.uleb128 .LEHB526-.LFB1186
 13273 0e71 4E       		.uleb128 .LEHE526-.LEHB526
 13274 0e72 8306     		.uleb128 .L1370-.LFB1186
 13275 0e74 00       		.uleb128 0
 13276 0e75 8E06     		.uleb128 .LEHB527-.LFB1186
 13277 0e77 05       		.uleb128 .LEHE527-.LEHB527
 13278 0e78 00       		.uleb128 0
 13279 0e79 00       		.uleb128 0
 13280              	.LLSDACSE1186:
 13281 0e7a 03       		.byte	0x3
 13282 0e7b 00       		.byte	0
 13283 0e7c 02       		.byte	0x2
 13284 0e7d 7D       		.byte	0x7d
 13285 0e7e 01       		.byte	0x1
 13286 0e7f 7D       		.byte	0x7d
 13287 0e80 00       		.byte	0
 13288 0e81 7D       		.byte	0x7d
 13289 0e82 0000     		.align 4
 13290 0e84 00000000 		.long	0
 13291              	
 13292 0e88 00000000 		.long	DW.ref._ZTISt9exception-.
 13293 0e8c 00000000 		.long	DW.ref._ZTIN8UnitTest15AssertExceptionE-.
 13294              	.LLSDATT1186:
 13295              		.text
 13297              		.section	.rodata.str1.8
 13298 07ba 00000000 		.align 8
 13298      0000
 13299              	.LC50:
 13300 07c0 556E6861 		.string	"Unhandled exception in CHECK_EQUAL(1, reporter.testRunCount)"
 13300      6E646C65 
 13300      64206578 
 13300      63657074 
 13300      696F6E20 
 13301 07fd 000000   		.align 8
 13302              	.LC51:
 13303 0800 556E6861 		.string	"Unhandled exception in CHECK_EQUAL(\"goodtest\", reporter.lastStartedTest)"
 13303      6E646C65 
 13303      64206578 
 13303      63657074 
 13303      696F6E20 
 13304              		.text
 13305 6c13 0F1F0066 		.p2align 4,,15
 13305      2E0F1F84 
 13305      00000000 
 13305      00
 13307              	_ZN8UnitTest11ExecuteTestIN12_GLOBAL__N_151TestRunnerFixtureTestStartIsReportedCorrectlyHelperEEEvR
 13308              	.LFB1405:
 13309              		.cfi_startproc
 13310              		.cfi_personality 0x9b,DW.ref.__gxx_personality_v0
 13311              		.cfi_lsda 0x1b,.LLSDA1405
 13312 6c20 4155     		pushq	%r13
 13313              		.cfi_def_cfa_offset 16
 13314              		.cfi_offset 13, -16
 13315 6c22 4154     		pushq	%r12
 13316              		.cfi_def_cfa_offset 24
 13317              		.cfi_offset 12, -24
 13318 6c24 55       		pushq	%rbp
 13319              		.cfi_def_cfa_offset 32
 13320              		.cfi_offset 6, -32
 13321 6c25 53       		pushq	%rbx
 13322              		.cfi_def_cfa_offset 40
 13323              		.cfi_offset 3, -40
 13324 6c26 4889F3   		movq	%rsi, %rbx
 13325 6c29 4881EC18 		subq	$1816, %rsp
 13325      070000
 13326              		.cfi_def_cfa_offset 1856
 13327 6c30 48893C24 		movq	%rdi, (%rsp)
 13328 6c34 48897424 		movq	%rsi, 8(%rsp)
 13328      08
 13329 6c39 64488B04 		movq	%fs:40, %rax
 13329      25280000 
 13329      00
 13330 6c42 48898424 		movq	%rax, 1800(%rsp)
 13330      08070000 
 13331 6c4a 31C0     		xorl	%eax, %eax
 13332              	.LEHB528:
 13333 6c4c E8000000 		call	_ZN8UnitTest11CurrentTest7DetailsEv@PLT
 13333      00
 13334              	.LEHE528:
 13335 6c51 488DBC24 		leaq	672(%rsp), %rdi
 13335      A0020000 
 13336 6c59 488918   		movq	%rbx, (%rax)
 13337              	.LEHB529:
 13338 6c5c E8000000 		call	_ZN8UnitTest16SignalTranslatorC1Ev@PLT
 13338      00
 13339              	.LEHE529:
 13340 6c61 488B3D00 		movq	_ZN8UnitTest16SignalTranslator12s_jumpTargetE(%rip), %rdi
 13340      000000
 13341 6c68 BE010000 		movl	$1, %esi
 13341      00
 13342 6c6d E8000000 		call	__sigsetjmp@PLT
 13342      00
 13343 6c72 85C0     		testl	%eax, %eax
 13344 6c74 742A     		je	.L1400
 13345 6c76 BF080000 		movl	$8, %edi
 13345      00
 13346 6c7b E8000000 		call	__cxa_allocate_exception@PLT
 13346      00
 13347 6c80 488D0D00 		leaq	.LC3(%rip), %rcx
 13347      000000
 13348 6c87 488D3500 		leaq	_ZTIPKc(%rip), %rsi
 13348      000000
 13349 6c8e 31D2     		xorl	%edx, %edx
 13350 6c90 4889C7   		movq	%rax, %rdi
 13351 6c93 488908   		movq	%rcx, (%rax)
 13352              	.LEHB530:
 13353 6c96 E8000000 		call	__cxa_throw@PLT
 13353      00
 13354 6c9b 0F1F4400 		.p2align 4,,10
 13354      00
 13355              		.p2align 3
 13356              	.L1400:
 13357 6ca0 488DBC24 		leaq	192(%rsp), %rdi
 13357      C0000000 
 13358 6ca8 488D0D00 		leaq	.LC24(%rip), %rcx
 13358      000000
 13359 6caf 488D1500 		leaq	.LC38(%rip), %rdx
 13359      000000
 13360 6cb6 488D3500 		leaq	.LC47(%rip), %rsi
 13360      000000
 13361 6cbd 4531C0   		xorl	%r8d, %r8d
 13362 6cc0 E8000000 		call	_ZN8UnitTest4TestC2EPKcS2_S2_i@PLT
 13362      00
 13363              	.LEHE530:
 13364 6cc5 488B2C24 		movq	(%rsp), %rbp
 13365 6cc9 488D0500 		leaq	16+_ZTVN12_GLOBAL__N_18MockTestE(%rip), %rax
 13365      000000
 13366 6cd0 488DB424 		leaq	192(%rsp), %rsi
 13366      C0000000 
 13367 6cd8 C68424F1 		movb	$1, 241(%rsp)
 13367      00000001 
 13368 6ce0 C68424F2 		movb	$0, 242(%rsp)
 13368      00000000 
 13369 6ce8 48898424 		movq	%rax, 192(%rsp)
 13369      C0000000 
 13370 6cf0 C78424F4 		movl	$1, 244(%rsp)
 13370      00000001 
 13370      000000
 13371 6cfb 488D9D48 		leaq	2120(%rbp), %rbx
 13371      080000
 13372 6d02 4889DF   		movq	%rbx, %rdi
 13373              	.LEHB531:
 13374 6d05 E8000000 		call	_ZN8UnitTest8TestList3AddEPNS_4TestE@PLT
 13374      00
 13375 6d0a E8000000 		call	_ZN8UnitTest11CurrentTest7ResultsEv@PLT
 13375      00
 13376 6d0f 4C8B28   		movq	(%rax), %r13
 13377 6d12 E8000000 		call	_ZN8UnitTest11CurrentTest7DetailsEv@PLT
 13377      00
 13378 6d17 4889DF   		movq	%rbx, %rdi
 13379 6d1a 4C8B20   		movq	(%rax), %r12
 13380 6d1d E8000000 		call	_ZNK8UnitTest8TestList7GetHeadEv@PLT
 13380      00
 13381 6d22 4885C0   		testq	%rax, %rax
 13382 6d25 4889C3   		movq	%rax, %rbx
 13383 6d28 0F851401 		jne	.L1403
 13383      0000
 13384 6d2e 6690     		.p2align 4,,10
 13385              		.p2align 3
 13386              	.L1401:
 13387 6d30 488B1C24 		movq	(%rsp), %rbx
 13388 6d34 4889DF   		movq	%rbx, %rdi
 13389 6d37 E8000000 		call	_ZNK8UnitTest10TestRunner6FinishEv@PLT
 13389      00
 13390 6d3c E8000000 		call	_ZN8UnitTest11CurrentTest7ResultsEv@PLT
 13390      00
 13391 6d41 4C8928   		movq	%r13, (%rax)
 13392 6d44 E8000000 		call	_ZN8UnitTest11CurrentTest7DetailsEv@PLT
 13392      00
 13393              	.LEHE531:
 13394 6d49 4C8920   		movq	%r12, (%rax)
 13395              	.LEHB532:
 13396 6d4c E8000000 		call	_ZN8UnitTest11CurrentTest7DetailsEv@PLT
 13396      00
 13397 6d51 488B30   		movq	(%rax), %rsi
 13398 6d54 488DBC24 		leaq	160(%rsp), %rdi
 13398      A0000000 
 13399 6d5c BA440000 		movl	$68, %edx
 13399      00
 13400 6d61 E8000000 		call	_ZN8UnitTest11TestDetailsC1ERKS0_i@PLT
 13400      00
 13401 6d66 4883C320 		addq	$32, %rbx
 13402 6d6a C744241C 		movl	$1, 28(%rsp)
 13402      01000000 
 13403 6d72 E8000000 		call	_ZN8UnitTest11CurrentTest7ResultsEv@PLT
 13403      00
 13404 6d77 488B38   		movq	(%rax), %rdi
 13405 6d7a 488D8C24 		leaq	160(%rsp), %rcx
 13405      A0000000 
 13406 6d82 488D7424 		leaq	28(%rsp), %rsi
 13406      1C
 13407 6d87 4889DA   		movq	%rbx, %rdx
 13408 6d8a E8000000 		call	_ZN8UnitTest10CheckEqualIiiEEvRNS_11TestResultsERKT_RKT0_RKNS_11TestDetailsE
 13408      00
 13409              	.LEHE532:
 13410              	.L1407:
 13411              	.LEHB533:
 13412 6d8f E8000000 		call	_ZN8UnitTest11CurrentTest7DetailsEv@PLT
 13412      00
 13413 6d94 488B30   		movq	(%rax), %rsi
 13414 6d97 488D7C24 		leaq	96(%rsp), %rdi
 13414      60
 13415 6d9c BA450000 		movl	$69, %edx
 13415      00
 13416 6da1 E8000000 		call	_ZN8UnitTest11TestDetailsC1ERKS0_i@PLT
 13416      00
 13417 6da6 488B1C24 		movq	(%rsp), %rbx
 13418 6daa 4881C324 		addq	$292, %rbx
 13418      010000
 13419 6db1 E8000000 		call	_ZN8UnitTest11CurrentTest7ResultsEv@PLT
 13419      00
 13420 6db6 488B38   		movq	(%rax), %rdi
 13421 6db9 488D4C24 		leaq	96(%rsp), %rcx
 13421      60
 13422 6dbe 488D3500 		leaq	.LC47(%rip), %rsi
 13422      000000
 13423 6dc5 4889DA   		movq	%rbx, %rdx
 13424 6dc8 E8000000 		call	_ZN8UnitTest10CheckEqualERNS_11TestResultsEPKcPcRKNS_11TestDetailsE@PLT
 13424      00
 13425              	.LEHE533:
 13426              	.L1411:
 13427 6dcd 488D0500 		leaq	16+_ZTVN12_GLOBAL__N_18MockTestE(%rip), %rax
 13427      000000
 13428 6dd4 488DBC24 		leaq	192(%rsp), %rdi
 13428      C0000000 
 13429 6ddc 48898424 		movq	%rax, 192(%rsp)
 13429      C0000000 
 13430              	.LEHB534:
 13431 6de4 E8000000 		call	_ZN8UnitTest4TestD2Ev@PLT
 13431      00
 13432              	.LEHE534:
 13433 6de9 488DBC24 		leaq	672(%rsp), %rdi
 13433      A0020000 
 13434              	.LEHB535:
 13435 6df1 E8000000 		call	_ZN8UnitTest16SignalTranslatorD1Ev@PLT
 13435      00
 13436              	.LEHE535:
 13437              	.L1398:
 13438 6df6 488B8424 		movq	1800(%rsp), %rax
 13438      08070000 
 13439 6dfe 64483304 		xorq	%fs:40, %rax
 13439      25280000 
 13439      00
 13440 6e07 0F85F800 		jne	.L1440
 13440      0000
 13441 6e0d 4881C418 		addq	$1816, %rsp
 13441      070000
 13442              		.cfi_remember_state
 13443              		.cfi_def_cfa_offset 40
 13444 6e14 5B       		popq	%rbx
 13445              		.cfi_def_cfa_offset 32
 13446 6e15 5D       		popq	%rbp
 13447              		.cfi_def_cfa_offset 24
 13448 6e16 415C     		popq	%r12
 13449              		.cfi_def_cfa_offset 16
 13450 6e18 415D     		popq	%r13
 13451              		.cfi_def_cfa_offset 8
 13452 6e1a C3       		ret
 13453 6e1b 0F1F4400 		.p2align 4,,10
 13453      00
 13454              		.p2align 3
 13455              	.L1402:
 13456              		.cfi_restore_state
 13457 6e20 488B0424 		movq	(%rsp), %rax
 13458 6e24 31C9     		xorl	%ecx, %ecx
 13459 6e26 4889DA   		movq	%rbx, %rdx
 13460 6e29 4889EF   		movq	%rbp, %rdi
 13461 6e2c 488B7008 		movq	8(%rax), %rsi
 13462              	.LEHB536:
 13463 6e30 E8000000 		call	_ZNK8UnitTest10TestRunner7RunTestEPNS_11TestResultsEPNS_4TestEi@PLT
 13463      00
 13464              	.L1404:
 13465 6e35 488B5B28 		movq	40(%rbx), %rbx
 13466 6e39 4885DB   		testq	%rbx, %rbx
 13467 6e3c 0F84EEFE 		je	.L1401
 13467      FFFF
 13468              	.L1403:
 13469 6e42 31D2     		xorl	%edx, %edx
 13470 6e44 4889DE   		movq	%rbx, %rsi
 13471 6e47 4889EF   		movq	%rbp, %rdi
 13472 6e4a E8000000 		call	_ZNK8UnitTest10TestRunner13IsTestInSuiteEPKNS_4TestEPKc@PLT
 13472      00
 13473              	.LEHE536:
 13474 6e4f 84C0     		testb	%al, %al
 13475 6e51 74E2     		je	.L1404
 13476 6e53 EBCB     		jmp	.L1402
 13477              	.L1426:
 13478 6e55 4889C3   		movq	%rax, %rbx
 13479 6e58 4889D5   		movq	%rdx, %rbp
 13480              	.L1413:
 13481 6e5b 488DBC24 		leaq	672(%rsp), %rdi
 13481      A0020000 
 13482 6e63 E8000000 		call	_ZN8UnitTest16SignalTranslatorD1Ev@PLT
 13482      00
 13483 6e68 4889DF   		movq	%rbx, %rdi
 13484 6e6b 4889EA   		movq	%rbp, %rdx
 13485              	.L1414:
 13486 6e6e 4883FA01 		cmpq	$1, %rdx
 13487 6e72 0F84B501 		je	.L1416
 13487      0000
 13488 6e78 4883FA02 		cmpq	$2, %rdx
 13489 6e7c 0F858301 		jne	.L1441
 13489      0000
 13490 6e82 E8000000 		call	__cxa_begin_catch@PLT
 13490      00
 13491 6e87 488DBC24 		leaq	256(%rsp), %rdi
 13491      00010000 
 13492 6e8f 4889C3   		movq	%rax, %rbx
 13493              	.LEHB537:
 13494 6e92 E8000000 		call	_ZN8UnitTest15MemoryOutStreamC1Ev
 13494      00
 13495              	.LEHE537:
 13496 6e97 488DBC24 		leaq	256(%rsp), %rdi
 13496      00010000 
 13497 6e9f 488D3500 		leaq	.LC11(%rip), %rsi
 13497      000000
 13498 6ea6 BA150000 		movl	$21, %edx
 13498      00
 13499              	.LEHB538:
 13500 6eab E8000000 		call	_ZSt16__ostream_insertIcSt11char_traitsIcEERSt13basic_ostreamIT_T0_ES6_PKS3_l@PLT
 13500      00
 13501 6eb0 488B03   		movq	(%rbx), %rax
 13502 6eb3 4889DF   		movq	%rbx, %rdi
 13503 6eb6 FF5010   		call	*16(%rax)
 13504 6eb9 488DBC24 		leaq	256(%rsp), %rdi
 13504      00010000 
 13505 6ec1 4889C6   		movq	%rax, %rsi
 13506 6ec4 E8000000 		call	_ZStlsISt11char_traitsIcEERSt13basic_ostreamIcT_ES5_PKc@PLT
 13506      00
 13507 6ec9 E8000000 		call	_ZN8UnitTest11CurrentTest7ResultsEv@PLT
 13507      00
 13508 6ece 488DBC24 		leaq	256(%rsp), %rdi
 13508      00010000 
 13509 6ed6 488B18   		movq	(%rax), %rbx
 13510 6ed9 E8000000 		call	_ZNK8UnitTest15MemoryOutStream7GetTextEv@PLT
 13510      00
 13511 6ede 488B7424 		movq	8(%rsp), %rsi
 13511      08
 13512 6ee3 4889C2   		movq	%rax, %rdx
 13513 6ee6 4889DF   		movq	%rbx, %rdi
 13514 6ee9 E8000000 		call	_ZN8UnitTest11TestResults13OnTestFailureERKNS_11TestDetailsEPKc@PLT
 13514      00
 13515              	.LEHE538:
 13516 6eee 488DBC24 		leaq	256(%rsp), %rdi
 13516      00010000 
 13517              	.LEHB539:
 13518 6ef6 E8000000 		call	_ZN8UnitTest15MemoryOutStreamD1Ev
 13518      00
 13519              	.LEHE539:
 13520              	.L1438:
 13521 6efb E8000000 		call	__cxa_end_catch@PLT
 13521      00
 13522 6f00 E9F1FEFF 		jmp	.L1398
 13522      FF
 13523              	.L1440:
 13524 6f05 E8000000 		call	__stack_chk_fail@PLT
 13524      00
 13525              	.L1425:
 13526 6f0a 4889C7   		movq	%rax, %rdi
 13527 6f0d E95CFFFF 		jmp	.L1414
 13527      FF
 13528              	.L1435:
 13529 6f12 4889C7   		movq	%rax, %rdi
 13530 6f15 E8000000 		call	__cxa_begin_catch@PLT
 13530      00
 13531              	.LEHB540:
 13532 6f1a E8000000 		call	_ZN8UnitTest11CurrentTest7ResultsEv@PLT
 13532      00
 13533 6f1f 488B18   		movq	(%rax), %rbx
 13534 6f22 E8000000 		call	_ZN8UnitTest11CurrentTest7DetailsEv@PLT
 13534      00
 13535 6f27 488B30   		movq	(%rax), %rsi
 13536 6f2a 488DBC24 		leaq	128(%rsp), %rdi
 13536      80000000 
 13537 6f32 BA440000 		movl	$68, %edx
 13537      00
 13538 6f37 E8000000 		call	_ZN8UnitTest11TestDetailsC1ERKS0_i@PLT
 13538      00
 13539 6f3c 488DB424 		leaq	128(%rsp), %rsi
 13539      80000000 
 13540 6f44 488D1500 		leaq	.LC50(%rip), %rdx
 13540      000000
 13541 6f4b 4889DF   		movq	%rbx, %rdi
 13542 6f4e E8000000 		call	_ZN8UnitTest11TestResults13OnTestFailureERKNS_11TestDetailsEPKc@PLT
 13542      00
 13543              	.LEHE540:
 13544              	.LEHB541:
 13545 6f53 E8000000 		call	__cxa_end_catch@PLT
 13545      00
 13546              	.LEHE541:
 13547 6f58 E932FEFF 		jmp	.L1407
 13547      FF
 13548              	.L1433:
 13549 6f5d 4889C7   		movq	%rax, %rdi
 13550 6f60 E8000000 		call	__cxa_begin_catch@PLT
 13550      00
 13551              	.LEHB542:
 13552 6f65 E8000000 		call	_ZN8UnitTest11CurrentTest7ResultsEv@PLT
 13552      00
 13553 6f6a 488B18   		movq	(%rax), %rbx
 13554 6f6d E8000000 		call	_ZN8UnitTest11CurrentTest7DetailsEv@PLT
 13554      00
 13555 6f72 488B30   		movq	(%rax), %rsi
 13556 6f75 488D7C24 		leaq	64(%rsp), %rdi
 13556      40
 13557 6f7a BA450000 		movl	$69, %edx
 13557      00
 13558 6f7f E8000000 		call	_ZN8UnitTest11TestDetailsC1ERKS0_i@PLT
 13558      00
 13559 6f84 488D7424 		leaq	64(%rsp), %rsi
 13559      40
 13560 6f89 488D1500 		leaq	.LC51(%rip), %rdx
 13560      000000
 13561 6f90 4889DF   		movq	%rbx, %rdi
 13562 6f93 E8000000 		call	_ZN8UnitTest11TestResults13OnTestFailureERKNS_11TestDetailsEPKc@PLT
 13562      00
 13563              	.LEHE542:
 13564              	.LEHB543:
 13565 6f98 E8000000 		call	__cxa_end_catch@PLT
 13565      00
 13566              	.LEHE543:
 13567 6f9d E92BFEFF 		jmp	.L1411
 13567      FF
 13568              	.L1431:
 13569 6fa2 4889C3   		movq	%rax, %rbx
 13570 6fa5 4889D5   		movq	%rdx, %rbp
 13571              	.L1409:
 13572 6fa8 488D0500 		leaq	16+_ZTVN12_GLOBAL__N_18MockTestE(%rip), %rax
 13572      000000
 13573 6faf 488DBC24 		leaq	192(%rsp), %rdi
 13573      C0000000 
 13574 6fb7 48898424 		movq	%rax, 192(%rsp)
 13574      C0000000 
 13575 6fbf E8000000 		call	_ZN8UnitTest4TestD2Ev@PLT
 13575      00
 13576 6fc4 E992FEFF 		jmp	.L1413
 13576      FF
 13577              	.L1434:
 13578 6fc9 4889C3   		movq	%rax, %rbx
 13579 6fcc 4889D5   		movq	%rdx, %rbp
 13580 6fcf E8000000 		call	__cxa_end_catch@PLT
 13580      00
 13581 6fd4 EBD2     		jmp	.L1409
 13582              	.L1432:
 13583 6fd6 4889C3   		movq	%rax, %rbx
 13584 6fd9 4889D5   		movq	%rdx, %rbp
 13585 6fdc E8000000 		call	__cxa_end_catch@PLT
 13585      00
 13586 6fe1 EBC5     		jmp	.L1409
 13587              	.L1429:
 13588 6fe3 488DBC24 		leaq	256(%rsp), %rdi
 13588      00010000 
 13589 6feb 4889C3   		movq	%rax, %rbx
 13590 6fee E8000000 		call	_ZN8UnitTest15MemoryOutStreamD1Ev
 13590      00
 13591              	.L1422:
 13592 6ff3 E8000000 		call	__cxa_end_catch@PLT
 13592      00
 13593 6ff8 4889DF   		movq	%rbx, %rdi
 13594              	.LEHB544:
 13595 6ffb E8000000 		call	_Unwind_Resume@PLT
 13595      00
 13596              	.LEHE544:
 13597              	.L1428:
 13598              	.L1439:
 13599 7000 4889C3   		movq	%rax, %rbx
 13600 7003 EBEE     		jmp	.L1422
 13601              	.L1441:
 13602 7005 E8000000 		call	__cxa_begin_catch@PLT
 13602      00
 13603              	.LEHB545:
 13604 700a E8000000 		call	_ZN8UnitTest11CurrentTest7ResultsEv@PLT
 13604      00
 13605 700f 488B7424 		movq	8(%rsp), %rsi
 13605      08
 13606 7014 488B38   		movq	(%rax), %rdi
 13607 7017 488D1500 		leaq	.LC12(%rip), %rdx
 13607      000000
 13608 701e E8000000 		call	_ZN8UnitTest11TestResults13OnTestFailureERKNS_11TestDetailsEPKc@PLT
 13608      00
 13609              	.LEHE545:
 13610              	.LEHB546:
 13611 7023 E8000000 		call	__cxa_end_catch@PLT
 13611      00
 13612              	.LEHE546:
 13613 7028 E9C9FDFF 		jmp	.L1398
 13613      FF
 13614              	.L1416:
 13615 702d E8000000 		call	__cxa_begin_catch@PLT
 13615      00
 13616 7032 4889C3   		movq	%rax, %rbx
 13617              	.LEHB547:
 13618 7035 E8000000 		call	_ZN8UnitTest11CurrentTest7ResultsEv@PLT
 13618      00
 13619 703a 488B28   		movq	(%rax), %rbp
 13620 703d 488B03   		movq	(%rbx), %rax
 13621 7040 4889DF   		movq	%rbx, %rdi
 13622 7043 FF5010   		call	*16(%rax)
 13623 7046 4889DF   		movq	%rbx, %rdi
 13624 7049 4989C4   		movq	%rax, %r12
 13625 704c E8000000 		call	_ZNK8UnitTest15AssertException10LineNumberEv@PLT
 13625      00
 13626 7051 4889DF   		movq	%rbx, %rdi
 13627 7054 4189C5   		movl	%eax, %r13d
 13628 7057 E8000000 		call	_ZNK8UnitTest15AssertException8FilenameEv@PLT
 13628      00
 13629 705c 488B5424 		movq	8(%rsp), %rdx
 13629      08
 13630 7061 488D7C24 		leaq	32(%rsp), %rdi
 13630      20
 13631 7066 4589E8   		movl	%r13d, %r8d
 13632 7069 4889C1   		movq	%rax, %rcx
 13633 706c 488B7208 		movq	8(%rdx), %rsi
 13634 7070 488B12   		movq	(%rdx), %rdx
 13635 7073 E8000000 		call	_ZN8UnitTest11TestDetailsC1EPKcS2_S2_i@PLT
 13635      00
 13636 7078 488D7424 		leaq	32(%rsp), %rsi
 13636      20
 13637 707d 4C89E2   		movq	%r12, %rdx
 13638 7080 4889EF   		movq	%rbp, %rdi
 13639 7083 E8000000 		call	_ZN8UnitTest11TestResults13OnTestFailureERKNS_11TestDetailsEPKc@PLT
 13639      00
 13640              	.LEHE547:
 13641 7088 E96EFEFF 		jmp	.L1438
 13641      FF
 13642              	.L1430:
 13643 708d 4889C3   		movq	%rax, %rbx
 13644 7090 E8000000 		call	__cxa_end_catch@PLT
 13644      00
 13645 7095 4889DF   		movq	%rbx, %rdi
 13646              	.LEHB548:
 13647 7098 E8000000 		call	_Unwind_Resume@PLT
 13647      00
 13648              	.LEHE548:
 13649              	.L1427:
 13650 709d E95EFFFF 		jmp	.L1439
 13650      FF
 13651              		.cfi_endproc
 13652              	.LFE1405:
 13653              		.section	.gcc_except_table
 13654              		.align 4
 13655              	.LLSDA1405:
 13656 0e90 FF       		.byte	0xff
 13657 0e91 9B       		.byte	0x9b
 13658 0e92 9001     		.uleb128 .LLSDATT1405-.LLSDATTD1405
 13659              	.LLSDATTD1405:
 13660 0e94 01       		.byte	0x1
 13661 0e95 77       		.uleb128 .LLSDACSE1405-.LLSDACSB1405
 13662              	.LLSDACSB1405:
 13663 0e96 2C       		.uleb128 .LEHB528-.LFB1405
 13664 0e97 05       		.uleb128 .LEHE528-.LEHB528
 13665 0e98 00       		.uleb128 0
 13666 0e99 00       		.uleb128 0
 13667 0e9a 3C       		.uleb128 .LEHB529-.LFB1405
 13668 0e9b 05       		.uleb128 .LEHE529-.LEHB529
 13669 0e9c EA05     		.uleb128 .L1425-.LFB1405
 13670 0e9e 05       		.uleb128 0x5
 13671 0e9f 76       		.uleb128 .LEHB530-.LFB1405
 13672 0ea0 2F       		.uleb128 .LEHE530-.LEHB530
 13673 0ea1 B504     		.uleb128 .L1426-.LFB1405
 13674 0ea3 07       		.uleb128 0x7
 13675 0ea4 E501     		.uleb128 .LEHB531-.LFB1405
 13676 0ea6 44       		.uleb128 .LEHE531-.LEHB531
 13677 0ea7 8207     		.uleb128 .L1431-.LFB1405
 13678 0ea9 07       		.uleb128 0x7
 13679 0eaa AC02     		.uleb128 .LEHB532-.LFB1405
 13680 0eac 43       		.uleb128 .LEHE532-.LEHB532
 13681 0ead F205     		.uleb128 .L1435-.LFB1405
 13682 0eaf 01       		.uleb128 0x1
 13683 0eb0 EF02     		.uleb128 .LEHB533-.LFB1405
 13684 0eb2 3E       		.uleb128 .LEHE533-.LEHB533
 13685 0eb3 BD06     		.uleb128 .L1433-.LFB1405
 13686 0eb5 01       		.uleb128 0x1
 13687 0eb6 C403     		.uleb128 .LEHB534-.LFB1405
 13688 0eb8 05       		.uleb128 .LEHE534-.LEHB534
 13689 0eb9 B504     		.uleb128 .L1426-.LFB1405
 13690 0ebb 07       		.uleb128 0x7
 13691 0ebc D103     		.uleb128 .LEHB535-.LFB1405
 13692 0ebe 05       		.uleb128 .LEHE535-.LEHB535
 13693 0ebf EA05     		.uleb128 .L1425-.LFB1405
 13694 0ec1 05       		.uleb128 0x5
 13695 0ec2 9004     		.uleb128 .LEHB536-.LFB1405
 13696 0ec4 1F       		.uleb128 .LEHE536-.LEHB536
 13697 0ec5 8207     		.uleb128 .L1431-.LFB1405
 13698 0ec7 07       		.uleb128 0x7
 13699 0ec8 F204     		.uleb128 .LEHB537-.LFB1405
 13700 0eca 05       		.uleb128 .LEHE537-.LEHB537
 13701 0ecb E007     		.uleb128 .L1428-.LFB1405
 13702 0ecd 00       		.uleb128 0
 13703 0ece 8B05     		.uleb128 .LEHB538-.LFB1405
 13704 0ed0 43       		.uleb128 .LEHE538-.LEHB538
 13705 0ed1 C307     		.uleb128 .L1429-.LFB1405
 13706 0ed3 00       		.uleb128 0
 13707 0ed4 D605     		.uleb128 .LEHB539-.LFB1405
 13708 0ed6 05       		.uleb128 .LEHE539-.LEHB539
 13709 0ed7 E007     		.uleb128 .L1428-.LFB1405
 13710 0ed9 00       		.uleb128 0
 13711 0eda FA05     		.uleb128 .LEHB540-.LFB1405
 13712 0edc 39       		.uleb128 .LEHE540-.LEHB540
 13713 0edd A907     		.uleb128 .L1434-.LFB1405
 13714 0edf 07       		.uleb128 0x7
 13715 0ee0 B306     		.uleb128 .LEHB541-.LFB1405
 13716 0ee2 05       		.uleb128 .LEHE541-.LEHB541
 13717 0ee3 8207     		.uleb128 .L1431-.LFB1405
 13718 0ee5 07       		.uleb128 0x7
 13719 0ee6 C506     		.uleb128 .LEHB542-.LFB1405
 13720 0ee8 33       		.uleb128 .LEHE542-.LEHB542
 13721 0ee9 B607     		.uleb128 .L1432-.LFB1405
 13722 0eeb 07       		.uleb128 0x7
 13723 0eec F806     		.uleb128 .LEHB543-.LFB1405
 13724 0eee 05       		.uleb128 .LEHE543-.LEHB543
 13725 0eef 8207     		.uleb128 .L1431-.LFB1405
 13726 0ef1 07       		.uleb128 0x7
 13727 0ef2 DB07     		.uleb128 .LEHB544-.LFB1405
 13728 0ef4 05       		.uleb128 .LEHE544-.LEHB544
 13729 0ef5 00       		.uleb128 0
 13730 0ef6 00       		.uleb128 0
 13731 0ef7 EA07     		.uleb128 .LEHB545-.LFB1405
 13732 0ef9 19       		.uleb128 .LEHE545-.LEHB545
 13733 0efa ED08     		.uleb128 .L1430-.LFB1405
 13734 0efc 00       		.uleb128 0
 13735 0efd 8308     		.uleb128 .LEHB546-.LFB1405
 13736 0eff 05       		.uleb128 .LEHE546-.LEHB546
 13737 0f00 00       		.uleb128 0
 13738 0f01 00       		.uleb128 0
 13739 0f02 9508     		.uleb128 .LEHB547-.LFB1405
 13740 0f04 53       		.uleb128 .LEHE547-.LEHB547
 13741 0f05 FD08     		.uleb128 .L1427-.LFB1405
 13742 0f07 00       		.uleb128 0
 13743 0f08 F808     		.uleb128 .LEHB548-.LFB1405
 13744 0f0a 05       		.uleb128 .LEHE548-.LEHB548
 13745 0f0b 00       		.uleb128 0
 13746 0f0c 00       		.uleb128 0
 13747              	.LLSDACSE1405:
 13748 0f0d 03       		.byte	0x3
 13749 0f0e 00       		.byte	0
 13750 0f0f 02       		.byte	0x2
 13751 0f10 7D       		.byte	0x7d
 13752 0f11 01       		.byte	0x1
 13753 0f12 7D       		.byte	0x7d
 13754 0f13 00       		.byte	0
 13755 0f14 7D       		.byte	0x7d
 13756 0f15 000000   		.align 4
 13757 0f18 00000000 		.long	0
 13758              	
 13759 0f1c 00000000 		.long	DW.ref._ZTISt9exception-.
 13760 0f20 00000000 		.long	DW.ref._ZTIN8UnitTest15AssertExceptionE-.
 13761              	.LLSDATT1405:
 13762              		.text
 13764              		.align 2
 13765 70a2 0F1F4000 		.p2align 4,,15
 13765      662E0F1F 
 13765      84000000 
 13765      0000
 13767              	_ZNK12_GLOBAL__N_149TestTestRunnerFixtureTestStartIsReportedCorrectly7RunImplEv:
 13768              	.LFB1175:
 13769              		.cfi_startproc
 13770              		.cfi_personality 0x9b,DW.ref.__gxx_personality_v0
 13771              		.cfi_lsda 0x1b,.LLSDA1175
 13772 70b0 4156     		pushq	%r14
 13773              		.cfi_def_cfa_offset 16
 13774              		.cfi_offset 14, -16
 13775 70b2 4155     		pushq	%r13
 13776              		.cfi_def_cfa_offset 24
 13777              		.cfi_offset 13, -24
 13778 70b4 4989FD   		movq	%rdi, %r13
 13779 70b7 4154     		pushq	%r12
 13780              		.cfi_def_cfa_offset 32
 13781              		.cfi_offset 12, -32
 13782 70b9 55       		pushq	%rbp
 13783              		.cfi_def_cfa_offset 40
 13784              		.cfi_offset 6, -40
 13785 70ba 488D6F08 		leaq	8(%rdi), %rbp
 13786 70be 53       		pushq	%rbx
 13787              		.cfi_def_cfa_offset 48
 13788              		.cfi_offset 3, -48
 13789 70bf 4881EC90 		subq	$2192, %rsp
 13789      080000
 13790              		.cfi_def_cfa_offset 2240
 13791 70c6 488D5C24 		leaq	32(%rsp), %rbx
 13791      20
 13792 70cb 64488B04 		movq	%fs:40, %rax
 13792      25280000 
 13792      00
 13793 70d4 48898424 		movq	%rax, 2184(%rsp)
 13793      88080000 
 13794 70dc 31C0     		xorl	%eax, %eax
 13795 70de 488D7318 		leaq	24(%rbx), %rsi
 13796 70e2 4889DF   		movq	%rbx, %rdi
 13797              	.LEHB549:
 13798 70e5 E8000000 		call	_ZN8UnitTest10TestRunnerC1ERNS_12TestReporterE@PLT
 13798      00
 13799              	.LEHE549:
 13800 70ea 4C8D2500 		leaq	16+_ZTV17RecordingReporter(%rip), %r12
 13800      000000
 13801 70f1 488DBB48 		leaq	2120(%rbx), %rdi
 13801      080000
 13802 70f8 C7442440 		movl	$0, 64(%rsp)
 13802      00000000 
 13803 7100 C7842444 		movl	$0, 580(%rsp)
 13803      02000000 
 13803      000000
 13804 710b C7842448 		movl	$0, 840(%rsp)
 13804      03000000 
 13804      000000
 13805 7116 4C896424 		movq	%r12, 56(%rsp)
 13805      38
 13806 711b C784244C 		movl	$0, 1612(%rsp)
 13806      06000000 
 13806      000000
 13807 7126 48C78424 		movq	$0, 2128(%rsp)
 13807      50080000 
 13807      00000000 
 13808 7132 48C78424 		movq	$0, 2136(%rsp)
 13808      58080000 
 13808      00000000 
 13809 713e C7842460 		movl	$0, 2144(%rsp)
 13809      08000000 
 13809      000000
 13810 7149 C6442444 		movb	$0, 68(%rsp)
 13810      00
 13811 714e C6842444 		movb	$0, 324(%rsp)
 13811      01000000 
 13812 7156 C6842448 		movb	$0, 584(%rsp)
 13812      02000000 
 13813 715e C684244C 		movb	$0, 844(%rsp)
 13813      03000000 
 13814 7166 C684244C 		movb	$0, 1100(%rsp)
 13814      04000000 
 13815 716e C684244C 		movb	$0, 1356(%rsp)
 13815      05000000 
 13816 7176 C6842450 		movb	$0, 1616(%rsp)
 13816      06000000 
 13817 717e C6842450 		movb	$0, 1872(%rsp)
 13817      07000000 
 13818              	.LEHB550:
 13819 7186 E8000000 		call	_ZN8UnitTest8TestListC1Ev@PLT
 13819      00
 13820              	.LEHE550:
 13821 718b 4889EE   		movq	%rbp, %rsi
 13822 718e 4889DF   		movq	%rbx, %rdi
 13823 7191 4889AC24 		movq	%rbp, 2168(%rsp)
 13823      78080000 
 13824              	.LEHB551:
 13825 7199 E882FAFF 		call	_ZN8UnitTest11ExecuteTestIN12_GLOBAL__N_151TestRunnerFixtureTestStartIsReportedCorrectlyHelpe
 13825      FF
 13826              	.LEHE551:
 13827 719e 488D7B18 		leaq	24(%rbx), %rdi
 13828 71a2 4C896424 		movq	%r12, 56(%rsp)
 13828      38
 13829              	.LEHB552:
 13830 71a7 E8000000 		call	_ZN8UnitTest12TestReporterD2Ev@PLT
 13830      00
 13831              	.LEHE552:
 13832 71ac 4889DF   		movq	%rbx, %rdi
 13833              	.LEHB553:
 13834 71af E8000000 		call	_ZN8UnitTest10TestRunnerD1Ev@PLT
 13834      00
 13835              	.LEHE553:
 13836              	.L1442:
 13837 71b4 488B8424 		movq	2184(%rsp), %rax
 13837      88080000 
 13838 71bc 64483304 		xorq	%fs:40, %rax
 13838      25280000 
 13838      00
 13839 71c5 7510     		jne	.L1490
 13840 71c7 4881C490 		addq	$2192, %rsp
 13840      080000
 13841              		.cfi_remember_state
 13842              		.cfi_def_cfa_offset 48
 13843 71ce 5B       		popq	%rbx
 13844              		.cfi_def_cfa_offset 40
 13845 71cf 5D       		popq	%rbp
 13846              		.cfi_def_cfa_offset 32
 13847 71d0 415C     		popq	%r12
 13848              		.cfi_def_cfa_offset 24
 13849 71d2 415D     		popq	%r13
 13850              		.cfi_def_cfa_offset 16
 13851 71d4 415E     		popq	%r14
 13852              		.cfi_def_cfa_offset 8
 13853 71d6 C3       		ret
 13854              	.L1490:
 13855              		.cfi_restore_state
 13856 71d7 E8000000 		call	__stack_chk_fail@PLT
 13856      00
 13857              	.L1462:
 13858 71dc 4889C7   		movq	%rax, %rdi
 13859              	.L1448:
 13860 71df 4883FA01 		cmpq	$1, %rdx
 13861 71e3 0F846F01 		je	.L1450
 13861      0000
 13862 71e9 4883FA02 		cmpq	$2, %rdx
 13863 71ed 0F853101 		jne	.L1491
 13863      0000
 13864              	.L1451:
 13865 71f3 E8000000 		call	__cxa_begin_catch@PLT
 13865      00
 13866 71f8 4889DF   		movq	%rbx, %rdi
 13867 71fb 4989C4   		movq	%rax, %r12
 13868              	.LEHB554:
 13869 71fe E8000000 		call	_ZN8UnitTest15MemoryOutStreamC1Ev
 13869      00
 13870              	.LEHE554:
 13871 7203 488D3500 		leaq	.LC11(%rip), %rsi
 13871      000000
 13872 720a BA150000 		movl	$21, %edx
 13872      00
 13873 720f 4889DF   		movq	%rbx, %rdi
 13874              	.LEHB555:
 13875 7212 E8000000 		call	_ZSt16__ostream_insertIcSt11char_traitsIcEERSt13basic_ostreamIT_T0_ES6_PKS3_l@PLT
 13875      00
 13876 7217 498B0424 		movq	(%r12), %rax
 13877 721b 4C89E7   		movq	%r12, %rdi
 13878 721e FF5010   		call	*16(%rax)
 13879 7221 4889DF   		movq	%rbx, %rdi
 13880 7224 4889C6   		movq	%rax, %rsi
 13881 7227 E8000000 		call	_ZStlsISt11char_traitsIcEERSt13basic_ostreamIcT_ES5_PKc@PLT
 13881      00
 13882 722c E8000000 		call	_ZN8UnitTest11CurrentTest7ResultsEv@PLT
 13882      00
 13883 7231 4889DF   		movq	%rbx, %rdi
 13884 7234 4C8B20   		movq	(%rax), %r12
 13885 7237 E8000000 		call	_ZNK8UnitTest15MemoryOutStream7GetTextEv@PLT
 13885      00
 13886 723c 4889C2   		movq	%rax, %rdx
 13887 723f 4889EE   		movq	%rbp, %rsi
 13888 7242 4C89E7   		movq	%r12, %rdi
 13889 7245 E8000000 		call	_ZN8UnitTest11TestResults13OnTestFailureERKNS_11TestDetailsEPKc@PLT
 13889      00
 13890              	.LEHE555:
 13891 724a 4889DF   		movq	%rbx, %rdi
 13892              	.LEHB556:
 13893 724d E8000000 		call	_ZN8UnitTest15MemoryOutStreamD1Ev
 13893      00
 13894              	.LEHE556:
 13895              	.L1489:
 13896 7252 E8000000 		call	__cxa_end_catch@PLT
 13896      00
 13897 7257 E958FFFF 		jmp	.L1442
 13897      FF
 13898              	.L1469:
 13899 725c 4989C4   		movq	%rax, %r12
 13900 725f 4989D6   		movq	%rdx, %r14
 13901 7262 4889DF   		movq	%rbx, %rdi
 13902 7265 E8000000 		call	_ZN8UnitTest10TestRunnerD1Ev@PLT
 13902      00
 13903 726a 4C89E7   		movq	%r12, %rdi
 13904 726d 4C89F2   		movq	%r14, %rdx
 13905 7270 E96AFFFF 		jmp	.L1448
 13905      FF
 13906              	.L1463:
 13907 7275 4989C4   		movq	%rax, %r12
 13908 7278 4989D6   		movq	%rdx, %r14
 13909 727b 4889DF   		movq	%rbx, %rdi
 13910 727e E8000000 		call	_ZN12_GLOBAL__N_111FixtureBaseD2Ev
 13910      00
 13911 7283 4C89E7   		movq	%r12, %rdi
 13912 7286 4C89F2   		movq	%r14, %rdx
 13913 7289 E951FFFF 		jmp	.L1448
 13913      FF
 13914              	.L1468:
 13915 728e 4989C4   		movq	%rax, %r12
 13916 7291 4989D6   		movq	%rdx, %r14
 13917 7294 4889DF   		movq	%rbx, %rdi
 13918 7297 E8000000 		call	_ZN12_GLOBAL__N_111FixtureBaseD2Ev
 13918      00
 13919 729c 4C89E7   		movq	%r12, %rdi
 13920 729f 4C89F2   		movq	%r14, %rdx
 13921              	.L1445:
 13922 72a2 4883FA01 		cmpq	$1, %rdx
 13923 72a6 0F84AC00 		je	.L1450
 13923      0000
 13924 72ac 4883FA02 		cmpq	$2, %rdx
 13925 72b0 0F843DFF 		je	.L1451
 13925      FFFF
 13926 72b6 E8000000 		call	__cxa_begin_catch@PLT
 13926      00
 13927              	.LEHB557:
 13928 72bb E8000000 		call	_ZN8UnitTest11CurrentTest7ResultsEv@PLT
 13928      00
 13929 72c0 4889E3   		movq	%rsp, %rbx
 13930 72c3 BA3E0000 		movl	$62, %edx
 13930      00
 13931 72c8 4889EE   		movq	%rbp, %rsi
 13932 72cb 4889DF   		movq	%rbx, %rdi
 13933 72ce 4C8B20   		movq	(%rax), %r12
 13934 72d1 E8000000 		call	_ZN8UnitTest11TestDetailsC1ERKS0_i@PLT
 13934      00
 13935 72d6 488D1500 		leaq	.LC14(%rip), %rdx
 13935      000000
 13936 72dd 4889DE   		movq	%rbx, %rsi
 13937 72e0 4C89E7   		movq	%r12, %rdi
 13938 72e3 E8000000 		call	_ZN8UnitTest11TestResults13OnTestFailureERKNS_11TestDetailsEPKc@PLT
 13938      00
 13939              	.LEHE557:
 13940              	.L1452:
 13941              	.LEHB558:
 13942 72e8 E8000000 		call	__cxa_end_catch@PLT
 13942      00
 13943              	.LEHE558:
 13944 72ed E9C2FEFF 		jmp	.L1442
 13944      FF
 13945              	.L1470:
 13946 72f2 4889C7   		movq	%rax, %rdi
 13947 72f5 EBAB     		jmp	.L1445
 13948              	.L1467:
 13949 72f7 4889C3   		movq	%rax, %rbx
 13950 72fa E8000000 		call	__cxa_end_catch@PLT
 13950      00
 13951 72ff 4889DF   		movq	%rbx, %rdi
 13952              	.LEHB559:
 13953 7302 E8000000 		call	_Unwind_Resume@PLT
 13953      00
 13954              	.LEHE559:
 13955              	.L1466:
 13956 7307 4889DF   		movq	%rbx, %rdi
 13957 730a 4889C5   		movq	%rax, %rbp
 13958 730d E8000000 		call	_ZN8UnitTest15MemoryOutStreamD1Ev
 13958      00
 13959              	.L1455:
 13960 7312 E8000000 		call	__cxa_end_catch@PLT
 13960      00
 13961 7317 4889EF   		movq	%rbp, %rdi
 13962              	.LEHB560:
 13963 731a E8000000 		call	_Unwind_Resume@PLT
 13963      00
 13964              	.LEHE560:
 13965              	.L1465:
 13966 731f 4889C5   		movq	%rax, %rbp
 13967 7322 EBEE     		jmp	.L1455
 13968              	.L1491:
 13969 7324 E8000000 		call	__cxa_begin_catch@PLT
 13969      00
 13970              	.LEHB561:
 13971 7329 E8000000 		call	_ZN8UnitTest11CurrentTest7ResultsEv@PLT
 13971      00
 13972 732e 4889E3   		movq	%rsp, %rbx
 13973 7331 BA3E0000 		movl	$62, %edx
 13973      00
 13974 7336 4889EE   		movq	%rbp, %rsi
 13975 7339 4889DF   		movq	%rbx, %rdi
 13976 733c 4C8B20   		movq	(%rax), %r12
 13977 733f E8000000 		call	_ZN8UnitTest11TestDetailsC1ERKS0_i@PLT
 13977      00
 13978 7344 488D1500 		leaq	.LC13(%rip), %rdx
 13978      000000
 13979 734b 4889DE   		movq	%rbx, %rsi
 13980 734e 4C89E7   		movq	%r12, %rdi
 13981 7351 E8000000 		call	_ZN8UnitTest11TestResults13OnTestFailureERKNS_11TestDetailsEPKc@PLT
 13981      00
 13982              	.LEHE561:
 13983 7356 EB90     		jmp	.L1452
 13984              	.L1450:
 13985 7358 E8000000 		call	__cxa_begin_catch@PLT
 13985      00
 13986 735d 4889C3   		movq	%rax, %rbx
 13987              	.LEHB562:
 13988 7360 E8000000 		call	_ZN8UnitTest11CurrentTest7ResultsEv@PLT
 13988      00
 13989 7365 488B28   		movq	(%rax), %rbp
 13990 7368 488B03   		movq	(%rbx), %rax
 13991 736b 4889DF   		movq	%rbx, %rdi
 13992 736e FF5010   		call	*16(%rax)
 13993 7371 4889DF   		movq	%rbx, %rdi
 13994 7374 4989C4   		movq	%rax, %r12
 13995 7377 E8000000 		call	_ZNK8UnitTest15AssertException10LineNumberEv@PLT
 13995      00
 13996 737c 4889DF   		movq	%rbx, %rdi
 13997 737f 4189C6   		movl	%eax, %r14d
 13998 7382 E8000000 		call	_ZNK8UnitTest15AssertException8FilenameEv@PLT
 13998      00
 13999 7387 498B5508 		movq	8(%r13), %rdx
 14000 738b 498B7510 		movq	16(%r13), %rsi
 14001 738f 4889E3   		movq	%rsp, %rbx
 14002 7392 4589F0   		movl	%r14d, %r8d
 14003 7395 4889C1   		movq	%rax, %rcx
 14004 7398 4889DF   		movq	%rbx, %rdi
 14005 739b E8000000 		call	_ZN8UnitTest11TestDetailsC1EPKcS2_S2_i@PLT
 14005      00
 14006 73a0 4C89E2   		movq	%r12, %rdx
 14007 73a3 4889DE   		movq	%rbx, %rsi
 14008 73a6 4889EF   		movq	%rbp, %rdi
 14009 73a9 E8000000 		call	_ZN8UnitTest11TestResults13OnTestFailureERKNS_11TestDetailsEPKc@PLT
 14009      00
 14010              	.LEHE562:
 14011 73ae E99FFEFF 		jmp	.L1489
 14011      FF
 14012              	.L1464:
 14013 73b3 4889C3   		movq	%rax, %rbx
 14014 73b6 E8000000 		call	__cxa_end_catch@PLT
 14014      00
 14015 73bb 4889DF   		movq	%rbx, %rdi
 14016              	.LEHB563:
 14017 73be E8000000 		call	_Unwind_Resume@PLT
 14017      00
 14018              	.LEHE563:
 14019              		.cfi_endproc
 14020              	.LFE1175:
 14021              		.section	.gcc_except_table
 14022              		.align 4
 14023              	.LLSDA1175:
 14024 0f24 FF       		.byte	0xff
 14025 0f25 9B       		.byte	0x9b
 14026 0f26 6D       		.uleb128 .LLSDATT1175-.LLSDATTD1175
 14027              	.LLSDATTD1175:
 14028 0f27 01       		.byte	0x1
 14029 0f28 55       		.uleb128 .LLSDACSE1175-.LLSDACSB1175
 14030              	.LLSDACSB1175:
 14031 0f29 35       		.uleb128 .LEHB549-.LFB1175
 14032 0f2a 05       		.uleb128 .LEHE549-.LEHB549
 14033 0f2b C204     		.uleb128 .L1470-.LFB1175
 14034 0f2d 05       		.uleb128 0x5
 14035 0f2e D601     		.uleb128 .LEHB550-.LFB1175
 14036 0f30 05       		.uleb128 .LEHE550-.LEHB550
 14037 0f31 DE03     		.uleb128 .L1468-.LFB1175
 14038 0f33 07       		.uleb128 0x7
 14039 0f34 E901     		.uleb128 .LEHB551-.LFB1175
 14040 0f36 05       		.uleb128 .LEHE551-.LEHB551
 14041 0f37 C503     		.uleb128 .L1463-.LFB1175
 14042 0f39 07       		.uleb128 0x7
 14043 0f3a F701     		.uleb128 .LEHB552-.LFB1175
 14044 0f3c 05       		.uleb128 .LEHE552-.LEHB552
 14045 0f3d AC03     		.uleb128 .L1469-.LFB1175
 14046 0f3f 07       		.uleb128 0x7
 14047 0f40 FF01     		.uleb128 .LEHB553-.LFB1175
 14048 0f42 05       		.uleb128 .LEHE553-.LEHB553
 14049 0f43 AC02     		.uleb128 .L1462-.LFB1175
 14050 0f45 05       		.uleb128 0x5
 14051 0f46 CE02     		.uleb128 .LEHB554-.LFB1175
 14052 0f48 05       		.uleb128 .LEHE554-.LEHB554
 14053 0f49 EF04     		.uleb128 .L1465-.LFB1175
 14054 0f4b 00       		.uleb128 0
 14055 0f4c E202     		.uleb128 .LEHB555-.LFB1175
 14056 0f4e 38       		.uleb128 .LEHE555-.LEHB555
 14057 0f4f D704     		.uleb128 .L1466-.LFB1175
 14058 0f51 00       		.uleb128 0
 14059 0f52 9D03     		.uleb128 .LEHB556-.LFB1175
 14060 0f54 05       		.uleb128 .LEHE556-.LEHB556
 14061 0f55 EF04     		.uleb128 .L1465-.LFB1175
 14062 0f57 00       		.uleb128 0
 14063 0f58 8B04     		.uleb128 .LEHB557-.LFB1175
 14064 0f5a 2D       		.uleb128 .LEHE557-.LEHB557
 14065 0f5b C704     		.uleb128 .L1467-.LFB1175
 14066 0f5d 00       		.uleb128 0
 14067 0f5e B804     		.uleb128 .LEHB558-.LFB1175
 14068 0f60 05       		.uleb128 .LEHE558-.LEHB558
 14069 0f61 00       		.uleb128 0
 14070 0f62 00       		.uleb128 0
 14071 0f63 D204     		.uleb128 .LEHB559-.LFB1175
 14072 0f65 05       		.uleb128 .LEHE559-.LEHB559
 14073 0f66 00       		.uleb128 0
 14074 0f67 00       		.uleb128 0
 14075 0f68 EA04     		.uleb128 .LEHB560-.LFB1175
 14076 0f6a 05       		.uleb128 .LEHE560-.LEHB560
 14077 0f6b 00       		.uleb128 0
 14078 0f6c 00       		.uleb128 0
 14079 0f6d F904     		.uleb128 .LEHB561-.LFB1175
 14080 0f6f 2D       		.uleb128 .LEHE561-.LEHB561
 14081 0f70 C704     		.uleb128 .L1467-.LFB1175
 14082 0f72 00       		.uleb128 0
 14083 0f73 B005     		.uleb128 .LEHB562-.LFB1175
 14084 0f75 4E       		.uleb128 .LEHE562-.LEHB562
 14085 0f76 8306     		.uleb128 .L1464-.LFB1175
 14086 0f78 00       		.uleb128 0
 14087 0f79 8E06     		.uleb128 .LEHB563-.LFB1175
 14088 0f7b 05       		.uleb128 .LEHE563-.LEHB563
 14089 0f7c 00       		.uleb128 0
 14090 0f7d 00       		.uleb128 0
 14091              	.LLSDACSE1175:
 14092 0f7e 03       		.byte	0x3
 14093 0f7f 00       		.byte	0
 14094 0f80 02       		.byte	0x2
 14095 0f81 7D       		.byte	0x7d
 14096 0f82 01       		.byte	0x1
 14097 0f83 7D       		.byte	0x7d
 14098 0f84 00       		.byte	0
 14099 0f85 7D       		.byte	0x7d
 14100 0f86 0000     		.align 4
 14101 0f88 00000000 		.long	0
 14102              	
 14103 0f8c 00000000 		.long	DW.ref._ZTISt9exception-.
 14104 0f90 00000000 		.long	DW.ref._ZTIN8UnitTest15AssertExceptionE-.
 14105              	.LLSDATT1175:
 14106              		.text
 14108              		.section	.rodata.str1.1
 14109              	.LC52:
 14110 00de 54657374 		.string	"TestTestRunner.cpp"
 14110      54657374 
 14110      52756E6E 
 14110      65722E63 
 14110      707000
 14111              	.LC53:
 14112 00f1 54657374 		.string	"TestStartIsReportedCorrectly"
 14112      53746172 
 14112      74497352 
 14112      65706F72 
 14112      74656443 
 14113              	.LC54:
 14114 010e 54657374 		.string	"TestFinishIsReportedCorrectly"
 14114      46696E69 
 14114      73684973 
 14114      5265706F 
 14114      72746564 
 14115              		.section	.rodata.str1.8
 14116 0849 00000000 		.align 8
 14116      000000
 14117              	.LC55:
 14118 0850 54657374 		.string	"TestFinishIsCalledWithCorrectTime"
 14118      46696E69 
 14118      73684973 
 14118      43616C6C 
 14118      65645769 
 14119 0872 00000000 		.align 8
 14119      0000
 14120              	.LC56:
 14121 0878 4661696C 		.string	"FailureCountIsZeroWhenNoTestsAreRun"
 14121      75726543 
 14121      6F756E74 
 14121      49735A65 
 14121      726F5768 
 14122 089c 00000000 		.align 8
 14123              	.LC57:
 14124 08a0 43616C6C 		.string	"CallsReportFailureOncePerFailingTest"
 14124      73526570 
 14124      6F727446 
 14124      61696C75 
 14124      72654F6E 
 14125 08c5 000000   		.align 8
 14126              	.LC58:
 14127 08c8 54657374 		.string	"TestsThatAssertAreReportedAsFailing"
 14127      73546861 
 14127      74417373 
 14127      65727441 
 14127      72655265 
 14128              		.section	.rodata.str1.1
 14129              	.LC59:
 14130 012c 5265706F 		.string	"ReporterNotifiedOfTestCount"
 14130      72746572 
 14130      4E6F7469 
 14130      66696564 
 14130      4F665465 
 14131              	.LC60:
 14132 0148 5265706F 		.string	"ReporterNotifiedOfFailedTests"
 14132      72746572 
 14132      4E6F7469 
 14132      66696564 
 14132      4F664661 
 14133              	.LC61:
 14134 0166 5265706F 		.string	"ReporterNotifiedOfFailures"
 14134      72746572 
 14134      4E6F7469 
 14134      66696564 
 14134      4F664661 
 14135              		.section	.rodata.str1.8
 14136 08ec 00000000 		.align 8
 14137              	.LC62:
 14138 08f0 536C6F77 		.string	"SlowTestPassesForHighTimeThreshold"
 14138      54657374 
 14138      50617373 
 14138      6573466F 
 14138      72486967 
 14139 0913 00000000 		.align 8
 14139      00
 14140              	.LC63:
 14141 0918 536C6F77 		.string	"SlowTestFailsForLowTimeThreshold"
 14141      54657374 
 14141      4661696C 
 14141      73466F72 
 14141      4C6F7754 
 14142 0939 00000000 		.align 8
 14142      000000
 14143              	.LC64:
 14144 0940 536C6F77 		.string	"SlowTestHasCorrectFailureInformation"
 14144      54657374 
 14144      48617343 
 14144      6F727265 
 14144      63744661 
 14145 0965 000000   		.align 8
 14146              	.LC65:
 14147 0968 536C6F77 		.string	"SlowTestWithTimeExemptionPasses"
 14147      54657374 
 14147      57697468 
 14147      54696D65 
 14147      4578656D 
 14148              		.align 8
 14149              	.LC66:
 14150 0988 54657374 		.string	"TestRunnerRunsAllSuitesIfNullSuiteIsPassed"
 14150      52756E6E 
 14150      65725275 
 14150      6E73416C 
 14150      6C537569 
 14151 09b3 00000000 		.align 8
 14151      00
 14152              	.LC67:
 14153 09b8 54657374 		.string	"TestRunnerRunsOnlySpecifiedSuite"
 14153      52756E6E 
 14153      65725275 
 14153      6E734F6E 
 14153      6C795370 
 14154 09d9 00000000 		.align 8
 14154      000000
 14155              	.LC68:
 14156 09e0 54657374 		.string	"TestMockPredicateBehavesCorrectly"
 14156      4D6F636B 
 14156      50726564 
 14156      69636174 
 14156      65426568 
 14157 0a02 00000000 		.align 8
 14157      0000
 14158              	.LC69:
 14159 0a08 54657374 		.string	"TestRunnerRunsTestsThatPassPredicate"
 14159      52756E6E 
 14159      65725275 
 14159      6E735465 
 14159      73747354 
 14160 0a2d 000000   		.align 8
 14161              	.LC70:
 14162 0a30 54657374 		.string	"TestRunnerOnlyRunsTestsInSpecifiedSuiteAndThatPassPredicate"
 14162      52756E6E 
 14162      65724F6E 
 14162      6C795275 
 14162      6E735465 
 14163              		.section	.text.startup,"ax",@progbits
 14164              		.p2align 4,,15
 14166              	_GLOBAL__sub_I_TestTestRunner.cpp:
 14167              	.LFB1575:
 14168              		.cfi_startproc
 14169 0000 53       		pushq	%rbx
 14170              		.cfi_def_cfa_offset 16
 14171              		.cfi_offset 3, -16
 14172 0001 488D0D00 		leaq	.LC52(%rip), %rcx
 14172      000000
 14173 0008 488D1500 		leaq	.LC38(%rip), %rdx
 14173      000000
 14174 000f 488D3500 		leaq	.LC53(%rip), %rsi
 14174      000000
 14175 0016 488D3D00 		leaq	_ZN12_GLOBAL__N_157testTestRunnerFixtureTestStartIsReportedCorrectlyInstanceE(%rip), %rdi
 14175      000000
 14176 001d 41B83E00 		movl	$62, %r8d
 14176      0000
 14177 0023 488D1D00 		leaq	_ZN12_GLOBAL__N_157testTestRunnerFixtureTestStartIsReportedCorrectlyInstanceE(%rip), %rbx
 14177      000000
 14178 002a E8000000 		call	_ZN8UnitTest4TestC2EPKcS2_S2_i@PLT
 14178      00
 14179 002f 488D1500 		leaq	__dso_handle(%rip), %rdx
 14179      000000
 14180 0036 488D3D00 		leaq	_ZN12_GLOBAL__N_149TestTestRunnerFixtureTestStartIsReportedCorrectlyD1Ev(%rip), %rdi
 14180      000000
 14181 003d 488D0500 		leaq	16+_ZTVN12_GLOBAL__N_149TestTestRunnerFixtureTestStartIsReportedCorrectlyE(%rip), %rax
 14181      000000
 14182 0044 4889DE   		movq	%rbx, %rsi
 14183 0047 48890500 		movq	%rax, _ZN12_GLOBAL__N_157testTestRunnerFixtureTestStartIsReportedCorrectlyInstanceE(%rip)
 14183      000000
 14184 004e E8000000 		call	__cxa_atexit@PLT
 14184      00
 14185 0053 E8000000 		call	_ZN8UnitTest4Test11GetTestListEv@PLT
 14185      00
 14186 0058 488D3D00 		leaq	_ZN12_GLOBAL__N_150adderTestRunnerFixtureTestStartIsReportedCorrectlyE(%rip), %rdi
 14186      000000
 14187 005f 4889C6   		movq	%rax, %rsi
 14188 0062 4889DA   		movq	%rbx, %rdx
 14189 0065 488D1D00 		leaq	_ZN12_GLOBAL__N_158testTestRunnerFixtureTestFinishIsReportedCorrectlyInstanceE(%rip), %rbx
 14189      000000
 14190 006c E8000000 		call	_ZN8UnitTest9ListAdderC1ERNS_8TestListEPNS_4TestE@PLT
 14190      00
 14191 0071 488D0D00 		leaq	.LC52(%rip), %rcx
 14191      000000
 14192 0078 488D1500 		leaq	.LC38(%rip), %rdx
 14192      000000
 14193 007f 488D3500 		leaq	.LC54(%rip), %rsi
 14193      000000
 14194 0086 488D3D00 		leaq	_ZN12_GLOBAL__N_158testTestRunnerFixtureTestFinishIsReportedCorrectlyInstanceE(%rip), %rdi
 14194      000000
 14195 008d 41B84800 		movl	$72, %r8d
 14195      0000
 14196 0093 E8000000 		call	_ZN8UnitTest4TestC2EPKcS2_S2_i@PLT
 14196      00
 14197 0098 488D1500 		leaq	__dso_handle(%rip), %rdx
 14197      000000
 14198 009f 488D3D00 		leaq	_ZN12_GLOBAL__N_150TestTestRunnerFixtureTestFinishIsReportedCorrectlyD1Ev(%rip), %rdi
 14198      000000
 14199 00a6 488D0500 		leaq	16+_ZTVN12_GLOBAL__N_150TestTestRunnerFixtureTestFinishIsReportedCorrectlyE(%rip), %rax
 14199      000000
 14200 00ad 4889DE   		movq	%rbx, %rsi
 14201 00b0 48890500 		movq	%rax, _ZN12_GLOBAL__N_158testTestRunnerFixtureTestFinishIsReportedCorrectlyInstanceE(%rip)
 14201      000000
 14202 00b7 E8000000 		call	__cxa_atexit@PLT
 14202      00
 14203 00bc E8000000 		call	_ZN8UnitTest4Test11GetTestListEv@PLT
 14203      00
 14204 00c1 488D3D00 		leaq	_ZN12_GLOBAL__N_151adderTestRunnerFixtureTestFinishIsReportedCorrectlyE(%rip), %rdi
 14204      000000
 14205 00c8 4889C6   		movq	%rax, %rsi
 14206 00cb 4889DA   		movq	%rbx, %rdx
 14207 00ce 488D1D00 		leaq	_ZN12_GLOBAL__N_162testTestRunnerFixtureTestFinishIsCalledWithCorrectTimeInstanceE(%rip), %rb
 14207      000000
 14208 00d5 E8000000 		call	_ZN8UnitTest9ListAdderC1ERNS_8TestListEPNS_4TestE@PLT
 14208      00
 14209 00da 488D0D00 		leaq	.LC52(%rip), %rcx
 14209      000000
 14210 00e1 488D1500 		leaq	.LC38(%rip), %rdx
 14210      000000
 14211 00e8 488D3500 		leaq	.LC55(%rip), %rsi
 14211      000000
 14212 00ef 488D3D00 		leaq	_ZN12_GLOBAL__N_162testTestRunnerFixtureTestFinishIsCalledWithCorrectTimeInstanceE(%rip), %rd
 14212      000000
 14213 00f6 41B85C00 		movl	$92, %r8d
 14213      0000
 14214 00fc E8000000 		call	_ZN8UnitTest4TestC2EPKcS2_S2_i@PLT
 14214      00
 14215 0101 488D1500 		leaq	__dso_handle(%rip), %rdx
 14215      000000
 14216 0108 488D3D00 		leaq	_ZN12_GLOBAL__N_154TestTestRunnerFixtureTestFinishIsCalledWithCorrectTimeD1Ev(%rip), %rdi
 14216      000000
 14217 010f 488D0500 		leaq	16+_ZTVN12_GLOBAL__N_154TestTestRunnerFixtureTestFinishIsCalledWithCorrectTimeE(%rip), %rax
 14217      000000
 14218 0116 4889DE   		movq	%rbx, %rsi
 14219 0119 48890500 		movq	%rax, _ZN12_GLOBAL__N_162testTestRunnerFixtureTestFinishIsCalledWithCorrectTimeInstanceE(%rip
 14219      000000
 14220 0120 E8000000 		call	__cxa_atexit@PLT
 14220      00
 14221 0125 E8000000 		call	_ZN8UnitTest4Test11GetTestListEv@PLT
 14221      00
 14222 012a 488D3D00 		leaq	_ZN12_GLOBAL__N_155adderTestRunnerFixtureTestFinishIsCalledWithCorrectTimeE(%rip), %rdi
 14222      000000
 14223 0131 4889C6   		movq	%rax, %rsi
 14224 0134 4889DA   		movq	%rbx, %rdx
 14225 0137 488D1D00 		leaq	_ZN12_GLOBAL__N_164testTestRunnerFixtureFailureCountIsZeroWhenNoTestsAreRunInstanceE(%rip), %
 14225      000000
 14226 013e E8000000 		call	_ZN8UnitTest9ListAdderC1ERNS_8TestListEPNS_4TestE@PLT
 14226      00
 14227 0143 488D0D00 		leaq	.LC52(%rip), %rcx
 14227      000000
 14228 014a 488D1500 		leaq	.LC38(%rip), %rdx
 14228      000000
 14229 0151 488D3500 		leaq	.LC56(%rip), %rsi
 14229      000000
 14230 0158 488D3D00 		leaq	_ZN12_GLOBAL__N_164testTestRunnerFixtureFailureCountIsZeroWhenNoTestsAreRunInstanceE(%rip), %
 14230      000000
 14231 015f 41B86500 		movl	$101, %r8d
 14231      0000
 14232 0165 E8000000 		call	_ZN8UnitTest4TestC2EPKcS2_S2_i@PLT
 14232      00
 14233 016a 488D1500 		leaq	__dso_handle(%rip), %rdx
 14233      000000
 14234 0171 488D3D00 		leaq	_ZN12_GLOBAL__N_156TestTestRunnerFixtureFailureCountIsZeroWhenNoTestsAreRunD1Ev(%rip), %rdi
 14234      000000
 14235 0178 488D0500 		leaq	16+_ZTVN12_GLOBAL__N_156TestTestRunnerFixtureFailureCountIsZeroWhenNoTestsAreRunE(%rip), %rax
 14235      000000
 14236 017f 4889DE   		movq	%rbx, %rsi
 14237 0182 48890500 		movq	%rax, _ZN12_GLOBAL__N_164testTestRunnerFixtureFailureCountIsZeroWhenNoTestsAreRunInstanceE(%r
 14237      000000
 14238 0189 E8000000 		call	__cxa_atexit@PLT
 14238      00
 14239 018e E8000000 		call	_ZN8UnitTest4Test11GetTestListEv@PLT
 14239      00
 14240 0193 488D3D00 		leaq	_ZN12_GLOBAL__N_157adderTestRunnerFixtureFailureCountIsZeroWhenNoTestsAreRunE(%rip), %rdi
 14240      000000
 14241 019a 4889C6   		movq	%rax, %rsi
 14242 019d 4889DA   		movq	%rbx, %rdx
 14243 01a0 488D1D00 		leaq	_ZN12_GLOBAL__N_165testTestRunnerFixtureCallsReportFailureOncePerFailingTestInstanceE(%rip), 
 14243      000000
 14244 01a7 E8000000 		call	_ZN8UnitTest9ListAdderC1ERNS_8TestListEPNS_4TestE@PLT
 14244      00
 14245 01ac 488D0D00 		leaq	.LC52(%rip), %rcx
 14245      000000
 14246 01b3 488D1500 		leaq	.LC38(%rip), %rdx
 14246      000000
 14247 01ba 488D3500 		leaq	.LC57(%rip), %rsi
 14247      000000
 14248 01c1 488D3D00 		leaq	_ZN12_GLOBAL__N_165testTestRunnerFixtureCallsReportFailureOncePerFailingTestInstanceE(%rip), 
 14248      000000
 14249 01c8 41B86C00 		movl	$108, %r8d
 14249      0000
 14250 01ce E8000000 		call	_ZN8UnitTest4TestC2EPKcS2_S2_i@PLT
 14250      00
 14251 01d3 488D1500 		leaq	__dso_handle(%rip), %rdx
 14251      000000
 14252 01da 488D3D00 		leaq	_ZN12_GLOBAL__N_157TestTestRunnerFixtureCallsReportFailureOncePerFailingTestD1Ev(%rip), %rdi
 14252      000000
 14253 01e1 488D0500 		leaq	16+_ZTVN12_GLOBAL__N_157TestTestRunnerFixtureCallsReportFailureOncePerFailingTestE(%rip), %ra
 14253      000000
 14254 01e8 4889DE   		movq	%rbx, %rsi
 14255 01eb 48890500 		movq	%rax, _ZN12_GLOBAL__N_165testTestRunnerFixtureCallsReportFailureOncePerFailingTestInstanceE(%
 14255      000000
 14256 01f2 E8000000 		call	__cxa_atexit@PLT
 14256      00
 14257 01f7 E8000000 		call	_ZN8UnitTest4Test11GetTestListEv@PLT
 14257      00
 14258 01fc 488D3D00 		leaq	_ZN12_GLOBAL__N_158adderTestRunnerFixtureCallsReportFailureOncePerFailingTestE(%rip), %rdi
 14258      000000
 14259 0203 4889C6   		movq	%rax, %rsi
 14260 0206 4889DA   		movq	%rbx, %rdx
 14261 0209 488D1D00 		leaq	_ZN12_GLOBAL__N_164testTestRunnerFixtureTestsThatAssertAreReportedAsFailingInstanceE(%rip), %
 14261      000000
 14262 0210 E8000000 		call	_ZN8UnitTest9ListAdderC1ERNS_8TestListEPNS_4TestE@PLT
 14262      00
 14263 0215 488D0D00 		leaq	.LC52(%rip), %rcx
 14263      000000
 14264 021c 488D1500 		leaq	.LC38(%rip), %rdx
 14264      000000
 14265 0223 488D3500 		leaq	.LC58(%rip), %rsi
 14265      000000
 14266 022a 488D3D00 		leaq	_ZN12_GLOBAL__N_164testTestRunnerFixtureTestsThatAssertAreReportedAsFailingInstanceE(%rip), %
 14266      000000
 14267 0231 41B87900 		movl	$121, %r8d
 14267      0000
 14268 0237 E8000000 		call	_ZN8UnitTest4TestC2EPKcS2_S2_i@PLT
 14268      00
 14269 023c 488D1500 		leaq	__dso_handle(%rip), %rdx
 14269      000000
 14270 0243 488D3D00 		leaq	_ZN12_GLOBAL__N_156TestTestRunnerFixtureTestsThatAssertAreReportedAsFailingD1Ev(%rip), %rdi
 14270      000000
 14271 024a 488D0500 		leaq	16+_ZTVN12_GLOBAL__N_156TestTestRunnerFixtureTestsThatAssertAreReportedAsFailingE(%rip), %rax
 14271      000000
 14272 0251 4889DE   		movq	%rbx, %rsi
 14273 0254 48890500 		movq	%rax, _ZN12_GLOBAL__N_164testTestRunnerFixtureTestsThatAssertAreReportedAsFailingInstanceE(%r
 14273      000000
 14274 025b E8000000 		call	__cxa_atexit@PLT
 14274      00
 14275 0260 E8000000 		call	_ZN8UnitTest4Test11GetTestListEv@PLT
 14275      00
 14276 0265 488D3D00 		leaq	_ZN12_GLOBAL__N_157adderTestRunnerFixtureTestsThatAssertAreReportedAsFailingE(%rip), %rdi
 14276      000000
 14277 026c 4889C6   		movq	%rax, %rsi
 14278 026f 4889DA   		movq	%rbx, %rdx
 14279 0272 488D1D00 		leaq	_ZN12_GLOBAL__N_156testTestRunnerFixtureReporterNotifiedOfTestCountInstanceE(%rip), %rbx
 14279      000000
 14280 0279 E8000000 		call	_ZN8UnitTest9ListAdderC1ERNS_8TestListEPNS_4TestE@PLT
 14280      00
 14281 027e 488D0D00 		leaq	.LC52(%rip), %rcx
 14281      000000
 14282 0285 488D1500 		leaq	.LC38(%rip), %rdx
 14282      000000
 14283 028c 488D3500 		leaq	.LC59(%rip), %rsi
 14283      000000
 14284 0293 488D3D00 		leaq	_ZN12_GLOBAL__N_156testTestRunnerFixtureReporterNotifiedOfTestCountInstanceE(%rip), %rdi
 14284      000000
 14285 029a 41B88300 		movl	$131, %r8d
 14285      0000
 14286 02a0 E8000000 		call	_ZN8UnitTest4TestC2EPKcS2_S2_i@PLT
 14286      00
 14287 02a5 488D1500 		leaq	__dso_handle(%rip), %rdx
 14287      000000
 14288 02ac 488D3D00 		leaq	_ZN12_GLOBAL__N_148TestTestRunnerFixtureReporterNotifiedOfTestCountD1Ev(%rip), %rdi
 14288      000000
 14289 02b3 488D0500 		leaq	16+_ZTVN12_GLOBAL__N_148TestTestRunnerFixtureReporterNotifiedOfTestCountE(%rip), %rax
 14289      000000
 14290 02ba 4889DE   		movq	%rbx, %rsi
 14291 02bd 48890500 		movq	%rax, _ZN12_GLOBAL__N_156testTestRunnerFixtureReporterNotifiedOfTestCountInstanceE(%rip)
 14291      000000
 14292 02c4 E8000000 		call	__cxa_atexit@PLT
 14292      00
 14293 02c9 E8000000 		call	_ZN8UnitTest4Test11GetTestListEv@PLT
 14293      00
 14294 02ce 488D3D00 		leaq	_ZN12_GLOBAL__N_149adderTestRunnerFixtureReporterNotifiedOfTestCountE(%rip), %rdi
 14294      000000
 14295 02d5 4889C6   		movq	%rax, %rsi
 14296 02d8 4889DA   		movq	%rbx, %rdx
 14297 02db 488D1D00 		leaq	_ZN12_GLOBAL__N_158testTestRunnerFixtureReporterNotifiedOfFailedTestsInstanceE(%rip), %rbx
 14297      000000
 14298 02e2 E8000000 		call	_ZN8UnitTest9ListAdderC1ERNS_8TestListEPNS_4TestE@PLT
 14298      00
 14299 02e7 488D0D00 		leaq	.LC52(%rip), %rcx
 14299      000000
 14300 02ee 488D1500 		leaq	.LC38(%rip), %rdx
 14300      000000
 14301 02f5 488D3500 		leaq	.LC60(%rip), %rsi
 14301      000000
 14302 02fc 488D3D00 		leaq	_ZN12_GLOBAL__N_158testTestRunnerFixtureReporterNotifiedOfFailedTestsInstanceE(%rip), %rdi
 14302      000000
 14303 0303 41B89000 		movl	$144, %r8d
 14303      0000
 14304 0309 E8000000 		call	_ZN8UnitTest4TestC2EPKcS2_S2_i@PLT
 14304      00
 14305 030e 488D1500 		leaq	__dso_handle(%rip), %rdx
 14305      000000
 14306 0315 488D3D00 		leaq	_ZN12_GLOBAL__N_150TestTestRunnerFixtureReporterNotifiedOfFailedTestsD1Ev(%rip), %rdi
 14306      000000
 14307 031c 488D0500 		leaq	16+_ZTVN12_GLOBAL__N_150TestTestRunnerFixtureReporterNotifiedOfFailedTestsE(%rip), %rax
 14307      000000
 14308 0323 4889DE   		movq	%rbx, %rsi
 14309 0326 48890500 		movq	%rax, _ZN12_GLOBAL__N_158testTestRunnerFixtureReporterNotifiedOfFailedTestsInstanceE(%rip)
 14309      000000
 14310 032d E8000000 		call	__cxa_atexit@PLT
 14310      00
 14311 0332 E8000000 		call	_ZN8UnitTest4Test11GetTestListEv@PLT
 14311      00
 14312 0337 488D3D00 		leaq	_ZN12_GLOBAL__N_151adderTestRunnerFixtureReporterNotifiedOfFailedTestsE(%rip), %rdi
 14312      000000
 14313 033e 4889C6   		movq	%rax, %rsi
 14314 0341 4889DA   		movq	%rbx, %rdx
 14315 0344 488D1D00 		leaq	_ZN12_GLOBAL__N_155testTestRunnerFixtureReporterNotifiedOfFailuresInstanceE(%rip), %rbx
 14315      000000
 14316 034b E8000000 		call	_ZN8UnitTest9ListAdderC1ERNS_8TestListEPNS_4TestE@PLT
 14316      00
 14317 0350 488D0D00 		leaq	.LC52(%rip), %rcx
 14317      000000
 14318 0357 488D1500 		leaq	.LC38(%rip), %rdx
 14318      000000
 14319 035e 488D3500 		leaq	.LC61(%rip), %rsi
 14319      000000
 14320 0365 488D3D00 		leaq	_ZN12_GLOBAL__N_155testTestRunnerFixtureReporterNotifiedOfFailuresInstanceE(%rip), %rdi
 14320      000000
 14321 036c 41B89D00 		movl	$157, %r8d
 14321      0000
 14322 0372 E8000000 		call	_ZN8UnitTest4TestC2EPKcS2_S2_i@PLT
 14322      00
 14323 0377 488D1500 		leaq	__dso_handle(%rip), %rdx
 14323      000000
 14324 037e 488D3D00 		leaq	_ZN12_GLOBAL__N_147TestTestRunnerFixtureReporterNotifiedOfFailuresD1Ev(%rip), %rdi
 14324      000000
 14325 0385 488D0500 		leaq	16+_ZTVN12_GLOBAL__N_147TestTestRunnerFixtureReporterNotifiedOfFailuresE(%rip), %rax
 14325      000000
 14326 038c 4889DE   		movq	%rbx, %rsi
 14327 038f 48890500 		movq	%rax, _ZN12_GLOBAL__N_155testTestRunnerFixtureReporterNotifiedOfFailuresInstanceE(%rip)
 14327      000000
 14328 0396 E8000000 		call	__cxa_atexit@PLT
 14328      00
 14329 039b E8000000 		call	_ZN8UnitTest4Test11GetTestListEv@PLT
 14329      00
 14330 03a0 488D3D00 		leaq	_ZN12_GLOBAL__N_148adderTestRunnerFixtureReporterNotifiedOfFailuresE(%rip), %rdi
 14330      000000
 14331 03a7 4889C6   		movq	%rax, %rsi
 14332 03aa 4889DA   		movq	%rbx, %rdx
 14333 03ad 488D1D00 		leaq	_ZN12_GLOBAL__N_163testTestRunnerFixtureSlowTestPassesForHighTimeThresholdInstanceE(%rip), %r
 14333      000000
 14334 03b4 E8000000 		call	_ZN8UnitTest9ListAdderC1ERNS_8TestListEPNS_4TestE@PLT
 14334      00
 14335 03b9 488D0D00 		leaq	.LC52(%rip), %rcx
 14335      000000
 14336 03c0 488D1500 		leaq	.LC38(%rip), %rdx
 14336      000000
 14337 03c7 488D3500 		leaq	.LC62(%rip), %rsi
 14337      000000
 14338 03ce 488D3D00 		leaq	_ZN12_GLOBAL__N_163testTestRunnerFixtureSlowTestPassesForHighTimeThresholdInstanceE(%rip), %r
 14338      000000
 14339 03d5 41B8AA00 		movl	$170, %r8d
 14339      0000
 14340 03db E8000000 		call	_ZN8UnitTest4TestC2EPKcS2_S2_i@PLT
 14340      00
 14341 03e0 488D1500 		leaq	__dso_handle(%rip), %rdx
 14341      000000
 14342 03e7 488D3D00 		leaq	_ZN12_GLOBAL__N_155TestTestRunnerFixtureSlowTestPassesForHighTimeThresholdD1Ev(%rip), %rdi
 14342      000000
 14343 03ee 488D0500 		leaq	16+_ZTVN12_GLOBAL__N_155TestTestRunnerFixtureSlowTestPassesForHighTimeThresholdE(%rip), %rax
 14343      000000
 14344 03f5 4889DE   		movq	%rbx, %rsi
 14345 03f8 48890500 		movq	%rax, _ZN12_GLOBAL__N_163testTestRunnerFixtureSlowTestPassesForHighTimeThresholdInstanceE(%ri
 14345      000000
 14346 03ff E8000000 		call	__cxa_atexit@PLT
 14346      00
 14347 0404 E8000000 		call	_ZN8UnitTest4Test11GetTestListEv@PLT
 14347      00
 14348 0409 488D3D00 		leaq	_ZN12_GLOBAL__N_156adderTestRunnerFixtureSlowTestPassesForHighTimeThresholdE(%rip), %rdi
 14348      000000
 14349 0410 4889C6   		movq	%rax, %rsi
 14350 0413 4889DA   		movq	%rbx, %rdx
 14351 0416 488D1D00 		leaq	_ZN12_GLOBAL__N_161testTestRunnerFixtureSlowTestFailsForLowTimeThresholdInstanceE(%rip), %rbx
 14351      000000
 14352 041d E8000000 		call	_ZN8UnitTest9ListAdderC1ERNS_8TestListEPNS_4TestE@PLT
 14352      00
 14353 0422 488D0D00 		leaq	.LC52(%rip), %rcx
 14353      000000
 14354 0429 488D1500 		leaq	.LC38(%rip), %rdx
 14354      000000
 14355 0430 488D3500 		leaq	.LC63(%rip), %rsi
 14355      000000
 14356 0437 488D3D00 		leaq	_ZN12_GLOBAL__N_161testTestRunnerFixtureSlowTestFailsForLowTimeThresholdInstanceE(%rip), %rdi
 14356      000000
 14357 043e 41B8B300 		movl	$179, %r8d
 14357      0000
 14358 0444 E8000000 		call	_ZN8UnitTest4TestC2EPKcS2_S2_i@PLT
 14358      00
 14359 0449 488D1500 		leaq	__dso_handle(%rip), %rdx
 14359      000000
 14360 0450 488D3D00 		leaq	_ZN12_GLOBAL__N_153TestTestRunnerFixtureSlowTestFailsForLowTimeThresholdD1Ev(%rip), %rdi
 14360      000000
 14361 0457 488D0500 		leaq	16+_ZTVN12_GLOBAL__N_153TestTestRunnerFixtureSlowTestFailsForLowTimeThresholdE(%rip), %rax
 14361      000000
 14362 045e 4889DE   		movq	%rbx, %rsi
 14363 0461 48890500 		movq	%rax, _ZN12_GLOBAL__N_161testTestRunnerFixtureSlowTestFailsForLowTimeThresholdInstanceE(%rip)
 14363      000000
 14364 0468 E8000000 		call	__cxa_atexit@PLT
 14364      00
 14365 046d E8000000 		call	_ZN8UnitTest4Test11GetTestListEv@PLT
 14365      00
 14366 0472 488D3D00 		leaq	_ZN12_GLOBAL__N_154adderTestRunnerFixtureSlowTestFailsForLowTimeThresholdE(%rip), %rdi
 14366      000000
 14367 0479 4889C6   		movq	%rax, %rsi
 14368 047c 4889DA   		movq	%rbx, %rdx
 14369 047f 488D1D00 		leaq	_ZN12_GLOBAL__N_165testTestRunnerFixtureSlowTestHasCorrectFailureInformationInstanceE(%rip), 
 14369      000000
 14370 0486 E8000000 		call	_ZN8UnitTest9ListAdderC1ERNS_8TestListEPNS_4TestE@PLT
 14370      00
 14371 048b 488D0D00 		leaq	.LC52(%rip), %rcx
 14371      000000
 14372 0492 488D1500 		leaq	.LC38(%rip), %rdx
 14372      000000
 14373 0499 488D3500 		leaq	.LC64(%rip), %rsi
 14373      000000
 14374 04a0 488D3D00 		leaq	_ZN12_GLOBAL__N_165testTestRunnerFixtureSlowTestHasCorrectFailureInformationInstanceE(%rip), 
 14374      000000
 14375 04a7 41B8BC00 		movl	$188, %r8d
 14375      0000
 14376 04ad E8000000 		call	_ZN8UnitTest4TestC2EPKcS2_S2_i@PLT
 14376      00
 14377 04b2 488D1500 		leaq	__dso_handle(%rip), %rdx
 14377      000000
 14378 04b9 488D3D00 		leaq	_ZN12_GLOBAL__N_157TestTestRunnerFixtureSlowTestHasCorrectFailureInformationD1Ev(%rip), %rdi
 14378      000000
 14379 04c0 488D0500 		leaq	16+_ZTVN12_GLOBAL__N_157TestTestRunnerFixtureSlowTestHasCorrectFailureInformationE(%rip), %ra
 14379      000000
 14380 04c7 4889DE   		movq	%rbx, %rsi
 14381 04ca 48890500 		movq	%rax, _ZN12_GLOBAL__N_165testTestRunnerFixtureSlowTestHasCorrectFailureInformationInstanceE(%
 14381      000000
 14382 04d1 E8000000 		call	__cxa_atexit@PLT
 14382      00
 14383 04d6 E8000000 		call	_ZN8UnitTest4Test11GetTestListEv@PLT
 14383      00
 14384 04db 488D3D00 		leaq	_ZN12_GLOBAL__N_158adderTestRunnerFixtureSlowTestHasCorrectFailureInformationE(%rip), %rdi
 14384      000000
 14385 04e2 4889C6   		movq	%rax, %rsi
 14386 04e5 4889DA   		movq	%rbx, %rdx
 14387 04e8 488D1D00 		leaq	_ZN12_GLOBAL__N_160testTestRunnerFixtureSlowTestWithTimeExemptionPassesInstanceE(%rip), %rbx
 14387      000000
 14388 04ef E8000000 		call	_ZN8UnitTest9ListAdderC1ERNS_8TestListEPNS_4TestE@PLT
 14388      00
 14389 04f4 488D0D00 		leaq	.LC52(%rip), %rcx
 14389      000000
 14390 04fb 488D1500 		leaq	.LC38(%rip), %rdx
 14390      000000
 14391 0502 488D3500 		leaq	.LC65(%rip), %rsi
 14391      000000
 14392 0509 488D3D00 		leaq	_ZN12_GLOBAL__N_160testTestRunnerFixtureSlowTestWithTimeExemptionPassesInstanceE(%rip), %rdi
 14392      000000
 14393 0510 41B8CD00 		movl	$205, %r8d
 14393      0000
 14394 0516 E8000000 		call	_ZN8UnitTest4TestC2EPKcS2_S2_i@PLT
 14394      00
 14395 051b 488D1500 		leaq	__dso_handle(%rip), %rdx
 14395      000000
 14396 0522 488D3D00 		leaq	_ZN12_GLOBAL__N_152TestTestRunnerFixtureSlowTestWithTimeExemptionPassesD1Ev(%rip), %rdi
 14396      000000
 14397 0529 488D0500 		leaq	16+_ZTVN12_GLOBAL__N_152TestTestRunnerFixtureSlowTestWithTimeExemptionPassesE(%rip), %rax
 14397      000000
 14398 0530 4889DE   		movq	%rbx, %rsi
 14399 0533 48890500 		movq	%rax, _ZN12_GLOBAL__N_160testTestRunnerFixtureSlowTestWithTimeExemptionPassesInstanceE(%rip)
 14399      000000
 14400 053a E8000000 		call	__cxa_atexit@PLT
 14400      00
 14401 053f E8000000 		call	_ZN8UnitTest4Test11GetTestListEv@PLT
 14401      00
 14402 0544 488D3D00 		leaq	_ZN12_GLOBAL__N_153adderTestRunnerFixtureSlowTestWithTimeExemptionPassesE(%rip), %rdi
 14402      000000
 14403 054b 4889C6   		movq	%rax, %rsi
 14404 054e 4889DA   		movq	%rbx, %rdx
 14405 0551 488D1D00 		leaq	_ZN12_GLOBAL__N_170testTestSuiteFixtureTestRunnerRunsAllSuitesIfNullSuiteIsPassedInstanceE(%r
 14405      000000
 14406 0558 E8000000 		call	_ZN8UnitTest9ListAdderC1ERNS_8TestListEPNS_4TestE@PLT
 14406      00
 14407 055d 488D0D00 		leaq	.LC52(%rip), %rcx
 14407      000000
 14408 0564 488D1500 		leaq	.LC38(%rip), %rdx
 14408      000000
 14409 056b 488D3500 		leaq	.LC66(%rip), %rsi
 14409      000000
 14410 0572 488D3D00 		leaq	_ZN12_GLOBAL__N_170testTestSuiteFixtureTestRunnerRunsAllSuitesIfNullSuiteIsPassedInstanceE(%r
 14410      000000
 14411 0579 41B8F200 		movl	$242, %r8d
 14411      0000
 14412 057f E8000000 		call	_ZN8UnitTest4TestC2EPKcS2_S2_i@PLT
 14412      00
 14413 0584 488D1500 		leaq	__dso_handle(%rip), %rdx
 14413      000000
 14414 058b 488D3D00 		leaq	_ZN12_GLOBAL__N_162TestTestSuiteFixtureTestRunnerRunsAllSuitesIfNullSuiteIsPassedD1Ev(%rip), 
 14414      000000
 14415 0592 488D0500 		leaq	16+_ZTVN12_GLOBAL__N_162TestTestSuiteFixtureTestRunnerRunsAllSuitesIfNullSuiteIsPassedE(%rip)
 14415      000000
 14416 0599 4889DE   		movq	%rbx, %rsi
 14417 059c 48890500 		movq	%rax, _ZN12_GLOBAL__N_170testTestSuiteFixtureTestRunnerRunsAllSuitesIfNullSuiteIsPassedInstan
 14417      000000
 14418 05a3 E8000000 		call	__cxa_atexit@PLT
 14418      00
 14419 05a8 E8000000 		call	_ZN8UnitTest4Test11GetTestListEv@PLT
 14419      00
 14420 05ad 488D3D00 		leaq	_ZN12_GLOBAL__N_163adderTestSuiteFixtureTestRunnerRunsAllSuitesIfNullSuiteIsPassedE(%rip), %r
 14420      000000
 14421 05b4 4889C6   		movq	%rax, %rsi
 14422 05b7 4889DA   		movq	%rbx, %rdx
 14423 05ba 488D1D00 		leaq	_ZN12_GLOBAL__N_160testTestSuiteFixtureTestRunnerRunsOnlySpecifiedSuiteInstanceE(%rip), %rbx
 14423      000000
 14424 05c1 E8000000 		call	_ZN8UnitTest9ListAdderC1ERNS_8TestListEPNS_4TestE@PLT
 14424      00
 14425 05c6 488D0D00 		leaq	.LC52(%rip), %rcx
 14425      000000
 14426 05cd 488D1500 		leaq	.LC38(%rip), %rdx
 14426      000000
 14427 05d4 488D3500 		leaq	.LC67(%rip), %rsi
 14427      000000
 14428 05db 488D3D00 		leaq	_ZN12_GLOBAL__N_160testTestSuiteFixtureTestRunnerRunsOnlySpecifiedSuiteInstanceE(%rip), %rdi
 14428      000000
 14429 05e2 41B8F800 		movl	$248, %r8d
 14429      0000
 14430 05e8 E8000000 		call	_ZN8UnitTest4TestC2EPKcS2_S2_i@PLT
 14430      00
 14431 05ed 488D1500 		leaq	__dso_handle(%rip), %rdx
 14431      000000
 14432 05f4 488D3D00 		leaq	_ZN12_GLOBAL__N_152TestTestSuiteFixtureTestRunnerRunsOnlySpecifiedSuiteD1Ev(%rip), %rdi
 14432      000000
 14433 05fb 488D0500 		leaq	16+_ZTVN12_GLOBAL__N_152TestTestSuiteFixtureTestRunnerRunsOnlySpecifiedSuiteE(%rip), %rax
 14433      000000
 14434 0602 4889DE   		movq	%rbx, %rsi
 14435 0605 48890500 		movq	%rax, _ZN12_GLOBAL__N_160testTestSuiteFixtureTestRunnerRunsOnlySpecifiedSuiteInstanceE(%rip)
 14435      000000
 14436 060c E8000000 		call	__cxa_atexit@PLT
 14436      00
 14437 0611 E8000000 		call	_ZN8UnitTest4Test11GetTestListEv@PLT
 14437      00
 14438 0616 488D3D00 		leaq	_ZN12_GLOBAL__N_153adderTestSuiteFixtureTestRunnerRunsOnlySpecifiedSuiteE(%rip), %rdi
 14438      000000
 14439 061d 4889C6   		movq	%rax, %rsi
 14440 0620 4889DA   		movq	%rbx, %rdx
 14441 0623 488D1D00 		leaq	_ZN12_GLOBAL__N_145testTestMockPredicateBehavesCorrectlyInstanceE(%rip), %rbx
 14441      000000
 14442 062a E8000000 		call	_ZN8UnitTest9ListAdderC1ERNS_8TestListEPNS_4TestE@PLT
 14442      00
 14443 062f 488D0D00 		leaq	.LC52(%rip), %rcx
 14443      000000
 14444 0636 488D1500 		leaq	.LC38(%rip), %rdx
 14444      000000
 14445 063d 488D3500 		leaq	.LC68(%rip), %rsi
 14445      000000
 14446 0644 488D3D00 		leaq	_ZN12_GLOBAL__N_145testTestMockPredicateBehavesCorrectlyInstanceE(%rip), %rdi
 14446      000000
 14447 064b 41B80F01 		movl	$271, %r8d
 14447      0000
 14448 0651 E8000000 		call	_ZN8UnitTest4TestC2EPKcS2_S2_i@PLT
 14448      00
 14449 0656 488D1500 		leaq	__dso_handle(%rip), %rdx
 14449      000000
 14450 065d 488D3D00 		leaq	_ZN12_GLOBAL__N_137TestTestMockPredicateBehavesCorrectlyD1Ev(%rip), %rdi
 14450      000000
 14451 0664 488D0500 		leaq	16+_ZTVN12_GLOBAL__N_137TestTestMockPredicateBehavesCorrectlyE(%rip), %rax
 14451      000000
 14452 066b 4889DE   		movq	%rbx, %rsi
 14453 066e 48890500 		movq	%rax, _ZN12_GLOBAL__N_145testTestMockPredicateBehavesCorrectlyInstanceE(%rip)
 14453      000000
 14454 0675 E8000000 		call	__cxa_atexit@PLT
 14454      00
 14455 067a E8000000 		call	_ZN8UnitTest4Test11GetTestListEv@PLT
 14455      00
 14456 067f 488D3D00 		leaq	_ZN12_GLOBAL__N_138adderTestMockPredicateBehavesCorrectlyE(%rip), %rdi
 14456      000000
 14457 0686 4889C6   		movq	%rax, %rsi
 14458 0689 4889DA   		movq	%rbx, %rdx
 14459 068c 488D1D00 		leaq	_ZN12_GLOBAL__N_165testTestRunnerFixtureTestRunnerRunsTestsThatPassPredicateInstanceE(%rip), 
 14459      000000
 14460 0693 E8000000 		call	_ZN8UnitTest9ListAdderC1ERNS_8TestListEPNS_4TestE@PLT
 14460      00
 14461 0698 488D0D00 		leaq	.LC52(%rip), %rcx
 14461      000000
 14462 069f 488D1500 		leaq	.LC38(%rip), %rdx
 14462      000000
 14463 06a6 488D3500 		leaq	.LC69(%rip), %rsi
 14463      000000
 14464 06ad 488D3D00 		leaq	_ZN12_GLOBAL__N_165testTestRunnerFixtureTestRunnerRunsTestsThatPassPredicateInstanceE(%rip), 
 14464      000000
 14465 06b4 41B81A01 		movl	$282, %r8d
 14465      0000
 14466 06ba E8000000 		call	_ZN8UnitTest4TestC2EPKcS2_S2_i@PLT
 14466      00
 14467 06bf 488D1500 		leaq	__dso_handle(%rip), %rdx
 14467      000000
 14468 06c6 488D3D00 		leaq	_ZN12_GLOBAL__N_157TestTestRunnerFixtureTestRunnerRunsTestsThatPassPredicateD1Ev(%rip), %rdi
 14468      000000
 14469 06cd 488D0500 		leaq	16+_ZTVN12_GLOBAL__N_157TestTestRunnerFixtureTestRunnerRunsTestsThatPassPredicateE(%rip), %ra
 14469      000000
 14470 06d4 4889DE   		movq	%rbx, %rsi
 14471 06d7 48890500 		movq	%rax, _ZN12_GLOBAL__N_165testTestRunnerFixtureTestRunnerRunsTestsThatPassPredicateInstanceE(%
 14471      000000
 14472 06de E8000000 		call	__cxa_atexit@PLT
 14472      00
 14473 06e3 E8000000 		call	_ZN8UnitTest4Test11GetTestListEv@PLT
 14473      00
 14474 06e8 488D3D00 		leaq	_ZN12_GLOBAL__N_158adderTestRunnerFixtureTestRunnerRunsTestsThatPassPredicateE(%rip), %rdi
 14474      000000
 14475 06ef 4889C6   		movq	%rax, %rsi
 14476 06f2 4889DA   		movq	%rbx, %rdx
 14477 06f5 488D1D00 		leaq	_ZN12_GLOBAL__N_188testTestRunnerFixtureTestRunnerOnlyRunsTestsInSpecifiedSuiteAndThatPassPre
 14477      000000
 14478 06fc E8000000 		call	_ZN8UnitTest9ListAdderC1ERNS_8TestListEPNS_4TestE@PLT
 14478      00
 14479 0701 488D0D00 		leaq	.LC52(%rip), %rcx
 14479      000000
 14480 0708 488D1500 		leaq	.LC38(%rip), %rdx
 14480      000000
 14481 070f 488D3500 		leaq	.LC70(%rip), %rsi
 14481      000000
 14482 0716 488D3D00 		leaq	_ZN12_GLOBAL__N_188testTestRunnerFixtureTestRunnerOnlyRunsTestsInSpecifiedSuiteAndThatPassPre
 14482      000000
 14483 071d 41B82701 		movl	$295, %r8d
 14483      0000
 14484 0723 E8000000 		call	_ZN8UnitTest4TestC2EPKcS2_S2_i@PLT
 14484      00
 14485 0728 488D1500 		leaq	__dso_handle(%rip), %rdx
 14485      000000
 14486 072f 488D3D00 		leaq	_ZN12_GLOBAL__N_180TestTestRunnerFixtureTestRunnerOnlyRunsTestsInSpecifiedSuiteAndThatPassPre
 14486      000000
 14487 0736 488D0500 		leaq	16+_ZTVN12_GLOBAL__N_180TestTestRunnerFixtureTestRunnerOnlyRunsTestsInSpecifiedSuiteAndThatPa
 14487      000000
 14488 073d 4889DE   		movq	%rbx, %rsi
 14489 0740 48890500 		movq	%rax, _ZN12_GLOBAL__N_188testTestRunnerFixtureTestRunnerOnlyRunsTestsInSpecifiedSuiteAndThatP
 14489      000000
 14490 0747 E8000000 		call	__cxa_atexit@PLT
 14490      00
 14491 074c E8000000 		call	_ZN8UnitTest4Test11GetTestListEv@PLT
 14491      00
 14492 0751 4889DA   		movq	%rbx, %rdx
 14493 0754 488D3D00 		leaq	_ZN12_GLOBAL__N_181adderTestRunnerFixtureTestRunnerOnlyRunsTestsInSpecifiedSuiteAndThatPassPr
 14493      000000
 14494 075b 4889C6   		movq	%rax, %rsi
 14495 075e 5B       		popq	%rbx
 14496              		.cfi_def_cfa_offset 8
 14497 075f E9000000 		jmp	_ZN8UnitTest9ListAdderC1ERNS_8TestListEPNS_4TestE@PLT
 14497      00
 14498              		.cfi_endproc
 14499              	.LFE1575:
 14501              		.section	.init_array,"aw"
 14502              		.align 8
 14503 0000 00000000 		.quad	_GLOBAL__sub_I_TestTestRunner.cpp
 14503      00000000 
 14504              		.section	.rodata.str1.1
 14505              	.LC71:
 14506 0181 73756974 		.string	"suite"
 14506      6500
 14507              	.LC72:
 14508 0187 62616474 		.string	"badtest"
 14508      65737400 
 14509              		.section	.rodata.str1.8
 14510 0a6c 00000000 		.align 8
 14511              	.LC73:
 14512 0a70 556E6861 		.string	"Unhandled exception in CHECK_EQUAL(\"suite\", reporter.lastStartedSuite)"
 14512      6E646C65 
 14512      64206578 
 14512      63657074 
 14512      696F6E20 
 14513              		.text
 14514 73c3 0F1F0066 		.p2align 4,,15
 14514      2E0F1F84 
 14514      00000000 
 14514      00
 14516              	_ZN8UnitTest11ExecuteTestIN12_GLOBAL__N_182TestRunnerFixtureTestRunnerOnlyRunsTestsInSpecifiedSuite
 14517              	.LFB1428:
 14518              		.cfi_startproc
 14519              		.cfi_personality 0x9b,DW.ref.__gxx_personality_v0
 14520              		.cfi_lsda 0x1b,.LLSDA1428
 14521 73d0 4156     		pushq	%r14
 14522              		.cfi_def_cfa_offset 16
 14523              		.cfi_offset 14, -16
 14524 73d2 4155     		pushq	%r13
 14525              		.cfi_def_cfa_offset 24
 14526              		.cfi_offset 13, -24
 14527 73d4 4154     		pushq	%r12
 14528              		.cfi_def_cfa_offset 32
 14529              		.cfi_offset 12, -32
 14530 73d6 55       		pushq	%rbp
 14531              		.cfi_def_cfa_offset 40
 14532              		.cfi_offset 6, -40
 14533 73d7 53       		pushq	%rbx
 14534              		.cfi_def_cfa_offset 48
 14535              		.cfi_offset 3, -48
 14536 73d8 4889F3   		movq	%rsi, %rbx
 14537 73db 4881EC10 		subq	$2064, %rsp
 14537      080000
 14538              		.cfi_def_cfa_offset 2112
 14539 73e2 48893C24 		movq	%rdi, (%rsp)
 14540 73e6 48897424 		movq	%rsi, 8(%rsp)
 14540      08
 14541 73eb 64488B04 		movq	%fs:40, %rax
 14541      25280000 
 14541      00
 14542 73f4 48898424 		movq	%rax, 2056(%rsp)
 14542      08080000 
 14543 73fc 31C0     		xorl	%eax, %eax
 14544              	.LEHB564:
 14545 73fe E8000000 		call	_ZN8UnitTest11CurrentTest7DetailsEv@PLT
 14545      00
 14546              	.LEHE564:
 14547 7403 488DBC24 		leaq	928(%rsp), %rdi
 14547      A0030000 
 14548 740b 488918   		movq	%rbx, (%rax)
 14549              	.LEHB565:
 14550 740e E8000000 		call	_ZN8UnitTest16SignalTranslatorC1Ev@PLT
 14550      00
 14551              	.LEHE565:
 14552 7413 488B3D00 		movq	_ZN8UnitTest16SignalTranslator12s_jumpTargetE(%rip), %rdi
 14552      000000
 14553 741a BE010000 		movl	$1, %esi
 14553      00
 14554 741f E8000000 		call	__sigsetjmp@PLT
 14554      00
 14555 7424 85C0     		testl	%eax, %eax
 14556 7426 7428     		je	.L1496
 14557 7428 BF080000 		movl	$8, %edi
 14557      00
 14558 742d E8000000 		call	__cxa_allocate_exception@PLT
 14558      00
 14559 7432 488D0D00 		leaq	.LC3(%rip), %rcx
 14559      000000
 14560 7439 488D3500 		leaq	_ZTIPKc(%rip), %rsi
 14560      000000
 14561 7440 31D2     		xorl	%edx, %edx
 14562 7442 4889C7   		movq	%rax, %rdi
 14563 7445 488908   		movq	%rcx, (%rax)
 14564              	.LEHB566:
 14565 7448 E8000000 		call	__cxa_throw@PLT
 14565      00
 14566 744d 0F1F00   		.p2align 4,,10
 14567              		.p2align 3
 14568              	.L1496:
 14569 7450 488DBC24 		leaq	256(%rsp), %rdi
 14569      00010000 
 14570 7458 488D0D00 		leaq	.LC24(%rip), %rcx
 14570      000000
 14571 745f 488D1500 		leaq	.LC71(%rip), %rdx
 14571      000000
 14572 7466 488D3500 		leaq	.LC47(%rip), %rsi
 14572      000000
 14573 746d 4531C0   		xorl	%r8d, %r8d
 14574 7470 E8000000 		call	_ZN8UnitTest4TestC1EPKcS2_S2_i@PLT
 14574      00
 14575              	.LEHE566:
 14576 7475 488DBC24 		leaq	320(%rsp), %rdi
 14576      40010000 
 14577 747d 488D0D00 		leaq	.LC24(%rip), %rcx
 14577      000000
 14578 7484 488D1500 		leaq	.LC38(%rip), %rdx
 14578      000000
 14579 748b 488D3500 		leaq	.LC47(%rip), %rsi
 14579      000000
 14580 7492 4531C0   		xorl	%r8d, %r8d
 14581              	.LEHB567:
 14582 7495 E8000000 		call	_ZN8UnitTest4TestC1EPKcS2_S2_i@PLT
 14582      00
 14583              	.LEHE567:
 14584 749a 488DBC24 		leaq	384(%rsp), %rdi
 14584      80010000 
 14585 74a2 488D0D00 		leaq	.LC24(%rip), %rcx
 14585      000000
 14586 74a9 488D1500 		leaq	.LC71(%rip), %rdx
 14586      000000
 14587 74b0 488D3500 		leaq	.LC72(%rip), %rsi
 14587      000000
 14588 74b7 4531C0   		xorl	%r8d, %r8d
 14589              	.LEHB568:
 14590 74ba E8000000 		call	_ZN8UnitTest4TestC1EPKcS2_S2_i@PLT
 14590      00
 14591              	.LEHE568:
 14592 74bf 488DBC24 		leaq	448(%rsp), %rdi
 14592      C0010000 
 14593 74c7 488D0D00 		leaq	.LC24(%rip), %rcx
 14593      000000
 14594 74ce 488D1500 		leaq	.LC38(%rip), %rdx
 14594      000000
 14595 74d5 488D3500 		leaq	.LC72(%rip), %rsi
 14595      000000
 14596 74dc 4531C0   		xorl	%r8d, %r8d
 14597              	.LEHB569:
 14598 74df E8000000 		call	_ZN8UnitTest4TestC1EPKcS2_S2_i@PLT
 14598      00
 14599              	.LEHE569:
 14600 74e4 488B2C24 		movq	(%rsp), %rbp
 14601 74e8 488DB424 		leaq	256(%rsp), %rsi
 14601      00010000 
 14602 74f0 488D9D48 		leaq	2120(%rbp), %rbx
 14602      080000
 14603 74f7 4889DF   		movq	%rbx, %rdi
 14604              	.LEHB570:
 14605 74fa E8000000 		call	_ZN8UnitTest8TestList3AddEPNS_4TestE@PLT
 14605      00
 14606 74ff 488DB424 		leaq	320(%rsp), %rsi
 14606      40010000 
 14607 7507 4889DF   		movq	%rbx, %rdi
 14608 750a E8000000 		call	_ZN8UnitTest8TestList3AddEPNS_4TestE@PLT
 14608      00
 14609 750f 488DB424 		leaq	384(%rsp), %rsi
 14609      80010000 
 14610 7517 4889DF   		movq	%rbx, %rdi
 14611 751a E8000000 		call	_ZN8UnitTest8TestList3AddEPNS_4TestE@PLT
 14611      00
 14612 751f 488DB424 		leaq	448(%rsp), %rsi
 14612      C0010000 
 14613 7527 4889DF   		movq	%rbx, %rdi
 14614 752a E8000000 		call	_ZN8UnitTest8TestList3AddEPNS_4TestE@PLT
 14614      00
 14615 752f E8000000 		call	_ZN8UnitTest11CurrentTest7ResultsEv@PLT
 14615      00
 14616 7534 4C8B30   		movq	(%rax), %r14
 14617 7537 E8000000 		call	_ZN8UnitTest11CurrentTest7DetailsEv@PLT
 14617      00
 14618 753c 4889DF   		movq	%rbx, %rdi
 14619 753f 4C8B28   		movq	(%rax), %r13
 14620 7542 E8000000 		call	_ZNK8UnitTest8TestList7GetHeadEv@PLT
 14620      00
 14621 7547 4885C0   		testq	%rax, %rax
 14622 754a 4889C3   		movq	%rax, %rbx
 14623 754d 7461     		je	.L1497
 14624 754f 4C8D2500 		leaq	.LC47(%rip), %r12
 14624      000000
 14625 7556 EB11     		jmp	.L1499
 14626 7558 0F1F8400 		.p2align 4,,10
 14626      00000000 
 14627              		.p2align 3
 14628              	.L1500:
 14629 7560 488B5B28 		movq	40(%rbx), %rbx
 14630 7564 4885DB   		testq	%rbx, %rbx
 14631 7567 7447     		je	.L1497
 14632              	.L1499:
 14633 7569 488D1500 		leaq	.LC71(%rip), %rdx
 14633      000000
 14634 7570 4889DE   		movq	%rbx, %rsi
 14635 7573 4889EF   		movq	%rbp, %rdi
 14636 7576 E8000000 		call	_ZNK8UnitTest10TestRunner13IsTestInSuiteEPKNS_4TestEPKc@PLT
 14636      00
 14637 757b 84C0     		testb	%al, %al
 14638 757d 74E1     		je	.L1500
 14639 757f 488B7310 		movq	16(%rbx), %rsi
 14640 7583 B9090000 		movl	$9, %ecx
 14640      00
 14641 7588 4C89E7   		movq	%r12, %rdi
 14642 758b F3A6     		repz cmpsb
 14643 758d 75D1     		jne	.L1500
 14644 758f 488B0424 		movq	(%rsp), %rax
 14645 7593 31C9     		xorl	%ecx, %ecx
 14646 7595 4889DA   		movq	%rbx, %rdx
 14647 7598 4889EF   		movq	%rbp, %rdi
 14648 759b 488B7008 		movq	8(%rax), %rsi
 14649 759f E8000000 		call	_ZNK8UnitTest10TestRunner7RunTestEPNS_11TestResultsEPNS_4TestEi@PLT
 14649      00
 14650 75a4 488B5B28 		movq	40(%rbx), %rbx
 14651 75a8 4885DB   		testq	%rbx, %rbx
 14652 75ab 75BC     		jne	.L1499
 14653 75ad 0F1F00   		.p2align 4,,10
 14654              		.p2align 3
 14655              	.L1497:
 14656 75b0 488B1C24 		movq	(%rsp), %rbx
 14657 75b4 4889DF   		movq	%rbx, %rdi
 14658 75b7 E8000000 		call	_ZNK8UnitTest10TestRunner6FinishEv@PLT
 14658      00
 14659 75bc E8000000 		call	_ZN8UnitTest11CurrentTest7ResultsEv@PLT
 14659      00
 14660 75c1 4C8930   		movq	%r14, (%rax)
 14661 75c4 E8000000 		call	_ZN8UnitTest11CurrentTest7DetailsEv@PLT
 14661      00
 14662              	.LEHE570:
 14663 75c9 4C8928   		movq	%r13, (%rax)
 14664              	.LEHB571:
 14665 75cc E8000000 		call	_ZN8UnitTest11CurrentTest7DetailsEv@PLT
 14665      00
 14666 75d1 488B30   		movq	(%rax), %rsi
 14667 75d4 488DBC24 		leaq	224(%rsp), %rdi
 14667      E0000000 
 14668 75dc BA350100 		movl	$309, %edx
 14668      00
 14669 75e1 E8000000 		call	_ZN8UnitTest11TestDetailsC1ERKS0_i@PLT
 14669      00
 14670 75e6 4883C320 		addq	$32, %rbx
 14671 75ea C744241C 		movl	$1, 28(%rsp)
 14671      01000000 
 14672 75f2 E8000000 		call	_ZN8UnitTest11CurrentTest7ResultsEv@PLT
 14672      00
 14673 75f7 488B38   		movq	(%rax), %rdi
 14674 75fa 488D8C24 		leaq	224(%rsp), %rcx
 14674      E0000000 
 14675 7602 488D7424 		leaq	28(%rsp), %rsi
 14675      1C
 14676 7607 4889DA   		movq	%rbx, %rdx
 14677 760a E8000000 		call	_ZN8UnitTest10CheckEqualIiiEEvRNS_11TestResultsERKT_RKT0_RKNS_11TestDetailsE
 14677      00
 14678              	.LEHE571:
 14679              	.L1503:
 14680              	.LEHB572:
 14681 760f E8000000 		call	_ZN8UnitTest11CurrentTest7DetailsEv@PLT
 14681      00
 14682 7614 488B30   		movq	(%rax), %rsi
 14683 7617 488DBC24 		leaq	160(%rsp), %rdi
 14683      A0000000 
 14684 761f BA360100 		movl	$310, %edx
 14684      00
 14685 7624 E8000000 		call	_ZN8UnitTest11TestDetailsC1ERKS0_i@PLT
 14685      00
 14686 7629 488B0424 		movq	(%rsp), %rax
 14687 762d 488D9824 		leaq	292(%rax), %rbx
 14687      010000
 14688 7634 E8000000 		call	_ZN8UnitTest11CurrentTest7ResultsEv@PLT
 14688      00
 14689 7639 488B38   		movq	(%rax), %rdi
 14690 763c 488D8C24 		leaq	160(%rsp), %rcx
 14690      A0000000 
 14691 7644 488D3500 		leaq	.LC47(%rip), %rsi
 14691      000000
 14692 764b 4889DA   		movq	%rbx, %rdx
 14693 764e E8000000 		call	_ZN8UnitTest10CheckEqualERNS_11TestResultsEPKcPcRKNS_11TestDetailsE@PLT
 14693      00
 14694              	.LEHE572:
 14695              	.L1507:
 14696              	.LEHB573:
 14697 7653 E8000000 		call	_ZN8UnitTest11CurrentTest7DetailsEv@PLT
 14697      00
 14698 7658 488B30   		movq	(%rax), %rsi
 14699 765b 488D7C24 		leaq	96(%rsp), %rdi
 14699      60
 14700 7660 BA370100 		movl	$311, %edx
 14700      00
 14701 7665 E8000000 		call	_ZN8UnitTest11TestDetailsC1ERKS0_i@PLT
 14701      00
 14702 766a 488B1C24 		movq	(%rsp), %rbx
 14703 766e 4883C324 		addq	$36, %rbx
 14704 7672 E8000000 		call	_ZN8UnitTest11CurrentTest7ResultsEv@PLT
 14704      00
 14705 7677 488B38   		movq	(%rax), %rdi
 14706 767a 488D4C24 		leaq	96(%rsp), %rcx
 14706      60
 14707 767f 488D3500 		leaq	.LC71(%rip), %rsi
 14707      000000
 14708 7686 4889DA   		movq	%rbx, %rdx
 14709 7689 E8000000 		call	_ZN8UnitTest10CheckEqualERNS_11TestResultsEPKcPcRKNS_11TestDetailsE@PLT
 14709      00
 14710              	.LEHE573:
 14711              	.L1510:
 14712 768e 488DBC24 		leaq	448(%rsp), %rdi
 14712      C0010000 
 14713              	.LEHB574:
 14714 7696 E8000000 		call	_ZN8UnitTest4TestD1Ev@PLT
 14714      00
 14715              	.LEHE574:
 14716 769b 488DBC24 		leaq	384(%rsp), %rdi
 14716      80010000 
 14717              	.LEHB575:
 14718 76a3 E8000000 		call	_ZN8UnitTest4TestD1Ev@PLT
 14718      00
 14719              	.LEHE575:
 14720 76a8 488DBC24 		leaq	320(%rsp), %rdi
 14720      40010000 
 14721              	.LEHB576:
 14722 76b0 E8000000 		call	_ZN8UnitTest4TestD1Ev@PLT
 14722      00
 14723              	.LEHE576:
 14724 76b5 488DBC24 		leaq	256(%rsp), %rdi
 14724      00010000 
 14725              	.LEHB577:
 14726 76bd E8000000 		call	_ZN8UnitTest4TestD1Ev@PLT
 14726      00
 14727              	.LEHE577:
 14728 76c2 488DBC24 		leaq	928(%rsp), %rdi
 14728      A0030000 
 14729              	.LEHB578:
 14730 76ca E8000000 		call	_ZN8UnitTest16SignalTranslatorD1Ev@PLT
 14730      00
 14731              	.LEHE578:
 14732              	.L1494:
 14733 76cf 488B8424 		movq	2056(%rsp), %rax
 14733      08080000 
 14734 76d7 64483304 		xorq	%fs:40, %rax
 14734      25280000 
 14734      00
 14735 76e0 0F85C000 		jne	.L1547
 14735      0000
 14736 76e6 4881C410 		addq	$2064, %rsp
 14736      080000
 14737              		.cfi_remember_state
 14738              		.cfi_def_cfa_offset 48
 14739 76ed 5B       		popq	%rbx
 14740              		.cfi_def_cfa_offset 40
 14741 76ee 5D       		popq	%rbp
 14742              		.cfi_def_cfa_offset 32
 14743 76ef 415C     		popq	%r12
 14744              		.cfi_def_cfa_offset 24
 14745 76f1 415D     		popq	%r13
 14746              		.cfi_def_cfa_offset 16
 14747 76f3 415E     		popq	%r14
 14748              		.cfi_def_cfa_offset 8
 14749 76f5 C3       		ret
 14750              	.L1528:
 14751              		.cfi_restore_state
 14752 76f6 4889C3   		movq	%rax, %rbx
 14753 76f9 4889D5   		movq	%rdx, %rbp
 14754              	.L1515:
 14755 76fc 488DBC24 		leaq	928(%rsp), %rdi
 14755      A0030000 
 14756 7704 E8000000 		call	_ZN8UnitTest16SignalTranslatorD1Ev@PLT
 14756      00
 14757 7709 4889DF   		movq	%rbx, %rdi
 14758 770c 4889EA   		movq	%rbp, %rdx
 14759              	.L1516:
 14760 770f 4883FA01 		cmpq	$1, %rdx
 14761 7713 0F844602 		je	.L1518
 14761      0000
 14762 7719 4883FA02 		cmpq	$2, %rdx
 14763 771d 0F851402 		jne	.L1548
 14763      0000
 14764 7723 E8000000 		call	__cxa_begin_catch@PLT
 14764      00
 14765 7728 488DBC24 		leaq	512(%rsp), %rdi
 14765      00020000 
 14766 7730 4889C3   		movq	%rax, %rbx
 14767              	.LEHB579:
 14768 7733 E8000000 		call	_ZN8UnitTest15MemoryOutStreamC1Ev
 14768      00
 14769              	.LEHE579:
 14770 7738 488DBC24 		leaq	512(%rsp), %rdi
 14770      00020000 
 14771 7740 488D3500 		leaq	.LC11(%rip), %rsi
 14771      000000
 14772 7747 BA150000 		movl	$21, %edx
 14772      00
 14773              	.LEHB580:
 14774 774c E8000000 		call	_ZSt16__ostream_insertIcSt11char_traitsIcEERSt13basic_ostreamIT_T0_ES6_PKS3_l@PLT
 14774      00
 14775 7751 488B03   		movq	(%rbx), %rax
 14776 7754 4889DF   		movq	%rbx, %rdi
 14777 7757 FF5010   		call	*16(%rax)
 14778 775a 488DBC24 		leaq	512(%rsp), %rdi
 14778      00020000 
 14779 7762 4889C6   		movq	%rax, %rsi
 14780 7765 E8000000 		call	_ZStlsISt11char_traitsIcEERSt13basic_ostreamIcT_ES5_PKc@PLT
 14780      00
 14781 776a E8000000 		call	_ZN8UnitTest11CurrentTest7ResultsEv@PLT
 14781      00
 14782 776f 488DBC24 		leaq	512(%rsp), %rdi
 14782      00020000 
 14783 7777 488B18   		movq	(%rax), %rbx
 14784 777a E8000000 		call	_ZNK8UnitTest15MemoryOutStream7GetTextEv@PLT
 14784      00
 14785 777f 488B7424 		movq	8(%rsp), %rsi
 14785      08
 14786 7784 4889C2   		movq	%rax, %rdx
 14787 7787 4889DF   		movq	%rbx, %rdi
 14788 778a E8000000 		call	_ZN8UnitTest11TestResults13OnTestFailureERKNS_11TestDetailsEPKc@PLT
 14788      00
 14789              	.LEHE580:
 14790 778f 488DBC24 		leaq	512(%rsp), %rdi
 14790      00020000 
 14791              	.LEHB581:
 14792 7797 E8000000 		call	_ZN8UnitTest15MemoryOutStreamD1Ev
 14792      00
 14793              	.LEHE581:
 14794              	.L1545:
 14795 779c E8000000 		call	__cxa_end_catch@PLT
 14795      00
 14796 77a1 E929FFFF 		jmp	.L1494
 14796      FF
 14797              	.L1547:
 14798 77a6 E8000000 		call	__stack_chk_fail@PLT
 14798      00
 14799              	.L1533:
 14800 77ab 4889C3   		movq	%rax, %rbx
 14801 77ae 4889D5   		movq	%rdx, %rbp
 14802              	.L1514:
 14803 77b1 488DBC24 		leaq	256(%rsp), %rdi
 14803      00010000 
 14804 77b9 E8000000 		call	_ZN8UnitTest4TestD1Ev@PLT
 14804      00
 14805 77be E939FFFF 		jmp	.L1515
 14805      FF
 14806              	.L1534:
 14807 77c3 4889C3   		movq	%rax, %rbx
 14808 77c6 4889D5   		movq	%rdx, %rbp
 14809              	.L1513:
 14810 77c9 488DBC24 		leaq	320(%rsp), %rdi
 14810      40010000 
 14811 77d1 E8000000 		call	_ZN8UnitTest4TestD1Ev@PLT
 14811      00
 14812 77d6 EBD9     		jmp	.L1514
 14813              	.L1538:
 14814 77d8 4889C7   		movq	%rax, %rdi
 14815 77db E8000000 		call	__cxa_begin_catch@PLT
 14815      00
 14816              	.LEHB582:
 14817 77e0 E8000000 		call	_ZN8UnitTest11CurrentTest7ResultsEv@PLT
 14817      00
 14818 77e5 488B18   		movq	(%rax), %rbx
 14819 77e8 E8000000 		call	_ZN8UnitTest11CurrentTest7DetailsEv@PLT
 14819      00
 14820 77ed 488B30   		movq	(%rax), %rsi
 14821 77f0 488D7C24 		leaq	64(%rsp), %rdi
 14821      40
 14822 77f5 BA370100 		movl	$311, %edx
 14822      00
 14823 77fa E8000000 		call	_ZN8UnitTest11TestDetailsC1ERKS0_i@PLT
 14823      00
 14824 77ff 488D7424 		leaq	64(%rsp), %rsi
 14824      40
 14825 7804 488D1500 		leaq	.LC73(%rip), %rdx
 14825      000000
 14826 780b 4889DF   		movq	%rbx, %rdi
 14827 780e E8000000 		call	_ZN8UnitTest11TestResults13OnTestFailureERKNS_11TestDetailsEPKc@PLT
 14827      00
 14828              	.LEHE582:
 14829              	.LEHB583:
 14830 7813 E8000000 		call	__cxa_end_catch@PLT
 14830      00
 14831              	.LEHE583:
 14832 7818 E971FEFF 		jmp	.L1510
 14832      FF
 14833              	.L1536:
 14834 781d 4889C3   		movq	%rax, %rbx
 14835 7820 4889D5   		movq	%rdx, %rbp
 14836              	.L1505:
 14837 7823 488DBC24 		leaq	448(%rsp), %rdi
 14837      C0010000 
 14838 782b E8000000 		call	_ZN8UnitTest4TestD1Ev@PLT
 14838      00
 14839              	.L1512:
 14840 7830 488DBC24 		leaq	384(%rsp), %rdi
 14840      80010000 
 14841 7838 E8000000 		call	_ZN8UnitTest4TestD1Ev@PLT
 14841      00
 14842 783d EB8A     		jmp	.L1513
 14843              	.L1537:
 14844 783f 4889C3   		movq	%rax, %rbx
 14845 7842 4889D5   		movq	%rdx, %rbp
 14846 7845 E8000000 		call	__cxa_end_catch@PLT
 14846      00
 14847 784a EBD7     		jmp	.L1505
 14848              	.L1540:
 14849 784c 4889C7   		movq	%rax, %rdi
 14850 784f E8000000 		call	__cxa_begin_catch@PLT
 14850      00
 14851              	.LEHB584:
 14852 7854 E8000000 		call	_ZN8UnitTest11CurrentTest7ResultsEv@PLT
 14852      00
 14853 7859 488B18   		movq	(%rax), %rbx
 14854 785c E8000000 		call	_ZN8UnitTest11CurrentTest7DetailsEv@PLT
 14854      00
 14855 7861 488B30   		movq	(%rax), %rsi
 14856 7864 488DBC24 		leaq	128(%rsp), %rdi
 14856      80000000 
 14857 786c BA360100 		movl	$310, %edx
 14857      00
 14858 7871 E8000000 		call	_ZN8UnitTest11TestDetailsC1ERKS0_i@PLT
 14858      00
 14859 7876 488DB424 		leaq	128(%rsp), %rsi
 14859      80000000 
 14860 787e 488D1500 		leaq	.LC51(%rip), %rdx
 14860      000000
 14861 7885 4889DF   		movq	%rbx, %rdi
 14862 7888 E8000000 		call	_ZN8UnitTest11TestResults13OnTestFailureERKNS_11TestDetailsEPKc@PLT
 14862      00
 14863              	.LEHE584:
 14864              	.LEHB585:
 14865 788d E8000000 		call	__cxa_end_catch@PLT
 14865      00
 14866              	.LEHE585:
 14867 7892 E9BCFDFF 		jmp	.L1507
 14867      FF
 14868              	.L1542:
 14869 7897 4889C7   		movq	%rax, %rdi
 14870 789a E8000000 		call	__cxa_begin_catch@PLT
 14870      00
 14871              	.LEHB586:
 14872 789f E8000000 		call	_ZN8UnitTest11CurrentTest7ResultsEv@PLT
 14872      00
 14873 78a4 488B18   		movq	(%rax), %rbx
 14874 78a7 E8000000 		call	_ZN8UnitTest11CurrentTest7DetailsEv@PLT
 14874      00
 14875 78ac 488B30   		movq	(%rax), %rsi
 14876 78af 488DBC24 		leaq	192(%rsp), %rdi
 14876      C0000000 
 14877 78b7 BA350100 		movl	$309, %edx
 14877      00
 14878 78bc E8000000 		call	_ZN8UnitTest11TestDetailsC1ERKS0_i@PLT
 14878      00
 14879 78c1 488DB424 		leaq	192(%rsp), %rsi
 14879      C0000000 
 14880 78c9 488D1500 		leaq	.LC50(%rip), %rdx
 14880      000000
 14881 78d0 4889DF   		movq	%rbx, %rdi
 14882 78d3 E8000000 		call	_ZN8UnitTest11TestResults13OnTestFailureERKNS_11TestDetailsEPKc@PLT
 14882      00
 14883              	.LEHE586:
 14884              	.LEHB587:
 14885 78d8 E8000000 		call	__cxa_end_catch@PLT
 14885      00
 14886              	.LEHE587:
 14887 78dd E92DFDFF 		jmp	.L1503
 14887      FF
 14888              	.L1539:
 14889 78e2 4889C3   		movq	%rax, %rbx
 14890 78e5 4889D5   		movq	%rdx, %rbp
 14891 78e8 E8000000 		call	__cxa_end_catch@PLT
 14891      00
 14892 78ed E931FFFF 		jmp	.L1505
 14892      FF
 14893              	.L1541:
 14894 78f2 4889C3   		movq	%rax, %rbx
 14895 78f5 4889D5   		movq	%rdx, %rbp
 14896 78f8 E8000000 		call	__cxa_end_catch@PLT
 14896      00
 14897 78fd E921FFFF 		jmp	.L1505
 14897      FF
 14898              	.L1535:
 14899 7902 4889C3   		movq	%rax, %rbx
 14900 7905 4889D5   		movq	%rdx, %rbp
 14901 7908 E923FFFF 		jmp	.L1512
 14901      FF
 14902              	.L1527:
 14903 790d 4889C7   		movq	%rax, %rdi
 14904 7910 E9FAFDFF 		jmp	.L1516
 14904      FF
 14905              	.L1531:
 14906 7915 488DBC24 		leaq	512(%rsp), %rdi
 14906      00020000 
 14907 791d 4889C3   		movq	%rax, %rbx
 14908 7920 E8000000 		call	_ZN8UnitTest15MemoryOutStreamD1Ev
 14908      00
 14909              	.L1524:
 14910 7925 E8000000 		call	__cxa_end_catch@PLT
 14910      00
 14911 792a 4889DF   		movq	%rbx, %rdi
 14912              	.LEHB588:
 14913 792d E8000000 		call	_Unwind_Resume@PLT
 14913      00
 14914              	.LEHE588:
 14915              	.L1530:
 14916              	.L1546:
 14917 7932 4889C3   		movq	%rax, %rbx
 14918 7935 EBEE     		jmp	.L1524
 14919              	.L1548:
 14920 7937 E8000000 		call	__cxa_begin_catch@PLT
 14920      00
 14921              	.LEHB589:
 14922 793c E8000000 		call	_ZN8UnitTest11CurrentTest7ResultsEv@PLT
 14922      00
 14923 7941 488B7424 		movq	8(%rsp), %rsi
 14923      08
 14924 7946 488B38   		movq	(%rax), %rdi
 14925 7949 488D1500 		leaq	.LC12(%rip), %rdx
 14925      000000
 14926 7950 E8000000 		call	_ZN8UnitTest11TestResults13OnTestFailureERKNS_11TestDetailsEPKc@PLT
 14926      00
 14927              	.LEHE589:
 14928              	.LEHB590:
 14929 7955 E8000000 		call	__cxa_end_catch@PLT
 14929      00
 14930              	.LEHE590:
 14931 795a E970FDFF 		jmp	.L1494
 14931      FF
 14932              	.L1518:
 14933 795f E8000000 		call	__cxa_begin_catch@PLT
 14933      00
 14934 7964 4889C3   		movq	%rax, %rbx
 14935              	.LEHB591:
 14936 7967 E8000000 		call	_ZN8UnitTest11CurrentTest7ResultsEv@PLT
 14936      00
 14937 796c 488B28   		movq	(%rax), %rbp
 14938 796f 488B03   		movq	(%rbx), %rax
 14939 7972 4889DF   		movq	%rbx, %rdi
 14940 7975 FF5010   		call	*16(%rax)
 14941 7978 4889DF   		movq	%rbx, %rdi
 14942 797b 4989C4   		movq	%rax, %r12
 14943 797e E8000000 		call	_ZNK8UnitTest15AssertException10LineNumberEv@PLT
 14943      00
 14944 7983 4889DF   		movq	%rbx, %rdi
 14945 7986 4189C5   		movl	%eax, %r13d
 14946 7989 E8000000 		call	_ZNK8UnitTest15AssertException8FilenameEv@PLT
 14946      00
 14947 798e 488B5424 		movq	8(%rsp), %rdx
 14947      08
 14948 7993 488D7C24 		leaq	32(%rsp), %rdi
 14948      20
 14949 7998 4589E8   		movl	%r13d, %r8d
 14950 799b 4889C1   		movq	%rax, %rcx
 14951 799e 488B7208 		movq	8(%rdx), %rsi
 14952 79a2 488B12   		movq	(%rdx), %rdx
 14953 79a5 E8000000 		call	_ZN8UnitTest11TestDetailsC1EPKcS2_S2_i@PLT
 14953      00
 14954 79aa 488D7424 		leaq	32(%rsp), %rsi
 14954      20
 14955 79af 4C89E2   		movq	%r12, %rdx
 14956 79b2 4889EF   		movq	%rbp, %rdi
 14957 79b5 E8000000 		call	_ZN8UnitTest11TestResults13OnTestFailureERKNS_11TestDetailsEPKc@PLT
 14957      00
 14958              	.LEHE591:
 14959 79ba E9DDFDFF 		jmp	.L1545
 14959      FF
 14960              	.L1532:
 14961 79bf 4889C3   		movq	%rax, %rbx
 14962 79c2 E8000000 		call	__cxa_end_catch@PLT
 14962      00
 14963 79c7 4889DF   		movq	%rbx, %rdi
 14964              	.LEHB592:
 14965 79ca E8000000 		call	_Unwind_Resume@PLT
 14965      00
 14966              	.LEHE592:
 14967              	.L1529:
 14968 79cf E95EFFFF 		jmp	.L1546
 14968      FF
 14969              		.cfi_endproc
 14970              	.LFE1428:
 14971              		.section	.gcc_except_table
 14972              		.align 4
 14973              	.LLSDA1428:
 14974 0f94 FF       		.byte	0xff
 14975 0f95 9B       		.byte	0x9b
 14976 0f96 C001     		.uleb128 .LLSDATT1428-.LLSDATTD1428
 14977              	.LLSDATTD1428:
 14978 0f98 01       		.byte	0x1
 14979 0f99 A801     		.uleb128 .LLSDACSE1428-.LLSDACSB1428
 14980              	.LLSDACSB1428:
 14981 0f9b 2E       		.uleb128 .LEHB564-.LFB1428
 14982 0f9c 05       		.uleb128 .LEHE564-.LEHB564
 14983 0f9d 00       		.uleb128 0
 14984 0f9e 00       		.uleb128 0
 14985 0f9f 3E       		.uleb128 .LEHB565-.LFB1428
 14986 0fa0 05       		.uleb128 .LEHE565-.LEHB565
 14987 0fa1 BD0A     		.uleb128 .L1527-.LFB1428
 14988 0fa3 05       		.uleb128 0x5
 14989 0fa4 78       		.uleb128 .LEHB566-.LFB1428
 14990 0fa5 2D       		.uleb128 .LEHE566-.LEHB566
 14991 0fa6 A606     		.uleb128 .L1528-.LFB1428
 14992 0fa8 07       		.uleb128 0x7
 14993 0fa9 C501     		.uleb128 .LEHB567-.LFB1428
 14994 0fab 05       		.uleb128 .LEHE567-.LEHB567
 14995 0fac DB07     		.uleb128 .L1533-.LFB1428
 14996 0fae 07       		.uleb128 0x7
 14997 0faf EA01     		.uleb128 .LEHB568-.LFB1428
 14998 0fb1 05       		.uleb128 .LEHE568-.LEHB568
 14999 0fb2 F307     		.uleb128 .L1534-.LFB1428
 15000 0fb4 07       		.uleb128 0x7
 15001 0fb5 8F02     		.uleb128 .LEHB569-.LFB1428
 15002 0fb7 05       		.uleb128 .LEHE569-.LEHB569
 15003 0fb8 B20A     		.uleb128 .L1535-.LFB1428
 15004 0fba 07       		.uleb128 0x7
 15005 0fbb AA02     		.uleb128 .LEHB570-.LFB1428
 15006 0fbd CF01     		.uleb128 .LEHE570-.LEHB570
 15007 0fbf CD08     		.uleb128 .L1536-.LFB1428
 15008 0fc1 07       		.uleb128 0x7
 15009 0fc2 FC03     		.uleb128 .LEHB571-.LFB1428
 15010 0fc4 43       		.uleb128 .LEHE571-.LEHB571
 15011 0fc5 C709     		.uleb128 .L1542-.LFB1428
 15012 0fc7 01       		.uleb128 0x1
 15013 0fc8 BF04     		.uleb128 .LEHB572-.LFB1428
 15014 0fca 44       		.uleb128 .LEHE572-.LEHB572
 15015 0fcb FC08     		.uleb128 .L1540-.LFB1428
 15016 0fcd 01       		.uleb128 0x1
 15017 0fce 8305     		.uleb128 .LEHB573-.LFB1428
 15018 0fd0 3B       		.uleb128 .LEHE573-.LEHB573
 15019 0fd1 8808     		.uleb128 .L1538-.LFB1428
 15020 0fd3 01       		.uleb128 0x1
 15021 0fd4 C605     		.uleb128 .LEHB574-.LFB1428
 15022 0fd6 05       		.uleb128 .LEHE574-.LEHB574
 15023 0fd7 B20A     		.uleb128 .L1535-.LFB1428
 15024 0fd9 07       		.uleb128 0x7
 15025 0fda D305     		.uleb128 .LEHB575-.LFB1428
 15026 0fdc 05       		.uleb128 .LEHE575-.LEHB575
 15027 0fdd F307     		.uleb128 .L1534-.LFB1428
 15028 0fdf 07       		.uleb128 0x7
 15029 0fe0 E005     		.uleb128 .LEHB576-.LFB1428
 15030 0fe2 05       		.uleb128 .LEHE576-.LEHB576
 15031 0fe3 DB07     		.uleb128 .L1533-.LFB1428
 15032 0fe5 07       		.uleb128 0x7
 15033 0fe6 ED05     		.uleb128 .LEHB577-.LFB1428
 15034 0fe8 05       		.uleb128 .LEHE577-.LEHB577
 15035 0fe9 A606     		.uleb128 .L1528-.LFB1428
 15036 0feb 07       		.uleb128 0x7
 15037 0fec FA05     		.uleb128 .LEHB578-.LFB1428
 15038 0fee 05       		.uleb128 .LEHE578-.LEHB578
 15039 0fef BD0A     		.uleb128 .L1527-.LFB1428
 15040 0ff1 05       		.uleb128 0x5
 15041 0ff2 E306     		.uleb128 .LEHB579-.LFB1428
 15042 0ff4 05       		.uleb128 .LEHE579-.LEHB579
 15043 0ff5 E20A     		.uleb128 .L1530-.LFB1428
 15044 0ff7 00       		.uleb128 0
 15045 0ff8 FC06     		.uleb128 .LEHB580-.LFB1428
 15046 0ffa 43       		.uleb128 .LEHE580-.LEHB580
 15047 0ffb C50A     		.uleb128 .L1531-.LFB1428
 15048 0ffd 00       		.uleb128 0
 15049 0ffe C707     		.uleb128 .LEHB581-.LFB1428
 15050 1000 05       		.uleb128 .LEHE581-.LEHB581
 15051 1001 E20A     		.uleb128 .L1530-.LFB1428
 15052 1003 00       		.uleb128 0
 15053 1004 9008     		.uleb128 .LEHB582-.LFB1428
 15054 1006 33       		.uleb128 .LEHE582-.LEHB582
 15055 1007 EF08     		.uleb128 .L1537-.LFB1428
 15056 1009 07       		.uleb128 0x7
 15057 100a C308     		.uleb128 .LEHB583-.LFB1428
 15058 100c 05       		.uleb128 .LEHE583-.LEHB583
 15059 100d CD08     		.uleb128 .L1536-.LFB1428
 15060 100f 07       		.uleb128 0x7
 15061 1010 8409     		.uleb128 .LEHB584-.LFB1428
 15062 1012 39       		.uleb128 .LEHE584-.LEHB584
 15063 1013 920A     		.uleb128 .L1539-.LFB1428
 15064 1015 07       		.uleb128 0x7
 15065 1016 BD09     		.uleb128 .LEHB585-.LFB1428
 15066 1018 05       		.uleb128 .LEHE585-.LEHB585
 15067 1019 CD08     		.uleb128 .L1536-.LFB1428
 15068 101b 07       		.uleb128 0x7
 15069 101c CF09     		.uleb128 .LEHB586-.LFB1428
 15070 101e 39       		.uleb128 .LEHE586-.LEHB586
 15071 101f A20A     		.uleb128 .L1541-.LFB1428
 15072 1021 07       		.uleb128 0x7
 15073 1022 880A     		.uleb128 .LEHB587-.LFB1428
 15074 1024 05       		.uleb128 .LEHE587-.LEHB587
 15075 1025 CD08     		.uleb128 .L1536-.LFB1428
 15076 1027 07       		.uleb128 0x7
 15077 1028 DD0A     		.uleb128 .LEHB588-.LFB1428
 15078 102a 05       		.uleb128 .LEHE588-.LEHB588
 15079 102b 00       		.uleb128 0
 15080 102c 00       		.uleb128 0
 15081 102d EC0A     		.uleb128 .LEHB589-.LFB1428
 15082 102f 19       		.uleb128 .LEHE589-.LEHB589
 15083 1030 EF0B     		.uleb128 .L1532-.LFB1428
 15084 1032 00       		.uleb128 0
 15085 1033 850B     		.uleb128 .LEHB590-.LFB1428
 15086 1035 05       		.uleb128 .LEHE590-.LEHB590
 15087 1036 00       		.uleb128 0
 15088 1037 00       		.uleb128 0
 15089 1038 970B     		.uleb128 .LEHB591-.LFB1428
 15090 103a 53       		.uleb128 .LEHE591-.LEHB591
 15091 103b FF0B     		.uleb128 .L1529-.LFB1428
 15092 103d 00       		.uleb128 0
 15093 103e FA0B     		.uleb128 .LEHB592-.LFB1428
 15094 1040 05       		.uleb128 .LEHE592-.LEHB592
 15095 1041 00       		.uleb128 0
 15096 1042 00       		.uleb128 0
 15097              	.LLSDACSE1428:
 15098 1043 03       		.byte	0x3
 15099 1044 00       		.byte	0
 15100 1045 02       		.byte	0x2
 15101 1046 7D       		.byte	0x7d
 15102 1047 01       		.byte	0x1
 15103 1048 7D       		.byte	0x7d
 15104 1049 00       		.byte	0
 15105 104a 7D       		.byte	0x7d
 15106 104b 00       		.align 4
 15107 104c 00000000 		.long	0
 15108              	
 15109 1050 00000000 		.long	DW.ref._ZTISt9exception-.
 15110 1054 00000000 		.long	DW.ref._ZTIN8UnitTest15AssertExceptionE-.
 15111              	.LLSDATT1428:
 15112              		.text
 15114              		.align 2
 15115 79d4 6690662E 		.p2align 4,,15
 15115      0F1F8400 
 15115      00000000 
 15117              	_ZNK12_GLOBAL__N_180TestTestRunnerFixtureTestRunnerOnlyRunsTestsInSpecifiedSuiteAndThatPassPredicat
 15118              	.LFB1373:
 15119              		.cfi_startproc
 15120              		.cfi_personality 0x9b,DW.ref.__gxx_personality_v0
 15121              		.cfi_lsda 0x1b,.LLSDA1373
 15122 79e0 4156     		pushq	%r14
 15123              		.cfi_def_cfa_offset 16
 15124              		.cfi_offset 14, -16
 15125 79e2 4155     		pushq	%r13
 15126              		.cfi_def_cfa_offset 24
 15127              		.cfi_offset 13, -24
 15128 79e4 4989FD   		movq	%rdi, %r13
 15129 79e7 4154     		pushq	%r12
 15130              		.cfi_def_cfa_offset 32
 15131              		.cfi_offset 12, -32
 15132 79e9 55       		pushq	%rbp
 15133              		.cfi_def_cfa_offset 40
 15134              		.cfi_offset 6, -40
 15135 79ea 488D6F08 		leaq	8(%rdi), %rbp
 15136 79ee 53       		pushq	%rbx
 15137              		.cfi_def_cfa_offset 48
 15138              		.cfi_offset 3, -48
 15139 79ef 4881EC90 		subq	$2192, %rsp
 15139      080000
 15140              		.cfi_def_cfa_offset 2240
 15141 79f6 488D5C24 		leaq	32(%rsp), %rbx
 15141      20
 15142 79fb 64488B04 		movq	%fs:40, %rax
 15142      25280000 
 15142      00
 15143 7a04 48898424 		movq	%rax, 2184(%rsp)
 15143      88080000 
 15144 7a0c 31C0     		xorl	%eax, %eax
 15145 7a0e 488D7318 		leaq	24(%rbx), %rsi
 15146 7a12 4889DF   		movq	%rbx, %rdi
 15147              	.LEHB593:
 15148 7a15 E8000000 		call	_ZN8UnitTest10TestRunnerC1ERNS_12TestReporterE@PLT
 15148      00
 15149              	.LEHE593:
 15150 7a1a 4C8D2500 		leaq	16+_ZTV17RecordingReporter(%rip), %r12
 15150      000000
 15151 7a21 488DBB48 		leaq	2120(%rbx), %rdi
 15151      080000
 15152 7a28 C7442440 		movl	$0, 64(%rsp)
 15152      00000000 
 15153 7a30 C7842444 		movl	$0, 580(%rsp)
 15153      02000000 
 15153      000000
 15154 7a3b C7842448 		movl	$0, 840(%rsp)
 15154      03000000 
 15154      000000
 15155 7a46 4C896424 		movq	%r12, 56(%rsp)
 15155      38
 15156 7a4b C784244C 		movl	$0, 1612(%rsp)
 15156      06000000 
 15156      000000
 15157 7a56 48C78424 		movq	$0, 2128(%rsp)
 15157      50080000 
 15157      00000000 
 15158 7a62 48C78424 		movq	$0, 2136(%rsp)
 15158      58080000 
 15158      00000000 
 15159 7a6e C7842460 		movl	$0, 2144(%rsp)
 15159      08000000 
 15159      000000
 15160 7a79 C6442444 		movb	$0, 68(%rsp)
 15160      00
 15161 7a7e C6842444 		movb	$0, 324(%rsp)
 15161      01000000 
 15162 7a86 C6842448 		movb	$0, 584(%rsp)
 15162      02000000 
 15163 7a8e C684244C 		movb	$0, 844(%rsp)
 15163      03000000 
 15164 7a96 C684244C 		movb	$0, 1100(%rsp)
 15164      04000000 
 15165 7a9e C684244C 		movb	$0, 1356(%rsp)
 15165      05000000 
 15166 7aa6 C6842450 		movb	$0, 1616(%rsp)
 15166      06000000 
 15167 7aae C6842450 		movb	$0, 1872(%rsp)
 15167      07000000 
 15168              	.LEHB594:
 15169 7ab6 E8000000 		call	_ZN8UnitTest8TestListC1Ev@PLT
 15169      00
 15170              	.LEHE594:
 15171 7abb 4889EE   		movq	%rbp, %rsi
 15172 7abe 4889DF   		movq	%rbx, %rdi
 15173 7ac1 4889AC24 		movq	%rbp, 2168(%rsp)
 15173      78080000 
 15174              	.LEHB595:
 15175 7ac9 E802F9FF 		call	_ZN8UnitTest11ExecuteTestIN12_GLOBAL__N_182TestRunnerFixtureTestRunnerOnlyRunsTestsInSpecifie
 15175      FF
 15176              	.LEHE595:
 15177 7ace 488D7B18 		leaq	24(%rbx), %rdi
 15178 7ad2 4C896424 		movq	%r12, 56(%rsp)
 15178      38
 15179              	.LEHB596:
 15180 7ad7 E8000000 		call	_ZN8UnitTest12TestReporterD2Ev@PLT
 15180      00
 15181              	.LEHE596:
 15182 7adc 4889DF   		movq	%rbx, %rdi
 15183              	.LEHB597:
 15184 7adf E8000000 		call	_ZN8UnitTest10TestRunnerD1Ev@PLT
 15184      00
 15185              	.LEHE597:
 15186              	.L1549:
 15187 7ae4 488B8424 		movq	2184(%rsp), %rax
 15187      88080000 
 15188 7aec 64483304 		xorq	%fs:40, %rax
 15188      25280000 
 15188      00
 15189 7af5 7510     		jne	.L1597
 15190 7af7 4881C490 		addq	$2192, %rsp
 15190      080000
 15191              		.cfi_remember_state
 15192              		.cfi_def_cfa_offset 48
 15193 7afe 5B       		popq	%rbx
 15194              		.cfi_def_cfa_offset 40
 15195 7aff 5D       		popq	%rbp
 15196              		.cfi_def_cfa_offset 32
 15197 7b00 415C     		popq	%r12
 15198              		.cfi_def_cfa_offset 24
 15199 7b02 415D     		popq	%r13
 15200              		.cfi_def_cfa_offset 16
 15201 7b04 415E     		popq	%r14
 15202              		.cfi_def_cfa_offset 8
 15203 7b06 C3       		ret
 15204              	.L1597:
 15205              		.cfi_restore_state
 15206 7b07 E8000000 		call	__stack_chk_fail@PLT
 15206      00
 15207              	.L1569:
 15208 7b0c 4889C7   		movq	%rax, %rdi
 15209              	.L1555:
 15210 7b0f 4883FA01 		cmpq	$1, %rdx
 15211 7b13 0F846F01 		je	.L1557
 15211      0000
 15212 7b19 4883FA02 		cmpq	$2, %rdx
 15213 7b1d 0F853101 		jne	.L1598
 15213      0000
 15214              	.L1558:
 15215 7b23 E8000000 		call	__cxa_begin_catch@PLT
 15215      00
 15216 7b28 4889DF   		movq	%rbx, %rdi
 15217 7b2b 4989C4   		movq	%rax, %r12
 15218              	.LEHB598:
 15219 7b2e E8000000 		call	_ZN8UnitTest15MemoryOutStreamC1Ev
 15219      00
 15220              	.LEHE598:
 15221 7b33 488D3500 		leaq	.LC11(%rip), %rsi
 15221      000000
 15222 7b3a BA150000 		movl	$21, %edx
 15222      00
 15223 7b3f 4889DF   		movq	%rbx, %rdi
 15224              	.LEHB599:
 15225 7b42 E8000000 		call	_ZSt16__ostream_insertIcSt11char_traitsIcEERSt13basic_ostreamIT_T0_ES6_PKS3_l@PLT
 15225      00
 15226 7b47 498B0424 		movq	(%r12), %rax
 15227 7b4b 4C89E7   		movq	%r12, %rdi
 15228 7b4e FF5010   		call	*16(%rax)
 15229 7b51 4889DF   		movq	%rbx, %rdi
 15230 7b54 4889C6   		movq	%rax, %rsi
 15231 7b57 E8000000 		call	_ZStlsISt11char_traitsIcEERSt13basic_ostreamIcT_ES5_PKc@PLT
 15231      00
 15232 7b5c E8000000 		call	_ZN8UnitTest11CurrentTest7ResultsEv@PLT
 15232      00
 15233 7b61 4889DF   		movq	%rbx, %rdi
 15234 7b64 4C8B20   		movq	(%rax), %r12
 15235 7b67 E8000000 		call	_ZNK8UnitTest15MemoryOutStream7GetTextEv@PLT
 15235      00
 15236 7b6c 4889C2   		movq	%rax, %rdx
 15237 7b6f 4889EE   		movq	%rbp, %rsi
 15238 7b72 4C89E7   		movq	%r12, %rdi
 15239 7b75 E8000000 		call	_ZN8UnitTest11TestResults13OnTestFailureERKNS_11TestDetailsEPKc@PLT
 15239      00
 15240              	.LEHE599:
 15241 7b7a 4889DF   		movq	%rbx, %rdi
 15242              	.LEHB600:
 15243 7b7d E8000000 		call	_ZN8UnitTest15MemoryOutStreamD1Ev
 15243      00
 15244              	.LEHE600:
 15245              	.L1596:
 15246 7b82 E8000000 		call	__cxa_end_catch@PLT
 15246      00
 15247 7b87 E958FFFF 		jmp	.L1549
 15247      FF
 15248              	.L1576:
 15249 7b8c 4989C4   		movq	%rax, %r12
 15250 7b8f 4989D6   		movq	%rdx, %r14
 15251 7b92 4889DF   		movq	%rbx, %rdi
 15252 7b95 E8000000 		call	_ZN8UnitTest10TestRunnerD1Ev@PLT
 15252      00
 15253 7b9a 4C89E7   		movq	%r12, %rdi
 15254 7b9d 4C89F2   		movq	%r14, %rdx
 15255 7ba0 E96AFFFF 		jmp	.L1555
 15255      FF
 15256              	.L1570:
 15257 7ba5 4989C4   		movq	%rax, %r12
 15258 7ba8 4989D6   		movq	%rdx, %r14
 15259 7bab 4889DF   		movq	%rbx, %rdi
 15260 7bae E8000000 		call	_ZN12_GLOBAL__N_111FixtureBaseD2Ev
 15260      00
 15261 7bb3 4C89E7   		movq	%r12, %rdi
 15262 7bb6 4C89F2   		movq	%r14, %rdx
 15263 7bb9 E951FFFF 		jmp	.L1555
 15263      FF
 15264              	.L1575:
 15265 7bbe 4989C4   		movq	%rax, %r12
 15266 7bc1 4989D6   		movq	%rdx, %r14
 15267 7bc4 4889DF   		movq	%rbx, %rdi
 15268 7bc7 E8000000 		call	_ZN12_GLOBAL__N_111FixtureBaseD2Ev
 15268      00
 15269 7bcc 4C89E7   		movq	%r12, %rdi
 15270 7bcf 4C89F2   		movq	%r14, %rdx
 15271              	.L1552:
 15272 7bd2 4883FA01 		cmpq	$1, %rdx
 15273 7bd6 0F84AC00 		je	.L1557
 15273      0000
 15274 7bdc 4883FA02 		cmpq	$2, %rdx
 15275 7be0 0F843DFF 		je	.L1558
 15275      FFFF
 15276 7be6 E8000000 		call	__cxa_begin_catch@PLT
 15276      00
 15277              	.LEHB601:
 15278 7beb E8000000 		call	_ZN8UnitTest11CurrentTest7ResultsEv@PLT
 15278      00
 15279 7bf0 4889E3   		movq	%rsp, %rbx
 15280 7bf3 BA270100 		movl	$295, %edx
 15280      00
 15281 7bf8 4889EE   		movq	%rbp, %rsi
 15282 7bfb 4889DF   		movq	%rbx, %rdi
 15283 7bfe 4C8B20   		movq	(%rax), %r12
 15284 7c01 E8000000 		call	_ZN8UnitTest11TestDetailsC1ERKS0_i@PLT
 15284      00
 15285 7c06 488D1500 		leaq	.LC14(%rip), %rdx
 15285      000000
 15286 7c0d 4889DE   		movq	%rbx, %rsi
 15287 7c10 4C89E7   		movq	%r12, %rdi
 15288 7c13 E8000000 		call	_ZN8UnitTest11TestResults13OnTestFailureERKNS_11TestDetailsEPKc@PLT
 15288      00
 15289              	.LEHE601:
 15290              	.L1559:
 15291              	.LEHB602:
 15292 7c18 E8000000 		call	__cxa_end_catch@PLT
 15292      00
 15293              	.LEHE602:
 15294 7c1d E9C2FEFF 		jmp	.L1549
 15294      FF
 15295              	.L1577:
 15296 7c22 4889C7   		movq	%rax, %rdi
 15297 7c25 EBAB     		jmp	.L1552
 15298              	.L1574:
 15299 7c27 4889C3   		movq	%rax, %rbx
 15300 7c2a E8000000 		call	__cxa_end_catch@PLT
 15300      00
 15301 7c2f 4889DF   		movq	%rbx, %rdi
 15302              	.LEHB603:
 15303 7c32 E8000000 		call	_Unwind_Resume@PLT
 15303      00
 15304              	.LEHE603:
 15305              	.L1573:
 15306 7c37 4889DF   		movq	%rbx, %rdi
 15307 7c3a 4889C5   		movq	%rax, %rbp
 15308 7c3d E8000000 		call	_ZN8UnitTest15MemoryOutStreamD1Ev
 15308      00
 15309              	.L1562:
 15310 7c42 E8000000 		call	__cxa_end_catch@PLT
 15310      00
 15311 7c47 4889EF   		movq	%rbp, %rdi
 15312              	.LEHB604:
 15313 7c4a E8000000 		call	_Unwind_Resume@PLT
 15313      00
 15314              	.LEHE604:
 15315              	.L1572:
 15316 7c4f 4889C5   		movq	%rax, %rbp
 15317 7c52 EBEE     		jmp	.L1562
 15318              	.L1598:
 15319 7c54 E8000000 		call	__cxa_begin_catch@PLT
 15319      00
 15320              	.LEHB605:
 15321 7c59 E8000000 		call	_ZN8UnitTest11CurrentTest7ResultsEv@PLT
 15321      00
 15322 7c5e 4889E3   		movq	%rsp, %rbx
 15323 7c61 BA270100 		movl	$295, %edx
 15323      00
 15324 7c66 4889EE   		movq	%rbp, %rsi
 15325 7c69 4889DF   		movq	%rbx, %rdi
 15326 7c6c 4C8B20   		movq	(%rax), %r12
 15327 7c6f E8000000 		call	_ZN8UnitTest11TestDetailsC1ERKS0_i@PLT
 15327      00
 15328 7c74 488D1500 		leaq	.LC13(%rip), %rdx
 15328      000000
 15329 7c7b 4889DE   		movq	%rbx, %rsi
 15330 7c7e 4C89E7   		movq	%r12, %rdi
 15331 7c81 E8000000 		call	_ZN8UnitTest11TestResults13OnTestFailureERKNS_11TestDetailsEPKc@PLT
 15331      00
 15332              	.LEHE605:
 15333 7c86 EB90     		jmp	.L1559
 15334              	.L1557:
 15335 7c88 E8000000 		call	__cxa_begin_catch@PLT
 15335      00
 15336 7c8d 4889C3   		movq	%rax, %rbx
 15337              	.LEHB606:
 15338 7c90 E8000000 		call	_ZN8UnitTest11CurrentTest7ResultsEv@PLT
 15338      00
 15339 7c95 488B28   		movq	(%rax), %rbp
 15340 7c98 488B03   		movq	(%rbx), %rax
 15341 7c9b 4889DF   		movq	%rbx, %rdi
 15342 7c9e FF5010   		call	*16(%rax)
 15343 7ca1 4889DF   		movq	%rbx, %rdi
 15344 7ca4 4989C4   		movq	%rax, %r12
 15345 7ca7 E8000000 		call	_ZNK8UnitTest15AssertException10LineNumberEv@PLT
 15345      00
 15346 7cac 4889DF   		movq	%rbx, %rdi
 15347 7caf 4189C6   		movl	%eax, %r14d
 15348 7cb2 E8000000 		call	_ZNK8UnitTest15AssertException8FilenameEv@PLT
 15348      00
 15349 7cb7 498B5508 		movq	8(%r13), %rdx
 15350 7cbb 498B7510 		movq	16(%r13), %rsi
 15351 7cbf 4889E3   		movq	%rsp, %rbx
 15352 7cc2 4589F0   		movl	%r14d, %r8d
 15353 7cc5 4889C1   		movq	%rax, %rcx
 15354 7cc8 4889DF   		movq	%rbx, %rdi
 15355 7ccb E8000000 		call	_ZN8UnitTest11TestDetailsC1EPKcS2_S2_i@PLT
 15355      00
 15356 7cd0 4C89E2   		movq	%r12, %rdx
 15357 7cd3 4889DE   		movq	%rbx, %rsi
 15358 7cd6 4889EF   		movq	%rbp, %rdi
 15359 7cd9 E8000000 		call	_ZN8UnitTest11TestResults13OnTestFailureERKNS_11TestDetailsEPKc@PLT
 15359      00
 15360              	.LEHE606:
 15361 7cde E99FFEFF 		jmp	.L1596
 15361      FF
 15362              	.L1571:
 15363 7ce3 4889C3   		movq	%rax, %rbx
 15364 7ce6 E8000000 		call	__cxa_end_catch@PLT
 15364      00
 15365 7ceb 4889DF   		movq	%rbx, %rdi
 15366              	.LEHB607:
 15367 7cee E8000000 		call	_Unwind_Resume@PLT
 15367      00
 15368              	.LEHE607:
 15369              		.cfi_endproc
 15370              	.LFE1373:
 15371              		.section	.gcc_except_table
 15372              		.align 4
 15373              	.LLSDA1373:
 15374 1058 FF       		.byte	0xff
 15375 1059 9B       		.byte	0x9b
 15376 105a 6D       		.uleb128 .LLSDATT1373-.LLSDATTD1373
 15377              	.LLSDATTD1373:
 15378 105b 01       		.byte	0x1
 15379 105c 55       		.uleb128 .LLSDACSE1373-.LLSDACSB1373
 15380              	.LLSDACSB1373:
 15381 105d 35       		.uleb128 .LEHB593-.LFB1373
 15382 105e 05       		.uleb128 .LEHE593-.LEHB593
 15383 105f C204     		.uleb128 .L1577-.LFB1373
 15384 1061 05       		.uleb128 0x5
 15385 1062 D601     		.uleb128 .LEHB594-.LFB1373
 15386 1064 05       		.uleb128 .LEHE594-.LEHB594
 15387 1065 DE03     		.uleb128 .L1575-.LFB1373
 15388 1067 07       		.uleb128 0x7
 15389 1068 E901     		.uleb128 .LEHB595-.LFB1373
 15390 106a 05       		.uleb128 .LEHE595-.LEHB595
 15391 106b C503     		.uleb128 .L1570-.LFB1373
 15392 106d 07       		.uleb128 0x7
 15393 106e F701     		.uleb128 .LEHB596-.LFB1373
 15394 1070 05       		.uleb128 .LEHE596-.LEHB596
 15395 1071 AC03     		.uleb128 .L1576-.LFB1373
 15396 1073 07       		.uleb128 0x7
 15397 1074 FF01     		.uleb128 .LEHB597-.LFB1373
 15398 1076 05       		.uleb128 .LEHE597-.LEHB597
 15399 1077 AC02     		.uleb128 .L1569-.LFB1373
 15400 1079 05       		.uleb128 0x5
 15401 107a CE02     		.uleb128 .LEHB598-.LFB1373
 15402 107c 05       		.uleb128 .LEHE598-.LEHB598
 15403 107d EF04     		.uleb128 .L1572-.LFB1373
 15404 107f 00       		.uleb128 0
 15405 1080 E202     		.uleb128 .LEHB599-.LFB1373
 15406 1082 38       		.uleb128 .LEHE599-.LEHB599
 15407 1083 D704     		.uleb128 .L1573-.LFB1373
 15408 1085 00       		.uleb128 0
 15409 1086 9D03     		.uleb128 .LEHB600-.LFB1373
 15410 1088 05       		.uleb128 .LEHE600-.LEHB600
 15411 1089 EF04     		.uleb128 .L1572-.LFB1373
 15412 108b 00       		.uleb128 0
 15413 108c 8B04     		.uleb128 .LEHB601-.LFB1373
 15414 108e 2D       		.uleb128 .LEHE601-.LEHB601
 15415 108f C704     		.uleb128 .L1574-.LFB1373
 15416 1091 00       		.uleb128 0
 15417 1092 B804     		.uleb128 .LEHB602-.LFB1373
 15418 1094 05       		.uleb128 .LEHE602-.LEHB602
 15419 1095 00       		.uleb128 0
 15420 1096 00       		.uleb128 0
 15421 1097 D204     		.uleb128 .LEHB603-.LFB1373
 15422 1099 05       		.uleb128 .LEHE603-.LEHB603
 15423 109a 00       		.uleb128 0
 15424 109b 00       		.uleb128 0
 15425 109c EA04     		.uleb128 .LEHB604-.LFB1373
 15426 109e 05       		.uleb128 .LEHE604-.LEHB604
 15427 109f 00       		.uleb128 0
 15428 10a0 00       		.uleb128 0
 15429 10a1 F904     		.uleb128 .LEHB605-.LFB1373
 15430 10a3 2D       		.uleb128 .LEHE605-.LEHB605
 15431 10a4 C704     		.uleb128 .L1574-.LFB1373
 15432 10a6 00       		.uleb128 0
 15433 10a7 B005     		.uleb128 .LEHB606-.LFB1373
 15434 10a9 4E       		.uleb128 .LEHE606-.LEHB606
 15435 10aa 8306     		.uleb128 .L1571-.LFB1373
 15436 10ac 00       		.uleb128 0
 15437 10ad 8E06     		.uleb128 .LEHB607-.LFB1373
 15438 10af 05       		.uleb128 .LEHE607-.LEHB607
 15439 10b0 00       		.uleb128 0
 15440 10b1 00       		.uleb128 0
 15441              	.LLSDACSE1373:
 15442 10b2 03       		.byte	0x3
 15443 10b3 00       		.byte	0
 15444 10b4 02       		.byte	0x2
 15445 10b5 7D       		.byte	0x7d
 15446 10b6 01       		.byte	0x1
 15447 10b7 7D       		.byte	0x7d
 15448 10b8 00       		.byte	0
 15449 10b9 7D       		.byte	0x7d
 15450 10ba 0000     		.align 4
 15451 10bc 00000000 		.long	0
 15452              	
 15453 10c0 00000000 		.long	DW.ref._ZTISt9exception-.
 15454 10c4 00000000 		.long	DW.ref._ZTIN8UnitTest15AssertExceptionE-.
 15455              	.LLSDATT1373:
 15456              		.text
 15458 7cf3 0F1F0066 		.p2align 4,,15
 15458      2E0F1F84 
 15458      00000000 
 15458      00
 15460              	_ZN8UnitTest11ExecuteTestIN12_GLOBAL__N_159TestRunnerFixtureTestRunnerRunsTestsThatPassPredicateHel
 15461              	.LFB1426:
 15462              		.cfi_startproc
 15463              		.cfi_personality 0x9b,DW.ref.__gxx_personality_v0
 15464              		.cfi_lsda 0x1b,.LLSDA1426
 15465 7d00 4156     		pushq	%r14
 15466              		.cfi_def_cfa_offset 16
 15467              		.cfi_offset 14, -16
 15468 7d02 4155     		pushq	%r13
 15469              		.cfi_def_cfa_offset 24
 15470              		.cfi_offset 13, -24
 15471 7d04 4154     		pushq	%r12
 15472              		.cfi_def_cfa_offset 32
 15473              		.cfi_offset 12, -32
 15474 7d06 55       		pushq	%rbp
 15475              		.cfi_def_cfa_offset 40
 15476              		.cfi_offset 6, -40
 15477 7d07 53       		pushq	%rbx
 15478              		.cfi_def_cfa_offset 48
 15479              		.cfi_offset 3, -48
 15480 7d08 4889F3   		movq	%rsi, %rbx
 15481 7d0b 4881EC50 		subq	$1872, %rsp
 15481      070000
 15482              		.cfi_def_cfa_offset 1920
 15483 7d12 48893C24 		movq	%rdi, (%rsp)
 15484 7d16 48897424 		movq	%rsi, 8(%rsp)
 15484      08
 15485 7d1b 64488B04 		movq	%fs:40, %rax
 15485      25280000 
 15485      00
 15486 7d24 48898424 		movq	%rax, 1864(%rsp)
 15486      48070000 
 15487 7d2c 31C0     		xorl	%eax, %eax
 15488              	.LEHB608:
 15489 7d2e E8000000 		call	_ZN8UnitTest11CurrentTest7DetailsEv@PLT
 15489      00
 15490              	.LEHE608:
 15491 7d33 488DBC24 		leaq	736(%rsp), %rdi
 15491      E0020000 
 15492 7d3b 488918   		movq	%rbx, (%rax)
 15493              	.LEHB609:
 15494 7d3e E8000000 		call	_ZN8UnitTest16SignalTranslatorC1Ev@PLT
 15494      00
 15495              	.LEHE609:
 15496 7d43 488B3D00 		movq	_ZN8UnitTest16SignalTranslator12s_jumpTargetE(%rip), %rdi
 15496      000000
 15497 7d4a BE010000 		movl	$1, %esi
 15497      00
 15498 7d4f E8000000 		call	__sigsetjmp@PLT
 15498      00
 15499 7d54 85C0     		testl	%eax, %eax
 15500 7d56 7428     		je	.L1601
 15501 7d58 BF080000 		movl	$8, %edi
 15501      00
 15502 7d5d E8000000 		call	__cxa_allocate_exception@PLT
 15502      00
 15503 7d62 488D0D00 		leaq	.LC3(%rip), %rcx
 15503      000000
 15504 7d69 488D3500 		leaq	_ZTIPKc(%rip), %rsi
 15504      000000
 15505 7d70 31D2     		xorl	%edx, %edx
 15506 7d72 4889C7   		movq	%rax, %rdi
 15507 7d75 488908   		movq	%rcx, (%rax)
 15508              	.LEHB610:
 15509 7d78 E8000000 		call	__cxa_throw@PLT
 15509      00
 15510 7d7d 0F1F00   		.p2align 4,,10
 15511              		.p2align 3
 15512              	.L1601:
 15513 7d80 488DBC24 		leaq	192(%rsp), %rdi
 15513      C0000000 
 15514 7d88 488D0D00 		leaq	.LC24(%rip), %rcx
 15514      000000
 15515 7d8f 488D1500 		leaq	.LC38(%rip), %rdx
 15515      000000
 15516 7d96 488D3500 		leaq	.LC47(%rip), %rsi
 15516      000000
 15517 7d9d 4531C0   		xorl	%r8d, %r8d
 15518 7da0 E8000000 		call	_ZN8UnitTest4TestC1EPKcS2_S2_i@PLT
 15518      00
 15519              	.LEHE610:
 15520 7da5 488B2C24 		movq	(%rsp), %rbp
 15521 7da9 488DB424 		leaq	192(%rsp), %rsi
 15521      C0000000 
 15522 7db1 488D9D48 		leaq	2120(%rbp), %rbx
 15522      080000
 15523 7db8 4889DF   		movq	%rbx, %rdi
 15524              	.LEHB611:
 15525 7dbb E8000000 		call	_ZN8UnitTest8TestList3AddEPNS_4TestE@PLT
 15525      00
 15526 7dc0 488DBC24 		leaq	256(%rsp), %rdi
 15526      00010000 
 15527 7dc8 488D0D00 		leaq	.LC24(%rip), %rcx
 15527      000000
 15528 7dcf 488D1500 		leaq	.LC38(%rip), %rdx
 15528      000000
 15529 7dd6 488D3500 		leaq	.LC72(%rip), %rsi
 15529      000000
 15530 7ddd 4531C0   		xorl	%r8d, %r8d
 15531 7de0 E8000000 		call	_ZN8UnitTest4TestC1EPKcS2_S2_i@PLT
 15531      00
 15532              	.LEHE611:
 15533 7de5 488DB424 		leaq	256(%rsp), %rsi
 15533      00010000 
 15534 7ded 4889DF   		movq	%rbx, %rdi
 15535              	.LEHB612:
 15536 7df0 E8000000 		call	_ZN8UnitTest8TestList3AddEPNS_4TestE@PLT
 15536      00
 15537 7df5 E8000000 		call	_ZN8UnitTest11CurrentTest7ResultsEv@PLT
 15537      00
 15538 7dfa 4C8B30   		movq	(%rax), %r14
 15539 7dfd E8000000 		call	_ZN8UnitTest11CurrentTest7DetailsEv@PLT
 15539      00
 15540 7e02 4889DF   		movq	%rbx, %rdi
 15541 7e05 4C8B28   		movq	(%rax), %r13
 15542 7e08 E8000000 		call	_ZNK8UnitTest8TestList7GetHeadEv@PLT
 15542      00
 15543 7e0d 4885C0   		testq	%rax, %rax
 15544 7e10 4889C3   		movq	%rax, %rbx
 15545 7e13 745B     		je	.L1602
 15546 7e15 4C8D2500 		leaq	.LC47(%rip), %r12
 15546      000000
 15547 7e1c EB0B     		jmp	.L1604
 15548 7e1e 6690     		.p2align 4,,10
 15549              		.p2align 3
 15550              	.L1605:
 15551 7e20 488B5B28 		movq	40(%rbx), %rbx
 15552 7e24 4885DB   		testq	%rbx, %rbx
 15553 7e27 7447     		je	.L1602
 15554              	.L1604:
 15555 7e29 31D2     		xorl	%edx, %edx
 15556 7e2b 4889DE   		movq	%rbx, %rsi
 15557 7e2e 4889EF   		movq	%rbp, %rdi
 15558 7e31 E8000000 		call	_ZNK8UnitTest10TestRunner13IsTestInSuiteEPKNS_4TestEPKc@PLT
 15558      00
 15559 7e36 84C0     		testb	%al, %al
 15560 7e38 74E6     		je	.L1605
 15561 7e3a 488B7310 		movq	16(%rbx), %rsi
 15562 7e3e B9090000 		movl	$9, %ecx
 15562      00
 15563 7e43 4C89E7   		movq	%r12, %rdi
 15564 7e46 F3A6     		repz cmpsb
 15565 7e48 75D6     		jne	.L1605
 15566 7e4a 488B0424 		movq	(%rsp), %rax
 15567 7e4e 31C9     		xorl	%ecx, %ecx
 15568 7e50 4889DA   		movq	%rbx, %rdx
 15569 7e53 4889EF   		movq	%rbp, %rdi
 15570 7e56 488B7008 		movq	8(%rax), %rsi
 15571 7e5a E8000000 		call	_ZNK8UnitTest10TestRunner7RunTestEPNS_11TestResultsEPNS_4TestEi@PLT
 15571      00
 15572 7e5f 488B5B28 		movq	40(%rbx), %rbx
 15573 7e63 4885DB   		testq	%rbx, %rbx
 15574 7e66 75C1     		jne	.L1604
 15575 7e68 0F1F8400 		.p2align 4,,10
 15575      00000000 
 15576              		.p2align 3
 15577              	.L1602:
 15578 7e70 488B1C24 		movq	(%rsp), %rbx
 15579 7e74 4889DF   		movq	%rbx, %rdi
 15580 7e77 E8000000 		call	_ZNK8UnitTest10TestRunner6FinishEv@PLT
 15580      00
 15581 7e7c E8000000 		call	_ZN8UnitTest11CurrentTest7ResultsEv@PLT
 15581      00
 15582 7e81 4C8930   		movq	%r14, (%rax)
 15583 7e84 E8000000 		call	_ZN8UnitTest11CurrentTest7DetailsEv@PLT
 15583      00
 15584              	.LEHE612:
 15585 7e89 4C8928   		movq	%r13, (%rax)
 15586              	.LEHB613:
 15587 7e8c E8000000 		call	_ZN8UnitTest11CurrentTest7DetailsEv@PLT
 15587      00
 15588 7e91 488B30   		movq	(%rax), %rsi
 15589 7e94 488DBC24 		leaq	160(%rsp), %rdi
 15589      A0000000 
 15590 7e9c BA230100 		movl	$291, %edx
 15590      00
 15591 7ea1 E8000000 		call	_ZN8UnitTest11TestDetailsC1ERKS0_i@PLT
 15591      00
 15592 7ea6 4883C320 		addq	$32, %rbx
 15593 7eaa C744241C 		movl	$1, 28(%rsp)
 15593      01000000 
 15594 7eb2 E8000000 		call	_ZN8UnitTest11CurrentTest7ResultsEv@PLT
 15594      00
 15595 7eb7 488B38   		movq	(%rax), %rdi
 15596 7eba 488D8C24 		leaq	160(%rsp), %rcx
 15596      A0000000 
 15597 7ec2 488D7424 		leaq	28(%rsp), %rsi
 15597      1C
 15598 7ec7 4889DA   		movq	%rbx, %rdx
 15599 7eca E8000000 		call	_ZN8UnitTest10CheckEqualIiiEEvRNS_11TestResultsERKT_RKT0_RKNS_11TestDetailsE
 15599      00
 15600              	.LEHE613:
 15601              	.L1608:
 15602              	.LEHB614:
 15603 7ecf E8000000 		call	_ZN8UnitTest11CurrentTest7DetailsEv@PLT
 15603      00
 15604 7ed4 488B30   		movq	(%rax), %rsi
 15605 7ed7 488D7C24 		leaq	96(%rsp), %rdi
 15605      60
 15606 7edc BA240100 		movl	$292, %edx
 15606      00
 15607 7ee1 E8000000 		call	_ZN8UnitTest11TestDetailsC1ERKS0_i@PLT
 15607      00
 15608 7ee6 488B1C24 		movq	(%rsp), %rbx
 15609 7eea 4881C324 		addq	$292, %rbx
 15609      010000
 15610 7ef1 E8000000 		call	_ZN8UnitTest11CurrentTest7ResultsEv@PLT
 15610      00
 15611 7ef6 488B38   		movq	(%rax), %rdi
 15612 7ef9 488D4C24 		leaq	96(%rsp), %rcx
 15612      60
 15613 7efe 488D3500 		leaq	.LC47(%rip), %rsi
 15613      000000
 15614 7f05 4889DA   		movq	%rbx, %rdx
 15615 7f08 E8000000 		call	_ZN8UnitTest10CheckEqualERNS_11TestResultsEPKcPcRKNS_11TestDetailsE@PLT
 15615      00
 15616              	.LEHE614:
 15617              	.L1612:
 15618 7f0d 488DBC24 		leaq	256(%rsp), %rdi
 15618      00010000 
 15619              	.LEHB615:
 15620 7f15 E8000000 		call	_ZN8UnitTest4TestD1Ev@PLT
 15620      00
 15621              	.LEHE615:
 15622 7f1a 488DBC24 		leaq	192(%rsp), %rdi
 15622      C0000000 
 15623              	.LEHB616:
 15624 7f22 E8000000 		call	_ZN8UnitTest4TestD1Ev@PLT
 15624      00
 15625              	.LEHE616:
 15626 7f27 488DBC24 		leaq	736(%rsp), %rdi
 15626      E0020000 
 15627              	.LEHB617:
 15628 7f2f E8000000 		call	_ZN8UnitTest16SignalTranslatorD1Ev@PLT
 15628      00
 15629              	.LEHE617:
 15630              	.L1599:
 15631 7f34 488B8424 		movq	1864(%rsp), %rax
 15631      48070000 
 15632 7f3c 64483304 		xorq	%fs:40, %rax
 15632      25280000 
 15632      00
 15633 7f45 0F85C000 		jne	.L1643
 15633      0000
 15634 7f4b 4881C450 		addq	$1872, %rsp
 15634      070000
 15635              		.cfi_remember_state
 15636              		.cfi_def_cfa_offset 48
 15637 7f52 5B       		popq	%rbx
 15638              		.cfi_def_cfa_offset 40
 15639 7f53 5D       		popq	%rbp
 15640              		.cfi_def_cfa_offset 32
 15641 7f54 415C     		popq	%r12
 15642              		.cfi_def_cfa_offset 24
 15643 7f56 415D     		popq	%r13
 15644              		.cfi_def_cfa_offset 16
 15645 7f58 415E     		popq	%r14
 15646              		.cfi_def_cfa_offset 8
 15647 7f5a C3       		ret
 15648              	.L1628:
 15649              		.cfi_restore_state
 15650 7f5b 4889C3   		movq	%rax, %rbx
 15651 7f5e 4889D5   		movq	%rdx, %rbp
 15652              	.L1615:
 15653 7f61 488DBC24 		leaq	736(%rsp), %rdi
 15653      E0020000 
 15654 7f69 E8000000 		call	_ZN8UnitTest16SignalTranslatorD1Ev@PLT
 15654      00
 15655 7f6e 4889DF   		movq	%rbx, %rdi
 15656 7f71 4889EA   		movq	%rbp, %rdx
 15657              	.L1616:
 15658 7f74 4883FA01 		cmpq	$1, %rdx
 15659 7f78 0F84C101 		je	.L1618
 15659      0000
 15660 7f7e 4883FA02 		cmpq	$2, %rdx
 15661 7f82 0F858F01 		jne	.L1644
 15661      0000
 15662 7f88 E8000000 		call	__cxa_begin_catch@PLT
 15662      00
 15663 7f8d 488DBC24 		leaq	320(%rsp), %rdi
 15663      40010000 
 15664 7f95 4889C3   		movq	%rax, %rbx
 15665              	.LEHB618:
 15666 7f98 E8000000 		call	_ZN8UnitTest15MemoryOutStreamC1Ev
 15666      00
 15667              	.LEHE618:
 15668 7f9d 488DBC24 		leaq	320(%rsp), %rdi
 15668      40010000 
 15669 7fa5 488D3500 		leaq	.LC11(%rip), %rsi
 15669      000000
 15670 7fac BA150000 		movl	$21, %edx
 15670      00
 15671              	.LEHB619:
 15672 7fb1 E8000000 		call	_ZSt16__ostream_insertIcSt11char_traitsIcEERSt13basic_ostreamIT_T0_ES6_PKS3_l@PLT
 15672      00
 15673 7fb6 488B03   		movq	(%rbx), %rax
 15674 7fb9 4889DF   		movq	%rbx, %rdi
 15675 7fbc FF5010   		call	*16(%rax)
 15676 7fbf 488DBC24 		leaq	320(%rsp), %rdi
 15676      40010000 
 15677 7fc7 4889C6   		movq	%rax, %rsi
 15678 7fca E8000000 		call	_ZStlsISt11char_traitsIcEERSt13basic_ostreamIcT_ES5_PKc@PLT
 15678      00
 15679 7fcf E8000000 		call	_ZN8UnitTest11CurrentTest7ResultsEv@PLT
 15679      00
 15680 7fd4 488DBC24 		leaq	320(%rsp), %rdi
 15680      40010000 
 15681 7fdc 488B18   		movq	(%rax), %rbx
 15682 7fdf E8000000 		call	_ZNK8UnitTest15MemoryOutStream7GetTextEv@PLT
 15682      00
 15683 7fe4 488B7424 		movq	8(%rsp), %rsi
 15683      08
 15684 7fe9 4889C2   		movq	%rax, %rdx
 15685 7fec 4889DF   		movq	%rbx, %rdi
 15686 7fef E8000000 		call	_ZN8UnitTest11TestResults13OnTestFailureERKNS_11TestDetailsEPKc@PLT
 15686      00
 15687              	.LEHE619:
 15688 7ff4 488DBC24 		leaq	320(%rsp), %rdi
 15688      40010000 
 15689              	.LEHB620:
 15690 7ffc E8000000 		call	_ZN8UnitTest15MemoryOutStreamD1Ev
 15690      00
 15691              	.LEHE620:
 15692              	.L1641:
 15693 8001 E8000000 		call	__cxa_end_catch@PLT
 15693      00
 15694 8006 E929FFFF 		jmp	.L1599
 15694      FF
 15695              	.L1643:
 15696 800b E8000000 		call	__stack_chk_fail@PLT
 15696      00
 15697              	.L1627:
 15698 8010 4889C7   		movq	%rax, %rdi
 15699 8013 E95CFFFF 		jmp	.L1616
 15699      FF
 15700              	.L1633:
 15701 8018 4889C3   		movq	%rax, %rbx
 15702 801b 4889D5   		movq	%rdx, %rbp
 15703              	.L1614:
 15704 801e 488DBC24 		leaq	192(%rsp), %rdi
 15704      C0000000 
 15705 8026 E8000000 		call	_ZN8UnitTest4TestD1Ev@PLT
 15705      00
 15706 802b E931FFFF 		jmp	.L1615
 15706      FF
 15707              	.L1634:
 15708 8030 4889C3   		movq	%rax, %rbx
 15709 8033 4889D5   		movq	%rdx, %rbp
 15710              	.L1610:
 15711 8036 488DBC24 		leaq	256(%rsp), %rdi
 15711      00010000 
 15712 803e E8000000 		call	_ZN8UnitTest4TestD1Ev@PLT
 15712      00
 15713 8043 EBD9     		jmp	.L1614
 15714              	.L1636:
 15715 8045 4889C7   		movq	%rax, %rdi
 15716 8048 E8000000 		call	__cxa_begin_catch@PLT
 15716      00
 15717              	.LEHB621:
 15718 804d E8000000 		call	_ZN8UnitTest11CurrentTest7ResultsEv@PLT
 15718      00
 15719 8052 488B18   		movq	(%rax), %rbx
 15720 8055 E8000000 		call	_ZN8UnitTest11CurrentTest7DetailsEv@PLT
 15720      00
 15721 805a 488B30   		movq	(%rax), %rsi
 15722 805d 488D7C24 		leaq	64(%rsp), %rdi
 15722      40
 15723 8062 BA240100 		movl	$292, %edx
 15723      00
 15724 8067 E8000000 		call	_ZN8UnitTest11TestDetailsC1ERKS0_i@PLT
 15724      00
 15725 806c 488D7424 		leaq	64(%rsp), %rsi
 15725      40
 15726 8071 488D1500 		leaq	.LC51(%rip), %rdx
 15726      000000
 15727 8078 4889DF   		movq	%rbx, %rdi
 15728 807b E8000000 		call	_ZN8UnitTest11TestResults13OnTestFailureERKNS_11TestDetailsEPKc@PLT
 15728      00
 15729              	.LEHE621:
 15730              	.LEHB622:
 15731 8080 E8000000 		call	__cxa_end_catch@PLT
 15731      00
 15732              	.LEHE622:
 15733 8085 E983FEFF 		jmp	.L1612
 15733      FF
 15734              	.L1638:
 15735 808a 4889C7   		movq	%rax, %rdi
 15736 808d E8000000 		call	__cxa_begin_catch@PLT
 15736      00
 15737              	.LEHB623:
 15738 8092 E8000000 		call	_ZN8UnitTest11CurrentTest7ResultsEv@PLT
 15738      00
 15739 8097 488B18   		movq	(%rax), %rbx
 15740 809a E8000000 		call	_ZN8UnitTest11CurrentTest7DetailsEv@PLT
 15740      00
 15741 809f 488B30   		movq	(%rax), %rsi
 15742 80a2 488DBC24 		leaq	128(%rsp), %rdi
 15742      80000000 
 15743 80aa BA230100 		movl	$291, %edx
 15743      00
 15744 80af E8000000 		call	_ZN8UnitTest11TestDetailsC1ERKS0_i@PLT
 15744      00
 15745 80b4 488DB424 		leaq	128(%rsp), %rsi
 15745      80000000 
 15746 80bc 488D1500 		leaq	.LC50(%rip), %rdx
 15746      000000
 15747 80c3 4889DF   		movq	%rbx, %rdi
 15748 80c6 E8000000 		call	_ZN8UnitTest11TestResults13OnTestFailureERKNS_11TestDetailsEPKc@PLT
 15748      00
 15749              	.LEHE623:
 15750              	.LEHB624:
 15751 80cb E8000000 		call	__cxa_end_catch@PLT
 15751      00
 15752              	.LEHE624:
 15753 80d0 E9FAFDFF 		jmp	.L1608
 15753      FF
 15754              	.L1635:
 15755 80d5 4889C3   		movq	%rax, %rbx
 15756 80d8 4889D5   		movq	%rdx, %rbp
 15757 80db E8000000 		call	__cxa_end_catch@PLT
 15757      00
 15758 80e0 E951FFFF 		jmp	.L1610
 15758      FF
 15759              	.L1637:
 15760 80e5 4889C3   		movq	%rax, %rbx
 15761 80e8 4889D5   		movq	%rdx, %rbp
 15762 80eb E8000000 		call	__cxa_end_catch@PLT
 15762      00
 15763 80f0 E941FFFF 		jmp	.L1610
 15763      FF
 15764              	.L1631:
 15765 80f5 488DBC24 		leaq	320(%rsp), %rdi
 15765      40010000 
 15766 80fd 4889C3   		movq	%rax, %rbx
 15767 8100 E8000000 		call	_ZN8UnitTest15MemoryOutStreamD1Ev
 15767      00
 15768              	.L1624:
 15769 8105 E8000000 		call	__cxa_end_catch@PLT
 15769      00
 15770 810a 4889DF   		movq	%rbx, %rdi
 15771              	.LEHB625:
 15772 810d E8000000 		call	_Unwind_Resume@PLT
 15772      00
 15773              	.LEHE625:
 15774              	.L1630:
 15775              	.L1642:
 15776 8112 4889C3   		movq	%rax, %rbx
 15777 8115 EBEE     		jmp	.L1624
 15778              	.L1644:
 15779 8117 E8000000 		call	__cxa_begin_catch@PLT
 15779      00
 15780              	.LEHB626:
 15781 811c E8000000 		call	_ZN8UnitTest11CurrentTest7ResultsEv@PLT
 15781      00
 15782 8121 488B7424 		movq	8(%rsp), %rsi
 15782      08
 15783 8126 488B38   		movq	(%rax), %rdi
 15784 8129 488D1500 		leaq	.LC12(%rip), %rdx
 15784      000000
 15785 8130 E8000000 		call	_ZN8UnitTest11TestResults13OnTestFailureERKNS_11TestDetailsEPKc@PLT
 15785      00
 15786              	.LEHE626:
 15787              	.LEHB627:
 15788 8135 E8000000 		call	__cxa_end_catch@PLT
 15788      00
 15789              	.LEHE627:
 15790 813a E9F5FDFF 		jmp	.L1599
 15790      FF
 15791              	.L1618:
 15792 813f E8000000 		call	__cxa_begin_catch@PLT
 15792      00
 15793 8144 4889C3   		movq	%rax, %rbx
 15794              	.LEHB628:
 15795 8147 E8000000 		call	_ZN8UnitTest11CurrentTest7ResultsEv@PLT
 15795      00
 15796 814c 488B28   		movq	(%rax), %rbp
 15797 814f 488B03   		movq	(%rbx), %rax
 15798 8152 4889DF   		movq	%rbx, %rdi
 15799 8155 FF5010   		call	*16(%rax)
 15800 8158 4889DF   		movq	%rbx, %rdi
 15801 815b 4989C4   		movq	%rax, %r12
 15802 815e E8000000 		call	_ZNK8UnitTest15AssertException10LineNumberEv@PLT
 15802      00
 15803 8163 4889DF   		movq	%rbx, %rdi
 15804 8166 4189C5   		movl	%eax, %r13d
 15805 8169 E8000000 		call	_ZNK8UnitTest15AssertException8FilenameEv@PLT
 15805      00
 15806 816e 488B5424 		movq	8(%rsp), %rdx
 15806      08
 15807 8173 488D7C24 		leaq	32(%rsp), %rdi
 15807      20
 15808 8178 4589E8   		movl	%r13d, %r8d
 15809 817b 4889C1   		movq	%rax, %rcx
 15810 817e 488B7208 		movq	8(%rdx), %rsi
 15811 8182 488B12   		movq	(%rdx), %rdx
 15812 8185 E8000000 		call	_ZN8UnitTest11TestDetailsC1EPKcS2_S2_i@PLT
 15812      00
 15813 818a 488D7424 		leaq	32(%rsp), %rsi
 15813      20
 15814 818f 4C89E2   		movq	%r12, %rdx
 15815 8192 4889EF   		movq	%rbp, %rdi
 15816 8195 E8000000 		call	_ZN8UnitTest11TestResults13OnTestFailureERKNS_11TestDetailsEPKc@PLT
 15816      00
 15817              	.LEHE628:
 15818 819a E962FEFF 		jmp	.L1641
 15818      FF
 15819              	.L1632:
 15820 819f 4889C3   		movq	%rax, %rbx
 15821 81a2 E8000000 		call	__cxa_end_catch@PLT
 15821      00
 15822 81a7 4889DF   		movq	%rbx, %rdi
 15823              	.LEHB629:
 15824 81aa E8000000 		call	_Unwind_Resume@PLT
 15824      00
 15825              	.LEHE629:
 15826              	.L1629:
 15827 81af E95EFFFF 		jmp	.L1642
 15827      FF
 15828              		.cfi_endproc
 15829              	.LFE1426:
 15830              		.section	.gcc_except_table
 15831              		.align 4
 15832              	.LLSDA1426:
 15833 10c8 FF       		.byte	0xff
 15834 10c9 9B       		.byte	0x9b
 15835 10ca 9401     		.uleb128 .LLSDATT1426-.LLSDATTD1426
 15836              	.LLSDATTD1426:
 15837 10cc 01       		.byte	0x1
 15838 10cd 7E       		.uleb128 .LLSDACSE1426-.LLSDACSB1426
 15839              	.LLSDACSB1426:
 15840 10ce 2E       		.uleb128 .LEHB608-.LFB1426
 15841 10cf 05       		.uleb128 .LEHE608-.LEHB608
 15842 10d0 00       		.uleb128 0
 15843 10d1 00       		.uleb128 0
 15844 10d2 3E       		.uleb128 .LEHB609-.LFB1426
 15845 10d3 05       		.uleb128 .LEHE609-.LEHB609
 15846 10d4 9006     		.uleb128 .L1627-.LFB1426
 15847 10d6 05       		.uleb128 0x5
 15848 10d7 78       		.uleb128 .LEHB610-.LFB1426
 15849 10d8 2D       		.uleb128 .LEHE610-.LEHB610
 15850 10d9 DB04     		.uleb128 .L1628-.LFB1426
 15851 10db 07       		.uleb128 0x7
 15852 10dc BB01     		.uleb128 .LEHB611-.LFB1426
 15853 10de 2A       		.uleb128 .LEHE611-.LEHB611
 15854 10df 9806     		.uleb128 .L1633-.LFB1426
 15855 10e1 07       		.uleb128 0x7
 15856 10e2 F001     		.uleb128 .LEHB612-.LFB1426
 15857 10e4 9901     		.uleb128 .LEHE612-.LEHB612
 15858 10e6 B006     		.uleb128 .L1634-.LFB1426
 15859 10e8 07       		.uleb128 0x7
 15860 10e9 8C03     		.uleb128 .LEHB613-.LFB1426
 15861 10eb 43       		.uleb128 .LEHE613-.LEHB613
 15862 10ec 8A07     		.uleb128 .L1638-.LFB1426
 15863 10ee 01       		.uleb128 0x1
 15864 10ef CF03     		.uleb128 .LEHB614-.LFB1426
 15865 10f1 3E       		.uleb128 .LEHE614-.LEHB614
 15866 10f2 C506     		.uleb128 .L1636-.LFB1426
 15867 10f4 01       		.uleb128 0x1
 15868 10f5 9504     		.uleb128 .LEHB615-.LFB1426
 15869 10f7 05       		.uleb128 .LEHE615-.LEHB615
 15870 10f8 9806     		.uleb128 .L1633-.LFB1426
 15871 10fa 07       		.uleb128 0x7
 15872 10fb A204     		.uleb128 .LEHB616-.LFB1426
 15873 10fd 05       		.uleb128 .LEHE616-.LEHB616
 15874 10fe DB04     		.uleb128 .L1628-.LFB1426
 15875 1100 07       		.uleb128 0x7
 15876 1101 AF04     		.uleb128 .LEHB617-.LFB1426
 15877 1103 05       		.uleb128 .LEHE617-.LEHB617
 15878 1104 9006     		.uleb128 .L1627-.LFB1426
 15879 1106 05       		.uleb128 0x5
 15880 1107 9805     		.uleb128 .LEHB618-.LFB1426
 15881 1109 05       		.uleb128 .LEHE618-.LEHB618
 15882 110a 9208     		.uleb128 .L1630-.LFB1426
 15883 110c 00       		.uleb128 0
 15884 110d B105     		.uleb128 .LEHB619-.LFB1426
 15885 110f 43       		.uleb128 .LEHE619-.LEHB619
 15886 1110 F507     		.uleb128 .L1631-.LFB1426
 15887 1112 00       		.uleb128 0
 15888 1113 FC05     		.uleb128 .LEHB620-.LFB1426
 15889 1115 05       		.uleb128 .LEHE620-.LEHB620
 15890 1116 9208     		.uleb128 .L1630-.LFB1426
 15891 1118 00       		.uleb128 0
 15892 1119 CD06     		.uleb128 .LEHB621-.LFB1426
 15893 111b 33       		.uleb128 .LEHE621-.LEHB621
 15894 111c D507     		.uleb128 .L1635-.LFB1426
 15895 111e 07       		.uleb128 0x7
 15896 111f 8007     		.uleb128 .LEHB622-.LFB1426
 15897 1121 05       		.uleb128 .LEHE622-.LEHB622
 15898 1122 B006     		.uleb128 .L1634-.LFB1426
 15899 1124 07       		.uleb128 0x7
 15900 1125 9207     		.uleb128 .LEHB623-.LFB1426
 15901 1127 39       		.uleb128 .LEHE623-.LEHB623
 15902 1128 E507     		.uleb128 .L1637-.LFB1426
 15903 112a 07       		.uleb128 0x7
 15904 112b CB07     		.uleb128 .LEHB624-.LFB1426
 15905 112d 05       		.uleb128 .LEHE624-.LEHB624
 15906 112e B006     		.uleb128 .L1634-.LFB1426
 15907 1130 07       		.uleb128 0x7
 15908 1131 8D08     		.uleb128 .LEHB625-.LFB1426
 15909 1133 05       		.uleb128 .LEHE625-.LEHB625
 15910 1134 00       		.uleb128 0
 15911 1135 00       		.uleb128 0
 15912 1136 9C08     		.uleb128 .LEHB626-.LFB1426
 15913 1138 19       		.uleb128 .LEHE626-.LEHB626
 15914 1139 9F09     		.uleb128 .L1632-.LFB1426
 15915 113b 00       		.uleb128 0
 15916 113c B508     		.uleb128 .LEHB627-.LFB1426
 15917 113e 05       		.uleb128 .LEHE627-.LEHB627
 15918 113f 00       		.uleb128 0
 15919 1140 00       		.uleb128 0
 15920 1141 C708     		.uleb128 .LEHB628-.LFB1426
 15921 1143 53       		.uleb128 .LEHE628-.LEHB628
 15922 1144 AF09     		.uleb128 .L1629-.LFB1426
 15923 1146 00       		.uleb128 0
 15924 1147 AA09     		.uleb128 .LEHB629-.LFB1426
 15925 1149 05       		.uleb128 .LEHE629-.LEHB629
 15926 114a 00       		.uleb128 0
 15927 114b 00       		.uleb128 0
 15928              	.LLSDACSE1426:
 15929 114c 03       		.byte	0x3
 15930 114d 00       		.byte	0
 15931 114e 02       		.byte	0x2
 15932 114f 7D       		.byte	0x7d
 15933 1150 01       		.byte	0x1
 15934 1151 7D       		.byte	0x7d
 15935 1152 00       		.byte	0
 15936 1153 7D       		.byte	0x7d
 15937              		.align 4
 15938 1154 00000000 		.long	0
 15939              	
 15940 1158 00000000 		.long	DW.ref._ZTISt9exception-.
 15941 115c 00000000 		.long	DW.ref._ZTIN8UnitTest15AssertExceptionE-.
 15942              	.LLSDATT1426:
 15943              		.text
 15945              		.align 2
 15946 81b4 6690662E 		.p2align 4,,15
 15946      0F1F8400 
 15946      00000000 
 15948              	_ZNK12_GLOBAL__N_157TestTestRunnerFixtureTestRunnerRunsTestsThatPassPredicate7RunImplEv:
 15949              	.LFB1362:
 15950              		.cfi_startproc
 15951              		.cfi_personality 0x9b,DW.ref.__gxx_personality_v0
 15952              		.cfi_lsda 0x1b,.LLSDA1362
 15953 81c0 4156     		pushq	%r14
 15954              		.cfi_def_cfa_offset 16
 15955              		.cfi_offset 14, -16
 15956 81c2 4155     		pushq	%r13
 15957              		.cfi_def_cfa_offset 24
 15958              		.cfi_offset 13, -24
 15959 81c4 4989FD   		movq	%rdi, %r13
 15960 81c7 4154     		pushq	%r12
 15961              		.cfi_def_cfa_offset 32
 15962              		.cfi_offset 12, -32
 15963 81c9 55       		pushq	%rbp
 15964              		.cfi_def_cfa_offset 40
 15965              		.cfi_offset 6, -40
 15966 81ca 488D6F08 		leaq	8(%rdi), %rbp
 15967 81ce 53       		pushq	%rbx
 15968              		.cfi_def_cfa_offset 48
 15969              		.cfi_offset 3, -48
 15970 81cf 4881EC90 		subq	$2192, %rsp
 15970      080000
 15971              		.cfi_def_cfa_offset 2240
 15972 81d6 488D5C24 		leaq	32(%rsp), %rbx
 15972      20
 15973 81db 64488B04 		movq	%fs:40, %rax
 15973      25280000 
 15973      00
 15974 81e4 48898424 		movq	%rax, 2184(%rsp)
 15974      88080000 
 15975 81ec 31C0     		xorl	%eax, %eax
 15976 81ee 488D7318 		leaq	24(%rbx), %rsi
 15977 81f2 4889DF   		movq	%rbx, %rdi
 15978              	.LEHB630:
 15979 81f5 E8000000 		call	_ZN8UnitTest10TestRunnerC1ERNS_12TestReporterE@PLT
 15979      00
 15980              	.LEHE630:
 15981 81fa 4C8D2500 		leaq	16+_ZTV17RecordingReporter(%rip), %r12
 15981      000000
 15982 8201 488DBB48 		leaq	2120(%rbx), %rdi
 15982      080000
 15983 8208 C7442440 		movl	$0, 64(%rsp)
 15983      00000000 
 15984 8210 C7842444 		movl	$0, 580(%rsp)
 15984      02000000 
 15984      000000
 15985 821b C7842448 		movl	$0, 840(%rsp)
 15985      03000000 
 15985      000000
 15986 8226 4C896424 		movq	%r12, 56(%rsp)
 15986      38
 15987 822b C784244C 		movl	$0, 1612(%rsp)
 15987      06000000 
 15987      000000
 15988 8236 48C78424 		movq	$0, 2128(%rsp)
 15988      50080000 
 15988      00000000 
 15989 8242 48C78424 		movq	$0, 2136(%rsp)
 15989      58080000 
 15989      00000000 
 15990 824e C7842460 		movl	$0, 2144(%rsp)
 15990      08000000 
 15990      000000
 15991 8259 C6442444 		movb	$0, 68(%rsp)
 15991      00
 15992 825e C6842444 		movb	$0, 324(%rsp)
 15992      01000000 
 15993 8266 C6842448 		movb	$0, 584(%rsp)
 15993      02000000 
 15994 826e C684244C 		movb	$0, 844(%rsp)
 15994      03000000 
 15995 8276 C684244C 		movb	$0, 1100(%rsp)
 15995      04000000 
 15996 827e C684244C 		movb	$0, 1356(%rsp)
 15996      05000000 
 15997 8286 C6842450 		movb	$0, 1616(%rsp)
 15997      06000000 
 15998 828e C6842450 		movb	$0, 1872(%rsp)
 15998      07000000 
 15999              	.LEHB631:
 16000 8296 E8000000 		call	_ZN8UnitTest8TestListC1Ev@PLT
 16000      00
 16001              	.LEHE631:
 16002 829b 4889EE   		movq	%rbp, %rsi
 16003 829e 4889DF   		movq	%rbx, %rdi
 16004 82a1 4889AC24 		movq	%rbp, 2168(%rsp)
 16004      78080000 
 16005              	.LEHB632:
 16006 82a9 E852FAFF 		call	_ZN8UnitTest11ExecuteTestIN12_GLOBAL__N_159TestRunnerFixtureTestRunnerRunsTestsThatPassPredic
 16006      FF
 16007              	.LEHE632:
 16008 82ae 488D7B18 		leaq	24(%rbx), %rdi
 16009 82b2 4C896424 		movq	%r12, 56(%rsp)
 16009      38
 16010              	.LEHB633:
 16011 82b7 E8000000 		call	_ZN8UnitTest12TestReporterD2Ev@PLT
 16011      00
 16012              	.LEHE633:
 16013 82bc 4889DF   		movq	%rbx, %rdi
 16014              	.LEHB634:
 16015 82bf E8000000 		call	_ZN8UnitTest10TestRunnerD1Ev@PLT
 16015      00
 16016              	.LEHE634:
 16017              	.L1645:
 16018 82c4 488B8424 		movq	2184(%rsp), %rax
 16018      88080000 
 16019 82cc 64483304 		xorq	%fs:40, %rax
 16019      25280000 
 16019      00
 16020 82d5 7510     		jne	.L1693
 16021 82d7 4881C490 		addq	$2192, %rsp
 16021      080000
 16022              		.cfi_remember_state
 16023              		.cfi_def_cfa_offset 48
 16024 82de 5B       		popq	%rbx
 16025              		.cfi_def_cfa_offset 40
 16026 82df 5D       		popq	%rbp
 16027              		.cfi_def_cfa_offset 32
 16028 82e0 415C     		popq	%r12
 16029              		.cfi_def_cfa_offset 24
 16030 82e2 415D     		popq	%r13
 16031              		.cfi_def_cfa_offset 16
 16032 82e4 415E     		popq	%r14
 16033              		.cfi_def_cfa_offset 8
 16034 82e6 C3       		ret
 16035              	.L1693:
 16036              		.cfi_restore_state
 16037 82e7 E8000000 		call	__stack_chk_fail@PLT
 16037      00
 16038              	.L1665:
 16039 82ec 4889C7   		movq	%rax, %rdi
 16040              	.L1651:
 16041 82ef 4883FA01 		cmpq	$1, %rdx
 16042 82f3 0F846F01 		je	.L1653
 16042      0000
 16043 82f9 4883FA02 		cmpq	$2, %rdx
 16044 82fd 0F853101 		jne	.L1694
 16044      0000
 16045              	.L1654:
 16046 8303 E8000000 		call	__cxa_begin_catch@PLT
 16046      00
 16047 8308 4889DF   		movq	%rbx, %rdi
 16048 830b 4989C4   		movq	%rax, %r12
 16049              	.LEHB635:
 16050 830e E8000000 		call	_ZN8UnitTest15MemoryOutStreamC1Ev
 16050      00
 16051              	.LEHE635:
 16052 8313 488D3500 		leaq	.LC11(%rip), %rsi
 16052      000000
 16053 831a BA150000 		movl	$21, %edx
 16053      00
 16054 831f 4889DF   		movq	%rbx, %rdi
 16055              	.LEHB636:
 16056 8322 E8000000 		call	_ZSt16__ostream_insertIcSt11char_traitsIcEERSt13basic_ostreamIT_T0_ES6_PKS3_l@PLT
 16056      00
 16057 8327 498B0424 		movq	(%r12), %rax
 16058 832b 4C89E7   		movq	%r12, %rdi
 16059 832e FF5010   		call	*16(%rax)
 16060 8331 4889DF   		movq	%rbx, %rdi
 16061 8334 4889C6   		movq	%rax, %rsi
 16062 8337 E8000000 		call	_ZStlsISt11char_traitsIcEERSt13basic_ostreamIcT_ES5_PKc@PLT
 16062      00
 16063 833c E8000000 		call	_ZN8UnitTest11CurrentTest7ResultsEv@PLT
 16063      00
 16064 8341 4889DF   		movq	%rbx, %rdi
 16065 8344 4C8B20   		movq	(%rax), %r12
 16066 8347 E8000000 		call	_ZNK8UnitTest15MemoryOutStream7GetTextEv@PLT
 16066      00
 16067 834c 4889C2   		movq	%rax, %rdx
 16068 834f 4889EE   		movq	%rbp, %rsi
 16069 8352 4C89E7   		movq	%r12, %rdi
 16070 8355 E8000000 		call	_ZN8UnitTest11TestResults13OnTestFailureERKNS_11TestDetailsEPKc@PLT
 16070      00
 16071              	.LEHE636:
 16072 835a 4889DF   		movq	%rbx, %rdi
 16073              	.LEHB637:
 16074 835d E8000000 		call	_ZN8UnitTest15MemoryOutStreamD1Ev
 16074      00
 16075              	.LEHE637:
 16076              	.L1692:
 16077 8362 E8000000 		call	__cxa_end_catch@PLT
 16077      00
 16078 8367 E958FFFF 		jmp	.L1645
 16078      FF
 16079              	.L1672:
 16080 836c 4989C4   		movq	%rax, %r12
 16081 836f 4989D6   		movq	%rdx, %r14
 16082 8372 4889DF   		movq	%rbx, %rdi
 16083 8375 E8000000 		call	_ZN8UnitTest10TestRunnerD1Ev@PLT
 16083      00
 16084 837a 4C89E7   		movq	%r12, %rdi
 16085 837d 4C89F2   		movq	%r14, %rdx
 16086 8380 E96AFFFF 		jmp	.L1651
 16086      FF
 16087              	.L1666:
 16088 8385 4989C4   		movq	%rax, %r12
 16089 8388 4989D6   		movq	%rdx, %r14
 16090 838b 4889DF   		movq	%rbx, %rdi
 16091 838e E8000000 		call	_ZN12_GLOBAL__N_111FixtureBaseD2Ev
 16091      00
 16092 8393 4C89E7   		movq	%r12, %rdi
 16093 8396 4C89F2   		movq	%r14, %rdx
 16094 8399 E951FFFF 		jmp	.L1651
 16094      FF
 16095              	.L1671:
 16096 839e 4989C4   		movq	%rax, %r12
 16097 83a1 4989D6   		movq	%rdx, %r14
 16098 83a4 4889DF   		movq	%rbx, %rdi
 16099 83a7 E8000000 		call	_ZN12_GLOBAL__N_111FixtureBaseD2Ev
 16099      00
 16100 83ac 4C89E7   		movq	%r12, %rdi
 16101 83af 4C89F2   		movq	%r14, %rdx
 16102              	.L1648:
 16103 83b2 4883FA01 		cmpq	$1, %rdx
 16104 83b6 0F84AC00 		je	.L1653
 16104      0000
 16105 83bc 4883FA02 		cmpq	$2, %rdx
 16106 83c0 0F843DFF 		je	.L1654
 16106      FFFF
 16107 83c6 E8000000 		call	__cxa_begin_catch@PLT
 16107      00
 16108              	.LEHB638:
 16109 83cb E8000000 		call	_ZN8UnitTest11CurrentTest7ResultsEv@PLT
 16109      00
 16110 83d0 4889E3   		movq	%rsp, %rbx
 16111 83d3 BA1A0100 		movl	$282, %edx
 16111      00
 16112 83d8 4889EE   		movq	%rbp, %rsi
 16113 83db 4889DF   		movq	%rbx, %rdi
 16114 83de 4C8B20   		movq	(%rax), %r12
 16115 83e1 E8000000 		call	_ZN8UnitTest11TestDetailsC1ERKS0_i@PLT
 16115      00
 16116 83e6 488D1500 		leaq	.LC14(%rip), %rdx
 16116      000000
 16117 83ed 4889DE   		movq	%rbx, %rsi
 16118 83f0 4C89E7   		movq	%r12, %rdi
 16119 83f3 E8000000 		call	_ZN8UnitTest11TestResults13OnTestFailureERKNS_11TestDetailsEPKc@PLT
 16119      00
 16120              	.LEHE638:
 16121              	.L1655:
 16122              	.LEHB639:
 16123 83f8 E8000000 		call	__cxa_end_catch@PLT
 16123      00
 16124              	.LEHE639:
 16125 83fd E9C2FEFF 		jmp	.L1645
 16125      FF
 16126              	.L1673:
 16127 8402 4889C7   		movq	%rax, %rdi
 16128 8405 EBAB     		jmp	.L1648
 16129              	.L1670:
 16130 8407 4889C3   		movq	%rax, %rbx
 16131 840a E8000000 		call	__cxa_end_catch@PLT
 16131      00
 16132 840f 4889DF   		movq	%rbx, %rdi
 16133              	.LEHB640:
 16134 8412 E8000000 		call	_Unwind_Resume@PLT
 16134      00
 16135              	.LEHE640:
 16136              	.L1669:
 16137 8417 4889DF   		movq	%rbx, %rdi
 16138 841a 4889C5   		movq	%rax, %rbp
 16139 841d E8000000 		call	_ZN8UnitTest15MemoryOutStreamD1Ev
 16139      00
 16140              	.L1658:
 16141 8422 E8000000 		call	__cxa_end_catch@PLT
 16141      00
 16142 8427 4889EF   		movq	%rbp, %rdi
 16143              	.LEHB641:
 16144 842a E8000000 		call	_Unwind_Resume@PLT
 16144      00
 16145              	.LEHE641:
 16146              	.L1668:
 16147 842f 4889C5   		movq	%rax, %rbp
 16148 8432 EBEE     		jmp	.L1658
 16149              	.L1694:
 16150 8434 E8000000 		call	__cxa_begin_catch@PLT
 16150      00
 16151              	.LEHB642:
 16152 8439 E8000000 		call	_ZN8UnitTest11CurrentTest7ResultsEv@PLT
 16152      00
 16153 843e 4889E3   		movq	%rsp, %rbx
 16154 8441 BA1A0100 		movl	$282, %edx
 16154      00
 16155 8446 4889EE   		movq	%rbp, %rsi
 16156 8449 4889DF   		movq	%rbx, %rdi
 16157 844c 4C8B20   		movq	(%rax), %r12
 16158 844f E8000000 		call	_ZN8UnitTest11TestDetailsC1ERKS0_i@PLT
 16158      00
 16159 8454 488D1500 		leaq	.LC13(%rip), %rdx
 16159      000000
 16160 845b 4889DE   		movq	%rbx, %rsi
 16161 845e 4C89E7   		movq	%r12, %rdi
 16162 8461 E8000000 		call	_ZN8UnitTest11TestResults13OnTestFailureERKNS_11TestDetailsEPKc@PLT
 16162      00
 16163              	.LEHE642:
 16164 8466 EB90     		jmp	.L1655
 16165              	.L1653:
 16166 8468 E8000000 		call	__cxa_begin_catch@PLT
 16166      00
 16167 846d 4889C3   		movq	%rax, %rbx
 16168              	.LEHB643:
 16169 8470 E8000000 		call	_ZN8UnitTest11CurrentTest7ResultsEv@PLT
 16169      00
 16170 8475 488B28   		movq	(%rax), %rbp
 16171 8478 488B03   		movq	(%rbx), %rax
 16172 847b 4889DF   		movq	%rbx, %rdi
 16173 847e FF5010   		call	*16(%rax)
 16174 8481 4889DF   		movq	%rbx, %rdi
 16175 8484 4989C4   		movq	%rax, %r12
 16176 8487 E8000000 		call	_ZNK8UnitTest15AssertException10LineNumberEv@PLT
 16176      00
 16177 848c 4889DF   		movq	%rbx, %rdi
 16178 848f 4189C6   		movl	%eax, %r14d
 16179 8492 E8000000 		call	_ZNK8UnitTest15AssertException8FilenameEv@PLT
 16179      00
 16180 8497 498B5508 		movq	8(%r13), %rdx
 16181 849b 498B7510 		movq	16(%r13), %rsi
 16182 849f 4889E3   		movq	%rsp, %rbx
 16183 84a2 4589F0   		movl	%r14d, %r8d
 16184 84a5 4889C1   		movq	%rax, %rcx
 16185 84a8 4889DF   		movq	%rbx, %rdi
 16186 84ab E8000000 		call	_ZN8UnitTest11TestDetailsC1EPKcS2_S2_i@PLT
 16186      00
 16187 84b0 4C89E2   		movq	%r12, %rdx
 16188 84b3 4889DE   		movq	%rbx, %rsi
 16189 84b6 4889EF   		movq	%rbp, %rdi
 16190 84b9 E8000000 		call	_ZN8UnitTest11TestResults13OnTestFailureERKNS_11TestDetailsEPKc@PLT
 16190      00
 16191              	.LEHE643:
 16192 84be E99FFEFF 		jmp	.L1692
 16192      FF
 16193              	.L1667:
 16194 84c3 4889C3   		movq	%rax, %rbx
 16195 84c6 E8000000 		call	__cxa_end_catch@PLT
 16195      00
 16196 84cb 4889DF   		movq	%rbx, %rdi
 16197              	.LEHB644:
 16198 84ce E8000000 		call	_Unwind_Resume@PLT
 16198      00
 16199              	.LEHE644:
 16200              		.cfi_endproc
 16201              	.LFE1362:
 16202              		.section	.gcc_except_table
 16203              		.align 4
 16204              	.LLSDA1362:
 16205 1160 FF       		.byte	0xff
 16206 1161 9B       		.byte	0x9b
 16207 1162 6D       		.uleb128 .LLSDATT1362-.LLSDATTD1362
 16208              	.LLSDATTD1362:
 16209 1163 01       		.byte	0x1
 16210 1164 55       		.uleb128 .LLSDACSE1362-.LLSDACSB1362
 16211              	.LLSDACSB1362:
 16212 1165 35       		.uleb128 .LEHB630-.LFB1362
 16213 1166 05       		.uleb128 .LEHE630-.LEHB630
 16214 1167 C204     		.uleb128 .L1673-.LFB1362
 16215 1169 05       		.uleb128 0x5
 16216 116a D601     		.uleb128 .LEHB631-.LFB1362
 16217 116c 05       		.uleb128 .LEHE631-.LEHB631
 16218 116d DE03     		.uleb128 .L1671-.LFB1362
 16219 116f 07       		.uleb128 0x7
 16220 1170 E901     		.uleb128 .LEHB632-.LFB1362
 16221 1172 05       		.uleb128 .LEHE632-.LEHB632
 16222 1173 C503     		.uleb128 .L1666-.LFB1362
 16223 1175 07       		.uleb128 0x7
 16224 1176 F701     		.uleb128 .LEHB633-.LFB1362
 16225 1178 05       		.uleb128 .LEHE633-.LEHB633
 16226 1179 AC03     		.uleb128 .L1672-.LFB1362
 16227 117b 07       		.uleb128 0x7
 16228 117c FF01     		.uleb128 .LEHB634-.LFB1362
 16229 117e 05       		.uleb128 .LEHE634-.LEHB634
 16230 117f AC02     		.uleb128 .L1665-.LFB1362
 16231 1181 05       		.uleb128 0x5
 16232 1182 CE02     		.uleb128 .LEHB635-.LFB1362
 16233 1184 05       		.uleb128 .LEHE635-.LEHB635
 16234 1185 EF04     		.uleb128 .L1668-.LFB1362
 16235 1187 00       		.uleb128 0
 16236 1188 E202     		.uleb128 .LEHB636-.LFB1362
 16237 118a 38       		.uleb128 .LEHE636-.LEHB636
 16238 118b D704     		.uleb128 .L1669-.LFB1362
 16239 118d 00       		.uleb128 0
 16240 118e 9D03     		.uleb128 .LEHB637-.LFB1362
 16241 1190 05       		.uleb128 .LEHE637-.LEHB637
 16242 1191 EF04     		.uleb128 .L1668-.LFB1362
 16243 1193 00       		.uleb128 0
 16244 1194 8B04     		.uleb128 .LEHB638-.LFB1362
 16245 1196 2D       		.uleb128 .LEHE638-.LEHB638
 16246 1197 C704     		.uleb128 .L1670-.LFB1362
 16247 1199 00       		.uleb128 0
 16248 119a B804     		.uleb128 .LEHB639-.LFB1362
 16249 119c 05       		.uleb128 .LEHE639-.LEHB639
 16250 119d 00       		.uleb128 0
 16251 119e 00       		.uleb128 0
 16252 119f D204     		.uleb128 .LEHB640-.LFB1362
 16253 11a1 05       		.uleb128 .LEHE640-.LEHB640
 16254 11a2 00       		.uleb128 0
 16255 11a3 00       		.uleb128 0
 16256 11a4 EA04     		.uleb128 .LEHB641-.LFB1362
 16257 11a6 05       		.uleb128 .LEHE641-.LEHB641
 16258 11a7 00       		.uleb128 0
 16259 11a8 00       		.uleb128 0
 16260 11a9 F904     		.uleb128 .LEHB642-.LFB1362
 16261 11ab 2D       		.uleb128 .LEHE642-.LEHB642
 16262 11ac C704     		.uleb128 .L1670-.LFB1362
 16263 11ae 00       		.uleb128 0
 16264 11af B005     		.uleb128 .LEHB643-.LFB1362
 16265 11b1 4E       		.uleb128 .LEHE643-.LEHB643
 16266 11b2 8306     		.uleb128 .L1667-.LFB1362
 16267 11b4 00       		.uleb128 0
 16268 11b5 8E06     		.uleb128 .LEHB644-.LFB1362
 16269 11b7 05       		.uleb128 .LEHE644-.LEHB644
 16270 11b8 00       		.uleb128 0
 16271 11b9 00       		.uleb128 0
 16272              	.LLSDACSE1362:
 16273 11ba 03       		.byte	0x3
 16274 11bb 00       		.byte	0
 16275 11bc 02       		.byte	0x2
 16276 11bd 7D       		.byte	0x7d
 16277 11be 01       		.byte	0x1
 16278 11bf 7D       		.byte	0x7d
 16279 11c0 00       		.byte	0
 16280 11c1 7D       		.byte	0x7d
 16281 11c2 0000     		.align 4
 16282 11c4 00000000 		.long	0
 16283              	
 16284 11c8 00000000 		.long	DW.ref._ZTISt9exception-.
 16285 11cc 00000000 		.long	DW.ref._ZTIN8UnitTest15AssertExceptionE-.
 16286              	.LLSDATT1362:
 16287              		.text
 16289              		.section	.rodata.str1.1
 16290              	.LC74:
 16291 018f 70617373 		.string	"pass"
 16291      00
 16292              	.LC75:
 16293 0194 6661696C 		.string	"fail"
 16293      00
 16294              	.LC76:
 16295 0199 70726564 		.string	"predicate(&pass)"
 16295      69636174 
 16295      65282670 
 16295      61737329 
 16295      00
 16296              	.LC77:
 16297 01aa 21707265 		.string	"!predicate(&fail)"
 16297      64696361 
 16297      74652826 
 16297      6661696C 
 16297      2900
 16298              		.section	.rodata.str1.8
 16299 0ab7 00       		.align 8
 16300              	.LC78:
 16301 0ab8 556E6861 		.string	"Unhandled exception in CHECK(predicate(&pass))"
 16301      6E646C65 
 16301      64206578 
 16301      63657074 
 16301      696F6E20 
 16302 0ae7 00       		.align 8
 16303              	.LC79:
 16304 0ae8 556E6861 		.string	"Unhandled exception in CHECK(!predicate(&fail))"
 16304      6E646C65 
 16304      64206578 
 16304      63657074 
 16304      696F6E20 
 16305              		.text
 16306 84d3 90       		.align 2
 16307 84d4 6690662E 		.p2align 4,,15
 16307      0F1F8400 
 16307      00000000 
 16309              	_ZNK12_GLOBAL__N_137TestTestMockPredicateBehavesCorrectly7RunImplEv:
 16310              	.LFB1355:
 16311              		.cfi_startproc
 16312              		.cfi_personality 0x9b,DW.ref.__gxx_personality_v0
 16313              		.cfi_lsda 0x1b,.LLSDA1355
 16314 84e0 4156     		pushq	%r14
 16315              		.cfi_def_cfa_offset 16
 16316              		.cfi_offset 14, -16
 16317 84e2 4155     		pushq	%r13
 16318              		.cfi_def_cfa_offset 24
 16319              		.cfi_offset 13, -24
 16320 84e4 488D0D00 		leaq	.LC24(%rip), %rcx
 16320      000000
 16321 84eb 4154     		pushq	%r12
 16322              		.cfi_def_cfa_offset 32
 16323              		.cfi_offset 12, -32
 16324 84ed 55       		pushq	%rbp
 16325              		.cfi_def_cfa_offset 40
 16326              		.cfi_offset 6, -40
 16327 84ee 488D1500 		leaq	.LC38(%rip), %rdx
 16327      000000
 16328 84f5 53       		pushq	%rbx
 16329              		.cfi_def_cfa_offset 48
 16330              		.cfi_offset 3, -48
 16331 84f6 488D3500 		leaq	.LC74(%rip), %rsi
 16331      000000
 16332 84fd 4531C0   		xorl	%r8d, %r8d
 16333 8500 4881ECA0 		subq	$160, %rsp
 16333      000000
 16334              		.cfi_def_cfa_offset 208
 16335 8507 488D6C24 		leaq	32(%rsp), %rbp
 16335      20
 16336 850c 4C8D6424 		leaq	96(%rsp), %r12
 16336      60
 16337 8511 64488B04 		movq	%fs:40, %rax
 16337      25280000 
 16337      00
 16338 851a 48898424 		movq	%rax, 152(%rsp)
 16338      98000000 
 16339 8522 31C0     		xorl	%eax, %eax
 16340 8524 4889EF   		movq	%rbp, %rdi
 16341              	.LEHB645:
 16342 8527 E8000000 		call	_ZN8UnitTest4TestC1EPKcS2_S2_i@PLT
 16342      00
 16343              	.LEHE645:
 16344 852c 488D0D00 		leaq	.LC24(%rip), %rcx
 16344      000000
 16345 8533 488D1500 		leaq	.LC38(%rip), %rdx
 16345      000000
 16346 853a 488D3500 		leaq	.LC75(%rip), %rsi
 16346      000000
 16347 8541 4531C0   		xorl	%r8d, %r8d
 16348 8544 4C89E7   		movq	%r12, %rdi
 16349              	.LEHB646:
 16350 8547 E8000000 		call	_ZN8UnitTest4TestC1EPKcS2_S2_i@PLT
 16350      00
 16351              	.LEHE646:
 16352 854c 488D1D00 		leaq	.LC74(%rip), %rbx
 16352      000000
 16353 8553 488B7424 		movq	48(%rsp), %rsi
 16353      30
 16354 8558 B9050000 		movl	$5, %ecx
 16354      00
 16355 855d 4889DF   		movq	%rbx, %rdi
 16356 8560 F3A6     		repz cmpsb
 16357 8562 757C     		jne	.L1717
 16358              	.L1697:
 16359 8564 488B7424 		movq	112(%rsp), %rsi
 16359      70
 16360 8569 B9050000 		movl	$5, %ecx
 16360      00
 16361 856e 4889DF   		movq	%rbx, %rdi
 16362 8571 F3A6     		repz cmpsb
 16363 8573 7532     		jne	.L1699
 16364              	.LEHB647:
 16365 8575 E8000000 		call	_ZN8UnitTest11CurrentTest7ResultsEv@PLT
 16365      00
 16366 857a 488B18   		movq	(%rax), %rbx
 16367 857d E8000000 		call	_ZN8UnitTest11CurrentTest7DetailsEv@PLT
 16367      00
 16368 8582 488B30   		movq	(%rax), %rsi
 16369 8585 4989E5   		movq	%rsp, %r13
 16370 8588 BA170100 		movl	$279, %edx
 16370      00
 16371 858d 4C89EF   		movq	%r13, %rdi
 16372 8590 E8000000 		call	_ZN8UnitTest11TestDetailsC1ERKS0_i@PLT
 16372      00
 16373 8595 488D1500 		leaq	.LC77(%rip), %rdx
 16373      000000
 16374 859c 4C89EE   		movq	%r13, %rsi
 16375 859f 4889DF   		movq	%rbx, %rdi
 16376 85a2 E8000000 		call	_ZN8UnitTest11TestResults13OnTestFailureERKNS_11TestDetailsEPKc@PLT
 16376      00
 16377              	.LEHE647:
 16378              	.L1699:
 16379 85a7 4C89E7   		movq	%r12, %rdi
 16380              	.LEHB648:
 16381 85aa E8000000 		call	_ZN8UnitTest4TestD1Ev@PLT
 16381      00
 16382              	.LEHE648:
 16383 85af 4889EF   		movq	%rbp, %rdi
 16384              	.LEHB649:
 16385 85b2 E8000000 		call	_ZN8UnitTest4TestD1Ev@PLT
 16385      00
 16386              	.LEHE649:
 16387 85b7 488B8424 		movq	152(%rsp), %rax
 16387      98000000 
 16388 85bf 64483304 		xorq	%fs:40, %rax
 16388      25280000 
 16388      00
 16389 85c8 754D     		jne	.L1718
 16390 85ca 4881C4A0 		addq	$160, %rsp
 16390      000000
 16391              		.cfi_remember_state
 16392              		.cfi_def_cfa_offset 48
 16393 85d1 5B       		popq	%rbx
 16394              		.cfi_def_cfa_offset 40
 16395 85d2 5D       		popq	%rbp
 16396              		.cfi_def_cfa_offset 32
 16397 85d3 415C     		popq	%r12
 16398              		.cfi_def_cfa_offset 24
 16399 85d5 415D     		popq	%r13
 16400              		.cfi_def_cfa_offset 16
 16401 85d7 415E     		popq	%r14
 16402              		.cfi_def_cfa_offset 8
 16403 85d9 C3       		ret
 16404 85da 660F1F44 		.p2align 4,,10
 16404      0000
 16405              		.p2align 3
 16406              	.L1717:
 16407              		.cfi_restore_state
 16408              	.LEHB650:
 16409 85e0 E8000000 		call	_ZN8UnitTest11CurrentTest7ResultsEv@PLT
 16409      00
 16410 85e5 4C8B30   		movq	(%rax), %r14
 16411 85e8 E8000000 		call	_ZN8UnitTest11CurrentTest7DetailsEv@PLT
 16411      00
 16412 85ed 488B30   		movq	(%rax), %rsi
 16413 85f0 4989E5   		movq	%rsp, %r13
 16414 85f3 BA160100 		movl	$278, %edx
 16414      00
 16415 85f8 4C89EF   		movq	%r13, %rdi
 16416 85fb E8000000 		call	_ZN8UnitTest11TestDetailsC1ERKS0_i@PLT
 16416      00
 16417 8600 488D1500 		leaq	.LC76(%rip), %rdx
 16417      000000
 16418 8607 4C89EE   		movq	%r13, %rsi
 16419 860a 4C89F7   		movq	%r14, %rdi
 16420 860d E8000000 		call	_ZN8UnitTest11TestResults13OnTestFailureERKNS_11TestDetailsEPKc@PLT
 16420      00
 16421              	.LEHE650:
 16422 8612 E94DFFFF 		jmp	.L1697
 16422      FF
 16423              	.L1718:
 16424 8617 E8000000 		call	__stack_chk_fail@PLT
 16424      00
 16425              	.L1709:
 16426 861c 4889C3   		movq	%rax, %rbx
 16427              	.L1707:
 16428 861f 4889EF   		movq	%rbp, %rdi
 16429 8622 E8000000 		call	_ZN8UnitTest4TestD1Ev@PLT
 16429      00
 16430 8627 4889DF   		movq	%rbx, %rdi
 16431              	.LEHB651:
 16432 862a E8000000 		call	_Unwind_Resume@PLT
 16432      00
 16433              	.LEHE651:
 16434              	.L1713:
 16435 862f 4889C7   		movq	%rax, %rdi
 16436 8632 E8000000 		call	__cxa_begin_catch@PLT
 16436      00
 16437              	.LEHB652:
 16438 8637 E8000000 		call	_ZN8UnitTest11CurrentTest7ResultsEv@PLT
 16438      00
 16439 863c 488B18   		movq	(%rax), %rbx
 16440 863f E8000000 		call	_ZN8UnitTest11CurrentTest7DetailsEv@PLT
 16440      00
 16441 8644 488B30   		movq	(%rax), %rsi
 16442 8647 4989E5   		movq	%rsp, %r13
 16443 864a BA170100 		movl	$279, %edx
 16443      00
 16444 864f 4C89EF   		movq	%r13, %rdi
 16445 8652 E8000000 		call	_ZN8UnitTest11TestDetailsC1ERKS0_i@PLT
 16445      00
 16446 8657 488D1500 		leaq	.LC79(%rip), %rdx
 16446      000000
 16447 865e 4C89EE   		movq	%r13, %rsi
 16448 8661 4889DF   		movq	%rbx, %rdi
 16449 8664 E8000000 		call	_ZN8UnitTest11TestResults13OnTestFailureERKNS_11TestDetailsEPKc@PLT
 16449      00
 16450              	.LEHE652:
 16451              	.LEHB653:
 16452 8669 E8000000 		call	__cxa_end_catch@PLT
 16452      00
 16453              	.LEHE653:
 16454 866e E934FFFF 		jmp	.L1699
 16454      FF
 16455              	.L1710:
 16456 8673 4889C7   		movq	%rax, %rdi
 16457 8676 E8000000 		call	__cxa_begin_catch@PLT
 16457      00
 16458              	.LEHB654:
 16459 867b E8000000 		call	_ZN8UnitTest11CurrentTest7ResultsEv@PLT
 16459      00
 16460 8680 4C8B30   		movq	(%rax), %r14
 16461 8683 E8000000 		call	_ZN8UnitTest11CurrentTest7DetailsEv@PLT
 16461      00
 16462 8688 488B30   		movq	(%rax), %rsi
 16463 868b 4989E5   		movq	%rsp, %r13
 16464 868e BA160100 		movl	$278, %edx
 16464      00
 16465 8693 4C89EF   		movq	%r13, %rdi
 16466 8696 E8000000 		call	_ZN8UnitTest11TestDetailsC1ERKS0_i@PLT
 16466      00
 16467 869b 488D1500 		leaq	.LC78(%rip), %rdx
 16467      000000
 16468 86a2 4C89EE   		movq	%r13, %rsi
 16469 86a5 4C89F7   		movq	%r14, %rdi
 16470 86a8 E8000000 		call	_ZN8UnitTest11TestResults13OnTestFailureERKNS_11TestDetailsEPKc@PLT
 16470      00
 16471              	.LEHE654:
 16472              	.LEHB655:
 16473 86ad E8000000 		call	__cxa_end_catch@PLT
 16473      00
 16474              	.LEHE655:
 16475 86b2 E9ADFEFF 		jmp	.L1697
 16475      FF
 16476              	.L1711:
 16477 86b7 4889C3   		movq	%rax, %rbx
 16478              	.L1703:
 16479 86ba 4C89E7   		movq	%r12, %rdi
 16480 86bd E8000000 		call	_ZN8UnitTest4TestD1Ev@PLT
 16480      00
 16481 86c2 E958FFFF 		jmp	.L1707
 16481      FF
 16482              	.L1714:
 16483 86c7 4889C3   		movq	%rax, %rbx
 16484 86ca E8000000 		call	__cxa_end_catch@PLT
 16484      00
 16485 86cf EBE9     		jmp	.L1703
 16486              	.L1712:
 16487 86d1 4889C3   		movq	%rax, %rbx
 16488 86d4 E8000000 		call	__cxa_end_catch@PLT
 16488      00
 16489 86d9 EBDF     		jmp	.L1703
 16490              		.cfi_endproc
 16491              	.LFE1355:
 16492              		.section	.gcc_except_table
 16493              		.align 4
 16494              	.LLSDA1355:
 16495 11d0 FF       		.byte	0xff
 16496 11d1 9B       		.byte	0x9b
 16497 11d2 45       		.uleb128 .LLSDATT1355-.LLSDATTD1355
 16498              	.LLSDATTD1355:
 16499 11d3 01       		.byte	0x1
 16500 11d4 3D       		.uleb128 .LLSDACSE1355-.LLSDACSB1355
 16501              	.LLSDACSB1355:
 16502 11d5 47       		.uleb128 .LEHB645-.LFB1355
 16503 11d6 05       		.uleb128 .LEHE645-.LEHB645
 16504 11d7 00       		.uleb128 0
 16505 11d8 00       		.uleb128 0
 16506 11d9 67       		.uleb128 .LEHB646-.LFB1355
 16507 11da 05       		.uleb128 .LEHE646-.LEHB646
 16508 11db BC02     		.uleb128 .L1709-.LFB1355
 16509 11dd 00       		.uleb128 0
 16510 11de 9501     		.uleb128 .LEHB647-.LFB1355
 16511 11e0 32       		.uleb128 .LEHE647-.LEHB647
 16512 11e1 CF02     		.uleb128 .L1713-.LFB1355
 16513 11e3 01       		.uleb128 0x1
 16514 11e4 CA01     		.uleb128 .LEHB648-.LFB1355
 16515 11e6 05       		.uleb128 .LEHE648-.LEHB648
 16516 11e7 BC02     		.uleb128 .L1709-.LFB1355
 16517 11e9 00       		.uleb128 0
 16518 11ea D201     		.uleb128 .LEHB649-.LFB1355
 16519 11ec 05       		.uleb128 .LEHE649-.LEHB649
 16520 11ed 00       		.uleb128 0
 16521 11ee 00       		.uleb128 0
 16522 11ef 8002     		.uleb128 .LEHB650-.LFB1355
 16523 11f1 32       		.uleb128 .LEHE650-.LEHB650
 16524 11f2 9303     		.uleb128 .L1710-.LFB1355
 16525 11f4 01       		.uleb128 0x1
 16526 11f5 CA02     		.uleb128 .LEHB651-.LFB1355
 16527 11f7 05       		.uleb128 .LEHE651-.LEHB651
 16528 11f8 00       		.uleb128 0
 16529 11f9 00       		.uleb128 0
 16530 11fa D702     		.uleb128 .LEHB652-.LFB1355
 16531 11fc 32       		.uleb128 .LEHE652-.LEHB652
 16532 11fd E703     		.uleb128 .L1714-.LFB1355
 16533 11ff 00       		.uleb128 0
 16534 1200 8903     		.uleb128 .LEHB653-.LFB1355
 16535 1202 05       		.uleb128 .LEHE653-.LEHB653
 16536 1203 D703     		.uleb128 .L1711-.LFB1355
 16537 1205 00       		.uleb128 0
 16538 1206 9B03     		.uleb128 .LEHB654-.LFB1355
 16539 1208 32       		.uleb128 .LEHE654-.LEHB654
 16540 1209 F103     		.uleb128 .L1712-.LFB1355
 16541 120b 00       		.uleb128 0
 16542 120c CD03     		.uleb128 .LEHB655-.LFB1355
 16543 120e 05       		.uleb128 .LEHE655-.LEHB655
 16544 120f D703     		.uleb128 .L1711-.LFB1355
 16545 1211 00       		.uleb128 0
 16546              	.LLSDACSE1355:
 16547 1212 01       		.byte	0x1
 16548 1213 00       		.byte	0
 16549              		.align 4
 16550 1214 00000000 		.long	0
 16551              	
 16552              	.LLSDATT1355:
 16553              		.text
 16555              		.section	.text.unlikely
 16556              		.align 2
 16558              	_ZN12_GLOBAL__N_116TestSuiteFixtureD2Ev:
 16559              	.LFB1325:
 16560              		.cfi_startproc
 16561              		.cfi_personality 0x9b,DW.ref.__gxx_personality_v0
 16562              		.cfi_lsda 0x1b,.LLSDA1325
 16563 003a 4155     		pushq	%r13
 16564              		.cfi_def_cfa_offset 16
 16565              		.cfi_offset 13, -16
 16566 003c 4154     		pushq	%r12
 16567              		.cfi_def_cfa_offset 24
 16568              		.cfi_offset 12, -24
 16569 003e 55       		pushq	%rbp
 16570              		.cfi_def_cfa_offset 32
 16571              		.cfi_offset 6, -32
 16572 003f 53       		pushq	%rbx
 16573              		.cfi_def_cfa_offset 40
 16574              		.cfi_offset 3, -40
 16575 0040 4889FB   		movq	%rdi, %rbx
 16576 0043 488DBFB8 		leaq	2232(%rdi), %rdi
 16576      080000
 16577 004a 4C8DAB80 		leaq	2176(%rbx), %r13
 16577      080000
 16578 0051 4C8DA348 		leaq	2120(%rbx), %r12
 16578      080000
 16579 0058 4883EC08 		subq	$8, %rsp
 16580              		.cfi_def_cfa_offset 48
 16581              	.LEHB656:
 16582 005c E8000000 		call	_ZN8UnitTest4TestD1Ev@PLT
 16582      00
 16583              	.LEHE656:
 16584 0061 4C89EF   		movq	%r13, %rdi
 16585              	.LEHB657:
 16586 0064 E8000000 		call	_ZN8UnitTest4TestD1Ev@PLT
 16586      00
 16587              	.LEHE657:
 16588 0069 4C89E7   		movq	%r12, %rdi
 16589              	.LEHB658:
 16590 006c E8000000 		call	_ZN8UnitTest4TestD1Ev@PLT
 16590      00
 16591              	.LEHE658:
 16592 0071 488D0500 		leaq	16+_ZTV17RecordingReporter(%rip), %rax
 16592      000000
 16593 0078 488D7B18 		leaq	24(%rbx), %rdi
 16594 007c 48894318 		movq	%rax, 24(%rbx)
 16595              	.LEHB659:
 16596 0080 E8000000 		call	_ZN8UnitTest12TestReporterD2Ev@PLT
 16596      00
 16597              	.LEHE659:
 16598 0085 58       		popq	%rax
 16599              		.cfi_remember_state
 16600              		.cfi_def_cfa_offset 40
 16601 0086 4889DF   		movq	%rbx, %rdi
 16602 0089 5B       		popq	%rbx
 16603              		.cfi_def_cfa_offset 32
 16604 008a 5D       		popq	%rbp
 16605              		.cfi_def_cfa_offset 24
 16606 008b 415C     		popq	%r12
 16607              		.cfi_def_cfa_offset 16
 16608 008d 415D     		popq	%r13
 16609              		.cfi_def_cfa_offset 8
 16610              	.LEHB660:
 16611 008f E9000000 		jmp	_ZN8UnitTest10TestRunnerD1Ev@PLT
 16611      00
 16612              	.LEHE660:
 16613              	.L1727:
 16614              		.cfi_restore_state
 16615 0094 4889C5   		movq	%rax, %rbp
 16616 0097 4889DF   		movq	%rbx, %rdi
 16617 009a E8000000 		call	_ZN8UnitTest10TestRunnerD1Ev@PLT
 16617      00
 16618 009f 4889EF   		movq	%rbp, %rdi
 16619              	.LEHB661:
 16620 00a2 E8000000 		call	_Unwind_Resume@PLT
 16620      00
 16621              	.LEHE661:
 16622              	.L1724:
 16623 00a7 4C89EF   		movq	%r13, %rdi
 16624 00aa 4889C5   		movq	%rax, %rbp
 16625 00ad E8000000 		call	_ZN8UnitTest4TestD1Ev@PLT
 16625      00
 16626 00b2 EB03     		jmp	.L1722
 16627              	.L1725:
 16628 00b4 4889C5   		movq	%rax, %rbp
 16629              	.L1722:
 16630 00b7 4C89E7   		movq	%r12, %rdi
 16631 00ba E8000000 		call	_ZN8UnitTest4TestD1Ev@PLT
 16631      00
 16632 00bf EB03     		jmp	.L1723
 16633              	.L1726:
 16634 00c1 4889C5   		movq	%rax, %rbp
 16635              	.L1723:
 16636 00c4 4889DF   		movq	%rbx, %rdi
 16637 00c7 E834FFFF 		call	_ZN12_GLOBAL__N_111FixtureBaseD2Ev
 16637      FF
 16638 00cc 4889EF   		movq	%rbp, %rdi
 16639              	.LEHB662:
 16640 00cf E8000000 		call	_Unwind_Resume@PLT
 16640      00
 16641              	.LEHE662:
 16642              		.cfi_endproc
 16643              	.LFE1325:
 16644              		.section	.gcc_except_table
 16645              	.LLSDA1325:
 16646 1218 FF       		.byte	0xff
 16647 1219 FF       		.byte	0xff
 16648 121a 01       		.byte	0x1
 16649 121b 1E       		.uleb128 .LLSDACSE1325-.LLSDACSB1325
 16650              	.LLSDACSB1325:
 16651 121c 22       		.uleb128 .LEHB656-.LFB1325
 16652 121d 05       		.uleb128 .LEHE656-.LEHB656
 16653 121e 6D       		.uleb128 .L1724-.LFB1325
 16654 121f 00       		.uleb128 0
 16655 1220 2A       		.uleb128 .LEHB657-.LFB1325
 16656 1221 05       		.uleb128 .LEHE657-.LEHB657
 16657 1222 7A       		.uleb128 .L1725-.LFB1325
 16658 1223 00       		.uleb128 0
 16659 1224 32       		.uleb128 .LEHB658-.LFB1325
 16660 1225 05       		.uleb128 .LEHE658-.LEHB658
 16661 1226 8701     		.uleb128 .L1726-.LFB1325
 16662 1228 00       		.uleb128 0
 16663 1229 46       		.uleb128 .LEHB659-.LFB1325
 16664 122a 05       		.uleb128 .LEHE659-.LEHB659
 16665 122b 5A       		.uleb128 .L1727-.LFB1325
 16666 122c 00       		.uleb128 0
 16667 122d 55       		.uleb128 .LEHB660-.LFB1325
 16668 122e 05       		.uleb128 .LEHE660-.LEHB660
 16669 122f 00       		.uleb128 0
 16670 1230 00       		.uleb128 0
 16671 1231 68       		.uleb128 .LEHB661-.LFB1325
 16672 1232 05       		.uleb128 .LEHE661-.LEHB661
 16673 1233 00       		.uleb128 0
 16674 1234 00       		.uleb128 0
 16675 1235 9501     		.uleb128 .LEHB662-.LFB1325
 16676 1237 05       		.uleb128 .LEHE662-.LEHB662
 16677 1238 00       		.uleb128 0
 16678 1239 00       		.uleb128 0
 16679              	.LLSDACSE1325:
 16680              		.section	.text.unlikely
 16682              		.section	.rodata.str1.1
 16683              	.LC80:
 16684 01bc 54657374 		.string	"TestInDefaultSuite"
 16684      496E4465 
 16684      6661756C 
 16684      74537569 
 16684      746500
 16685              	.LC81:
 16686 01cf 5365636F 		.string	"SecondTestInDefaultSuite"
 16686      6E645465 
 16686      7374496E 
 16686      44656661 
 16686      756C7453 
 16687              		.section	.rodata.str1.8
 16688              		.align 8
 16689              	.LC82:
 16690 0b18 556E6861 		.string	"Unhandled exception while destroying fixture TestSuiteFixture"
 16690      6E646C65 
 16690      64206578 
 16690      63657074 
 16690      696F6E20 
 16691 0b56 0000     		.align 8
 16692              	.LC83:
 16693 0b58 556E6861 		.string	"Unhandled exception while constructing fixture TestSuiteFixture"
 16693      6E646C65 
 16693      64206578 
 16693      63657074 
 16693      696F6E20 
 16694              		.text
 16695 86db 90       		.align 2
 16696 86dc 0F1F4000 		.p2align 4,,15
 16698              	_ZNK12_GLOBAL__N_152TestTestSuiteFixtureTestRunnerRunsOnlySpecifiedSuite7RunImplEv:
 16699              	.LFB1343:
 16700              		.cfi_startproc
 16701              		.cfi_personality 0x9b,DW.ref.__gxx_personality_v0
 16702              		.cfi_lsda 0x1b,.LLSDA1343
 16703 86e0 4156     		pushq	%r14
 16704              		.cfi_def_cfa_offset 16
 16705              		.cfi_offset 14, -16
 16706 86e2 4155     		pushq	%r13
 16707              		.cfi_def_cfa_offset 24
 16708              		.cfi_offset 13, -24
 16709 86e4 4989FD   		movq	%rdi, %r13
 16710 86e7 4154     		pushq	%r12
 16711              		.cfi_def_cfa_offset 32
 16712              		.cfi_offset 12, -32
 16713 86e9 55       		pushq	%rbp
 16714              		.cfi_def_cfa_offset 40
 16715              		.cfi_offset 6, -40
 16716 86ea 488D6F08 		leaq	8(%rdi), %rbp
 16717 86ee 53       		pushq	%rbx
 16718              		.cfi_def_cfa_offset 48
 16719              		.cfi_offset 3, -48
 16720 86ef 4881EC30 		subq	$2352, %rsp
 16720      090000
 16721              		.cfi_def_cfa_offset 2400
 16722 86f6 488D5C24 		leaq	32(%rsp), %rbx
 16722      20
 16723 86fb 64488B04 		movq	%fs:40, %rax
 16723      25280000 
 16723      00
 16724 8704 48898424 		movq	%rax, 2344(%rsp)
 16724      28090000 
 16725 870c 31C0     		xorl	%eax, %eax
 16726 870e 488D7318 		leaq	24(%rbx), %rsi
 16727 8712 4889DF   		movq	%rbx, %rdi
 16728              	.LEHB663:
 16729 8715 E8000000 		call	_ZN8UnitTest10TestRunnerC1ERNS_12TestReporterE@PLT
 16729      00
 16730              	.LEHE663:
 16731 871a 4C8D2500 		leaq	16+_ZTV17RecordingReporter(%rip), %r12
 16731      000000
 16732 8721 488DBB48 		leaq	2120(%rbx), %rdi
 16732      080000
 16733 8728 488D0D00 		leaq	.LC24(%rip), %rcx
 16733      000000
 16734 872f 488D1500 		leaq	.LC38(%rip), %rdx
 16734      000000
 16735 8736 488D3500 		leaq	.LC80(%rip), %rsi
 16735      000000
 16736 873d 4531C0   		xorl	%r8d, %r8d
 16737 8740 4C896424 		movq	%r12, 56(%rsp)
 16737      38
 16738 8745 C7442440 		movl	$0, 64(%rsp)
 16738      00000000 
 16739 874d C7842444 		movl	$0, 580(%rsp)
 16739      02000000 
 16739      000000
 16740 8758 C7842448 		movl	$0, 840(%rsp)
 16740      03000000 
 16740      000000
 16741 8763 C784244C 		movl	$0, 1612(%rsp)
 16741      06000000 
 16741      000000
 16742 876e 48C78424 		movq	$0, 2128(%rsp)
 16742      50080000 
 16742      00000000 
 16743 877a 48C78424 		movq	$0, 2136(%rsp)
 16743      58080000 
 16743      00000000 
 16744 8786 C7842460 		movl	$0, 2144(%rsp)
 16744      08000000 
 16744      000000
 16745 8791 C6442444 		movb	$0, 68(%rsp)
 16745      00
 16746 8796 C6842444 		movb	$0, 324(%rsp)
 16746      01000000 
 16747 879e C6842448 		movb	$0, 584(%rsp)
 16747      02000000 
 16748 87a6 C684244C 		movb	$0, 844(%rsp)
 16748      03000000 
 16749 87ae C684244C 		movb	$0, 1100(%rsp)
 16749      04000000 
 16750 87b6 C684244C 		movb	$0, 1356(%rsp)
 16750      05000000 
 16751 87be C6842450 		movb	$0, 1616(%rsp)
 16751      06000000 
 16752 87c6 C6842450 		movb	$0, 1872(%rsp)
 16752      07000000 
 16753              	.LEHB664:
 16754 87ce E8000000 		call	_ZN8UnitTest4TestC1EPKcS2_S2_i@PLT
 16754      00
 16755              	.LEHE664:
 16756 87d3 488DBB80 		leaq	2176(%rbx), %rdi
 16756      080000
 16757 87da 488D0D00 		leaq	.LC24(%rip), %rcx
 16757      000000
 16758 87e1 488D1500 		leaq	.LC19(%rip), %rdx
 16758      000000
 16759 87e8 488D3500 		leaq	.LC20(%rip), %rsi
 16759      000000
 16760 87ef 4531C0   		xorl	%r8d, %r8d
 16761              	.LEHB665:
 16762 87f2 E8000000 		call	_ZN8UnitTest4TestC1EPKcS2_S2_i@PLT
 16762      00
 16763              	.LEHE665:
 16764 87f7 488DBBB8 		leaq	2232(%rbx), %rdi
 16764      080000
 16765 87fe 488D0D00 		leaq	.LC24(%rip), %rcx
 16765      000000
 16766 8805 488D1500 		leaq	.LC38(%rip), %rdx
 16766      000000
 16767 880c 488D3500 		leaq	.LC81(%rip), %rsi
 16767      000000
 16768 8813 4531C0   		xorl	%r8d, %r8d
 16769              	.LEHB666:
 16770 8816 E8000000 		call	_ZN8UnitTest4TestC1EPKcS2_S2_i@PLT
 16770      00
 16771              	.LEHE666:
 16772 881b 488DBBF0 		leaq	2288(%rbx), %rdi
 16772      080000
 16773              	.LEHB667:
 16774 8822 E8000000 		call	_ZN8UnitTest8TestListC1Ev@PLT
 16774      00
 16775 8827 488DB348 		leaq	2120(%rbx), %rsi
 16775      080000
 16776 882e 488DBBF0 		leaq	2288(%rbx), %rdi
 16776      080000
 16777 8835 E8000000 		call	_ZN8UnitTest8TestList3AddEPNS_4TestE@PLT
 16777      00
 16778 883a 488DB380 		leaq	2176(%rbx), %rsi
 16778      080000
 16779 8841 488DBBF0 		leaq	2288(%rbx), %rdi
 16779      080000
 16780 8848 E8000000 		call	_ZN8UnitTest8TestList3AddEPNS_4TestE@PLT
 16780      00
 16781              	.LEHE667:
 16782 884d 4889EE   		movq	%rbp, %rsi
 16783 8850 4889DF   		movq	%rbx, %rdi
 16784 8853 4889AC24 		movq	%rbp, 2336(%rsp)
 16784      20090000 
 16785              	.LEHB668:
 16786 885b E8C085FF 		call	_ZN8UnitTest11ExecuteTestIN12_GLOBAL__N_154TestSuiteFixtureTestRunnerRunsOnlySpecifiedSuiteHe
 16786      FF
 16787              	.LEHE668:
 16788 8860 488DBBB8 		leaq	2232(%rbx), %rdi
 16788      080000
 16789              	.LEHB669:
 16790 8867 E8000000 		call	_ZN8UnitTest4TestD1Ev@PLT
 16790      00
 16791              	.LEHE669:
 16792 886c 488DBB80 		leaq	2176(%rbx), %rdi
 16792      080000
 16793              	.LEHB670:
 16794 8873 E8000000 		call	_ZN8UnitTest4TestD1Ev@PLT
 16794      00
 16795              	.LEHE670:
 16796 8878 488DBB48 		leaq	2120(%rbx), %rdi
 16796      080000
 16797              	.LEHB671:
 16798 887f E8000000 		call	_ZN8UnitTest4TestD1Ev@PLT
 16798      00
 16799              	.LEHE671:
 16800 8884 488D7B18 		leaq	24(%rbx), %rdi
 16801 8888 4C896424 		movq	%r12, 56(%rsp)
 16801      38
 16802              	.LEHB672:
 16803 888d E8000000 		call	_ZN8UnitTest12TestReporterD2Ev@PLT
 16803      00
 16804              	.LEHE672:
 16805 8892 4889DF   		movq	%rbx, %rdi
 16806              	.LEHB673:
 16807 8895 E8000000 		call	_ZN8UnitTest10TestRunnerD1Ev@PLT
 16807      00
 16808              	.LEHE673:
 16809              	.L1729:
 16810 889a 488B8424 		movq	2344(%rsp), %rax
 16810      28090000 
 16811 88a2 64483304 		xorq	%fs:40, %rax
 16811      25280000 
 16811      00
 16812 88ab 7510     		jne	.L1789
 16813 88ad 4881C430 		addq	$2352, %rsp
 16813      090000
 16814              		.cfi_remember_state
 16815              		.cfi_def_cfa_offset 48
 16816 88b4 5B       		popq	%rbx
 16817              		.cfi_def_cfa_offset 40
 16818 88b5 5D       		popq	%rbp
 16819              		.cfi_def_cfa_offset 32
 16820 88b6 415C     		popq	%r12
 16821              		.cfi_def_cfa_offset 24
 16822 88b8 415D     		popq	%r13
 16823              		.cfi_def_cfa_offset 16
 16824 88ba 415E     		popq	%r14
 16825              		.cfi_def_cfa_offset 8
 16826 88bc C3       		ret
 16827              	.L1789:
 16828              		.cfi_restore_state
 16829 88bd E8000000 		call	__stack_chk_fail@PLT
 16829      00
 16830              	.L1755:
 16831 88c2 4889C7   		movq	%rax, %rdi
 16832              	.L1738:
 16833 88c5 4883FA01 		cmpq	$1, %rdx
 16834 88c9 0F84FE00 		je	.L1743
 16834      0000
 16835 88cf 4883FA02 		cmpq	$2, %rdx
 16836 88d3 0F85B800 		jne	.L1790
 16836      0000
 16837              	.L1744:
 16838 88d9 E8000000 		call	__cxa_begin_catch@PLT
 16838      00
 16839 88de 4889DF   		movq	%rbx, %rdi
 16840 88e1 4989C4   		movq	%rax, %r12
 16841              	.LEHB674:
 16842 88e4 E8000000 		call	_ZN8UnitTest15MemoryOutStreamC1Ev
 16842      00
 16843              	.LEHE674:
 16844 88e9 488D3500 		leaq	.LC11(%rip), %rsi
 16844      000000
 16845 88f0 BA150000 		movl	$21, %edx
 16845      00
 16846 88f5 4889DF   		movq	%rbx, %rdi
 16847              	.LEHB675:
 16848 88f8 E8000000 		call	_ZSt16__ostream_insertIcSt11char_traitsIcEERSt13basic_ostreamIT_T0_ES6_PKS3_l@PLT
 16848      00
 16849 88fd 498B0424 		movq	(%r12), %rax
 16850 8901 4C89E7   		movq	%r12, %rdi
 16851 8904 FF5010   		call	*16(%rax)
 16852 8907 4889DF   		movq	%rbx, %rdi
 16853 890a 4889C6   		movq	%rax, %rsi
 16854 890d E8000000 		call	_ZStlsISt11char_traitsIcEERSt13basic_ostreamIcT_ES5_PKc@PLT
 16854      00
 16855 8912 E8000000 		call	_ZN8UnitTest11CurrentTest7ResultsEv@PLT
 16855      00
 16856 8917 4889DF   		movq	%rbx, %rdi
 16857 891a 4C8B20   		movq	(%rax), %r12
 16858 891d E8000000 		call	_ZNK8UnitTest15MemoryOutStream7GetTextEv@PLT
 16858      00
 16859 8922 4889C2   		movq	%rax, %rdx
 16860 8925 4889EE   		movq	%rbp, %rsi
 16861 8928 4C89E7   		movq	%r12, %rdi
 16862 892b E8000000 		call	_ZN8UnitTest11TestResults13OnTestFailureERKNS_11TestDetailsEPKc@PLT
 16862      00
 16863              	.LEHE675:
 16864 8930 4889DF   		movq	%rbx, %rdi
 16865              	.LEHB676:
 16866 8933 E8000000 		call	_ZN8UnitTest15MemoryOutStreamD1Ev
 16866      00
 16867              	.LEHE676:
 16868              	.L1788:
 16869 8938 E8000000 		call	__cxa_end_catch@PLT
 16869      00
 16870 893d E958FFFF 		jmp	.L1729
 16870      FF
 16871              	.L1768:
 16872 8942 4989C4   		movq	%rax, %r12
 16873 8945 4989D6   		movq	%rdx, %r14
 16874 8948 4889DF   		movq	%rbx, %rdi
 16875 894b E8000000 		call	_ZN8UnitTest10TestRunnerD1Ev@PLT
 16875      00
 16876 8950 4C89E7   		movq	%r12, %rdi
 16877 8953 4C89F2   		movq	%r14, %rdx
 16878 8956 E96AFFFF 		jmp	.L1738
 16878      FF
 16879              	.L1765:
 16880 895b 4989C4   		movq	%rax, %r12
 16881 895e 4989D6   		movq	%rdx, %r14
 16882              	.L1741:
 16883 8961 4889DF   		movq	%rbx, %rdi
 16884 8964 E8000000 		call	_ZN12_GLOBAL__N_111FixtureBaseD2Ev
 16884      00
 16885 8969 4C89E7   		movq	%r12, %rdi
 16886 896c 4C89F2   		movq	%r14, %rdx
 16887 896f E951FFFF 		jmp	.L1738
 16887      FF
 16888              	.L1759:
 16889 8974 4889DF   		movq	%rbx, %rdi
 16890 8977 4889C5   		movq	%rax, %rbp
 16891 897a E8000000 		call	_ZN8UnitTest15MemoryOutStreamD1Ev
 16891      00
 16892              	.L1748:
 16893 897f E8000000 		call	__cxa_end_catch@PLT
 16893      00
 16894 8984 4889EF   		movq	%rbp, %rdi
 16895              	.LEHB677:
 16896 8987 E8000000 		call	_Unwind_Resume@PLT
 16896      00
 16897              	.LEHE677:
 16898              	.L1758:
 16899 898c 4889C5   		movq	%rax, %rbp
 16900 898f EBEE     		jmp	.L1748
 16901              	.L1790:
 16902 8991 E8000000 		call	__cxa_begin_catch@PLT
 16902      00
 16903              	.LEHB678:
 16904 8996 E8000000 		call	_ZN8UnitTest11CurrentTest7ResultsEv@PLT
 16904      00
 16905 899b 4889E3   		movq	%rsp, %rbx
 16906 899e BAF80000 		movl	$248, %edx
 16906      00
 16907 89a3 4889EE   		movq	%rbp, %rsi
 16908 89a6 4889DF   		movq	%rbx, %rdi
 16909 89a9 4C8B20   		movq	(%rax), %r12
 16910 89ac E8000000 		call	_ZN8UnitTest11TestDetailsC1ERKS0_i@PLT
 16910      00
 16911 89b1 488D1500 		leaq	.LC82(%rip), %rdx
 16911      000000
 16912 89b8 4889DE   		movq	%rbx, %rsi
 16913 89bb 4C89E7   		movq	%r12, %rdi
 16914 89be E8000000 		call	_ZN8UnitTest11TestResults13OnTestFailureERKNS_11TestDetailsEPKc@PLT
 16914      00
 16915              	.LEHE678:
 16916              	.L1745:
 16917              	.LEHB679:
 16918 89c3 E8000000 		call	__cxa_end_catch@PLT
 16918      00
 16919              	.LEHE679:
 16920 89c8 E9CDFEFF 		jmp	.L1729
 16920      FF
 16921              	.L1743:
 16922 89cd E8000000 		call	__cxa_begin_catch@PLT
 16922      00
 16923 89d2 4889C3   		movq	%rax, %rbx
 16924              	.LEHB680:
 16925 89d5 E8000000 		call	_ZN8UnitTest11CurrentTest7ResultsEv@PLT
 16925      00
 16926 89da 488B28   		movq	(%rax), %rbp
 16927 89dd 488B03   		movq	(%rbx), %rax
 16928 89e0 4889DF   		movq	%rbx, %rdi
 16929 89e3 FF5010   		call	*16(%rax)
 16930 89e6 4889DF   		movq	%rbx, %rdi
 16931 89e9 4989C4   		movq	%rax, %r12
 16932 89ec E8000000 		call	_ZNK8UnitTest15AssertException10LineNumberEv@PLT
 16932      00
 16933 89f1 4889DF   		movq	%rbx, %rdi
 16934 89f4 4189C6   		movl	%eax, %r14d
 16935 89f7 E8000000 		call	_ZNK8UnitTest15AssertException8FilenameEv@PLT
 16935      00
 16936 89fc 498B5508 		movq	8(%r13), %rdx
 16937 8a00 498B7510 		movq	16(%r13), %rsi
 16938 8a04 4889E3   		movq	%rsp, %rbx
 16939 8a07 4589F0   		movl	%r14d, %r8d
 16940 8a0a 4889C1   		movq	%rax, %rcx
 16941 8a0d 4889DF   		movq	%rbx, %rdi
 16942 8a10 E8000000 		call	_ZN8UnitTest11TestDetailsC1EPKcS2_S2_i@PLT
 16942      00
 16943 8a15 4C89E2   		movq	%r12, %rdx
 16944 8a18 4889DE   		movq	%rbx, %rsi
 16945 8a1b 4889EF   		movq	%rbp, %rdi
 16946 8a1e E8000000 		call	_ZN8UnitTest11TestResults13OnTestFailureERKNS_11TestDetailsEPKc@PLT
 16946      00
 16947              	.LEHE680:
 16948 8a23 E910FFFF 		jmp	.L1788
 16948      FF
 16949              	.L1760:
 16950 8a28 4889C3   		movq	%rax, %rbx
 16951 8a2b E8000000 		call	__cxa_end_catch@PLT
 16951      00
 16952 8a30 4889DF   		movq	%rbx, %rdi
 16953              	.LEHB681:
 16954 8a33 E8000000 		call	_Unwind_Resume@PLT
 16954      00
 16955              	.L1757:
 16956 8a38 4889C3   		movq	%rax, %rbx
 16957 8a3b E8000000 		call	__cxa_end_catch@PLT
 16957      00
 16958 8a40 4889DF   		movq	%rbx, %rdi
 16959 8a43 E8000000 		call	_Unwind_Resume@PLT
 16959      00
 16960              	.LEHE681:
 16961              	.L1766:
 16962 8a48 4989C4   		movq	%rax, %r12
 16963 8a4b 4989D6   		movq	%rdx, %r14
 16964              	.L1740:
 16965 8a4e 488DBB48 		leaq	2120(%rbx), %rdi
 16965      080000
 16966 8a55 E8000000 		call	_ZN8UnitTest4TestD1Ev@PLT
 16966      00
 16967 8a5a E902FFFF 		jmp	.L1741
 16967      FF
 16968              	.L1767:
 16969 8a5f 488DBB80 		leaq	2176(%rbx), %rdi
 16969      080000
 16970 8a66 4989C4   		movq	%rax, %r12
 16971 8a69 4989D6   		movq	%rdx, %r14
 16972 8a6c E8000000 		call	_ZN8UnitTest4TestD1Ev@PLT
 16972      00
 16973 8a71 EBDB     		jmp	.L1740
 16974              	.L1756:
 16975 8a73 4989C4   		movq	%rax, %r12
 16976 8a76 4989D6   		movq	%rdx, %r14
 16977 8a79 4889DF   		movq	%rbx, %rdi
 16978 8a7c E8000000 		call	_ZN12_GLOBAL__N_116TestSuiteFixtureD2Ev
 16978      00
 16979 8a81 4C89E7   		movq	%r12, %rdi
 16980 8a84 4C89F2   		movq	%r14, %rdx
 16981 8a87 E939FEFF 		jmp	.L1738
 16981      FF
 16982              	.L1764:
 16983 8a8c 488DBBB8 		leaq	2232(%rbx), %rdi
 16983      080000
 16984 8a93 4989C4   		movq	%rax, %r12
 16985 8a96 4989D6   		movq	%rdx, %r14
 16986 8a99 E8000000 		call	_ZN8UnitTest4TestD1Ev@PLT
 16986      00
 16987              	.L1732:
 16988 8a9e 488DBB80 		leaq	2176(%rbx), %rdi
 16988      080000
 16989 8aa5 E8000000 		call	_ZN8UnitTest4TestD1Ev@PLT
 16989      00
 16990              	.L1733:
 16991 8aaa 488DBB48 		leaq	2120(%rbx), %rdi
 16991      080000
 16992 8ab1 E8000000 		call	_ZN8UnitTest4TestD1Ev@PLT
 16992      00
 16993              	.L1734:
 16994 8ab6 4889DF   		movq	%rbx, %rdi
 16995 8ab9 E8000000 		call	_ZN12_GLOBAL__N_111FixtureBaseD2Ev
 16995      00
 16996 8abe 4C89E7   		movq	%r12, %rdi
 16997 8ac1 4C89F2   		movq	%r14, %rdx
 16998              	.L1735:
 16999 8ac4 4883FA01 		cmpq	$1, %rdx
 17000 8ac8 0F84FFFE 		je	.L1743
 17000      FFFF
 17001 8ace 4883FA02 		cmpq	$2, %rdx
 17002 8ad2 0F8401FE 		je	.L1744
 17002      FFFF
 17003 8ad8 E8000000 		call	__cxa_begin_catch@PLT
 17003      00
 17004              	.LEHB682:
 17005 8add E8000000 		call	_ZN8UnitTest11CurrentTest7ResultsEv@PLT
 17005      00
 17006 8ae2 4889E3   		movq	%rsp, %rbx
 17007 8ae5 BAF80000 		movl	$248, %edx
 17007      00
 17008 8aea 4889EE   		movq	%rbp, %rsi
 17009 8aed 4889DF   		movq	%rbx, %rdi
 17010 8af0 4C8B20   		movq	(%rax), %r12
 17011 8af3 E8000000 		call	_ZN8UnitTest11TestDetailsC1ERKS0_i@PLT
 17011      00
 17012 8af8 488D1500 		leaq	.LC83(%rip), %rdx
 17012      000000
 17013 8aff 4889DE   		movq	%rbx, %rsi
 17014 8b02 4C89E7   		movq	%r12, %rdi
 17015 8b05 E8000000 		call	_ZN8UnitTest11TestResults13OnTestFailureERKNS_11TestDetailsEPKc@PLT
 17015      00
 17016              	.LEHE682:
 17017 8b0a E9B4FEFF 		jmp	.L1745
 17017      FF
 17018              	.L1763:
 17019 8b0f 4989C4   		movq	%rax, %r12
 17020 8b12 4989D6   		movq	%rdx, %r14
 17021 8b15 EB87     		jmp	.L1732
 17022              	.L1762:
 17023 8b17 4989C4   		movq	%rax, %r12
 17024 8b1a 4989D6   		movq	%rdx, %r14
 17025 8b1d EB8B     		jmp	.L1733
 17026              	.L1761:
 17027 8b1f 4989C4   		movq	%rax, %r12
 17028 8b22 4989D6   		movq	%rdx, %r14
 17029 8b25 EB8F     		jmp	.L1734
 17030              	.L1769:
 17031 8b27 4889C7   		movq	%rax, %rdi
 17032 8b2a EB98     		jmp	.L1735
 17033              		.cfi_endproc
 17034              	.LFE1343:
 17035              		.section	.gcc_except_table
 17036 123a 0000     		.align 4
 17037              	.LLSDA1343:
 17038 123c FF       		.byte	0xff
 17039 123d 9B       		.byte	0x9b
 17040 123e 8C01     		.uleb128 .LLSDATT1343-.LLSDATTD1343
 17041              	.LLSDATTD1343:
 17042 1240 01       		.byte	0x1
 17043 1241 74       		.uleb128 .LLSDACSE1343-.LLSDACSB1343
 17044              	.LLSDACSB1343:
 17045 1242 35       		.uleb128 .LEHB663-.LFB1343
 17046 1243 05       		.uleb128 .LEHE663-.LEHB663
 17047 1244 C708     		.uleb128 .L1769-.LFB1343
 17048 1246 05       		.uleb128 0x5
 17049 1247 EE01     		.uleb128 .LEHB664-.LFB1343
 17050 1249 05       		.uleb128 .LEHE664-.LEHB664
 17051 124a BF08     		.uleb128 .L1761-.LFB1343
 17052 124c 07       		.uleb128 0x7
 17053 124d 9202     		.uleb128 .LEHB665-.LFB1343
 17054 124f 05       		.uleb128 .LEHE665-.LEHB665
 17055 1250 B708     		.uleb128 .L1762-.LFB1343
 17056 1252 07       		.uleb128 0x7
 17057 1253 B602     		.uleb128 .LEHB666-.LFB1343
 17058 1255 05       		.uleb128 .LEHE666-.LEHB666
 17059 1256 AF08     		.uleb128 .L1763-.LFB1343
 17060 1258 07       		.uleb128 0x7
 17061 1259 C202     		.uleb128 .LEHB667-.LFB1343
 17062 125b 2B       		.uleb128 .LEHE667-.LEHB667
 17063 125c AC07     		.uleb128 .L1764-.LFB1343
 17064 125e 07       		.uleb128 0x7
 17065 125f FB02     		.uleb128 .LEHB668-.LFB1343
 17066 1261 05       		.uleb128 .LEHE668-.LEHB668
 17067 1262 9307     		.uleb128 .L1756-.LFB1343
 17068 1264 07       		.uleb128 0x7
 17069 1265 8703     		.uleb128 .LEHB669-.LFB1343
 17070 1267 05       		.uleb128 .LEHE669-.LEHB669
 17071 1268 FF06     		.uleb128 .L1767-.LFB1343
 17072 126a 07       		.uleb128 0x7
 17073 126b 9303     		.uleb128 .LEHB670-.LFB1343
 17074 126d 05       		.uleb128 .LEHE670-.LEHB670
 17075 126e E806     		.uleb128 .L1766-.LFB1343
 17076 1270 07       		.uleb128 0x7
 17077 1271 9F03     		.uleb128 .LEHB671-.LFB1343
 17078 1273 05       		.uleb128 .LEHE671-.LEHB671
 17079 1274 FB04     		.uleb128 .L1765-.LFB1343
 17080 1276 07       		.uleb128 0x7
 17081 1277 AD03     		.uleb128 .LEHB672-.LFB1343
 17082 1279 05       		.uleb128 .LEHE672-.LEHB672
 17083 127a E204     		.uleb128 .L1768-.LFB1343
 17084 127c 07       		.uleb128 0x7
 17085 127d B503     		.uleb128 .LEHB673-.LFB1343
 17086 127f 05       		.uleb128 .LEHE673-.LEHB673
 17087 1280 E203     		.uleb128 .L1755-.LFB1343
 17088 1282 05       		.uleb128 0x5
 17089 1283 8404     		.uleb128 .LEHB674-.LFB1343
 17090 1285 05       		.uleb128 .LEHE674-.LEHB674
 17091 1286 AC05     		.uleb128 .L1758-.LFB1343
 17092 1288 00       		.uleb128 0
 17093 1289 9804     		.uleb128 .LEHB675-.LFB1343
 17094 128b 38       		.uleb128 .LEHE675-.LEHB675
 17095 128c 9405     		.uleb128 .L1759-.LFB1343
 17096 128e 00       		.uleb128 0
 17097 128f D304     		.uleb128 .LEHB676-.LFB1343
 17098 1291 05       		.uleb128 .LEHE676-.LEHB676
 17099 1292 AC05     		.uleb128 .L1758-.LFB1343
 17100 1294 00       		.uleb128 0
 17101 1295 A705     		.uleb128 .LEHB677-.LFB1343
 17102 1297 05       		.uleb128 .LEHE677-.LEHB677
 17103 1298 00       		.uleb128 0
 17104 1299 00       		.uleb128 0
 17105 129a B605     		.uleb128 .LEHB678-.LFB1343
 17106 129c 2D       		.uleb128 .LEHE678-.LEHB678
 17107 129d C806     		.uleb128 .L1760-.LFB1343
 17108 129f 00       		.uleb128 0
 17109 12a0 E305     		.uleb128 .LEHB679-.LFB1343
 17110 12a2 05       		.uleb128 .LEHE679-.LEHB679
 17111 12a3 00       		.uleb128 0
 17112 12a4 00       		.uleb128 0
 17113 12a5 F505     		.uleb128 .LEHB680-.LFB1343
 17114 12a7 4E       		.uleb128 .LEHE680-.LEHB680
 17115 12a8 D806     		.uleb128 .L1757-.LFB1343
 17116 12aa 00       		.uleb128 0
 17117 12ab D306     		.uleb128 .LEHB681-.LFB1343
 17118 12ad 15       		.uleb128 .LEHE681-.LEHB681
 17119 12ae 00       		.uleb128 0
 17120 12af 00       		.uleb128 0
 17121 12b0 FD07     		.uleb128 .LEHB682-.LFB1343
 17122 12b2 2D       		.uleb128 .LEHE682-.LEHB682
 17123 12b3 C806     		.uleb128 .L1760-.LFB1343
 17124 12b5 00       		.uleb128 0
 17125              	.LLSDACSE1343:
 17126 12b6 03       		.byte	0x3
 17127 12b7 00       		.byte	0
 17128 12b8 02       		.byte	0x2
 17129 12b9 7D       		.byte	0x7d
 17130 12ba 01       		.byte	0x1
 17131 12bb 7D       		.byte	0x7d
 17132 12bc 00       		.byte	0
 17133 12bd 7D       		.byte	0x7d
 17134 12be 0000     		.align 4
 17135 12c0 00000000 		.long	0
 17136              	
 17137 12c4 00000000 		.long	DW.ref._ZTISt9exception-.
 17138 12c8 00000000 		.long	DW.ref._ZTIN8UnitTest15AssertExceptionE-.
 17139              	.LLSDATT1343:
 17140              		.text
 17142              		.align 2
 17143 8b2c 0F1F4000 		.p2align 4,,15
 17145              	_ZNK12_GLOBAL__N_162TestTestSuiteFixtureTestRunnerRunsAllSuitesIfNullSuiteIsPassed7RunImplEv:
 17146              	.LFB1332:
 17147              		.cfi_startproc
 17148              		.cfi_personality 0x9b,DW.ref.__gxx_personality_v0
 17149              		.cfi_lsda 0x1b,.LLSDA1332
 17150 8b30 4156     		pushq	%r14
 17151              		.cfi_def_cfa_offset 16
 17152              		.cfi_offset 14, -16
 17153 8b32 4155     		pushq	%r13
 17154              		.cfi_def_cfa_offset 24
 17155              		.cfi_offset 13, -24
 17156 8b34 4989FD   		movq	%rdi, %r13
 17157 8b37 4154     		pushq	%r12
 17158              		.cfi_def_cfa_offset 32
 17159              		.cfi_offset 12, -32
 17160 8b39 55       		pushq	%rbp
 17161              		.cfi_def_cfa_offset 40
 17162              		.cfi_offset 6, -40
 17163 8b3a 488D6F08 		leaq	8(%rdi), %rbp
 17164 8b3e 53       		pushq	%rbx
 17165              		.cfi_def_cfa_offset 48
 17166              		.cfi_offset 3, -48
 17167 8b3f 4881EC30 		subq	$2352, %rsp
 17167      090000
 17168              		.cfi_def_cfa_offset 2400
 17169 8b46 488D5C24 		leaq	32(%rsp), %rbx
 17169      20
 17170 8b4b 64488B04 		movq	%fs:40, %rax
 17170      25280000 
 17170      00
 17171 8b54 48898424 		movq	%rax, 2344(%rsp)
 17171      28090000 
 17172 8b5c 31C0     		xorl	%eax, %eax
 17173 8b5e 488D7318 		leaq	24(%rbx), %rsi
 17174 8b62 4889DF   		movq	%rbx, %rdi
 17175              	.LEHB683:
 17176 8b65 E8000000 		call	_ZN8UnitTest10TestRunnerC1ERNS_12TestReporterE@PLT
 17176      00
 17177              	.LEHE683:
 17178 8b6a 4C8D2500 		leaq	16+_ZTV17RecordingReporter(%rip), %r12
 17178      000000
 17179 8b71 488DBB48 		leaq	2120(%rbx), %rdi
 17179      080000
 17180 8b78 488D0D00 		leaq	.LC24(%rip), %rcx
 17180      000000
 17181 8b7f 488D1500 		leaq	.LC38(%rip), %rdx
 17181      000000
 17182 8b86 488D3500 		leaq	.LC80(%rip), %rsi
 17182      000000
 17183 8b8d 4531C0   		xorl	%r8d, %r8d
 17184 8b90 4C896424 		movq	%r12, 56(%rsp)
 17184      38
 17185 8b95 C7442440 		movl	$0, 64(%rsp)
 17185      00000000 
 17186 8b9d C7842444 		movl	$0, 580(%rsp)
 17186      02000000 
 17186      000000
 17187 8ba8 C7842448 		movl	$0, 840(%rsp)
 17187      03000000 
 17187      000000
 17188 8bb3 C784244C 		movl	$0, 1612(%rsp)
 17188      06000000 
 17188      000000
 17189 8bbe 48C78424 		movq	$0, 2128(%rsp)
 17189      50080000 
 17189      00000000 
 17190 8bca 48C78424 		movq	$0, 2136(%rsp)
 17190      58080000 
 17190      00000000 
 17191 8bd6 C7842460 		movl	$0, 2144(%rsp)
 17191      08000000 
 17191      000000
 17192 8be1 C6442444 		movb	$0, 68(%rsp)
 17192      00
 17193 8be6 C6842444 		movb	$0, 324(%rsp)
 17193      01000000 
 17194 8bee C6842448 		movb	$0, 584(%rsp)
 17194      02000000 
 17195 8bf6 C684244C 		movb	$0, 844(%rsp)
 17195      03000000 
 17196 8bfe C684244C 		movb	$0, 1100(%rsp)
 17196      04000000 
 17197 8c06 C684244C 		movb	$0, 1356(%rsp)
 17197      05000000 
 17198 8c0e C6842450 		movb	$0, 1616(%rsp)
 17198      06000000 
 17199 8c16 C6842450 		movb	$0, 1872(%rsp)
 17199      07000000 
 17200              	.LEHB684:
 17201 8c1e E8000000 		call	_ZN8UnitTest4TestC1EPKcS2_S2_i@PLT
 17201      00
 17202              	.LEHE684:
 17203 8c23 488DBB80 		leaq	2176(%rbx), %rdi
 17203      080000
 17204 8c2a 488D0D00 		leaq	.LC24(%rip), %rcx
 17204      000000
 17205 8c31 488D1500 		leaq	.LC19(%rip), %rdx
 17205      000000
 17206 8c38 488D3500 		leaq	.LC20(%rip), %rsi
 17206      000000
 17207 8c3f 4531C0   		xorl	%r8d, %r8d
 17208              	.LEHB685:
 17209 8c42 E8000000 		call	_ZN8UnitTest4TestC1EPKcS2_S2_i@PLT
 17209      00
 17210              	.LEHE685:
 17211 8c47 488DBBB8 		leaq	2232(%rbx), %rdi
 17211      080000
 17212 8c4e 488D0D00 		leaq	.LC24(%rip), %rcx
 17212      000000
 17213 8c55 488D1500 		leaq	.LC38(%rip), %rdx
 17213      000000
 17214 8c5c 488D3500 		leaq	.LC81(%rip), %rsi
 17214      000000
 17215 8c63 4531C0   		xorl	%r8d, %r8d
 17216              	.LEHB686:
 17217 8c66 E8000000 		call	_ZN8UnitTest4TestC1EPKcS2_S2_i@PLT
 17217      00
 17218              	.LEHE686:
 17219 8c6b 488DBBF0 		leaq	2288(%rbx), %rdi
 17219      080000
 17220              	.LEHB687:
 17221 8c72 E8000000 		call	_ZN8UnitTest8TestListC1Ev@PLT
 17221      00
 17222 8c77 488DB348 		leaq	2120(%rbx), %rsi
 17222      080000
 17223 8c7e 488DBBF0 		leaq	2288(%rbx), %rdi
 17223      080000
 17224 8c85 E8000000 		call	_ZN8UnitTest8TestList3AddEPNS_4TestE@PLT
 17224      00
 17225 8c8a 488DB380 		leaq	2176(%rbx), %rsi
 17225      080000
 17226 8c91 488DBBF0 		leaq	2288(%rbx), %rdi
 17226      080000
 17227 8c98 E8000000 		call	_ZN8UnitTest8TestList3AddEPNS_4TestE@PLT
 17227      00
 17228              	.LEHE687:
 17229 8c9d 4889EE   		movq	%rbp, %rsi
 17230 8ca0 4889DF   		movq	%rbx, %rdi
 17231 8ca3 4889AC24 		movq	%rbp, 2336(%rsp)
 17231      20090000 
 17232              	.LEHB688:
 17233 8cab E87085FF 		call	_ZN8UnitTest11ExecuteTestIN12_GLOBAL__N_164TestSuiteFixtureTestRunnerRunsAllSuitesIfNullSuite
 17233      FF
 17234              	.LEHE688:
 17235 8cb0 488DBBB8 		leaq	2232(%rbx), %rdi
 17235      080000
 17236              	.LEHB689:
 17237 8cb7 E8000000 		call	_ZN8UnitTest4TestD1Ev@PLT
 17237      00
 17238              	.LEHE689:
 17239 8cbc 488DBB80 		leaq	2176(%rbx), %rdi
 17239      080000
 17240              	.LEHB690:
 17241 8cc3 E8000000 		call	_ZN8UnitTest4TestD1Ev@PLT
 17241      00
 17242              	.LEHE690:
 17243 8cc8 488DBB48 		leaq	2120(%rbx), %rdi
 17243      080000
 17244              	.LEHB691:
 17245 8ccf E8000000 		call	_ZN8UnitTest4TestD1Ev@PLT
 17245      00
 17246              	.LEHE691:
 17247 8cd4 488D7B18 		leaq	24(%rbx), %rdi
 17248 8cd8 4C896424 		movq	%r12, 56(%rsp)
 17248      38
 17249              	.LEHB692:
 17250 8cdd E8000000 		call	_ZN8UnitTest12TestReporterD2Ev@PLT
 17250      00
 17251              	.LEHE692:
 17252 8ce2 4889DF   		movq	%rbx, %rdi
 17253              	.LEHB693:
 17254 8ce5 E8000000 		call	_ZN8UnitTest10TestRunnerD1Ev@PLT
 17254      00
 17255              	.LEHE693:
 17256              	.L1791:
 17257 8cea 488B8424 		movq	2344(%rsp), %rax
 17257      28090000 
 17258 8cf2 64483304 		xorq	%fs:40, %rax
 17258      25280000 
 17258      00
 17259 8cfb 7510     		jne	.L1851
 17260 8cfd 4881C430 		addq	$2352, %rsp
 17260      090000
 17261              		.cfi_remember_state
 17262              		.cfi_def_cfa_offset 48
 17263 8d04 5B       		popq	%rbx
 17264              		.cfi_def_cfa_offset 40
 17265 8d05 5D       		popq	%rbp
 17266              		.cfi_def_cfa_offset 32
 17267 8d06 415C     		popq	%r12
 17268              		.cfi_def_cfa_offset 24
 17269 8d08 415D     		popq	%r13
 17270              		.cfi_def_cfa_offset 16
 17271 8d0a 415E     		popq	%r14
 17272              		.cfi_def_cfa_offset 8
 17273 8d0c C3       		ret
 17274              	.L1851:
 17275              		.cfi_restore_state
 17276 8d0d E8000000 		call	__stack_chk_fail@PLT
 17276      00
 17277              	.L1817:
 17278 8d12 4889C7   		movq	%rax, %rdi
 17279              	.L1800:
 17280 8d15 4883FA01 		cmpq	$1, %rdx
 17281 8d19 0F84FE00 		je	.L1805
 17281      0000
 17282 8d1f 4883FA02 		cmpq	$2, %rdx
 17283 8d23 0F85B800 		jne	.L1852
 17283      0000
 17284              	.L1806:
 17285 8d29 E8000000 		call	__cxa_begin_catch@PLT
 17285      00
 17286 8d2e 4889DF   		movq	%rbx, %rdi
 17287 8d31 4989C4   		movq	%rax, %r12
 17288              	.LEHB694:
 17289 8d34 E8000000 		call	_ZN8UnitTest15MemoryOutStreamC1Ev
 17289      00
 17290              	.LEHE694:
 17291 8d39 488D3500 		leaq	.LC11(%rip), %rsi
 17291      000000
 17292 8d40 BA150000 		movl	$21, %edx
 17292      00
 17293 8d45 4889DF   		movq	%rbx, %rdi
 17294              	.LEHB695:
 17295 8d48 E8000000 		call	_ZSt16__ostream_insertIcSt11char_traitsIcEERSt13basic_ostreamIT_T0_ES6_PKS3_l@PLT
 17295      00
 17296 8d4d 498B0424 		movq	(%r12), %rax
 17297 8d51 4C89E7   		movq	%r12, %rdi
 17298 8d54 FF5010   		call	*16(%rax)
 17299 8d57 4889DF   		movq	%rbx, %rdi
 17300 8d5a 4889C6   		movq	%rax, %rsi
 17301 8d5d E8000000 		call	_ZStlsISt11char_traitsIcEERSt13basic_ostreamIcT_ES5_PKc@PLT
 17301      00
 17302 8d62 E8000000 		call	_ZN8UnitTest11CurrentTest7ResultsEv@PLT
 17302      00
 17303 8d67 4889DF   		movq	%rbx, %rdi
 17304 8d6a 4C8B20   		movq	(%rax), %r12
 17305 8d6d E8000000 		call	_ZNK8UnitTest15MemoryOutStream7GetTextEv@PLT
 17305      00
 17306 8d72 4889C2   		movq	%rax, %rdx
 17307 8d75 4889EE   		movq	%rbp, %rsi
 17308 8d78 4C89E7   		movq	%r12, %rdi
 17309 8d7b E8000000 		call	_ZN8UnitTest11TestResults13OnTestFailureERKNS_11TestDetailsEPKc@PLT
 17309      00
 17310              	.LEHE695:
 17311 8d80 4889DF   		movq	%rbx, %rdi
 17312              	.LEHB696:
 17313 8d83 E8000000 		call	_ZN8UnitTest15MemoryOutStreamD1Ev
 17313      00
 17314              	.LEHE696:
 17315              	.L1850:
 17316 8d88 E8000000 		call	__cxa_end_catch@PLT
 17316      00
 17317 8d8d E958FFFF 		jmp	.L1791
 17317      FF
 17318              	.L1830:
 17319 8d92 4989C4   		movq	%rax, %r12
 17320 8d95 4989D6   		movq	%rdx, %r14
 17321 8d98 4889DF   		movq	%rbx, %rdi
 17322 8d9b E8000000 		call	_ZN8UnitTest10TestRunnerD1Ev@PLT
 17322      00
 17323 8da0 4C89E7   		movq	%r12, %rdi
 17324 8da3 4C89F2   		movq	%r14, %rdx
 17325 8da6 E96AFFFF 		jmp	.L1800
 17325      FF
 17326              	.L1827:
 17327 8dab 4989C4   		movq	%rax, %r12
 17328 8dae 4989D6   		movq	%rdx, %r14
 17329              	.L1803:
 17330 8db1 4889DF   		movq	%rbx, %rdi
 17331 8db4 E8000000 		call	_ZN12_GLOBAL__N_111FixtureBaseD2Ev
 17331      00
 17332 8db9 4C89E7   		movq	%r12, %rdi
 17333 8dbc 4C89F2   		movq	%r14, %rdx
 17334 8dbf E951FFFF 		jmp	.L1800
 17334      FF
 17335              	.L1821:
 17336 8dc4 4889DF   		movq	%rbx, %rdi
 17337 8dc7 4889C5   		movq	%rax, %rbp
 17338 8dca E8000000 		call	_ZN8UnitTest15MemoryOutStreamD1Ev
 17338      00
 17339              	.L1810:
 17340 8dcf E8000000 		call	__cxa_end_catch@PLT
 17340      00
 17341 8dd4 4889EF   		movq	%rbp, %rdi
 17342              	.LEHB697:
 17343 8dd7 E8000000 		call	_Unwind_Resume@PLT
 17343      00
 17344              	.LEHE697:
 17345              	.L1820:
 17346 8ddc 4889C5   		movq	%rax, %rbp
 17347 8ddf EBEE     		jmp	.L1810
 17348              	.L1852:
 17349 8de1 E8000000 		call	__cxa_begin_catch@PLT
 17349      00
 17350              	.LEHB698:
 17351 8de6 E8000000 		call	_ZN8UnitTest11CurrentTest7ResultsEv@PLT
 17351      00
 17352 8deb 4889E3   		movq	%rsp, %rbx
 17353 8dee BAF20000 		movl	$242, %edx
 17353      00
 17354 8df3 4889EE   		movq	%rbp, %rsi
 17355 8df6 4889DF   		movq	%rbx, %rdi
 17356 8df9 4C8B20   		movq	(%rax), %r12
 17357 8dfc E8000000 		call	_ZN8UnitTest11TestDetailsC1ERKS0_i@PLT
 17357      00
 17358 8e01 488D1500 		leaq	.LC82(%rip), %rdx
 17358      000000
 17359 8e08 4889DE   		movq	%rbx, %rsi
 17360 8e0b 4C89E7   		movq	%r12, %rdi
 17361 8e0e E8000000 		call	_ZN8UnitTest11TestResults13OnTestFailureERKNS_11TestDetailsEPKc@PLT
 17361      00
 17362              	.LEHE698:
 17363              	.L1807:
 17364              	.LEHB699:
 17365 8e13 E8000000 		call	__cxa_end_catch@PLT
 17365      00
 17366              	.LEHE699:
 17367 8e18 E9CDFEFF 		jmp	.L1791
 17367      FF
 17368              	.L1805:
 17369 8e1d E8000000 		call	__cxa_begin_catch@PLT
 17369      00
 17370 8e22 4889C3   		movq	%rax, %rbx
 17371              	.LEHB700:
 17372 8e25 E8000000 		call	_ZN8UnitTest11CurrentTest7ResultsEv@PLT
 17372      00
 17373 8e2a 488B28   		movq	(%rax), %rbp
 17374 8e2d 488B03   		movq	(%rbx), %rax
 17375 8e30 4889DF   		movq	%rbx, %rdi
 17376 8e33 FF5010   		call	*16(%rax)
 17377 8e36 4889DF   		movq	%rbx, %rdi
 17378 8e39 4989C4   		movq	%rax, %r12
 17379 8e3c E8000000 		call	_ZNK8UnitTest15AssertException10LineNumberEv@PLT
 17379      00
 17380 8e41 4889DF   		movq	%rbx, %rdi
 17381 8e44 4189C6   		movl	%eax, %r14d
 17382 8e47 E8000000 		call	_ZNK8UnitTest15AssertException8FilenameEv@PLT
 17382      00
 17383 8e4c 498B5508 		movq	8(%r13), %rdx
 17384 8e50 498B7510 		movq	16(%r13), %rsi
 17385 8e54 4889E3   		movq	%rsp, %rbx
 17386 8e57 4589F0   		movl	%r14d, %r8d
 17387 8e5a 4889C1   		movq	%rax, %rcx
 17388 8e5d 4889DF   		movq	%rbx, %rdi
 17389 8e60 E8000000 		call	_ZN8UnitTest11TestDetailsC1EPKcS2_S2_i@PLT
 17389      00
 17390 8e65 4C89E2   		movq	%r12, %rdx
 17391 8e68 4889DE   		movq	%rbx, %rsi
 17392 8e6b 4889EF   		movq	%rbp, %rdi
 17393 8e6e E8000000 		call	_ZN8UnitTest11TestResults13OnTestFailureERKNS_11TestDetailsEPKc@PLT
 17393      00
 17394              	.LEHE700:
 17395 8e73 E910FFFF 		jmp	.L1850
 17395      FF
 17396              	.L1822:
 17397 8e78 4889C3   		movq	%rax, %rbx
 17398 8e7b E8000000 		call	__cxa_end_catch@PLT
 17398      00
 17399 8e80 4889DF   		movq	%rbx, %rdi
 17400              	.LEHB701:
 17401 8e83 E8000000 		call	_Unwind_Resume@PLT
 17401      00
 17402              	.L1819:
 17403 8e88 4889C3   		movq	%rax, %rbx
 17404 8e8b E8000000 		call	__cxa_end_catch@PLT
 17404      00
 17405 8e90 4889DF   		movq	%rbx, %rdi
 17406 8e93 E8000000 		call	_Unwind_Resume@PLT
 17406      00
 17407              	.LEHE701:
 17408              	.L1828:
 17409 8e98 4989C4   		movq	%rax, %r12
 17410 8e9b 4989D6   		movq	%rdx, %r14
 17411              	.L1802:
 17412 8e9e 488DBB48 		leaq	2120(%rbx), %rdi
 17412      080000
 17413 8ea5 E8000000 		call	_ZN8UnitTest4TestD1Ev@PLT
 17413      00
 17414 8eaa E902FFFF 		jmp	.L1803
 17414      FF
 17415              	.L1829:
 17416 8eaf 488DBB80 		leaq	2176(%rbx), %rdi
 17416      080000
 17417 8eb6 4989C4   		movq	%rax, %r12
 17418 8eb9 4989D6   		movq	%rdx, %r14
 17419 8ebc E8000000 		call	_ZN8UnitTest4TestD1Ev@PLT
 17419      00
 17420 8ec1 EBDB     		jmp	.L1802
 17421              	.L1818:
 17422 8ec3 4989C4   		movq	%rax, %r12
 17423 8ec6 4989D6   		movq	%rdx, %r14
 17424 8ec9 4889DF   		movq	%rbx, %rdi
 17425 8ecc E8000000 		call	_ZN12_GLOBAL__N_116TestSuiteFixtureD2Ev
 17425      00
 17426 8ed1 4C89E7   		movq	%r12, %rdi
 17427 8ed4 4C89F2   		movq	%r14, %rdx
 17428 8ed7 E939FEFF 		jmp	.L1800
 17428      FF
 17429              	.L1826:
 17430 8edc 488DBBB8 		leaq	2232(%rbx), %rdi
 17430      080000
 17431 8ee3 4989C4   		movq	%rax, %r12
 17432 8ee6 4989D6   		movq	%rdx, %r14
 17433 8ee9 E8000000 		call	_ZN8UnitTest4TestD1Ev@PLT
 17433      00
 17434              	.L1794:
 17435 8eee 488DBB80 		leaq	2176(%rbx), %rdi
 17435      080000
 17436 8ef5 E8000000 		call	_ZN8UnitTest4TestD1Ev@PLT
 17436      00
 17437              	.L1795:
 17438 8efa 488DBB48 		leaq	2120(%rbx), %rdi
 17438      080000
 17439 8f01 E8000000 		call	_ZN8UnitTest4TestD1Ev@PLT
 17439      00
 17440              	.L1796:
 17441 8f06 4889DF   		movq	%rbx, %rdi
 17442 8f09 E8000000 		call	_ZN12_GLOBAL__N_111FixtureBaseD2Ev
 17442      00
 17443 8f0e 4C89E7   		movq	%r12, %rdi
 17444 8f11 4C89F2   		movq	%r14, %rdx
 17445              	.L1797:
 17446 8f14 4883FA01 		cmpq	$1, %rdx
 17447 8f18 0F84FFFE 		je	.L1805
 17447      FFFF
 17448 8f1e 4883FA02 		cmpq	$2, %rdx
 17449 8f22 0F8401FE 		je	.L1806
 17449      FFFF
 17450 8f28 E8000000 		call	__cxa_begin_catch@PLT
 17450      00
 17451              	.LEHB702:
 17452 8f2d E8000000 		call	_ZN8UnitTest11CurrentTest7ResultsEv@PLT
 17452      00
 17453 8f32 4889E3   		movq	%rsp, %rbx
 17454 8f35 BAF20000 		movl	$242, %edx
 17454      00
 17455 8f3a 4889EE   		movq	%rbp, %rsi
 17456 8f3d 4889DF   		movq	%rbx, %rdi
 17457 8f40 4C8B20   		movq	(%rax), %r12
 17458 8f43 E8000000 		call	_ZN8UnitTest11TestDetailsC1ERKS0_i@PLT
 17458      00
 17459 8f48 488D1500 		leaq	.LC83(%rip), %rdx
 17459      000000
 17460 8f4f 4889DE   		movq	%rbx, %rsi
 17461 8f52 4C89E7   		movq	%r12, %rdi
 17462 8f55 E8000000 		call	_ZN8UnitTest11TestResults13OnTestFailureERKNS_11TestDetailsEPKc@PLT
 17462      00
 17463              	.LEHE702:
 17464 8f5a E9B4FEFF 		jmp	.L1807
 17464      FF
 17465              	.L1825:
 17466 8f5f 4989C4   		movq	%rax, %r12
 17467 8f62 4989D6   		movq	%rdx, %r14
 17468 8f65 EB87     		jmp	.L1794
 17469              	.L1824:
 17470 8f67 4989C4   		movq	%rax, %r12
 17471 8f6a 4989D6   		movq	%rdx, %r14
 17472 8f6d EB8B     		jmp	.L1795
 17473              	.L1823:
 17474 8f6f 4989C4   		movq	%rax, %r12
 17475 8f72 4989D6   		movq	%rdx, %r14
 17476 8f75 EB8F     		jmp	.L1796
 17477              	.L1831:
 17478 8f77 4889C7   		movq	%rax, %rdi
 17479 8f7a EB98     		jmp	.L1797
 17480              		.cfi_endproc
 17481              	.LFE1332:
 17482              		.section	.gcc_except_table
 17483              		.align 4
 17484              	.LLSDA1332:
 17485 12cc FF       		.byte	0xff
 17486 12cd 9B       		.byte	0x9b
 17487 12ce 8C01     		.uleb128 .LLSDATT1332-.LLSDATTD1332
 17488              	.LLSDATTD1332:
 17489 12d0 01       		.byte	0x1
 17490 12d1 74       		.uleb128 .LLSDACSE1332-.LLSDACSB1332
 17491              	.LLSDACSB1332:
 17492 12d2 35       		.uleb128 .LEHB683-.LFB1332
 17493 12d3 05       		.uleb128 .LEHE683-.LEHB683
 17494 12d4 C708     		.uleb128 .L1831-.LFB1332
 17495 12d6 05       		.uleb128 0x5
 17496 12d7 EE01     		.uleb128 .LEHB684-.LFB1332
 17497 12d9 05       		.uleb128 .LEHE684-.LEHB684
 17498 12da BF08     		.uleb128 .L1823-.LFB1332
 17499 12dc 07       		.uleb128 0x7
 17500 12dd 9202     		.uleb128 .LEHB685-.LFB1332
 17501 12df 05       		.uleb128 .LEHE685-.LEHB685
 17502 12e0 B708     		.uleb128 .L1824-.LFB1332
 17503 12e2 07       		.uleb128 0x7
 17504 12e3 B602     		.uleb128 .LEHB686-.LFB1332
 17505 12e5 05       		.uleb128 .LEHE686-.LEHB686
 17506 12e6 AF08     		.uleb128 .L1825-.LFB1332
 17507 12e8 07       		.uleb128 0x7
 17508 12e9 C202     		.uleb128 .LEHB687-.LFB1332
 17509 12eb 2B       		.uleb128 .LEHE687-.LEHB687
 17510 12ec AC07     		.uleb128 .L1826-.LFB1332
 17511 12ee 07       		.uleb128 0x7
 17512 12ef FB02     		.uleb128 .LEHB688-.LFB1332
 17513 12f1 05       		.uleb128 .LEHE688-.LEHB688
 17514 12f2 9307     		.uleb128 .L1818-.LFB1332
 17515 12f4 07       		.uleb128 0x7
 17516 12f5 8703     		.uleb128 .LEHB689-.LFB1332
 17517 12f7 05       		.uleb128 .LEHE689-.LEHB689
 17518 12f8 FF06     		.uleb128 .L1829-.LFB1332
 17519 12fa 07       		.uleb128 0x7
 17520 12fb 9303     		.uleb128 .LEHB690-.LFB1332
 17521 12fd 05       		.uleb128 .LEHE690-.LEHB690
 17522 12fe E806     		.uleb128 .L1828-.LFB1332
 17523 1300 07       		.uleb128 0x7
 17524 1301 9F03     		.uleb128 .LEHB691-.LFB1332
 17525 1303 05       		.uleb128 .LEHE691-.LEHB691
 17526 1304 FB04     		.uleb128 .L1827-.LFB1332
 17527 1306 07       		.uleb128 0x7
 17528 1307 AD03     		.uleb128 .LEHB692-.LFB1332
 17529 1309 05       		.uleb128 .LEHE692-.LEHB692
 17530 130a E204     		.uleb128 .L1830-.LFB1332
 17531 130c 07       		.uleb128 0x7
 17532 130d B503     		.uleb128 .LEHB693-.LFB1332
 17533 130f 05       		.uleb128 .LEHE693-.LEHB693
 17534 1310 E203     		.uleb128 .L1817-.LFB1332
 17535 1312 05       		.uleb128 0x5
 17536 1313 8404     		.uleb128 .LEHB694-.LFB1332
 17537 1315 05       		.uleb128 .LEHE694-.LEHB694
 17538 1316 AC05     		.uleb128 .L1820-.LFB1332
 17539 1318 00       		.uleb128 0
 17540 1319 9804     		.uleb128 .LEHB695-.LFB1332
 17541 131b 38       		.uleb128 .LEHE695-.LEHB695
 17542 131c 9405     		.uleb128 .L1821-.LFB1332
 17543 131e 00       		.uleb128 0
 17544 131f D304     		.uleb128 .LEHB696-.LFB1332
 17545 1321 05       		.uleb128 .LEHE696-.LEHB696
 17546 1322 AC05     		.uleb128 .L1820-.LFB1332
 17547 1324 00       		.uleb128 0
 17548 1325 A705     		.uleb128 .LEHB697-.LFB1332
 17549 1327 05       		.uleb128 .LEHE697-.LEHB697
 17550 1328 00       		.uleb128 0
 17551 1329 00       		.uleb128 0
 17552 132a B605     		.uleb128 .LEHB698-.LFB1332
 17553 132c 2D       		.uleb128 .LEHE698-.LEHB698
 17554 132d C806     		.uleb128 .L1822-.LFB1332
 17555 132f 00       		.uleb128 0
 17556 1330 E305     		.uleb128 .LEHB699-.LFB1332
 17557 1332 05       		.uleb128 .LEHE699-.LEHB699
 17558 1333 00       		.uleb128 0
 17559 1334 00       		.uleb128 0
 17560 1335 F505     		.uleb128 .LEHB700-.LFB1332
 17561 1337 4E       		.uleb128 .LEHE700-.LEHB700
 17562 1338 D806     		.uleb128 .L1819-.LFB1332
 17563 133a 00       		.uleb128 0
 17564 133b D306     		.uleb128 .LEHB701-.LFB1332
 17565 133d 15       		.uleb128 .LEHE701-.LEHB701
 17566 133e 00       		.uleb128 0
 17567 133f 00       		.uleb128 0
 17568 1340 FD07     		.uleb128 .LEHB702-.LFB1332
 17569 1342 2D       		.uleb128 .LEHE702-.LEHB702
 17570 1343 C806     		.uleb128 .L1822-.LFB1332
 17571 1345 00       		.uleb128 0
 17572              	.LLSDACSE1332:
 17573 1346 03       		.byte	0x3
 17574 1347 00       		.byte	0
 17575 1348 02       		.byte	0x2
 17576 1349 7D       		.byte	0x7d
 17577 134a 01       		.byte	0x1
 17578 134b 7D       		.byte	0x7d
 17579 134c 00       		.byte	0
 17580 134d 7D       		.byte	0x7d
 17581 134e 0000     		.align 4
 17582 1350 00000000 		.long	0
 17583              	
 17584 1354 00000000 		.long	DW.ref._ZTISt9exception-.
 17585 1358 00000000 		.long	DW.ref._ZTIN8UnitTest15AssertExceptionE-.
 17586              	.LLSDATT1332:
 17587              		.text
 17589              		.weak	_ZTSN8UnitTest15MemoryOutStreamE
 17590              		.section	.rodata._ZTSN8UnitTest15MemoryOutStreamE,"aG",@progbits,_ZTSN8UnitTest15MemoryOutStreamE,
 17591              		.align 16
 17594              	_ZTSN8UnitTest15MemoryOutStreamE:
 17595 0000 4E38556E 		.string	"N8UnitTest15MemoryOutStreamE"
 17595      69745465 
 17595      73743135 
 17595      4D656D6F 
 17595      72794F75 
 17596              		.weak	_ZTIN8UnitTest15MemoryOutStreamE
 17597              		.section	.data.rel.ro._ZTIN8UnitTest15MemoryOutStreamE,"awG",@progbits,_ZTIN8UnitTest15MemoryOutSt
 17598              		.align 8
 17601              	_ZTIN8UnitTest15MemoryOutStreamE:
 17602 0000 00000000 		.quad	_ZTVN10__cxxabiv120__si_class_type_infoE+16
 17602      00000000 
 17603 0008 00000000 		.quad	_ZTSN8UnitTest15MemoryOutStreamE
 17603      00000000 
 17604 0010 00000000 		.quad	_ZTINSt7__cxx1119basic_ostringstreamIcSt11char_traitsIcESaIcEEE
 17604      00000000 
 17605              		.weak	_ZTS17RecordingReporter
 17606              		.section	.rodata._ZTS17RecordingReporter,"aG",@progbits,_ZTS17RecordingReporter,comdat
 17607              		.align 16
 17610              	_ZTS17RecordingReporter:
 17611 0000 31375265 		.string	"17RecordingReporter"
 17611      636F7264 
 17611      696E6752 
 17611      65706F72 
 17611      74657200 
 17612              		.weak	_ZTI17RecordingReporter
 17613              		.section	.data.rel.ro._ZTI17RecordingReporter,"awG",@progbits,_ZTI17RecordingReporter,comdat
 17614              		.align 8
 17617              	_ZTI17RecordingReporter:
 17618 0000 00000000 		.quad	_ZTVN10__cxxabiv120__si_class_type_infoE+16
 17618      00000000 
 17619 0008 00000000 		.quad	_ZTS17RecordingReporter
 17619      00000000 
 17620 0010 00000000 		.quad	_ZTIN8UnitTest12TestReporterE
 17620      00000000 
 17621              		.section	.data.rel.ro,"aw",@progbits
 17622              		.align 8
 17625              	_ZTIN12_GLOBAL__N_18MockTestE:
 17626 0000 00000000 		.quad	_ZTVN10__cxxabiv120__si_class_type_infoE+16
 17626      00000000 
 17627 0008 00000000 		.quad	_ZTSN12_GLOBAL__N_18MockTestE
 17627      00000000 
 17628 0010 00000000 		.quad	_ZTIN8UnitTest4TestE
 17628      00000000 
 17629              		.section	.rodata
 17630              		.align 16
 17633              	_ZTSN12_GLOBAL__N_18MockTestE:
 17634 0000 2A4E3132 		.string	"*N12_GLOBAL__N_18MockTestE"
 17634      5F474C4F 
 17634      42414C5F 
 17634      5F4E5F31 
 17634      384D6F63 
 17635              		.section	.data.rel.ro
 17636              		.align 8
 17639              	_ZTIN12_GLOBAL__N_149TestTestRunnerFixtureTestStartIsReportedCorrectlyE:
 17640 0018 00000000 		.quad	_ZTVN10__cxxabiv120__si_class_type_infoE+16
 17640      00000000 
 17641 0020 00000000 		.quad	_ZTSN12_GLOBAL__N_149TestTestRunnerFixtureTestStartIsReportedCorrectlyE
 17641      00000000 
 17642 0028 00000000 		.quad	_ZTIN8UnitTest4TestE
 17642      00000000 
 17643              		.section	.rodata
 17644 001b 00000000 		.align 32
 17644      00
 17647              	_ZTSN12_GLOBAL__N_149TestTestRunnerFixtureTestStartIsReportedCorrectlyE:
 17648 0020 2A4E3132 		.string	"*N12_GLOBAL__N_149TestTestRunnerFixtureTestStartIsReportedCorrectlyE"
 17648      5F474C4F 
 17648      42414C5F 
 17648      5F4E5F31 
 17648      34395465 
 17649              		.section	.data.rel.ro
 17650              		.align 8
 17653              	_ZTIN12_GLOBAL__N_150TestTestRunnerFixtureTestFinishIsReportedCorrectlyE:
 17654 0030 00000000 		.quad	_ZTVN10__cxxabiv120__si_class_type_infoE+16
 17654      00000000 
 17655 0038 00000000 		.quad	_ZTSN12_GLOBAL__N_150TestTestRunnerFixtureTestFinishIsReportedCorrectlyE
 17655      00000000 
 17656 0040 00000000 		.quad	_ZTIN8UnitTest4TestE
 17656      00000000 
 17657              		.section	.rodata
 17658 0065 00000000 		.align 32
 17658      00000000 
 17658      00000000 
 17658      00000000 
 17658      00000000 
 17661              	_ZTSN12_GLOBAL__N_150TestTestRunnerFixtureTestFinishIsReportedCorrectlyE:
 17662 0080 2A4E3132 		.string	"*N12_GLOBAL__N_150TestTestRunnerFixtureTestFinishIsReportedCorrectlyE"
 17662      5F474C4F 
 17662      42414C5F 
 17662      5F4E5F31 
 17662      35305465 
 17663              		.section	.data.rel.ro
 17664              		.align 8
 17667              	_ZTIN12_GLOBAL__N_18SlowTestE:
 17668 0048 00000000 		.quad	_ZTVN10__cxxabiv120__si_class_type_infoE+16
 17668      00000000 
 17669 0050 00000000 		.quad	_ZTSN12_GLOBAL__N_18SlowTestE
 17669      00000000 
 17670 0058 00000000 		.quad	_ZTIN8UnitTest4TestE
 17670      00000000 
 17671              		.section	.rodata
 17672 00c6 00000000 		.align 16
 17672      00000000 
 17672      0000
 17675              	_ZTSN12_GLOBAL__N_18SlowTestE:
 17676 00d0 2A4E3132 		.string	"*N12_GLOBAL__N_18SlowTestE"
 17676      5F474C4F 
 17676      42414C5F 
 17676      5F4E5F31 
 17676      38536C6F 
 17677              		.section	.data.rel.ro
 17678              		.align 8
 17681              	_ZTIN12_GLOBAL__N_154TestTestRunnerFixtureTestFinishIsCalledWithCorrectTimeE:
 17682 0060 00000000 		.quad	_ZTVN10__cxxabiv120__si_class_type_infoE+16
 17682      00000000 
 17683 0068 00000000 		.quad	_ZTSN12_GLOBAL__N_154TestTestRunnerFixtureTestFinishIsCalledWithCorrectTimeE
 17683      00000000 
 17684 0070 00000000 		.quad	_ZTIN8UnitTest4TestE
 17684      00000000 
 17685              		.section	.rodata
 17686 00eb 00000000 		.align 32
 17686      00000000 
 17686      00000000 
 17686      00000000 
 17686      00000000 
 17689              	_ZTSN12_GLOBAL__N_154TestTestRunnerFixtureTestFinishIsCalledWithCorrectTimeE:
 17690 0100 2A4E3132 		.string	"*N12_GLOBAL__N_154TestTestRunnerFixtureTestFinishIsCalledWithCorrectTimeE"
 17690      5F474C4F 
 17690      42414C5F 
 17690      5F4E5F31 
 17690      35345465 
 17691              		.section	.data.rel.ro
 17692              		.align 8
 17695              	_ZTIN12_GLOBAL__N_156TestTestRunnerFixtureFailureCountIsZeroWhenNoTestsAreRunE:
 17696 0078 00000000 		.quad	_ZTVN10__cxxabiv120__si_class_type_infoE+16
 17696      00000000 
 17697 0080 00000000 		.quad	_ZTSN12_GLOBAL__N_156TestTestRunnerFixtureFailureCountIsZeroWhenNoTestsAreRunE
 17697      00000000 
 17698 0088 00000000 		.quad	_ZTIN8UnitTest4TestE
 17698      00000000 
 17699              		.section	.rodata
 17700 014a 00000000 		.align 32
 17700      00000000 
 17700      00000000 
 17700      00000000 
 17700      00000000 
 17703              	_ZTSN12_GLOBAL__N_156TestTestRunnerFixtureFailureCountIsZeroWhenNoTestsAreRunE:
 17704 0160 2A4E3132 		.string	"*N12_GLOBAL__N_156TestTestRunnerFixtureFailureCountIsZeroWhenNoTestsAreRunE"
 17704      5F474C4F 
 17704      42414C5F 
 17704      5F4E5F31 
 17704      35365465 
 17705              		.section	.data.rel.ro
 17706              		.align 8
 17709              	_ZTIN12_GLOBAL__N_157TestTestRunnerFixtureCallsReportFailureOncePerFailingTestE:
 17710 0090 00000000 		.quad	_ZTVN10__cxxabiv120__si_class_type_infoE+16
 17710      00000000 
 17711 0098 00000000 		.quad	_ZTSN12_GLOBAL__N_157TestTestRunnerFixtureCallsReportFailureOncePerFailingTestE
 17711      00000000 
 17712 00a0 00000000 		.quad	_ZTIN8UnitTest4TestE
 17712      00000000 
 17713              		.section	.rodata
 17714 01ac 00000000 		.align 32
 17714      00000000 
 17714      00000000 
 17714      00000000 
 17714      00000000 
 17717              	_ZTSN12_GLOBAL__N_157TestTestRunnerFixtureCallsReportFailureOncePerFailingTestE:
 17718 01c0 2A4E3132 		.string	"*N12_GLOBAL__N_157TestTestRunnerFixtureCallsReportFailureOncePerFailingTestE"
 17718      5F474C4F 
 17718      42414C5F 
 17718      5F4E5F31 
 17718      35375465 
 17719              		.section	.data.rel.ro
 17720              		.align 8
 17723              	_ZTIN12_GLOBAL__N_156TestTestRunnerFixtureTestsThatAssertAreReportedAsFailingE:
 17724 00a8 00000000 		.quad	_ZTVN10__cxxabiv120__si_class_type_infoE+16
 17724      00000000 
 17725 00b0 00000000 		.quad	_ZTSN12_GLOBAL__N_156TestTestRunnerFixtureTestsThatAssertAreReportedAsFailingE
 17725      00000000 
 17726 00b8 00000000 		.quad	_ZTIN8UnitTest4TestE
 17726      00000000 
 17727              		.section	.rodata
 17728 020d 00000000 		.align 32
 17728      00000000 
 17728      00000000 
 17728      00000000 
 17728      000000
 17731              	_ZTSN12_GLOBAL__N_156TestTestRunnerFixtureTestsThatAssertAreReportedAsFailingE:
 17732 0220 2A4E3132 		.string	"*N12_GLOBAL__N_156TestTestRunnerFixtureTestsThatAssertAreReportedAsFailingE"
 17732      5F474C4F 
 17732      42414C5F 
 17732      5F4E5F31 
 17732      35365465 
 17733              		.section	.data.rel.ro
 17734              		.align 8
 17737              	_ZTIN12_GLOBAL__N_148TestTestRunnerFixtureReporterNotifiedOfTestCountE:
 17738 00c0 00000000 		.quad	_ZTVN10__cxxabiv120__si_class_type_infoE+16
 17738      00000000 
 17739 00c8 00000000 		.quad	_ZTSN12_GLOBAL__N_148TestTestRunnerFixtureReporterNotifiedOfTestCountE
 17739      00000000 
 17740 00d0 00000000 		.quad	_ZTIN8UnitTest4TestE
 17740      00000000 
 17741              		.section	.rodata
 17742 026c 00000000 		.align 32
 17742      00000000 
 17742      00000000 
 17742      00000000 
 17742      00000000 
 17745              	_ZTSN12_GLOBAL__N_148TestTestRunnerFixtureReporterNotifiedOfTestCountE:
 17746 0280 2A4E3132 		.string	"*N12_GLOBAL__N_148TestTestRunnerFixtureReporterNotifiedOfTestCountE"
 17746      5F474C4F 
 17746      42414C5F 
 17746      5F4E5F31 
 17746      34385465 
 17747              		.section	.data.rel.ro
 17748              		.align 8
 17751              	_ZTIN12_GLOBAL__N_150TestTestRunnerFixtureReporterNotifiedOfFailedTestsE:
 17752 00d8 00000000 		.quad	_ZTVN10__cxxabiv120__si_class_type_infoE+16
 17752      00000000 
 17753 00e0 00000000 		.quad	_ZTSN12_GLOBAL__N_150TestTestRunnerFixtureReporterNotifiedOfFailedTestsE
 17753      00000000 
 17754 00e8 00000000 		.quad	_ZTIN8UnitTest4TestE
 17754      00000000 
 17755              		.section	.rodata
 17756 02c4 00000000 		.align 32
 17756      00000000 
 17756      00000000 
 17756      00000000 
 17756      00000000 
 17759              	_ZTSN12_GLOBAL__N_150TestTestRunnerFixtureReporterNotifiedOfFailedTestsE:
 17760 02e0 2A4E3132 		.string	"*N12_GLOBAL__N_150TestTestRunnerFixtureReporterNotifiedOfFailedTestsE"
 17760      5F474C4F 
 17760      42414C5F 
 17760      5F4E5F31 
 17760      35305465 
 17761              		.section	.data.rel.ro
 17762              		.align 8
 17765              	_ZTIN12_GLOBAL__N_147TestTestRunnerFixtureReporterNotifiedOfFailuresE:
 17766 00f0 00000000 		.quad	_ZTVN10__cxxabiv120__si_class_type_infoE+16
 17766      00000000 
 17767 00f8 00000000 		.quad	_ZTSN12_GLOBAL__N_147TestTestRunnerFixtureReporterNotifiedOfFailuresE
 17767      00000000 
 17768 0100 00000000 		.quad	_ZTIN8UnitTest4TestE
 17768      00000000 
 17769              		.section	.rodata
 17770 0326 00000000 		.align 32
 17770      00000000 
 17770      00000000 
 17770      00000000 
 17770      00000000 
 17773              	_ZTSN12_GLOBAL__N_147TestTestRunnerFixtureReporterNotifiedOfFailuresE:
 17774 0340 2A4E3132 		.string	"*N12_GLOBAL__N_147TestTestRunnerFixtureReporterNotifiedOfFailuresE"
 17774      5F474C4F 
 17774      42414C5F 
 17774      5F4E5F31 
 17774      34375465 
 17775              		.section	.data.rel.ro
 17776              		.align 8
 17779              	_ZTIN12_GLOBAL__N_155TestTestRunnerFixtureSlowTestPassesForHighTimeThresholdE:
 17780 0108 00000000 		.quad	_ZTVN10__cxxabiv120__si_class_type_infoE+16
 17780      00000000 
 17781 0110 00000000 		.quad	_ZTSN12_GLOBAL__N_155TestTestRunnerFixtureSlowTestPassesForHighTimeThresholdE
 17781      00000000 
 17782 0118 00000000 		.quad	_ZTIN8UnitTest4TestE
 17782      00000000 
 17783              		.section	.rodata
 17784 0383 00000000 		.align 32
 17784      00000000 
 17784      00000000 
 17784      00000000 
 17784      00000000 
 17787              	_ZTSN12_GLOBAL__N_155TestTestRunnerFixtureSlowTestPassesForHighTimeThresholdE:
 17788 03a0 2A4E3132 		.string	"*N12_GLOBAL__N_155TestTestRunnerFixtureSlowTestPassesForHighTimeThresholdE"
 17788      5F474C4F 
 17788      42414C5F 
 17788      5F4E5F31 
 17788      35355465 
 17789              		.section	.data.rel.ro
 17790              		.align 8
 17793              	_ZTIN12_GLOBAL__N_153TestTestRunnerFixtureSlowTestFailsForLowTimeThresholdE:
 17794 0120 00000000 		.quad	_ZTVN10__cxxabiv120__si_class_type_infoE+16
 17794      00000000 
 17795 0128 00000000 		.quad	_ZTSN12_GLOBAL__N_153TestTestRunnerFixtureSlowTestFailsForLowTimeThresholdE
 17795      00000000 
 17796 0130 00000000 		.quad	_ZTIN8UnitTest4TestE
 17796      00000000 
 17797              		.section	.rodata
 17798 03eb 00000000 		.align 32
 17798      00000000 
 17798      00000000 
 17798      00000000 
 17798      00000000 
 17801              	_ZTSN12_GLOBAL__N_153TestTestRunnerFixtureSlowTestFailsForLowTimeThresholdE:
 17802 0400 2A4E3132 		.string	"*N12_GLOBAL__N_153TestTestRunnerFixtureSlowTestFailsForLowTimeThresholdE"
 17802      5F474C4F 
 17802      42414C5F 
 17802      5F4E5F31 
 17802      35335465 
 17803              		.section	.data.rel.ro
 17804              		.align 8
 17807              	_ZTIN12_GLOBAL__N_157TestTestRunnerFixtureSlowTestHasCorrectFailureInformationE:
 17808 0138 00000000 		.quad	_ZTVN10__cxxabiv120__si_class_type_infoE+16
 17808      00000000 
 17809 0140 00000000 		.quad	_ZTSN12_GLOBAL__N_157TestTestRunnerFixtureSlowTestHasCorrectFailureInformationE
 17809      00000000 
 17810 0148 00000000 		.quad	_ZTIN8UnitTest4TestE
 17810      00000000 
 17811              		.section	.rodata
 17812 0449 00000000 		.align 32
 17812      00000000 
 17812      00000000 
 17812      00000000 
 17812      00000000 
 17815              	_ZTSN12_GLOBAL__N_157TestTestRunnerFixtureSlowTestHasCorrectFailureInformationE:
 17816 0460 2A4E3132 		.string	"*N12_GLOBAL__N_157TestTestRunnerFixtureSlowTestHasCorrectFailureInformationE"
 17816      5F474C4F 
 17816      42414C5F 
 17816      5F4E5F31 
 17816      35375465 
 17817              		.section	.data.rel.ro
 17818              		.align 8
 17821              	_ZTIN12_GLOBAL__N_152TestTestRunnerFixtureSlowTestWithTimeExemptionPassesE:
 17822 0150 00000000 		.quad	_ZTVN10__cxxabiv120__si_class_type_infoE+16
 17822      00000000 
 17823 0158 00000000 		.quad	_ZTSN12_GLOBAL__N_152TestTestRunnerFixtureSlowTestWithTimeExemptionPassesE
 17823      00000000 
 17824 0160 00000000 		.quad	_ZTIN8UnitTest4TestE
 17824      00000000 
 17825              		.section	.rodata
 17826 04ad 00000000 		.align 32
 17826      00000000 
 17826      00000000 
 17826      00000000 
 17826      000000
 17829              	_ZTSN12_GLOBAL__N_152TestTestRunnerFixtureSlowTestWithTimeExemptionPassesE:
 17830 04c0 2A4E3132 		.string	"*N12_GLOBAL__N_152TestTestRunnerFixtureSlowTestWithTimeExemptionPassesE"
 17830      5F474C4F 
 17830      42414C5F 
 17830      5F4E5F31 
 17830      35325465 
 17831              		.section	.data.rel.ro
 17832              		.align 8
 17835              	_ZTIZN12_GLOBAL__N_154TestRunnerFixtureSlowTestWithTimeExemptionPassesHelper7RunImplEvE16SlowExempt
 17836 0168 00000000 		.quad	_ZTVN10__cxxabiv120__si_class_type_infoE+16
 17836      00000000 
 17837 0170 00000000 		.quad	_ZTSZN12_GLOBAL__N_154TestRunnerFixtureSlowTestWithTimeExemptionPassesHelper7RunImplEvE16Slo
 17837      00000000 
 17838 0178 00000000 		.quad	_ZTIN8UnitTest4TestE
 17838      00000000 
 17839              		.section	.rodata
 17840 0508 00000000 		.align 32
 17840      00000000 
 17840      00000000 
 17840      00000000 
 17840      00000000 
 17843              	_ZTSZN12_GLOBAL__N_154TestRunnerFixtureSlowTestWithTimeExemptionPassesHelper7RunImplEvE16SlowExempt
 17844 0520 2A5A4E31 		.string	"*ZN12_GLOBAL__N_154TestRunnerFixtureSlowTestWithTimeExemptionPassesHelper7RunImplEvE16Slo
 17844      325F474C 
 17844      4F42414C 
 17844      5F5F4E5F 
 17844      31353454 
 17845              		.section	.data.rel.ro
 17846              		.align 8
 17849              	_ZTIN12_GLOBAL__N_162TestTestSuiteFixtureTestRunnerRunsAllSuitesIfNullSuiteIsPassedE:
 17850 0180 00000000 		.quad	_ZTVN10__cxxabiv120__si_class_type_infoE+16
 17850      00000000 
 17851 0188 00000000 		.quad	_ZTSN12_GLOBAL__N_162TestTestSuiteFixtureTestRunnerRunsAllSuitesIfNullSuiteIsPassedE
 17851      00000000 
 17852 0190 00000000 		.quad	_ZTIN8UnitTest4TestE
 17852      00000000 
 17853              		.section	.rodata
 17854 0587 00000000 		.align 32
 17854      00000000 
 17854      00000000 
 17854      00000000 
 17854      00000000 
 17857              	_ZTSN12_GLOBAL__N_162TestTestSuiteFixtureTestRunnerRunsAllSuitesIfNullSuiteIsPassedE:
 17858 05a0 2A4E3132 		.string	"*N12_GLOBAL__N_162TestTestSuiteFixtureTestRunnerRunsAllSuitesIfNullSuiteIsPassedE"
 17858      5F474C4F 
 17858      42414C5F 
 17858      5F4E5F31 
 17858      36325465 
 17859              		.section	.data.rel.ro
 17860              		.align 8
 17863              	_ZTIN12_GLOBAL__N_152TestTestSuiteFixtureTestRunnerRunsOnlySpecifiedSuiteE:
 17864 0198 00000000 		.quad	_ZTVN10__cxxabiv120__si_class_type_infoE+16
 17864      00000000 
 17865 01a0 00000000 		.quad	_ZTSN12_GLOBAL__N_152TestTestSuiteFixtureTestRunnerRunsOnlySpecifiedSuiteE
 17865      00000000 
 17866 01a8 00000000 		.quad	_ZTIN8UnitTest4TestE
 17866      00000000 
 17867              		.section	.rodata
 17868 05f2 00000000 		.align 32
 17868      00000000 
 17868      00000000 
 17868      0000
 17871              	_ZTSN12_GLOBAL__N_152TestTestSuiteFixtureTestRunnerRunsOnlySpecifiedSuiteE:
 17872 0600 2A4E3132 		.string	"*N12_GLOBAL__N_152TestTestSuiteFixtureTestRunnerRunsOnlySpecifiedSuiteE"
 17872      5F474C4F 
 17872      42414C5F 
 17872      5F4E5F31 
 17872      35325465 
 17873              		.section	.data.rel.ro
 17874              		.align 8
 17877              	_ZTIN12_GLOBAL__N_137TestTestMockPredicateBehavesCorrectlyE:
 17878 01b0 00000000 		.quad	_ZTVN10__cxxabiv120__si_class_type_infoE+16
 17878      00000000 
 17879 01b8 00000000 		.quad	_ZTSN12_GLOBAL__N_137TestTestMockPredicateBehavesCorrectlyE
 17879      00000000 
 17880 01c0 00000000 		.quad	_ZTIN8UnitTest4TestE
 17880      00000000 
 17881              		.section	.rodata
 17882 0648 00000000 		.align 32
 17882      00000000 
 17882      00000000 
 17882      00000000 
 17882      00000000 
 17885              	_ZTSN12_GLOBAL__N_137TestTestMockPredicateBehavesCorrectlyE:
 17886 0660 2A4E3132 		.string	"*N12_GLOBAL__N_137TestTestMockPredicateBehavesCorrectlyE"
 17886      5F474C4F 
 17886      42414C5F 
 17886      5F4E5F31 
 17886      33375465 
 17887              		.section	.data.rel.ro
 17888              		.align 8
 17891              	_ZTIN12_GLOBAL__N_157TestTestRunnerFixtureTestRunnerRunsTestsThatPassPredicateE:
 17892 01c8 00000000 		.quad	_ZTVN10__cxxabiv120__si_class_type_infoE+16
 17892      00000000 
 17893 01d0 00000000 		.quad	_ZTSN12_GLOBAL__N_157TestTestRunnerFixtureTestRunnerRunsTestsThatPassPredicateE
 17893      00000000 
 17894 01d8 00000000 		.quad	_ZTIN8UnitTest4TestE
 17894      00000000 
 17895              		.section	.rodata
 17896 0699 00000000 		.align 32
 17896      000000
 17899              	_ZTSN12_GLOBAL__N_157TestTestRunnerFixtureTestRunnerRunsTestsThatPassPredicateE:
 17900 06a0 2A4E3132 		.string	"*N12_GLOBAL__N_157TestTestRunnerFixtureTestRunnerRunsTestsThatPassPredicateE"
 17900      5F474C4F 
 17900      42414C5F 
 17900      5F4E5F31 
 17900      35375465 
 17901              		.section	.data.rel.ro
 17902              		.align 8
 17905              	_ZTIN12_GLOBAL__N_180TestTestRunnerFixtureTestRunnerOnlyRunsTestsInSpecifiedSuiteAndThatPassPredica
 17906 01e0 00000000 		.quad	_ZTVN10__cxxabiv120__si_class_type_infoE+16
 17906      00000000 
 17907 01e8 00000000 		.quad	_ZTSN12_GLOBAL__N_180TestTestRunnerFixtureTestRunnerOnlyRunsTestsInSpecifiedSuiteAndThatPass
 17907      00000000 
 17908 01f0 00000000 		.quad	_ZTIN8UnitTest4TestE
 17908      00000000 
 17909              		.section	.rodata
 17910 06ed 00000000 		.align 32
 17910      00000000 
 17910      00000000 
 17910      00000000 
 17910      000000
 17913              	_ZTSN12_GLOBAL__N_180TestTestRunnerFixtureTestRunnerOnlyRunsTestsInSpecifiedSuiteAndThatPassPredica
 17914 0700 2A4E3132 		.string	"*N12_GLOBAL__N_180TestTestRunnerFixtureTestRunnerOnlyRunsTestsInSpecifiedSuiteAndThatPass
 17914      5F474C4F 
 17914      42414C5F 
 17914      5F4E5F31 
 17914      38305465 
 17915              		.hidden	_ZTCN8UnitTest15MemoryOutStreamE0_So
 17916              		.weak	_ZTCN8UnitTest15MemoryOutStreamE0_So
 17917              		.section	.data.rel.ro._ZTCN8UnitTest15MemoryOutStreamE0_So,"awG",@progbits,_ZTVN8UnitTest15MemoryO
 17918              		.align 8
 17921              	_ZTCN8UnitTest15MemoryOutStreamE0_So:
 17922 0000 90000000 		.quad	144
 17922      00000000 
 17923 0008 00000000 		.quad	0
 17923      00000000 
 17924 0010 00000000 		.quad	_ZTISo
 17924      00000000 
 17925 0018 00000000 		.quad	0
 17925      00000000 
 17926 0020 00000000 		.quad	0
 17926      00000000 
 17927 0028 70FFFFFF 		.quad	-144
 17927      FFFFFFFF 
 17928 0030 70FFFFFF 		.quad	-144
 17928      FFFFFFFF 
 17929 0038 00000000 		.quad	_ZTISo
 17929      00000000 
 17930 0040 00000000 		.quad	0
 17930      00000000 
 17931 0048 00000000 		.quad	0
 17931      00000000 
 17932              		.hidden	_ZTCN8UnitTest15MemoryOutStreamE0_NSt7__cxx1119basic_ostringstreamIcSt11char_traitsIcESaIc
 17933              		.weak	_ZTCN8UnitTest15MemoryOutStreamE0_NSt7__cxx1119basic_ostringstreamIcSt11char_traitsIcESaIcEE
 17934              		.section	.data.rel.ro._ZTCN8UnitTest15MemoryOutStreamE0_NSt7__cxx1119basic_ostringstreamIcSt11char
 17935              		.align 8
 17938              	_ZTCN8UnitTest15MemoryOutStreamE0_NSt7__cxx1119basic_ostringstreamIcSt11char_traitsIcESaIcEEE:
 17939 0000 90000000 		.quad	144
 17939      00000000 
 17940 0008 00000000 		.quad	0
 17940      00000000 
 17941 0010 00000000 		.quad	_ZTINSt7__cxx1119basic_ostringstreamIcSt11char_traitsIcESaIcEEE
 17941      00000000 
 17942 0018 00000000 		.quad	0
 17942      00000000 
 17943 0020 00000000 		.quad	0
 17943      00000000 
 17944 0028 70FFFFFF 		.quad	-144
 17944      FFFFFFFF 
 17945 0030 70FFFFFF 		.quad	-144
 17945      FFFFFFFF 
 17946 0038 00000000 		.quad	_ZTINSt7__cxx1119basic_ostringstreamIcSt11char_traitsIcESaIcEEE
 17946      00000000 
 17947 0040 00000000 		.quad	0
 17947      00000000 
 17948 0048 00000000 		.quad	0
 17948      00000000 
 17949              		.weak	_ZTTN8UnitTest15MemoryOutStreamE
 17950              		.section	.data.rel.ro.local._ZTTN8UnitTest15MemoryOutStreamE,"awG",@progbits,_ZTVN8UnitTest15Memor
 17951              		.align 8
 17954              	_ZTTN8UnitTest15MemoryOutStreamE:
 17955 0000 00000000 		.quad	_ZTVN8UnitTest15MemoryOutStreamE+24
 17955      00000000 
 17956 0008 00000000 		.quad	_ZTCN8UnitTest15MemoryOutStreamE0_NSt7__cxx1119basic_ostringstreamIcSt11char_traitsIcESaIcEE
 17956      00000000 
 17957 0010 00000000 		.quad	_ZTCN8UnitTest15MemoryOutStreamE0_So+24
 17957      00000000 
 17958 0018 00000000 		.quad	_ZTCN8UnitTest15MemoryOutStreamE0_So+64
 17958      00000000 
 17959 0020 00000000 		.quad	_ZTCN8UnitTest15MemoryOutStreamE0_NSt7__cxx1119basic_ostringstreamIcSt11char_traitsIcESaIcEE
 17959      00000000 
 17960 0028 00000000 		.quad	_ZTVN8UnitTest15MemoryOutStreamE+64
 17960      00000000 
 17961              		.weak	_ZTVN8UnitTest15MemoryOutStreamE
 17962              		.section	.data.rel.ro.local._ZTVN8UnitTest15MemoryOutStreamE,"awG",@progbits,_ZTVN8UnitTest15Memor
 17963              		.align 8
 17966              	_ZTVN8UnitTest15MemoryOutStreamE:
 17967 0000 90000000 		.quad	144
 17967      00000000 
 17968 0008 00000000 		.quad	0
 17968      00000000 
 17969 0010 00000000 		.quad	_ZTIN8UnitTest15MemoryOutStreamE
 17969      00000000 
 17970 0018 00000000 		.quad	_ZN8UnitTest15MemoryOutStreamD1Ev
 17970      00000000 
 17971 0020 00000000 		.quad	_ZN8UnitTest15MemoryOutStreamD0Ev
 17971      00000000 
 17972 0028 70FFFFFF 		.quad	-144
 17972      FFFFFFFF 
 17973 0030 70FFFFFF 		.quad	-144
 17973      FFFFFFFF 
 17974 0038 00000000 		.quad	_ZTIN8UnitTest15MemoryOutStreamE
 17974      00000000 
 17975 0040 00000000 		.quad	_ZTv0_n24_N8UnitTest15MemoryOutStreamD1Ev
 17975      00000000 
 17976 0048 00000000 		.quad	_ZTv0_n24_N8UnitTest15MemoryOutStreamD0Ev
 17976      00000000 
 17977              		.weak	_ZTV17RecordingReporter
 17978              		.section	.data.rel.ro.local._ZTV17RecordingReporter,"awG",@progbits,_ZTV17RecordingReporter,comdat
 17979              		.align 8
 17982              	_ZTV17RecordingReporter:
 17983 0000 00000000 		.quad	0
 17983      00000000 
 17984 0008 00000000 		.quad	_ZTI17RecordingReporter
 17984      00000000 
 17985 0010 00000000 		.quad	_ZN17RecordingReporterD1Ev
 17985      00000000 
 17986 0018 00000000 		.quad	_ZN17RecordingReporterD0Ev
 17986      00000000 
 17987 0020 00000000 		.quad	_ZN17RecordingReporter15ReportTestStartERKN8UnitTest11TestDetailsE
 17987      00000000 
 17988 0028 00000000 		.quad	_ZN17RecordingReporter13ReportFailureERKN8UnitTest11TestDetailsEPKc
 17988      00000000 
 17989 0030 00000000 		.quad	_ZN17RecordingReporter16ReportTestFinishERKN8UnitTest11TestDetailsEf
 17989      00000000 
 17990 0038 00000000 		.quad	_ZN17RecordingReporter13ReportSummaryEiiif
 17990      00000000 
 17991              		.section	.data.rel.ro.local,"aw",@progbits
 17992              		.align 8
 17995              	_ZTVN12_GLOBAL__N_18MockTestE:
 17996 0000 00000000 		.quad	0
 17996      00000000 
 17997 0008 00000000 		.quad	_ZTIN12_GLOBAL__N_18MockTestE
 17997      00000000 
 17998 0010 00000000 		.quad	_ZN12_GLOBAL__N_18MockTestD1Ev
 17998      00000000 
 17999 0018 00000000 		.quad	_ZN12_GLOBAL__N_18MockTestD0Ev
 17999      00000000 
 18000 0020 00000000 		.quad	_ZNK12_GLOBAL__N_18MockTest7RunImplEv
 18000      00000000 
 18001              		.align 8
 18004              	_ZTVN12_GLOBAL__N_149TestTestRunnerFixtureTestStartIsReportedCorrectlyE:
 18005 0028 00000000 		.quad	0
 18005      00000000 
 18006 0030 00000000 		.quad	_ZTIN12_GLOBAL__N_149TestTestRunnerFixtureTestStartIsReportedCorrectlyE
 18006      00000000 
 18007 0038 00000000 		.quad	_ZN12_GLOBAL__N_149TestTestRunnerFixtureTestStartIsReportedCorrectlyD1Ev
 18007      00000000 
 18008 0040 00000000 		.quad	_ZN12_GLOBAL__N_149TestTestRunnerFixtureTestStartIsReportedCorrectlyD0Ev
 18008      00000000 
 18009 0048 00000000 		.quad	_ZNK12_GLOBAL__N_149TestTestRunnerFixtureTestStartIsReportedCorrectly7RunImplEv
 18009      00000000 
 18010              		.align 8
 18013              	_ZTVN12_GLOBAL__N_150TestTestRunnerFixtureTestFinishIsReportedCorrectlyE:
 18014 0050 00000000 		.quad	0
 18014      00000000 
 18015 0058 00000000 		.quad	_ZTIN12_GLOBAL__N_150TestTestRunnerFixtureTestFinishIsReportedCorrectlyE
 18015      00000000 
 18016 0060 00000000 		.quad	_ZN12_GLOBAL__N_150TestTestRunnerFixtureTestFinishIsReportedCorrectlyD1Ev
 18016      00000000 
 18017 0068 00000000 		.quad	_ZN12_GLOBAL__N_150TestTestRunnerFixtureTestFinishIsReportedCorrectlyD0Ev
 18017      00000000 
 18018 0070 00000000 		.quad	_ZNK12_GLOBAL__N_150TestTestRunnerFixtureTestFinishIsReportedCorrectly7RunImplEv
 18018      00000000 
 18019              		.align 8
 18022              	_ZTVN12_GLOBAL__N_18SlowTestE:
 18023 0078 00000000 		.quad	0
 18023      00000000 
 18024 0080 00000000 		.quad	_ZTIN12_GLOBAL__N_18SlowTestE
 18024      00000000 
 18025 0088 00000000 		.quad	_ZN12_GLOBAL__N_18SlowTestD1Ev
 18025      00000000 
 18026 0090 00000000 		.quad	_ZN12_GLOBAL__N_18SlowTestD0Ev
 18026      00000000 
 18027 0098 00000000 		.quad	_ZNK12_GLOBAL__N_18SlowTest7RunImplEv
 18027      00000000 
 18028              		.align 8
 18031              	_ZTVN12_GLOBAL__N_154TestTestRunnerFixtureTestFinishIsCalledWithCorrectTimeE:
 18032 00a0 00000000 		.quad	0
 18032      00000000 
 18033 00a8 00000000 		.quad	_ZTIN12_GLOBAL__N_154TestTestRunnerFixtureTestFinishIsCalledWithCorrectTimeE
 18033      00000000 
 18034 00b0 00000000 		.quad	_ZN12_GLOBAL__N_154TestTestRunnerFixtureTestFinishIsCalledWithCorrectTimeD1Ev
 18034      00000000 
 18035 00b8 00000000 		.quad	_ZN12_GLOBAL__N_154TestTestRunnerFixtureTestFinishIsCalledWithCorrectTimeD0Ev
 18035      00000000 
 18036 00c0 00000000 		.quad	_ZNK12_GLOBAL__N_154TestTestRunnerFixtureTestFinishIsCalledWithCorrectTime7RunImplEv
 18036      00000000 
 18037              		.align 8
 18040              	_ZTVN12_GLOBAL__N_156TestTestRunnerFixtureFailureCountIsZeroWhenNoTestsAreRunE:
 18041 00c8 00000000 		.quad	0
 18041      00000000 
 18042 00d0 00000000 		.quad	_ZTIN12_GLOBAL__N_156TestTestRunnerFixtureFailureCountIsZeroWhenNoTestsAreRunE
 18042      00000000 
 18043 00d8 00000000 		.quad	_ZN12_GLOBAL__N_156TestTestRunnerFixtureFailureCountIsZeroWhenNoTestsAreRunD1Ev
 18043      00000000 
 18044 00e0 00000000 		.quad	_ZN12_GLOBAL__N_156TestTestRunnerFixtureFailureCountIsZeroWhenNoTestsAreRunD0Ev
 18044      00000000 
 18045 00e8 00000000 		.quad	_ZNK12_GLOBAL__N_156TestTestRunnerFixtureFailureCountIsZeroWhenNoTestsAreRun7RunImplEv
 18045      00000000 
 18046              		.align 8
 18049              	_ZTVN12_GLOBAL__N_157TestTestRunnerFixtureCallsReportFailureOncePerFailingTestE:
 18050 00f0 00000000 		.quad	0
 18050      00000000 
 18051 00f8 00000000 		.quad	_ZTIN12_GLOBAL__N_157TestTestRunnerFixtureCallsReportFailureOncePerFailingTestE
 18051      00000000 
 18052 0100 00000000 		.quad	_ZN12_GLOBAL__N_157TestTestRunnerFixtureCallsReportFailureOncePerFailingTestD1Ev
 18052      00000000 
 18053 0108 00000000 		.quad	_ZN12_GLOBAL__N_157TestTestRunnerFixtureCallsReportFailureOncePerFailingTestD0Ev
 18053      00000000 
 18054 0110 00000000 		.quad	_ZNK12_GLOBAL__N_157TestTestRunnerFixtureCallsReportFailureOncePerFailingTest7RunImplEv
 18054      00000000 
 18055              		.align 8
 18058              	_ZTVN12_GLOBAL__N_156TestTestRunnerFixtureTestsThatAssertAreReportedAsFailingE:
 18059 0118 00000000 		.quad	0
 18059      00000000 
 18060 0120 00000000 		.quad	_ZTIN12_GLOBAL__N_156TestTestRunnerFixtureTestsThatAssertAreReportedAsFailingE
 18060      00000000 
 18061 0128 00000000 		.quad	_ZN12_GLOBAL__N_156TestTestRunnerFixtureTestsThatAssertAreReportedAsFailingD1Ev
 18061      00000000 
 18062 0130 00000000 		.quad	_ZN12_GLOBAL__N_156TestTestRunnerFixtureTestsThatAssertAreReportedAsFailingD0Ev
 18062      00000000 
 18063 0138 00000000 		.quad	_ZNK12_GLOBAL__N_156TestTestRunnerFixtureTestsThatAssertAreReportedAsFailing7RunImplEv
 18063      00000000 
 18064              		.align 8
 18067              	_ZTVN12_GLOBAL__N_148TestTestRunnerFixtureReporterNotifiedOfTestCountE:
 18068 0140 00000000 		.quad	0
 18068      00000000 
 18069 0148 00000000 		.quad	_ZTIN12_GLOBAL__N_148TestTestRunnerFixtureReporterNotifiedOfTestCountE
 18069      00000000 
 18070 0150 00000000 		.quad	_ZN12_GLOBAL__N_148TestTestRunnerFixtureReporterNotifiedOfTestCountD1Ev
 18070      00000000 
 18071 0158 00000000 		.quad	_ZN12_GLOBAL__N_148TestTestRunnerFixtureReporterNotifiedOfTestCountD0Ev
 18071      00000000 
 18072 0160 00000000 		.quad	_ZNK12_GLOBAL__N_148TestTestRunnerFixtureReporterNotifiedOfTestCount7RunImplEv
 18072      00000000 
 18073              		.align 8
 18076              	_ZTVN12_GLOBAL__N_150TestTestRunnerFixtureReporterNotifiedOfFailedTestsE:
 18077 0168 00000000 		.quad	0
 18077      00000000 
 18078 0170 00000000 		.quad	_ZTIN12_GLOBAL__N_150TestTestRunnerFixtureReporterNotifiedOfFailedTestsE
 18078      00000000 
 18079 0178 00000000 		.quad	_ZN12_GLOBAL__N_150TestTestRunnerFixtureReporterNotifiedOfFailedTestsD1Ev
 18079      00000000 
 18080 0180 00000000 		.quad	_ZN12_GLOBAL__N_150TestTestRunnerFixtureReporterNotifiedOfFailedTestsD0Ev
 18080      00000000 
 18081 0188 00000000 		.quad	_ZNK12_GLOBAL__N_150TestTestRunnerFixtureReporterNotifiedOfFailedTests7RunImplEv
 18081      00000000 
 18082              		.align 8
 18085              	_ZTVN12_GLOBAL__N_147TestTestRunnerFixtureReporterNotifiedOfFailuresE:
 18086 0190 00000000 		.quad	0
 18086      00000000 
 18087 0198 00000000 		.quad	_ZTIN12_GLOBAL__N_147TestTestRunnerFixtureReporterNotifiedOfFailuresE
 18087      00000000 
 18088 01a0 00000000 		.quad	_ZN12_GLOBAL__N_147TestTestRunnerFixtureReporterNotifiedOfFailuresD1Ev
 18088      00000000 
 18089 01a8 00000000 		.quad	_ZN12_GLOBAL__N_147TestTestRunnerFixtureReporterNotifiedOfFailuresD0Ev
 18089      00000000 
 18090 01b0 00000000 		.quad	_ZNK12_GLOBAL__N_147TestTestRunnerFixtureReporterNotifiedOfFailures7RunImplEv
 18090      00000000 
 18091              		.align 8
 18094              	_ZTVN12_GLOBAL__N_155TestTestRunnerFixtureSlowTestPassesForHighTimeThresholdE:
 18095 01b8 00000000 		.quad	0
 18095      00000000 
 18096 01c0 00000000 		.quad	_ZTIN12_GLOBAL__N_155TestTestRunnerFixtureSlowTestPassesForHighTimeThresholdE
 18096      00000000 
 18097 01c8 00000000 		.quad	_ZN12_GLOBAL__N_155TestTestRunnerFixtureSlowTestPassesForHighTimeThresholdD1Ev
 18097      00000000 
 18098 01d0 00000000 		.quad	_ZN12_GLOBAL__N_155TestTestRunnerFixtureSlowTestPassesForHighTimeThresholdD0Ev
 18098      00000000 
 18099 01d8 00000000 		.quad	_ZNK12_GLOBAL__N_155TestTestRunnerFixtureSlowTestPassesForHighTimeThreshold7RunImplEv
 18099      00000000 
 18100              		.align 8
 18103              	_ZTVN12_GLOBAL__N_153TestTestRunnerFixtureSlowTestFailsForLowTimeThresholdE:
 18104 01e0 00000000 		.quad	0
 18104      00000000 
 18105 01e8 00000000 		.quad	_ZTIN12_GLOBAL__N_153TestTestRunnerFixtureSlowTestFailsForLowTimeThresholdE
 18105      00000000 
 18106 01f0 00000000 		.quad	_ZN12_GLOBAL__N_153TestTestRunnerFixtureSlowTestFailsForLowTimeThresholdD1Ev
 18106      00000000 
 18107 01f8 00000000 		.quad	_ZN12_GLOBAL__N_153TestTestRunnerFixtureSlowTestFailsForLowTimeThresholdD0Ev
 18107      00000000 
 18108 0200 00000000 		.quad	_ZNK12_GLOBAL__N_153TestTestRunnerFixtureSlowTestFailsForLowTimeThreshold7RunImplEv
 18108      00000000 
 18109              		.align 8
 18112              	_ZTVN12_GLOBAL__N_157TestTestRunnerFixtureSlowTestHasCorrectFailureInformationE:
 18113 0208 00000000 		.quad	0
 18113      00000000 
 18114 0210 00000000 		.quad	_ZTIN12_GLOBAL__N_157TestTestRunnerFixtureSlowTestHasCorrectFailureInformationE
 18114      00000000 
 18115 0218 00000000 		.quad	_ZN12_GLOBAL__N_157TestTestRunnerFixtureSlowTestHasCorrectFailureInformationD1Ev
 18115      00000000 
 18116 0220 00000000 		.quad	_ZN12_GLOBAL__N_157TestTestRunnerFixtureSlowTestHasCorrectFailureInformationD0Ev
 18116      00000000 
 18117 0228 00000000 		.quad	_ZNK12_GLOBAL__N_157TestTestRunnerFixtureSlowTestHasCorrectFailureInformation7RunImplEv
 18117      00000000 
 18118              		.align 8
 18121              	_ZTVN12_GLOBAL__N_152TestTestRunnerFixtureSlowTestWithTimeExemptionPassesE:
 18122 0230 00000000 		.quad	0
 18122      00000000 
 18123 0238 00000000 		.quad	_ZTIN12_GLOBAL__N_152TestTestRunnerFixtureSlowTestWithTimeExemptionPassesE
 18123      00000000 
 18124 0240 00000000 		.quad	_ZN12_GLOBAL__N_152TestTestRunnerFixtureSlowTestWithTimeExemptionPassesD1Ev
 18124      00000000 
 18125 0248 00000000 		.quad	_ZN12_GLOBAL__N_152TestTestRunnerFixtureSlowTestWithTimeExemptionPassesD0Ev
 18125      00000000 
 18126 0250 00000000 		.quad	_ZNK12_GLOBAL__N_152TestTestRunnerFixtureSlowTestWithTimeExemptionPasses7RunImplEv
 18126      00000000 
 18127              		.align 8
 18130              	_ZTVZN12_GLOBAL__N_154TestRunnerFixtureSlowTestWithTimeExemptionPassesHelper7RunImplEvE16SlowExempt
 18131 0258 00000000 		.quad	0
 18131      00000000 
 18132 0260 00000000 		.quad	_ZTIZN12_GLOBAL__N_154TestRunnerFixtureSlowTestWithTimeExemptionPassesHelper7RunImplEvE16Slo
 18132      00000000 
 18133 0268 00000000 		.quad	_ZZN12_GLOBAL__N_154TestRunnerFixtureSlowTestWithTimeExemptionPassesHelper7RunImplEvEN16Slow
 18133      00000000 
 18134 0270 00000000 		.quad	_ZZN12_GLOBAL__N_154TestRunnerFixtureSlowTestWithTimeExemptionPassesHelper7RunImplEvEN16Slow
 18134      00000000 
 18135 0278 00000000 		.quad	_ZZN12_GLOBAL__N_154TestRunnerFixtureSlowTestWithTimeExemptionPassesHelper7RunImplEvENK16Slo
 18135      00000000 
 18136              		.align 8
 18139              	_ZTVN12_GLOBAL__N_162TestTestSuiteFixtureTestRunnerRunsAllSuitesIfNullSuiteIsPassedE:
 18140 0280 00000000 		.quad	0
 18140      00000000 
 18141 0288 00000000 		.quad	_ZTIN12_GLOBAL__N_162TestTestSuiteFixtureTestRunnerRunsAllSuitesIfNullSuiteIsPassedE
 18141      00000000 
 18142 0290 00000000 		.quad	_ZN12_GLOBAL__N_162TestTestSuiteFixtureTestRunnerRunsAllSuitesIfNullSuiteIsPassedD1Ev
 18142      00000000 
 18143 0298 00000000 		.quad	_ZN12_GLOBAL__N_162TestTestSuiteFixtureTestRunnerRunsAllSuitesIfNullSuiteIsPassedD0Ev
 18143      00000000 
 18144 02a0 00000000 		.quad	_ZNK12_GLOBAL__N_162TestTestSuiteFixtureTestRunnerRunsAllSuitesIfNullSuiteIsPassed7RunImplEv
 18144      00000000 
 18145              		.align 8
 18148              	_ZTVN12_GLOBAL__N_152TestTestSuiteFixtureTestRunnerRunsOnlySpecifiedSuiteE:
 18149 02a8 00000000 		.quad	0
 18149      00000000 
 18150 02b0 00000000 		.quad	_ZTIN12_GLOBAL__N_152TestTestSuiteFixtureTestRunnerRunsOnlySpecifiedSuiteE
 18150      00000000 
 18151 02b8 00000000 		.quad	_ZN12_GLOBAL__N_152TestTestSuiteFixtureTestRunnerRunsOnlySpecifiedSuiteD1Ev
 18151      00000000 
 18152 02c0 00000000 		.quad	_ZN12_GLOBAL__N_152TestTestSuiteFixtureTestRunnerRunsOnlySpecifiedSuiteD0Ev
 18152      00000000 
 18153 02c8 00000000 		.quad	_ZNK12_GLOBAL__N_152TestTestSuiteFixtureTestRunnerRunsOnlySpecifiedSuite7RunImplEv
 18153      00000000 
 18154              		.align 8
 18157              	_ZTVN12_GLOBAL__N_137TestTestMockPredicateBehavesCorrectlyE:
 18158 02d0 00000000 		.quad	0
 18158      00000000 
 18159 02d8 00000000 		.quad	_ZTIN12_GLOBAL__N_137TestTestMockPredicateBehavesCorrectlyE
 18159      00000000 
 18160 02e0 00000000 		.quad	_ZN12_GLOBAL__N_137TestTestMockPredicateBehavesCorrectlyD1Ev
 18160      00000000 
 18161 02e8 00000000 		.quad	_ZN12_GLOBAL__N_137TestTestMockPredicateBehavesCorrectlyD0Ev
 18161      00000000 
 18162 02f0 00000000 		.quad	_ZNK12_GLOBAL__N_137TestTestMockPredicateBehavesCorrectly7RunImplEv
 18162      00000000 
 18163              		.align 8
 18166              	_ZTVN12_GLOBAL__N_157TestTestRunnerFixtureTestRunnerRunsTestsThatPassPredicateE:
 18167 02f8 00000000 		.quad	0
 18167      00000000 
 18168 0300 00000000 		.quad	_ZTIN12_GLOBAL__N_157TestTestRunnerFixtureTestRunnerRunsTestsThatPassPredicateE
 18168      00000000 
 18169 0308 00000000 		.quad	_ZN12_GLOBAL__N_157TestTestRunnerFixtureTestRunnerRunsTestsThatPassPredicateD1Ev
 18169      00000000 
 18170 0310 00000000 		.quad	_ZN12_GLOBAL__N_157TestTestRunnerFixtureTestRunnerRunsTestsThatPassPredicateD0Ev
 18170      00000000 
 18171 0318 00000000 		.quad	_ZNK12_GLOBAL__N_157TestTestRunnerFixtureTestRunnerRunsTestsThatPassPredicate7RunImplEv
 18171      00000000 
 18172              		.align 8
 18175              	_ZTVN12_GLOBAL__N_180TestTestRunnerFixtureTestRunnerOnlyRunsTestsInSpecifiedSuiteAndThatPassPredica
 18176 0320 00000000 		.quad	0
 18176      00000000 
 18177 0328 00000000 		.quad	_ZTIN12_GLOBAL__N_180TestTestRunnerFixtureTestRunnerOnlyRunsTestsInSpecifiedSuiteAndThatPass
 18177      00000000 
 18178 0330 00000000 		.quad	_ZN12_GLOBAL__N_180TestTestRunnerFixtureTestRunnerOnlyRunsTestsInSpecifiedSuiteAndThatPassPr
 18178      00000000 
 18179 0338 00000000 		.quad	_ZN12_GLOBAL__N_180TestTestRunnerFixtureTestRunnerOnlyRunsTestsInSpecifiedSuiteAndThatPassPr
 18179      00000000 
 18180 0340 00000000 		.quad	_ZNK12_GLOBAL__N_180TestTestRunnerFixtureTestRunnerOnlyRunsTestsInSpecifiedSuiteAndThatPassP
 18180      00000000 
 18181              		.local	_ZN12_GLOBAL__N_181adderTestRunnerFixtureTestRunnerOnlyRunsTestsInSpecifiedSuiteAndThatPass
 18182              		.comm	_ZN12_GLOBAL__N_181adderTestRunnerFixtureTestRunnerOnlyRunsTestsInSpecifiedSuiteAndThatPassP
 18183              		.local	_ZN12_GLOBAL__N_188testTestRunnerFixtureTestRunnerOnlyRunsTestsInSpecifiedSuiteAndThatPassP
 18184              		.comm	_ZN12_GLOBAL__N_188testTestRunnerFixtureTestRunnerOnlyRunsTestsInSpecifiedSuiteAndThatPassPr
 18185              		.local	_ZN12_GLOBAL__N_158adderTestRunnerFixtureTestRunnerRunsTestsThatPassPredicateE
 18186              		.comm	_ZN12_GLOBAL__N_158adderTestRunnerFixtureTestRunnerRunsTestsThatPassPredicateE,1,1
 18187              		.local	_ZN12_GLOBAL__N_165testTestRunnerFixtureTestRunnerRunsTestsThatPassPredicateInstanceE
 18188              		.comm	_ZN12_GLOBAL__N_165testTestRunnerFixtureTestRunnerRunsTestsThatPassPredicateInstanceE,56,32
 18189              		.local	_ZN12_GLOBAL__N_138adderTestMockPredicateBehavesCorrectlyE
 18190              		.comm	_ZN12_GLOBAL__N_138adderTestMockPredicateBehavesCorrectlyE,1,1
 18191              		.local	_ZN12_GLOBAL__N_145testTestMockPredicateBehavesCorrectlyInstanceE
 18192              		.comm	_ZN12_GLOBAL__N_145testTestMockPredicateBehavesCorrectlyInstanceE,56,32
 18193              		.local	_ZN12_GLOBAL__N_153adderTestSuiteFixtureTestRunnerRunsOnlySpecifiedSuiteE
 18194              		.comm	_ZN12_GLOBAL__N_153adderTestSuiteFixtureTestRunnerRunsOnlySpecifiedSuiteE,1,1
 18195              		.local	_ZN12_GLOBAL__N_160testTestSuiteFixtureTestRunnerRunsOnlySpecifiedSuiteInstanceE
 18196              		.comm	_ZN12_GLOBAL__N_160testTestSuiteFixtureTestRunnerRunsOnlySpecifiedSuiteInstanceE,56,32
 18197              		.local	_ZN12_GLOBAL__N_163adderTestSuiteFixtureTestRunnerRunsAllSuitesIfNullSuiteIsPassedE
 18198              		.comm	_ZN12_GLOBAL__N_163adderTestSuiteFixtureTestRunnerRunsAllSuitesIfNullSuiteIsPassedE,1,1
 18199              		.local	_ZN12_GLOBAL__N_170testTestSuiteFixtureTestRunnerRunsAllSuitesIfNullSuiteIsPassedInstanceE
 18200              		.comm	_ZN12_GLOBAL__N_170testTestSuiteFixtureTestRunnerRunsAllSuitesIfNullSuiteIsPassedInstanceE,5
 18201              		.local	_ZN12_GLOBAL__N_153adderTestRunnerFixtureSlowTestWithTimeExemptionPassesE
 18202              		.comm	_ZN12_GLOBAL__N_153adderTestRunnerFixtureSlowTestWithTimeExemptionPassesE,1,1
 18203              		.local	_ZN12_GLOBAL__N_160testTestRunnerFixtureSlowTestWithTimeExemptionPassesInstanceE
 18204              		.comm	_ZN12_GLOBAL__N_160testTestRunnerFixtureSlowTestWithTimeExemptionPassesInstanceE,56,32
 18205              		.local	_ZN12_GLOBAL__N_158adderTestRunnerFixtureSlowTestHasCorrectFailureInformationE
 18206              		.comm	_ZN12_GLOBAL__N_158adderTestRunnerFixtureSlowTestHasCorrectFailureInformationE,1,1
 18207              		.local	_ZN12_GLOBAL__N_165testTestRunnerFixtureSlowTestHasCorrectFailureInformationInstanceE
 18208              		.comm	_ZN12_GLOBAL__N_165testTestRunnerFixtureSlowTestHasCorrectFailureInformationInstanceE,56,32
 18209              		.local	_ZN12_GLOBAL__N_154adderTestRunnerFixtureSlowTestFailsForLowTimeThresholdE
 18210              		.comm	_ZN12_GLOBAL__N_154adderTestRunnerFixtureSlowTestFailsForLowTimeThresholdE,1,1
 18211              		.local	_ZN12_GLOBAL__N_161testTestRunnerFixtureSlowTestFailsForLowTimeThresholdInstanceE
 18212              		.comm	_ZN12_GLOBAL__N_161testTestRunnerFixtureSlowTestFailsForLowTimeThresholdInstanceE,56,32
 18213              		.local	_ZN12_GLOBAL__N_156adderTestRunnerFixtureSlowTestPassesForHighTimeThresholdE
 18214              		.comm	_ZN12_GLOBAL__N_156adderTestRunnerFixtureSlowTestPassesForHighTimeThresholdE,1,1
 18215              		.local	_ZN12_GLOBAL__N_163testTestRunnerFixtureSlowTestPassesForHighTimeThresholdInstanceE
 18216              		.comm	_ZN12_GLOBAL__N_163testTestRunnerFixtureSlowTestPassesForHighTimeThresholdInstanceE,56,32
 18217              		.local	_ZN12_GLOBAL__N_148adderTestRunnerFixtureReporterNotifiedOfFailuresE
 18218              		.comm	_ZN12_GLOBAL__N_148adderTestRunnerFixtureReporterNotifiedOfFailuresE,1,1
 18219              		.local	_ZN12_GLOBAL__N_155testTestRunnerFixtureReporterNotifiedOfFailuresInstanceE
 18220              		.comm	_ZN12_GLOBAL__N_155testTestRunnerFixtureReporterNotifiedOfFailuresInstanceE,56,32
 18221              		.local	_ZN12_GLOBAL__N_151adderTestRunnerFixtureReporterNotifiedOfFailedTestsE
 18222              		.comm	_ZN12_GLOBAL__N_151adderTestRunnerFixtureReporterNotifiedOfFailedTestsE,1,1
 18223              		.local	_ZN12_GLOBAL__N_158testTestRunnerFixtureReporterNotifiedOfFailedTestsInstanceE
 18224              		.comm	_ZN12_GLOBAL__N_158testTestRunnerFixtureReporterNotifiedOfFailedTestsInstanceE,56,32
 18225              		.local	_ZN12_GLOBAL__N_149adderTestRunnerFixtureReporterNotifiedOfTestCountE
 18226              		.comm	_ZN12_GLOBAL__N_149adderTestRunnerFixtureReporterNotifiedOfTestCountE,1,1
 18227              		.local	_ZN12_GLOBAL__N_156testTestRunnerFixtureReporterNotifiedOfTestCountInstanceE
 18228              		.comm	_ZN12_GLOBAL__N_156testTestRunnerFixtureReporterNotifiedOfTestCountInstanceE,56,32
 18229              		.local	_ZN12_GLOBAL__N_157adderTestRunnerFixtureTestsThatAssertAreReportedAsFailingE
 18230              		.comm	_ZN12_GLOBAL__N_157adderTestRunnerFixtureTestsThatAssertAreReportedAsFailingE,1,1
 18231              		.local	_ZN12_GLOBAL__N_164testTestRunnerFixtureTestsThatAssertAreReportedAsFailingInstanceE
 18232              		.comm	_ZN12_GLOBAL__N_164testTestRunnerFixtureTestsThatAssertAreReportedAsFailingInstanceE,56,32
 18233              		.local	_ZN12_GLOBAL__N_158adderTestRunnerFixtureCallsReportFailureOncePerFailingTestE
 18234              		.comm	_ZN12_GLOBAL__N_158adderTestRunnerFixtureCallsReportFailureOncePerFailingTestE,1,1
 18235              		.local	_ZN12_GLOBAL__N_165testTestRunnerFixtureCallsReportFailureOncePerFailingTestInstanceE
 18236              		.comm	_ZN12_GLOBAL__N_165testTestRunnerFixtureCallsReportFailureOncePerFailingTestInstanceE,56,32
 18237              		.local	_ZN12_GLOBAL__N_157adderTestRunnerFixtureFailureCountIsZeroWhenNoTestsAreRunE
 18238              		.comm	_ZN12_GLOBAL__N_157adderTestRunnerFixtureFailureCountIsZeroWhenNoTestsAreRunE,1,1
 18239              		.local	_ZN12_GLOBAL__N_164testTestRunnerFixtureFailureCountIsZeroWhenNoTestsAreRunInstanceE
 18240              		.comm	_ZN12_GLOBAL__N_164testTestRunnerFixtureFailureCountIsZeroWhenNoTestsAreRunInstanceE,56,32
 18241              		.local	_ZN12_GLOBAL__N_155adderTestRunnerFixtureTestFinishIsCalledWithCorrectTimeE
 18242              		.comm	_ZN12_GLOBAL__N_155adderTestRunnerFixtureTestFinishIsCalledWithCorrectTimeE,1,1
 18243              		.local	_ZN12_GLOBAL__N_162testTestRunnerFixtureTestFinishIsCalledWithCorrectTimeInstanceE
 18244              		.comm	_ZN12_GLOBAL__N_162testTestRunnerFixtureTestFinishIsCalledWithCorrectTimeInstanceE,56,32
 18245              		.local	_ZN12_GLOBAL__N_151adderTestRunnerFixtureTestFinishIsReportedCorrectlyE
 18246              		.comm	_ZN12_GLOBAL__N_151adderTestRunnerFixtureTestFinishIsReportedCorrectlyE,1,1
 18247              		.local	_ZN12_GLOBAL__N_158testTestRunnerFixtureTestFinishIsReportedCorrectlyInstanceE
 18248              		.comm	_ZN12_GLOBAL__N_158testTestRunnerFixtureTestFinishIsReportedCorrectlyInstanceE,56,32
 18249              		.local	_ZN12_GLOBAL__N_150adderTestRunnerFixtureTestStartIsReportedCorrectlyE
 18250              		.comm	_ZN12_GLOBAL__N_150adderTestRunnerFixtureTestStartIsReportedCorrectlyE,1,1
 18251              		.local	_ZN12_GLOBAL__N_157testTestRunnerFixtureTestStartIsReportedCorrectlyInstanceE
 18252              		.comm	_ZN12_GLOBAL__N_157testTestRunnerFixtureTestStartIsReportedCorrectlyInstanceE,56,32
 18253              		.section	.rodata.cst4,"aM",@progbits,4
 18254              		.align 4
 18255              	.LC7:
 18256 0000 0AD7A33B 		.long	1000593162
 18257              		.align 4
 18258              	.LC8:
 18259 0004 CDCC4C3D 		.long	1028443341
 18260              		.section	.data.rel.ro.local
 18261              		.align 8
 18262              	.LC17:
 18263 0348 00000000 		.quad	_ZTCN8UnitTest15MemoryOutStreamE0_NSt7__cxx1119basic_ostringstreamIcSt11char_traitsIcESaIcEE
 18263      00000000 
 18264              		.section	.data.rel.ro
 18265              		.align 8
 18266              	.LC18:
 18267 01f8 00000000 		.quad	_ZTVNSt7__cxx1115basic_stringbufIcSt11char_traitsIcESaIcEEE+16
 18267      00000000 
 18268              		.hidden	DW.ref._ZTIN8UnitTest15AssertExceptionE
 18269              		.weak	DW.ref._ZTIN8UnitTest15AssertExceptionE
 18270              		.section	.data.DW.ref._ZTIN8UnitTest15AssertExceptionE,"awG",@progbits,DW.ref._ZTIN8UnitTest15Asse
 18271              		.align 8
 18274              	DW.ref._ZTIN8UnitTest15AssertExceptionE:
 18275 0000 00000000 		.quad	_ZTIN8UnitTest15AssertExceptionE
 18275      00000000 
 18276              		.hidden	DW.ref._ZTISt9exception
 18277              		.weak	DW.ref._ZTISt9exception
 18278              		.section	.data.DW.ref._ZTISt9exception,"awG",@progbits,DW.ref._ZTISt9exception,comdat
 18279              		.align 8
 18282              	DW.ref._ZTISt9exception:
 18283 0000 00000000 		.quad	_ZTISt9exception
 18283      00000000 
 18284              		.hidden	DW.ref.__gxx_personality_v0
 18285              		.weak	DW.ref.__gxx_personality_v0
 18286              		.section	.data.DW.ref.__gxx_personality_v0,"awG",@progbits,DW.ref.__gxx_personality_v0,comdat
 18287              		.align 8
 18290              	DW.ref.__gxx_personality_v0:
 18291 0000 00000000 		.quad	__gxx_personality_v0
 18291      00000000 
 18292              		.hidden	__dso_handle
 18293              		.ident	"GCC: (Ubuntu 7.2.0-8ubuntu3.2) 7.2.0"
 18294              		.section	.note.GNU-stack,"",@progbits
DEFINED SYMBOLS
                            *ABS*:0000000000000000 TestTestRunner.cpp
     /tmp/ccMzUrlx.s:7      .text._ZN17RecordingReporter13ReportSummaryEiiif:0000000000000000 _ZN17RecordingReporter13ReportSummaryEiiif
     /tmp/ccMzUrlx.s:22     .text:0000000000000000 _ZN12_GLOBAL__N_180TestTestRunnerFixtureTestRunnerOnlyRunsTestsInSpecifiedSuiteAndThatPassPredicateD2Ev
     /tmp/ccMzUrlx.s:18175  .data.rel.ro.local:0000000000000320 _ZTVN12_GLOBAL__N_180TestTestRunnerFixtureTestRunnerOnlyRunsTestsInSpecifiedSuiteAndThatPassPredicateE
     /tmp/ccMzUrlx.s:22     .text:0000000000000000 _ZN12_GLOBAL__N_180TestTestRunnerFixtureTestRunnerOnlyRunsTestsInSpecifiedSuiteAndThatPassPredicateD1Ev
     /tmp/ccMzUrlx.s:35     .text:0000000000000010 _ZN12_GLOBAL__N_157TestTestRunnerFixtureTestRunnerRunsTestsThatPassPredicateD2Ev
     /tmp/ccMzUrlx.s:18166  .data.rel.ro.local:00000000000002f8 _ZTVN12_GLOBAL__N_157TestTestRunnerFixtureTestRunnerRunsTestsThatPassPredicateE
     /tmp/ccMzUrlx.s:35     .text:0000000000000010 _ZN12_GLOBAL__N_157TestTestRunnerFixtureTestRunnerRunsTestsThatPassPredicateD1Ev
     /tmp/ccMzUrlx.s:48     .text:0000000000000020 _ZN12_GLOBAL__N_137TestTestMockPredicateBehavesCorrectlyD2Ev
     /tmp/ccMzUrlx.s:18157  .data.rel.ro.local:00000000000002d0 _ZTVN12_GLOBAL__N_137TestTestMockPredicateBehavesCorrectlyE
     /tmp/ccMzUrlx.s:48     .text:0000000000000020 _ZN12_GLOBAL__N_137TestTestMockPredicateBehavesCorrectlyD1Ev
     /tmp/ccMzUrlx.s:61     .text:0000000000000030 _ZN12_GLOBAL__N_152TestTestSuiteFixtureTestRunnerRunsOnlySpecifiedSuiteD2Ev
     /tmp/ccMzUrlx.s:18148  .data.rel.ro.local:00000000000002a8 _ZTVN12_GLOBAL__N_152TestTestSuiteFixtureTestRunnerRunsOnlySpecifiedSuiteE
     /tmp/ccMzUrlx.s:61     .text:0000000000000030 _ZN12_GLOBAL__N_152TestTestSuiteFixtureTestRunnerRunsOnlySpecifiedSuiteD1Ev
     /tmp/ccMzUrlx.s:74     .text:0000000000000040 _ZN12_GLOBAL__N_162TestTestSuiteFixtureTestRunnerRunsAllSuitesIfNullSuiteIsPassedD2Ev
     /tmp/ccMzUrlx.s:18139  .data.rel.ro.local:0000000000000280 _ZTVN12_GLOBAL__N_162TestTestSuiteFixtureTestRunnerRunsAllSuitesIfNullSuiteIsPassedE
     /tmp/ccMzUrlx.s:74     .text:0000000000000040 _ZN12_GLOBAL__N_162TestTestSuiteFixtureTestRunnerRunsAllSuitesIfNullSuiteIsPassedD1Ev
     /tmp/ccMzUrlx.s:87     .text:0000000000000050 _ZN12_GLOBAL__N_152TestTestRunnerFixtureSlowTestWithTimeExemptionPassesD2Ev
     /tmp/ccMzUrlx.s:18121  .data.rel.ro.local:0000000000000230 _ZTVN12_GLOBAL__N_152TestTestRunnerFixtureSlowTestWithTimeExemptionPassesE
     /tmp/ccMzUrlx.s:87     .text:0000000000000050 _ZN12_GLOBAL__N_152TestTestRunnerFixtureSlowTestWithTimeExemptionPassesD1Ev
     /tmp/ccMzUrlx.s:100    .text:0000000000000060 _ZZN12_GLOBAL__N_154TestRunnerFixtureSlowTestWithTimeExemptionPassesHelper7RunImplEvEN16SlowExemptedTestD2Ev
     /tmp/ccMzUrlx.s:18130  .data.rel.ro.local:0000000000000258 _ZTVZN12_GLOBAL__N_154TestRunnerFixtureSlowTestWithTimeExemptionPassesHelper7RunImplEvE16SlowExemptedTest
     /tmp/ccMzUrlx.s:100    .text:0000000000000060 _ZZN12_GLOBAL__N_154TestRunnerFixtureSlowTestWithTimeExemptionPassesHelper7RunImplEvEN16SlowExemptedTestD1Ev
     /tmp/ccMzUrlx.s:113    .text:0000000000000070 _ZN12_GLOBAL__N_157TestTestRunnerFixtureSlowTestHasCorrectFailureInformationD2Ev
     /tmp/ccMzUrlx.s:18112  .data.rel.ro.local:0000000000000208 _ZTVN12_GLOBAL__N_157TestTestRunnerFixtureSlowTestHasCorrectFailureInformationE
     /tmp/ccMzUrlx.s:113    .text:0000000000000070 _ZN12_GLOBAL__N_157TestTestRunnerFixtureSlowTestHasCorrectFailureInformationD1Ev
     /tmp/ccMzUrlx.s:126    .text:0000000000000080 _ZN12_GLOBAL__N_18SlowTestD2Ev
     /tmp/ccMzUrlx.s:18022  .data.rel.ro.local:0000000000000078 _ZTVN12_GLOBAL__N_18SlowTestE
     /tmp/ccMzUrlx.s:126    .text:0000000000000080 _ZN12_GLOBAL__N_18SlowTestD1Ev
     /tmp/ccMzUrlx.s:139    .text:0000000000000090 _ZN12_GLOBAL__N_153TestTestRunnerFixtureSlowTestFailsForLowTimeThresholdD2Ev
     /tmp/ccMzUrlx.s:18103  .data.rel.ro.local:00000000000001e0 _ZTVN12_GLOBAL__N_153TestTestRunnerFixtureSlowTestFailsForLowTimeThresholdE
     /tmp/ccMzUrlx.s:139    .text:0000000000000090 _ZN12_GLOBAL__N_153TestTestRunnerFixtureSlowTestFailsForLowTimeThresholdD1Ev
     /tmp/ccMzUrlx.s:152    .text:00000000000000a0 _ZN12_GLOBAL__N_155TestTestRunnerFixtureSlowTestPassesForHighTimeThresholdD2Ev
     /tmp/ccMzUrlx.s:18094  .data.rel.ro.local:00000000000001b8 _ZTVN12_GLOBAL__N_155TestTestRunnerFixtureSlowTestPassesForHighTimeThresholdE
     /tmp/ccMzUrlx.s:152    .text:00000000000000a0 _ZN12_GLOBAL__N_155TestTestRunnerFixtureSlowTestPassesForHighTimeThresholdD1Ev
     /tmp/ccMzUrlx.s:165    .text:00000000000000b0 _ZN12_GLOBAL__N_147TestTestRunnerFixtureReporterNotifiedOfFailuresD2Ev
     /tmp/ccMzUrlx.s:18085  .data.rel.ro.local:0000000000000190 _ZTVN12_GLOBAL__N_147TestTestRunnerFixtureReporterNotifiedOfFailuresE
     /tmp/ccMzUrlx.s:165    .text:00000000000000b0 _ZN12_GLOBAL__N_147TestTestRunnerFixtureReporterNotifiedOfFailuresD1Ev
     /tmp/ccMzUrlx.s:178    .text:00000000000000c0 _ZN12_GLOBAL__N_18MockTestD2Ev
     /tmp/ccMzUrlx.s:17995  .data.rel.ro.local:0000000000000000 _ZTVN12_GLOBAL__N_18MockTestE
     /tmp/ccMzUrlx.s:178    .text:00000000000000c0 _ZN12_GLOBAL__N_18MockTestD1Ev
     /tmp/ccMzUrlx.s:191    .text:00000000000000d0 _ZN12_GLOBAL__N_150TestTestRunnerFixtureReporterNotifiedOfFailedTestsD2Ev
     /tmp/ccMzUrlx.s:18076  .data.rel.ro.local:0000000000000168 _ZTVN12_GLOBAL__N_150TestTestRunnerFixtureReporterNotifiedOfFailedTestsE
     /tmp/ccMzUrlx.s:191    .text:00000000000000d0 _ZN12_GLOBAL__N_150TestTestRunnerFixtureReporterNotifiedOfFailedTestsD1Ev
     /tmp/ccMzUrlx.s:204    .text:00000000000000e0 _ZN12_GLOBAL__N_148TestTestRunnerFixtureReporterNotifiedOfTestCountD2Ev
     /tmp/ccMzUrlx.s:18067  .data.rel.ro.local:0000000000000140 _ZTVN12_GLOBAL__N_148TestTestRunnerFixtureReporterNotifiedOfTestCountE
     /tmp/ccMzUrlx.s:204    .text:00000000000000e0 _ZN12_GLOBAL__N_148TestTestRunnerFixtureReporterNotifiedOfTestCountD1Ev
     /tmp/ccMzUrlx.s:217    .text:00000000000000f0 _ZN12_GLOBAL__N_156TestTestRunnerFixtureTestsThatAssertAreReportedAsFailingD2Ev
     /tmp/ccMzUrlx.s:18058  .data.rel.ro.local:0000000000000118 _ZTVN12_GLOBAL__N_156TestTestRunnerFixtureTestsThatAssertAreReportedAsFailingE
     /tmp/ccMzUrlx.s:217    .text:00000000000000f0 _ZN12_GLOBAL__N_156TestTestRunnerFixtureTestsThatAssertAreReportedAsFailingD1Ev
     /tmp/ccMzUrlx.s:230    .text:0000000000000100 _ZN12_GLOBAL__N_157TestTestRunnerFixtureCallsReportFailureOncePerFailingTestD2Ev
     /tmp/ccMzUrlx.s:18049  .data.rel.ro.local:00000000000000f0 _ZTVN12_GLOBAL__N_157TestTestRunnerFixtureCallsReportFailureOncePerFailingTestE
     /tmp/ccMzUrlx.s:230    .text:0000000000000100 _ZN12_GLOBAL__N_157TestTestRunnerFixtureCallsReportFailureOncePerFailingTestD1Ev
     /tmp/ccMzUrlx.s:243    .text:0000000000000110 _ZN12_GLOBAL__N_156TestTestRunnerFixtureFailureCountIsZeroWhenNoTestsAreRunD2Ev
     /tmp/ccMzUrlx.s:18040  .data.rel.ro.local:00000000000000c8 _ZTVN12_GLOBAL__N_156TestTestRunnerFixtureFailureCountIsZeroWhenNoTestsAreRunE
     /tmp/ccMzUrlx.s:243    .text:0000000000000110 _ZN12_GLOBAL__N_156TestTestRunnerFixtureFailureCountIsZeroWhenNoTestsAreRunD1Ev
     /tmp/ccMzUrlx.s:256    .text:0000000000000120 _ZN12_GLOBAL__N_154TestTestRunnerFixtureTestFinishIsCalledWithCorrectTimeD2Ev
     /tmp/ccMzUrlx.s:18031  .data.rel.ro.local:00000000000000a0 _ZTVN12_GLOBAL__N_154TestTestRunnerFixtureTestFinishIsCalledWithCorrectTimeE
     /tmp/ccMzUrlx.s:256    .text:0000000000000120 _ZN12_GLOBAL__N_154TestTestRunnerFixtureTestFinishIsCalledWithCorrectTimeD1Ev
     /tmp/ccMzUrlx.s:269    .text:0000000000000130 _ZN12_GLOBAL__N_150TestTestRunnerFixtureTestFinishIsReportedCorrectlyD2Ev
     /tmp/ccMzUrlx.s:18013  .data.rel.ro.local:0000000000000050 _ZTVN12_GLOBAL__N_150TestTestRunnerFixtureTestFinishIsReportedCorrectlyE
     /tmp/ccMzUrlx.s:269    .text:0000000000000130 _ZN12_GLOBAL__N_150TestTestRunnerFixtureTestFinishIsReportedCorrectlyD1Ev
     /tmp/ccMzUrlx.s:282    .text:0000000000000140 _ZN12_GLOBAL__N_149TestTestRunnerFixtureTestStartIsReportedCorrectlyD2Ev
     /tmp/ccMzUrlx.s:18004  .data.rel.ro.local:0000000000000028 _ZTVN12_GLOBAL__N_149TestTestRunnerFixtureTestStartIsReportedCorrectlyE
     /tmp/ccMzUrlx.s:282    .text:0000000000000140 _ZN12_GLOBAL__N_149TestTestRunnerFixtureTestStartIsReportedCorrectlyD1Ev
     /tmp/ccMzUrlx.s:297    .text._ZN17RecordingReporter15ReportTestStartERKN8UnitTest11TestDetailsE:0000000000000000 _ZN17RecordingReporter15ReportTestStartERKN8UnitTest11TestDetailsE
     /tmp/ccMzUrlx.s:333    .text._ZN17RecordingReporter13ReportFailureERKN8UnitTest11TestDetailsEPKc:0000000000000000 _ZN17RecordingReporter13ReportFailureERKN8UnitTest11TestDetailsEPKc
     /tmp/ccMzUrlx.s:381    .text._ZN17RecordingReporter16ReportTestFinishERKN8UnitTest11TestDetailsEf:0000000000000000 _ZN17RecordingReporter16ReportTestFinishERKN8UnitTest11TestDetailsEf
     /tmp/ccMzUrlx.s:420    .text:0000000000000150 _ZN12_GLOBAL__N_180TestTestRunnerFixtureTestRunnerOnlyRunsTestsInSpecifiedSuiteAndThatPassPredicateD0Ev
     /tmp/ccMzUrlx.s:18290  .data.DW.ref.__gxx_personality_v0:0000000000000000 DW.ref.__gxx_personality_v0
     /tmp/ccMzUrlx.s:481    .text:0000000000000190 _ZN12_GLOBAL__N_157TestTestRunnerFixtureTestRunnerRunsTestsThatPassPredicateD0Ev
     /tmp/ccMzUrlx.s:541    .text:00000000000001d0 _ZN12_GLOBAL__N_137TestTestMockPredicateBehavesCorrectlyD0Ev
     /tmp/ccMzUrlx.s:601    .text:0000000000000210 _ZN12_GLOBAL__N_152TestTestSuiteFixtureTestRunnerRunsOnlySpecifiedSuiteD0Ev
     /tmp/ccMzUrlx.s:661    .text:0000000000000250 _ZN12_GLOBAL__N_162TestTestSuiteFixtureTestRunnerRunsAllSuitesIfNullSuiteIsPassedD0Ev
     /tmp/ccMzUrlx.s:721    .text:0000000000000290 _ZZN12_GLOBAL__N_154TestRunnerFixtureSlowTestWithTimeExemptionPassesHelper7RunImplEvEN16SlowExemptedTestD0Ev
     /tmp/ccMzUrlx.s:781    .text:00000000000002d0 _ZN12_GLOBAL__N_152TestTestRunnerFixtureSlowTestWithTimeExemptionPassesD0Ev
     /tmp/ccMzUrlx.s:841    .text:0000000000000310 _ZN12_GLOBAL__N_18SlowTestD0Ev
     /tmp/ccMzUrlx.s:901    .text:0000000000000350 _ZN12_GLOBAL__N_157TestTestRunnerFixtureSlowTestHasCorrectFailureInformationD0Ev
     /tmp/ccMzUrlx.s:961    .text:0000000000000390 _ZN12_GLOBAL__N_153TestTestRunnerFixtureSlowTestFailsForLowTimeThresholdD0Ev
     /tmp/ccMzUrlx.s:1021   .text:00000000000003d0 _ZN12_GLOBAL__N_155TestTestRunnerFixtureSlowTestPassesForHighTimeThresholdD0Ev
     /tmp/ccMzUrlx.s:1081   .text:0000000000000410 _ZN12_GLOBAL__N_18MockTestD0Ev
     /tmp/ccMzUrlx.s:1141   .text:0000000000000450 _ZN12_GLOBAL__N_147TestTestRunnerFixtureReporterNotifiedOfFailuresD0Ev
     /tmp/ccMzUrlx.s:1201   .text:0000000000000490 _ZN12_GLOBAL__N_150TestTestRunnerFixtureReporterNotifiedOfFailedTestsD0Ev
     /tmp/ccMzUrlx.s:1261   .text:00000000000004d0 _ZN12_GLOBAL__N_148TestTestRunnerFixtureReporterNotifiedOfTestCountD0Ev
     /tmp/ccMzUrlx.s:1321   .text:0000000000000510 _ZN12_GLOBAL__N_156TestTestRunnerFixtureTestsThatAssertAreReportedAsFailingD0Ev
     /tmp/ccMzUrlx.s:1381   .text:0000000000000550 _ZN12_GLOBAL__N_157TestTestRunnerFixtureCallsReportFailureOncePerFailingTestD0Ev
     /tmp/ccMzUrlx.s:1441   .text:0000000000000590 _ZN12_GLOBAL__N_156TestTestRunnerFixtureFailureCountIsZeroWhenNoTestsAreRunD0Ev
     /tmp/ccMzUrlx.s:1501   .text:00000000000005d0 _ZN12_GLOBAL__N_154TestTestRunnerFixtureTestFinishIsCalledWithCorrectTimeD0Ev
     /tmp/ccMzUrlx.s:1561   .text:0000000000000610 _ZN12_GLOBAL__N_150TestTestRunnerFixtureTestFinishIsReportedCorrectlyD0Ev
     /tmp/ccMzUrlx.s:1621   .text:0000000000000650 _ZN12_GLOBAL__N_149TestTestRunnerFixtureTestStartIsReportedCorrectlyD0Ev
     /tmp/ccMzUrlx.s:1683   .text._ZN17RecordingReporterD2Ev:0000000000000000 _ZN17RecordingReporterD2Ev
     /tmp/ccMzUrlx.s:17982  .data.rel.ro.local._ZTV17RecordingReporter:0000000000000000 _ZTV17RecordingReporter
     /tmp/ccMzUrlx.s:1683   .text._ZN17RecordingReporterD2Ev:0000000000000000 _ZN17RecordingReporterD1Ev
     /tmp/ccMzUrlx.s:1699   .text._ZN17RecordingReporterD0Ev:0000000000000000 _ZN17RecordingReporterD0Ev
     /tmp/ccMzUrlx.s:1759   .text.unlikely:0000000000000000 _ZN12_GLOBAL__N_111FixtureBaseD2Ev
     /tmp/ccMzUrlx.s:1827   .text:0000000000000690 _ZZN12_GLOBAL__N_154TestRunnerFixtureSlowTestWithTimeExemptionPassesHelper7RunImplEvENK16SlowExemptedTest7RunImplEv
     /tmp/ccMzUrlx.s:1839   .text:00000000000006a0 _ZNK12_GLOBAL__N_18SlowTest7RunImplEv
     /tmp/ccMzUrlx.s:1858   .text:00000000000006b0 _ZNK12_GLOBAL__N_18MockTest7RunImplEv
     /tmp/ccMzUrlx.s:1935   .text._ZN8UnitTest15MemoryOutStreamD1Ev:0000000000000000 _ZN8UnitTest15MemoryOutStreamD1Ev
     /tmp/ccMzUrlx.s:17966  .data.rel.ro.local._ZTVN8UnitTest15MemoryOutStreamE:0000000000000000 _ZTVN8UnitTest15MemoryOutStreamE
     /tmp/ccMzUrlx.s:17938  .data.rel.ro._ZTCN8UnitTest15MemoryOutStreamE0_NSt7__cxx1119basic_ostringstreamIcSt11char_traitsIcESaIcEEE:0000000000000000 _ZTCN8UnitTest15MemoryOutStreamE0_NSt7__cxx1119basic_ostringstreamIcSt11char_traitsIcESaIcEEE
     /tmp/ccMzUrlx.s:17921  .data.rel.ro._ZTCN8UnitTest15MemoryOutStreamE0_So:0000000000000000 _ZTCN8UnitTest15MemoryOutStreamE0_So
     /tmp/ccMzUrlx.s:1993   .text._ZN8UnitTest15MemoryOutStreamD0Ev:0000000000000000 _ZTv0_n24_N8UnitTest15MemoryOutStreamD0Ev
     /tmp/ccMzUrlx.s:2086   .text._ZN8UnitTest15MemoryOutStreamD1Ev:00000000000000b0 _ZTv0_n24_N8UnitTest15MemoryOutStreamD1Ev
     /tmp/ccMzUrlx.s:2147   .text._ZN8UnitTest15MemoryOutStreamD0Ev:00000000000000d0 _ZN8UnitTest15MemoryOutStreamD0Ev
     /tmp/ccMzUrlx.s:2239   .text._ZNSt7__cxx1115basic_stringbufIcSt11char_traitsIcESaIcEED2Ev:0000000000000000 _ZNSt7__cxx1115basic_stringbufIcSt11char_traitsIcESaIcEED2Ev
     /tmp/ccMzUrlx.s:2239   .text._ZNSt7__cxx1115basic_stringbufIcSt11char_traitsIcESaIcEED2Ev:0000000000000000 _ZNSt7__cxx1115basic_stringbufIcSt11char_traitsIcESaIcEED1Ev
     /tmp/ccMzUrlx.s:2270   .text._ZN8UnitTest15MemoryOutStreamC1Ev:0000000000000000 _ZN8UnitTest15MemoryOutStreamC1Ev
     /tmp/ccMzUrlx.s:2426   .text:0000000000000730 _ZN8UnitTest11ExecuteTestIN12_GLOBAL__N_156TestRunnerFixtureTestFinishIsCalledWithCorrectTimeHelperEEEvRT_RKNS_11TestDetailsE
     /tmp/ccMzUrlx.s:18282  .data.DW.ref._ZTISt9exception:0000000000000000 DW.ref._ZTISt9exception
     /tmp/ccMzUrlx.s:18274  .data.DW.ref._ZTIN8UnitTest15AssertExceptionE:0000000000000000 DW.ref._ZTIN8UnitTest15AssertExceptionE
     /tmp/ccMzUrlx.s:2843   .text:0000000000000b00 _ZNK12_GLOBAL__N_154TestTestRunnerFixtureTestFinishIsCalledWithCorrectTime7RunImplEv
     /tmp/ccMzUrlx.s:3189   .text._ZNSt7__cxx1115basic_stringbufIcSt11char_traitsIcESaIcEED0Ev:0000000000000000 _ZNSt7__cxx1115basic_stringbufIcSt11char_traitsIcESaIcEED0Ev
     /tmp/ccMzUrlx.s:3224   .text._ZN8UnitTest10CheckEqualIiiEEvRNS_11TestResultsERKT_RKT0_RKNS_11TestDetailsE:0000000000000000 _ZN8UnitTest10CheckEqualIiiEEvRNS_11TestResultsERKT_RKT0_RKNS_11TestDetailsE
     /tmp/ccMzUrlx.s:3465   .text:0000000000000e20 _ZN8UnitTest11ExecuteTestIN12_GLOBAL__N_154TestSuiteFixtureTestRunnerRunsOnlySpecifiedSuiteHelperEEEvRT_RKNS_11TestDetailsE
     /tmp/ccMzUrlx.s:3890   .text:0000000000001220 _ZN8UnitTest11ExecuteTestIN12_GLOBAL__N_164TestSuiteFixtureTestRunnerRunsAllSuitesIfNullSuiteIsPassedHelperEEEvRT_RKNS_11TestDetailsE
     /tmp/ccMzUrlx.s:4267   .text:0000000000001570 _ZN8UnitTest11ExecuteTestIN12_GLOBAL__N_154TestRunnerFixtureSlowTestWithTimeExemptionPassesHelperEEEvRT_RKNS_11TestDetailsE
     /tmp/ccMzUrlx.s:4671   .text:0000000000001940 _ZNK12_GLOBAL__N_152TestTestRunnerFixtureSlowTestWithTimeExemptionPasses7RunImplEv
     /tmp/ccMzUrlx.s:5048   .text:0000000000001c60 _ZN8UnitTest11ExecuteTestIN12_GLOBAL__N_159TestRunnerFixtureSlowTestHasCorrectFailureInformationHelperEEEvRT_RKNS_11TestDetailsE
     /tmp/ccMzUrlx.s:5688   .text:0000000000002310 _ZNK12_GLOBAL__N_157TestTestRunnerFixtureSlowTestHasCorrectFailureInformation7RunImplEv
     /tmp/ccMzUrlx.s:6036   .text:0000000000002630 _ZN8UnitTest11ExecuteTestIN12_GLOBAL__N_155TestRunnerFixtureSlowTestFailsForLowTimeThresholdHelperEEEvRT_RKNS_11TestDetailsE
     /tmp/ccMzUrlx.s:6440   .text:0000000000002a10 _ZNK12_GLOBAL__N_153TestTestRunnerFixtureSlowTestFailsForLowTimeThreshold7RunImplEv
     /tmp/ccMzUrlx.s:6783   .text:0000000000002d30 _ZN8UnitTest11ExecuteTestIN12_GLOBAL__N_157TestRunnerFixtureSlowTestPassesForHighTimeThresholdHelperEEEvRT_RKNS_11TestDetailsE
     /tmp/ccMzUrlx.s:7187   .text:0000000000003110 _ZNK12_GLOBAL__N_155TestTestRunnerFixtureSlowTestPassesForHighTimeThreshold7RunImplEv
     /tmp/ccMzUrlx.s:7540   .text:0000000000003430 _ZN8UnitTest11ExecuteTestIN12_GLOBAL__N_149TestRunnerFixtureReporterNotifiedOfFailuresHelperEEEvRT_RKNS_11TestDetailsE
     /tmp/ccMzUrlx.s:8021   .text:0000000000003940 _ZNK12_GLOBAL__N_147TestTestRunnerFixtureReporterNotifiedOfFailures7RunImplEv
     /tmp/ccMzUrlx.s:8369   .text:0000000000003c60 _ZN8UnitTest11ExecuteTestIN12_GLOBAL__N_152TestRunnerFixtureReporterNotifiedOfFailedTestsHelperEEEvRT_RKNS_11TestDetailsE
     /tmp/ccMzUrlx.s:8850   .text:0000000000004170 _ZNK12_GLOBAL__N_150TestTestRunnerFixtureReporterNotifiedOfFailedTests7RunImplEv
     /tmp/ccMzUrlx.s:9198   .text:0000000000004490 _ZN8UnitTest11ExecuteTestIN12_GLOBAL__N_150TestRunnerFixtureReporterNotifiedOfTestCountHelperEEEvRT_RKNS_11TestDetailsE
     /tmp/ccMzUrlx.s:9679   .text:00000000000049a0 _ZNK12_GLOBAL__N_148TestTestRunnerFixtureReporterNotifiedOfTestCount7RunImplEv
     /tmp/ccMzUrlx.s:10022  .text:0000000000004cc0 _ZN8UnitTest11ExecuteTestIN12_GLOBAL__N_158TestRunnerFixtureTestsThatAssertAreReportedAsFailingHelperEEEvRT_RKNS_11TestDetailsE
     /tmp/ccMzUrlx.s:10429  .text:00000000000050b0 _ZNK12_GLOBAL__N_156TestTestRunnerFixtureTestsThatAssertAreReportedAsFailing7RunImplEv
     /tmp/ccMzUrlx.s:10780  .text:00000000000053d0 _ZN8UnitTest11ExecuteTestIN12_GLOBAL__N_159TestRunnerFixtureCallsReportFailureOncePerFailingTestHelperEEEvRT_RKNS_11TestDetailsE
     /tmp/ccMzUrlx.s:11315  .text:0000000000005990 _ZNK12_GLOBAL__N_157TestTestRunnerFixtureCallsReportFailureOncePerFailingTest7RunImplEv
     /tmp/ccMzUrlx.s:11666  .text:0000000000005cb0 _ZN8UnitTest11ExecuteTestIN12_GLOBAL__N_158TestRunnerFixtureFailureCountIsZeroWhenNoTestsAreRunHelperEEEvRT_RKNS_11TestDetailsE
     /tmp/ccMzUrlx.s:12142  .text:0000000000006150 _ZNK12_GLOBAL__N_156TestTestRunnerFixtureFailureCountIsZeroWhenNoTestsAreRun7RunImplEv
     /tmp/ccMzUrlx.s:12496  .text:0000000000006470 _ZN8UnitTest11ExecuteTestIN12_GLOBAL__N_152TestRunnerFixtureTestFinishIsReportedCorrectlyHelperEEEvRT_RKNS_11TestDetailsE
     /tmp/ccMzUrlx.s:12956  .text:0000000000006900 _ZNK12_GLOBAL__N_150TestTestRunnerFixtureTestFinishIsReportedCorrectly7RunImplEv
     /tmp/ccMzUrlx.s:13307  .text:0000000000006c20 _ZN8UnitTest11ExecuteTestIN12_GLOBAL__N_151TestRunnerFixtureTestStartIsReportedCorrectlyHelperEEEvRT_RKNS_11TestDetailsE
     /tmp/ccMzUrlx.s:13767  .text:00000000000070b0 _ZNK12_GLOBAL__N_149TestTestRunnerFixtureTestStartIsReportedCorrectly7RunImplEv
     /tmp/ccMzUrlx.s:14166  .text.startup:0000000000000000 _GLOBAL__sub_I_TestTestRunner.cpp
     /tmp/ccMzUrlx.s:18252  .bss:0000000000000460 _ZN12_GLOBAL__N_157testTestRunnerFixtureTestStartIsReportedCorrectlyInstanceE
     /tmp/ccMzUrlx.s:18248  .bss:0000000000000458 _ZN12_GLOBAL__N_150adderTestRunnerFixtureTestStartIsReportedCorrectlyE
     /tmp/ccMzUrlx.s:18248  .bss:0000000000000420 _ZN12_GLOBAL__N_158testTestRunnerFixtureTestFinishIsReportedCorrectlyInstanceE
     /tmp/ccMzUrlx.s:18244  .bss:0000000000000418 _ZN12_GLOBAL__N_151adderTestRunnerFixtureTestFinishIsReportedCorrectlyE
     /tmp/ccMzUrlx.s:18244  .bss:00000000000003e0 _ZN12_GLOBAL__N_162testTestRunnerFixtureTestFinishIsCalledWithCorrectTimeInstanceE
     /tmp/ccMzUrlx.s:18240  .bss:00000000000003d8 _ZN12_GLOBAL__N_155adderTestRunnerFixtureTestFinishIsCalledWithCorrectTimeE
     /tmp/ccMzUrlx.s:18240  .bss:00000000000003a0 _ZN12_GLOBAL__N_164testTestRunnerFixtureFailureCountIsZeroWhenNoTestsAreRunInstanceE
     /tmp/ccMzUrlx.s:18236  .bss:0000000000000398 _ZN12_GLOBAL__N_157adderTestRunnerFixtureFailureCountIsZeroWhenNoTestsAreRunE
     /tmp/ccMzUrlx.s:18236  .bss:0000000000000360 _ZN12_GLOBAL__N_165testTestRunnerFixtureCallsReportFailureOncePerFailingTestInstanceE
     /tmp/ccMzUrlx.s:18232  .bss:0000000000000358 _ZN12_GLOBAL__N_158adderTestRunnerFixtureCallsReportFailureOncePerFailingTestE
     /tmp/ccMzUrlx.s:18232  .bss:0000000000000320 _ZN12_GLOBAL__N_164testTestRunnerFixtureTestsThatAssertAreReportedAsFailingInstanceE
     /tmp/ccMzUrlx.s:18228  .bss:0000000000000318 _ZN12_GLOBAL__N_157adderTestRunnerFixtureTestsThatAssertAreReportedAsFailingE
     /tmp/ccMzUrlx.s:18228  .bss:00000000000002e0 _ZN12_GLOBAL__N_156testTestRunnerFixtureReporterNotifiedOfTestCountInstanceE
     /tmp/ccMzUrlx.s:18224  .bss:00000000000002d8 _ZN12_GLOBAL__N_149adderTestRunnerFixtureReporterNotifiedOfTestCountE
     /tmp/ccMzUrlx.s:18224  .bss:00000000000002a0 _ZN12_GLOBAL__N_158testTestRunnerFixtureReporterNotifiedOfFailedTestsInstanceE
     /tmp/ccMzUrlx.s:18220  .bss:0000000000000298 _ZN12_GLOBAL__N_151adderTestRunnerFixtureReporterNotifiedOfFailedTestsE
     /tmp/ccMzUrlx.s:18220  .bss:0000000000000260 _ZN12_GLOBAL__N_155testTestRunnerFixtureReporterNotifiedOfFailuresInstanceE
     /tmp/ccMzUrlx.s:18216  .bss:0000000000000258 _ZN12_GLOBAL__N_148adderTestRunnerFixtureReporterNotifiedOfFailuresE
     /tmp/ccMzUrlx.s:18216  .bss:0000000000000220 _ZN12_GLOBAL__N_163testTestRunnerFixtureSlowTestPassesForHighTimeThresholdInstanceE
     /tmp/ccMzUrlx.s:18212  .bss:0000000000000218 _ZN12_GLOBAL__N_156adderTestRunnerFixtureSlowTestPassesForHighTimeThresholdE
     /tmp/ccMzUrlx.s:18212  .bss:00000000000001e0 _ZN12_GLOBAL__N_161testTestRunnerFixtureSlowTestFailsForLowTimeThresholdInstanceE
     /tmp/ccMzUrlx.s:18208  .bss:00000000000001d8 _ZN12_GLOBAL__N_154adderTestRunnerFixtureSlowTestFailsForLowTimeThresholdE
     /tmp/ccMzUrlx.s:18208  .bss:00000000000001a0 _ZN12_GLOBAL__N_165testTestRunnerFixtureSlowTestHasCorrectFailureInformationInstanceE
     /tmp/ccMzUrlx.s:18204  .bss:0000000000000198 _ZN12_GLOBAL__N_158adderTestRunnerFixtureSlowTestHasCorrectFailureInformationE
     /tmp/ccMzUrlx.s:18204  .bss:0000000000000160 _ZN12_GLOBAL__N_160testTestRunnerFixtureSlowTestWithTimeExemptionPassesInstanceE
     /tmp/ccMzUrlx.s:18200  .bss:0000000000000158 _ZN12_GLOBAL__N_153adderTestRunnerFixtureSlowTestWithTimeExemptionPassesE
     /tmp/ccMzUrlx.s:18200  .bss:0000000000000120 _ZN12_GLOBAL__N_170testTestSuiteFixtureTestRunnerRunsAllSuitesIfNullSuiteIsPassedInstanceE
     /tmp/ccMzUrlx.s:18196  .bss:0000000000000118 _ZN12_GLOBAL__N_163adderTestSuiteFixtureTestRunnerRunsAllSuitesIfNullSuiteIsPassedE
     /tmp/ccMzUrlx.s:18196  .bss:00000000000000e0 _ZN12_GLOBAL__N_160testTestSuiteFixtureTestRunnerRunsOnlySpecifiedSuiteInstanceE
     /tmp/ccMzUrlx.s:18192  .bss:00000000000000d8 _ZN12_GLOBAL__N_153adderTestSuiteFixtureTestRunnerRunsOnlySpecifiedSuiteE
     /tmp/ccMzUrlx.s:18192  .bss:00000000000000a0 _ZN12_GLOBAL__N_145testTestMockPredicateBehavesCorrectlyInstanceE
     /tmp/ccMzUrlx.s:18188  .bss:0000000000000098 _ZN12_GLOBAL__N_138adderTestMockPredicateBehavesCorrectlyE
     /tmp/ccMzUrlx.s:18188  .bss:0000000000000060 _ZN12_GLOBAL__N_165testTestRunnerFixtureTestRunnerRunsTestsThatPassPredicateInstanceE
     /tmp/ccMzUrlx.s:18184  .bss:0000000000000058 _ZN12_GLOBAL__N_158adderTestRunnerFixtureTestRunnerRunsTestsThatPassPredicateE
     /tmp/ccMzUrlx.s:18184  .bss:0000000000000020 _ZN12_GLOBAL__N_188testTestRunnerFixtureTestRunnerOnlyRunsTestsInSpecifiedSuiteAndThatPassPredicateInstanceE
                             .bss:0000000000000000 _ZN12_GLOBAL__N_181adderTestRunnerFixtureTestRunnerOnlyRunsTestsInSpecifiedSuiteAndThatPassPredicateE
     /tmp/ccMzUrlx.s:14516  .text:00000000000073d0 _ZN8UnitTest11ExecuteTestIN12_GLOBAL__N_182TestRunnerFixtureTestRunnerOnlyRunsTestsInSpecifiedSuiteAndThatPassPredicateHelperEEEvRT_RKNS_11TestDetailsE
     /tmp/ccMzUrlx.s:15117  .text:00000000000079e0 _ZNK12_GLOBAL__N_180TestTestRunnerFixtureTestRunnerOnlyRunsTestsInSpecifiedSuiteAndThatPassPredicate7RunImplEv
     /tmp/ccMzUrlx.s:15460  .text:0000000000007d00 _ZN8UnitTest11ExecuteTestIN12_GLOBAL__N_159TestRunnerFixtureTestRunnerRunsTestsThatPassPredicateHelperEEEvRT_RKNS_11TestDetailsE
     /tmp/ccMzUrlx.s:15948  .text:00000000000081c0 _ZNK12_GLOBAL__N_157TestTestRunnerFixtureTestRunnerRunsTestsThatPassPredicate7RunImplEv
     /tmp/ccMzUrlx.s:16309  .text:00000000000084e0 _ZNK12_GLOBAL__N_137TestTestMockPredicateBehavesCorrectly7RunImplEv
     /tmp/ccMzUrlx.s:16558  .text.unlikely:000000000000003a _ZN12_GLOBAL__N_116TestSuiteFixtureD2Ev
     /tmp/ccMzUrlx.s:16698  .text:00000000000086e0 _ZNK12_GLOBAL__N_152TestTestSuiteFixtureTestRunnerRunsOnlySpecifiedSuite7RunImplEv
     /tmp/ccMzUrlx.s:17145  .text:0000000000008b30 _ZNK12_GLOBAL__N_162TestTestSuiteFixtureTestRunnerRunsAllSuitesIfNullSuiteIsPassed7RunImplEv
     /tmp/ccMzUrlx.s:17594  .rodata._ZTSN8UnitTest15MemoryOutStreamE:0000000000000000 _ZTSN8UnitTest15MemoryOutStreamE
     /tmp/ccMzUrlx.s:17601  .data.rel.ro._ZTIN8UnitTest15MemoryOutStreamE:0000000000000000 _ZTIN8UnitTest15MemoryOutStreamE
     /tmp/ccMzUrlx.s:17610  .rodata._ZTS17RecordingReporter:0000000000000000 _ZTS17RecordingReporter
     /tmp/ccMzUrlx.s:17617  .data.rel.ro._ZTI17RecordingReporter:0000000000000000 _ZTI17RecordingReporter
     /tmp/ccMzUrlx.s:17625  .data.rel.ro:0000000000000000 _ZTIN12_GLOBAL__N_18MockTestE
     /tmp/ccMzUrlx.s:17633  .rodata:0000000000000000 _ZTSN12_GLOBAL__N_18MockTestE
     /tmp/ccMzUrlx.s:17639  .data.rel.ro:0000000000000018 _ZTIN12_GLOBAL__N_149TestTestRunnerFixtureTestStartIsReportedCorrectlyE
     /tmp/ccMzUrlx.s:17647  .rodata:0000000000000020 _ZTSN12_GLOBAL__N_149TestTestRunnerFixtureTestStartIsReportedCorrectlyE
     /tmp/ccMzUrlx.s:17653  .data.rel.ro:0000000000000030 _ZTIN12_GLOBAL__N_150TestTestRunnerFixtureTestFinishIsReportedCorrectlyE
     /tmp/ccMzUrlx.s:17661  .rodata:0000000000000080 _ZTSN12_GLOBAL__N_150TestTestRunnerFixtureTestFinishIsReportedCorrectlyE
     /tmp/ccMzUrlx.s:17667  .data.rel.ro:0000000000000048 _ZTIN12_GLOBAL__N_18SlowTestE
     /tmp/ccMzUrlx.s:17675  .rodata:00000000000000d0 _ZTSN12_GLOBAL__N_18SlowTestE
     /tmp/ccMzUrlx.s:17681  .data.rel.ro:0000000000000060 _ZTIN12_GLOBAL__N_154TestTestRunnerFixtureTestFinishIsCalledWithCorrectTimeE
     /tmp/ccMzUrlx.s:17689  .rodata:0000000000000100 _ZTSN12_GLOBAL__N_154TestTestRunnerFixtureTestFinishIsCalledWithCorrectTimeE
     /tmp/ccMzUrlx.s:17695  .data.rel.ro:0000000000000078 _ZTIN12_GLOBAL__N_156TestTestRunnerFixtureFailureCountIsZeroWhenNoTestsAreRunE
     /tmp/ccMzUrlx.s:17703  .rodata:0000000000000160 _ZTSN12_GLOBAL__N_156TestTestRunnerFixtureFailureCountIsZeroWhenNoTestsAreRunE
     /tmp/ccMzUrlx.s:17709  .data.rel.ro:0000000000000090 _ZTIN12_GLOBAL__N_157TestTestRunnerFixtureCallsReportFailureOncePerFailingTestE
     /tmp/ccMzUrlx.s:17717  .rodata:00000000000001c0 _ZTSN12_GLOBAL__N_157TestTestRunnerFixtureCallsReportFailureOncePerFailingTestE
     /tmp/ccMzUrlx.s:17723  .data.rel.ro:00000000000000a8 _ZTIN12_GLOBAL__N_156TestTestRunnerFixtureTestsThatAssertAreReportedAsFailingE
     /tmp/ccMzUrlx.s:17731  .rodata:0000000000000220 _ZTSN12_GLOBAL__N_156TestTestRunnerFixtureTestsThatAssertAreReportedAsFailingE
     /tmp/ccMzUrlx.s:17737  .data.rel.ro:00000000000000c0 _ZTIN12_GLOBAL__N_148TestTestRunnerFixtureReporterNotifiedOfTestCountE
     /tmp/ccMzUrlx.s:17745  .rodata:0000000000000280 _ZTSN12_GLOBAL__N_148TestTestRunnerFixtureReporterNotifiedOfTestCountE
     /tmp/ccMzUrlx.s:17751  .data.rel.ro:00000000000000d8 _ZTIN12_GLOBAL__N_150TestTestRunnerFixtureReporterNotifiedOfFailedTestsE
     /tmp/ccMzUrlx.s:17759  .rodata:00000000000002e0 _ZTSN12_GLOBAL__N_150TestTestRunnerFixtureReporterNotifiedOfFailedTestsE
     /tmp/ccMzUrlx.s:17765  .data.rel.ro:00000000000000f0 _ZTIN12_GLOBAL__N_147TestTestRunnerFixtureReporterNotifiedOfFailuresE
     /tmp/ccMzUrlx.s:17773  .rodata:0000000000000340 _ZTSN12_GLOBAL__N_147TestTestRunnerFixtureReporterNotifiedOfFailuresE
     /tmp/ccMzUrlx.s:17779  .data.rel.ro:0000000000000108 _ZTIN12_GLOBAL__N_155TestTestRunnerFixtureSlowTestPassesForHighTimeThresholdE
     /tmp/ccMzUrlx.s:17787  .rodata:00000000000003a0 _ZTSN12_GLOBAL__N_155TestTestRunnerFixtureSlowTestPassesForHighTimeThresholdE
     /tmp/ccMzUrlx.s:17793  .data.rel.ro:0000000000000120 _ZTIN12_GLOBAL__N_153TestTestRunnerFixtureSlowTestFailsForLowTimeThresholdE
     /tmp/ccMzUrlx.s:17801  .rodata:0000000000000400 _ZTSN12_GLOBAL__N_153TestTestRunnerFixtureSlowTestFailsForLowTimeThresholdE
     /tmp/ccMzUrlx.s:17807  .data.rel.ro:0000000000000138 _ZTIN12_GLOBAL__N_157TestTestRunnerFixtureSlowTestHasCorrectFailureInformationE
     /tmp/ccMzUrlx.s:17815  .rodata:0000000000000460 _ZTSN12_GLOBAL__N_157TestTestRunnerFixtureSlowTestHasCorrectFailureInformationE
     /tmp/ccMzUrlx.s:17821  .data.rel.ro:0000000000000150 _ZTIN12_GLOBAL__N_152TestTestRunnerFixtureSlowTestWithTimeExemptionPassesE
     /tmp/ccMzUrlx.s:17829  .rodata:00000000000004c0 _ZTSN12_GLOBAL__N_152TestTestRunnerFixtureSlowTestWithTimeExemptionPassesE
     /tmp/ccMzUrlx.s:17835  .data.rel.ro:0000000000000168 _ZTIZN12_GLOBAL__N_154TestRunnerFixtureSlowTestWithTimeExemptionPassesHelper7RunImplEvE16SlowExemptedTest
     /tmp/ccMzUrlx.s:17843  .rodata:0000000000000520 _ZTSZN12_GLOBAL__N_154TestRunnerFixtureSlowTestWithTimeExemptionPassesHelper7RunImplEvE16SlowExemptedTest
     /tmp/ccMzUrlx.s:17849  .data.rel.ro:0000000000000180 _ZTIN12_GLOBAL__N_162TestTestSuiteFixtureTestRunnerRunsAllSuitesIfNullSuiteIsPassedE
     /tmp/ccMzUrlx.s:17857  .rodata:00000000000005a0 _ZTSN12_GLOBAL__N_162TestTestSuiteFixtureTestRunnerRunsAllSuitesIfNullSuiteIsPassedE
     /tmp/ccMzUrlx.s:17863  .data.rel.ro:0000000000000198 _ZTIN12_GLOBAL__N_152TestTestSuiteFixtureTestRunnerRunsOnlySpecifiedSuiteE
     /tmp/ccMzUrlx.s:17871  .rodata:0000000000000600 _ZTSN12_GLOBAL__N_152TestTestSuiteFixtureTestRunnerRunsOnlySpecifiedSuiteE
     /tmp/ccMzUrlx.s:17877  .data.rel.ro:00000000000001b0 _ZTIN12_GLOBAL__N_137TestTestMockPredicateBehavesCorrectlyE
     /tmp/ccMzUrlx.s:17885  .rodata:0000000000000660 _ZTSN12_GLOBAL__N_137TestTestMockPredicateBehavesCorrectlyE
     /tmp/ccMzUrlx.s:17891  .data.rel.ro:00000000000001c8 _ZTIN12_GLOBAL__N_157TestTestRunnerFixtureTestRunnerRunsTestsThatPassPredicateE
     /tmp/ccMzUrlx.s:17899  .rodata:00000000000006a0 _ZTSN12_GLOBAL__N_157TestTestRunnerFixtureTestRunnerRunsTestsThatPassPredicateE
     /tmp/ccMzUrlx.s:17905  .data.rel.ro:00000000000001e0 _ZTIN12_GLOBAL__N_180TestTestRunnerFixtureTestRunnerOnlyRunsTestsInSpecifiedSuiteAndThatPassPredicateE
     /tmp/ccMzUrlx.s:17913  .rodata:0000000000000700 _ZTSN12_GLOBAL__N_180TestTestRunnerFixtureTestRunnerOnlyRunsTestsInSpecifiedSuiteAndThatPassPredicateE
     /tmp/ccMzUrlx.s:17954  .data.rel.ro.local._ZTTN8UnitTest15MemoryOutStreamE:0000000000000000 _ZTTN8UnitTest15MemoryOutStreamE
     /tmp/ccMzUrlx.s:1848   .rodata.str1.1:0000000000000000 .LC0
     /tmp/ccMzUrlx.s:1850   .rodata.str1.1:0000000000000005 .LC1
     /tmp/ccMzUrlx.s:1852   .rodata.str1.1:000000000000000a .LC2
     /tmp/ccMzUrlx.s:2403   .rodata.str1.1:0000000000000012 .LC3
     /tmp/ccMzUrlx.s:2405   .rodata.str1.1:000000000000002d .LC4
     /tmp/ccMzUrlx.s:2407   .rodata.str1.1:0000000000000036 .LC5
     /tmp/ccMzUrlx.s:2409   .rodata.str1.1:0000000000000040 .LC6
     /tmp/ccMzUrlx.s:18255  .rodata.cst4:0000000000000000 .LC7
     /tmp/ccMzUrlx.s:18258  .rodata.cst4:0000000000000004 .LC8
     /tmp/ccMzUrlx.s:2413   .rodata.str1.8:0000000000000000 .LC9
     /tmp/ccMzUrlx.s:2419   .rodata.str1.1:0000000000000045 .LC11
     /tmp/ccMzUrlx.s:2416   .rodata.str1.8:0000000000000058 .LC10
     /tmp/ccMzUrlx.s:2421   .rodata.str1.1:000000000000005b .LC12
     /tmp/ccMzUrlx.s:2837   .rodata.str1.8:0000000000000110 .LC14
     /tmp/ccMzUrlx.s:2834   .rodata.str1.8:00000000000000d0 .LC13
     /tmp/ccMzUrlx.s:3451   .rodata.str1.1:0000000000000077 .LC19
     /tmp/ccMzUrlx.s:3453   .rodata.str1.1:0000000000000082 .LC20
     /tmp/ccMzUrlx.s:3460   .rodata.str1.8:00000000000001a0 .LC22
     /tmp/ccMzUrlx.s:3457   .rodata.str1.8:0000000000000158 .LC21
     /tmp/ccMzUrlx.s:3885   .rodata.str1.8:00000000000001f8 .LC23
     /tmp/ccMzUrlx.s:4256   .rodata.str1.1:0000000000000093 .LC24
     /tmp/ccMzUrlx.s:4258   .rodata.str1.1:0000000000000094 .LC25
     /tmp/ccMzUrlx.s:4262   .rodata.str1.8:0000000000000240 .LC26
     /tmp/ccMzUrlx.s:5017   .rodata.str1.1:00000000000000a1 .LC28
     /tmp/ccMzUrlx.s:5024   .rodata.str1.1:00000000000000bf .LC30
     /tmp/ccMzUrlx.s:5028   .rodata.str1.8:0000000000000308 .LC31
     /tmp/ccMzUrlx.s:5014   .rodata.str1.8:0000000000000280 .LC27
     /tmp/ccMzUrlx.s:5021   .rodata.str1.8:00000000000002c0 .LC29
     /tmp/ccMzUrlx.s:5040   .rodata.str1.8:0000000000000440 .LC35
     /tmp/ccMzUrlx.s:5034   .rodata.str1.8:0000000000000390 .LC33
     /tmp/ccMzUrlx.s:5043   .rodata.str1.8:00000000000004a8 .LC36
     /tmp/ccMzUrlx.s:5037   .rodata.str1.8:00000000000003e8 .LC34
     /tmp/ccMzUrlx.s:5031   .rodata.str1.8:0000000000000338 .LC32
     /tmp/ccMzUrlx.s:6031   .rodata.str1.8:00000000000004f0 .LC37
     /tmp/ccMzUrlx.s:7529   .rodata.str1.1:00000000000000c3 .LC38
     /tmp/ccMzUrlx.s:7531   .rodata.str1.1:00000000000000d0 .LC39
     /tmp/ccMzUrlx.s:7535   .rodata.str1.8:0000000000000530 .LC40
     /tmp/ccMzUrlx.s:8364   .rodata.str1.8:0000000000000578 .LC41
     /tmp/ccMzUrlx.s:9193   .rodata.str1.8:00000000000005c0 .LC42
     /tmp/ccMzUrlx.s:10775  .rodata.str1.8:0000000000000658 .LC44
     /tmp/ccMzUrlx.s:10772  .rodata.str1.8:0000000000000608 .LC43
     /tmp/ccMzUrlx.s:11661  .rodata.str1.8:00000000000006e8 .LC46
     /tmp/ccMzUrlx.s:11658  .rodata.str1.8:0000000000000698 .LC45
     /tmp/ccMzUrlx.s:12484  .rodata.str1.1:00000000000000d5 .LC47
     /tmp/ccMzUrlx.s:12488  .rodata.str1.8:0000000000000728 .LC48
     /tmp/ccMzUrlx.s:12491  .rodata.str1.8:0000000000000770 .LC49
     /tmp/ccMzUrlx.s:13299  .rodata.str1.8:00000000000007c0 .LC50
     /tmp/ccMzUrlx.s:13302  .rodata.str1.8:0000000000000800 .LC51
     /tmp/ccMzUrlx.s:14505  .rodata.str1.1:0000000000000181 .LC71
     /tmp/ccMzUrlx.s:14507  .rodata.str1.1:0000000000000187 .LC72
     /tmp/ccMzUrlx.s:14511  .rodata.str1.8:0000000000000a70 .LC73
     /tmp/ccMzUrlx.s:16290  .rodata.str1.1:000000000000018f .LC74
     /tmp/ccMzUrlx.s:16292  .rodata.str1.1:0000000000000194 .LC75
     /tmp/ccMzUrlx.s:16296  .rodata.str1.1:00000000000001aa .LC77
     /tmp/ccMzUrlx.s:16294  .rodata.str1.1:0000000000000199 .LC76
     /tmp/ccMzUrlx.s:16303  .rodata.str1.8:0000000000000ae8 .LC79
     /tmp/ccMzUrlx.s:16300  .rodata.str1.8:0000000000000ab8 .LC78
     /tmp/ccMzUrlx.s:16683  .rodata.str1.1:00000000000001bc .LC80
     /tmp/ccMzUrlx.s:16685  .rodata.str1.1:00000000000001cf .LC81
     /tmp/ccMzUrlx.s:16689  .rodata.str1.8:0000000000000b18 .LC82
     /tmp/ccMzUrlx.s:16692  .rodata.str1.8:0000000000000b58 .LC83
     /tmp/ccMzUrlx.s:3216   .rodata._ZN8UnitTest10CheckEqualIiiEEvRNS_11TestResultsERKT_RKT0_RKNS_11TestDetailsE.str1.1:0000000000000000 .LC15
     /tmp/ccMzUrlx.s:3218   .rodata._ZN8UnitTest10CheckEqualIiiEEvRNS_11TestResultsERKT_RKT0_RKNS_11TestDetailsE.str1.1:000000000000000a .LC16
     /tmp/ccMzUrlx.s:14109  .rodata.str1.1:00000000000000de .LC52
     /tmp/ccMzUrlx.s:14111  .rodata.str1.1:00000000000000f1 .LC53
     /tmp/ccMzUrlx.s:14113  .rodata.str1.1:000000000000010e .LC54
     /tmp/ccMzUrlx.s:14117  .rodata.str1.8:0000000000000850 .LC55
     /tmp/ccMzUrlx.s:14120  .rodata.str1.8:0000000000000878 .LC56
     /tmp/ccMzUrlx.s:14123  .rodata.str1.8:00000000000008a0 .LC57
     /tmp/ccMzUrlx.s:14126  .rodata.str1.8:00000000000008c8 .LC58
     /tmp/ccMzUrlx.s:14129  .rodata.str1.1:000000000000012c .LC59
     /tmp/ccMzUrlx.s:14131  .rodata.str1.1:0000000000000148 .LC60
     /tmp/ccMzUrlx.s:14133  .rodata.str1.1:0000000000000166 .LC61
     /tmp/ccMzUrlx.s:14137  .rodata.str1.8:00000000000008f0 .LC62
     /tmp/ccMzUrlx.s:14140  .rodata.str1.8:0000000000000918 .LC63
     /tmp/ccMzUrlx.s:14143  .rodata.str1.8:0000000000000940 .LC64
     /tmp/ccMzUrlx.s:14146  .rodata.str1.8:0000000000000968 .LC65
     /tmp/ccMzUrlx.s:14149  .rodata.str1.8:0000000000000988 .LC66
     /tmp/ccMzUrlx.s:14152  .rodata.str1.8:00000000000009b8 .LC67
     /tmp/ccMzUrlx.s:14155  .rodata.str1.8:00000000000009e0 .LC68
     /tmp/ccMzUrlx.s:14158  .rodata.str1.8:0000000000000a08 .LC69
     /tmp/ccMzUrlx.s:14161  .rodata.str1.8:0000000000000a30 .LC70
                           .group:0000000000000000 _ZN17RecordingReporterD5Ev
                           .group:0000000000000000 _ZNSt7__cxx1115basic_stringbufIcSt11char_traitsIcESaIcEED5Ev

UNDEFINED SYMBOLS
_GLOBAL_OFFSET_TABLE_
_ZN8UnitTest4TestD2Ev
__strcpy_chk
_ZdlPv
_Unwind_Resume
__gxx_personality_v0
_ZN8UnitTest12TestReporterD2Ev
_ZN8UnitTest10TestRunnerD1Ev
_ZN8UnitTest11TimeHelpers7SleepMsEi
_ZN8UnitTest11CurrentTest7ResultsEv
_ZN8UnitTest12ReportAssertEPKcS1_i
_ZN8UnitTest11TestResults13OnTestFailureERKNS_11TestDetailsEPKc
_ZTVNSt7__cxx1115basic_stringbufIcSt11char_traitsIcESaIcEEE
_ZTVSt15basic_streambufIcSt11char_traitsIcEE
_ZNSt6localeD1Ev
_ZTVSt9basic_iosIcSt11char_traitsIcEE
_ZNSt8ios_baseD2Ev
_ZNSt8ios_baseC2Ev
_ZNSt9basic_iosIcSt11char_traitsIcEE4initEPSt15basic_streambufIcS1_E
_ZNSt6localeC1Ev
_ZN8UnitTest11CurrentTest7DetailsEv
_ZN8UnitTest16SignalTranslatorC1Ev
_ZN8UnitTest16SignalTranslator12s_jumpTargetE
__sigsetjmp
__cxa_allocate_exception
_ZTIPKc
__cxa_throw
_ZN8UnitTest4TestC2EPKcS2_S2_i
_ZN8UnitTest8TestList3AddEPNS_4TestE
_ZNK8UnitTest8TestList7GetHeadEv
_ZNK8UnitTest10TestRunner6FinishEv
_ZN8UnitTest11TestDetailsC1ERKS0_i
_ZN8UnitTest16SignalTranslatorD1Ev
_ZNK8UnitTest10TestRunner7RunTestEPNS_11TestResultsEPNS_4TestEi
_ZNK8UnitTest10TestRunner13IsTestInSuiteEPKNS_4TestEPKc
__cxa_begin_catch
_ZSt16__ostream_insertIcSt11char_traitsIcEERSt13basic_ostreamIT_T0_ES6_PKS3_l
_ZStlsISt11char_traitsIcEERSt13basic_ostreamIcT_ES5_PKc
_ZNK8UnitTest15MemoryOutStream7GetTextEv
__cxa_end_catch
__stack_chk_fail
_ZNK8UnitTest15AssertException10LineNumberEv
_ZNK8UnitTest15AssertException8FilenameEv
_ZN8UnitTest11TestDetailsC1EPKcS2_S2_i
_ZN8UnitTest10TestRunnerC1ERNS_12TestReporterE
_ZN8UnitTest8TestListC1Ev
_ZNSolsEi
_ZN8UnitTest10CheckEqualERNS_11TestResultsEPKcPcRKNS_11TestDetailsE
strstr
__dso_handle
__cxa_atexit
_ZN8UnitTest4Test11GetTestListEv
_ZN8UnitTest9ListAdderC1ERNS_8TestListEPNS_4TestE
_ZN8UnitTest4TestC1EPKcS2_S2_i
_ZN8UnitTest4TestD1Ev
_ZTVN10__cxxabiv120__si_class_type_infoE
_ZTINSt7__cxx1119basic_ostringstreamIcSt11char_traitsIcESaIcEEE
_ZTIN8UnitTest12TestReporterE
_ZTIN8UnitTest4TestE
_ZTISo
_ZTIN8UnitTest15AssertExceptionE
_ZTISt9exception
