   1              		.file	"TestUnitTest++.cpp"
   2              		.text
   3              		.align 2
   4              		.p2align 4,,15
   6              	_ZNK12_GLOBAL__N_122TestValidCheckSucceeds7RunImplEv:
   7              	.LFB1394:
   8              		.cfi_startproc
   9 0000 F3C3     		rep ret
  10              		.cfi_endproc
  11              	.LFE1394:
  13              		.set	_ZNK12_GLOBAL__N_126TestCheckWorksWithPointers7RunImplEv,_ZNK12_GLOBAL__N_122TestValidCheckSu
  14              		.align 2
  15 0002 0F1F4000 		.p2align 4,,15
  15      662E0F1F 
  15      84000000 
  15      0000
  17              	_ZN12_GLOBAL__N_137TestCanCallCHECKOutsideOfTestFunctionD2Ev:
  18              	.LFB1632:
  19              		.cfi_startproc
  20 0010 488D0500 		leaq	16+_ZTVN12_GLOBAL__N_137TestCanCallCHECKOutsideOfTestFunctionE(%rip), %rax
  20      000000
  21 0017 488907   		movq	%rax, (%rdi)
  22 001a E9000000 		jmp	_ZN8UnitTest4TestD2Ev@PLT
  22      00
  23              		.cfi_endproc
  24              	.LFE1632:
  26              		.set	_ZN12_GLOBAL__N_137TestCanCallCHECKOutsideOfTestFunctionD1Ev,_ZN12_GLOBAL__N_137TestCanCallCH
  27 001f 90       		.align 2
  28              		.p2align 4,,15
  30              	_ZN12_GLOBAL__N_143TestSimpleFixtureOnlyOneFixtureAliveAtATimeD2Ev:
  31              	.LFB1636:
  32              		.cfi_startproc
  33 0020 488D0500 		leaq	16+_ZTVN12_GLOBAL__N_143TestSimpleFixtureOnlyOneFixtureAliveAtATimeE(%rip), %rax
  33      000000
  34 0027 488907   		movq	%rax, (%rdi)
  35 002a E9000000 		jmp	_ZN8UnitTest4TestD2Ev@PLT
  35      00
  36              		.cfi_endproc
  37              	.LFE1636:
  39              		.set	_ZN12_GLOBAL__N_143TestSimpleFixtureOnlyOneFixtureAliveAtATimeD1Ev,_ZN12_GLOBAL__N_143TestSim
  40 002f 90       		.align 2
  41              		.p2align 4,,15
  43              	_ZN12_GLOBAL__N_143TestSimpleFixtureDefaultFixtureCtorIsCalledD2Ev:
  44              	.LFB1640:
  45              		.cfi_startproc
  46 0030 488D0500 		leaq	16+_ZTVN12_GLOBAL__N_143TestSimpleFixtureDefaultFixtureCtorIsCalledE(%rip), %rax
  46      000000
  47 0037 488907   		movq	%rax, (%rdi)
  48 003a E9000000 		jmp	_ZN8UnitTest4TestD2Ev@PLT
  48      00
  49              		.cfi_endproc
  50              	.LFE1640:
  52              		.set	_ZN12_GLOBAL__N_143TestSimpleFixtureDefaultFixtureCtorIsCalledD1Ev,_ZN12_GLOBAL__N_143TestSim
  53 003f 90       		.align 2
  54              		.p2align 4,,15
  56              	_ZN12_GLOBAL__N_140TestCheckThrowMacroFailsOnWrongExceptionD2Ev:
  57              	.LFB1644:
  58              		.cfi_startproc
  59 0040 488D0500 		leaq	16+_ZTVN12_GLOBAL__N_140TestCheckThrowMacroFailsOnWrongExceptionE(%rip), %rax
  59      000000
  60 0047 488907   		movq	%rax, (%rdi)
  61 004a E9000000 		jmp	_ZN8UnitTest4TestD2Ev@PLT
  61      00
  62              		.cfi_endproc
  63              	.LFE1644:
  65              		.set	_ZN12_GLOBAL__N_140TestCheckThrowMacroFailsOnWrongExceptionD1Ev,_ZN12_GLOBAL__N_140TestCheckT
  66 004f 90       		.align 2
  67              		.p2align 4,,15
  69              	_ZZNK12_GLOBAL__N_140TestCheckThrowMacroFailsOnWrongException7RunImplEvEN14WrongThrowTestD2Ev:
  70              	.LFB1648:
  71              		.cfi_startproc
  72 0050 488D0500 		leaq	16+_ZTVZNK12_GLOBAL__N_140TestCheckThrowMacroFailsOnWrongException7RunImplEvE14WrongThrowTest
  72      000000
  73 0057 488907   		movq	%rax, (%rdi)
  74 005a E9000000 		jmp	_ZN8UnitTest4TestD2Ev@PLT
  74      00
  75              		.cfi_endproc
  76              	.LFE1648:
  78              		.set	_ZZNK12_GLOBAL__N_140TestCheckThrowMacroFailsOnWrongException7RunImplEvEN14WrongThrowTestD1Ev
  79 005f 90       		.align 2
  80              		.p2align 4,,15
  82              	_ZN12_GLOBAL__N_142TestCheckThrowMacroFailsOnMissingExceptionD2Ev:
  83              	.LFB1652:
  84              		.cfi_startproc
  85 0060 488D0500 		leaq	16+_ZTVN12_GLOBAL__N_142TestCheckThrowMacroFailsOnMissingExceptionE(%rip), %rax
  85      000000
  86 0067 488907   		movq	%rax, (%rdi)
  87 006a E9000000 		jmp	_ZN8UnitTest4TestD2Ev@PLT
  87      00
  88              		.cfi_endproc
  89              	.LFE1652:
  91              		.set	_ZN12_GLOBAL__N_142TestCheckThrowMacroFailsOnMissingExceptionD1Ev,_ZN12_GLOBAL__N_142TestChec
  92 006f 90       		.align 2
  93              		.p2align 4,,15
  95              	_ZZNK12_GLOBAL__N_142TestCheckThrowMacroFailsOnMissingException7RunImplEvEN11NoThrowTestD2Ev:
  96              	.LFB1656:
  97              		.cfi_startproc
  98 0070 488D0500 		leaq	16+_ZTVZNK12_GLOBAL__N_142TestCheckThrowMacroFailsOnMissingException7RunImplEvE11NoThrowTest(
  98      000000
  99 0077 488907   		movq	%rax, (%rdi)
 100 007a E9000000 		jmp	_ZN8UnitTest4TestD2Ev@PLT
 100      00
 101              		.cfi_endproc
 102              	.LFE1656:
 104              		.set	_ZZNK12_GLOBAL__N_142TestCheckThrowMacroFailsOnMissingException7RunImplEvEN11NoThrowTestD1Ev,
 105 007f 90       		.align 2
 106              		.p2align 4,,15
 108              	_ZN12_GLOBAL__N_123TestCheckAssertSucceedsD2Ev:
 109              	.LFB1660:
 110              		.cfi_startproc
 111 0080 488D0500 		leaq	16+_ZTVN12_GLOBAL__N_123TestCheckAssertSucceedsE(%rip), %rax
 111      000000
 112 0087 488907   		movq	%rax, (%rdi)
 113 008a E9000000 		jmp	_ZN8UnitTest4TestD2Ev@PLT
 113      00
 114              		.cfi_endproc
 115              	.LFE1660:
 117              		.set	_ZN12_GLOBAL__N_123TestCheckAssertSucceedsD1Ev,_ZN12_GLOBAL__N_123TestCheckAssertSucceedsD2Ev
 118 008f 90       		.align 2
 119              		.p2align 4,,15
 121              	_ZN12_GLOBAL__N_145TestCheckThrowMacroSucceedsOnCorrectExceptionD2Ev:
 122              	.LFB1664:
 123              		.cfi_startproc
 124 0090 488D0500 		leaq	16+_ZTVN12_GLOBAL__N_145TestCheckThrowMacroSucceedsOnCorrectExceptionE(%rip), %rax
 124      000000
 125 0097 488907   		movq	%rax, (%rdi)
 126 009a E9000000 		jmp	_ZN8UnitTest4TestD2Ev@PLT
 126      00
 127              		.cfi_endproc
 128              	.LFE1664:
 130              		.set	_ZN12_GLOBAL__N_145TestCheckThrowMacroSucceedsOnCorrectExceptionD1Ev,_ZN12_GLOBAL__N_145TestC
 131 009f 90       		.align 2
 132              		.p2align 4,,15
 134              	_ZN12_GLOBAL__N_135TestCheckArrayCloseWorksWithVectorsD2Ev:
 135              	.LFB1668:
 136              		.cfi_startproc
 137 00a0 488D0500 		leaq	16+_ZTVN12_GLOBAL__N_135TestCheckArrayCloseWorksWithVectorsE(%rip), %rax
 137      000000
 138 00a7 488907   		movq	%rax, (%rdi)
 139 00aa E9000000 		jmp	_ZN8UnitTest4TestD2Ev@PLT
 139      00
 140              		.cfi_endproc
 141              	.LFE1668:
 143              		.set	_ZN12_GLOBAL__N_135TestCheckArrayCloseWorksWithVectorsD1Ev,_ZN12_GLOBAL__N_135TestCheckArrayC
 144 00af 90       		.align 2
 145              		.p2align 4,,15
 147              	_ZN12_GLOBAL__N_122TestArrayCloseSucceedsD2Ev:
 148              	.LFB1672:
 149              		.cfi_startproc
 150 00b0 488D0500 		leaq	16+_ZTVN12_GLOBAL__N_122TestArrayCloseSucceedsE(%rip), %rax
 150      000000
 151 00b7 488907   		movq	%rax, (%rdi)
 152 00ba E9000000 		jmp	_ZN8UnitTest4TestD2Ev@PLT
 152      00
 153              		.cfi_endproc
 154              	.LFE1672:
 156              		.set	_ZN12_GLOBAL__N_122TestArrayCloseSucceedsD1Ev,_ZN12_GLOBAL__N_122TestArrayCloseSucceedsD2Ev
 157 00bf 90       		.align 2
 158              		.p2align 4,,15
 160              	_ZN12_GLOBAL__N_127TestValidCheckCloseSucceedsD2Ev:
 161              	.LFB1676:
 162              		.cfi_startproc
 163 00c0 488D0500 		leaq	16+_ZTVN12_GLOBAL__N_127TestValidCheckCloseSucceedsE(%rip), %rax
 163      000000
 164 00c7 488907   		movq	%rax, (%rdi)
 165 00ca E9000000 		jmp	_ZN8UnitTest4TestD2Ev@PLT
 165      00
 166              		.cfi_endproc
 167              	.LFE1676:
 169              		.set	_ZN12_GLOBAL__N_127TestValidCheckCloseSucceedsD1Ev,_ZN12_GLOBAL__N_127TestValidCheckCloseSucc
 170 00cf 90       		.align 2
 171              		.p2align 4,,15
 173              	_ZN12_GLOBAL__N_131TestCheckEqualWorksWithPointersD2Ev:
 174              	.LFB1680:
 175              		.cfi_startproc
 176 00d0 488D0500 		leaq	16+_ZTVN12_GLOBAL__N_131TestCheckEqualWorksWithPointersE(%rip), %rax
 176      000000
 177 00d7 488907   		movq	%rax, (%rdi)
 178 00da E9000000 		jmp	_ZN8UnitTest4TestD2Ev@PLT
 178      00
 179              		.cfi_endproc
 180              	.LFE1680:
 182              		.set	_ZN12_GLOBAL__N_131TestCheckEqualWorksWithPointersD1Ev,_ZN12_GLOBAL__N_131TestCheckEqualWorks
 183 00df 90       		.align 2
 184              		.p2align 4,,15
 186              	_ZN12_GLOBAL__N_127TestValidCheckEqualSucceedsD2Ev:
 187              	.LFB1684:
 188              		.cfi_startproc
 189 00e0 488D0500 		leaq	16+_ZTVN12_GLOBAL__N_127TestValidCheckEqualSucceedsE(%rip), %rax
 189      000000
 190 00e7 488907   		movq	%rax, (%rdi)
 191 00ea E9000000 		jmp	_ZN8UnitTest4TestD2Ev@PLT
 191      00
 192              		.cfi_endproc
 193              	.LFE1684:
 195              		.set	_ZN12_GLOBAL__N_127TestValidCheckEqualSucceedsD1Ev,_ZN12_GLOBAL__N_127TestValidCheckEqualSucc
 196 00ef 90       		.align 2
 197              		.p2align 4,,15
 199              	_ZN12_GLOBAL__N_126TestCheckWorksWithPointersD2Ev:
 200              	.LFB1688:
 201              		.cfi_startproc
 202 00f0 488D0500 		leaq	16+_ZTVN12_GLOBAL__N_126TestCheckWorksWithPointersE(%rip), %rax
 202      000000
 203 00f7 488907   		movq	%rax, (%rdi)
 204 00fa E9000000 		jmp	_ZN8UnitTest4TestD2Ev@PLT
 204      00
 205              		.cfi_endproc
 206              	.LFE1688:
 208              		.set	_ZN12_GLOBAL__N_126TestCheckWorksWithPointersD1Ev,_ZN12_GLOBAL__N_126TestCheckWorksWithPointe
 209 00ff 90       		.align 2
 210              		.p2align 4,,15
 212              	_ZN12_GLOBAL__N_122TestValidCheckSucceedsD2Ev:
 213              	.LFB1692:
 214              		.cfi_startproc
 215 0100 488D0500 		leaq	16+_ZTVN12_GLOBAL__N_122TestValidCheckSucceedsE(%rip), %rax
 215      000000
 216 0107 488907   		movq	%rax, (%rdi)
 217 010a E9000000 		jmp	_ZN8UnitTest4TestD2Ev@PLT
 217      00
 218              		.cfi_endproc
 219              	.LFE1692:
 221              		.set	_ZN12_GLOBAL__N_122TestValidCheckSucceedsD1Ev,_ZN12_GLOBAL__N_122TestValidCheckSucceedsD2Ev
 222              		.section	.rodata.str1.8,"aMS",@progbits,1
 223              		.align 8
 224              	.LC0:
 225 0000 45787065 		.string	"Expected exception: \"int\" not thrown"
 225      63746564 
 225      20657863 
 225      65707469 
 225      6F6E3A20 
 226              		.text
 227 010f 90       		.align 2
 228              		.p2align 4,,15
 230              	_ZZNK12_GLOBAL__N_142TestCheckThrowMacroFailsOnMissingException7RunImplEvENK11NoThrowTest7RunImplEv
 231              	.LFB1435:
 232              		.cfi_startproc
 233 0110 55       		pushq	%rbp
 234              		.cfi_def_cfa_offset 16
 235              		.cfi_offset 6, -16
 236 0111 53       		pushq	%rbx
 237              		.cfi_def_cfa_offset 24
 238              		.cfi_offset 3, -24
 239 0112 4883EC38 		subq	$56, %rsp
 240              		.cfi_def_cfa_offset 80
 241 0116 64488B04 		movq	%fs:40, %rax
 241      25280000 
 241      00
 242 011f 48894424 		movq	%rax, 40(%rsp)
 242      28
 243 0124 31C0     		xorl	%eax, %eax
 244 0126 E8000000 		call	_ZN8UnitTest11CurrentTest7ResultsEv@PLT
 244      00
 245 012b 488B28   		movq	(%rax), %rbp
 246 012e 4889E3   		movq	%rsp, %rbx
 247 0131 E8000000 		call	_ZN8UnitTest11CurrentTest7DetailsEv@PLT
 247      00
 248 0136 488B30   		movq	(%rax), %rsi
 249 0139 BA520000 		movl	$82, %edx
 249      00
 250 013e 4889DF   		movq	%rbx, %rdi
 251 0141 E8000000 		call	_ZN8UnitTest11TestDetailsC1ERKS0_i@PLT
 251      00
 252 0146 488D1500 		leaq	.LC0(%rip), %rdx
 252      000000
 253 014d 4889DE   		movq	%rbx, %rsi
 254 0150 4889EF   		movq	%rbp, %rdi
 255 0153 E8000000 		call	_ZN8UnitTest11TestResults13OnTestFailureERKNS_11TestDetailsEPKc@PLT
 255      00
 256 0158 488B4424 		movq	40(%rsp), %rax
 256      28
 257 015d 64483304 		xorq	%fs:40, %rax
 257      25280000 
 257      00
 258 0166 7507     		jne	.L22
 259 0168 4883C438 		addq	$56, %rsp
 260              		.cfi_remember_state
 261              		.cfi_def_cfa_offset 24
 262 016c 5B       		popq	%rbx
 263              		.cfi_def_cfa_offset 16
 264 016d 5D       		popq	%rbp
 265              		.cfi_def_cfa_offset 8
 266 016e C3       		ret
 267              	.L22:
 268              		.cfi_restore_state
 269 016f E8000000 		call	__stack_chk_fail@PLT
 269      00
 270              		.cfi_endproc
 271              	.LFE1435:
 273              		.align 2
 274 0174 6690662E 		.p2align 4,,15
 274      0F1F8400 
 274      00000000 
 276              	_ZN12_GLOBAL__N_137TestCanCallCHECKOutsideOfTestFunctionD0Ev:
 277              	.LFB1634:
 278              		.cfi_startproc
 279              		.cfi_personality 0x9b,DW.ref.__gxx_personality_v0
 280              		.cfi_lsda 0x1b,.LLSDA1634
 281 0180 55       		pushq	%rbp
 282              		.cfi_def_cfa_offset 16
 283              		.cfi_offset 6, -16
 284 0181 488D0500 		leaq	16+_ZTVN12_GLOBAL__N_137TestCanCallCHECKOutsideOfTestFunctionE(%rip), %rax
 284      000000
 285 0188 53       		pushq	%rbx
 286              		.cfi_def_cfa_offset 24
 287              		.cfi_offset 3, -24
 288 0189 4889FB   		movq	%rdi, %rbx
 289 018c 4883EC08 		subq	$8, %rsp
 290              		.cfi_def_cfa_offset 32
 291 0190 488907   		movq	%rax, (%rdi)
 292              	.LEHB0:
 293 0193 E8000000 		call	_ZN8UnitTest4TestD2Ev@PLT
 293      00
 294              	.LEHE0:
 295 0198 4883C408 		addq	$8, %rsp
 296              		.cfi_remember_state
 297              		.cfi_def_cfa_offset 24
 298 019c 4889DF   		movq	%rbx, %rdi
 299 019f 5B       		popq	%rbx
 300              		.cfi_def_cfa_offset 16
 301 01a0 5D       		popq	%rbp
 302              		.cfi_def_cfa_offset 8
 303 01a1 E9000000 		jmp	_ZdlPv@PLT
 303      00
 304              	.L25:
 305              		.cfi_restore_state
 306 01a6 4889C5   		movq	%rax, %rbp
 307 01a9 4889DF   		movq	%rbx, %rdi
 308 01ac E8000000 		call	_ZdlPv@PLT
 308      00
 309 01b1 4889EF   		movq	%rbp, %rdi
 310              	.LEHB1:
 311 01b4 E8000000 		call	_Unwind_Resume@PLT
 311      00
 312              	.LEHE1:
 313              		.cfi_endproc
 314              	.LFE1634:
 315              		.globl	__gxx_personality_v0
 316              		.section	.gcc_except_table,"a",@progbits
 317              	.LLSDA1634:
 318 0000 FF       		.byte	0xff
 319 0001 FF       		.byte	0xff
 320 0002 01       		.byte	0x1
 321 0003 08       		.uleb128 .LLSDACSE1634-.LLSDACSB1634
 322              	.LLSDACSB1634:
 323 0004 13       		.uleb128 .LEHB0-.LFB1634
 324 0005 05       		.uleb128 .LEHE0-.LEHB0
 325 0006 26       		.uleb128 .L25-.LFB1634
 326 0007 00       		.uleb128 0
 327 0008 34       		.uleb128 .LEHB1-.LFB1634
 328 0009 05       		.uleb128 .LEHE1-.LEHB1
 329 000a 00       		.uleb128 0
 330 000b 00       		.uleb128 0
 331              	.LLSDACSE1634:
 332              		.text
 334 01b9 90       		.align 2
 335 01ba 660F1F44 		.p2align 4,,15
 335      0000
 337              	_ZN12_GLOBAL__N_143TestSimpleFixtureOnlyOneFixtureAliveAtATimeD0Ev:
 338              	.LFB1638:
 339              		.cfi_startproc
 340              		.cfi_personality 0x9b,DW.ref.__gxx_personality_v0
 341              		.cfi_lsda 0x1b,.LLSDA1638
 342 01c0 55       		pushq	%rbp
 343              		.cfi_def_cfa_offset 16
 344              		.cfi_offset 6, -16
 345 01c1 488D0500 		leaq	16+_ZTVN12_GLOBAL__N_143TestSimpleFixtureOnlyOneFixtureAliveAtATimeE(%rip), %rax
 345      000000
 346 01c8 53       		pushq	%rbx
 347              		.cfi_def_cfa_offset 24
 348              		.cfi_offset 3, -24
 349 01c9 4889FB   		movq	%rdi, %rbx
 350 01cc 4883EC08 		subq	$8, %rsp
 351              		.cfi_def_cfa_offset 32
 352 01d0 488907   		movq	%rax, (%rdi)
 353              	.LEHB2:
 354 01d3 E8000000 		call	_ZN8UnitTest4TestD2Ev@PLT
 354      00
 355              	.LEHE2:
 356 01d8 4883C408 		addq	$8, %rsp
 357              		.cfi_remember_state
 358              		.cfi_def_cfa_offset 24
 359 01dc 4889DF   		movq	%rbx, %rdi
 360 01df 5B       		popq	%rbx
 361              		.cfi_def_cfa_offset 16
 362 01e0 5D       		popq	%rbp
 363              		.cfi_def_cfa_offset 8
 364 01e1 E9000000 		jmp	_ZdlPv@PLT
 364      00
 365              	.L29:
 366              		.cfi_restore_state
 367 01e6 4889C5   		movq	%rax, %rbp
 368 01e9 4889DF   		movq	%rbx, %rdi
 369 01ec E8000000 		call	_ZdlPv@PLT
 369      00
 370 01f1 4889EF   		movq	%rbp, %rdi
 371              	.LEHB3:
 372 01f4 E8000000 		call	_Unwind_Resume@PLT
 372      00
 373              	.LEHE3:
 374              		.cfi_endproc
 375              	.LFE1638:
 376              		.section	.gcc_except_table
 377              	.LLSDA1638:
 378 000c FF       		.byte	0xff
 379 000d FF       		.byte	0xff
 380 000e 01       		.byte	0x1
 381 000f 08       		.uleb128 .LLSDACSE1638-.LLSDACSB1638
 382              	.LLSDACSB1638:
 383 0010 13       		.uleb128 .LEHB2-.LFB1638
 384 0011 05       		.uleb128 .LEHE2-.LEHB2
 385 0012 26       		.uleb128 .L29-.LFB1638
 386 0013 00       		.uleb128 0
 387 0014 34       		.uleb128 .LEHB3-.LFB1638
 388 0015 05       		.uleb128 .LEHE3-.LEHB3
 389 0016 00       		.uleb128 0
 390 0017 00       		.uleb128 0
 391              	.LLSDACSE1638:
 392              		.text
 394 01f9 90       		.align 2
 395 01fa 660F1F44 		.p2align 4,,15
 395      0000
 397              	_ZN12_GLOBAL__N_143TestSimpleFixtureDefaultFixtureCtorIsCalledD0Ev:
 398              	.LFB1642:
 399              		.cfi_startproc
 400              		.cfi_personality 0x9b,DW.ref.__gxx_personality_v0
 401              		.cfi_lsda 0x1b,.LLSDA1642
 402 0200 55       		pushq	%rbp
 403              		.cfi_def_cfa_offset 16
 404              		.cfi_offset 6, -16
 405 0201 488D0500 		leaq	16+_ZTVN12_GLOBAL__N_143TestSimpleFixtureDefaultFixtureCtorIsCalledE(%rip), %rax
 405      000000
 406 0208 53       		pushq	%rbx
 407              		.cfi_def_cfa_offset 24
 408              		.cfi_offset 3, -24
 409 0209 4889FB   		movq	%rdi, %rbx
 410 020c 4883EC08 		subq	$8, %rsp
 411              		.cfi_def_cfa_offset 32
 412 0210 488907   		movq	%rax, (%rdi)
 413              	.LEHB4:
 414 0213 E8000000 		call	_ZN8UnitTest4TestD2Ev@PLT
 414      00
 415              	.LEHE4:
 416 0218 4883C408 		addq	$8, %rsp
 417              		.cfi_remember_state
 418              		.cfi_def_cfa_offset 24
 419 021c 4889DF   		movq	%rbx, %rdi
 420 021f 5B       		popq	%rbx
 421              		.cfi_def_cfa_offset 16
 422 0220 5D       		popq	%rbp
 423              		.cfi_def_cfa_offset 8
 424 0221 E9000000 		jmp	_ZdlPv@PLT
 424      00
 425              	.L33:
 426              		.cfi_restore_state
 427 0226 4889C5   		movq	%rax, %rbp
 428 0229 4889DF   		movq	%rbx, %rdi
 429 022c E8000000 		call	_ZdlPv@PLT
 429      00
 430 0231 4889EF   		movq	%rbp, %rdi
 431              	.LEHB5:
 432 0234 E8000000 		call	_Unwind_Resume@PLT
 432      00
 433              	.LEHE5:
 434              		.cfi_endproc
 435              	.LFE1642:
 436              		.section	.gcc_except_table
 437              	.LLSDA1642:
 438 0018 FF       		.byte	0xff
 439 0019 FF       		.byte	0xff
 440 001a 01       		.byte	0x1
 441 001b 08       		.uleb128 .LLSDACSE1642-.LLSDACSB1642
 442              	.LLSDACSB1642:
 443 001c 13       		.uleb128 .LEHB4-.LFB1642
 444 001d 05       		.uleb128 .LEHE4-.LEHB4
 445 001e 26       		.uleb128 .L33-.LFB1642
 446 001f 00       		.uleb128 0
 447 0020 34       		.uleb128 .LEHB5-.LFB1642
 448 0021 05       		.uleb128 .LEHE5-.LEHB5
 449 0022 00       		.uleb128 0
 450 0023 00       		.uleb128 0
 451              	.LLSDACSE1642:
 452              		.text
 454 0239 90       		.align 2
 455 023a 660F1F44 		.p2align 4,,15
 455      0000
 457              	_ZZNK12_GLOBAL__N_140TestCheckThrowMacroFailsOnWrongException7RunImplEvEN14WrongThrowTestD0Ev:
 458              	.LFB1650:
 459              		.cfi_startproc
 460              		.cfi_personality 0x9b,DW.ref.__gxx_personality_v0
 461              		.cfi_lsda 0x1b,.LLSDA1650
 462 0240 55       		pushq	%rbp
 463              		.cfi_def_cfa_offset 16
 464              		.cfi_offset 6, -16
 465 0241 488D0500 		leaq	16+_ZTVZNK12_GLOBAL__N_140TestCheckThrowMacroFailsOnWrongException7RunImplEvE14WrongThrowTest
 465      000000
 466 0248 53       		pushq	%rbx
 467              		.cfi_def_cfa_offset 24
 468              		.cfi_offset 3, -24
 469 0249 4889FB   		movq	%rdi, %rbx
 470 024c 4883EC08 		subq	$8, %rsp
 471              		.cfi_def_cfa_offset 32
 472 0250 488907   		movq	%rax, (%rdi)
 473              	.LEHB6:
 474 0253 E8000000 		call	_ZN8UnitTest4TestD2Ev@PLT
 474      00
 475              	.LEHE6:
 476 0258 4883C408 		addq	$8, %rsp
 477              		.cfi_remember_state
 478              		.cfi_def_cfa_offset 24
 479 025c 4889DF   		movq	%rbx, %rdi
 480 025f 5B       		popq	%rbx
 481              		.cfi_def_cfa_offset 16
 482 0260 5D       		popq	%rbp
 483              		.cfi_def_cfa_offset 8
 484 0261 E9000000 		jmp	_ZdlPv@PLT
 484      00
 485              	.L37:
 486              		.cfi_restore_state
 487 0266 4889C5   		movq	%rax, %rbp
 488 0269 4889DF   		movq	%rbx, %rdi
 489 026c E8000000 		call	_ZdlPv@PLT
 489      00
 490 0271 4889EF   		movq	%rbp, %rdi
 491              	.LEHB7:
 492 0274 E8000000 		call	_Unwind_Resume@PLT
 492      00
 493              	.LEHE7:
 494              		.cfi_endproc
 495              	.LFE1650:
 496              		.section	.gcc_except_table
 497              	.LLSDA1650:
 498 0024 FF       		.byte	0xff
 499 0025 FF       		.byte	0xff
 500 0026 01       		.byte	0x1
 501 0027 08       		.uleb128 .LLSDACSE1650-.LLSDACSB1650
 502              	.LLSDACSB1650:
 503 0028 13       		.uleb128 .LEHB6-.LFB1650
 504 0029 05       		.uleb128 .LEHE6-.LEHB6
 505 002a 26       		.uleb128 .L37-.LFB1650
 506 002b 00       		.uleb128 0
 507 002c 34       		.uleb128 .LEHB7-.LFB1650
 508 002d 05       		.uleb128 .LEHE7-.LEHB7
 509 002e 00       		.uleb128 0
 510 002f 00       		.uleb128 0
 511              	.LLSDACSE1650:
 512              		.text
 514 0279 90       		.align 2
 515 027a 660F1F44 		.p2align 4,,15
 515      0000
 517              	_ZN12_GLOBAL__N_140TestCheckThrowMacroFailsOnWrongExceptionD0Ev:
 518              	.LFB1646:
 519              		.cfi_startproc
 520              		.cfi_personality 0x9b,DW.ref.__gxx_personality_v0
 521              		.cfi_lsda 0x1b,.LLSDA1646
 522 0280 55       		pushq	%rbp
 523              		.cfi_def_cfa_offset 16
 524              		.cfi_offset 6, -16
 525 0281 488D0500 		leaq	16+_ZTVN12_GLOBAL__N_140TestCheckThrowMacroFailsOnWrongExceptionE(%rip), %rax
 525      000000
 526 0288 53       		pushq	%rbx
 527              		.cfi_def_cfa_offset 24
 528              		.cfi_offset 3, -24
 529 0289 4889FB   		movq	%rdi, %rbx
 530 028c 4883EC08 		subq	$8, %rsp
 531              		.cfi_def_cfa_offset 32
 532 0290 488907   		movq	%rax, (%rdi)
 533              	.LEHB8:
 534 0293 E8000000 		call	_ZN8UnitTest4TestD2Ev@PLT
 534      00
 535              	.LEHE8:
 536 0298 4883C408 		addq	$8, %rsp
 537              		.cfi_remember_state
 538              		.cfi_def_cfa_offset 24
 539 029c 4889DF   		movq	%rbx, %rdi
 540 029f 5B       		popq	%rbx
 541              		.cfi_def_cfa_offset 16
 542 02a0 5D       		popq	%rbp
 543              		.cfi_def_cfa_offset 8
 544 02a1 E9000000 		jmp	_ZdlPv@PLT
 544      00
 545              	.L41:
 546              		.cfi_restore_state
 547 02a6 4889C5   		movq	%rax, %rbp
 548 02a9 4889DF   		movq	%rbx, %rdi
 549 02ac E8000000 		call	_ZdlPv@PLT
 549      00
 550 02b1 4889EF   		movq	%rbp, %rdi
 551              	.LEHB9:
 552 02b4 E8000000 		call	_Unwind_Resume@PLT
 552      00
 553              	.LEHE9:
 554              		.cfi_endproc
 555              	.LFE1646:
 556              		.section	.gcc_except_table
 557              	.LLSDA1646:
 558 0030 FF       		.byte	0xff
 559 0031 FF       		.byte	0xff
 560 0032 01       		.byte	0x1
 561 0033 08       		.uleb128 .LLSDACSE1646-.LLSDACSB1646
 562              	.LLSDACSB1646:
 563 0034 13       		.uleb128 .LEHB8-.LFB1646
 564 0035 05       		.uleb128 .LEHE8-.LEHB8
 565 0036 26       		.uleb128 .L41-.LFB1646
 566 0037 00       		.uleb128 0
 567 0038 34       		.uleb128 .LEHB9-.LFB1646
 568 0039 05       		.uleb128 .LEHE9-.LEHB9
 569 003a 00       		.uleb128 0
 570 003b 00       		.uleb128 0
 571              	.LLSDACSE1646:
 572              		.text
 574 02b9 90       		.align 2
 575 02ba 660F1F44 		.p2align 4,,15
 575      0000
 577              	_ZZNK12_GLOBAL__N_142TestCheckThrowMacroFailsOnMissingException7RunImplEvEN11NoThrowTestD0Ev:
 578              	.LFB1658:
 579              		.cfi_startproc
 580              		.cfi_personality 0x9b,DW.ref.__gxx_personality_v0
 581              		.cfi_lsda 0x1b,.LLSDA1658
 582 02c0 55       		pushq	%rbp
 583              		.cfi_def_cfa_offset 16
 584              		.cfi_offset 6, -16
 585 02c1 488D0500 		leaq	16+_ZTVZNK12_GLOBAL__N_142TestCheckThrowMacroFailsOnMissingException7RunImplEvE11NoThrowTest(
 585      000000
 586 02c8 53       		pushq	%rbx
 587              		.cfi_def_cfa_offset 24
 588              		.cfi_offset 3, -24
 589 02c9 4889FB   		movq	%rdi, %rbx
 590 02cc 4883EC08 		subq	$8, %rsp
 591              		.cfi_def_cfa_offset 32
 592 02d0 488907   		movq	%rax, (%rdi)
 593              	.LEHB10:
 594 02d3 E8000000 		call	_ZN8UnitTest4TestD2Ev@PLT
 594      00
 595              	.LEHE10:
 596 02d8 4883C408 		addq	$8, %rsp
 597              		.cfi_remember_state
 598              		.cfi_def_cfa_offset 24
 599 02dc 4889DF   		movq	%rbx, %rdi
 600 02df 5B       		popq	%rbx
 601              		.cfi_def_cfa_offset 16
 602 02e0 5D       		popq	%rbp
 603              		.cfi_def_cfa_offset 8
 604 02e1 E9000000 		jmp	_ZdlPv@PLT
 604      00
 605              	.L45:
 606              		.cfi_restore_state
 607 02e6 4889C5   		movq	%rax, %rbp
 608 02e9 4889DF   		movq	%rbx, %rdi
 609 02ec E8000000 		call	_ZdlPv@PLT
 609      00
 610 02f1 4889EF   		movq	%rbp, %rdi
 611              	.LEHB11:
 612 02f4 E8000000 		call	_Unwind_Resume@PLT
 612      00
 613              	.LEHE11:
 614              		.cfi_endproc
 615              	.LFE1658:
 616              		.section	.gcc_except_table
 617              	.LLSDA1658:
 618 003c FF       		.byte	0xff
 619 003d FF       		.byte	0xff
 620 003e 01       		.byte	0x1
 621 003f 08       		.uleb128 .LLSDACSE1658-.LLSDACSB1658
 622              	.LLSDACSB1658:
 623 0040 13       		.uleb128 .LEHB10-.LFB1658
 624 0041 05       		.uleb128 .LEHE10-.LEHB10
 625 0042 26       		.uleb128 .L45-.LFB1658
 626 0043 00       		.uleb128 0
 627 0044 34       		.uleb128 .LEHB11-.LFB1658
 628 0045 05       		.uleb128 .LEHE11-.LEHB11
 629 0046 00       		.uleb128 0
 630 0047 00       		.uleb128 0
 631              	.LLSDACSE1658:
 632              		.text
 634 02f9 90       		.align 2
 635 02fa 660F1F44 		.p2align 4,,15
 635      0000
 637              	_ZN12_GLOBAL__N_142TestCheckThrowMacroFailsOnMissingExceptionD0Ev:
 638              	.LFB1654:
 639              		.cfi_startproc
 640              		.cfi_personality 0x9b,DW.ref.__gxx_personality_v0
 641              		.cfi_lsda 0x1b,.LLSDA1654
 642 0300 55       		pushq	%rbp
 643              		.cfi_def_cfa_offset 16
 644              		.cfi_offset 6, -16
 645 0301 488D0500 		leaq	16+_ZTVN12_GLOBAL__N_142TestCheckThrowMacroFailsOnMissingExceptionE(%rip), %rax
 645      000000
 646 0308 53       		pushq	%rbx
 647              		.cfi_def_cfa_offset 24
 648              		.cfi_offset 3, -24
 649 0309 4889FB   		movq	%rdi, %rbx
 650 030c 4883EC08 		subq	$8, %rsp
 651              		.cfi_def_cfa_offset 32
 652 0310 488907   		movq	%rax, (%rdi)
 653              	.LEHB12:
 654 0313 E8000000 		call	_ZN8UnitTest4TestD2Ev@PLT
 654      00
 655              	.LEHE12:
 656 0318 4883C408 		addq	$8, %rsp
 657              		.cfi_remember_state
 658              		.cfi_def_cfa_offset 24
 659 031c 4889DF   		movq	%rbx, %rdi
 660 031f 5B       		popq	%rbx
 661              		.cfi_def_cfa_offset 16
 662 0320 5D       		popq	%rbp
 663              		.cfi_def_cfa_offset 8
 664 0321 E9000000 		jmp	_ZdlPv@PLT
 664      00
 665              	.L49:
 666              		.cfi_restore_state
 667 0326 4889C5   		movq	%rax, %rbp
 668 0329 4889DF   		movq	%rbx, %rdi
 669 032c E8000000 		call	_ZdlPv@PLT
 669      00
 670 0331 4889EF   		movq	%rbp, %rdi
 671              	.LEHB13:
 672 0334 E8000000 		call	_Unwind_Resume@PLT
 672      00
 673              	.LEHE13:
 674              		.cfi_endproc
 675              	.LFE1654:
 676              		.section	.gcc_except_table
 677              	.LLSDA1654:
 678 0048 FF       		.byte	0xff
 679 0049 FF       		.byte	0xff
 680 004a 01       		.byte	0x1
 681 004b 08       		.uleb128 .LLSDACSE1654-.LLSDACSB1654
 682              	.LLSDACSB1654:
 683 004c 13       		.uleb128 .LEHB12-.LFB1654
 684 004d 05       		.uleb128 .LEHE12-.LEHB12
 685 004e 26       		.uleb128 .L49-.LFB1654
 686 004f 00       		.uleb128 0
 687 0050 34       		.uleb128 .LEHB13-.LFB1654
 688 0051 05       		.uleb128 .LEHE13-.LEHB13
 689 0052 00       		.uleb128 0
 690 0053 00       		.uleb128 0
 691              	.LLSDACSE1654:
 692              		.text
 694 0339 90       		.align 2
 695 033a 660F1F44 		.p2align 4,,15
 695      0000
 697              	_ZN12_GLOBAL__N_123TestCheckAssertSucceedsD0Ev:
 698              	.LFB1662:
 699              		.cfi_startproc
 700              		.cfi_personality 0x9b,DW.ref.__gxx_personality_v0
 701              		.cfi_lsda 0x1b,.LLSDA1662
 702 0340 55       		pushq	%rbp
 703              		.cfi_def_cfa_offset 16
 704              		.cfi_offset 6, -16
 705 0341 488D0500 		leaq	16+_ZTVN12_GLOBAL__N_123TestCheckAssertSucceedsE(%rip), %rax
 705      000000
 706 0348 53       		pushq	%rbx
 707              		.cfi_def_cfa_offset 24
 708              		.cfi_offset 3, -24
 709 0349 4889FB   		movq	%rdi, %rbx
 710 034c 4883EC08 		subq	$8, %rsp
 711              		.cfi_def_cfa_offset 32
 712 0350 488907   		movq	%rax, (%rdi)
 713              	.LEHB14:
 714 0353 E8000000 		call	_ZN8UnitTest4TestD2Ev@PLT
 714      00
 715              	.LEHE14:
 716 0358 4883C408 		addq	$8, %rsp
 717              		.cfi_remember_state
 718              		.cfi_def_cfa_offset 24
 719 035c 4889DF   		movq	%rbx, %rdi
 720 035f 5B       		popq	%rbx
 721              		.cfi_def_cfa_offset 16
 722 0360 5D       		popq	%rbp
 723              		.cfi_def_cfa_offset 8
 724 0361 E9000000 		jmp	_ZdlPv@PLT
 724      00
 725              	.L53:
 726              		.cfi_restore_state
 727 0366 4889C5   		movq	%rax, %rbp
 728 0369 4889DF   		movq	%rbx, %rdi
 729 036c E8000000 		call	_ZdlPv@PLT
 729      00
 730 0371 4889EF   		movq	%rbp, %rdi
 731              	.LEHB15:
 732 0374 E8000000 		call	_Unwind_Resume@PLT
 732      00
 733              	.LEHE15:
 734              		.cfi_endproc
 735              	.LFE1662:
 736              		.section	.gcc_except_table
 737              	.LLSDA1662:
 738 0054 FF       		.byte	0xff
 739 0055 FF       		.byte	0xff
 740 0056 01       		.byte	0x1
 741 0057 08       		.uleb128 .LLSDACSE1662-.LLSDACSB1662
 742              	.LLSDACSB1662:
 743 0058 13       		.uleb128 .LEHB14-.LFB1662
 744 0059 05       		.uleb128 .LEHE14-.LEHB14
 745 005a 26       		.uleb128 .L53-.LFB1662
 746 005b 00       		.uleb128 0
 747 005c 34       		.uleb128 .LEHB15-.LFB1662
 748 005d 05       		.uleb128 .LEHE15-.LEHB15
 749 005e 00       		.uleb128 0
 750 005f 00       		.uleb128 0
 751              	.LLSDACSE1662:
 752              		.text
 754 0379 90       		.align 2
 755 037a 660F1F44 		.p2align 4,,15
 755      0000
 757              	_ZN12_GLOBAL__N_145TestCheckThrowMacroSucceedsOnCorrectExceptionD0Ev:
 758              	.LFB1666:
 759              		.cfi_startproc
 760              		.cfi_personality 0x9b,DW.ref.__gxx_personality_v0
 761              		.cfi_lsda 0x1b,.LLSDA1666
 762 0380 55       		pushq	%rbp
 763              		.cfi_def_cfa_offset 16
 764              		.cfi_offset 6, -16
 765 0381 488D0500 		leaq	16+_ZTVN12_GLOBAL__N_145TestCheckThrowMacroSucceedsOnCorrectExceptionE(%rip), %rax
 765      000000
 766 0388 53       		pushq	%rbx
 767              		.cfi_def_cfa_offset 24
 768              		.cfi_offset 3, -24
 769 0389 4889FB   		movq	%rdi, %rbx
 770 038c 4883EC08 		subq	$8, %rsp
 771              		.cfi_def_cfa_offset 32
 772 0390 488907   		movq	%rax, (%rdi)
 773              	.LEHB16:
 774 0393 E8000000 		call	_ZN8UnitTest4TestD2Ev@PLT
 774      00
 775              	.LEHE16:
 776 0398 4883C408 		addq	$8, %rsp
 777              		.cfi_remember_state
 778              		.cfi_def_cfa_offset 24
 779 039c 4889DF   		movq	%rbx, %rdi
 780 039f 5B       		popq	%rbx
 781              		.cfi_def_cfa_offset 16
 782 03a0 5D       		popq	%rbp
 783              		.cfi_def_cfa_offset 8
 784 03a1 E9000000 		jmp	_ZdlPv@PLT
 784      00
 785              	.L57:
 786              		.cfi_restore_state
 787 03a6 4889C5   		movq	%rax, %rbp
 788 03a9 4889DF   		movq	%rbx, %rdi
 789 03ac E8000000 		call	_ZdlPv@PLT
 789      00
 790 03b1 4889EF   		movq	%rbp, %rdi
 791              	.LEHB17:
 792 03b4 E8000000 		call	_Unwind_Resume@PLT
 792      00
 793              	.LEHE17:
 794              		.cfi_endproc
 795              	.LFE1666:
 796              		.section	.gcc_except_table
 797              	.LLSDA1666:
 798 0060 FF       		.byte	0xff
 799 0061 FF       		.byte	0xff
 800 0062 01       		.byte	0x1
 801 0063 08       		.uleb128 .LLSDACSE1666-.LLSDACSB1666
 802              	.LLSDACSB1666:
 803 0064 13       		.uleb128 .LEHB16-.LFB1666
 804 0065 05       		.uleb128 .LEHE16-.LEHB16
 805 0066 26       		.uleb128 .L57-.LFB1666
 806 0067 00       		.uleb128 0
 807 0068 34       		.uleb128 .LEHB17-.LFB1666
 808 0069 05       		.uleb128 .LEHE17-.LEHB17
 809 006a 00       		.uleb128 0
 810 006b 00       		.uleb128 0
 811              	.LLSDACSE1666:
 812              		.text
 814 03b9 90       		.align 2
 815 03ba 660F1F44 		.p2align 4,,15
 815      0000
 817              	_ZN12_GLOBAL__N_135TestCheckArrayCloseWorksWithVectorsD0Ev:
 818              	.LFB1670:
 819              		.cfi_startproc
 820              		.cfi_personality 0x9b,DW.ref.__gxx_personality_v0
 821              		.cfi_lsda 0x1b,.LLSDA1670
 822 03c0 55       		pushq	%rbp
 823              		.cfi_def_cfa_offset 16
 824              		.cfi_offset 6, -16
 825 03c1 488D0500 		leaq	16+_ZTVN12_GLOBAL__N_135TestCheckArrayCloseWorksWithVectorsE(%rip), %rax
 825      000000
 826 03c8 53       		pushq	%rbx
 827              		.cfi_def_cfa_offset 24
 828              		.cfi_offset 3, -24
 829 03c9 4889FB   		movq	%rdi, %rbx
 830 03cc 4883EC08 		subq	$8, %rsp
 831              		.cfi_def_cfa_offset 32
 832 03d0 488907   		movq	%rax, (%rdi)
 833              	.LEHB18:
 834 03d3 E8000000 		call	_ZN8UnitTest4TestD2Ev@PLT
 834      00
 835              	.LEHE18:
 836 03d8 4883C408 		addq	$8, %rsp
 837              		.cfi_remember_state
 838              		.cfi_def_cfa_offset 24
 839 03dc 4889DF   		movq	%rbx, %rdi
 840 03df 5B       		popq	%rbx
 841              		.cfi_def_cfa_offset 16
 842 03e0 5D       		popq	%rbp
 843              		.cfi_def_cfa_offset 8
 844 03e1 E9000000 		jmp	_ZdlPv@PLT
 844      00
 845              	.L61:
 846              		.cfi_restore_state
 847 03e6 4889C5   		movq	%rax, %rbp
 848 03e9 4889DF   		movq	%rbx, %rdi
 849 03ec E8000000 		call	_ZdlPv@PLT
 849      00
 850 03f1 4889EF   		movq	%rbp, %rdi
 851              	.LEHB19:
 852 03f4 E8000000 		call	_Unwind_Resume@PLT
 852      00
 853              	.LEHE19:
 854              		.cfi_endproc
 855              	.LFE1670:
 856              		.section	.gcc_except_table
 857              	.LLSDA1670:
 858 006c FF       		.byte	0xff
 859 006d FF       		.byte	0xff
 860 006e 01       		.byte	0x1
 861 006f 08       		.uleb128 .LLSDACSE1670-.LLSDACSB1670
 862              	.LLSDACSB1670:
 863 0070 13       		.uleb128 .LEHB18-.LFB1670
 864 0071 05       		.uleb128 .LEHE18-.LEHB18
 865 0072 26       		.uleb128 .L61-.LFB1670
 866 0073 00       		.uleb128 0
 867 0074 34       		.uleb128 .LEHB19-.LFB1670
 868 0075 05       		.uleb128 .LEHE19-.LEHB19
 869 0076 00       		.uleb128 0
 870 0077 00       		.uleb128 0
 871              	.LLSDACSE1670:
 872              		.text
 874 03f9 90       		.align 2
 875 03fa 660F1F44 		.p2align 4,,15
 875      0000
 877              	_ZN12_GLOBAL__N_122TestArrayCloseSucceedsD0Ev:
 878              	.LFB1674:
 879              		.cfi_startproc
 880              		.cfi_personality 0x9b,DW.ref.__gxx_personality_v0
 881              		.cfi_lsda 0x1b,.LLSDA1674
 882 0400 55       		pushq	%rbp
 883              		.cfi_def_cfa_offset 16
 884              		.cfi_offset 6, -16
 885 0401 488D0500 		leaq	16+_ZTVN12_GLOBAL__N_122TestArrayCloseSucceedsE(%rip), %rax
 885      000000
 886 0408 53       		pushq	%rbx
 887              		.cfi_def_cfa_offset 24
 888              		.cfi_offset 3, -24
 889 0409 4889FB   		movq	%rdi, %rbx
 890 040c 4883EC08 		subq	$8, %rsp
 891              		.cfi_def_cfa_offset 32
 892 0410 488907   		movq	%rax, (%rdi)
 893              	.LEHB20:
 894 0413 E8000000 		call	_ZN8UnitTest4TestD2Ev@PLT
 894      00
 895              	.LEHE20:
 896 0418 4883C408 		addq	$8, %rsp
 897              		.cfi_remember_state
 898              		.cfi_def_cfa_offset 24
 899 041c 4889DF   		movq	%rbx, %rdi
 900 041f 5B       		popq	%rbx
 901              		.cfi_def_cfa_offset 16
 902 0420 5D       		popq	%rbp
 903              		.cfi_def_cfa_offset 8
 904 0421 E9000000 		jmp	_ZdlPv@PLT
 904      00
 905              	.L65:
 906              		.cfi_restore_state
 907 0426 4889C5   		movq	%rax, %rbp
 908 0429 4889DF   		movq	%rbx, %rdi
 909 042c E8000000 		call	_ZdlPv@PLT
 909      00
 910 0431 4889EF   		movq	%rbp, %rdi
 911              	.LEHB21:
 912 0434 E8000000 		call	_Unwind_Resume@PLT
 912      00
 913              	.LEHE21:
 914              		.cfi_endproc
 915              	.LFE1674:
 916              		.section	.gcc_except_table
 917              	.LLSDA1674:
 918 0078 FF       		.byte	0xff
 919 0079 FF       		.byte	0xff
 920 007a 01       		.byte	0x1
 921 007b 08       		.uleb128 .LLSDACSE1674-.LLSDACSB1674
 922              	.LLSDACSB1674:
 923 007c 13       		.uleb128 .LEHB20-.LFB1674
 924 007d 05       		.uleb128 .LEHE20-.LEHB20
 925 007e 26       		.uleb128 .L65-.LFB1674
 926 007f 00       		.uleb128 0
 927 0080 34       		.uleb128 .LEHB21-.LFB1674
 928 0081 05       		.uleb128 .LEHE21-.LEHB21
 929 0082 00       		.uleb128 0
 930 0083 00       		.uleb128 0
 931              	.LLSDACSE1674:
 932              		.text
 934 0439 90       		.align 2
 935 043a 660F1F44 		.p2align 4,,15
 935      0000
 937              	_ZN12_GLOBAL__N_127TestValidCheckCloseSucceedsD0Ev:
 938              	.LFB1678:
 939              		.cfi_startproc
 940              		.cfi_personality 0x9b,DW.ref.__gxx_personality_v0
 941              		.cfi_lsda 0x1b,.LLSDA1678
 942 0440 55       		pushq	%rbp
 943              		.cfi_def_cfa_offset 16
 944              		.cfi_offset 6, -16
 945 0441 488D0500 		leaq	16+_ZTVN12_GLOBAL__N_127TestValidCheckCloseSucceedsE(%rip), %rax
 945      000000
 946 0448 53       		pushq	%rbx
 947              		.cfi_def_cfa_offset 24
 948              		.cfi_offset 3, -24
 949 0449 4889FB   		movq	%rdi, %rbx
 950 044c 4883EC08 		subq	$8, %rsp
 951              		.cfi_def_cfa_offset 32
 952 0450 488907   		movq	%rax, (%rdi)
 953              	.LEHB22:
 954 0453 E8000000 		call	_ZN8UnitTest4TestD2Ev@PLT
 954      00
 955              	.LEHE22:
 956 0458 4883C408 		addq	$8, %rsp
 957              		.cfi_remember_state
 958              		.cfi_def_cfa_offset 24
 959 045c 4889DF   		movq	%rbx, %rdi
 960 045f 5B       		popq	%rbx
 961              		.cfi_def_cfa_offset 16
 962 0460 5D       		popq	%rbp
 963              		.cfi_def_cfa_offset 8
 964 0461 E9000000 		jmp	_ZdlPv@PLT
 964      00
 965              	.L69:
 966              		.cfi_restore_state
 967 0466 4889C5   		movq	%rax, %rbp
 968 0469 4889DF   		movq	%rbx, %rdi
 969 046c E8000000 		call	_ZdlPv@PLT
 969      00
 970 0471 4889EF   		movq	%rbp, %rdi
 971              	.LEHB23:
 972 0474 E8000000 		call	_Unwind_Resume@PLT
 972      00
 973              	.LEHE23:
 974              		.cfi_endproc
 975              	.LFE1678:
 976              		.section	.gcc_except_table
 977              	.LLSDA1678:
 978 0084 FF       		.byte	0xff
 979 0085 FF       		.byte	0xff
 980 0086 01       		.byte	0x1
 981 0087 08       		.uleb128 .LLSDACSE1678-.LLSDACSB1678
 982              	.LLSDACSB1678:
 983 0088 13       		.uleb128 .LEHB22-.LFB1678
 984 0089 05       		.uleb128 .LEHE22-.LEHB22
 985 008a 26       		.uleb128 .L69-.LFB1678
 986 008b 00       		.uleb128 0
 987 008c 34       		.uleb128 .LEHB23-.LFB1678
 988 008d 05       		.uleb128 .LEHE23-.LEHB23
 989 008e 00       		.uleb128 0
 990 008f 00       		.uleb128 0
 991              	.LLSDACSE1678:
 992              		.text
 994 0479 90       		.align 2
 995 047a 660F1F44 		.p2align 4,,15
 995      0000
 997              	_ZN12_GLOBAL__N_131TestCheckEqualWorksWithPointersD0Ev:
 998              	.LFB1682:
 999              		.cfi_startproc
 1000              		.cfi_personality 0x9b,DW.ref.__gxx_personality_v0
 1001              		.cfi_lsda 0x1b,.LLSDA1682
 1002 0480 55       		pushq	%rbp
 1003              		.cfi_def_cfa_offset 16
 1004              		.cfi_offset 6, -16
 1005 0481 488D0500 		leaq	16+_ZTVN12_GLOBAL__N_131TestCheckEqualWorksWithPointersE(%rip), %rax
 1005      000000
 1006 0488 53       		pushq	%rbx
 1007              		.cfi_def_cfa_offset 24
 1008              		.cfi_offset 3, -24
 1009 0489 4889FB   		movq	%rdi, %rbx
 1010 048c 4883EC08 		subq	$8, %rsp
 1011              		.cfi_def_cfa_offset 32
 1012 0490 488907   		movq	%rax, (%rdi)
 1013              	.LEHB24:
 1014 0493 E8000000 		call	_ZN8UnitTest4TestD2Ev@PLT
 1014      00
 1015              	.LEHE24:
 1016 0498 4883C408 		addq	$8, %rsp
 1017              		.cfi_remember_state
 1018              		.cfi_def_cfa_offset 24
 1019 049c 4889DF   		movq	%rbx, %rdi
 1020 049f 5B       		popq	%rbx
 1021              		.cfi_def_cfa_offset 16
 1022 04a0 5D       		popq	%rbp
 1023              		.cfi_def_cfa_offset 8
 1024 04a1 E9000000 		jmp	_ZdlPv@PLT
 1024      00
 1025              	.L73:
 1026              		.cfi_restore_state
 1027 04a6 4889C5   		movq	%rax, %rbp
 1028 04a9 4889DF   		movq	%rbx, %rdi
 1029 04ac E8000000 		call	_ZdlPv@PLT
 1029      00
 1030 04b1 4889EF   		movq	%rbp, %rdi
 1031              	.LEHB25:
 1032 04b4 E8000000 		call	_Unwind_Resume@PLT
 1032      00
 1033              	.LEHE25:
 1034              		.cfi_endproc
 1035              	.LFE1682:
 1036              		.section	.gcc_except_table
 1037              	.LLSDA1682:
 1038 0090 FF       		.byte	0xff
 1039 0091 FF       		.byte	0xff
 1040 0092 01       		.byte	0x1
 1041 0093 08       		.uleb128 .LLSDACSE1682-.LLSDACSB1682
 1042              	.LLSDACSB1682:
 1043 0094 13       		.uleb128 .LEHB24-.LFB1682
 1044 0095 05       		.uleb128 .LEHE24-.LEHB24
 1045 0096 26       		.uleb128 .L73-.LFB1682
 1046 0097 00       		.uleb128 0
 1047 0098 34       		.uleb128 .LEHB25-.LFB1682
 1048 0099 05       		.uleb128 .LEHE25-.LEHB25
 1049 009a 00       		.uleb128 0
 1050 009b 00       		.uleb128 0
 1051              	.LLSDACSE1682:
 1052              		.text
 1054 04b9 90       		.align 2
 1055 04ba 660F1F44 		.p2align 4,,15
 1055      0000
 1057              	_ZN12_GLOBAL__N_127TestValidCheckEqualSucceedsD0Ev:
 1058              	.LFB1686:
 1059              		.cfi_startproc
 1060              		.cfi_personality 0x9b,DW.ref.__gxx_personality_v0
 1061              		.cfi_lsda 0x1b,.LLSDA1686
 1062 04c0 55       		pushq	%rbp
 1063              		.cfi_def_cfa_offset 16
 1064              		.cfi_offset 6, -16
 1065 04c1 488D0500 		leaq	16+_ZTVN12_GLOBAL__N_127TestValidCheckEqualSucceedsE(%rip), %rax
 1065      000000
 1066 04c8 53       		pushq	%rbx
 1067              		.cfi_def_cfa_offset 24
 1068              		.cfi_offset 3, -24
 1069 04c9 4889FB   		movq	%rdi, %rbx
 1070 04cc 4883EC08 		subq	$8, %rsp
 1071              		.cfi_def_cfa_offset 32
 1072 04d0 488907   		movq	%rax, (%rdi)
 1073              	.LEHB26:
 1074 04d3 E8000000 		call	_ZN8UnitTest4TestD2Ev@PLT
 1074      00
 1075              	.LEHE26:
 1076 04d8 4883C408 		addq	$8, %rsp
 1077              		.cfi_remember_state
 1078              		.cfi_def_cfa_offset 24
 1079 04dc 4889DF   		movq	%rbx, %rdi
 1080 04df 5B       		popq	%rbx
 1081              		.cfi_def_cfa_offset 16
 1082 04e0 5D       		popq	%rbp
 1083              		.cfi_def_cfa_offset 8
 1084 04e1 E9000000 		jmp	_ZdlPv@PLT
 1084      00
 1085              	.L77:
 1086              		.cfi_restore_state
 1087 04e6 4889C5   		movq	%rax, %rbp
 1088 04e9 4889DF   		movq	%rbx, %rdi
 1089 04ec E8000000 		call	_ZdlPv@PLT
 1089      00
 1090 04f1 4889EF   		movq	%rbp, %rdi
 1091              	.LEHB27:
 1092 04f4 E8000000 		call	_Unwind_Resume@PLT
 1092      00
 1093              	.LEHE27:
 1094              		.cfi_endproc
 1095              	.LFE1686:
 1096              		.section	.gcc_except_table
 1097              	.LLSDA1686:
 1098 009c FF       		.byte	0xff
 1099 009d FF       		.byte	0xff
 1100 009e 01       		.byte	0x1
 1101 009f 08       		.uleb128 .LLSDACSE1686-.LLSDACSB1686
 1102              	.LLSDACSB1686:
 1103 00a0 13       		.uleb128 .LEHB26-.LFB1686
 1104 00a1 05       		.uleb128 .LEHE26-.LEHB26
 1105 00a2 26       		.uleb128 .L77-.LFB1686
 1106 00a3 00       		.uleb128 0
 1107 00a4 34       		.uleb128 .LEHB27-.LFB1686
 1108 00a5 05       		.uleb128 .LEHE27-.LEHB27
 1109 00a6 00       		.uleb128 0
 1110 00a7 00       		.uleb128 0
 1111              	.LLSDACSE1686:
 1112              		.text
 1114 04f9 90       		.align 2
 1115 04fa 660F1F44 		.p2align 4,,15
 1115      0000
 1117              	_ZN12_GLOBAL__N_126TestCheckWorksWithPointersD0Ev:
 1118              	.LFB1690:
 1119              		.cfi_startproc
 1120              		.cfi_personality 0x9b,DW.ref.__gxx_personality_v0
 1121              		.cfi_lsda 0x1b,.LLSDA1690
 1122 0500 55       		pushq	%rbp
 1123              		.cfi_def_cfa_offset 16
 1124              		.cfi_offset 6, -16
 1125 0501 488D0500 		leaq	16+_ZTVN12_GLOBAL__N_126TestCheckWorksWithPointersE(%rip), %rax
 1125      000000
 1126 0508 53       		pushq	%rbx
 1127              		.cfi_def_cfa_offset 24
 1128              		.cfi_offset 3, -24
 1129 0509 4889FB   		movq	%rdi, %rbx
 1130 050c 4883EC08 		subq	$8, %rsp
 1131              		.cfi_def_cfa_offset 32
 1132 0510 488907   		movq	%rax, (%rdi)
 1133              	.LEHB28:
 1134 0513 E8000000 		call	_ZN8UnitTest4TestD2Ev@PLT
 1134      00
 1135              	.LEHE28:
 1136 0518 4883C408 		addq	$8, %rsp
 1137              		.cfi_remember_state
 1138              		.cfi_def_cfa_offset 24
 1139 051c 4889DF   		movq	%rbx, %rdi
 1140 051f 5B       		popq	%rbx
 1141              		.cfi_def_cfa_offset 16
 1142 0520 5D       		popq	%rbp
 1143              		.cfi_def_cfa_offset 8
 1144 0521 E9000000 		jmp	_ZdlPv@PLT
 1144      00
 1145              	.L81:
 1146              		.cfi_restore_state
 1147 0526 4889C5   		movq	%rax, %rbp
 1148 0529 4889DF   		movq	%rbx, %rdi
 1149 052c E8000000 		call	_ZdlPv@PLT
 1149      00
 1150 0531 4889EF   		movq	%rbp, %rdi
 1151              	.LEHB29:
 1152 0534 E8000000 		call	_Unwind_Resume@PLT
 1152      00
 1153              	.LEHE29:
 1154              		.cfi_endproc
 1155              	.LFE1690:
 1156              		.section	.gcc_except_table
 1157              	.LLSDA1690:
 1158 00a8 FF       		.byte	0xff
 1159 00a9 FF       		.byte	0xff
 1160 00aa 01       		.byte	0x1
 1161 00ab 08       		.uleb128 .LLSDACSE1690-.LLSDACSB1690
 1162              	.LLSDACSB1690:
 1163 00ac 13       		.uleb128 .LEHB28-.LFB1690
 1164 00ad 05       		.uleb128 .LEHE28-.LEHB28
 1165 00ae 26       		.uleb128 .L81-.LFB1690
 1166 00af 00       		.uleb128 0
 1167 00b0 34       		.uleb128 .LEHB29-.LFB1690
 1168 00b1 05       		.uleb128 .LEHE29-.LEHB29
 1169 00b2 00       		.uleb128 0
 1170 00b3 00       		.uleb128 0
 1171              	.LLSDACSE1690:
 1172              		.text
 1174 0539 90       		.align 2
 1175 053a 660F1F44 		.p2align 4,,15
 1175      0000
 1177              	_ZN12_GLOBAL__N_122TestValidCheckSucceedsD0Ev:
 1178              	.LFB1694:
 1179              		.cfi_startproc
 1180              		.cfi_personality 0x9b,DW.ref.__gxx_personality_v0
 1181              		.cfi_lsda 0x1b,.LLSDA1694
 1182 0540 55       		pushq	%rbp
 1183              		.cfi_def_cfa_offset 16
 1184              		.cfi_offset 6, -16
 1185 0541 488D0500 		leaq	16+_ZTVN12_GLOBAL__N_122TestValidCheckSucceedsE(%rip), %rax
 1185      000000
 1186 0548 53       		pushq	%rbx
 1187              		.cfi_def_cfa_offset 24
 1188              		.cfi_offset 3, -24
 1189 0549 4889FB   		movq	%rdi, %rbx
 1190 054c 4883EC08 		subq	$8, %rsp
 1191              		.cfi_def_cfa_offset 32
 1192 0550 488907   		movq	%rax, (%rdi)
 1193              	.LEHB30:
 1194 0553 E8000000 		call	_ZN8UnitTest4TestD2Ev@PLT
 1194      00
 1195              	.LEHE30:
 1196 0558 4883C408 		addq	$8, %rsp
 1197              		.cfi_remember_state
 1198              		.cfi_def_cfa_offset 24
 1199 055c 4889DF   		movq	%rbx, %rdi
 1200 055f 5B       		popq	%rbx
 1201              		.cfi_def_cfa_offset 16
 1202 0560 5D       		popq	%rbp
 1203              		.cfi_def_cfa_offset 8
 1204 0561 E9000000 		jmp	_ZdlPv@PLT
 1204      00
 1205              	.L85:
 1206              		.cfi_restore_state
 1207 0566 4889C5   		movq	%rax, %rbp
 1208 0569 4889DF   		movq	%rbx, %rdi
 1209 056c E8000000 		call	_ZdlPv@PLT
 1209      00
 1210 0571 4889EF   		movq	%rbp, %rdi
 1211              	.LEHB31:
 1212 0574 E8000000 		call	_Unwind_Resume@PLT
 1212      00
 1213              	.LEHE31:
 1214              		.cfi_endproc
 1215              	.LFE1694:
 1216              		.section	.gcc_except_table
 1217              	.LLSDA1694:
 1218 00b4 FF       		.byte	0xff
 1219 00b5 FF       		.byte	0xff
 1220 00b6 01       		.byte	0x1
 1221 00b7 08       		.uleb128 .LLSDACSE1694-.LLSDACSB1694
 1222              	.LLSDACSB1694:
 1223 00b8 13       		.uleb128 .LEHB30-.LFB1694
 1224 00b9 05       		.uleb128 .LEHE30-.LEHB30
 1225 00ba 26       		.uleb128 .L85-.LFB1694
 1226 00bb 00       		.uleb128 0
 1227 00bc 34       		.uleb128 .LEHB31-.LFB1694
 1228 00bd 05       		.uleb128 .LEHE31-.LEHB31
 1229 00be 00       		.uleb128 0
 1230 00bf 00       		.uleb128 0
 1231              	.LLSDACSE1694:
 1232              		.text
 1234              		.section	.rodata.str1.1,"aMS",@progbits,1
 1235              	.LC1:
 1236 0000 6F6F7073 		.string	"oops"
 1236      00
 1237              		.text
 1238 0579 90       		.align 2
 1239 057a 660F1F44 		.p2align 4,,15
 1239      0000
 1241              	_ZZNK12_GLOBAL__N_140TestCheckThrowMacroFailsOnWrongException7RunImplEvENK14WrongThrowTest7RunImplE
 1242              	.LFB1443:
 1243              		.cfi_startproc
 1244              		.cfi_personality 0x9b,DW.ref.__gxx_personality_v0
 1245              		.cfi_lsda 0x1b,.LLSDA1443
 1246 0580 55       		pushq	%rbp
 1247              		.cfi_def_cfa_offset 16
 1248              		.cfi_offset 6, -16
 1249 0581 53       		pushq	%rbx
 1250              		.cfi_def_cfa_offset 24
 1251              		.cfi_offset 3, -24
 1252 0582 BF080000 		movl	$8, %edi
 1252      00
 1253 0587 4883EC38 		subq	$56, %rsp
 1254              		.cfi_def_cfa_offset 80
 1255 058b 64488B04 		movq	%fs:40, %rax
 1255      25280000 
 1255      00
 1256 0594 48894424 		movq	%rax, 40(%rsp)
 1256      28
 1257 0599 31C0     		xorl	%eax, %eax
 1258 059b E8000000 		call	__cxa_allocate_exception@PLT
 1258      00
 1259 05a0 488D0D00 		leaq	.LC1(%rip), %rcx
 1259      000000
 1260 05a7 488D3500 		leaq	_ZTIPKc(%rip), %rsi
 1260      000000
 1261 05ae 31D2     		xorl	%edx, %edx
 1262 05b0 4889C7   		movq	%rax, %rdi
 1263 05b3 488908   		movq	%rcx, (%rax)
 1264              	.LEHB32:
 1265 05b6 E8000000 		call	__cxa_throw@PLT
 1265      00
 1266              	.LEHE32:
 1267              	.L93:
 1268 05bb 4883EA01 		subq	$1, %rdx
 1269 05bf 4889C7   		movq	%rax, %rdi
 1270 05c2 7521     		jne	.L94
 1271 05c4 E8000000 		call	__cxa_begin_catch@PLT
 1271      00
 1272 05c9 E8000000 		call	__cxa_end_catch@PLT
 1272      00
 1273              	.L87:
 1274 05ce 488B4424 		movq	40(%rsp), %rax
 1274      28
 1275 05d3 64483304 		xorq	%fs:40, %rax
 1275      25280000 
 1275      00
 1276 05dc 7545     		jne	.L96
 1277 05de 4883C438 		addq	$56, %rsp
 1278              		.cfi_remember_state
 1279              		.cfi_def_cfa_offset 24
 1280 05e2 5B       		popq	%rbx
 1281              		.cfi_def_cfa_offset 16
 1282 05e3 5D       		popq	%rbp
 1283              		.cfi_def_cfa_offset 8
 1284 05e4 C3       		ret
 1285              	.L94:
 1286              		.cfi_restore_state
 1287 05e5 E8000000 		call	__cxa_begin_catch@PLT
 1287      00
 1288              	.LEHB33:
 1289 05ea E8000000 		call	__cxa_end_catch@PLT
 1289      00
 1290 05ef E8000000 		call	_ZN8UnitTest11CurrentTest7ResultsEv@PLT
 1290      00
 1291 05f4 488B28   		movq	(%rax), %rbp
 1292 05f7 4889E3   		movq	%rsp, %rbx
 1293 05fa E8000000 		call	_ZN8UnitTest11CurrentTest7DetailsEv@PLT
 1293      00
 1294 05ff 488B30   		movq	(%rax), %rsi
 1295 0602 4889DF   		movq	%rbx, %rdi
 1296 0605 BA690000 		movl	$105, %edx
 1296      00
 1297 060a E8000000 		call	_ZN8UnitTest11TestDetailsC1ERKS0_i@PLT
 1297      00
 1298 060f 488D1500 		leaq	.LC0(%rip), %rdx
 1298      000000
 1299 0616 4889DE   		movq	%rbx, %rsi
 1300 0619 4889EF   		movq	%rbp, %rdi
 1301 061c E8000000 		call	_ZN8UnitTest11TestResults13OnTestFailureERKNS_11TestDetailsEPKc@PLT
 1301      00
 1302              	.LEHE33:
 1303 0621 EBAB     		jmp	.L87
 1304              	.L96:
 1305 0623 E8000000 		call	__stack_chk_fail@PLT
 1305      00
 1306              		.cfi_endproc
 1307              	.LFE1443:
 1308              		.section	.gcc_except_table
 1309              		.align 4
 1310              	.LLSDA1443:
 1311 00c0 FF       		.byte	0xff
 1312 00c1 9B       		.byte	0x9b
 1313 00c2 19       		.uleb128 .LLSDATT1443-.LLSDATTD1443
 1314              	.LLSDATTD1443:
 1315 00c3 01       		.byte	0x1
 1316 00c4 08       		.uleb128 .LLSDACSE1443-.LLSDACSB1443
 1317              	.LLSDACSB1443:
 1318 00c5 36       		.uleb128 .LEHB32-.LFB1443
 1319 00c6 05       		.uleb128 .LEHE32-.LEHB32
 1320 00c7 3B       		.uleb128 .L93-.LFB1443
 1321 00c8 03       		.uleb128 0x3
 1322 00c9 6A       		.uleb128 .LEHB33-.LFB1443
 1323 00ca 37       		.uleb128 .LEHE33-.LEHB33
 1324 00cb 00       		.uleb128 0
 1325 00cc 00       		.uleb128 0
 1326              	.LLSDACSE1443:
 1327 00cd 02       		.byte	0x2
 1328 00ce 00       		.byte	0
 1329 00cf 01       		.byte	0x1
 1330 00d0 7D       		.byte	0x7d
 1331 00d1 000000   		.align 4
 1332 00d4 00000000 		.long	0
 1333              	
 1334 00d8 00000000 		.long	DW.ref._ZTIi-.
 1335              	.LLSDATT1443:
 1336              		.text
 1338              		.section	.rodata.str1.8
 1339 0025 000000   		.align 8
 1340              	.LC2:
 1341 0028 45787065 		.string	"Expected exception: \"TestException\" not thrown"
 1341      63746564 
 1341      20657863 
 1341      65707469 
 1341      6F6E3A20 
 1342              		.text
 1343              		.align 2
 1344 0628 0F1F8400 		.p2align 4,,15
 1344      00000000 
 1346              	_ZNK12_GLOBAL__N_145TestCheckThrowMacroSucceedsOnCorrectException7RunImplEv:
 1347              	.LFB1422:
 1348              		.cfi_startproc
 1349              		.cfi_personality 0x9b,DW.ref.__gxx_personality_v0
 1350              		.cfi_lsda 0x1b,.LLSDA1422
 1351 0630 55       		pushq	%rbp
 1352              		.cfi_def_cfa_offset 16
 1353              		.cfi_offset 6, -16
 1354 0631 53       		pushq	%rbx
 1355              		.cfi_def_cfa_offset 24
 1356              		.cfi_offset 3, -24
 1357 0632 BF010000 		movl	$1, %edi
 1357      00
 1358 0637 4883EC38 		subq	$56, %rsp
 1359              		.cfi_def_cfa_offset 80
 1360 063b 64488B04 		movq	%fs:40, %rax
 1360      25280000 
 1360      00
 1361 0644 48894424 		movq	%rax, 40(%rsp)
 1361      28
 1362 0649 31C0     		xorl	%eax, %eax
 1363 064b E8000000 		call	__cxa_allocate_exception@PLT
 1363      00
 1364 0650 488D3500 		leaq	_ZTIZNK12_GLOBAL__N_145TestCheckThrowMacroSucceedsOnCorrectException7RunImplEvE13TestExceptio
 1364      000000
 1365 0657 31D2     		xorl	%edx, %edx
 1366 0659 4889C7   		movq	%rax, %rdi
 1367              	.LEHB34:
 1368 065c E8000000 		call	__cxa_throw@PLT
 1368      00
 1369              	.LEHE34:
 1370              	.L103:
 1371 0661 4883EA01 		subq	$1, %rdx
 1372 0665 4889C7   		movq	%rax, %rdi
 1373 0668 7521     		jne	.L104
 1374 066a E8000000 		call	__cxa_begin_catch@PLT
 1374      00
 1375 066f E8000000 		call	__cxa_end_catch@PLT
 1375      00
 1376              	.L97:
 1377 0674 488B4424 		movq	40(%rsp), %rax
 1377      28
 1378 0679 64483304 		xorq	%fs:40, %rax
 1378      25280000 
 1378      00
 1379 0682 7545     		jne	.L106
 1380 0684 4883C438 		addq	$56, %rsp
 1381              		.cfi_remember_state
 1382              		.cfi_def_cfa_offset 24
 1383 0688 5B       		popq	%rbx
 1384              		.cfi_def_cfa_offset 16
 1385 0689 5D       		popq	%rbp
 1386              		.cfi_def_cfa_offset 8
 1387 068a C3       		ret
 1388              	.L104:
 1389              		.cfi_restore_state
 1390 068b E8000000 		call	__cxa_begin_catch@PLT
 1390      00
 1391              	.LEHB35:
 1392 0690 E8000000 		call	__cxa_end_catch@PLT
 1392      00
 1393 0695 E8000000 		call	_ZN8UnitTest11CurrentTest7ResultsEv@PLT
 1393      00
 1394 069a 488B28   		movq	(%rax), %rbp
 1395 069d 4889E3   		movq	%rsp, %rbx
 1396 06a0 E8000000 		call	_ZN8UnitTest11CurrentTest7DetailsEv@PLT
 1396      00
 1397 06a5 488B30   		movq	(%rax), %rsi
 1398 06a8 4889DF   		movq	%rbx, %rdi
 1399 06ab BA3E0000 		movl	$62, %edx
 1399      00
 1400 06b0 E8000000 		call	_ZN8UnitTest11TestDetailsC1ERKS0_i@PLT
 1400      00
 1401 06b5 488D1500 		leaq	.LC2(%rip), %rdx
 1401      000000
 1402 06bc 4889DE   		movq	%rbx, %rsi
 1403 06bf 4889EF   		movq	%rbp, %rdi
 1404 06c2 E8000000 		call	_ZN8UnitTest11TestResults13OnTestFailureERKNS_11TestDetailsEPKc@PLT
 1404      00
 1405              	.LEHE35:
 1406 06c7 EBAB     		jmp	.L97
 1407              	.L106:
 1408 06c9 E8000000 		call	__stack_chk_fail@PLT
 1408      00
 1409              		.cfi_endproc
 1410              	.LFE1422:
 1411              		.section	.gcc_except_table
 1412              		.align 4
 1413              	.LLSDA1422:
 1414 00dc FF       		.byte	0xff
 1415 00dd 9B       		.byte	0x9b
 1416 00de 19       		.uleb128 .LLSDATT1422-.LLSDATTD1422
 1417              	.LLSDATTD1422:
 1418 00df 01       		.byte	0x1
 1419 00e0 08       		.uleb128 .LLSDACSE1422-.LLSDACSB1422
 1420              	.LLSDACSB1422:
 1421 00e1 2C       		.uleb128 .LEHB34-.LFB1422
 1422 00e2 05       		.uleb128 .LEHE34-.LEHB34
 1423 00e3 31       		.uleb128 .L103-.LFB1422
 1424 00e4 03       		.uleb128 0x3
 1425 00e5 60       		.uleb128 .LEHB35-.LFB1422
 1426 00e6 37       		.uleb128 .LEHE35-.LEHB35
 1427 00e7 00       		.uleb128 0
 1428 00e8 00       		.uleb128 0
 1429              	.LLSDACSE1422:
 1430 00e9 02       		.byte	0x2
 1431 00ea 00       		.byte	0
 1432 00eb 01       		.byte	0x1
 1433 00ec 7D       		.byte	0x7d
 1434 00ed 000000   		.align 4
 1435 00f0 00000000 		.long	0
 1436              	
 1437 00f4 00000000 		.long	.LDFCM0-.
 1438              	.LLSDATT1422:
 1439              		.text
 1441              		.section	.rodata.str1.1
 1442              	.LC3:
 1443 0005 66696C65 		.string	"file"
 1443      00
 1444              	.LC4:
 1445 000a 64657363 		.string	"desc"
 1445      00
 1446              		.section	.rodata.str1.8
 1447 0057 00       		.align 8
 1448              	.LC5:
 1449 0058 45787065 		.string	"Expected exception: \"UnitTest::AssertException\" not thrown"
 1449      63746564 
 1449      20657863 
 1449      65707469 
 1449      6F6E3A20 
 1450              		.text
 1451              		.align 2
 1452 06ce 6690     		.p2align 4,,15
 1454              	_ZNK12_GLOBAL__N_123TestCheckAssertSucceeds7RunImplEv:
 1455              	.LFB1426:
 1456              		.cfi_startproc
 1457              		.cfi_personality 0x9b,DW.ref.__gxx_personality_v0
 1458              		.cfi_lsda 0x1b,.LLSDA1426
 1459 06d0 55       		pushq	%rbp
 1460              		.cfi_def_cfa_offset 16
 1461              		.cfi_offset 6, -16
 1462 06d1 53       		pushq	%rbx
 1463              		.cfi_def_cfa_offset 24
 1464              		.cfi_offset 3, -24
 1465 06d2 488D3500 		leaq	.LC3(%rip), %rsi
 1465      000000
 1466 06d9 488D3D00 		leaq	.LC4(%rip), %rdi
 1466      000000
 1467 06e0 31D2     		xorl	%edx, %edx
 1468 06e2 4883EC38 		subq	$56, %rsp
 1469              		.cfi_def_cfa_offset 80
 1470 06e6 64488B04 		movq	%fs:40, %rax
 1470      25280000 
 1470      00
 1471 06ef 48894424 		movq	%rax, 40(%rsp)
 1471      28
 1472 06f4 31C0     		xorl	%eax, %eax
 1473              	.LEHB36:
 1474 06f6 E8000000 		call	_ZN8UnitTest12ReportAssertEPKcS1_i@PLT
 1474      00
 1475              	.LEHE36:
 1476              	.L112:
 1477              	.LEHB37:
 1478 06fb E8000000 		call	_ZN8UnitTest11CurrentTest7ResultsEv@PLT
 1478      00
 1479 0700 488B28   		movq	(%rax), %rbp
 1480 0703 4889E3   		movq	%rsp, %rbx
 1481 0706 E8000000 		call	_ZN8UnitTest11CurrentTest7DetailsEv@PLT
 1481      00
 1482 070b 488B30   		movq	(%rax), %rsi
 1483 070e BA430000 		movl	$67, %edx
 1483      00
 1484 0713 4889DF   		movq	%rbx, %rdi
 1485 0716 E8000000 		call	_ZN8UnitTest11TestDetailsC1ERKS0_i@PLT
 1485      00
 1486 071b 488D1500 		leaq	.LC5(%rip), %rdx
 1486      000000
 1487 0722 4889DE   		movq	%rbx, %rsi
 1488 0725 4889EF   		movq	%rbp, %rdi
 1489 0728 E8000000 		call	_ZN8UnitTest11TestResults13OnTestFailureERKNS_11TestDetailsEPKc@PLT
 1489      00
 1490              	.L107:
 1491 072d 488B4424 		movq	40(%rsp), %rax
 1491      28
 1492 0732 64483304 		xorq	%fs:40, %rax
 1492      25280000 
 1492      00
 1493 073b 7507     		jne	.L117
 1494 073d 4883C438 		addq	$56, %rsp
 1495              		.cfi_remember_state
 1496              		.cfi_def_cfa_offset 24
 1497 0741 5B       		popq	%rbx
 1498              		.cfi_def_cfa_offset 16
 1499 0742 5D       		popq	%rbp
 1500              		.cfi_def_cfa_offset 8
 1501 0743 C3       		ret
 1502              	.L117:
 1503              		.cfi_restore_state
 1504 0744 E8000000 		call	__stack_chk_fail@PLT
 1504      00
 1505              	.L114:
 1506 0749 4883EA01 		subq	$1, %rdx
 1507 074d 4889C7   		movq	%rax, %rdi
 1508 0750 750C     		jne	.L115
 1509 0752 E8000000 		call	__cxa_begin_catch@PLT
 1509      00
 1510 0757 E8000000 		call	__cxa_end_catch@PLT
 1510      00
 1511 075c EBCF     		jmp	.L107
 1512              	.L115:
 1513 075e E8000000 		call	__cxa_begin_catch@PLT
 1513      00
 1514 0763 E8000000 		call	__cxa_end_catch@PLT
 1514      00
 1515              	.LEHE37:
 1516 0768 EB91     		jmp	.L112
 1517              		.cfi_endproc
 1518              	.LFE1426:
 1519              		.section	.gcc_except_table
 1520              		.align 4
 1521              	.LLSDA1426:
 1522 00f8 FF       		.byte	0xff
 1523 00f9 9B       		.byte	0x9b
 1524 00fa 19       		.uleb128 .LLSDATT1426-.LLSDATTD1426
 1525              	.LLSDATTD1426:
 1526 00fb 01       		.byte	0x1
 1527 00fc 08       		.uleb128 .LLSDACSE1426-.LLSDACSB1426
 1528              	.LLSDACSB1426:
 1529 00fd 26       		.uleb128 .LEHB36-.LFB1426
 1530 00fe 05       		.uleb128 .LEHE36-.LEHB36
 1531 00ff 79       		.uleb128 .L114-.LFB1426
 1532 0100 03       		.uleb128 0x3
 1533 0101 2B       		.uleb128 .LEHB37-.LFB1426
 1534 0102 6D       		.uleb128 .LEHE37-.LEHB37
 1535 0103 00       		.uleb128 0
 1536 0104 00       		.uleb128 0
 1537              	.LLSDACSE1426:
 1538 0105 02       		.byte	0x2
 1539 0106 00       		.byte	0
 1540 0107 01       		.byte	0x1
 1541 0108 7D       		.byte	0x7d
 1542 0109 000000   		.align 4
 1543 010c 00000000 		.long	0
 1544              	
 1545 0110 00000000 		.long	DW.ref._ZTIN8UnitTest15AssertExceptionE-.
 1546              	.LLSDATT1426:
 1547              		.text
 1549              		.align 2
 1550 076a 660F1F44 		.p2align 4,,15
 1550      0000
 1552              	_ZNK12_GLOBAL__N_137TestCanCallCHECKOutsideOfTestFunction7RunImplEv:
 1553              	.LFB1476:
 1554              		.cfi_startproc
 1555 0770 F3C3     		rep ret
 1556              		.cfi_endproc
 1557              	.LFE1476:
 1559              		.section	.text._ZN8UnitTest15MemoryOutStreamD1Ev,"axG",@progbits,_ZN8UnitTest15MemoryOutStreamD1Ev
 1560              		.align 2
 1561              		.p2align 4,,15
 1562              		.weak	_ZN8UnitTest15MemoryOutStreamD1Ev
 1564              	_ZN8UnitTest15MemoryOutStreamD1Ev:
 1565              	.LFB1697:
 1566              		.cfi_startproc
 1567 0000 55       		pushq	%rbp
 1568              		.cfi_def_cfa_offset 16
 1569              		.cfi_offset 6, -16
 1570 0001 488D0500 		leaq	24+_ZTVN8UnitTest15MemoryOutStreamE(%rip), %rax
 1570      000000
 1571 0008 53       		pushq	%rbx
 1572              		.cfi_def_cfa_offset 24
 1573              		.cfi_offset 3, -24
 1574 0009 4889FB   		movq	%rdi, %rbx
 1575 000c 4883EC08 		subq	$8, %rsp
 1576              		.cfi_def_cfa_offset 32
 1577 0010 488907   		movq	%rax, (%rdi)
 1578 0013 4883C028 		addq	$40, %rax
 1579 0017 48898790 		movq	%rax, 144(%rdi)
 1579      000000
 1580 001e 488B7F70 		movq	112(%rdi), %rdi
 1581 0022 488D8380 		leaq	128(%rbx), %rax
 1581      000000
 1582 0029 4839C7   		cmpq	%rax, %rdi
 1583 002c 7405     		je	.L120
 1584 002e E8000000 		call	_ZdlPv@PLT
 1584      00
 1585              	.L120:
 1586 0033 488D0500 		leaq	24+_ZTCN8UnitTest15MemoryOutStreamE0_NSt7__cxx1119basic_ostringstreamIcSt11char_traitsIcESaIc
 1586      000000
 1587 003a 488B7B50 		movq	80(%rbx), %rdi
 1588 003e 488DAB90 		leaq	144(%rbx), %rbp
 1588      000000
 1589 0045 488903   		movq	%rax, (%rbx)
 1590 0048 4883C028 		addq	$40, %rax
 1591 004c 48898390 		movq	%rax, 144(%rbx)
 1591      000000
 1592 0053 488D0500 		leaq	16+_ZTVNSt7__cxx1115basic_stringbufIcSt11char_traitsIcESaIcEEE(%rip), %rax
 1592      000000
 1593 005a 48894308 		movq	%rax, 8(%rbx)
 1594 005e 488D4360 		leaq	96(%rbx), %rax
 1595 0062 4839C7   		cmpq	%rax, %rdi
 1596 0065 7405     		je	.L121
 1597 0067 E8000000 		call	_ZdlPv@PLT
 1597      00
 1598              	.L121:
 1599 006c 488D0500 		leaq	16+_ZTVSt15basic_streambufIcSt11char_traitsIcEE(%rip), %rax
 1599      000000
 1600 0073 488D7B40 		leaq	64(%rbx), %rdi
 1601 0077 48894308 		movq	%rax, 8(%rbx)
 1602 007b E8000000 		call	_ZNSt6localeD1Ev@PLT
 1602      00
 1603 0080 488D0500 		leaq	24+_ZTCN8UnitTest15MemoryOutStreamE0_So(%rip), %rax
 1603      000000
 1604 0087 4889EF   		movq	%rbp, %rdi
 1605 008a 488903   		movq	%rax, (%rbx)
 1606 008d 488D0500 		leaq	16+_ZTVSt9basic_iosIcSt11char_traitsIcEE(%rip), %rax
 1606      000000
 1607 0094 48898390 		movq	%rax, 144(%rbx)
 1607      000000
 1608 009b 4883C408 		addq	$8, %rsp
 1609              		.cfi_def_cfa_offset 24
 1610 009f 5B       		popq	%rbx
 1611              		.cfi_def_cfa_offset 16
 1612 00a0 5D       		popq	%rbp
 1613              		.cfi_def_cfa_offset 8
 1614 00a1 E9000000 		jmp	_ZNSt8ios_baseD2Ev@PLT
 1614      00
 1615              		.cfi_endproc
 1616              	.LFE1697:
 1618              		.section	.text._ZN8UnitTest15MemoryOutStreamD0Ev,"axG",@progbits,_ZN8UnitTest15MemoryOutStreamD0Ev
 1619              		.p2align 4,,15
 1620              		.weak	_ZTv0_n24_N8UnitTest15MemoryOutStreamD0Ev
 1622              	_ZTv0_n24_N8UnitTest15MemoryOutStreamD0Ev:
 1623              	.LFB1740:
 1624              		.cfi_startproc
 1625              		.cfi_personality 0x9b,DW.ref.__gxx_personality_v0
 1626              		.cfi_lsda 0x1b,.LLSDA1740
 1627 0000 55       		pushq	%rbp
 1628              		.cfi_def_cfa_offset 16
 1629              		.cfi_offset 6, -16
 1630 0001 53       		pushq	%rbx
 1631              		.cfi_def_cfa_offset 24
 1632              		.cfi_offset 3, -24
 1633 0002 4883EC08 		subq	$8, %rsp
 1634              		.cfi_def_cfa_offset 32
 1635 0006 488B07   		movq	(%rdi), %rax
 1636 0009 480378E8 		addq	-24(%rax), %rdi
 1637 000d 488D0500 		leaq	24+_ZTVN8UnitTest15MemoryOutStreamE(%rip), %rax
 1637      000000
 1638 0014 488907   		movq	%rax, (%rdi)
 1639 0017 4883C028 		addq	$40, %rax
 1640 001b 4889FB   		movq	%rdi, %rbx
 1641 001e 48898790 		movq	%rax, 144(%rdi)
 1641      000000
 1642 0025 488B7F70 		movq	112(%rdi), %rdi
 1643 0029 488D8380 		leaq	128(%rbx), %rax
 1643      000000
 1644 0030 4839C7   		cmpq	%rax, %rdi
 1645 0033 7405     		je	.L124
 1646 0035 E8000000 		call	_ZdlPv@PLT
 1646      00
 1647              	.L124:
 1648 003a 488D0500 		leaq	24+_ZTCN8UnitTest15MemoryOutStreamE0_NSt7__cxx1119basic_ostringstreamIcSt11char_traitsIcESaIc
 1648      000000
 1649 0041 488B7B50 		movq	80(%rbx), %rdi
 1650 0045 488DAB90 		leaq	144(%rbx), %rbp
 1650      000000
 1651 004c 488903   		movq	%rax, (%rbx)
 1652 004f 4883C028 		addq	$40, %rax
 1653 0053 48898390 		movq	%rax, 144(%rbx)
 1653      000000
 1654 005a 488D0500 		leaq	16+_ZTVNSt7__cxx1115basic_stringbufIcSt11char_traitsIcESaIcEEE(%rip), %rax
 1654      000000
 1655 0061 48894308 		movq	%rax, 8(%rbx)
 1656 0065 488D4360 		leaq	96(%rbx), %rax
 1657 0069 4839C7   		cmpq	%rax, %rdi
 1658 006c 7405     		je	.L125
 1659 006e E8000000 		call	_ZdlPv@PLT
 1659      00
 1660              	.L125:
 1661 0073 488D0500 		leaq	16+_ZTVSt15basic_streambufIcSt11char_traitsIcEE(%rip), %rax
 1661      000000
 1662 007a 488D7B40 		leaq	64(%rbx), %rdi
 1663 007e 48894308 		movq	%rax, 8(%rbx)
 1664 0082 E8000000 		call	_ZNSt6localeD1Ev@PLT
 1664      00
 1665 0087 488D0500 		leaq	24+_ZTCN8UnitTest15MemoryOutStreamE0_So(%rip), %rax
 1665      000000
 1666 008e 4889EF   		movq	%rbp, %rdi
 1667 0091 488903   		movq	%rax, (%rbx)
 1668 0094 488D0500 		leaq	16+_ZTVSt9basic_iosIcSt11char_traitsIcEE(%rip), %rax
 1668      000000
 1669 009b 48898390 		movq	%rax, 144(%rbx)
 1669      000000
 1670              	.LEHB38:
 1671 00a2 E8000000 		call	_ZNSt8ios_baseD2Ev@PLT
 1671      00
 1672              	.LEHE38:
 1673 00a7 4883C408 		addq	$8, %rsp
 1674              		.cfi_remember_state
 1675              		.cfi_def_cfa_offset 24
 1676 00ab 4889DF   		movq	%rbx, %rdi
 1677 00ae 5B       		popq	%rbx
 1678              		.cfi_def_cfa_offset 16
 1679 00af 5D       		popq	%rbp
 1680              		.cfi_def_cfa_offset 8
 1681 00b0 E9000000 		jmp	_ZdlPv@PLT
 1681      00
 1682              	.L127:
 1683              		.cfi_restore_state
 1684 00b5 4889C5   		movq	%rax, %rbp
 1685 00b8 4889DF   		movq	%rbx, %rdi
 1686 00bb E8000000 		call	_ZdlPv@PLT
 1686      00
 1687 00c0 4889EF   		movq	%rbp, %rdi
 1688              	.LEHB39:
 1689 00c3 E8000000 		call	_Unwind_Resume@PLT
 1689      00
 1690              	.LEHE39:
 1691              		.cfi_endproc
 1692              	.LFE1740:
 1693              		.section	.gcc_except_table
 1694              	.LLSDA1740:
 1695 0114 FF       		.byte	0xff
 1696 0115 FF       		.byte	0xff
 1697 0116 01       		.byte	0x1
 1698 0117 0B       		.uleb128 .LLSDACSE1740-.LLSDACSB1740
 1699              	.LLSDACSB1740:
 1700 0118 A201     		.uleb128 .LEHB38-.LFB1740
 1701 011a 05       		.uleb128 .LEHE38-.LEHB38
 1702 011b B501     		.uleb128 .L127-.LFB1740
 1703 011d 00       		.uleb128 0
 1704 011e C301     		.uleb128 .LEHB39-.LFB1740
 1705 0120 05       		.uleb128 .LEHE39-.LEHB39
 1706 0121 00       		.uleb128 0
 1707 0122 00       		.uleb128 0
 1708              	.LLSDACSE1740:
 1709              		.section	.text._ZN8UnitTest15MemoryOutStreamD0Ev,"axG",@progbits,_ZN8UnitTest15MemoryOutStreamD0Ev
 1711              		.section	.text._ZN8UnitTest15MemoryOutStreamD1Ev,"axG",@progbits,_ZN8UnitTest15MemoryOutStreamD1Ev
 1712 00a6 662E0F1F 		.p2align 4,,15
 1712      84000000 
 1712      0000
 1713              		.weak	_ZTv0_n24_N8UnitTest15MemoryOutStreamD1Ev
 1715              	_ZTv0_n24_N8UnitTest15MemoryOutStreamD1Ev:
 1716              	.LFB1741:
 1717              		.cfi_startproc
 1718 00b0 55       		pushq	%rbp
 1719              		.cfi_def_cfa_offset 16
 1720              		.cfi_offset 6, -16
 1721 00b1 53       		pushq	%rbx
 1722              		.cfi_def_cfa_offset 24
 1723              		.cfi_offset 3, -24
 1724 00b2 4883EC08 		subq	$8, %rsp
 1725              		.cfi_def_cfa_offset 32
 1726 00b6 488B07   		movq	(%rdi), %rax
 1727 00b9 480378E8 		addq	-24(%rax), %rdi
 1728 00bd 488D0500 		leaq	24+_ZTVN8UnitTest15MemoryOutStreamE(%rip), %rax
 1728      000000
 1729 00c4 488907   		movq	%rax, (%rdi)
 1730 00c7 4883C028 		addq	$40, %rax
 1731 00cb 4889FB   		movq	%rdi, %rbx
 1732 00ce 48898790 		movq	%rax, 144(%rdi)
 1732      000000
 1733 00d5 488B7F70 		movq	112(%rdi), %rdi
 1734 00d9 488D8380 		leaq	128(%rbx), %rax
 1734      000000
 1735 00e0 4839C7   		cmpq	%rax, %rdi
 1736 00e3 7405     		je	.L130
 1737 00e5 E8000000 		call	_ZdlPv@PLT
 1737      00
 1738              	.L130:
 1739 00ea 488D0500 		leaq	24+_ZTCN8UnitTest15MemoryOutStreamE0_NSt7__cxx1119basic_ostringstreamIcSt11char_traitsIcESaIc
 1739      000000
 1740 00f1 488B7B50 		movq	80(%rbx), %rdi
 1741 00f5 488DAB90 		leaq	144(%rbx), %rbp
 1741      000000
 1742 00fc 488903   		movq	%rax, (%rbx)
 1743 00ff 4883C028 		addq	$40, %rax
 1744 0103 48898390 		movq	%rax, 144(%rbx)
 1744      000000
 1745 010a 488D0500 		leaq	16+_ZTVNSt7__cxx1115basic_stringbufIcSt11char_traitsIcESaIcEEE(%rip), %rax
 1745      000000
 1746 0111 48894308 		movq	%rax, 8(%rbx)
 1747 0115 488D4360 		leaq	96(%rbx), %rax
 1748 0119 4839C7   		cmpq	%rax, %rdi
 1749 011c 7405     		je	.L131
 1750 011e E8000000 		call	_ZdlPv@PLT
 1750      00
 1751              	.L131:
 1752 0123 488D0500 		leaq	16+_ZTVSt15basic_streambufIcSt11char_traitsIcEE(%rip), %rax
 1752      000000
 1753 012a 488D7B40 		leaq	64(%rbx), %rdi
 1754 012e 48894308 		movq	%rax, 8(%rbx)
 1755 0132 E8000000 		call	_ZNSt6localeD1Ev@PLT
 1755      00
 1756 0137 488D0500 		leaq	24+_ZTCN8UnitTest15MemoryOutStreamE0_So(%rip), %rax
 1756      000000
 1757 013e 4889EF   		movq	%rbp, %rdi
 1758 0141 488903   		movq	%rax, (%rbx)
 1759 0144 488D0500 		leaq	16+_ZTVSt9basic_iosIcSt11char_traitsIcEE(%rip), %rax
 1759      000000
 1760 014b 48898390 		movq	%rax, 144(%rbx)
 1760      000000
 1761 0152 4883C408 		addq	$8, %rsp
 1762              		.cfi_def_cfa_offset 24
 1763 0156 5B       		popq	%rbx
 1764              		.cfi_def_cfa_offset 16
 1765 0157 5D       		popq	%rbp
 1766              		.cfi_def_cfa_offset 8
 1767 0158 E9000000 		jmp	_ZNSt8ios_baseD2Ev@PLT
 1767      00
 1768              		.cfi_endproc
 1769              	.LFE1741:
 1771              		.section	.text._ZN8UnitTest15MemoryOutStreamD0Ev,"axG",@progbits,_ZN8UnitTest15MemoryOutStreamD0Ev
 1772              		.align 2
 1773 00c8 0F1F8400 		.p2align 4,,15
 1773      00000000 
 1774              		.weak	_ZN8UnitTest15MemoryOutStreamD0Ev
 1776              	_ZN8UnitTest15MemoryOutStreamD0Ev:
 1777              	.LFB1698:
 1778              		.cfi_startproc
 1779              		.cfi_personality 0x9b,DW.ref.__gxx_personality_v0
 1780              		.cfi_lsda 0x1b,.LLSDA1698
 1781 00d0 55       		pushq	%rbp
 1782              		.cfi_def_cfa_offset 16
 1783              		.cfi_offset 6, -16
 1784 00d1 488D0500 		leaq	24+_ZTVN8UnitTest15MemoryOutStreamE(%rip), %rax
 1784      000000
 1785 00d8 53       		pushq	%rbx
 1786              		.cfi_def_cfa_offset 24
 1787              		.cfi_offset 3, -24
 1788 00d9 4889FB   		movq	%rdi, %rbx
 1789 00dc 4883EC08 		subq	$8, %rsp
 1790              		.cfi_def_cfa_offset 32
 1791 00e0 488907   		movq	%rax, (%rdi)
 1792 00e3 4883C028 		addq	$40, %rax
 1793 00e7 48898790 		movq	%rax, 144(%rdi)
 1793      000000
 1794 00ee 488B7F70 		movq	112(%rdi), %rdi
 1795 00f2 488D8380 		leaq	128(%rbx), %rax
 1795      000000
 1796 00f9 4839C7   		cmpq	%rax, %rdi
 1797 00fc 7405     		je	.L134
 1798 00fe E8000000 		call	_ZdlPv@PLT
 1798      00
 1799              	.L134:
 1800 0103 488D0500 		leaq	24+_ZTCN8UnitTest15MemoryOutStreamE0_NSt7__cxx1119basic_ostringstreamIcSt11char_traitsIcESaIc
 1800      000000
 1801 010a 488B7B50 		movq	80(%rbx), %rdi
 1802 010e 488DAB90 		leaq	144(%rbx), %rbp
 1802      000000
 1803 0115 488903   		movq	%rax, (%rbx)
 1804 0118 4883C028 		addq	$40, %rax
 1805 011c 48898390 		movq	%rax, 144(%rbx)
 1805      000000
 1806 0123 488D0500 		leaq	16+_ZTVNSt7__cxx1115basic_stringbufIcSt11char_traitsIcESaIcEEE(%rip), %rax
 1806      000000
 1807 012a 48894308 		movq	%rax, 8(%rbx)
 1808 012e 488D4360 		leaq	96(%rbx), %rax
 1809 0132 4839C7   		cmpq	%rax, %rdi
 1810 0135 7405     		je	.L135
 1811 0137 E8000000 		call	_ZdlPv@PLT
 1811      00
 1812              	.L135:
 1813 013c 488D0500 		leaq	16+_ZTVSt15basic_streambufIcSt11char_traitsIcEE(%rip), %rax
 1813      000000
 1814 0143 488D7B40 		leaq	64(%rbx), %rdi
 1815 0147 48894308 		movq	%rax, 8(%rbx)
 1816 014b E8000000 		call	_ZNSt6localeD1Ev@PLT
 1816      00
 1817 0150 488D0500 		leaq	24+_ZTCN8UnitTest15MemoryOutStreamE0_So(%rip), %rax
 1817      000000
 1818 0157 4889EF   		movq	%rbp, %rdi
 1819 015a 488903   		movq	%rax, (%rbx)
 1820 015d 488D0500 		leaq	16+_ZTVSt9basic_iosIcSt11char_traitsIcEE(%rip), %rax
 1820      000000
 1821 0164 48898390 		movq	%rax, 144(%rbx)
 1821      000000
 1822              	.LEHB40:
 1823 016b E8000000 		call	_ZNSt8ios_baseD2Ev@PLT
 1823      00
 1824              	.LEHE40:
 1825 0170 4883C408 		addq	$8, %rsp
 1826              		.cfi_remember_state
 1827              		.cfi_def_cfa_offset 24
 1828 0174 4889DF   		movq	%rbx, %rdi
 1829 0177 5B       		popq	%rbx
 1830              		.cfi_def_cfa_offset 16
 1831 0178 5D       		popq	%rbp
 1832              		.cfi_def_cfa_offset 8
 1833 0179 E9000000 		jmp	_ZdlPv@PLT
 1833      00
 1834              	.L137:
 1835              		.cfi_restore_state
 1836 017e 4889C5   		movq	%rax, %rbp
 1837 0181 4889DF   		movq	%rbx, %rdi
 1838 0184 E8000000 		call	_ZdlPv@PLT
 1838      00
 1839 0189 4889EF   		movq	%rbp, %rdi
 1840              	.LEHB41:
 1841 018c E8000000 		call	_Unwind_Resume@PLT
 1841      00
 1842              	.LEHE41:
 1843              		.cfi_endproc
 1844              	.LFE1698:
 1845              		.section	.gcc_except_table
 1846              	.LLSDA1698:
 1847 0123 FF       		.byte	0xff
 1848 0124 FF       		.byte	0xff
 1849 0125 01       		.byte	0x1
 1850 0126 0B       		.uleb128 .LLSDACSE1698-.LLSDACSB1698
 1851              	.LLSDACSB1698:
 1852 0127 9B01     		.uleb128 .LEHB40-.LFB1698
 1853 0129 05       		.uleb128 .LEHE40-.LEHB40
 1854 012a AE01     		.uleb128 .L137-.LFB1698
 1855 012c 00       		.uleb128 0
 1856 012d BC01     		.uleb128 .LEHB41-.LFB1698
 1857 012f 05       		.uleb128 .LEHE41-.LEHB41
 1858 0130 00       		.uleb128 0
 1859 0131 00       		.uleb128 0
 1860              	.LLSDACSE1698:
 1861              		.section	.text._ZN8UnitTest15MemoryOutStreamD0Ev,"axG",@progbits,_ZN8UnitTest15MemoryOutStreamD0Ev
 1863              		.section	.text._ZN17ScopedCurrentTestD2Ev,"axG",@progbits,_ZN17ScopedCurrentTestD5Ev,comdat
 1864              		.align 2
 1865              		.p2align 4,,15
 1866              		.weak	_ZN17ScopedCurrentTestD2Ev
 1868              	_ZN17ScopedCurrentTestD2Ev:
 1869              	.LFB1122:
 1870              		.cfi_startproc
 1871 0000 53       		pushq	%rbx
 1872              		.cfi_def_cfa_offset 16
 1873              		.cfi_offset 3, -16
 1874 0001 4889FB   		movq	%rdi, %rbx
 1875 0004 E8000000 		call	_ZN8UnitTest11CurrentTest7ResultsEv@PLT
 1875      00
 1876 0009 488B13   		movq	(%rbx), %rdx
 1877 000c 488910   		movq	%rdx, (%rax)
 1878 000f E8000000 		call	_ZN8UnitTest11CurrentTest7DetailsEv@PLT
 1878      00
 1879 0014 488B5308 		movq	8(%rbx), %rdx
 1880 0018 488910   		movq	%rdx, (%rax)
 1881 001b 5B       		popq	%rbx
 1882              		.cfi_def_cfa_offset 8
 1883 001c C3       		ret
 1884              		.cfi_endproc
 1885              	.LFE1122:
 1887              		.weak	_ZN17ScopedCurrentTestD1Ev
 1888              		.set	_ZN17ScopedCurrentTestD1Ev,_ZN17ScopedCurrentTestD2Ev
 1889              		.section	.text._ZNSt7__cxx1115basic_stringbufIcSt11char_traitsIcESaIcEED2Ev,"axG",@progbits,_ZNSt7
 1890              		.align 2
 1891              		.p2align 4,,15
 1892              		.weak	_ZNSt7__cxx1115basic_stringbufIcSt11char_traitsIcESaIcEED2Ev
 1894              	_ZNSt7__cxx1115basic_stringbufIcSt11char_traitsIcESaIcEED2Ev:
 1895              	.LFB1486:
 1896              		.cfi_startproc
 1897 0000 488D0500 		leaq	16+_ZTVNSt7__cxx1115basic_stringbufIcSt11char_traitsIcESaIcEEE(%rip), %rax
 1897      000000
 1898 0007 53       		pushq	%rbx
 1899              		.cfi_def_cfa_offset 16
 1900              		.cfi_offset 3, -16
 1901 0008 4889FB   		movq	%rdi, %rbx
 1902 000b 488907   		movq	%rax, (%rdi)
 1903 000e 488B7F48 		movq	72(%rdi), %rdi
 1904 0012 488D4358 		leaq	88(%rbx), %rax
 1905 0016 4839C7   		cmpq	%rax, %rdi
 1906 0019 7405     		je	.L142
 1907 001b E8000000 		call	_ZdlPv@PLT
 1907      00
 1908              	.L142:
 1909 0020 488D0500 		leaq	16+_ZTVSt15basic_streambufIcSt11char_traitsIcEE(%rip), %rax
 1909      000000
 1910 0027 488D7B38 		leaq	56(%rbx), %rdi
 1911 002b 488903   		movq	%rax, (%rbx)
 1912 002e 5B       		popq	%rbx
 1913              		.cfi_def_cfa_offset 8
 1914 002f E9000000 		jmp	_ZNSt6localeD1Ev@PLT
 1914      00
 1915              		.cfi_endproc
 1916              	.LFE1486:
 1918              		.weak	_ZNSt7__cxx1115basic_stringbufIcSt11char_traitsIcESaIcEED1Ev
 1919              		.set	_ZNSt7__cxx1115basic_stringbufIcSt11char_traitsIcESaIcEED1Ev,_ZNSt7__cxx1115basic_stringbufIc
 1920              		.section	.text._ZN8UnitTest15MemoryOutStreamC1Ev,"axG",@progbits,_ZN8UnitTest15MemoryOutStreamC1Ev
 1921              		.align 2
 1922              		.p2align 4,,15
 1923              		.weak	_ZN8UnitTest15MemoryOutStreamC1Ev
 1925              	_ZN8UnitTest15MemoryOutStreamC1Ev:
 1926              	.LFB1103:
 1927              		.cfi_startproc
 1928              		.cfi_personality 0x9b,DW.ref.__gxx_personality_v0
 1929              		.cfi_lsda 0x1b,.LLSDA1103
 1930 0000 4156     		pushq	%r14
 1931              		.cfi_def_cfa_offset 16
 1932              		.cfi_offset 14, -16
 1933 0002 4155     		pushq	%r13
 1934              		.cfi_def_cfa_offset 24
 1935              		.cfi_offset 13, -24
 1936 0004 4154     		pushq	%r12
 1937              		.cfi_def_cfa_offset 32
 1938              		.cfi_offset 12, -32
 1939 0006 55       		pushq	%rbp
 1940              		.cfi_def_cfa_offset 40
 1941              		.cfi_offset 6, -40
 1942 0007 488DAF90 		leaq	144(%rdi), %rbp
 1942      000000
 1943 000e 53       		pushq	%rbx
 1944              		.cfi_def_cfa_offset 48
 1945              		.cfi_offset 3, -48
 1946 000f 4C8D2500 		leaq	24+_ZTCN8UnitTest15MemoryOutStreamE0_So(%rip), %r12
 1946      000000
 1947 0016 4889FB   		movq	%rdi, %rbx
 1948 0019 4889EF   		movq	%rbp, %rdi
 1949 001c E8000000 		call	_ZNSt8ios_baseC2Ev@PLT
 1949      00
 1950 0021 498D4424 		leaq	40(%r12), %rax
 1950      28
 1951 0026 48C78368 		movq	$0, 360(%rbx)
 1951      01000000 
 1951      000000
 1952 0031 C6837001 		movb	$0, 368(%rbx)
 1952      000000
 1953 0038 C6837101 		movb	$0, 369(%rbx)
 1953      000000
 1954 003f 48C78378 		movq	$0, 376(%rbx)
 1954      01000000 
 1954      000000
 1955 004a 31F6     		xorl	%esi, %esi
 1956 004c 48C78380 		movq	$0, 384(%rbx)
 1956      01000000 
 1956      000000
 1957 0057 48C78388 		movq	$0, 392(%rbx)
 1957      01000000 
 1957      000000
 1958 0062 4889EF   		movq	%rbp, %rdi
 1959 0065 48C78390 		movq	$0, 400(%rbx)
 1959      01000000 
 1959      000000
 1960 0070 4C8923   		movq	%r12, (%rbx)
 1961 0073 48898390 		movq	%rax, 144(%rbx)
 1961      000000
 1962              	.LEHB42:
 1963 007a E8000000 		call	_ZNSt9basic_iosIcSt11char_traitsIcEE4initEPSt15basic_streambufIcS1_E@PLT
 1963      00
 1964              	.LEHE42:
 1965 007f 488D0500 		leaq	24+_ZTCN8UnitTest15MemoryOutStreamE0_NSt7__cxx1119basic_ostringstreamIcSt11char_traitsIcESaIc
 1965      000000
 1966 0086 488D7B40 		leaq	64(%rbx), %rdi
 1967 008a 48C74310 		movq	$0, 16(%rbx)
 1967      00000000 
 1968 0092 48C74318 		movq	$0, 24(%rbx)
 1968      00000000 
 1969 009a 48C74320 		movq	$0, 32(%rbx)
 1969      00000000 
 1970 00a2 4C8D6B08 		leaq	8(%rbx), %r13
 1971 00a6 488903   		movq	%rax, (%rbx)
 1972 00a9 4883C028 		addq	$40, %rax
 1973 00ad 48C74328 		movq	$0, 40(%rbx)
 1973      00000000 
 1974 00b5 48898390 		movq	%rax, 144(%rbx)
 1974      000000
 1975 00bc 488D0500 		leaq	16+_ZTVSt15basic_streambufIcSt11char_traitsIcEE(%rip), %rax
 1975      000000
 1976 00c3 48C74330 		movq	$0, 48(%rbx)
 1976      00000000 
 1977 00cb 48C74338 		movq	$0, 56(%rbx)
 1977      00000000 
 1978 00d3 48894308 		movq	%rax, 8(%rbx)
 1979 00d7 E8000000 		call	_ZNSt6localeC1Ev@PLT
 1979      00
 1980 00dc 488D0500 		leaq	16+_ZTVNSt7__cxx1115basic_stringbufIcSt11char_traitsIcESaIcEEE(%rip), %rax
 1980      000000
 1981 00e3 C7434810 		movl	$16, 72(%rbx)
 1981      000000
 1982 00ea 48C74358 		movq	$0, 88(%rbx)
 1982      00000000 
 1983 00f2 C6436000 		movb	$0, 96(%rbx)
 1984 00f6 4C89EE   		movq	%r13, %rsi
 1985 00f9 48894308 		movq	%rax, 8(%rbx)
 1986 00fd 488D4360 		leaq	96(%rbx), %rax
 1987 0101 48894350 		movq	%rax, 80(%rbx)
 1988 0105 488B03   		movq	(%rbx), %rax
 1989 0108 488B78E8 		movq	-24(%rax), %rdi
 1990 010c 4801DF   		addq	%rbx, %rdi
 1991              	.LEHB43:
 1992 010f E8000000 		call	_ZNSt9basic_iosIcSt11char_traitsIcEE4initEPSt15basic_streambufIcS1_E@PLT
 1992      00
 1993              	.LEHE43:
 1994 0114 488D0500 		leaq	24+_ZTVN8UnitTest15MemoryOutStreamE(%rip), %rax
 1994      000000
 1995 011b 48C74378 		movq	$0, 120(%rbx)
 1995      00000000 
 1996 0123 C6838000 		movb	$0, 128(%rbx)
 1996      000000
 1997 012a 488903   		movq	%rax, (%rbx)
 1998 012d 4883C028 		addq	$40, %rax
 1999 0131 48898390 		movq	%rax, 144(%rbx)
 1999      000000
 2000 0138 488D8380 		leaq	128(%rbx), %rax
 2000      000000
 2001 013f 48894370 		movq	%rax, 112(%rbx)
 2002 0143 5B       		popq	%rbx
 2003              		.cfi_remember_state
 2004              		.cfi_def_cfa_offset 40
 2005 0144 5D       		popq	%rbp
 2006              		.cfi_def_cfa_offset 32
 2007 0145 415C     		popq	%r12
 2008              		.cfi_def_cfa_offset 24
 2009 0147 415D     		popq	%r13
 2010              		.cfi_def_cfa_offset 16
 2011 0149 415E     		popq	%r14
 2012              		.cfi_def_cfa_offset 8
 2013 014b C3       		ret
 2014              	.L148:
 2015              		.cfi_restore_state
 2016 014c 4989C4   		movq	%rax, %r12
 2017              	.L147:
 2018 014f 488D0500 		leaq	16+_ZTVSt9basic_iosIcSt11char_traitsIcEE(%rip), %rax
 2018      000000
 2019 0156 4889EF   		movq	%rbp, %rdi
 2020 0159 48898390 		movq	%rax, 144(%rbx)
 2020      000000
 2021 0160 E8000000 		call	_ZNSt8ios_baseD2Ev@PLT
 2021      00
 2022 0165 4C89E7   		movq	%r12, %rdi
 2023              	.LEHB44:
 2024 0168 E8000000 		call	_Unwind_Resume@PLT
 2024      00
 2025              	.LEHE44:
 2026              	.L149:
 2027 016d 4989C6   		movq	%rax, %r14
 2028 0170 4C89EF   		movq	%r13, %rdi
 2029 0173 E8000000 		call	_ZNSt7__cxx1115basic_stringbufIcSt11char_traitsIcESaIcEED1Ev
 2029      00
 2030 0178 4C8923   		movq	%r12, (%rbx)
 2031 017b 4D89F4   		movq	%r14, %r12
 2032 017e EBCF     		jmp	.L147
 2033              		.cfi_endproc
 2034              	.LFE1103:
 2035              		.section	.gcc_except_table
 2036              	.LLSDA1103:
 2037 0132 FF       		.byte	0xff
 2038 0133 FF       		.byte	0xff
 2039 0134 01       		.byte	0x1
 2040 0135 10       		.uleb128 .LLSDACSE1103-.LLSDACSB1103
 2041              	.LLSDACSB1103:
 2042 0136 7A       		.uleb128 .LEHB42-.LFB1103
 2043 0137 05       		.uleb128 .LEHE42-.LEHB42
 2044 0138 CC02     		.uleb128 .L148-.LFB1103
 2045 013a 00       		.uleb128 0
 2046 013b 8F02     		.uleb128 .LEHB43-.LFB1103
 2047 013d 05       		.uleb128 .LEHE43-.LEHB43
 2048 013e ED02     		.uleb128 .L149-.LFB1103
 2049 0140 00       		.uleb128 0
 2050 0141 E802     		.uleb128 .LEHB44-.LFB1103
 2051 0143 05       		.uleb128 .LEHE44-.LEHB44
 2052 0144 00       		.uleb128 0
 2053 0145 00       		.uleb128 0
 2054              	.LLSDACSE1103:
 2055              		.section	.text._ZN8UnitTest15MemoryOutStreamC1Ev,"axG",@progbits,_ZN8UnitTest15MemoryOutStreamC1Ev
 2057              		.section	.rodata.str1.1
 2058              	.LC6:
 2059 000f 556E6861 		.string	"Unhandled system exception"
 2059      6E646C65 
 2059      64207379 
 2059      7374656D 
 2059      20657863 
 2060              		.section	.rodata.str1.8
 2061 0093 00000000 		.align 8
 2061      00
 2062              	.LC7:
 2063 0098 53696D70 		.string	"SimpleFixture::instanceCount > 0"
 2063      6C654669 
 2063      78747572 
 2063      653A3A69 
 2063      6E737461 
 2064 00b9 00000000 		.align 8
 2064      000000
 2065              	.LC8:
 2066 00c0 556E6861 		.string	"Unhandled exception in CHECK(SimpleFixture::instanceCount > 0)"
 2066      6E646C65 
 2066      64206578 
 2066      63657074 
 2066      696F6E20 
 2067              		.section	.rodata.str1.1
 2068              	.LC9:
 2069 002a 556E6861 		.string	"Unhandled exception: "
 2069      6E646C65 
 2069      64206578 
 2069      63657074 
 2069      696F6E3A 
 2070              	.LC10:
 2071 0040 556E6861 		.string	"Unhandled exception: Crash!"
 2071      6E646C65 
 2071      64206578 
 2071      63657074 
 2071      696F6E3A 
 2072              		.text
 2073 0772 0F1F4000 		.p2align 4,,15
 2073      662E0F1F 
 2073      84000000 
 2073      0000
 2075              	_ZN8UnitTest11ExecuteTestIN12_GLOBAL__N_145SimpleFixtureDefaultFixtureCtorIsCalledHelperEEEvRT_RKNS
 2076              	.LFB1726:
 2077              		.cfi_startproc
 2078              		.cfi_personality 0x9b,DW.ref.__gxx_personality_v0
 2079              		.cfi_lsda 0x1b,.LLSDA1726
 2080 0780 4155     		pushq	%r13
 2081              		.cfi_def_cfa_offset 16
 2082              		.cfi_offset 13, -16
 2083 0782 4154     		pushq	%r12
 2084              		.cfi_def_cfa_offset 24
 2085              		.cfi_offset 12, -24
 2086 0784 55       		pushq	%rbp
 2087              		.cfi_def_cfa_offset 32
 2088              		.cfi_offset 6, -32
 2089 0785 53       		pushq	%rbx
 2090              		.cfi_def_cfa_offset 40
 2091              		.cfi_offset 3, -40
 2092 0786 4889FB   		movq	%rdi, %rbx
 2093 0789 4881EC88 		subq	$1672, %rsp
 2093      060000
 2094              		.cfi_def_cfa_offset 1712
 2095 0790 48897C24 		movq	%rdi, 8(%rsp)
 2095      08
 2096 0795 64488B04 		movq	%fs:40, %rax
 2096      25280000 
 2096      00
 2097 079e 48898424 		movq	%rax, 1656(%rsp)
 2097      78060000 
 2098 07a6 31C0     		xorl	%eax, %eax
 2099              	.LEHB45:
 2100 07a8 E8000000 		call	_ZN8UnitTest11CurrentTest7DetailsEv@PLT
 2100      00
 2101              	.LEHE45:
 2102 07ad 488DBC24 		leaq	528(%rsp), %rdi
 2102      10020000 
 2103 07b5 488918   		movq	%rbx, (%rax)
 2104              	.LEHB46:
 2105 07b8 E8000000 		call	_ZN8UnitTest16SignalTranslatorC1Ev@PLT
 2105      00
 2106 07bd 488B3D00 		movq	_ZN8UnitTest16SignalTranslator12s_jumpTargetE(%rip), %rdi
 2106      000000
 2107 07c4 BE010000 		movl	$1, %esi
 2107      00
 2108 07c9 E8000000 		call	__sigsetjmp@PLT
 2108      00
 2109 07ce 85C0     		testl	%eax, %eax
 2110 07d0 753E     		jne	.L184
 2111 07d2 8B050000 		movl	_ZN12_GLOBAL__N_113SimpleFixture13instanceCountE(%rip), %eax
 2111      0000
 2112 07d8 85C0     		testl	%eax, %eax
 2113 07da 7E5C     		jle	.L185
 2114              	.L157:
 2115 07dc 488DBC24 		leaq	528(%rsp), %rdi
 2115      10020000 
 2116 07e4 E8000000 		call	_ZN8UnitTest16SignalTranslatorD1Ev@PLT
 2116      00
 2117              	.LEHE46:
 2118              	.L153:
 2119 07e9 488B8424 		movq	1656(%rsp), %rax
 2119      78060000 
 2120 07f1 64483304 		xorq	%fs:40, %rax
 2120      25280000 
 2120      00
 2121 07fa 0F851101 		jne	.L186
 2121      0000
 2122 0800 4881C488 		addq	$1672, %rsp
 2122      060000
 2123              		.cfi_remember_state
 2124              		.cfi_def_cfa_offset 40
 2125 0807 5B       		popq	%rbx
 2126              		.cfi_def_cfa_offset 32
 2127 0808 5D       		popq	%rbp
 2128              		.cfi_def_cfa_offset 24
 2129 0809 415C     		popq	%r12
 2130              		.cfi_def_cfa_offset 16
 2131 080b 415D     		popq	%r13
 2132              		.cfi_def_cfa_offset 8
 2133 080d C3       		ret
 2134 080e 6690     		.p2align 4,,10
 2135              		.p2align 3
 2136              	.L184:
 2137              		.cfi_restore_state
 2138 0810 BF080000 		movl	$8, %edi
 2138      00
 2139 0815 E8000000 		call	__cxa_allocate_exception@PLT
 2139      00
 2140 081a 488D0D00 		leaq	.LC6(%rip), %rcx
 2140      000000
 2141 0821 488D3500 		leaq	_ZTIPKc(%rip), %rsi
 2141      000000
 2142 0828 31D2     		xorl	%edx, %edx
 2143 082a 4889C7   		movq	%rax, %rdi
 2144 082d 488908   		movq	%rcx, (%rax)
 2145              	.LEHB47:
 2146 0830 E8000000 		call	__cxa_throw@PLT
 2146      00
 2147              	.LEHE47:
 2148              		.p2align 4,,10
 2149 0835 0F1F00   		.p2align 3
 2150              	.L185:
 2151              	.LEHB48:
 2152 0838 E8000000 		call	_ZN8UnitTest11CurrentTest7ResultsEv@PLT
 2152      00
 2153 083d 488B18   		movq	(%rax), %rbx
 2154 0840 E8000000 		call	_ZN8UnitTest11CurrentTest7DetailsEv@PLT
 2154      00
 2155 0845 488B30   		movq	(%rax), %rsi
 2156 0848 488D7C24 		leaq	48(%rsp), %rdi
 2156      30
 2157 084d BA8A0000 		movl	$138, %edx
 2157      00
 2158 0852 E8000000 		call	_ZN8UnitTest11TestDetailsC1ERKS0_i@PLT
 2158      00
 2159 0857 488D7424 		leaq	48(%rsp), %rsi
 2159      30
 2160 085c 488D1500 		leaq	.LC7(%rip), %rdx
 2160      000000
 2161 0863 4889DF   		movq	%rbx, %rdi
 2162 0866 E8000000 		call	_ZN8UnitTest11TestResults13OnTestFailureERKNS_11TestDetailsEPKc@PLT
 2162      00
 2163              	.LEHE48:
 2164 086b E96CFFFF 		jmp	.L157
 2164      FF
 2165              	.L177:
 2166 0870 4889C3   		movq	%rax, %rbx
 2167 0873 4889D5   		movq	%rdx, %rbp
 2168              	.L160:
 2169 0876 488DBC24 		leaq	528(%rsp), %rdi
 2169      10020000 
 2170 087e E8000000 		call	_ZN8UnitTest16SignalTranslatorD1Ev@PLT
 2170      00
 2171 0883 4889DF   		movq	%rbx, %rdi
 2172 0886 4889EA   		movq	%rbp, %rdx
 2173              	.L161:
 2174 0889 4883FA01 		cmpq	$1, %rdx
 2175 088d 0F841201 		je	.L163
 2175      0000
 2176 0893 4883FA02 		cmpq	$2, %rdx
 2177 0897 0F85E000 		jne	.L187
 2177      0000
 2178 089d E8000000 		call	__cxa_begin_catch@PLT
 2178      00
 2179 08a2 488D7C24 		leaq	112(%rsp), %rdi
 2179      70
 2180 08a7 4889C3   		movq	%rax, %rbx
 2181              	.LEHB49:
 2182 08aa E8000000 		call	_ZN8UnitTest15MemoryOutStreamC1Ev
 2182      00
 2183              	.LEHE49:
 2184 08af 488D7C24 		leaq	112(%rsp), %rdi
 2184      70
 2185 08b4 488D3500 		leaq	.LC9(%rip), %rsi
 2185      000000
 2186 08bb BA150000 		movl	$21, %edx
 2186      00
 2187              	.LEHB50:
 2188 08c0 E8000000 		call	_ZSt16__ostream_insertIcSt11char_traitsIcEERSt13basic_ostreamIT_T0_ES6_PKS3_l@PLT
 2188      00
 2189 08c5 488B03   		movq	(%rbx), %rax
 2190 08c8 4889DF   		movq	%rbx, %rdi
 2191 08cb FF5010   		call	*16(%rax)
 2192 08ce 488D7C24 		leaq	112(%rsp), %rdi
 2192      70
 2193 08d3 4889C6   		movq	%rax, %rsi
 2194 08d6 E8000000 		call	_ZStlsISt11char_traitsIcEERSt13basic_ostreamIcT_ES5_PKc@PLT
 2194      00
 2195 08db E8000000 		call	_ZN8UnitTest11CurrentTest7ResultsEv@PLT
 2195      00
 2196 08e0 488D7C24 		leaq	112(%rsp), %rdi
 2196      70
 2197 08e5 488B18   		movq	(%rax), %rbx
 2198 08e8 E8000000 		call	_ZNK8UnitTest15MemoryOutStream7GetTextEv@PLT
 2198      00
 2199 08ed 488B7424 		movq	8(%rsp), %rsi
 2199      08
 2200 08f2 4889C2   		movq	%rax, %rdx
 2201 08f5 4889DF   		movq	%rbx, %rdi
 2202 08f8 E8000000 		call	_ZN8UnitTest11TestResults13OnTestFailureERKNS_11TestDetailsEPKc@PLT
 2202      00
 2203              	.LEHE50:
 2204 08fd 488D7C24 		leaq	112(%rsp), %rdi
 2204      70
 2205              	.LEHB51:
 2206 0902 E8000000 		call	_ZN8UnitTest15MemoryOutStreamD1Ev
 2206      00
 2207              	.LEHE51:
 2208              	.L182:
 2209 0907 E8000000 		call	__cxa_end_catch@PLT
 2209      00
 2210 090c E9D8FEFF 		jmp	.L153
 2210      FF
 2211              	.L186:
 2212 0911 E8000000 		call	__stack_chk_fail@PLT
 2212      00
 2213              	.L176:
 2214 0916 4889C7   		movq	%rax, %rdi
 2215 0919 E96BFFFF 		jmp	.L161
 2215      FF
 2216              	.L178:
 2217 091e 4889C7   		movq	%rax, %rdi
 2218 0921 E8000000 		call	__cxa_begin_catch@PLT
 2218      00
 2219              	.LEHB52:
 2220 0926 E8000000 		call	_ZN8UnitTest11CurrentTest7ResultsEv@PLT
 2220      00
 2221 092b 488B18   		movq	(%rax), %rbx
 2222 092e E8000000 		call	_ZN8UnitTest11CurrentTest7DetailsEv@PLT
 2222      00
 2223 0933 488B30   		movq	(%rax), %rsi
 2224 0936 488D7C24 		leaq	80(%rsp), %rdi
 2224      50
 2225 093b BA8A0000 		movl	$138, %edx
 2225      00
 2226 0940 E8000000 		call	_ZN8UnitTest11TestDetailsC1ERKS0_i@PLT
 2226      00
 2227 0945 488D7424 		leaq	80(%rsp), %rsi
 2227      50
 2228 094a 488D1500 		leaq	.LC8(%rip), %rdx
 2228      000000
 2229 0951 4889DF   		movq	%rbx, %rdi
 2230 0954 E8000000 		call	_ZN8UnitTest11TestResults13OnTestFailureERKNS_11TestDetailsEPKc@PLT
 2230      00
 2231              	.LEHE52:
 2232              	.LEHB53:
 2233 0959 E8000000 		call	__cxa_end_catch@PLT
 2233      00
 2234              	.LEHE53:
 2235 095e E979FEFF 		jmp	.L157
 2235      FF
 2236              	.L174:
 2237 0963 488D7C24 		leaq	112(%rsp), %rdi
 2237      70
 2238 0968 4889C3   		movq	%rax, %rbx
 2239 096b E8000000 		call	_ZN8UnitTest15MemoryOutStreamD1Ev
 2239      00
 2240              	.L169:
 2241 0970 E8000000 		call	__cxa_end_catch@PLT
 2241      00
 2242 0975 4889DF   		movq	%rbx, %rdi
 2243              	.LEHB54:
 2244 0978 E8000000 		call	_Unwind_Resume@PLT
 2244      00
 2245              	.LEHE54:
 2246              	.L187:
 2247 097d E8000000 		call	__cxa_begin_catch@PLT
 2247      00
 2248              	.LEHB55:
 2249 0982 E8000000 		call	_ZN8UnitTest11CurrentTest7ResultsEv@PLT
 2249      00
 2250 0987 488B7424 		movq	8(%rsp), %rsi
 2250      08
 2251 098c 488B38   		movq	(%rax), %rdi
 2252 098f 488D1500 		leaq	.LC10(%rip), %rdx
 2252      000000
 2253 0996 E8000000 		call	_ZN8UnitTest11TestResults13OnTestFailureERKNS_11TestDetailsEPKc@PLT
 2253      00
 2254              	.LEHE55:
 2255              	.LEHB56:
 2256 099b E8000000 		call	__cxa_end_catch@PLT
 2256      00
 2257              	.LEHE56:
 2258 09a0 E944FEFF 		jmp	.L153
 2258      FF
 2259              	.L163:
 2260 09a5 E8000000 		call	__cxa_begin_catch@PLT
 2260      00
 2261 09aa 4889C3   		movq	%rax, %rbx
 2262              	.LEHB57:
 2263 09ad E8000000 		call	_ZN8UnitTest11CurrentTest7ResultsEv@PLT
 2263      00
 2264 09b2 488B28   		movq	(%rax), %rbp
 2265 09b5 488B03   		movq	(%rbx), %rax
 2266 09b8 4889DF   		movq	%rbx, %rdi
 2267 09bb FF5010   		call	*16(%rax)
 2268 09be 4889DF   		movq	%rbx, %rdi
 2269 09c1 4989C4   		movq	%rax, %r12
 2270 09c4 E8000000 		call	_ZNK8UnitTest15AssertException10LineNumberEv@PLT
 2270      00
 2271 09c9 4889DF   		movq	%rbx, %rdi
 2272 09cc 4189C5   		movl	%eax, %r13d
 2273 09cf E8000000 		call	_ZNK8UnitTest15AssertException8FilenameEv@PLT
 2273      00
 2274 09d4 488B5424 		movq	8(%rsp), %rdx
 2274      08
 2275 09d9 488D7C24 		leaq	16(%rsp), %rdi
 2275      10
 2276 09de 4589E8   		movl	%r13d, %r8d
 2277 09e1 4889C1   		movq	%rax, %rcx
 2278 09e4 488B7208 		movq	8(%rdx), %rsi
 2279 09e8 488B12   		movq	(%rdx), %rdx
 2280 09eb E8000000 		call	_ZN8UnitTest11TestDetailsC1EPKcS2_S2_i@PLT
 2280      00
 2281 09f0 488D7424 		leaq	16(%rsp), %rsi
 2281      10
 2282 09f5 4C89E2   		movq	%r12, %rdx
 2283 09f8 4889EF   		movq	%rbp, %rdi
 2284 09fb E8000000 		call	_ZN8UnitTest11TestResults13OnTestFailureERKNS_11TestDetailsEPKc@PLT
 2284      00
 2285              	.LEHE57:
 2286 0a00 E902FFFF 		jmp	.L182
 2286      FF
 2287              	.L172:
 2288 0a05 4889C3   		movq	%rax, %rbx
 2289 0a08 E8000000 		call	__cxa_end_catch@PLT
 2289      00
 2290 0a0d 4889DF   		movq	%rbx, %rdi
 2291              	.LEHB58:
 2292 0a10 E8000000 		call	_Unwind_Resume@PLT
 2292      00
 2293              	.LEHE58:
 2294              	.L175:
 2295              	.L183:
 2296 0a15 4889C3   		movq	%rax, %rbx
 2297 0a18 E953FFFF 		jmp	.L169
 2297      FF
 2298              	.L173:
 2299 0a1d EBF6     		jmp	.L183
 2300              	.L179:
 2301 0a1f 4889C3   		movq	%rax, %rbx
 2302 0a22 4889D5   		movq	%rdx, %rbp
 2303 0a25 E8000000 		call	__cxa_end_catch@PLT
 2303      00
 2304 0a2a E947FEFF 		jmp	.L160
 2304      FF
 2305              		.cfi_endproc
 2306              	.LFE1726:
 2307              		.section	.gcc_except_table
 2308 0146 0000     		.align 4
 2309              	.LLSDA1726:
 2310 0148 FF       		.byte	0xff
 2311 0149 9B       		.byte	0x9b
 2312 014a 65       		.uleb128 .LLSDATT1726-.LLSDATTD1726
 2313              	.LLSDATTD1726:
 2314 014b 01       		.byte	0x1
 2315 014c 4E       		.uleb128 .LLSDACSE1726-.LLSDACSB1726
 2316              	.LLSDACSB1726:
 2317 014d 28       		.uleb128 .LEHB45-.LFB1726
 2318 014e 05       		.uleb128 .LEHE45-.LEHB45
 2319 014f 00       		.uleb128 0
 2320 0150 00       		.uleb128 0
 2321 0151 38       		.uleb128 .LEHB46-.LFB1726
 2322 0152 31       		.uleb128 .LEHE46-.LEHB46
 2323 0153 9603     		.uleb128 .L176-.LFB1726
 2324 0155 05       		.uleb128 0x5
 2325 0156 B001     		.uleb128 .LEHB47-.LFB1726
 2326 0158 05       		.uleb128 .LEHE47-.LEHB47
 2327 0159 F001     		.uleb128 .L177-.LFB1726
 2328 015b 07       		.uleb128 0x7
 2329 015c B801     		.uleb128 .LEHB48-.LFB1726
 2330 015e 33       		.uleb128 .LEHE48-.LEHB48
 2331 015f 9E03     		.uleb128 .L178-.LFB1726
 2332 0161 01       		.uleb128 0x1
 2333 0162 AA02     		.uleb128 .LEHB49-.LFB1726
 2334 0164 05       		.uleb128 .LEHE49-.LEHB49
 2335 0165 9D05     		.uleb128 .L173-.LFB1726
 2336 0167 00       		.uleb128 0
 2337 0168 C002     		.uleb128 .LEHB50-.LFB1726
 2338 016a 3D       		.uleb128 .LEHE50-.LEHB50
 2339 016b E303     		.uleb128 .L174-.LFB1726
 2340 016d 00       		.uleb128 0
 2341 016e 8203     		.uleb128 .LEHB51-.LFB1726
 2342 0170 05       		.uleb128 .LEHE51-.LEHB51
 2343 0171 9D05     		.uleb128 .L173-.LFB1726
 2344 0173 00       		.uleb128 0
 2345 0174 A603     		.uleb128 .LEHB52-.LFB1726
 2346 0176 33       		.uleb128 .LEHE52-.LEHB52
 2347 0177 9F05     		.uleb128 .L179-.LFB1726
 2348 0179 07       		.uleb128 0x7
 2349 017a D903     		.uleb128 .LEHB53-.LFB1726
 2350 017c 05       		.uleb128 .LEHE53-.LEHB53
 2351 017d F001     		.uleb128 .L177-.LFB1726
 2352 017f 07       		.uleb128 0x7
 2353 0180 F803     		.uleb128 .LEHB54-.LFB1726
 2354 0182 05       		.uleb128 .LEHE54-.LEHB54
 2355 0183 00       		.uleb128 0
 2356 0184 00       		.uleb128 0
 2357 0185 8204     		.uleb128 .LEHB55-.LFB1726
 2358 0187 19       		.uleb128 .LEHE55-.LEHB55
 2359 0188 8505     		.uleb128 .L172-.LFB1726
 2360 018a 00       		.uleb128 0
 2361 018b 9B04     		.uleb128 .LEHB56-.LFB1726
 2362 018d 05       		.uleb128 .LEHE56-.LEHB56
 2363 018e 00       		.uleb128 0
 2364 018f 00       		.uleb128 0
 2365 0190 AD04     		.uleb128 .LEHB57-.LFB1726
 2366 0192 53       		.uleb128 .LEHE57-.LEHB57
 2367 0193 9505     		.uleb128 .L175-.LFB1726
 2368 0195 00       		.uleb128 0
 2369 0196 9005     		.uleb128 .LEHB58-.LFB1726
 2370 0198 05       		.uleb128 .LEHE58-.LEHB58
 2371 0199 00       		.uleb128 0
 2372 019a 00       		.uleb128 0
 2373              	.LLSDACSE1726:
 2374 019b 03       		.byte	0x3
 2375 019c 00       		.byte	0
 2376 019d 02       		.byte	0x2
 2377 019e 7D       		.byte	0x7d
 2378 019f 01       		.byte	0x1
 2379 01a0 7D       		.byte	0x7d
 2380 01a1 00       		.byte	0
 2381 01a2 7D       		.byte	0x7d
 2382 01a3 00       		.align 4
 2383 01a4 00000000 		.long	0
 2384              	
 2385 01a8 00000000 		.long	DW.ref._ZTISt9exception-.
 2386 01ac 00000000 		.long	DW.ref._ZTIN8UnitTest15AssertExceptionE-.
 2387              	.LLSDATT1726:
 2388              		.text
 2390              		.section	.rodata.str1.8
 2391 00ff 00       		.align 8
 2392              	.LC11:
 2393 0100 556E6861 		.string	"Unhandled exception while destroying fixture SimpleFixture"
 2393      6E646C65 
 2393      64206578 
 2393      63657074 
 2393      696F6E20 
 2394              		.text
 2395 0a2f 90       		.align 2
 2396              		.p2align 4,,15
 2398              	_ZNK12_GLOBAL__N_143TestSimpleFixtureDefaultFixtureCtorIsCalled7RunImplEv:
 2399              	.LFB1456:
 2400              		.cfi_startproc
 2401              		.cfi_personality 0x9b,DW.ref.__gxx_personality_v0
 2402              		.cfi_lsda 0x1b,.LLSDA1456
 2403 0a30 4156     		pushq	%r14
 2404              		.cfi_def_cfa_offset 16
 2405              		.cfi_offset 14, -16
 2406 0a32 4155     		pushq	%r13
 2407              		.cfi_def_cfa_offset 24
 2408              		.cfi_offset 13, -24
 2409 0a34 4154     		pushq	%r12
 2410              		.cfi_def_cfa_offset 32
 2411              		.cfi_offset 12, -32
 2412 0a36 55       		pushq	%rbp
 2413              		.cfi_def_cfa_offset 40
 2414              		.cfi_offset 6, -40
 2415 0a37 4889FD   		movq	%rdi, %rbp
 2416 0a3a 53       		pushq	%rbx
 2417              		.cfi_def_cfa_offset 48
 2418              		.cfi_offset 3, -48
 2419 0a3b 488D5F08 		leaq	8(%rdi), %rbx
 2420 0a3f 4881ECC0 		subq	$448, %rsp
 2420      010000
 2421              		.cfi_def_cfa_offset 496
 2422 0a46 4889DF   		movq	%rbx, %rdi
 2423 0a49 83050000 		addl	$1, _ZN12_GLOBAL__N_113SimpleFixture13instanceCountE(%rip)
 2423      000001
 2424 0a50 64488B04 		movq	%fs:40, %rax
 2424      25280000 
 2424      00
 2425 0a59 48898424 		movq	%rax, 440(%rsp)
 2425      B8010000 
 2426 0a61 31C0     		xorl	%eax, %eax
 2427              	.LEHB59:
 2428 0a63 E818FDFF 		call	_ZN8UnitTest11ExecuteTestIN12_GLOBAL__N_145SimpleFixtureDefaultFixtureCtorIsCalledHelperEEEvR
 2428      FF
 2429              	.LEHE59:
 2430 0a68 832D0000 		subl	$1, _ZN12_GLOBAL__N_113SimpleFixture13instanceCountE(%rip)
 2430      000001
 2431              	.L188:
 2432 0a6f 488B8424 		movq	440(%rsp), %rax
 2432      B8010000 
 2433 0a77 64483304 		xorq	%fs:40, %rax
 2433      25280000 
 2433      00
 2434 0a80 7510     		jne	.L208
 2435 0a82 4881C4C0 		addq	$448, %rsp
 2435      010000
 2436              		.cfi_remember_state
 2437              		.cfi_def_cfa_offset 48
 2438 0a89 5B       		popq	%rbx
 2439              		.cfi_def_cfa_offset 40
 2440 0a8a 5D       		popq	%rbp
 2441              		.cfi_def_cfa_offset 32
 2442 0a8b 415C     		popq	%r12
 2443              		.cfi_def_cfa_offset 24
 2444 0a8d 415D     		popq	%r13
 2445              		.cfi_def_cfa_offset 16
 2446 0a8f 415E     		popq	%r14
 2447              		.cfi_def_cfa_offset 8
 2448 0a91 C3       		ret
 2449              	.L208:
 2450              		.cfi_restore_state
 2451 0a92 E8000000 		call	__stack_chk_fail@PLT
 2451      00
 2452              	.L199:
 2453 0a97 832D0000 		subl	$1, _ZN12_GLOBAL__N_113SimpleFixture13instanceCountE(%rip)
 2453      000001
 2454 0a9e 4883FA01 		cmpq	$1, %rdx
 2455 0aa2 4889C7   		movq	%rax, %rdi
 2456 0aa5 7478     		je	.L191
 2457 0aa7 4883FA02 		cmpq	$2, %rdx
 2458 0aab 0F85E500 		jne	.L209
 2458      0000
 2459 0ab1 488D6C24 		leaq	32(%rsp), %rbp
 2459      20
 2460 0ab6 E8000000 		call	__cxa_begin_catch@PLT
 2460      00
 2461 0abb 4889EF   		movq	%rbp, %rdi
 2462 0abe 4989C4   		movq	%rax, %r12
 2463              	.LEHB60:
 2464 0ac1 E8000000 		call	_ZN8UnitTest15MemoryOutStreamC1Ev
 2464      00
 2465              	.LEHE60:
 2466 0ac6 488D3500 		leaq	.LC9(%rip), %rsi
 2466      000000
 2467 0acd BA150000 		movl	$21, %edx
 2467      00
 2468 0ad2 4889EF   		movq	%rbp, %rdi
 2469              	.LEHB61:
 2470 0ad5 E8000000 		call	_ZSt16__ostream_insertIcSt11char_traitsIcEERSt13basic_ostreamIT_T0_ES6_PKS3_l@PLT
 2470      00
 2471 0ada 498B0424 		movq	(%r12), %rax
 2472 0ade 4C89E7   		movq	%r12, %rdi
 2473 0ae1 FF5010   		call	*16(%rax)
 2474 0ae4 4889EF   		movq	%rbp, %rdi
 2475 0ae7 4889C6   		movq	%rax, %rsi
 2476 0aea E8000000 		call	_ZStlsISt11char_traitsIcEERSt13basic_ostreamIcT_ES5_PKc@PLT
 2476      00
 2477 0aef E8000000 		call	_ZN8UnitTest11CurrentTest7ResultsEv@PLT
 2477      00
 2478 0af4 4889EF   		movq	%rbp, %rdi
 2479 0af7 4C8B20   		movq	(%rax), %r12
 2480 0afa E8000000 		call	_ZNK8UnitTest15MemoryOutStream7GetTextEv@PLT
 2480      00
 2481 0aff 4889C2   		movq	%rax, %rdx
 2482 0b02 4889DE   		movq	%rbx, %rsi
 2483 0b05 4C89E7   		movq	%r12, %rdi
 2484 0b08 E8000000 		call	_ZN8UnitTest11TestResults13OnTestFailureERKNS_11TestDetailsEPKc@PLT
 2484      00
 2485              	.LEHE61:
 2486 0b0d 4889EF   		movq	%rbp, %rdi
 2487              	.LEHB62:
 2488 0b10 E8000000 		call	_ZN8UnitTest15MemoryOutStreamD1Ev
 2488      00
 2489              	.LEHE62:
 2490              	.L206:
 2491 0b15 E8000000 		call	__cxa_end_catch@PLT
 2491      00
 2492 0b1a E950FFFF 		jmp	.L188
 2492      FF
 2493              	.L191:
 2494 0b1f E8000000 		call	__cxa_begin_catch@PLT
 2494      00
 2495 0b24 4889C3   		movq	%rax, %rbx
 2496              	.LEHB63:
 2497 0b27 E8000000 		call	_ZN8UnitTest11CurrentTest7ResultsEv@PLT
 2497      00
 2498 0b2c 4C8B20   		movq	(%rax), %r12
 2499 0b2f 488B03   		movq	(%rbx), %rax
 2500 0b32 4889DF   		movq	%rbx, %rdi
 2501 0b35 FF5010   		call	*16(%rax)
 2502 0b38 4889DF   		movq	%rbx, %rdi
 2503 0b3b 4989C5   		movq	%rax, %r13
 2504 0b3e E8000000 		call	_ZNK8UnitTest15AssertException10LineNumberEv@PLT
 2504      00
 2505 0b43 4889DF   		movq	%rbx, %rdi
 2506 0b46 4189C6   		movl	%eax, %r14d
 2507 0b49 E8000000 		call	_ZNK8UnitTest15AssertException8FilenameEv@PLT
 2507      00
 2508 0b4e 488B5508 		movq	8(%rbp), %rdx
 2509 0b52 488B7510 		movq	16(%rbp), %rsi
 2510 0b56 4889E5   		movq	%rsp, %rbp
 2511 0b59 4589F0   		movl	%r14d, %r8d
 2512 0b5c 4889C1   		movq	%rax, %rcx
 2513 0b5f 4889EF   		movq	%rbp, %rdi
 2514 0b62 E8000000 		call	_ZN8UnitTest11TestDetailsC1EPKcS2_S2_i@PLT
 2514      00
 2515 0b67 4C89EA   		movq	%r13, %rdx
 2516 0b6a 4889EE   		movq	%rbp, %rsi
 2517 0b6d 4C89E7   		movq	%r12, %rdi
 2518 0b70 E8000000 		call	_ZN8UnitTest11TestResults13OnTestFailureERKNS_11TestDetailsEPKc@PLT
 2518      00
 2519              	.LEHE63:
 2520 0b75 EB9E     		jmp	.L206
 2521              	.L202:
 2522 0b77 4889EF   		movq	%rbp, %rdi
 2523 0b7a 4889C3   		movq	%rax, %rbx
 2524 0b7d E8000000 		call	_ZN8UnitTest15MemoryOutStreamD1Ev
 2524      00
 2525              	.L196:
 2526 0b82 E8000000 		call	__cxa_end_catch@PLT
 2526      00
 2527 0b87 4889DF   		movq	%rbx, %rdi
 2528              	.LEHB64:
 2529 0b8a E8000000 		call	_Unwind_Resume@PLT
 2529      00
 2530              	.LEHE64:
 2531              	.L200:
 2532              	.L207:
 2533 0b8f 4889C3   		movq	%rax, %rbx
 2534 0b92 EBEE     		jmp	.L196
 2535              	.L201:
 2536 0b94 EBF9     		jmp	.L207
 2537              	.L209:
 2538 0b96 E8000000 		call	__cxa_begin_catch@PLT
 2538      00
 2539              	.LEHB65:
 2540 0b9b E8000000 		call	_ZN8UnitTest11CurrentTest7ResultsEv@PLT
 2540      00
 2541 0ba0 4889E5   		movq	%rsp, %rbp
 2542 0ba3 BA880000 		movl	$136, %edx
 2542      00
 2543 0ba8 4889DE   		movq	%rbx, %rsi
 2544 0bab 4889EF   		movq	%rbp, %rdi
 2545 0bae 4C8B20   		movq	(%rax), %r12
 2546 0bb1 E8000000 		call	_ZN8UnitTest11TestDetailsC1ERKS0_i@PLT
 2546      00
 2547 0bb6 488D1500 		leaq	.LC11(%rip), %rdx
 2547      000000
 2548 0bbd 4889EE   		movq	%rbp, %rsi
 2549 0bc0 4C89E7   		movq	%r12, %rdi
 2550 0bc3 E8000000 		call	_ZN8UnitTest11TestResults13OnTestFailureERKNS_11TestDetailsEPKc@PLT
 2550      00
 2551              	.LEHE65:
 2552              	.LEHB66:
 2553 0bc8 E8000000 		call	__cxa_end_catch@PLT
 2553      00
 2554              	.LEHE66:
 2555 0bcd E99DFEFF 		jmp	.L188
 2555      FF
 2556              	.L203:
 2557 0bd2 4889C3   		movq	%rax, %rbx
 2558 0bd5 E8000000 		call	__cxa_end_catch@PLT
 2558      00
 2559 0bda 4889DF   		movq	%rbx, %rdi
 2560              	.LEHB67:
 2561 0bdd E8000000 		call	_Unwind_Resume@PLT
 2561      00
 2562              	.LEHE67:
 2563              		.cfi_endproc
 2564              	.LFE1456:
 2565              		.section	.gcc_except_table
 2566              		.align 4
 2567              	.LLSDA1456:
 2568 01b0 FF       		.byte	0xff
 2569 01b1 9B       		.byte	0x9b
 2570 01b2 49       		.uleb128 .LLSDATT1456-.LLSDATTD1456
 2571              	.LLSDATTD1456:
 2572 01b3 01       		.byte	0x1
 2573 01b4 31       		.uleb128 .LLSDACSE1456-.LLSDACSB1456
 2574              	.LLSDACSB1456:
 2575 01b5 33       		.uleb128 .LEHB59-.LFB1456
 2576 01b6 05       		.uleb128 .LEHE59-.LEHB59
 2577 01b7 67       		.uleb128 .L199-.LFB1456
 2578 01b8 07       		.uleb128 0x7
 2579 01b9 9101     		.uleb128 .LEHB60-.LFB1456
 2580 01bb 05       		.uleb128 .LEHE60-.LEHB60
 2581 01bc E402     		.uleb128 .L201-.LFB1456
 2582 01be 00       		.uleb128 0
 2583 01bf A501     		.uleb128 .LEHB61-.LFB1456
 2584 01c1 38       		.uleb128 .LEHE61-.LEHB61
 2585 01c2 C702     		.uleb128 .L202-.LFB1456
 2586 01c4 00       		.uleb128 0
 2587 01c5 E001     		.uleb128 .LEHB62-.LFB1456
 2588 01c7 05       		.uleb128 .LEHE62-.LEHB62
 2589 01c8 E402     		.uleb128 .L201-.LFB1456
 2590 01ca 00       		.uleb128 0
 2591 01cb F701     		.uleb128 .LEHB63-.LFB1456
 2592 01cd 4E       		.uleb128 .LEHE63-.LEHB63
 2593 01ce DF02     		.uleb128 .L200-.LFB1456
 2594 01d0 00       		.uleb128 0
 2595 01d1 DA02     		.uleb128 .LEHB64-.LFB1456
 2596 01d3 05       		.uleb128 .LEHE64-.LEHB64
 2597 01d4 00       		.uleb128 0
 2598 01d5 00       		.uleb128 0
 2599 01d6 EB02     		.uleb128 .LEHB65-.LFB1456
 2600 01d8 2D       		.uleb128 .LEHE65-.LEHB65
 2601 01d9 A203     		.uleb128 .L203-.LFB1456
 2602 01db 00       		.uleb128 0
 2603 01dc 9803     		.uleb128 .LEHB66-.LFB1456
 2604 01de 05       		.uleb128 .LEHE66-.LEHB66
 2605 01df 00       		.uleb128 0
 2606 01e0 00       		.uleb128 0
 2607 01e1 AD03     		.uleb128 .LEHB67-.LFB1456
 2608 01e3 05       		.uleb128 .LEHE67-.LEHB67
 2609 01e4 00       		.uleb128 0
 2610 01e5 00       		.uleb128 0
 2611              	.LLSDACSE1456:
 2612 01e6 03       		.byte	0x3
 2613 01e7 00       		.byte	0
 2614 01e8 02       		.byte	0x2
 2615 01e9 7D       		.byte	0x7d
 2616 01ea 01       		.byte	0x1
 2617 01eb 7D       		.byte	0x7d
 2618 01ec 00       		.byte	0
 2619 01ed 7D       		.byte	0x7d
 2620 01ee 0000     		.align 4
 2621 01f0 00000000 		.long	0
 2622              	
 2623 01f4 00000000 		.long	DW.ref._ZTISt9exception-.
 2624 01f8 00000000 		.long	DW.ref._ZTIN8UnitTest15AssertExceptionE-.
 2625              	.LLSDATT1456:
 2626              		.text
 2628              		.section	.rodata.str1.8
 2629 013b 00000000 		.align 8
 2629      00
 2630              	.LC12:
 2631 0140 556E6861 		.string	"Unhandled exception in CHECK_EQUAL((void*)0, p)"
 2631      6E646C65 
 2631      64206578 
 2631      63657074 
 2631      696F6E20 
 2632              		.text
 2633              		.align 2
 2634 0be2 0F1F4000 		.p2align 4,,15
 2634      662E0F1F 
 2634      84000000 
 2634      0000
 2636              	_ZNK12_GLOBAL__N_131TestCheckEqualWorksWithPointers7RunImplEv:
 2637              	.LFB1406:
 2638              		.cfi_startproc
 2639              		.cfi_personality 0x9b,DW.ref.__gxx_personality_v0
 2640              		.cfi_lsda 0x1b,.LLSDA1406
 2641 0bf0 55       		pushq	%rbp
 2642              		.cfi_def_cfa_offset 16
 2643              		.cfi_offset 6, -16
 2644 0bf1 53       		pushq	%rbx
 2645              		.cfi_def_cfa_offset 24
 2646              		.cfi_offset 3, -24
 2647 0bf2 4883EC38 		subq	$56, %rsp
 2648              		.cfi_def_cfa_offset 80
 2649 0bf6 64488B04 		movq	%fs:40, %rax
 2649      25280000 
 2649      00
 2650 0bff 48894424 		movq	%rax, 40(%rsp)
 2650      28
 2651 0c04 31C0     		xorl	%eax, %eax
 2652              	.LEHB68:
 2653 0c06 E8000000 		call	_ZN8UnitTest11CurrentTest7DetailsEv@PLT
 2653      00
 2654 0c0b 488B30   		movq	(%rax), %rsi
 2655 0c0e 4889E7   		movq	%rsp, %rdi
 2656 0c11 BA220000 		movl	$34, %edx
 2656      00
 2657 0c16 E8000000 		call	_ZN8UnitTest11TestDetailsC1ERKS0_i@PLT
 2657      00
 2658 0c1b E8000000 		call	_ZN8UnitTest11CurrentTest7ResultsEv@PLT
 2658      00
 2659              	.LEHE68:
 2660              	.L210:
 2661 0c20 488B4424 		movq	40(%rsp), %rax
 2661      28
 2662 0c25 64483304 		xorq	%fs:40, %rax
 2662      25280000 
 2662      00
 2663 0c2e 7507     		jne	.L218
 2664 0c30 4883C438 		addq	$56, %rsp
 2665              		.cfi_remember_state
 2666              		.cfi_def_cfa_offset 24
 2667 0c34 5B       		popq	%rbx
 2668              		.cfi_def_cfa_offset 16
 2669 0c35 5D       		popq	%rbp
 2670              		.cfi_def_cfa_offset 8
 2671 0c36 C3       		ret
 2672              	.L218:
 2673              		.cfi_restore_state
 2674 0c37 E8000000 		call	__stack_chk_fail@PLT
 2674      00
 2675              	.L215:
 2676 0c3c 4889C7   		movq	%rax, %rdi
 2677 0c3f E8000000 		call	__cxa_begin_catch@PLT
 2677      00
 2678              	.LEHB69:
 2679 0c44 E8000000 		call	_ZN8UnitTest11CurrentTest7ResultsEv@PLT
 2679      00
 2680 0c49 488B28   		movq	(%rax), %rbp
 2681 0c4c E8000000 		call	_ZN8UnitTest11CurrentTest7DetailsEv@PLT
 2681      00
 2682 0c51 488B30   		movq	(%rax), %rsi
 2683 0c54 4889E3   		movq	%rsp, %rbx
 2684 0c57 BA220000 		movl	$34, %edx
 2684      00
 2685 0c5c 4889DF   		movq	%rbx, %rdi
 2686 0c5f E8000000 		call	_ZN8UnitTest11TestDetailsC1ERKS0_i@PLT
 2686      00
 2687 0c64 488D1500 		leaq	.LC12(%rip), %rdx
 2687      000000
 2688 0c6b 4889DE   		movq	%rbx, %rsi
 2689 0c6e 4889EF   		movq	%rbp, %rdi
 2690 0c71 E8000000 		call	_ZN8UnitTest11TestResults13OnTestFailureERKNS_11TestDetailsEPKc@PLT
 2690      00
 2691              	.LEHE69:
 2692              	.LEHB70:
 2693 0c76 E8000000 		call	__cxa_end_catch@PLT
 2693      00
 2694              	.LEHE70:
 2695 0c7b EBA3     		jmp	.L210
 2696              	.L216:
 2697 0c7d 4889C3   		movq	%rax, %rbx
 2698 0c80 E8000000 		call	__cxa_end_catch@PLT
 2698      00
 2699 0c85 4889DF   		movq	%rbx, %rdi
 2700              	.LEHB71:
 2701 0c88 E8000000 		call	_Unwind_Resume@PLT
 2701      00
 2702              	.LEHE71:
 2703              		.cfi_endproc
 2704              	.LFE1406:
 2705              		.section	.gcc_except_table
 2706              		.align 4
 2707              	.LLSDA1406:
 2708 01fc FF       		.byte	0xff
 2709 01fd 9B       		.byte	0x9b
 2710 01fe 1D       		.uleb128 .LLSDATT1406-.LLSDATTD1406
 2711              	.LLSDATTD1406:
 2712 01ff 01       		.byte	0x1
 2713 0200 13       		.uleb128 .LLSDACSE1406-.LLSDACSB1406
 2714              	.LLSDACSB1406:
 2715 0201 16       		.uleb128 .LEHB68-.LFB1406
 2716 0202 1A       		.uleb128 .LEHE68-.LEHB68
 2717 0203 4C       		.uleb128 .L215-.LFB1406
 2718 0204 01       		.uleb128 0x1
 2719 0205 54       		.uleb128 .LEHB69-.LFB1406
 2720 0206 32       		.uleb128 .LEHE69-.LEHB69
 2721 0207 8D01     		.uleb128 .L216-.LFB1406
 2722 0209 00       		.uleb128 0
 2723 020a 8601     		.uleb128 .LEHB70-.LFB1406
 2724 020c 05       		.uleb128 .LEHE70-.LEHB70
 2725 020d 00       		.uleb128 0
 2726 020e 00       		.uleb128 0
 2727 020f 9801     		.uleb128 .LEHB71-.LFB1406
 2728 0211 05       		.uleb128 .LEHE71-.LEHB71
 2729 0212 00       		.uleb128 0
 2730 0213 00       		.uleb128 0
 2731              	.LLSDACSE1406:
 2732 0214 01       		.byte	0x1
 2733 0215 00       		.byte	0
 2734 0216 0000     		.align 4
 2735 0218 00000000 		.long	0
 2736              	
 2737              	.LLSDATT1406:
 2738              		.text
 2740              		.section	.rodata.str1.8
 2741              		.align 8
 2742              	.LC13:
 2743 0170 556E6861 		.string	"Unhandled exception in CHECK_CLOSE(2.0f, 2.001f)"
 2743      6E646C65 
 2743      64206578 
 2743      63657074 
 2743      696F6E20 
 2744 01a1 00000000 		.align 8
 2744      000000
 2745              	.LC14:
 2746 01a8 556E6861 		.string	"Unhandled exception in CHECK_CLOSE(2.001f, 2.0f)"
 2746      6E646C65 
 2746      64206578 
 2746      63657074 
 2746      696F6E20 
 2747              		.text
 2748 0c8d 90       		.align 2
 2749 0c8e 6690     		.p2align 4,,15
 2751              	_ZNK12_GLOBAL__N_127TestValidCheckCloseSucceeds7RunImplEv:
 2752              	.LFB1410:
 2753              		.cfi_startproc
 2754              		.cfi_personality 0x9b,DW.ref.__gxx_personality_v0
 2755              		.cfi_lsda 0x1b,.LLSDA1410
 2756 0c90 55       		pushq	%rbp
 2757              		.cfi_def_cfa_offset 16
 2758              		.cfi_offset 6, -16
 2759 0c91 53       		pushq	%rbx
 2760              		.cfi_def_cfa_offset 24
 2761              		.cfi_offset 3, -24
 2762 0c92 4883EC38 		subq	$56, %rsp
 2763              		.cfi_def_cfa_offset 80
 2764 0c96 64488B04 		movq	%fs:40, %rax
 2764      25280000 
 2764      00
 2765 0c9f 48894424 		movq	%rax, 40(%rsp)
 2765      28
 2766 0ca4 31C0     		xorl	%eax, %eax
 2767              	.LEHB72:
 2768 0ca6 E8000000 		call	_ZN8UnitTest11CurrentTest7DetailsEv@PLT
 2768      00
 2769 0cab 488B30   		movq	(%rax), %rsi
 2770 0cae 4889E3   		movq	%rsp, %rbx
 2771 0cb1 BA270000 		movl	$39, %edx
 2771      00
 2772 0cb6 4889DF   		movq	%rbx, %rdi
 2773 0cb9 E8000000 		call	_ZN8UnitTest11TestDetailsC1ERKS0_i@PLT
 2773      00
 2774 0cbe E8000000 		call	_ZN8UnitTest11CurrentTest7ResultsEv@PLT
 2774      00
 2775              	.LEHE72:
 2776              	.L221:
 2777              	.LEHB73:
 2778 0cc3 E8000000 		call	_ZN8UnitTest11CurrentTest7DetailsEv@PLT
 2778      00
 2779 0cc8 488B30   		movq	(%rax), %rsi
 2780 0ccb BA280000 		movl	$40, %edx
 2780      00
 2781 0cd0 4889DF   		movq	%rbx, %rdi
 2782 0cd3 E8000000 		call	_ZN8UnitTest11TestDetailsC1ERKS0_i@PLT
 2782      00
 2783 0cd8 E8000000 		call	_ZN8UnitTest11CurrentTest7ResultsEv@PLT
 2783      00
 2784              	.LEHE73:
 2785              	.L219:
 2786 0cdd 488B4424 		movq	40(%rsp), %rax
 2786      28
 2787 0ce2 64483304 		xorq	%fs:40, %rax
 2787      25280000 
 2787      00
 2788 0ceb 7507     		jne	.L232
 2789 0ced 4883C438 		addq	$56, %rsp
 2790              		.cfi_remember_state
 2791              		.cfi_def_cfa_offset 24
 2792 0cf1 5B       		popq	%rbx
 2793              		.cfi_def_cfa_offset 16
 2794 0cf2 5D       		popq	%rbp
 2795              		.cfi_def_cfa_offset 8
 2796 0cf3 C3       		ret
 2797              	.L232:
 2798              		.cfi_restore_state
 2799 0cf4 E8000000 		call	__stack_chk_fail@PLT
 2799      00
 2800              	.L229:
 2801 0cf9 4889C7   		movq	%rax, %rdi
 2802 0cfc E8000000 		call	__cxa_begin_catch@PLT
 2802      00
 2803              	.LEHB74:
 2804 0d01 E8000000 		call	_ZN8UnitTest11CurrentTest7ResultsEv@PLT
 2804      00
 2805 0d06 488B28   		movq	(%rax), %rbp
 2806 0d09 E8000000 		call	_ZN8UnitTest11CurrentTest7DetailsEv@PLT
 2806      00
 2807 0d0e 488B30   		movq	(%rax), %rsi
 2808 0d11 BA280000 		movl	$40, %edx
 2808      00
 2809 0d16 4889DF   		movq	%rbx, %rdi
 2810 0d19 E8000000 		call	_ZN8UnitTest11TestDetailsC1ERKS0_i@PLT
 2810      00
 2811 0d1e 488D1500 		leaq	.LC14(%rip), %rdx
 2811      000000
 2812 0d25 4889DE   		movq	%rbx, %rsi
 2813 0d28 4889EF   		movq	%rbp, %rdi
 2814 0d2b E8000000 		call	_ZN8UnitTest11TestResults13OnTestFailureERKNS_11TestDetailsEPKc@PLT
 2814      00
 2815              	.LEHE74:
 2816              	.LEHB75:
 2817 0d30 E8000000 		call	__cxa_end_catch@PLT
 2817      00
 2818              	.LEHE75:
 2819 0d35 EBA6     		jmp	.L219
 2820              	.L227:
 2821 0d37 4889C7   		movq	%rax, %rdi
 2822 0d3a E8000000 		call	__cxa_begin_catch@PLT
 2822      00
 2823              	.LEHB76:
 2824 0d3f E8000000 		call	_ZN8UnitTest11CurrentTest7ResultsEv@PLT
 2824      00
 2825 0d44 488B28   		movq	(%rax), %rbp
 2826 0d47 E8000000 		call	_ZN8UnitTest11CurrentTest7DetailsEv@PLT
 2826      00
 2827 0d4c 488B30   		movq	(%rax), %rsi
 2828 0d4f 4889E3   		movq	%rsp, %rbx
 2829 0d52 BA270000 		movl	$39, %edx
 2829      00
 2830 0d57 4889DF   		movq	%rbx, %rdi
 2831 0d5a E8000000 		call	_ZN8UnitTest11TestDetailsC1ERKS0_i@PLT
 2831      00
 2832 0d5f 488D1500 		leaq	.LC13(%rip), %rdx
 2832      000000
 2833 0d66 4889DE   		movq	%rbx, %rsi
 2834 0d69 4889EF   		movq	%rbp, %rdi
 2835 0d6c E8000000 		call	_ZN8UnitTest11TestResults13OnTestFailureERKNS_11TestDetailsEPKc@PLT
 2835      00
 2836              	.LEHE76:
 2837              	.LEHB77:
 2838 0d71 E8000000 		call	__cxa_end_catch@PLT
 2838      00
 2839              	.LEHE77:
 2840 0d76 E948FFFF 		jmp	.L221
 2840      FF
 2841              	.L230:
 2842 0d7b 4889C3   		movq	%rax, %rbx
 2843 0d7e E8000000 		call	__cxa_end_catch@PLT
 2843      00
 2844 0d83 4889DF   		movq	%rbx, %rdi
 2845              	.LEHB78:
 2846 0d86 E8000000 		call	_Unwind_Resume@PLT
 2846      00
 2847              	.LEHE78:
 2848              	.L228:
 2849 0d8b 4889C3   		movq	%rax, %rbx
 2850 0d8e E8000000 		call	__cxa_end_catch@PLT
 2850      00
 2851 0d93 4889DF   		movq	%rbx, %rdi
 2852              	.LEHB79:
 2853 0d96 E8000000 		call	_Unwind_Resume@PLT
 2853      00
 2854              	.LEHE79:
 2855              		.cfi_endproc
 2856              	.LFE1410:
 2857              		.section	.gcc_except_table
 2858              		.align 4
 2859              	.LLSDA1410:
 2860 021c FF       		.byte	0xff
 2861 021d 9B       		.byte	0x9b
 2862 021e 31       		.uleb128 .LLSDATT1410-.LLSDATTD1410
 2863              	.LLSDATTD1410:
 2864 021f 01       		.byte	0x1
 2865 0220 28       		.uleb128 .LLSDACSE1410-.LLSDACSB1410
 2866              	.LLSDACSB1410:
 2867 0221 16       		.uleb128 .LEHB72-.LFB1410
 2868 0222 1D       		.uleb128 .LEHE72-.LEHB72
 2869 0223 A701     		.uleb128 .L227-.LFB1410
 2870 0225 01       		.uleb128 0x1
 2871 0226 33       		.uleb128 .LEHB73-.LFB1410
 2872 0227 1A       		.uleb128 .LEHE73-.LEHB73
 2873 0228 69       		.uleb128 .L229-.LFB1410
 2874 0229 01       		.uleb128 0x1
 2875 022a 71       		.uleb128 .LEHB74-.LFB1410
 2876 022b 2F       		.uleb128 .LEHE74-.LEHB74
 2877 022c EB01     		.uleb128 .L230-.LFB1410
 2878 022e 00       		.uleb128 0
 2879 022f A001     		.uleb128 .LEHB75-.LFB1410
 2880 0231 05       		.uleb128 .LEHE75-.LEHB75
 2881 0232 00       		.uleb128 0
 2882 0233 00       		.uleb128 0
 2883 0234 AF01     		.uleb128 .LEHB76-.LFB1410
 2884 0236 32       		.uleb128 .LEHE76-.LEHB76
 2885 0237 FB01     		.uleb128 .L228-.LFB1410
 2886 0239 00       		.uleb128 0
 2887 023a E101     		.uleb128 .LEHB77-.LFB1410
 2888 023c 05       		.uleb128 .LEHE77-.LEHB77
 2889 023d 00       		.uleb128 0
 2890 023e 00       		.uleb128 0
 2891 023f F601     		.uleb128 .LEHB78-.LFB1410
 2892 0241 05       		.uleb128 .LEHE78-.LEHB78
 2893 0242 00       		.uleb128 0
 2894 0243 00       		.uleb128 0
 2895 0244 8602     		.uleb128 .LEHB79-.LFB1410
 2896 0246 05       		.uleb128 .LEHE79-.LEHB79
 2897 0247 00       		.uleb128 0
 2898 0248 00       		.uleb128 0
 2899              	.LLSDACSE1410:
 2900 0249 01       		.byte	0x1
 2901 024a 00       		.byte	0
 2902 024b 00       		.align 4
 2903 024c 00000000 		.long	0
 2904              	
 2905              	.LLSDATT1410:
 2906              		.text
 2908              		.section	.rodata.str1.8
 2909 01d9 00000000 		.align 8
 2909      000000
 2910              	.LC15:
 2911 01e0 556E6861 		.string	"Unhandled exception in CHECK_ARRAY_CLOSE(a1, a2)"
 2911      6E646C65 
 2911      64206578 
 2911      63657074 
 2911      696F6E20 
 2912              		.text
 2913 0d9b 90       		.align 2
 2914 0d9c 0F1F4000 		.p2align 4,,15
 2916              	_ZNK12_GLOBAL__N_122TestArrayCloseSucceeds7RunImplEv:
 2917              	.LFB1414:
 2918              		.cfi_startproc
 2919              		.cfi_personality 0x9b,DW.ref.__gxx_personality_v0
 2920              		.cfi_lsda 0x1b,.LLSDA1414
 2921 0da0 55       		pushq	%rbp
 2922              		.cfi_def_cfa_offset 16
 2923              		.cfi_offset 6, -16
 2924 0da1 53       		pushq	%rbx
 2925              		.cfi_def_cfa_offset 24
 2926              		.cfi_offset 3, -24
 2927 0da2 4883EC48 		subq	$72, %rsp
 2928              		.cfi_def_cfa_offset 96
 2929 0da6 64488B04 		movq	%fs:40, %rax
 2929      25280000 
 2929      00
 2930 0daf 48894424 		movq	%rax, 56(%rsp)
 2930      38
 2931 0db4 31C0     		xorl	%eax, %eax
 2932 0db6 48B80000 		movabsq	$4611686019492741120, %rax
 2932      803F0000 
 2932      0040
 2933 0dc0 C7442428 		movl	$1077936128, 40(%rsp)
 2933      00004040 
 2934 0dc8 C7442434 		movl	$1077936128, 52(%rsp)
 2934      00004040 
 2935 0dd0 48894424 		movq	%rax, 32(%rsp)
 2935      20
 2936 0dd5 48B80000 		movabsq	$4611866163306037248, %rax
 2936      803FD7A3 
 2936      0040
 2937 0ddf 48894424 		movq	%rax, 44(%rsp)
 2937      2C
 2938              	.LEHB80:
 2939 0de4 E8000000 		call	_ZN8UnitTest11CurrentTest7DetailsEv@PLT
 2939      00
 2940 0de9 488B30   		movq	(%rax), %rsi
 2941 0dec 4889E7   		movq	%rsp, %rdi
 2942 0def BA2F0000 		movl	$47, %edx
 2942      00
 2943 0df4 E8000000 		call	_ZN8UnitTest11TestDetailsC1ERKS0_i@PLT
 2943      00
 2944 0df9 E8000000 		call	_ZN8UnitTest11CurrentTest7ResultsEv@PLT
 2944      00
 2945              	.LEHE80:
 2946              	.L233:
 2947 0dfe 488B4424 		movq	56(%rsp), %rax
 2947      38
 2948 0e03 64483304 		xorq	%fs:40, %rax
 2948      25280000 
 2948      00
 2949 0e0c 7507     		jne	.L241
 2950 0e0e 4883C448 		addq	$72, %rsp
 2951              		.cfi_remember_state
 2952              		.cfi_def_cfa_offset 24
 2953 0e12 5B       		popq	%rbx
 2954              		.cfi_def_cfa_offset 16
 2955 0e13 5D       		popq	%rbp
 2956              		.cfi_def_cfa_offset 8
 2957 0e14 C3       		ret
 2958              	.L241:
 2959              		.cfi_restore_state
 2960 0e15 E8000000 		call	__stack_chk_fail@PLT
 2960      00
 2961              	.L238:
 2962 0e1a 4889C7   		movq	%rax, %rdi
 2963 0e1d E8000000 		call	__cxa_begin_catch@PLT
 2963      00
 2964              	.LEHB81:
 2965 0e22 E8000000 		call	_ZN8UnitTest11CurrentTest7ResultsEv@PLT
 2965      00
 2966 0e27 488B28   		movq	(%rax), %rbp
 2967 0e2a E8000000 		call	_ZN8UnitTest11CurrentTest7DetailsEv@PLT
 2967      00
 2968 0e2f 488B30   		movq	(%rax), %rsi
 2969 0e32 4889E3   		movq	%rsp, %rbx
 2970 0e35 BA2F0000 		movl	$47, %edx
 2970      00
 2971 0e3a 4889DF   		movq	%rbx, %rdi
 2972 0e3d E8000000 		call	_ZN8UnitTest11TestDetailsC1ERKS0_i@PLT
 2972      00
 2973 0e42 488D1500 		leaq	.LC15(%rip), %rdx
 2973      000000
 2974 0e49 4889DE   		movq	%rbx, %rsi
 2975 0e4c 4889EF   		movq	%rbp, %rdi
 2976 0e4f E8000000 		call	_ZN8UnitTest11TestResults13OnTestFailureERKNS_11TestDetailsEPKc@PLT
 2976      00
 2977              	.LEHE81:
 2978              	.LEHB82:
 2979 0e54 E8000000 		call	__cxa_end_catch@PLT
 2979      00
 2980              	.LEHE82:
 2981 0e59 EBA3     		jmp	.L233
 2982              	.L239:
 2983 0e5b 4889C3   		movq	%rax, %rbx
 2984 0e5e E8000000 		call	__cxa_end_catch@PLT
 2984      00
 2985 0e63 4889DF   		movq	%rbx, %rdi
 2986              	.LEHB83:
 2987 0e66 E8000000 		call	_Unwind_Resume@PLT
 2987      00
 2988              	.LEHE83:
 2989              		.cfi_endproc
 2990              	.LFE1414:
 2991              		.section	.gcc_except_table
 2992              		.align 4
 2993              	.LLSDA1414:
 2994 0250 FF       		.byte	0xff
 2995 0251 9B       		.byte	0x9b
 2996 0252 1D       		.uleb128 .LLSDATT1414-.LLSDATTD1414
 2997              	.LLSDATTD1414:
 2998 0253 01       		.byte	0x1
 2999 0254 14       		.uleb128 .LLSDACSE1414-.LLSDACSB1414
 3000              	.LLSDACSB1414:
 3001 0255 44       		.uleb128 .LEHB80-.LFB1414
 3002 0256 1A       		.uleb128 .LEHE80-.LEHB80
 3003 0257 7A       		.uleb128 .L238-.LFB1414
 3004 0258 01       		.uleb128 0x1
 3005 0259 8201     		.uleb128 .LEHB81-.LFB1414
 3006 025b 32       		.uleb128 .LEHE81-.LEHB81
 3007 025c BB01     		.uleb128 .L239-.LFB1414
 3008 025e 00       		.uleb128 0
 3009 025f B401     		.uleb128 .LEHB82-.LFB1414
 3010 0261 05       		.uleb128 .LEHE82-.LEHB82
 3011 0262 00       		.uleb128 0
 3012 0263 00       		.uleb128 0
 3013 0264 C601     		.uleb128 .LEHB83-.LFB1414
 3014 0266 05       		.uleb128 .LEHE83-.LEHB83
 3015 0267 00       		.uleb128 0
 3016 0268 00       		.uleb128 0
 3017              	.LLSDACSE1414:
 3018 0269 01       		.byte	0x1
 3019 026a 00       		.byte	0
 3020 026b 00       		.align 4
 3021 026c 00000000 		.long	0
 3022              	
 3023              	.LLSDATT1414:
 3024              		.text
 3026              		.section	.rodata.str1.1
 3027              	.LC17:
 3028 005c 45787065 		.string	"Expected [ "
 3028      63746564 
 3028      205B2000 
 3029              	.LC18:
 3030 0068 2000     		.string	" "
 3031              	.LC19:
 3032 006a 5D202B2F 		.string	"] +/- "
 3032      2D2000
 3033              	.LC21:
 3034 0071 20627574 		.string	" but was [ "
 3034      20776173 
 3034      205B2000 
 3035              	.LC22:
 3036 007d 5D00     		.string	"]"
 3037              		.section	.rodata.str1.8
 3038 0211 00000000 		.align 8
 3038      000000
 3039              	.LC23:
 3040 0218 556E6861 		.string	"Unhandled exception in CHECK_ARRAY_CLOSE(a, a)"
 3040      6E646C65 
 3040      64206578 
 3040      63657074 
 3040      696F6E20 
 3041              		.text
 3042 0e6b 90       		.align 2
 3043 0e6c 0F1F4000 		.p2align 4,,15
 3045              	_ZNK12_GLOBAL__N_135TestCheckArrayCloseWorksWithVectors7RunImplEv:
 3046              	.LFB1418:
 3047              		.cfi_startproc
 3048              		.cfi_personality 0x9b,DW.ref.__gxx_personality_v0
 3049              		.cfi_lsda 0x1b,.LLSDA1418
 3050 0e70 4157     		pushq	%r15
 3051              		.cfi_def_cfa_offset 16
 3052              		.cfi_offset 15, -16
 3053 0e72 4156     		pushq	%r14
 3054              		.cfi_def_cfa_offset 24
 3055              		.cfi_offset 14, -24
 3056 0e74 BF100000 		movl	$16, %edi
 3056      00
 3057 0e79 4155     		pushq	%r13
 3058              		.cfi_def_cfa_offset 32
 3059              		.cfi_offset 13, -32
 3060 0e7b 4154     		pushq	%r12
 3061              		.cfi_def_cfa_offset 40
 3062              		.cfi_offset 12, -40
 3063 0e7d 55       		pushq	%rbp
 3064              		.cfi_def_cfa_offset 48
 3065              		.cfi_offset 6, -48
 3066 0e7e 53       		pushq	%rbx
 3067              		.cfi_def_cfa_offset 56
 3068              		.cfi_offset 3, -56
 3069 0e7f 4881ECD8 		subq	$472, %rsp
 3069      010000
 3070              		.cfi_def_cfa_offset 528
 3071 0e86 64488B04 		movq	%fs:40, %rax
 3071      25280000 
 3071      00
 3072 0e8f 48898424 		movq	%rax, 456(%rsp)
 3072      C8010000 
 3073 0e97 31C0     		xorl	%eax, %eax
 3074              	.LEHB84:
 3075 0e99 E8000000 		call	_Znwm@PLT
 3075      00
 3076              	.LEHE84:
 3077 0e9e 4989C6   		movq	%rax, %r14
 3078 0ea1 48B80000 		movabsq	$4575657221408423936, %rax
 3078      00000000 
 3078      803F
 3079 0eab 498906   		movq	%rax, (%r14)
 3080 0eae 48B80000 		movabsq	$4629700418010611712, %rax
 3080      00400000 
 3080      4040
 3081 0eb8 49894608 		movq	%rax, 8(%r14)
 3082              	.LEHB85:
 3083 0ebc E8000000 		call	_ZN8UnitTest11CurrentTest7DetailsEv@PLT
 3083      00
 3084 0ec1 4C8D7C24 		leaq	16(%rsp), %r15
 3084      10
 3085 0ec6 488B30   		movq	(%rax), %rsi
 3086 0ec9 BA380000 		movl	$56, %edx
 3086      00
 3087 0ece 4C89FF   		movq	%r15, %rdi
 3088 0ed1 E8000000 		call	_ZN8UnitTest11TestDetailsC1ERKS0_i@PLT
 3088      00
 3089 0ed6 E8000000 		call	_ZN8UnitTest11CurrentTest7ResultsEv@PLT
 3089      00
 3090              	.LEHE85:
 3091 0edb 4D89F5   		movq	%r14, %r13
 3092 0ede 498D4E10 		leaq	16(%r14), %rcx
 3093 0ee2 4C89F3   		movq	%r14, %rbx
 3094 0ee5 BA010000 		movl	$1, %edx
 3094      00
 3095 0eea F30F1015 		movss	.LC16(%rip), %xmm2
 3095      00000000 
 3096 0ef2 31F6     		xorl	%esi, %esi
 3097 0ef4 EB20     		jmp	.L246
 3098 0ef6 662E0F1F 		.p2align 4,,10
 3098      84000000 
 3098      0000
 3099              		.p2align 3
 3100              	.L278:
 3101 0f00 0F28C8   		movaps	%xmm0, %xmm1
 3102 0f03 F30F58CA 		addss	%xmm2, %xmm1
 3103 0f07 0F2EC8   		ucomiss	%xmm0, %xmm1
 3104 0f0a 0F42D6   		cmovb	%esi, %edx
 3105 0f0d 4883C304 		addq	$4, %rbx
 3106 0f11 4839CB   		cmpq	%rcx, %rbx
 3107 0f14 741B     		je	.L277
 3108              	.L246:
 3109 0f16 F30F1003 		movss	(%rbx), %xmm0
 3110 0f1a 0F28C8   		movaps	%xmm0, %xmm1
 3111 0f1d F30F5CCA 		subss	%xmm2, %xmm1
 3112 0f21 0F2EC1   		ucomiss	%xmm1, %xmm0
 3113 0f24 73DA     		jnb	.L278
 3114 0f26 4883C304 		addq	$4, %rbx
 3115 0f2a 31D2     		xorl	%edx, %edx
 3116 0f2c 4839CB   		cmpq	%rcx, %rbx
 3117 0f2f 75E5     		jne	.L246
 3118              	.L277:
 3119 0f31 84D2     		testb	%dl, %dl
 3120 0f33 743B     		je	.L279
 3121              	.L256:
 3122 0f35 4C89F7   		movq	%r14, %rdi
 3123 0f38 E8000000 		call	_ZdlPv@PLT
 3123      00
 3124 0f3d 488B8424 		movq	456(%rsp), %rax
 3124      C8010000 
 3125 0f45 64483304 		xorq	%fs:40, %rax
 3125      25280000 
 3125      00
 3126 0f4e 0F85FE02 		jne	.L280
 3126      0000
 3127 0f54 4881C4D8 		addq	$472, %rsp
 3127      010000
 3128              		.cfi_remember_state
 3129              		.cfi_def_cfa_offset 56
 3130 0f5b 5B       		popq	%rbx
 3131              		.cfi_def_cfa_offset 48
 3132 0f5c 5D       		popq	%rbp
 3133              		.cfi_def_cfa_offset 40
 3134 0f5d 415C     		popq	%r12
 3135              		.cfi_def_cfa_offset 32
 3136 0f5f 415D     		popq	%r13
 3137              		.cfi_def_cfa_offset 24
 3138 0f61 415E     		popq	%r14
 3139              		.cfi_def_cfa_offset 16
 3140 0f63 415F     		popq	%r15
 3141              		.cfi_def_cfa_offset 8
 3142 0f65 C3       		ret
 3143 0f66 662E0F1F 		.p2align 4,,10
 3143      84000000 
 3143      0000
 3144              		.p2align 3
 3145              	.L279:
 3146              		.cfi_restore_state
 3147 0f70 488D6C24 		leaq	48(%rsp), %rbp
 3147      30
 3148 0f75 488B00   		movq	(%rax), %rax
 3149 0f78 4C8DA590 		leaq	144(%rbp), %r12
 3149      000000
 3150 0f7f 48894424 		movq	%rax, 8(%rsp)
 3150      08
 3151 0f84 4C89E7   		movq	%r12, %rdi
 3152 0f87 E8000000 		call	_ZNSt8ios_baseC2Ev@PLT
 3152      00
 3153 0f8c 488D0500 		leaq	24+_ZTCN8UnitTest15MemoryOutStreamE0_So(%rip), %rax
 3153      000000
 3154 0f93 31F6     		xorl	%esi, %esi
 3155 0f95 4C89E7   		movq	%r12, %rdi
 3156 0f98 48C78424 		movq	$0, 408(%rsp)
 3156      98010000 
 3156      00000000 
 3157 0fa4 C68424A0 		movb	$0, 416(%rsp)
 3157      01000000 
 3158 0fac 48894424 		movq	%rax, 48(%rsp)
 3158      30
 3159 0fb1 4883C028 		addq	$40, %rax
 3160 0fb5 C68424A1 		movb	$0, 417(%rsp)
 3160      01000000 
 3161 0fbd 48C78424 		movq	$0, 424(%rsp)
 3161      A8010000 
 3161      00000000 
 3162 0fc9 48C78424 		movq	$0, 432(%rsp)
 3162      B0010000 
 3162      00000000 
 3163 0fd5 48C78424 		movq	$0, 440(%rsp)
 3163      B8010000 
 3163      00000000 
 3164 0fe1 48C78424 		movq	$0, 448(%rsp)
 3164      C0010000 
 3164      00000000 
 3165 0fed 48898424 		movq	%rax, 192(%rsp)
 3165      C0000000 
 3166              	.LEHB86:
 3167 0ff5 E8000000 		call	_ZNSt9basic_iosIcSt11char_traitsIcEE4initEPSt15basic_streambufIcS1_E@PLT
 3167      00
 3168              	.LEHE86:
 3169 0ffa 488D0500 		leaq	24+_ZTCN8UnitTest15MemoryOutStreamE0_NSt7__cxx1119basic_ostringstreamIcSt11char_traitsIcESaIc
 3169      000000
 3170 1001 660FEFC0 		pxor	%xmm0, %xmm0
 3171 1005 488D7D40 		leaq	64(%rbp), %rdi
 3172 1009 48894424 		movq	%rax, 48(%rsp)
 3172      30
 3173 100e 4883C028 		addq	$40, %rax
 3174 1012 48898424 		movq	%rax, 192(%rsp)
 3174      C0000000 
 3175 101a 488D0500 		leaq	16+_ZTVSt15basic_streambufIcSt11char_traitsIcEE(%rip), %rax
 3175      000000
 3176 1021 0F294424 		movaps	%xmm0, 64(%rsp)
 3176      40
 3177 1026 48894424 		movq	%rax, 56(%rsp)
 3177      38
 3178 102b 0F294424 		movaps	%xmm0, 80(%rsp)
 3178      50
 3179 1030 0F294424 		movaps	%xmm0, 96(%rsp)
 3179      60
 3180 1035 E8000000 		call	_ZNSt6localeC1Ev@PLT
 3180      00
 3181 103a 488D0500 		leaq	16+_ZTVNSt7__cxx1115basic_stringbufIcSt11char_traitsIcESaIcEEE(%rip), %rax
 3181      000000
 3182 1041 488D7508 		leaq	8(%rbp), %rsi
 3183 1045 48894424 		movq	%rax, 56(%rsp)
 3183      38
 3184 104a 488D4560 		leaq	96(%rbp), %rax
 3185 104e C7442478 		movl	$16, 120(%rsp)
 3185      10000000 
 3186 1056 48C78424 		movq	$0, 136(%rsp)
 3186      88000000 
 3186      00000000 
 3187 1062 C6842490 		movb	$0, 144(%rsp)
 3187      00000000 
 3188 106a 48898424 		movq	%rax, 128(%rsp)
 3188      80000000 
 3189 1072 488B4424 		movq	48(%rsp), %rax
 3189      30
 3190 1077 488B78E8 		movq	-24(%rax), %rdi
 3191 107b 4801EF   		addq	%rbp, %rdi
 3192              	.LEHB87:
 3193 107e E8000000 		call	_ZNSt9basic_iosIcSt11char_traitsIcEE4initEPSt15basic_streambufIcS1_E@PLT
 3193      00
 3194              	.LEHE87:
 3195 1083 488D0500 		leaq	24+_ZTVN8UnitTest15MemoryOutStreamE(%rip), %rax
 3195      000000
 3196 108a 488D3500 		leaq	.LC17(%rip), %rsi
 3196      000000
 3197 1091 BA0B0000 		movl	$11, %edx
 3197      00
 3198 1096 4889EF   		movq	%rbp, %rdi
 3199 1099 48C78424 		movq	$0, 168(%rsp)
 3199      A8000000 
 3199      00000000 
 3200 10a5 C68424B0 		movb	$0, 176(%rsp)
 3200      00000000 
 3201 10ad 48894424 		movq	%rax, 48(%rsp)
 3201      30
 3202 10b2 4883C028 		addq	$40, %rax
 3203 10b6 48898424 		movq	%rax, 192(%rsp)
 3203      C0000000 
 3204 10be 488D8580 		leaq	128(%rbp), %rax
 3204      000000
 3205 10c5 48898424 		movq	%rax, 160(%rsp)
 3205      A0000000 
 3206              	.LEHB88:
 3207 10cd E8000000 		call	_ZSt16__ostream_insertIcSt11char_traitsIcEERSt13basic_ostreamIT_T0_ES6_PKS3_l@PLT
 3207      00
 3208 10d2 4D89F4   		movq	%r14, %r12
 3209              		.p2align 4,,10
 3210 10d5 0F1F00   		.p2align 3
 3211              	.L250:
 3212 10d8 660FEFC0 		pxor	%xmm0, %xmm0
 3213 10dc 4889EF   		movq	%rbp, %rdi
 3214 10df F3410F5A 		cvtss2sd	(%r12), %xmm0
 3214      0424
 3215 10e5 E8000000 		call	_ZNSo9_M_insertIdEERSoT_@PLT
 3215      00
 3216 10ea 488D3500 		leaq	.LC18(%rip), %rsi
 3216      000000
 3217 10f1 BA010000 		movl	$1, %edx
 3217      00
 3218 10f6 4889C7   		movq	%rax, %rdi
 3219 10f9 E8000000 		call	_ZSt16__ostream_insertIcSt11char_traitsIcEERSt13basic_ostreamIT_T0_ES6_PKS3_l@PLT
 3219      00
 3220 10fe 4983C404 		addq	$4, %r12
 3221 1102 4C39E3   		cmpq	%r12, %rbx
 3222 1105 75D1     		jne	.L250
 3223 1107 488D3500 		leaq	.LC19(%rip), %rsi
 3223      000000
 3224 110e BA060000 		movl	$6, %edx
 3224      00
 3225 1113 4889EF   		movq	%rbp, %rdi
 3226 1116 E8000000 		call	_ZSt16__ostream_insertIcSt11char_traitsIcEERSt13basic_ostreamIT_T0_ES6_PKS3_l@PLT
 3226      00
 3227 111b F20F1005 		movsd	.LC20(%rip), %xmm0
 3227      00000000 
 3228 1123 4889EF   		movq	%rbp, %rdi
 3229 1126 E8000000 		call	_ZNSo9_M_insertIdEERSoT_@PLT
 3229      00
 3230 112b 488D3500 		leaq	.LC21(%rip), %rsi
 3230      000000
 3231 1132 BA0B0000 		movl	$11, %edx
 3231      00
 3232 1137 4889C7   		movq	%rax, %rdi
 3233 113a E8000000 		call	_ZSt16__ostream_insertIcSt11char_traitsIcEERSt13basic_ostreamIT_T0_ES6_PKS3_l@PLT
 3233      00
 3234 113f 488D1D00 		leaq	.LC18(%rip), %rbx
 3234      000000
 3235 1146 662E0F1F 		.p2align 4,,10
 3235      84000000 
 3235      0000
 3236              		.p2align 3
 3237              	.L252:
 3238 1150 660FEFC0 		pxor	%xmm0, %xmm0
 3239 1154 4889EF   		movq	%rbp, %rdi
 3240 1157 F3410F5A 		cvtss2sd	0(%r13), %xmm0
 3240      4500
 3241 115d E8000000 		call	_ZNSo9_M_insertIdEERSoT_@PLT
 3241      00
 3242 1162 BA010000 		movl	$1, %edx
 3242      00
 3243 1167 4889DE   		movq	%rbx, %rsi
 3244 116a 4889C7   		movq	%rax, %rdi
 3245 116d E8000000 		call	_ZSt16__ostream_insertIcSt11char_traitsIcEERSt13basic_ostreamIT_T0_ES6_PKS3_l@PLT
 3245      00
 3246 1172 4983C504 		addq	$4, %r13
 3247 1176 4D39EC   		cmpq	%r13, %r12
 3248 1179 75D5     		jne	.L252
 3249 117b 488D3500 		leaq	.LC22(%rip), %rsi
 3249      000000
 3250 1182 BA010000 		movl	$1, %edx
 3250      00
 3251 1187 4889EF   		movq	%rbp, %rdi
 3252 118a E8000000 		call	_ZSt16__ostream_insertIcSt11char_traitsIcEERSt13basic_ostreamIT_T0_ES6_PKS3_l@PLT
 3252      00
 3253 118f 4889EF   		movq	%rbp, %rdi
 3254 1192 E8000000 		call	_ZNK8UnitTest15MemoryOutStream7GetTextEv@PLT
 3254      00
 3255 1197 488B7C24 		movq	8(%rsp), %rdi
 3255      08
 3256 119c 4889C2   		movq	%rax, %rdx
 3257 119f 4C89FE   		movq	%r15, %rsi
 3258 11a2 E8000000 		call	_ZN8UnitTest11TestResults13OnTestFailureERKNS_11TestDetailsEPKc@PLT
 3258      00
 3259              	.LEHE88:
 3260 11a7 488D0500 		leaq	24+_ZTVN8UnitTest15MemoryOutStreamE(%rip), %rax
 3260      000000
 3261 11ae 488BBC24 		movq	160(%rsp), %rdi
 3261      A0000000 
 3262 11b6 48894424 		movq	%rax, 48(%rsp)
 3262      30
 3263 11bb 4883C028 		addq	$40, %rax
 3264 11bf 48898424 		movq	%rax, 192(%rsp)
 3264      C0000000 
 3265 11c7 488D8580 		leaq	128(%rbp), %rax
 3265      000000
 3266 11ce 4839C7   		cmpq	%rax, %rdi
 3267 11d1 7405     		je	.L253
 3268 11d3 E8000000 		call	_ZdlPv@PLT
 3268      00
 3269              	.L253:
 3270 11d8 488D0500 		leaq	64+_ZTCN8UnitTest15MemoryOutStreamE0_NSt7__cxx1119basic_ostringstreamIcSt11char_traitsIcESaIc
 3270      000000
 3271 11df 488BBC24 		movq	128(%rsp), %rdi
 3271      80000000 
 3272 11e7 F30F7E05 		movq	.LC24(%rip), %xmm0
 3272      00000000 
 3273 11ef 48898424 		movq	%rax, 192(%rsp)
 3273      C0000000 
 3274 11f7 488D4560 		leaq	96(%rbp), %rax
 3275 11fb 0F160500 		movhps	.LC25(%rip), %xmm0
 3275      000000
 3276 1202 4839C7   		cmpq	%rax, %rdi
 3277 1205 0F294424 		movaps	%xmm0, 48(%rsp)
 3277      30
 3278 120a 7405     		je	.L254
 3279 120c E8000000 		call	_ZdlPv@PLT
 3279      00
 3280              	.L254:
 3281 1211 488D0500 		leaq	16+_ZTVSt15basic_streambufIcSt11char_traitsIcEE(%rip), %rax
 3281      000000
 3282 1218 488D7D40 		leaq	64(%rbp), %rdi
 3283 121c 48894424 		movq	%rax, 56(%rsp)
 3283      38
 3284 1221 E8000000 		call	_ZNSt6localeD1Ev@PLT
 3284      00
 3285 1226 488D0500 		leaq	24+_ZTCN8UnitTest15MemoryOutStreamE0_So(%rip), %rax
 3285      000000
 3286 122d 488DBD90 		leaq	144(%rbp), %rdi
 3286      000000
 3287 1234 48894424 		movq	%rax, 48(%rsp)
 3287      30
 3288 1239 488D0500 		leaq	16+_ZTVSt9basic_iosIcSt11char_traitsIcEE(%rip), %rax
 3288      000000
 3289 1240 48898424 		movq	%rax, 192(%rsp)
 3289      C0000000 
 3290              	.LEHB89:
 3291 1248 E8000000 		call	_ZNSt8ios_baseD2Ev@PLT
 3291      00
 3292              	.LEHE89:
 3293 124d E9E3FCFF 		jmp	.L256
 3293      FF
 3294              	.L280:
 3295 1252 E8000000 		call	__stack_chk_fail@PLT
 3295      00
 3296              	.L262:
 3297 1257 4889C3   		movq	%rax, %rbx
 3298              	.L251:
 3299 125a 4889DF   		movq	%rbx, %rdi
 3300 125d E8000000 		call	__cxa_begin_catch@PLT
 3300      00
 3301              	.LEHB90:
 3302 1262 E8000000 		call	_ZN8UnitTest11CurrentTest7ResultsEv@PLT
 3302      00
 3303 1267 488B18   		movq	(%rax), %rbx
 3304 126a E8000000 		call	_ZN8UnitTest11CurrentTest7DetailsEv@PLT
 3304      00
 3305 126f 4C8D7C24 		leaq	16(%rsp), %r15
 3305      10
 3306 1274 488B30   		movq	(%rax), %rsi
 3307 1277 BA380000 		movl	$56, %edx
 3307      00
 3308 127c 4C89FF   		movq	%r15, %rdi
 3309 127f E8000000 		call	_ZN8UnitTest11TestDetailsC1ERKS0_i@PLT
 3309      00
 3310 1284 488D1500 		leaq	.LC23(%rip), %rdx
 3310      000000
 3311 128b 4C89FE   		movq	%r15, %rsi
 3312 128e 4889DF   		movq	%rbx, %rdi
 3313 1291 E8000000 		call	_ZN8UnitTest11TestResults13OnTestFailureERKNS_11TestDetailsEPKc@PLT
 3313      00
 3314              	.LEHE90:
 3315              	.LEHB91:
 3316 1296 E8000000 		call	__cxa_end_catch@PLT
 3316      00
 3317              	.LEHE91:
 3318 129b E995FCFF 		jmp	.L256
 3318      FF
 3319              	.L266:
 3320 12a0 4889C3   		movq	%rax, %rbx
 3321              	.L249:
 3322 12a3 488D0500 		leaq	16+_ZTVSt9basic_iosIcSt11char_traitsIcEE(%rip), %rax
 3322      000000
 3323 12aa 488DBD90 		leaq	144(%rbp), %rdi
 3323      000000
 3324 12b1 48898424 		movq	%rax, 192(%rsp)
 3324      C0000000 
 3325 12b9 E8000000 		call	_ZNSt8ios_baseD2Ev@PLT
 3325      00
 3326 12be EB9A     		jmp	.L251
 3327              	.L263:
 3328 12c0 4889C3   		movq	%rax, %rbx
 3329              	.L258:
 3330 12c3 4C89F7   		movq	%r14, %rdi
 3331 12c6 E8000000 		call	_ZdlPv@PLT
 3331      00
 3332 12cb 4889DF   		movq	%rbx, %rdi
 3333              	.LEHB92:
 3334 12ce E8000000 		call	_Unwind_Resume@PLT
 3334      00
 3335              	.LEHE92:
 3336              	.L264:
 3337 12d3 4889C3   		movq	%rax, %rbx
 3338 12d6 E8000000 		call	__cxa_end_catch@PLT
 3338      00
 3339 12db EBE6     		jmp	.L258
 3340              	.L267:
 3341 12dd 488D7D08 		leaq	8(%rbp), %rdi
 3342 12e1 4889C3   		movq	%rax, %rbx
 3343 12e4 E8000000 		call	_ZNSt7__cxx1115basic_stringbufIcSt11char_traitsIcESaIcEED1Ev
 3343      00
 3344 12e9 488D0500 		leaq	24+_ZTCN8UnitTest15MemoryOutStreamE0_So(%rip), %rax
 3344      000000
 3345 12f0 48894424 		movq	%rax, 48(%rsp)
 3345      30
 3346 12f5 EBAC     		jmp	.L249
 3347              	.L265:
 3348 12f7 4889EF   		movq	%rbp, %rdi
 3349 12fa 4889C3   		movq	%rax, %rbx
 3350 12fd E8000000 		call	_ZN8UnitTest15MemoryOutStreamD1Ev
 3350      00
 3351 1302 E953FFFF 		jmp	.L251
 3351      FF
 3352              		.cfi_endproc
 3353              	.LFE1418:
 3354              		.section	.gcc_except_table
 3355              		.align 4
 3356              	.LLSDA1418:
 3357 0270 FF       		.byte	0xff
 3358 0271 9B       		.byte	0x9b
 3359 0272 3D       		.uleb128 .LLSDATT1418-.LLSDATTD1418
 3360              	.LLSDATTD1418:
 3361 0273 01       		.byte	0x1
 3362 0274 33       		.uleb128 .LLSDACSE1418-.LLSDACSB1418
 3363              	.LLSDACSB1418:
 3364 0275 29       		.uleb128 .LEHB84-.LFB1418
 3365 0276 05       		.uleb128 .LEHE84-.LEHB84
 3366 0277 00       		.uleb128 0
 3367 0278 00       		.uleb128 0
 3368 0279 4C       		.uleb128 .LEHB85-.LFB1418
 3369 027a 1F       		.uleb128 .LEHE85-.LEHB85
 3370 027b E707     		.uleb128 .L262-.LFB1418
 3371 027d 01       		.uleb128 0x1
 3372 027e 8503     		.uleb128 .LEHB86-.LFB1418
 3373 0280 05       		.uleb128 .LEHE86-.LEHB86
 3374 0281 B008     		.uleb128 .L266-.LFB1418
 3375 0283 01       		.uleb128 0x1
 3376 0284 8E04     		.uleb128 .LEHB87-.LFB1418
 3377 0286 05       		.uleb128 .LEHE87-.LEHB87
 3378 0287 ED08     		.uleb128 .L267-.LFB1418
 3379 0289 01       		.uleb128 0x1
 3380 028a DD04     		.uleb128 .LEHB88-.LFB1418
 3381 028c DA01     		.uleb128 .LEHE88-.LEHB88
 3382 028e 8709     		.uleb128 .L265-.LFB1418
 3383 0290 01       		.uleb128 0x1
 3384 0291 D807     		.uleb128 .LEHB89-.LFB1418
 3385 0293 05       		.uleb128 .LEHE89-.LEHB89
 3386 0294 E707     		.uleb128 .L262-.LFB1418
 3387 0296 01       		.uleb128 0x1
 3388 0297 F207     		.uleb128 .LEHB90-.LFB1418
 3389 0299 34       		.uleb128 .LEHE90-.LEHB90
 3390 029a E308     		.uleb128 .L264-.LFB1418
 3391 029c 00       		.uleb128 0
 3392 029d A608     		.uleb128 .LEHB91-.LFB1418
 3393 029f 05       		.uleb128 .LEHE91-.LEHB91
 3394 02a0 D008     		.uleb128 .L263-.LFB1418
 3395 02a2 00       		.uleb128 0
 3396 02a3 DE08     		.uleb128 .LEHB92-.LFB1418
 3397 02a5 05       		.uleb128 .LEHE92-.LEHB92
 3398 02a6 00       		.uleb128 0
 3399 02a7 00       		.uleb128 0
 3400              	.LLSDACSE1418:
 3401 02a8 01       		.byte	0x1
 3402 02a9 00       		.byte	0
 3403 02aa 0000     		.align 4
 3404 02ac 00000000 		.long	0
 3405              	
 3406              	.LLSDATT1418:
 3407              		.text
 3409              		.section	.rodata.str1.8
 3410 0247 00       		.align 8
 3411              	.LC26:
 3412 0248 556E6861 		.string	"Unhandled exception in CHECK_EQUAL(x, y)"
 3412      6E646C65 
 3412      64206578 
 3412      63657074 
 3412      696F6E20 
 3413              		.text
 3414 1307 90       		.align 2
 3415 1308 0F1F8400 		.p2align 4,,15
 3415      00000000 
 3417              	_ZNK12_GLOBAL__N_127TestValidCheckEqualSucceeds7RunImplEv:
 3418              	.LFB1402:
 3419              		.cfi_startproc
 3420              		.cfi_personality 0x9b,DW.ref.__gxx_personality_v0
 3421              		.cfi_lsda 0x1b,.LLSDA1402
 3422 1310 55       		pushq	%rbp
 3423              		.cfi_def_cfa_offset 16
 3424              		.cfi_offset 6, -16
 3425 1311 53       		pushq	%rbx
 3426              		.cfi_def_cfa_offset 24
 3427              		.cfi_offset 3, -24
 3428 1312 4883EC38 		subq	$56, %rsp
 3429              		.cfi_def_cfa_offset 80
 3430 1316 64488B04 		movq	%fs:40, %rax
 3430      25280000 
 3430      00
 3431 131f 48894424 		movq	%rax, 40(%rsp)
 3431      28
 3432 1324 31C0     		xorl	%eax, %eax
 3433              	.LEHB93:
 3434 1326 E8000000 		call	_ZN8UnitTest11CurrentTest7DetailsEv@PLT
 3434      00
 3435 132b 488B30   		movq	(%rax), %rsi
 3436 132e 4889E7   		movq	%rsp, %rdi
 3437 1331 BA1C0000 		movl	$28, %edx
 3437      00
 3438 1336 E8000000 		call	_ZN8UnitTest11TestDetailsC1ERKS0_i@PLT
 3438      00
 3439 133b E8000000 		call	_ZN8UnitTest11CurrentTest7ResultsEv@PLT
 3439      00
 3440              	.LEHE93:
 3441              	.L281:
 3442 1340 488B4424 		movq	40(%rsp), %rax
 3442      28
 3443 1345 64483304 		xorq	%fs:40, %rax
 3443      25280000 
 3443      00
 3444 134e 7507     		jne	.L289
 3445 1350 4883C438 		addq	$56, %rsp
 3446              		.cfi_remember_state
 3447              		.cfi_def_cfa_offset 24
 3448 1354 5B       		popq	%rbx
 3449              		.cfi_def_cfa_offset 16
 3450 1355 5D       		popq	%rbp
 3451              		.cfi_def_cfa_offset 8
 3452 1356 C3       		ret
 3453              	.L289:
 3454              		.cfi_restore_state
 3455 1357 E8000000 		call	__stack_chk_fail@PLT
 3455      00
 3456              	.L286:
 3457 135c 4889C7   		movq	%rax, %rdi
 3458 135f E8000000 		call	__cxa_begin_catch@PLT
 3458      00
 3459              	.LEHB94:
 3460 1364 E8000000 		call	_ZN8UnitTest11CurrentTest7ResultsEv@PLT
 3460      00
 3461 1369 488B28   		movq	(%rax), %rbp
 3462 136c E8000000 		call	_ZN8UnitTest11CurrentTest7DetailsEv@PLT
 3462      00
 3463 1371 488B30   		movq	(%rax), %rsi
 3464 1374 4889E3   		movq	%rsp, %rbx
 3465 1377 BA1C0000 		movl	$28, %edx
 3465      00
 3466 137c 4889DF   		movq	%rbx, %rdi
 3467 137f E8000000 		call	_ZN8UnitTest11TestDetailsC1ERKS0_i@PLT
 3467      00
 3468 1384 488D1500 		leaq	.LC26(%rip), %rdx
 3468      000000
 3469 138b 4889DE   		movq	%rbx, %rsi
 3470 138e 4889EF   		movq	%rbp, %rdi
 3471 1391 E8000000 		call	_ZN8UnitTest11TestResults13OnTestFailureERKNS_11TestDetailsEPKc@PLT
 3471      00
 3472              	.LEHE94:
 3473              	.LEHB95:
 3474 1396 E8000000 		call	__cxa_end_catch@PLT
 3474      00
 3475              	.LEHE95:
 3476 139b EBA3     		jmp	.L281
 3477              	.L287:
 3478 139d 4889C3   		movq	%rax, %rbx
 3479 13a0 E8000000 		call	__cxa_end_catch@PLT
 3479      00
 3480 13a5 4889DF   		movq	%rbx, %rdi
 3481              	.LEHB96:
 3482 13a8 E8000000 		call	_Unwind_Resume@PLT
 3482      00
 3483              	.LEHE96:
 3484              		.cfi_endproc
 3485              	.LFE1402:
 3486              		.section	.gcc_except_table
 3487              		.align 4
 3488              	.LLSDA1402:
 3489 02b0 FF       		.byte	0xff
 3490 02b1 9B       		.byte	0x9b
 3491 02b2 1D       		.uleb128 .LLSDATT1402-.LLSDATTD1402
 3492              	.LLSDATTD1402:
 3493 02b3 01       		.byte	0x1
 3494 02b4 13       		.uleb128 .LLSDACSE1402-.LLSDACSB1402
 3495              	.LLSDACSB1402:
 3496 02b5 16       		.uleb128 .LEHB93-.LFB1402
 3497 02b6 1A       		.uleb128 .LEHE93-.LEHB93
 3498 02b7 4C       		.uleb128 .L286-.LFB1402
 3499 02b8 01       		.uleb128 0x1
 3500 02b9 54       		.uleb128 .LEHB94-.LFB1402
 3501 02ba 32       		.uleb128 .LEHE94-.LEHB94
 3502 02bb 8D01     		.uleb128 .L287-.LFB1402
 3503 02bd 00       		.uleb128 0
 3504 02be 8601     		.uleb128 .LEHB95-.LFB1402
 3505 02c0 05       		.uleb128 .LEHE95-.LEHB95
 3506 02c1 00       		.uleb128 0
 3507 02c2 00       		.uleb128 0
 3508 02c3 9801     		.uleb128 .LEHB96-.LFB1402
 3509 02c5 05       		.uleb128 .LEHE96-.LEHB96
 3510 02c6 00       		.uleb128 0
 3511 02c7 00       		.uleb128 0
 3512              	.LLSDACSE1402:
 3513 02c8 01       		.byte	0x1
 3514 02c9 00       		.byte	0
 3515 02ca 0000     		.align 4
 3516 02cc 00000000 		.long	0
 3517              	
 3518              	.LLSDATT1402:
 3519              		.text
 3521              		.section	.text._ZNSt7__cxx1115basic_stringbufIcSt11char_traitsIcESaIcEED0Ev,"axG",@progbits,_ZNSt7
 3522              		.align 2
 3523              		.p2align 4,,15
 3524              		.weak	_ZNSt7__cxx1115basic_stringbufIcSt11char_traitsIcESaIcEED0Ev
 3526              	_ZNSt7__cxx1115basic_stringbufIcSt11char_traitsIcESaIcEED0Ev:
 3527              	.LFB1488:
 3528              		.cfi_startproc
 3529 0000 488D0500 		leaq	16+_ZTVNSt7__cxx1115basic_stringbufIcSt11char_traitsIcESaIcEEE(%rip), %rax
 3529      000000
 3530 0007 53       		pushq	%rbx
 3531              		.cfi_def_cfa_offset 16
 3532              		.cfi_offset 3, -16
 3533 0008 4889FB   		movq	%rdi, %rbx
 3534 000b 488907   		movq	%rax, (%rdi)
 3535 000e 488B7F48 		movq	72(%rdi), %rdi
 3536 0012 488D4358 		leaq	88(%rbx), %rax
 3537 0016 4839C7   		cmpq	%rax, %rdi
 3538 0019 7405     		je	.L291
 3539 001b E8000000 		call	_ZdlPv@PLT
 3539      00
 3540              	.L291:
 3541 0020 488D0500 		leaq	16+_ZTVSt15basic_streambufIcSt11char_traitsIcEE(%rip), %rax
 3541      000000
 3542 0027 488D7B38 		leaq	56(%rbx), %rdi
 3543 002b 488903   		movq	%rax, (%rbx)
 3544 002e E8000000 		call	_ZNSt6localeD1Ev@PLT
 3544      00
 3545 0033 4889DF   		movq	%rbx, %rdi
 3546 0036 5B       		popq	%rbx
 3547              		.cfi_def_cfa_offset 8
 3548 0037 E9000000 		jmp	_ZdlPv@PLT
 3548      00
 3549              		.cfi_endproc
 3550              	.LFE1488:
 3552              		.section	.rodata._ZN8UnitTest10CheckEqualIiiEEvRNS_11TestResultsERKT_RKT0_RKNS_11TestDetailsE.str1
 3553              	.LC27:
 3554 0000 45787065 		.string	"Expected "
 3554      63746564 
 3554      2000
 3555              	.LC28:
 3556 000a 20627574 		.string	" but was "
 3556      20776173 
 3556      2000
 3557              		.section	.text._ZN8UnitTest10CheckEqualIiiEEvRNS_11TestResultsERKT_RKT0_RKNS_11TestDetailsE,"axG",
 3558              		.p2align 4,,15
 3559              		.weak	_ZN8UnitTest10CheckEqualIiiEEvRNS_11TestResultsERKT_RKT0_RKNS_11TestDetailsE
 3561              	_ZN8UnitTest10CheckEqualIiiEEvRNS_11TestResultsERKT_RKT0_RKNS_11TestDetailsE:
 3562              	.LFB1507:
 3563              		.cfi_startproc
 3564              		.cfi_personality 0x9b,DW.ref.__gxx_personality_v0
 3565              		.cfi_lsda 0x1b,.LLSDA1507
 3566 0000 4157     		pushq	%r15
 3567              		.cfi_def_cfa_offset 16
 3568              		.cfi_offset 15, -16
 3569 0002 4156     		pushq	%r14
 3570              		.cfi_def_cfa_offset 24
 3571              		.cfi_offset 14, -24
 3572 0004 4155     		pushq	%r13
 3573              		.cfi_def_cfa_offset 32
 3574              		.cfi_offset 13, -32
 3575 0006 4154     		pushq	%r12
 3576              		.cfi_def_cfa_offset 40
 3577              		.cfi_offset 12, -40
 3578 0008 55       		pushq	%rbp
 3579              		.cfi_def_cfa_offset 48
 3580              		.cfi_offset 6, -48
 3581 0009 53       		pushq	%rbx
 3582              		.cfi_def_cfa_offset 56
 3583              		.cfi_offset 3, -56
 3584 000a 4881ECB8 		subq	$440, %rsp
 3584      010000
 3585              		.cfi_def_cfa_offset 496
 3586 0011 64488B04 		movq	%fs:40, %rax
 3586      25280000 
 3586      00
 3587 001a 48898424 		movq	%rax, 424(%rsp)
 3587      A8010000 
 3588 0022 31C0     		xorl	%eax, %eax
 3589 0024 8B02     		movl	(%rdx), %eax
 3590 0026 3906     		cmpl	%eax, (%rsi)
 3591 0028 48893C24 		movq	%rdi, (%rsp)
 3592 002c 48894C24 		movq	%rcx, 8(%rsp)
 3592      08
 3593 0031 0F842F02 		je	.L293
 3593      0000
 3594 0037 488D5C24 		leaq	16(%rsp), %rbx
 3594      10
 3595 003c 4C8D2D00 		leaq	24+_ZTCN8UnitTest15MemoryOutStreamE0_So(%rip), %r13
 3595      000000
 3596 0043 4989F4   		movq	%rsi, %r12
 3597 0046 4889D5   		movq	%rdx, %rbp
 3598 0049 4C8DB390 		leaq	144(%rbx), %r14
 3598      000000
 3599 0050 4C89F7   		movq	%r14, %rdi
 3600 0053 E8000000 		call	_ZNSt8ios_baseC2Ev@PLT
 3600      00
 3601 0058 498D4528 		leaq	40(%r13), %rax
 3602 005c 31F6     		xorl	%esi, %esi
 3603 005e 4C89F7   		movq	%r14, %rdi
 3604 0061 48C78424 		movq	$0, 376(%rsp)
 3604      78010000 
 3604      00000000 
 3605 006d C6842480 		movb	$0, 384(%rsp)
 3605      01000000 
 3606 0075 C6842481 		movb	$0, 385(%rsp)
 3606      01000000 
 3607 007d 48C78424 		movq	$0, 392(%rsp)
 3607      88010000 
 3607      00000000 
 3608 0089 48C78424 		movq	$0, 400(%rsp)
 3608      90010000 
 3608      00000000 
 3609 0095 48C78424 		movq	$0, 408(%rsp)
 3609      98010000 
 3609      00000000 
 3610 00a1 48C78424 		movq	$0, 416(%rsp)
 3610      A0010000 
 3610      00000000 
 3611 00ad 4C896C24 		movq	%r13, 16(%rsp)
 3611      10
 3612 00b2 48898424 		movq	%rax, 160(%rsp)
 3612      A0000000 
 3613              	.LEHB97:
 3614 00ba E8000000 		call	_ZNSt9basic_iosIcSt11char_traitsIcEE4initEPSt15basic_streambufIcS1_E@PLT
 3614      00
 3615              	.LEHE97:
 3616 00bf 488D0500 		leaq	24+_ZTCN8UnitTest15MemoryOutStreamE0_NSt7__cxx1119basic_ostringstreamIcSt11char_traitsIcESaIc
 3616      000000
 3617 00c6 660FEFC0 		pxor	%xmm0, %xmm0
 3618 00ca 488D7B40 		leaq	64(%rbx), %rdi
 3619 00ce 48894424 		movq	%rax, 16(%rsp)
 3619      10
 3620 00d3 4883C028 		addq	$40, %rax
 3621 00d7 48898424 		movq	%rax, 160(%rsp)
 3621      A0000000 
 3622 00df 488D0500 		leaq	16+_ZTVSt15basic_streambufIcSt11char_traitsIcEE(%rip), %rax
 3622      000000
 3623 00e6 0F294424 		movaps	%xmm0, 32(%rsp)
 3623      20
 3624 00eb 48894424 		movq	%rax, 24(%rsp)
 3624      18
 3625 00f0 0F294424 		movaps	%xmm0, 48(%rsp)
 3625      30
 3626 00f5 0F294424 		movaps	%xmm0, 64(%rsp)
 3626      40
 3627 00fa E8000000 		call	_ZNSt6localeC1Ev@PLT
 3627      00
 3628 00ff 488D0500 		leaq	16+_ZTVNSt7__cxx1115basic_stringbufIcSt11char_traitsIcESaIcEEE(%rip), %rax
 3628      000000
 3629 0106 488D7308 		leaq	8(%rbx), %rsi
 3630 010a 48894424 		movq	%rax, 24(%rsp)
 3630      18
 3631 010f 488D4360 		leaq	96(%rbx), %rax
 3632 0113 C7442458 		movl	$16, 88(%rsp)
 3632      10000000 
 3633 011b 48C74424 		movq	$0, 104(%rsp)
 3633      68000000 
 3633      00
 3634 0124 C6442470 		movb	$0, 112(%rsp)
 3634      00
 3635 0129 48894424 		movq	%rax, 96(%rsp)
 3635      60
 3636 012e 488B4424 		movq	16(%rsp), %rax
 3636      10
 3637 0133 488B78E8 		movq	-24(%rax), %rdi
 3638 0137 4801DF   		addq	%rbx, %rdi
 3639              	.LEHB98:
 3640 013a E8000000 		call	_ZNSt9basic_iosIcSt11char_traitsIcEE4initEPSt15basic_streambufIcS1_E@PLT
 3640      00
 3641              	.LEHE98:
 3642 013f 4C8D3D00 		leaq	24+_ZTVN8UnitTest15MemoryOutStreamE(%rip), %r15
 3642      000000
 3643 0146 488D8380 		leaq	128(%rbx), %rax
 3643      000000
 3644 014d 488D3500 		leaq	.LC27(%rip), %rsi
 3644      000000
 3645 0154 BA090000 		movl	$9, %edx
 3645      00
 3646 0159 4889DF   		movq	%rbx, %rdi
 3647 015c 48C78424 		movq	$0, 136(%rsp)
 3647      88000000 
 3647      00000000 
 3648 0168 4D8D7728 		leaq	40(%r15), %r14
 3649 016c 4C897C24 		movq	%r15, 16(%rsp)
 3649      10
 3650 0171 48898424 		movq	%rax, 128(%rsp)
 3650      80000000 
 3651 0179 C6842490 		movb	$0, 144(%rsp)
 3651      00000000 
 3652 0181 4C89B424 		movq	%r14, 160(%rsp)
 3652      A0000000 
 3653              	.LEHB99:
 3654 0189 E8000000 		call	_ZSt16__ostream_insertIcSt11char_traitsIcEERSt13basic_ostreamIT_T0_ES6_PKS3_l@PLT
 3654      00
 3655 018e 418B3424 		movl	(%r12), %esi
 3656 0192 4889DF   		movq	%rbx, %rdi
 3657 0195 E8000000 		call	_ZNSolsEi@PLT
 3657      00
 3658 019a 488D3500 		leaq	.LC28(%rip), %rsi
 3658      000000
 3659 01a1 BA090000 		movl	$9, %edx
 3659      00
 3660 01a6 4889C7   		movq	%rax, %rdi
 3661 01a9 4989C4   		movq	%rax, %r12
 3662 01ac E8000000 		call	_ZSt16__ostream_insertIcSt11char_traitsIcEERSt13basic_ostreamIT_T0_ES6_PKS3_l@PLT
 3662      00
 3663 01b1 8B7500   		movl	0(%rbp), %esi
 3664 01b4 4C89E7   		movq	%r12, %rdi
 3665 01b7 E8000000 		call	_ZNSolsEi@PLT
 3665      00
 3666 01bc 4889DF   		movq	%rbx, %rdi
 3667 01bf E8000000 		call	_ZNK8UnitTest15MemoryOutStream7GetTextEv@PLT
 3667      00
 3668 01c4 488B7424 		movq	8(%rsp), %rsi
 3668      08
 3669 01c9 488B3C24 		movq	(%rsp), %rdi
 3670 01cd 4889C2   		movq	%rax, %rdx
 3671 01d0 E8000000 		call	_ZN8UnitTest11TestResults13OnTestFailureERKNS_11TestDetailsEPKc@PLT
 3671      00
 3672              	.LEHE99:
 3673 01d5 488BBC24 		movq	128(%rsp), %rdi
 3673      80000000 
 3674 01dd 488D8380 		leaq	128(%rbx), %rax
 3674      000000
 3675 01e4 4C897C24 		movq	%r15, 16(%rsp)
 3675      10
 3676 01e9 4C89B424 		movq	%r14, 160(%rsp)
 3676      A0000000 
 3677 01f1 4839C7   		cmpq	%rax, %rdi
 3678 01f4 7405     		je	.L299
 3679 01f6 E8000000 		call	_ZdlPv@PLT
 3679      00
 3680              	.L299:
 3681 01fb 488D0500 		leaq	64+_ZTCN8UnitTest15MemoryOutStreamE0_NSt7__cxx1119basic_ostringstreamIcSt11char_traitsIcESaIc
 3681      000000
 3682 0202 488B7C24 		movq	96(%rsp), %rdi
 3682      60
 3683 0207 F30F7E05 		movq	.LC24(%rip), %xmm0
 3683      00000000 
 3684 020f 48898424 		movq	%rax, 160(%rsp)
 3684      A0000000 
 3685 0217 488D4360 		leaq	96(%rbx), %rax
 3686 021b 0F160500 		movhps	.LC25(%rip), %xmm0
 3686      000000
 3687 0222 4839C7   		cmpq	%rax, %rdi
 3688 0225 0F294424 		movaps	%xmm0, 16(%rsp)
 3688      10
 3689 022a 7405     		je	.L300
 3690 022c E8000000 		call	_ZdlPv@PLT
 3690      00
 3691              	.L300:
 3692 0231 488D0500 		leaq	16+_ZTVSt15basic_streambufIcSt11char_traitsIcEE(%rip), %rax
 3692      000000
 3693 0238 488D7B40 		leaq	64(%rbx), %rdi
 3694 023c 48894424 		movq	%rax, 24(%rsp)
 3694      18
 3695 0241 E8000000 		call	_ZNSt6localeD1Ev@PLT
 3695      00
 3696 0246 488D0500 		leaq	16+_ZTVSt9basic_iosIcSt11char_traitsIcEE(%rip), %rax
 3696      000000
 3697 024d 488DBB90 		leaq	144(%rbx), %rdi
 3697      000000
 3698 0254 4C896C24 		movq	%r13, 16(%rsp)
 3698      10
 3699 0259 48898424 		movq	%rax, 160(%rsp)
 3699      A0000000 
 3700              	.LEHB100:
 3701 0261 E8000000 		call	_ZNSt8ios_baseD2Ev@PLT
 3701      00
 3702              	.LEHE100:
 3703              	.L293:
 3704 0266 488B8424 		movq	424(%rsp), %rax
 3704      A8010000 
 3705 026e 64483304 		xorq	%fs:40, %rax
 3705      25280000 
 3705      00
 3706 0277 7512     		jne	.L309
 3707 0279 4881C4B8 		addq	$440, %rsp
 3707      010000
 3708              		.cfi_remember_state
 3709              		.cfi_def_cfa_offset 56
 3710 0280 5B       		popq	%rbx
 3711              		.cfi_def_cfa_offset 48
 3712 0281 5D       		popq	%rbp
 3713              		.cfi_def_cfa_offset 40
 3714 0282 415C     		popq	%r12
 3715              		.cfi_def_cfa_offset 32
 3716 0284 415D     		popq	%r13
 3717              		.cfi_def_cfa_offset 24
 3718 0286 415E     		popq	%r14
 3719              		.cfi_def_cfa_offset 16
 3720 0288 415F     		popq	%r15
 3721              		.cfi_def_cfa_offset 8
 3722 028a C3       		ret
 3723              	.L309:
 3724              		.cfi_restore_state
 3725 028b E8000000 		call	__stack_chk_fail@PLT
 3725      00
 3726              	.L304:
 3727 0290 4889C5   		movq	%rax, %rbp
 3728              	.L297:
 3729 0293 488D0500 		leaq	16+_ZTVSt9basic_iosIcSt11char_traitsIcEE(%rip), %rax
 3729      000000
 3730 029a 488DBB90 		leaq	144(%rbx), %rdi
 3730      000000
 3731 02a1 48898424 		movq	%rax, 160(%rsp)
 3731      A0000000 
 3732 02a9 E8000000 		call	_ZNSt8ios_baseD2Ev@PLT
 3732      00
 3733 02ae 4889EF   		movq	%rbp, %rdi
 3734              	.LEHB101:
 3735 02b1 E8000000 		call	_Unwind_Resume@PLT
 3735      00
 3736              	.LEHE101:
 3737              	.L303:
 3738 02b6 4889C5   		movq	%rax, %rbp
 3739 02b9 4889DF   		movq	%rbx, %rdi
 3740 02bc E8000000 		call	_ZN8UnitTest15MemoryOutStreamD1Ev
 3740      00
 3741 02c1 4889EF   		movq	%rbp, %rdi
 3742              	.LEHB102:
 3743 02c4 E8000000 		call	_Unwind_Resume@PLT
 3743      00
 3744              	.LEHE102:
 3745              	.L305:
 3746 02c9 488D7B08 		leaq	8(%rbx), %rdi
 3747 02cd 4889C5   		movq	%rax, %rbp
 3748 02d0 E8000000 		call	_ZNSt7__cxx1115basic_stringbufIcSt11char_traitsIcESaIcEED1Ev
 3748      00
 3749 02d5 4C896C24 		movq	%r13, 16(%rsp)
 3749      10
 3750 02da EBB7     		jmp	.L297
 3751              		.cfi_endproc
 3752              	.LFE1507:
 3753              		.section	.gcc_except_table
 3754              	.LLSDA1507:
 3755 02d0 FF       		.byte	0xff
 3756 02d1 FF       		.byte	0xff
 3757 02d2 01       		.byte	0x1
 3758 02d3 21       		.uleb128 .LLSDACSE1507-.LLSDACSB1507
 3759              	.LLSDACSB1507:
 3760 02d4 BA01     		.uleb128 .LEHB97-.LFB1507
 3761 02d6 05       		.uleb128 .LEHE97-.LEHB97
 3762 02d7 9005     		.uleb128 .L304-.LFB1507
 3763 02d9 00       		.uleb128 0
 3764 02da BA02     		.uleb128 .LEHB98-.LFB1507
 3765 02dc 05       		.uleb128 .LEHE98-.LEHB98
 3766 02dd C905     		.uleb128 .L305-.LFB1507
 3767 02df 00       		.uleb128 0
 3768 02e0 8903     		.uleb128 .LEHB99-.LFB1507
 3769 02e2 4C       		.uleb128 .LEHE99-.LEHB99
 3770 02e3 B605     		.uleb128 .L303-.LFB1507
 3771 02e5 00       		.uleb128 0
 3772 02e6 E104     		.uleb128 .LEHB100-.LFB1507
 3773 02e8 05       		.uleb128 .LEHE100-.LEHB100
 3774 02e9 00       		.uleb128 0
 3775 02ea 00       		.uleb128 0
 3776 02eb B105     		.uleb128 .LEHB101-.LFB1507
 3777 02ed 05       		.uleb128 .LEHE101-.LEHB101
 3778 02ee 00       		.uleb128 0
 3779 02ef 00       		.uleb128 0
 3780 02f0 C405     		.uleb128 .LEHB102-.LFB1507
 3781 02f2 05       		.uleb128 .LEHE102-.LEHB102
 3782 02f3 00       		.uleb128 0
 3783 02f4 00       		.uleb128 0
 3784              	.LLSDACSE1507:
 3785              		.section	.text._ZN8UnitTest10CheckEqualIiiEEvRNS_11TestResultsERKT_RKT0_RKNS_11TestDetailsE,"axG",
 3787              		.section	.rodata.str1.8
 3788 0271 00000000 		.align 8
 3788      000000
 3789              	.LC29:
 3790 0278 556E6861 		.string	"Unhandled exception in CHECK_EQUAL(1, SimpleFixture::instanceCount)"
 3790      6E646C65 
 3790      64206578 
 3790      63657074 
 3790      696F6E20 
 3791              		.text
 3792 13ad 0F1F00   		.p2align 4,,15
 3794              	_ZN8UnitTest11ExecuteTestIN12_GLOBAL__N_145SimpleFixtureOnlyOneFixtureAliveAtATimeHelperEEEvRT_RKNS
 3795              	.LFB1725:
 3796              		.cfi_startproc
 3797              		.cfi_personality 0x9b,DW.ref.__gxx_personality_v0
 3798              		.cfi_lsda 0x1b,.LLSDA1725
 3799 13b0 4155     		pushq	%r13
 3800              		.cfi_def_cfa_offset 16
 3801              		.cfi_offset 13, -16
 3802 13b2 4154     		pushq	%r12
 3803              		.cfi_def_cfa_offset 24
 3804              		.cfi_offset 12, -24
 3805 13b4 55       		pushq	%rbp
 3806              		.cfi_def_cfa_offset 32
 3807              		.cfi_offset 6, -32
 3808 13b5 53       		pushq	%rbx
 3809              		.cfi_def_cfa_offset 40
 3810              		.cfi_offset 3, -40
 3811 13b6 4889FB   		movq	%rdi, %rbx
 3812 13b9 4881EC98 		subq	$1688, %rsp
 3812      060000
 3813              		.cfi_def_cfa_offset 1728
 3814 13c0 48897C24 		movq	%rdi, 8(%rsp)
 3814      08
 3815 13c5 64488B04 		movq	%fs:40, %rax
 3815      25280000 
 3815      00
 3816 13ce 48898424 		movq	%rax, 1672(%rsp)
 3816      88060000 
 3817 13d6 31C0     		xorl	%eax, %eax
 3818              	.LEHB103:
 3819 13d8 E8000000 		call	_ZN8UnitTest11CurrentTest7DetailsEv@PLT
 3819      00
 3820              	.LEHE103:
 3821 13dd 488DBC24 		leaq	544(%rsp), %rdi
 3821      20020000 
 3822 13e5 488918   		movq	%rbx, (%rax)
 3823              	.LEHB104:
 3824 13e8 E8000000 		call	_ZN8UnitTest16SignalTranslatorC1Ev@PLT
 3824      00
 3825              	.LEHE104:
 3826 13ed 488B3D00 		movq	_ZN8UnitTest16SignalTranslator12s_jumpTargetE(%rip), %rdi
 3826      000000
 3827 13f4 BE010000 		movl	$1, %esi
 3827      00
 3828 13f9 E8000000 		call	__sigsetjmp@PLT
 3828      00
 3829 13fe 85C0     		testl	%eax, %eax
 3830 1400 7576     		jne	.L340
 3831              	.LEHB105:
 3832 1402 E8000000 		call	_ZN8UnitTest11CurrentTest7DetailsEv@PLT
 3832      00
 3833 1407 488B30   		movq	(%rax), %rsi
 3834 140a 488D7C24 		leaq	64(%rsp), %rdi
 3834      40
 3835 140f BA8F0000 		movl	$143, %edx
 3835      00
 3836 1414 E8000000 		call	_ZN8UnitTest11TestDetailsC1ERKS0_i@PLT
 3836      00
 3837 1419 C744241C 		movl	$1, 28(%rsp)
 3837      01000000 
 3838 1421 E8000000 		call	_ZN8UnitTest11CurrentTest7ResultsEv@PLT
 3838      00
 3839 1426 488B38   		movq	(%rax), %rdi
 3840 1429 488D4C24 		leaq	64(%rsp), %rcx
 3840      40
 3841 142e 488D7424 		leaq	28(%rsp), %rsi
 3841      1C
 3842 1433 488D1500 		leaq	_ZN12_GLOBAL__N_113SimpleFixture13instanceCountE(%rip), %rdx
 3842      000000
 3843 143a E8000000 		call	_ZN8UnitTest10CheckEqualIiiEEvRNS_11TestResultsERKT_RKT0_RKNS_11TestDetailsE
 3843      00
 3844              	.LEHE105:
 3845              	.L313:
 3846 143f 488DBC24 		leaq	544(%rsp), %rdi
 3846      20020000 
 3847              	.LEHB106:
 3848 1447 E8000000 		call	_ZN8UnitTest16SignalTranslatorD1Ev@PLT
 3848      00
 3849              	.LEHE106:
 3850              	.L310:
 3851 144c 488B8424 		movq	1672(%rsp), %rax
 3851      88060000 
 3852 1454 64483304 		xorq	%fs:40, %rax
 3852      25280000 
 3852      00
 3853 145d 0F85EA00 		jne	.L341
 3853      0000
 3854 1463 4881C498 		addq	$1688, %rsp
 3854      060000
 3855              		.cfi_remember_state
 3856              		.cfi_def_cfa_offset 40
 3857 146a 5B       		popq	%rbx
 3858              		.cfi_def_cfa_offset 32
 3859 146b 5D       		popq	%rbp
 3860              		.cfi_def_cfa_offset 24
 3861 146c 415C     		popq	%r12
 3862              		.cfi_def_cfa_offset 16
 3863 146e 415D     		popq	%r13
 3864              		.cfi_def_cfa_offset 8
 3865 1470 C3       		ret
 3866              		.p2align 4,,10
 3867 1471 0F1F8000 		.p2align 3
 3867      000000
 3868              	.L340:
 3869              		.cfi_restore_state
 3870 1478 BF080000 		movl	$8, %edi
 3870      00
 3871 147d E8000000 		call	__cxa_allocate_exception@PLT
 3871      00
 3872 1482 488D0D00 		leaq	.LC6(%rip), %rcx
 3872      000000
 3873 1489 488D3500 		leaq	_ZTIPKc(%rip), %rsi
 3873      000000
 3874 1490 31D2     		xorl	%edx, %edx
 3875 1492 4889C7   		movq	%rax, %rdi
 3876 1495 488908   		movq	%rcx, (%rax)
 3877              	.LEHB107:
 3878 1498 E8000000 		call	__cxa_throw@PLT
 3878      00
 3879              	.LEHE107:
 3880              	.L333:
 3881 149d 4889C5   		movq	%rax, %rbp
 3882 14a0 4889D3   		movq	%rdx, %rbx
 3883              	.L316:
 3884 14a3 488DBC24 		leaq	544(%rsp), %rdi
 3884      20020000 
 3885 14ab E8000000 		call	_ZN8UnitTest16SignalTranslatorD1Ev@PLT
 3885      00
 3886 14b0 4889EF   		movq	%rbp, %rdi
 3887 14b3 4889DA   		movq	%rbx, %rdx
 3888              	.L317:
 3889 14b6 4883FA01 		cmpq	$1, %rdx
 3890 14ba 0F842401 		je	.L319
 3890      0000
 3891 14c0 4883FA02 		cmpq	$2, %rdx
 3892 14c4 0F85F200 		jne	.L342
 3892      0000
 3893 14ca E8000000 		call	__cxa_begin_catch@PLT
 3893      00
 3894 14cf 488DBC24 		leaq	128(%rsp), %rdi
 3894      80000000 
 3895 14d7 4889C3   		movq	%rax, %rbx
 3896              	.LEHB108:
 3897 14da E8000000 		call	_ZN8UnitTest15MemoryOutStreamC1Ev
 3897      00
 3898              	.LEHE108:
 3899 14df 488DBC24 		leaq	128(%rsp), %rdi
 3899      80000000 
 3900 14e7 488D3500 		leaq	.LC9(%rip), %rsi
 3900      000000
 3901 14ee BA150000 		movl	$21, %edx
 3901      00
 3902              	.LEHB109:
 3903 14f3 E8000000 		call	_ZSt16__ostream_insertIcSt11char_traitsIcEERSt13basic_ostreamIT_T0_ES6_PKS3_l@PLT
 3903      00
 3904 14f8 488B03   		movq	(%rbx), %rax
 3905 14fb 4889DF   		movq	%rbx, %rdi
 3906 14fe FF5010   		call	*16(%rax)
 3907 1501 488DBC24 		leaq	128(%rsp), %rdi
 3907      80000000 
 3908 1509 4889C6   		movq	%rax, %rsi
 3909 150c E8000000 		call	_ZStlsISt11char_traitsIcEERSt13basic_ostreamIcT_ES5_PKc@PLT
 3909      00
 3910 1511 E8000000 		call	_ZN8UnitTest11CurrentTest7ResultsEv@PLT
 3910      00
 3911 1516 488DBC24 		leaq	128(%rsp), %rdi
 3911      80000000 
 3912 151e 488B18   		movq	(%rax), %rbx
 3913 1521 E8000000 		call	_ZNK8UnitTest15MemoryOutStream7GetTextEv@PLT
 3913      00
 3914 1526 488B7424 		movq	8(%rsp), %rsi
 3914      08
 3915 152b 4889C2   		movq	%rax, %rdx
 3916 152e 4889DF   		movq	%rbx, %rdi
 3917 1531 E8000000 		call	_ZN8UnitTest11TestResults13OnTestFailureERKNS_11TestDetailsEPKc@PLT
 3917      00
 3918              	.LEHE109:
 3919 1536 488DBC24 		leaq	128(%rsp), %rdi
 3919      80000000 
 3920              	.LEHB110:
 3921 153e E8000000 		call	_ZN8UnitTest15MemoryOutStreamD1Ev
 3921      00
 3922              	.LEHE110:
 3923              	.L338:
 3924 1543 E8000000 		call	__cxa_end_catch@PLT
 3924      00
 3925 1548 E9FFFEFF 		jmp	.L310
 3925      FF
 3926              	.L341:
 3927 154d E8000000 		call	__stack_chk_fail@PLT
 3927      00
 3928              	.L332:
 3929 1552 4889C7   		movq	%rax, %rdi
 3930 1555 E95CFFFF 		jmp	.L317
 3930      FF
 3931              	.L334:
 3932 155a 4889C7   		movq	%rax, %rdi
 3933 155d E8000000 		call	__cxa_begin_catch@PLT
 3933      00
 3934              	.LEHB111:
 3935 1562 E8000000 		call	_ZN8UnitTest11CurrentTest7ResultsEv@PLT
 3935      00
 3936 1567 488B18   		movq	(%rax), %rbx
 3937 156a E8000000 		call	_ZN8UnitTest11CurrentTest7DetailsEv@PLT
 3937      00
 3938 156f 488B30   		movq	(%rax), %rsi
 3939 1572 488D7C24 		leaq	96(%rsp), %rdi
 3939      60
 3940 1577 BA8F0000 		movl	$143, %edx
 3940      00
 3941 157c E8000000 		call	_ZN8UnitTest11TestDetailsC1ERKS0_i@PLT
 3941      00
 3942 1581 488D7424 		leaq	96(%rsp), %rsi
 3942      60
 3943 1586 488D1500 		leaq	.LC29(%rip), %rdx
 3943      000000
 3944 158d 4889DF   		movq	%rbx, %rdi
 3945 1590 E8000000 		call	_ZN8UnitTest11TestResults13OnTestFailureERKNS_11TestDetailsEPKc@PLT
 3945      00
 3946              	.LEHE111:
 3947              	.LEHB112:
 3948 1595 E8000000 		call	__cxa_end_catch@PLT
 3948      00
 3949              	.LEHE112:
 3950 159a E9A0FEFF 		jmp	.L313
 3950      FF
 3951              	.L330:
 3952 159f 488DBC24 		leaq	128(%rsp), %rdi
 3952      80000000 
 3953 15a7 4889C3   		movq	%rax, %rbx
 3954 15aa E8000000 		call	_ZN8UnitTest15MemoryOutStreamD1Ev
 3954      00
 3955              	.L325:
 3956 15af E8000000 		call	__cxa_end_catch@PLT
 3956      00
 3957 15b4 4889DF   		movq	%rbx, %rdi
 3958              	.LEHB113:
 3959 15b7 E8000000 		call	_Unwind_Resume@PLT
 3959      00
 3960              	.LEHE113:
 3961              	.L342:
 3962 15bc E8000000 		call	__cxa_begin_catch@PLT
 3962      00
 3963              	.LEHB114:
 3964 15c1 E8000000 		call	_ZN8UnitTest11CurrentTest7ResultsEv@PLT
 3964      00
 3965 15c6 488B7424 		movq	8(%rsp), %rsi
 3965      08
 3966 15cb 488B38   		movq	(%rax), %rdi
 3967 15ce 488D1500 		leaq	.LC10(%rip), %rdx
 3967      000000
 3968 15d5 E8000000 		call	_ZN8UnitTest11TestResults13OnTestFailureERKNS_11TestDetailsEPKc@PLT
 3968      00
 3969              	.LEHE114:
 3970              	.LEHB115:
 3971 15da E8000000 		call	__cxa_end_catch@PLT
 3971      00
 3972              	.LEHE115:
 3973 15df E968FEFF 		jmp	.L310
 3973      FF
 3974              	.L319:
 3975 15e4 E8000000 		call	__cxa_begin_catch@PLT
 3975      00
 3976 15e9 4889C3   		movq	%rax, %rbx
 3977              	.LEHB116:
 3978 15ec E8000000 		call	_ZN8UnitTest11CurrentTest7ResultsEv@PLT
 3978      00
 3979 15f1 488B28   		movq	(%rax), %rbp
 3980 15f4 488B03   		movq	(%rbx), %rax
 3981 15f7 4889DF   		movq	%rbx, %rdi
 3982 15fa FF5010   		call	*16(%rax)
 3983 15fd 4889DF   		movq	%rbx, %rdi
 3984 1600 4989C4   		movq	%rax, %r12
 3985 1603 E8000000 		call	_ZNK8UnitTest15AssertException10LineNumberEv@PLT
 3985      00
 3986 1608 4889DF   		movq	%rbx, %rdi
 3987 160b 4189C5   		movl	%eax, %r13d
 3988 160e E8000000 		call	_ZNK8UnitTest15AssertException8FilenameEv@PLT
 3988      00
 3989 1613 488B5424 		movq	8(%rsp), %rdx
 3989      08
 3990 1618 488D7C24 		leaq	32(%rsp), %rdi
 3990      20
 3991 161d 4589E8   		movl	%r13d, %r8d
 3992 1620 4889C1   		movq	%rax, %rcx
 3993 1623 488B7208 		movq	8(%rdx), %rsi
 3994 1627 488B12   		movq	(%rdx), %rdx
 3995 162a E8000000 		call	_ZN8UnitTest11TestDetailsC1EPKcS2_S2_i@PLT
 3995      00
 3996 162f 488D7424 		leaq	32(%rsp), %rsi
 3996      20
 3997 1634 4C89E2   		movq	%r12, %rdx
 3998 1637 4889EF   		movq	%rbp, %rdi
 3999 163a E8000000 		call	_ZN8UnitTest11TestResults13OnTestFailureERKNS_11TestDetailsEPKc@PLT
 3999      00
 4000              	.LEHE116:
 4001 163f E9FFFEFF 		jmp	.L338
 4001      FF
 4002              	.L328:
 4003 1644 4889C3   		movq	%rax, %rbx
 4004 1647 E8000000 		call	__cxa_end_catch@PLT
 4004      00
 4005 164c 4889DF   		movq	%rbx, %rdi
 4006              	.LEHB117:
 4007 164f E8000000 		call	_Unwind_Resume@PLT
 4007      00
 4008              	.LEHE117:
 4009              	.L331:
 4010              	.L339:
 4011 1654 4889C3   		movq	%rax, %rbx
 4012 1657 E953FFFF 		jmp	.L325
 4012      FF
 4013              	.L329:
 4014 165c EBF6     		jmp	.L339
 4015              	.L335:
 4016 165e 4889C5   		movq	%rax, %rbp
 4017 1661 4889D3   		movq	%rdx, %rbx
 4018 1664 E8000000 		call	__cxa_end_catch@PLT
 4018      00
 4019 1669 E935FEFF 		jmp	.L316
 4019      FF
 4020              		.cfi_endproc
 4021              	.LFE1725:
 4022              		.section	.gcc_except_table
 4023 02f5 000000   		.align 4
 4024              	.LLSDA1725:
 4025 02f8 FF       		.byte	0xff
 4026 02f9 9B       		.byte	0x9b
 4027 02fa 69       		.uleb128 .LLSDATT1725-.LLSDATTD1725
 4028              	.LLSDATTD1725:
 4029 02fb 01       		.byte	0x1
 4030 02fc 53       		.uleb128 .LLSDACSE1725-.LLSDACSB1725
 4031              	.LLSDACSB1725:
 4032 02fd 28       		.uleb128 .LEHB103-.LFB1725
 4033 02fe 05       		.uleb128 .LEHE103-.LEHB103
 4034 02ff 00       		.uleb128 0
 4035 0300 00       		.uleb128 0
 4036 0301 38       		.uleb128 .LEHB104-.LFB1725
 4037 0302 05       		.uleb128 .LEHE104-.LEHB104
 4038 0303 A203     		.uleb128 .L332-.LFB1725
 4039 0305 05       		.uleb128 0x5
 4040 0306 52       		.uleb128 .LEHB105-.LFB1725
 4041 0307 3D       		.uleb128 .LEHE105-.LEHB105
 4042 0308 AA03     		.uleb128 .L334-.LFB1725
 4043 030a 01       		.uleb128 0x1
 4044 030b 9701     		.uleb128 .LEHB106-.LFB1725
 4045 030d 05       		.uleb128 .LEHE106-.LEHB106
 4046 030e A203     		.uleb128 .L332-.LFB1725
 4047 0310 05       		.uleb128 0x5
 4048 0311 E801     		.uleb128 .LEHB107-.LFB1725
 4049 0313 05       		.uleb128 .LEHE107-.LEHB107
 4050 0314 ED01     		.uleb128 .L333-.LFB1725
 4051 0316 07       		.uleb128 0x7
 4052 0317 AA02     		.uleb128 .LEHB108-.LFB1725
 4053 0319 05       		.uleb128 .LEHE108-.LEHB108
 4054 031a AC05     		.uleb128 .L329-.LFB1725
 4055 031c 00       		.uleb128 0
 4056 031d C302     		.uleb128 .LEHB109-.LFB1725
 4057 031f 43       		.uleb128 .LEHE109-.LEHB109
 4058 0320 EF03     		.uleb128 .L330-.LFB1725
 4059 0322 00       		.uleb128 0
 4060 0323 8E03     		.uleb128 .LEHB110-.LFB1725
 4061 0325 05       		.uleb128 .LEHE110-.LEHB110
 4062 0326 AC05     		.uleb128 .L329-.LFB1725
 4063 0328 00       		.uleb128 0
 4064 0329 B203     		.uleb128 .LEHB111-.LFB1725
 4065 032b 33       		.uleb128 .LEHE111-.LEHB111
 4066 032c AE05     		.uleb128 .L335-.LFB1725
 4067 032e 07       		.uleb128 0x7
 4068 032f E503     		.uleb128 .LEHB112-.LFB1725
 4069 0331 05       		.uleb128 .LEHE112-.LEHB112
 4070 0332 ED01     		.uleb128 .L333-.LFB1725
 4071 0334 07       		.uleb128 0x7
 4072 0335 8704     		.uleb128 .LEHB113-.LFB1725
 4073 0337 05       		.uleb128 .LEHE113-.LEHB113
 4074 0338 00       		.uleb128 0
 4075 0339 00       		.uleb128 0
 4076 033a 9104     		.uleb128 .LEHB114-.LFB1725
 4077 033c 19       		.uleb128 .LEHE114-.LEHB114
 4078 033d 9405     		.uleb128 .L328-.LFB1725
 4079 033f 00       		.uleb128 0
 4080 0340 AA04     		.uleb128 .LEHB115-.LFB1725
 4081 0342 05       		.uleb128 .LEHE115-.LEHB115
 4082 0343 00       		.uleb128 0
 4083 0344 00       		.uleb128 0
 4084 0345 BC04     		.uleb128 .LEHB116-.LFB1725
 4085 0347 53       		.uleb128 .LEHE116-.LEHB116
 4086 0348 A405     		.uleb128 .L331-.LFB1725
 4087 034a 00       		.uleb128 0
 4088 034b 9F05     		.uleb128 .LEHB117-.LFB1725
 4089 034d 05       		.uleb128 .LEHE117-.LEHB117
 4090 034e 00       		.uleb128 0
 4091 034f 00       		.uleb128 0
 4092              	.LLSDACSE1725:
 4093 0350 03       		.byte	0x3
 4094 0351 00       		.byte	0
 4095 0352 02       		.byte	0x2
 4096 0353 7D       		.byte	0x7d
 4097 0354 01       		.byte	0x1
 4098 0355 7D       		.byte	0x7d
 4099 0356 00       		.byte	0
 4100 0357 7D       		.byte	0x7d
 4101              		.align 4
 4102 0358 00000000 		.long	0
 4103              	
 4104 035c 00000000 		.long	DW.ref._ZTISt9exception-.
 4105 0360 00000000 		.long	DW.ref._ZTIN8UnitTest15AssertExceptionE-.
 4106              	.LLSDATT1725:
 4107              		.text
 4109              		.align 2
 4110 166e 6690     		.p2align 4,,15
 4112              	_ZNK12_GLOBAL__N_143TestSimpleFixtureOnlyOneFixtureAliveAtATime7RunImplEv:
 4113              	.LFB1467:
 4114              		.cfi_startproc
 4115              		.cfi_personality 0x9b,DW.ref.__gxx_personality_v0
 4116              		.cfi_lsda 0x1b,.LLSDA1467
 4117 1670 4156     		pushq	%r14
 4118              		.cfi_def_cfa_offset 16
 4119              		.cfi_offset 14, -16
 4120 1672 4155     		pushq	%r13
 4121              		.cfi_def_cfa_offset 24
 4122              		.cfi_offset 13, -24
 4123 1674 4154     		pushq	%r12
 4124              		.cfi_def_cfa_offset 32
 4125              		.cfi_offset 12, -32
 4126 1676 55       		pushq	%rbp
 4127              		.cfi_def_cfa_offset 40
 4128              		.cfi_offset 6, -40
 4129 1677 4889FD   		movq	%rdi, %rbp
 4130 167a 53       		pushq	%rbx
 4131              		.cfi_def_cfa_offset 48
 4132              		.cfi_offset 3, -48
 4133 167b 488D5F08 		leaq	8(%rdi), %rbx
 4134 167f 4881ECC0 		subq	$448, %rsp
 4134      010000
 4135              		.cfi_def_cfa_offset 496
 4136 1686 4889DF   		movq	%rbx, %rdi
 4137 1689 83050000 		addl	$1, _ZN12_GLOBAL__N_113SimpleFixture13instanceCountE(%rip)
 4137      000001
 4138 1690 64488B04 		movq	%fs:40, %rax
 4138      25280000 
 4138      00
 4139 1699 48898424 		movq	%rax, 440(%rsp)
 4139      B8010000 
 4140 16a1 31C0     		xorl	%eax, %eax
 4141              	.LEHB118:
 4142 16a3 E808FDFF 		call	_ZN8UnitTest11ExecuteTestIN12_GLOBAL__N_145SimpleFixtureOnlyOneFixtureAliveAtATimeHelperEEEvR
 4142      FF
 4143              	.LEHE118:
 4144 16a8 832D0000 		subl	$1, _ZN12_GLOBAL__N_113SimpleFixture13instanceCountE(%rip)
 4144      000001
 4145              	.L343:
 4146 16af 488B8424 		movq	440(%rsp), %rax
 4146      B8010000 
 4147 16b7 64483304 		xorq	%fs:40, %rax
 4147      25280000 
 4147      00
 4148 16c0 7510     		jne	.L363
 4149 16c2 4881C4C0 		addq	$448, %rsp
 4149      010000
 4150              		.cfi_remember_state
 4151              		.cfi_def_cfa_offset 48
 4152 16c9 5B       		popq	%rbx
 4153              		.cfi_def_cfa_offset 40
 4154 16ca 5D       		popq	%rbp
 4155              		.cfi_def_cfa_offset 32
 4156 16cb 415C     		popq	%r12
 4157              		.cfi_def_cfa_offset 24
 4158 16cd 415D     		popq	%r13
 4159              		.cfi_def_cfa_offset 16
 4160 16cf 415E     		popq	%r14
 4161              		.cfi_def_cfa_offset 8
 4162 16d1 C3       		ret
 4163              	.L363:
 4164              		.cfi_restore_state
 4165 16d2 E8000000 		call	__stack_chk_fail@PLT
 4165      00
 4166              	.L354:
 4167 16d7 832D0000 		subl	$1, _ZN12_GLOBAL__N_113SimpleFixture13instanceCountE(%rip)
 4167      000001
 4168 16de 4883FA01 		cmpq	$1, %rdx
 4169 16e2 4889C7   		movq	%rax, %rdi
 4170 16e5 7478     		je	.L346
 4171 16e7 4883FA02 		cmpq	$2, %rdx
 4172 16eb 0F85E500 		jne	.L364
 4172      0000
 4173 16f1 488D6C24 		leaq	32(%rsp), %rbp
 4173      20
 4174 16f6 E8000000 		call	__cxa_begin_catch@PLT
 4174      00
 4175 16fb 4889EF   		movq	%rbp, %rdi
 4176 16fe 4989C4   		movq	%rax, %r12
 4177              	.LEHB119:
 4178 1701 E8000000 		call	_ZN8UnitTest15MemoryOutStreamC1Ev
 4178      00
 4179              	.LEHE119:
 4180 1706 488D3500 		leaq	.LC9(%rip), %rsi
 4180      000000
 4181 170d BA150000 		movl	$21, %edx
 4181      00
 4182 1712 4889EF   		movq	%rbp, %rdi
 4183              	.LEHB120:
 4184 1715 E8000000 		call	_ZSt16__ostream_insertIcSt11char_traitsIcEERSt13basic_ostreamIT_T0_ES6_PKS3_l@PLT
 4184      00
 4185 171a 498B0424 		movq	(%r12), %rax
 4186 171e 4C89E7   		movq	%r12, %rdi
 4187 1721 FF5010   		call	*16(%rax)
 4188 1724 4889EF   		movq	%rbp, %rdi
 4189 1727 4889C6   		movq	%rax, %rsi
 4190 172a E8000000 		call	_ZStlsISt11char_traitsIcEERSt13basic_ostreamIcT_ES5_PKc@PLT
 4190      00
 4191 172f E8000000 		call	_ZN8UnitTest11CurrentTest7ResultsEv@PLT
 4191      00
 4192 1734 4889EF   		movq	%rbp, %rdi
 4193 1737 4C8B20   		movq	(%rax), %r12
 4194 173a E8000000 		call	_ZNK8UnitTest15MemoryOutStream7GetTextEv@PLT
 4194      00
 4195 173f 4889C2   		movq	%rax, %rdx
 4196 1742 4889DE   		movq	%rbx, %rsi
 4197 1745 4C89E7   		movq	%r12, %rdi
 4198 1748 E8000000 		call	_ZN8UnitTest11TestResults13OnTestFailureERKNS_11TestDetailsEPKc@PLT
 4198      00
 4199              	.LEHE120:
 4200 174d 4889EF   		movq	%rbp, %rdi
 4201              	.LEHB121:
 4202 1750 E8000000 		call	_ZN8UnitTest15MemoryOutStreamD1Ev
 4202      00
 4203              	.LEHE121:
 4204              	.L361:
 4205 1755 E8000000 		call	__cxa_end_catch@PLT
 4205      00
 4206 175a E950FFFF 		jmp	.L343
 4206      FF
 4207              	.L346:
 4208 175f E8000000 		call	__cxa_begin_catch@PLT
 4208      00
 4209 1764 4889C3   		movq	%rax, %rbx
 4210              	.LEHB122:
 4211 1767 E8000000 		call	_ZN8UnitTest11CurrentTest7ResultsEv@PLT
 4211      00
 4212 176c 4C8B20   		movq	(%rax), %r12
 4213 176f 488B03   		movq	(%rbx), %rax
 4214 1772 4889DF   		movq	%rbx, %rdi
 4215 1775 FF5010   		call	*16(%rax)
 4216 1778 4889DF   		movq	%rbx, %rdi
 4217 177b 4989C5   		movq	%rax, %r13
 4218 177e E8000000 		call	_ZNK8UnitTest15AssertException10LineNumberEv@PLT
 4218      00
 4219 1783 4889DF   		movq	%rbx, %rdi
 4220 1786 4189C6   		movl	%eax, %r14d
 4221 1789 E8000000 		call	_ZNK8UnitTest15AssertException8FilenameEv@PLT
 4221      00
 4222 178e 488B5508 		movq	8(%rbp), %rdx
 4223 1792 488B7510 		movq	16(%rbp), %rsi
 4224 1796 4889E5   		movq	%rsp, %rbp
 4225 1799 4589F0   		movl	%r14d, %r8d
 4226 179c 4889C1   		movq	%rax, %rcx
 4227 179f 4889EF   		movq	%rbp, %rdi
 4228 17a2 E8000000 		call	_ZN8UnitTest11TestDetailsC1EPKcS2_S2_i@PLT
 4228      00
 4229 17a7 4C89EA   		movq	%r13, %rdx
 4230 17aa 4889EE   		movq	%rbp, %rsi
 4231 17ad 4C89E7   		movq	%r12, %rdi
 4232 17b0 E8000000 		call	_ZN8UnitTest11TestResults13OnTestFailureERKNS_11TestDetailsEPKc@PLT
 4232      00
 4233              	.LEHE122:
 4234 17b5 EB9E     		jmp	.L361
 4235              	.L357:
 4236 17b7 4889EF   		movq	%rbp, %rdi
 4237 17ba 4889C3   		movq	%rax, %rbx
 4238 17bd E8000000 		call	_ZN8UnitTest15MemoryOutStreamD1Ev
 4238      00
 4239              	.L351:
 4240 17c2 E8000000 		call	__cxa_end_catch@PLT
 4240      00
 4241 17c7 4889DF   		movq	%rbx, %rdi
 4242              	.LEHB123:
 4243 17ca E8000000 		call	_Unwind_Resume@PLT
 4243      00
 4244              	.LEHE123:
 4245              	.L355:
 4246              	.L362:
 4247 17cf 4889C3   		movq	%rax, %rbx
 4248 17d2 EBEE     		jmp	.L351
 4249              	.L356:
 4250 17d4 EBF9     		jmp	.L362
 4251              	.L364:
 4252 17d6 E8000000 		call	__cxa_begin_catch@PLT
 4252      00
 4253              	.LEHB124:
 4254 17db E8000000 		call	_ZN8UnitTest11CurrentTest7ResultsEv@PLT
 4254      00
 4255 17e0 4889E5   		movq	%rsp, %rbp
 4256 17e3 BA8D0000 		movl	$141, %edx
 4256      00
 4257 17e8 4889DE   		movq	%rbx, %rsi
 4258 17eb 4889EF   		movq	%rbp, %rdi
 4259 17ee 4C8B20   		movq	(%rax), %r12
 4260 17f1 E8000000 		call	_ZN8UnitTest11TestDetailsC1ERKS0_i@PLT
 4260      00
 4261 17f6 488D1500 		leaq	.LC11(%rip), %rdx
 4261      000000
 4262 17fd 4889EE   		movq	%rbp, %rsi
 4263 1800 4C89E7   		movq	%r12, %rdi
 4264 1803 E8000000 		call	_ZN8UnitTest11TestResults13OnTestFailureERKNS_11TestDetailsEPKc@PLT
 4264      00
 4265              	.LEHE124:
 4266              	.LEHB125:
 4267 1808 E8000000 		call	__cxa_end_catch@PLT
 4267      00
 4268              	.LEHE125:
 4269 180d E99DFEFF 		jmp	.L343
 4269      FF
 4270              	.L358:
 4271 1812 4889C3   		movq	%rax, %rbx
 4272 1815 E8000000 		call	__cxa_end_catch@PLT
 4272      00
 4273 181a 4889DF   		movq	%rbx, %rdi
 4274              	.LEHB126:
 4275 181d E8000000 		call	_Unwind_Resume@PLT
 4275      00
 4276              	.LEHE126:
 4277              		.cfi_endproc
 4278              	.LFE1467:
 4279              		.section	.gcc_except_table
 4280              		.align 4
 4281              	.LLSDA1467:
 4282 0364 FF       		.byte	0xff
 4283 0365 9B       		.byte	0x9b
 4284 0366 49       		.uleb128 .LLSDATT1467-.LLSDATTD1467
 4285              	.LLSDATTD1467:
 4286 0367 01       		.byte	0x1
 4287 0368 31       		.uleb128 .LLSDACSE1467-.LLSDACSB1467
 4288              	.LLSDACSB1467:
 4289 0369 33       		.uleb128 .LEHB118-.LFB1467
 4290 036a 05       		.uleb128 .LEHE118-.LEHB118
 4291 036b 67       		.uleb128 .L354-.LFB1467
 4292 036c 07       		.uleb128 0x7
 4293 036d 9101     		.uleb128 .LEHB119-.LFB1467
 4294 036f 05       		.uleb128 .LEHE119-.LEHB119
 4295 0370 E402     		.uleb128 .L356-.LFB1467
 4296 0372 00       		.uleb128 0
 4297 0373 A501     		.uleb128 .LEHB120-.LFB1467
 4298 0375 38       		.uleb128 .LEHE120-.LEHB120
 4299 0376 C702     		.uleb128 .L357-.LFB1467
 4300 0378 00       		.uleb128 0
 4301 0379 E001     		.uleb128 .LEHB121-.LFB1467
 4302 037b 05       		.uleb128 .LEHE121-.LEHB121
 4303 037c E402     		.uleb128 .L356-.LFB1467
 4304 037e 00       		.uleb128 0
 4305 037f F701     		.uleb128 .LEHB122-.LFB1467
 4306 0381 4E       		.uleb128 .LEHE122-.LEHB122
 4307 0382 DF02     		.uleb128 .L355-.LFB1467
 4308 0384 00       		.uleb128 0
 4309 0385 DA02     		.uleb128 .LEHB123-.LFB1467
 4310 0387 05       		.uleb128 .LEHE123-.LEHB123
 4311 0388 00       		.uleb128 0
 4312 0389 00       		.uleb128 0
 4313 038a EB02     		.uleb128 .LEHB124-.LFB1467
 4314 038c 2D       		.uleb128 .LEHE124-.LEHB124
 4315 038d A203     		.uleb128 .L358-.LFB1467
 4316 038f 00       		.uleb128 0
 4317 0390 9803     		.uleb128 .LEHB125-.LFB1467
 4318 0392 05       		.uleb128 .LEHE125-.LEHB125
 4319 0393 00       		.uleb128 0
 4320 0394 00       		.uleb128 0
 4321 0395 AD03     		.uleb128 .LEHB126-.LFB1467
 4322 0397 05       		.uleb128 .LEHE126-.LEHB126
 4323 0398 00       		.uleb128 0
 4324 0399 00       		.uleb128 0
 4325              	.LLSDACSE1467:
 4326 039a 03       		.byte	0x3
 4327 039b 00       		.byte	0
 4328 039c 02       		.byte	0x2
 4329 039d 7D       		.byte	0x7d
 4330 039e 01       		.byte	0x1
 4331 039f 7D       		.byte	0x7d
 4332 03a0 00       		.byte	0
 4333 03a1 7D       		.byte	0x7d
 4334 03a2 0000     		.align 4
 4335 03a4 00000000 		.long	0
 4336              	
 4337 03a8 00000000 		.long	DW.ref._ZTISt9exception-.
 4338 03ac 00000000 		.long	DW.ref._ZTIN8UnitTest15AssertExceptionE-.
 4339              	.LLSDATT1467:
 4340              		.text
 4342              		.section	.rodata.str1.1
 4343              	.LC30:
 4344 007f 00       		.string	""
 4345              	.LC31:
 4346 0080 44656661 		.string	"DefaultSuite"
 4346      756C7453 
 4346      75697465 
 4346      00
 4347              	.LC32:
 4348 008d 77726F6E 		.string	"wrongthrow"
 4348      67746872 
 4348      6F7700
 4349              		.section	.rodata.str1.8
 4350 02bc 00000000 		.align 8
 4351              	.LC33:
 4352 02c0 556E6861 		.string	"Unhandled exception in CHECK_EQUAL(1, results.GetFailureCount())"
 4352      6E646C65 
 4352      64206578 
 4352      63657074 
 4352      696F6E20 
 4353              		.text
 4354              		.align 2
 4355 1822 0F1F4000 		.p2align 4,,15
 4355      662E0F1F 
 4355      84000000 
 4355      0000
 4357              	_ZNK12_GLOBAL__N_140TestCheckThrowMacroFailsOnWrongException7RunImplEv:
 4358              	.LFB1439:
 4359              		.cfi_startproc
 4360              		.cfi_personality 0x9b,DW.ref.__gxx_personality_v0
 4361              		.cfi_lsda 0x1b,.LLSDA1439
 4362 1830 4154     		pushq	%r12
 4363              		.cfi_def_cfa_offset 16
 4364              		.cfi_offset 12, -16
 4365 1832 55       		pushq	%rbp
 4366              		.cfi_def_cfa_offset 24
 4367              		.cfi_offset 6, -24
 4368 1833 31F6     		xorl	%esi, %esi
 4369 1835 53       		pushq	%rbx
 4370              		.cfi_def_cfa_offset 32
 4371              		.cfi_offset 3, -32
 4372 1836 4883C480 		addq	$-128, %rsp
 4373              		.cfi_def_cfa_offset 160
 4374 183a 488D6C24 		leaq	32(%rsp), %rbp
 4374      20
 4375 183f 488D5C24 		leaq	64(%rsp), %rbx
 4375      40
 4376 1844 64488B04 		movq	%fs:40, %rax
 4376      25280000 
 4376      00
 4377 184d 48894424 		movq	%rax, 120(%rsp)
 4377      78
 4378 1852 31C0     		xorl	%eax, %eax
 4379 1854 4889EF   		movq	%rbp, %rdi
 4380              	.LEHB127:
 4381 1857 E8000000 		call	_ZN8UnitTest11TestResultsC1EPNS_12TestReporterE@PLT
 4381      00
 4382 185c E8000000 		call	_ZN8UnitTest11CurrentTest7ResultsEv@PLT
 4382      00
 4383 1861 488B00   		movq	(%rax), %rax
 4384 1864 48894424 		movq	%rax, 16(%rsp)
 4384      10
 4385 1869 E8000000 		call	_ZN8UnitTest11CurrentTest7DetailsEv@PLT
 4385      00
 4386 186e 488B00   		movq	(%rax), %rax
 4387 1871 48894424 		movq	%rax, 24(%rsp)
 4387      18
 4388 1876 E8000000 		call	_ZN8UnitTest11CurrentTest7ResultsEv@PLT
 4388      00
 4389              	.LEHE127:
 4390 187b 488D0D00 		leaq	.LC30(%rip), %rcx
 4390      000000
 4391 1882 488D1500 		leaq	.LC31(%rip), %rdx
 4391      000000
 4392 1889 488D3500 		leaq	.LC32(%rip), %rsi
 4392      000000
 4393 1890 488928   		movq	%rbp, (%rax)
 4394 1893 4531C0   		xorl	%r8d, %r8d
 4395 1896 4889DF   		movq	%rbx, %rdi
 4396              	.LEHB128:
 4397 1899 E8000000 		call	_ZN8UnitTest4TestC2EPKcS2_S2_i@PLT
 4397      00
 4398              	.LEHE128:
 4399 189e 4C8D2500 		leaq	16+_ZTVZNK12_GLOBAL__N_140TestCheckThrowMacroFailsOnWrongException7RunImplEvE14WrongThrowTest
 4399      000000
 4400 18a5 4889DF   		movq	%rbx, %rdi
 4401 18a8 4C896424 		movq	%r12, 64(%rsp)
 4401      40
 4402              	.LEHB129:
 4403 18ad E8000000 		call	_ZN8UnitTest4Test3RunEv@PLT
 4403      00
 4404              	.LEHE129:
 4405 18b2 4889DF   		movq	%rbx, %rdi
 4406 18b5 4C896424 		movq	%r12, 64(%rsp)
 4406      40
 4407              	.LEHB130:
 4408 18ba E8000000 		call	_ZN8UnitTest4TestD2Ev@PLT
 4408      00
 4409              	.LEHE130:
 4410              	.LEHB131:
 4411 18bf E8000000 		call	_ZN8UnitTest11CurrentTest7ResultsEv@PLT
 4411      00
 4412 18c4 488B5424 		movq	16(%rsp), %rdx
 4412      10
 4413 18c9 488910   		movq	%rdx, (%rax)
 4414 18cc E8000000 		call	_ZN8UnitTest11CurrentTest7DetailsEv@PLT
 4414      00
 4415              	.LEHE131:
 4416 18d1 488B5424 		movq	24(%rsp), %rdx
 4416      18
 4417 18d6 488910   		movq	%rdx, (%rax)
 4418              	.LEHB132:
 4419 18d9 E8000000 		call	_ZN8UnitTest11CurrentTest7DetailsEv@PLT
 4419      00
 4420 18de 488B30   		movq	(%rax), %rsi
 4421 18e1 BA750000 		movl	$117, %edx
 4421      00
 4422 18e6 4889DF   		movq	%rbx, %rdi
 4423 18e9 E8000000 		call	_ZN8UnitTest11TestDetailsC1ERKS0_i@PLT
 4423      00
 4424 18ee 4889EF   		movq	%rbp, %rdi
 4425 18f1 E8000000 		call	_ZNK8UnitTest11TestResults15GetFailureCountEv@PLT
 4425      00
 4426 18f6 89442410 		movl	%eax, 16(%rsp)
 4427 18fa C744240C 		movl	$1, 12(%rsp)
 4427      01000000 
 4428 1902 E8000000 		call	_ZN8UnitTest11CurrentTest7ResultsEv@PLT
 4428      00
 4429 1907 488B38   		movq	(%rax), %rdi
 4430 190a 488D5424 		leaq	16(%rsp), %rdx
 4430      10
 4431 190f 488D7424 		leaq	12(%rsp), %rsi
 4431      0C
 4432 1914 4889D9   		movq	%rbx, %rcx
 4433 1917 E8000000 		call	_ZN8UnitTest10CheckEqualIiiEEvRNS_11TestResultsERKT_RKT0_RKNS_11TestDetailsE
 4433      00
 4434              	.LEHE132:
 4435              	.L365:
 4436 191c 488B4424 		movq	120(%rsp), %rax
 4436      78
 4437 1921 64483304 		xorq	%fs:40, %rax
 4437      25280000 
 4437      00
 4438 192a 7509     		jne	.L377
 4439 192c 4883EC80 		subq	$-128, %rsp
 4440              		.cfi_remember_state
 4441              		.cfi_def_cfa_offset 32
 4442 1930 5B       		popq	%rbx
 4443              		.cfi_def_cfa_offset 24
 4444 1931 5D       		popq	%rbp
 4445              		.cfi_def_cfa_offset 16
 4446 1932 415C     		popq	%r12
 4447              		.cfi_def_cfa_offset 8
 4448 1934 C3       		ret
 4449              	.L377:
 4450              		.cfi_restore_state
 4451 1935 E8000000 		call	__stack_chk_fail@PLT
 4451      00
 4452              	.L374:
 4453 193a 4889C7   		movq	%rax, %rdi
 4454 193d E8000000 		call	__cxa_begin_catch@PLT
 4454      00
 4455              	.LEHB133:
 4456 1942 E8000000 		call	_ZN8UnitTest11CurrentTest7ResultsEv@PLT
 4456      00
 4457 1947 488B28   		movq	(%rax), %rbp
 4458 194a E8000000 		call	_ZN8UnitTest11CurrentTest7DetailsEv@PLT
 4458      00
 4459 194f 488B30   		movq	(%rax), %rsi
 4460 1952 BA750000 		movl	$117, %edx
 4460      00
 4461 1957 4889DF   		movq	%rbx, %rdi
 4462 195a E8000000 		call	_ZN8UnitTest11TestDetailsC1ERKS0_i@PLT
 4462      00
 4463 195f 488D1500 		leaq	.LC33(%rip), %rdx
 4463      000000
 4464 1966 4889DE   		movq	%rbx, %rsi
 4465 1969 4889EF   		movq	%rbp, %rdi
 4466 196c E8000000 		call	_ZN8UnitTest11TestResults13OnTestFailureERKNS_11TestDetailsEPKc@PLT
 4466      00
 4467              	.LEHE133:
 4468              	.LEHB134:
 4469 1971 E8000000 		call	__cxa_end_catch@PLT
 4469      00
 4470              	.LEHE134:
 4471 1976 EBA4     		jmp	.L365
 4472              	.L373:
 4473 1978 4889DF   		movq	%rbx, %rdi
 4474 197b 4889C5   		movq	%rax, %rbp
 4475 197e 4C896424 		movq	%r12, 64(%rsp)
 4475      40
 4476 1983 E8000000 		call	_ZN8UnitTest4TestD2Ev@PLT
 4476      00
 4477              	.L367:
 4478 1988 488D7C24 		leaq	16(%rsp), %rdi
 4478      10
 4479 198d E8000000 		call	_ZN17ScopedCurrentTestD1Ev
 4479      00
 4480 1992 4889EF   		movq	%rbp, %rdi
 4481              	.LEHB135:
 4482 1995 E8000000 		call	_Unwind_Resume@PLT
 4482      00
 4483              	.LEHE135:
 4484              	.L372:
 4485 199a 4889C5   		movq	%rax, %rbp
 4486 199d EBE9     		jmp	.L367
 4487              	.L375:
 4488 199f 4889C3   		movq	%rax, %rbx
 4489 19a2 E8000000 		call	__cxa_end_catch@PLT
 4489      00
 4490 19a7 4889DF   		movq	%rbx, %rdi
 4491              	.LEHB136:
 4492 19aa E8000000 		call	_Unwind_Resume@PLT
 4492      00
 4493              	.LEHE136:
 4494              		.cfi_endproc
 4495              	.LFE1439:
 4496              		.section	.gcc_except_table
 4497              		.align 4
 4498              	.LLSDA1439:
 4499 03b0 FF       		.byte	0xff
 4500 03b1 9B       		.byte	0x9b
 4501 03b2 3D       		.uleb128 .LLSDATT1439-.LLSDATTD1439
 4502              	.LLSDATTD1439:
 4503 03b3 01       		.byte	0x1
 4504 03b4 34       		.uleb128 .LLSDACSE1439-.LLSDACSB1439
 4505              	.LLSDACSB1439:
 4506 03b5 27       		.uleb128 .LEHB127-.LFB1439
 4507 03b6 24       		.uleb128 .LEHE127-.LEHB127
 4508 03b7 00       		.uleb128 0
 4509 03b8 00       		.uleb128 0
 4510 03b9 69       		.uleb128 .LEHB128-.LFB1439
 4511 03ba 05       		.uleb128 .LEHE128-.LEHB128
 4512 03bb EA02     		.uleb128 .L372-.LFB1439
 4513 03bd 00       		.uleb128 0
 4514 03be 7D       		.uleb128 .LEHB129-.LFB1439
 4515 03bf 05       		.uleb128 .LEHE129-.LEHB129
 4516 03c0 C802     		.uleb128 .L373-.LFB1439
 4517 03c2 00       		.uleb128 0
 4518 03c3 8A01     		.uleb128 .LEHB130-.LFB1439
 4519 03c5 05       		.uleb128 .LEHE130-.LEHB130
 4520 03c6 EA02     		.uleb128 .L372-.LFB1439
 4521 03c8 00       		.uleb128 0
 4522 03c9 8F01     		.uleb128 .LEHB131-.LFB1439
 4523 03cb 12       		.uleb128 .LEHE131-.LEHB131
 4524 03cc 00       		.uleb128 0
 4525 03cd 00       		.uleb128 0
 4526 03ce A901     		.uleb128 .LEHB132-.LFB1439
 4527 03d0 43       		.uleb128 .LEHE132-.LEHB132
 4528 03d1 8A02     		.uleb128 .L374-.LFB1439
 4529 03d3 01       		.uleb128 0x1
 4530 03d4 9202     		.uleb128 .LEHB133-.LFB1439
 4531 03d6 2F       		.uleb128 .LEHE133-.LEHB133
 4532 03d7 EF02     		.uleb128 .L375-.LFB1439
 4533 03d9 00       		.uleb128 0
 4534 03da C102     		.uleb128 .LEHB134-.LFB1439
 4535 03dc 05       		.uleb128 .LEHE134-.LEHB134
 4536 03dd 00       		.uleb128 0
 4537 03de 00       		.uleb128 0
 4538 03df E502     		.uleb128 .LEHB135-.LFB1439
 4539 03e1 05       		.uleb128 .LEHE135-.LEHB135
 4540 03e2 00       		.uleb128 0
 4541 03e3 00       		.uleb128 0
 4542 03e4 FA02     		.uleb128 .LEHB136-.LFB1439
 4543 03e6 05       		.uleb128 .LEHE136-.LEHB136
 4544 03e7 00       		.uleb128 0
 4545 03e8 00       		.uleb128 0
 4546              	.LLSDACSE1439:
 4547 03e9 01       		.byte	0x1
 4548 03ea 00       		.byte	0
 4549 03eb 00       		.align 4
 4550 03ec 00000000 		.long	0
 4551              	
 4552              	.LLSDATT1439:
 4553              		.text
 4555              		.section	.rodata.str1.1
 4556              	.LC34:
 4557 0098 6E6F7468 		.string	"nothrow"
 4557      726F7700 
 4558              		.text
 4559 19af 90       		.align 2
 4560              		.p2align 4,,15
 4562              	_ZNK12_GLOBAL__N_142TestCheckThrowMacroFailsOnMissingException7RunImplEv:
 4563              	.LFB1430:
 4564              		.cfi_startproc
 4565              		.cfi_personality 0x9b,DW.ref.__gxx_personality_v0
 4566              		.cfi_lsda 0x1b,.LLSDA1430
 4567 19b0 4154     		pushq	%r12
 4568              		.cfi_def_cfa_offset 16
 4569              		.cfi_offset 12, -16
 4570 19b2 55       		pushq	%rbp
 4571              		.cfi_def_cfa_offset 24
 4572              		.cfi_offset 6, -24
 4573 19b3 31F6     		xorl	%esi, %esi
 4574 19b5 53       		pushq	%rbx
 4575              		.cfi_def_cfa_offset 32
 4576              		.cfi_offset 3, -32
 4577 19b6 4883C480 		addq	$-128, %rsp
 4578              		.cfi_def_cfa_offset 160
 4579 19ba 488D6C24 		leaq	32(%rsp), %rbp
 4579      20
 4580 19bf 488D5C24 		leaq	64(%rsp), %rbx
 4580      40
 4581 19c4 64488B04 		movq	%fs:40, %rax
 4581      25280000 
 4581      00
 4582 19cd 48894424 		movq	%rax, 120(%rsp)
 4582      78
 4583 19d2 31C0     		xorl	%eax, %eax
 4584 19d4 4889EF   		movq	%rbp, %rdi
 4585              	.LEHB137:
 4586 19d7 E8000000 		call	_ZN8UnitTest11TestResultsC1EPNS_12TestReporterE@PLT
 4586      00
 4587 19dc E8000000 		call	_ZN8UnitTest11CurrentTest7ResultsEv@PLT
 4587      00
 4588 19e1 488B00   		movq	(%rax), %rax
 4589 19e4 48894424 		movq	%rax, 16(%rsp)
 4589      10
 4590 19e9 E8000000 		call	_ZN8UnitTest11CurrentTest7DetailsEv@PLT
 4590      00
 4591 19ee 488B00   		movq	(%rax), %rax
 4592 19f1 48894424 		movq	%rax, 24(%rsp)
 4592      18
 4593 19f6 E8000000 		call	_ZN8UnitTest11CurrentTest7ResultsEv@PLT
 4593      00
 4594              	.LEHE137:
 4595 19fb 488D0D00 		leaq	.LC30(%rip), %rcx
 4595      000000
 4596 1a02 488D1500 		leaq	.LC31(%rip), %rdx
 4596      000000
 4597 1a09 488D3500 		leaq	.LC34(%rip), %rsi
 4597      000000
 4598 1a10 488928   		movq	%rbp, (%rax)
 4599 1a13 4531C0   		xorl	%r8d, %r8d
 4600 1a16 4889DF   		movq	%rbx, %rdi
 4601              	.LEHB138:
 4602 1a19 E8000000 		call	_ZN8UnitTest4TestC2EPKcS2_S2_i@PLT
 4602      00
 4603              	.LEHE138:
 4604 1a1e 4C8D2500 		leaq	16+_ZTVZNK12_GLOBAL__N_142TestCheckThrowMacroFailsOnMissingException7RunImplEvE11NoThrowTest(
 4604      000000
 4605 1a25 4889DF   		movq	%rbx, %rdi
 4606 1a28 4C896424 		movq	%r12, 64(%rsp)
 4606      40
 4607              	.LEHB139:
 4608 1a2d E8000000 		call	_ZN8UnitTest4Test3RunEv@PLT
 4608      00
 4609              	.LEHE139:
 4610 1a32 4889DF   		movq	%rbx, %rdi
 4611 1a35 4C896424 		movq	%r12, 64(%rsp)
 4611      40
 4612              	.LEHB140:
 4613 1a3a E8000000 		call	_ZN8UnitTest4TestD2Ev@PLT
 4613      00
 4614              	.LEHE140:
 4615              	.LEHB141:
 4616 1a3f E8000000 		call	_ZN8UnitTest11CurrentTest7ResultsEv@PLT
 4616      00
 4617 1a44 488B5424 		movq	16(%rsp), %rdx
 4617      10
 4618 1a49 488910   		movq	%rdx, (%rax)
 4619 1a4c E8000000 		call	_ZN8UnitTest11CurrentTest7DetailsEv@PLT
 4619      00
 4620              	.LEHE141:
 4621 1a51 488B5424 		movq	24(%rsp), %rdx
 4621      18
 4622 1a56 488910   		movq	%rdx, (%rax)
 4623              	.LEHB142:
 4624 1a59 E8000000 		call	_ZN8UnitTest11CurrentTest7DetailsEv@PLT
 4624      00
 4625 1a5e 488B30   		movq	(%rax), %rsi
 4626 1a61 BA5E0000 		movl	$94, %edx
 4626      00
 4627 1a66 4889DF   		movq	%rbx, %rdi
 4628 1a69 E8000000 		call	_ZN8UnitTest11TestDetailsC1ERKS0_i@PLT
 4628      00
 4629 1a6e 4889EF   		movq	%rbp, %rdi
 4630 1a71 E8000000 		call	_ZNK8UnitTest11TestResults15GetFailureCountEv@PLT
 4630      00
 4631 1a76 89442410 		movl	%eax, 16(%rsp)
 4632 1a7a C744240C 		movl	$1, 12(%rsp)
 4632      01000000 
 4633 1a82 E8000000 		call	_ZN8UnitTest11CurrentTest7ResultsEv@PLT
 4633      00
 4634 1a87 488B38   		movq	(%rax), %rdi
 4635 1a8a 488D5424 		leaq	16(%rsp), %rdx
 4635      10
 4636 1a8f 488D7424 		leaq	12(%rsp), %rsi
 4636      0C
 4637 1a94 4889D9   		movq	%rbx, %rcx
 4638 1a97 E8000000 		call	_ZN8UnitTest10CheckEqualIiiEEvRNS_11TestResultsERKT_RKT0_RKNS_11TestDetailsE
 4638      00
 4639              	.LEHE142:
 4640              	.L378:
 4641 1a9c 488B4424 		movq	120(%rsp), %rax
 4641      78
 4642 1aa1 64483304 		xorq	%fs:40, %rax
 4642      25280000 
 4642      00
 4643 1aaa 7509     		jne	.L390
 4644 1aac 4883EC80 		subq	$-128, %rsp
 4645              		.cfi_remember_state
 4646              		.cfi_def_cfa_offset 32
 4647 1ab0 5B       		popq	%rbx
 4648              		.cfi_def_cfa_offset 24
 4649 1ab1 5D       		popq	%rbp
 4650              		.cfi_def_cfa_offset 16
 4651 1ab2 415C     		popq	%r12
 4652              		.cfi_def_cfa_offset 8
 4653 1ab4 C3       		ret
 4654              	.L390:
 4655              		.cfi_restore_state
 4656 1ab5 E8000000 		call	__stack_chk_fail@PLT
 4656      00
 4657              	.L387:
 4658 1aba 4889C7   		movq	%rax, %rdi
 4659 1abd E8000000 		call	__cxa_begin_catch@PLT
 4659      00
 4660              	.LEHB143:
 4661 1ac2 E8000000 		call	_ZN8UnitTest11CurrentTest7ResultsEv@PLT
 4661      00
 4662 1ac7 488B28   		movq	(%rax), %rbp
 4663 1aca E8000000 		call	_ZN8UnitTest11CurrentTest7DetailsEv@PLT
 4663      00
 4664 1acf 488B30   		movq	(%rax), %rsi
 4665 1ad2 BA5E0000 		movl	$94, %edx
 4665      00
 4666 1ad7 4889DF   		movq	%rbx, %rdi
 4667 1ada E8000000 		call	_ZN8UnitTest11TestDetailsC1ERKS0_i@PLT
 4667      00
 4668 1adf 488D1500 		leaq	.LC33(%rip), %rdx
 4668      000000
 4669 1ae6 4889DE   		movq	%rbx, %rsi
 4670 1ae9 4889EF   		movq	%rbp, %rdi
 4671 1aec E8000000 		call	_ZN8UnitTest11TestResults13OnTestFailureERKNS_11TestDetailsEPKc@PLT
 4671      00
 4672              	.LEHE143:
 4673              	.LEHB144:
 4674 1af1 E8000000 		call	__cxa_end_catch@PLT
 4674      00
 4675              	.LEHE144:
 4676 1af6 EBA4     		jmp	.L378
 4677              	.L386:
 4678 1af8 4889DF   		movq	%rbx, %rdi
 4679 1afb 4889C5   		movq	%rax, %rbp
 4680 1afe 4C896424 		movq	%r12, 64(%rsp)
 4680      40
 4681 1b03 E8000000 		call	_ZN8UnitTest4TestD2Ev@PLT
 4681      00
 4682              	.L380:
 4683 1b08 488D7C24 		leaq	16(%rsp), %rdi
 4683      10
 4684 1b0d E8000000 		call	_ZN17ScopedCurrentTestD1Ev
 4684      00
 4685 1b12 4889EF   		movq	%rbp, %rdi
 4686              	.LEHB145:
 4687 1b15 E8000000 		call	_Unwind_Resume@PLT
 4687      00
 4688              	.LEHE145:
 4689              	.L385:
 4690 1b1a 4889C5   		movq	%rax, %rbp
 4691 1b1d EBE9     		jmp	.L380
 4692              	.L388:
 4693 1b1f 4889C3   		movq	%rax, %rbx
 4694 1b22 E8000000 		call	__cxa_end_catch@PLT
 4694      00
 4695 1b27 4889DF   		movq	%rbx, %rdi
 4696              	.LEHB146:
 4697 1b2a E8000000 		call	_Unwind_Resume@PLT
 4697      00
 4698              	.LEHE146:
 4699              		.cfi_endproc
 4700              	.LFE1430:
 4701              		.section	.gcc_except_table
 4702              		.align 4
 4703              	.LLSDA1430:
 4704 03f0 FF       		.byte	0xff
 4705 03f1 9B       		.byte	0x9b
 4706 03f2 3D       		.uleb128 .LLSDATT1430-.LLSDATTD1430
 4707              	.LLSDATTD1430:
 4708 03f3 01       		.byte	0x1
 4709 03f4 34       		.uleb128 .LLSDACSE1430-.LLSDACSB1430
 4710              	.LLSDACSB1430:
 4711 03f5 27       		.uleb128 .LEHB137-.LFB1430
 4712 03f6 24       		.uleb128 .LEHE137-.LEHB137
 4713 03f7 00       		.uleb128 0
 4714 03f8 00       		.uleb128 0
 4715 03f9 69       		.uleb128 .LEHB138-.LFB1430
 4716 03fa 05       		.uleb128 .LEHE138-.LEHB138
 4717 03fb EA02     		.uleb128 .L385-.LFB1430
 4718 03fd 00       		.uleb128 0
 4719 03fe 7D       		.uleb128 .LEHB139-.LFB1430
 4720 03ff 05       		.uleb128 .LEHE139-.LEHB139
 4721 0400 C802     		.uleb128 .L386-.LFB1430
 4722 0402 00       		.uleb128 0
 4723 0403 8A01     		.uleb128 .LEHB140-.LFB1430
 4724 0405 05       		.uleb128 .LEHE140-.LEHB140
 4725 0406 EA02     		.uleb128 .L385-.LFB1430
 4726 0408 00       		.uleb128 0
 4727 0409 8F01     		.uleb128 .LEHB141-.LFB1430
 4728 040b 12       		.uleb128 .LEHE141-.LEHB141
 4729 040c 00       		.uleb128 0
 4730 040d 00       		.uleb128 0
 4731 040e A901     		.uleb128 .LEHB142-.LFB1430
 4732 0410 43       		.uleb128 .LEHE142-.LEHB142
 4733 0411 8A02     		.uleb128 .L387-.LFB1430
 4734 0413 01       		.uleb128 0x1
 4735 0414 9202     		.uleb128 .LEHB143-.LFB1430
 4736 0416 2F       		.uleb128 .LEHE143-.LEHB143
 4737 0417 EF02     		.uleb128 .L388-.LFB1430
 4738 0419 00       		.uleb128 0
 4739 041a C102     		.uleb128 .LEHB144-.LFB1430
 4740 041c 05       		.uleb128 .LEHE144-.LEHB144
 4741 041d 00       		.uleb128 0
 4742 041e 00       		.uleb128 0
 4743 041f E502     		.uleb128 .LEHB145-.LFB1430
 4744 0421 05       		.uleb128 .LEHE145-.LEHB145
 4745 0422 00       		.uleb128 0
 4746 0423 00       		.uleb128 0
 4747 0424 FA02     		.uleb128 .LEHB146-.LFB1430
 4748 0426 05       		.uleb128 .LEHE146-.LEHB146
 4749 0427 00       		.uleb128 0
 4750 0428 00       		.uleb128 0
 4751              	.LLSDACSE1430:
 4752 0429 01       		.byte	0x1
 4753 042a 00       		.byte	0
 4754 042b 00       		.align 4
 4755 042c 00000000 		.long	0
 4756              	
 4757              	.LLSDATT1430:
 4758              		.text
 4760              		.section	.rodata.str1.1
 4761              	.LC35:
 4762 00a0 54657374 		.string	"TestUnitTest++.cpp"
 4762      556E6974 
 4762      54657374 
 4762      2B2B2E63 
 4762      707000
 4763              	.LC36:
 4764 00b3 56616C69 		.string	"ValidCheckSucceeds"
 4764      64436865 
 4764      636B5375 
 4764      63636565 
 4764      647300
 4765              	.LC37:
 4766 00c6 43686563 		.string	"CheckWorksWithPointers"
 4766      6B576F72 
 4766      6B735769 
 4766      7468506F 
 4766      696E7465 
 4767              	.LC38:
 4768 00dd 56616C69 		.string	"ValidCheckEqualSucceeds"
 4768      64436865 
 4768      636B4571 
 4768      75616C53 
 4768      75636365 
 4769              	.LC39:
 4770 00f5 43686563 		.string	"CheckEqualWorksWithPointers"
 4770      6B457175 
 4770      616C576F 
 4770      726B7357 
 4770      69746850 
 4771              	.LC40:
 4772 0111 56616C69 		.string	"ValidCheckCloseSucceeds"
 4772      64436865 
 4772      636B436C 
 4772      6F736553 
 4772      75636365 
 4773              	.LC41:
 4774 0129 41727261 		.string	"ArrayCloseSucceeds"
 4774      79436C6F 
 4774      73655375 
 4774      63636565 
 4774      647300
 4775              		.section	.rodata.str1.8
 4776 0301 00000000 		.align 8
 4776      000000
 4777              	.LC42:
 4778 0308 43686563 		.string	"CheckArrayCloseWorksWithVectors"
 4778      6B417272 
 4778      6179436C 
 4778      6F736557 
 4778      6F726B73 
 4779              		.align 8
 4780              	.LC43:
 4781 0328 43686563 		.string	"CheckThrowMacroSucceedsOnCorrectException"
 4781      6B546872 
 4781      6F774D61 
 4781      63726F53 
 4781      75636365 
 4782              		.section	.rodata.str1.1
 4783              	.LC44:
 4784 013c 43686563 		.string	"CheckAssertSucceeds"
 4784      6B417373 
 4784      65727453 
 4784      75636365 
 4784      65647300 
 4785              		.section	.rodata.str1.8
 4786 0352 00000000 		.align 8
 4786      0000
 4787              	.LC45:
 4788 0358 43686563 		.string	"CheckThrowMacroFailsOnMissingException"
 4788      6B546872 
 4788      6F774D61 
 4788      63726F46 
 4788      61696C73 
 4789 037f 00       		.align 8
 4790              	.LC46:
 4791 0380 43686563 		.string	"CheckThrowMacroFailsOnWrongException"
 4791      6B546872 
 4791      6F774D61 
 4791      63726F46 
 4791      61696C73 
 4792              		.section	.rodata.str1.1
 4793              	.LC47:
 4794 0150 44656661 		.string	"DefaultFixtureCtorIsCalled"
 4794      756C7446 
 4794      69787475 
 4794      72654374 
 4794      6F724973 
 4795              	.LC48:
 4796 016b 4F6E6C79 		.string	"OnlyOneFixtureAliveAtATime"
 4796      4F6E6546 
 4796      69787475 
 4796      7265416C 
 4796      69766541 
 4797              		.section	.rodata.str1.8
 4798 03a5 000000   		.align 8
 4799              	.LC49:
 4800 03a8 43616E43 		.string	"CanCallCHECKOutsideOfTestFunction"
 4800      616C6C43 
 4800      4845434B 
 4800      4F757473 
 4800      6964654F 
 4801              		.section	.text.startup,"ax",@progbits
 4802              		.p2align 4,,15
 4804              	_GLOBAL__sub_I_TestUnitTest__.cpp:
 4805              	.LFB1700:
 4806              		.cfi_startproc
 4807 0000 53       		pushq	%rbx
 4808              		.cfi_def_cfa_offset 16
 4809              		.cfi_offset 3, -16
 4810 0001 488D0D00 		leaq	.LC35(%rip), %rcx
 4810      000000
 4811 0008 488D1500 		leaq	.LC31(%rip), %rdx
 4811      000000
 4812 000f 488D3500 		leaq	.LC36(%rip), %rsi
 4812      000000
 4813 0016 488D3D00 		leaq	_ZN12_GLOBAL__N_130testValidCheckSucceedsInstanceE(%rip), %rdi
 4813      000000
 4814 001d 41B80B00 		movl	$11, %r8d
 4814      0000
 4815 0023 488D1D00 		leaq	_ZN12_GLOBAL__N_130testValidCheckSucceedsInstanceE(%rip), %rbx
 4815      000000
 4816 002a E8000000 		call	_ZN8UnitTest4TestC2EPKcS2_S2_i@PLT
 4816      00
 4817 002f 488D1500 		leaq	__dso_handle(%rip), %rdx
 4817      000000
 4818 0036 488D3D00 		leaq	_ZN12_GLOBAL__N_122TestValidCheckSucceedsD1Ev(%rip), %rdi
 4818      000000
 4819 003d 488D0500 		leaq	16+_ZTVN12_GLOBAL__N_122TestValidCheckSucceedsE(%rip), %rax
 4819      000000
 4820 0044 4889DE   		movq	%rbx, %rsi
 4821 0047 48890500 		movq	%rax, _ZN12_GLOBAL__N_130testValidCheckSucceedsInstanceE(%rip)
 4821      000000
 4822 004e E8000000 		call	__cxa_atexit@PLT
 4822      00
 4823 0053 E8000000 		call	_ZN8UnitTest4Test11GetTestListEv@PLT
 4823      00
 4824 0058 488D3D00 		leaq	_ZN12_GLOBAL__N_123adderValidCheckSucceedsE(%rip), %rdi
 4824      000000
 4825 005f 4889C6   		movq	%rax, %rsi
 4826 0062 4889DA   		movq	%rbx, %rdx
 4827 0065 488D1D00 		leaq	_ZN12_GLOBAL__N_134testCheckWorksWithPointersInstanceE(%rip), %rbx
 4827      000000
 4828 006c E8000000 		call	_ZN8UnitTest9ListAdderC1ERNS_8TestListEPNS_4TestE@PLT
 4828      00
 4829 0071 488D0D00 		leaq	.LC35(%rip), %rcx
 4829      000000
 4830 0078 488D1500 		leaq	.LC31(%rip), %rdx
 4830      000000
 4831 007f 488D3500 		leaq	.LC37(%rip), %rsi
 4831      000000
 4832 0086 488D3D00 		leaq	_ZN12_GLOBAL__N_134testCheckWorksWithPointersInstanceE(%rip), %rdi
 4832      000000
 4833 008d 41B81100 		movl	$17, %r8d
 4833      0000
 4834 0093 E8000000 		call	_ZN8UnitTest4TestC2EPKcS2_S2_i@PLT
 4834      00
 4835 0098 488D1500 		leaq	__dso_handle(%rip), %rdx
 4835      000000
 4836 009f 488D3D00 		leaq	_ZN12_GLOBAL__N_126TestCheckWorksWithPointersD1Ev(%rip), %rdi
 4836      000000
 4837 00a6 488D0500 		leaq	16+_ZTVN12_GLOBAL__N_126TestCheckWorksWithPointersE(%rip), %rax
 4837      000000
 4838 00ad 4889DE   		movq	%rbx, %rsi
 4839 00b0 48890500 		movq	%rax, _ZN12_GLOBAL__N_134testCheckWorksWithPointersInstanceE(%rip)
 4839      000000
 4840 00b7 E8000000 		call	__cxa_atexit@PLT
 4840      00
 4841 00bc E8000000 		call	_ZN8UnitTest4Test11GetTestListEv@PLT
 4841      00
 4842 00c1 488D3D00 		leaq	_ZN12_GLOBAL__N_127adderCheckWorksWithPointersE(%rip), %rdi
 4842      000000
 4843 00c8 4889C6   		movq	%rax, %rsi
 4844 00cb 4889DA   		movq	%rbx, %rdx
 4845 00ce 488D1D00 		leaq	_ZN12_GLOBAL__N_135testValidCheckEqualSucceedsInstanceE(%rip), %rbx
 4845      000000
 4846 00d5 E8000000 		call	_ZN8UnitTest9ListAdderC1ERNS_8TestListEPNS_4TestE@PLT
 4846      00
 4847 00da 488D0D00 		leaq	.LC35(%rip), %rcx
 4847      000000
 4848 00e1 488D1500 		leaq	.LC31(%rip), %rdx
 4848      000000
 4849 00e8 488D3500 		leaq	.LC38(%rip), %rsi
 4849      000000
 4850 00ef 488D3D00 		leaq	_ZN12_GLOBAL__N_135testValidCheckEqualSucceedsInstanceE(%rip), %rdi
 4850      000000
 4851 00f6 41B81800 		movl	$24, %r8d
 4851      0000
 4852 00fc E8000000 		call	_ZN8UnitTest4TestC2EPKcS2_S2_i@PLT
 4852      00
 4853 0101 488D1500 		leaq	__dso_handle(%rip), %rdx
 4853      000000
 4854 0108 488D3D00 		leaq	_ZN12_GLOBAL__N_127TestValidCheckEqualSucceedsD1Ev(%rip), %rdi
 4854      000000
 4855 010f 488D0500 		leaq	16+_ZTVN12_GLOBAL__N_127TestValidCheckEqualSucceedsE(%rip), %rax
 4855      000000
 4856 0116 4889DE   		movq	%rbx, %rsi
 4857 0119 48890500 		movq	%rax, _ZN12_GLOBAL__N_135testValidCheckEqualSucceedsInstanceE(%rip)
 4857      000000
 4858 0120 E8000000 		call	__cxa_atexit@PLT
 4858      00
 4859 0125 E8000000 		call	_ZN8UnitTest4Test11GetTestListEv@PLT
 4859      00
 4860 012a 488D3D00 		leaq	_ZN12_GLOBAL__N_128adderValidCheckEqualSucceedsE(%rip), %rdi
 4860      000000
 4861 0131 4889C6   		movq	%rax, %rsi
 4862 0134 4889DA   		movq	%rbx, %rdx
 4863 0137 488D1D00 		leaq	_ZN12_GLOBAL__N_139testCheckEqualWorksWithPointersInstanceE(%rip), %rbx
 4863      000000
 4864 013e E8000000 		call	_ZN8UnitTest9ListAdderC1ERNS_8TestListEPNS_4TestE@PLT
 4864      00
 4865 0143 488D0D00 		leaq	.LC35(%rip), %rcx
 4865      000000
 4866 014a 488D1500 		leaq	.LC31(%rip), %rdx
 4866      000000
 4867 0151 488D3500 		leaq	.LC39(%rip), %rsi
 4867      000000
 4868 0158 488D3D00 		leaq	_ZN12_GLOBAL__N_139testCheckEqualWorksWithPointersInstanceE(%rip), %rdi
 4868      000000
 4869 015f 41B81F00 		movl	$31, %r8d
 4869      0000
 4870 0165 E8000000 		call	_ZN8UnitTest4TestC2EPKcS2_S2_i@PLT
 4870      00
 4871 016a 488D1500 		leaq	__dso_handle(%rip), %rdx
 4871      000000
 4872 0171 488D3D00 		leaq	_ZN12_GLOBAL__N_131TestCheckEqualWorksWithPointersD1Ev(%rip), %rdi
 4872      000000
 4873 0178 488D0500 		leaq	16+_ZTVN12_GLOBAL__N_131TestCheckEqualWorksWithPointersE(%rip), %rax
 4873      000000
 4874 017f 4889DE   		movq	%rbx, %rsi
 4875 0182 48890500 		movq	%rax, _ZN12_GLOBAL__N_139testCheckEqualWorksWithPointersInstanceE(%rip)
 4875      000000
 4876 0189 E8000000 		call	__cxa_atexit@PLT
 4876      00
 4877 018e E8000000 		call	_ZN8UnitTest4Test11GetTestListEv@PLT
 4877      00
 4878 0193 488D3D00 		leaq	_ZN12_GLOBAL__N_132adderCheckEqualWorksWithPointersE(%rip), %rdi
 4878      000000
 4879 019a 4889C6   		movq	%rax, %rsi
 4880 019d 4889DA   		movq	%rbx, %rdx
 4881 01a0 488D1D00 		leaq	_ZN12_GLOBAL__N_135testValidCheckCloseSucceedsInstanceE(%rip), %rbx
 4881      000000
 4882 01a7 E8000000 		call	_ZN8UnitTest9ListAdderC1ERNS_8TestListEPNS_4TestE@PLT
 4882      00
 4883 01ac 488D0D00 		leaq	.LC35(%rip), %rcx
 4883      000000
 4884 01b3 488D1500 		leaq	.LC31(%rip), %rdx
 4884      000000
 4885 01ba 488D3500 		leaq	.LC40(%rip), %rsi
 4885      000000
 4886 01c1 488D3D00 		leaq	_ZN12_GLOBAL__N_135testValidCheckCloseSucceedsInstanceE(%rip), %rdi
 4886      000000
 4887 01c8 41B82500 		movl	$37, %r8d
 4887      0000
 4888 01ce E8000000 		call	_ZN8UnitTest4TestC2EPKcS2_S2_i@PLT
 4888      00
 4889 01d3 488D1500 		leaq	__dso_handle(%rip), %rdx
 4889      000000
 4890 01da 488D3D00 		leaq	_ZN12_GLOBAL__N_127TestValidCheckCloseSucceedsD1Ev(%rip), %rdi
 4890      000000
 4891 01e1 488D0500 		leaq	16+_ZTVN12_GLOBAL__N_127TestValidCheckCloseSucceedsE(%rip), %rax
 4891      000000
 4892 01e8 4889DE   		movq	%rbx, %rsi
 4893 01eb 48890500 		movq	%rax, _ZN12_GLOBAL__N_135testValidCheckCloseSucceedsInstanceE(%rip)
 4893      000000
 4894 01f2 E8000000 		call	__cxa_atexit@PLT
 4894      00
 4895 01f7 E8000000 		call	_ZN8UnitTest4Test11GetTestListEv@PLT
 4895      00
 4896 01fc 488D3D00 		leaq	_ZN12_GLOBAL__N_128adderValidCheckCloseSucceedsE(%rip), %rdi
 4896      000000
 4897 0203 4889C6   		movq	%rax, %rsi
 4898 0206 4889DA   		movq	%rbx, %rdx
 4899 0209 488D1D00 		leaq	_ZN12_GLOBAL__N_130testArrayCloseSucceedsInstanceE(%rip), %rbx
 4899      000000
 4900 0210 E8000000 		call	_ZN8UnitTest9ListAdderC1ERNS_8TestListEPNS_4TestE@PLT
 4900      00
 4901 0215 488D0D00 		leaq	.LC35(%rip), %rcx
 4901      000000
 4902 021c 488D1500 		leaq	.LC31(%rip), %rdx
 4902      000000
 4903 0223 488D3500 		leaq	.LC41(%rip), %rsi
 4903      000000
 4904 022a 488D3D00 		leaq	_ZN12_GLOBAL__N_130testArrayCloseSucceedsInstanceE(%rip), %rdi
 4904      000000
 4905 0231 41B82B00 		movl	$43, %r8d
 4905      0000
 4906 0237 E8000000 		call	_ZN8UnitTest4TestC2EPKcS2_S2_i@PLT
 4906      00
 4907 023c 488D1500 		leaq	__dso_handle(%rip), %rdx
 4907      000000
 4908 0243 488D3D00 		leaq	_ZN12_GLOBAL__N_122TestArrayCloseSucceedsD1Ev(%rip), %rdi
 4908      000000
 4909 024a 488D0500 		leaq	16+_ZTVN12_GLOBAL__N_122TestArrayCloseSucceedsE(%rip), %rax
 4909      000000
 4910 0251 4889DE   		movq	%rbx, %rsi
 4911 0254 48890500 		movq	%rax, _ZN12_GLOBAL__N_130testArrayCloseSucceedsInstanceE(%rip)
 4911      000000
 4912 025b E8000000 		call	__cxa_atexit@PLT
 4912      00
 4913 0260 E8000000 		call	_ZN8UnitTest4Test11GetTestListEv@PLT
 4913      00
 4914 0265 488D3D00 		leaq	_ZN12_GLOBAL__N_123adderArrayCloseSucceedsE(%rip), %rdi
 4914      000000
 4915 026c 4889C6   		movq	%rax, %rsi
 4916 026f 4889DA   		movq	%rbx, %rdx
 4917 0272 488D1D00 		leaq	_ZN12_GLOBAL__N_143testCheckArrayCloseWorksWithVectorsInstanceE(%rip), %rbx
 4917      000000
 4918 0279 E8000000 		call	_ZN8UnitTest9ListAdderC1ERNS_8TestListEPNS_4TestE@PLT
 4918      00
 4919 027e 488D0D00 		leaq	.LC35(%rip), %rcx
 4919      000000
 4920 0285 488D1500 		leaq	.LC31(%rip), %rdx
 4920      000000
 4921 028c 488D3500 		leaq	.LC42(%rip), %rsi
 4921      000000
 4922 0293 488D3D00 		leaq	_ZN12_GLOBAL__N_143testCheckArrayCloseWorksWithVectorsInstanceE(%rip), %rdi
 4922      000000
 4923 029a 41B83200 		movl	$50, %r8d
 4923      0000
 4924 02a0 E8000000 		call	_ZN8UnitTest4TestC2EPKcS2_S2_i@PLT
 4924      00
 4925 02a5 488D1500 		leaq	__dso_handle(%rip), %rdx
 4925      000000
 4926 02ac 488D3D00 		leaq	_ZN12_GLOBAL__N_135TestCheckArrayCloseWorksWithVectorsD1Ev(%rip), %rdi
 4926      000000
 4927 02b3 488D0500 		leaq	16+_ZTVN12_GLOBAL__N_135TestCheckArrayCloseWorksWithVectorsE(%rip), %rax
 4927      000000
 4928 02ba 4889DE   		movq	%rbx, %rsi
 4929 02bd 48890500 		movq	%rax, _ZN12_GLOBAL__N_143testCheckArrayCloseWorksWithVectorsInstanceE(%rip)
 4929      000000
 4930 02c4 E8000000 		call	__cxa_atexit@PLT
 4930      00
 4931 02c9 E8000000 		call	_ZN8UnitTest4Test11GetTestListEv@PLT
 4931      00
 4932 02ce 488D3D00 		leaq	_ZN12_GLOBAL__N_136adderCheckArrayCloseWorksWithVectorsE(%rip), %rdi
 4932      000000
 4933 02d5 4889C6   		movq	%rax, %rsi
 4934 02d8 4889DA   		movq	%rbx, %rdx
 4935 02db 488D1D00 		leaq	_ZN12_GLOBAL__N_153testCheckThrowMacroSucceedsOnCorrectExceptionInstanceE(%rip), %rbx
 4935      000000
 4936 02e2 E8000000 		call	_ZN8UnitTest9ListAdderC1ERNS_8TestListEPNS_4TestE@PLT
 4936      00
 4937 02e7 488D0D00 		leaq	.LC35(%rip), %rcx
 4937      000000
 4938 02ee 488D1500 		leaq	.LC31(%rip), %rdx
 4938      000000
 4939 02f5 488D3500 		leaq	.LC43(%rip), %rsi
 4939      000000
 4940 02fc 488D3D00 		leaq	_ZN12_GLOBAL__N_153testCheckThrowMacroSucceedsOnCorrectExceptionInstanceE(%rip), %rdi
 4940      000000
 4941 0303 41B83B00 		movl	$59, %r8d
 4941      0000
 4942 0309 E8000000 		call	_ZN8UnitTest4TestC2EPKcS2_S2_i@PLT
 4942      00
 4943 030e 488D1500 		leaq	__dso_handle(%rip), %rdx
 4943      000000
 4944 0315 488D3D00 		leaq	_ZN12_GLOBAL__N_145TestCheckThrowMacroSucceedsOnCorrectExceptionD1Ev(%rip), %rdi
 4944      000000
 4945 031c 488D0500 		leaq	16+_ZTVN12_GLOBAL__N_145TestCheckThrowMacroSucceedsOnCorrectExceptionE(%rip), %rax
 4945      000000
 4946 0323 4889DE   		movq	%rbx, %rsi
 4947 0326 48890500 		movq	%rax, _ZN12_GLOBAL__N_153testCheckThrowMacroSucceedsOnCorrectExceptionInstanceE(%rip)
 4947      000000
 4948 032d E8000000 		call	__cxa_atexit@PLT
 4948      00
 4949 0332 E8000000 		call	_ZN8UnitTest4Test11GetTestListEv@PLT
 4949      00
 4950 0337 488D3D00 		leaq	_ZN12_GLOBAL__N_146adderCheckThrowMacroSucceedsOnCorrectExceptionE(%rip), %rdi
 4950      000000
 4951 033e 4889C6   		movq	%rax, %rsi
 4952 0341 4889DA   		movq	%rbx, %rdx
 4953 0344 488D1D00 		leaq	_ZN12_GLOBAL__N_131testCheckAssertSucceedsInstanceE(%rip), %rbx
 4953      000000
 4954 034b E8000000 		call	_ZN8UnitTest9ListAdderC1ERNS_8TestListEPNS_4TestE@PLT
 4954      00
 4955 0350 488D0D00 		leaq	.LC35(%rip), %rcx
 4955      000000
 4956 0357 488D1500 		leaq	.LC31(%rip), %rdx
 4956      000000
 4957 035e 488D3500 		leaq	.LC44(%rip), %rsi
 4957      000000
 4958 0365 488D3D00 		leaq	_ZN12_GLOBAL__N_131testCheckAssertSucceedsInstanceE(%rip), %rdi
 4958      000000
 4959 036c 41B84100 		movl	$65, %r8d
 4959      0000
 4960 0372 E8000000 		call	_ZN8UnitTest4TestC2EPKcS2_S2_i@PLT
 4960      00
 4961 0377 488D1500 		leaq	__dso_handle(%rip), %rdx
 4961      000000
 4962 037e 488D3D00 		leaq	_ZN12_GLOBAL__N_123TestCheckAssertSucceedsD1Ev(%rip), %rdi
 4962      000000
 4963 0385 488D0500 		leaq	16+_ZTVN12_GLOBAL__N_123TestCheckAssertSucceedsE(%rip), %rax
 4963      000000
 4964 038c 4889DE   		movq	%rbx, %rsi
 4965 038f 48890500 		movq	%rax, _ZN12_GLOBAL__N_131testCheckAssertSucceedsInstanceE(%rip)
 4965      000000
 4966 0396 E8000000 		call	__cxa_atexit@PLT
 4966      00
 4967 039b E8000000 		call	_ZN8UnitTest4Test11GetTestListEv@PLT
 4967      00
 4968 03a0 488D3D00 		leaq	_ZN12_GLOBAL__N_124adderCheckAssertSucceedsE(%rip), %rdi
 4968      000000
 4969 03a7 4889C6   		movq	%rax, %rsi
 4970 03aa 4889DA   		movq	%rbx, %rdx
 4971 03ad 488D1D00 		leaq	_ZN12_GLOBAL__N_150testCheckThrowMacroFailsOnMissingExceptionInstanceE(%rip), %rbx
 4971      000000
 4972 03b4 E8000000 		call	_ZN8UnitTest9ListAdderC1ERNS_8TestListEPNS_4TestE@PLT
 4972      00
 4973 03b9 488D0D00 		leaq	.LC35(%rip), %rcx
 4973      000000
 4974 03c0 488D1500 		leaq	.LC31(%rip), %rdx
 4974      000000
 4975 03c7 488D3500 		leaq	.LC45(%rip), %rsi
 4975      000000
 4976 03ce 488D3D00 		leaq	_ZN12_GLOBAL__N_150testCheckThrowMacroFailsOnMissingExceptionInstanceE(%rip), %rdi
 4976      000000
 4977 03d5 41B84600 		movl	$70, %r8d
 4977      0000
 4978 03db E8000000 		call	_ZN8UnitTest4TestC2EPKcS2_S2_i@PLT
 4978      00
 4979 03e0 488D1500 		leaq	__dso_handle(%rip), %rdx
 4979      000000
 4980 03e7 488D3D00 		leaq	_ZN12_GLOBAL__N_142TestCheckThrowMacroFailsOnMissingExceptionD1Ev(%rip), %rdi
 4980      000000
 4981 03ee 488D0500 		leaq	16+_ZTVN12_GLOBAL__N_142TestCheckThrowMacroFailsOnMissingExceptionE(%rip), %rax
 4981      000000
 4982 03f5 4889DE   		movq	%rbx, %rsi
 4983 03f8 48890500 		movq	%rax, _ZN12_GLOBAL__N_150testCheckThrowMacroFailsOnMissingExceptionInstanceE(%rip)
 4983      000000
 4984 03ff E8000000 		call	__cxa_atexit@PLT
 4984      00
 4985 0404 E8000000 		call	_ZN8UnitTest4Test11GetTestListEv@PLT
 4985      00
 4986 0409 488D3D00 		leaq	_ZN12_GLOBAL__N_143adderCheckThrowMacroFailsOnMissingExceptionE(%rip), %rdi
 4986      000000
 4987 0410 4889C6   		movq	%rax, %rsi
 4988 0413 4889DA   		movq	%rbx, %rdx
 4989 0416 488D1D00 		leaq	_ZN12_GLOBAL__N_148testCheckThrowMacroFailsOnWrongExceptionInstanceE(%rip), %rbx
 4989      000000
 4990 041d E8000000 		call	_ZN8UnitTest9ListAdderC1ERNS_8TestListEPNS_4TestE@PLT
 4990      00
 4991 0422 488D0D00 		leaq	.LC35(%rip), %rcx
 4991      000000
 4992 0429 488D1500 		leaq	.LC31(%rip), %rdx
 4992      000000
 4993 0430 488D3500 		leaq	.LC46(%rip), %rsi
 4993      000000
 4994 0437 488D3D00 		leaq	_ZN12_GLOBAL__N_148testCheckThrowMacroFailsOnWrongExceptionInstanceE(%rip), %rdi
 4994      000000
 4995 043e 41B86100 		movl	$97, %r8d
 4995      0000
 4996 0444 E8000000 		call	_ZN8UnitTest4TestC2EPKcS2_S2_i@PLT
 4996      00
 4997 0449 488D1500 		leaq	__dso_handle(%rip), %rdx
 4997      000000
 4998 0450 488D3D00 		leaq	_ZN12_GLOBAL__N_140TestCheckThrowMacroFailsOnWrongExceptionD1Ev(%rip), %rdi
 4998      000000
 4999 0457 488D0500 		leaq	16+_ZTVN12_GLOBAL__N_140TestCheckThrowMacroFailsOnWrongExceptionE(%rip), %rax
 4999      000000
 5000 045e 4889DE   		movq	%rbx, %rsi
 5001 0461 48890500 		movq	%rax, _ZN12_GLOBAL__N_148testCheckThrowMacroFailsOnWrongExceptionInstanceE(%rip)
 5001      000000
 5002 0468 E8000000 		call	__cxa_atexit@PLT
 5002      00
 5003 046d E8000000 		call	_ZN8UnitTest4Test11GetTestListEv@PLT
 5003      00
 5004 0472 488D3D00 		leaq	_ZN12_GLOBAL__N_141adderCheckThrowMacroFailsOnWrongExceptionE(%rip), %rdi
 5004      000000
 5005 0479 4889C6   		movq	%rax, %rsi
 5006 047c 4889DA   		movq	%rbx, %rdx
 5007 047f 488D1D00 		leaq	_ZN12_GLOBAL__N_151testSimpleFixtureDefaultFixtureCtorIsCalledInstanceE(%rip), %rbx
 5007      000000
 5008 0486 E8000000 		call	_ZN8UnitTest9ListAdderC1ERNS_8TestListEPNS_4TestE@PLT
 5008      00
 5009 048b 488D0D00 		leaq	.LC35(%rip), %rcx
 5009      000000
 5010 0492 488D1500 		leaq	.LC31(%rip), %rdx
 5010      000000
 5011 0499 488D3500 		leaq	.LC47(%rip), %rsi
 5011      000000
 5012 04a0 488D3D00 		leaq	_ZN12_GLOBAL__N_151testSimpleFixtureDefaultFixtureCtorIsCalledInstanceE(%rip), %rdi
 5012      000000
 5013 04a7 41B88800 		movl	$136, %r8d
 5013      0000
 5014 04ad E8000000 		call	_ZN8UnitTest4TestC2EPKcS2_S2_i@PLT
 5014      00
 5015 04b2 488D1500 		leaq	__dso_handle(%rip), %rdx
 5015      000000
 5016 04b9 488D3D00 		leaq	_ZN12_GLOBAL__N_143TestSimpleFixtureDefaultFixtureCtorIsCalledD1Ev(%rip), %rdi
 5016      000000
 5017 04c0 488D0500 		leaq	16+_ZTVN12_GLOBAL__N_143TestSimpleFixtureDefaultFixtureCtorIsCalledE(%rip), %rax
 5017      000000
 5018 04c7 4889DE   		movq	%rbx, %rsi
 5019 04ca 48890500 		movq	%rax, _ZN12_GLOBAL__N_151testSimpleFixtureDefaultFixtureCtorIsCalledInstanceE(%rip)
 5019      000000
 5020 04d1 E8000000 		call	__cxa_atexit@PLT
 5020      00
 5021 04d6 E8000000 		call	_ZN8UnitTest4Test11GetTestListEv@PLT
 5021      00
 5022 04db 488D3D00 		leaq	_ZN12_GLOBAL__N_144adderSimpleFixtureDefaultFixtureCtorIsCalledE(%rip), %rdi
 5022      000000
 5023 04e2 4889C6   		movq	%rax, %rsi
 5024 04e5 4889DA   		movq	%rbx, %rdx
 5025 04e8 488D1D00 		leaq	_ZN12_GLOBAL__N_151testSimpleFixtureOnlyOneFixtureAliveAtATimeInstanceE(%rip), %rbx
 5025      000000
 5026 04ef E8000000 		call	_ZN8UnitTest9ListAdderC1ERNS_8TestListEPNS_4TestE@PLT
 5026      00
 5027 04f4 488D0D00 		leaq	.LC35(%rip), %rcx
 5027      000000
 5028 04fb 488D1500 		leaq	.LC31(%rip), %rdx
 5028      000000
 5029 0502 488D3500 		leaq	.LC48(%rip), %rsi
 5029      000000
 5030 0509 488D3D00 		leaq	_ZN12_GLOBAL__N_151testSimpleFixtureOnlyOneFixtureAliveAtATimeInstanceE(%rip), %rdi
 5030      000000
 5031 0510 41B88D00 		movl	$141, %r8d
 5031      0000
 5032 0516 E8000000 		call	_ZN8UnitTest4TestC2EPKcS2_S2_i@PLT
 5032      00
 5033 051b 488D1500 		leaq	__dso_handle(%rip), %rdx
 5033      000000
 5034 0522 488D3D00 		leaq	_ZN12_GLOBAL__N_143TestSimpleFixtureOnlyOneFixtureAliveAtATimeD1Ev(%rip), %rdi
 5034      000000
 5035 0529 488D0500 		leaq	16+_ZTVN12_GLOBAL__N_143TestSimpleFixtureOnlyOneFixtureAliveAtATimeE(%rip), %rax
 5035      000000
 5036 0530 4889DE   		movq	%rbx, %rsi
 5037 0533 48890500 		movq	%rax, _ZN12_GLOBAL__N_151testSimpleFixtureOnlyOneFixtureAliveAtATimeInstanceE(%rip)
 5037      000000
 5038 053a E8000000 		call	__cxa_atexit@PLT
 5038      00
 5039 053f E8000000 		call	_ZN8UnitTest4Test11GetTestListEv@PLT
 5039      00
 5040 0544 488D3D00 		leaq	_ZN12_GLOBAL__N_144adderSimpleFixtureOnlyOneFixtureAliveAtATimeE(%rip), %rdi
 5040      000000
 5041 054b 4889C6   		movq	%rax, %rsi
 5042 054e 4889DA   		movq	%rbx, %rdx
 5043 0551 488D1D00 		leaq	_ZN12_GLOBAL__N_145testCanCallCHECKOutsideOfTestFunctionInstanceE(%rip), %rbx
 5043      000000
 5044 0558 E8000000 		call	_ZN8UnitTest9ListAdderC1ERNS_8TestListEPNS_4TestE@PLT
 5044      00
 5045 055d 488D0D00 		leaq	.LC35(%rip), %rcx
 5045      000000
 5046 0564 488D1500 		leaq	.LC31(%rip), %rdx
 5046      000000
 5047 056b 488D3500 		leaq	.LC49(%rip), %rsi
 5047      000000
 5048 0572 488D3D00 		leaq	_ZN12_GLOBAL__N_145testCanCallCHECKOutsideOfTestFunctionInstanceE(%rip), %rdi
 5048      000000
 5049 0579 41B89700 		movl	$151, %r8d
 5049      0000
 5050 057f E8000000 		call	_ZN8UnitTest4TestC2EPKcS2_S2_i@PLT
 5050      00
 5051 0584 488D1500 		leaq	__dso_handle(%rip), %rdx
 5051      000000
 5052 058b 488D3D00 		leaq	_ZN12_GLOBAL__N_137TestCanCallCHECKOutsideOfTestFunctionD1Ev(%rip), %rdi
 5052      000000
 5053 0592 488D0500 		leaq	16+_ZTVN12_GLOBAL__N_137TestCanCallCHECKOutsideOfTestFunctionE(%rip), %rax
 5053      000000
 5054 0599 4889DE   		movq	%rbx, %rsi
 5055 059c 48890500 		movq	%rax, _ZN12_GLOBAL__N_145testCanCallCHECKOutsideOfTestFunctionInstanceE(%rip)
 5055      000000
 5056 05a3 E8000000 		call	__cxa_atexit@PLT
 5056      00
 5057 05a8 E8000000 		call	_ZN8UnitTest4Test11GetTestListEv@PLT
 5057      00
 5058 05ad 4889DA   		movq	%rbx, %rdx
 5059 05b0 488D3D00 		leaq	_ZN12_GLOBAL__N_138adderCanCallCHECKOutsideOfTestFunctionE(%rip), %rdi
 5059      000000
 5060 05b7 4889C6   		movq	%rax, %rsi
 5061 05ba 5B       		popq	%rbx
 5062              		.cfi_def_cfa_offset 8
 5063 05bb E9000000 		jmp	_ZN8UnitTest9ListAdderC1ERNS_8TestListEPNS_4TestE@PLT
 5063      00
 5064              		.cfi_endproc
 5065              	.LFE1700:
 5067              		.section	.init_array,"aw"
 5068              		.align 8
 5069 0000 00000000 		.quad	_GLOBAL__sub_I_TestUnitTest__.cpp
 5069      00000000 
 5070              		.weak	_ZTSN8UnitTest15MemoryOutStreamE
 5071              		.section	.rodata._ZTSN8UnitTest15MemoryOutStreamE,"aG",@progbits,_ZTSN8UnitTest15MemoryOutStreamE,
 5072              		.align 16
 5075              	_ZTSN8UnitTest15MemoryOutStreamE:
 5076 0000 4E38556E 		.string	"N8UnitTest15MemoryOutStreamE"
 5076      69745465 
 5076      73743135 
 5076      4D656D6F 
 5076      72794F75 
 5077              		.weak	_ZTIN8UnitTest15MemoryOutStreamE
 5078              		.section	.data.rel.ro._ZTIN8UnitTest15MemoryOutStreamE,"awG",@progbits,_ZTIN8UnitTest15MemoryOutSt
 5079              		.align 8
 5082              	_ZTIN8UnitTest15MemoryOutStreamE:
 5083 0000 00000000 		.quad	_ZTVN10__cxxabiv120__si_class_type_infoE+16
 5083      00000000 
 5084 0008 00000000 		.quad	_ZTSN8UnitTest15MemoryOutStreamE
 5084      00000000 
 5085 0010 00000000 		.quad	_ZTINSt7__cxx1119basic_ostringstreamIcSt11char_traitsIcESaIcEEE
 5085      00000000 
 5086              		.section	.data.rel.ro,"aw",@progbits
 5087              		.align 8
 5090              	_ZTIN12_GLOBAL__N_122TestValidCheckSucceedsE:
 5091 0000 00000000 		.quad	_ZTVN10__cxxabiv120__si_class_type_infoE+16
 5091      00000000 
 5092 0008 00000000 		.quad	_ZTSN12_GLOBAL__N_122TestValidCheckSucceedsE
 5092      00000000 
 5093 0010 00000000 		.quad	_ZTIN8UnitTest4TestE
 5093      00000000 
 5094              		.section	.rodata
 5095              		.align 32
 5098              	_ZTSN12_GLOBAL__N_122TestValidCheckSucceedsE:
 5099 0000 2A4E3132 		.string	"*N12_GLOBAL__N_122TestValidCheckSucceedsE"
 5099      5F474C4F 
 5099      42414C5F 
 5099      5F4E5F31 
 5099      32325465 
 5100              		.section	.data.rel.ro
 5101              		.align 8
 5104              	_ZTIN12_GLOBAL__N_126TestCheckWorksWithPointersE:
 5105 0018 00000000 		.quad	_ZTVN10__cxxabiv120__si_class_type_infoE+16
 5105      00000000 
 5106 0020 00000000 		.quad	_ZTSN12_GLOBAL__N_126TestCheckWorksWithPointersE
 5106      00000000 
 5107 0028 00000000 		.quad	_ZTIN8UnitTest4TestE
 5107      00000000 
 5108              		.section	.rodata
 5109 002a 00000000 		.align 32
 5109      00000000 
 5109      00000000 
 5109      00000000 
 5109      00000000 
 5112              	_ZTSN12_GLOBAL__N_126TestCheckWorksWithPointersE:
 5113 0040 2A4E3132 		.string	"*N12_GLOBAL__N_126TestCheckWorksWithPointersE"
 5113      5F474C4F 
 5113      42414C5F 
 5113      5F4E5F31 
 5113      32365465 
 5114              		.section	.data.rel.ro
 5115              		.align 8
 5118              	_ZTIN12_GLOBAL__N_127TestValidCheckEqualSucceedsE:
 5119 0030 00000000 		.quad	_ZTVN10__cxxabiv120__si_class_type_infoE+16
 5119      00000000 
 5120 0038 00000000 		.quad	_ZTSN12_GLOBAL__N_127TestValidCheckEqualSucceedsE
 5120      00000000 
 5121 0040 00000000 		.quad	_ZTIN8UnitTest4TestE
 5121      00000000 
 5122              		.section	.rodata
 5123 006e 00000000 		.align 32
 5123      00000000 
 5123      00000000 
 5123      00000000 
 5123      0000
 5126              	_ZTSN12_GLOBAL__N_127TestValidCheckEqualSucceedsE:
 5127 0080 2A4E3132 		.string	"*N12_GLOBAL__N_127TestValidCheckEqualSucceedsE"
 5127      5F474C4F 
 5127      42414C5F 
 5127      5F4E5F31 
 5127      32375465 
 5128              		.section	.data.rel.ro
 5129              		.align 8
 5132              	_ZTIN12_GLOBAL__N_131TestCheckEqualWorksWithPointersE:
 5133 0048 00000000 		.quad	_ZTVN10__cxxabiv120__si_class_type_infoE+16
 5133      00000000 
 5134 0050 00000000 		.quad	_ZTSN12_GLOBAL__N_131TestCheckEqualWorksWithPointersE
 5134      00000000 
 5135 0058 00000000 		.quad	_ZTIN8UnitTest4TestE
 5135      00000000 
 5136              		.section	.rodata
 5137 00af 00000000 		.align 32
 5137      00000000 
 5137      00000000 
 5137      00000000 
 5137      00
 5140              	_ZTSN12_GLOBAL__N_131TestCheckEqualWorksWithPointersE:
 5141 00c0 2A4E3132 		.string	"*N12_GLOBAL__N_131TestCheckEqualWorksWithPointersE"
 5141      5F474C4F 
 5141      42414C5F 
 5141      5F4E5F31 
 5141      33315465 
 5142              		.section	.data.rel.ro
 5143              		.align 8
 5146              	_ZTIN12_GLOBAL__N_127TestValidCheckCloseSucceedsE:
 5147 0060 00000000 		.quad	_ZTVN10__cxxabiv120__si_class_type_infoE+16
 5147      00000000 
 5148 0068 00000000 		.quad	_ZTSN12_GLOBAL__N_127TestValidCheckCloseSucceedsE
 5148      00000000 
 5149 0070 00000000 		.quad	_ZTIN8UnitTest4TestE
 5149      00000000 
 5150              		.section	.rodata
 5151 00f3 00000000 		.align 32
 5151      00000000 
 5151      00000000 
 5151      00
 5154              	_ZTSN12_GLOBAL__N_127TestValidCheckCloseSucceedsE:
 5155 0100 2A4E3132 		.string	"*N12_GLOBAL__N_127TestValidCheckCloseSucceedsE"
 5155      5F474C4F 
 5155      42414C5F 
 5155      5F4E5F31 
 5155      32375465 
 5156              		.section	.data.rel.ro
 5157              		.align 8
 5160              	_ZTIN12_GLOBAL__N_122TestArrayCloseSucceedsE:
 5161 0078 00000000 		.quad	_ZTVN10__cxxabiv120__si_class_type_infoE+16
 5161      00000000 
 5162 0080 00000000 		.quad	_ZTSN12_GLOBAL__N_122TestArrayCloseSucceedsE
 5162      00000000 
 5163 0088 00000000 		.quad	_ZTIN8UnitTest4TestE
 5163      00000000 
 5164              		.section	.rodata
 5165 012f 00000000 		.align 32
 5165      00000000 
 5165      00000000 
 5165      00000000 
 5165      00
 5168              	_ZTSN12_GLOBAL__N_122TestArrayCloseSucceedsE:
 5169 0140 2A4E3132 		.string	"*N12_GLOBAL__N_122TestArrayCloseSucceedsE"
 5169      5F474C4F 
 5169      42414C5F 
 5169      5F4E5F31 
 5169      32325465 
 5170              		.section	.data.rel.ro
 5171              		.align 8
 5174              	_ZTIN12_GLOBAL__N_135TestCheckArrayCloseWorksWithVectorsE:
 5175 0090 00000000 		.quad	_ZTVN10__cxxabiv120__si_class_type_infoE+16
 5175      00000000 
 5176 0098 00000000 		.quad	_ZTSN12_GLOBAL__N_135TestCheckArrayCloseWorksWithVectorsE
 5176      00000000 
 5177 00a0 00000000 		.quad	_ZTIN8UnitTest4TestE
 5177      00000000 
 5178              		.section	.rodata
 5179 016a 00000000 		.align 32
 5179      00000000 
 5179      00000000 
 5179      00000000 
 5179      00000000 
 5182              	_ZTSN12_GLOBAL__N_135TestCheckArrayCloseWorksWithVectorsE:
 5183 0180 2A4E3132 		.string	"*N12_GLOBAL__N_135TestCheckArrayCloseWorksWithVectorsE"
 5183      5F474C4F 
 5183      42414C5F 
 5183      5F4E5F31 
 5183      33355465 
 5184              		.section	.data.rel.ro
 5185              		.align 8
 5188              	_ZTIN12_GLOBAL__N_145TestCheckThrowMacroSucceedsOnCorrectExceptionE:
 5189 00a8 00000000 		.quad	_ZTVN10__cxxabiv120__si_class_type_infoE+16
 5189      00000000 
 5190 00b0 00000000 		.quad	_ZTSN12_GLOBAL__N_145TestCheckThrowMacroSucceedsOnCorrectExceptionE
 5190      00000000 
 5191 00b8 00000000 		.quad	_ZTIN8UnitTest4TestE
 5191      00000000 
 5192              		.section	.rodata
 5193 01b7 00000000 		.align 32
 5193      00000000 
 5193      00
 5196              	_ZTSN12_GLOBAL__N_145TestCheckThrowMacroSucceedsOnCorrectExceptionE:
 5197 01c0 2A4E3132 		.string	"*N12_GLOBAL__N_145TestCheckThrowMacroSucceedsOnCorrectExceptionE"
 5197      5F474C4F 
 5197      42414C5F 
 5197      5F4E5F31 
 5197      34355465 
 5198              		.section	.data.rel.ro
 5199              		.align 8
 5202              	_ZTIZNK12_GLOBAL__N_145TestCheckThrowMacroSucceedsOnCorrectException7RunImplEvE13TestException:
 5203 00c0 00000000 		.quad	_ZTVN10__cxxabiv117__class_type_infoE+16
 5203      00000000 
 5204 00c8 00000000 		.quad	_ZTSZNK12_GLOBAL__N_145TestCheckThrowMacroSucceedsOnCorrectException7RunImplEvE13TestExcepti
 5204      00000000 
 5205              		.section	.rodata
 5206 0201 00000000 		.align 32
 5206      00000000 
 5206      00000000 
 5206      00000000 
 5206      00000000 
 5209              	_ZTSZNK12_GLOBAL__N_145TestCheckThrowMacroSucceedsOnCorrectException7RunImplEvE13TestException:
 5210 0220 2A5A4E4B 		.string	"*ZNK12_GLOBAL__N_145TestCheckThrowMacroSucceedsOnCorrectException7RunImplEvE13TestExcepti
 5210      31325F47 
 5210      4C4F4241 
 5210      4C5F5F4E 
 5210      5F313435 
 5211              		.section	.data.rel.ro
 5212              		.align 8
 5215              	_ZTIN12_GLOBAL__N_123TestCheckAssertSucceedsE:
 5216 00d0 00000000 		.quad	_ZTVN10__cxxabiv120__si_class_type_infoE+16
 5216      00000000 
 5217 00d8 00000000 		.quad	_ZTSN12_GLOBAL__N_123TestCheckAssertSucceedsE
 5217      00000000 
 5218 00e0 00000000 		.quad	_ZTIN8UnitTest4TestE
 5218      00000000 
 5219              		.section	.rodata
 5220 027c 00000000 		.align 32
 5223              	_ZTSN12_GLOBAL__N_123TestCheckAssertSucceedsE:
 5224 0280 2A4E3132 		.string	"*N12_GLOBAL__N_123TestCheckAssertSucceedsE"
 5224      5F474C4F 
 5224      42414C5F 
 5224      5F4E5F31 
 5224      32335465 
 5225              		.section	.data.rel.ro
 5226              		.align 8
 5229              	_ZTIN12_GLOBAL__N_142TestCheckThrowMacroFailsOnMissingExceptionE:
 5230 00e8 00000000 		.quad	_ZTVN10__cxxabiv120__si_class_type_infoE+16
 5230      00000000 
 5231 00f0 00000000 		.quad	_ZTSN12_GLOBAL__N_142TestCheckThrowMacroFailsOnMissingExceptionE
 5231      00000000 
 5232 00f8 00000000 		.quad	_ZTIN8UnitTest4TestE
 5232      00000000 
 5233              		.section	.rodata
 5234 02ab 00000000 		.align 32
 5234      00000000 
 5234      00000000 
 5234      00000000 
 5234      00000000 
 5237              	_ZTSN12_GLOBAL__N_142TestCheckThrowMacroFailsOnMissingExceptionE:
 5238 02c0 2A4E3132 		.string	"*N12_GLOBAL__N_142TestCheckThrowMacroFailsOnMissingExceptionE"
 5238      5F474C4F 
 5238      42414C5F 
 5238      5F4E5F31 
 5238      34325465 
 5239              		.section	.data.rel.ro
 5240              		.align 8
 5243              	_ZTIZNK12_GLOBAL__N_142TestCheckThrowMacroFailsOnMissingException7RunImplEvE11NoThrowTest:
 5244 0100 00000000 		.quad	_ZTVN10__cxxabiv120__si_class_type_infoE+16
 5244      00000000 
 5245 0108 00000000 		.quad	_ZTSZNK12_GLOBAL__N_142TestCheckThrowMacroFailsOnMissingException7RunImplEvE11NoThrowTest
 5245      00000000 
 5246 0110 00000000 		.quad	_ZTIN8UnitTest4TestE
 5246      00000000 
 5247              		.section	.rodata
 5248 02fe 0000     		.align 32
 5251              	_ZTSZNK12_GLOBAL__N_142TestCheckThrowMacroFailsOnMissingException7RunImplEvE11NoThrowTest:
 5252 0300 2A5A4E4B 		.string	"*ZNK12_GLOBAL__N_142TestCheckThrowMacroFailsOnMissingException7RunImplEvE11NoThrowTest"
 5252      31325F47 
 5252      4C4F4241 
 5252      4C5F5F4E 
 5252      5F313432 
 5253              		.section	.data.rel.ro
 5254              		.align 8
 5257              	_ZTIN12_GLOBAL__N_140TestCheckThrowMacroFailsOnWrongExceptionE:
 5258 0118 00000000 		.quad	_ZTVN10__cxxabiv120__si_class_type_infoE+16
 5258      00000000 
 5259 0120 00000000 		.quad	_ZTSN12_GLOBAL__N_140TestCheckThrowMacroFailsOnWrongExceptionE
 5259      00000000 
 5260 0128 00000000 		.quad	_ZTIN8UnitTest4TestE
 5260      00000000 
 5261              		.section	.rodata
 5262 0357 00000000 		.align 32
 5262      00000000 
 5262      00
 5265              	_ZTSN12_GLOBAL__N_140TestCheckThrowMacroFailsOnWrongExceptionE:
 5266 0360 2A4E3132 		.string	"*N12_GLOBAL__N_140TestCheckThrowMacroFailsOnWrongExceptionE"
 5266      5F474C4F 
 5266      42414C5F 
 5266      5F4E5F31 
 5266      34305465 
