   1              		.file	"testI2C.cpp"
   2              		.text
   3              	.Ltext0:
   4              		.section	.rodata
   5              	.LC0:
   6 0000 44656661 		.string	"DefaultSuite"
   6      756C7453 
   6      75697465 
   6      00
   7              		.section	.text._ZN13UnitTestSuite12GetSuiteNameEv,"axG",@progbits,_ZN13UnitTestSuite12GetSuiteName
   8              		.weak	_ZN13UnitTestSuite12GetSuiteNameEv
  10              	_ZN13UnitTestSuite12GetSuiteNameEv:
  11              	.LFB0:
  12              		.file 1 "/home/gani/eval/20140524/makestuff/libs/libutpp/TestSuite.h"
   1:/home/gani/eval/20140524/makestuff/libs/libutpp/TestSuite.h **** #ifndef UNITTEST_TESTSUITE_H
   2:/home/gani/eval/20140524/makestuff/libs/libutpp/TestSuite.h **** #define UNITTEST_TESTSUITE_H
   3:/home/gani/eval/20140524/makestuff/libs/libutpp/TestSuite.h **** 
   4:/home/gani/eval/20140524/makestuff/libs/libutpp/TestSuite.h **** namespace UnitTestSuite {
   5:/home/gani/eval/20140524/makestuff/libs/libutpp/TestSuite.h **** 
   6:/home/gani/eval/20140524/makestuff/libs/libutpp/TestSuite.h ****     inline char const* GetSuiteName ()
   7:/home/gani/eval/20140524/makestuff/libs/libutpp/TestSuite.h ****     {
  13              		.loc 1 7 0
  14              		.cfi_startproc
  15 0000 55       		pushq	%rbp
  16              		.cfi_def_cfa_offset 16
  17              		.cfi_offset 6, -16
  18 0001 4889E5   		movq	%rsp, %rbp
  19              		.cfi_def_cfa_register 6
   8:/home/gani/eval/20140524/makestuff/libs/libutpp/TestSuite.h ****         return "DefaultSuite";
  20              		.loc 1 8 0
  21 0004 488D0500 		leaq	.LC0(%rip), %rax
  21      000000
   9:/home/gani/eval/20140524/makestuff/libs/libutpp/TestSuite.h ****     }
  22              		.loc 1 9 0
  23 000b 5D       		popq	%rbp
  24              		.cfi_def_cfa 7, 8
  25 000c C3       		ret
  26              		.cfi_endproc
  27              	.LFE0:
  29              		.section	.text._ZN8UnitTest15MemoryOutStreamC1Ev,"axG",@progbits,_ZN8UnitTest15MemoryOutStreamC1Ev
  30              		.align 2
  31              		.weak	_ZN8UnitTest15MemoryOutStreamC1Ev
  33              	_ZN8UnitTest15MemoryOutStreamC1Ev:
  34              	.LFB1076:
  35              		.file 2 "/home/gani/eval/20140524/makestuff/libs/libutpp/MemoryOutStream.h"
   1:/home/gani/eval/20140524/makestuff/libs/libutpp/MemoryOutStream.h **** #ifndef UNITTEST_MEMORYOUTSTREAM_H
   2:/home/gani/eval/20140524/makestuff/libs/libutpp/MemoryOutStream.h **** #define UNITTEST_MEMORYOUTSTREAM_H
   3:/home/gani/eval/20140524/makestuff/libs/libutpp/MemoryOutStream.h **** 
   4:/home/gani/eval/20140524/makestuff/libs/libutpp/MemoryOutStream.h **** #include "Config.h"
   5:/home/gani/eval/20140524/makestuff/libs/libutpp/MemoryOutStream.h **** 
   6:/home/gani/eval/20140524/makestuff/libs/libutpp/MemoryOutStream.h **** #ifndef UNITTEST_USE_CUSTOM_STREAMS
   7:/home/gani/eval/20140524/makestuff/libs/libutpp/MemoryOutStream.h **** 
   8:/home/gani/eval/20140524/makestuff/libs/libutpp/MemoryOutStream.h **** #include <sstream>
   9:/home/gani/eval/20140524/makestuff/libs/libutpp/MemoryOutStream.h **** 
  10:/home/gani/eval/20140524/makestuff/libs/libutpp/MemoryOutStream.h **** namespace UnitTest
  11:/home/gani/eval/20140524/makestuff/libs/libutpp/MemoryOutStream.h **** {
  12:/home/gani/eval/20140524/makestuff/libs/libutpp/MemoryOutStream.h **** 
  13:/home/gani/eval/20140524/makestuff/libs/libutpp/MemoryOutStream.h **** class MemoryOutStream : public std::ostringstream
  14:/home/gani/eval/20140524/makestuff/libs/libutpp/MemoryOutStream.h **** {
  15:/home/gani/eval/20140524/makestuff/libs/libutpp/MemoryOutStream.h **** public:
  16:/home/gani/eval/20140524/makestuff/libs/libutpp/MemoryOutStream.h ****     MemoryOutStream() {}
  36              		.loc 2 16 0
  37              		.cfi_startproc
  38              		.cfi_personality 0x9b,DW.ref.__gxx_personality_v0
  39              		.cfi_lsda 0x1b,.LLSDA1076
  40 0000 55       		pushq	%rbp
  41              		.cfi_def_cfa_offset 16
  42              		.cfi_offset 6, -16
  43 0001 4889E5   		movq	%rsp, %rbp
  44              		.cfi_def_cfa_register 6
  45 0004 53       		pushq	%rbx
  46 0005 4883EC18 		subq	$24, %rsp
  47              		.cfi_offset 3, -24
  48 0009 48897DE8 		movq	%rdi, -24(%rbp)
  49              	.LBB2:
  50              		.loc 2 16 0
  51 000d 488B45E8 		movq	-24(%rbp), %rax
  52 0011 48059000 		addq	$144, %rax
  52      0000
  53 0017 4889C7   		movq	%rax, %rdi
  54              	.LEHB0:
  55 001a E8000000 		call	_ZNSt9basic_iosIcSt11char_traitsIcEEC2Ev@PLT
  55      00
  56              	.LEHE0:
  57 001f 488B45E8 		movq	-24(%rbp), %rax
  58 0023 488D0D00 		leaq	8+_ZTTN8UnitTest15MemoryOutStreamE(%rip), %rcx
  58      000000
  59 002a BA100000 		movl	$16, %edx
  59      00
  60 002f 4889CE   		movq	%rcx, %rsi
  61 0032 4889C7   		movq	%rax, %rdi
  62              	.LEHB1:
  63 0035 E8000000 		call	_ZNSt7__cxx1119basic_ostringstreamIcSt11char_traitsIcESaIcEEC2ESt13_Ios_Openmode@PLT
  63      00
  64              	.LEHE1:
  65              		.loc 2 16 0 is_stmt 0 discriminator 8
  66 003a 488D1500 		leaq	24+_ZTVN8UnitTest15MemoryOutStreamE(%rip), %rdx
  66      000000
  67 0041 488B45E8 		movq	-24(%rbp), %rax
  68 0045 488910   		movq	%rdx, (%rax)
  69 0048 488B45E8 		movq	-24(%rbp), %rax
  70 004c 488D9090 		leaq	144(%rax), %rdx
  70      000000
  71 0053 488D0500 		leaq	64+_ZTVN8UnitTest15MemoryOutStreamE(%rip), %rax
  71      000000
  72 005a 488902   		movq	%rax, (%rdx)
  73 005d 488B45E8 		movq	-24(%rbp), %rax
  74 0061 4883C070 		addq	$112, %rax
  75 0065 4889C7   		movq	%rax, %rdi
  76              	.LEHB2:
  77 0068 E8000000 		call	_ZNSt7__cxx1112basic_stringIcSt11char_traitsIcESaIcEEC1Ev@PLT
  77      00
  78              	.LEHE2:
  79              	.LBE2:
  80              		.loc 2 16 0
  81 006d EB3B     		jmp	.L9
  82              	.L7:
  83 006f 4889C3   		movq	%rax, %rbx
  84              	.LBB3:
  85 0072 488B45E8 		movq	-24(%rbp), %rax
  86 0076 488D1500 		leaq	8+_ZTTN8UnitTest15MemoryOutStreamE(%rip), %rdx
  86      000000
  87 007d 4889D6   		movq	%rdx, %rsi
  88 0080 4889C7   		movq	%rax, %rdi
  89 0083 E8000000 		call	_ZNSt7__cxx1119basic_ostringstreamIcSt11char_traitsIcESaIcEED2Ev@PLT
  89      00
  90 0088 EB03     		jmp	.L8
  91              	.L6:
  92 008a 4889C3   		movq	%rax, %rbx
  93              	.L8:
  94              		.loc 2 16 0 discriminator 11
  95 008d 488B45E8 		movq	-24(%rbp), %rax
  96 0091 48059000 		addq	$144, %rax
  96      0000
  97 0097 4889C7   		movq	%rax, %rdi
  98 009a E8000000 		call	_ZNSt9basic_iosIcSt11char_traitsIcEED2Ev@PLT
  98      00
  99 009f 4889D8   		movq	%rbx, %rax
 100 00a2 4889C7   		movq	%rax, %rdi
 101              	.LEHB3:
 102 00a5 E8000000 		call	_Unwind_Resume@PLT
 102      00
 103              	.LEHE3:
 104              	.L9:
 105              	.LBE3:
 106              		.loc 2 16 0
 107 00aa 4883C418 		addq	$24, %rsp
 108 00ae 5B       		popq	%rbx
 109 00af 5D       		popq	%rbp
 110              		.cfi_def_cfa 7, 8
 111 00b0 C3       		ret
 112              		.cfi_endproc
 113              	.LFE1076:
 114              		.globl	__gxx_personality_v0
 115              		.section	.gcc_except_table._ZN8UnitTest15MemoryOutStreamC1Ev,"aG",@progbits,_ZN8UnitTest15MemoryOu
 116              	.LLSDA1076:
 117 0000 FF       		.byte	0xff
 118 0001 FF       		.byte	0xff
 119 0002 01       		.byte	0x1
 120 0003 12       		.uleb128 .LLSDACSE1076-.LLSDACSB1076
 121              	.LLSDACSB1076:
 122 0004 1A       		.uleb128 .LEHB0-.LFB1076
 123 0005 05       		.uleb128 .LEHE0-.LEHB0
 124 0006 00       		.uleb128 0
 125 0007 00       		.uleb128 0
 126 0008 35       		.uleb128 .LEHB1-.LFB1076
 127 0009 05       		.uleb128 .LEHE1-.LEHB1
 128 000a 8A01     		.uleb128 .L6-.LFB1076
 129 000c 00       		.uleb128 0
 130 000d 68       		.uleb128 .LEHB2-.LFB1076
 131 000e 05       		.uleb128 .LEHE2-.LEHB2
 132 000f 6F       		.uleb128 .L7-.LFB1076
 133 0010 00       		.uleb128 0
 134 0011 A501     		.uleb128 .LEHB3-.LFB1076
 135 0013 05       		.uleb128 .LEHE3-.LEHB3
 136 0014 00       		.uleb128 0
 137 0015 00       		.uleb128 0
 138              	.LLSDACSE1076:
 139              		.section	.text._ZN8UnitTest15MemoryOutStreamC1Ev,"axG",@progbits,_ZN8UnitTest15MemoryOutStreamC1Ev
 141              		.section	.rodata
 142              	.LC1:
 143 000d 74657374 		.string	"testI2C.cpp"
 143      4932432E 
 143      63707000 
 144              	.LC2:
 145 0019 4932435F 		.string	"I2C_testInitialise"
 145      74657374 
 145      496E6974 
 145      69616C69 
 145      736500
 146              		.section	.text._ZN22TestI2C_testInitialiseC2Ev,"axG",@progbits,_ZN22TestI2C_testInitialiseC5Ev,com
 147              		.align 2
 148              		.weak	_ZN22TestI2C_testInitialiseC2Ev
 150              	_ZN22TestI2C_testInitialiseC2Ev:
 151              	.LFB1093:
 152              		.file 3 "testI2C.cpp"
   1:testI2C.cpp   **** /*
   2:testI2C.cpp   ****  * Copyright (C) 2009-2012 Chris McClelland
   3:testI2C.cpp   ****  *
   4:testI2C.cpp   ****  * This program is free software: you can redistribute it and/or modify
   5:testI2C.cpp   ****  * it under the terms of the GNU Lesser General Public License as published by
   6:testI2C.cpp   ****  * the Free Software Foundation, either version 3 of the License, or
   7:testI2C.cpp   ****  * (at your option) any later version.
   8:testI2C.cpp   ****  *
   9:testI2C.cpp   ****  * This program is distributed in the hope that it will be useful,
  10:testI2C.cpp   ****  * but WITHOUT ANY WARRANTY; without even the implied warranty of
  11:testI2C.cpp   ****  * MERCHANTABILITY or FITNESS FOR A PARTICULAR PURPOSE.  See the
  12:testI2C.cpp   ****  * GNU Lesser General Public License for more details.
  13:testI2C.cpp   ****  *
  14:testI2C.cpp   ****  * You should have received a copy of the GNU Lesser General Public License
  15:testI2C.cpp   ****  * along with this program.  If not, see <http://www.gnu.org/licenses/>.
  16:testI2C.cpp   ****  */
  17:testI2C.cpp   **** #include <string.h>
  18:testI2C.cpp   **** #include <UnitTest++.h>
  19:testI2C.cpp   **** #include <makestuff.h>
  20:testI2C.cpp   **** #include <libbuffer.h>
  21:testI2C.cpp   **** #include "../libfx2loader.h"
  22:testI2C.cpp   **** #include "../libfx2loader.h"
  23:testI2C.cpp   **** 
  24:testI2C.cpp   **** #define VID 0x04b4
  25:testI2C.cpp   **** #define PID 0x8613
  26:testI2C.cpp   **** #define DID 0x0000
  27:testI2C.cpp   **** 
  28:testI2C.cpp   **** #define LSB(x) (x & 0xFF)
  29:testI2C.cpp   **** #define MSB(x) (x >> 8)
  30:testI2C.cpp   **** 
  31:testI2C.cpp   **** TEST(I2C_testInitialise) {
 153              		.loc 3 31 0 is_stmt 1
 154              		.cfi_startproc
 155 0000 55       		pushq	%rbp
 156              		.cfi_def_cfa_offset 16
 157              		.cfi_offset 6, -16
 158 0001 4889E5   		movq	%rsp, %rbp
 159              		.cfi_def_cfa_register 6
 160 0004 53       		pushq	%rbx
 161 0005 4883EC18 		subq	$24, %rsp
 162              		.cfi_offset 3, -24
 163 0009 48897DE8 		movq	%rdi, -24(%rbp)
 164              	.LBB4:
 165              		.loc 3 31 0
 166 000d 488B5DE8 		movq	-24(%rbp), %rbx
 167 0011 E8000000 		call	_ZN13UnitTestSuite12GetSuiteNameEv
 167      00
 168 0016 41B81F00 		movl	$31, %r8d
 168      0000
 169 001c 488D0D00 		leaq	.LC1(%rip), %rcx
 169      000000
 170 0023 4889C2   		movq	%rax, %rdx
 171 0026 488D3500 		leaq	.LC2(%rip), %rsi
 171      000000
 172 002d 4889DF   		movq	%rbx, %rdi
 173 0030 E8000000 		call	_ZN8UnitTest4TestC2EPKcS2_S2_i@PLT
 173      00
 174 0035 488D1500 		leaq	16+_ZTV22TestI2C_testInitialise(%rip), %rdx
 174      000000
 175 003c 488B45E8 		movq	-24(%rbp), %rax
 176 0040 488910   		movq	%rdx, (%rax)
 177              	.LBE4:
 178 0043 90       		nop
 179 0044 4883C418 		addq	$24, %rsp
 180 0048 5B       		popq	%rbx
 181 0049 5D       		popq	%rbp
 182              		.cfi_def_cfa 7, 8
 183 004a C3       		ret
 184              		.cfi_endproc
 185              	.LFE1093:
 187              		.weak	_ZN22TestI2C_testInitialiseC1Ev
 188              		.set	_ZN22TestI2C_testInitialiseC1Ev,_ZN22TestI2C_testInitialiseC2Ev
 189              		.globl	testI2C_testInitialiseInstance
 190              		.bss
 191              		.align 32
 194              	testI2C_testInitialiseInstance:
 195 0000 00000000 		.zero	56
 195      00000000 
 195      00000000 
 195      00000000 
 195      00000000 
 196              		.globl	adderI2C_testInitialise
 199              	adderI2C_testInitialise:
 200 0038 00       		.zero	1
 201              		.section	.rodata
 202 002c 00000000 		.align 8
 203              	.LC3:
 204 0030 556E6861 		.string	"Unhandled exception in CHECK_EQUAL(BUF_SUCCESS, bStatus)"
 204      6E646C65 
 204      64206578 
 204      63657074 
 204      696F6E20 
 205 0069 00000000 		.align 8
 205      000000
 206              	.LC4:
 207 0070 556E6861 		.string	"Unhandled exception in CHECK_EQUAL(I2C_SUCCESS, iStatus)"
 207      6E646C65 
 207      64206578 
 207      63657074 
 207      696F6E20 
 208 00a9 00000000 		.align 8
 208      000000
 209              	.LC5:
 210 00b0 556E6861 		.string	"Unhandled exception in CHECK_EQUAL(8UL+5UL, i2cBuffer.length)"
 210      6E646C65 
 210      64206578 
 210      63657074 
 210      696F6E20 
 211 00ee 0000     		.align 8
 212              	.LC6:
 213 00f0 556E6861 		.string	"Unhandled exception in CHECK_EQUAL(1024UL, i2cBuffer.capacity)"
 213      6E646C65 
 213      64206578 
 213      63657074 
 213      696F6E20 
 214 012f 00       		.align 8
 215              	.LC7:
 216 0130 556E6861 		.string	"Unhandled exception in CHECK_ARRAY_EQUAL(expected, i2cBuffer.data)"
 216      6E646C65 
 216      64206578 
 216      63657074 
 216      696F6E20 
 217              		.text
 218              		.align 2
 219              		.globl	_ZNK22TestI2C_testInitialise7RunImplEv
 221              	_ZNK22TestI2C_testInitialise7RunImplEv:
 222              	.LFB1095:
 223              		.loc 3 31 0
 224              		.cfi_startproc
 225              		.cfi_personality 0x9b,DW.ref.__gxx_personality_v0
 226              		.cfi_lsda 0x1b,.LLSDA1095
 227 0000 55       		pushq	%rbp
 228              		.cfi_def_cfa_offset 16
 229              		.cfi_offset 6, -16
 230 0001 4889E5   		movq	%rsp, %rbp
 231              		.cfi_def_cfa_register 6
 232 0004 53       		pushq	%rbx
 233 0005 4881EC88 		subq	$136, %rsp
 233      000000
 234              		.cfi_offset 3, -24
 235 000c 4889BD78 		movq	%rdi, -136(%rbp)
 235      FFFFFF
 236              		.loc 3 31 0
 237 0013 64488B04 		movq	%fs:40, %rax
 237      25280000 
 237      00
 238 001c 488945E8 		movq	%rax, -24(%rbp)
 239 0020 31C0     		xorl	%eax, %eax
  32:testI2C.cpp   **** 	Buffer i2cBuffer;
  33:testI2C.cpp   **** 	I2CStatus iStatus;
  34:testI2C.cpp   **** 	BufferStatus bStatus;
  35:testI2C.cpp   **** 	const uint8 expected[] = {0xC2, LSB(VID), MSB(VID), LSB(PID), MSB(PID), LSB(DID), MSB(DID), CONFIG
 240              		.loc 3 35 0
 241 0022 C645DBC2 		movb	$-62, -37(%rbp)
 242 0026 C645DCB4 		movb	$-76, -36(%rbp)
 243 002a C645DD04 		movb	$4, -35(%rbp)
 244 002e C645DE13 		movb	$19, -34(%rbp)
 245 0032 C645DF86 		movb	$-122, -33(%rbp)
 246 0036 C645E000 		movb	$0, -32(%rbp)
 247 003a C645E100 		movb	$0, -31(%rbp)
 248 003e C645E201 		movb	$1, -30(%rbp)
 249 0042 C645E380 		movb	$-128, -29(%rbp)
 250 0046 C645E401 		movb	$1, -28(%rbp)
 251 004a C645E5E6 		movb	$-26, -27(%rbp)
 252 004e C645E600 		movb	$0, -26(%rbp)
 253 0052 C645E700 		movb	$0, -25(%rbp)
  36:testI2C.cpp   **** 	bStatus = bufInitialise(&i2cBuffer, 1024, 0x00, NULL);
 254              		.loc 3 36 0
 255 0056 488D4590 		leaq	-112(%rbp), %rax
 256 005a B9000000 		movl	$0, %ecx
 256      00
 257 005f BA000000 		movl	$0, %edx
 257      00
 258 0064 BE000400 		movl	$1024, %esi
 258      00
 259 0069 4889C7   		movq	%rax, %rdi
 260              	.LEHB4:
 261 006c E8000000 		call	bufInitialise@PLT
 261      00
 262              	.LEHE4:
 263 0071 894584   		movl	%eax, -124(%rbp)
 264              	.LEHB5:
  37:testI2C.cpp   **** 	CHECK_EQUAL(BUF_SUCCESS, bStatus);
 265              		.loc 3 37 0
 266 0074 E8000000 		call	_ZN8UnitTest11CurrentTest7DetailsEv@PLT
 266      00
 267 0079 488B08   		movq	(%rax), %rcx
 268 007c 488D45B0 		leaq	-80(%rbp), %rax
 269 0080 BA250000 		movl	$37, %edx
 269      00
 270 0085 4889CE   		movq	%rcx, %rsi
 271 0088 4889C7   		movq	%rax, %rdi
 272 008b E8000000 		call	_ZN8UnitTest11TestDetailsC1ERKS0_i@PLT
 272      00
 273              	.LEHE5:
 274              		.loc 3 37 0 is_stmt 0 discriminator 2
 275 0090 C7458800 		movl	$0, -120(%rbp)
 275      000000
 276              	.LEHB6:
 277 0097 E8000000 		call	_ZN8UnitTest11CurrentTest7ResultsEv@PLT
 277      00
 278 009c 488B00   		movq	(%rax), %rax
 279 009f 488D4DB0 		leaq	-80(%rbp), %rcx
 280 00a3 488D5584 		leaq	-124(%rbp), %rdx
 281 00a7 488D7588 		leaq	-120(%rbp), %rsi
 282 00ab 4889C7   		movq	%rax, %rdi
 283 00ae E8000000 		call	_ZN8UnitTest10CheckEqualI12BufferStatusS1_EEvRNS_11TestResultsERKT_RKT0_RKNS_11TestDetailsE
 283      00
 284              	.LEHE6:
 285              	.L14:
  38:testI2C.cpp   **** 	i2cInitialise(&i2cBuffer, VID, PID, DID, CONFIG_BYTE_400KHZ);
 286              		.loc 3 38 0 is_stmt 1
 287 00b3 488D4590 		leaq	-112(%rbp), %rax
 288 00b7 41B80100 		movl	$1, %r8d
 288      0000
 289 00bd B9000000 		movl	$0, %ecx
 289      00
 290 00c2 BA138600 		movl	$34323, %edx
 290      00
 291 00c7 BEB40400 		movl	$1204, %esi
 291      00
 292 00cc 4889C7   		movq	%rax, %rdi
 293              	.LEHB7:
 294 00cf E8000000 		call	i2cInitialise@PLT
 294      00
  39:testI2C.cpp   **** 	iStatus = i2cFinalise(&i2cBuffer, NULL);
 295              		.loc 3 39 0
 296 00d4 488D4590 		leaq	-112(%rbp), %rax
 297 00d8 BE000000 		movl	$0, %esi
 297      00
 298 00dd 4889C7   		movq	%rax, %rdi
 299 00e0 E8000000 		call	i2cFinalise@PLT
 299      00
 300              	.LEHE7:
 301 00e5 894580   		movl	%eax, -128(%rbp)
 302              	.LEHB8:
  40:testI2C.cpp   **** 	CHECK_EQUAL(I2C_SUCCESS, iStatus);
 303              		.loc 3 40 0
 304 00e8 E8000000 		call	_ZN8UnitTest11CurrentTest7DetailsEv@PLT
 304      00
 305 00ed 488B08   		movq	(%rax), %rcx
 306 00f0 488D45B0 		leaq	-80(%rbp), %rax
 307 00f4 BA280000 		movl	$40, %edx
 307      00
 308 00f9 4889CE   		movq	%rcx, %rsi
 309 00fc 4889C7   		movq	%rax, %rdi
 310 00ff E8000000 		call	_ZN8UnitTest11TestDetailsC1ERKS0_i@PLT
 310      00
 311              	.LEHE8:
 312              		.loc 3 40 0 is_stmt 0 discriminator 2
 313 0104 C7458800 		movl	$0, -120(%rbp)
 313      000000
 314              	.LEHB9:
 315 010b E8000000 		call	_ZN8UnitTest11CurrentTest7ResultsEv@PLT
 315      00
 316 0110 488B00   		movq	(%rax), %rax
 317 0113 488D4DB0 		leaq	-80(%rbp), %rcx
 318 0117 488D5580 		leaq	-128(%rbp), %rdx
 319 011b 488D7588 		leaq	-120(%rbp), %rsi
 320 011f 4889C7   		movq	%rax, %rdi
 321 0122 E8000000 		call	_ZN8UnitTest10CheckEqualI9I2CStatusS1_EEvRNS_11TestResultsERKT_RKT0_RKNS_11TestDetailsE
 321      00
 322              	.LEHE9:
 323              	.L18:
 324              	.LEHB10:
  41:testI2C.cpp   **** 	CHECK_EQUAL(8UL+5UL, i2cBuffer.length);
 325              		.loc 3 41 0 is_stmt 1
 326 0127 E8000000 		call	_ZN8UnitTest11CurrentTest7DetailsEv@PLT
 326      00
 327 012c 488B08   		movq	(%rax), %rcx
 328 012f 488D45B0 		leaq	-80(%rbp), %rax
 329 0133 BA290000 		movl	$41, %edx
 329      00
 330 0138 4889CE   		movq	%rcx, %rsi
 331 013b 4889C7   		movq	%rax, %rdi
 332 013e E8000000 		call	_ZN8UnitTest11TestDetailsC1ERKS0_i@PLT
 332      00
 333              	.LEHE10:
 334              		.loc 3 41 0 is_stmt 0 discriminator 2
 335 0143 48C74588 		movq	$13, -120(%rbp)
 335      0D000000 
 336              	.LEHB11:
 337 014b E8000000 		call	_ZN8UnitTest11CurrentTest7ResultsEv@PLT
 337      00
 338 0150 488B00   		movq	(%rax), %rax
 339 0153 488D55B0 		leaq	-80(%rbp), %rdx
 340 0157 488D4D90 		leaq	-112(%rbp), %rcx
 341 015b 488D7908 		leaq	8(%rcx), %rdi
 342 015f 488D7588 		leaq	-120(%rbp), %rsi
 343 0163 4889D1   		movq	%rdx, %rcx
 344 0166 4889FA   		movq	%rdi, %rdx
 345 0169 4889C7   		movq	%rax, %rdi
 346 016c E8000000 		call	_ZN8UnitTest10CheckEqualImmEEvRNS_11TestResultsERKT_RKT0_RKNS_11TestDetailsE
 346      00
 347              	.LEHE11:
 348              	.L22:
 349              	.LEHB12:
  42:testI2C.cpp   **** 	CHECK_EQUAL(1024UL, i2cBuffer.capacity);
 350              		.loc 3 42 0 is_stmt 1
 351 0171 E8000000 		call	_ZN8UnitTest11CurrentTest7DetailsEv@PLT
 351      00
 352 0176 488B08   		movq	(%rax), %rcx
 353 0179 488D45B0 		leaq	-80(%rbp), %rax
 354 017d BA2A0000 		movl	$42, %edx
 354      00
 355 0182 4889CE   		movq	%rcx, %rsi
 356 0185 4889C7   		movq	%rax, %rdi
 357 0188 E8000000 		call	_ZN8UnitTest11TestDetailsC1ERKS0_i@PLT
 357      00
 358              	.LEHE12:
 359              		.loc 3 42 0 is_stmt 0 discriminator 2
 360 018d 48C74588 		movq	$1024, -120(%rbp)
 360      00040000 
 361              	.LEHB13:
 362 0195 E8000000 		call	_ZN8UnitTest11CurrentTest7ResultsEv@PLT
 362      00
 363 019a 488B00   		movq	(%rax), %rax
 364 019d 488D55B0 		leaq	-80(%rbp), %rdx
 365 01a1 488D4D90 		leaq	-112(%rbp), %rcx
 366 01a5 488D7910 		leaq	16(%rcx), %rdi
 367 01a9 488D7588 		leaq	-120(%rbp), %rsi
 368 01ad 4889D1   		movq	%rdx, %rcx
 369 01b0 4889FA   		movq	%rdi, %rdx
 370 01b3 4889C7   		movq	%rax, %rdi
 371 01b6 E8000000 		call	_ZN8UnitTest10CheckEqualImmEEvRNS_11TestResultsERKT_RKT0_RKNS_11TestDetailsE
 371      00
 372              	.LEHE13:
 373              	.L26:
 374              	.LEHB14:
  43:testI2C.cpp   **** 	CHECK_ARRAY_EQUAL(expected, i2cBuffer.data, 8+5);
 375              		.loc 3 43 0 is_stmt 1
 376 01bb E8000000 		call	_ZN8UnitTest11CurrentTest7DetailsEv@PLT
 376      00
 377 01c0 488B08   		movq	(%rax), %rcx
 378 01c3 488D45B0 		leaq	-80(%rbp), %rax
 379 01c7 BA2B0000 		movl	$43, %edx
 379      00
 380 01cc 4889CE   		movq	%rcx, %rsi
 381 01cf 4889C7   		movq	%rax, %rdi
 382 01d2 E8000000 		call	_ZN8UnitTest11TestDetailsC1ERKS0_i@PLT
 382      00
 383              		.loc 3 43 0 is_stmt 0 discriminator 2
 384 01d7 E8000000 		call	_ZN8UnitTest11CurrentTest7ResultsEv@PLT
 384      00
 385 01dc 488B00   		movq	(%rax), %rax
 386 01df 488D4DB0 		leaq	-80(%rbp), %rcx
 387 01e3 488D5590 		leaq	-112(%rbp), %rdx
 388 01e7 488D75DB 		leaq	-37(%rbp), %rsi
 389 01eb 4989C8   		movq	%rcx, %r8
 390 01ee B90D0000 		movl	$13, %ecx
 390      00
 391 01f3 4889C7   		movq	%rax, %rdi
 392 01f6 E8000000 		call	_ZN8UnitTest15CheckArrayEqualIA13_hPhEEvRNS_11TestResultsERKT_RKT0_iRKNS_11TestDetailsE
 392      00
 393              	.LEHE14:
 394              	.L29:
  44:testI2C.cpp   **** 	bufDestroy(&i2cBuffer);
 395              		.loc 3 44 0 is_stmt 1
 396 01fb 488D4590 		leaq	-112(%rbp), %rax
 397 01ff 4889C7   		movq	%rax, %rdi
 398              	.LEHB15:
 399 0202 E8000000 		call	bufDestroy@PLT
 399      00
 400              	.LEHE15:
  45:testI2C.cpp   **** }
 401              		.loc 3 45 0
 402 0207 90       		nop
 403 0208 488B45E8 		movq	-24(%rbp), %rax
 404 020c 64483304 		xorq	%fs:40, %rax
 404      25280000 
 404      00
 405 0215 0F84ED01 		je	.L31
 405      0000
 406 021b E9E30100 		jmp	.L46
 406      00
 407              	.L33:
 408 0220 EB00     		jmp	.L13
 409              	.L32:
 410              	.L13:
  37:testI2C.cpp   **** 	i2cInitialise(&i2cBuffer, VID, PID, DID, CONFIG_BYTE_400KHZ);
 411              		.loc 3 37 0
 412 0222 4889C7   		movq	%rax, %rdi
 413 0225 E8000000 		call	__cxa_begin_catch@PLT
 413      00
 414              	.LEHB16:
 415 022a E8000000 		call	_ZN8UnitTest11CurrentTest7ResultsEv@PLT
 415      00
 416 022f 488B18   		movq	(%rax), %rbx
 417 0232 E8000000 		call	_ZN8UnitTest11CurrentTest7DetailsEv@PLT
 417      00
  37:testI2C.cpp   **** 	i2cInitialise(&i2cBuffer, VID, PID, DID, CONFIG_BYTE_400KHZ);
 418              		.loc 3 37 0 is_stmt 0 discriminator 8
 419 0237 488B08   		movq	(%rax), %rcx
 420 023a 488D45B0 		leaq	-80(%rbp), %rax
 421 023e BA250000 		movl	$37, %edx
 421      00
 422 0243 4889CE   		movq	%rcx, %rsi
 423 0246 4889C7   		movq	%rax, %rdi
 424 0249 E8000000 		call	_ZN8UnitTest11TestDetailsC1ERKS0_i@PLT
 424      00
  37:testI2C.cpp   **** 	i2cInitialise(&i2cBuffer, VID, PID, DID, CONFIG_BYTE_400KHZ);
 425              		.loc 3 37 0 discriminator 12
 426 024e 488D45B0 		leaq	-80(%rbp), %rax
 427 0252 488D1500 		leaq	.LC3(%rip), %rdx
 427      000000
 428 0259 4889C6   		movq	%rax, %rsi
 429 025c 4889DF   		movq	%rbx, %rdi
 430 025f E8000000 		call	_ZN8UnitTest11TestResults13OnTestFailureERKNS_11TestDetailsEPKc@PLT
 430      00
 431              	.LEHE16:
 432              	.LEHB17:
  37:testI2C.cpp   **** 	i2cInitialise(&i2cBuffer, VID, PID, DID, CONFIG_BYTE_400KHZ);
 433              		.loc 3 37 0 discriminator 14
 434 0264 E8000000 		call	__cxa_end_catch@PLT
 434      00
 435              	.LEHE17:
 436 0269 E945FEFF 		jmp	.L14
 436      FF
 437              	.L34:
 438 026e 4889C3   		movq	%rax, %rbx
  37:testI2C.cpp   **** 	i2cInitialise(&i2cBuffer, VID, PID, DID, CONFIG_BYTE_400KHZ);
 439              		.loc 3 37 0
 440 0271 E8000000 		call	__cxa_end_catch@PLT
 440      00
 441 0276 4889D8   		movq	%rbx, %rax
 442 0279 4889C7   		movq	%rax, %rdi
 443              	.LEHB18:
 444 027c E8000000 		call	_Unwind_Resume@PLT
 444      00
 445              	.LEHE18:
 446              	.L36:
 447 0281 EB00     		jmp	.L17
 448              	.L35:
 449              	.L17:
  40:testI2C.cpp   **** 	CHECK_EQUAL(8UL+5UL, i2cBuffer.length);
 450              		.loc 3 40 0 is_stmt 1
 451 0283 4889C7   		movq	%rax, %rdi
 452 0286 E8000000 		call	__cxa_begin_catch@PLT
 452      00
 453              	.LEHB19:
 454 028b E8000000 		call	_ZN8UnitTest11CurrentTest7ResultsEv@PLT
 454      00
 455 0290 488B18   		movq	(%rax), %rbx
 456 0293 E8000000 		call	_ZN8UnitTest11CurrentTest7DetailsEv@PLT
 456      00
  40:testI2C.cpp   **** 	CHECK_EQUAL(8UL+5UL, i2cBuffer.length);
 457              		.loc 3 40 0 is_stmt 0 discriminator 8
 458 0298 488B08   		movq	(%rax), %rcx
 459 029b 488D45B0 		leaq	-80(%rbp), %rax
 460 029f BA280000 		movl	$40, %edx
 460      00
 461 02a4 4889CE   		movq	%rcx, %rsi
 462 02a7 4889C7   		movq	%rax, %rdi
 463 02aa E8000000 		call	_ZN8UnitTest11TestDetailsC1ERKS0_i@PLT
 463      00
  40:testI2C.cpp   **** 	CHECK_EQUAL(8UL+5UL, i2cBuffer.length);
 464              		.loc 3 40 0 discriminator 12
 465 02af 488D45B0 		leaq	-80(%rbp), %rax
 466 02b3 488D1500 		leaq	.LC4(%rip), %rdx
 466      000000
 467 02ba 4889C6   		movq	%rax, %rsi
 468 02bd 4889DF   		movq	%rbx, %rdi
 469 02c0 E8000000 		call	_ZN8UnitTest11TestResults13OnTestFailureERKNS_11TestDetailsEPKc@PLT
 469      00
 470              	.LEHE19:
 471              	.LEHB20:
  40:testI2C.cpp   **** 	CHECK_EQUAL(8UL+5UL, i2cBuffer.length);
 472              		.loc 3 40 0 discriminator 14
 473 02c5 E8000000 		call	__cxa_end_catch@PLT
 473      00
 474              	.LEHE20:
 475 02ca E958FEFF 		jmp	.L18
 475      FF
 476              	.L37:
 477 02cf 4889C3   		movq	%rax, %rbx
  40:testI2C.cpp   **** 	CHECK_EQUAL(8UL+5UL, i2cBuffer.length);
 478              		.loc 3 40 0
 479 02d2 E8000000 		call	__cxa_end_catch@PLT
 479      00
 480 02d7 4889D8   		movq	%rbx, %rax
 481 02da 4889C7   		movq	%rax, %rdi
 482              	.LEHB21:
 483 02dd E8000000 		call	_Unwind_Resume@PLT
 483      00
 484              	.LEHE21:
 485              	.L39:
 486 02e2 EB00     		jmp	.L21
 487              	.L38:
 488              	.L21:
  41:testI2C.cpp   **** 	CHECK_EQUAL(1024UL, i2cBuffer.capacity);
 489              		.loc 3 41 0 is_stmt 1
 490 02e4 4889C7   		movq	%rax, %rdi
 491 02e7 E8000000 		call	__cxa_begin_catch@PLT
 491      00
 492              	.LEHB22:
 493 02ec E8000000 		call	_ZN8UnitTest11CurrentTest7ResultsEv@PLT
 493      00
 494 02f1 488B18   		movq	(%rax), %rbx
 495 02f4 E8000000 		call	_ZN8UnitTest11CurrentTest7DetailsEv@PLT
 495      00
  41:testI2C.cpp   **** 	CHECK_EQUAL(1024UL, i2cBuffer.capacity);
 496              		.loc 3 41 0 is_stmt 0 discriminator 8
 497 02f9 488B08   		movq	(%rax), %rcx
 498 02fc 488D45B0 		leaq	-80(%rbp), %rax
 499 0300 BA290000 		movl	$41, %edx
 499      00
 500 0305 4889CE   		movq	%rcx, %rsi
 501 0308 4889C7   		movq	%rax, %rdi
 502 030b E8000000 		call	_ZN8UnitTest11TestDetailsC1ERKS0_i@PLT
 502      00
  41:testI2C.cpp   **** 	CHECK_EQUAL(1024UL, i2cBuffer.capacity);
 503              		.loc 3 41 0 discriminator 12
 504 0310 488D45B0 		leaq	-80(%rbp), %rax
 505 0314 488D1500 		leaq	.LC5(%rip), %rdx
 505      000000
 506 031b 4889C6   		movq	%rax, %rsi
 507 031e 4889DF   		movq	%rbx, %rdi
 508 0321 E8000000 		call	_ZN8UnitTest11TestResults13OnTestFailureERKNS_11TestDetailsEPKc@PLT
 508      00
 509              	.LEHE22:
 510              	.LEHB23:
  41:testI2C.cpp   **** 	CHECK_EQUAL(1024UL, i2cBuffer.capacity);
 511              		.loc 3 41 0 discriminator 14
 512 0326 E8000000 		call	__cxa_end_catch@PLT
 512      00
 513              	.LEHE23:
 514 032b E941FEFF 		jmp	.L22
 514      FF
 515              	.L40:
 516 0330 4889C3   		movq	%rax, %rbx
  41:testI2C.cpp   **** 	CHECK_EQUAL(1024UL, i2cBuffer.capacity);
 517              		.loc 3 41 0
 518 0333 E8000000 		call	__cxa_end_catch@PLT
 518      00
 519 0338 4889D8   		movq	%rbx, %rax
 520 033b 4889C7   		movq	%rax, %rdi
 521              	.LEHB24:
 522 033e E8000000 		call	_Unwind_Resume@PLT
 522      00
 523              	.LEHE24:
 524              	.L42:
 525 0343 EB00     		jmp	.L25
 526              	.L41:
 527              	.L25:
  42:testI2C.cpp   **** 	CHECK_ARRAY_EQUAL(expected, i2cBuffer.data, 8+5);
 528              		.loc 3 42 0 is_stmt 1
 529 0345 4889C7   		movq	%rax, %rdi
 530 0348 E8000000 		call	__cxa_begin_catch@PLT
 530      00
 531              	.LEHB25:
 532 034d E8000000 		call	_ZN8UnitTest11CurrentTest7ResultsEv@PLT
 532      00
 533 0352 488B18   		movq	(%rax), %rbx
 534 0355 E8000000 		call	_ZN8UnitTest11CurrentTest7DetailsEv@PLT
 534      00
  42:testI2C.cpp   **** 	CHECK_ARRAY_EQUAL(expected, i2cBuffer.data, 8+5);
 535              		.loc 3 42 0 is_stmt 0 discriminator 8
 536 035a 488B08   		movq	(%rax), %rcx
 537 035d 488D45B0 		leaq	-80(%rbp), %rax
 538 0361 BA2A0000 		movl	$42, %edx
 538      00
 539 0366 4889CE   		movq	%rcx, %rsi
 540 0369 4889C7   		movq	%rax, %rdi
 541 036c E8000000 		call	_ZN8UnitTest11TestDetailsC1ERKS0_i@PLT
 541      00
  42:testI2C.cpp   **** 	CHECK_ARRAY_EQUAL(expected, i2cBuffer.data, 8+5);
 542              		.loc 3 42 0 discriminator 12
 543 0371 488D45B0 		leaq	-80(%rbp), %rax
 544 0375 488D1500 		leaq	.LC6(%rip), %rdx
 544      000000
 545 037c 4889C6   		movq	%rax, %rsi
 546 037f 4889DF   		movq	%rbx, %rdi
 547 0382 E8000000 		call	_ZN8UnitTest11TestResults13OnTestFailureERKNS_11TestDetailsEPKc@PLT
 547      00
 548              	.LEHE25:
 549              	.LEHB26:
  42:testI2C.cpp   **** 	CHECK_ARRAY_EQUAL(expected, i2cBuffer.data, 8+5);
 550              		.loc 3 42 0 discriminator 14
 551 0387 E8000000 		call	__cxa_end_catch@PLT
 551      00
 552              	.LEHE26:
 553 038c E92AFEFF 		jmp	.L26
 553      FF
 554              	.L43:
 555 0391 4889C3   		movq	%rax, %rbx
  42:testI2C.cpp   **** 	CHECK_ARRAY_EQUAL(expected, i2cBuffer.data, 8+5);
 556              		.loc 3 42 0
 557 0394 E8000000 		call	__cxa_end_catch@PLT
 557      00
 558 0399 4889D8   		movq	%rbx, %rax
 559 039c 4889C7   		movq	%rax, %rdi
 560              	.LEHB27:
 561 039f E8000000 		call	_Unwind_Resume@PLT
 561      00
 562              	.LEHE27:
 563              	.L44:
  43:testI2C.cpp   **** 	bufDestroy(&i2cBuffer);
 564              		.loc 3 43 0 is_stmt 1
 565 03a4 4889C7   		movq	%rax, %rdi
 566 03a7 E8000000 		call	__cxa_begin_catch@PLT
 566      00
 567              	.LEHB28:
 568 03ac E8000000 		call	_ZN8UnitTest11CurrentTest7ResultsEv@PLT
 568      00
 569 03b1 488B18   		movq	(%rax), %rbx
 570 03b4 E8000000 		call	_ZN8UnitTest11CurrentTest7DetailsEv@PLT
 570      00
  43:testI2C.cpp   **** 	bufDestroy(&i2cBuffer);
 571              		.loc 3 43 0 is_stmt 0 discriminator 8
 572 03b9 488B08   		movq	(%rax), %rcx
 573 03bc 488D45B0 		leaq	-80(%rbp), %rax
 574 03c0 BA2B0000 		movl	$43, %edx
 574      00
 575 03c5 4889CE   		movq	%rcx, %rsi
 576 03c8 4889C7   		movq	%rax, %rdi
 577 03cb E8000000 		call	_ZN8UnitTest11TestDetailsC1ERKS0_i@PLT
 577      00
  43:testI2C.cpp   **** 	bufDestroy(&i2cBuffer);
 578              		.loc 3 43 0 discriminator 12
 579 03d0 488D45B0 		leaq	-80(%rbp), %rax
 580 03d4 488D1500 		leaq	.LC7(%rip), %rdx
 580      000000
 581 03db 4889C6   		movq	%rax, %rsi
 582 03de 4889DF   		movq	%rbx, %rdi
 583 03e1 E8000000 		call	_ZN8UnitTest11TestResults13OnTestFailureERKNS_11TestDetailsEPKc@PLT
 583      00
 584              	.LEHE28:
 585              	.LEHB29:
  43:testI2C.cpp   **** 	bufDestroy(&i2cBuffer);
 586              		.loc 3 43 0 discriminator 14
 587 03e6 E8000000 		call	__cxa_end_catch@PLT
 587      00
 588              	.LEHE29:
 589 03eb E90BFEFF 		jmp	.L29
 589      FF
 590              	.L45:
 591 03f0 4889C3   		movq	%rax, %rbx
  43:testI2C.cpp   **** 	bufDestroy(&i2cBuffer);
 592              		.loc 3 43 0
 593 03f3 E8000000 		call	__cxa_end_catch@PLT
 593      00
 594 03f8 4889D8   		movq	%rbx, %rax
 595 03fb 4889C7   		movq	%rax, %rdi
 596              	.LEHB30:
 597 03fe E8000000 		call	_Unwind_Resume@PLT
 597      00
 598              	.LEHE30:
 599              	.L46:
 600              		.loc 3 45 0 is_stmt 1
 601 0403 E8000000 		call	__stack_chk_fail@PLT
 601      00
 602              	.L31:
 603 0408 4881C488 		addq	$136, %rsp
 603      000000
 604 040f 5B       		popq	%rbx
 605 0410 5D       		popq	%rbp
 606              		.cfi_def_cfa 7, 8
 607 0411 C3       		ret
 608              		.cfi_endproc
 609              	.LFE1095:
 610              		.section	.gcc_except_table,"a",@progbits
 611              		.align 4
 612              	.LLSDA1095:
 613 0000 FF       		.byte	0xff
 614 0001 9B       		.byte	0x9b
 615 0002 A001     		.uleb128 .LLSDATT1095-.LLSDATTD1095
 616              	.LLSDATTD1095:
 617 0004 01       		.byte	0x1
 618 0005 9301     		.uleb128 .LLSDACSE1095-.LLSDACSB1095
 619              	.LLSDACSB1095:
 620 0007 6C       		.uleb128 .LEHB4-.LFB1095
 621 0008 05       		.uleb128 .LEHE4-.LEHB4
 622 0009 00       		.uleb128 0
 623 000a 00       		.uleb128 0
 624 000b 74       		.uleb128 .LEHB5-.LFB1095
 625 000c 1C       		.uleb128 .LEHE5-.LEHB5
 626 000d A204     		.uleb128 .L32-.LFB1095
 627 000f 01       		.uleb128 0x1
 628 0010 9701     		.uleb128 .LEHB6-.LFB1095
 629 0012 1C       		.uleb128 .LEHE6-.LEHB6
 630 0013 A004     		.uleb128 .L33-.LFB1095
 631 0015 03       		.uleb128 0x3
 632 0016 CF01     		.uleb128 .LEHB7-.LFB1095
 633 0018 16       		.uleb128 .LEHE7-.LEHB7
 634 0019 00       		.uleb128 0
 635 001a 00       		.uleb128 0
 636 001b E801     		.uleb128 .LEHB8-.LFB1095
 637 001d 1C       		.uleb128 .LEHE8-.LEHB8
 638 001e 8305     		.uleb128 .L35-.LFB1095
 639 0020 01       		.uleb128 0x1
 640 0021 8B02     		.uleb128 .LEHB9-.LFB1095
 641 0023 1C       		.uleb128 .LEHE9-.LEHB9
 642 0024 8105     		.uleb128 .L36-.LFB1095
 643 0026 03       		.uleb128 0x3
 644 0027 A702     		.uleb128 .LEHB10-.LFB1095
 645 0029 1C       		.uleb128 .LEHE10-.LEHB10
 646 002a E405     		.uleb128 .L38-.LFB1095
 647 002c 01       		.uleb128 0x1
 648 002d CB02     		.uleb128 .LEHB11-.LFB1095
 649 002f 26       		.uleb128 .LEHE11-.LEHB11
 650 0030 E205     		.uleb128 .L39-.LFB1095
 651 0032 03       		.uleb128 0x3
 652 0033 F102     		.uleb128 .LEHB12-.LFB1095
 653 0035 1C       		.uleb128 .LEHE12-.LEHB12
 654 0036 C506     		.uleb128 .L41-.LFB1095
 655 0038 01       		.uleb128 0x1
 656 0039 9503     		.uleb128 .LEHB13-.LFB1095
 657 003b 26       		.uleb128 .LEHE13-.LEHB13
 658 003c C306     		.uleb128 .L42-.LFB1095
 659 003e 03       		.uleb128 0x3
 660 003f BB03     		.uleb128 .LEHB14-.LFB1095
 661 0041 40       		.uleb128 .LEHE14-.LEHB14
 662 0042 A407     		.uleb128 .L44-.LFB1095
 663 0044 01       		.uleb128 0x1
 664 0045 8204     		.uleb128 .LEHB15-.LFB1095
 665 0047 05       		.uleb128 .LEHE15-.LEHB15
 666 0048 00       		.uleb128 0
 667 0049 00       		.uleb128 0
 668 004a AA04     		.uleb128 .LEHB16-.LFB1095
 669 004c 3A       		.uleb128 .LEHE16-.LEHB16
 670 004d EE04     		.uleb128 .L34-.LFB1095
 671 004f 00       		.uleb128 0
 672 0050 E404     		.uleb128 .LEHB17-.LFB1095
 673 0052 05       		.uleb128 .LEHE17-.LEHB17
 674 0053 00       		.uleb128 0
 675 0054 00       		.uleb128 0
 676 0055 FC04     		.uleb128 .LEHB18-.LFB1095
 677 0057 05       		.uleb128 .LEHE18-.LEHB18
 678 0058 00       		.uleb128 0
 679 0059 00       		.uleb128 0
 680 005a 8B05     		.uleb128 .LEHB19-.LFB1095
 681 005c 3A       		.uleb128 .LEHE19-.LEHB19
 682 005d CF05     		.uleb128 .L37-.LFB1095
 683 005f 00       		.uleb128 0
 684 0060 C505     		.uleb128 .LEHB20-.LFB1095
 685 0062 05       		.uleb128 .LEHE20-.LEHB20
 686 0063 00       		.uleb128 0
 687 0064 00       		.uleb128 0
 688 0065 DD05     		.uleb128 .LEHB21-.LFB1095
 689 0067 05       		.uleb128 .LEHE21-.LEHB21
 690 0068 00       		.uleb128 0
 691 0069 00       		.uleb128 0
 692 006a EC05     		.uleb128 .LEHB22-.LFB1095
 693 006c 3A       		.uleb128 .LEHE22-.LEHB22
 694 006d B006     		.uleb128 .L40-.LFB1095
 695 006f 00       		.uleb128 0
 696 0070 A606     		.uleb128 .LEHB23-.LFB1095
 697 0072 05       		.uleb128 .LEHE23-.LEHB23
 698 0073 00       		.uleb128 0
 699 0074 00       		.uleb128 0
 700 0075 BE06     		.uleb128 .LEHB24-.LFB1095
 701 0077 05       		.uleb128 .LEHE24-.LEHB24
 702 0078 00       		.uleb128 0
 703 0079 00       		.uleb128 0
 704 007a CD06     		.uleb128 .LEHB25-.LFB1095
 705 007c 3A       		.uleb128 .LEHE25-.LEHB25
 706 007d 9107     		.uleb128 .L43-.LFB1095
 707 007f 00       		.uleb128 0
 708 0080 8707     		.uleb128 .LEHB26-.LFB1095
 709 0082 05       		.uleb128 .LEHE26-.LEHB26
 710 0083 00       		.uleb128 0
 711 0084 00       		.uleb128 0
 712 0085 9F07     		.uleb128 .LEHB27-.LFB1095
 713 0087 05       		.uleb128 .LEHE27-.LEHB27
 714 0088 00       		.uleb128 0
 715 0089 00       		.uleb128 0
 716 008a AC07     		.uleb128 .LEHB28-.LFB1095
 717 008c 3A       		.uleb128 .LEHE28-.LEHB28
 718 008d F007     		.uleb128 .L45-.LFB1095
 719 008f 00       		.uleb128 0
 720 0090 E607     		.uleb128 .LEHB29-.LFB1095
 721 0092 05       		.uleb128 .LEHE29-.LEHB29
 722 0093 00       		.uleb128 0
 723 0094 00       		.uleb128 0
 724 0095 FE07     		.uleb128 .LEHB30-.LFB1095
 725 0097 05       		.uleb128 .LEHE30-.LEHB30
 726 0098 00       		.uleb128 0
 727 0099 00       		.uleb128 0
 728              	.LLSDACSE1095:
 729 009a 01       		.byte	0x1
 730 009b 00       		.byte	0
 731 009c 00       		.byte	0
 732 009d 7D       		.byte	0x7d
 733 009e 0000     		.align 4
 734 00a0 00000000 		.long	0
 735              	
 736              	.LLSDATT1095:
 737              		.text
 739              		.section	.rodata
 740              	.LC8:
 741 0173 4932435F 		.string	"I2C_testRoundTrip"
 741      74657374 
 741      526F756E 
 741      64547269 
 741      7000
 742              		.section	.text._ZN21TestI2C_testRoundTripC2Ev,"axG",@progbits,_ZN21TestI2C_testRoundTripC5Ev,comda
 743              		.align 2
 744              		.weak	_ZN21TestI2C_testRoundTripC2Ev
 746              	_ZN21TestI2C_testRoundTripC2Ev:
 747              	.LFB1097:
  46:testI2C.cpp   **** 
  47:testI2C.cpp   **** TEST(I2C_testRoundTrip) {
 748              		.loc 3 47 0
 749              		.cfi_startproc
 750 0000 55       		pushq	%rbp
 751              		.cfi_def_cfa_offset 16
 752              		.cfi_offset 6, -16
 753 0001 4889E5   		movq	%rsp, %rbp
 754              		.cfi_def_cfa_register 6
 755 0004 53       		pushq	%rbx
 756 0005 4883EC18 		subq	$24, %rsp
 757              		.cfi_offset 3, -24
 758 0009 48897DE8 		movq	%rdi, -24(%rbp)
 759              	.LBB5:
 760              		.loc 3 47 0
 761 000d 488B5DE8 		movq	-24(%rbp), %rbx
 762 0011 E8000000 		call	_ZN13UnitTestSuite12GetSuiteNameEv
 762      00
 763 0016 41B82F00 		movl	$47, %r8d
 763      0000
 764 001c 488D0D00 		leaq	.LC1(%rip), %rcx
 764      000000
 765 0023 4889C2   		movq	%rax, %rdx
 766 0026 488D3500 		leaq	.LC8(%rip), %rsi
 766      000000
 767 002d 4889DF   		movq	%rbx, %rdi
 768 0030 E8000000 		call	_ZN8UnitTest4TestC2EPKcS2_S2_i@PLT
 768      00
 769 0035 488D1500 		leaq	16+_ZTV21TestI2C_testRoundTrip(%rip), %rdx
 769      000000
 770 003c 488B45E8 		movq	-24(%rbp), %rax
 771 0040 488910   		movq	%rdx, (%rax)
 772              	.LBE5:
 773 0043 90       		nop
 774 0044 4883C418 		addq	$24, %rsp
 775 0048 5B       		popq	%rbx
 776 0049 5D       		popq	%rbp
 777              		.cfi_def_cfa 7, 8
 778 004a C3       		ret
 779              		.cfi_endproc
 780              	.LFE1097:
 782              		.weak	_ZN21TestI2C_testRoundTripC1Ev
 783              		.set	_ZN21TestI2C_testRoundTripC1Ev,_ZN21TestI2C_testRoundTripC2Ev
 784              		.globl	testI2C_testRoundTripInstance
 785              		.bss
 786 0039 00000000 		.align 32
 786      000000
 789              	testI2C_testRoundTripInstance:
 790 0040 00000000 		.zero	56
 790      00000000 
 790      00000000 
 790      00000000 
 790      00000000 
 791              		.globl	adderI2C_testRoundTrip
 794              	adderI2C_testRoundTrip:
 795 0078 00       		.zero	1
 796              		.section	.rodata
 797 0185 000000   		.align 8
 798              	.LC9:
 799 0188 556E6861 		.string	"Unhandled exception in CHECK_ARRAY_EQUAL(expected, dstData.data)"
 799      6E646C65 
 799      64206578 
 799      63657074 
 799      696F6E20 
 800              		.text
 801              		.align 2
 802              		.globl	_ZNK21TestI2C_testRoundTrip7RunImplEv
 804              	_ZNK21TestI2C_testRoundTrip7RunImplEv:
 805              	.LFB1099:
 806              		.loc 3 47 0
 807              		.cfi_startproc
 808              		.cfi_personality 0x9b,DW.ref.__gxx_personality_v0
 809              		.cfi_lsda 0x1b,.LLSDA1099
 810 0412 55       		pushq	%rbp
 811              		.cfi_def_cfa_offset 16
 812              		.cfi_offset 6, -16
 813 0413 4889E5   		movq	%rsp, %rbp
 814              		.cfi_def_cfa_register 6
 815 0416 53       		pushq	%rbx
 816 0417 4881EC38 		subq	$312, %rsp
 816      010000
 817              		.cfi_offset 3, -24
 818 041e 4889BDC8 		movq	%rdi, -312(%rbp)
 818      FEFFFF
 819              		.loc 3 47 0
 820 0425 64488B04 		movq	%fs:40, %rax
 820      25280000 
 820      00
 821 042e 488945E8 		movq	%rax, -24(%rbp)
 822 0432 31C0     		xorl	%eax, %eax
  48:testI2C.cpp   **** 	uint32 i, j;
  49:testI2C.cpp   **** 	Buffer i2cBuffer, srcData, srcMask, dstData, dstMask;
  50:testI2C.cpp   **** 	BufferStatus bStatus;
  51:testI2C.cpp   **** 	I2CStatus iStatus;
  52:testI2C.cpp   **** 	const uint8 data[] = {0xE1, 0xE2, 0xE3, 0xE4, 0xE5, 0xE6, 0xE7, 0xE8, 0xE9, 0xEA, 0xEB, 0xEC, 0xED
 823              		.loc 3 52 0
 824 0434 C645B0E1 		movb	$-31, -80(%rbp)
 825 0438 C645B1E2 		movb	$-30, -79(%rbp)
 826 043c C645B2E3 		movb	$-29, -78(%rbp)
 827 0440 C645B3E4 		movb	$-28, -77(%rbp)
 828 0444 C645B4E5 		movb	$-27, -76(%rbp)
 829 0448 C645B5E6 		movb	$-26, -75(%rbp)
 830 044c C645B6E7 		movb	$-25, -74(%rbp)
 831 0450 C645B7E8 		movb	$-24, -73(%rbp)
 832 0454 C645B8E9 		movb	$-23, -72(%rbp)
 833 0458 C645B9EA 		movb	$-22, -71(%rbp)
 834 045c C645BAEB 		movb	$-21, -70(%rbp)
 835 0460 C645BBEC 		movb	$-20, -69(%rbp)
 836 0464 C645BCED 		movb	$-19, -68(%rbp)
 837 0468 C645BDEE 		movb	$-18, -67(%rbp)
 838 046c C645BEEF 		movb	$-17, -66(%rbp)
 839 0470 C645BFF0 		movb	$-16, -65(%rbp)
  53:testI2C.cpp   **** 	uint8 mask[16];
  54:testI2C.cpp   **** 	uint8 expected[16];
  55:testI2C.cpp   **** 	for ( i = 0; i < 65536; i++ ) {   // all possible 16-bit mask patterns
 840              		.loc 3 55 0
 841 0474 C785E8FE 		movl	$0, -280(%rbp)
 841      FFFF0000 
 841      0000
 842              	.L54:
 843              		.loc 3 55 0 is_stmt 0 discriminator 1
 844 047e 81BDE8FE 		cmpl	$65535, -280(%rbp)
 844      FFFFFFFF 
 844      0000
 845 0488 0F879609 		ja	.L131
 845      0000
  56:testI2C.cpp   **** 		for ( j = 0; j < 16; j++ ) {
 846              		.loc 3 56 0 is_stmt 1
 847 048e C785ECFE 		movl	$0, -276(%rbp)
 847      FFFF0000 
 847      0000
 848              	.L53:
 849              		.loc 3 56 0 is_stmt 0 discriminator 1
 850 0498 83BDECFE 		cmpl	$15, -276(%rbp)
 850      FFFF0F
 851 049f 775C     		ja	.L50
  57:testI2C.cpp   **** 			if ( i & (1<<j) ) {
 852              		.loc 3 57 0 is_stmt 1
 853 04a1 8B85ECFE 		movl	-276(%rbp), %eax
 853      FFFF
 854 04a7 BA010000 		movl	$1, %edx
 854      00
 855 04ac 89C1     		movl	%eax, %ecx
 856 04ae D3E2     		sall	%cl, %edx
 857 04b0 89D0     		movl	%edx, %eax
 858 04b2 2385E8FE 		andl	-280(%rbp), %eax
 858      FFFF
 859 04b8 85C0     		testl	%eax, %eax
 860 04ba 7422     		je	.L51
  58:testI2C.cpp   **** 				mask[j] = 0x01;
 861              		.loc 3 58 0
 862 04bc 8B85ECFE 		movl	-276(%rbp), %eax
 862      FFFF
 863 04c2 C64405C0 		movb	$1, -64(%rbp,%rax)
 863      01
  59:testI2C.cpp   **** 				expected[j] = data[j];
 864              		.loc 3 59 0
 865 04c7 8B85ECFE 		movl	-276(%rbp), %eax
 865      FFFF
 866 04cd 0FB65405 		movzbl	-80(%rbp,%rax), %edx
 866      B0
 867 04d2 8B85ECFE 		movl	-276(%rbp), %eax
 867      FFFF
 868 04d8 885405D0 		movb	%dl, -48(%rbp,%rax)
 869 04dc EB16     		jmp	.L52
 870              	.L51:
  60:testI2C.cpp   **** 			} else {
  61:testI2C.cpp   **** 				mask[j] = 0x00;
 871              		.loc 3 61 0
 872 04de 8B85ECFE 		movl	-276(%rbp), %eax
 872      FFFF
 873 04e4 C64405C0 		movb	$0, -64(%rbp,%rax)
 873      00
  62:testI2C.cpp   **** 				expected[j] = 0x00;
 874              		.loc 3 62 0
 875 04e9 8B85ECFE 		movl	-276(%rbp), %eax
 875      FFFF
 876 04ef C64405D0 		movb	$0, -48(%rbp,%rax)
 876      00
 877              	.L52:
  56:testI2C.cpp   **** 			if ( i & (1<<j) ) {
 878              		.loc 3 56 0 discriminator 2
 879 04f4 8385ECFE 		addl	$1, -276(%rbp)
 879      FFFF01
 880 04fb EB9B     		jmp	.L53
 881              	.L50:
  63:testI2C.cpp   **** 			}
  64:testI2C.cpp   **** 		}
  65:testI2C.cpp   **** 		bStatus = bufInitialise(&i2cBuffer, 1024, 0x00, NULL);
 882              		.loc 3 65 0
 883 04fd 488D85F0 		leaq	-272(%rbp), %rax
 883      FEFFFF
 884 0504 B9000000 		movl	$0, %ecx
 884      00
 885 0509 BA000000 		movl	$0, %edx
 885      00
 886 050e BE000400 		movl	$1024, %esi
 886      00
 887 0513 4889C7   		movq	%rax, %rdi
 888              	.LEHB31:
 889 0516 E8000000 		call	bufInitialise@PLT
 889      00
 890              	.LEHE31:
 891 051b 8985DCFE 		movl	%eax, -292(%rbp)
 891      FFFF
 892              	.LEHB32:
  66:testI2C.cpp   **** 		CHECK_EQUAL(BUF_SUCCESS, bStatus);
 893              		.loc 3 66 0
 894 0521 E8000000 		call	_ZN8UnitTest11CurrentTest7DetailsEv@PLT
 894      00
 895 0526 488B08   		movq	(%rax), %rcx
 896 0529 488D4590 		leaq	-112(%rbp), %rax
 897 052d BA420000 		movl	$66, %edx
 897      00
 898 0532 4889CE   		movq	%rcx, %rsi
 899 0535 4889C7   		movq	%rax, %rdi
 900 0538 E8000000 		call	_ZN8UnitTest11TestDetailsC1ERKS0_i@PLT
 900      00
 901              	.LEHE32:
 902              		.loc 3 66 0 is_stmt 0 discriminator 2
 903 053d C785E4FE 		movl	$0, -284(%rbp)
 903      FFFF0000 
 903      0000
 904              	.LEHB33:
 905 0547 E8000000 		call	_ZN8UnitTest11CurrentTest7ResultsEv@PLT
 905      00
 906 054c 488B00   		movq	(%rax), %rax
 907 054f 488D4D90 		leaq	-112(%rbp), %rcx
 908 0553 488D95DC 		leaq	-292(%rbp), %rdx
 908      FEFFFF
 909 055a 488DB5E4 		leaq	-284(%rbp), %rsi
 909      FEFFFF
 910 0561 4889C7   		movq	%rax, %rdi
 911 0564 E8000000 		call	_ZN8UnitTest10CheckEqualI12BufferStatusS1_EEvRNS_11TestResultsERKT_RKT0_RKNS_11TestDetailsE
 911      00
 912              	.LEHE33:
 913              	.L57:
  67:testI2C.cpp   **** 		i2cInitialise(&i2cBuffer, VID, PID, DID, CONFIG_BYTE_400KHZ);
 914              		.loc 3 67 0 is_stmt 1
 915 0569 488D85F0 		leaq	-272(%rbp), %rax
 915      FEFFFF
 916 0570 41B80100 		movl	$1, %r8d
 916      0000
 917 0576 B9000000 		movl	$0, %ecx
 917      00
 918 057b BA138600 		movl	$34323, %edx
 918      00
 919 0580 BEB40400 		movl	$1204, %esi
 919      00
 920 0585 4889C7   		movq	%rax, %rdi
 921              	.LEHB34:
 922 0588 E8000000 		call	i2cInitialise@PLT
 922      00
  68:testI2C.cpp   **** 		bStatus = bufInitialise(&srcData, 16, 0x00, NULL);
 923              		.loc 3 68 0
 924 058d 488D8510 		leaq	-240(%rbp), %rax
 924      FFFFFF
 925 0594 B9000000 		movl	$0, %ecx
 925      00
 926 0599 BA000000 		movl	$0, %edx
 926      00
 927 059e BE100000 		movl	$16, %esi
 927      00
 928 05a3 4889C7   		movq	%rax, %rdi
 929 05a6 E8000000 		call	bufInitialise@PLT
 929      00
 930              	.LEHE34:
 931 05ab 8985DCFE 		movl	%eax, -292(%rbp)
 931      FFFF
 932              	.LEHB35:
  69:testI2C.cpp   **** 		CHECK_EQUAL(BUF_SUCCESS, bStatus);
 933              		.loc 3 69 0
 934 05b1 E8000000 		call	_ZN8UnitTest11CurrentTest7DetailsEv@PLT
 934      00
 935 05b6 488B08   		movq	(%rax), %rcx
 936 05b9 488D4590 		leaq	-112(%rbp), %rax
 937 05bd BA450000 		movl	$69, %edx
 937      00
 938 05c2 4889CE   		movq	%rcx, %rsi
 939 05c5 4889C7   		movq	%rax, %rdi
 940 05c8 E8000000 		call	_ZN8UnitTest11TestDetailsC1ERKS0_i@PLT
 940      00
 941              	.LEHE35:
 942              		.loc 3 69 0 is_stmt 0 discriminator 2
 943 05cd C785E4FE 		movl	$0, -284(%rbp)
 943      FFFF0000 
 943      0000
 944              	.LEHB36:
 945 05d7 E8000000 		call	_ZN8UnitTest11CurrentTest7ResultsEv@PLT
 945      00
 946 05dc 488B00   		movq	(%rax), %rax
 947 05df 488D4D90 		leaq	-112(%rbp), %rcx
 948 05e3 488D95DC 		leaq	-292(%rbp), %rdx
 948      FEFFFF
 949 05ea 488DB5E4 		leaq	-284(%rbp), %rsi
 949      FEFFFF
 950 05f1 4889C7   		movq	%rax, %rdi
 951 05f4 E8000000 		call	_ZN8UnitTest10CheckEqualI12BufferStatusS1_EEvRNS_11TestResultsERKT_RKT0_RKNS_11TestDetailsE
 951      00
 952              	.LEHE36:
 953              	.L61:
  70:testI2C.cpp   **** 		bStatus = bufInitialise(&dstData, 16, 0x00, NULL);
 954              		.loc 3 70 0 is_stmt 1
 955 05f9 488D8550 		leaq	-176(%rbp), %rax
 955      FFFFFF
 956 0600 B9000000 		movl	$0, %ecx
 956      00
 957 0605 BA000000 		movl	$0, %edx
 957      00
 958 060a BE100000 		movl	$16, %esi
 958      00
 959 060f 4889C7   		movq	%rax, %rdi
 960              	.LEHB37:
 961 0612 E8000000 		call	bufInitialise@PLT
 961      00
 962              	.LEHE37:
 963 0617 8985DCFE 		movl	%eax, -292(%rbp)
 963      FFFF
 964              	.LEHB38:
  71:testI2C.cpp   **** 		CHECK_EQUAL(BUF_SUCCESS, bStatus);
 965              		.loc 3 71 0
 966 061d E8000000 		call	_ZN8UnitTest11CurrentTest7DetailsEv@PLT
 966      00
 967 0622 488B08   		movq	(%rax), %rcx
 968 0625 488D4590 		leaq	-112(%rbp), %rax
 969 0629 BA470000 		movl	$71, %edx
 969      00
 970 062e 4889CE   		movq	%rcx, %rsi
 971 0631 4889C7   		movq	%rax, %rdi
 972 0634 E8000000 		call	_ZN8UnitTest11TestDetailsC1ERKS0_i@PLT
 972      00
 973              	.LEHE38:
 974              		.loc 3 71 0 is_stmt 0 discriminator 2
 975 0639 C785E4FE 		movl	$0, -284(%rbp)
 975      FFFF0000 
 975      0000
 976              	.LEHB39:
 977 0643 E8000000 		call	_ZN8UnitTest11CurrentTest7ResultsEv@PLT
 977      00
 978 0648 488B00   		movq	(%rax), %rax
 979 064b 488D4D90 		leaq	-112(%rbp), %rcx
 980 064f 488D95DC 		leaq	-292(%rbp), %rdx
 980      FEFFFF
 981 0656 488DB5E4 		leaq	-284(%rbp), %rsi
 981      FEFFFF
 982 065d 4889C7   		movq	%rax, %rdi
 983 0660 E8000000 		call	_ZN8UnitTest10CheckEqualI12BufferStatusS1_EEvRNS_11TestResultsERKT_RKT0_RKNS_11TestDetailsE
 983      00
 984              	.LEHE39:
 985              	.L65:
  72:testI2C.cpp   **** 		bStatus = bufInitialise(&srcMask, 16, 0x00, NULL);
 986              		.loc 3 72 0 is_stmt 1
 987 0665 488D8530 		leaq	-208(%rbp), %rax
 987      FFFFFF
 988 066c B9000000 		movl	$0, %ecx
 988      00
 989 0671 BA000000 		movl	$0, %edx
 989      00
 990 0676 BE100000 		movl	$16, %esi
 990      00
 991 067b 4889C7   		movq	%rax, %rdi
 992              	.LEHB40:
 993 067e E8000000 		call	bufInitialise@PLT
 993      00
 994              	.LEHE40:
 995 0683 8985DCFE 		movl	%eax, -292(%rbp)
 995      FFFF
 996              	.LEHB41:
  73:testI2C.cpp   **** 		CHECK_EQUAL(BUF_SUCCESS, bStatus);
 997              		.loc 3 73 0
 998 0689 E8000000 		call	_ZN8UnitTest11CurrentTest7DetailsEv@PLT
 998      00
 999 068e 488B08   		movq	(%rax), %rcx
 1000 0691 488D4590 		leaq	-112(%rbp), %rax
 1001 0695 BA490000 		movl	$73, %edx
 1001      00
 1002 069a 4889CE   		movq	%rcx, %rsi
 1003 069d 4889C7   		movq	%rax, %rdi
 1004 06a0 E8000000 		call	_ZN8UnitTest11TestDetailsC1ERKS0_i@PLT
 1004      00
 1005              	.LEHE41:
 1006              		.loc 3 73 0 is_stmt 0 discriminator 2
 1007 06a5 C785E4FE 		movl	$0, -284(%rbp)
 1007      FFFF0000 
 1007      0000
 1008              	.LEHB42:
 1009 06af E8000000 		call	_ZN8UnitTest11CurrentTest7ResultsEv@PLT
 1009      00
 1010 06b4 488B00   		movq	(%rax), %rax
 1011 06b7 488D4D90 		leaq	-112(%rbp), %rcx
 1012 06bb 488D95DC 		leaq	-292(%rbp), %rdx
 1012      FEFFFF
 1013 06c2 488DB5E4 		leaq	-284(%rbp), %rsi
 1013      FEFFFF
 1014 06c9 4889C7   		movq	%rax, %rdi
 1015 06cc E8000000 		call	_ZN8UnitTest10CheckEqualI12BufferStatusS1_EEvRNS_11TestResultsERKT_RKT0_RKNS_11TestDetailsE
 1015      00
 1016              	.LEHE42:
 1017              	.L69:
  74:testI2C.cpp   **** 		bStatus = bufInitialise(&dstMask, 16, 0x00, NULL);
 1018              		.loc 3 74 0 is_stmt 1
 1019 06d1 488D8570 		leaq	-144(%rbp), %rax
 1019      FFFFFF
 1020 06d8 B9000000 		movl	$0, %ecx
 1020      00
 1021 06dd BA000000 		movl	$0, %edx
 1021      00
 1022 06e2 BE100000 		movl	$16, %esi
 1022      00
 1023 06e7 4889C7   		movq	%rax, %rdi
 1024              	.LEHB43:
 1025 06ea E8000000 		call	bufInitialise@PLT
 1025      00
 1026              	.LEHE43:
 1027 06ef 8985DCFE 		movl	%eax, -292(%rbp)
 1027      FFFF
 1028              	.LEHB44:
  75:testI2C.cpp   **** 		CHECK_EQUAL(BUF_SUCCESS, bStatus);
 1029              		.loc 3 75 0
 1030 06f5 E8000000 		call	_ZN8UnitTest11CurrentTest7DetailsEv@PLT
 1030      00
 1031 06fa 488B08   		movq	(%rax), %rcx
 1032 06fd 488D4590 		leaq	-112(%rbp), %rax
 1033 0701 BA4B0000 		movl	$75, %edx
 1033      00
 1034 0706 4889CE   		movq	%rcx, %rsi
 1035 0709 4889C7   		movq	%rax, %rdi
 1036 070c E8000000 		call	_ZN8UnitTest11TestDetailsC1ERKS0_i@PLT
 1036      00
 1037              	.LEHE44:
 1038              		.loc 3 75 0 is_stmt 0 discriminator 2
 1039 0711 C785E4FE 		movl	$0, -284(%rbp)
 1039      FFFF0000 
 1039      0000
 1040              	.LEHB45:
 1041 071b E8000000 		call	_ZN8UnitTest11CurrentTest7ResultsEv@PLT
 1041      00
 1042 0720 488B00   		movq	(%rax), %rax
 1043 0723 488D4D90 		leaq	-112(%rbp), %rcx
 1044 0727 488D95DC 		leaq	-292(%rbp), %rdx
 1044      FEFFFF
 1045 072e 488DB5E4 		leaq	-284(%rbp), %rsi
 1045      FEFFFF
 1046 0735 4889C7   		movq	%rax, %rdi
 1047 0738 E8000000 		call	_ZN8UnitTest10CheckEqualI12BufferStatusS1_EEvRNS_11TestResultsERKT_RKT0_RKNS_11TestDetailsE
 1047      00
 1048              	.LEHE45:
 1049              	.L73:
  76:testI2C.cpp   **** 		bStatus = bufWriteBlock(&srcData, 0x00000000, expected, 16, NULL);
 1050              		.loc 3 76 0 is_stmt 1
 1051 073d 488D55D0 		leaq	-48(%rbp), %rdx
 1052 0741 488D8510 		leaq	-240(%rbp), %rax
 1052      FFFFFF
 1053 0748 41B80000 		movl	$0, %r8d
 1053      0000
 1054 074e B9100000 		movl	$16, %ecx
 1054      00
 1055 0753 BE000000 		movl	$0, %esi
 1055      00
 1056 0758 4889C7   		movq	%rax, %rdi
 1057              	.LEHB46:
 1058 075b E8000000 		call	bufWriteBlock@PLT
 1058      00
 1059              	.LEHE46:
 1060 0760 8985DCFE 		movl	%eax, -292(%rbp)
 1060      FFFF
 1061              	.LEHB47:
  77:testI2C.cpp   **** 		CHECK_EQUAL(BUF_SUCCESS, bStatus);
 1062              		.loc 3 77 0
 1063 0766 E8000000 		call	_ZN8UnitTest11CurrentTest7DetailsEv@PLT
 1063      00
 1064 076b 488B08   		movq	(%rax), %rcx
 1065 076e 488D4590 		leaq	-112(%rbp), %rax
 1066 0772 BA4D0000 		movl	$77, %edx
 1066      00
 1067 0777 4889CE   		movq	%rcx, %rsi
 1068 077a 4889C7   		movq	%rax, %rdi
 1069 077d E8000000 		call	_ZN8UnitTest11TestDetailsC1ERKS0_i@PLT
 1069      00
 1070              	.LEHE47:
 1071              		.loc 3 77 0 is_stmt 0 discriminator 2
 1072 0782 C785E4FE 		movl	$0, -284(%rbp)
 1072      FFFF0000 
 1072      0000
 1073              	.LEHB48:
 1074 078c E8000000 		call	_ZN8UnitTest11CurrentTest7ResultsEv@PLT
 1074      00
 1075 0791 488B00   		movq	(%rax), %rax
 1076 0794 488D4D90 		leaq	-112(%rbp), %rcx
 1077 0798 488D95DC 		leaq	-292(%rbp), %rdx
 1077      FEFFFF
 1078 079f 488DB5E4 		leaq	-284(%rbp), %rsi
 1078      FEFFFF
 1079 07a6 4889C7   		movq	%rax, %rdi
 1080 07a9 E8000000 		call	_ZN8UnitTest10CheckEqualI12BufferStatusS1_EEvRNS_11TestResultsERKT_RKT0_RKNS_11TestDetailsE
 1080      00
 1081              	.LEHE48:
 1082              	.L77:
  78:testI2C.cpp   **** 		bStatus = bufWriteBlock(&srcMask, 0x00000000, mask, 16, NULL);
 1083              		.loc 3 78 0 is_stmt 1
 1084 07ae 488D55C0 		leaq	-64(%rbp), %rdx
 1085 07b2 488D8530 		leaq	-208(%rbp), %rax
 1085      FFFFFF
 1086 07b9 41B80000 		movl	$0, %r8d
 1086      0000
 1087 07bf B9100000 		movl	$16, %ecx
 1087      00
 1088 07c4 BE000000 		movl	$0, %esi
 1088      00
 1089 07c9 4889C7   		movq	%rax, %rdi
 1090              	.LEHB49:
 1091 07cc E8000000 		call	bufWriteBlock@PLT
 1091      00
 1092              	.LEHE49:
 1093 07d1 8985DCFE 		movl	%eax, -292(%rbp)
 1093      FFFF
 1094              	.LEHB50:
  79:testI2C.cpp   **** 		CHECK_EQUAL(BUF_SUCCESS, bStatus);
 1095              		.loc 3 79 0
 1096 07d7 E8000000 		call	_ZN8UnitTest11CurrentTest7DetailsEv@PLT
 1096      00
 1097 07dc 488B08   		movq	(%rax), %rcx
 1098 07df 488D4590 		leaq	-112(%rbp), %rax
 1099 07e3 BA4F0000 		movl	$79, %edx
 1099      00
 1100 07e8 4889CE   		movq	%rcx, %rsi
 1101 07eb 4889C7   		movq	%rax, %rdi
 1102 07ee E8000000 		call	_ZN8UnitTest11TestDetailsC1ERKS0_i@PLT
 1102      00
 1103              	.LEHE50:
 1104              		.loc 3 79 0 is_stmt 0 discriminator 2
 1105 07f3 C785E4FE 		movl	$0, -284(%rbp)
 1105      FFFF0000 
 1105      0000
 1106              	.LEHB51:
 1107 07fd E8000000 		call	_ZN8UnitTest11CurrentTest7ResultsEv@PLT
 1107      00
 1108 0802 488B00   		movq	(%rax), %rax
 1109 0805 488D4D90 		leaq	-112(%rbp), %rcx
 1110 0809 488D95DC 		leaq	-292(%rbp), %rdx
 1110      FEFFFF
 1111 0810 488DB5E4 		leaq	-284(%rbp), %rsi
 1111      FEFFFF
 1112 0817 4889C7   		movq	%rax, %rdi
 1113 081a E8000000 		call	_ZN8UnitTest10CheckEqualI12BufferStatusS1_EEvRNS_11TestResultsERKT_RKT0_RKNS_11TestDetailsE
 1113      00
 1114              	.LEHE51:
 1115              	.L81:
  80:testI2C.cpp   **** 		iStatus = i2cWritePromRecords(&i2cBuffer, &srcData, &srcMask, NULL);
 1116              		.loc 3 80 0 is_stmt 1
 1117 081f 488D9530 		leaq	-208(%rbp), %rdx
 1117      FFFFFF
 1118 0826 488DB510 		leaq	-240(%rbp), %rsi
 1118      FFFFFF
 1119 082d 488D85F0 		leaq	-272(%rbp), %rax
 1119      FEFFFF
 1120 0834 B9000000 		movl	$0, %ecx
 1120      00
 1121 0839 4889C7   		movq	%rax, %rdi
 1122              	.LEHB52:
 1123 083c E8000000 		call	i2cWritePromRecords@PLT
 1123      00
 1124              	.LEHE52:
 1125 0841 8985E0FE 		movl	%eax, -288(%rbp)
 1125      FFFF
 1126              	.LEHB53:
  81:testI2C.cpp   **** 		CHECK_EQUAL(I2C_SUCCESS, iStatus);
 1127              		.loc 3 81 0
 1128 0847 E8000000 		call	_ZN8UnitTest11CurrentTest7DetailsEv@PLT
 1128      00
 1129 084c 488B08   		movq	(%rax), %rcx
 1130 084f 488D4590 		leaq	-112(%rbp), %rax
 1131 0853 BA510000 		movl	$81, %edx
 1131      00
 1132 0858 4889CE   		movq	%rcx, %rsi
 1133 085b 4889C7   		movq	%rax, %rdi
 1134 085e E8000000 		call	_ZN8UnitTest11TestDetailsC1ERKS0_i@PLT
 1134      00
 1135              	.LEHE53:
 1136              		.loc 3 81 0 is_stmt 0 discriminator 2
 1137 0863 C785E4FE 		movl	$0, -284(%rbp)
 1137      FFFF0000 
 1137      0000
 1138              	.LEHB54:
 1139 086d E8000000 		call	_ZN8UnitTest11CurrentTest7ResultsEv@PLT
 1139      00
 1140 0872 488B00   		movq	(%rax), %rax
 1141 0875 488D4D90 		leaq	-112(%rbp), %rcx
 1142 0879 488D95E0 		leaq	-288(%rbp), %rdx
 1142      FEFFFF
 1143 0880 488DB5E4 		leaq	-284(%rbp), %rsi
 1143      FEFFFF
 1144 0887 4889C7   		movq	%rax, %rdi
 1145 088a E8000000 		call	_ZN8UnitTest10CheckEqualI9I2CStatusS1_EEvRNS_11TestResultsERKT_RKT0_RKNS_11TestDetailsE
 1145      00
 1146              	.LEHE54:
 1147              	.L85:
  82:testI2C.cpp   **** 		iStatus = i2cFinalise(&i2cBuffer, NULL);
 1148              		.loc 3 82 0 is_stmt 1
 1149 088f 488D85F0 		leaq	-272(%rbp), %rax
 1149      FEFFFF
 1150 0896 BE000000 		movl	$0, %esi
 1150      00
 1151 089b 4889C7   		movq	%rax, %rdi
 1152              	.LEHB55:
 1153 089e E8000000 		call	i2cFinalise@PLT
 1153      00
 1154              	.LEHE55:
 1155 08a3 8985E0FE 		movl	%eax, -288(%rbp)
 1155      FFFF
 1156              	.LEHB56:
  83:testI2C.cpp   **** 		CHECK_EQUAL(I2C_SUCCESS, iStatus);
 1157              		.loc 3 83 0
 1158 08a9 E8000000 		call	_ZN8UnitTest11CurrentTest7DetailsEv@PLT
 1158      00
 1159 08ae 488B08   		movq	(%rax), %rcx
 1160 08b1 488D4590 		leaq	-112(%rbp), %rax
 1161 08b5 BA530000 		movl	$83, %edx
 1161      00
 1162 08ba 4889CE   		movq	%rcx, %rsi
 1163 08bd 4889C7   		movq	%rax, %rdi
 1164 08c0 E8000000 		call	_ZN8UnitTest11TestDetailsC1ERKS0_i@PLT
 1164      00
 1165              	.LEHE56:
 1166              		.loc 3 83 0 is_stmt 0 discriminator 2
 1167 08c5 C785E4FE 		movl	$0, -284(%rbp)
 1167      FFFF0000 
 1167      0000
 1168              	.LEHB57:
 1169 08cf E8000000 		call	_ZN8UnitTest11CurrentTest7ResultsEv@PLT
 1169      00
 1170 08d4 488B00   		movq	(%rax), %rax
 1171 08d7 488D4D90 		leaq	-112(%rbp), %rcx
 1172 08db 488D95E0 		leaq	-288(%rbp), %rdx
 1172      FEFFFF
 1173 08e2 488DB5E4 		leaq	-284(%rbp), %rsi
 1173      FEFFFF
 1174 08e9 4889C7   		movq	%rax, %rdi
 1175 08ec E8000000 		call	_ZN8UnitTest10CheckEqualI9I2CStatusS1_EEvRNS_11TestResultsERKT_RKT0_RKNS_11TestDetailsE
 1175      00
 1176              	.LEHE57:
 1177              	.L89:
  84:testI2C.cpp   **** 		iStatus = i2cReadPromRecords(&dstData, &dstMask, &i2cBuffer, NULL);
 1178              		.loc 3 84 0 is_stmt 1
 1179 08f1 488D95F0 		leaq	-272(%rbp), %rdx
 1179      FEFFFF
 1180 08f8 488DB570 		leaq	-144(%rbp), %rsi
 1180      FFFFFF
 1181 08ff 488D8550 		leaq	-176(%rbp), %rax
 1181      FFFFFF
 1182 0906 B9000000 		movl	$0, %ecx
 1182      00
 1183 090b 4889C7   		movq	%rax, %rdi
 1184              	.LEHB58:
 1185 090e E8000000 		call	i2cReadPromRecords@PLT
 1185      00
 1186              	.LEHE58:
 1187 0913 8985E0FE 		movl	%eax, -288(%rbp)
 1187      FFFF
 1188              	.LEHB59:
  85:testI2C.cpp   **** 		CHECK_EQUAL(I2C_SUCCESS, iStatus);
 1189              		.loc 3 85 0
 1190 0919 E8000000 		call	_ZN8UnitTest11CurrentTest7DetailsEv@PLT
 1190      00
 1191 091e 488B08   		movq	(%rax), %rcx
 1192 0921 488D4590 		leaq	-112(%rbp), %rax
 1193 0925 BA550000 		movl	$85, %edx
 1193      00
 1194 092a 4889CE   		movq	%rcx, %rsi
 1195 092d 4889C7   		movq	%rax, %rdi
 1196 0930 E8000000 		call	_ZN8UnitTest11TestDetailsC1ERKS0_i@PLT
 1196      00
 1197              	.LEHE59:
 1198              		.loc 3 85 0 is_stmt 0 discriminator 2
 1199 0935 C785E4FE 		movl	$0, -284(%rbp)
 1199      FFFF0000 
 1199      0000
 1200              	.LEHB60:
 1201 093f E8000000 		call	_ZN8UnitTest11CurrentTest7ResultsEv@PLT
 1201      00
 1202 0944 488B00   		movq	(%rax), %rax
 1203 0947 488D4D90 		leaq	-112(%rbp), %rcx
 1204 094b 488D95E0 		leaq	-288(%rbp), %rdx
 1204      FEFFFF
 1205 0952 488DB5E4 		leaq	-284(%rbp), %rsi
 1205      FEFFFF
 1206 0959 4889C7   		movq	%rax, %rdi
 1207 095c E8000000 		call	_ZN8UnitTest10CheckEqualI9I2CStatusS1_EEvRNS_11TestResultsERKT_RKT0_RKNS_11TestDetailsE
 1207      00
 1208              	.LEHE60:
 1209              	.L93:
 1210              	.LEHB61:
  86:testI2C.cpp   **** 		CHECK_ARRAY_EQUAL(expected, dstData.data, 16);
 1211              		.loc 3 86 0 is_stmt 1
 1212 0961 E8000000 		call	_ZN8UnitTest11CurrentTest7DetailsEv@PLT
 1212      00
 1213 0966 488B08   		movq	(%rax), %rcx
 1214 0969 488D4590 		leaq	-112(%rbp), %rax
 1215 096d BA560000 		movl	$86, %edx
 1215      00
 1216 0972 4889CE   		movq	%rcx, %rsi
 1217 0975 4889C7   		movq	%rax, %rdi
 1218 0978 E8000000 		call	_ZN8UnitTest11TestDetailsC1ERKS0_i@PLT
 1218      00
 1219              		.loc 3 86 0 is_stmt 0 discriminator 2
 1220 097d E8000000 		call	_ZN8UnitTest11CurrentTest7ResultsEv@PLT
 1220      00
 1221 0982 488B00   		movq	(%rax), %rax
 1222 0985 488D4D90 		leaq	-112(%rbp), %rcx
 1223 0989 488D9550 		leaq	-176(%rbp), %rdx
 1223      FFFFFF
 1224 0990 488D75D0 		leaq	-48(%rbp), %rsi
 1225 0994 4989C8   		movq	%rcx, %r8
 1226 0997 B9100000 		movl	$16, %ecx
 1226      00
 1227 099c 4889C7   		movq	%rax, %rdi
 1228 099f E8000000 		call	_ZN8UnitTest15CheckArrayEqualIA16_hPhEEvRNS_11TestResultsERKT_RKT0_iRKNS_11TestDetailsE
 1228      00
 1229              	.LEHE61:
 1230              	.L96:
  87:testI2C.cpp   **** 		bufDestroy(&dstMask);
 1231              		.loc 3 87 0 is_stmt 1
 1232 09a4 488D8570 		leaq	-144(%rbp), %rax
 1232      FFFFFF
 1233 09ab 4889C7   		movq	%rax, %rdi
 1234              	.LEHB62:
 1235 09ae E8000000 		call	bufDestroy@PLT
 1235      00
  88:testI2C.cpp   **** 		bufDestroy(&srcMask);
 1236              		.loc 3 88 0
 1237 09b3 488D8530 		leaq	-208(%rbp), %rax
 1237      FFFFFF
 1238 09ba 4889C7   		movq	%rax, %rdi
 1239 09bd E8000000 		call	bufDestroy@PLT
 1239      00
  89:testI2C.cpp   **** 		bufDestroy(&dstData);
 1240              		.loc 3 89 0
 1241 09c2 488D8550 		leaq	-176(%rbp), %rax
 1241      FFFFFF
 1242 09c9 4889C7   		movq	%rax, %rdi
 1243 09cc E8000000 		call	bufDestroy@PLT
 1243      00
  90:testI2C.cpp   **** 		bufDestroy(&srcData);
 1244              		.loc 3 90 0
 1245 09d1 488D8510 		leaq	-240(%rbp), %rax
 1245      FFFFFF
 1246 09d8 4889C7   		movq	%rax, %rdi
 1247 09db E8000000 		call	bufDestroy@PLT
 1247      00
  91:testI2C.cpp   **** 		bufDestroy(&i2cBuffer);
 1248              		.loc 3 91 0
 1249 09e0 488D85F0 		leaq	-272(%rbp), %rax
 1249      FEFFFF
 1250 09e7 4889C7   		movq	%rax, %rdi
 1251 09ea E8000000 		call	bufDestroy@PLT
 1251      00
 1252              	.LEHE62:
  55:testI2C.cpp   **** 		for ( j = 0; j < 16; j++ ) {
 1253              		.loc 3 55 0
 1254 09ef 8385E8FE 		addl	$1, -280(%rbp)
 1254      FFFF01
 1255 09f6 E983FAFF 		jmp	.L54
 1255      FF
 1256              	.L100:
 1257 09fb EB00     		jmp	.L56
 1258              	.L99:
 1259              	.L56:
  66:testI2C.cpp   **** 		i2cInitialise(&i2cBuffer, VID, PID, DID, CONFIG_BYTE_400KHZ);
 1260              		.loc 3 66 0
 1261 09fd 4889C7   		movq	%rax, %rdi
 1262 0a00 E8000000 		call	__cxa_begin_catch@PLT
 1262      00
 1263              	.LEHB63:
 1264 0a05 E8000000 		call	_ZN8UnitTest11CurrentTest7ResultsEv@PLT
 1264      00
 1265 0a0a 488B18   		movq	(%rax), %rbx
 1266 0a0d E8000000 		call	_ZN8UnitTest11CurrentTest7DetailsEv@PLT
 1266      00
  66:testI2C.cpp   **** 		i2cInitialise(&i2cBuffer, VID, PID, DID, CONFIG_BYTE_400KHZ);
 1267              		.loc 3 66 0 is_stmt 0 discriminator 8
 1268 0a12 488B08   		movq	(%rax), %rcx
 1269 0a15 488D4590 		leaq	-112(%rbp), %rax
 1270 0a19 BA420000 		movl	$66, %edx
 1270      00
 1271 0a1e 4889CE   		movq	%rcx, %rsi
 1272 0a21 4889C7   		movq	%rax, %rdi
 1273 0a24 E8000000 		call	_ZN8UnitTest11TestDetailsC1ERKS0_i@PLT
 1273      00
  66:testI2C.cpp   **** 		i2cInitialise(&i2cBuffer, VID, PID, DID, CONFIG_BYTE_400KHZ);
 1274              		.loc 3 66 0 discriminator 12
 1275 0a29 488D4590 		leaq	-112(%rbp), %rax
 1276 0a2d 488D1500 		leaq	.LC3(%rip), %rdx
 1276      000000
 1277 0a34 4889C6   		movq	%rax, %rsi
 1278 0a37 4889DF   		movq	%rbx, %rdi
 1279 0a3a E8000000 		call	_ZN8UnitTest11TestResults13OnTestFailureERKNS_11TestDetailsEPKc@PLT
 1279      00
 1280              	.LEHE63:
 1281              	.LEHB64:
  66:testI2C.cpp   **** 		i2cInitialise(&i2cBuffer, VID, PID, DID, CONFIG_BYTE_400KHZ);
 1282              		.loc 3 66 0 discriminator 14
 1283 0a3f E8000000 		call	__cxa_end_catch@PLT
 1283      00
 1284              	.LEHE64:
 1285 0a44 E920FBFF 		jmp	.L57
 1285      FF
 1286              	.L101:
 1287 0a49 4889C3   		movq	%rax, %rbx
  66:testI2C.cpp   **** 		i2cInitialise(&i2cBuffer, VID, PID, DID, CONFIG_BYTE_400KHZ);
 1288              		.loc 3 66 0
 1289 0a4c E8000000 		call	__cxa_end_catch@PLT
 1289      00
 1290 0a51 4889D8   		movq	%rbx, %rax
 1291 0a54 4889C7   		movq	%rax, %rdi
 1292              	.LEHB65:
 1293 0a57 E8000000 		call	_Unwind_Resume@PLT
 1293      00
 1294              	.LEHE65:
 1295              	.L103:
 1296 0a5c EB00     		jmp	.L60
 1297              	.L102:
 1298              	.L60:
  69:testI2C.cpp   **** 		bStatus = bufInitialise(&dstData, 16, 0x00, NULL);
 1299              		.loc 3 69 0 is_stmt 1
 1300 0a5e 4889C7   		movq	%rax, %rdi
 1301 0a61 E8000000 		call	__cxa_begin_catch@PLT
 1301      00
 1302              	.LEHB66:
 1303 0a66 E8000000 		call	_ZN8UnitTest11CurrentTest7ResultsEv@PLT
 1303      00
 1304 0a6b 488B18   		movq	(%rax), %rbx
 1305 0a6e E8000000 		call	_ZN8UnitTest11CurrentTest7DetailsEv@PLT
 1305      00
  69:testI2C.cpp   **** 		bStatus = bufInitialise(&dstData, 16, 0x00, NULL);
 1306              		.loc 3 69 0 is_stmt 0 discriminator 8
 1307 0a73 488B08   		movq	(%rax), %rcx
 1308 0a76 488D4590 		leaq	-112(%rbp), %rax
 1309 0a7a BA450000 		movl	$69, %edx
 1309      00
 1310 0a7f 4889CE   		movq	%rcx, %rsi
 1311 0a82 4889C7   		movq	%rax, %rdi
 1312 0a85 E8000000 		call	_ZN8UnitTest11TestDetailsC1ERKS0_i@PLT
 1312      00
  69:testI2C.cpp   **** 		bStatus = bufInitialise(&dstData, 16, 0x00, NULL);
 1313              		.loc 3 69 0 discriminator 12
 1314 0a8a 488D4590 		leaq	-112(%rbp), %rax
 1315 0a8e 488D1500 		leaq	.LC3(%rip), %rdx
 1315      000000
 1316 0a95 4889C6   		movq	%rax, %rsi
 1317 0a98 4889DF   		movq	%rbx, %rdi
 1318 0a9b E8000000 		call	_ZN8UnitTest11TestResults13OnTestFailureERKNS_11TestDetailsEPKc@PLT
 1318      00
 1319              	.LEHE66:
 1320              	.LEHB67:
  69:testI2C.cpp   **** 		bStatus = bufInitialise(&dstData, 16, 0x00, NULL);
 1321              		.loc 3 69 0 discriminator 14
 1322 0aa0 E8000000 		call	__cxa_end_catch@PLT
 1322      00
 1323              	.LEHE67:
 1324 0aa5 E94FFBFF 		jmp	.L61
 1324      FF
 1325              	.L104:
 1326 0aaa 4889C3   		movq	%rax, %rbx
  69:testI2C.cpp   **** 		bStatus = bufInitialise(&dstData, 16, 0x00, NULL);
 1327              		.loc 3 69 0
 1328 0aad E8000000 		call	__cxa_end_catch@PLT
 1328      00
 1329 0ab2 4889D8   		movq	%rbx, %rax
 1330 0ab5 4889C7   		movq	%rax, %rdi
 1331              	.LEHB68:
 1332 0ab8 E8000000 		call	_Unwind_Resume@PLT
 1332      00
 1333              	.LEHE68:
 1334              	.L106:
 1335 0abd EB00     		jmp	.L64
 1336              	.L105:
 1337              	.L64:
  71:testI2C.cpp   **** 		bStatus = bufInitialise(&srcMask, 16, 0x00, NULL);
 1338              		.loc 3 71 0 is_stmt 1
 1339 0abf 4889C7   		movq	%rax, %rdi
 1340 0ac2 E8000000 		call	__cxa_begin_catch@PLT
 1340      00
 1341              	.LEHB69:
 1342 0ac7 E8000000 		call	_ZN8UnitTest11CurrentTest7ResultsEv@PLT
 1342      00
 1343 0acc 488B18   		movq	(%rax), %rbx
 1344 0acf E8000000 		call	_ZN8UnitTest11CurrentTest7DetailsEv@PLT
 1344      00
  71:testI2C.cpp   **** 		bStatus = bufInitialise(&srcMask, 16, 0x00, NULL);
 1345              		.loc 3 71 0 is_stmt 0 discriminator 8
 1346 0ad4 488B08   		movq	(%rax), %rcx
 1347 0ad7 488D4590 		leaq	-112(%rbp), %rax
 1348 0adb BA470000 		movl	$71, %edx
 1348      00
 1349 0ae0 4889CE   		movq	%rcx, %rsi
 1350 0ae3 4889C7   		movq	%rax, %rdi
 1351 0ae6 E8000000 		call	_ZN8UnitTest11TestDetailsC1ERKS0_i@PLT
 1351      00
  71:testI2C.cpp   **** 		bStatus = bufInitialise(&srcMask, 16, 0x00, NULL);
 1352              		.loc 3 71 0 discriminator 12
 1353 0aeb 488D4590 		leaq	-112(%rbp), %rax
 1354 0aef 488D1500 		leaq	.LC3(%rip), %rdx
 1354      000000
 1355 0af6 4889C6   		movq	%rax, %rsi
 1356 0af9 4889DF   		movq	%rbx, %rdi
 1357 0afc E8000000 		call	_ZN8UnitTest11TestResults13OnTestFailureERKNS_11TestDetailsEPKc@PLT
 1357      00
 1358              	.LEHE69:
 1359              	.LEHB70:
  71:testI2C.cpp   **** 		bStatus = bufInitialise(&srcMask, 16, 0x00, NULL);
 1360              		.loc 3 71 0 discriminator 14
 1361 0b01 E8000000 		call	__cxa_end_catch@PLT
 1361      00
 1362              	.LEHE70:
 1363 0b06 E95AFBFF 		jmp	.L65
 1363      FF
 1364              	.L107:
 1365 0b0b 4889C3   		movq	%rax, %rbx
  71:testI2C.cpp   **** 		bStatus = bufInitialise(&srcMask, 16, 0x00, NULL);
 1366              		.loc 3 71 0
 1367 0b0e E8000000 		call	__cxa_end_catch@PLT
 1367      00
 1368 0b13 4889D8   		movq	%rbx, %rax
 1369 0b16 4889C7   		movq	%rax, %rdi
 1370              	.LEHB71:
 1371 0b19 E8000000 		call	_Unwind_Resume@PLT
 1371      00
 1372              	.LEHE71:
 1373              	.L109:
 1374 0b1e EB00     		jmp	.L68
 1375              	.L108:
 1376              	.L68:
  73:testI2C.cpp   **** 		bStatus = bufInitialise(&dstMask, 16, 0x00, NULL);
 1377              		.loc 3 73 0 is_stmt 1
 1378 0b20 4889C7   		movq	%rax, %rdi
 1379 0b23 E8000000 		call	__cxa_begin_catch@PLT
 1379      00
 1380              	.LEHB72:
 1381 0b28 E8000000 		call	_ZN8UnitTest11CurrentTest7ResultsEv@PLT
 1381      00
 1382 0b2d 488B18   		movq	(%rax), %rbx
 1383 0b30 E8000000 		call	_ZN8UnitTest11CurrentTest7DetailsEv@PLT
 1383      00
  73:testI2C.cpp   **** 		bStatus = bufInitialise(&dstMask, 16, 0x00, NULL);
 1384              		.loc 3 73 0 is_stmt 0 discriminator 8
 1385 0b35 488B08   		movq	(%rax), %rcx
 1386 0b38 488D4590 		leaq	-112(%rbp), %rax
 1387 0b3c BA490000 		movl	$73, %edx
 1387      00
 1388 0b41 4889CE   		movq	%rcx, %rsi
 1389 0b44 4889C7   		movq	%rax, %rdi
 1390 0b47 E8000000 		call	_ZN8UnitTest11TestDetailsC1ERKS0_i@PLT
 1390      00
  73:testI2C.cpp   **** 		bStatus = bufInitialise(&dstMask, 16, 0x00, NULL);
 1391              		.loc 3 73 0 discriminator 12
 1392 0b4c 488D4590 		leaq	-112(%rbp), %rax
 1393 0b50 488D1500 		leaq	.LC3(%rip), %rdx
 1393      000000
 1394 0b57 4889C6   		movq	%rax, %rsi
 1395 0b5a 4889DF   		movq	%rbx, %rdi
 1396 0b5d E8000000 		call	_ZN8UnitTest11TestResults13OnTestFailureERKNS_11TestDetailsEPKc@PLT
 1396      00
 1397              	.LEHE72:
 1398              	.LEHB73:
  73:testI2C.cpp   **** 		bStatus = bufInitialise(&dstMask, 16, 0x00, NULL);
 1399              		.loc 3 73 0 discriminator 14
 1400 0b62 E8000000 		call	__cxa_end_catch@PLT
 1400      00
 1401              	.LEHE73:
 1402 0b67 E965FBFF 		jmp	.L69
 1402      FF
 1403              	.L110:
 1404 0b6c 4889C3   		movq	%rax, %rbx
  73:testI2C.cpp   **** 		bStatus = bufInitialise(&dstMask, 16, 0x00, NULL);
 1405              		.loc 3 73 0
 1406 0b6f E8000000 		call	__cxa_end_catch@PLT
 1406      00
 1407 0b74 4889D8   		movq	%rbx, %rax
 1408 0b77 4889C7   		movq	%rax, %rdi
 1409              	.LEHB74:
 1410 0b7a E8000000 		call	_Unwind_Resume@PLT
 1410      00
 1411              	.LEHE74:
 1412              	.L112:
 1413 0b7f EB00     		jmp	.L72
 1414              	.L111:
 1415              	.L72:
  75:testI2C.cpp   **** 		bStatus = bufWriteBlock(&srcData, 0x00000000, expected, 16, NULL);
 1416              		.loc 3 75 0 is_stmt 1
 1417 0b81 4889C7   		movq	%rax, %rdi
 1418 0b84 E8000000 		call	__cxa_begin_catch@PLT
 1418      00
 1419              	.LEHB75:
 1420 0b89 E8000000 		call	_ZN8UnitTest11CurrentTest7ResultsEv@PLT
 1420      00
 1421 0b8e 488B18   		movq	(%rax), %rbx
 1422 0b91 E8000000 		call	_ZN8UnitTest11CurrentTest7DetailsEv@PLT
 1422      00
  75:testI2C.cpp   **** 		bStatus = bufWriteBlock(&srcData, 0x00000000, expected, 16, NULL);
 1423              		.loc 3 75 0 is_stmt 0 discriminator 8
 1424 0b96 488B08   		movq	(%rax), %rcx
 1425 0b99 488D4590 		leaq	-112(%rbp), %rax
 1426 0b9d BA4B0000 		movl	$75, %edx
 1426      00
 1427 0ba2 4889CE   		movq	%rcx, %rsi
 1428 0ba5 4889C7   		movq	%rax, %rdi
 1429 0ba8 E8000000 		call	_ZN8UnitTest11TestDetailsC1ERKS0_i@PLT
 1429      00
  75:testI2C.cpp   **** 		bStatus = bufWriteBlock(&srcData, 0x00000000, expected, 16, NULL);
 1430              		.loc 3 75 0 discriminator 12
 1431 0bad 488D4590 		leaq	-112(%rbp), %rax
 1432 0bb1 488D1500 		leaq	.LC3(%rip), %rdx
 1432      000000
 1433 0bb8 4889C6   		movq	%rax, %rsi
 1434 0bbb 4889DF   		movq	%rbx, %rdi
 1435 0bbe E8000000 		call	_ZN8UnitTest11TestResults13OnTestFailureERKNS_11TestDetailsEPKc@PLT
 1435      00
 1436              	.LEHE75:
 1437              	.LEHB76:
  75:testI2C.cpp   **** 		bStatus = bufWriteBlock(&srcData, 0x00000000, expected, 16, NULL);
 1438              		.loc 3 75 0 discriminator 14
 1439 0bc3 E8000000 		call	__cxa_end_catch@PLT
 1439      00
 1440              	.LEHE76:
 1441 0bc8 E970FBFF 		jmp	.L73
 1441      FF
 1442              	.L113:
 1443 0bcd 4889C3   		movq	%rax, %rbx
  75:testI2C.cpp   **** 		bStatus = bufWriteBlock(&srcData, 0x00000000, expected, 16, NULL);
 1444              		.loc 3 75 0
 1445 0bd0 E8000000 		call	__cxa_end_catch@PLT
 1445      00
 1446 0bd5 4889D8   		movq	%rbx, %rax
 1447 0bd8 4889C7   		movq	%rax, %rdi
 1448              	.LEHB77:
 1449 0bdb E8000000 		call	_Unwind_Resume@PLT
 1449      00
 1450              	.LEHE77:
 1451              	.L115:
 1452 0be0 EB00     		jmp	.L76
 1453              	.L114:
 1454              	.L76:
  77:testI2C.cpp   **** 		bStatus = bufWriteBlock(&srcMask, 0x00000000, mask, 16, NULL);
 1455              		.loc 3 77 0 is_stmt 1
 1456 0be2 4889C7   		movq	%rax, %rdi
 1457 0be5 E8000000 		call	__cxa_begin_catch@PLT
 1457      00
 1458              	.LEHB78:
 1459 0bea E8000000 		call	_ZN8UnitTest11CurrentTest7ResultsEv@PLT
 1459      00
 1460 0bef 488B18   		movq	(%rax), %rbx
 1461 0bf2 E8000000 		call	_ZN8UnitTest11CurrentTest7DetailsEv@PLT
 1461      00
  77:testI2C.cpp   **** 		bStatus = bufWriteBlock(&srcMask, 0x00000000, mask, 16, NULL);
 1462              		.loc 3 77 0 is_stmt 0 discriminator 8
 1463 0bf7 488B08   		movq	(%rax), %rcx
 1464 0bfa 488D4590 		leaq	-112(%rbp), %rax
 1465 0bfe BA4D0000 		movl	$77, %edx
 1465      00
 1466 0c03 4889CE   		movq	%rcx, %rsi
 1467 0c06 4889C7   		movq	%rax, %rdi
 1468 0c09 E8000000 		call	_ZN8UnitTest11TestDetailsC1ERKS0_i@PLT
 1468      00
  77:testI2C.cpp   **** 		bStatus = bufWriteBlock(&srcMask, 0x00000000, mask, 16, NULL);
 1469              		.loc 3 77 0 discriminator 12
 1470 0c0e 488D4590 		leaq	-112(%rbp), %rax
 1471 0c12 488D1500 		leaq	.LC3(%rip), %rdx
 1471      000000
 1472 0c19 4889C6   		movq	%rax, %rsi
 1473 0c1c 4889DF   		movq	%rbx, %rdi
 1474 0c1f E8000000 		call	_ZN8UnitTest11TestResults13OnTestFailureERKNS_11TestDetailsEPKc@PLT
 1474      00
 1475              	.LEHE78:
 1476              	.LEHB79:
  77:testI2C.cpp   **** 		bStatus = bufWriteBlock(&srcMask, 0x00000000, mask, 16, NULL);
 1477              		.loc 3 77 0 discriminator 14
 1478 0c24 E8000000 		call	__cxa_end_catch@PLT
 1478      00
 1479              	.LEHE79:
 1480 0c29 E980FBFF 		jmp	.L77
 1480      FF
 1481              	.L116:
 1482 0c2e 4889C3   		movq	%rax, %rbx
  77:testI2C.cpp   **** 		bStatus = bufWriteBlock(&srcMask, 0x00000000, mask, 16, NULL);
 1483              		.loc 3 77 0
 1484 0c31 E8000000 		call	__cxa_end_catch@PLT
 1484      00
 1485 0c36 4889D8   		movq	%rbx, %rax
 1486 0c39 4889C7   		movq	%rax, %rdi
 1487              	.LEHB80:
 1488 0c3c E8000000 		call	_Unwind_Resume@PLT
 1488      00
 1489              	.LEHE80:
 1490              	.L118:
 1491 0c41 EB00     		jmp	.L80
 1492              	.L117:
 1493              	.L80:
  79:testI2C.cpp   **** 		iStatus = i2cWritePromRecords(&i2cBuffer, &srcData, &srcMask, NULL);
 1494              		.loc 3 79 0 is_stmt 1
 1495 0c43 4889C7   		movq	%rax, %rdi
 1496 0c46 E8000000 		call	__cxa_begin_catch@PLT
 1496      00
 1497              	.LEHB81:
 1498 0c4b E8000000 		call	_ZN8UnitTest11CurrentTest7ResultsEv@PLT
 1498      00
 1499 0c50 488B18   		movq	(%rax), %rbx
 1500 0c53 E8000000 		call	_ZN8UnitTest11CurrentTest7DetailsEv@PLT
 1500      00
  79:testI2C.cpp   **** 		iStatus = i2cWritePromRecords(&i2cBuffer, &srcData, &srcMask, NULL);
 1501              		.loc 3 79 0 is_stmt 0 discriminator 8
 1502 0c58 488B08   		movq	(%rax), %rcx
 1503 0c5b 488D4590 		leaq	-112(%rbp), %rax
 1504 0c5f BA4F0000 		movl	$79, %edx
 1504      00
 1505 0c64 4889CE   		movq	%rcx, %rsi
 1506 0c67 4889C7   		movq	%rax, %rdi
 1507 0c6a E8000000 		call	_ZN8UnitTest11TestDetailsC1ERKS0_i@PLT
 1507      00
  79:testI2C.cpp   **** 		iStatus = i2cWritePromRecords(&i2cBuffer, &srcData, &srcMask, NULL);
 1508              		.loc 3 79 0 discriminator 12
 1509 0c6f 488D4590 		leaq	-112(%rbp), %rax
 1510 0c73 488D1500 		leaq	.LC3(%rip), %rdx
 1510      000000
 1511 0c7a 4889C6   		movq	%rax, %rsi
 1512 0c7d 4889DF   		movq	%rbx, %rdi
 1513 0c80 E8000000 		call	_ZN8UnitTest11TestResults13OnTestFailureERKNS_11TestDetailsEPKc@PLT
 1513      00
 1514              	.LEHE81:
 1515              	.LEHB82:
  79:testI2C.cpp   **** 		iStatus = i2cWritePromRecords(&i2cBuffer, &srcData, &srcMask, NULL);
 1516              		.loc 3 79 0 discriminator 14
 1517 0c85 E8000000 		call	__cxa_end_catch@PLT
 1517      00
 1518              	.LEHE82:
 1519 0c8a E990FBFF 		jmp	.L81
 1519      FF
 1520              	.L119:
 1521 0c8f 4889C3   		movq	%rax, %rbx
  79:testI2C.cpp   **** 		iStatus = i2cWritePromRecords(&i2cBuffer, &srcData, &srcMask, NULL);
 1522              		.loc 3 79 0
 1523 0c92 E8000000 		call	__cxa_end_catch@PLT
 1523      00
 1524 0c97 4889D8   		movq	%rbx, %rax
 1525 0c9a 4889C7   		movq	%rax, %rdi
 1526              	.LEHB83:
 1527 0c9d E8000000 		call	_Unwind_Resume@PLT
 1527      00
 1528              	.LEHE83:
 1529              	.L121:
 1530 0ca2 EB00     		jmp	.L84
 1531              	.L120:
 1532              	.L84:
  81:testI2C.cpp   **** 		iStatus = i2cFinalise(&i2cBuffer, NULL);
 1533              		.loc 3 81 0 is_stmt 1
 1534 0ca4 4889C7   		movq	%rax, %rdi
 1535 0ca7 E8000000 		call	__cxa_begin_catch@PLT
 1535      00
 1536              	.LEHB84:
 1537 0cac E8000000 		call	_ZN8UnitTest11CurrentTest7ResultsEv@PLT
 1537      00
 1538 0cb1 488B18   		movq	(%rax), %rbx
 1539 0cb4 E8000000 		call	_ZN8UnitTest11CurrentTest7DetailsEv@PLT
 1539      00
  81:testI2C.cpp   **** 		iStatus = i2cFinalise(&i2cBuffer, NULL);
 1540              		.loc 3 81 0 is_stmt 0 discriminator 8
 1541 0cb9 488B08   		movq	(%rax), %rcx
 1542 0cbc 488D4590 		leaq	-112(%rbp), %rax
 1543 0cc0 BA510000 		movl	$81, %edx
 1543      00
 1544 0cc5 4889CE   		movq	%rcx, %rsi
 1545 0cc8 4889C7   		movq	%rax, %rdi
 1546 0ccb E8000000 		call	_ZN8UnitTest11TestDetailsC1ERKS0_i@PLT
 1546      00
  81:testI2C.cpp   **** 		iStatus = i2cFinalise(&i2cBuffer, NULL);
 1547              		.loc 3 81 0 discriminator 12
 1548 0cd0 488D4590 		leaq	-112(%rbp), %rax
 1549 0cd4 488D1500 		leaq	.LC4(%rip), %rdx
 1549      000000
 1550 0cdb 4889C6   		movq	%rax, %rsi
 1551 0cde 4889DF   		movq	%rbx, %rdi
 1552 0ce1 E8000000 		call	_ZN8UnitTest11TestResults13OnTestFailureERKNS_11TestDetailsEPKc@PLT
 1552      00
 1553              	.LEHE84:
 1554              	.LEHB85:
  81:testI2C.cpp   **** 		iStatus = i2cFinalise(&i2cBuffer, NULL);
 1555              		.loc 3 81 0 discriminator 14
 1556 0ce6 E8000000 		call	__cxa_end_catch@PLT
 1556      00
 1557              	.LEHE85:
 1558 0ceb E99FFBFF 		jmp	.L85
 1558      FF
 1559              	.L122:
 1560 0cf0 4889C3   		movq	%rax, %rbx
  81:testI2C.cpp   **** 		iStatus = i2cFinalise(&i2cBuffer, NULL);
 1561              		.loc 3 81 0
 1562 0cf3 E8000000 		call	__cxa_end_catch@PLT
 1562      00
 1563 0cf8 4889D8   		movq	%rbx, %rax
 1564 0cfb 4889C7   		movq	%rax, %rdi
 1565              	.LEHB86:
 1566 0cfe E8000000 		call	_Unwind_Resume@PLT
 1566      00
 1567              	.LEHE86:
 1568              	.L124:
 1569 0d03 EB00     		jmp	.L88
 1570              	.L123:
 1571              	.L88:
  83:testI2C.cpp   **** 		iStatus = i2cReadPromRecords(&dstData, &dstMask, &i2cBuffer, NULL);
 1572              		.loc 3 83 0 is_stmt 1
 1573 0d05 4889C7   		movq	%rax, %rdi
 1574 0d08 E8000000 		call	__cxa_begin_catch@PLT
 1574      00
 1575              	.LEHB87:
 1576 0d0d E8000000 		call	_ZN8UnitTest11CurrentTest7ResultsEv@PLT
 1576      00
 1577 0d12 488B18   		movq	(%rax), %rbx
 1578 0d15 E8000000 		call	_ZN8UnitTest11CurrentTest7DetailsEv@PLT
 1578      00
  83:testI2C.cpp   **** 		iStatus = i2cReadPromRecords(&dstData, &dstMask, &i2cBuffer, NULL);
 1579              		.loc 3 83 0 is_stmt 0 discriminator 8
 1580 0d1a 488B08   		movq	(%rax), %rcx
 1581 0d1d 488D4590 		leaq	-112(%rbp), %rax
 1582 0d21 BA530000 		movl	$83, %edx
 1582      00
 1583 0d26 4889CE   		movq	%rcx, %rsi
 1584 0d29 4889C7   		movq	%rax, %rdi
 1585 0d2c E8000000 		call	_ZN8UnitTest11TestDetailsC1ERKS0_i@PLT
 1585      00
  83:testI2C.cpp   **** 		iStatus = i2cReadPromRecords(&dstData, &dstMask, &i2cBuffer, NULL);
 1586              		.loc 3 83 0 discriminator 12
 1587 0d31 488D4590 		leaq	-112(%rbp), %rax
 1588 0d35 488D1500 		leaq	.LC4(%rip), %rdx
 1588      000000
 1589 0d3c 4889C6   		movq	%rax, %rsi
 1590 0d3f 4889DF   		movq	%rbx, %rdi
 1591 0d42 E8000000 		call	_ZN8UnitTest11TestResults13OnTestFailureERKNS_11TestDetailsEPKc@PLT
 1591      00
 1592              	.LEHE87:
 1593              	.LEHB88:
  83:testI2C.cpp   **** 		iStatus = i2cReadPromRecords(&dstData, &dstMask, &i2cBuffer, NULL);
 1594              		.loc 3 83 0 discriminator 14
 1595 0d47 E8000000 		call	__cxa_end_catch@PLT
 1595      00
 1596              	.LEHE88:
 1597 0d4c E9A0FBFF 		jmp	.L89
 1597      FF
 1598              	.L125:
 1599 0d51 4889C3   		movq	%rax, %rbx
  83:testI2C.cpp   **** 		iStatus = i2cReadPromRecords(&dstData, &dstMask, &i2cBuffer, NULL);
 1600              		.loc 3 83 0
 1601 0d54 E8000000 		call	__cxa_end_catch@PLT
 1601      00
 1602 0d59 4889D8   		movq	%rbx, %rax
 1603 0d5c 4889C7   		movq	%rax, %rdi
 1604              	.LEHB89:
 1605 0d5f E8000000 		call	_Unwind_Resume@PLT
 1605      00
 1606              	.LEHE89:
 1607              	.L127:
 1608 0d64 EB00     		jmp	.L92
 1609              	.L126:
 1610              	.L92:
  85:testI2C.cpp   **** 		CHECK_ARRAY_EQUAL(expected, dstData.data, 16);
 1611              		.loc 3 85 0 is_stmt 1
 1612 0d66 4889C7   		movq	%rax, %rdi
 1613 0d69 E8000000 		call	__cxa_begin_catch@PLT
 1613      00
 1614              	.LEHB90:
 1615 0d6e E8000000 		call	_ZN8UnitTest11CurrentTest7ResultsEv@PLT
 1615      00
 1616 0d73 488B18   		movq	(%rax), %rbx
 1617 0d76 E8000000 		call	_ZN8UnitTest11CurrentTest7DetailsEv@PLT
 1617      00
  85:testI2C.cpp   **** 		CHECK_ARRAY_EQUAL(expected, dstData.data, 16);
 1618              		.loc 3 85 0 is_stmt 0 discriminator 8
 1619 0d7b 488B08   		movq	(%rax), %rcx
 1620 0d7e 488D4590 		leaq	-112(%rbp), %rax
 1621 0d82 BA550000 		movl	$85, %edx
 1621      00
 1622 0d87 4889CE   		movq	%rcx, %rsi
 1623 0d8a 4889C7   		movq	%rax, %rdi
 1624 0d8d E8000000 		call	_ZN8UnitTest11TestDetailsC1ERKS0_i@PLT
 1624      00
  85:testI2C.cpp   **** 		CHECK_ARRAY_EQUAL(expected, dstData.data, 16);
 1625              		.loc 3 85 0 discriminator 12
 1626 0d92 488D4590 		leaq	-112(%rbp), %rax
 1627 0d96 488D1500 		leaq	.LC4(%rip), %rdx
 1627      000000
 1628 0d9d 4889C6   		movq	%rax, %rsi
 1629 0da0 4889DF   		movq	%rbx, %rdi
 1630 0da3 E8000000 		call	_ZN8UnitTest11TestResults13OnTestFailureERKNS_11TestDetailsEPKc@PLT
 1630      00
 1631              	.LEHE90:
 1632              	.LEHB91:
  85:testI2C.cpp   **** 		CHECK_ARRAY_EQUAL(expected, dstData.data, 16);
 1633              		.loc 3 85 0 discriminator 14
 1634 0da8 E8000000 		call	__cxa_end_catch@PLT
 1634      00
 1635              	.LEHE91:
 1636 0dad E9AFFBFF 		jmp	.L93
 1636      FF
 1637              	.L128:
 1638 0db2 4889C3   		movq	%rax, %rbx
  85:testI2C.cpp   **** 		CHECK_ARRAY_EQUAL(expected, dstData.data, 16);
 1639              		.loc 3 85 0
 1640 0db5 E8000000 		call	__cxa_end_catch@PLT
 1640      00
 1641 0dba 4889D8   		movq	%rbx, %rax
 1642 0dbd 4889C7   		movq	%rax, %rdi
 1643              	.LEHB92:
 1644 0dc0 E8000000 		call	_Unwind_Resume@PLT
 1644      00
 1645              	.LEHE92:
 1646              	.L129:
  86:testI2C.cpp   **** 		bufDestroy(&dstMask);
 1647              		.loc 3 86 0 is_stmt 1
 1648 0dc5 4889C7   		movq	%rax, %rdi
 1649 0dc8 E8000000 		call	__cxa_begin_catch@PLT
 1649      00
 1650              	.LEHB93:
 1651 0dcd E8000000 		call	_ZN8UnitTest11CurrentTest7ResultsEv@PLT
 1651      00
 1652 0dd2 488B18   		movq	(%rax), %rbx
 1653 0dd5 E8000000 		call	_ZN8UnitTest11CurrentTest7DetailsEv@PLT
 1653      00
  86:testI2C.cpp   **** 		bufDestroy(&dstMask);
 1654              		.loc 3 86 0 is_stmt 0 discriminator 8
 1655 0dda 488B08   		movq	(%rax), %rcx
 1656 0ddd 488D4590 		leaq	-112(%rbp), %rax
 1657 0de1 BA560000 		movl	$86, %edx
 1657      00
 1658 0de6 4889CE   		movq	%rcx, %rsi
 1659 0de9 4889C7   		movq	%rax, %rdi
 1660 0dec E8000000 		call	_ZN8UnitTest11TestDetailsC1ERKS0_i@PLT
 1660      00
  86:testI2C.cpp   **** 		bufDestroy(&dstMask);
 1661              		.loc 3 86 0 discriminator 12
 1662 0df1 488D4590 		leaq	-112(%rbp), %rax
 1663 0df5 488D1500 		leaq	.LC9(%rip), %rdx
 1663      000000
 1664 0dfc 4889C6   		movq	%rax, %rsi
 1665 0dff 4889DF   		movq	%rbx, %rdi
 1666 0e02 E8000000 		call	_ZN8UnitTest11TestResults13OnTestFailureERKNS_11TestDetailsEPKc@PLT
 1666      00
 1667              	.LEHE93:
 1668              	.LEHB94:
  86:testI2C.cpp   **** 		bufDestroy(&dstMask);
 1669              		.loc 3 86 0 discriminator 14
 1670 0e07 E8000000 		call	__cxa_end_catch@PLT
 1670      00
 1671              	.LEHE94:
 1672 0e0c E993FBFF 		jmp	.L96
 1672      FF
 1673              	.L130:
 1674 0e11 4889C3   		movq	%rax, %rbx
  86:testI2C.cpp   **** 		bufDestroy(&dstMask);
 1675              		.loc 3 86 0
 1676 0e14 E8000000 		call	__cxa_end_catch@PLT
 1676      00
 1677 0e19 4889D8   		movq	%rbx, %rax
 1678 0e1c 4889C7   		movq	%rax, %rdi
 1679              	.LEHB95:
 1680 0e1f E8000000 		call	_Unwind_Resume@PLT
 1680      00
 1681              	.LEHE95:
 1682              	.L131:
  92:testI2C.cpp   **** 	}
  93:testI2C.cpp   **** }
 1683              		.loc 3 93 0 is_stmt 1
 1684 0e24 90       		nop
 1685 0e25 488B45E8 		movq	-24(%rbp), %rax
 1686 0e29 64483304 		xorq	%fs:40, %rax
 1686      25280000 
 1686      00
 1687 0e32 7405     		je	.L98
 1688 0e34 E8000000 		call	__stack_chk_fail@PLT
 1688      00
 1689              	.L98:
 1690 0e39 4881C438 		addq	$312, %rsp
 1690      010000
 1691 0e40 5B       		popq	%rbx
 1692 0e41 5D       		popq	%rbp
 1693              		.cfi_def_cfa 7, 8
 1694 0e42 C3       		ret
 1695              		.cfi_endproc
 1696              	.LFE1099:
 1697              		.section	.gcc_except_table
 1698              		.align 4
 1699              	.LLSDA1099:
 1700 00a4 FF       		.byte	0xff
 1701 00a5 9B       		.byte	0x9b
 1702 00a6 F002     		.uleb128 .LLSDATT1099-.LLSDATTD1099
 1703              	.LLSDATTD1099:
 1704 00a8 01       		.byte	0x1
 1705 00a9 E502     		.uleb128 .LLSDACSE1099-.LLSDACSB1099
 1706              	.LLSDACSB1099:
 1707 00ab 8402     		.uleb128 .LEHB31-.LFB1099
 1708 00ad 05       		.uleb128 .LEHE31-.LEHB31
 1709 00ae 00       		.uleb128 0
 1710 00af 00       		.uleb128 0
 1711 00b0 8F02     		.uleb128 .LEHB32-.LFB1099
 1712 00b2 1C       		.uleb128 .LEHE32-.LEHB32
 1713 00b3 EB0B     		.uleb128 .L99-.LFB1099
 1714 00b5 01       		.uleb128 0x1
 1715 00b6 B502     		.uleb128 .LEHB33-.LFB1099
 1716 00b8 22       		.uleb128 .LEHE33-.LEHB33
 1717 00b9 E90B     		.uleb128 .L100-.LFB1099
 1718 00bb 03       		.uleb128 0x3
 1719 00bc F602     		.uleb128 .LEHB34-.LFB1099
 1720 00be 23       		.uleb128 .LEHE34-.LEHB34
 1721 00bf 00       		.uleb128 0
 1722 00c0 00       		.uleb128 0
 1723 00c1 9F03     		.uleb128 .LEHB35-.LFB1099
 1724 00c3 1C       		.uleb128 .LEHE35-.LEHB35
 1725 00c4 CC0C     		.uleb128 .L102-.LFB1099
 1726 00c6 01       		.uleb128 0x1
 1727 00c7 C503     		.uleb128 .LEHB36-.LFB1099
 1728 00c9 22       		.uleb128 .LEHE36-.LEHB36
 1729 00ca CA0C     		.uleb128 .L103-.LFB1099
 1730 00cc 03       		.uleb128 0x3
 1731 00cd 8004     		.uleb128 .LEHB37-.LFB1099
 1732 00cf 05       		.uleb128 .LEHE37-.LEHB37
 1733 00d0 00       		.uleb128 0
 1734 00d1 00       		.uleb128 0
 1735 00d2 8B04     		.uleb128 .LEHB38-.LFB1099
 1736 00d4 1C       		.uleb128 .LEHE38-.LEHB38
 1737 00d5 AD0D     		.uleb128 .L105-.LFB1099
 1738 00d7 01       		.uleb128 0x1
 1739 00d8 B104     		.uleb128 .LEHB39-.LFB1099
 1740 00da 22       		.uleb128 .LEHE39-.LEHB39
 1741 00db AB0D     		.uleb128 .L106-.LFB1099
 1742 00dd 03       		.uleb128 0x3
 1743 00de EC04     		.uleb128 .LEHB40-.LFB1099
 1744 00e0 05       		.uleb128 .LEHE40-.LEHB40
 1745 00e1 00       		.uleb128 0
 1746 00e2 00       		.uleb128 0
 1747 00e3 F704     		.uleb128 .LEHB41-.LFB1099
 1748 00e5 1C       		.uleb128 .LEHE41-.LEHB41
 1749 00e6 8E0E     		.uleb128 .L108-.LFB1099
 1750 00e8 01       		.uleb128 0x1
 1751 00e9 9D05     		.uleb128 .LEHB42-.LFB1099
 1752 00eb 22       		.uleb128 .LEHE42-.LEHB42
 1753 00ec 8C0E     		.uleb128 .L109-.LFB1099
 1754 00ee 03       		.uleb128 0x3
 1755 00ef D805     		.uleb128 .LEHB43-.LFB1099
 1756 00f1 05       		.uleb128 .LEHE43-.LEHB43
 1757 00f2 00       		.uleb128 0
 1758 00f3 00       		.uleb128 0
 1759 00f4 E305     		.uleb128 .LEHB44-.LFB1099
 1760 00f6 1C       		.uleb128 .LEHE44-.LEHB44
 1761 00f7 EF0E     		.uleb128 .L111-.LFB1099
 1762 00f9 01       		.uleb128 0x1
 1763 00fa 8906     		.uleb128 .LEHB45-.LFB1099
 1764 00fc 22       		.uleb128 .LEHE45-.LEHB45
 1765 00fd ED0E     		.uleb128 .L112-.LFB1099
 1766 00ff 03       		.uleb128 0x3
 1767 0100 C906     		.uleb128 .LEHB46-.LFB1099
 1768 0102 05       		.uleb128 .LEHE46-.LEHB46
 1769 0103 00       		.uleb128 0
 1770 0104 00       		.uleb128 0
 1771 0105 D406     		.uleb128 .LEHB47-.LFB1099
 1772 0107 1C       		.uleb128 .LEHE47-.LEHB47
 1773 0108 D00F     		.uleb128 .L114-.LFB1099
 1774 010a 01       		.uleb128 0x1
 1775 010b FA06     		.uleb128 .LEHB48-.LFB1099
 1776 010d 22       		.uleb128 .LEHE48-.LEHB48
 1777 010e CE0F     		.uleb128 .L115-.LFB1099
 1778 0110 03       		.uleb128 0x3
 1779 0111 BA07     		.uleb128 .LEHB49-.LFB1099
 1780 0113 05       		.uleb128 .LEHE49-.LEHB49
 1781 0114 00       		.uleb128 0
 1782 0115 00       		.uleb128 0
 1783 0116 C507     		.uleb128 .LEHB50-.LFB1099
 1784 0118 1C       		.uleb128 .LEHE50-.LEHB50
 1785 0119 B110     		.uleb128 .L117-.LFB1099
 1786 011b 01       		.uleb128 0x1
 1787 011c EB07     		.uleb128 .LEHB51-.LFB1099
 1788 011e 22       		.uleb128 .LEHE51-.LEHB51
 1789 011f AF10     		.uleb128 .L118-.LFB1099
 1790 0121 03       		.uleb128 0x3
 1791 0122 AA08     		.uleb128 .LEHB52-.LFB1099
 1792 0124 05       		.uleb128 .LEHE52-.LEHB52
 1793 0125 00       		.uleb128 0
 1794 0126 00       		.uleb128 0
 1795 0127 B508     		.uleb128 .LEHB53-.LFB1099
 1796 0129 1C       		.uleb128 .LEHE53-.LEHB53
 1797 012a 9211     		.uleb128 .L120-.LFB1099
 1798 012c 01       		.uleb128 0x1
 1799 012d DB08     		.uleb128 .LEHB54-.LFB1099
 1800 012f 22       		.uleb128 .LEHE54-.LEHB54
 1801 0130 9011     		.uleb128 .L121-.LFB1099
 1802 0132 03       		.uleb128 0x3
 1803 0133 8C09     		.uleb128 .LEHB55-.LFB1099
 1804 0135 05       		.uleb128 .LEHE55-.LEHB55
 1805 0136 00       		.uleb128 0
 1806 0137 00       		.uleb128 0
 1807 0138 9709     		.uleb128 .LEHB56-.LFB1099
 1808 013a 1C       		.uleb128 .LEHE56-.LEHB56
 1809 013b F311     		.uleb128 .L123-.LFB1099
 1810 013d 01       		.uleb128 0x1
 1811 013e BD09     		.uleb128 .LEHB57-.LFB1099
 1812 0140 22       		.uleb128 .LEHE57-.LEHB57
 1813 0141 F111     		.uleb128 .L124-.LFB1099
 1814 0143 03       		.uleb128 0x3
 1815 0144 FC09     		.uleb128 .LEHB58-.LFB1099
 1816 0146 05       		.uleb128 .LEHE58-.LEHB58
 1817 0147 00       		.uleb128 0
 1818 0148 00       		.uleb128 0
 1819 0149 870A     		.uleb128 .LEHB59-.LFB1099
 1820 014b 1C       		.uleb128 .LEHE59-.LEHB59
 1821 014c D412     		.uleb128 .L126-.LFB1099
 1822 014e 01       		.uleb128 0x1
 1823 014f AD0A     		.uleb128 .LEHB60-.LFB1099
 1824 0151 22       		.uleb128 .LEHE60-.LEHB60
 1825 0152 D212     		.uleb128 .L127-.LFB1099
 1826 0154 03       		.uleb128 0x3
 1827 0155 CF0A     		.uleb128 .LEHB61-.LFB1099
 1828 0157 43       		.uleb128 .LEHE61-.LEHB61
 1829 0158 B313     		.uleb128 .L129-.LFB1099
 1830 015a 01       		.uleb128 0x1
 1831 015b 9C0B     		.uleb128 .LEHB62-.LFB1099
 1832 015d 41       		.uleb128 .LEHE62-.LEHB62
 1833 015e 00       		.uleb128 0
 1834 015f 00       		.uleb128 0
 1835 0160 F30B     		.uleb128 .LEHB63-.LFB1099
 1836 0162 3A       		.uleb128 .LEHE63-.LEHB63
 1837 0163 B70C     		.uleb128 .L101-.LFB1099
 1838 0165 00       		.uleb128 0
 1839 0166 AD0C     		.uleb128 .LEHB64-.LFB1099
 1840 0168 05       		.uleb128 .LEHE64-.LEHB64
 1841 0169 00       		.uleb128 0
 1842 016a 00       		.uleb128 0
 1843 016b C50C     		.uleb128 .LEHB65-.LFB1099
 1844 016d 05       		.uleb128 .LEHE65-.LEHB65
 1845 016e 00       		.uleb128 0
 1846 016f 00       		.uleb128 0
 1847 0170 D40C     		.uleb128 .LEHB66-.LFB1099
 1848 0172 3A       		.uleb128 .LEHE66-.LEHB66
 1849 0173 980D     		.uleb128 .L104-.LFB1099
 1850 0175 00       		.uleb128 0
 1851 0176 8E0D     		.uleb128 .LEHB67-.LFB1099
 1852 0178 05       		.uleb128 .LEHE67-.LEHB67
 1853 0179 00       		.uleb128 0
 1854 017a 00       		.uleb128 0
 1855 017b A60D     		.uleb128 .LEHB68-.LFB1099
 1856 017d 05       		.uleb128 .LEHE68-.LEHB68
 1857 017e 00       		.uleb128 0
 1858 017f 00       		.uleb128 0
 1859 0180 B50D     		.uleb128 .LEHB69-.LFB1099
 1860 0182 3A       		.uleb128 .LEHE69-.LEHB69
 1861 0183 F90D     		.uleb128 .L107-.LFB1099
 1862 0185 00       		.uleb128 0
 1863 0186 EF0D     		.uleb128 .LEHB70-.LFB1099
 1864 0188 05       		.uleb128 .LEHE70-.LEHB70
 1865 0189 00       		.uleb128 0
 1866 018a 00       		.uleb128 0
 1867 018b 870E     		.uleb128 .LEHB71-.LFB1099
 1868 018d 05       		.uleb128 .LEHE71-.LEHB71
 1869 018e 00       		.uleb128 0
 1870 018f 00       		.uleb128 0
 1871 0190 960E     		.uleb128 .LEHB72-.LFB1099
 1872 0192 3A       		.uleb128 .LEHE72-.LEHB72
 1873 0193 DA0E     		.uleb128 .L110-.LFB1099
 1874 0195 00       		.uleb128 0
 1875 0196 D00E     		.uleb128 .LEHB73-.LFB1099
 1876 0198 05       		.uleb128 .LEHE73-.LEHB73
 1877 0199 00       		.uleb128 0
 1878 019a 00       		.uleb128 0
 1879 019b E80E     		.uleb128 .LEHB74-.LFB1099
 1880 019d 05       		.uleb128 .LEHE74-.LEHB74
 1881 019e 00       		.uleb128 0
 1882 019f 00       		.uleb128 0
 1883 01a0 F70E     		.uleb128 .LEHB75-.LFB1099
 1884 01a2 3A       		.uleb128 .LEHE75-.LEHB75
 1885 01a3 BB0F     		.uleb128 .L113-.LFB1099
 1886 01a5 00       		.uleb128 0
 1887 01a6 B10F     		.uleb128 .LEHB76-.LFB1099
 1888 01a8 05       		.uleb128 .LEHE76-.LEHB76
 1889 01a9 00       		.uleb128 0
 1890 01aa 00       		.uleb128 0
 1891 01ab C90F     		.uleb128 .LEHB77-.LFB1099
 1892 01ad 05       		.uleb128 .LEHE77-.LEHB77
 1893 01ae 00       		.uleb128 0
 1894 01af 00       		.uleb128 0
 1895 01b0 D80F     		.uleb128 .LEHB78-.LFB1099
 1896 01b2 3A       		.uleb128 .LEHE78-.LEHB78
 1897 01b3 9C10     		.uleb128 .L116-.LFB1099
 1898 01b5 00       		.uleb128 0
 1899 01b6 9210     		.uleb128 .LEHB79-.LFB1099
 1900 01b8 05       		.uleb128 .LEHE79-.LEHB79
 1901 01b9 00       		.uleb128 0
 1902 01ba 00       		.uleb128 0
 1903 01bb AA10     		.uleb128 .LEHB80-.LFB1099
 1904 01bd 05       		.uleb128 .LEHE80-.LEHB80
 1905 01be 00       		.uleb128 0
 1906 01bf 00       		.uleb128 0
 1907 01c0 B910     		.uleb128 .LEHB81-.LFB1099
 1908 01c2 3A       		.uleb128 .LEHE81-.LEHB81
 1909 01c3 FD10     		.uleb128 .L119-.LFB1099
 1910 01c5 00       		.uleb128 0
 1911 01c6 F310     		.uleb128 .LEHB82-.LFB1099
 1912 01c8 05       		.uleb128 .LEHE82-.LEHB82
 1913 01c9 00       		.uleb128 0
 1914 01ca 00       		.uleb128 0
 1915 01cb 8B11     		.uleb128 .LEHB83-.LFB1099
 1916 01cd 05       		.uleb128 .LEHE83-.LEHB83
 1917 01ce 00       		.uleb128 0
 1918 01cf 00       		.uleb128 0
 1919 01d0 9A11     		.uleb128 .LEHB84-.LFB1099
 1920 01d2 3A       		.uleb128 .LEHE84-.LEHB84
 1921 01d3 DE11     		.uleb128 .L122-.LFB1099
 1922 01d5 00       		.uleb128 0
 1923 01d6 D411     		.uleb128 .LEHB85-.LFB1099
 1924 01d8 05       		.uleb128 .LEHE85-.LEHB85
 1925 01d9 00       		.uleb128 0
 1926 01da 00       		.uleb128 0
 1927 01db EC11     		.uleb128 .LEHB86-.LFB1099
 1928 01dd 05       		.uleb128 .LEHE86-.LEHB86
 1929 01de 00       		.uleb128 0
 1930 01df 00       		.uleb128 0
 1931 01e0 FB11     		.uleb128 .LEHB87-.LFB1099
 1932 01e2 3A       		.uleb128 .LEHE87-.LEHB87
 1933 01e3 BF12     		.uleb128 .L125-.LFB1099
 1934 01e5 00       		.uleb128 0
 1935 01e6 B512     		.uleb128 .LEHB88-.LFB1099
 1936 01e8 05       		.uleb128 .LEHE88-.LEHB88
 1937 01e9 00       		.uleb128 0
 1938 01ea 00       		.uleb128 0
 1939 01eb CD12     		.uleb128 .LEHB89-.LFB1099
 1940 01ed 05       		.uleb128 .LEHE89-.LEHB89
 1941 01ee 00       		.uleb128 0
 1942 01ef 00       		.uleb128 0
 1943 01f0 DC12     		.uleb128 .LEHB90-.LFB1099
 1944 01f2 3A       		.uleb128 .LEHE90-.LEHB90
 1945 01f3 A013     		.uleb128 .L128-.LFB1099
 1946 01f5 00       		.uleb128 0
 1947 01f6 9613     		.uleb128 .LEHB91-.LFB1099
 1948 01f8 05       		.uleb128 .LEHE91-.LEHB91
 1949 01f9 00       		.uleb128 0
 1950 01fa 00       		.uleb128 0
 1951 01fb AE13     		.uleb128 .LEHB92-.LFB1099
 1952 01fd 05       		.uleb128 .LEHE92-.LEHB92
 1953 01fe 00       		.uleb128 0
 1954 01ff 00       		.uleb128 0
 1955 0200 BB13     		.uleb128 .LEHB93-.LFB1099
 1956 0202 3A       		.uleb128 .LEHE93-.LEHB93
 1957 0203 FF13     		.uleb128 .L130-.LFB1099
 1958 0205 00       		.uleb128 0
 1959 0206 F513     		.uleb128 .LEHB94-.LFB1099
 1960 0208 05       		.uleb128 .LEHE94-.LEHB94
 1961 0209 00       		.uleb128 0
 1962 020a 00       		.uleb128 0
 1963 020b 8D14     		.uleb128 .LEHB95-.LFB1099
 1964 020d 05       		.uleb128 .LEHE95-.LEHB95
 1965 020e 00       		.uleb128 0
 1966 020f 00       		.uleb128 0
 1967              	.LLSDACSE1099:
 1968 0210 01       		.byte	0x1
 1969 0211 00       		.byte	0
 1970 0212 00       		.byte	0
 1971 0213 7D       		.byte	0x7d
 1972              		.align 4
 1973 0214 00000000 		.long	0
 1974              	
 1975              	.LLSDATT1099:
 1976              		.text
 1978              		.section	.rodata
 1979              	.LC10:
 1980 01c9 4932435F 		.string	"I2C_testWPRNoInit"
 1980      74657374 
 1980      5750524E 
 1980      6F496E69 
 1980      7400
 1981              		.section	.text._ZN21TestI2C_testWPRNoInitC2Ev,"axG",@progbits,_ZN21TestI2C_testWPRNoInitC5Ev,comda
 1982              		.align 2
 1983              		.weak	_ZN21TestI2C_testWPRNoInitC2Ev
 1985              	_ZN21TestI2C_testWPRNoInitC2Ev:
 1986              	.LFB1101:
  94:testI2C.cpp   **** 
  95:testI2C.cpp   **** TEST(I2C_testWPRNoInit) {
 1987              		.loc 3 95 0
 1988              		.cfi_startproc
 1989 0000 55       		pushq	%rbp
 1990              		.cfi_def_cfa_offset 16
 1991              		.cfi_offset 6, -16
 1992 0001 4889E5   		movq	%rsp, %rbp
 1993              		.cfi_def_cfa_register 6
 1994 0004 53       		pushq	%rbx
 1995 0005 4883EC18 		subq	$24, %rsp
 1996              		.cfi_offset 3, -24
 1997 0009 48897DE8 		movq	%rdi, -24(%rbp)
 1998              	.LBB6:
 1999              		.loc 3 95 0
 2000 000d 488B5DE8 		movq	-24(%rbp), %rbx
 2001 0011 E8000000 		call	_ZN13UnitTestSuite12GetSuiteNameEv
 2001      00
 2002 0016 41B85F00 		movl	$95, %r8d
 2002      0000
 2003 001c 488D0D00 		leaq	.LC1(%rip), %rcx
 2003      000000
 2004 0023 4889C2   		movq	%rax, %rdx
 2005 0026 488D3500 		leaq	.LC10(%rip), %rsi
 2005      000000
 2006 002d 4889DF   		movq	%rbx, %rdi
 2007 0030 E8000000 		call	_ZN8UnitTest4TestC2EPKcS2_S2_i@PLT
 2007      00
 2008 0035 488D1500 		leaq	16+_ZTV21TestI2C_testWPRNoInit(%rip), %rdx
 2008      000000
 2009 003c 488B45E8 		movq	-24(%rbp), %rax
 2010 0040 488910   		movq	%rdx, (%rax)
 2011              	.LBE6:
 2012 0043 90       		nop
 2013 0044 4883C418 		addq	$24, %rsp
 2014 0048 5B       		popq	%rbx
 2015 0049 5D       		popq	%rbp
 2016              		.cfi_def_cfa 7, 8
 2017 004a C3       		ret
 2018              		.cfi_endproc
 2019              	.LFE1101:
 2021              		.weak	_ZN21TestI2C_testWPRNoInitC1Ev
 2022              		.set	_ZN21TestI2C_testWPRNoInitC1Ev,_ZN21TestI2C_testWPRNoInitC2Ev
 2023              		.globl	testI2C_testWPRNoInitInstance
 2024              		.bss
 2025 0079 00000000 		.align 32
 2025      000000
 2028              	testI2C_testWPRNoInitInstance:
 2029 0080 00000000 		.zero	56
 2029      00000000 
 2029      00000000 
 2029      00000000 
 2029      00000000 
 2030              		.globl	adderI2C_testWPRNoInit
 2033              	adderI2C_testWPRNoInit:
 2034 00b8 00       		.zero	1
 2035              		.section	.rodata
 2036 01db 00000000 		.align 8
 2036      00
 2037              	.LC11:
 2038 01e0 556E6861 		.string	"Unhandled exception in CHECK_EQUAL(I2C_NOT_INITIALISED, iStatus)"
 2038      6E646C65 
 2038      64206578 
 2038      63657074 
 2038      696F6E20 
 2039              		.text
 2040 0e43 90       		.align 2
 2041              		.globl	_ZNK21TestI2C_testWPRNoInit7RunImplEv
 2043              	_ZNK21TestI2C_testWPRNoInit7RunImplEv:
 2044              	.LFB1103:
 2045              		.loc 3 95 0
 2046              		.cfi_startproc
 2047              		.cfi_personality 0x9b,DW.ref.__gxx_personality_v0
 2048              		.cfi_lsda 0x1b,.LLSDA1103
 2049 0e44 55       		pushq	%rbp
 2050              		.cfi_def_cfa_offset 16
 2051              		.cfi_offset 6, -16
 2052 0e45 4889E5   		movq	%rsp, %rbp
 2053              		.cfi_def_cfa_register 6
 2054 0e48 53       		pushq	%rbx
 2055 0e49 4883EC78 		subq	$120, %rsp
 2056              		.cfi_offset 3, -24
 2057 0e4d 48897D88 		movq	%rdi, -120(%rbp)
 2058              		.loc 3 95 0
 2059 0e51 64488B04 		movq	%fs:40, %rax
 2059      25280000 
 2059      00
 2060 0e5a 488945E8 		movq	%rax, -24(%rbp)
 2061 0e5e 31C0     		xorl	%eax, %eax
  96:testI2C.cpp   **** 	Buffer i2cBuffer;
  97:testI2C.cpp   **** 	I2CStatus iStatus;
  98:testI2C.cpp   **** 	BufferStatus bStatus;
  99:testI2C.cpp   **** 	bStatus = bufInitialise(&i2cBuffer, 8, 0x00, NULL);
 2062              		.loc 3 99 0
 2063 0e60 488D45A0 		leaq	-96(%rbp), %rax
 2064 0e64 B9000000 		movl	$0, %ecx
 2064      00
 2065 0e69 BA000000 		movl	$0, %edx
 2065      00
 2066 0e6e BE080000 		movl	$8, %esi
 2066      00
 2067 0e73 4889C7   		movq	%rax, %rdi
 2068              	.LEHB96:
 2069 0e76 E8000000 		call	bufInitialise@PLT
 2069      00
 2070              	.LEHE96:
 2071 0e7b 894598   		movl	%eax, -104(%rbp)
 2072              	.LEHB97:
 100:testI2C.cpp   **** 	CHECK_EQUAL(BUF_SUCCESS, bStatus);
 2073              		.loc 3 100 0
 2074 0e7e E8000000 		call	_ZN8UnitTest11CurrentTest7DetailsEv@PLT
 2074      00
 2075 0e83 488B08   		movq	(%rax), %rcx
 2076 0e86 488D45C0 		leaq	-64(%rbp), %rax
 2077 0e8a BA640000 		movl	$100, %edx
 2077      00
 2078 0e8f 4889CE   		movq	%rcx, %rsi
 2079 0e92 4889C7   		movq	%rax, %rdi
 2080 0e95 E8000000 		call	_ZN8UnitTest11TestDetailsC1ERKS0_i@PLT
 2080      00
 2081              	.LEHE97:
 2082              		.loc 3 100 0 is_stmt 0 discriminator 2
 2083 0e9a C7459C00 		movl	$0, -100(%rbp)
 2083      000000
 2084              	.LEHB98:
 2085 0ea1 E8000000 		call	_ZN8UnitTest11CurrentTest7ResultsEv@PLT
 2085      00
 2086 0ea6 488B00   		movq	(%rax), %rax
 2087 0ea9 488D4DC0 		leaq	-64(%rbp), %rcx
 2088 0ead 488D5598 		leaq	-104(%rbp), %rdx
 2089 0eb1 488D759C 		leaq	-100(%rbp), %rsi
 2090 0eb5 4889C7   		movq	%rax, %rdi
 2091 0eb8 E8000000 		call	_ZN8UnitTest10CheckEqualI12BufferStatusS1_EEvRNS_11TestResultsERKT_RKT0_RKNS_11TestDetailsE
 2091      00
 2092              	.LEHE98:
 2093              	.L136:
 101:testI2C.cpp   **** 	iStatus = i2cWritePromRecords(&i2cBuffer, NULL, NULL, NULL);
 2094              		.loc 3 101 0 is_stmt 1
 2095 0ebd 488D45A0 		leaq	-96(%rbp), %rax
 2096 0ec1 B9000000 		movl	$0, %ecx
 2096      00
 2097 0ec6 BA000000 		movl	$0, %edx
 2097      00
 2098 0ecb BE000000 		movl	$0, %esi
 2098      00
 2099 0ed0 4889C7   		movq	%rax, %rdi
 2100              	.LEHB99:
 2101 0ed3 E8000000 		call	i2cWritePromRecords@PLT
 2101      00
 2102              	.LEHE99:
 2103 0ed8 894594   		movl	%eax, -108(%rbp)
 2104              	.LEHB100:
 102:testI2C.cpp   **** 	CHECK_EQUAL(I2C_NOT_INITIALISED, iStatus);
 2105              		.loc 3 102 0
 2106 0edb E8000000 		call	_ZN8UnitTest11CurrentTest7DetailsEv@PLT
 2106      00
 2107 0ee0 488B08   		movq	(%rax), %rcx
 2108 0ee3 488D45C0 		leaq	-64(%rbp), %rax
 2109 0ee7 BA660000 		movl	$102, %edx
 2109      00
 2110 0eec 4889CE   		movq	%rcx, %rsi
 2111 0eef 4889C7   		movq	%rax, %rdi
 2112 0ef2 E8000000 		call	_ZN8UnitTest11TestDetailsC1ERKS0_i@PLT
 2112      00
 2113              	.LEHE100:
 2114              		.loc 3 102 0 is_stmt 0 discriminator 2
 2115 0ef7 C7459C02 		movl	$2, -100(%rbp)
 2115      000000
 2116              	.LEHB101:
 2117 0efe E8000000 		call	_ZN8UnitTest11CurrentTest7ResultsEv@PLT
 2117      00
 2118 0f03 488B00   		movq	(%rax), %rax
 2119 0f06 488D4DC0 		leaq	-64(%rbp), %rcx
 2120 0f0a 488D5594 		leaq	-108(%rbp), %rdx
 2121 0f0e 488D759C 		leaq	-100(%rbp), %rsi
 2122 0f12 4889C7   		movq	%rax, %rdi
 2123 0f15 E8000000 		call	_ZN8UnitTest10CheckEqualI9I2CStatusS1_EEvRNS_11TestResultsERKT_RKT0_RKNS_11TestDetailsE
 2123      00
 2124              	.LEHE101:
 2125              	.L140:
 103:testI2C.cpp   **** 	bufDestroy(&i2cBuffer);
 2126              		.loc 3 103 0 is_stmt 1
 2127 0f1a 488D45A0 		leaq	-96(%rbp), %rax
 2128 0f1e 4889C7   		movq	%rax, %rdi
 2129              	.LEHB102:
 2130 0f21 E8000000 		call	bufDestroy@PLT
 2130      00
 2131              	.LEHE102:
 104:testI2C.cpp   **** }
 2132              		.loc 3 104 0
 2133 0f26 90       		nop
 2134 0f27 488B45E8 		movq	-24(%rbp), %rax
 2135 0f2b 64483304 		xorq	%fs:40, %rax
 2135      25280000 
 2135      00
 2136 0f34 0F84CC00 		je	.L142
 2136      0000
 2137 0f3a E9C20000 		jmp	.L149
 2137      00
 2138              	.L144:
 2139 0f3f EB00     		jmp	.L135
 2140              	.L143:
 2141              	.L135:
 100:testI2C.cpp   **** 	iStatus = i2cWritePromRecords(&i2cBuffer, NULL, NULL, NULL);
 2142              		.loc 3 100 0
 2143 0f41 4889C7   		movq	%rax, %rdi
 2144 0f44 E8000000 		call	__cxa_begin_catch@PLT
 2144      00
 2145              	.LEHB103:
 2146 0f49 E8000000 		call	_ZN8UnitTest11CurrentTest7ResultsEv@PLT
 2146      00
 2147 0f4e 488B18   		movq	(%rax), %rbx
 2148 0f51 E8000000 		call	_ZN8UnitTest11CurrentTest7DetailsEv@PLT
 2148      00
 100:testI2C.cpp   **** 	iStatus = i2cWritePromRecords(&i2cBuffer, NULL, NULL, NULL);
 2149              		.loc 3 100 0 is_stmt 0 discriminator 8
 2150 0f56 488B08   		movq	(%rax), %rcx
 2151 0f59 488D45C0 		leaq	-64(%rbp), %rax
 2152 0f5d BA640000 		movl	$100, %edx
 2152      00
 2153 0f62 4889CE   		movq	%rcx, %rsi
 2154 0f65 4889C7   		movq	%rax, %rdi
 2155 0f68 E8000000 		call	_ZN8UnitTest11TestDetailsC1ERKS0_i@PLT
 2155      00
 100:testI2C.cpp   **** 	iStatus = i2cWritePromRecords(&i2cBuffer, NULL, NULL, NULL);
 2156              		.loc 3 100 0 discriminator 12
 2157 0f6d 488D45C0 		leaq	-64(%rbp), %rax
 2158 0f71 488D1500 		leaq	.LC3(%rip), %rdx
 2158      000000
 2159 0f78 4889C6   		movq	%rax, %rsi
 2160 0f7b 4889DF   		movq	%rbx, %rdi
 2161 0f7e E8000000 		call	_ZN8UnitTest11TestResults13OnTestFailureERKNS_11TestDetailsEPKc@PLT
 2161      00
 2162              	.LEHE103:
 2163              	.LEHB104:
 100:testI2C.cpp   **** 	iStatus = i2cWritePromRecords(&i2cBuffer, NULL, NULL, NULL);
 2164              		.loc 3 100 0 discriminator 14
 2165 0f83 E8000000 		call	__cxa_end_catch@PLT
 2165      00
 2166              	.LEHE104:
 2167 0f88 E930FFFF 		jmp	.L136
 2167      FF
 2168              	.L145:
 2169 0f8d 4889C3   		movq	%rax, %rbx
 100:testI2C.cpp   **** 	iStatus = i2cWritePromRecords(&i2cBuffer, NULL, NULL, NULL);
 2170              		.loc 3 100 0
 2171 0f90 E8000000 		call	__cxa_end_catch@PLT
 2171      00
 2172 0f95 4889D8   		movq	%rbx, %rax
 2173 0f98 4889C7   		movq	%rax, %rdi
 2174              	.LEHB105:
 2175 0f9b E8000000 		call	_Unwind_Resume@PLT
 2175      00
 2176              	.LEHE105:
 2177              	.L147:
 2178 0fa0 EB00     		jmp	.L139
 2179              	.L146:
 2180              	.L139:
 102:testI2C.cpp   **** 	bufDestroy(&i2cBuffer);
 2181              		.loc 3 102 0 is_stmt 1
 2182 0fa2 4889C7   		movq	%rax, %rdi
 2183 0fa5 E8000000 		call	__cxa_begin_catch@PLT
 2183      00
 2184              	.LEHB106:
 2185 0faa E8000000 		call	_ZN8UnitTest11CurrentTest7ResultsEv@PLT
 2185      00
 2186 0faf 488B18   		movq	(%rax), %rbx
 2187 0fb2 E8000000 		call	_ZN8UnitTest11CurrentTest7DetailsEv@PLT
 2187      00
 102:testI2C.cpp   **** 	bufDestroy(&i2cBuffer);
 2188              		.loc 3 102 0 is_stmt 0 discriminator 8
 2189 0fb7 488B08   		movq	(%rax), %rcx
 2190 0fba 488D45C0 		leaq	-64(%rbp), %rax
 2191 0fbe BA660000 		movl	$102, %edx
 2191      00
 2192 0fc3 4889CE   		movq	%rcx, %rsi
 2193 0fc6 4889C7   		movq	%rax, %rdi
 2194 0fc9 E8000000 		call	_ZN8UnitTest11TestDetailsC1ERKS0_i@PLT
 2194      00
 102:testI2C.cpp   **** 	bufDestroy(&i2cBuffer);
 2195              		.loc 3 102 0 discriminator 12
 2196 0fce 488D45C0 		leaq	-64(%rbp), %rax
 2197 0fd2 488D1500 		leaq	.LC11(%rip), %rdx
 2197      000000
 2198 0fd9 4889C6   		movq	%rax, %rsi
 2199 0fdc 4889DF   		movq	%rbx, %rdi
 2200 0fdf E8000000 		call	_ZN8UnitTest11TestResults13OnTestFailureERKNS_11TestDetailsEPKc@PLT
 2200      00
 2201              	.LEHE106:
 2202              	.LEHB107:
 102:testI2C.cpp   **** 	bufDestroy(&i2cBuffer);
 2203              		.loc 3 102 0 discriminator 14
 2204 0fe4 E8000000 		call	__cxa_end_catch@PLT
 2204      00
 2205              	.LEHE107:
 2206 0fe9 E92CFFFF 		jmp	.L140
 2206      FF
 2207              	.L148:
 2208 0fee 4889C3   		movq	%rax, %rbx
 102:testI2C.cpp   **** 	bufDestroy(&i2cBuffer);
 2209              		.loc 3 102 0
 2210 0ff1 E8000000 		call	__cxa_end_catch@PLT
 2210      00
 2211 0ff6 4889D8   		movq	%rbx, %rax
 2212 0ff9 4889C7   		movq	%rax, %rdi
 2213              	.LEHB108:
 2214 0ffc E8000000 		call	_Unwind_Resume@PLT
 2214      00
 2215              	.LEHE108:
 2216              	.L149:
 2217              		.loc 3 104 0 is_stmt 1
 2218 1001 E8000000 		call	__stack_chk_fail@PLT
 2218      00
 2219              	.L142:
 2220 1006 4883C478 		addq	$120, %rsp
 2221 100a 5B       		popq	%rbx
 2222 100b 5D       		popq	%rbp
 2223              		.cfi_def_cfa 7, 8
 2224 100c C3       		ret
 2225              		.cfi_endproc
 2226              	.LFE1103:
 2227              		.section	.gcc_except_table
 2228              		.align 4
 2229              	.LLSDA1103:
 2230 0218 FF       		.byte	0xff
 2231 0219 9B       		.byte	0x9b
 2232 021a 51       		.uleb128 .LLSDATT1103-.LLSDATTD1103
 2233              	.LLSDATTD1103:
 2234 021b 01       		.byte	0x1
 2235 021c 44       		.uleb128 .LLSDACSE1103-.LLSDACSB1103
 2236              	.LLSDACSB1103:
 2237 021d 32       		.uleb128 .LEHB96-.LFB1103
 2238 021e 05       		.uleb128 .LEHE96-.LEHB96
 2239 021f 00       		.uleb128 0
 2240 0220 00       		.uleb128 0
 2241 0221 3A       		.uleb128 .LEHB97-.LFB1103
 2242 0222 1C       		.uleb128 .LEHE97-.LEHB97
 2243 0223 FD01     		.uleb128 .L143-.LFB1103
 2244 0225 01       		.uleb128 0x1
 2245 0226 5D       		.uleb128 .LEHB98-.LFB1103
 2246 0227 1C       		.uleb128 .LEHE98-.LEHB98
 2247 0228 FB01     		.uleb128 .L144-.LFB1103
 2248 022a 03       		.uleb128 0x3
 2249 022b 8F01     		.uleb128 .LEHB99-.LFB1103
 2250 022d 05       		.uleb128 .LEHE99-.LEHB99
 2251 022e 00       		.uleb128 0
 2252 022f 00       		.uleb128 0
 2253 0230 9701     		.uleb128 .LEHB100-.LFB1103
 2254 0232 1C       		.uleb128 .LEHE100-.LEHB100
 2255 0233 DE02     		.uleb128 .L146-.LFB1103
 2256 0235 01       		.uleb128 0x1
 2257 0236 BA01     		.uleb128 .LEHB101-.LFB1103
 2258 0238 1C       		.uleb128 .LEHE101-.LEHB101
 2259 0239 DC02     		.uleb128 .L147-.LFB1103
 2260 023b 03       		.uleb128 0x3
 2261 023c DD01     		.uleb128 .LEHB102-.LFB1103
 2262 023e 05       		.uleb128 .LEHE102-.LEHB102
 2263 023f 00       		.uleb128 0
 2264 0240 00       		.uleb128 0
 2265 0241 8502     		.uleb128 .LEHB103-.LFB1103
 2266 0243 3A       		.uleb128 .LEHE103-.LEHB103
 2267 0244 C902     		.uleb128 .L145-.LFB1103
 2268 0246 00       		.uleb128 0
 2269 0247 BF02     		.uleb128 .LEHB104-.LFB1103
 2270 0249 05       		.uleb128 .LEHE104-.LEHB104
 2271 024a 00       		.uleb128 0
 2272 024b 00       		.uleb128 0
 2273 024c D702     		.uleb128 .LEHB105-.LFB1103
 2274 024e 05       		.uleb128 .LEHE105-.LEHB105
 2275 024f 00       		.uleb128 0
 2276 0250 00       		.uleb128 0
 2277 0251 E602     		.uleb128 .LEHB106-.LFB1103
 2278 0253 3A       		.uleb128 .LEHE106-.LEHB106
 2279 0254 AA03     		.uleb128 .L148-.LFB1103
 2280 0256 00       		.uleb128 0
 2281 0257 A003     		.uleb128 .LEHB107-.LFB1103
 2282 0259 05       		.uleb128 .LEHE107-.LEHB107
 2283 025a 00       		.uleb128 0
 2284 025b 00       		.uleb128 0
 2285 025c B803     		.uleb128 .LEHB108-.LFB1103
 2286 025e 05       		.uleb128 .LEHE108-.LEHB108
 2287 025f 00       		.uleb128 0
 2288 0260 00       		.uleb128 0
 2289              	.LLSDACSE1103:
 2290 0261 01       		.byte	0x1
 2291 0262 00       		.byte	0
 2292 0263 00       		.byte	0
 2293 0264 7D       		.byte	0x7d
 2294 0265 000000   		.align 4
 2295 0268 00000000 		.long	0
 2296              	
 2297              	.LLSDATT1103:
 2298              		.text
 2300              		.section	.rodata
 2301              	.LC12:
 2302 0221 4932435F 		.string	"I2C_testFinaliseNoInit"
 2302      74657374 
 2302      46696E61 
 2302      6C697365 
 2302      4E6F496E 
 2303              		.section	.text._ZN26TestI2C_testFinaliseNoInitC2Ev,"axG",@progbits,_ZN26TestI2C_testFinaliseNoInit
 2304              		.align 2
 2305              		.weak	_ZN26TestI2C_testFinaliseNoInitC2Ev
 2307              	_ZN26TestI2C_testFinaliseNoInitC2Ev:
 2308              	.LFB1105:
 105:testI2C.cpp   **** 
 106:testI2C.cpp   **** TEST(I2C_testFinaliseNoInit) {
 2309              		.loc 3 106 0
 2310              		.cfi_startproc
 2311 0000 55       		pushq	%rbp
 2312              		.cfi_def_cfa_offset 16
 2313              		.cfi_offset 6, -16
 2314 0001 4889E5   		movq	%rsp, %rbp
 2315              		.cfi_def_cfa_register 6
 2316 0004 53       		pushq	%rbx
 2317 0005 4883EC18 		subq	$24, %rsp
 2318              		.cfi_offset 3, -24
 2319 0009 48897DE8 		movq	%rdi, -24(%rbp)
 2320              	.LBB7:
 2321              		.loc 3 106 0
 2322 000d 488B5DE8 		movq	-24(%rbp), %rbx
 2323 0011 E8000000 		call	_ZN13UnitTestSuite12GetSuiteNameEv
 2323      00
 2324 0016 41B86A00 		movl	$106, %r8d
 2324      0000
 2325 001c 488D0D00 		leaq	.LC1(%rip), %rcx
 2325      000000
 2326 0023 4889C2   		movq	%rax, %rdx
 2327 0026 488D3500 		leaq	.LC12(%rip), %rsi
 2327      000000
 2328 002d 4889DF   		movq	%rbx, %rdi
 2329 0030 E8000000 		call	_ZN8UnitTest4TestC2EPKcS2_S2_i@PLT
 2329      00
 2330 0035 488D1500 		leaq	16+_ZTV26TestI2C_testFinaliseNoInit(%rip), %rdx
 2330      000000
 2331 003c 488B45E8 		movq	-24(%rbp), %rax
 2332 0040 488910   		movq	%rdx, (%rax)
 2333              	.LBE7:
 2334 0043 90       		nop
 2335 0044 4883C418 		addq	$24, %rsp
 2336 0048 5B       		popq	%rbx
 2337 0049 5D       		popq	%rbp
 2338              		.cfi_def_cfa 7, 8
 2339 004a C3       		ret
 2340              		.cfi_endproc
 2341              	.LFE1105:
 2343              		.weak	_ZN26TestI2C_testFinaliseNoInitC1Ev
 2344              		.set	_ZN26TestI2C_testFinaliseNoInitC1Ev,_ZN26TestI2C_testFinaliseNoInitC2Ev
 2345              		.globl	testI2C_testFinaliseNoInitInstance
 2346              		.bss
 2347 00b9 00000000 		.align 32
 2347      000000
 2350              	testI2C_testFinaliseNoInitInstance:
 2351 00c0 00000000 		.zero	56
 2351      00000000 
 2351      00000000 
 2351      00000000 
 2351      00000000 
 2352              		.globl	adderI2C_testFinaliseNoInit
 2355              	adderI2C_testFinaliseNoInit:
 2356 00f8 00       		.zero	1
 2357              		.text
 2358 100d 90       		.align 2
 2359              		.globl	_ZNK26TestI2C_testFinaliseNoInit7RunImplEv
 2361              	_ZNK26TestI2C_testFinaliseNoInit7RunImplEv:
 2362              	.LFB1107:
 2363              		.loc 3 106 0
 2364              		.cfi_startproc
 2365              		.cfi_personality 0x9b,DW.ref.__gxx_personality_v0
 2366              		.cfi_lsda 0x1b,.LLSDA1107
 2367 100e 55       		pushq	%rbp
 2368              		.cfi_def_cfa_offset 16
 2369              		.cfi_offset 6, -16
 2370 100f 4889E5   		movq	%rsp, %rbp
 2371              		.cfi_def_cfa_register 6
 2372 1012 53       		pushq	%rbx
 2373 1013 4883EC78 		subq	$120, %rsp
 2374              		.cfi_offset 3, -24
 2375 1017 48897D88 		movq	%rdi, -120(%rbp)
 2376              		.loc 3 106 0
 2377 101b 64488B04 		movq	%fs:40, %rax
 2377      25280000 
 2377      00
 2378 1024 488945E8 		movq	%rax, -24(%rbp)
 2379 1028 31C0     		xorl	%eax, %eax
 107:testI2C.cpp   **** 	Buffer buf;
 108:testI2C.cpp   **** 	I2CStatus iStatus;
 109:testI2C.cpp   **** 	BufferStatus bStatus;
 110:testI2C.cpp   **** 	bStatus = bufInitialise(&buf, 8, 0x00, NULL);
 2380              		.loc 3 110 0
 2381 102a 488D45A0 		leaq	-96(%rbp), %rax
 2382 102e B9000000 		movl	$0, %ecx
 2382      00
 2383 1033 BA000000 		movl	$0, %edx
 2383      00
 2384 1038 BE080000 		movl	$8, %esi
 2384      00
 2385 103d 4889C7   		movq	%rax, %rdi
 2386              	.LEHB109:
 2387 1040 E8000000 		call	bufInitialise@PLT
 2387      00
 2388              	.LEHE109:
 2389 1045 894598   		movl	%eax, -104(%rbp)
 2390              	.LEHB110:
 111:testI2C.cpp   **** 	CHECK_EQUAL(BUF_SUCCESS, bStatus);
 2391              		.loc 3 111 0
 2392 1048 E8000000 		call	_ZN8UnitTest11CurrentTest7DetailsEv@PLT
 2392      00
 2393 104d 488B08   		movq	(%rax), %rcx
 2394 1050 488D45C0 		leaq	-64(%rbp), %rax
 2395 1054 BA6F0000 		movl	$111, %edx
 2395      00
 2396 1059 4889CE   		movq	%rcx, %rsi
 2397 105c 4889C7   		movq	%rax, %rdi
 2398 105f E8000000 		call	_ZN8UnitTest11TestDetailsC1ERKS0_i@PLT
 2398      00
 2399              	.LEHE110:
 2400              		.loc 3 111 0 is_stmt 0 discriminator 2
 2401 1064 C7459C00 		movl	$0, -100(%rbp)
 2401      000000
 2402              	.LEHB111:
 2403 106b E8000000 		call	_ZN8UnitTest11CurrentTest7ResultsEv@PLT
 2403      00
 2404 1070 488B00   		movq	(%rax), %rax
 2405 1073 488D4DC0 		leaq	-64(%rbp), %rcx
 2406 1077 488D5598 		leaq	-104(%rbp), %rdx
 2407 107b 488D759C 		leaq	-100(%rbp), %rsi
 2408 107f 4889C7   		movq	%rax, %rdi
 2409 1082 E8000000 		call	_ZN8UnitTest10CheckEqualI12BufferStatusS1_EEvRNS_11TestResultsERKT_RKT0_RKNS_11TestDetailsE
 2409      00
 2410              	.LEHE111:
 2411              	.L154:
 112:testI2C.cpp   **** 	iStatus = i2cFinalise(&buf, NULL);
 2412              		.loc 3 112 0 is_stmt 1
 2413 1087 488D45A0 		leaq	-96(%rbp), %rax
 2414 108b BE000000 		movl	$0, %esi
 2414      00
 2415 1090 4889C7   		movq	%rax, %rdi
 2416              	.LEHB112:
 2417 1093 E8000000 		call	i2cFinalise@PLT
 2417      00
 2418              	.LEHE112:
 2419 1098 894594   		movl	%eax, -108(%rbp)
 2420              	.LEHB113:
 113:testI2C.cpp   **** 	CHECK_EQUAL(I2C_NOT_INITIALISED, iStatus);
 2421              		.loc 3 113 0
 2422 109b E8000000 		call	_ZN8UnitTest11CurrentTest7DetailsEv@PLT
 2422      00
 2423 10a0 488B08   		movq	(%rax), %rcx
 2424 10a3 488D45C0 		leaq	-64(%rbp), %rax
 2425 10a7 BA710000 		movl	$113, %edx
 2425      00
 2426 10ac 4889CE   		movq	%rcx, %rsi
 2427 10af 4889C7   		movq	%rax, %rdi
 2428 10b2 E8000000 		call	_ZN8UnitTest11TestDetailsC1ERKS0_i@PLT
 2428      00
 2429              	.LEHE113:
 2430              		.loc 3 113 0 is_stmt 0 discriminator 2
 2431 10b7 C7459C02 		movl	$2, -100(%rbp)
 2431      000000
 2432              	.LEHB114:
 2433 10be E8000000 		call	_ZN8UnitTest11CurrentTest7ResultsEv@PLT
 2433      00
 2434 10c3 488B00   		movq	(%rax), %rax
 2435 10c6 488D4DC0 		leaq	-64(%rbp), %rcx
 2436 10ca 488D5594 		leaq	-108(%rbp), %rdx
 2437 10ce 488D759C 		leaq	-100(%rbp), %rsi
 2438 10d2 4889C7   		movq	%rax, %rdi
 2439 10d5 E8000000 		call	_ZN8UnitTest10CheckEqualI9I2CStatusS1_EEvRNS_11TestResultsERKT_RKT0_RKNS_11TestDetailsE
 2439      00
 2440              	.LEHE114:
 2441              	.L158:
 114:testI2C.cpp   **** 	bufDestroy(&buf);
 2442              		.loc 3 114 0 is_stmt 1
 2443 10da 488D45A0 		leaq	-96(%rbp), %rax
 2444 10de 4889C7   		movq	%rax, %rdi
 2445              	.LEHB115:
 2446 10e1 E8000000 		call	bufDestroy@PLT
 2446      00
 2447              	.LEHE115:
 115:testI2C.cpp   **** }
 2448              		.loc 3 115 0
 2449 10e6 90       		nop
 2450 10e7 488B45E8 		movq	-24(%rbp), %rax
 2451 10eb 64483304 		xorq	%fs:40, %rax
 2451      25280000 
 2451      00
 2452 10f4 0F84CC00 		je	.L160
 2452      0000
 2453 10fa E9C20000 		jmp	.L167
 2453      00
 2454              	.L162:
 2455 10ff EB00     		jmp	.L153
 2456              	.L161:
 2457              	.L153:
 111:testI2C.cpp   **** 	iStatus = i2cFinalise(&buf, NULL);
 2458              		.loc 3 111 0
 2459 1101 4889C7   		movq	%rax, %rdi
 2460 1104 E8000000 		call	__cxa_begin_catch@PLT
 2460      00
 2461              	.LEHB116:
 2462 1109 E8000000 		call	_ZN8UnitTest11CurrentTest7ResultsEv@PLT
 2462      00
 2463 110e 488B18   		movq	(%rax), %rbx
 2464 1111 E8000000 		call	_ZN8UnitTest11CurrentTest7DetailsEv@PLT
 2464      00
 111:testI2C.cpp   **** 	iStatus = i2cFinalise(&buf, NULL);
 2465              		.loc 3 111 0 is_stmt 0 discriminator 8
 2466 1116 488B08   		movq	(%rax), %rcx
 2467 1119 488D45C0 		leaq	-64(%rbp), %rax
 2468 111d BA6F0000 		movl	$111, %edx
 2468      00
 2469 1122 4889CE   		movq	%rcx, %rsi
 2470 1125 4889C7   		movq	%rax, %rdi
 2471 1128 E8000000 		call	_ZN8UnitTest11TestDetailsC1ERKS0_i@PLT
 2471      00
 111:testI2C.cpp   **** 	iStatus = i2cFinalise(&buf, NULL);
 2472              		.loc 3 111 0 discriminator 12
 2473 112d 488D45C0 		leaq	-64(%rbp), %rax
 2474 1131 488D1500 		leaq	.LC3(%rip), %rdx
 2474      000000
 2475 1138 4889C6   		movq	%rax, %rsi
 2476 113b 4889DF   		movq	%rbx, %rdi
 2477 113e E8000000 		call	_ZN8UnitTest11TestResults13OnTestFailureERKNS_11TestDetailsEPKc@PLT
 2477      00
 2478              	.LEHE116:
 2479              	.LEHB117:
 111:testI2C.cpp   **** 	iStatus = i2cFinalise(&buf, NULL);
 2480              		.loc 3 111 0 discriminator 14
 2481 1143 E8000000 		call	__cxa_end_catch@PLT
 2481      00
 2482              	.LEHE117:
 2483 1148 E93AFFFF 		jmp	.L154
 2483      FF
 2484              	.L163:
 2485 114d 4889C3   		movq	%rax, %rbx
 111:testI2C.cpp   **** 	iStatus = i2cFinalise(&buf, NULL);
 2486              		.loc 3 111 0
 2487 1150 E8000000 		call	__cxa_end_catch@PLT
 2487      00
 2488 1155 4889D8   		movq	%rbx, %rax
 2489 1158 4889C7   		movq	%rax, %rdi
 2490              	.LEHB118:
 2491 115b E8000000 		call	_Unwind_Resume@PLT
 2491      00
 2492              	.LEHE118:
 2493              	.L165:
 2494 1160 EB00     		jmp	.L157
 2495              	.L164:
 2496              	.L157:
 113:testI2C.cpp   **** 	bufDestroy(&buf);
 2497              		.loc 3 113 0 is_stmt 1
 2498 1162 4889C7   		movq	%rax, %rdi
 2499 1165 E8000000 		call	__cxa_begin_catch@PLT
 2499      00
 2500              	.LEHB119:
 2501 116a E8000000 		call	_ZN8UnitTest11CurrentTest7ResultsEv@PLT
 2501      00
 2502 116f 488B18   		movq	(%rax), %rbx
 2503 1172 E8000000 		call	_ZN8UnitTest11CurrentTest7DetailsEv@PLT
 2503      00
 113:testI2C.cpp   **** 	bufDestroy(&buf);
 2504              		.loc 3 113 0 is_stmt 0 discriminator 8
 2505 1177 488B08   		movq	(%rax), %rcx
 2506 117a 488D45C0 		leaq	-64(%rbp), %rax
 2507 117e BA710000 		movl	$113, %edx
 2507      00
 2508 1183 4889CE   		movq	%rcx, %rsi
 2509 1186 4889C7   		movq	%rax, %rdi
 2510 1189 E8000000 		call	_ZN8UnitTest11TestDetailsC1ERKS0_i@PLT
 2510      00
 113:testI2C.cpp   **** 	bufDestroy(&buf);
 2511              		.loc 3 113 0 discriminator 12
 2512 118e 488D45C0 		leaq	-64(%rbp), %rax
 2513 1192 488D1500 		leaq	.LC11(%rip), %rdx
 2513      000000
 2514 1199 4889C6   		movq	%rax, %rsi
 2515 119c 4889DF   		movq	%rbx, %rdi
 2516 119f E8000000 		call	_ZN8UnitTest11TestResults13OnTestFailureERKNS_11TestDetailsEPKc@PLT
 2516      00
 2517              	.LEHE119:
 2518              	.LEHB120:
 113:testI2C.cpp   **** 	bufDestroy(&buf);
 2519              		.loc 3 113 0 discriminator 14
 2520 11a4 E8000000 		call	__cxa_end_catch@PLT
 2520      00
 2521              	.LEHE120:
 2522 11a9 E92CFFFF 		jmp	.L158
 2522      FF
 2523              	.L166:
 2524 11ae 4889C3   		movq	%rax, %rbx
 113:testI2C.cpp   **** 	bufDestroy(&buf);
 2525              		.loc 3 113 0
 2526 11b1 E8000000 		call	__cxa_end_catch@PLT
 2526      00
 2527 11b6 4889D8   		movq	%rbx, %rax
 2528 11b9 4889C7   		movq	%rax, %rdi
 2529              	.LEHB121:
 2530 11bc E8000000 		call	_Unwind_Resume@PLT
 2530      00
 2531              	.LEHE121:
 2532              	.L167:
 2533              		.loc 3 115 0 is_stmt 1
 2534 11c1 E8000000 		call	__stack_chk_fail@PLT
 2534      00
 2535              	.L160:
 2536 11c6 4883C478 		addq	$120, %rsp
 2537 11ca 5B       		popq	%rbx
 2538 11cb 5D       		popq	%rbp
 2539              		.cfi_def_cfa 7, 8
 2540 11cc C3       		ret
 2541              		.cfi_endproc
 2542              	.LFE1107:
 2543              		.section	.gcc_except_table
 2544              		.align 4
 2545              	.LLSDA1107:
 2546 026c FF       		.byte	0xff
 2547 026d 9B       		.byte	0x9b
 2548 026e 51       		.uleb128 .LLSDATT1107-.LLSDATTD1107
 2549              	.LLSDATTD1107:
 2550 026f 01       		.byte	0x1
 2551 0270 44       		.uleb128 .LLSDACSE1107-.LLSDACSB1107
 2552              	.LLSDACSB1107:
 2553 0271 32       		.uleb128 .LEHB109-.LFB1107
 2554 0272 05       		.uleb128 .LEHE109-.LEHB109
 2555 0273 00       		.uleb128 0
 2556 0274 00       		.uleb128 0
 2557 0275 3A       		.uleb128 .LEHB110-.LFB1107
 2558 0276 1C       		.uleb128 .LEHE110-.LEHB110
 2559 0277 F301     		.uleb128 .L161-.LFB1107
 2560 0279 01       		.uleb128 0x1
 2561 027a 5D       		.uleb128 .LEHB111-.LFB1107
 2562 027b 1C       		.uleb128 .LEHE111-.LEHB111
 2563 027c F101     		.uleb128 .L162-.LFB1107
 2564 027e 03       		.uleb128 0x3
 2565 027f 8501     		.uleb128 .LEHB112-.LFB1107
 2566 0281 05       		.uleb128 .LEHE112-.LEHB112
 2567 0282 00       		.uleb128 0
 2568 0283 00       		.uleb128 0
 2569 0284 8D01     		.uleb128 .LEHB113-.LFB1107
 2570 0286 1C       		.uleb128 .LEHE113-.LEHB113
 2571 0287 D402     		.uleb128 .L164-.LFB1107
 2572 0289 01       		.uleb128 0x1
 2573 028a B001     		.uleb128 .LEHB114-.LFB1107
 2574 028c 1C       		.uleb128 .LEHE114-.LEHB114
 2575 028d D202     		.uleb128 .L165-.LFB1107
 2576 028f 03       		.uleb128 0x3
 2577 0290 D301     		.uleb128 .LEHB115-.LFB1107
 2578 0292 05       		.uleb128 .LEHE115-.LEHB115
 2579 0293 00       		.uleb128 0
 2580 0294 00       		.uleb128 0
 2581 0295 FB01     		.uleb128 .LEHB116-.LFB1107
 2582 0297 3A       		.uleb128 .LEHE116-.LEHB116
 2583 0298 BF02     		.uleb128 .L163-.LFB1107
 2584 029a 00       		.uleb128 0
 2585 029b B502     		.uleb128 .LEHB117-.LFB1107
 2586 029d 05       		.uleb128 .LEHE117-.LEHB117
 2587 029e 00       		.uleb128 0
 2588 029f 00       		.uleb128 0
 2589 02a0 CD02     		.uleb128 .LEHB118-.LFB1107
 2590 02a2 05       		.uleb128 .LEHE118-.LEHB118
 2591 02a3 00       		.uleb128 0
 2592 02a4 00       		.uleb128 0
 2593 02a5 DC02     		.uleb128 .LEHB119-.LFB1107
 2594 02a7 3A       		.uleb128 .LEHE119-.LEHB119
 2595 02a8 A003     		.uleb128 .L166-.LFB1107
 2596 02aa 00       		.uleb128 0
 2597 02ab 9603     		.uleb128 .LEHB120-.LFB1107
 2598 02ad 05       		.uleb128 .LEHE120-.LEHB120
 2599 02ae 00       		.uleb128 0
 2600 02af 00       		.uleb128 0
 2601 02b0 AE03     		.uleb128 .LEHB121-.LFB1107
 2602 02b2 05       		.uleb128 .LEHE121-.LEHB121
 2603 02b3 00       		.uleb128 0
 2604 02b4 00       		.uleb128 0
 2605              	.LLSDACSE1107:
 2606 02b5 01       		.byte	0x1
 2607 02b6 00       		.byte	0
 2608 02b7 00       		.byte	0
 2609 02b8 7D       		.byte	0x7d
 2610 02b9 000000   		.align 4
 2611 02bc 00000000 		.long	0
 2612              	
 2613              	.LLSDATT1107:
 2614              		.text
 2616              		.section	.text._ZN8UnitTest15MemoryOutStreamD1Ev,"axG",@progbits,_ZN8UnitTest15MemoryOutStreamD1Ev
 2617              		.align 2
 2618              		.weak	_ZN8UnitTest15MemoryOutStreamD1Ev
 2620              	_ZN8UnitTest15MemoryOutStreamD1Ev:
 2621              	.LFB1138:
  13:/home/gani/eval/20140524/makestuff/libs/libutpp/MemoryOutStream.h **** {
 2622              		.loc 2 13 0
 2623              		.cfi_startproc
 2624              		.cfi_personality 0x9b,DW.ref.__gxx_personality_v0
 2625              		.cfi_lsda 0x1b,.LLSDA1138
 2626 0000 55       		pushq	%rbp
 2627              		.cfi_def_cfa_offset 16
 2628              		.cfi_offset 6, -16
 2629 0001 4889E5   		movq	%rsp, %rbp
 2630              		.cfi_def_cfa_register 6
 2631 0004 53       		pushq	%rbx
 2632 0005 4883EC18 		subq	$24, %rsp
 2633              		.cfi_offset 3, -24
 2634 0009 48897DE8 		movq	%rdi, -24(%rbp)
 2635              	.LBB8:
  13:/home/gani/eval/20140524/makestuff/libs/libutpp/MemoryOutStream.h **** {
 2636              		.loc 2 13 0
 2637 000d 488D1500 		leaq	24+_ZTVN8UnitTest15MemoryOutStreamE(%rip), %rdx
 2637      000000
 2638 0014 488B45E8 		movq	-24(%rbp), %rax
 2639 0018 488910   		movq	%rdx, (%rax)
 2640 001b 488B45E8 		movq	-24(%rbp), %rax
 2641 001f 488D9090 		leaq	144(%rax), %rdx
 2641      000000
 2642 0026 488D0500 		leaq	64+_ZTVN8UnitTest15MemoryOutStreamE(%rip), %rax
 2642      000000
 2643 002d 488902   		movq	%rax, (%rdx)
 2644 0030 488B45E8 		movq	-24(%rbp), %rax
 2645 0034 4883C070 		addq	$112, %rax
 2646 0038 4889C7   		movq	%rax, %rdi
 2647              	.LEHB122:
 2648 003b E8000000 		call	_ZNSt7__cxx1112basic_stringIcSt11char_traitsIcESaIcEED1Ev@PLT
 2648      00
 2649              	.LEHE122:
  13:/home/gani/eval/20140524/makestuff/libs/libutpp/MemoryOutStream.h **** {
 2650              		.loc 2 13 0 is_stmt 0 discriminator 2
 2651 0040 488B45E8 		movq	-24(%rbp), %rax
 2652 0044 488D1500 		leaq	8+_ZTTN8UnitTest15MemoryOutStreamE(%rip), %rdx
 2652      000000
 2653 004b 4889D6   		movq	%rdx, %rsi
 2654 004e 4889C7   		movq	%rax, %rdi
 2655              	.LEHB123:
 2656 0051 E8000000 		call	_ZNSt7__cxx1119basic_ostringstreamIcSt11char_traitsIcESaIcEED2Ev@PLT
 2656      00
 2657              	.LEHE123:
  13:/home/gani/eval/20140524/makestuff/libs/libutpp/MemoryOutStream.h **** {
 2658              		.loc 2 13 0 discriminator 4
 2659 0056 488B45E8 		movq	-24(%rbp), %rax
 2660 005a 48059000 		addq	$144, %rax
 2660      0000
 2661 0060 4889C7   		movq	%rax, %rdi
 2662              	.LEHB124:
 2663 0063 E8000000 		call	_ZNSt9basic_iosIcSt11char_traitsIcEED2Ev@PLT
 2663      00
 2664              	.LEHE124:
 2665              	.LBE8:
 2666 0068 EB3B     		jmp	.L173
 2667              	.L171:
 2668 006a 4889C3   		movq	%rax, %rbx
 2669              	.LBB9:
  13:/home/gani/eval/20140524/makestuff/libs/libutpp/MemoryOutStream.h **** {
 2670              		.loc 2 13 0
 2671 006d 488B45E8 		movq	-24(%rbp), %rax
 2672 0071 488D1500 		leaq	8+_ZTTN8UnitTest15MemoryOutStreamE(%rip), %rdx
 2672      000000
 2673 0078 4889D6   		movq	%rdx, %rsi
 2674 007b 4889C7   		movq	%rax, %rdi
 2675 007e E8000000 		call	_ZNSt7__cxx1119basic_ostringstreamIcSt11char_traitsIcESaIcEED2Ev@PLT
 2675      00
 2676 0083 EB03     		jmp	.L170
 2677              	.L172:
 2678 0085 4889C3   		movq	%rax, %rbx
 2679              	.L170:
  13:/home/gani/eval/20140524/makestuff/libs/libutpp/MemoryOutStream.h **** {
 2680              		.loc 2 13 0 discriminator 3
 2681 0088 488B45E8 		movq	-24(%rbp), %rax
 2682 008c 48059000 		addq	$144, %rax
 2682      0000
 2683 0092 4889C7   		movq	%rax, %rdi
 2684 0095 E8000000 		call	_ZNSt9basic_iosIcSt11char_traitsIcEED2Ev@PLT
 2684      00
 2685 009a 4889D8   		movq	%rbx, %rax
 2686 009d 4889C7   		movq	%rax, %rdi
 2687              	.LEHB125:
 2688 00a0 E8000000 		call	_Unwind_Resume@PLT
 2688      00
 2689              	.LEHE125:
 2690              	.L173:
 2691              	.LBE9:
  13:/home/gani/eval/20140524/makestuff/libs/libutpp/MemoryOutStream.h **** {
 2692              		.loc 2 13 0
 2693 00a5 4883C418 		addq	$24, %rsp
 2694 00a9 5B       		popq	%rbx
 2695 00aa 5D       		popq	%rbp
 2696              		.cfi_def_cfa 7, 8
 2697 00ab C3       		ret
 2698              		.cfi_endproc
 2699              	.LFE1138:
 2700              		.section	.gcc_except_table
 2701              	.LLSDA1138:
 2702 02c0 FF       		.byte	0xff
 2703 02c1 FF       		.byte	0xff
 2704 02c2 01       		.byte	0x1
 2705 02c3 12       		.uleb128 .LLSDACSE1138-.LLSDACSB1138
 2706              	.LLSDACSB1138:
 2707 02c4 3B       		.uleb128 .LEHB122-.LFB1138
 2708 02c5 05       		.uleb128 .LEHE122-.LEHB122
 2709 02c6 6A       		.uleb128 .L171-.LFB1138
 2710 02c7 00       		.uleb128 0
 2711 02c8 51       		.uleb128 .LEHB123-.LFB1138
 2712 02c9 05       		.uleb128 .LEHE123-.LEHB123
 2713 02ca 8501     		.uleb128 .L172-.LFB1138
 2714 02cc 00       		.uleb128 0
 2715 02cd 63       		.uleb128 .LEHB124-.LFB1138
 2716 02ce 05       		.uleb128 .LEHE124-.LEHB124
 2717 02cf 00       		.uleb128 0
 2718 02d0 00       		.uleb128 0
 2719 02d1 A001     		.uleb128 .LEHB125-.LFB1138
 2720 02d3 05       		.uleb128 .LEHE125-.LEHB125
 2721 02d4 00       		.uleb128 0
 2722 02d5 00       		.uleb128 0
 2723              	.LLSDACSE1138:
 2724              		.section	.text._ZN8UnitTest15MemoryOutStreamD1Ev,"axG",@progbits,_ZN8UnitTest15MemoryOutStreamD1Ev
 2726              		.set	.LTHUNK0,_ZN8UnitTest15MemoryOutStreamD1Ev
 2727              		.weak	_ZTv0_n24_N8UnitTest15MemoryOutStreamD1Ev
 2729              	_ZTv0_n24_N8UnitTest15MemoryOutStreamD1Ev:
 2730              	.LFB1217:
  13:/home/gani/eval/20140524/makestuff/libs/libutpp/MemoryOutStream.h **** {
 2731              		.loc 2 13 0 is_stmt 1
 2732              		.cfi_startproc
 2733 00ac 4C8B17   		movq	(%rdi), %r10
 2734 00af 49037AE8 		addq	-24(%r10), %rdi
 2735 00b3 E948FFFF 		jmp	.LTHUNK0
 2735      FF
 2736              		.cfi_endproc
 2737              	.LFE1217:
 2739              		.section	.text._ZN8UnitTest15MemoryOutStreamD0Ev,"axG",@progbits,_ZN8UnitTest15MemoryOutStreamD0Ev
 2740              		.align 2
 2741              		.weak	_ZN8UnitTest15MemoryOutStreamD0Ev
 2743              	_ZN8UnitTest15MemoryOutStreamD0Ev:
 2744              	.LFB1139:
  13:/home/gani/eval/20140524/makestuff/libs/libutpp/MemoryOutStream.h **** {
 2745              		.loc 2 13 0
 2746              		.cfi_startproc
 2747              		.cfi_personality 0x9b,DW.ref.__gxx_personality_v0
 2748              		.cfi_lsda 0x1b,.LLSDA1139
 2749 0000 55       		pushq	%rbp
 2750              		.cfi_def_cfa_offset 16
 2751              		.cfi_offset 6, -16
 2752 0001 4889E5   		movq	%rsp, %rbp
 2753              		.cfi_def_cfa_register 6
 2754 0004 53       		pushq	%rbx
 2755 0005 4883EC18 		subq	$24, %rsp
 2756              		.cfi_offset 3, -24
 2757 0009 48897DE8 		movq	%rdi, -24(%rbp)
  13:/home/gani/eval/20140524/makestuff/libs/libutpp/MemoryOutStream.h **** {
 2758              		.loc 2 13 0
 2759 000d 488B45E8 		movq	-24(%rbp), %rax
 2760 0011 4889C7   		movq	%rax, %rdi
 2761              	.LEHB126:
 2762 0014 E8000000 		call	_ZN8UnitTest15MemoryOutStreamD1Ev
 2762      00
 2763              	.LEHE126:
  13:/home/gani/eval/20140524/makestuff/libs/libutpp/MemoryOutStream.h **** {
 2764              		.loc 2 13 0 is_stmt 0 discriminator 2
 2765 0019 488B45E8 		movq	-24(%rbp), %rax
 2766 001d 4889C7   		movq	%rax, %rdi
 2767 0020 E8000000 		call	_ZdlPv@PLT
 2767      00
 2768 0025 EB1A     		jmp	.L177
 2769              	.L176:
 2770 0027 4889C3   		movq	%rax, %rbx
  13:/home/gani/eval/20140524/makestuff/libs/libutpp/MemoryOutStream.h **** {
 2771              		.loc 2 13 0
 2772 002a 488B45E8 		movq	-24(%rbp), %rax
 2773 002e 4889C7   		movq	%rax, %rdi
 2774 0031 E8000000 		call	_ZdlPv@PLT
 2774      00
 2775 0036 4889D8   		movq	%rbx, %rax
 2776 0039 4889C7   		movq	%rax, %rdi
 2777              	.LEHB127:
 2778 003c E8000000 		call	_Unwind_Resume@PLT
 2778      00
 2779              	.LEHE127:
 2780              	.L177:
 2781 0041 4883C418 		addq	$24, %rsp
 2782 0045 5B       		popq	%rbx
 2783 0046 5D       		popq	%rbp
 2784              		.cfi_def_cfa 7, 8
 2785 0047 C3       		ret
 2786              		.cfi_endproc
 2787              	.LFE1139:
 2788              		.section	.gcc_except_table
 2789              	.LLSDA1139:
 2790 02d6 FF       		.byte	0xff
 2791 02d7 FF       		.byte	0xff
 2792 02d8 01       		.byte	0x1
 2793 02d9 08       		.uleb128 .LLSDACSE1139-.LLSDACSB1139
 2794              	.LLSDACSB1139:
 2795 02da 14       		.uleb128 .LEHB126-.LFB1139
 2796 02db 05       		.uleb128 .LEHE126-.LEHB126
 2797 02dc 27       		.uleb128 .L176-.LFB1139
 2798 02dd 00       		.uleb128 0
 2799 02de 3C       		.uleb128 .LEHB127-.LFB1139
 2800 02df 05       		.uleb128 .LEHE127-.LEHB127
 2801 02e0 00       		.uleb128 0
 2802 02e1 00       		.uleb128 0
 2803              	.LLSDACSE1139:
 2804              		.section	.text._ZN8UnitTest15MemoryOutStreamD0Ev,"axG",@progbits,_ZN8UnitTest15MemoryOutStreamD0Ev
 2806              		.set	.LTHUNK1,_ZN8UnitTest15MemoryOutStreamD0Ev
 2807              		.weak	_ZTv0_n24_N8UnitTest15MemoryOutStreamD0Ev
 2809              	_ZTv0_n24_N8UnitTest15MemoryOutStreamD0Ev:
 2810              	.LFB1218:
  13:/home/gani/eval/20140524/makestuff/libs/libutpp/MemoryOutStream.h **** {
 2811              		.loc 2 13 0 is_stmt 1
 2812              		.cfi_startproc
 2813 0048 4C8B17   		movq	(%rdi), %r10
 2814 004b 49037AE8 		addq	-24(%r10), %rdi
 2815 004f EBAF     		jmp	.LTHUNK1
 2816              		.cfi_endproc
 2817              	.LFE1218:
 2819              		.section	.rodata
 2820              	.LC13:
 2821 0238 45787065 		.string	"Expected "
 2821      63746564 
 2821      2000
 2822              	.LC14:
 2823 0242 20627574 		.string	" but was "
 2823      20776173 
 2823      2000
 2824              		.section	.text._ZN8UnitTest10CheckEqualI12BufferStatusS1_EEvRNS_11TestResultsERKT_RKT0_RKNS_11Test
 2825              		.weak	_ZN8UnitTest10CheckEqualI12BufferStatusS1_EEvRNS_11TestResultsERKT_RKT0_RKNS_11TestDetailsE
 2827              	_ZN8UnitTest10CheckEqualI12BufferStatusS1_EEvRNS_11TestResultsERKT_RKT0_RKNS_11TestDetailsE:
 2828              	.LFB1135:
 2829              		.file 4 "/home/gani/eval/20140524/makestuff/libs/libutpp/Checks.h"
   1:/home/gani/eval/20140524/makestuff/libs/libutpp/Checks.h **** #ifndef UNITTEST_CHECKS_H
   2:/home/gani/eval/20140524/makestuff/libs/libutpp/Checks.h **** #define UNITTEST_CHECKS_H
   3:/home/gani/eval/20140524/makestuff/libs/libutpp/Checks.h **** 
   4:/home/gani/eval/20140524/makestuff/libs/libutpp/Checks.h **** #include "Config.h"
   5:/home/gani/eval/20140524/makestuff/libs/libutpp/Checks.h **** #include "TestResults.h"
   6:/home/gani/eval/20140524/makestuff/libs/libutpp/Checks.h **** #include "MemoryOutStream.h"
   7:/home/gani/eval/20140524/makestuff/libs/libutpp/Checks.h **** 
   8:/home/gani/eval/20140524/makestuff/libs/libutpp/Checks.h **** namespace UnitTest {
   9:/home/gani/eval/20140524/makestuff/libs/libutpp/Checks.h **** 
  10:/home/gani/eval/20140524/makestuff/libs/libutpp/Checks.h **** 
  11:/home/gani/eval/20140524/makestuff/libs/libutpp/Checks.h **** template< typename Value >
  12:/home/gani/eval/20140524/makestuff/libs/libutpp/Checks.h **** bool Check(Value const value)
  13:/home/gani/eval/20140524/makestuff/libs/libutpp/Checks.h **** {
  14:/home/gani/eval/20140524/makestuff/libs/libutpp/Checks.h ****     return !!value; // doing double negative to avoid silly VS warnings
  15:/home/gani/eval/20140524/makestuff/libs/libutpp/Checks.h **** }
  16:/home/gani/eval/20140524/makestuff/libs/libutpp/Checks.h **** 
  17:/home/gani/eval/20140524/makestuff/libs/libutpp/Checks.h **** 
  18:/home/gani/eval/20140524/makestuff/libs/libutpp/Checks.h **** template< typename Expected, typename Actual >
  19:/home/gani/eval/20140524/makestuff/libs/libutpp/Checks.h **** void CheckEqual(TestResults& results, Expected const& expected, Actual const& actual, TestDetails c
 2830              		.loc 4 19 0
 2831              		.cfi_startproc
 2832              		.cfi_personality 0x9b,DW.ref.__gxx_personality_v0
 2833              		.cfi_lsda 0x1b,.LLSDA1135
 2834 0000 55       		pushq	%rbp
 2835              		.cfi_def_cfa_offset 16
 2836              		.cfi_offset 6, -16
 2837 0001 4889E5   		movq	%rsp, %rbp
 2838              		.cfi_def_cfa_register 6
 2839 0004 53       		pushq	%rbx
 2840 0005 4881ECC8 		subq	$456, %rsp
 2840      010000
 2841              		.cfi_offset 3, -24
 2842 000c 4889BD48 		movq	%rdi, -440(%rbp)
 2842      FEFFFF
 2843 0013 4889B540 		movq	%rsi, -448(%rbp)
 2843      FEFFFF
 2844 001a 48899538 		movq	%rdx, -456(%rbp)
 2844      FEFFFF
 2845 0021 48898D30 		movq	%rcx, -464(%rbp)
 2845      FEFFFF
 2846              		.loc 4 19 0
 2847 0028 64488B04 		movq	%fs:40, %rax
 2847      25280000 
 2847      00
 2848 0031 488945E8 		movq	%rax, -24(%rbp)
 2849 0035 31C0     		xorl	%eax, %eax
 2850              	.LBB10:
  20:/home/gani/eval/20140524/makestuff/libs/libutpp/Checks.h **** {
  21:/home/gani/eval/20140524/makestuff/libs/libutpp/Checks.h ****     if (!(expected == actual))
 2851              		.loc 4 21 0
 2852 0037 488B8540 		movq	-448(%rbp), %rax
 2852      FEFFFF
 2853 003e 8B10     		movl	(%rax), %edx
 2854 0040 488B8538 		movq	-456(%rbp), %rax
 2854      FEFFFF
 2855 0047 8B00     		movl	(%rax), %eax
 2856 0049 39C2     		cmpl	%eax, %edx
 2857 004b 0F84B900 		je	.L183
 2857      0000
 2858              	.LBB11:
  22:/home/gani/eval/20140524/makestuff/libs/libutpp/Checks.h ****     {
  23:/home/gani/eval/20140524/makestuff/libs/libutpp/Checks.h ****         UnitTest::MemoryOutStream stream;
 2859              		.loc 4 23 0
 2860 0051 488D8550 		leaq	-432(%rbp), %rax
 2860      FEFFFF
 2861 0058 4889C7   		movq	%rax, %rdi
 2862              	.LEHB128:
 2863 005b E8000000 		call	_ZN8UnitTest15MemoryOutStreamC1Ev
 2863      00
 2864              	.LEHE128:
  24:/home/gani/eval/20140524/makestuff/libs/libutpp/Checks.h ****         stream << "Expected " << expected << " but was " << actual;
 2865              		.loc 4 24 0
 2866 0060 488D8550 		leaq	-432(%rbp), %rax
 2866      FEFFFF
 2867 0067 488D3500 		leaq	.LC13(%rip), %rsi
 2867      000000
 2868 006e 4889C7   		movq	%rax, %rdi
 2869              	.LEHB129:
 2870 0071 E8000000 		call	_ZStlsISt11char_traitsIcEERSt13basic_ostreamIcT_ES5_PKc@PLT
 2870      00
 2871 0076 4889C2   		movq	%rax, %rdx
 2872 0079 488B8540 		movq	-448(%rbp), %rax
 2872      FEFFFF
 2873 0080 8B00     		movl	(%rax), %eax
 2874 0082 89C6     		movl	%eax, %esi
 2875 0084 4889D7   		movq	%rdx, %rdi
 2876 0087 E8000000 		call	_ZNSolsEi@PLT
 2876      00
 2877              		.loc 4 24 0 is_stmt 0 discriminator 1
 2878 008c 488D3500 		leaq	.LC14(%rip), %rsi
 2878      000000
 2879 0093 4889C7   		movq	%rax, %rdi
 2880 0096 E8000000 		call	_ZStlsISt11char_traitsIcEERSt13basic_ostreamIcT_ES5_PKc@PLT
 2880      00
 2881              		.loc 4 24 0 discriminator 2
 2882 009b 4889C2   		movq	%rax, %rdx
 2883 009e 488B8538 		movq	-456(%rbp), %rax
 2883      FEFFFF
 2884 00a5 8B00     		movl	(%rax), %eax
 2885 00a7 89C6     		movl	%eax, %esi
 2886 00a9 4889D7   		movq	%rdx, %rdi
 2887 00ac E8000000 		call	_ZNSolsEi@PLT
 2887      00
  25:/home/gani/eval/20140524/makestuff/libs/libutpp/Checks.h **** 
  26:/home/gani/eval/20140524/makestuff/libs/libutpp/Checks.h ****         results.OnTestFailure(details, stream.GetText());
 2888              		.loc 4 26 0 is_stmt 1
 2889 00b1 488D8550 		leaq	-432(%rbp), %rax
 2889      FEFFFF
 2890 00b8 4889C7   		movq	%rax, %rdi
 2891 00bb E8000000 		call	_ZNK8UnitTest15MemoryOutStream7GetTextEv@PLT
 2891      00
 2892 00c0 4889C2   		movq	%rax, %rdx
 2893 00c3 488B8D30 		movq	-464(%rbp), %rcx
 2893      FEFFFF
 2894 00ca 488B8548 		movq	-440(%rbp), %rax
 2894      FEFFFF
 2895 00d1 4889CE   		movq	%rcx, %rsi
 2896 00d4 4889C7   		movq	%rax, %rdi
 2897 00d7 E8000000 		call	_ZN8UnitTest11TestResults13OnTestFailureERKNS_11TestDetailsEPKc@PLT
 2897      00
 2898              	.LEHE129:
  23:/home/gani/eval/20140524/makestuff/libs/libutpp/Checks.h ****         stream << "Expected " << expected << " but was " << actual;
 2899              		.loc 4 23 0
 2900 00dc 488D8550 		leaq	-432(%rbp), %rax
 2900      FEFFFF
 2901 00e3 4889C7   		movq	%rax, %rdi
 2902              	.LEHB130:
 2903 00e6 E8000000 		call	_ZN8UnitTest15MemoryOutStreamD1Ev
 2903      00
 2904              	.LEHE130:
 2905              	.LBE11:
 2906              	.LBE10:
  27:/home/gani/eval/20140524/makestuff/libs/libutpp/Checks.h ****     }
  28:/home/gani/eval/20140524/makestuff/libs/libutpp/Checks.h **** }
 2907              		.loc 4 28 0
 2908 00eb EB1D     		jmp	.L183
 2909              	.L182:
 2910 00ed 4889C3   		movq	%rax, %rbx
 2911              	.LBB13:
 2912              	.LBB12:
  23:/home/gani/eval/20140524/makestuff/libs/libutpp/Checks.h ****         stream << "Expected " << expected << " but was " << actual;
 2913              		.loc 4 23 0
 2914 00f0 488D8550 		leaq	-432(%rbp), %rax
 2914      FEFFFF
 2915 00f7 4889C7   		movq	%rax, %rdi
 2916 00fa E8000000 		call	_ZN8UnitTest15MemoryOutStreamD1Ev
 2916      00
 2917 00ff 4889D8   		movq	%rbx, %rax
 2918 0102 4889C7   		movq	%rax, %rdi
 2919              	.LEHB131:
 2920 0105 E8000000 		call	_Unwind_Resume@PLT
 2920      00
 2921              	.LEHE131:
 2922              	.L183:
 2923              	.LBE12:
 2924              	.LBE13:
 2925              		.loc 4 28 0
 2926 010a 90       		nop
 2927 010b 488B45E8 		movq	-24(%rbp), %rax
 2928 010f 64483304 		xorq	%fs:40, %rax
 2928      25280000 
 2928      00
 2929 0118 7405     		je	.L181
 2930 011a E8000000 		call	__stack_chk_fail@PLT
 2930      00
 2931              	.L181:
 2932 011f 4881C4C8 		addq	$456, %rsp
 2932      010000
 2933 0126 5B       		popq	%rbx
 2934 0127 5D       		popq	%rbp
 2935              		.cfi_def_cfa 7, 8
 2936 0128 C3       		ret
 2937              		.cfi_endproc
 2938              	.LFE1135:
 2939              		.section	.gcc_except_table
 2940              	.LLSDA1135:
 2941 02e2 FF       		.byte	0xff
 2942 02e3 FF       		.byte	0xff
 2943 02e4 01       		.byte	0x1
 2944 02e5 13       		.uleb128 .LLSDACSE1135-.LLSDACSB1135
 2945              	.LLSDACSB1135:
 2946 02e6 5B       		.uleb128 .LEHB128-.LFB1135
 2947 02e7 05       		.uleb128 .LEHE128-.LEHB128
 2948 02e8 00       		.uleb128 0
 2949 02e9 00       		.uleb128 0
 2950 02ea 71       		.uleb128 .LEHB129-.LFB1135
 2951 02eb 6B       		.uleb128 .LEHE129-.LEHB129
 2952 02ec ED01     		.uleb128 .L182-.LFB1135
 2953 02ee 00       		.uleb128 0
 2954 02ef E601     		.uleb128 .LEHB130-.LFB1135
 2955 02f1 05       		.uleb128 .LEHE130-.LEHB130
 2956 02f2 00       		.uleb128 0
 2957 02f3 00       		.uleb128 0
 2958 02f4 8502     		.uleb128 .LEHB131-.LFB1135
 2959 02f6 05       		.uleb128 .LEHE131-.LEHB131
 2960 02f7 00       		.uleb128 0
 2961 02f8 00       		.uleb128 0
 2962              	.LLSDACSE1135:
 2963              		.section	.text._ZN8UnitTest10CheckEqualI12BufferStatusS1_EEvRNS_11TestResultsERKT_RKT0_RKNS_11Test
 2965              		.section	.text._ZN8UnitTest10CheckEqualI9I2CStatusS1_EEvRNS_11TestResultsERKT_RKT0_RKNS_11TestDeta
 2966              		.weak	_ZN8UnitTest10CheckEqualI9I2CStatusS1_EEvRNS_11TestResultsERKT_RKT0_RKNS_11TestDetailsE
 2968              	_ZN8UnitTest10CheckEqualI9I2CStatusS1_EEvRNS_11TestResultsERKT_RKT0_RKNS_11TestDetailsE:
 2969              	.LFB1140:
  19:/home/gani/eval/20140524/makestuff/libs/libutpp/Checks.h **** {
 2970              		.loc 4 19 0
 2971              		.cfi_startproc
 2972              		.cfi_personality 0x9b,DW.ref.__gxx_personality_v0
 2973              		.cfi_lsda 0x1b,.LLSDA1140
 2974 0000 55       		pushq	%rbp
 2975              		.cfi_def_cfa_offset 16
 2976              		.cfi_offset 6, -16
 2977 0001 4889E5   		movq	%rsp, %rbp
 2978              		.cfi_def_cfa_register 6
 2979 0004 53       		pushq	%rbx
 2980 0005 4881ECC8 		subq	$456, %rsp
 2980      010000
 2981              		.cfi_offset 3, -24
 2982 000c 4889BD48 		movq	%rdi, -440(%rbp)
 2982      FEFFFF
 2983 0013 4889B540 		movq	%rsi, -448(%rbp)
 2983      FEFFFF
 2984 001a 48899538 		movq	%rdx, -456(%rbp)
 2984      FEFFFF
 2985 0021 48898D30 		movq	%rcx, -464(%rbp)
 2985      FEFFFF
  19:/home/gani/eval/20140524/makestuff/libs/libutpp/Checks.h **** {
 2986              		.loc 4 19 0
 2987 0028 64488B04 		movq	%fs:40, %rax
 2987      25280000 
 2987      00
 2988 0031 488945E8 		movq	%rax, -24(%rbp)
 2989 0035 31C0     		xorl	%eax, %eax
 2990              	.LBB14:
  21:/home/gani/eval/20140524/makestuff/libs/libutpp/Checks.h ****     {
 2991              		.loc 4 21 0
 2992 0037 488B8540 		movq	-448(%rbp), %rax
 2992      FEFFFF
 2993 003e 8B10     		movl	(%rax), %edx
 2994 0040 488B8538 		movq	-456(%rbp), %rax
 2994      FEFFFF
 2995 0047 8B00     		movl	(%rax), %eax
 2996 0049 39C2     		cmpl	%eax, %edx
 2997 004b 0F84B900 		je	.L189
 2997      0000
 2998              	.LBB15:
  23:/home/gani/eval/20140524/makestuff/libs/libutpp/Checks.h ****         stream << "Expected " << expected << " but was " << actual;
 2999              		.loc 4 23 0
 3000 0051 488D8550 		leaq	-432(%rbp), %rax
 3000      FEFFFF
 3001 0058 4889C7   		movq	%rax, %rdi
 3002              	.LEHB132:
 3003 005b E8000000 		call	_ZN8UnitTest15MemoryOutStreamC1Ev
 3003      00
 3004              	.LEHE132:
  24:/home/gani/eval/20140524/makestuff/libs/libutpp/Checks.h **** 
 3005              		.loc 4 24 0
 3006 0060 488D8550 		leaq	-432(%rbp), %rax
 3006      FEFFFF
 3007 0067 488D3500 		leaq	.LC13(%rip), %rsi
 3007      000000
 3008 006e 4889C7   		movq	%rax, %rdi
 3009              	.LEHB133:
 3010 0071 E8000000 		call	_ZStlsISt11char_traitsIcEERSt13basic_ostreamIcT_ES5_PKc@PLT
 3010      00
 3011 0076 4889C2   		movq	%rax, %rdx
 3012 0079 488B8540 		movq	-448(%rbp), %rax
 3012      FEFFFF
 3013 0080 8B00     		movl	(%rax), %eax
 3014 0082 89C6     		movl	%eax, %esi
 3015 0084 4889D7   		movq	%rdx, %rdi
 3016 0087 E8000000 		call	_ZNSolsEi@PLT
 3016      00
  24:/home/gani/eval/20140524/makestuff/libs/libutpp/Checks.h **** 
 3017              		.loc 4 24 0 is_stmt 0 discriminator 1
 3018 008c 488D3500 		leaq	.LC14(%rip), %rsi
 3018      000000
 3019 0093 4889C7   		movq	%rax, %rdi
 3020 0096 E8000000 		call	_ZStlsISt11char_traitsIcEERSt13basic_ostreamIcT_ES5_PKc@PLT
 3020      00
  24:/home/gani/eval/20140524/makestuff/libs/libutpp/Checks.h **** 
 3021              		.loc 4 24 0 discriminator 2
 3022 009b 4889C2   		movq	%rax, %rdx
 3023 009e 488B8538 		movq	-456(%rbp), %rax
 3023      FEFFFF
 3024 00a5 8B00     		movl	(%rax), %eax
 3025 00a7 89C6     		movl	%eax, %esi
 3026 00a9 4889D7   		movq	%rdx, %rdi
 3027 00ac E8000000 		call	_ZNSolsEi@PLT
 3027      00
  26:/home/gani/eval/20140524/makestuff/libs/libutpp/Checks.h ****     }
 3028              		.loc 4 26 0 is_stmt 1
 3029 00b1 488D8550 		leaq	-432(%rbp), %rax
 3029      FEFFFF
 3030 00b8 4889C7   		movq	%rax, %rdi
 3031 00bb E8000000 		call	_ZNK8UnitTest15MemoryOutStream7GetTextEv@PLT
 3031      00
 3032 00c0 4889C2   		movq	%rax, %rdx
 3033 00c3 488B8D30 		movq	-464(%rbp), %rcx
 3033      FEFFFF
 3034 00ca 488B8548 		movq	-440(%rbp), %rax
 3034      FEFFFF
 3035 00d1 4889CE   		movq	%rcx, %rsi
 3036 00d4 4889C7   		movq	%rax, %rdi
 3037 00d7 E8000000 		call	_ZN8UnitTest11TestResults13OnTestFailureERKNS_11TestDetailsEPKc@PLT
 3037      00
 3038              	.LEHE133:
  23:/home/gani/eval/20140524/makestuff/libs/libutpp/Checks.h ****         stream << "Expected " << expected << " but was " << actual;
 3039              		.loc 4 23 0
 3040 00dc 488D8550 		leaq	-432(%rbp), %rax
 3040      FEFFFF
 3041 00e3 4889C7   		movq	%rax, %rdi
 3042              	.LEHB134:
 3043 00e6 E8000000 		call	_ZN8UnitTest15MemoryOutStreamD1Ev
 3043      00
 3044              	.LEHE134:
 3045              	.LBE15:
 3046              	.LBE14:
 3047              		.loc 4 28 0
 3048 00eb EB1D     		jmp	.L189
 3049              	.L188:
 3050 00ed 4889C3   		movq	%rax, %rbx
 3051              	.LBB17:
 3052              	.LBB16:
  23:/home/gani/eval/20140524/makestuff/libs/libutpp/Checks.h ****         stream << "Expected " << expected << " but was " << actual;
 3053              		.loc 4 23 0
 3054 00f0 488D8550 		leaq	-432(%rbp), %rax
 3054      FEFFFF
 3055 00f7 4889C7   		movq	%rax, %rdi
 3056 00fa E8000000 		call	_ZN8UnitTest15MemoryOutStreamD1Ev
 3056      00
 3057 00ff 4889D8   		movq	%rbx, %rax
 3058 0102 4889C7   		movq	%rax, %rdi
 3059              	.LEHB135:
 3060 0105 E8000000 		call	_Unwind_Resume@PLT
 3060      00
 3061              	.LEHE135:
 3062              	.L189:
 3063              	.LBE16:
 3064              	.LBE17:
 3065              		.loc 4 28 0
 3066 010a 90       		nop
 3067 010b 488B45E8 		movq	-24(%rbp), %rax
 3068 010f 64483304 		xorq	%fs:40, %rax
 3068      25280000 
 3068      00
 3069 0118 7405     		je	.L187
 3070 011a E8000000 		call	__stack_chk_fail@PLT
 3070      00
 3071              	.L187:
 3072 011f 4881C4C8 		addq	$456, %rsp
 3072      010000
 3073 0126 5B       		popq	%rbx
 3074 0127 5D       		popq	%rbp
 3075              		.cfi_def_cfa 7, 8
 3076 0128 C3       		ret
 3077              		.cfi_endproc
 3078              	.LFE1140:
 3079              		.section	.gcc_except_table
 3080              	.LLSDA1140:
 3081 02f9 FF       		.byte	0xff
 3082 02fa FF       		.byte	0xff
 3083 02fb 01       		.byte	0x1
 3084 02fc 13       		.uleb128 .LLSDACSE1140-.LLSDACSB1140
 3085              	.LLSDACSB1140:
 3086 02fd 5B       		.uleb128 .LEHB132-.LFB1140
 3087 02fe 05       		.uleb128 .LEHE132-.LEHB132
 3088 02ff 00       		.uleb128 0
 3089 0300 00       		.uleb128 0
 3090 0301 71       		.uleb128 .LEHB133-.LFB1140
 3091 0302 6B       		.uleb128 .LEHE133-.LEHB133
 3092 0303 ED01     		.uleb128 .L188-.LFB1140
 3093 0305 00       		.uleb128 0
 3094 0306 E601     		.uleb128 .LEHB134-.LFB1140
 3095 0308 05       		.uleb128 .LEHE134-.LEHB134
 3096 0309 00       		.uleb128 0
 3097 030a 00       		.uleb128 0
 3098 030b 8502     		.uleb128 .LEHB135-.LFB1140
 3099 030d 05       		.uleb128 .LEHE135-.LEHB135
 3100 030e 00       		.uleb128 0
 3101 030f 00       		.uleb128 0
 3102              	.LLSDACSE1140:
 3103              		.section	.text._ZN8UnitTest10CheckEqualI9I2CStatusS1_EEvRNS_11TestResultsERKT_RKT0_RKNS_11TestDeta
 3105              		.section	.text._ZN8UnitTest10CheckEqualImmEEvRNS_11TestResultsERKT_RKT0_RKNS_11TestDetailsE,"axG",
 3106              		.weak	_ZN8UnitTest10CheckEqualImmEEvRNS_11TestResultsERKT_RKT0_RKNS_11TestDetailsE
 3108              	_ZN8UnitTest10CheckEqualImmEEvRNS_11TestResultsERKT_RKT0_RKNS_11TestDetailsE:
 3109              	.LFB1141:
  19:/home/gani/eval/20140524/makestuff/libs/libutpp/Checks.h **** {
 3110              		.loc 4 19 0
 3111              		.cfi_startproc
 3112              		.cfi_personality 0x9b,DW.ref.__gxx_personality_v0
 3113              		.cfi_lsda 0x1b,.LLSDA1141
 3114 0000 55       		pushq	%rbp
 3115              		.cfi_def_cfa_offset 16
 3116              		.cfi_offset 6, -16
 3117 0001 4889E5   		movq	%rsp, %rbp
 3118              		.cfi_def_cfa_register 6
 3119 0004 53       		pushq	%rbx
 3120 0005 4881ECC8 		subq	$456, %rsp
 3120      010000
 3121              		.cfi_offset 3, -24
 3122 000c 4889BD48 		movq	%rdi, -440(%rbp)
 3122      FEFFFF
 3123 0013 4889B540 		movq	%rsi, -448(%rbp)
 3123      FEFFFF
 3124 001a 48899538 		movq	%rdx, -456(%rbp)
 3124      FEFFFF
 3125 0021 48898D30 		movq	%rcx, -464(%rbp)
 3125      FEFFFF
  19:/home/gani/eval/20140524/makestuff/libs/libutpp/Checks.h **** {
 3126              		.loc 4 19 0
 3127 0028 64488B04 		movq	%fs:40, %rax
 3127      25280000 
 3127      00
 3128 0031 488945E8 		movq	%rax, -24(%rbp)
 3129 0035 31C0     		xorl	%eax, %eax
 3130              	.LBB18:
  21:/home/gani/eval/20140524/makestuff/libs/libutpp/Checks.h ****     {
 3131              		.loc 4 21 0
 3132 0037 488B8540 		movq	-448(%rbp), %rax
 3132      FEFFFF
 3133 003e 488B10   		movq	(%rax), %rdx
 3134 0041 488B8538 		movq	-456(%rbp), %rax
 3134      FEFFFF
 3135 0048 488B00   		movq	(%rax), %rax
 3136 004b 4839C2   		cmpq	%rax, %rdx
 3137 004e 0F84BD00 		je	.L195
 3137      0000
 3138              	.LBB19:
  23:/home/gani/eval/20140524/makestuff/libs/libutpp/Checks.h ****         stream << "Expected " << expected << " but was " << actual;
 3139              		.loc 4 23 0
 3140 0054 488D8550 		leaq	-432(%rbp), %rax
 3140      FEFFFF
 3141 005b 4889C7   		movq	%rax, %rdi
 3142              	.LEHB136:
 3143 005e E8000000 		call	_ZN8UnitTest15MemoryOutStreamC1Ev
 3143      00
 3144              	.LEHE136:
  24:/home/gani/eval/20140524/makestuff/libs/libutpp/Checks.h **** 
 3145              		.loc 4 24 0
 3146 0063 488D8550 		leaq	-432(%rbp), %rax
 3146      FEFFFF
 3147 006a 488D3500 		leaq	.LC13(%rip), %rsi
 3147      000000
 3148 0071 4889C7   		movq	%rax, %rdi
 3149              	.LEHB137:
 3150 0074 E8000000 		call	_ZStlsISt11char_traitsIcEERSt13basic_ostreamIcT_ES5_PKc@PLT
 3150      00
 3151 0079 4889C2   		movq	%rax, %rdx
 3152 007c 488B8540 		movq	-448(%rbp), %rax
 3152      FEFFFF
 3153 0083 488B00   		movq	(%rax), %rax
 3154 0086 4889C6   		movq	%rax, %rsi
 3155 0089 4889D7   		movq	%rdx, %rdi
 3156 008c E8000000 		call	_ZNSolsEm@PLT
 3156      00
  24:/home/gani/eval/20140524/makestuff/libs/libutpp/Checks.h **** 
 3157              		.loc 4 24 0 is_stmt 0 discriminator 1
 3158 0091 488D3500 		leaq	.LC14(%rip), %rsi
 3158      000000
 3159 0098 4889C7   		movq	%rax, %rdi
 3160 009b E8000000 		call	_ZStlsISt11char_traitsIcEERSt13basic_ostreamIcT_ES5_PKc@PLT
 3160      00
  24:/home/gani/eval/20140524/makestuff/libs/libutpp/Checks.h **** 
 3161              		.loc 4 24 0 discriminator 2
 3162 00a0 4889C2   		movq	%rax, %rdx
 3163 00a3 488B8538 		movq	-456(%rbp), %rax
 3163      FEFFFF
 3164 00aa 488B00   		movq	(%rax), %rax
 3165 00ad 4889C6   		movq	%rax, %rsi
 3166 00b0 4889D7   		movq	%rdx, %rdi
 3167 00b3 E8000000 		call	_ZNSolsEm@PLT
 3167      00
  26:/home/gani/eval/20140524/makestuff/libs/libutpp/Checks.h ****     }
 3168              		.loc 4 26 0 is_stmt 1
 3169 00b8 488D8550 		leaq	-432(%rbp), %rax
 3169      FEFFFF
 3170 00bf 4889C7   		movq	%rax, %rdi
 3171 00c2 E8000000 		call	_ZNK8UnitTest15MemoryOutStream7GetTextEv@PLT
 3171      00
 3172 00c7 4889C2   		movq	%rax, %rdx
 3173 00ca 488B8D30 		movq	-464(%rbp), %rcx
 3173      FEFFFF
 3174 00d1 488B8548 		movq	-440(%rbp), %rax
 3174      FEFFFF
 3175 00d8 4889CE   		movq	%rcx, %rsi
 3176 00db 4889C7   		movq	%rax, %rdi
 3177 00de E8000000 		call	_ZN8UnitTest11TestResults13OnTestFailureERKNS_11TestDetailsEPKc@PLT
 3177      00
 3178              	.LEHE137:
  23:/home/gani/eval/20140524/makestuff/libs/libutpp/Checks.h ****         stream << "Expected " << expected << " but was " << actual;
 3179              		.loc 4 23 0
 3180 00e3 488D8550 		leaq	-432(%rbp), %rax
 3180      FEFFFF
 3181 00ea 4889C7   		movq	%rax, %rdi
 3182              	.LEHB138:
 3183 00ed E8000000 		call	_ZN8UnitTest15MemoryOutStreamD1Ev
 3183      00
 3184              	.LEHE138:
 3185              	.LBE19:
 3186              	.LBE18:
 3187              		.loc 4 28 0
 3188 00f2 EB1D     		jmp	.L195
 3189              	.L194:
 3190 00f4 4889C3   		movq	%rax, %rbx
 3191              	.LBB21:
 3192              	.LBB20:
  23:/home/gani/eval/20140524/makestuff/libs/libutpp/Checks.h ****         stream << "Expected " << expected << " but was " << actual;
 3193              		.loc 4 23 0
 3194 00f7 488D8550 		leaq	-432(%rbp), %rax
 3194      FEFFFF
 3195 00fe 4889C7   		movq	%rax, %rdi
 3196 0101 E8000000 		call	_ZN8UnitTest15MemoryOutStreamD1Ev
 3196      00
 3197 0106 4889D8   		movq	%rbx, %rax
 3198 0109 4889C7   		movq	%rax, %rdi
 3199              	.LEHB139:
 3200 010c E8000000 		call	_Unwind_Resume@PLT
 3200      00
 3201              	.LEHE139:
 3202              	.L195:
 3203              	.LBE20:
 3204              	.LBE21:
 3205              		.loc 4 28 0
 3206 0111 90       		nop
 3207 0112 488B45E8 		movq	-24(%rbp), %rax
 3208 0116 64483304 		xorq	%fs:40, %rax
 3208      25280000 
 3208      00
 3209 011f 7405     		je	.L193
 3210 0121 E8000000 		call	__stack_chk_fail@PLT
 3210      00
 3211              	.L193:
 3212 0126 4881C4C8 		addq	$456, %rsp
 3212      010000
 3213 012d 5B       		popq	%rbx
 3214 012e 5D       		popq	%rbp
 3215              		.cfi_def_cfa 7, 8
 3216 012f C3       		ret
 3217              		.cfi_endproc
 3218              	.LFE1141:
 3219              		.section	.gcc_except_table
 3220              	.LLSDA1141:
 3221 0310 FF       		.byte	0xff
 3222 0311 FF       		.byte	0xff
 3223 0312 01       		.byte	0x1
 3224 0313 13       		.uleb128 .LLSDACSE1141-.LLSDACSB1141
 3225              	.LLSDACSB1141:
 3226 0314 5E       		.uleb128 .LEHB136-.LFB1141
 3227 0315 05       		.uleb128 .LEHE136-.LEHB136
 3228 0316 00       		.uleb128 0
 3229 0317 00       		.uleb128 0
 3230 0318 74       		.uleb128 .LEHB137-.LFB1141
 3231 0319 6F       		.uleb128 .LEHE137-.LEHB137
 3232 031a F401     		.uleb128 .L194-.LFB1141
 3233 031c 00       		.uleb128 0
 3234 031d ED01     		.uleb128 .LEHB138-.LFB1141
 3235 031f 05       		.uleb128 .LEHE138-.LEHB138
 3236 0320 00       		.uleb128 0
 3237 0321 00       		.uleb128 0
 3238 0322 8C02     		.uleb128 .LEHB139-.LFB1141
 3239 0324 05       		.uleb128 .LEHE139-.LEHB139
 3240 0325 00       		.uleb128 0
 3241 0326 00       		.uleb128 0
 3242              	.LLSDACSE1141:
 3243              		.section	.text._ZN8UnitTest10CheckEqualImmEEvRNS_11TestResultsERKT_RKT0_RKNS_11TestDetailsE,"axG",
 3245              		.section	.rodata
 3246              	.LC15:
 3247 024c 45787065 		.string	"Expected [ "
 3247      63746564 
 3247      205B2000 
 3248              	.LC16:
 3249 0258 2000     		.string	" "
 3250              	.LC17:
 3251 025a 5D206275 		.string	"] but was [ "
 3251      74207761 
 3251      73205B20 
 3251      00
 3252              	.LC18:
 3253 0267 5D00     		.string	"]"
 3254              		.section	.text._ZN8UnitTest15CheckArrayEqualIA13_hPhEEvRNS_11TestResultsERKT_RKT0_iRKNS_11TestDeta
 3255              		.weak	_ZN8UnitTest15CheckArrayEqualIA13_hPhEEvRNS_11TestResultsERKT_RKT0_iRKNS_11TestDetailsE
 3257              	_ZN8UnitTest15CheckArrayEqualIA13_hPhEEvRNS_11TestResultsERKT_RKT0_iRKNS_11TestDetailsE:
 3258              	.LFB1142:
  29:/home/gani/eval/20140524/makestuff/libs/libutpp/Checks.h **** 
  30:/home/gani/eval/20140524/makestuff/libs/libutpp/Checks.h **** void CheckEqual(TestResults& results, char const* expected, char const* actual, TestDetails const& 
  31:/home/gani/eval/20140524/makestuff/libs/libutpp/Checks.h **** 
  32:/home/gani/eval/20140524/makestuff/libs/libutpp/Checks.h **** void CheckEqual(TestResults& results, char* expected, char* actual, TestDetails const& details);
  33:/home/gani/eval/20140524/makestuff/libs/libutpp/Checks.h **** 
  34:/home/gani/eval/20140524/makestuff/libs/libutpp/Checks.h **** void CheckEqual(TestResults& results, char* expected, char const* actual, TestDetails const& detail
  35:/home/gani/eval/20140524/makestuff/libs/libutpp/Checks.h **** 
  36:/home/gani/eval/20140524/makestuff/libs/libutpp/Checks.h **** void CheckEqual(TestResults& results, char const* expected, char* actual, TestDetails const& detail
  37:/home/gani/eval/20140524/makestuff/libs/libutpp/Checks.h **** 
  38:/home/gani/eval/20140524/makestuff/libs/libutpp/Checks.h **** template< typename Expected, typename Actual, typename Tolerance >
  39:/home/gani/eval/20140524/makestuff/libs/libutpp/Checks.h **** bool AreClose(Expected const& expected, Actual const& actual, Tolerance const& tolerance)
  40:/home/gani/eval/20140524/makestuff/libs/libutpp/Checks.h **** {
  41:/home/gani/eval/20140524/makestuff/libs/libutpp/Checks.h ****     return (actual >= (expected - tolerance)) && (actual <= (expected + tolerance));
  42:/home/gani/eval/20140524/makestuff/libs/libutpp/Checks.h **** }
  43:/home/gani/eval/20140524/makestuff/libs/libutpp/Checks.h **** 
  44:/home/gani/eval/20140524/makestuff/libs/libutpp/Checks.h **** template< typename Expected, typename Actual, typename Tolerance >
  45:/home/gani/eval/20140524/makestuff/libs/libutpp/Checks.h **** void CheckClose(TestResults& results, Expected const& expected, Actual const& actual, Tolerance con
  46:/home/gani/eval/20140524/makestuff/libs/libutpp/Checks.h ****                 TestDetails const& details)
  47:/home/gani/eval/20140524/makestuff/libs/libutpp/Checks.h **** {
  48:/home/gani/eval/20140524/makestuff/libs/libutpp/Checks.h ****     if (!AreClose(expected, actual, tolerance))
  49:/home/gani/eval/20140524/makestuff/libs/libutpp/Checks.h ****     { 
  50:/home/gani/eval/20140524/makestuff/libs/libutpp/Checks.h ****         UnitTest::MemoryOutStream stream;
  51:/home/gani/eval/20140524/makestuff/libs/libutpp/Checks.h ****         stream << "Expected " << expected << " +/- " << tolerance << " but was " << actual;
  52:/home/gani/eval/20140524/makestuff/libs/libutpp/Checks.h **** 
  53:/home/gani/eval/20140524/makestuff/libs/libutpp/Checks.h ****         results.OnTestFailure(details, stream.GetText());
  54:/home/gani/eval/20140524/makestuff/libs/libutpp/Checks.h ****     }
  55:/home/gani/eval/20140524/makestuff/libs/libutpp/Checks.h **** }
  56:/home/gani/eval/20140524/makestuff/libs/libutpp/Checks.h **** 
  57:/home/gani/eval/20140524/makestuff/libs/libutpp/Checks.h **** 
  58:/home/gani/eval/20140524/makestuff/libs/libutpp/Checks.h **** template< typename Expected, typename Actual >
  59:/home/gani/eval/20140524/makestuff/libs/libutpp/Checks.h **** void CheckArrayEqual(TestResults& results, Expected const& expected, Actual const& actual,
 3259              		.loc 4 59 0
 3260              		.cfi_startproc
 3261              		.cfi_personality 0x9b,DW.ref.__gxx_personality_v0
 3262              		.cfi_lsda 0x1b,.LLSDA1142
 3263 0000 55       		pushq	%rbp
 3264              		.cfi_def_cfa_offset 16
 3265              		.cfi_offset 6, -16
 3266 0001 4889E5   		movq	%rsp, %rbp
 3267              		.cfi_def_cfa_register 6
 3268 0004 53       		pushq	%rbx
 3269 0005 4881ECE8 		subq	$488, %rsp
 3269      010000
 3270              		.cfi_offset 3, -24
 3271 000c 4889BD38 		movq	%rdi, -456(%rbp)
 3271      FEFFFF
 3272 0013 4889B530 		movq	%rsi, -464(%rbp)
 3272      FEFFFF
 3273 001a 48899528 		movq	%rdx, -472(%rbp)
 3273      FEFFFF
 3274 0021 898D24FE 		movl	%ecx, -476(%rbp)
 3274      FFFF
 3275 0027 4C898518 		movq	%r8, -488(%rbp)
 3275      FEFFFF
 3276              		.loc 4 59 0
 3277 002e 64488B04 		movq	%fs:40, %rax
 3277      25280000 
 3277      00
 3278 0037 488945E8 		movq	%rax, -24(%rbp)
 3279 003b 31C0     		xorl	%eax, %eax
  60:/home/gani/eval/20140524/makestuff/libs/libutpp/Checks.h ****                 int const count, TestDetails const& details)
  61:/home/gani/eval/20140524/makestuff/libs/libutpp/Checks.h **** {
  62:/home/gani/eval/20140524/makestuff/libs/libutpp/Checks.h ****     bool equal = true;
 3280              		.loc 4 62 0
 3281 003d C68543FE 		movb	$1, -445(%rbp)
 3281      FFFF01
 3282              	.LBB22:
  63:/home/gani/eval/20140524/makestuff/libs/libutpp/Checks.h ****     for (int i = 0; i < count; ++i)
 3283              		.loc 4 63 0
 3284 0044 C78544FE 		movl	$0, -444(%rbp)
 3284      FFFF0000 
 3284      0000
 3285              	.L198:
 3286              		.loc 4 63 0 is_stmt 0 discriminator 3
 3287 004e 8B8544FE 		movl	-444(%rbp), %eax
 3287      FFFF
 3288 0054 3B8524FE 		cmpl	-476(%rbp), %eax
 3288      FFFF
 3289 005a 7D50     		jge	.L197
  64:/home/gani/eval/20140524/makestuff/libs/libutpp/Checks.h ****         equal &= (expected[i] == actual[i]);
 3290              		.loc 4 64 0 is_stmt 1 discriminator 2
 3291 005c 0FB68D43 		movzbl	-445(%rbp), %ecx
 3291      FEFFFF
 3292 0063 488B9530 		movq	-464(%rbp), %rdx
 3292      FEFFFF
 3293 006a 8B8544FE 		movl	-444(%rbp), %eax
 3293      FFFF
 3294 0070 4898     		cltq
 3295 0072 0FB61402 		movzbl	(%rdx,%rax), %edx
 3296 0076 488B8528 		movq	-472(%rbp), %rax
 3296      FEFFFF
 3297 007d 488B30   		movq	(%rax), %rsi
 3298 0080 8B8544FE 		movl	-444(%rbp), %eax
 3298      FFFF
 3299 0086 4898     		cltq
 3300 0088 4801F0   		addq	%rsi, %rax
 3301 008b 0FB600   		movzbl	(%rax), %eax
 3302 008e 38C2     		cmpb	%al, %dl
 3303 0090 0F94C0   		sete	%al
 3304 0093 0FB6C0   		movzbl	%al, %eax
 3305 0096 21C8     		andl	%ecx, %eax
 3306 0098 85C0     		testl	%eax, %eax
 3307 009a 0F95C0   		setne	%al
 3308 009d 888543FE 		movb	%al, -445(%rbp)
 3308      FFFF
  63:/home/gani/eval/20140524/makestuff/libs/libutpp/Checks.h ****     for (int i = 0; i < count; ++i)
 3309              		.loc 4 63 0 discriminator 2
 3310 00a3 838544FE 		addl	$1, -444(%rbp)
 3310      FFFF01
 3311 00aa EBA2     		jmp	.L198
 3312              	.L197:
 3313              	.LBE22:
 3314              	.LBB23:
  65:/home/gani/eval/20140524/makestuff/libs/libutpp/Checks.h **** 
  66:/home/gani/eval/20140524/makestuff/libs/libutpp/Checks.h ****     if (!equal)
 3315              		.loc 4 66 0
 3316 00ac 0FB68543 		movzbl	-445(%rbp), %eax
 3316      FEFFFF
 3317 00b3 83F001   		xorl	$1, %eax
 3318 00b6 84C0     		testb	%al, %al
 3319 00b8 0F845D01 		je	.L207
 3319      0000
 3320              	.LBB24:
  67:/home/gani/eval/20140524/makestuff/libs/libutpp/Checks.h ****     {
  68:/home/gani/eval/20140524/makestuff/libs/libutpp/Checks.h ****         UnitTest::MemoryOutStream stream;
 3321              		.loc 4 68 0
 3322 00be 488D8550 		leaq	-432(%rbp), %rax
 3322      FEFFFF
 3323 00c5 4889C7   		movq	%rax, %rdi
 3324              	.LEHB140:
 3325 00c8 E8000000 		call	_ZN8UnitTest15MemoryOutStreamC1Ev
 3325      00
 3326              	.LEHE140:
  69:/home/gani/eval/20140524/makestuff/libs/libutpp/Checks.h **** 
  70:/home/gani/eval/20140524/makestuff/libs/libutpp/Checks.h **** 		stream << "Expected [ ";
 3327              		.loc 4 70 0
 3328 00cd 488D8550 		leaq	-432(%rbp), %rax
 3328      FEFFFF
 3329 00d4 488D3500 		leaq	.LC15(%rip), %rsi
 3329      000000
 3330 00db 4889C7   		movq	%rax, %rdi
 3331              	.LEHB141:
 3332 00de E8000000 		call	_ZStlsISt11char_traitsIcEERSt13basic_ostreamIcT_ES5_PKc@PLT
 3332      00
 3333              	.LBB25:
  71:/home/gani/eval/20140524/makestuff/libs/libutpp/Checks.h **** 
  72:/home/gani/eval/20140524/makestuff/libs/libutpp/Checks.h **** 		for (int expectedIndex = 0; expectedIndex < count; ++expectedIndex)
 3334              		.loc 4 72 0
 3335 00e3 C78548FE 		movl	$0, -440(%rbp)
 3335      FFFF0000 
 3335      0000
 3336              	.L201:
 3337              		.loc 4 72 0 is_stmt 0 discriminator 1
 3338 00ed 8B8548FE 		movl	-440(%rbp), %eax
 3338      FFFF
 3339 00f3 3B8524FE 		cmpl	-476(%rbp), %eax
 3339      FFFF
 3340 00f9 7D3F     		jge	.L200
  73:/home/gani/eval/20140524/makestuff/libs/libutpp/Checks.h ****             stream << expected[expectedIndex] << " ";
 3341              		.loc 4 73 0 is_stmt 1
 3342 00fb 488B9530 		movq	-464(%rbp), %rdx
 3342      FEFFFF
 3343 0102 8B8548FE 		movl	-440(%rbp), %eax
 3343      FFFF
 3344 0108 4898     		cltq
 3345 010a 0FB60402 		movzbl	(%rdx,%rax), %eax
 3346 010e 0FB6D0   		movzbl	%al, %edx
 3347 0111 488D8550 		leaq	-432(%rbp), %rax
 3347      FEFFFF
 3348 0118 89D6     		movl	%edx, %esi
 3349 011a 4889C7   		movq	%rax, %rdi
 3350 011d E8000000 		call	_ZStlsISt11char_traitsIcEERSt13basic_ostreamIcT_ES5_h@PLT
 3350      00
 3351 0122 488D3500 		leaq	.LC16(%rip), %rsi
 3351      000000
 3352 0129 4889C7   		movq	%rax, %rdi
 3353 012c E8000000 		call	_ZStlsISt11char_traitsIcEERSt13basic_ostreamIcT_ES5_PKc@PLT
 3353      00
  72:/home/gani/eval/20140524/makestuff/libs/libutpp/Checks.h ****             stream << expected[expectedIndex] << " ";
 3354              		.loc 4 72 0 discriminator 2
 3355 0131 838548FE 		addl	$1, -440(%rbp)
 3355      FFFF01
 3356 0138 EBB3     		jmp	.L201
 3357              	.L200:
 3358              	.LBE25:
  74:/home/gani/eval/20140524/makestuff/libs/libutpp/Checks.h **** 
  75:/home/gani/eval/20140524/makestuff/libs/libutpp/Checks.h **** 		stream << "] but was [ ";
 3359              		.loc 4 75 0
 3360 013a 488D8550 		leaq	-432(%rbp), %rax
 3360      FEFFFF
 3361 0141 488D3500 		leaq	.LC17(%rip), %rsi
 3361      000000
 3362 0148 4889C7   		movq	%rax, %rdi
 3363 014b E8000000 		call	_ZStlsISt11char_traitsIcEERSt13basic_ostreamIcT_ES5_PKc@PLT
 3363      00
 3364              	.LBB26:
  76:/home/gani/eval/20140524/makestuff/libs/libutpp/Checks.h **** 
  77:/home/gani/eval/20140524/makestuff/libs/libutpp/Checks.h **** 		for (int actualIndex = 0; actualIndex < count; ++actualIndex)
 3365              		.loc 4 77 0
 3366 0150 C7854CFE 		movl	$0, -436(%rbp)
 3366      FFFF0000 
 3366      0000
 3367              	.L203:
 3368              		.loc 4 77 0 is_stmt 0 discriminator 1
 3369 015a 8B854CFE 		movl	-436(%rbp), %eax
 3369      FFFF
 3370 0160 3B8524FE 		cmpl	-476(%rbp), %eax
 3370      FFFF
 3371 0166 7D44     		jge	.L202
  78:/home/gani/eval/20140524/makestuff/libs/libutpp/Checks.h ****             stream << actual[actualIndex] << " ";
 3372              		.loc 4 78 0 is_stmt 1
 3373 0168 488B8528 		movq	-472(%rbp), %rax
 3373      FEFFFF
 3374 016f 488B10   		movq	(%rax), %rdx
 3375 0172 8B854CFE 		movl	-436(%rbp), %eax
 3375      FFFF
 3376 0178 4898     		cltq
 3377 017a 4801D0   		addq	%rdx, %rax
 3378 017d 0FB600   		movzbl	(%rax), %eax
 3379 0180 0FB6D0   		movzbl	%al, %edx
 3380 0183 488D8550 		leaq	-432(%rbp), %rax
 3380      FEFFFF
 3381 018a 89D6     		movl	%edx, %esi
 3382 018c 4889C7   		movq	%rax, %rdi
 3383 018f E8000000 		call	_ZStlsISt11char_traitsIcEERSt13basic_ostreamIcT_ES5_h@PLT
 3383      00
 3384 0194 488D3500 		leaq	.LC16(%rip), %rsi
 3384      000000
 3385 019b 4889C7   		movq	%rax, %rdi
 3386 019e E8000000 		call	_ZStlsISt11char_traitsIcEERSt13basic_ostreamIcT_ES5_PKc@PLT
 3386      00
  77:/home/gani/eval/20140524/makestuff/libs/libutpp/Checks.h ****             stream << actual[actualIndex] << " ";
 3387              		.loc 4 77 0 discriminator 2
 3388 01a3 83854CFE 		addl	$1, -436(%rbp)
 3388      FFFF01
 3389 01aa EBAE     		jmp	.L203
 3390              	.L202:
 3391              	.LBE26:
  79:/home/gani/eval/20140524/makestuff/libs/libutpp/Checks.h **** 
  80:/home/gani/eval/20140524/makestuff/libs/libutpp/Checks.h **** 		stream << "]";
 3392              		.loc 4 80 0
 3393 01ac 488D8550 		leaq	-432(%rbp), %rax
 3393      FEFFFF
 3394 01b3 488D3500 		leaq	.LC18(%rip), %rsi
 3394      000000
 3395 01ba 4889C7   		movq	%rax, %rdi
 3396 01bd E8000000 		call	_ZStlsISt11char_traitsIcEERSt13basic_ostreamIcT_ES5_PKc@PLT
 3396      00
  81:/home/gani/eval/20140524/makestuff/libs/libutpp/Checks.h **** 
  82:/home/gani/eval/20140524/makestuff/libs/libutpp/Checks.h ****         results.OnTestFailure(details, stream.GetText());
 3397              		.loc 4 82 0
 3398 01c2 488D8550 		leaq	-432(%rbp), %rax
 3398      FEFFFF
 3399 01c9 4889C7   		movq	%rax, %rdi
 3400 01cc E8000000 		call	_ZNK8UnitTest15MemoryOutStream7GetTextEv@PLT
 3400      00
 3401 01d1 4889C2   		movq	%rax, %rdx
 3402 01d4 488B8D18 		movq	-488(%rbp), %rcx
 3402      FEFFFF
 3403 01db 488B8538 		movq	-456(%rbp), %rax
 3403      FEFFFF
 3404 01e2 4889CE   		movq	%rcx, %rsi
 3405 01e5 4889C7   		movq	%rax, %rdi
 3406 01e8 E8000000 		call	_ZN8UnitTest11TestResults13OnTestFailureERKNS_11TestDetailsEPKc@PLT
 3406      00
 3407              	.LEHE141:
  68:/home/gani/eval/20140524/makestuff/libs/libutpp/Checks.h **** 
 3408              		.loc 4 68 0
 3409 01ed 488D8550 		leaq	-432(%rbp), %rax
 3409      FEFFFF
 3410 01f4 4889C7   		movq	%rax, %rdi
 3411              	.LEHB142:
 3412 01f7 E8000000 		call	_ZN8UnitTest15MemoryOutStreamD1Ev
 3412      00
 3413              	.LEHE142:
 3414              	.LBE24:
 3415              	.LBE23:
  83:/home/gani/eval/20140524/makestuff/libs/libutpp/Checks.h ****     }
  84:/home/gani/eval/20140524/makestuff/libs/libutpp/Checks.h **** }
 3416              		.loc 4 84 0
 3417 01fc EB1D     		jmp	.L207
 3418              	.L206:
 3419 01fe 4889C3   		movq	%rax, %rbx
 3420              	.LBB28:
 3421              	.LBB27:
  68:/home/gani/eval/20140524/makestuff/libs/libutpp/Checks.h **** 
 3422              		.loc 4 68 0
 3423 0201 488D8550 		leaq	-432(%rbp), %rax
 3423      FEFFFF
 3424 0208 4889C7   		movq	%rax, %rdi
 3425 020b E8000000 		call	_ZN8UnitTest15MemoryOutStreamD1Ev
 3425      00
 3426 0210 4889D8   		movq	%rbx, %rax
 3427 0213 4889C7   		movq	%rax, %rdi
 3428              	.LEHB143:
 3429 0216 E8000000 		call	_Unwind_Resume@PLT
 3429      00
 3430              	.LEHE143:
 3431              	.L207:
 3432              	.LBE27:
 3433              	.LBE28:
 3434              		.loc 4 84 0
 3435 021b 90       		nop
 3436 021c 488B45E8 		movq	-24(%rbp), %rax
 3437 0220 64483304 		xorq	%fs:40, %rax
 3437      25280000 
 3437      00
 3438 0229 7405     		je	.L205
 3439 022b E8000000 		call	__stack_chk_fail@PLT
 3439      00
 3440              	.L205:
 3441 0230 4881C4E8 		addq	$488, %rsp
 3441      010000
 3442 0237 5B       		popq	%rbx
 3443 0238 5D       		popq	%rbp
 3444              		.cfi_def_cfa 7, 8
 3445 0239 C3       		ret
 3446              		.cfi_endproc
 3447              	.LFE1142:
 3448              		.section	.gcc_except_table
 3449              	.LLSDA1142:
 3450 0327 FF       		.byte	0xff
 3451 0328 FF       		.byte	0xff
 3452 0329 01       		.byte	0x1
 3453 032a 16       		.uleb128 .LLSDACSE1142-.LLSDACSB1142
 3454              	.LLSDACSB1142:
 3455 032b C801     		.uleb128 .LEHB140-.LFB1142
 3456 032d 05       		.uleb128 .LEHE140-.LEHB140
 3457 032e 00       		.uleb128 0
 3458 032f 00       		.uleb128 0
 3459 0330 DE01     		.uleb128 .LEHB141-.LFB1142
 3460 0332 8F02     		.uleb128 .LEHE141-.LEHB141
 3461 0334 FE03     		.uleb128 .L206-.LFB1142
 3462 0336 00       		.uleb128 0
 3463 0337 F703     		.uleb128 .LEHB142-.LFB1142
 3464 0339 05       		.uleb128 .LEHE142-.LEHB142
 3465 033a 00       		.uleb128 0
 3466 033b 00       		.uleb128 0
 3467 033c 9604     		.uleb128 .LEHB143-.LFB1142
 3468 033e 05       		.uleb128 .LEHE143-.LEHB143
 3469 033f 00       		.uleb128 0
 3470 0340 00       		.uleb128 0
 3471              	.LLSDACSE1142:
 3472              		.section	.text._ZN8UnitTest15CheckArrayEqualIA13_hPhEEvRNS_11TestResultsERKT_RKT0_iRKNS_11TestDeta
 3474              		.section	.text._ZN8UnitTest15CheckArrayEqualIA16_hPhEEvRNS_11TestResultsERKT_RKT0_iRKNS_11TestDeta
 3475              		.weak	_ZN8UnitTest15CheckArrayEqualIA16_hPhEEvRNS_11TestResultsERKT_RKT0_iRKNS_11TestDetailsE
 3477              	_ZN8UnitTest15CheckArrayEqualIA16_hPhEEvRNS_11TestResultsERKT_RKT0_iRKNS_11TestDetailsE:
 3478              	.LFB1143:
  59:/home/gani/eval/20140524/makestuff/libs/libutpp/Checks.h ****                 int const count, TestDetails const& details)
 3479              		.loc 4 59 0
 3480              		.cfi_startproc
 3481              		.cfi_personality 0x9b,DW.ref.__gxx_personality_v0
 3482              		.cfi_lsda 0x1b,.LLSDA1143
 3483 0000 55       		pushq	%rbp
 3484              		.cfi_def_cfa_offset 16
 3485              		.cfi_offset 6, -16
 3486 0001 4889E5   		movq	%rsp, %rbp
 3487              		.cfi_def_cfa_register 6
 3488 0004 53       		pushq	%rbx
 3489 0005 4881ECE8 		subq	$488, %rsp
 3489      010000
 3490              		.cfi_offset 3, -24
 3491 000c 4889BD38 		movq	%rdi, -456(%rbp)
 3491      FEFFFF
 3492 0013 4889B530 		movq	%rsi, -464(%rbp)
 3492      FEFFFF
 3493 001a 48899528 		movq	%rdx, -472(%rbp)
 3493      FEFFFF
 3494 0021 898D24FE 		movl	%ecx, -476(%rbp)
 3494      FFFF
 3495 0027 4C898518 		movq	%r8, -488(%rbp)
 3495      FEFFFF
  59:/home/gani/eval/20140524/makestuff/libs/libutpp/Checks.h ****                 int const count, TestDetails const& details)
 3496              		.loc 4 59 0
 3497 002e 64488B04 		movq	%fs:40, %rax
 3497      25280000 
 3497      00
 3498 0037 488945E8 		movq	%rax, -24(%rbp)
 3499 003b 31C0     		xorl	%eax, %eax
  62:/home/gani/eval/20140524/makestuff/libs/libutpp/Checks.h ****     for (int i = 0; i < count; ++i)
 3500              		.loc 4 62 0
 3501 003d C68543FE 		movb	$1, -445(%rbp)
 3501      FFFF01
 3502              	.LBB29:
  63:/home/gani/eval/20140524/makestuff/libs/libutpp/Checks.h ****         equal &= (expected[i] == actual[i]);
 3503              		.loc 4 63 0
 3504 0044 C78544FE 		movl	$0, -444(%rbp)
 3504      FFFF0000 
 3504      0000
 3505              	.L210:
  63:/home/gani/eval/20140524/makestuff/libs/libutpp/Checks.h ****         equal &= (expected[i] == actual[i]);
 3506              		.loc 4 63 0 is_stmt 0 discriminator 3
 3507 004e 8B8544FE 		movl	-444(%rbp), %eax
 3507      FFFF
 3508 0054 3B8524FE 		cmpl	-476(%rbp), %eax
 3508      FFFF
 3509 005a 7D50     		jge	.L209
  64:/home/gani/eval/20140524/makestuff/libs/libutpp/Checks.h **** 
 3510              		.loc 4 64 0 is_stmt 1 discriminator 2
 3511 005c 0FB68D43 		movzbl	-445(%rbp), %ecx
 3511      FEFFFF
 3512 0063 488B9530 		movq	-464(%rbp), %rdx
 3512      FEFFFF
 3513 006a 8B8544FE 		movl	-444(%rbp), %eax
 3513      FFFF
 3514 0070 4898     		cltq
 3515 0072 0FB61402 		movzbl	(%rdx,%rax), %edx
 3516 0076 488B8528 		movq	-472(%rbp), %rax
 3516      FEFFFF
 3517 007d 488B30   		movq	(%rax), %rsi
 3518 0080 8B8544FE 		movl	-444(%rbp), %eax
 3518      FFFF
 3519 0086 4898     		cltq
 3520 0088 4801F0   		addq	%rsi, %rax
 3521 008b 0FB600   		movzbl	(%rax), %eax
 3522 008e 38C2     		cmpb	%al, %dl
 3523 0090 0F94C0   		sete	%al
 3524 0093 0FB6C0   		movzbl	%al, %eax
 3525 0096 21C8     		andl	%ecx, %eax
 3526 0098 85C0     		testl	%eax, %eax
 3527 009a 0F95C0   		setne	%al
 3528 009d 888543FE 		movb	%al, -445(%rbp)
 3528      FFFF
  63:/home/gani/eval/20140524/makestuff/libs/libutpp/Checks.h ****         equal &= (expected[i] == actual[i]);
 3529              		.loc 4 63 0 discriminator 2
 3530 00a3 838544FE 		addl	$1, -444(%rbp)
 3530      FFFF01
 3531 00aa EBA2     		jmp	.L210
 3532              	.L209:
 3533              	.LBE29:
 3534              	.LBB30:
  66:/home/gani/eval/20140524/makestuff/libs/libutpp/Checks.h ****     {
 3535              		.loc 4 66 0
 3536 00ac 0FB68543 		movzbl	-445(%rbp), %eax
 3536      FEFFFF
 3537 00b3 83F001   		xorl	$1, %eax
 3538 00b6 84C0     		testb	%al, %al
 3539 00b8 0F845D01 		je	.L219
 3539      0000
 3540              	.LBB31:
  68:/home/gani/eval/20140524/makestuff/libs/libutpp/Checks.h **** 
 3541              		.loc 4 68 0
 3542 00be 488D8550 		leaq	-432(%rbp), %rax
 3542      FEFFFF
 3543 00c5 4889C7   		movq	%rax, %rdi
 3544              	.LEHB144:
 3545 00c8 E8000000 		call	_ZN8UnitTest15MemoryOutStreamC1Ev
 3545      00
 3546              	.LEHE144:
  70:/home/gani/eval/20140524/makestuff/libs/libutpp/Checks.h **** 
 3547              		.loc 4 70 0
 3548 00cd 488D8550 		leaq	-432(%rbp), %rax
 3548      FEFFFF
 3549 00d4 488D3500 		leaq	.LC15(%rip), %rsi
 3549      000000
 3550 00db 4889C7   		movq	%rax, %rdi
 3551              	.LEHB145:
 3552 00de E8000000 		call	_ZStlsISt11char_traitsIcEERSt13basic_ostreamIcT_ES5_PKc@PLT
 3552      00
 3553              	.LBB32:
  72:/home/gani/eval/20140524/makestuff/libs/libutpp/Checks.h ****             stream << expected[expectedIndex] << " ";
 3554              		.loc 4 72 0
 3555 00e3 C78548FE 		movl	$0, -440(%rbp)
 3555      FFFF0000 
 3555      0000
 3556              	.L213:
  72:/home/gani/eval/20140524/makestuff/libs/libutpp/Checks.h ****             stream << expected[expectedIndex] << " ";
 3557              		.loc 4 72 0 is_stmt 0 discriminator 1
 3558 00ed 8B8548FE 		movl	-440(%rbp), %eax
 3558      FFFF
 3559 00f3 3B8524FE 		cmpl	-476(%rbp), %eax
 3559      FFFF
 3560 00f9 7D3F     		jge	.L212
  73:/home/gani/eval/20140524/makestuff/libs/libutpp/Checks.h **** 
 3561              		.loc 4 73 0 is_stmt 1
 3562 00fb 488B9530 		movq	-464(%rbp), %rdx
 3562      FEFFFF
 3563 0102 8B8548FE 		movl	-440(%rbp), %eax
 3563      FFFF
 3564 0108 4898     		cltq
 3565 010a 0FB60402 		movzbl	(%rdx,%rax), %eax
 3566 010e 0FB6D0   		movzbl	%al, %edx
 3567 0111 488D8550 		leaq	-432(%rbp), %rax
 3567      FEFFFF
 3568 0118 89D6     		movl	%edx, %esi
 3569 011a 4889C7   		movq	%rax, %rdi
 3570 011d E8000000 		call	_ZStlsISt11char_traitsIcEERSt13basic_ostreamIcT_ES5_h@PLT
 3570      00
 3571 0122 488D3500 		leaq	.LC16(%rip), %rsi
 3571      000000
 3572 0129 4889C7   		movq	%rax, %rdi
 3573 012c E8000000 		call	_ZStlsISt11char_traitsIcEERSt13basic_ostreamIcT_ES5_PKc@PLT
 3573      00
  72:/home/gani/eval/20140524/makestuff/libs/libutpp/Checks.h ****             stream << expected[expectedIndex] << " ";
 3574              		.loc 4 72 0 discriminator 2
 3575 0131 838548FE 		addl	$1, -440(%rbp)
 3575      FFFF01
 3576 0138 EBB3     		jmp	.L213
 3577              	.L212:
 3578              	.LBE32:
  75:/home/gani/eval/20140524/makestuff/libs/libutpp/Checks.h **** 
 3579              		.loc 4 75 0
 3580 013a 488D8550 		leaq	-432(%rbp), %rax
 3580      FEFFFF
 3581 0141 488D3500 		leaq	.LC17(%rip), %rsi
 3581      000000
 3582 0148 4889C7   		movq	%rax, %rdi
 3583 014b E8000000 		call	_ZStlsISt11char_traitsIcEERSt13basic_ostreamIcT_ES5_PKc@PLT
 3583      00
 3584              	.LBB33:
  77:/home/gani/eval/20140524/makestuff/libs/libutpp/Checks.h ****             stream << actual[actualIndex] << " ";
 3585              		.loc 4 77 0
 3586 0150 C7854CFE 		movl	$0, -436(%rbp)
 3586      FFFF0000 
 3586      0000
 3587              	.L215:
  77:/home/gani/eval/20140524/makestuff/libs/libutpp/Checks.h ****             stream << actual[actualIndex] << " ";
 3588              		.loc 4 77 0 is_stmt 0 discriminator 1
 3589 015a 8B854CFE 		movl	-436(%rbp), %eax
 3589      FFFF
 3590 0160 3B8524FE 		cmpl	-476(%rbp), %eax
 3590      FFFF
 3591 0166 7D44     		jge	.L214
  78:/home/gani/eval/20140524/makestuff/libs/libutpp/Checks.h **** 
 3592              		.loc 4 78 0 is_stmt 1
 3593 0168 488B8528 		movq	-472(%rbp), %rax
 3593      FEFFFF
 3594 016f 488B10   		movq	(%rax), %rdx
 3595 0172 8B854CFE 		movl	-436(%rbp), %eax
 3595      FFFF
 3596 0178 4898     		cltq
 3597 017a 4801D0   		addq	%rdx, %rax
 3598 017d 0FB600   		movzbl	(%rax), %eax
 3599 0180 0FB6D0   		movzbl	%al, %edx
 3600 0183 488D8550 		leaq	-432(%rbp), %rax
 3600      FEFFFF
 3601 018a 89D6     		movl	%edx, %esi
 3602 018c 4889C7   		movq	%rax, %rdi
 3603 018f E8000000 		call	_ZStlsISt11char_traitsIcEERSt13basic_ostreamIcT_ES5_h@PLT
 3603      00
 3604 0194 488D3500 		leaq	.LC16(%rip), %rsi
 3604      000000
 3605 019b 4889C7   		movq	%rax, %rdi
 3606 019e E8000000 		call	_ZStlsISt11char_traitsIcEERSt13basic_ostreamIcT_ES5_PKc@PLT
 3606      00
  77:/home/gani/eval/20140524/makestuff/libs/libutpp/Checks.h ****             stream << actual[actualIndex] << " ";
 3607              		.loc 4 77 0 discriminator 2
 3608 01a3 83854CFE 		addl	$1, -436(%rbp)
 3608      FFFF01
 3609 01aa EBAE     		jmp	.L215
 3610              	.L214:
 3611              	.LBE33:
  80:/home/gani/eval/20140524/makestuff/libs/libutpp/Checks.h **** 
 3612              		.loc 4 80 0
 3613 01ac 488D8550 		leaq	-432(%rbp), %rax
 3613      FEFFFF
 3614 01b3 488D3500 		leaq	.LC18(%rip), %rsi
 3614      000000
 3615 01ba 4889C7   		movq	%rax, %rdi
 3616 01bd E8000000 		call	_ZStlsISt11char_traitsIcEERSt13basic_ostreamIcT_ES5_PKc@PLT
 3616      00
  82:/home/gani/eval/20140524/makestuff/libs/libutpp/Checks.h ****     }
 3617              		.loc 4 82 0
 3618 01c2 488D8550 		leaq	-432(%rbp), %rax
 3618      FEFFFF
 3619 01c9 4889C7   		movq	%rax, %rdi
 3620 01cc E8000000 		call	_ZNK8UnitTest15MemoryOutStream7GetTextEv@PLT
 3620      00
 3621 01d1 4889C2   		movq	%rax, %rdx
 3622 01d4 488B8D18 		movq	-488(%rbp), %rcx
 3622      FEFFFF
 3623 01db 488B8538 		movq	-456(%rbp), %rax
 3623      FEFFFF
 3624 01e2 4889CE   		movq	%rcx, %rsi
 3625 01e5 4889C7   		movq	%rax, %rdi
 3626 01e8 E8000000 		call	_ZN8UnitTest11TestResults13OnTestFailureERKNS_11TestDetailsEPKc@PLT
 3626      00
 3627              	.LEHE145:
  68:/home/gani/eval/20140524/makestuff/libs/libutpp/Checks.h **** 
 3628              		.loc 4 68 0
 3629 01ed 488D8550 		leaq	-432(%rbp), %rax
 3629      FEFFFF
 3630 01f4 4889C7   		movq	%rax, %rdi
 3631              	.LEHB146:
 3632 01f7 E8000000 		call	_ZN8UnitTest15MemoryOutStreamD1Ev
 3632      00
 3633              	.LEHE146:
 3634              	.LBE31:
 3635              	.LBE30:
 3636              		.loc 4 84 0
 3637 01fc EB1D     		jmp	.L219
 3638              	.L218:
 3639 01fe 4889C3   		movq	%rax, %rbx
 3640              	.LBB35:
 3641              	.LBB34:
  68:/home/gani/eval/20140524/makestuff/libs/libutpp/Checks.h **** 
 3642              		.loc 4 68 0
 3643 0201 488D8550 		leaq	-432(%rbp), %rax
 3643      FEFFFF
 3644 0208 4889C7   		movq	%rax, %rdi
 3645 020b E8000000 		call	_ZN8UnitTest15MemoryOutStreamD1Ev
 3645      00
 3646 0210 4889D8   		movq	%rbx, %rax
 3647 0213 4889C7   		movq	%rax, %rdi
 3648              	.LEHB147:
 3649 0216 E8000000 		call	_Unwind_Resume@PLT
 3649      00
 3650              	.LEHE147:
 3651              	.L219:
 3652              	.LBE34:
 3653              	.LBE35:
 3654              		.loc 4 84 0
 3655 021b 90       		nop
 3656 021c 488B45E8 		movq	-24(%rbp), %rax
 3657 0220 64483304 		xorq	%fs:40, %rax
 3657      25280000 
 3657      00
 3658 0229 7405     		je	.L217
 3659 022b E8000000 		call	__stack_chk_fail@PLT
 3659      00
 3660              	.L217:
 3661 0230 4881C4E8 		addq	$488, %rsp
 3661      010000
 3662 0237 5B       		popq	%rbx
 3663 0238 5D       		popq	%rbp
 3664              		.cfi_def_cfa 7, 8
 3665 0239 C3       		ret
 3666              		.cfi_endproc
 3667              	.LFE1143:
 3668              		.section	.gcc_except_table
 3669              	.LLSDA1143:
 3670 0341 FF       		.byte	0xff
 3671 0342 FF       		.byte	0xff
 3672 0343 01       		.byte	0x1
 3673 0344 16       		.uleb128 .LLSDACSE1143-.LLSDACSB1143
 3674              	.LLSDACSB1143:
 3675 0345 C801     		.uleb128 .LEHB144-.LFB1143
 3676 0347 05       		.uleb128 .LEHE144-.LEHB144
 3677 0348 00       		.uleb128 0
 3678 0349 00       		.uleb128 0
 3679 034a DE01     		.uleb128 .LEHB145-.LFB1143
 3680 034c 8F02     		.uleb128 .LEHE145-.LEHB145
 3681 034e FE03     		.uleb128 .L218-.LFB1143
 3682 0350 00       		.uleb128 0
 3683 0351 F703     		.uleb128 .LEHB146-.LFB1143
 3684 0353 05       		.uleb128 .LEHE146-.LEHB146
 3685 0354 00       		.uleb128 0
 3686 0355 00       		.uleb128 0
 3687 0356 9604     		.uleb128 .LEHB147-.LFB1143
 3688 0358 05       		.uleb128 .LEHE147-.LEHB147
 3689 0359 00       		.uleb128 0
 3690 035a 00       		.uleb128 0
 3691              	.LLSDACSE1143:
 3692              		.section	.text._ZN8UnitTest15CheckArrayEqualIA16_hPhEEvRNS_11TestResultsERKT_RKT0_iRKNS_11TestDeta
 3694              		.weak	_ZTV26TestI2C_testFinaliseNoInit
 3695              		.section	.data.rel.ro.local._ZTV26TestI2C_testFinaliseNoInit,"awG",@progbits,_ZTV26TestI2C_testFin
 3696              		.align 8
 3699              	_ZTV26TestI2C_testFinaliseNoInit:
 3700 0000 00000000 		.quad	0
 3700      00000000 
 3701 0008 00000000 		.quad	_ZTI26TestI2C_testFinaliseNoInit
 3701      00000000 
 3702 0010 00000000 		.quad	_ZN26TestI2C_testFinaliseNoInitD1Ev
 3702      00000000 
 3703 0018 00000000 		.quad	_ZN26TestI2C_testFinaliseNoInitD0Ev
 3703      00000000 
 3704 0020 00000000 		.quad	_ZNK26TestI2C_testFinaliseNoInit7RunImplEv
 3704      00000000 
 3705              		.section	.text._ZN26TestI2C_testFinaliseNoInitD2Ev,"axG",@progbits,_ZN26TestI2C_testFinaliseNoInit
 3706              		.align 2
 3707              		.weak	_ZN26TestI2C_testFinaliseNoInitD2Ev
 3709              	_ZN26TestI2C_testFinaliseNoInitD2Ev:
 3710              	.LFB1200:
 106:testI2C.cpp   **** 	Buffer buf;
 3711              		.loc 3 106 0
 3712              		.cfi_startproc
 3713 0000 55       		pushq	%rbp
 3714              		.cfi_def_cfa_offset 16
 3715              		.cfi_offset 6, -16
 3716 0001 4889E5   		movq	%rsp, %rbp
 3717              		.cfi_def_cfa_register 6
 3718 0004 4883EC10 		subq	$16, %rsp
 3719 0008 48897DF8 		movq	%rdi, -8(%rbp)
 3720              	.LBB36:
 106:testI2C.cpp   **** 	Buffer buf;
 3721              		.loc 3 106 0
 3722 000c 488D1500 		leaq	16+_ZTV26TestI2C_testFinaliseNoInit(%rip), %rdx
 3722      000000
 3723 0013 488B45F8 		movq	-8(%rbp), %rax
 3724 0017 488910   		movq	%rdx, (%rax)
 3725 001a 488B45F8 		movq	-8(%rbp), %rax
 3726 001e 4889C7   		movq	%rax, %rdi
 3727 0021 E8000000 		call	_ZN8UnitTest4TestD2Ev@PLT
 3727      00
 3728              	.LBE36:
 3729 0026 90       		nop
 3730 0027 C9       		leave
 3731              		.cfi_def_cfa 7, 8
 3732 0028 C3       		ret
 3733              		.cfi_endproc
 3734              	.LFE1200:
 3736              		.weak	_ZN26TestI2C_testFinaliseNoInitD1Ev
 3737              		.set	_ZN26TestI2C_testFinaliseNoInitD1Ev,_ZN26TestI2C_testFinaliseNoInitD2Ev
 3738              		.section	.text._ZN26TestI2C_testFinaliseNoInitD0Ev,"axG",@progbits,_ZN26TestI2C_testFinaliseNoInit
 3739              		.align 2
 3740              		.weak	_ZN26TestI2C_testFinaliseNoInitD0Ev
 3742              	_ZN26TestI2C_testFinaliseNoInitD0Ev:
 3743              	.LFB1202:
 106:testI2C.cpp   **** 	Buffer buf;
 3744              		.loc 3 106 0
 3745              		.cfi_startproc
 3746              		.cfi_personality 0x9b,DW.ref.__gxx_personality_v0
 3747              		.cfi_lsda 0x1b,.LLSDA1202
 3748 0000 55       		pushq	%rbp
 3749              		.cfi_def_cfa_offset 16
 3750              		.cfi_offset 6, -16
 3751 0001 4889E5   		movq	%rsp, %rbp
 3752              		.cfi_def_cfa_register 6
 3753 0004 53       		pushq	%rbx
 3754 0005 4883EC18 		subq	$24, %rsp
 3755              		.cfi_offset 3, -24
 3756 0009 48897DE8 		movq	%rdi, -24(%rbp)
 106:testI2C.cpp   **** 	Buffer buf;
 3757              		.loc 3 106 0
 3758 000d 488B45E8 		movq	-24(%rbp), %rax
 3759 0011 4889C7   		movq	%rax, %rdi
 3760              	.LEHB148:
 3761 0014 E8000000 		call	_ZN26TestI2C_testFinaliseNoInitD1Ev
 3761      00
 3762              	.LEHE148:
 106:testI2C.cpp   **** 	Buffer buf;
 3763              		.loc 3 106 0 is_stmt 0 discriminator 2
 3764 0019 488B45E8 		movq	-24(%rbp), %rax
 3765 001d 4889C7   		movq	%rax, %rdi
 3766 0020 E8000000 		call	_ZdlPv@PLT
 3766      00
 3767 0025 EB1A     		jmp	.L224
 3768              	.L223:
 3769 0027 4889C3   		movq	%rax, %rbx
 106:testI2C.cpp   **** 	Buffer buf;
 3770              		.loc 3 106 0
 3771 002a 488B45E8 		movq	-24(%rbp), %rax
 3772 002e 4889C7   		movq	%rax, %rdi
 3773 0031 E8000000 		call	_ZdlPv@PLT
 3773      00
 3774 0036 4889D8   		movq	%rbx, %rax
 3775 0039 4889C7   		movq	%rax, %rdi
 3776              	.LEHB149:
 3777 003c E8000000 		call	_Unwind_Resume@PLT
 3777      00
 3778              	.LEHE149:
 3779              	.L224:
 3780 0041 4883C418 		addq	$24, %rsp
 3781 0045 5B       		popq	%rbx
 3782 0046 5D       		popq	%rbp
 3783              		.cfi_def_cfa 7, 8
 3784 0047 C3       		ret
 3785              		.cfi_endproc
 3786              	.LFE1202:
 3787              		.section	.gcc_except_table
 3788              	.LLSDA1202:
 3789 035b FF       		.byte	0xff
 3790 035c FF       		.byte	0xff
 3791 035d 01       		.byte	0x1
 3792 035e 08       		.uleb128 .LLSDACSE1202-.LLSDACSB1202
 3793              	.LLSDACSB1202:
 3794 035f 14       		.uleb128 .LEHB148-.LFB1202
 3795 0360 05       		.uleb128 .LEHE148-.LEHB148
 3796 0361 27       		.uleb128 .L223-.LFB1202
 3797 0362 00       		.uleb128 0
 3798 0363 3C       		.uleb128 .LEHB149-.LFB1202
 3799 0364 05       		.uleb128 .LEHE149-.LEHB149
 3800 0365 00       		.uleb128 0
 3801 0366 00       		.uleb128 0
 3802              	.LLSDACSE1202:
 3803              		.section	.text._ZN26TestI2C_testFinaliseNoInitD0Ev,"axG",@progbits,_ZN26TestI2C_testFinaliseNoInit
 3805              		.weak	_ZTV21TestI2C_testWPRNoInit
 3806              		.section	.data.rel.ro.local._ZTV21TestI2C_testWPRNoInit,"awG",@progbits,_ZTV21TestI2C_testWPRNoIni
 3807              		.align 8
 3810              	_ZTV21TestI2C_testWPRNoInit:
 3811 0000 00000000 		.quad	0
 3811      00000000 
 3812 0008 00000000 		.quad	_ZTI21TestI2C_testWPRNoInit
 3812      00000000 
 3813 0010 00000000 		.quad	_ZN21TestI2C_testWPRNoInitD1Ev
 3813      00000000 
 3814 0018 00000000 		.quad	_ZN21TestI2C_testWPRNoInitD0Ev
 3814      00000000 
 3815 0020 00000000 		.quad	_ZNK21TestI2C_testWPRNoInit7RunImplEv
 3815      00000000 
 3816              		.section	.text._ZN21TestI2C_testWPRNoInitD2Ev,"axG",@progbits,_ZN21TestI2C_testWPRNoInitD5Ev,comda
 3817              		.align 2
 3818              		.weak	_ZN21TestI2C_testWPRNoInitD2Ev
 3820              	_ZN21TestI2C_testWPRNoInitD2Ev:
 3821              	.LFB1204:
  95:testI2C.cpp   **** 	Buffer i2cBuffer;
 3822              		.loc 3 95 0 is_stmt 1
 3823              		.cfi_startproc
 3824 0000 55       		pushq	%rbp
 3825              		.cfi_def_cfa_offset 16
 3826              		.cfi_offset 6, -16
 3827 0001 4889E5   		movq	%rsp, %rbp
 3828              		.cfi_def_cfa_register 6
 3829 0004 4883EC10 		subq	$16, %rsp
 3830 0008 48897DF8 		movq	%rdi, -8(%rbp)
 3831              	.LBB37:
  95:testI2C.cpp   **** 	Buffer i2cBuffer;
 3832              		.loc 3 95 0
 3833 000c 488D1500 		leaq	16+_ZTV21TestI2C_testWPRNoInit(%rip), %rdx
 3833      000000
 3834 0013 488B45F8 		movq	-8(%rbp), %rax
 3835 0017 488910   		movq	%rdx, (%rax)
 3836 001a 488B45F8 		movq	-8(%rbp), %rax
 3837 001e 4889C7   		movq	%rax, %rdi
 3838 0021 E8000000 		call	_ZN8UnitTest4TestD2Ev@PLT
 3838      00
 3839              	.LBE37:
 3840 0026 90       		nop
 3841 0027 C9       		leave
 3842              		.cfi_def_cfa 7, 8
 3843 0028 C3       		ret
 3844              		.cfi_endproc
 3845              	.LFE1204:
 3847              		.weak	_ZN21TestI2C_testWPRNoInitD1Ev
 3848              		.set	_ZN21TestI2C_testWPRNoInitD1Ev,_ZN21TestI2C_testWPRNoInitD2Ev
 3849              		.section	.text._ZN21TestI2C_testWPRNoInitD0Ev,"axG",@progbits,_ZN21TestI2C_testWPRNoInitD5Ev,comda
 3850              		.align 2
 3851              		.weak	_ZN21TestI2C_testWPRNoInitD0Ev
 3853              	_ZN21TestI2C_testWPRNoInitD0Ev:
 3854              	.LFB1206:
  95:testI2C.cpp   **** 	Buffer i2cBuffer;
 3855              		.loc 3 95 0
 3856              		.cfi_startproc
 3857              		.cfi_personality 0x9b,DW.ref.__gxx_personality_v0
 3858              		.cfi_lsda 0x1b,.LLSDA1206
 3859 0000 55       		pushq	%rbp
 3860              		.cfi_def_cfa_offset 16
 3861              		.cfi_offset 6, -16
 3862 0001 4889E5   		movq	%rsp, %rbp
 3863              		.cfi_def_cfa_register 6
 3864 0004 53       		pushq	%rbx
 3865 0005 4883EC18 		subq	$24, %rsp
 3866              		.cfi_offset 3, -24
 3867 0009 48897DE8 		movq	%rdi, -24(%rbp)
  95:testI2C.cpp   **** 	Buffer i2cBuffer;
 3868              		.loc 3 95 0
 3869 000d 488B45E8 		movq	-24(%rbp), %rax
 3870 0011 4889C7   		movq	%rax, %rdi
 3871              	.LEHB150:
 3872 0014 E8000000 		call	_ZN21TestI2C_testWPRNoInitD1Ev
 3872      00
 3873              	.LEHE150:
  95:testI2C.cpp   **** 	Buffer i2cBuffer;
 3874              		.loc 3 95 0 is_stmt 0 discriminator 2
 3875 0019 488B45E8 		movq	-24(%rbp), %rax
 3876 001d 4889C7   		movq	%rax, %rdi
 3877 0020 E8000000 		call	_ZdlPv@PLT
 3877      00
 3878 0025 EB1A     		jmp	.L229
 3879              	.L228:
 3880 0027 4889C3   		movq	%rax, %rbx
  95:testI2C.cpp   **** 	Buffer i2cBuffer;
 3881              		.loc 3 95 0
 3882 002a 488B45E8 		movq	-24(%rbp), %rax
 3883 002e 4889C7   		movq	%rax, %rdi
 3884 0031 E8000000 		call	_ZdlPv@PLT
 3884      00
 3885 0036 4889D8   		movq	%rbx, %rax
 3886 0039 4889C7   		movq	%rax, %rdi
 3887              	.LEHB151:
 3888 003c E8000000 		call	_Unwind_Resume@PLT
 3888      00
 3889              	.LEHE151:
 3890              	.L229:
 3891 0041 4883C418 		addq	$24, %rsp
 3892 0045 5B       		popq	%rbx
 3893 0046 5D       		popq	%rbp
 3894              		.cfi_def_cfa 7, 8
 3895 0047 C3       		ret
 3896              		.cfi_endproc
 3897              	.LFE1206:
 3898              		.section	.gcc_except_table
 3899              	.LLSDA1206:
 3900 0367 FF       		.byte	0xff
 3901 0368 FF       		.byte	0xff
 3902 0369 01       		.byte	0x1
 3903 036a 08       		.uleb128 .LLSDACSE1206-.LLSDACSB1206
 3904              	.LLSDACSB1206:
 3905 036b 14       		.uleb128 .LEHB150-.LFB1206
 3906 036c 05       		.uleb128 .LEHE150-.LEHB150
 3907 036d 27       		.uleb128 .L228-.LFB1206
 3908 036e 00       		.uleb128 0
 3909 036f 3C       		.uleb128 .LEHB151-.LFB1206
 3910 0370 05       		.uleb128 .LEHE151-.LEHB151
 3911 0371 00       		.uleb128 0
 3912 0372 00       		.uleb128 0
 3913              	.LLSDACSE1206:
 3914              		.section	.text._ZN21TestI2C_testWPRNoInitD0Ev,"axG",@progbits,_ZN21TestI2C_testWPRNoInitD5Ev,comda
 3916              		.weak	_ZTV21TestI2C_testRoundTrip
 3917              		.section	.data.rel.ro.local._ZTV21TestI2C_testRoundTrip,"awG",@progbits,_ZTV21TestI2C_testRoundTri
 3918              		.align 8
 3921              	_ZTV21TestI2C_testRoundTrip:
 3922 0000 00000000 		.quad	0
 3922      00000000 
 3923 0008 00000000 		.quad	_ZTI21TestI2C_testRoundTrip
 3923      00000000 
 3924 0010 00000000 		.quad	_ZN21TestI2C_testRoundTripD1Ev
 3924      00000000 
 3925 0018 00000000 		.quad	_ZN21TestI2C_testRoundTripD0Ev
 3925      00000000 
 3926 0020 00000000 		.quad	_ZNK21TestI2C_testRoundTrip7RunImplEv
 3926      00000000 
 3927              		.section	.text._ZN21TestI2C_testRoundTripD2Ev,"axG",@progbits,_ZN21TestI2C_testRoundTripD5Ev,comda
 3928              		.align 2
 3929              		.weak	_ZN21TestI2C_testRoundTripD2Ev
 3931              	_ZN21TestI2C_testRoundTripD2Ev:
 3932              	.LFB1208:
  47:testI2C.cpp   **** 	uint32 i, j;
 3933              		.loc 3 47 0 is_stmt 1
 3934              		.cfi_startproc
 3935 0000 55       		pushq	%rbp
 3936              		.cfi_def_cfa_offset 16
 3937              		.cfi_offset 6, -16
 3938 0001 4889E5   		movq	%rsp, %rbp
 3939              		.cfi_def_cfa_register 6
 3940 0004 4883EC10 		subq	$16, %rsp
 3941 0008 48897DF8 		movq	%rdi, -8(%rbp)
 3942              	.LBB38:
  47:testI2C.cpp   **** 	uint32 i, j;
 3943              		.loc 3 47 0
 3944 000c 488D1500 		leaq	16+_ZTV21TestI2C_testRoundTrip(%rip), %rdx
 3944      000000
 3945 0013 488B45F8 		movq	-8(%rbp), %rax
 3946 0017 488910   		movq	%rdx, (%rax)
 3947 001a 488B45F8 		movq	-8(%rbp), %rax
 3948 001e 4889C7   		movq	%rax, %rdi
 3949 0021 E8000000 		call	_ZN8UnitTest4TestD2Ev@PLT
 3949      00
 3950              	.LBE38:
 3951 0026 90       		nop
 3952 0027 C9       		leave
 3953              		.cfi_def_cfa 7, 8
 3954 0028 C3       		ret
 3955              		.cfi_endproc
 3956              	.LFE1208:
 3958              		.weak	_ZN21TestI2C_testRoundTripD1Ev
 3959              		.set	_ZN21TestI2C_testRoundTripD1Ev,_ZN21TestI2C_testRoundTripD2Ev
 3960              		.section	.text._ZN21TestI2C_testRoundTripD0Ev,"axG",@progbits,_ZN21TestI2C_testRoundTripD5Ev,comda
 3961              		.align 2
 3962              		.weak	_ZN21TestI2C_testRoundTripD0Ev
 3964              	_ZN21TestI2C_testRoundTripD0Ev:
 3965              	.LFB1210:
  47:testI2C.cpp   **** 	uint32 i, j;
 3966              		.loc 3 47 0
 3967              		.cfi_startproc
 3968              		.cfi_personality 0x9b,DW.ref.__gxx_personality_v0
 3969              		.cfi_lsda 0x1b,.LLSDA1210
 3970 0000 55       		pushq	%rbp
 3971              		.cfi_def_cfa_offset 16
 3972              		.cfi_offset 6, -16
 3973 0001 4889E5   		movq	%rsp, %rbp
 3974              		.cfi_def_cfa_register 6
 3975 0004 53       		pushq	%rbx
 3976 0005 4883EC18 		subq	$24, %rsp
 3977              		.cfi_offset 3, -24
 3978 0009 48897DE8 		movq	%rdi, -24(%rbp)
  47:testI2C.cpp   **** 	uint32 i, j;
 3979              		.loc 3 47 0
 3980 000d 488B45E8 		movq	-24(%rbp), %rax
 3981 0011 4889C7   		movq	%rax, %rdi
 3982              	.LEHB152:
 3983 0014 E8000000 		call	_ZN21TestI2C_testRoundTripD1Ev
 3983      00
 3984              	.LEHE152:
  47:testI2C.cpp   **** 	uint32 i, j;
 3985              		.loc 3 47 0 is_stmt 0 discriminator 2
 3986 0019 488B45E8 		movq	-24(%rbp), %rax
 3987 001d 4889C7   		movq	%rax, %rdi
 3988 0020 E8000000 		call	_ZdlPv@PLT
 3988      00
 3989 0025 EB1A     		jmp	.L234
 3990              	.L233:
 3991 0027 4889C3   		movq	%rax, %rbx
  47:testI2C.cpp   **** 	uint32 i, j;
 3992              		.loc 3 47 0
 3993 002a 488B45E8 		movq	-24(%rbp), %rax
 3994 002e 4889C7   		movq	%rax, %rdi
 3995 0031 E8000000 		call	_ZdlPv@PLT
 3995      00
 3996 0036 4889D8   		movq	%rbx, %rax
 3997 0039 4889C7   		movq	%rax, %rdi
 3998              	.LEHB153:
 3999 003c E8000000 		call	_Unwind_Resume@PLT
 3999      00
 4000              	.LEHE153:
 4001              	.L234:
 4002 0041 4883C418 		addq	$24, %rsp
 4003 0045 5B       		popq	%rbx
 4004 0046 5D       		popq	%rbp
 4005              		.cfi_def_cfa 7, 8
 4006 0047 C3       		ret
 4007              		.cfi_endproc
 4008              	.LFE1210:
 4009              		.section	.gcc_except_table
 4010              	.LLSDA1210:
 4011 0373 FF       		.byte	0xff
 4012 0374 FF       		.byte	0xff
 4013 0375 01       		.byte	0x1
 4014 0376 08       		.uleb128 .LLSDACSE1210-.LLSDACSB1210
 4015              	.LLSDACSB1210:
 4016 0377 14       		.uleb128 .LEHB152-.LFB1210
 4017 0378 05       		.uleb128 .LEHE152-.LEHB152
 4018 0379 27       		.uleb128 .L233-.LFB1210
 4019 037a 00       		.uleb128 0
 4020 037b 3C       		.uleb128 .LEHB153-.LFB1210
 4021 037c 05       		.uleb128 .LEHE153-.LEHB153
 4022 037d 00       		.uleb128 0
 4023 037e 00       		.uleb128 0
 4024              	.LLSDACSE1210:
 4025              		.section	.text._ZN21TestI2C_testRoundTripD0Ev,"axG",@progbits,_ZN21TestI2C_testRoundTripD5Ev,comda
 4027              		.weak	_ZTV22TestI2C_testInitialise
 4028              		.section	.data.rel.ro.local._ZTV22TestI2C_testInitialise,"awG",@progbits,_ZTV22TestI2C_testInitial
 4029              		.align 8
 4032              	_ZTV22TestI2C_testInitialise:
 4033 0000 00000000 		.quad	0
 4033      00000000 
 4034 0008 00000000 		.quad	_ZTI22TestI2C_testInitialise
 4034      00000000 
 4035 0010 00000000 		.quad	_ZN22TestI2C_testInitialiseD1Ev
 4035      00000000 
 4036 0018 00000000 		.quad	_ZN22TestI2C_testInitialiseD0Ev
 4036      00000000 
 4037 0020 00000000 		.quad	_ZNK22TestI2C_testInitialise7RunImplEv
 4037      00000000 
 4038              		.section	.text._ZN22TestI2C_testInitialiseD2Ev,"axG",@progbits,_ZN22TestI2C_testInitialiseD5Ev,com
 4039              		.align 2
 4040              		.weak	_ZN22TestI2C_testInitialiseD2Ev
 4042              	_ZN22TestI2C_testInitialiseD2Ev:
 4043              	.LFB1212:
  31:testI2C.cpp   **** 	Buffer i2cBuffer;
 4044              		.loc 3 31 0 is_stmt 1
 4045              		.cfi_startproc
 4046 0000 55       		pushq	%rbp
 4047              		.cfi_def_cfa_offset 16
 4048              		.cfi_offset 6, -16
 4049 0001 4889E5   		movq	%rsp, %rbp
 4050              		.cfi_def_cfa_register 6
 4051 0004 4883EC10 		subq	$16, %rsp
 4052 0008 48897DF8 		movq	%rdi, -8(%rbp)
 4053              	.LBB39:
  31:testI2C.cpp   **** 	Buffer i2cBuffer;
 4054              		.loc 3 31 0
 4055 000c 488D1500 		leaq	16+_ZTV22TestI2C_testInitialise(%rip), %rdx
 4055      000000
 4056 0013 488B45F8 		movq	-8(%rbp), %rax
 4057 0017 488910   		movq	%rdx, (%rax)
 4058 001a 488B45F8 		movq	-8(%rbp), %rax
 4059 001e 4889C7   		movq	%rax, %rdi
 4060 0021 E8000000 		call	_ZN8UnitTest4TestD2Ev@PLT
 4060      00
 4061              	.LBE39:
 4062 0026 90       		nop
 4063 0027 C9       		leave
 4064              		.cfi_def_cfa 7, 8
 4065 0028 C3       		ret
 4066              		.cfi_endproc
 4067              	.LFE1212:
 4069              		.weak	_ZN22TestI2C_testInitialiseD1Ev
 4070              		.set	_ZN22TestI2C_testInitialiseD1Ev,_ZN22TestI2C_testInitialiseD2Ev
 4071              		.section	.text._ZN22TestI2C_testInitialiseD0Ev,"axG",@progbits,_ZN22TestI2C_testInitialiseD5Ev,com
 4072              		.align 2
 4073              		.weak	_ZN22TestI2C_testInitialiseD0Ev
 4075              	_ZN22TestI2C_testInitialiseD0Ev:
 4076              	.LFB1214:
  31:testI2C.cpp   **** 	Buffer i2cBuffer;
 4077              		.loc 3 31 0
 4078              		.cfi_startproc
 4079              		.cfi_personality 0x9b,DW.ref.__gxx_personality_v0
 4080              		.cfi_lsda 0x1b,.LLSDA1214
 4081 0000 55       		pushq	%rbp
 4082              		.cfi_def_cfa_offset 16
 4083              		.cfi_offset 6, -16
 4084 0001 4889E5   		movq	%rsp, %rbp
 4085              		.cfi_def_cfa_register 6
 4086 0004 53       		pushq	%rbx
 4087 0005 4883EC18 		subq	$24, %rsp
 4088              		.cfi_offset 3, -24
 4089 0009 48897DE8 		movq	%rdi, -24(%rbp)
  31:testI2C.cpp   **** 	Buffer i2cBuffer;
 4090              		.loc 3 31 0
 4091 000d 488B45E8 		movq	-24(%rbp), %rax
 4092 0011 4889C7   		movq	%rax, %rdi
 4093              	.LEHB154:
 4094 0014 E8000000 		call	_ZN22TestI2C_testInitialiseD1Ev
 4094      00
 4095              	.LEHE154:
  31:testI2C.cpp   **** 	Buffer i2cBuffer;
 4096              		.loc 3 31 0 is_stmt 0 discriminator 2
 4097 0019 488B45E8 		movq	-24(%rbp), %rax
 4098 001d 4889C7   		movq	%rax, %rdi
 4099 0020 E8000000 		call	_ZdlPv@PLT
 4099      00
 4100 0025 EB1A     		jmp	.L239
 4101              	.L238:
 4102 0027 4889C3   		movq	%rax, %rbx
  31:testI2C.cpp   **** 	Buffer i2cBuffer;
 4103              		.loc 3 31 0
 4104 002a 488B45E8 		movq	-24(%rbp), %rax
 4105 002e 4889C7   		movq	%rax, %rdi
 4106 0031 E8000000 		call	_ZdlPv@PLT
 4106      00
 4107 0036 4889D8   		movq	%rbx, %rax
 4108 0039 4889C7   		movq	%rax, %rdi
 4109              	.LEHB155:
 4110 003c E8000000 		call	_Unwind_Resume@PLT
 4110      00
 4111              	.LEHE155:
 4112              	.L239:
 4113 0041 4883C418 		addq	$24, %rsp
 4114 0045 5B       		popq	%rbx
 4115 0046 5D       		popq	%rbp
 4116              		.cfi_def_cfa 7, 8
 4117 0047 C3       		ret
 4118              		.cfi_endproc
 4119              	.LFE1214:
 4120              		.section	.gcc_except_table
 4121              	.LLSDA1214:
 4122 037f FF       		.byte	0xff
 4123 0380 FF       		.byte	0xff
 4124 0381 01       		.byte	0x1
 4125 0382 08       		.uleb128 .LLSDACSE1214-.LLSDACSB1214
 4126              	.LLSDACSB1214:
 4127 0383 14       		.uleb128 .LEHB154-.LFB1214
 4128 0384 05       		.uleb128 .LEHE154-.LEHB154
 4129 0385 27       		.uleb128 .L238-.LFB1214
 4130 0386 00       		.uleb128 0
 4131 0387 3C       		.uleb128 .LEHB155-.LFB1214
 4132 0388 05       		.uleb128 .LEHE155-.LEHB155
 4133 0389 00       		.uleb128 0
 4134 038a 00       		.uleb128 0
 4135              	.LLSDACSE1214:
 4136              		.section	.text._ZN22TestI2C_testInitialiseD0Ev,"axG",@progbits,_ZN22TestI2C_testInitialiseD5Ev,com
 4138              		.weak	_ZTVN8UnitTest15MemoryOutStreamE
 4139              		.section	.data.rel.ro.local._ZTVN8UnitTest15MemoryOutStreamE,"awG",@progbits,_ZTVN8UnitTest15Memor
 4140              		.align 8
 4143              	_ZTVN8UnitTest15MemoryOutStreamE:
 4144 0000 90000000 		.quad	144
 4144      00000000 
 4145 0008 00000000 		.quad	0
 4145      00000000 
 4146 0010 00000000 		.quad	_ZTIN8UnitTest15MemoryOutStreamE
 4146      00000000 
 4147 0018 00000000 		.quad	_ZN8UnitTest15MemoryOutStreamD1Ev
 4147      00000000 
 4148 0020 00000000 		.quad	_ZN8UnitTest15MemoryOutStreamD0Ev
 4148      00000000 
 4149 0028 70FFFFFF 		.quad	-144
 4149      FFFFFFFF 
 4150 0030 70FFFFFF 		.quad	-144
 4150      FFFFFFFF 
 4151 0038 00000000 		.quad	_ZTIN8UnitTest15MemoryOutStreamE
 4151      00000000 
 4152 0040 00000000 		.quad	_ZTv0_n24_N8UnitTest15MemoryOutStreamD1Ev
 4152      00000000 
 4153 0048 00000000 		.quad	_ZTv0_n24_N8UnitTest15MemoryOutStreamD0Ev
 4153      00000000 
 4154              		.weak	_ZTTN8UnitTest15MemoryOutStreamE
 4155              		.section	.data.rel.ro.local._ZTTN8UnitTest15MemoryOutStreamE,"awG",@progbits,_ZTVN8UnitTest15Memor
 4156              		.align 8
 4159              	_ZTTN8UnitTest15MemoryOutStreamE:
 4160 0000 00000000 		.quad	_ZTVN8UnitTest15MemoryOutStreamE+24
 4160      00000000 
 4161 0008 00000000 		.quad	_ZTCN8UnitTest15MemoryOutStreamE0_NSt7__cxx1119basic_ostringstreamIcSt11char_traitsIcESaIcEE
 4161      00000000 
 4162 0010 00000000 		.quad	_ZTCN8UnitTest15MemoryOutStreamE0_So+24
 4162      00000000 
 4163 0018 00000000 		.quad	_ZTCN8UnitTest15MemoryOutStreamE0_So+64
 4163      00000000 
 4164 0020 00000000 		.quad	_ZTCN8UnitTest15MemoryOutStreamE0_NSt7__cxx1119basic_ostringstreamIcSt11char_traitsIcESaIcEE
 4164      00000000 
 4165 0028 00000000 		.quad	_ZTVN8UnitTest15MemoryOutStreamE+64
 4165      00000000 
 4166              		.hidden	_ZTCN8UnitTest15MemoryOutStreamE0_NSt7__cxx1119basic_ostringstreamIcSt11char_traitsIcESaIc
 4167              		.weak	_ZTCN8UnitTest15MemoryOutStreamE0_NSt7__cxx1119basic_ostringstreamIcSt11char_traitsIcESaIcEE
 4168              		.section	.data.rel.ro._ZTCN8UnitTest15MemoryOutStreamE0_NSt7__cxx1119basic_ostringstreamIcSt11char
 4169              		.align 8
 4172              	_ZTCN8UnitTest15MemoryOutStreamE0_NSt7__cxx1119basic_ostringstreamIcSt11char_traitsIcESaIcEEE:
 4173 0000 90000000 		.quad	144
 4173      00000000 
 4174 0008 00000000 		.quad	0
 4174      00000000 
 4175 0010 00000000 		.quad	_ZTINSt7__cxx1119basic_ostringstreamIcSt11char_traitsIcESaIcEEE
 4175      00000000 
 4176 0018 00000000 		.quad	0
 4176      00000000 
 4177 0020 00000000 		.quad	0
 4177      00000000 
 4178 0028 70FFFFFF 		.quad	-144
 4178      FFFFFFFF 
 4179 0030 70FFFFFF 		.quad	-144
 4179      FFFFFFFF 
 4180 0038 00000000 		.quad	_ZTINSt7__cxx1119basic_ostringstreamIcSt11char_traitsIcESaIcEEE
 4180      00000000 
 4181 0040 00000000 		.quad	0
 4181      00000000 
 4182 0048 00000000 		.quad	0
 4182      00000000 
 4183              		.hidden	_ZTCN8UnitTest15MemoryOutStreamE0_So
 4184              		.weak	_ZTCN8UnitTest15MemoryOutStreamE0_So
 4185              		.section	.data.rel.ro._ZTCN8UnitTest15MemoryOutStreamE0_So,"awG",@progbits,_ZTVN8UnitTest15MemoryO
 4186              		.align 8
 4189              	_ZTCN8UnitTest15MemoryOutStreamE0_So:
 4190 0000 90000000 		.quad	144
 4190      00000000 
 4191 0008 00000000 		.quad	0
 4191      00000000 
 4192 0010 00000000 		.quad	_ZTISo
 4192      00000000 
 4193 0018 00000000 		.quad	0
 4193      00000000 
 4194 0020 00000000 		.quad	0
 4194      00000000 
 4195 0028 70FFFFFF 		.quad	-144
 4195      FFFFFFFF 
 4196 0030 70FFFFFF 		.quad	-144
 4196      FFFFFFFF 
 4197 0038 00000000 		.quad	_ZTISo
 4197      00000000 
 4198 0040 00000000 		.quad	0
 4198      00000000 
 4199 0048 00000000 		.quad	0
 4199      00000000 
 4200              		.weak	_ZTI26TestI2C_testFinaliseNoInit
 4201              		.section	.data.rel.ro._ZTI26TestI2C_testFinaliseNoInit,"awG",@progbits,_ZTI26TestI2C_testFinaliseN
 4202              		.align 8
 4205              	_ZTI26TestI2C_testFinaliseNoInit:
 4206 0000 00000000 		.quad	_ZTVN10__cxxabiv120__si_class_type_infoE+16
 4206      00000000 
 4207 0008 00000000 		.quad	_ZTS26TestI2C_testFinaliseNoInit
 4207      00000000 
 4208 0010 00000000 		.quad	_ZTIN8UnitTest4TestE
 4208      00000000 
 4209              		.weak	_ZTS26TestI2C_testFinaliseNoInit
 4210              		.section	.rodata._ZTS26TestI2C_testFinaliseNoInit,"aG",@progbits,_ZTS26TestI2C_testFinaliseNoInit,
 4211              		.align 16
 4214              	_ZTS26TestI2C_testFinaliseNoInit:
 4215 0000 32365465 		.string	"26TestI2C_testFinaliseNoInit"
 4215      73744932 
 4215      435F7465 
 4215      73744669 
 4215      6E616C69 
 4216              		.weak	_ZTI21TestI2C_testWPRNoInit
 4217              		.section	.data.rel.ro._ZTI21TestI2C_testWPRNoInit,"awG",@progbits,_ZTI21TestI2C_testWPRNoInit,comd
 4218              		.align 8
 4221              	_ZTI21TestI2C_testWPRNoInit:
 4222 0000 00000000 		.quad	_ZTVN10__cxxabiv120__si_class_type_infoE+16
 4222      00000000 
 4223 0008 00000000 		.quad	_ZTS21TestI2C_testWPRNoInit
 4223      00000000 
 4224 0010 00000000 		.quad	_ZTIN8UnitTest4TestE
 4224      00000000 
 4225              		.weak	_ZTS21TestI2C_testWPRNoInit
 4226              		.section	.rodata._ZTS21TestI2C_testWPRNoInit,"aG",@progbits,_ZTS21TestI2C_testWPRNoInit,comdat
 4227              		.align 16
 4230              	_ZTS21TestI2C_testWPRNoInit:
 4231 0000 32315465 		.string	"21TestI2C_testWPRNoInit"
 4231      73744932 
 4231      435F7465 
 4231      73745750 
 4231      524E6F49 
 4232              		.weak	_ZTI21TestI2C_testRoundTrip
 4233              		.section	.data.rel.ro._ZTI21TestI2C_testRoundTrip,"awG",@progbits,_ZTI21TestI2C_testRoundTrip,comd
 4234              		.align 8
 4237              	_ZTI21TestI2C_testRoundTrip:
 4238 0000 00000000 		.quad	_ZTVN10__cxxabiv120__si_class_type_infoE+16
 4238      00000000 
 4239 0008 00000000 		.quad	_ZTS21TestI2C_testRoundTrip
 4239      00000000 
 4240 0010 00000000 		.quad	_ZTIN8UnitTest4TestE
 4240      00000000 
 4241              		.weak	_ZTS21TestI2C_testRoundTrip
 4242              		.section	.rodata._ZTS21TestI2C_testRoundTrip,"aG",@progbits,_ZTS21TestI2C_testRoundTrip,comdat
 4243              		.align 16
 4246              	_ZTS21TestI2C_testRoundTrip:
 4247 0000 32315465 		.string	"21TestI2C_testRoundTrip"
 4247      73744932 
 4247      435F7465 
 4247      7374526F 
 4247      756E6454 
 4248              		.weak	_ZTI22TestI2C_testInitialise
 4249              		.section	.data.rel.ro._ZTI22TestI2C_testInitialise,"awG",@progbits,_ZTI22TestI2C_testInitialise,co
 4250              		.align 8
 4253              	_ZTI22TestI2C_testInitialise:
 4254 0000 00000000 		.quad	_ZTVN10__cxxabiv120__si_class_type_infoE+16
 4254      00000000 
 4255 0008 00000000 		.quad	_ZTS22TestI2C_testInitialise
 4255      00000000 
 4256 0010 00000000 		.quad	_ZTIN8UnitTest4TestE
 4256      00000000 
 4257              		.weak	_ZTS22TestI2C_testInitialise
 4258              		.section	.rodata._ZTS22TestI2C_testInitialise,"aG",@progbits,_ZTS22TestI2C_testInitialise,comdat
 4259              		.align 16
 4262              	_ZTS22TestI2C_testInitialise:
 4263 0000 32325465 		.string	"22TestI2C_testInitialise"
 4263      73744932 
 4263      435F7465 
 4263      7374496E 
 4263      69746961 
 4264              		.weak	_ZTIN8UnitTest15MemoryOutStreamE
 4265              		.section	.data.rel.ro._ZTIN8UnitTest15MemoryOutStreamE,"awG",@progbits,_ZTIN8UnitTest15MemoryOutSt
 4266              		.align 8
 4269              	_ZTIN8UnitTest15MemoryOutStreamE:
 4270 0000 00000000 		.quad	_ZTVN10__cxxabiv120__si_class_type_infoE+16
 4270      00000000 
 4271 0008 00000000 		.quad	_ZTSN8UnitTest15MemoryOutStreamE
 4271      00000000 
 4272 0010 00000000 		.quad	_ZTINSt7__cxx1119basic_ostringstreamIcSt11char_traitsIcESaIcEEE
 4272      00000000 
 4273              		.weak	_ZTSN8UnitTest15MemoryOutStreamE
 4274              		.section	.rodata._ZTSN8UnitTest15MemoryOutStreamE,"aG",@progbits,_ZTSN8UnitTest15MemoryOutStreamE,
 4275              		.align 16
 4278              	_ZTSN8UnitTest15MemoryOutStreamE:
 4279 0000 4E38556E 		.string	"N8UnitTest15MemoryOutStreamE"
 4279      69745465 
 4279      73743135 
 4279      4D656D6F 
 4279      72794F75 
 4280              		.text
 4282              	_Z41__static_initialization_and_destruction_0ii:
 4283              	.LFB1215:
 4284              		.loc 3 115 0 is_stmt 1
 4285              		.cfi_startproc
 4286 11cd 55       		pushq	%rbp
 4287              		.cfi_def_cfa_offset 16
 4288              		.cfi_offset 6, -16
 4289 11ce 4889E5   		movq	%rsp, %rbp
 4290              		.cfi_def_cfa_register 6
 4291 11d1 4883EC10 		subq	$16, %rsp
 4292 11d5 897DFC   		movl	%edi, -4(%rbp)
 4293 11d8 8975F8   		movl	%esi, -8(%rbp)
 4294              		.loc 3 115 0
 4295 11db 837DFC01 		cmpl	$1, -4(%rbp)
 4296 11df 0F851101 		jne	.L242
 4296      0000
 4297              		.loc 3 115 0 is_stmt 0 discriminator 1
 4298 11e5 817DF8FF 		cmpl	$65535, -8(%rbp)
 4298      FF0000
 4299 11ec 0F850401 		jne	.L242
 4299      0000
  31:testI2C.cpp   **** 	Buffer i2cBuffer;
 4300              		.loc 3 31 0 is_stmt 1
 4301 11f2 488D3D00 		leaq	testI2C_testInitialiseInstance(%rip), %rdi
 4301      000000
 4302 11f9 E8000000 		call	_ZN22TestI2C_testInitialiseC1Ev
 4302      00
 4303 11fe 488D1500 		leaq	__dso_handle(%rip), %rdx
 4303      000000
 4304 1205 488D3500 		leaq	testI2C_testInitialiseInstance(%rip), %rsi
 4304      000000
 4305 120c 488D3D00 		leaq	_ZN22TestI2C_testInitialiseD1Ev(%rip), %rdi
 4305      000000
 4306 1213 E8000000 		call	__cxa_atexit@PLT
 4306      00
 4307 1218 E8000000 		call	_ZN8UnitTest4Test11GetTestListEv@PLT
 4307      00
 4308 121d 488D1500 		leaq	testI2C_testInitialiseInstance(%rip), %rdx
 4308      000000
 4309 1224 4889C6   		movq	%rax, %rsi
 4310 1227 488D3D00 		leaq	adderI2C_testInitialise(%rip), %rdi
 4310      000000
 4311 122e E8000000 		call	_ZN8UnitTest9ListAdderC1ERNS_8TestListEPNS_4TestE@PLT
 4311      00
  47:testI2C.cpp   **** 	uint32 i, j;
 4312              		.loc 3 47 0
 4313 1233 488D3D00 		leaq	testI2C_testRoundTripInstance(%rip), %rdi
 4313      000000
 4314 123a E8000000 		call	_ZN21TestI2C_testRoundTripC1Ev
 4314      00
 4315 123f 488D1500 		leaq	__dso_handle(%rip), %rdx
 4315      000000
 4316 1246 488D3500 		leaq	testI2C_testRoundTripInstance(%rip), %rsi
 4316      000000
 4317 124d 488D3D00 		leaq	_ZN21TestI2C_testRoundTripD1Ev(%rip), %rdi
 4317      000000
 4318 1254 E8000000 		call	__cxa_atexit@PLT
 4318      00
 4319 1259 E8000000 		call	_ZN8UnitTest4Test11GetTestListEv@PLT
 4319      00
 4320 125e 488D1500 		leaq	testI2C_testRoundTripInstance(%rip), %rdx
 4320      000000
 4321 1265 4889C6   		movq	%rax, %rsi
 4322 1268 488D3D00 		leaq	adderI2C_testRoundTrip(%rip), %rdi
 4322      000000
 4323 126f E8000000 		call	_ZN8UnitTest9ListAdderC1ERNS_8TestListEPNS_4TestE@PLT
 4323      00
  95:testI2C.cpp   **** 	Buffer i2cBuffer;
 4324              		.loc 3 95 0
 4325 1274 488D3D00 		leaq	testI2C_testWPRNoInitInstance(%rip), %rdi
 4325      000000
 4326 127b E8000000 		call	_ZN21TestI2C_testWPRNoInitC1Ev
 4326      00
 4327 1280 488D1500 		leaq	__dso_handle(%rip), %rdx
 4327      000000
 4328 1287 488D3500 		leaq	testI2C_testWPRNoInitInstance(%rip), %rsi
 4328      000000
 4329 128e 488D3D00 		leaq	_ZN21TestI2C_testWPRNoInitD1Ev(%rip), %rdi
 4329      000000
 4330 1295 E8000000 		call	__cxa_atexit@PLT
 4330      00
 4331 129a E8000000 		call	_ZN8UnitTest4Test11GetTestListEv@PLT
 4331      00
 4332 129f 488D1500 		leaq	testI2C_testWPRNoInitInstance(%rip), %rdx
 4332      000000
 4333 12a6 4889C6   		movq	%rax, %rsi
 4334 12a9 488D3D00 		leaq	adderI2C_testWPRNoInit(%rip), %rdi
 4334      000000
 4335 12b0 E8000000 		call	_ZN8UnitTest9ListAdderC1ERNS_8TestListEPNS_4TestE@PLT
 4335      00
 106:testI2C.cpp   **** 	Buffer buf;
 4336              		.loc 3 106 0
 4337 12b5 488D3D00 		leaq	testI2C_testFinaliseNoInitInstance(%rip), %rdi
 4337      000000
 4338 12bc E8000000 		call	_ZN26TestI2C_testFinaliseNoInitC1Ev
 4338      00
 4339 12c1 488D1500 		leaq	__dso_handle(%rip), %rdx
 4339      000000
 4340 12c8 488D3500 		leaq	testI2C_testFinaliseNoInitInstance(%rip), %rsi
 4340      000000
 4341 12cf 488D3D00 		leaq	_ZN26TestI2C_testFinaliseNoInitD1Ev(%rip), %rdi
 4341      000000
 4342 12d6 E8000000 		call	__cxa_atexit@PLT
 4342      00
 4343 12db E8000000 		call	_ZN8UnitTest4Test11GetTestListEv@PLT
 4343      00
 4344 12e0 488D1500 		leaq	testI2C_testFinaliseNoInitInstance(%rip), %rdx
 4344      000000
 4345 12e7 4889C6   		movq	%rax, %rsi
 4346 12ea 488D3D00 		leaq	adderI2C_testFinaliseNoInit(%rip), %rdi
 4346      000000
 4347 12f1 E8000000 		call	_ZN8UnitTest9ListAdderC1ERNS_8TestListEPNS_4TestE@PLT
 4347      00
 4348              	.L242:
 4349              		.loc 3 115 0
 4350 12f6 90       		nop
 4351 12f7 C9       		leave
 4352              		.cfi_def_cfa 7, 8
 4353 12f8 C3       		ret
 4354              		.cfi_endproc
 4355              	.LFE1215:
 4358              	_GLOBAL__sub_I_testI2C_testInitialiseInstance:
 4359              	.LFB1216:
 4360              		.loc 3 115 0
 4361              		.cfi_startproc
 4362 12f9 55       		pushq	%rbp
 4363              		.cfi_def_cfa_offset 16
 4364              		.cfi_offset 6, -16
 4365 12fa 4889E5   		movq	%rsp, %rbp
 4366              		.cfi_def_cfa_register 6
 4367              		.loc 3 115 0
 4368 12fd BEFFFF00 		movl	$65535, %esi
 4368      00
 4369 1302 BF010000 		movl	$1, %edi
 4369      00
 4370 1307 E8C1FEFF 		call	_Z41__static_initialization_and_destruction_0ii
 4370      FF
 4371 130c 5D       		popq	%rbp
 4372              		.cfi_def_cfa 7, 8
 4373 130d C3       		ret
 4374              		.cfi_endproc
 4375              	.LFE1216:
 4377              		.section	.init_array,"aw"
 4378              		.align 8
 4379 0000 00000000 		.quad	_GLOBAL__sub_I_testI2C_testInitialiseInstance
 4379      00000000 
 4380              		.text
 4381              	.Letext0:
 4382              		.file 5 "/home/gani/eval/20140524/makestuff/libs/libutpp/TestDetails.h"
 4383              		.file 6 "/home/gani/eval/20140524/makestuff/libs/libutpp/TestList.h"
 4384              		.file 7 "/home/gani/eval/20140524/makestuff/libs/libutpp/TestResults.h"
 4385              		.file 8 "/usr/include/x86_64-linux-gnu/c++/7/bits/c++config.h"
 4386              		.file 9 "/usr/include/c++/7/bits/basic_string.h"
 4387              		.file 10 "/usr/lib/gcc/x86_64-linux-gnu/7/include/stddef.h"
 4388              		.file 11 "/usr/include/c++/7/bits/basic_string.tcc"
 4389              		.file 12 "/usr/include/c++/7/bits/stringfwd.h"
 4390              		.file 13 "/usr/include/c++/7/cwchar"
 4391              		.file 14 "/usr/include/c++/7/bits/char_traits.h"
 4392              		.file 15 "/usr/include/c++/7/clocale"
 4393              		.file 16 "/usr/include/c++/7/bits/allocator.h"
 4394              		.file 17 "/usr/include/c++/7/cwctype"
 4395              		.file 18 "/usr/include/c++/7/debug/debug.h"
 4396              		.file 19 "/usr/include/c++/7/bits/predefined_ops.h"
 4397              		.file 20 "/usr/include/c++/7/ext/new_allocator.h"
 4398              		.file 21 "/usr/include/c++/7/ext/numeric_traits.h"
 4399              		.file 22 "/usr/include/c++/7/ext/alloc_traits.h"
 4400              		.file 23 "<built-in>"
 4401              		.file 24 "/usr/include/x86_64-linux-gnu/bits/types/wint_t.h"
 4402              		.file 25 "/usr/include/x86_64-linux-gnu/bits/types/__mbstate_t.h"
 4403              		.file 26 "/usr/include/x86_64-linux-gnu/bits/types/mbstate_t.h"
 4404              		.file 27 "/usr/include/x86_64-linux-gnu/bits/types/__FILE.h"
 4405              		.file 28 "/usr/include/wchar.h"
 4406              		.file 29 "/usr/include/x86_64-linux-gnu/bits/types/struct_tm.h"
 4407              		.file 30 "/usr/include/locale.h"
 4408              		.file 31 "/usr/include/x86_64-linux-gnu/bits/types.h"
 4409              		.file 32 "/usr/include/time.h"
 4410              		.file 33 "/usr/include/x86_64-linux-gnu/bits/wctype-wchar.h"
 4411              		.file 34 "/usr/include/wctype.h"
 4412              		.file 35 "/usr/include/signal.h"
 4413              		.file 36 "/usr/include/x86_64-linux-gnu/sys/time.h"
 4414              		.file 37 "/home/gani/eval/20140524/makestuff/common/makestuff.h"
 4415              		.file 38 "/home/gani/eval/20140524/makestuff/libs/libbuffer/libbuffer.h"
 4416              		.file 39 "../libfx2loader.h"
 4417              		.file 40 "/usr/include/c++/7/new"
 15063              		.align 8
 15066              	DW.ref.__gxx_personality_v0:
 15067 0000 00000000 		.quad	__gxx_personality_v0
 15067      00000000 
 15068              		.hidden	__dso_handle
 15069              		.ident	"GCC: (Ubuntu 7.2.0-8ubuntu3.2) 7.2.0"
 15070              		.section	.note.GNU-stack,"",@progbits