   1              		.file	"testSvf2Csvf.cpp"
   2              		.text
   3              	.Ltext0:
   4              		.section	.rodata
   5              	.LC0:
   6 0000 44656661 		.string	"DefaultSuite"
   6      756C7453 
   6      75697465 
   6      00
   7              		.section	.text._ZN13UnitTestSuite12GetSuiteNameEv,"axG",@progbits,_ZN13UnitTestSuite12GetSuiteName
   8              		.weak	_ZN13UnitTestSuite12GetSuiteNameEv
  10              	_ZN13UnitTestSuite12GetSuiteNameEv:
  11              	.LFB0:
  12              		.file 1 "/home/gani/eval/20140524/makestuff/libs/libutpp/TestSuite.h"
   1:/home/gani/eval/20140524/makestuff/libs/libutpp/TestSuite.h **** #ifndef UNITTEST_TESTSUITE_H
   2:/home/gani/eval/20140524/makestuff/libs/libutpp/TestSuite.h **** #define UNITTEST_TESTSUITE_H
   3:/home/gani/eval/20140524/makestuff/libs/libutpp/TestSuite.h **** 
   4:/home/gani/eval/20140524/makestuff/libs/libutpp/TestSuite.h **** namespace UnitTestSuite {
   5:/home/gani/eval/20140524/makestuff/libs/libutpp/TestSuite.h **** 
   6:/home/gani/eval/20140524/makestuff/libs/libutpp/TestSuite.h ****     inline char const* GetSuiteName ()
   7:/home/gani/eval/20140524/makestuff/libs/libutpp/TestSuite.h ****     {
  13              		.loc 1 7 0
  14              		.cfi_startproc
  15 0000 55       		pushq	%rbp
  16              		.cfi_def_cfa_offset 16
  17              		.cfi_offset 6, -16
  18 0001 4889E5   		movq	%rsp, %rbp
  19              		.cfi_def_cfa_register 6
   8:/home/gani/eval/20140524/makestuff/libs/libutpp/TestSuite.h ****         return "DefaultSuite";
  20              		.loc 1 8 0
  21 0004 488D0500 		leaq	.LC0(%rip), %rax
  21      000000
   9:/home/gani/eval/20140524/makestuff/libs/libutpp/TestSuite.h ****     }
  22              		.loc 1 9 0
  23 000b 5D       		popq	%rbp
  24              		.cfi_def_cfa 7, 8
  25 000c C3       		ret
  26              		.cfi_endproc
  27              	.LFE0:
  29              		.section	.text._ZN8UnitTest15MemoryOutStreamC1Ev,"axG",@progbits,_ZN8UnitTest15MemoryOutStreamC1Ev
  30              		.align 2
  31              		.weak	_ZN8UnitTest15MemoryOutStreamC1Ev
  33              	_ZN8UnitTest15MemoryOutStreamC1Ev:
  34              	.LFB1076:
  35              		.file 2 "/home/gani/eval/20140524/makestuff/libs/libutpp/MemoryOutStream.h"
   1:/home/gani/eval/20140524/makestuff/libs/libutpp/MemoryOutStream.h **** #ifndef UNITTEST_MEMORYOUTSTREAM_H
   2:/home/gani/eval/20140524/makestuff/libs/libutpp/MemoryOutStream.h **** #define UNITTEST_MEMORYOUTSTREAM_H
   3:/home/gani/eval/20140524/makestuff/libs/libutpp/MemoryOutStream.h **** 
   4:/home/gani/eval/20140524/makestuff/libs/libutpp/MemoryOutStream.h **** #include "Config.h"
   5:/home/gani/eval/20140524/makestuff/libs/libutpp/MemoryOutStream.h **** 
   6:/home/gani/eval/20140524/makestuff/libs/libutpp/MemoryOutStream.h **** #ifndef UNITTEST_USE_CUSTOM_STREAMS
   7:/home/gani/eval/20140524/makestuff/libs/libutpp/MemoryOutStream.h **** 
   8:/home/gani/eval/20140524/makestuff/libs/libutpp/MemoryOutStream.h **** #include <sstream>
   9:/home/gani/eval/20140524/makestuff/libs/libutpp/MemoryOutStream.h **** 
  10:/home/gani/eval/20140524/makestuff/libs/libutpp/MemoryOutStream.h **** namespace UnitTest
  11:/home/gani/eval/20140524/makestuff/libs/libutpp/MemoryOutStream.h **** {
  12:/home/gani/eval/20140524/makestuff/libs/libutpp/MemoryOutStream.h **** 
  13:/home/gani/eval/20140524/makestuff/libs/libutpp/MemoryOutStream.h **** class MemoryOutStream : public std::ostringstream
  14:/home/gani/eval/20140524/makestuff/libs/libutpp/MemoryOutStream.h **** {
  15:/home/gani/eval/20140524/makestuff/libs/libutpp/MemoryOutStream.h **** public:
  16:/home/gani/eval/20140524/makestuff/libs/libutpp/MemoryOutStream.h ****     MemoryOutStream() {}
  36              		.loc 2 16 0
  37              		.cfi_startproc
  38              		.cfi_personality 0x9b,DW.ref.__gxx_personality_v0
  39              		.cfi_lsda 0x1b,.LLSDA1076
  40 0000 55       		pushq	%rbp
  41              		.cfi_def_cfa_offset 16
  42              		.cfi_offset 6, -16
  43 0001 4889E5   		movq	%rsp, %rbp
  44              		.cfi_def_cfa_register 6
  45 0004 53       		pushq	%rbx
  46 0005 4883EC18 		subq	$24, %rsp
  47              		.cfi_offset 3, -24
  48 0009 48897DE8 		movq	%rdi, -24(%rbp)
  49              	.LBB2:
  50              		.loc 2 16 0
  51 000d 488B45E8 		movq	-24(%rbp), %rax
  52 0011 48059000 		addq	$144, %rax
  52      0000
  53 0017 4889C7   		movq	%rax, %rdi
  54              	.LEHB0:
  55 001a E8000000 		call	_ZNSt9basic_iosIcSt11char_traitsIcEEC2Ev@PLT
  55      00
  56              	.LEHE0:
  57 001f 488B45E8 		movq	-24(%rbp), %rax
  58 0023 488D0D00 		leaq	8+_ZTTN8UnitTest15MemoryOutStreamE(%rip), %rcx
  58      000000
  59 002a BA100000 		movl	$16, %edx
  59      00
  60 002f 4889CE   		movq	%rcx, %rsi
  61 0032 4889C7   		movq	%rax, %rdi
  62              	.LEHB1:
  63 0035 E8000000 		call	_ZNSt7__cxx1119basic_ostringstreamIcSt11char_traitsIcESaIcEEC2ESt13_Ios_Openmode@PLT
  63      00
  64              	.LEHE1:
  65              		.loc 2 16 0 is_stmt 0 discriminator 8
  66 003a 488D1500 		leaq	24+_ZTVN8UnitTest15MemoryOutStreamE(%rip), %rdx
  66      000000
  67 0041 488B45E8 		movq	-24(%rbp), %rax
  68 0045 488910   		movq	%rdx, (%rax)
  69 0048 488B45E8 		movq	-24(%rbp), %rax
  70 004c 488D9090 		leaq	144(%rax), %rdx
  70      000000
  71 0053 488D0500 		leaq	64+_ZTVN8UnitTest15MemoryOutStreamE(%rip), %rax
  71      000000
  72 005a 488902   		movq	%rax, (%rdx)
  73 005d 488B45E8 		movq	-24(%rbp), %rax
  74 0061 4883C070 		addq	$112, %rax
  75 0065 4889C7   		movq	%rax, %rdi
  76              	.LEHB2:
  77 0068 E8000000 		call	_ZNSt7__cxx1112basic_stringIcSt11char_traitsIcESaIcEEC1Ev@PLT
  77      00
  78              	.LEHE2:
  79              	.LBE2:
  80              		.loc 2 16 0
  81 006d EB3B     		jmp	.L9
  82              	.L7:
  83 006f 4889C3   		movq	%rax, %rbx
  84              	.LBB3:
  85 0072 488B45E8 		movq	-24(%rbp), %rax
  86 0076 488D1500 		leaq	8+_ZTTN8UnitTest15MemoryOutStreamE(%rip), %rdx
  86      000000
  87 007d 4889D6   		movq	%rdx, %rsi
  88 0080 4889C7   		movq	%rax, %rdi
  89 0083 E8000000 		call	_ZNSt7__cxx1119basic_ostringstreamIcSt11char_traitsIcESaIcEED2Ev@PLT
  89      00
  90 0088 EB03     		jmp	.L8
  91              	.L6:
  92 008a 4889C3   		movq	%rax, %rbx
  93              	.L8:
  94              		.loc 2 16 0 discriminator 11
  95 008d 488B45E8 		movq	-24(%rbp), %rax
  96 0091 48059000 		addq	$144, %rax
  96      0000
  97 0097 4889C7   		movq	%rax, %rdi
  98 009a E8000000 		call	_ZNSt9basic_iosIcSt11char_traitsIcEED2Ev@PLT
  98      00
  99 009f 4889D8   		movq	%rbx, %rax
 100 00a2 4889C7   		movq	%rax, %rdi
 101              	.LEHB3:
 102 00a5 E8000000 		call	_Unwind_Resume@PLT
 102      00
 103              	.LEHE3:
 104              	.L9:
 105              	.LBE3:
 106              		.loc 2 16 0
 107 00aa 4883C418 		addq	$24, %rsp
 108 00ae 5B       		popq	%rbx
 109 00af 5D       		popq	%rbp
 110              		.cfi_def_cfa 7, 8
 111 00b0 C3       		ret
 112              		.cfi_endproc
 113              	.LFE1076:
 114              		.globl	__gxx_personality_v0
 115              		.section	.gcc_except_table._ZN8UnitTest15MemoryOutStreamC1Ev,"aG",@progbits,_ZN8UnitTest15MemoryOu
 116              	.LLSDA1076:
 117 0000 FF       		.byte	0xff
 118 0001 FF       		.byte	0xff
 119 0002 01       		.byte	0x1
 120 0003 12       		.uleb128 .LLSDACSE1076-.LLSDACSB1076
 121              	.LLSDACSB1076:
 122 0004 1A       		.uleb128 .LEHB0-.LFB1076
 123 0005 05       		.uleb128 .LEHE0-.LEHB0
 124 0006 00       		.uleb128 0
 125 0007 00       		.uleb128 0
 126 0008 35       		.uleb128 .LEHB1-.LFB1076
 127 0009 05       		.uleb128 .LEHE1-.LEHB1
 128 000a 8A01     		.uleb128 .L6-.LFB1076
 129 000c 00       		.uleb128 0
 130 000d 68       		.uleb128 .LEHB2-.LFB1076
 131 000e 05       		.uleb128 .LEHE2-.LEHB2
 132 000f 6F       		.uleb128 .L7-.LFB1076
 133 0010 00       		.uleb128 0
 134 0011 A501     		.uleb128 .LEHB3-.LFB1076
 135 0013 05       		.uleb128 .LEHE3-.LEHB3
 136 0014 00       		.uleb128 0
 137 0015 00       		.uleb128 0
 138              	.LLSDACSE1076:
 139              		.section	.text._ZN8UnitTest15MemoryOutStreamC1Ev,"axG",@progbits,_ZN8UnitTest15MemoryOutStreamC1Ev
 141              		.section	.rodata
 142              	.LC1:
 143 000d 25303258 		.string	"%02X"
 143      00
 144 0012 00000000 		.align 8
 144      0000
 145              	.LC2:
 146 0018 556E6861 		.string	"Unhandled exception in CHECK_EQUAL(FL_SUCCESS, fStatus)"
 146      6E646C65 
 146      64206578 
 146      63657074 
 146      696F6E20 
 147              		.align 8
 148              	.LC3:
 149 0050 556E6861 		.string	"Unhandled exception in CHECK_EQUAL(expectedLength, buf->length)"
 149      6E646C65 
 149      64206578 
 149      63657074 
 149      696F6E20 
 150              		.align 8
 151              	.LC4:
 152 0090 556E6861 		.string	"Unhandled exception in CHECK_EQUAL(expected, result)"
 152      6E646C65 
 152      64206578 
 152      63657074 
 152      696F6E20 
 153              		.text
 154              		.globl	_Z13testReadBytesP6BufferPKc
 156              	_Z13testReadBytesP6BufferPKc:
 157              	.LFB1092:
 158              		.file 3 "testSvf2Csvf.cpp"
   1:testSvf2Csvf.cpp **** /*
   2:testSvf2Csvf.cpp ****  * Copyright (C) 2009-2012 Chris McClelland
   3:testSvf2Csvf.cpp ****  *
   4:testSvf2Csvf.cpp ****  * This program is free software: you can redistribute it and/or modify
   5:testSvf2Csvf.cpp ****  * it under the terms of the GNU Lesser General Public License as published by
   6:testSvf2Csvf.cpp ****  * the Free Software Foundation, either version 3 of the License, or
   7:testSvf2Csvf.cpp ****  * (at your option) any later version.
   8:testSvf2Csvf.cpp ****  *
   9:testSvf2Csvf.cpp ****  * This program is distributed in the hope that it will be useful,
  10:testSvf2Csvf.cpp ****  * but WITHOUT ANY WARRANTY; without even the implied warranty of
  11:testSvf2Csvf.cpp ****  * MERCHANTABILITY or FITNESS FOR A PARTICULAR PURPOSE.  See the
  12:testSvf2Csvf.cpp ****  * GNU Lesser General Public License for more details.
  13:testSvf2Csvf.cpp ****  *
  14:testSvf2Csvf.cpp ****  * You should have received a copy of the GNU Lesser General Public License
  15:testSvf2Csvf.cpp ****  * along with this program.  If not, see <http://www.gnu.org/licenses/>.
  16:testSvf2Csvf.cpp ****  */
  17:testSvf2Csvf.cpp **** #include <cstdio>
  18:testSvf2Csvf.cpp **** #include <cstring>
  19:testSvf2Csvf.cpp **** #include <UnitTest++.h>
  20:testSvf2Csvf.cpp **** #include <makestuff.h>
  21:testSvf2Csvf.cpp **** #include <libbuffer.h>
  22:testSvf2Csvf.cpp **** #include "../svf2csvf.h"
  23:testSvf2Csvf.cpp **** #include "../xsvf.h"
  24:testSvf2Csvf.cpp **** 
  25:testSvf2Csvf.cpp **** using namespace std;
  26:testSvf2Csvf.cpp **** 
  27:testSvf2Csvf.cpp **** void testReadBytes(struct Buffer *buf, const char *expected) {
 159              		.loc 3 27 0 is_stmt 1
 160              		.cfi_startproc
 161              		.cfi_personality 0x9b,DW.ref.__gxx_personality_v0
 162              		.cfi_lsda 0x1b,.LLSDA1092
 163 0000 55       		pushq	%rbp
 164              		.cfi_def_cfa_offset 16
 165              		.cfi_offset 6, -16
 166 0001 4889E5   		movq	%rsp, %rbp
 167              		.cfi_def_cfa_register 6
 168 0004 53       		pushq	%rbx
 169 0005 4881EC58 		subq	$1112, %rsp
 169      040000
 170              		.cfi_offset 3, -24
 171 000c 4889BDA8 		movq	%rdi, -1112(%rbp)
 171      FBFFFF
 172 0013 4889B5A0 		movq	%rsi, -1120(%rbp)
 172      FBFFFF
 173              		.loc 3 27 0
 174 001a 64488B04 		movq	%fs:40, %rax
 174      25280000 
 174      00
 175 0023 488945E8 		movq	%rax, -24(%rbp)
 176 0027 31C0     		xorl	%eax, %eax
  28:testSvf2Csvf.cpp **** 	FLStatus fStatus;
  29:testSvf2Csvf.cpp **** 	char result[1024];
  30:testSvf2Csvf.cpp **** 	const uint32 expectedLength = (uint32)strlen(expected)/2;
 177              		.loc 3 30 0
 178 0029 488B85A0 		movq	-1120(%rbp), %rax
 178      FBFFFF
 179 0030 4889C7   		movq	%rax, %rdi
 180 0033 E8000000 		call	strlen@PLT
 180      00
 181 0038 D1E8     		shrl	%eax
 182 003a 8985B4FB 		movl	%eax, -1100(%rbp)
 182      FFFF
  31:testSvf2Csvf.cpp **** 	bufZeroLength(buf);
 183              		.loc 3 31 0
 184 0040 488B85A8 		movq	-1112(%rbp), %rax
 184      FBFFFF
 185 0047 4889C7   		movq	%rax, %rdi
 186              	.LEHB4:
 187 004a E8000000 		call	bufZeroLength@PLT
 187      00
  32:testSvf2Csvf.cpp **** 	fStatus = readBytes(buf, expected, NULL);
 188              		.loc 3 32 0
 189 004f 488B8DA0 		movq	-1120(%rbp), %rcx
 189      FBFFFF
 190 0056 488B85A8 		movq	-1112(%rbp), %rax
 190      FBFFFF
 191 005d BA000000 		movl	$0, %edx
 191      00
 192 0062 4889CE   		movq	%rcx, %rsi
 193 0065 4889C7   		movq	%rax, %rdi
 194 0068 E8000000 		call	readBytes@PLT
 194      00
 195              	.LEHE4:
 196 006d 8985B0FB 		movl	%eax, -1104(%rbp)
 196      FFFF
 197              	.LEHB5:
  33:testSvf2Csvf.cpp **** 	CHECK_EQUAL(FL_SUCCESS, fStatus);
 198              		.loc 3 33 0
 199 0073 E8000000 		call	_ZN8UnitTest11CurrentTest7DetailsEv@PLT
 199      00
 200 0078 488B08   		movq	(%rax), %rcx
 201 007b 488D85C0 		leaq	-1088(%rbp), %rax
 201      FBFFFF
 202 0082 BA210000 		movl	$33, %edx
 202      00
 203 0087 4889CE   		movq	%rcx, %rsi
 204 008a 4889C7   		movq	%rax, %rdi
 205 008d E8000000 		call	_ZN8UnitTest11TestDetailsC1ERKS0_i@PLT
 205      00
 206              	.LEHE5:
 207              		.loc 3 33 0 is_stmt 0 discriminator 2
 208 0092 C785B8FB 		movl	$0, -1096(%rbp)
 208      FFFF0000 
 208      0000
 209              	.LEHB6:
 210 009c E8000000 		call	_ZN8UnitTest11CurrentTest7ResultsEv@PLT
 210      00
 211 00a1 488B00   		movq	(%rax), %rax
 212 00a4 488D8DC0 		leaq	-1088(%rbp), %rcx
 212      FBFFFF
 213 00ab 488D95B0 		leaq	-1104(%rbp), %rdx
 213      FBFFFF
 214 00b2 488DB5B8 		leaq	-1096(%rbp), %rsi
 214      FBFFFF
 215 00b9 4889C7   		movq	%rax, %rdi
 216 00bc E8000000 		call	_ZN8UnitTest10CheckEqualI8FLStatusS1_EEvRNS_11TestResultsERKT_RKT0_RKNS_11TestDetailsE
 216      00
 217              	.LEHE6:
 218              	.L15:
 219              	.LEHB7:
  34:testSvf2Csvf.cpp **** 	CHECK_EQUAL(expectedLength, buf->length);
 220              		.loc 3 34 0 is_stmt 1
 221 00c1 E8000000 		call	_ZN8UnitTest11CurrentTest7DetailsEv@PLT
 221      00
 222 00c6 488B08   		movq	(%rax), %rcx
 223 00c9 488D85C0 		leaq	-1088(%rbp), %rax
 223      FBFFFF
 224 00d0 BA220000 		movl	$34, %edx
 224      00
 225 00d5 4889CE   		movq	%rcx, %rsi
 226 00d8 4889C7   		movq	%rax, %rdi
 227 00db E8000000 		call	_ZN8UnitTest11TestDetailsC1ERKS0_i@PLT
 227      00
 228              		.loc 3 34 0 is_stmt 0 discriminator 2
 229 00e0 488B85A8 		movq	-1112(%rbp), %rax
 229      FBFFFF
 230 00e7 488D5808 		leaq	8(%rax), %rbx
 231 00eb E8000000 		call	_ZN8UnitTest11CurrentTest7ResultsEv@PLT
 231      00
 232 00f0 488B00   		movq	(%rax), %rax
 233 00f3 488D95C0 		leaq	-1088(%rbp), %rdx
 233      FBFFFF
 234 00fa 488DB5B4 		leaq	-1100(%rbp), %rsi
 234      FBFFFF
 235 0101 4889D1   		movq	%rdx, %rcx
 236 0104 4889DA   		movq	%rbx, %rdx
 237 0107 4889C7   		movq	%rax, %rdi
 238 010a E8000000 		call	_ZN8UnitTest10CheckEqualIjmEEvRNS_11TestResultsERKT_RKT0_RKNS_11TestDetailsE
 238      00
 239              	.LEHE7:
 240              	.L18:
 241              	.LBB4:
  35:testSvf2Csvf.cpp **** 	for ( uint32 i = 0; i < 2*buf->length; i++ ) {
 242              		.loc 3 35 0 is_stmt 1
 243 010f C785BCFB 		movl	$0, -1092(%rbp)
 243      FFFF0000 
 243      0000
 244              	.L12:
 245              		.loc 3 35 0 is_stmt 0 discriminator 3
 246 0119 8B95BCFB 		movl	-1092(%rbp), %edx
 246      FFFF
 247 011f 488B85A8 		movq	-1112(%rbp), %rax
 247      FBFFFF
 248 0126 488B4008 		movq	8(%rax), %rax
 249 012a 4801C0   		addq	%rax, %rax
 250 012d 4839C2   		cmpq	%rax, %rdx
 251 0130 734C     		jnb	.L11
  36:testSvf2Csvf.cpp **** 		sprintf(result + 2*i, "%02X", buf->data[i]);
 252              		.loc 3 36 0 is_stmt 1 discriminator 2
 253 0132 488B85A8 		movq	-1112(%rbp), %rax
 253      FBFFFF
 254 0139 488B10   		movq	(%rax), %rdx
 255 013c 8B85BCFB 		movl	-1092(%rbp), %eax
 255      FFFF
 256 0142 4801D0   		addq	%rdx, %rax
 257 0145 0FB600   		movzbl	(%rax), %eax
 258 0148 0FB6C0   		movzbl	%al, %eax
 259 014b 8B95BCFB 		movl	-1092(%rbp), %edx
 259      FFFF
 260 0151 01D2     		addl	%edx, %edx
 261 0153 89D1     		movl	%edx, %ecx
 262 0155 488D95E0 		leaq	-1056(%rbp), %rdx
 262      FBFFFF
 263 015c 4801D1   		addq	%rdx, %rcx
 264 015f 89C2     		movl	%eax, %edx
 265 0161 488D3500 		leaq	.LC1(%rip), %rsi
 265      000000
 266 0168 4889CF   		movq	%rcx, %rdi
 267 016b B8000000 		movl	$0, %eax
 267      00
 268 0170 E8000000 		call	sprintf@PLT
 268      00
  35:testSvf2Csvf.cpp **** 	for ( uint32 i = 0; i < 2*buf->length; i++ ) {
 269              		.loc 3 35 0 discriminator 2
 270 0175 8385BCFB 		addl	$1, -1092(%rbp)
 270      FFFF01
 271 017c EB9B     		jmp	.L12
 272              	.L11:
 273              	.LBE4:
  37:testSvf2Csvf.cpp **** 	}
  38:testSvf2Csvf.cpp **** 	result[2*buf->length] = '\0';
 274              		.loc 3 38 0
 275 017e 488B85A8 		movq	-1112(%rbp), %rax
 275      FBFFFF
 276 0185 488B4008 		movq	8(%rax), %rax
 277 0189 4801C0   		addq	%rax, %rax
 278 018c C68405E0 		movb	$0, -1056(%rbp,%rax)
 278      FBFFFF00 
 279              	.LEHB8:
  39:testSvf2Csvf.cpp **** 	CHECK_EQUAL(expected, result);
 280              		.loc 3 39 0
 281 0194 E8000000 		call	_ZN8UnitTest11CurrentTest7DetailsEv@PLT
 281      00
 282 0199 488B08   		movq	(%rax), %rcx
 283 019c 488D85C0 		leaq	-1088(%rbp), %rax
 283      FBFFFF
 284 01a3 BA270000 		movl	$39, %edx
 284      00
 285 01a8 4889CE   		movq	%rcx, %rsi
 286 01ab 4889C7   		movq	%rax, %rdi
 287 01ae E8000000 		call	_ZN8UnitTest11TestDetailsC1ERKS0_i@PLT
 287      00
 288              		.loc 3 39 0 is_stmt 0 discriminator 2
 289 01b3 E8000000 		call	_ZN8UnitTest11CurrentTest7ResultsEv@PLT
 289      00
 290 01b8 488B00   		movq	(%rax), %rax
 291 01bb 488D8DC0 		leaq	-1088(%rbp), %rcx
 291      FBFFFF
 292 01c2 488D95E0 		leaq	-1056(%rbp), %rdx
 292      FBFFFF
 293 01c9 488BB5A0 		movq	-1120(%rbp), %rsi
 293      FBFFFF
 294 01d0 4889C7   		movq	%rax, %rdi
 295 01d3 E8000000 		call	_ZN8UnitTest10CheckEqualERNS_11TestResultsEPKcPcRKNS_11TestDetailsE@PLT
 295      00
 296              	.LEHE8:
  40:testSvf2Csvf.cpp **** }
 297              		.loc 3 40 0 is_stmt 1
 298 01d8 E92E0100 		jmp	.L10
 298      00
 299              	.L25:
 300 01dd EB00     		jmp	.L14
 301              	.L24:
 302              	.L14:
  33:testSvf2Csvf.cpp **** 	CHECK_EQUAL(expectedLength, buf->length);
 303              		.loc 3 33 0
 304 01df 4889C7   		movq	%rax, %rdi
 305 01e2 E8000000 		call	__cxa_begin_catch@PLT
 305      00
 306              	.LEHB9:
 307 01e7 E8000000 		call	_ZN8UnitTest11CurrentTest7ResultsEv@PLT
 307      00
 308 01ec 488B18   		movq	(%rax), %rbx
 309 01ef E8000000 		call	_ZN8UnitTest11CurrentTest7DetailsEv@PLT
 309      00
  33:testSvf2Csvf.cpp **** 	CHECK_EQUAL(expectedLength, buf->length);
 310              		.loc 3 33 0 is_stmt 0 discriminator 8
 311 01f4 488B08   		movq	(%rax), %rcx
 312 01f7 488D85C0 		leaq	-1088(%rbp), %rax
 312      FBFFFF
 313 01fe BA210000 		movl	$33, %edx
 313      00
 314 0203 4889CE   		movq	%rcx, %rsi
 315 0206 4889C7   		movq	%rax, %rdi
 316 0209 E8000000 		call	_ZN8UnitTest11TestDetailsC1ERKS0_i@PLT
 316      00
  33:testSvf2Csvf.cpp **** 	CHECK_EQUAL(expectedLength, buf->length);
 317              		.loc 3 33 0 discriminator 12
 318 020e 488D85C0 		leaq	-1088(%rbp), %rax
 318      FBFFFF
 319 0215 488D1500 		leaq	.LC2(%rip), %rdx
 319      000000
 320 021c 4889C6   		movq	%rax, %rsi
 321 021f 4889DF   		movq	%rbx, %rdi
 322 0222 E8000000 		call	_ZN8UnitTest11TestResults13OnTestFailureERKNS_11TestDetailsEPKc@PLT
 322      00
 323              	.LEHE9:
 324              	.LEHB10:
  33:testSvf2Csvf.cpp **** 	CHECK_EQUAL(expectedLength, buf->length);
 325              		.loc 3 33 0 discriminator 14
 326 0227 E8000000 		call	__cxa_end_catch@PLT
 326      00
 327              	.LEHE10:
 328 022c E990FEFF 		jmp	.L15
 328      FF
 329              	.L26:
 330 0231 4889C3   		movq	%rax, %rbx
  33:testSvf2Csvf.cpp **** 	CHECK_EQUAL(expectedLength, buf->length);
 331              		.loc 3 33 0
 332 0234 E8000000 		call	__cxa_end_catch@PLT
 332      00
 333 0239 4889D8   		movq	%rbx, %rax
 334 023c 4889C7   		movq	%rax, %rdi
 335              	.LEHB11:
 336 023f E8000000 		call	_Unwind_Resume@PLT
 336      00
 337              	.LEHE11:
 338              	.L27:
  34:testSvf2Csvf.cpp **** 	for ( uint32 i = 0; i < 2*buf->length; i++ ) {
 339              		.loc 3 34 0 is_stmt 1
 340 0244 4889C7   		movq	%rax, %rdi
 341 0247 E8000000 		call	__cxa_begin_catch@PLT
 341      00
 342              	.LEHB12:
 343 024c E8000000 		call	_ZN8UnitTest11CurrentTest7ResultsEv@PLT
 343      00
 344 0251 488B18   		movq	(%rax), %rbx
 345 0254 E8000000 		call	_ZN8UnitTest11CurrentTest7DetailsEv@PLT
 345      00
  34:testSvf2Csvf.cpp **** 	for ( uint32 i = 0; i < 2*buf->length; i++ ) {
 346              		.loc 3 34 0 is_stmt 0 discriminator 8
 347 0259 488B08   		movq	(%rax), %rcx
 348 025c 488D85C0 		leaq	-1088(%rbp), %rax
 348      FBFFFF
 349 0263 BA220000 		movl	$34, %edx
 349      00
 350 0268 4889CE   		movq	%rcx, %rsi
 351 026b 4889C7   		movq	%rax, %rdi
 352 026e E8000000 		call	_ZN8UnitTest11TestDetailsC1ERKS0_i@PLT
 352      00
  34:testSvf2Csvf.cpp **** 	for ( uint32 i = 0; i < 2*buf->length; i++ ) {
 353              		.loc 3 34 0 discriminator 12
 354 0273 488D85C0 		leaq	-1088(%rbp), %rax
 354      FBFFFF
 355 027a 488D1500 		leaq	.LC3(%rip), %rdx
 355      000000
 356 0281 4889C6   		movq	%rax, %rsi
 357 0284 4889DF   		movq	%rbx, %rdi
 358 0287 E8000000 		call	_ZN8UnitTest11TestResults13OnTestFailureERKNS_11TestDetailsEPKc@PLT
 358      00
 359              	.LEHE12:
 360              	.LEHB13:
  34:testSvf2Csvf.cpp **** 	for ( uint32 i = 0; i < 2*buf->length; i++ ) {
 361              		.loc 3 34 0 discriminator 14
 362 028c E8000000 		call	__cxa_end_catch@PLT
 362      00
 363              	.LEHE13:
 364 0291 E979FEFF 		jmp	.L18
 364      FF
 365              	.L28:
 366 0296 4889C3   		movq	%rax, %rbx
  34:testSvf2Csvf.cpp **** 	for ( uint32 i = 0; i < 2*buf->length; i++ ) {
 367              		.loc 3 34 0
 368 0299 E8000000 		call	__cxa_end_catch@PLT
 368      00
 369 029e 4889D8   		movq	%rbx, %rax
 370 02a1 4889C7   		movq	%rax, %rdi
 371              	.LEHB14:
 372 02a4 E8000000 		call	_Unwind_Resume@PLT
 372      00
 373              	.LEHE14:
 374              	.L29:
  39:testSvf2Csvf.cpp **** }
 375              		.loc 3 39 0 is_stmt 1
 376 02a9 4889C7   		movq	%rax, %rdi
 377 02ac E8000000 		call	__cxa_begin_catch@PLT
 377      00
 378              	.LEHB15:
 379 02b1 E8000000 		call	_ZN8UnitTest11CurrentTest7ResultsEv@PLT
 379      00
 380 02b6 488B18   		movq	(%rax), %rbx
 381 02b9 E8000000 		call	_ZN8UnitTest11CurrentTest7DetailsEv@PLT
 381      00
  39:testSvf2Csvf.cpp **** }
 382              		.loc 3 39 0 is_stmt 0 discriminator 8
 383 02be 488B08   		movq	(%rax), %rcx
 384 02c1 488D85C0 		leaq	-1088(%rbp), %rax
 384      FBFFFF
 385 02c8 BA270000 		movl	$39, %edx
 385      00
 386 02cd 4889CE   		movq	%rcx, %rsi
 387 02d0 4889C7   		movq	%rax, %rdi
 388 02d3 E8000000 		call	_ZN8UnitTest11TestDetailsC1ERKS0_i@PLT
 388      00
  39:testSvf2Csvf.cpp **** }
 389              		.loc 3 39 0 discriminator 12
 390 02d8 488D85C0 		leaq	-1088(%rbp), %rax
 390      FBFFFF
 391 02df 488D1500 		leaq	.LC4(%rip), %rdx
 391      000000
 392 02e6 4889C6   		movq	%rax, %rsi
 393 02e9 4889DF   		movq	%rbx, %rdi
 394 02ec E8000000 		call	_ZN8UnitTest11TestResults13OnTestFailureERKNS_11TestDetailsEPKc@PLT
 394      00
 395              	.LEHE15:
 396              	.LEHB16:
  39:testSvf2Csvf.cpp **** }
 397              		.loc 3 39 0 discriminator 14
 398 02f1 E8000000 		call	__cxa_end_catch@PLT
 398      00
 399              	.LEHE16:
 400              		.loc 3 40 0 is_stmt 1 discriminator 14
 401 02f6 EB13     		jmp	.L10
 402              	.L30:
 403 02f8 4889C3   		movq	%rax, %rbx
  39:testSvf2Csvf.cpp **** }
 404              		.loc 3 39 0
 405 02fb E8000000 		call	__cxa_end_catch@PLT
 405      00
 406 0300 4889D8   		movq	%rbx, %rax
 407 0303 4889C7   		movq	%rax, %rdi
 408              	.LEHB17:
 409 0306 E8000000 		call	_Unwind_Resume@PLT
 409      00
 410              	.LEHE17:
 411              	.L10:
 412              		.loc 3 40 0
 413 030b 488B45E8 		movq	-24(%rbp), %rax
 414 030f 64483304 		xorq	%fs:40, %rax
 414      25280000 
 414      00
 415 0318 7405     		je	.L23
 416 031a E8000000 		call	__stack_chk_fail@PLT
 416      00
 417              	.L23:
 418 031f 4881C458 		addq	$1112, %rsp
 418      040000
 419 0326 5B       		popq	%rbx
 420 0327 5D       		popq	%rbp
 421              		.cfi_def_cfa 7, 8
 422 0328 C3       		ret
 423              		.cfi_endproc
 424              	.LFE1092:
 425              		.section	.gcc_except_table,"a",@progbits
 426              		.align 4
 427              	.LLSDA1092:
 428 0000 FF       		.byte	0xff
 429 0001 9B       		.byte	0x9b
 430 0002 55       		.uleb128 .LLSDATT1092-.LLSDATTD1092
 431              	.LLSDATTD1092:
 432 0003 01       		.byte	0x1
 433 0004 4B       		.uleb128 .LLSDACSE1092-.LLSDACSB1092
 434              	.LLSDACSB1092:
 435 0005 4A       		.uleb128 .LEHB4-.LFB1092
 436 0006 23       		.uleb128 .LEHE4-.LEHB4
 437 0007 00       		.uleb128 0
 438 0008 00       		.uleb128 0
 439 0009 73       		.uleb128 .LEHB5-.LFB1092
 440 000a 1F       		.uleb128 .LEHE5-.LEHB5
 441 000b DF03     		.uleb128 .L24-.LFB1092
 442 000d 01       		.uleb128 0x1
 443 000e 9C01     		.uleb128 .LEHB6-.LFB1092
 444 0010 25       		.uleb128 .LEHE6-.LEHB6
 445 0011 DD03     		.uleb128 .L25-.LFB1092
 446 0013 03       		.uleb128 0x3
 447 0014 C101     		.uleb128 .LEHB7-.LFB1092
 448 0016 4E       		.uleb128 .LEHE7-.LEHB7
 449 0017 C404     		.uleb128 .L27-.LFB1092
 450 0019 01       		.uleb128 0x1
 451 001a 9403     		.uleb128 .LEHB8-.LFB1092
 452 001c 44       		.uleb128 .LEHE8-.LEHB8
 453 001d A905     		.uleb128 .L29-.LFB1092
 454 001f 01       		.uleb128 0x1
 455 0020 E703     		.uleb128 .LEHB9-.LFB1092
 456 0022 40       		.uleb128 .LEHE9-.LEHB9
 457 0023 B104     		.uleb128 .L26-.LFB1092
 458 0025 00       		.uleb128 0
 459 0026 A704     		.uleb128 .LEHB10-.LFB1092
 460 0028 05       		.uleb128 .LEHE10-.LEHB10
 461 0029 00       		.uleb128 0
 462 002a 00       		.uleb128 0
 463 002b BF04     		.uleb128 .LEHB11-.LFB1092
 464 002d 05       		.uleb128 .LEHE11-.LEHB11
 465 002e 00       		.uleb128 0
 466 002f 00       		.uleb128 0
 467 0030 CC04     		.uleb128 .LEHB12-.LFB1092
 468 0032 40       		.uleb128 .LEHE12-.LEHB12
 469 0033 9605     		.uleb128 .L28-.LFB1092
 470 0035 00       		.uleb128 0
 471 0036 8C05     		.uleb128 .LEHB13-.LFB1092
 472 0038 05       		.uleb128 .LEHE13-.LEHB13
 473 0039 00       		.uleb128 0
 474 003a 00       		.uleb128 0
 475 003b A405     		.uleb128 .LEHB14-.LFB1092
 476 003d 05       		.uleb128 .LEHE14-.LEHB14
 477 003e 00       		.uleb128 0
 478 003f 00       		.uleb128 0
 479 0040 B105     		.uleb128 .LEHB15-.LFB1092
 480 0042 40       		.uleb128 .LEHE15-.LEHB15
 481 0043 F805     		.uleb128 .L30-.LFB1092
 482 0045 00       		.uleb128 0
 483 0046 F105     		.uleb128 .LEHB16-.LFB1092
 484 0048 05       		.uleb128 .LEHE16-.LEHB16
 485 0049 00       		.uleb128 0
 486 004a 00       		.uleb128 0
 487 004b 8606     		.uleb128 .LEHB17-.LFB1092
 488 004d 05       		.uleb128 .LEHE17-.LEHB17
 489 004e 00       		.uleb128 0
 490 004f 00       		.uleb128 0
 491              	.LLSDACSE1092:
 492 0050 01       		.byte	0x1
 493 0051 00       		.byte	0
 494 0052 00       		.byte	0
 495 0053 7D       		.byte	0x7d
 496              		.align 4
 497 0054 00000000 		.long	0
 498              	
 499              	.LLSDATT1092:
 500              		.text
 502              		.section	.rodata
 503              	.LC5:
 504 00c5 74657374 		.string	"testSvf2Csvf.cpp"
 504      53766632 
 504      43737666 
 504      2E637070 
 504      00
 505              	.LC6:
 506 00d6 46504741 		.string	"FPGALink_testReadBytes"
 506      4C696E6B 
 506      5F746573 
 506      74526561 
 506      64427974 
 507              		.section	.text._ZN26TestFPGALink_testReadBytesC2Ev,"axG",@progbits,_ZN26TestFPGALink_testReadBytes
 508              		.align 2
 509              		.weak	_ZN26TestFPGALink_testReadBytesC2Ev
 511              	_ZN26TestFPGALink_testReadBytesC2Ev:
 512              	.LFB1094:
  41:testSvf2Csvf.cpp **** 
  42:testSvf2Csvf.cpp **** TEST(FPGALink_testReadBytes) {
 513              		.loc 3 42 0
 514              		.cfi_startproc
 515 0000 55       		pushq	%rbp
 516              		.cfi_def_cfa_offset 16
 517              		.cfi_offset 6, -16
 518 0001 4889E5   		movq	%rsp, %rbp
 519              		.cfi_def_cfa_register 6
 520 0004 53       		pushq	%rbx
 521 0005 4883EC18 		subq	$24, %rsp
 522              		.cfi_offset 3, -24
 523 0009 48897DE8 		movq	%rdi, -24(%rbp)
 524              	.LBB5:
 525              		.loc 3 42 0
 526 000d 488B5DE8 		movq	-24(%rbp), %rbx
 527 0011 E8000000 		call	_ZN13UnitTestSuite12GetSuiteNameEv
 527      00
 528 0016 41B82A00 		movl	$42, %r8d
 528      0000
 529 001c 488D0D00 		leaq	.LC5(%rip), %rcx
 529      000000
 530 0023 4889C2   		movq	%rax, %rdx
 531 0026 488D3500 		leaq	.LC6(%rip), %rsi
 531      000000
 532 002d 4889DF   		movq	%rbx, %rdi
 533 0030 E8000000 		call	_ZN8UnitTest4TestC2EPKcS2_S2_i@PLT
 533      00
 534 0035 488D1500 		leaq	16+_ZTV26TestFPGALink_testReadBytes(%rip), %rdx
 534      000000
 535 003c 488B45E8 		movq	-24(%rbp), %rax
 536 0040 488910   		movq	%rdx, (%rax)
 537              	.LBE5:
 538 0043 90       		nop
 539 0044 4883C418 		addq	$24, %rsp
 540 0048 5B       		popq	%rbx
 541 0049 5D       		popq	%rbp
 542              		.cfi_def_cfa 7, 8
 543 004a C3       		ret
 544              		.cfi_endproc
 545              	.LFE1094:
 547              		.weak	_ZN26TestFPGALink_testReadBytesC1Ev
 548              		.set	_ZN26TestFPGALink_testReadBytesC1Ev,_ZN26TestFPGALink_testReadBytesC2Ev
 549              		.globl	testFPGALink_testReadBytesInstance
 550              		.bss
 551              		.align 32
 554              	testFPGALink_testReadBytesInstance:
 555 0000 00000000 		.zero	56
 555      00000000 
 555      00000000 
 555      00000000 
 555      00000000 
 556              		.globl	adderFPGALink_testReadBytes
 559              	adderFPGALink_testReadBytes:
 560 0038 00       		.zero	1
 561              		.section	.rodata
 562              	.LC7:
 563 00ed 464500   		.string	"FE"
 564              	.LC8:
 565 00f0 43414645 		.string	"CAFE"
 565      00
 566              	.LC9:
 567 00f5 46303044 		.string	"F00D1E"
 567      314500
 568              	.LC10:
 569 00fc 44454144 		.string	"DEADF00D"
 569      46303044 
 569      00
 570              	.LC11:
 571 0105 43414645 		.string	"CAFEF00D1E"
 571      46303044 
 571      314500
 572              	.LC12:
 573 0110 44454144 		.string	"DEADCAFEBABE"
 573      43414645 
 573      42414245 
 573      00
 574 011d 000000   		.align 8
 575              	.LC13:
 576 0120 556E6861 		.string	"Unhandled exception in CHECK_EQUAL(BUF_SUCCESS, bStatus)"
 576      6E646C65 
 576      64206578 
 576      63657074 
 576      696F6E20 
 577              		.text
 578 0329 90       		.align 2
 579              		.globl	_ZNK26TestFPGALink_testReadBytes7RunImplEv
 581              	_ZNK26TestFPGALink_testReadBytes7RunImplEv:
 582              	.LFB1096:
 583              		.loc 3 42 0
 584              		.cfi_startproc
 585              		.cfi_personality 0x9b,DW.ref.__gxx_personality_v0
 586              		.cfi_lsda 0x1b,.LLSDA1096
 587 032a 55       		pushq	%rbp
 588              		.cfi_def_cfa_offset 16
 589              		.cfi_offset 6, -16
 590 032b 4889E5   		movq	%rsp, %rbp
 591              		.cfi_def_cfa_register 6
 592 032e 53       		pushq	%rbx
 593 032f 4883EC78 		subq	$120, %rsp
 594              		.cfi_offset 3, -24
 595 0333 48897D88 		movq	%rdi, -120(%rbp)
 596              		.loc 3 42 0
 597 0337 64488B04 		movq	%fs:40, %rax
 597      25280000 
 597      00
 598 0340 488945E8 		movq	%rax, -24(%rbp)
 599 0344 31C0     		xorl	%eax, %eax
  43:testSvf2Csvf.cpp **** 	struct Buffer lineBuf;
  44:testSvf2Csvf.cpp **** 	BufferStatus bStatus;
  45:testSvf2Csvf.cpp **** 	bStatus = bufInitialise(&lineBuf, 1024, 0x00, NULL);
 600              		.loc 3 45 0
 601 0346 488D45A0 		leaq	-96(%rbp), %rax
 602 034a B9000000 		movl	$0, %ecx
 602      00
 603 034f BA000000 		movl	$0, %edx
 603      00
 604 0354 BE000400 		movl	$1024, %esi
 604      00
 605 0359 4889C7   		movq	%rax, %rdi
 606              	.LEHB18:
 607 035c E8000000 		call	bufInitialise@PLT
 607      00
 608              	.LEHE18:
 609 0361 894598   		movl	%eax, -104(%rbp)
 610              	.LEHB19:
  46:testSvf2Csvf.cpp **** 	CHECK_EQUAL(BUF_SUCCESS, bStatus);
 611              		.loc 3 46 0
 612 0364 E8000000 		call	_ZN8UnitTest11CurrentTest7DetailsEv@PLT
 612      00
 613 0369 488B08   		movq	(%rax), %rcx
 614 036c 488D45C0 		leaq	-64(%rbp), %rax
 615 0370 BA2E0000 		movl	$46, %edx
 615      00
 616 0375 4889CE   		movq	%rcx, %rsi
 617 0378 4889C7   		movq	%rax, %rdi
 618 037b E8000000 		call	_ZN8UnitTest11TestDetailsC1ERKS0_i@PLT
 618      00
 619              	.LEHE19:
 620              		.loc 3 46 0 is_stmt 0 discriminator 2
 621 0380 C7459C00 		movl	$0, -100(%rbp)
 621      000000
 622              	.LEHB20:
 623 0387 E8000000 		call	_ZN8UnitTest11CurrentTest7ResultsEv@PLT
 623      00
 624 038c 488B00   		movq	(%rax), %rax
 625 038f 488D4DC0 		leaq	-64(%rbp), %rcx
 626 0393 488D5598 		leaq	-104(%rbp), %rdx
 627 0397 488D759C 		leaq	-100(%rbp), %rsi
 628 039b 4889C7   		movq	%rax, %rdi
 629 039e E8000000 		call	_ZN8UnitTest10CheckEqualI12BufferStatusS1_EEvRNS_11TestResultsERKT_RKT0_RKNS_11TestDetailsE
 629      00
 630              	.LEHE20:
 631              	.L35:
  47:testSvf2Csvf.cpp **** 
  48:testSvf2Csvf.cpp **** 	testReadBytes(&lineBuf, "FE");
 632              		.loc 3 48 0 is_stmt 1
 633 03a3 488D45A0 		leaq	-96(%rbp), %rax
 634 03a7 488D3500 		leaq	.LC7(%rip), %rsi
 634      000000
 635 03ae 4889C7   		movq	%rax, %rdi
 636              	.LEHB21:
 637 03b1 E8000000 		call	_Z13testReadBytesP6BufferPKc
 637      00
  49:testSvf2Csvf.cpp **** 	testReadBytes(&lineBuf, "CAFE");
 638              		.loc 3 49 0
 639 03b6 488D45A0 		leaq	-96(%rbp), %rax
 640 03ba 488D3500 		leaq	.LC8(%rip), %rsi
 640      000000
 641 03c1 4889C7   		movq	%rax, %rdi
 642 03c4 E8000000 		call	_Z13testReadBytesP6BufferPKc
 642      00
  50:testSvf2Csvf.cpp **** 	testReadBytes(&lineBuf, "F00D1E");
 643              		.loc 3 50 0
 644 03c9 488D45A0 		leaq	-96(%rbp), %rax
 645 03cd 488D3500 		leaq	.LC9(%rip), %rsi
 645      000000
 646 03d4 4889C7   		movq	%rax, %rdi
 647 03d7 E8000000 		call	_Z13testReadBytesP6BufferPKc
 647      00
  51:testSvf2Csvf.cpp **** 	testReadBytes(&lineBuf, "DEADF00D");
 648              		.loc 3 51 0
 649 03dc 488D45A0 		leaq	-96(%rbp), %rax
 650 03e0 488D3500 		leaq	.LC10(%rip), %rsi
 650      000000
 651 03e7 4889C7   		movq	%rax, %rdi
 652 03ea E8000000 		call	_Z13testReadBytesP6BufferPKc
 652      00
  52:testSvf2Csvf.cpp **** 	testReadBytes(&lineBuf, "CAFEF00D1E");
 653              		.loc 3 52 0
 654 03ef 488D45A0 		leaq	-96(%rbp), %rax
 655 03f3 488D3500 		leaq	.LC11(%rip), %rsi
 655      000000
 656 03fa 4889C7   		movq	%rax, %rdi
 657 03fd E8000000 		call	_Z13testReadBytesP6BufferPKc
 657      00
  53:testSvf2Csvf.cpp **** 	testReadBytes(&lineBuf, "DEADCAFEBABE");
 658              		.loc 3 53 0
 659 0402 488D45A0 		leaq	-96(%rbp), %rax
 660 0406 488D3500 		leaq	.LC12(%rip), %rsi
 660      000000
 661 040d 4889C7   		movq	%rax, %rdi
 662 0410 E8000000 		call	_Z13testReadBytesP6BufferPKc
 662      00
  54:testSvf2Csvf.cpp **** 
  55:testSvf2Csvf.cpp **** 	bufDestroy(&lineBuf);
 663              		.loc 3 55 0
 664 0415 488D45A0 		leaq	-96(%rbp), %rax
 665 0419 4889C7   		movq	%rax, %rdi
 666 041c E8000000 		call	bufDestroy@PLT
 666      00
 667              	.LEHE21:
  56:testSvf2Csvf.cpp **** }
 668              		.loc 3 56 0
 669 0421 90       		nop
 670 0422 488B45E8 		movq	-24(%rbp), %rax
 671 0426 64483304 		xorq	%fs:40, %rax
 671      25280000 
 671      00
 672 042f 7468     		je	.L37
 673 0431 EB61     		jmp	.L41
 674              	.L39:
 675 0433 EB00     		jmp	.L34
 676              	.L38:
 677              	.L34:
  46:testSvf2Csvf.cpp **** 
 678              		.loc 3 46 0
 679 0435 4889C7   		movq	%rax, %rdi
 680 0438 E8000000 		call	__cxa_begin_catch@PLT
 680      00
 681              	.LEHB22:
 682 043d E8000000 		call	_ZN8UnitTest11CurrentTest7ResultsEv@PLT
 682      00
 683 0442 488B18   		movq	(%rax), %rbx
 684 0445 E8000000 		call	_ZN8UnitTest11CurrentTest7DetailsEv@PLT
 684      00
  46:testSvf2Csvf.cpp **** 
 685              		.loc 3 46 0 is_stmt 0 discriminator 8
 686 044a 488B08   		movq	(%rax), %rcx
 687 044d 488D45C0 		leaq	-64(%rbp), %rax
 688 0451 BA2E0000 		movl	$46, %edx
 688      00
 689 0456 4889CE   		movq	%rcx, %rsi
 690 0459 4889C7   		movq	%rax, %rdi
 691 045c E8000000 		call	_ZN8UnitTest11TestDetailsC1ERKS0_i@PLT
 691      00
  46:testSvf2Csvf.cpp **** 
 692              		.loc 3 46 0 discriminator 12
 693 0461 488D45C0 		leaq	-64(%rbp), %rax
 694 0465 488D1500 		leaq	.LC13(%rip), %rdx
 694      000000
 695 046c 4889C6   		movq	%rax, %rsi
 696 046f 4889DF   		movq	%rbx, %rdi
 697 0472 E8000000 		call	_ZN8UnitTest11TestResults13OnTestFailureERKNS_11TestDetailsEPKc@PLT
 697      00
 698              	.LEHE22:
 699              	.LEHB23:
  46:testSvf2Csvf.cpp **** 
 700              		.loc 3 46 0 discriminator 14
 701 0477 E8000000 		call	__cxa_end_catch@PLT
 701      00
 702              	.LEHE23:
 703 047c E922FFFF 		jmp	.L35
 703      FF
 704              	.L40:
 705 0481 4889C3   		movq	%rax, %rbx
  46:testSvf2Csvf.cpp **** 
 706              		.loc 3 46 0
 707 0484 E8000000 		call	__cxa_end_catch@PLT
 707      00
 708 0489 4889D8   		movq	%rbx, %rax
 709 048c 4889C7   		movq	%rax, %rdi
 710              	.LEHB24:
 711 048f E8000000 		call	_Unwind_Resume@PLT
 711      00
 712              	.LEHE24:
 713              	.L41:
 714              		.loc 3 56 0 is_stmt 1
 715 0494 E8000000 		call	__stack_chk_fail@PLT
 715      00
 716              	.L37:
 717 0499 4883C478 		addq	$120, %rsp
 718 049d 5B       		popq	%rbx
 719 049e 5D       		popq	%rbp
 720              		.cfi_def_cfa 7, 8
 721 049f C3       		ret
 722              		.cfi_endproc
 723              	.LFE1096:
 724              		.section	.gcc_except_table
 725              		.align 4
 726              	.LLSDA1096:
 727 0058 FF       		.byte	0xff
 728 0059 9B       		.byte	0x9b
 729 005a 2D       		.uleb128 .LLSDATT1096-.LLSDATTD1096
 730              	.LLSDATTD1096:
 731 005b 01       		.byte	0x1
 732 005c 23       		.uleb128 .LLSDACSE1096-.LLSDACSB1096
 733              	.LLSDACSB1096:
 734 005d 32       		.uleb128 .LEHB18-.LFB1096
 735 005e 05       		.uleb128 .LEHE18-.LEHB18
 736 005f 00       		.uleb128 0
 737 0060 00       		.uleb128 0
 738 0061 3A       		.uleb128 .LEHB19-.LFB1096
 739 0062 1C       		.uleb128 .LEHE19-.LEHB19
 740 0063 8B02     		.uleb128 .L38-.LFB1096
 741 0065 01       		.uleb128 0x1
 742 0066 5D       		.uleb128 .LEHB20-.LFB1096
 743 0067 1C       		.uleb128 .LEHE20-.LEHB20
 744 0068 8902     		.uleb128 .L39-.LFB1096
 745 006a 03       		.uleb128 0x3
 746 006b 8701     		.uleb128 .LEHB21-.LFB1096
 747 006d 70       		.uleb128 .LEHE21-.LEHB21
 748 006e 00       		.uleb128 0
 749 006f 00       		.uleb128 0
 750 0070 9302     		.uleb128 .LEHB22-.LFB1096
 751 0072 3A       		.uleb128 .LEHE22-.LEHB22
 752 0073 D702     		.uleb128 .L40-.LFB1096
 753 0075 00       		.uleb128 0
 754 0076 CD02     		.uleb128 .LEHB23-.LFB1096
 755 0078 05       		.uleb128 .LEHE23-.LEHB23
 756 0079 00       		.uleb128 0
 757 007a 00       		.uleb128 0
 758 007b E502     		.uleb128 .LEHB24-.LFB1096
 759 007d 05       		.uleb128 .LEHE24-.LEHB24
 760 007e 00       		.uleb128 0
 761 007f 00       		.uleb128 0
 762              	.LLSDACSE1096:
 763 0080 01       		.byte	0x1
 764 0081 00       		.byte	0
 765 0082 00       		.byte	0
 766 0083 7D       		.byte	0x7d
 767              		.align 4
 768 0084 00000000 		.long	0
 769              	
 770              	.LLSDATT1096:
 771              		.text
 773              		.section	.rodata
 774 0159 00000000 		.align 8
 774      000000
 775              	.LC14:
 776 0160 556E6861 		.string	"Unhandled exception in CHECK_EQUAL(strlen(expectedHex)/2, lineBuf.length)"
 776      6E646C65 
 776      64206578 
 776      63657074 
 776      696F6E20 
 777 01aa 00000000 		.align 8
 777      0000
 778              	.LC15:
 779 01b0 556E6861 		.string	"Unhandled exception in CHECK_EQUAL(expectedHex, resultHex)"
 779      6E646C65 
 779      64206578 
 779      63657074 
 779      696F6E20 
 780              		.text
 781              		.globl	_Z9testShiftPKcjS0_jS0_jS0_
 783              	_Z9testShiftPKcjS0_jS0_jS0_:
 784              	.LFB1097:
  57:testSvf2Csvf.cpp **** 
  58:testSvf2Csvf.cpp **** void testShift(const char *line, uint32 lineBits, const char *head, uint32 headBits, const char *ta
 785              		.loc 3 58 0
 786              		.cfi_startproc
 787              		.cfi_personality 0x9b,DW.ref.__gxx_personality_v0
 788              		.cfi_lsda 0x1b,.LLSDA1097
 789 04a0 55       		pushq	%rbp
 790              		.cfi_def_cfa_offset 16
 791              		.cfi_offset 6, -16
 792 04a1 4889E5   		movq	%rsp, %rbp
 793              		.cfi_def_cfa_register 6
 794 04a4 53       		pushq	%rbx
 795 04a5 4881ECE8 		subq	$1256, %rsp
 795      040000
 796              		.cfi_offset 3, -24
 797 04ac 4889BD38 		movq	%rdi, -1224(%rbp)
 797      FBFFFF
 798 04b3 89B534FB 		movl	%esi, -1228(%rbp)
 798      FFFF
 799 04b9 48899528 		movq	%rdx, -1240(%rbp)
 799      FBFFFF
 800 04c0 898D30FB 		movl	%ecx, -1232(%rbp)
 800      FFFF
 801 04c6 4C898520 		movq	%r8, -1248(%rbp)
 801      FBFFFF
 802 04cd 44898D1C 		movl	%r9d, -1252(%rbp)
 802      FBFFFF
 803 04d4 488B4510 		movq	16(%rbp), %rax
 804 04d8 48898510 		movq	%rax, -1264(%rbp)
 804      FBFFFF
 805              		.loc 3 58 0
 806 04df 64488B04 		movq	%fs:40, %rax
 806      25280000 
 806      00
 807 04e8 488945E8 		movq	%rax, -24(%rbp)
 808 04ec 31C0     		xorl	%eax, %eax
  59:testSvf2Csvf.cpp **** 	struct Buffer lineBuf;
  60:testSvf2Csvf.cpp **** 	struct Buffer headBuf;
  61:testSvf2Csvf.cpp **** 	struct Buffer tailBuf;
  62:testSvf2Csvf.cpp **** 	BufferStatus bStatus;
  63:testSvf2Csvf.cpp **** 	FLStatus fStatus;
  64:testSvf2Csvf.cpp **** 	char resultHex[1024];
  65:testSvf2Csvf.cpp **** 	bStatus = bufInitialise(&lineBuf, 1024, 0x00, NULL);
 809              		.loc 3 65 0
 810 04ee 488D8560 		leaq	-1184(%rbp), %rax
 810      FBFFFF
 811 04f5 B9000000 		movl	$0, %ecx
 811      00
 812 04fa BA000000 		movl	$0, %edx
 812      00
 813 04ff BE000400 		movl	$1024, %esi
 813      00
 814 0504 4889C7   		movq	%rax, %rdi
 815              	.LEHB25:
 816 0507 E8000000 		call	bufInitialise@PLT
 816      00
 817              	.LEHE25:
 818 050c 89854CFB 		movl	%eax, -1204(%rbp)
 818      FFFF
 819              	.LEHB26:
  66:testSvf2Csvf.cpp **** 	CHECK_EQUAL(BUF_SUCCESS, bStatus);
 820              		.loc 3 66 0
 821 0512 E8000000 		call	_ZN8UnitTest11CurrentTest7DetailsEv@PLT
 821      00
 822 0517 488B08   		movq	(%rax), %rcx
 823 051a 488D85C0 		leaq	-1088(%rbp), %rax
 823      FBFFFF
 824 0521 BA420000 		movl	$66, %edx
 824      00
 825 0526 4889CE   		movq	%rcx, %rsi
 826 0529 4889C7   		movq	%rax, %rdi
 827 052c E8000000 		call	_ZN8UnitTest11TestDetailsC1ERKS0_i@PLT
 827      00
 828              	.LEHE26:
 829              		.loc 3 66 0 is_stmt 0 discriminator 2
 830 0531 C785A0FB 		movl	$0, -1120(%rbp)
 830      FFFF0000 
 830      0000
 831              	.LEHB27:
 832 053b E8000000 		call	_ZN8UnitTest11CurrentTest7ResultsEv@PLT
 832      00
 833 0540 488B00   		movq	(%rax), %rax
 834 0543 488D8DC0 		leaq	-1088(%rbp), %rcx
 834      FBFFFF
 835 054a 488D954C 		leaq	-1204(%rbp), %rdx
 835      FBFFFF
 836 0551 488DB5A0 		leaq	-1120(%rbp), %rsi
 836      FBFFFF
 837 0558 4889C7   		movq	%rax, %rdi
 838 055b E8000000 		call	_ZN8UnitTest10CheckEqualI12BufferStatusS1_EEvRNS_11TestResultsERKT_RKT0_RKNS_11TestDetailsE
 838      00
 839              	.LEHE27:
 840              	.L47:
  67:testSvf2Csvf.cpp **** 	bStatus = bufInitialise(&headBuf, 1024, 0x00, NULL);
 841              		.loc 3 67 0 is_stmt 1
 842 0560 488D8580 		leaq	-1152(%rbp), %rax
 842      FBFFFF
 843 0567 B9000000 		movl	$0, %ecx
 843      00
 844 056c BA000000 		movl	$0, %edx
 844      00
 845 0571 BE000400 		movl	$1024, %esi
 845      00
 846 0576 4889C7   		movq	%rax, %rdi
 847              	.LEHB28:
 848 0579 E8000000 		call	bufInitialise@PLT
 848      00
 849              	.LEHE28:
 850 057e 89854CFB 		movl	%eax, -1204(%rbp)
 850      FFFF
 851              	.LEHB29:
  68:testSvf2Csvf.cpp **** 	CHECK_EQUAL(BUF_SUCCESS, bStatus);
 852              		.loc 3 68 0
 853 0584 E8000000 		call	_ZN8UnitTest11CurrentTest7DetailsEv@PLT
 853      00
 854 0589 488B08   		movq	(%rax), %rcx
 855 058c 488D85C0 		leaq	-1088(%rbp), %rax
 855      FBFFFF
 856 0593 BA440000 		movl	$68, %edx
 856      00
 857 0598 4889CE   		movq	%rcx, %rsi
 858 059b 4889C7   		movq	%rax, %rdi
 859 059e E8000000 		call	_ZN8UnitTest11TestDetailsC1ERKS0_i@PLT
 859      00
 860              	.LEHE29:
 861              		.loc 3 68 0 is_stmt 0 discriminator 2
 862 05a3 C785A0FB 		movl	$0, -1120(%rbp)
 862      FFFF0000 
 862      0000
 863              	.LEHB30:
 864 05ad E8000000 		call	_ZN8UnitTest11CurrentTest7ResultsEv@PLT
 864      00
 865 05b2 488B00   		movq	(%rax), %rax
 866 05b5 488D8DC0 		leaq	-1088(%rbp), %rcx
 866      FBFFFF
 867 05bc 488D954C 		leaq	-1204(%rbp), %rdx
 867      FBFFFF
 868 05c3 488DB5A0 		leaq	-1120(%rbp), %rsi
 868      FBFFFF
 869 05ca 4889C7   		movq	%rax, %rdi
 870 05cd E8000000 		call	_ZN8UnitTest10CheckEqualI12BufferStatusS1_EEvRNS_11TestResultsERKT_RKT0_RKNS_11TestDetailsE
 870      00
 871              	.LEHE30:
 872              	.L51:
  69:testSvf2Csvf.cpp **** 	bStatus = bufInitialise(&tailBuf, 1024, 0x00, NULL);
 873              		.loc 3 69 0 is_stmt 1
 874 05d2 488D85A0 		leaq	-1120(%rbp), %rax
 874      FBFFFF
 875 05d9 B9000000 		movl	$0, %ecx
 875      00
 876 05de BA000000 		movl	$0, %edx
 876      00
 877 05e3 BE000400 		movl	$1024, %esi
 877      00
 878 05e8 4889C7   		movq	%rax, %rdi
 879              	.LEHB31:
 880 05eb E8000000 		call	bufInitialise@PLT
 880      00
 881              	.LEHE31:
 882 05f0 89854CFB 		movl	%eax, -1204(%rbp)
 882      FFFF
 883              	.LEHB32:
  70:testSvf2Csvf.cpp **** 	CHECK_EQUAL(BUF_SUCCESS, bStatus);
 884              		.loc 3 70 0
 885 05f6 E8000000 		call	_ZN8UnitTest11CurrentTest7DetailsEv@PLT
 885      00
 886 05fb 488B08   		movq	(%rax), %rcx
 887 05fe 488D85C0 		leaq	-1088(%rbp), %rax
 887      FBFFFF
 888 0605 BA460000 		movl	$70, %edx
 888      00
 889 060a 4889CE   		movq	%rcx, %rsi
 890 060d 4889C7   		movq	%rax, %rdi
 891 0610 E8000000 		call	_ZN8UnitTest11TestDetailsC1ERKS0_i@PLT
 891      00
 892              	.LEHE32:
 893              		.loc 3 70 0 is_stmt 0 discriminator 2
 894 0615 C78558FB 		movl	$0, -1192(%rbp)
 894      FFFF0000 
 894      0000
 895              	.LEHB33:
 896 061f E8000000 		call	_ZN8UnitTest11CurrentTest7ResultsEv@PLT
 896      00
 897 0624 488B00   		movq	(%rax), %rax
 898 0627 488D8DC0 		leaq	-1088(%rbp), %rcx
 898      FBFFFF
 899 062e 488D954C 		leaq	-1204(%rbp), %rdx
 899      FBFFFF
 900 0635 488DB558 		leaq	-1192(%rbp), %rsi
 900      FBFFFF
 901 063c 4889C7   		movq	%rax, %rdi
 902 063f E8000000 		call	_ZN8UnitTest10CheckEqualI12BufferStatusS1_EEvRNS_11TestResultsERKT_RKT0_RKNS_11TestDetailsE
 902      00
 903              	.LEHE33:
 904              	.L55:
  71:testSvf2Csvf.cpp **** 	fStatus = readBytes(&lineBuf, line, NULL);
 905              		.loc 3 71 0 is_stmt 1
 906 0644 488B8D38 		movq	-1224(%rbp), %rcx
 906      FBFFFF
 907 064b 488D8560 		leaq	-1184(%rbp), %rax
 907      FBFFFF
 908 0652 BA000000 		movl	$0, %edx
 908      00
 909 0657 4889CE   		movq	%rcx, %rsi
 910 065a 4889C7   		movq	%rax, %rdi
 911              	.LEHB34:
 912 065d E8000000 		call	readBytes@PLT
 912      00
 913              	.LEHE34:
 914 0662 898550FB 		movl	%eax, -1200(%rbp)
 914      FFFF
 915              	.LEHB35:
  72:testSvf2Csvf.cpp **** 	CHECK_EQUAL(FL_SUCCESS, fStatus);
 916              		.loc 3 72 0
 917 0668 E8000000 		call	_ZN8UnitTest11CurrentTest7DetailsEv@PLT
 917      00
 918 066d 488B08   		movq	(%rax), %rcx
 919 0670 488D85C0 		leaq	-1088(%rbp), %rax
 919      FBFFFF
 920 0677 BA480000 		movl	$72, %edx
 920      00
 921 067c 4889CE   		movq	%rcx, %rsi
 922 067f 4889C7   		movq	%rax, %rdi
 923 0682 E8000000 		call	_ZN8UnitTest11TestDetailsC1ERKS0_i@PLT
 923      00
 924              	.LEHE35:
 925              		.loc 3 72 0 is_stmt 0 discriminator 2
 926 0687 C78558FB 		movl	$0, -1192(%rbp)
 926      FFFF0000 
 926      0000
 927              	.LEHB36:
 928 0691 E8000000 		call	_ZN8UnitTest11CurrentTest7ResultsEv@PLT
 928      00
 929 0696 488B00   		movq	(%rax), %rax
 930 0699 488D8DC0 		leaq	-1088(%rbp), %rcx
 930      FBFFFF
 931 06a0 488D9550 		leaq	-1200(%rbp), %rdx
 931      FBFFFF
 932 06a7 488DB558 		leaq	-1192(%rbp), %rsi
 932      FBFFFF
 933 06ae 4889C7   		movq	%rax, %rdi
 934 06b1 E8000000 		call	_ZN8UnitTest10CheckEqualI8FLStatusS1_EEvRNS_11TestResultsERKT_RKT0_RKNS_11TestDetailsE
 934      00
 935              	.LEHE36:
 936              	.L59:
  73:testSvf2Csvf.cpp **** 	fStatus = readBytes(&headBuf, head, NULL);
 937              		.loc 3 73 0 is_stmt 1
 938 06b6 488B8D28 		movq	-1240(%rbp), %rcx
 938      FBFFFF
 939 06bd 488D8580 		leaq	-1152(%rbp), %rax
 939      FBFFFF
 940 06c4 BA000000 		movl	$0, %edx
 940      00
 941 06c9 4889CE   		movq	%rcx, %rsi
 942 06cc 4889C7   		movq	%rax, %rdi
 943              	.LEHB37:
 944 06cf E8000000 		call	readBytes@PLT
 944      00
 945              	.LEHE37:
 946 06d4 898550FB 		movl	%eax, -1200(%rbp)
 946      FFFF
 947              	.LEHB38:
  74:testSvf2Csvf.cpp **** 	CHECK_EQUAL(FL_SUCCESS, fStatus);
 948              		.loc 3 74 0
 949 06da E8000000 		call	_ZN8UnitTest11CurrentTest7DetailsEv@PLT
 949      00
 950 06df 488B08   		movq	(%rax), %rcx
 951 06e2 488D85C0 		leaq	-1088(%rbp), %rax
 951      FBFFFF
 952 06e9 BA4A0000 		movl	$74, %edx
 952      00
 953 06ee 4889CE   		movq	%rcx, %rsi
 954 06f1 4889C7   		movq	%rax, %rdi
 955 06f4 E8000000 		call	_ZN8UnitTest11TestDetailsC1ERKS0_i@PLT
 955      00
 956              	.LEHE38:
 957              		.loc 3 74 0 is_stmt 0 discriminator 2
 958 06f9 C78558FB 		movl	$0, -1192(%rbp)
 958      FFFF0000 
 958      0000
 959              	.LEHB39:
 960 0703 E8000000 		call	_ZN8UnitTest11CurrentTest7ResultsEv@PLT
 960      00
 961 0708 488B00   		movq	(%rax), %rax
 962 070b 488D8DC0 		leaq	-1088(%rbp), %rcx
 962      FBFFFF
 963 0712 488D9550 		leaq	-1200(%rbp), %rdx
 963      FBFFFF
 964 0719 488DB558 		leaq	-1192(%rbp), %rsi
 964      FBFFFF
 965 0720 4889C7   		movq	%rax, %rdi
 966 0723 E8000000 		call	_ZN8UnitTest10CheckEqualI8FLStatusS1_EEvRNS_11TestResultsERKT_RKT0_RKNS_11TestDetailsE
 966      00
 967              	.LEHE39:
 968              	.L63:
  75:testSvf2Csvf.cpp **** 	fStatus = readBytes(&tailBuf, tail, NULL);
 969              		.loc 3 75 0 is_stmt 1
 970 0728 488B8D20 		movq	-1248(%rbp), %rcx
 970      FBFFFF
 971 072f 488D85A0 		leaq	-1120(%rbp), %rax
 971      FBFFFF
 972 0736 BA000000 		movl	$0, %edx
 972      00
 973 073b 4889CE   		movq	%rcx, %rsi
 974 073e 4889C7   		movq	%rax, %rdi
 975              	.LEHB40:
 976 0741 E8000000 		call	readBytes@PLT
 976      00
 977              	.LEHE40:
 978 0746 898550FB 		movl	%eax, -1200(%rbp)
 978      FFFF
 979              	.LEHB41:
  76:testSvf2Csvf.cpp **** 	CHECK_EQUAL(FL_SUCCESS, fStatus);
 980              		.loc 3 76 0
 981 074c E8000000 		call	_ZN8UnitTest11CurrentTest7DetailsEv@PLT
 981      00
 982 0751 488B08   		movq	(%rax), %rcx
 983 0754 488D85C0 		leaq	-1088(%rbp), %rax
 983      FBFFFF
 984 075b BA4C0000 		movl	$76, %edx
 984      00
 985 0760 4889CE   		movq	%rcx, %rsi
 986 0763 4889C7   		movq	%rax, %rdi
 987 0766 E8000000 		call	_ZN8UnitTest11TestDetailsC1ERKS0_i@PLT
 987      00
 988              	.LEHE41:
 989              		.loc 3 76 0 is_stmt 0 discriminator 2
 990 076b C78558FB 		movl	$0, -1192(%rbp)
 990      FFFF0000 
 990      0000
 991              	.LEHB42:
 992 0775 E8000000 		call	_ZN8UnitTest11CurrentTest7ResultsEv@PLT
 992      00
 993 077a 488B00   		movq	(%rax), %rax
 994 077d 488D8DC0 		leaq	-1088(%rbp), %rcx
 994      FBFFFF
 995 0784 488D9550 		leaq	-1200(%rbp), %rdx
 995      FBFFFF
 996 078b 488DB558 		leaq	-1192(%rbp), %rsi
 996      FBFFFF
 997 0792 4889C7   		movq	%rax, %rdi
 998 0795 E8000000 		call	_ZN8UnitTest10CheckEqualI8FLStatusS1_EEvRNS_11TestResultsERKT_RKT0_RKNS_11TestDetailsE
 998      00
 999              	.LEHE42:
 1000              	.L67:
  77:testSvf2Csvf.cpp **** 	fStatus = headTail(&lineBuf, &headBuf, &tailBuf, lineBits, headBits, tailBits, NULL);
 1001              		.loc 3 77 0 is_stmt 1
 1002 079a 448B851C 		movl	-1252(%rbp), %r8d
 1002      FBFFFF
 1003 07a1 8BBD30FB 		movl	-1232(%rbp), %edi
 1003      FFFF
 1004 07a7 8B8D34FB 		movl	-1228(%rbp), %ecx
 1004      FFFF
 1005 07ad 488D95A0 		leaq	-1120(%rbp), %rdx
 1005      FBFFFF
 1006 07b4 488DB580 		leaq	-1152(%rbp), %rsi
 1006      FBFFFF
 1007 07bb 488D8560 		leaq	-1184(%rbp), %rax
 1007      FBFFFF
 1008 07c2 4883EC08 		subq	$8, %rsp
 1009 07c6 6A00     		pushq	$0
 1010 07c8 4589C1   		movl	%r8d, %r9d
 1011 07cb 4189F8   		movl	%edi, %r8d
 1012 07ce 4889C7   		movq	%rax, %rdi
 1013              	.LEHB43:
 1014 07d1 E8000000 		call	headTail@PLT
 1014      00
 1015              	.LEHE43:
 1016 07d6 4883C410 		addq	$16, %rsp
 1017 07da 898550FB 		movl	%eax, -1200(%rbp)
 1017      FFFF
 1018              	.LEHB44:
  78:testSvf2Csvf.cpp **** 	CHECK_EQUAL(FL_SUCCESS, fStatus);
 1019              		.loc 3 78 0
 1020 07e0 E8000000 		call	_ZN8UnitTest11CurrentTest7DetailsEv@PLT
 1020      00
 1021 07e5 488B08   		movq	(%rax), %rcx
 1022 07e8 488D85C0 		leaq	-1088(%rbp), %rax
 1022      FBFFFF
 1023 07ef BA4E0000 		movl	$78, %edx
 1023      00
 1024 07f4 4889CE   		movq	%rcx, %rsi
 1025 07f7 4889C7   		movq	%rax, %rdi
 1026 07fa E8000000 		call	_ZN8UnitTest11TestDetailsC1ERKS0_i@PLT
 1026      00
 1027              	.LEHE44:
 1028              		.loc 3 78 0 is_stmt 0 discriminator 2
 1029 07ff C78558FB 		movl	$0, -1192(%rbp)
 1029      FFFF0000 
 1029      0000
 1030              	.LEHB45:
 1031 0809 E8000000 		call	_ZN8UnitTest11CurrentTest7ResultsEv@PLT
 1031      00
 1032 080e 488B00   		movq	(%rax), %rax
 1033 0811 488D8DC0 		leaq	-1088(%rbp), %rcx
 1033      FBFFFF
 1034 0818 488D9550 		leaq	-1200(%rbp), %rdx
 1034      FBFFFF
 1035 081f 488DB558 		leaq	-1192(%rbp), %rsi
 1035      FBFFFF
 1036 0826 4889C7   		movq	%rax, %rdi
 1037 0829 E8000000 		call	_ZN8UnitTest10CheckEqualI8FLStatusS1_EEvRNS_11TestResultsERKT_RKT0_RKNS_11TestDetailsE
 1037      00
 1038              	.LEHE45:
 1039              	.L71:
 1040              	.LEHB46:
  79:testSvf2Csvf.cpp **** 	CHECK_EQUAL(strlen(expectedHex)/2, lineBuf.length);
 1041              		.loc 3 79 0 is_stmt 1
 1042 082e E8000000 		call	_ZN8UnitTest11CurrentTest7DetailsEv@PLT
 1042      00
 1043 0833 488B08   		movq	(%rax), %rcx
 1044 0836 488D85C0 		leaq	-1088(%rbp), %rax
 1044      FBFFFF
 1045 083d BA4F0000 		movl	$79, %edx
 1045      00
 1046 0842 4889CE   		movq	%rcx, %rsi
 1047 0845 4889C7   		movq	%rax, %rdi
 1048 0848 E8000000 		call	_ZN8UnitTest11TestDetailsC1ERKS0_i@PLT
 1048      00
 1049              	.LEHE46:
 1050              		.loc 3 79 0 is_stmt 0 discriminator 2
 1051 084d 488B8510 		movq	-1264(%rbp), %rax
 1051      FBFFFF
 1052 0854 4889C7   		movq	%rax, %rdi
 1053 0857 E8000000 		call	strlen@PLT
 1053      00
 1054 085c 48D1E8   		shrq	%rax
 1055 085f 48898558 		movq	%rax, -1192(%rbp)
 1055      FBFFFF
 1056              	.LEHB47:
 1057 0866 E8000000 		call	_ZN8UnitTest11CurrentTest7ResultsEv@PLT
 1057      00
 1058 086b 488B00   		movq	(%rax), %rax
 1059 086e 488D95C0 		leaq	-1088(%rbp), %rdx
 1059      FBFFFF
 1060 0875 488D8D60 		leaq	-1184(%rbp), %rcx
 1060      FBFFFF
 1061 087c 488D7908 		leaq	8(%rcx), %rdi
 1062 0880 488DB558 		leaq	-1192(%rbp), %rsi
 1062      FBFFFF
 1063 0887 4889D1   		movq	%rdx, %rcx
 1064 088a 4889FA   		movq	%rdi, %rdx
 1065 088d 4889C7   		movq	%rax, %rdi
 1066 0890 E8000000 		call	_ZN8UnitTest10CheckEqualImmEEvRNS_11TestResultsERKT_RKT0_RKNS_11TestDetailsE
 1066      00
 1067              	.LEHE47:
 1068              	.L75:
 1069              	.LBB6:
  80:testSvf2Csvf.cpp **** 	for ( uint32 i = 0; i < 2*lineBuf.length; i++ ) {
 1070              		.loc 3 80 0 is_stmt 1
 1071 0895 C78554FB 		movl	$0, -1196(%rbp)
 1071      FFFF0000 
 1071      0000
 1072              	.L44:
 1073              		.loc 3 80 0 is_stmt 0 discriminator 3
 1074 089f 8B8554FB 		movl	-1196(%rbp), %eax
 1074      FFFF
 1075 08a5 488B9568 		movq	-1176(%rbp), %rdx
 1075      FBFFFF
 1076 08ac 4801D2   		addq	%rdx, %rdx
 1077 08af 4839D0   		cmpq	%rdx, %rax
 1078 08b2 7349     		jnb	.L43
  81:testSvf2Csvf.cpp ****         sprintf(resultHex + 2*i, "%02X", lineBuf.data[i]);
 1079              		.loc 3 81 0 is_stmt 1 discriminator 2
 1080 08b4 488B9560 		movq	-1184(%rbp), %rdx
 1080      FBFFFF
 1081 08bb 8B8554FB 		movl	-1196(%rbp), %eax
 1081      FFFF
 1082 08c1 4801D0   		addq	%rdx, %rax
 1083 08c4 0FB600   		movzbl	(%rax), %eax
 1084 08c7 0FB6C0   		movzbl	%al, %eax
 1085 08ca 8B9554FB 		movl	-1196(%rbp), %edx
 1085      FFFF
 1086 08d0 01D2     		addl	%edx, %edx
 1087 08d2 89D1     		movl	%edx, %ecx
 1088 08d4 488D95E0 		leaq	-1056(%rbp), %rdx
 1088      FBFFFF
 1089 08db 4801D1   		addq	%rdx, %rcx
 1090 08de 89C2     		movl	%eax, %edx
 1091 08e0 488D3500 		leaq	.LC1(%rip), %rsi
 1091      000000
 1092 08e7 4889CF   		movq	%rcx, %rdi
 1093 08ea B8000000 		movl	$0, %eax
 1093      00
 1094 08ef E8000000 		call	sprintf@PLT
 1094      00
  80:testSvf2Csvf.cpp **** 	for ( uint32 i = 0; i < 2*lineBuf.length; i++ ) {
 1095              		.loc 3 80 0 discriminator 2
 1096 08f4 838554FB 		addl	$1, -1196(%rbp)
 1096      FFFF01
 1097 08fb EBA2     		jmp	.L44
 1098              	.L43:
 1099              	.LBE6:
  82:testSvf2Csvf.cpp ****     }
  83:testSvf2Csvf.cpp ****     resultHex[2*lineBuf.length] = '\0';
 1100              		.loc 3 83 0
 1101 08fd 488B8568 		movq	-1176(%rbp), %rax
 1101      FBFFFF
 1102 0904 4801C0   		addq	%rax, %rax
 1103 0907 C68405E0 		movb	$0, -1056(%rbp,%rax)
 1103      FBFFFF00 
 1104              	.LEHB48:
  84:testSvf2Csvf.cpp ****     CHECK_EQUAL(expectedHex, resultHex);
 1105              		.loc 3 84 0
 1106 090f E8000000 		call	_ZN8UnitTest11CurrentTest7DetailsEv@PLT
 1106      00
 1107 0914 488B08   		movq	(%rax), %rcx
 1108 0917 488D85C0 		leaq	-1088(%rbp), %rax
 1108      FBFFFF
 1109 091e BA540000 		movl	$84, %edx
 1109      00
 1110 0923 4889CE   		movq	%rcx, %rsi
 1111 0926 4889C7   		movq	%rax, %rdi
 1112 0929 E8000000 		call	_ZN8UnitTest11TestDetailsC1ERKS0_i@PLT
 1112      00
 1113              		.loc 3 84 0 is_stmt 0 discriminator 2
 1114 092e E8000000 		call	_ZN8UnitTest11CurrentTest7ResultsEv@PLT
 1114      00
 1115 0933 488B00   		movq	(%rax), %rax
 1116 0936 488D8DC0 		leaq	-1088(%rbp), %rcx
 1116      FBFFFF
 1117 093d 488D95E0 		leaq	-1056(%rbp), %rdx
 1117      FBFFFF
 1118 0944 488BB510 		movq	-1264(%rbp), %rsi
 1118      FBFFFF
 1119 094b 4889C7   		movq	%rax, %rdi
 1120 094e E8000000 		call	_ZN8UnitTest10CheckEqualERNS_11TestResultsEPKcPcRKNS_11TestDetailsE@PLT
 1120      00
 1121              	.LEHE48:
 1122              	.L78:
  85:testSvf2Csvf.cpp **** 	bufDestroy(&tailBuf);
 1123              		.loc 3 85 0 is_stmt 1
 1124 0953 488D85A0 		leaq	-1120(%rbp), %rax
 1124      FBFFFF
 1125 095a 4889C7   		movq	%rax, %rdi
 1126              	.LEHB49:
 1127 095d E8000000 		call	bufDestroy@PLT
 1127      00
  86:testSvf2Csvf.cpp **** 	bufDestroy(&headBuf);
 1128              		.loc 3 86 0
 1129 0962 488D8580 		leaq	-1152(%rbp), %rax
 1129      FBFFFF
 1130 0969 4889C7   		movq	%rax, %rdi
 1131 096c E8000000 		call	bufDestroy@PLT
 1131      00
  87:testSvf2Csvf.cpp **** 	bufDestroy(&lineBuf);
 1132              		.loc 3 87 0
 1133 0971 488D8560 		leaq	-1184(%rbp), %rax
 1133      FBFFFF
 1134 0978 4889C7   		movq	%rax, %rdi
 1135 097b E8000000 		call	bufDestroy@PLT
 1135      00
 1136              	.LEHE49:
  88:testSvf2Csvf.cpp **** }	
 1137              		.loc 3 88 0
 1138 0980 90       		nop
 1139 0981 488B45E8 		movq	-24(%rbp), %rax
 1140 0985 64483304 		xorq	%fs:40, %rax
 1140      25280000 
 1140      00
 1141 098e 0F84A703 		je	.L80
 1141      0000
 1142 0994 E99D0300 		jmp	.L107
 1142      00
 1143              	.L82:
 1144 0999 EB00     		jmp	.L46
 1145              	.L81:
 1146              	.L46:
  66:testSvf2Csvf.cpp **** 	bStatus = bufInitialise(&headBuf, 1024, 0x00, NULL);
 1147              		.loc 3 66 0
 1148 099b 4889C7   		movq	%rax, %rdi
 1149 099e E8000000 		call	__cxa_begin_catch@PLT
 1149      00
 1150              	.LEHB50:
 1151 09a3 E8000000 		call	_ZN8UnitTest11CurrentTest7ResultsEv@PLT
 1151      00
 1152 09a8 488B18   		movq	(%rax), %rbx
 1153 09ab E8000000 		call	_ZN8UnitTest11CurrentTest7DetailsEv@PLT
 1153      00
  66:testSvf2Csvf.cpp **** 	bStatus = bufInitialise(&headBuf, 1024, 0x00, NULL);
 1154              		.loc 3 66 0 is_stmt 0 discriminator 8
 1155 09b0 488B08   		movq	(%rax), %rcx
 1156 09b3 488D85C0 		leaq	-1088(%rbp), %rax
 1156      FBFFFF
 1157 09ba BA420000 		movl	$66, %edx
 1157      00
 1158 09bf 4889CE   		movq	%rcx, %rsi
 1159 09c2 4889C7   		movq	%rax, %rdi
 1160 09c5 E8000000 		call	_ZN8UnitTest11TestDetailsC1ERKS0_i@PLT
 1160      00
  66:testSvf2Csvf.cpp **** 	bStatus = bufInitialise(&headBuf, 1024, 0x00, NULL);
 1161              		.loc 3 66 0 discriminator 12
 1162 09ca 488D85C0 		leaq	-1088(%rbp), %rax
 1162      FBFFFF
 1163 09d1 488D1500 		leaq	.LC13(%rip), %rdx
 1163      000000
 1164 09d8 4889C6   		movq	%rax, %rsi
 1165 09db 4889DF   		movq	%rbx, %rdi
 1166 09de E8000000 		call	_ZN8UnitTest11TestResults13OnTestFailureERKNS_11TestDetailsEPKc@PLT
 1166      00
 1167              	.LEHE50:
 1168              	.LEHB51:
  66:testSvf2Csvf.cpp **** 	bStatus = bufInitialise(&headBuf, 1024, 0x00, NULL);
 1169              		.loc 3 66 0 discriminator 14
 1170 09e3 E8000000 		call	__cxa_end_catch@PLT
 1170      00
 1171              	.LEHE51:
 1172 09e8 E973FBFF 		jmp	.L47
 1172      FF
 1173              	.L83:
 1174 09ed 4889C3   		movq	%rax, %rbx
  66:testSvf2Csvf.cpp **** 	bStatus = bufInitialise(&headBuf, 1024, 0x00, NULL);
 1175              		.loc 3 66 0
 1176 09f0 E8000000 		call	__cxa_end_catch@PLT
 1176      00
 1177 09f5 4889D8   		movq	%rbx, %rax
 1178 09f8 4889C7   		movq	%rax, %rdi
 1179              	.LEHB52:
 1180 09fb E8000000 		call	_Unwind_Resume@PLT
 1180      00
 1181              	.LEHE52:
 1182              	.L85:
 1183 0a00 EB00     		jmp	.L50
 1184              	.L84:
 1185              	.L50:
  68:testSvf2Csvf.cpp **** 	bStatus = bufInitialise(&tailBuf, 1024, 0x00, NULL);
 1186              		.loc 3 68 0 is_stmt 1
 1187 0a02 4889C7   		movq	%rax, %rdi
 1188 0a05 E8000000 		call	__cxa_begin_catch@PLT
 1188      00
 1189              	.LEHB53:
 1190 0a0a E8000000 		call	_ZN8UnitTest11CurrentTest7ResultsEv@PLT
 1190      00
 1191 0a0f 488B18   		movq	(%rax), %rbx
 1192 0a12 E8000000 		call	_ZN8UnitTest11CurrentTest7DetailsEv@PLT
 1192      00
  68:testSvf2Csvf.cpp **** 	bStatus = bufInitialise(&tailBuf, 1024, 0x00, NULL);
 1193              		.loc 3 68 0 is_stmt 0 discriminator 8
 1194 0a17 488B08   		movq	(%rax), %rcx
 1195 0a1a 488D85C0 		leaq	-1088(%rbp), %rax
 1195      FBFFFF
 1196 0a21 BA440000 		movl	$68, %edx
 1196      00
 1197 0a26 4889CE   		movq	%rcx, %rsi
 1198 0a29 4889C7   		movq	%rax, %rdi
 1199 0a2c E8000000 		call	_ZN8UnitTest11TestDetailsC1ERKS0_i@PLT
 1199      00
  68:testSvf2Csvf.cpp **** 	bStatus = bufInitialise(&tailBuf, 1024, 0x00, NULL);
 1200              		.loc 3 68 0 discriminator 12
 1201 0a31 488D85C0 		leaq	-1088(%rbp), %rax
 1201      FBFFFF
 1202 0a38 488D1500 		leaq	.LC13(%rip), %rdx
 1202      000000
 1203 0a3f 4889C6   		movq	%rax, %rsi
 1204 0a42 4889DF   		movq	%rbx, %rdi
 1205 0a45 E8000000 		call	_ZN8UnitTest11TestResults13OnTestFailureERKNS_11TestDetailsEPKc@PLT
 1205      00
 1206              	.LEHE53:
 1207              	.LEHB54:
  68:testSvf2Csvf.cpp **** 	bStatus = bufInitialise(&tailBuf, 1024, 0x00, NULL);
 1208              		.loc 3 68 0 discriminator 14
 1209 0a4a E8000000 		call	__cxa_end_catch@PLT
 1209      00
 1210              	.LEHE54:
 1211 0a4f E97EFBFF 		jmp	.L51
 1211      FF
 1212              	.L86:
 1213 0a54 4889C3   		movq	%rax, %rbx
  68:testSvf2Csvf.cpp **** 	bStatus = bufInitialise(&tailBuf, 1024, 0x00, NULL);
 1214              		.loc 3 68 0
 1215 0a57 E8000000 		call	__cxa_end_catch@PLT
 1215      00
 1216 0a5c 4889D8   		movq	%rbx, %rax
 1217 0a5f 4889C7   		movq	%rax, %rdi
 1218              	.LEHB55:
 1219 0a62 E8000000 		call	_Unwind_Resume@PLT
 1219      00
 1220              	.LEHE55:
 1221              	.L88:
 1222 0a67 EB00     		jmp	.L54
 1223              	.L87:
 1224              	.L54:
  70:testSvf2Csvf.cpp **** 	fStatus = readBytes(&lineBuf, line, NULL);
 1225              		.loc 3 70 0 is_stmt 1
 1226 0a69 4889C7   		movq	%rax, %rdi
 1227 0a6c E8000000 		call	__cxa_begin_catch@PLT
 1227      00
 1228              	.LEHB56:
 1229 0a71 E8000000 		call	_ZN8UnitTest11CurrentTest7ResultsEv@PLT
 1229      00
 1230 0a76 488B18   		movq	(%rax), %rbx
 1231 0a79 E8000000 		call	_ZN8UnitTest11CurrentTest7DetailsEv@PLT
 1231      00
  70:testSvf2Csvf.cpp **** 	fStatus = readBytes(&lineBuf, line, NULL);
 1232              		.loc 3 70 0 is_stmt 0 discriminator 8
 1233 0a7e 488B08   		movq	(%rax), %rcx
 1234 0a81 488D85C0 		leaq	-1088(%rbp), %rax
 1234      FBFFFF
 1235 0a88 BA460000 		movl	$70, %edx
 1235      00
 1236 0a8d 4889CE   		movq	%rcx, %rsi
 1237 0a90 4889C7   		movq	%rax, %rdi
 1238 0a93 E8000000 		call	_ZN8UnitTest11TestDetailsC1ERKS0_i@PLT
 1238      00
  70:testSvf2Csvf.cpp **** 	fStatus = readBytes(&lineBuf, line, NULL);
 1239              		.loc 3 70 0 discriminator 12
 1240 0a98 488D85C0 		leaq	-1088(%rbp), %rax
 1240      FBFFFF
 1241 0a9f 488D1500 		leaq	.LC13(%rip), %rdx
 1241      000000
 1242 0aa6 4889C6   		movq	%rax, %rsi
 1243 0aa9 4889DF   		movq	%rbx, %rdi
 1244 0aac E8000000 		call	_ZN8UnitTest11TestResults13OnTestFailureERKNS_11TestDetailsEPKc@PLT
 1244      00
 1245              	.LEHE56:
 1246              	.LEHB57:
  70:testSvf2Csvf.cpp **** 	fStatus = readBytes(&lineBuf, line, NULL);
 1247              		.loc 3 70 0 discriminator 14
 1248 0ab1 E8000000 		call	__cxa_end_catch@PLT
 1248      00
 1249              	.LEHE57:
 1250 0ab6 E989FBFF 		jmp	.L55
 1250      FF
 1251              	.L89:
 1252 0abb 4889C3   		movq	%rax, %rbx
  70:testSvf2Csvf.cpp **** 	fStatus = readBytes(&lineBuf, line, NULL);
 1253              		.loc 3 70 0
 1254 0abe E8000000 		call	__cxa_end_catch@PLT
 1254      00
 1255 0ac3 4889D8   		movq	%rbx, %rax
 1256 0ac6 4889C7   		movq	%rax, %rdi
 1257              	.LEHB58:
 1258 0ac9 E8000000 		call	_Unwind_Resume@PLT
 1258      00
 1259              	.LEHE58:
 1260              	.L91:
 1261 0ace EB00     		jmp	.L58
 1262              	.L90:
 1263              	.L58:
  72:testSvf2Csvf.cpp **** 	fStatus = readBytes(&headBuf, head, NULL);
 1264              		.loc 3 72 0 is_stmt 1
 1265 0ad0 4889C7   		movq	%rax, %rdi
 1266 0ad3 E8000000 		call	__cxa_begin_catch@PLT
 1266      00
 1267              	.LEHB59:
 1268 0ad8 E8000000 		call	_ZN8UnitTest11CurrentTest7ResultsEv@PLT
 1268      00
 1269 0add 488B18   		movq	(%rax), %rbx
 1270 0ae0 E8000000 		call	_ZN8UnitTest11CurrentTest7DetailsEv@PLT
 1270      00
  72:testSvf2Csvf.cpp **** 	fStatus = readBytes(&headBuf, head, NULL);
 1271              		.loc 3 72 0 is_stmt 0 discriminator 8
 1272 0ae5 488B08   		movq	(%rax), %rcx
 1273 0ae8 488D85C0 		leaq	-1088(%rbp), %rax
 1273      FBFFFF
 1274 0aef BA480000 		movl	$72, %edx
 1274      00
 1275 0af4 4889CE   		movq	%rcx, %rsi
 1276 0af7 4889C7   		movq	%rax, %rdi
 1277 0afa E8000000 		call	_ZN8UnitTest11TestDetailsC1ERKS0_i@PLT
 1277      00
  72:testSvf2Csvf.cpp **** 	fStatus = readBytes(&headBuf, head, NULL);
 1278              		.loc 3 72 0 discriminator 12
 1279 0aff 488D85C0 		leaq	-1088(%rbp), %rax
 1279      FBFFFF
 1280 0b06 488D1500 		leaq	.LC2(%rip), %rdx
 1280      000000
 1281 0b0d 4889C6   		movq	%rax, %rsi
 1282 0b10 4889DF   		movq	%rbx, %rdi
 1283 0b13 E8000000 		call	_ZN8UnitTest11TestResults13OnTestFailureERKNS_11TestDetailsEPKc@PLT
 1283      00
 1284              	.LEHE59:
 1285              	.LEHB60:
  72:testSvf2Csvf.cpp **** 	fStatus = readBytes(&headBuf, head, NULL);
 1286              		.loc 3 72 0 discriminator 14
 1287 0b18 E8000000 		call	__cxa_end_catch@PLT
 1287      00
 1288              	.LEHE60:
 1289 0b1d E994FBFF 		jmp	.L59
 1289      FF
 1290              	.L92:
 1291 0b22 4889C3   		movq	%rax, %rbx
  72:testSvf2Csvf.cpp **** 	fStatus = readBytes(&headBuf, head, NULL);
 1292              		.loc 3 72 0
 1293 0b25 E8000000 		call	__cxa_end_catch@PLT
 1293      00
 1294 0b2a 4889D8   		movq	%rbx, %rax
 1295 0b2d 4889C7   		movq	%rax, %rdi
 1296              	.LEHB61:
 1297 0b30 E8000000 		call	_Unwind_Resume@PLT
 1297      00
 1298              	.LEHE61:
 1299              	.L94:
 1300 0b35 EB00     		jmp	.L62
 1301              	.L93:
 1302              	.L62:
  74:testSvf2Csvf.cpp **** 	fStatus = readBytes(&tailBuf, tail, NULL);
 1303              		.loc 3 74 0 is_stmt 1
 1304 0b37 4889C7   		movq	%rax, %rdi
 1305 0b3a E8000000 		call	__cxa_begin_catch@PLT
 1305      00
 1306              	.LEHB62:
 1307 0b3f E8000000 		call	_ZN8UnitTest11CurrentTest7ResultsEv@PLT
 1307      00
 1308 0b44 488B18   		movq	(%rax), %rbx
 1309 0b47 E8000000 		call	_ZN8UnitTest11CurrentTest7DetailsEv@PLT
 1309      00
  74:testSvf2Csvf.cpp **** 	fStatus = readBytes(&tailBuf, tail, NULL);
 1310              		.loc 3 74 0 is_stmt 0 discriminator 8
 1311 0b4c 488B08   		movq	(%rax), %rcx
 1312 0b4f 488D85C0 		leaq	-1088(%rbp), %rax
 1312      FBFFFF
 1313 0b56 BA4A0000 		movl	$74, %edx
 1313      00
 1314 0b5b 4889CE   		movq	%rcx, %rsi
 1315 0b5e 4889C7   		movq	%rax, %rdi
 1316 0b61 E8000000 		call	_ZN8UnitTest11TestDetailsC1ERKS0_i@PLT
 1316      00
  74:testSvf2Csvf.cpp **** 	fStatus = readBytes(&tailBuf, tail, NULL);
 1317              		.loc 3 74 0 discriminator 12
 1318 0b66 488D85C0 		leaq	-1088(%rbp), %rax
 1318      FBFFFF
 1319 0b6d 488D1500 		leaq	.LC2(%rip), %rdx
 1319      000000
 1320 0b74 4889C6   		movq	%rax, %rsi
 1321 0b77 4889DF   		movq	%rbx, %rdi
 1322 0b7a E8000000 		call	_ZN8UnitTest11TestResults13OnTestFailureERKNS_11TestDetailsEPKc@PLT
 1322      00
 1323              	.LEHE62:
 1324              	.LEHB63:
  74:testSvf2Csvf.cpp **** 	fStatus = readBytes(&tailBuf, tail, NULL);
 1325              		.loc 3 74 0 discriminator 14
 1326 0b7f E8000000 		call	__cxa_end_catch@PLT
 1326      00
 1327              	.LEHE63:
 1328 0b84 E99FFBFF 		jmp	.L63
 1328      FF
 1329              	.L95:
 1330 0b89 4889C3   		movq	%rax, %rbx
  74:testSvf2Csvf.cpp **** 	fStatus = readBytes(&tailBuf, tail, NULL);
 1331              		.loc 3 74 0
 1332 0b8c E8000000 		call	__cxa_end_catch@PLT
 1332      00
 1333 0b91 4889D8   		movq	%rbx, %rax
 1334 0b94 4889C7   		movq	%rax, %rdi
 1335              	.LEHB64:
 1336 0b97 E8000000 		call	_Unwind_Resume@PLT
 1336      00
 1337              	.LEHE64:
 1338              	.L97:
 1339 0b9c EB00     		jmp	.L66
 1340              	.L96:
 1341              	.L66:
  76:testSvf2Csvf.cpp **** 	fStatus = headTail(&lineBuf, &headBuf, &tailBuf, lineBits, headBits, tailBits, NULL);
 1342              		.loc 3 76 0 is_stmt 1
 1343 0b9e 4889C7   		movq	%rax, %rdi
 1344 0ba1 E8000000 		call	__cxa_begin_catch@PLT
 1344      00
 1345              	.LEHB65:
 1346 0ba6 E8000000 		call	_ZN8UnitTest11CurrentTest7ResultsEv@PLT
 1346      00
 1347 0bab 488B18   		movq	(%rax), %rbx
 1348 0bae E8000000 		call	_ZN8UnitTest11CurrentTest7DetailsEv@PLT
 1348      00
  76:testSvf2Csvf.cpp **** 	fStatus = headTail(&lineBuf, &headBuf, &tailBuf, lineBits, headBits, tailBits, NULL);
 1349              		.loc 3 76 0 is_stmt 0 discriminator 8
 1350 0bb3 488B08   		movq	(%rax), %rcx
 1351 0bb6 488D85C0 		leaq	-1088(%rbp), %rax
 1351      FBFFFF
 1352 0bbd BA4C0000 		movl	$76, %edx
 1352      00
 1353 0bc2 4889CE   		movq	%rcx, %rsi
 1354 0bc5 4889C7   		movq	%rax, %rdi
 1355 0bc8 E8000000 		call	_ZN8UnitTest11TestDetailsC1ERKS0_i@PLT
 1355      00
  76:testSvf2Csvf.cpp **** 	fStatus = headTail(&lineBuf, &headBuf, &tailBuf, lineBits, headBits, tailBits, NULL);
 1356              		.loc 3 76 0 discriminator 12
 1357 0bcd 488D85C0 		leaq	-1088(%rbp), %rax
 1357      FBFFFF
 1358 0bd4 488D1500 		leaq	.LC2(%rip), %rdx
 1358      000000
 1359 0bdb 4889C6   		movq	%rax, %rsi
 1360 0bde 4889DF   		movq	%rbx, %rdi
 1361 0be1 E8000000 		call	_ZN8UnitTest11TestResults13OnTestFailureERKNS_11TestDetailsEPKc@PLT
 1361      00
 1362              	.LEHE65:
 1363              	.LEHB66:
  76:testSvf2Csvf.cpp **** 	fStatus = headTail(&lineBuf, &headBuf, &tailBuf, lineBits, headBits, tailBits, NULL);
 1364              		.loc 3 76 0 discriminator 14
 1365 0be6 E8000000 		call	__cxa_end_catch@PLT
 1365      00
 1366              	.LEHE66:
 1367 0beb E9AAFBFF 		jmp	.L67
 1367      FF
 1368              	.L98:
 1369 0bf0 4889C3   		movq	%rax, %rbx
  76:testSvf2Csvf.cpp **** 	fStatus = headTail(&lineBuf, &headBuf, &tailBuf, lineBits, headBits, tailBits, NULL);
 1370              		.loc 3 76 0
 1371 0bf3 E8000000 		call	__cxa_end_catch@PLT
 1371      00
 1372 0bf8 4889D8   		movq	%rbx, %rax
 1373 0bfb 4889C7   		movq	%rax, %rdi
 1374              	.LEHB67:
 1375 0bfe E8000000 		call	_Unwind_Resume@PLT
 1375      00
 1376              	.LEHE67:
 1377              	.L100:
 1378 0c03 EB00     		jmp	.L70
 1379              	.L99:
 1380              	.L70:
  78:testSvf2Csvf.cpp **** 	CHECK_EQUAL(strlen(expectedHex)/2, lineBuf.length);
 1381              		.loc 3 78 0 is_stmt 1
 1382 0c05 4889C7   		movq	%rax, %rdi
 1383 0c08 E8000000 		call	__cxa_begin_catch@PLT
 1383      00
 1384              	.LEHB68:
 1385 0c0d E8000000 		call	_ZN8UnitTest11CurrentTest7ResultsEv@PLT
 1385      00
 1386 0c12 488B18   		movq	(%rax), %rbx
 1387 0c15 E8000000 		call	_ZN8UnitTest11CurrentTest7DetailsEv@PLT
 1387      00
  78:testSvf2Csvf.cpp **** 	CHECK_EQUAL(strlen(expectedHex)/2, lineBuf.length);
 1388              		.loc 3 78 0 is_stmt 0 discriminator 8
 1389 0c1a 488B08   		movq	(%rax), %rcx
 1390 0c1d 488D85C0 		leaq	-1088(%rbp), %rax
 1390      FBFFFF
 1391 0c24 BA4E0000 		movl	$78, %edx
 1391      00
 1392 0c29 4889CE   		movq	%rcx, %rsi
 1393 0c2c 4889C7   		movq	%rax, %rdi
 1394 0c2f E8000000 		call	_ZN8UnitTest11TestDetailsC1ERKS0_i@PLT
 1394      00
  78:testSvf2Csvf.cpp **** 	CHECK_EQUAL(strlen(expectedHex)/2, lineBuf.length);
 1395              		.loc 3 78 0 discriminator 12
 1396 0c34 488D85C0 		leaq	-1088(%rbp), %rax
 1396      FBFFFF
 1397 0c3b 488D1500 		leaq	.LC2(%rip), %rdx
 1397      000000
 1398 0c42 4889C6   		movq	%rax, %rsi
 1399 0c45 4889DF   		movq	%rbx, %rdi
 1400 0c48 E8000000 		call	_ZN8UnitTest11TestResults13OnTestFailureERKNS_11TestDetailsEPKc@PLT
 1400      00
 1401              	.LEHE68:
 1402              	.LEHB69:
  78:testSvf2Csvf.cpp **** 	CHECK_EQUAL(strlen(expectedHex)/2, lineBuf.length);
 1403              		.loc 3 78 0 discriminator 14
 1404 0c4d E8000000 		call	__cxa_end_catch@PLT
 1404      00
 1405              	.LEHE69:
 1406 0c52 E9D7FBFF 		jmp	.L71
 1406      FF
 1407              	.L101:
 1408 0c57 4889C3   		movq	%rax, %rbx
  78:testSvf2Csvf.cpp **** 	CHECK_EQUAL(strlen(expectedHex)/2, lineBuf.length);
 1409              		.loc 3 78 0
 1410 0c5a E8000000 		call	__cxa_end_catch@PLT
 1410      00
 1411 0c5f 4889D8   		movq	%rbx, %rax
 1412 0c62 4889C7   		movq	%rax, %rdi
 1413              	.LEHB70:
 1414 0c65 E8000000 		call	_Unwind_Resume@PLT
 1414      00
 1415              	.LEHE70:
 1416              	.L103:
 1417 0c6a EB00     		jmp	.L74
 1418              	.L102:
 1419              	.L74:
  79:testSvf2Csvf.cpp **** 	for ( uint32 i = 0; i < 2*lineBuf.length; i++ ) {
 1420              		.loc 3 79 0 is_stmt 1
 1421 0c6c 4889C7   		movq	%rax, %rdi
 1422 0c6f E8000000 		call	__cxa_begin_catch@PLT
 1422      00
 1423              	.LEHB71:
 1424 0c74 E8000000 		call	_ZN8UnitTest11CurrentTest7ResultsEv@PLT
 1424      00
 1425 0c79 488B18   		movq	(%rax), %rbx
 1426 0c7c E8000000 		call	_ZN8UnitTest11CurrentTest7DetailsEv@PLT
 1426      00
  79:testSvf2Csvf.cpp **** 	for ( uint32 i = 0; i < 2*lineBuf.length; i++ ) {
 1427              		.loc 3 79 0 is_stmt 0 discriminator 8
 1428 0c81 488B08   		movq	(%rax), %rcx
 1429 0c84 488D85C0 		leaq	-1088(%rbp), %rax
 1429      FBFFFF
 1430 0c8b BA4F0000 		movl	$79, %edx
 1430      00
 1431 0c90 4889CE   		movq	%rcx, %rsi
 1432 0c93 4889C7   		movq	%rax, %rdi
 1433 0c96 E8000000 		call	_ZN8UnitTest11TestDetailsC1ERKS0_i@PLT
 1433      00
  79:testSvf2Csvf.cpp **** 	for ( uint32 i = 0; i < 2*lineBuf.length; i++ ) {
 1434              		.loc 3 79 0 discriminator 12
 1435 0c9b 488D85C0 		leaq	-1088(%rbp), %rax
 1435      FBFFFF
 1436 0ca2 488D1500 		leaq	.LC14(%rip), %rdx
 1436      000000
 1437 0ca9 4889C6   		movq	%rax, %rsi
 1438 0cac 4889DF   		movq	%rbx, %rdi
 1439 0caf E8000000 		call	_ZN8UnitTest11TestResults13OnTestFailureERKNS_11TestDetailsEPKc@PLT
 1439      00
 1440              	.LEHE71:
 1441              	.LEHB72:
  79:testSvf2Csvf.cpp **** 	for ( uint32 i = 0; i < 2*lineBuf.length; i++ ) {
 1442              		.loc 3 79 0 discriminator 14
 1443 0cb4 E8000000 		call	__cxa_end_catch@PLT
 1443      00
 1444              	.LEHE72:
 1445 0cb9 E9D7FBFF 		jmp	.L75
 1445      FF
 1446              	.L104:
 1447 0cbe 4889C3   		movq	%rax, %rbx
  79:testSvf2Csvf.cpp **** 	for ( uint32 i = 0; i < 2*lineBuf.length; i++ ) {
 1448              		.loc 3 79 0
 1449 0cc1 E8000000 		call	__cxa_end_catch@PLT
 1449      00
 1450 0cc6 4889D8   		movq	%rbx, %rax
 1451 0cc9 4889C7   		movq	%rax, %rdi
 1452              	.LEHB73:
 1453 0ccc E8000000 		call	_Unwind_Resume@PLT
 1453      00
 1454              	.LEHE73:
 1455              	.L105:
  84:testSvf2Csvf.cpp **** 	bufDestroy(&tailBuf);
 1456              		.loc 3 84 0 is_stmt 1
 1457 0cd1 4889C7   		movq	%rax, %rdi
 1458 0cd4 E8000000 		call	__cxa_begin_catch@PLT
 1458      00
 1459              	.LEHB74:
 1460 0cd9 E8000000 		call	_ZN8UnitTest11CurrentTest7ResultsEv@PLT
 1460      00
 1461 0cde 488B18   		movq	(%rax), %rbx
 1462 0ce1 E8000000 		call	_ZN8UnitTest11CurrentTest7DetailsEv@PLT
 1462      00
  84:testSvf2Csvf.cpp **** 	bufDestroy(&tailBuf);
 1463              		.loc 3 84 0 is_stmt 0 discriminator 8
 1464 0ce6 488B08   		movq	(%rax), %rcx
 1465 0ce9 488D85C0 		leaq	-1088(%rbp), %rax
 1465      FBFFFF
 1466 0cf0 BA540000 		movl	$84, %edx
 1466      00
 1467 0cf5 4889CE   		movq	%rcx, %rsi
 1468 0cf8 4889C7   		movq	%rax, %rdi
 1469 0cfb E8000000 		call	_ZN8UnitTest11TestDetailsC1ERKS0_i@PLT
 1469      00
  84:testSvf2Csvf.cpp **** 	bufDestroy(&tailBuf);
 1470              		.loc 3 84 0 discriminator 12
 1471 0d00 488D85C0 		leaq	-1088(%rbp), %rax
 1471      FBFFFF
 1472 0d07 488D1500 		leaq	.LC15(%rip), %rdx
 1472      000000
 1473 0d0e 4889C6   		movq	%rax, %rsi
 1474 0d11 4889DF   		movq	%rbx, %rdi
 1475 0d14 E8000000 		call	_ZN8UnitTest11TestResults13OnTestFailureERKNS_11TestDetailsEPKc@PLT
 1475      00
 1476              	.LEHE74:
 1477              	.LEHB75:
  84:testSvf2Csvf.cpp **** 	bufDestroy(&tailBuf);
 1478              		.loc 3 84 0 discriminator 14
 1479 0d19 E8000000 		call	__cxa_end_catch@PLT
 1479      00
 1480              	.LEHE75:
 1481 0d1e E930FCFF 		jmp	.L78
 1481      FF
 1482              	.L106:
 1483 0d23 4889C3   		movq	%rax, %rbx
  84:testSvf2Csvf.cpp **** 	bufDestroy(&tailBuf);
 1484              		.loc 3 84 0
 1485 0d26 E8000000 		call	__cxa_end_catch@PLT
 1485      00
 1486 0d2b 4889D8   		movq	%rbx, %rax
 1487 0d2e 4889C7   		movq	%rax, %rdi
 1488              	.LEHB76:
 1489 0d31 E8000000 		call	_Unwind_Resume@PLT
 1489      00
 1490              	.LEHE76:
 1491              	.L107:
 1492              		.loc 3 88 0 is_stmt 1
 1493 0d36 E8000000 		call	__stack_chk_fail@PLT
 1493      00
 1494              	.L80:
 1495 0d3b 488B5DF8 		movq	-8(%rbp), %rbx
 1496 0d3f C9       		leave
 1497              		.cfi_def_cfa 7, 8
 1498 0d40 C3       		ret
 1499              		.cfi_endproc
 1500              	.LFE1097:
 1501              		.section	.gcc_except_table
 1502              		.align 4
 1503              	.LLSDA1097:
 1504 0088 FF       		.byte	0xff
 1505 0089 9B       		.byte	0x9b
 1506 008a A802     		.uleb128 .LLSDATT1097-.LLSDATTD1097
 1507              	.LLSDATTD1097:
 1508 008c 01       		.byte	0x1
 1509 008d 9C02     		.uleb128 .LLSDACSE1097-.LLSDACSB1097
 1510              	.LLSDACSB1097:
 1511 008f 67       		.uleb128 .LEHB25-.LFB1097
 1512 0090 05       		.uleb128 .LEHE25-.LEHB25
 1513 0091 00       		.uleb128 0
 1514 0092 00       		.uleb128 0
 1515 0093 72       		.uleb128 .LEHB26-.LFB1097
 1516 0094 1F       		.uleb128 .LEHE26-.LEHB26
 1517 0095 FB09     		.uleb128 .L81-.LFB1097
 1518 0097 01       		.uleb128 0x1
 1519 0098 9B01     		.uleb128 .LEHB27-.LFB1097
 1520 009a 25       		.uleb128 .LEHE27-.LEHB27
 1521 009b F909     		.uleb128 .L82-.LFB1097
 1522 009d 03       		.uleb128 0x3
 1523 009e D901     		.uleb128 .LEHB28-.LFB1097
 1524 00a0 05       		.uleb128 .LEHE28-.LEHB28
 1525 00a1 00       		.uleb128 0
 1526 00a2 00       		.uleb128 0
 1527 00a3 E401     		.uleb128 .LEHB29-.LFB1097
 1528 00a5 1F       		.uleb128 .LEHE29-.LEHB29
 1529 00a6 E20A     		.uleb128 .L84-.LFB1097
 1530 00a8 01       		.uleb128 0x1
 1531 00a9 8D02     		.uleb128 .LEHB30-.LFB1097
 1532 00ab 25       		.uleb128 .LEHE30-.LEHB30
 1533 00ac E00A     		.uleb128 .L85-.LFB1097
 1534 00ae 03       		.uleb128 0x3
 1535 00af CB02     		.uleb128 .LEHB31-.LFB1097
 1536 00b1 05       		.uleb128 .LEHE31-.LEHB31
 1537 00b2 00       		.uleb128 0
 1538 00b3 00       		.uleb128 0
 1539 00b4 D602     		.uleb128 .LEHB32-.LFB1097
 1540 00b6 1F       		.uleb128 .LEHE32-.LEHB32
 1541 00b7 C90B     		.uleb128 .L87-.LFB1097
 1542 00b9 01       		.uleb128 0x1
 1543 00ba FF02     		.uleb128 .LEHB33-.LFB1097
 1544 00bc 25       		.uleb128 .LEHE33-.LEHB33
 1545 00bd C70B     		.uleb128 .L88-.LFB1097
 1546 00bf 03       		.uleb128 0x3
 1547 00c0 BD03     		.uleb128 .LEHB34-.LFB1097
 1548 00c2 05       		.uleb128 .LEHE34-.LEHB34
 1549 00c3 00       		.uleb128 0
 1550 00c4 00       		.uleb128 0
 1551 00c5 C803     		.uleb128 .LEHB35-.LFB1097
 1552 00c7 1F       		.uleb128 .LEHE35-.LEHB35
 1553 00c8 B00C     		.uleb128 .L90-.LFB1097
 1554 00ca 01       		.uleb128 0x1
 1555 00cb F103     		.uleb128 .LEHB36-.LFB1097
 1556 00cd 25       		.uleb128 .LEHE36-.LEHB36
 1557 00ce AE0C     		.uleb128 .L91-.LFB1097
 1558 00d0 03       		.uleb128 0x3
 1559 00d1 AF04     		.uleb128 .LEHB37-.LFB1097
 1560 00d3 05       		.uleb128 .LEHE37-.LEHB37
 1561 00d4 00       		.uleb128 0
 1562 00d5 00       		.uleb128 0
 1563 00d6 BA04     		.uleb128 .LEHB38-.LFB1097
 1564 00d8 1F       		.uleb128 .LEHE38-.LEHB38
 1565 00d9 970D     		.uleb128 .L93-.LFB1097
 1566 00db 01       		.uleb128 0x1
 1567 00dc E304     		.uleb128 .LEHB39-.LFB1097
 1568 00de 25       		.uleb128 .LEHE39-.LEHB39
 1569 00df 950D     		.uleb128 .L94-.LFB1097
 1570 00e1 03       		.uleb128 0x3
 1571 00e2 A105     		.uleb128 .LEHB40-.LFB1097
 1572 00e4 05       		.uleb128 .LEHE40-.LEHB40
 1573 00e5 00       		.uleb128 0
 1574 00e6 00       		.uleb128 0
 1575 00e7 AC05     		.uleb128 .LEHB41-.LFB1097
 1576 00e9 1F       		.uleb128 .LEHE41-.LEHB41
 1577 00ea FE0D     		.uleb128 .L96-.LFB1097
 1578 00ec 01       		.uleb128 0x1
 1579 00ed D505     		.uleb128 .LEHB42-.LFB1097
 1580 00ef 25       		.uleb128 .LEHE42-.LEHB42
 1581 00f0 FC0D     		.uleb128 .L97-.LFB1097
 1582 00f2 03       		.uleb128 0x3
 1583 00f3 B106     		.uleb128 .LEHB43-.LFB1097
 1584 00f5 05       		.uleb128 .LEHE43-.LEHB43
 1585 00f6 00       		.uleb128 0
 1586 00f7 00       		.uleb128 0
 1587 00f8 C006     		.uleb128 .LEHB44-.LFB1097
 1588 00fa 1F       		.uleb128 .LEHE44-.LEHB44
 1589 00fb E50E     		.uleb128 .L99-.LFB1097
 1590 00fd 01       		.uleb128 0x1
 1591 00fe E906     		.uleb128 .LEHB45-.LFB1097
 1592 0100 25       		.uleb128 .LEHE45-.LEHB45
 1593 0101 E30E     		.uleb128 .L100-.LFB1097
 1594 0103 03       		.uleb128 0x3
 1595 0104 8E07     		.uleb128 .LEHB46-.LFB1097
 1596 0106 1F       		.uleb128 .LEHE46-.LEHB46
 1597 0107 CC0F     		.uleb128 .L102-.LFB1097
 1598 0109 01       		.uleb128 0x1
 1599 010a C607     		.uleb128 .LEHB47-.LFB1097
 1600 010c 2F       		.uleb128 .LEHE47-.LEHB47
 1601 010d CA0F     		.uleb128 .L103-.LFB1097
 1602 010f 03       		.uleb128 0x3
 1603 0110 EF08     		.uleb128 .LEHB48-.LFB1097
 1604 0112 44       		.uleb128 .LEHE48-.LEHB48
 1605 0113 B110     		.uleb128 .L105-.LFB1097
 1606 0115 01       		.uleb128 0x1
 1607 0116 BD09     		.uleb128 .LEHB49-.LFB1097
 1608 0118 23       		.uleb128 .LEHE49-.LEHB49
 1609 0119 00       		.uleb128 0
 1610 011a 00       		.uleb128 0
 1611 011b 830A     		.uleb128 .LEHB50-.LFB1097
 1612 011d 40       		.uleb128 .LEHE50-.LEHB50
 1613 011e CD0A     		.uleb128 .L83-.LFB1097
 1614 0120 00       		.uleb128 0
 1615 0121 C30A     		.uleb128 .LEHB51-.LFB1097
 1616 0123 05       		.uleb128 .LEHE51-.LEHB51
 1617 0124 00       		.uleb128 0
 1618 0125 00       		.uleb128 0
 1619 0126 DB0A     		.uleb128 .LEHB52-.LFB1097
 1620 0128 05       		.uleb128 .LEHE52-.LEHB52
 1621 0129 00       		.uleb128 0
 1622 012a 00       		.uleb128 0
 1623 012b EA0A     		.uleb128 .LEHB53-.LFB1097
 1624 012d 40       		.uleb128 .LEHE53-.LEHB53
 1625 012e B40B     		.uleb128 .L86-.LFB1097
 1626 0130 00       		.uleb128 0
 1627 0131 AA0B     		.uleb128 .LEHB54-.LFB1097
 1628 0133 05       		.uleb128 .LEHE54-.LEHB54
 1629 0134 00       		.uleb128 0
 1630 0135 00       		.uleb128 0
 1631 0136 C20B     		.uleb128 .LEHB55-.LFB1097
 1632 0138 05       		.uleb128 .LEHE55-.LEHB55
 1633 0139 00       		.uleb128 0
 1634 013a 00       		.uleb128 0
 1635 013b D10B     		.uleb128 .LEHB56-.LFB1097
 1636 013d 40       		.uleb128 .LEHE56-.LEHB56
 1637 013e 9B0C     		.uleb128 .L89-.LFB1097
 1638 0140 00       		.uleb128 0
 1639 0141 910C     		.uleb128 .LEHB57-.LFB1097
 1640 0143 05       		.uleb128 .LEHE57-.LEHB57
 1641 0144 00       		.uleb128 0
 1642 0145 00       		.uleb128 0
 1643 0146 A90C     		.uleb128 .LEHB58-.LFB1097
 1644 0148 05       		.uleb128 .LEHE58-.LEHB58
 1645 0149 00       		.uleb128 0
 1646 014a 00       		.uleb128 0
 1647 014b B80C     		.uleb128 .LEHB59-.LFB1097
 1648 014d 40       		.uleb128 .LEHE59-.LEHB59
 1649 014e 820D     		.uleb128 .L92-.LFB1097
 1650 0150 00       		.uleb128 0
 1651 0151 F80C     		.uleb128 .LEHB60-.LFB1097
 1652 0153 05       		.uleb128 .LEHE60-.LEHB60
 1653 0154 00       		.uleb128 0
 1654 0155 00       		.uleb128 0
 1655 0156 900D     		.uleb128 .LEHB61-.LFB1097
 1656 0158 05       		.uleb128 .LEHE61-.LEHB61
 1657 0159 00       		.uleb128 0
 1658 015a 00       		.uleb128 0
 1659 015b 9F0D     		.uleb128 .LEHB62-.LFB1097
 1660 015d 40       		.uleb128 .LEHE62-.LEHB62
 1661 015e E90D     		.uleb128 .L95-.LFB1097
 1662 0160 00       		.uleb128 0
 1663 0161 DF0D     		.uleb128 .LEHB63-.LFB1097
 1664 0163 05       		.uleb128 .LEHE63-.LEHB63
 1665 0164 00       		.uleb128 0
 1666 0165 00       		.uleb128 0
 1667 0166 F70D     		.uleb128 .LEHB64-.LFB1097
 1668 0168 05       		.uleb128 .LEHE64-.LEHB64
 1669 0169 00       		.uleb128 0
 1670 016a 00       		.uleb128 0
 1671 016b 860E     		.uleb128 .LEHB65-.LFB1097
 1672 016d 40       		.uleb128 .LEHE65-.LEHB65
 1673 016e D00E     		.uleb128 .L98-.LFB1097
 1674 0170 00       		.uleb128 0
 1675 0171 C60E     		.uleb128 .LEHB66-.LFB1097
 1676 0173 05       		.uleb128 .LEHE66-.LEHB66
 1677 0174 00       		.uleb128 0
 1678 0175 00       		.uleb128 0
 1679 0176 DE0E     		.uleb128 .LEHB67-.LFB1097
 1680 0178 05       		.uleb128 .LEHE67-.LEHB67
 1681 0179 00       		.uleb128 0
 1682 017a 00       		.uleb128 0
 1683 017b ED0E     		.uleb128 .LEHB68-.LFB1097
 1684 017d 40       		.uleb128 .LEHE68-.LEHB68
 1685 017e B70F     		.uleb128 .L101-.LFB1097
 1686 0180 00       		.uleb128 0
 1687 0181 AD0F     		.uleb128 .LEHB69-.LFB1097
 1688 0183 05       		.uleb128 .LEHE69-.LEHB69
 1689 0184 00       		.uleb128 0
 1690 0185 00       		.uleb128 0
 1691 0186 C50F     		.uleb128 .LEHB70-.LFB1097
 1692 0188 05       		.uleb128 .LEHE70-.LEHB70
 1693 0189 00       		.uleb128 0
 1694 018a 00       		.uleb128 0
 1695 018b D40F     		.uleb128 .LEHB71-.LFB1097
 1696 018d 40       		.uleb128 .LEHE71-.LEHB71
 1697 018e 9E10     		.uleb128 .L104-.LFB1097
 1698 0190 00       		.uleb128 0
 1699 0191 9410     		.uleb128 .LEHB72-.LFB1097
 1700 0193 05       		.uleb128 .LEHE72-.LEHB72
 1701 0194 00       		.uleb128 0
 1702 0195 00       		.uleb128 0
 1703 0196 AC10     		.uleb128 .LEHB73-.LFB1097
 1704 0198 05       		.uleb128 .LEHE73-.LEHB73
 1705 0199 00       		.uleb128 0
 1706 019a 00       		.uleb128 0
 1707 019b B910     		.uleb128 .LEHB74-.LFB1097
 1708 019d 40       		.uleb128 .LEHE74-.LEHB74
 1709 019e 8311     		.uleb128 .L106-.LFB1097
 1710 01a0 00       		.uleb128 0
 1711 01a1 F910     		.uleb128 .LEHB75-.LFB1097
 1712 01a3 05       		.uleb128 .LEHE75-.LEHB75
 1713 01a4 00       		.uleb128 0
 1714 01a5 00       		.uleb128 0
 1715 01a6 9111     		.uleb128 .LEHB76-.LFB1097
 1716 01a8 05       		.uleb128 .LEHE76-.LEHB76
 1717 01a9 00       		.uleb128 0
 1718 01aa 00       		.uleb128 0
 1719              	.LLSDACSE1097:
 1720 01ab 01       		.byte	0x1
 1721 01ac 00       		.byte	0
 1722 01ad 00       		.byte	0
 1723 01ae 7D       		.byte	0x7d
 1724 01af 00       		.align 4
 1725 01b0 00000000 		.long	0
 1726              	
 1727              	.LLSDATT1097:
 1728              		.text
 1730              		.section	.rodata
 1731              	.LC16:
 1732 01eb 46504741 		.string	"FPGALink_testShift"
 1732      4C696E6B 
 1732      5F746573 
 1732      74536869 
 1732      667400
 1733              		.section	.text._ZN22TestFPGALink_testShiftC2Ev,"axG",@progbits,_ZN22TestFPGALink_testShiftC5Ev,com
 1734              		.align 2
 1735              		.weak	_ZN22TestFPGALink_testShiftC2Ev
 1737              	_ZN22TestFPGALink_testShiftC2Ev:
 1738              	.LFB1099:
  89:testSvf2Csvf.cpp **** 
  90:testSvf2Csvf.cpp **** TEST(FPGALink_testShift) {
 1739              		.loc 3 90 0
 1740              		.cfi_startproc
 1741 0000 55       		pushq	%rbp
 1742              		.cfi_def_cfa_offset 16
 1743              		.cfi_offset 6, -16
 1744 0001 4889E5   		movq	%rsp, %rbp
 1745              		.cfi_def_cfa_register 6
 1746 0004 53       		pushq	%rbx
 1747 0005 4883EC18 		subq	$24, %rsp
 1748              		.cfi_offset 3, -24
 1749 0009 48897DE8 		movq	%rdi, -24(%rbp)
 1750              	.LBB7:
 1751              		.loc 3 90 0
 1752 000d 488B5DE8 		movq	-24(%rbp), %rbx
 1753 0011 E8000000 		call	_ZN13UnitTestSuite12GetSuiteNameEv
 1753      00
 1754 0016 41B85A00 		movl	$90, %r8d
 1754      0000
 1755 001c 488D0D00 		leaq	.LC5(%rip), %rcx
 1755      000000
 1756 0023 4889C2   		movq	%rax, %rdx
 1757 0026 488D3500 		leaq	.LC16(%rip), %rsi
 1757      000000
 1758 002d 4889DF   		movq	%rbx, %rdi
 1759 0030 E8000000 		call	_ZN8UnitTest4TestC2EPKcS2_S2_i@PLT
 1759      00
 1760 0035 488D1500 		leaq	16+_ZTV22TestFPGALink_testShift(%rip), %rdx
 1760      000000
 1761 003c 488B45E8 		movq	-24(%rbp), %rax
 1762 0040 488910   		movq	%rdx, (%rax)
 1763              	.LBE7:
 1764 0043 90       		nop
 1765 0044 4883C418 		addq	$24, %rsp
 1766 0048 5B       		popq	%rbx
 1767 0049 5D       		popq	%rbp
 1768              		.cfi_def_cfa 7, 8
 1769 004a C3       		ret
 1770              		.cfi_endproc
 1771              	.LFE1099:
 1773              		.weak	_ZN22TestFPGALink_testShiftC1Ev
 1774              		.set	_ZN22TestFPGALink_testShiftC1Ev,_ZN22TestFPGALink_testShiftC2Ev
 1775              		.globl	testFPGALink_testShiftInstance
 1776              		.bss
 1777 0039 00000000 		.align 32
 1777      000000
 1780              	testFPGALink_testShiftInstance:
 1781 0040 00000000 		.zero	56
 1781      00000000 
 1781      00000000 
 1781      00000000 
 1781      00000000 
 1782              		.globl	adderFPGALink_testShift
 1785              	adderFPGALink_testShift:
 1786 0078 00       		.zero	1
 1787              		.section	.rodata
 1788              	.LC17:
 1789 01fe 303600   		.string	"06"
 1790              	.LC18:
 1791 0201 303000   		.string	"00"
 1792              	.LC19:
 1793 0204 46314332 		.string	"F1C2E093"
 1793      45303933 
 1793      00
 1794              	.LC20:
 1795 020d 30364631 		.string	"06F1C2E093"
 1795      43324530 
 1795      393300
 1796              	.LC21:
 1797 0218 303100   		.string	"01"
 1798              	.LC22:
 1799 021b 30444533 		.string	"0DE385C127"
 1799      38354331 
 1799      323700
 1800              	.LC23:
 1801 0226 303200   		.string	"02"
 1802              	.LC24:
 1803 0229 31424337 		.string	"1BC70B824E"
 1803      30423832 
 1803      344500
 1804              	.LC25:
 1805 0234 33373845 		.string	"378E17049E"
 1805      31373034 
 1805      394500
 1806              	.LC26:
 1807 023f 304100   		.string	"0A"
 1808              	.LC27:
 1809 0242 36463143 		.string	"6F1C2E093A"
 1809      32453039 
 1809      334100
 1810              	.LC28:
 1811 024d 313500   		.string	"15"
 1812              	.LC29:
 1813 0250 44453338 		.string	"DE385C1275"
 1813      35433132 
 1813      373500
 1814              	.LC30:
 1815 025b 323500   		.string	"25"
 1816              	.LC31:
 1817 025e 30314243 		.string	"01BC70B824E5"
 1817      37304238 
 1817      32344535 
 1817      00
 1818              	.LC32:
 1819 026b 373500   		.string	"75"
 1820              	.LC33:
 1821 026e 30333738 		.string	"0378E17049F5"
 1821      45313730 
 1821      34394635 
 1821      00
 1822              	.LC34:
 1823 027b 653500   		.string	"e5"
 1824              	.LC35:
 1825 027e 30364631 		.string	"06F1C2E093E5"
 1825      43324530 
 1825      39334535 
 1825      00
 1826              	.LC36:
 1827 028b 30313135 		.string	"0115"
 1827      00
 1828              	.LC37:
 1829 0290 30444533 		.string	"0DE385C12715"
 1829      38354331 
 1829      32373135 
 1829      00
 1830              	.LC38:
 1831 029d 30333135 		.string	"0315"
 1831      00
 1832              	.LC39:
 1833 02a2 31424337 		.string	"1BC70B824F15"
 1833      30423832 
 1833      34463135 
 1833      00
 1834              	.LC40:
 1835 02af 30373135 		.string	"0715"
 1835      00
 1836              	.LC41:
 1837 02b4 33373845 		.string	"378E17049F15"
 1837      31373034 
 1837      39463135 
 1837      00
 1838              	.LC42:
 1839 02c1 30633135 		.string	"0c15"
 1839      00
 1840              	.LC43:
 1841 02c6 36463143 		.string	"6F1C2E093C15"
 1841      32453039 
 1841      33433135 
 1841      00
 1842              	.LC44:
 1843 02d3 31633135 		.string	"1c15"
 1843      00
 1844              	.LC45:
 1845 02d8 44453338 		.string	"DE385C127C15"
 1845      35433132 
 1845      37433135 
 1845      00
 1846              	.LC46:
 1847 02e5 32633135 		.string	"2c15"
 1847      00
 1848              	.LC47:
 1849 02ea 30314243 		.string	"01BC70B824EC15"
 1849      37304238 
 1849      32344543 
 1849      313500
 1850              	.LC48:
 1851 02f9 34303135 		.string	"4015"
 1851      00
 1852              	.LC49:
 1853 02fe 30333738 		.string	"0378E17049C015"
 1853      45313730 
 1853      34394330 
 1853      313500
 1854              	.LC50:
 1855 030d 38303135 		.string	"8015"
 1855      00
 1856              	.LC51:
 1857 0312 30364631 		.string	"06F1C2E0938015"
 1857      43324530 
 1857      39333830 
 1857      313500
 1858              	.LC52:
 1859 0321 30313830 		.string	"018015"
 1859      313500
 1860              	.LC53:
 1861 0328 30444533 		.string	"0DE385C1278015"
 1861      38354331 
 1861      32373830 
 1861      313500
 1862              	.LC54:
 1863 0337 30414631 		.string	"0AF1C2E093"
 1863      43324530 
 1863      393300
 1864              	.LC55:
 1865 0342 31354533 		.string	"15E385C127"
 1865      38354331 
 1865      323700
 1866              	.LC56:
 1867 034d 32424337 		.string	"2BC70B824E"
 1867      30423832 
 1867      344500
 1868              	.LC57:
 1869 0358 35373845 		.string	"578E17049E"
 1869      31373034 
 1869      394500
 1870              	.LC58:
 1871 0363 41463143 		.string	"AF1C2E093A"
 1871      32453039 
 1871      334100
 1872              	.LC59:
 1873 036e 30313545 		.string	"015E385C1275"
 1873      33383543 
 1873      31323735 
 1873      00
 1874              	.LC60:
 1875 037b 30324243 		.string	"02BC70B824E5"
 1875      37304238 
 1875      32344535 
 1875      00
 1876              	.LC61:
 1877 0388 30353738 		.string	"0578E17049F5"
 1877      45313730 
 1877      34394635 
 1877      00
 1878              	.LC62:
 1879 0395 30414631 		.string	"0AF1C2E093E5"
 1879      43324530 
 1879      39334535 
 1879      00
 1880              	.LC63:
 1881 03a2 31354533 		.string	"15E385C12715"
 1881      38354331 
 1881      32373135 
 1881      00
 1882              	.LC64:
 1883 03af 32424337 		.string	"2BC70B824F15"
 1883      30423832 
 1883      34463135 
 1883      00
 1884              	.LC65:
 1885 03bc 35373845 		.string	"578E17049F15"
 1885      31373034 
 1885      39463135 
 1885      00
 1886              	.LC66:
 1887 03c9 41463143 		.string	"AF1C2E093C15"
 1887      32453039 
 1887      33433135 
 1887      00
 1888              	.LC67:
 1889 03d6 30313545 		.string	"015E385C127C15"
 1889      33383543 
 1889      31323743 
 1889      313500
 1890              	.LC68:
 1891 03e5 30324243 		.string	"02BC70B824EC15"
 1891      37304238 
 1891      32344543 
 1891      313500
 1892              	.LC69:
 1893 03f4 30353738 		.string	"0578E17049C015"
 1893      45313730 
 1893      34394330 
 1893      313500
 1894              	.LC70:
 1895 0403 30414631 		.string	"0AF1C2E0938015"
 1895      43324530 
 1895      39333830 
 1895      313500
 1896              	.LC71:
 1897 0412 31354533 		.string	"15E385C1278015"
 1897      38354331 
 1897      32373830 
 1897      313500
 1898              	.LC72:
 1899 0421 30313335 		.string	"0135"
 1899      00
 1900              	.LC73:
 1901 0426 30313335 		.string	"0135F1C2E093"
 1901      46314332 
 1901      45303933 
 1901      00
 1902              	.LC74:
 1903 0433 30323642 		.string	"026BE385C127"
 1903      45333835 
 1903      43313237 
 1903      00
 1904              	.LC75:
 1905 0440 30344437 		.string	"04D7C70B824E"
 1905      43373042 
 1905      38323445 
 1905      00
 1906              	.LC76:
 1907 044d 30394146 		.string	"09AF8E17049E"
 1907      38453137 
 1907      30343945 
 1907      00
 1908              	.LC77:
 1909 045a 31333546 		.string	"135F1C2E093A"
 1909      31433245 
 1909      30393341 
 1909      00
 1910              	.LC78:
 1911 0467 32364245 		.string	"26BE385C1275"
 1911      33383543 
 1911      31323735 
 1911      00
 1912              	.LC79:
 1913 0474 34443743 		.string	"4D7C70B824E5"
 1913      37304238 
 1913      32344535 
 1913      00
 1914              	.LC80:
 1915 0481 39414638 		.string	"9AF8E17049F5"
 1915      45313730 
 1915      34394635 
 1915      00
 1916              	.LC81:
 1917 048e 30313335 		.string	"0135F1C2E093E5"
 1917      46314332 
 1917      45303933 
 1917      453500
 1918              	.LC82:
 1919 049d 30323642 		.string	"026BE385C12715"
 1919      45333835 
 1919      43313237 
 1919      313500
 1920              	.LC83:
 1921 04ac 30344437 		.string	"04D7C70B824F15"
 1921      43373042 
 1921      38323446 
 1921      313500
 1922              	.LC84:
 1923 04bb 30394146 		.string	"09AF8E17049F15"
 1923      38453137 
 1923      30343946 
 1923      313500
 1924              	.LC85:
 1925 04ca 31333546 		.string	"135F1C2E093C15"
 1925      31433245 
 1925      30393343 
 1925      313500
 1926              	.LC86:
 1927 04d9 32364245 		.string	"26BE385C127C15"
 1927      33383543 
 1927      31323743 
 1927      313500
 1928              	.LC87:
 1929 04e8 34443743 		.string	"4D7C70B824EC15"
 1929      37304238 
 1929      32344543 
 1929      313500
 1930              	.LC88:
 1931 04f7 39414638 		.string	"9AF8E17049C015"
 1931      45313730 
 1931      34394330 
 1931      313500
 1932              	.LC89:
 1933 0506 30313335 		.string	"0135F1C2E0938015"
 1933      46314332 
 1933      45303933 
 1933      38303135 
 1933      00
 1934              	.LC90:
 1935 0517 30323642 		.string	"026BE385C1278015"
 1935      45333835 
 1935      43313237 
 1935      38303135 
 1935      00
 1936              	.LC91:
 1937 0528 37314332 		.string	"71C2E093"
 1937      45303933 
 1937      00
 1938              	.LC92:
 1939 0531 39414631 		.string	"9AF1C2E093"
 1939      43324530 
 1939      393300
 1940              	.LC93:
 1941 053c 30313335 		.string	"0135E385C127"
 1941      45333835 
 1941      43313237 
 1941      00
 1942              	.LC94:
 1943 0549 30323642 		.string	"026BC70B824E"
 1943      43373042 
 1943      38323445 
 1943      00
 1944              	.LC95:
 1945 0556 30344437 		.string	"04D78E17049E"
 1945      38453137 
 1945      30343945 
 1945      00
 1946              	.LC96:
 1947 0563 30394146 		.string	"09AF1C2E093A"
 1947      31433245 
 1947      30393341 
 1947      00
 1948              	.LC97:
 1949 0570 31333545 		.string	"135E385C1275"
 1949      33383543 
 1949      31323735 
 1949      00
 1950              	.LC98:
 1951 057d 32364243 		.string	"26BC70B824E5"
 1951      37304238 
 1951      32344535 
 1951      00
 1952              	.LC99:
 1953 058a 34443738 		.string	"4D78E17049F5"
 1953      45313730 
 1953      34394635 
 1953      00
 1954              	.LC100:
 1955 0597 39414631 		.string	"9AF1C2E093E5"
 1955      43324530 
 1955      39334535 
 1955      00
 1956              	.LC101:
 1957 05a4 30313335 		.string	"0135E385C12715"
 1957      45333835 
 1957      43313237 
 1957      313500
 1958              	.LC102:
 1959 05b3 30323642 		.string	"026BC70B824F15"
 1959      43373042 
 1959      38323446 
 1959      313500
 1960              	.LC103:
 1961 05c2 30344437 		.string	"04D78E17049F15"
 1961      38453137 
 1961      30343946 
 1961      313500
 1962              	.LC104:
 1963 05d1 30394146 		.string	"09AF1C2E093C15"
 1963      31433245 
 1963      30393343 
 1963      313500
 1964              	.LC105:
 1965 05e0 31333545 		.string	"135E385C127C15"
 1965      33383543 
 1965      31323743 
 1965      313500
 1966              	.LC106:
 1967 05ef 32364243 		.string	"26BC70B824EC15"
 1967      37304238 
 1967      32344543 
 1967      313500
 1968              	.LC107:
 1969 05fe 34443738 		.string	"4D78E17049C015"
 1969      45313730 
 1969      34394330 
 1969      313500
 1970              	.LC108:
 1971 060d 39414631 		.string	"9AF1C2E0938015"
 1971      43324530 
 1971      39333830 
 1971      313500
 1972              	.LC109:
 1973 061c 30313335 		.string	"0135E385C1278015"
 1973      45333835 
 1973      43313237 
 1973      38303135 
 1973      00
 1974              	.LC110:
 1975 062d 00       		.string	""
 1976              	.LC111:
 1977 062e 35343233 		.string	"5423DF3A8F129B2C91B9425D"
 1977      44463341 
 1977      38463132 
 1977      39423243 
 1977      39314239 
 1978              	.LC112:
 1979 0647 44343233 		.string	"D423DF3A8F129B2C91B9425D"
 1979      44463341 
 1979      38463132 
 1979      39423243 
 1979      39314239 
 1980              	.LC113:
 1981 0660 41383437 		.string	"A847BE751E253659237284BB"
 1981      42453735 
 1981      31453235 
 1981      33363539 
 1981      32333732 
 1982              		.text
 1983 0d41 90       		.align 2
 1984              		.globl	_ZNK22TestFPGALink_testShift7RunImplEv
 1986              	_ZNK22TestFPGALink_testShift7RunImplEv:
 1987              	.LFB1101:
 1988              		.loc 3 90 0
 1989              		.cfi_startproc
 1990 0d42 55       		pushq	%rbp
 1991              		.cfi_def_cfa_offset 16
 1992              		.cfi_offset 6, -16
 1993 0d43 4889E5   		movq	%rsp, %rbp
 1994              		.cfi_def_cfa_register 6
 1995 0d46 4883EC10 		subq	$16, %rsp
 1996 0d4a 48897DF8 		movq	%rdi, -8(%rbp)
  91:testSvf2Csvf.cpp **** 	testShift(
 1997              		.loc 3 91 0
 1998 0d4e 4883EC08 		subq	$8, %rsp
 1999 0d52 488D0500 		leaq	.LC20(%rip), %rax
 1999      000000
 2000 0d59 50       		pushq	%rax
 2001 0d5a 41B90300 		movl	$3, %r9d
 2001      0000
 2002 0d60 4C8D0500 		leaq	.LC17(%rip), %r8
 2002      000000
 2003 0d67 B9000000 		movl	$0, %ecx
 2003      00
 2004 0d6c 488D1500 		leaq	.LC18(%rip), %rdx
 2004      000000
 2005 0d73 BE200000 		movl	$32, %esi
 2005      00
 2006 0d78 488D3D00 		leaq	.LC19(%rip), %rdi
 2006      000000
 2007 0d7f E8000000 		call	_Z9testShiftPKcjS0_jS0_jS0_
 2007      00
 2008 0d84 4883C410 		addq	$16, %rsp
  92:testSvf2Csvf.cpp **** 		"F1C2E093", 32,
  93:testSvf2Csvf.cpp **** 		"00", 0,
  94:testSvf2Csvf.cpp **** 		"06", 3,
  95:testSvf2Csvf.cpp **** 		"06F1C2E093"
  96:testSvf2Csvf.cpp **** 	);
  97:testSvf2Csvf.cpp **** 	testShift(
 2009              		.loc 3 97 0
 2010 0d88 4883EC08 		subq	$8, %rsp
 2011 0d8c 488D0500 		leaq	.LC22(%rip), %rax
 2011      000000
 2012 0d93 50       		pushq	%rax
 2013 0d94 41B90300 		movl	$3, %r9d
 2013      0000
 2014 0d9a 4C8D0500 		leaq	.LC17(%rip), %r8
 2014      000000
 2015 0da1 B9010000 		movl	$1, %ecx
 2015      00
 2016 0da6 488D1500 		leaq	.LC21(%rip), %rdx
 2016      000000
 2017 0dad BE200000 		movl	$32, %esi
 2017      00
 2018 0db2 488D3D00 		leaq	.LC19(%rip), %rdi
 2018      000000
 2019 0db9 E8000000 		call	_Z9testShiftPKcjS0_jS0_jS0_
 2019      00
 2020 0dbe 4883C410 		addq	$16, %rsp
  98:testSvf2Csvf.cpp **** 		"F1C2E093", 32,
  99:testSvf2Csvf.cpp **** 		"01", 1,
 100:testSvf2Csvf.cpp **** 		"06", 3,
 101:testSvf2Csvf.cpp **** 		"0DE385C127"
 102:testSvf2Csvf.cpp **** 	);
 103:testSvf2Csvf.cpp **** 	testShift(
 2021              		.loc 3 103 0
 2022 0dc2 4883EC08 		subq	$8, %rsp
 2023 0dc6 488D0500 		leaq	.LC24(%rip), %rax
 2023      000000
 2024 0dcd 50       		pushq	%rax
 2025 0dce 41B90300 		movl	$3, %r9d
 2025      0000
 2026 0dd4 4C8D0500 		leaq	.LC17(%rip), %r8
 2026      000000
 2027 0ddb B9020000 		movl	$2, %ecx
 2027      00
 2028 0de0 488D1500 		leaq	.LC23(%rip), %rdx
 2028      000000
 2029 0de7 BE200000 		movl	$32, %esi
 2029      00
 2030 0dec 488D3D00 		leaq	.LC19(%rip), %rdi
 2030      000000
 2031 0df3 E8000000 		call	_Z9testShiftPKcjS0_jS0_jS0_
 2031      00
 2032 0df8 4883C410 		addq	$16, %rsp
 104:testSvf2Csvf.cpp **** 		"F1C2E093", 32,
 105:testSvf2Csvf.cpp **** 		"02", 2,
 106:testSvf2Csvf.cpp **** 		"06", 3,
 107:testSvf2Csvf.cpp **** 		"1BC70B824E"
 108:testSvf2Csvf.cpp **** 	);
 109:testSvf2Csvf.cpp **** 	testShift(
 2033              		.loc 3 109 0
 2034 0dfc 4883EC08 		subq	$8, %rsp
 2035 0e00 488D0500 		leaq	.LC25(%rip), %rax
 2035      000000
 2036 0e07 50       		pushq	%rax
 2037 0e08 41B90300 		movl	$3, %r9d
 2037      0000
 2038 0e0e 4C8D0500 		leaq	.LC17(%rip), %r8
 2038      000000
 2039 0e15 B9030000 		movl	$3, %ecx
 2039      00
 2040 0e1a 488D1500 		leaq	.LC17(%rip), %rdx
 2040      000000
 2041 0e21 BE200000 		movl	$32, %esi
 2041      00
 2042 0e26 488D3D00 		leaq	.LC19(%rip), %rdi
 2042      000000
 2043 0e2d E8000000 		call	_Z9testShiftPKcjS0_jS0_jS0_
 2043      00
 2044 0e32 4883C410 		addq	$16, %rsp
 110:testSvf2Csvf.cpp **** 		"F1C2E093", 32,
 111:testSvf2Csvf.cpp **** 		"06", 3,
 112:testSvf2Csvf.cpp **** 		"06", 3,
 113:testSvf2Csvf.cpp **** 		"378E17049E"
 114:testSvf2Csvf.cpp **** 	);
 115:testSvf2Csvf.cpp **** 	testShift(
 2045              		.loc 3 115 0
 2046 0e36 4883EC08 		subq	$8, %rsp
 2047 0e3a 488D0500 		leaq	.LC27(%rip), %rax
 2047      000000
 2048 0e41 50       		pushq	%rax
 2049 0e42 41B90300 		movl	$3, %r9d
 2049      0000
 2050 0e48 4C8D0500 		leaq	.LC17(%rip), %r8
 2050      000000
 2051 0e4f B9040000 		movl	$4, %ecx
 2051      00
 2052 0e54 488D1500 		leaq	.LC26(%rip), %rdx
 2052      000000
 2053 0e5b BE200000 		movl	$32, %esi
 2053      00
 2054 0e60 488D3D00 		leaq	.LC19(%rip), %rdi
 2054      000000
 2055 0e67 E8000000 		call	_Z9testShiftPKcjS0_jS0_jS0_
 2055      00
 2056 0e6c 4883C410 		addq	$16, %rsp
 116:testSvf2Csvf.cpp **** 		"F1C2E093", 32,
 117:testSvf2Csvf.cpp **** 		"0A", 4,
 118:testSvf2Csvf.cpp **** 		"06", 3,
 119:testSvf2Csvf.cpp **** 		"6F1C2E093A"
 120:testSvf2Csvf.cpp **** 	);
 121:testSvf2Csvf.cpp **** 	testShift(
 2057              		.loc 3 121 0
 2058 0e70 4883EC08 		subq	$8, %rsp
 2059 0e74 488D0500 		leaq	.LC29(%rip), %rax
 2059      000000
 2060 0e7b 50       		pushq	%rax
 2061 0e7c 41B90300 		movl	$3, %r9d
 2061      0000
 2062 0e82 4C8D0500 		leaq	.LC17(%rip), %r8
 2062      000000
 2063 0e89 B9050000 		movl	$5, %ecx
 2063      00
 2064 0e8e 488D1500 		leaq	.LC28(%rip), %rdx
 2064      000000
 2065 0e95 BE200000 		movl	$32, %esi
 2065      00
 2066 0e9a 488D3D00 		leaq	.LC19(%rip), %rdi
 2066      000000
 2067 0ea1 E8000000 		call	_Z9testShiftPKcjS0_jS0_jS0_
 2067      00
 2068 0ea6 4883C410 		addq	$16, %rsp
 122:testSvf2Csvf.cpp **** 		"F1C2E093", 32,
 123:testSvf2Csvf.cpp **** 		"15", 5,
 124:testSvf2Csvf.cpp **** 		"06", 3,
 125:testSvf2Csvf.cpp **** 		"DE385C1275"
 126:testSvf2Csvf.cpp **** 	);
 127:testSvf2Csvf.cpp **** 	testShift(
 2069              		.loc 3 127 0
 2070 0eaa 4883EC08 		subq	$8, %rsp
 2071 0eae 488D0500 		leaq	.LC31(%rip), %rax
 2071      000000
 2072 0eb5 50       		pushq	%rax
 2073 0eb6 41B90300 		movl	$3, %r9d
 2073      0000
 2074 0ebc 4C8D0500 		leaq	.LC17(%rip), %r8
 2074      000000
 2075 0ec3 B9060000 		movl	$6, %ecx
 2075      00
 2076 0ec8 488D1500 		leaq	.LC30(%rip), %rdx
 2076      000000
 2077 0ecf BE200000 		movl	$32, %esi
 2077      00
 2078 0ed4 488D3D00 		leaq	.LC19(%rip), %rdi
 2078      000000
 2079 0edb E8000000 		call	_Z9testShiftPKcjS0_jS0_jS0_
 2079      00
 2080 0ee0 4883C410 		addq	$16, %rsp
 128:testSvf2Csvf.cpp **** 		"F1C2E093", 32,
 129:testSvf2Csvf.cpp **** 		"25", 6,
 130:testSvf2Csvf.cpp **** 		"06", 3,
 131:testSvf2Csvf.cpp **** 		"01BC70B824E5"
 132:testSvf2Csvf.cpp **** 	);
 133:testSvf2Csvf.cpp **** 	testShift(
 2081              		.loc 3 133 0
 2082 0ee4 4883EC08 		subq	$8, %rsp
 2083 0ee8 488D0500 		leaq	.LC33(%rip), %rax
 2083      000000
 2084 0eef 50       		pushq	%rax
 2085 0ef0 41B90300 		movl	$3, %r9d
 2085      0000
 2086 0ef6 4C8D0500 		leaq	.LC17(%rip), %r8
 2086      000000
 2087 0efd B9070000 		movl	$7, %ecx
 2087      00
 2088 0f02 488D1500 		leaq	.LC32(%rip), %rdx
 2088      000000
 2089 0f09 BE200000 		movl	$32, %esi
 2089      00
 2090 0f0e 488D3D00 		leaq	.LC19(%rip), %rdi
 2090      000000
 2091 0f15 E8000000 		call	_Z9testShiftPKcjS0_jS0_jS0_
 2091      00
 2092 0f1a 4883C410 		addq	$16, %rsp
 134:testSvf2Csvf.cpp **** 		"F1C2E093", 32,
 135:testSvf2Csvf.cpp **** 		"75", 7,
 136:testSvf2Csvf.cpp **** 		"06", 3,
 137:testSvf2Csvf.cpp **** 		"0378E17049F5"
 138:testSvf2Csvf.cpp **** 	);
 139:testSvf2Csvf.cpp **** 	testShift(
 2093              		.loc 3 139 0
 2094 0f1e 4883EC08 		subq	$8, %rsp
 2095 0f22 488D0500 		leaq	.LC35(%rip), %rax
 2095      000000
 2096 0f29 50       		pushq	%rax
 2097 0f2a 41B90300 		movl	$3, %r9d
 2097      0000
 2098 0f30 4C8D0500 		leaq	.LC17(%rip), %r8
 2098      000000
 2099 0f37 B9080000 		movl	$8, %ecx
 2099      00
 2100 0f3c 488D1500 		leaq	.LC34(%rip), %rdx
 2100      000000
 2101 0f43 BE200000 		movl	$32, %esi
 2101      00
 2102 0f48 488D3D00 		leaq	.LC19(%rip), %rdi
 2102      000000
 2103 0f4f E8000000 		call	_Z9testShiftPKcjS0_jS0_jS0_
 2103      00
 2104 0f54 4883C410 		addq	$16, %rsp
 140:testSvf2Csvf.cpp **** 		"F1C2E093", 32,
 141:testSvf2Csvf.cpp **** 		"e5", 8,
 142:testSvf2Csvf.cpp **** 		"06", 3,
 143:testSvf2Csvf.cpp **** 		"06F1C2E093E5"
 144:testSvf2Csvf.cpp **** 	);
 145:testSvf2Csvf.cpp **** 	testShift(
 2105              		.loc 3 145 0
 2106 0f58 4883EC08 		subq	$8, %rsp
 2107 0f5c 488D0500 		leaq	.LC37(%rip), %rax
 2107      000000
 2108 0f63 50       		pushq	%rax
 2109 0f64 41B90300 		movl	$3, %r9d
 2109      0000
 2110 0f6a 4C8D0500 		leaq	.LC17(%rip), %r8
 2110      000000
 2111 0f71 B9090000 		movl	$9, %ecx
 2111      00
 2112 0f76 488D1500 		leaq	.LC36(%rip), %rdx
 2112      000000
 2113 0f7d BE200000 		movl	$32, %esi
 2113      00
 2114 0f82 488D3D00 		leaq	.LC19(%rip), %rdi
 2114      000000
 2115 0f89 E8000000 		call	_Z9testShiftPKcjS0_jS0_jS0_
 2115      00
 2116 0f8e 4883C410 		addq	$16, %rsp
 146:testSvf2Csvf.cpp **** 		"F1C2E093", 32,
 147:testSvf2Csvf.cpp **** 		"0115", 9,
 148:testSvf2Csvf.cpp **** 		"06", 3,
 149:testSvf2Csvf.cpp **** 		"0DE385C12715"
 150:testSvf2Csvf.cpp **** 	);
 151:testSvf2Csvf.cpp **** 	testShift(
 2117              		.loc 3 151 0
 2118 0f92 4883EC08 		subq	$8, %rsp
 2119 0f96 488D0500 		leaq	.LC39(%rip), %rax
 2119      000000
 2120 0f9d 50       		pushq	%rax
 2121 0f9e 41B90300 		movl	$3, %r9d
 2121      0000
 2122 0fa4 4C8D0500 		leaq	.LC17(%rip), %r8
 2122      000000
 2123 0fab B90A0000 		movl	$10, %ecx
 2123      00
 2124 0fb0 488D1500 		leaq	.LC38(%rip), %rdx
 2124      000000
 2125 0fb7 BE200000 		movl	$32, %esi
 2125      00
 2126 0fbc 488D3D00 		leaq	.LC19(%rip), %rdi
 2126      000000
 2127 0fc3 E8000000 		call	_Z9testShiftPKcjS0_jS0_jS0_
 2127      00
 2128 0fc8 4883C410 		addq	$16, %rsp
 152:testSvf2Csvf.cpp **** 		"F1C2E093", 32,
 153:testSvf2Csvf.cpp **** 		"0315", 10,
 154:testSvf2Csvf.cpp **** 		"06", 3,
 155:testSvf2Csvf.cpp **** 		"1BC70B824F15"
 156:testSvf2Csvf.cpp **** 	);
 157:testSvf2Csvf.cpp **** 	testShift(
 2129              		.loc 3 157 0
 2130 0fcc 4883EC08 		subq	$8, %rsp
 2131 0fd0 488D0500 		leaq	.LC41(%rip), %rax
 2131      000000
 2132 0fd7 50       		pushq	%rax
 2133 0fd8 41B90300 		movl	$3, %r9d
 2133      0000
 2134 0fde 4C8D0500 		leaq	.LC17(%rip), %r8
 2134      000000
 2135 0fe5 B90B0000 		movl	$11, %ecx
 2135      00
 2136 0fea 488D1500 		leaq	.LC40(%rip), %rdx
 2136      000000
 2137 0ff1 BE200000 		movl	$32, %esi
 2137      00
 2138 0ff6 488D3D00 		leaq	.LC19(%rip), %rdi
 2138      000000
 2139 0ffd E8000000 		call	_Z9testShiftPKcjS0_jS0_jS0_
 2139      00
 2140 1002 4883C410 		addq	$16, %rsp
 158:testSvf2Csvf.cpp **** 		"F1C2E093", 32,
 159:testSvf2Csvf.cpp **** 		"0715", 11,
 160:testSvf2Csvf.cpp **** 		"06", 3,
 161:testSvf2Csvf.cpp **** 		"378E17049F15"
 162:testSvf2Csvf.cpp **** 	);
 163:testSvf2Csvf.cpp **** 	testShift(
 2141              		.loc 3 163 0
 2142 1006 4883EC08 		subq	$8, %rsp
 2143 100a 488D0500 		leaq	.LC43(%rip), %rax
 2143      000000
 2144 1011 50       		pushq	%rax
 2145 1012 41B90300 		movl	$3, %r9d
 2145      0000
 2146 1018 4C8D0500 		leaq	.LC17(%rip), %r8
 2146      000000
 2147 101f B90C0000 		movl	$12, %ecx
 2147      00
 2148 1024 488D1500 		leaq	.LC42(%rip), %rdx
 2148      000000
 2149 102b BE200000 		movl	$32, %esi
 2149      00
 2150 1030 488D3D00 		leaq	.LC19(%rip), %rdi
 2150      000000
 2151 1037 E8000000 		call	_Z9testShiftPKcjS0_jS0_jS0_
 2151      00
 2152 103c 4883C410 		addq	$16, %rsp
 164:testSvf2Csvf.cpp **** 		"F1C2E093", 32,
 165:testSvf2Csvf.cpp **** 		"0c15", 12,
 166:testSvf2Csvf.cpp **** 		"06", 3,
 167:testSvf2Csvf.cpp **** 		"6F1C2E093C15"
 168:testSvf2Csvf.cpp **** 	);
 169:testSvf2Csvf.cpp **** 	testShift(
 2153              		.loc 3 169 0
 2154 1040 4883EC08 		subq	$8, %rsp
 2155 1044 488D0500 		leaq	.LC45(%rip), %rax
 2155      000000
 2156 104b 50       		pushq	%rax
 2157 104c 41B90300 		movl	$3, %r9d
 2157      0000
 2158 1052 4C8D0500 		leaq	.LC17(%rip), %r8
 2158      000000
 2159 1059 B90D0000 		movl	$13, %ecx
 2159      00
 2160 105e 488D1500 		leaq	.LC44(%rip), %rdx
 2160      000000
 2161 1065 BE200000 		movl	$32, %esi
 2161      00
 2162 106a 488D3D00 		leaq	.LC19(%rip), %rdi
 2162      000000
 2163 1071 E8000000 		call	_Z9testShiftPKcjS0_jS0_jS0_
 2163      00
 2164 1076 4883C410 		addq	$16, %rsp
 170:testSvf2Csvf.cpp **** 		"F1C2E093", 32,
 171:testSvf2Csvf.cpp **** 		"1c15", 13,
 172:testSvf2Csvf.cpp **** 		"06", 3,
 173:testSvf2Csvf.cpp **** 		"DE385C127C15"
 174:testSvf2Csvf.cpp **** 	);
 175:testSvf2Csvf.cpp **** 	testShift(
 2165              		.loc 3 175 0
 2166 107a 4883EC08 		subq	$8, %rsp
 2167 107e 488D0500 		leaq	.LC47(%rip), %rax
 2167      000000
 2168 1085 50       		pushq	%rax
 2169 1086 41B90300 		movl	$3, %r9d
 2169      0000
 2170 108c 4C8D0500 		leaq	.LC17(%rip), %r8
 2170      000000
 2171 1093 B90E0000 		movl	$14, %ecx
 2171      00
 2172 1098 488D1500 		leaq	.LC46(%rip), %rdx
 2172      000000
 2173 109f BE200000 		movl	$32, %esi
 2173      00
 2174 10a4 488D3D00 		leaq	.LC19(%rip), %rdi
 2174      000000
 2175 10ab E8000000 		call	_Z9testShiftPKcjS0_jS0_jS0_
 2175      00
 2176 10b0 4883C410 		addq	$16, %rsp
 176:testSvf2Csvf.cpp **** 		"F1C2E093", 32,
 177:testSvf2Csvf.cpp **** 		"2c15", 14,
 178:testSvf2Csvf.cpp **** 		"06", 3,
 179:testSvf2Csvf.cpp **** 		"01BC70B824EC15"
 180:testSvf2Csvf.cpp **** 	);
 181:testSvf2Csvf.cpp **** 	testShift(
 2177              		.loc 3 181 0
 2178 10b4 4883EC08 		subq	$8, %rsp
 2179 10b8 488D0500 		leaq	.LC49(%rip), %rax
 2179      000000
 2180 10bf 50       		pushq	%rax
 2181 10c0 41B90300 		movl	$3, %r9d
 2181      0000
 2182 10c6 4C8D0500 		leaq	.LC17(%rip), %r8
 2182      000000
 2183 10cd B90F0000 		movl	$15, %ecx
 2183      00
 2184 10d2 488D1500 		leaq	.LC48(%rip), %rdx
 2184      000000
 2185 10d9 BE200000 		movl	$32, %esi
 2185      00
 2186 10de 488D3D00 		leaq	.LC19(%rip), %rdi
 2186      000000
 2187 10e5 E8000000 		call	_Z9testShiftPKcjS0_jS0_jS0_
 2187      00
 2188 10ea 4883C410 		addq	$16, %rsp
 182:testSvf2Csvf.cpp **** 		"F1C2E093", 32,
 183:testSvf2Csvf.cpp **** 		"4015", 15,
 184:testSvf2Csvf.cpp **** 		"06", 3,
 185:testSvf2Csvf.cpp **** 		"0378E17049C015"
 186:testSvf2Csvf.cpp **** 	);
 187:testSvf2Csvf.cpp **** 	testShift(
 2189              		.loc 3 187 0
 2190 10ee 4883EC08 		subq	$8, %rsp
 2191 10f2 488D0500 		leaq	.LC51(%rip), %rax
 2191      000000
 2192 10f9 50       		pushq	%rax
 2193 10fa 41B90300 		movl	$3, %r9d
 2193      0000
 2194 1100 4C8D0500 		leaq	.LC17(%rip), %r8
 2194      000000
 2195 1107 B9100000 		movl	$16, %ecx
 2195      00
 2196 110c 488D1500 		leaq	.LC50(%rip), %rdx
 2196      000000
 2197 1113 BE200000 		movl	$32, %esi
 2197      00
 2198 1118 488D3D00 		leaq	.LC19(%rip), %rdi
 2198      000000
 2199 111f E8000000 		call	_Z9testShiftPKcjS0_jS0_jS0_
 2199      00
 2200 1124 4883C410 		addq	$16, %rsp
 188:testSvf2Csvf.cpp **** 		"F1C2E093", 32,
 189:testSvf2Csvf.cpp **** 		"8015", 16,
 190:testSvf2Csvf.cpp **** 		"06", 3,
 191:testSvf2Csvf.cpp **** 		"06F1C2E0938015"
 192:testSvf2Csvf.cpp **** 	);
 193:testSvf2Csvf.cpp **** 	testShift(
 2201              		.loc 3 193 0
 2202 1128 4883EC08 		subq	$8, %rsp
 2203 112c 488D0500 		leaq	.LC53(%rip), %rax
 2203      000000
 2204 1133 50       		pushq	%rax
 2205 1134 41B90300 		movl	$3, %r9d
 2205      0000
 2206 113a 4C8D0500 		leaq	.LC17(%rip), %r8
 2206      000000
 2207 1141 B9110000 		movl	$17, %ecx
 2207      00
 2208 1146 488D1500 		leaq	.LC52(%rip), %rdx
 2208      000000
 2209 114d BE200000 		movl	$32, %esi
 2209      00
 2210 1152 488D3D00 		leaq	.LC19(%rip), %rdi
 2210      000000
 2211 1159 E8000000 		call	_Z9testShiftPKcjS0_jS0_jS0_
 2211      00
 2212 115e 4883C410 		addq	$16, %rsp
 194:testSvf2Csvf.cpp **** 		"F1C2E093", 32,
 195:testSvf2Csvf.cpp **** 		"018015", 17,
 196:testSvf2Csvf.cpp **** 		"06", 3,
 197:testSvf2Csvf.cpp **** 		"0DE385C1278015"
 198:testSvf2Csvf.cpp **** 	);
 199:testSvf2Csvf.cpp **** 	testShift(
 2213              		.loc 3 199 0
 2214 1162 4883EC08 		subq	$8, %rsp
 2215 1166 488D0500 		leaq	.LC54(%rip), %rax
 2215      000000
 2216 116d 50       		pushq	%rax
 2217 116e 41B90400 		movl	$4, %r9d
 2217      0000
 2218 1174 4C8D0500 		leaq	.LC26(%rip), %r8
 2218      000000
 2219 117b B9000000 		movl	$0, %ecx
 2219      00
 2220 1180 488D1500 		leaq	.LC18(%rip), %rdx
 2220      000000
 2221 1187 BE200000 		movl	$32, %esi
 2221      00
 2222 118c 488D3D00 		leaq	.LC19(%rip), %rdi
 2222      000000
 2223 1193 E8000000 		call	_Z9testShiftPKcjS0_jS0_jS0_
 2223      00
 2224 1198 4883C410 		addq	$16, %rsp
 200:testSvf2Csvf.cpp **** 		"F1C2E093", 32,
 201:testSvf2Csvf.cpp **** 		"00", 0,
 202:testSvf2Csvf.cpp **** 		"0A", 4,
 203:testSvf2Csvf.cpp **** 		"0AF1C2E093"
 204:testSvf2Csvf.cpp **** 	);
 205:testSvf2Csvf.cpp **** 	testShift(
 2225              		.loc 3 205 0
 2226 119c 4883EC08 		subq	$8, %rsp
 2227 11a0 488D0500 		leaq	.LC55(%rip), %rax
 2227      000000
 2228 11a7 50       		pushq	%rax
 2229 11a8 41B90400 		movl	$4, %r9d
 2229      0000
 2230 11ae 4C8D0500 		leaq	.LC26(%rip), %r8
 2230      000000
 2231 11b5 B9010000 		movl	$1, %ecx
 2231      00
 2232 11ba 488D1500 		leaq	.LC21(%rip), %rdx
 2232      000000
 2233 11c1 BE200000 		movl	$32, %esi
 2233      00
 2234 11c6 488D3D00 		leaq	.LC19(%rip), %rdi
 2234      000000
 2235 11cd E8000000 		call	_Z9testShiftPKcjS0_jS0_jS0_
 2235      00
 2236 11d2 4883C410 		addq	$16, %rsp
 206:testSvf2Csvf.cpp **** 		"F1C2E093", 32,
 207:testSvf2Csvf.cpp **** 		"01", 1,
 208:testSvf2Csvf.cpp **** 		"0A", 4,
 209:testSvf2Csvf.cpp **** 		"15E385C127"
 210:testSvf2Csvf.cpp **** 	);
 211:testSvf2Csvf.cpp **** 	testShift(
 2237              		.loc 3 211 0
 2238 11d6 4883EC08 		subq	$8, %rsp
 2239 11da 488D0500 		leaq	.LC56(%rip), %rax
 2239      000000
 2240 11e1 50       		pushq	%rax
 2241 11e2 41B90400 		movl	$4, %r9d
 2241      0000
 2242 11e8 4C8D0500 		leaq	.LC26(%rip), %r8
 2242      000000
 2243 11ef B9020000 		movl	$2, %ecx
 2243      00
 2244 11f4 488D1500 		leaq	.LC23(%rip), %rdx
 2244      000000
 2245 11fb BE200000 		movl	$32, %esi
 2245      00
 2246 1200 488D3D00 		leaq	.LC19(%rip), %rdi
 2246      000000
 2247 1207 E8000000 		call	_Z9testShiftPKcjS0_jS0_jS0_
 2247      00
 2248 120c 4883C410 		addq	$16, %rsp
 212:testSvf2Csvf.cpp **** 		"F1C2E093", 32,
 213:testSvf2Csvf.cpp **** 		"02", 2,
 214:testSvf2Csvf.cpp **** 		"0A", 4,
 215:testSvf2Csvf.cpp **** 		"2BC70B824E"
 216:testSvf2Csvf.cpp **** 	);
 217:testSvf2Csvf.cpp **** 	testShift(
 2249              		.loc 3 217 0
 2250 1210 4883EC08 		subq	$8, %rsp
 2251 1214 488D0500 		leaq	.LC57(%rip), %rax
 2251      000000
 2252 121b 50       		pushq	%rax
 2253 121c 41B90400 		movl	$4, %r9d
 2253      0000
 2254 1222 4C8D0500 		leaq	.LC26(%rip), %r8
 2254      000000
 2255 1229 B9030000 		movl	$3, %ecx
 2255      00
 2256 122e 488D1500 		leaq	.LC17(%rip), %rdx
 2256      000000
 2257 1235 BE200000 		movl	$32, %esi
 2257      00
 2258 123a 488D3D00 		leaq	.LC19(%rip), %rdi
 2258      000000
 2259 1241 E8000000 		call	_Z9testShiftPKcjS0_jS0_jS0_
 2259      00
 2260 1246 4883C410 		addq	$16, %rsp
 218:testSvf2Csvf.cpp **** 		"F1C2E093", 32,
 219:testSvf2Csvf.cpp **** 		"06", 3,
 220:testSvf2Csvf.cpp **** 		"0A", 4,
 221:testSvf2Csvf.cpp **** 		"578E17049E"
 222:testSvf2Csvf.cpp **** 	);
 223:testSvf2Csvf.cpp **** 	testShift(
 2261              		.loc 3 223 0
 2262 124a 4883EC08 		subq	$8, %rsp
 2263 124e 488D0500 		leaq	.LC58(%rip), %rax
 2263      000000
 2264 1255 50       		pushq	%rax
 2265 1256 41B90400 		movl	$4, %r9d
 2265      0000
 2266 125c 4C8D0500 		leaq	.LC26(%rip), %r8
 2266      000000
 2267 1263 B9040000 		movl	$4, %ecx
 2267      00
 2268 1268 488D1500 		leaq	.LC26(%rip), %rdx
 2268      000000
 2269 126f BE200000 		movl	$32, %esi
 2269      00
 2270 1274 488D3D00 		leaq	.LC19(%rip), %rdi
 2270      000000
 2271 127b E8000000 		call	_Z9testShiftPKcjS0_jS0_jS0_
 2271      00
 2272 1280 4883C410 		addq	$16, %rsp
 224:testSvf2Csvf.cpp **** 		"F1C2E093", 32,
 225:testSvf2Csvf.cpp **** 		"0A", 4,
 226:testSvf2Csvf.cpp **** 		"0A", 4,
 227:testSvf2Csvf.cpp **** 		"AF1C2E093A"
 228:testSvf2Csvf.cpp **** 	);
 229:testSvf2Csvf.cpp **** 	testShift(
 2273              		.loc 3 229 0
 2274 1284 4883EC08 		subq	$8, %rsp
 2275 1288 488D0500 		leaq	.LC59(%rip), %rax
 2275      000000
 2276 128f 50       		pushq	%rax
 2277 1290 41B90400 		movl	$4, %r9d
 2277      0000
 2278 1296 4C8D0500 		leaq	.LC26(%rip), %r8
 2278      000000
 2279 129d B9050000 		movl	$5, %ecx
 2279      00
 2280 12a2 488D1500 		leaq	.LC28(%rip), %rdx
 2280      000000
 2281 12a9 BE200000 		movl	$32, %esi
 2281      00
 2282 12ae 488D3D00 		leaq	.LC19(%rip), %rdi
 2282      000000
 2283 12b5 E8000000 		call	_Z9testShiftPKcjS0_jS0_jS0_
 2283      00
 2284 12ba 4883C410 		addq	$16, %rsp
 230:testSvf2Csvf.cpp **** 		"F1C2E093", 32,
 231:testSvf2Csvf.cpp **** 		"15", 5,
 232:testSvf2Csvf.cpp **** 		"0A", 4,
 233:testSvf2Csvf.cpp **** 		"015E385C1275"
 234:testSvf2Csvf.cpp **** 	);
 235:testSvf2Csvf.cpp **** 	testShift(
 2285              		.loc 3 235 0
 2286 12be 4883EC08 		subq	$8, %rsp
 2287 12c2 488D0500 		leaq	.LC60(%rip), %rax
 2287      000000
 2288 12c9 50       		pushq	%rax
 2289 12ca 41B90400 		movl	$4, %r9d
 2289      0000
 2290 12d0 4C8D0500 		leaq	.LC26(%rip), %r8
 2290      000000
 2291 12d7 B9060000 		movl	$6, %ecx
 2291      00
 2292 12dc 488D1500 		leaq	.LC30(%rip), %rdx
 2292      000000
 2293 12e3 BE200000 		movl	$32, %esi
 2293      00
 2294 12e8 488D3D00 		leaq	.LC19(%rip), %rdi
 2294      000000
 2295 12ef E8000000 		call	_Z9testShiftPKcjS0_jS0_jS0_
 2295      00
 2296 12f4 4883C410 		addq	$16, %rsp
 236:testSvf2Csvf.cpp **** 		"F1C2E093", 32,
 237:testSvf2Csvf.cpp **** 		"25", 6,
 238:testSvf2Csvf.cpp **** 		"0A", 4,
 239:testSvf2Csvf.cpp **** 		"02BC70B824E5"
 240:testSvf2Csvf.cpp **** 	);
 241:testSvf2Csvf.cpp **** 	testShift(
 2297              		.loc 3 241 0
 2298 12f8 4883EC08 		subq	$8, %rsp
 2299 12fc 488D0500 		leaq	.LC61(%rip), %rax
 2299      000000
 2300 1303 50       		pushq	%rax
 2301 1304 41B90400 		movl	$4, %r9d
 2301      0000
 2302 130a 4C8D0500 		leaq	.LC26(%rip), %r8
 2302      000000
 2303 1311 B9070000 		movl	$7, %ecx
 2303      00
 2304 1316 488D1500 		leaq	.LC32(%rip), %rdx
 2304      000000
 2305 131d BE200000 		movl	$32, %esi
 2305      00
 2306 1322 488D3D00 		leaq	.LC19(%rip), %rdi
 2306      000000
 2307 1329 E8000000 		call	_Z9testShiftPKcjS0_jS0_jS0_
 2307      00
 2308 132e 4883C410 		addq	$16, %rsp
 242:testSvf2Csvf.cpp **** 		"F1C2E093", 32,
 243:testSvf2Csvf.cpp **** 		"75", 7,
 244:testSvf2Csvf.cpp **** 		"0A", 4,
 245:testSvf2Csvf.cpp **** 		"0578E17049F5"
 246:testSvf2Csvf.cpp **** 	);
 247:testSvf2Csvf.cpp **** 	testShift(
 2309              		.loc 3 247 0
 2310 1332 4883EC08 		subq	$8, %rsp
 2311 1336 488D0500 		leaq	.LC62(%rip), %rax
 2311      000000
 2312 133d 50       		pushq	%rax
 2313 133e 41B90400 		movl	$4, %r9d
 2313      0000
 2314 1344 4C8D0500 		leaq	.LC26(%rip), %r8
 2314      000000
 2315 134b B9080000 		movl	$8, %ecx
 2315      00
 2316 1350 488D1500 		leaq	.LC34(%rip), %rdx
 2316      000000
 2317 1357 BE200000 		movl	$32, %esi
 2317      00
 2318 135c 488D3D00 		leaq	.LC19(%rip), %rdi
 2318      000000
 2319 1363 E8000000 		call	_Z9testShiftPKcjS0_jS0_jS0_
 2319      00
 2320 1368 4883C410 		addq	$16, %rsp
 248:testSvf2Csvf.cpp **** 		"F1C2E093", 32,
 249:testSvf2Csvf.cpp **** 		"e5", 8,
 250:testSvf2Csvf.cpp **** 		"0A", 4,
 251:testSvf2Csvf.cpp **** 		"0AF1C2E093E5"
 252:testSvf2Csvf.cpp **** 	);
 253:testSvf2Csvf.cpp **** 	testShift(
 2321              		.loc 3 253 0
 2322 136c 4883EC08 		subq	$8, %rsp
 2323 1370 488D0500 		leaq	.LC63(%rip), %rax
 2323      000000
 2324 1377 50       		pushq	%rax
 2325 1378 41B90400 		movl	$4, %r9d
 2325      0000
 2326 137e 4C8D0500 		leaq	.LC26(%rip), %r8
 2326      000000
 2327 1385 B9090000 		movl	$9, %ecx
 2327      00
 2328 138a 488D1500 		leaq	.LC36(%rip), %rdx
 2328      000000
 2329 1391 BE200000 		movl	$32, %esi
 2329      00
 2330 1396 488D3D00 		leaq	.LC19(%rip), %rdi
 2330      000000
 2331 139d E8000000 		call	_Z9testShiftPKcjS0_jS0_jS0_
 2331      00
 2332 13a2 4883C410 		addq	$16, %rsp
 254:testSvf2Csvf.cpp **** 		"F1C2E093", 32,
 255:testSvf2Csvf.cpp **** 		"0115", 9,
 256:testSvf2Csvf.cpp **** 		"0A", 4,
 257:testSvf2Csvf.cpp **** 		"15E385C12715"
 258:testSvf2Csvf.cpp **** 	);
 259:testSvf2Csvf.cpp **** 	testShift(
 2333              		.loc 3 259 0
 2334 13a6 4883EC08 		subq	$8, %rsp
 2335 13aa 488D0500 		leaq	.LC64(%rip), %rax
 2335      000000
 2336 13b1 50       		pushq	%rax
 2337 13b2 41B90400 		movl	$4, %r9d
 2337      0000
 2338 13b8 4C8D0500 		leaq	.LC26(%rip), %r8
 2338      000000
 2339 13bf B90A0000 		movl	$10, %ecx
 2339      00
 2340 13c4 488D1500 		leaq	.LC38(%rip), %rdx
 2340      000000
 2341 13cb BE200000 		movl	$32, %esi
 2341      00
 2342 13d0 488D3D00 		leaq	.LC19(%rip), %rdi
 2342      000000
 2343 13d7 E8000000 		call	_Z9testShiftPKcjS0_jS0_jS0_
 2343      00
 2344 13dc 4883C410 		addq	$16, %rsp
 260:testSvf2Csvf.cpp **** 		"F1C2E093", 32,
 261:testSvf2Csvf.cpp **** 		"0315", 10,
 262:testSvf2Csvf.cpp **** 		"0A", 4,
 263:testSvf2Csvf.cpp **** 		"2BC70B824F15"
 264:testSvf2Csvf.cpp **** 	);
 265:testSvf2Csvf.cpp **** 	testShift(
 2345              		.loc 3 265 0
 2346 13e0 4883EC08 		subq	$8, %rsp
 2347 13e4 488D0500 		leaq	.LC65(%rip), %rax
 2347      000000
 2348 13eb 50       		pushq	%rax
 2349 13ec 41B90400 		movl	$4, %r9d
 2349      0000
 2350 13f2 4C8D0500 		leaq	.LC26(%rip), %r8
 2350      000000
 2351 13f9 B90B0000 		movl	$11, %ecx
 2351      00
 2352 13fe 488D1500 		leaq	.LC40(%rip), %rdx
 2352      000000
 2353 1405 BE200000 		movl	$32, %esi
 2353      00
 2354 140a 488D3D00 		leaq	.LC19(%rip), %rdi
 2354      000000
 2355 1411 E8000000 		call	_Z9testShiftPKcjS0_jS0_jS0_
 2355      00
 2356 1416 4883C410 		addq	$16, %rsp
 266:testSvf2Csvf.cpp **** 		"F1C2E093", 32,
 267:testSvf2Csvf.cpp **** 		"0715", 11,
 268:testSvf2Csvf.cpp **** 		"0A", 4,
 269:testSvf2Csvf.cpp **** 		"578E17049F15"
 270:testSvf2Csvf.cpp **** 	);
 271:testSvf2Csvf.cpp **** 	testShift(
 2357              		.loc 3 271 0
 2358 141a 4883EC08 		subq	$8, %rsp
 2359 141e 488D0500 		leaq	.LC66(%rip), %rax
 2359      000000
 2360 1425 50       		pushq	%rax
 2361 1426 41B90400 		movl	$4, %r9d
 2361      0000
 2362 142c 4C8D0500 		leaq	.LC26(%rip), %r8
 2362      000000
 2363 1433 B90C0000 		movl	$12, %ecx
 2363      00
 2364 1438 488D1500 		leaq	.LC42(%rip), %rdx
 2364      000000
 2365 143f BE200000 		movl	$32, %esi
 2365      00
 2366 1444 488D3D00 		leaq	.LC19(%rip), %rdi
 2366      000000
 2367 144b E8000000 		call	_Z9testShiftPKcjS0_jS0_jS0_
 2367      00
 2368 1450 4883C410 		addq	$16, %rsp
 272:testSvf2Csvf.cpp **** 		"F1C2E093", 32,
 273:testSvf2Csvf.cpp **** 		"0c15", 12,
 274:testSvf2Csvf.cpp **** 		"0A", 4,
 275:testSvf2Csvf.cpp **** 		"AF1C2E093C15"
 276:testSvf2Csvf.cpp **** 	);
 277:testSvf2Csvf.cpp **** 	testShift(
 2369              		.loc 3 277 0
 2370 1454 4883EC08 		subq	$8, %rsp
 2371 1458 488D0500 		leaq	.LC67(%rip), %rax
 2371      000000
 2372 145f 50       		pushq	%rax
 2373 1460 41B90400 		movl	$4, %r9d
 2373      0000
 2374 1466 4C8D0500 		leaq	.LC26(%rip), %r8
 2374      000000
 2375 146d B90D0000 		movl	$13, %ecx
 2375      00
 2376 1472 488D1500 		leaq	.LC44(%rip), %rdx
 2376      000000
 2377 1479 BE200000 		movl	$32, %esi
 2377      00
 2378 147e 488D3D00 		leaq	.LC19(%rip), %rdi
 2378      000000
 2379 1485 E8000000 		call	_Z9testShiftPKcjS0_jS0_jS0_
 2379      00
 2380 148a 4883C410 		addq	$16, %rsp
 278:testSvf2Csvf.cpp **** 		"F1C2E093", 32,
 279:testSvf2Csvf.cpp **** 		"1c15", 13,
 280:testSvf2Csvf.cpp **** 		"0A", 4,
 281:testSvf2Csvf.cpp **** 		"015E385C127C15"
 282:testSvf2Csvf.cpp **** 	);
 283:testSvf2Csvf.cpp **** 	testShift(
 2381              		.loc 3 283 0
 2382 148e 4883EC08 		subq	$8, %rsp
 2383 1492 488D0500 		leaq	.LC68(%rip), %rax
 2383      000000
 2384 1499 50       		pushq	%rax
 2385 149a 41B90400 		movl	$4, %r9d
 2385      0000
 2386 14a0 4C8D0500 		leaq	.LC26(%rip), %r8
 2386      000000
 2387 14a7 B90E0000 		movl	$14, %ecx
 2387      00
 2388 14ac 488D1500 		leaq	.LC46(%rip), %rdx
 2388      000000
 2389 14b3 BE200000 		movl	$32, %esi
 2389      00
 2390 14b8 488D3D00 		leaq	.LC19(%rip), %rdi
 2390      000000
 2391 14bf E8000000 		call	_Z9testShiftPKcjS0_jS0_jS0_
 2391      00
 2392 14c4 4883C410 		addq	$16, %rsp
 284:testSvf2Csvf.cpp **** 		"F1C2E093", 32,
 285:testSvf2Csvf.cpp **** 		"2c15", 14,
 286:testSvf2Csvf.cpp **** 		"0A", 4,
 287:testSvf2Csvf.cpp **** 		"02BC70B824EC15"
 288:testSvf2Csvf.cpp **** 	);
 289:testSvf2Csvf.cpp **** 	testShift(
 2393              		.loc 3 289 0
 2394 14c8 4883EC08 		subq	$8, %rsp
 2395 14cc 488D0500 		leaq	.LC69(%rip), %rax
 2395      000000
 2396 14d3 50       		pushq	%rax
 2397 14d4 41B90400 		movl	$4, %r9d
 2397      0000
 2398 14da 4C8D0500 		leaq	.LC26(%rip), %r8
 2398      000000
 2399 14e1 B90F0000 		movl	$15, %ecx
 2399      00
 2400 14e6 488D1500 		leaq	.LC48(%rip), %rdx
 2400      000000
 2401 14ed BE200000 		movl	$32, %esi
 2401      00
 2402 14f2 488D3D00 		leaq	.LC19(%rip), %rdi
 2402      000000
 2403 14f9 E8000000 		call	_Z9testShiftPKcjS0_jS0_jS0_
 2403      00
 2404 14fe 4883C410 		addq	$16, %rsp
 290:testSvf2Csvf.cpp **** 		"F1C2E093", 32,
 291:testSvf2Csvf.cpp **** 		"4015", 15,
 292:testSvf2Csvf.cpp **** 		"0A", 4,
 293:testSvf2Csvf.cpp **** 		"0578E17049C015"
 294:testSvf2Csvf.cpp **** 	);
 295:testSvf2Csvf.cpp **** 	testShift(
 2405              		.loc 3 295 0
 2406 1502 4883EC08 		subq	$8, %rsp
 2407 1506 488D0500 		leaq	.LC70(%rip), %rax
 2407      000000
 2408 150d 50       		pushq	%rax
 2409 150e 41B90400 		movl	$4, %r9d
 2409      0000
 2410 1514 4C8D0500 		leaq	.LC26(%rip), %r8
 2410      000000
 2411 151b B9100000 		movl	$16, %ecx
 2411      00
 2412 1520 488D1500 		leaq	.LC50(%rip), %rdx
 2412      000000
 2413 1527 BE200000 		movl	$32, %esi
 2413      00
 2414 152c 488D3D00 		leaq	.LC19(%rip), %rdi
 2414      000000
 2415 1533 E8000000 		call	_Z9testShiftPKcjS0_jS0_jS0_
 2415      00
 2416 1538 4883C410 		addq	$16, %rsp
 296:testSvf2Csvf.cpp **** 		"F1C2E093", 32,
 297:testSvf2Csvf.cpp **** 		"8015", 16,
 298:testSvf2Csvf.cpp **** 		"0A", 4,
 299:testSvf2Csvf.cpp **** 		"0AF1C2E0938015"
 300:testSvf2Csvf.cpp **** 	);
 301:testSvf2Csvf.cpp **** 	testShift(
 2417              		.loc 3 301 0
 2418 153c 4883EC08 		subq	$8, %rsp
 2419 1540 488D0500 		leaq	.LC71(%rip), %rax
 2419      000000
 2420 1547 50       		pushq	%rax
 2421 1548 41B90400 		movl	$4, %r9d
 2421      0000
 2422 154e 4C8D0500 		leaq	.LC26(%rip), %r8
 2422      000000
 2423 1555 B9110000 		movl	$17, %ecx
 2423      00
 2424 155a 488D1500 		leaq	.LC52(%rip), %rdx
 2424      000000
 2425 1561 BE200000 		movl	$32, %esi
 2425      00
 2426 1566 488D3D00 		leaq	.LC19(%rip), %rdi
 2426      000000
 2427 156d E8000000 		call	_Z9testShiftPKcjS0_jS0_jS0_
 2427      00
 2428 1572 4883C410 		addq	$16, %rsp
 302:testSvf2Csvf.cpp **** 		"F1C2E093", 32,
 303:testSvf2Csvf.cpp **** 		"018015", 17,
 304:testSvf2Csvf.cpp **** 		"0A", 4,
 305:testSvf2Csvf.cpp **** 		"15E385C1278015"
 306:testSvf2Csvf.cpp **** 	);
 307:testSvf2Csvf.cpp **** 	testShift(
 2429              		.loc 3 307 0
 2430 1576 4883EC08 		subq	$8, %rsp
 2431 157a 488D0500 		leaq	.LC73(%rip), %rax
 2431      000000
 2432 1581 50       		pushq	%rax
 2433 1582 41B90900 		movl	$9, %r9d
 2433      0000
 2434 1588 4C8D0500 		leaq	.LC72(%rip), %r8
 2434      000000
 2435 158f B9000000 		movl	$0, %ecx
 2435      00
 2436 1594 488D1500 		leaq	.LC18(%rip), %rdx
 2436      000000
 2437 159b BE200000 		movl	$32, %esi
 2437      00
 2438 15a0 488D3D00 		leaq	.LC19(%rip), %rdi
 2438      000000
 2439 15a7 E8000000 		call	_Z9testShiftPKcjS0_jS0_jS0_
 2439      00
 2440 15ac 4883C410 		addq	$16, %rsp
 308:testSvf2Csvf.cpp **** 		"F1C2E093", 32,
 309:testSvf2Csvf.cpp **** 		"00", 0,
 310:testSvf2Csvf.cpp **** 		"0135", 9,
 311:testSvf2Csvf.cpp **** 		"0135F1C2E093"
 312:testSvf2Csvf.cpp **** 	);
 313:testSvf2Csvf.cpp **** 	testShift(
 2441              		.loc 3 313 0
 2442 15b0 4883EC08 		subq	$8, %rsp
 2443 15b4 488D0500 		leaq	.LC74(%rip), %rax
 2443      000000
 2444 15bb 50       		pushq	%rax
 2445 15bc 41B90900 		movl	$9, %r9d
 2445      0000
 2446 15c2 4C8D0500 		leaq	.LC72(%rip), %r8
 2446      000000
 2447 15c9 B9010000 		movl	$1, %ecx
 2447      00
 2448 15ce 488D1500 		leaq	.LC21(%rip), %rdx
 2448      000000
 2449 15d5 BE200000 		movl	$32, %esi
 2449      00
 2450 15da 488D3D00 		leaq	.LC19(%rip), %rdi
 2450      000000
 2451 15e1 E8000000 		call	_Z9testShiftPKcjS0_jS0_jS0_
 2451      00
 2452 15e6 4883C410 		addq	$16, %rsp
 314:testSvf2Csvf.cpp **** 		"F1C2E093", 32,
 315:testSvf2Csvf.cpp **** 		"01", 1,
 316:testSvf2Csvf.cpp **** 		"0135", 9,
 317:testSvf2Csvf.cpp **** 		"026BE385C127"
 318:testSvf2Csvf.cpp **** 	);
 319:testSvf2Csvf.cpp **** 	testShift(
 2453              		.loc 3 319 0
 2454 15ea 4883EC08 		subq	$8, %rsp
 2455 15ee 488D0500 		leaq	.LC75(%rip), %rax
 2455      000000
 2456 15f5 50       		pushq	%rax
 2457 15f6 41B90900 		movl	$9, %r9d
 2457      0000
 2458 15fc 4C8D0500 		leaq	.LC72(%rip), %r8
 2458      000000
 2459 1603 B9020000 		movl	$2, %ecx
 2459      00
 2460 1608 488D1500 		leaq	.LC23(%rip), %rdx
 2460      000000
 2461 160f BE200000 		movl	$32, %esi
 2461      00
 2462 1614 488D3D00 		leaq	.LC19(%rip), %rdi
 2462      000000
 2463 161b E8000000 		call	_Z9testShiftPKcjS0_jS0_jS0_
 2463      00
 2464 1620 4883C410 		addq	$16, %rsp
 320:testSvf2Csvf.cpp **** 		"F1C2E093", 32,
 321:testSvf2Csvf.cpp **** 		"02", 2,
 322:testSvf2Csvf.cpp **** 		"0135", 9,
 323:testSvf2Csvf.cpp **** 		"04D7C70B824E"
 324:testSvf2Csvf.cpp **** 	);
 325:testSvf2Csvf.cpp **** 	testShift(
 2465              		.loc 3 325 0
 2466 1624 4883EC08 		subq	$8, %rsp
 2467 1628 488D0500 		leaq	.LC76(%rip), %rax
 2467      000000
 2468 162f 50       		pushq	%rax
 2469 1630 41B90900 		movl	$9, %r9d
 2469      0000
 2470 1636 4C8D0500 		leaq	.LC72(%rip), %r8
 2470      000000
 2471 163d B9030000 		movl	$3, %ecx
 2471      00
 2472 1642 488D1500 		leaq	.LC17(%rip), %rdx
 2472      000000
 2473 1649 BE200000 		movl	$32, %esi
 2473      00
 2474 164e 488D3D00 		leaq	.LC19(%rip), %rdi
 2474      000000
 2475 1655 E8000000 		call	_Z9testShiftPKcjS0_jS0_jS0_
 2475      00
 2476 165a 4883C410 		addq	$16, %rsp
 326:testSvf2Csvf.cpp **** 		"F1C2E093", 32,
 327:testSvf2Csvf.cpp **** 		"06", 3,
 328:testSvf2Csvf.cpp **** 		"0135", 9,
 329:testSvf2Csvf.cpp **** 		"09AF8E17049E"
 330:testSvf2Csvf.cpp **** 	);
 331:testSvf2Csvf.cpp **** 	testShift(
 2477              		.loc 3 331 0
 2478 165e 4883EC08 		subq	$8, %rsp
 2479 1662 488D0500 		leaq	.LC77(%rip), %rax
 2479      000000
 2480 1669 50       		pushq	%rax
 2481 166a 41B90900 		movl	$9, %r9d
 2481      0000
 2482 1670 4C8D0500 		leaq	.LC72(%rip), %r8
 2482      000000
 2483 1677 B9040000 		movl	$4, %ecx
 2483      00
 2484 167c 488D1500 		leaq	.LC26(%rip), %rdx
 2484      000000
 2485 1683 BE200000 		movl	$32, %esi
 2485      00
 2486 1688 488D3D00 		leaq	.LC19(%rip), %rdi
 2486      000000
 2487 168f E8000000 		call	_Z9testShiftPKcjS0_jS0_jS0_
 2487      00
 2488 1694 4883C410 		addq	$16, %rsp
 332:testSvf2Csvf.cpp **** 		"F1C2E093", 32,
 333:testSvf2Csvf.cpp **** 		"0A", 4,
 334:testSvf2Csvf.cpp **** 		"0135", 9,
 335:testSvf2Csvf.cpp **** 		"135F1C2E093A"
 336:testSvf2Csvf.cpp **** 	);
 337:testSvf2Csvf.cpp **** 	testShift(
 2489              		.loc 3 337 0
 2490 1698 4883EC08 		subq	$8, %rsp
 2491 169c 488D0500 		leaq	.LC78(%rip), %rax
 2491      000000
 2492 16a3 50       		pushq	%rax
 2493 16a4 41B90900 		movl	$9, %r9d
 2493      0000
 2494 16aa 4C8D0500 		leaq	.LC72(%rip), %r8
 2494      000000
 2495 16b1 B9050000 		movl	$5, %ecx
 2495      00
 2496 16b6 488D1500 		leaq	.LC28(%rip), %rdx
 2496      000000
 2497 16bd BE200000 		movl	$32, %esi
 2497      00
 2498 16c2 488D3D00 		leaq	.LC19(%rip), %rdi
 2498      000000
 2499 16c9 E8000000 		call	_Z9testShiftPKcjS0_jS0_jS0_
 2499      00
 2500 16ce 4883C410 		addq	$16, %rsp
 338:testSvf2Csvf.cpp **** 		"F1C2E093", 32,
 339:testSvf2Csvf.cpp **** 		"15", 5,
 340:testSvf2Csvf.cpp **** 		"0135", 9,
 341:testSvf2Csvf.cpp **** 		"26BE385C1275"
 342:testSvf2Csvf.cpp **** 	);
 343:testSvf2Csvf.cpp **** 	testShift(
 2501              		.loc 3 343 0
 2502 16d2 4883EC08 		subq	$8, %rsp
 2503 16d6 488D0500 		leaq	.LC79(%rip), %rax
 2503      000000
 2504 16dd 50       		pushq	%rax
 2505 16de 41B90900 		movl	$9, %r9d
 2505      0000
 2506 16e4 4C8D0500 		leaq	.LC72(%rip), %r8
 2506      000000
 2507 16eb B9060000 		movl	$6, %ecx
 2507      00
 2508 16f0 488D1500 		leaq	.LC30(%rip), %rdx
 2508      000000
 2509 16f7 BE200000 		movl	$32, %esi
 2509      00
 2510 16fc 488D3D00 		leaq	.LC19(%rip), %rdi
 2510      000000
 2511 1703 E8000000 		call	_Z9testShiftPKcjS0_jS0_jS0_
 2511      00
 2512 1708 4883C410 		addq	$16, %rsp
 344:testSvf2Csvf.cpp **** 		"F1C2E093", 32,
 345:testSvf2Csvf.cpp **** 		"25", 6,
 346:testSvf2Csvf.cpp **** 		"0135", 9,
 347:testSvf2Csvf.cpp **** 		"4D7C70B824E5"
 348:testSvf2Csvf.cpp **** 	);
 349:testSvf2Csvf.cpp **** 	testShift(
 2513              		.loc 3 349 0
 2514 170c 4883EC08 		subq	$8, %rsp
 2515 1710 488D0500 		leaq	.LC80(%rip), %rax
 2515      000000
 2516 1717 50       		pushq	%rax
 2517 1718 41B90900 		movl	$9, %r9d
 2517      0000
 2518 171e 4C8D0500 		leaq	.LC72(%rip), %r8
 2518      000000
 2519 1725 B9070000 		movl	$7, %ecx
 2519      00
 2520 172a 488D1500 		leaq	.LC32(%rip), %rdx
 2520      000000
 2521 1731 BE200000 		movl	$32, %esi
 2521      00
 2522 1736 488D3D00 		leaq	.LC19(%rip), %rdi
 2522      000000
 2523 173d E8000000 		call	_Z9testShiftPKcjS0_jS0_jS0_
 2523      00
 2524 1742 4883C410 		addq	$16, %rsp
 350:testSvf2Csvf.cpp **** 		"F1C2E093", 32,
 351:testSvf2Csvf.cpp **** 		"75", 7,
 352:testSvf2Csvf.cpp **** 		"0135", 9,
 353:testSvf2Csvf.cpp **** 		"9AF8E17049F5"
 354:testSvf2Csvf.cpp **** 	);
 355:testSvf2Csvf.cpp **** 	testShift(
 2525              		.loc 3 355 0
 2526 1746 4883EC08 		subq	$8, %rsp
 2527 174a 488D0500 		leaq	.LC81(%rip), %rax
 2527      000000
 2528 1751 50       		pushq	%rax
 2529 1752 41B90900 		movl	$9, %r9d
 2529      0000
 2530 1758 4C8D0500 		leaq	.LC72(%rip), %r8
 2530      000000
 2531 175f B9080000 		movl	$8, %ecx
 2531      00
 2532 1764 488D1500 		leaq	.LC34(%rip), %rdx
 2532      000000
 2533 176b BE200000 		movl	$32, %esi
 2533      00
 2534 1770 488D3D00 		leaq	.LC19(%rip), %rdi
 2534      000000
 2535 1777 E8000000 		call	_Z9testShiftPKcjS0_jS0_jS0_
 2535      00
 2536 177c 4883C410 		addq	$16, %rsp
 356:testSvf2Csvf.cpp **** 		"F1C2E093", 32,
 357:testSvf2Csvf.cpp **** 		"e5", 8,
 358:testSvf2Csvf.cpp **** 		"0135", 9,
 359:testSvf2Csvf.cpp **** 		"0135F1C2E093E5"
 360:testSvf2Csvf.cpp **** 	);
 361:testSvf2Csvf.cpp **** 	testShift(
 2537              		.loc 3 361 0
 2538 1780 4883EC08 		subq	$8, %rsp
 2539 1784 488D0500 		leaq	.LC82(%rip), %rax
 2539      000000
 2540 178b 50       		pushq	%rax
 2541 178c 41B90900 		movl	$9, %r9d
 2541      0000
 2542 1792 4C8D0500 		leaq	.LC72(%rip), %r8
 2542      000000
 2543 1799 B9090000 		movl	$9, %ecx
 2543      00
 2544 179e 488D1500 		leaq	.LC36(%rip), %rdx
 2544      000000
 2545 17a5 BE200000 		movl	$32, %esi
 2545      00
 2546 17aa 488D3D00 		leaq	.LC19(%rip), %rdi
 2546      000000
 2547 17b1 E8000000 		call	_Z9testShiftPKcjS0_jS0_jS0_
 2547      00
 2548 17b6 4883C410 		addq	$16, %rsp
 362:testSvf2Csvf.cpp **** 		"F1C2E093", 32,
 363:testSvf2Csvf.cpp **** 		"0115", 9,
 364:testSvf2Csvf.cpp **** 		"0135", 9,
 365:testSvf2Csvf.cpp **** 		"026BE385C12715"
 366:testSvf2Csvf.cpp **** 	);
 367:testSvf2Csvf.cpp **** 	testShift(
 2549              		.loc 3 367 0
 2550 17ba 4883EC08 		subq	$8, %rsp
 2551 17be 488D0500 		leaq	.LC83(%rip), %rax
 2551      000000
 2552 17c5 50       		pushq	%rax
 2553 17c6 41B90900 		movl	$9, %r9d
 2553      0000
 2554 17cc 4C8D0500 		leaq	.LC72(%rip), %r8
 2554      000000
 2555 17d3 B90A0000 		movl	$10, %ecx
 2555      00
 2556 17d8 488D1500 		leaq	.LC38(%rip), %rdx
 2556      000000
 2557 17df BE200000 		movl	$32, %esi
 2557      00
 2558 17e4 488D3D00 		leaq	.LC19(%rip), %rdi
 2558      000000
 2559 17eb E8000000 		call	_Z9testShiftPKcjS0_jS0_jS0_
 2559      00
 2560 17f0 4883C410 		addq	$16, %rsp
 368:testSvf2Csvf.cpp **** 		"F1C2E093", 32,
 369:testSvf2Csvf.cpp **** 		"0315", 10,
 370:testSvf2Csvf.cpp **** 		"0135", 9,
 371:testSvf2Csvf.cpp **** 		"04D7C70B824F15"
 372:testSvf2Csvf.cpp **** 	);
 373:testSvf2Csvf.cpp **** 	testShift(
 2561              		.loc 3 373 0
 2562 17f4 4883EC08 		subq	$8, %rsp
 2563 17f8 488D0500 		leaq	.LC84(%rip), %rax
 2563      000000
 2564 17ff 50       		pushq	%rax
 2565 1800 41B90900 		movl	$9, %r9d
 2565      0000
 2566 1806 4C8D0500 		leaq	.LC72(%rip), %r8
 2566      000000
 2567 180d B90B0000 		movl	$11, %ecx
 2567      00
 2568 1812 488D1500 		leaq	.LC40(%rip), %rdx
 2568      000000
 2569 1819 BE200000 		movl	$32, %esi
 2569      00
 2570 181e 488D3D00 		leaq	.LC19(%rip), %rdi
 2570      000000
 2571 1825 E8000000 		call	_Z9testShiftPKcjS0_jS0_jS0_
 2571      00
 2572 182a 4883C410 		addq	$16, %rsp
 374:testSvf2Csvf.cpp **** 		"F1C2E093", 32,
 375:testSvf2Csvf.cpp **** 		"0715", 11,
 376:testSvf2Csvf.cpp **** 		"0135", 9,
 377:testSvf2Csvf.cpp **** 		"09AF8E17049F15"
 378:testSvf2Csvf.cpp **** 	);
 379:testSvf2Csvf.cpp **** 	testShift(
 2573              		.loc 3 379 0
 2574 182e 4883EC08 		subq	$8, %rsp
 2575 1832 488D0500 		leaq	.LC85(%rip), %rax
 2575      000000
 2576 1839 50       		pushq	%rax
 2577 183a 41B90900 		movl	$9, %r9d
 2577      0000
 2578 1840 4C8D0500 		leaq	.LC72(%rip), %r8
 2578      000000
 2579 1847 B90C0000 		movl	$12, %ecx
 2579      00
 2580 184c 488D1500 		leaq	.LC42(%rip), %rdx
 2580      000000
 2581 1853 BE200000 		movl	$32, %esi
 2581      00
 2582 1858 488D3D00 		leaq	.LC19(%rip), %rdi
 2582      000000
 2583 185f E8000000 		call	_Z9testShiftPKcjS0_jS0_jS0_
 2583      00
 2584 1864 4883C410 		addq	$16, %rsp
 380:testSvf2Csvf.cpp **** 		"F1C2E093", 32,
 381:testSvf2Csvf.cpp **** 		"0c15", 12,
 382:testSvf2Csvf.cpp **** 		"0135", 9,
 383:testSvf2Csvf.cpp **** 		"135F1C2E093C15"
 384:testSvf2Csvf.cpp **** 	);
 385:testSvf2Csvf.cpp **** 	testShift(
 2585              		.loc 3 385 0
 2586 1868 4883EC08 		subq	$8, %rsp
 2587 186c 488D0500 		leaq	.LC86(%rip), %rax
 2587      000000
 2588 1873 50       		pushq	%rax
 2589 1874 41B90900 		movl	$9, %r9d
 2589      0000
 2590 187a 4C8D0500 		leaq	.LC72(%rip), %r8
 2590      000000
 2591 1881 B90D0000 		movl	$13, %ecx
 2591      00
 2592 1886 488D1500 		leaq	.LC44(%rip), %rdx
 2592      000000
 2593 188d BE200000 		movl	$32, %esi
 2593      00
 2594 1892 488D3D00 		leaq	.LC19(%rip), %rdi
 2594      000000
 2595 1899 E8000000 		call	_Z9testShiftPKcjS0_jS0_jS0_
 2595      00
 2596 189e 4883C410 		addq	$16, %rsp
 386:testSvf2Csvf.cpp **** 		"F1C2E093", 32,
 387:testSvf2Csvf.cpp **** 		"1c15", 13,
 388:testSvf2Csvf.cpp **** 		"0135", 9,
 389:testSvf2Csvf.cpp **** 		"26BE385C127C15"
 390:testSvf2Csvf.cpp **** 	);
 391:testSvf2Csvf.cpp **** 	testShift(
 2597              		.loc 3 391 0
 2598 18a2 4883EC08 		subq	$8, %rsp
 2599 18a6 488D0500 		leaq	.LC87(%rip), %rax
 2599      000000
 2600 18ad 50       		pushq	%rax
 2601 18ae 41B90900 		movl	$9, %r9d
 2601      0000
 2602 18b4 4C8D0500 		leaq	.LC72(%rip), %r8
 2602      000000
 2603 18bb B90E0000 		movl	$14, %ecx
 2603      00
 2604 18c0 488D1500 		leaq	.LC46(%rip), %rdx
 2604      000000
 2605 18c7 BE200000 		movl	$32, %esi
 2605      00
 2606 18cc 488D3D00 		leaq	.LC19(%rip), %rdi
 2606      000000
 2607 18d3 E8000000 		call	_Z9testShiftPKcjS0_jS0_jS0_
 2607      00
 2608 18d8 4883C410 		addq	$16, %rsp
 392:testSvf2Csvf.cpp **** 		"F1C2E093", 32,
 393:testSvf2Csvf.cpp **** 		"2c15", 14,
 394:testSvf2Csvf.cpp **** 		"0135", 9,
 395:testSvf2Csvf.cpp **** 		"4D7C70B824EC15"
 396:testSvf2Csvf.cpp **** 	);
 397:testSvf2Csvf.cpp **** 	testShift(
 2609              		.loc 3 397 0
 2610 18dc 4883EC08 		subq	$8, %rsp
 2611 18e0 488D0500 		leaq	.LC88(%rip), %rax
 2611      000000
 2612 18e7 50       		pushq	%rax
 2613 18e8 41B90900 		movl	$9, %r9d
 2613      0000
 2614 18ee 4C8D0500 		leaq	.LC72(%rip), %r8
 2614      000000
 2615 18f5 B90F0000 		movl	$15, %ecx
 2615      00
 2616 18fa 488D1500 		leaq	.LC48(%rip), %rdx
 2616      000000
 2617 1901 BE200000 		movl	$32, %esi
 2617      00
 2618 1906 488D3D00 		leaq	.LC19(%rip), %rdi
 2618      000000
 2619 190d E8000000 		call	_Z9testShiftPKcjS0_jS0_jS0_
 2619      00
 2620 1912 4883C410 		addq	$16, %rsp
 398:testSvf2Csvf.cpp **** 		"F1C2E093", 32,
 399:testSvf2Csvf.cpp **** 		"4015", 15,
 400:testSvf2Csvf.cpp **** 		"0135", 9,
 401:testSvf2Csvf.cpp **** 		"9AF8E17049C015"
 402:testSvf2Csvf.cpp **** 	);
 403:testSvf2Csvf.cpp **** 	testShift(
 2621              		.loc 3 403 0
 2622 1916 4883EC08 		subq	$8, %rsp
 2623 191a 488D0500 		leaq	.LC89(%rip), %rax
 2623      000000
 2624 1921 50       		pushq	%rax
 2625 1922 41B90900 		movl	$9, %r9d
 2625      0000
 2626 1928 4C8D0500 		leaq	.LC72(%rip), %r8
 2626      000000
 2627 192f B9100000 		movl	$16, %ecx
 2627      00
 2628 1934 488D1500 		leaq	.LC50(%rip), %rdx
 2628      000000
 2629 193b BE200000 		movl	$32, %esi
 2629      00
 2630 1940 488D3D00 		leaq	.LC19(%rip), %rdi
 2630      000000
 2631 1947 E8000000 		call	_Z9testShiftPKcjS0_jS0_jS0_
 2631      00
 2632 194c 4883C410 		addq	$16, %rsp
 404:testSvf2Csvf.cpp **** 		"F1C2E093", 32,
 405:testSvf2Csvf.cpp **** 		"8015", 16,
 406:testSvf2Csvf.cpp **** 		"0135", 9,
 407:testSvf2Csvf.cpp **** 		"0135F1C2E0938015"
 408:testSvf2Csvf.cpp **** 	);
 409:testSvf2Csvf.cpp **** 	testShift(
 2633              		.loc 3 409 0
 2634 1950 4883EC08 		subq	$8, %rsp
 2635 1954 488D0500 		leaq	.LC90(%rip), %rax
 2635      000000
 2636 195b 50       		pushq	%rax
 2637 195c 41B90900 		movl	$9, %r9d
 2637      0000
 2638 1962 4C8D0500 		leaq	.LC72(%rip), %r8
 2638      000000
 2639 1969 B9110000 		movl	$17, %ecx
 2639      00
 2640 196e 488D1500 		leaq	.LC52(%rip), %rdx
 2640      000000
 2641 1975 BE200000 		movl	$32, %esi
 2641      00
 2642 197a 488D3D00 		leaq	.LC19(%rip), %rdi
 2642      000000
 2643 1981 E8000000 		call	_Z9testShiftPKcjS0_jS0_jS0_
 2643      00
 2644 1986 4883C410 		addq	$16, %rsp
 410:testSvf2Csvf.cpp **** 		"F1C2E093", 32,
 411:testSvf2Csvf.cpp **** 		"018015", 17,
 412:testSvf2Csvf.cpp **** 		"0135", 9,
 413:testSvf2Csvf.cpp **** 		"026BE385C1278015"
 414:testSvf2Csvf.cpp **** 	);
 415:testSvf2Csvf.cpp **** 	testShift(
 2645              		.loc 3 415 0
 2646 198a 4883EC08 		subq	$8, %rsp
 2647 198e 488D0500 		leaq	.LC92(%rip), %rax
 2647      000000
 2648 1995 50       		pushq	%rax
 2649 1996 41B90900 		movl	$9, %r9d
 2649      0000
 2650 199c 4C8D0500 		leaq	.LC72(%rip), %r8
 2650      000000
 2651 19a3 B9000000 		movl	$0, %ecx
 2651      00
 2652 19a8 488D1500 		leaq	.LC18(%rip), %rdx
 2652      000000
 2653 19af BE1F0000 		movl	$31, %esi
 2653      00
 2654 19b4 488D3D00 		leaq	.LC91(%rip), %rdi
 2654      000000
 2655 19bb E8000000 		call	_Z9testShiftPKcjS0_jS0_jS0_
 2655      00
 2656 19c0 4883C410 		addq	$16, %rsp
 416:testSvf2Csvf.cpp **** 		"71C2E093", 31,
 417:testSvf2Csvf.cpp **** 		"00", 0,
 418:testSvf2Csvf.cpp **** 		"0135", 9,
 419:testSvf2Csvf.cpp **** 		"9AF1C2E093"
 420:testSvf2Csvf.cpp **** 	);
 421:testSvf2Csvf.cpp **** 	testShift(
 2657              		.loc 3 421 0
 2658 19c4 4883EC08 		subq	$8, %rsp
 2659 19c8 488D0500 		leaq	.LC93(%rip), %rax
 2659      000000
 2660 19cf 50       		pushq	%rax
 2661 19d0 41B90900 		movl	$9, %r9d
 2661      0000
 2662 19d6 4C8D0500 		leaq	.LC72(%rip), %r8
 2662      000000
 2663 19dd B9010000 		movl	$1, %ecx
 2663      00
 2664 19e2 488D1500 		leaq	.LC21(%rip), %rdx
 2664      000000
 2665 19e9 BE1F0000 		movl	$31, %esi
 2665      00
 2666 19ee 488D3D00 		leaq	.LC91(%rip), %rdi
 2666      000000
 2667 19f5 E8000000 		call	_Z9testShiftPKcjS0_jS0_jS0_
 2667      00
 2668 19fa 4883C410 		addq	$16, %rsp
 422:testSvf2Csvf.cpp **** 		"71C2E093", 31,
 423:testSvf2Csvf.cpp **** 		"01", 1,
 424:testSvf2Csvf.cpp **** 		"0135", 9,
 425:testSvf2Csvf.cpp **** 		"0135E385C127"
 426:testSvf2Csvf.cpp **** 	);
 427:testSvf2Csvf.cpp **** 	testShift(
 2669              		.loc 3 427 0
 2670 19fe 4883EC08 		subq	$8, %rsp
 2671 1a02 488D0500 		leaq	.LC94(%rip), %rax
 2671      000000
 2672 1a09 50       		pushq	%rax
 2673 1a0a 41B90900 		movl	$9, %r9d
 2673      0000
 2674 1a10 4C8D0500 		leaq	.LC72(%rip), %r8
 2674      000000
 2675 1a17 B9020000 		movl	$2, %ecx
 2675      00
 2676 1a1c 488D1500 		leaq	.LC23(%rip), %rdx
 2676      000000
 2677 1a23 BE1F0000 		movl	$31, %esi
 2677      00
 2678 1a28 488D3D00 		leaq	.LC91(%rip), %rdi
 2678      000000
 2679 1a2f E8000000 		call	_Z9testShiftPKcjS0_jS0_jS0_
 2679      00
 2680 1a34 4883C410 		addq	$16, %rsp
 428:testSvf2Csvf.cpp **** 		"71C2E093", 31,
 429:testSvf2Csvf.cpp **** 		"02", 2,
 430:testSvf2Csvf.cpp **** 		"0135", 9,
 431:testSvf2Csvf.cpp **** 		"026BC70B824E"
 432:testSvf2Csvf.cpp **** 	);
 433:testSvf2Csvf.cpp **** 	testShift(
 2681              		.loc 3 433 0
 2682 1a38 4883EC08 		subq	$8, %rsp
 2683 1a3c 488D0500 		leaq	.LC95(%rip), %rax
 2683      000000
 2684 1a43 50       		pushq	%rax
 2685 1a44 41B90900 		movl	$9, %r9d
 2685      0000
 2686 1a4a 4C8D0500 		leaq	.LC72(%rip), %r8
 2686      000000
 2687 1a51 B9030000 		movl	$3, %ecx
 2687      00
 2688 1a56 488D1500 		leaq	.LC17(%rip), %rdx
 2688      000000
 2689 1a5d BE1F0000 		movl	$31, %esi
 2689      00
 2690 1a62 488D3D00 		leaq	.LC91(%rip), %rdi
 2690      000000
 2691 1a69 E8000000 		call	_Z9testShiftPKcjS0_jS0_jS0_
 2691      00
 2692 1a6e 4883C410 		addq	$16, %rsp
 434:testSvf2Csvf.cpp **** 		"71C2E093", 31,
 435:testSvf2Csvf.cpp **** 		"06", 3,
 436:testSvf2Csvf.cpp **** 		"0135", 9,
 437:testSvf2Csvf.cpp **** 		"04D78E17049E"
 438:testSvf2Csvf.cpp **** 	);
 439:testSvf2Csvf.cpp **** 	testShift(
 2693              		.loc 3 439 0
 2694 1a72 4883EC08 		subq	$8, %rsp
 2695 1a76 488D0500 		leaq	.LC96(%rip), %rax
 2695      000000
 2696 1a7d 50       		pushq	%rax
 2697 1a7e 41B90900 		movl	$9, %r9d
 2697      0000
 2698 1a84 4C8D0500 		leaq	.LC72(%rip), %r8
 2698      000000
 2699 1a8b B9040000 		movl	$4, %ecx
 2699      00
 2700 1a90 488D1500 		leaq	.LC26(%rip), %rdx
 2700      000000
 2701 1a97 BE1F0000 		movl	$31, %esi
 2701      00
 2702 1a9c 488D3D00 		leaq	.LC91(%rip), %rdi
 2702      000000
 2703 1aa3 E8000000 		call	_Z9testShiftPKcjS0_jS0_jS0_
 2703      00
 2704 1aa8 4883C410 		addq	$16, %rsp
 440:testSvf2Csvf.cpp **** 		"71C2E093", 31,
 441:testSvf2Csvf.cpp **** 		"0A", 4,
 442:testSvf2Csvf.cpp **** 		"0135", 9,
 443:testSvf2Csvf.cpp **** 		"09AF1C2E093A"
 444:testSvf2Csvf.cpp **** 	);
 445:testSvf2Csvf.cpp **** 	testShift(
 2705              		.loc 3 445 0
 2706 1aac 4883EC08 		subq	$8, %rsp
 2707 1ab0 488D0500 		leaq	.LC97(%rip), %rax
 2707      000000
 2708 1ab7 50       		pushq	%rax
 2709 1ab8 41B90900 		movl	$9, %r9d
 2709      0000
 2710 1abe 4C8D0500 		leaq	.LC72(%rip), %r8
 2710      000000
 2711 1ac5 B9050000 		movl	$5, %ecx
 2711      00
 2712 1aca 488D1500 		leaq	.LC28(%rip), %rdx
 2712      000000
 2713 1ad1 BE1F0000 		movl	$31, %esi
 2713      00
 2714 1ad6 488D3D00 		leaq	.LC91(%rip), %rdi
 2714      000000
 2715 1add E8000000 		call	_Z9testShiftPKcjS0_jS0_jS0_
 2715      00
 2716 1ae2 4883C410 		addq	$16, %rsp
 446:testSvf2Csvf.cpp **** 		"71C2E093", 31,
 447:testSvf2Csvf.cpp **** 		"15", 5,
 448:testSvf2Csvf.cpp **** 		"0135", 9,
 449:testSvf2Csvf.cpp **** 		"135E385C1275"
 450:testSvf2Csvf.cpp **** 	);
 451:testSvf2Csvf.cpp **** 	testShift(
 2717              		.loc 3 451 0
 2718 1ae6 4883EC08 		subq	$8, %rsp
 2719 1aea 488D0500 		leaq	.LC98(%rip), %rax
 2719      000000
 2720 1af1 50       		pushq	%rax
 2721 1af2 41B90900 		movl	$9, %r9d
 2721      0000
 2722 1af8 4C8D0500 		leaq	.LC72(%rip), %r8
 2722      000000
 2723 1aff B9060000 		movl	$6, %ecx
 2723      00
 2724 1b04 488D1500 		leaq	.LC30(%rip), %rdx
 2724      000000
 2725 1b0b BE1F0000 		movl	$31, %esi
 2725      00
 2726 1b10 488D3D00 		leaq	.LC91(%rip), %rdi
 2726      000000
 2727 1b17 E8000000 		call	_Z9testShiftPKcjS0_jS0_jS0_
 2727      00
 2728 1b1c 4883C410 		addq	$16, %rsp
 452:testSvf2Csvf.cpp **** 		"71C2E093", 31,
 453:testSvf2Csvf.cpp **** 		"25", 6,
 454:testSvf2Csvf.cpp **** 		"0135", 9,
 455:testSvf2Csvf.cpp **** 		"26BC70B824E5"
 456:testSvf2Csvf.cpp **** 	);
 457:testSvf2Csvf.cpp **** 	testShift(
 2729              		.loc 3 457 0
 2730 1b20 4883EC08 		subq	$8, %rsp
 2731 1b24 488D0500 		leaq	.LC99(%rip), %rax
 2731      000000
 2732 1b2b 50       		pushq	%rax
 2733 1b2c 41B90900 		movl	$9, %r9d
 2733      0000
 2734 1b32 4C8D0500 		leaq	.LC72(%rip), %r8
 2734      000000
 2735 1b39 B9070000 		movl	$7, %ecx
 2735      00
 2736 1b3e 488D1500 		leaq	.LC32(%rip), %rdx
 2736      000000
 2737 1b45 BE1F0000 		movl	$31, %esi
 2737      00
 2738 1b4a 488D3D00 		leaq	.LC91(%rip), %rdi
 2738      000000
 2739 1b51 E8000000 		call	_Z9testShiftPKcjS0_jS0_jS0_
 2739      00
 2740 1b56 4883C410 		addq	$16, %rsp
 458:testSvf2Csvf.cpp **** 		"71C2E093", 31,
 459:testSvf2Csvf.cpp **** 		"75", 7,
 460:testSvf2Csvf.cpp **** 		"0135", 9,
 461:testSvf2Csvf.cpp **** 		"4D78E17049F5"
 462:testSvf2Csvf.cpp **** 	);
 463:testSvf2Csvf.cpp **** 	testShift(
 2741              		.loc 3 463 0
 2742 1b5a 4883EC08 		subq	$8, %rsp
 2743 1b5e 488D0500 		leaq	.LC100(%rip), %rax
 2743      000000
 2744 1b65 50       		pushq	%rax
 2745 1b66 41B90900 		movl	$9, %r9d
 2745      0000
 2746 1b6c 4C8D0500 		leaq	.LC72(%rip), %r8
 2746      000000
 2747 1b73 B9080000 		movl	$8, %ecx
 2747      00
 2748 1b78 488D1500 		leaq	.LC34(%rip), %rdx
 2748      000000
 2749 1b7f BE1F0000 		movl	$31, %esi
 2749      00
 2750 1b84 488D3D00 		leaq	.LC91(%rip), %rdi
 2750      000000
 2751 1b8b E8000000 		call	_Z9testShiftPKcjS0_jS0_jS0_
 2751      00
 2752 1b90 4883C410 		addq	$16, %rsp
 464:testSvf2Csvf.cpp **** 		"71C2E093", 31,
 465:testSvf2Csvf.cpp **** 		"e5", 8,
 466:testSvf2Csvf.cpp **** 		"0135", 9,
 467:testSvf2Csvf.cpp **** 		"9AF1C2E093E5"
 468:testSvf2Csvf.cpp **** 	);
 469:testSvf2Csvf.cpp **** 	testShift(
 2753              		.loc 3 469 0
 2754 1b94 4883EC08 		subq	$8, %rsp
 2755 1b98 488D0500 		leaq	.LC101(%rip), %rax
 2755      000000
 2756 1b9f 50       		pushq	%rax
 2757 1ba0 41B90900 		movl	$9, %r9d
 2757      0000
 2758 1ba6 4C8D0500 		leaq	.LC72(%rip), %r8
 2758      000000
 2759 1bad B9090000 		movl	$9, %ecx
 2759      00
 2760 1bb2 488D1500 		leaq	.LC36(%rip), %rdx
 2760      000000
 2761 1bb9 BE1F0000 		movl	$31, %esi
 2761      00
 2762 1bbe 488D3D00 		leaq	.LC91(%rip), %rdi
 2762      000000
 2763 1bc5 E8000000 		call	_Z9testShiftPKcjS0_jS0_jS0_
 2763      00
 2764 1bca 4883C410 		addq	$16, %rsp
 470:testSvf2Csvf.cpp **** 		"71C2E093", 31,
 471:testSvf2Csvf.cpp **** 		"0115", 9,
 472:testSvf2Csvf.cpp **** 		"0135", 9,
 473:testSvf2Csvf.cpp **** 		"0135E385C12715"
 474:testSvf2Csvf.cpp **** 	);
 475:testSvf2Csvf.cpp **** 	testShift(
 2765              		.loc 3 475 0
 2766 1bce 4883EC08 		subq	$8, %rsp
 2767 1bd2 488D0500 		leaq	.LC102(%rip), %rax
 2767      000000
 2768 1bd9 50       		pushq	%rax
 2769 1bda 41B90900 		movl	$9, %r9d
 2769      0000
 2770 1be0 4C8D0500 		leaq	.LC72(%rip), %r8
 2770      000000
 2771 1be7 B90A0000 		movl	$10, %ecx
 2771      00
 2772 1bec 488D1500 		leaq	.LC38(%rip), %rdx
 2772      000000
 2773 1bf3 BE1F0000 		movl	$31, %esi
 2773      00
 2774 1bf8 488D3D00 		leaq	.LC91(%rip), %rdi
 2774      000000
 2775 1bff E8000000 		call	_Z9testShiftPKcjS0_jS0_jS0_
 2775      00
 2776 1c04 4883C410 		addq	$16, %rsp
 476:testSvf2Csvf.cpp **** 		"71C2E093", 31,
 477:testSvf2Csvf.cpp **** 		"0315", 10,
 478:testSvf2Csvf.cpp **** 		"0135", 9,
 479:testSvf2Csvf.cpp **** 		"026BC70B824F15"
 480:testSvf2Csvf.cpp **** 	);
 481:testSvf2Csvf.cpp **** 	testShift(
 2777              		.loc 3 481 0
 2778 1c08 4883EC08 		subq	$8, %rsp
 2779 1c0c 488D0500 		leaq	.LC103(%rip), %rax
 2779      000000
 2780 1c13 50       		pushq	%rax
 2781 1c14 41B90900 		movl	$9, %r9d
 2781      0000
 2782 1c1a 4C8D0500 		leaq	.LC72(%rip), %r8
 2782      000000
 2783 1c21 B90B0000 		movl	$11, %ecx
 2783      00
 2784 1c26 488D1500 		leaq	.LC40(%rip), %rdx
 2784      000000
 2785 1c2d BE1F0000 		movl	$31, %esi
 2785      00
 2786 1c32 488D3D00 		leaq	.LC91(%rip), %rdi
 2786      000000
 2787 1c39 E8000000 		call	_Z9testShiftPKcjS0_jS0_jS0_
 2787      00
 2788 1c3e 4883C410 		addq	$16, %rsp
 482:testSvf2Csvf.cpp **** 		"71C2E093", 31,
 483:testSvf2Csvf.cpp **** 		"0715", 11,
 484:testSvf2Csvf.cpp **** 		"0135", 9,
 485:testSvf2Csvf.cpp **** 		"04D78E17049F15"
 486:testSvf2Csvf.cpp **** 	);
 487:testSvf2Csvf.cpp **** 	testShift(
 2789              		.loc 3 487 0
 2790 1c42 4883EC08 		subq	$8, %rsp
 2791 1c46 488D0500 		leaq	.LC104(%rip), %rax
 2791      000000
 2792 1c4d 50       		pushq	%rax
 2793 1c4e 41B90900 		movl	$9, %r9d
 2793      0000
 2794 1c54 4C8D0500 		leaq	.LC72(%rip), %r8
 2794      000000
 2795 1c5b B90C0000 		movl	$12, %ecx
 2795      00
 2796 1c60 488D1500 		leaq	.LC42(%rip), %rdx
 2796      000000
 2797 1c67 BE1F0000 		movl	$31, %esi
 2797      00
 2798 1c6c 488D3D00 		leaq	.LC91(%rip), %rdi
 2798      000000
 2799 1c73 E8000000 		call	_Z9testShiftPKcjS0_jS0_jS0_
 2799      00
 2800 1c78 4883C410 		addq	$16, %rsp
 488:testSvf2Csvf.cpp **** 		"71C2E093", 31,
 489:testSvf2Csvf.cpp **** 		"0c15", 12,
 490:testSvf2Csvf.cpp **** 		"0135", 9,
 491:testSvf2Csvf.cpp **** 		"09AF1C2E093C15"
 492:testSvf2Csvf.cpp **** 	);
 493:testSvf2Csvf.cpp **** 	testShift(
 2801              		.loc 3 493 0
 2802 1c7c 4883EC08 		subq	$8, %rsp
 2803 1c80 488D0500 		leaq	.LC105(%rip), %rax
 2803      000000
 2804 1c87 50       		pushq	%rax
 2805 1c88 41B90900 		movl	$9, %r9d
 2805      0000
 2806 1c8e 4C8D0500 		leaq	.LC72(%rip), %r8
 2806      000000
 2807 1c95 B90D0000 		movl	$13, %ecx
 2807      00
 2808 1c9a 488D1500 		leaq	.LC44(%rip), %rdx
 2808      000000
 2809 1ca1 BE1F0000 		movl	$31, %esi
 2809      00
 2810 1ca6 488D3D00 		leaq	.LC91(%rip), %rdi
 2810      000000
 2811 1cad E8000000 		call	_Z9testShiftPKcjS0_jS0_jS0_
 2811      00
 2812 1cb2 4883C410 		addq	$16, %rsp
 494:testSvf2Csvf.cpp **** 		"71C2E093", 31,
 495:testSvf2Csvf.cpp **** 		"1c15", 13,
 496:testSvf2Csvf.cpp **** 		"0135", 9,
 497:testSvf2Csvf.cpp **** 		"135E385C127C15"
 498:testSvf2Csvf.cpp **** 	);
 499:testSvf2Csvf.cpp **** 	testShift(
 2813              		.loc 3 499 0
 2814 1cb6 4883EC08 		subq	$8, %rsp
 2815 1cba 488D0500 		leaq	.LC106(%rip), %rax
 2815      000000
 2816 1cc1 50       		pushq	%rax
 2817 1cc2 41B90900 		movl	$9, %r9d
 2817      0000
 2818 1cc8 4C8D0500 		leaq	.LC72(%rip), %r8
 2818      000000
 2819 1ccf B90E0000 		movl	$14, %ecx
 2819      00
 2820 1cd4 488D1500 		leaq	.LC46(%rip), %rdx
 2820      000000
 2821 1cdb BE1F0000 		movl	$31, %esi
 2821      00
 2822 1ce0 488D3D00 		leaq	.LC91(%rip), %rdi
 2822      000000
 2823 1ce7 E8000000 		call	_Z9testShiftPKcjS0_jS0_jS0_
 2823      00
 2824 1cec 4883C410 		addq	$16, %rsp
 500:testSvf2Csvf.cpp **** 		"71C2E093", 31,
 501:testSvf2Csvf.cpp **** 		"2c15", 14,
 502:testSvf2Csvf.cpp **** 		"0135", 9,
 503:testSvf2Csvf.cpp **** 		"26BC70B824EC15"
 504:testSvf2Csvf.cpp **** 	);
 505:testSvf2Csvf.cpp **** 	testShift(
 2825              		.loc 3 505 0
 2826 1cf0 4883EC08 		subq	$8, %rsp
 2827 1cf4 488D0500 		leaq	.LC107(%rip), %rax
 2827      000000
 2828 1cfb 50       		pushq	%rax
 2829 1cfc 41B90900 		movl	$9, %r9d
 2829      0000
 2830 1d02 4C8D0500 		leaq	.LC72(%rip), %r8
 2830      000000
 2831 1d09 B90F0000 		movl	$15, %ecx
 2831      00
 2832 1d0e 488D1500 		leaq	.LC48(%rip), %rdx
 2832      000000
 2833 1d15 BE1F0000 		movl	$31, %esi
 2833      00
 2834 1d1a 488D3D00 		leaq	.LC91(%rip), %rdi
 2834      000000
 2835 1d21 E8000000 		call	_Z9testShiftPKcjS0_jS0_jS0_
 2835      00
 2836 1d26 4883C410 		addq	$16, %rsp
 506:testSvf2Csvf.cpp **** 		"71C2E093", 31,
 507:testSvf2Csvf.cpp **** 		"4015", 15,
 508:testSvf2Csvf.cpp **** 		"0135", 9,
 509:testSvf2Csvf.cpp **** 		"4D78E17049C015"
 510:testSvf2Csvf.cpp **** 	);
 511:testSvf2Csvf.cpp **** 	testShift(
 2837              		.loc 3 511 0
 2838 1d2a 4883EC08 		subq	$8, %rsp
 2839 1d2e 488D0500 		leaq	.LC108(%rip), %rax
 2839      000000
 2840 1d35 50       		pushq	%rax
 2841 1d36 41B90900 		movl	$9, %r9d
 2841      0000
 2842 1d3c 4C8D0500 		leaq	.LC72(%rip), %r8
 2842      000000
 2843 1d43 B9100000 		movl	$16, %ecx
 2843      00
 2844 1d48 488D1500 		leaq	.LC50(%rip), %rdx
 2844      000000
 2845 1d4f BE1F0000 		movl	$31, %esi
 2845      00
 2846 1d54 488D3D00 		leaq	.LC91(%rip), %rdi
 2846      000000
 2847 1d5b E8000000 		call	_Z9testShiftPKcjS0_jS0_jS0_
 2847      00
 2848 1d60 4883C410 		addq	$16, %rsp
 512:testSvf2Csvf.cpp **** 		"71C2E093", 31,
 513:testSvf2Csvf.cpp **** 		"8015", 16,
 514:testSvf2Csvf.cpp **** 		"0135", 9,
 515:testSvf2Csvf.cpp **** 		"9AF1C2E0938015"
 516:testSvf2Csvf.cpp **** 	);
 517:testSvf2Csvf.cpp **** 	testShift(
 2849              		.loc 3 517 0
 2850 1d64 4883EC08 		subq	$8, %rsp
 2851 1d68 488D0500 		leaq	.LC109(%rip), %rax
 2851      000000
 2852 1d6f 50       		pushq	%rax
 2853 1d70 41B90900 		movl	$9, %r9d
 2853      0000
 2854 1d76 4C8D0500 		leaq	.LC72(%rip), %r8
 2854      000000
 2855 1d7d B9110000 		movl	$17, %ecx
 2855      00
 2856 1d82 488D1500 		leaq	.LC52(%rip), %rdx
 2856      000000
 2857 1d89 BE1F0000 		movl	$31, %esi
 2857      00
 2858 1d8e 488D3D00 		leaq	.LC91(%rip), %rdi
 2858      000000
 2859 1d95 E8000000 		call	_Z9testShiftPKcjS0_jS0_jS0_
 2859      00
 2860 1d9a 4883C410 		addq	$16, %rsp
 518:testSvf2Csvf.cpp **** 		"71C2E093", 31,
 519:testSvf2Csvf.cpp **** 		"018015", 17,
 520:testSvf2Csvf.cpp **** 		"0135", 9,
 521:testSvf2Csvf.cpp **** 		"0135E385C1278015"
 522:testSvf2Csvf.cpp **** 	);
 523:testSvf2Csvf.cpp **** 	testShift(
 2861              		.loc 3 523 0
 2862 1d9e 4883EC08 		subq	$8, %rsp
 2863 1da2 488D0500 		leaq	.LC112(%rip), %rax
 2863      000000
 2864 1da9 50       		pushq	%rax
 2865 1daa 41B90100 		movl	$1, %r9d
 2865      0000
 2866 1db0 4C8D0500 		leaq	.LC21(%rip), %r8
 2866      000000
 2867 1db7 B9000000 		movl	$0, %ecx
 2867      00
 2868 1dbc 488D1500 		leaq	.LC110(%rip), %rdx
 2868      000000
 2869 1dc3 BE5F0000 		movl	$95, %esi
 2869      00
 2870 1dc8 488D3D00 		leaq	.LC111(%rip), %rdi
 2870      000000
 2871 1dcf E8000000 		call	_Z9testShiftPKcjS0_jS0_jS0_
 2871      00
 2872 1dd4 4883C410 		addq	$16, %rsp
 524:testSvf2Csvf.cpp **** 		"5423DF3A8F129B2C91B9425D", 95,
 525:testSvf2Csvf.cpp **** 		"", 0,
 526:testSvf2Csvf.cpp **** 		"01", 1,
 527:testSvf2Csvf.cpp **** 		"D423DF3A8F129B2C91B9425D"
 528:testSvf2Csvf.cpp **** 	);
 529:testSvf2Csvf.cpp **** 	testShift(
 2873              		.loc 3 529 0
 2874 1dd8 4883EC08 		subq	$8, %rsp
 2875 1ddc 488D0500 		leaq	.LC113(%rip), %rax
 2875      000000
 2876 1de3 50       		pushq	%rax
 2877 1de4 41B90000 		movl	$0, %r9d
 2877      0000
 2878 1dea 4C8D0500 		leaq	.LC110(%rip), %r8
 2878      000000
 2879 1df1 B9010000 		movl	$1, %ecx
 2879      00
 2880 1df6 488D1500 		leaq	.LC21(%rip), %rdx
 2880      000000
 2881 1dfd BE5F0000 		movl	$95, %esi
 2881      00
 2882 1e02 488D3D00 		leaq	.LC111(%rip), %rdi
 2882      000000
 2883 1e09 E8000000 		call	_Z9testShiftPKcjS0_jS0_jS0_
 2883      00
 2884 1e0e 4883C410 		addq	$16, %rsp
 530:testSvf2Csvf.cpp **** 		"5423DF3A8F129B2C91B9425D", 95,
 531:testSvf2Csvf.cpp **** 		"01", 1,
 532:testSvf2Csvf.cpp **** 		"", 0,
 533:testSvf2Csvf.cpp **** 		"A847BE751E253659237284BB"
 534:testSvf2Csvf.cpp **** 	);
 535:testSvf2Csvf.cpp **** }
 2885              		.loc 3 535 0
 2886 1e12 90       		nop
 2887 1e13 C9       		leave
 2888              		.cfi_def_cfa 7, 8
 2889 1e14 C3       		ret
 2890              		.cfi_endproc
 2891              	.LFE1101:
 2893              		.globl	_Z11parseStringP12ParseContextPKcP6Buffer
 2895              	_Z11parseStringP12ParseContextPKcP6Buffer:
 2896              	.LFB1102:
 536:testSvf2Csvf.cpp **** 
 537:testSvf2Csvf.cpp **** void parseString(ParseContext *cxt, const char *str, struct Buffer *csvfBuf) {
 2897              		.loc 3 537 0
 2898              		.cfi_startproc
 2899              		.cfi_personality 0x9b,DW.ref.__gxx_personality_v0
 2900              		.cfi_lsda 0x1b,.LLSDA1102
 2901 1e15 55       		pushq	%rbp
 2902              		.cfi_def_cfa_offset 16
 2903              		.cfi_offset 6, -16
 2904 1e16 4889E5   		movq	%rsp, %rbp
 2905              		.cfi_def_cfa_register 6
 2906 1e19 53       		pushq	%rbx
 2907 1e1a 4881EC88 		subq	$136, %rsp
 2907      000000
 2908              		.cfi_offset 3, -24
 2909 1e21 48897D88 		movq	%rdi, -120(%rbp)
 2910 1e25 48897580 		movq	%rsi, -128(%rbp)
 2911 1e29 48899578 		movq	%rdx, -136(%rbp)
 2911      FFFFFF
 2912              		.loc 3 537 0
 2913 1e30 64488B04 		movq	%fs:40, %rax
 2913      25280000 
 2913      00
 2914 1e39 488945E8 		movq	%rax, -24(%rbp)
 2915 1e3d 31C0     		xorl	%eax, %eax
 538:testSvf2Csvf.cpp **** 	Buffer line;
 539:testSvf2Csvf.cpp **** 	BufferStatus bStatus;
 540:testSvf2Csvf.cpp **** 	FLStatus fStatus;
 541:testSvf2Csvf.cpp **** 	const uint32 lineLen = (uint32)strlen(str) + 1;
 2916              		.loc 3 541 0
 2917 1e3f 488B4580 		movq	-128(%rbp), %rax
 2918 1e43 4889C7   		movq	%rax, %rdi
 2919 1e46 E8000000 		call	strlen@PLT
 2919      00
 2920 1e4b 83C001   		addl	$1, %eax
 2921 1e4e 89459C   		movl	%eax, -100(%rbp)
 542:testSvf2Csvf.cpp **** 	bStatus = bufInitialise(&line, lineLen, 0, NULL);
 2922              		.loc 3 542 0
 2923 1e51 8B759C   		movl	-100(%rbp), %esi
 2924 1e54 488D45A0 		leaq	-96(%rbp), %rax
 2925 1e58 B9000000 		movl	$0, %ecx
 2925      00
 2926 1e5d BA000000 		movl	$0, %edx
 2926      00
 2927 1e62 4889C7   		movq	%rax, %rdi
 2928              	.LEHB77:
 2929 1e65 E8000000 		call	bufInitialise@PLT
 2929      00
 2930              	.LEHE77:
 2931 1e6a 894590   		movl	%eax, -112(%rbp)
 2932              	.LEHB78:
 543:testSvf2Csvf.cpp **** 	CHECK_EQUAL(BUF_SUCCESS, bStatus);
 2933              		.loc 3 543 0
 2934 1e6d E8000000 		call	_ZN8UnitTest11CurrentTest7DetailsEv@PLT
 2934      00
 2935 1e72 488B08   		movq	(%rax), %rcx
 2936 1e75 488D45C0 		leaq	-64(%rbp), %rax
 2937 1e79 BA1F0200 		movl	$543, %edx
 2937      00
 2938 1e7e 4889CE   		movq	%rcx, %rsi
 2939 1e81 4889C7   		movq	%rax, %rdi
 2940 1e84 E8000000 		call	_ZN8UnitTest11TestDetailsC1ERKS0_i@PLT
 2940      00
 2941              	.LEHE78:
 2942              		.loc 3 543 0 is_stmt 0 discriminator 2
 2943 1e89 C7459800 		movl	$0, -104(%rbp)
 2943      000000
 2944              	.LEHB79:
 2945 1e90 E8000000 		call	_ZN8UnitTest11CurrentTest7ResultsEv@PLT
 2945      00
 2946 1e95 488B00   		movq	(%rax), %rax
 2947 1e98 488D4DC0 		leaq	-64(%rbp), %rcx
 2948 1e9c 488D5590 		leaq	-112(%rbp), %rdx
 2949 1ea0 488D7598 		leaq	-104(%rbp), %rsi
 2950 1ea4 4889C7   		movq	%rax, %rdi
 2951 1ea7 E8000000 		call	_ZN8UnitTest10CheckEqualI12BufferStatusS1_EEvRNS_11TestResultsERKT_RKT0_RKNS_11TestDetailsE
 2951      00
 2952              	.LEHE79:
 2953              	.L113:
 544:testSvf2Csvf.cpp **** 	bStatus = bufAppendBlock(&line, (const uint8 *)str, lineLen, NULL);
 2954              		.loc 3 544 0 is_stmt 1
 2955 1eac 8B559C   		movl	-100(%rbp), %edx
 2956 1eaf 488B7580 		movq	-128(%rbp), %rsi
 2957 1eb3 488D45A0 		leaq	-96(%rbp), %rax
 2958 1eb7 B9000000 		movl	$0, %ecx
 2958      00
 2959 1ebc 4889C7   		movq	%rax, %rdi
 2960              	.LEHB80:
 2961 1ebf E8000000 		call	bufAppendBlock@PLT
 2961      00
 2962              	.LEHE80:
 2963 1ec4 894590   		movl	%eax, -112(%rbp)
 2964              	.LEHB81:
 545:testSvf2Csvf.cpp **** 	CHECK_EQUAL(BUF_SUCCESS, bStatus);
 2965              		.loc 3 545 0
 2966 1ec7 E8000000 		call	_ZN8UnitTest11CurrentTest7DetailsEv@PLT
 2966      00
 2967 1ecc 488B08   		movq	(%rax), %rcx
 2968 1ecf 488D45C0 		leaq	-64(%rbp), %rax
 2969 1ed3 BA210200 		movl	$545, %edx
 2969      00
 2970 1ed8 4889CE   		movq	%rcx, %rsi
 2971 1edb 4889C7   		movq	%rax, %rdi
 2972 1ede E8000000 		call	_ZN8UnitTest11TestDetailsC1ERKS0_i@PLT
 2972      00
 2973              	.LEHE81:
 2974              		.loc 3 545 0 is_stmt 0 discriminator 2
 2975 1ee3 C7459800 		movl	$0, -104(%rbp)
 2975      000000
 2976              	.LEHB82:
 2977 1eea E8000000 		call	_ZN8UnitTest11CurrentTest7ResultsEv@PLT
 2977      00
 2978 1eef 488B00   		movq	(%rax), %rax
 2979 1ef2 488D4DC0 		leaq	-64(%rbp), %rcx
 2980 1ef6 488D5590 		leaq	-112(%rbp), %rdx
 2981 1efa 488D7598 		leaq	-104(%rbp), %rsi
 2982 1efe 4889C7   		movq	%rax, %rdi
 2983 1f01 E8000000 		call	_ZN8UnitTest10CheckEqualI12BufferStatusS1_EEvRNS_11TestResultsERKT_RKT0_RKNS_11TestDetailsE
 2983      00
 2984              	.LEHE82:
 2985              	.L117:
 546:testSvf2Csvf.cpp **** 	fStatus = parseLine(cxt, &line, csvfBuf, NULL, NULL);
 2986              		.loc 3 546 0 is_stmt 1
 2987 1f06 488B9578 		movq	-136(%rbp), %rdx
 2987      FFFFFF
 2988 1f0d 488D75A0 		leaq	-96(%rbp), %rsi
 2989 1f11 488B4588 		movq	-120(%rbp), %rax
 2990 1f15 41B80000 		movl	$0, %r8d
 2990      0000
 2991 1f1b B9000000 		movl	$0, %ecx
 2991      00
 2992 1f20 4889C7   		movq	%rax, %rdi
 2993              	.LEHB83:
 2994 1f23 E8000000 		call	parseLine@PLT
 2994      00
 2995              	.LEHE83:
 2996 1f28 894594   		movl	%eax, -108(%rbp)
 2997              	.LEHB84:
 547:testSvf2Csvf.cpp **** 	CHECK_EQUAL(FL_SUCCESS, fStatus);
 2998              		.loc 3 547 0
 2999 1f2b E8000000 		call	_ZN8UnitTest11CurrentTest7DetailsEv@PLT
 2999      00
 3000 1f30 488B08   		movq	(%rax), %rcx
 3001 1f33 488D45C0 		leaq	-64(%rbp), %rax
 3002 1f37 BA230200 		movl	$547, %edx
 3002      00
 3003 1f3c 4889CE   		movq	%rcx, %rsi
 3004 1f3f 4889C7   		movq	%rax, %rdi
 3005 1f42 E8000000 		call	_ZN8UnitTest11TestDetailsC1ERKS0_i@PLT
 3005      00
 3006              	.LEHE84:
 3007              		.loc 3 547 0 is_stmt 0 discriminator 2
 3008 1f47 C7459800 		movl	$0, -104(%rbp)
 3008      000000
 3009              	.LEHB85:
 3010 1f4e E8000000 		call	_ZN8UnitTest11CurrentTest7ResultsEv@PLT
 3010      00
 3011 1f53 488B00   		movq	(%rax), %rax
 3012 1f56 488D4DC0 		leaq	-64(%rbp), %rcx
 3013 1f5a 488D5594 		leaq	-108(%rbp), %rdx
 3014 1f5e 488D7598 		leaq	-104(%rbp), %rsi
 3015 1f62 4889C7   		movq	%rax, %rdi
 3016 1f65 E8000000 		call	_ZN8UnitTest10CheckEqualI8FLStatusS1_EEvRNS_11TestResultsERKT_RKT0_RKNS_11TestDetailsE
 3016      00
 3017              	.LEHE85:
 3018              	.L121:
 548:testSvf2Csvf.cpp **** 	bufDestroy(&line);
 3019              		.loc 3 548 0 is_stmt 1
 3020 1f6a 488D45A0 		leaq	-96(%rbp), %rax
 3021 1f6e 4889C7   		movq	%rax, %rdi
 3022              	.LEHB86:
 3023 1f71 E8000000 		call	bufDestroy@PLT
 3023      00
 3024              	.LEHE86:
 549:testSvf2Csvf.cpp **** }
 3025              		.loc 3 549 0
 3026 1f76 90       		nop
 3027 1f77 488B45E8 		movq	-24(%rbp), %rax
 3028 1f7b 64483304 		xorq	%fs:40, %rax
 3028      25280000 
 3028      00
 3029 1f84 0F842D01 		je	.L123
 3029      0000
 3030 1f8a E9230100 		jmp	.L133
 3030      00
 3031              	.L125:
 3032 1f8f EB00     		jmp	.L112
 3033              	.L124:
 3034              	.L112:
 543:testSvf2Csvf.cpp **** 	bStatus = bufAppendBlock(&line, (const uint8 *)str, lineLen, NULL);
 3035              		.loc 3 543 0
 3036 1f91 4889C7   		movq	%rax, %rdi
 3037 1f94 E8000000 		call	__cxa_begin_catch@PLT
 3037      00
 3038              	.LEHB87:
 3039 1f99 E8000000 		call	_ZN8UnitTest11CurrentTest7ResultsEv@PLT
 3039      00
 3040 1f9e 488B18   		movq	(%rax), %rbx
 3041 1fa1 E8000000 		call	_ZN8UnitTest11CurrentTest7DetailsEv@PLT
 3041      00
 543:testSvf2Csvf.cpp **** 	bStatus = bufAppendBlock(&line, (const uint8 *)str, lineLen, NULL);
 3042              		.loc 3 543 0 is_stmt 0 discriminator 8
 3043 1fa6 488B08   		movq	(%rax), %rcx
 3044 1fa9 488D45C0 		leaq	-64(%rbp), %rax
 3045 1fad BA1F0200 		movl	$543, %edx
 3045      00
 3046 1fb2 4889CE   		movq	%rcx, %rsi
 3047 1fb5 4889C7   		movq	%rax, %rdi
 3048 1fb8 E8000000 		call	_ZN8UnitTest11TestDetailsC1ERKS0_i@PLT
 3048      00
 543:testSvf2Csvf.cpp **** 	bStatus = bufAppendBlock(&line, (const uint8 *)str, lineLen, NULL);
 3049              		.loc 3 543 0 discriminator 12
 3050 1fbd 488D45C0 		leaq	-64(%rbp), %rax
 3051 1fc1 488D1500 		leaq	.LC13(%rip), %rdx
 3051      000000
 3052 1fc8 4889C6   		movq	%rax, %rsi
 3053 1fcb 4889DF   		movq	%rbx, %rdi
 3054 1fce E8000000 		call	_ZN8UnitTest11TestResults13OnTestFailureERKNS_11TestDetailsEPKc@PLT
 3054      00
 3055              	.LEHE87:
 3056              	.LEHB88:
 543:testSvf2Csvf.cpp **** 	bStatus = bufAppendBlock(&line, (const uint8 *)str, lineLen, NULL);
 3057              		.loc 3 543 0 discriminator 14
 3058 1fd3 E8000000 		call	__cxa_end_catch@PLT
 3058      00
 3059              	.LEHE88:
 3060 1fd8 E9CFFEFF 		jmp	.L113
 3060      FF
 3061              	.L126:
 3062 1fdd 4889C3   		movq	%rax, %rbx
 543:testSvf2Csvf.cpp **** 	bStatus = bufAppendBlock(&line, (const uint8 *)str, lineLen, NULL);
 3063              		.loc 3 543 0
 3064 1fe0 E8000000 		call	__cxa_end_catch@PLT
 3064      00
 3065 1fe5 4889D8   		movq	%rbx, %rax
 3066 1fe8 4889C7   		movq	%rax, %rdi
 3067              	.LEHB89:
 3068 1feb E8000000 		call	_Unwind_Resume@PLT
 3068      00
 3069              	.LEHE89:
 3070              	.L128:
 3071 1ff0 EB00     		jmp	.L116
 3072              	.L127:
 3073              	.L116:
 545:testSvf2Csvf.cpp **** 	fStatus = parseLine(cxt, &line, csvfBuf, NULL, NULL);
 3074              		.loc 3 545 0 is_stmt 1
 3075 1ff2 4889C7   		movq	%rax, %rdi
 3076 1ff5 E8000000 		call	__cxa_begin_catch@PLT
 3076      00
 3077              	.LEHB90:
 3078 1ffa E8000000 		call	_ZN8UnitTest11CurrentTest7ResultsEv@PLT
 3078      00
 3079 1fff 488B18   		movq	(%rax), %rbx
 3080 2002 E8000000 		call	_ZN8UnitTest11CurrentTest7DetailsEv@PLT
 3080      00
 545:testSvf2Csvf.cpp **** 	fStatus = parseLine(cxt, &line, csvfBuf, NULL, NULL);
 3081              		.loc 3 545 0 is_stmt 0 discriminator 8
 3082 2007 488B08   		movq	(%rax), %rcx
 3083 200a 488D45C0 		leaq	-64(%rbp), %rax
 3084 200e BA210200 		movl	$545, %edx
 3084      00
 3085 2013 4889CE   		movq	%rcx, %rsi
 3086 2016 4889C7   		movq	%rax, %rdi
 3087 2019 E8000000 		call	_ZN8UnitTest11TestDetailsC1ERKS0_i@PLT
 3087      00
 545:testSvf2Csvf.cpp **** 	fStatus = parseLine(cxt, &line, csvfBuf, NULL, NULL);
 3088              		.loc 3 545 0 discriminator 12
 3089 201e 488D45C0 		leaq	-64(%rbp), %rax
 3090 2022 488D1500 		leaq	.LC13(%rip), %rdx
 3090      000000
 3091 2029 4889C6   		movq	%rax, %rsi
 3092 202c 4889DF   		movq	%rbx, %rdi
 3093 202f E8000000 		call	_ZN8UnitTest11TestResults13OnTestFailureERKNS_11TestDetailsEPKc@PLT
 3093      00
 3094              	.LEHE90:
 3095              	.LEHB91:
 545:testSvf2Csvf.cpp **** 	fStatus = parseLine(cxt, &line, csvfBuf, NULL, NULL);
 3096              		.loc 3 545 0 discriminator 14
 3097 2034 E8000000 		call	__cxa_end_catch@PLT
 3097      00
 3098              	.LEHE91:
 3099 2039 E9C8FEFF 		jmp	.L117
 3099      FF
 3100              	.L129:
 3101 203e 4889C3   		movq	%rax, %rbx
 545:testSvf2Csvf.cpp **** 	fStatus = parseLine(cxt, &line, csvfBuf, NULL, NULL);
 3102              		.loc 3 545 0
 3103 2041 E8000000 		call	__cxa_end_catch@PLT
 3103      00
 3104 2046 4889D8   		movq	%rbx, %rax
 3105 2049 4889C7   		movq	%rax, %rdi
 3106              	.LEHB92:
 3107 204c E8000000 		call	_Unwind_Resume@PLT
 3107      00
 3108              	.LEHE92:
 3109              	.L131:
 3110 2051 EB00     		jmp	.L120
 3111              	.L130:
 3112              	.L120:
 547:testSvf2Csvf.cpp **** 	bufDestroy(&line);
 3113              		.loc 3 547 0 is_stmt 1
 3114 2053 4889C7   		movq	%rax, %rdi
 3115 2056 E8000000 		call	__cxa_begin_catch@PLT
 3115      00
 3116              	.LEHB93:
 3117 205b E8000000 		call	_ZN8UnitTest11CurrentTest7ResultsEv@PLT
 3117      00
 3118 2060 488B18   		movq	(%rax), %rbx
 3119 2063 E8000000 		call	_ZN8UnitTest11CurrentTest7DetailsEv@PLT
 3119      00
 547:testSvf2Csvf.cpp **** 	bufDestroy(&line);
 3120              		.loc 3 547 0 is_stmt 0 discriminator 8
 3121 2068 488B08   		movq	(%rax), %rcx
 3122 206b 488D45C0 		leaq	-64(%rbp), %rax
 3123 206f BA230200 		movl	$547, %edx
 3123      00
 3124 2074 4889CE   		movq	%rcx, %rsi
 3125 2077 4889C7   		movq	%rax, %rdi
 3126 207a E8000000 		call	_ZN8UnitTest11TestDetailsC1ERKS0_i@PLT
 3126      00
 547:testSvf2Csvf.cpp **** 	bufDestroy(&line);
 3127              		.loc 3 547 0 discriminator 12
 3128 207f 488D45C0 		leaq	-64(%rbp), %rax
 3129 2083 488D1500 		leaq	.LC2(%rip), %rdx
 3129      000000
 3130 208a 4889C6   		movq	%rax, %rsi
 3131 208d 4889DF   		movq	%rbx, %rdi
 3132 2090 E8000000 		call	_ZN8UnitTest11TestResults13OnTestFailureERKNS_11TestDetailsEPKc@PLT
 3132      00
 3133              	.LEHE93:
 3134              	.LEHB94:
 547:testSvf2Csvf.cpp **** 	bufDestroy(&line);
 3135              		.loc 3 547 0 discriminator 14
 3136 2095 E8000000 		call	__cxa_end_catch@PLT
 3136      00
 3137              	.LEHE94:
 3138 209a E9CBFEFF 		jmp	.L121
 3138      FF
 3139              	.L132:
 3140 209f 4889C3   		movq	%rax, %rbx
 547:testSvf2Csvf.cpp **** 	bufDestroy(&line);
 3141              		.loc 3 547 0
 3142 20a2 E8000000 		call	__cxa_end_catch@PLT
 3142      00
 3143 20a7 4889D8   		movq	%rbx, %rax
 3144 20aa 4889C7   		movq	%rax, %rdi
 3145              	.LEHB95:
 3146 20ad E8000000 		call	_Unwind_Resume@PLT
 3146      00
 3147              	.LEHE95:
 3148              	.L133:
 3149              		.loc 3 549 0 is_stmt 1
 3150 20b2 E8000000 		call	__stack_chk_fail@PLT
 3150      00
 3151              	.L123:
 3152 20b7 4881C488 		addq	$136, %rsp
 3152      000000
 3153 20be 5B       		popq	%rbx
 3154 20bf 5D       		popq	%rbp
 3155              		.cfi_def_cfa 7, 8
 3156 20c0 C3       		ret
 3157              		.cfi_endproc
 3158              	.LFE1102:
 3159              		.section	.gcc_except_table
 3160              		.align 4
 3161              	.LLSDA1102:
 3162 01b4 FF       		.byte	0xff
 3163 01b5 9B       		.byte	0x9b
 3164 01b6 71       		.uleb128 .LLSDATT1102-.LLSDATTD1102
 3165              	.LLSDATTD1102:
 3166 01b7 01       		.byte	0x1
 3167 01b8 65       		.uleb128 .LLSDACSE1102-.LLSDACSB1102
 3168              	.LLSDACSB1102:
 3169 01b9 50       		.uleb128 .LEHB77-.LFB1102
 3170 01ba 05       		.uleb128 .LEHE77-.LEHB77
 3171 01bb 00       		.uleb128 0
 3172 01bc 00       		.uleb128 0
 3173 01bd 58       		.uleb128 .LEHB78-.LFB1102
 3174 01be 1C       		.uleb128 .LEHE78-.LEHB78
 3175 01bf FC02     		.uleb128 .L124-.LFB1102
 3176 01c1 01       		.uleb128 0x1
 3177 01c2 7B       		.uleb128 .LEHB79-.LFB1102
 3178 01c3 1C       		.uleb128 .LEHE79-.LEHB79
 3179 01c4 FA02     		.uleb128 .L125-.LFB1102
 3180 01c6 03       		.uleb128 0x3
 3181 01c7 AA01     		.uleb128 .LEHB80-.LFB1102
 3182 01c9 05       		.uleb128 .LEHE80-.LEHB80
 3183 01ca 00       		.uleb128 0
 3184 01cb 00       		.uleb128 0
 3185 01cc B201     		.uleb128 .LEHB81-.LFB1102
 3186 01ce 1C       		.uleb128 .LEHE81-.LEHB81
 3187 01cf DD03     		.uleb128 .L127-.LFB1102
 3188 01d1 01       		.uleb128 0x1
 3189 01d2 D501     		.uleb128 .LEHB82-.LFB1102
 3190 01d4 1C       		.uleb128 .LEHE82-.LEHB82
 3191 01d5 DB03     		.uleb128 .L128-.LFB1102
 3192 01d7 03       		.uleb128 0x3
 3193 01d8 8E02     		.uleb128 .LEHB83-.LFB1102
 3194 01da 05       		.uleb128 .LEHE83-.LEHB83
 3195 01db 00       		.uleb128 0
 3196 01dc 00       		.uleb128 0
 3197 01dd 9602     		.uleb128 .LEHB84-.LFB1102
 3198 01df 1C       		.uleb128 .LEHE84-.LEHB84
 3199 01e0 BE04     		.uleb128 .L130-.LFB1102
 3200 01e2 01       		.uleb128 0x1
 3201 01e3 B902     		.uleb128 .LEHB85-.LFB1102
 3202 01e5 1C       		.uleb128 .LEHE85-.LEHB85
 3203 01e6 BC04     		.uleb128 .L131-.LFB1102
 3204 01e8 03       		.uleb128 0x3
 3205 01e9 DC02     		.uleb128 .LEHB86-.LFB1102
 3206 01eb 05       		.uleb128 .LEHE86-.LEHB86
 3207 01ec 00       		.uleb128 0
 3208 01ed 00       		.uleb128 0
 3209 01ee 8403     		.uleb128 .LEHB87-.LFB1102
 3210 01f0 3A       		.uleb128 .LEHE87-.LEHB87
 3211 01f1 C803     		.uleb128 .L126-.LFB1102
 3212 01f3 00       		.uleb128 0
 3213 01f4 BE03     		.uleb128 .LEHB88-.LFB1102
 3214 01f6 05       		.uleb128 .LEHE88-.LEHB88
 3215 01f7 00       		.uleb128 0
 3216 01f8 00       		.uleb128 0
 3217 01f9 D603     		.uleb128 .LEHB89-.LFB1102
 3218 01fb 05       		.uleb128 .LEHE89-.LEHB89
 3219 01fc 00       		.uleb128 0
 3220 01fd 00       		.uleb128 0
 3221 01fe E503     		.uleb128 .LEHB90-.LFB1102
 3222 0200 3A       		.uleb128 .LEHE90-.LEHB90
 3223 0201 A904     		.uleb128 .L129-.LFB1102
 3224 0203 00       		.uleb128 0
 3225 0204 9F04     		.uleb128 .LEHB91-.LFB1102
 3226 0206 05       		.uleb128 .LEHE91-.LEHB91
 3227 0207 00       		.uleb128 0
 3228 0208 00       		.uleb128 0
 3229 0209 B704     		.uleb128 .LEHB92-.LFB1102
 3230 020b 05       		.uleb128 .LEHE92-.LEHB92
 3231 020c 00       		.uleb128 0
 3232 020d 00       		.uleb128 0
 3233 020e C604     		.uleb128 .LEHB93-.LFB1102
 3234 0210 3A       		.uleb128 .LEHE93-.LEHB93
 3235 0211 8A05     		.uleb128 .L132-.LFB1102
 3236 0213 00       		.uleb128 0
 3237 0214 8005     		.uleb128 .LEHB94-.LFB1102
 3238 0216 05       		.uleb128 .LEHE94-.LEHB94
 3239 0217 00       		.uleb128 0
 3240 0218 00       		.uleb128 0
 3241 0219 9805     		.uleb128 .LEHB95-.LFB1102
 3242 021b 05       		.uleb128 .LEHE95-.LEHB95
 3243 021c 00       		.uleb128 0
 3244 021d 00       		.uleb128 0
 3245              	.LLSDACSE1102:
 3246 021e 01       		.byte	0x1
 3247 021f 00       		.byte	0
 3248 0220 00       		.byte	0
 3249 0221 7D       		.byte	0x7d
 3250 0222 0000     		.align 4
 3251 0224 00000000 		.long	0
 3252              	
 3253              	.LLSDATT1102:
 3254              		.text
 3256              		.globl	_Z12renderBufferRPcPK6Buffer
 3258              	_Z12renderBufferRPcPK6Buffer:
 3259              	.LFB1103:
 550:testSvf2Csvf.cpp **** 
 551:testSvf2Csvf.cpp **** void renderBuffer(char *&p, const Buffer *buf) {
 3260              		.loc 3 551 0
 3261              		.cfi_startproc
 3262 20c1 55       		pushq	%rbp
 3263              		.cfi_def_cfa_offset 16
 3264              		.cfi_offset 6, -16
 3265 20c2 4889E5   		movq	%rsp, %rbp
 3266              		.cfi_def_cfa_register 6
 3267 20c5 4883EC20 		subq	$32, %rsp
 3268 20c9 48897DE8 		movq	%rdi, -24(%rbp)
 3269 20cd 488975E0 		movq	%rsi, -32(%rbp)
 552:testSvf2Csvf.cpp **** 	const char *src = (const char *)buf->data;
 3270              		.loc 3 552 0
 3271 20d1 488B45E0 		movq	-32(%rbp), %rax
 3272 20d5 488B00   		movq	(%rax), %rax
 3273 20d8 488945F8 		movq	%rax, -8(%rbp)
 553:testSvf2Csvf.cpp **** 	uint32 length = (uint32)buf->length;
 3274              		.loc 3 553 0
 3275 20dc 488B45E0 		movq	-32(%rbp), %rax
 3276 20e0 488B4008 		movq	8(%rax), %rax
 3277 20e4 8945F4   		movl	%eax, -12(%rbp)
 554:testSvf2Csvf.cpp **** 	*p++ = '{';
 3278              		.loc 3 554 0
 3279 20e7 488B45E8 		movq	-24(%rbp), %rax
 3280 20eb 488B00   		movq	(%rax), %rax
 3281 20ee 488D4801 		leaq	1(%rax), %rcx
 3282 20f2 488B55E8 		movq	-24(%rbp), %rdx
 3283 20f6 48890A   		movq	%rcx, (%rdx)
 3284 20f9 C6007B   		movb	$123, (%rax)
 3285              	.L136:
 555:testSvf2Csvf.cpp **** 	while ( length-- ) {
 3286              		.loc 3 555 0
 3287 20fc 8B45F4   		movl	-12(%rbp), %eax
 3288 20ff 8D50FF   		leal	-1(%rax), %edx
 3289 2102 8955F4   		movl	%edx, -12(%rbp)
 3290 2105 85C0     		testl	%eax, %eax
 3291 2107 0F95C0   		setne	%al
 3292 210a 84C0     		testb	%al, %al
 3293 210c 7441     		je	.L135
 556:testSvf2Csvf.cpp **** 		sprintf(p, "%02X", *src & 0xFF);
 3294              		.loc 3 556 0
 3295 210e 488B45F8 		movq	-8(%rbp), %rax
 3296 2112 0FB600   		movzbl	(%rax), %eax
 3297 2115 0FBEC0   		movsbl	%al, %eax
 3298 2118 0FB6D0   		movzbl	%al, %edx
 3299 211b 488B45E8 		movq	-24(%rbp), %rax
 3300 211f 488B00   		movq	(%rax), %rax
 3301 2122 488D3500 		leaq	.LC1(%rip), %rsi
 3301      000000
 3302 2129 4889C7   		movq	%rax, %rdi
 3303 212c B8000000 		movl	$0, %eax
 3303      00
 3304 2131 E8000000 		call	sprintf@PLT
 3304      00
 557:testSvf2Csvf.cpp **** 		src++;
 3305              		.loc 3 557 0
 3306 2136 488345F8 		addq	$1, -8(%rbp)
 3306      01
 558:testSvf2Csvf.cpp **** 		p += 2;
 3307              		.loc 3 558 0
 3308 213b 488B45E8 		movq	-24(%rbp), %rax
 3309 213f 488B00   		movq	(%rax), %rax
 3310 2142 488D5002 		leaq	2(%rax), %rdx
 3311 2146 488B45E8 		movq	-24(%rbp), %rax
 3312 214a 488910   		movq	%rdx, (%rax)
 555:testSvf2Csvf.cpp **** 		sprintf(p, "%02X", *src & 0xFF);
 3313              		.loc 3 555 0
 3314 214d EBAD     		jmp	.L136
 3315              	.L135:
 559:testSvf2Csvf.cpp **** 	}
 560:testSvf2Csvf.cpp **** 	*p++ = '}';
 3316              		.loc 3 560 0
 3317 214f 488B45E8 		movq	-24(%rbp), %rax
 3318 2153 488B00   		movq	(%rax), %rax
 3319 2156 488D4801 		leaq	1(%rax), %rcx
 3320 215a 488B55E8 		movq	-24(%rbp), %rdx
 3321 215e 48890A   		movq	%rcx, (%rdx)
 3322 2161 C6007D   		movb	$125, (%rax)
 561:testSvf2Csvf.cpp **** }
 3323              		.loc 3 561 0
 3324 2164 90       		nop
 3325 2165 C9       		leave
 3326              		.cfi_def_cfa 7, 8
 3327 2166 C3       		ret
 3328              		.cfi_endproc
 3329              	.LFE1103:
 3331              		.section	.rodata
 3332              	.LC114:
 3333 0679 25642C20 		.string	"%d, "
 3333      00
 3334              		.text
 3335              		.globl	_Z14renderBitStoreRPcPK8BitStore
 3337              	_Z14renderBitStoreRPcPK8BitStore:
 3338              	.LFB1104:
 562:testSvf2Csvf.cpp **** 
 563:testSvf2Csvf.cpp **** void renderBitStore(char *&p, const BitStore *store) {
 3339              		.loc 3 563 0
 3340              		.cfi_startproc
 3341 2167 55       		pushq	%rbp
 3342              		.cfi_def_cfa_offset 16
 3343              		.cfi_offset 6, -16
 3344 2168 4889E5   		movq	%rsp, %rbp
 3345              		.cfi_def_cfa_register 6
 3346 216b 53       		pushq	%rbx
 3347 216c 4883EC18 		subq	$24, %rsp
 3348              		.cfi_offset 3, -24
 3349 2170 48897DE8 		movq	%rdi, -24(%rbp)
 3350 2174 488975E0 		movq	%rsi, -32(%rbp)
 564:testSvf2Csvf.cpp **** 	sprintf(p, "%d, ", store->numBits);
 3351              		.loc 3 564 0
 3352 2178 488B45E0 		movq	-32(%rbp), %rax
 3353 217c 8B10     		movl	(%rax), %edx
 3354 217e 488B45E8 		movq	-24(%rbp), %rax
 3355 2182 488B00   		movq	(%rax), %rax
 3356 2185 488D3500 		leaq	.LC114(%rip), %rsi
 3356      000000
 3357 218c 4889C7   		movq	%rax, %rdi
 3358 218f B8000000 		movl	$0, %eax
 3358      00
 3359 2194 E8000000 		call	sprintf@PLT
 3359      00
 565:testSvf2Csvf.cpp **** 	p += strlen(p);
 3360              		.loc 3 565 0
 3361 2199 488B45E8 		movq	-24(%rbp), %rax
 3362 219d 488B18   		movq	(%rax), %rbx
 3363 21a0 488B45E8 		movq	-24(%rbp), %rax
 3364 21a4 488B00   		movq	(%rax), %rax
 3365 21a7 4889C7   		movq	%rax, %rdi
 3366 21aa E8000000 		call	strlen@PLT
 3366      00
 3367 21af 488D1403 		leaq	(%rbx,%rax), %rdx
 3368 21b3 488B45E8 		movq	-24(%rbp), %rax
 3369 21b7 488910   		movq	%rdx, (%rax)
 566:testSvf2Csvf.cpp **** 	renderBuffer(p, &store->tdi);
 3370              		.loc 3 566 0
 3371 21ba 488B45E0 		movq	-32(%rbp), %rax
 3372 21be 488D5008 		leaq	8(%rax), %rdx
 3373 21c2 488B45E8 		movq	-24(%rbp), %rax
 3374 21c6 4889D6   		movq	%rdx, %rsi
 3375 21c9 4889C7   		movq	%rax, %rdi
 3376 21cc E8000000 		call	_Z12renderBufferRPcPK6Buffer
 3376      00
 567:testSvf2Csvf.cpp **** 	*p++ = ','; *p++ = ' ';
 3377              		.loc 3 567 0
 3378 21d1 488B45E8 		movq	-24(%rbp), %rax
 3379 21d5 488B00   		movq	(%rax), %rax
 3380 21d8 488D4801 		leaq	1(%rax), %rcx
 3381 21dc 488B55E8 		movq	-24(%rbp), %rdx
 3382 21e0 48890A   		movq	%rcx, (%rdx)
 3383 21e3 C6002C   		movb	$44, (%rax)
 3384 21e6 488B45E8 		movq	-24(%rbp), %rax
 3385 21ea 488B00   		movq	(%rax), %rax
 3386 21ed 488D4801 		leaq	1(%rax), %rcx
 3387 21f1 488B55E8 		movq	-24(%rbp), %rdx
 3388 21f5 48890A   		movq	%rcx, (%rdx)
 3389 21f8 C60020   		movb	$32, (%rax)
 568:testSvf2Csvf.cpp **** 	renderBuffer(p, &store->tdo);
 3390              		.loc 3 568 0
 3391 21fb 488B45E0 		movq	-32(%rbp), %rax
 3392 21ff 488D5028 		leaq	40(%rax), %rdx
 3393 2203 488B45E8 		movq	-24(%rbp), %rax
 3394 2207 4889D6   		movq	%rdx, %rsi
 3395 220a 4889C7   		movq	%rax, %rdi
 3396 220d E8000000 		call	_Z12renderBufferRPcPK6Buffer
 3396      00
 569:testSvf2Csvf.cpp **** 	*p++ = ','; *p++ = ' ';
 3397              		.loc 3 569 0
 3398 2212 488B45E8 		movq	-24(%rbp), %rax
 3399 2216 488B00   		movq	(%rax), %rax
 3400 2219 488D4801 		leaq	1(%rax), %rcx
 3401 221d 488B55E8 		movq	-24(%rbp), %rdx
 3402 2221 48890A   		movq	%rcx, (%rdx)
 3403 2224 C6002C   		movb	$44, (%rax)
 3404 2227 488B45E8 		movq	-24(%rbp), %rax
 3405 222b 488B00   		movq	(%rax), %rax
 3406 222e 488D4801 		leaq	1(%rax), %rcx
 3407 2232 488B55E8 		movq	-24(%rbp), %rdx
 3408 2236 48890A   		movq	%rcx, (%rdx)
 3409 2239 C60020   		movb	$32, (%rax)
 570:testSvf2Csvf.cpp **** 	renderBuffer(p, &store->mask);
 3410              		.loc 3 570 0
 3411 223c 488B45E0 		movq	-32(%rbp), %rax
 3412 2240 488D5048 		leaq	72(%rax), %rdx
 3413 2244 488B45E8 		movq	-24(%rbp), %rax
 3414 2248 4889D6   		movq	%rdx, %rsi
 3415 224b 4889C7   		movq	%rax, %rdi
 3416 224e E8000000 		call	_Z12renderBufferRPcPK6Buffer
 3416      00
 571:testSvf2Csvf.cpp **** }
 3417              		.loc 3 571 0
 3418 2253 90       		nop
 3419 2254 4883C418 		addq	$24, %rsp
 3420 2258 5B       		popq	%rbx
 3421 2259 5D       		popq	%rbp
 3422              		.cfi_def_cfa 7, 8
 3423 225a C3       		ret
 3424              		.cfi_endproc
 3425              	.LFE1104:
 3427              		.local	_ZZ9renderCxtPK12ParseContextE6result
 3428              		.comm	_ZZ9renderCxtPK12ParseContextE6result,1024,32
 3429              		.globl	_Z9renderCxtPK12ParseContext
 3431              	_Z9renderCxtPK12ParseContext:
 3432              	.LFB1105:
 572:testSvf2Csvf.cpp **** 
 573:testSvf2Csvf.cpp **** const char *renderCxt(const ParseContext *cxt) {
 3433              		.loc 3 573 0
 3434              		.cfi_startproc
 3435 225b 55       		pushq	%rbp
 3436              		.cfi_def_cfa_offset 16
 3437              		.cfi_offset 6, -16
 3438 225c 4889E5   		movq	%rsp, %rbp
 3439              		.cfi_def_cfa_register 6
 3440 225f 4883EC20 		subq	$32, %rsp
 3441 2263 48897DE8 		movq	%rdi, -24(%rbp)
 3442              		.loc 3 573 0
 3443 2267 64488B04 		movq	%fs:40, %rax
 3443      25280000 
 3443      00
 3444 2270 488945F8 		movq	%rax, -8(%rbp)
 3445 2274 31C0     		xorl	%eax, %eax
 574:testSvf2Csvf.cpp **** 	static char result[1024];
 575:testSvf2Csvf.cpp **** 	char *p = result;
 3446              		.loc 3 575 0
 3447 2276 488D0500 		leaq	_ZZ9renderCxtPK12ParseContextE6result(%rip), %rax
 3447      000000
 3448 227d 488945F0 		movq	%rax, -16(%rbp)
 576:testSvf2Csvf.cpp **** 
 577:testSvf2Csvf.cpp **** 	renderBitStore(p, &cxt->dataHead);
 3449              		.loc 3 577 0
 3450 2281 488B55E8 		movq	-24(%rbp), %rdx
 3451 2285 488D45F0 		leaq	-16(%rbp), %rax
 3452 2289 4889D6   		movq	%rdx, %rsi
 3453 228c 4889C7   		movq	%rax, %rdi
 3454 228f E8000000 		call	_Z14renderBitStoreRPcPK8BitStore
 3454      00
 578:testSvf2Csvf.cpp **** 	*p++ = ','; *p++ = ' ';
 3455              		.loc 3 578 0
 3456 2294 488B45F0 		movq	-16(%rbp), %rax
 3457 2298 488D5001 		leaq	1(%rax), %rdx
 3458 229c 488955F0 		movq	%rdx, -16(%rbp)
 3459 22a0 C6002C   		movb	$44, (%rax)
 3460 22a3 488B45F0 		movq	-16(%rbp), %rax
 3461 22a7 488D5001 		leaq	1(%rax), %rdx
 3462 22ab 488955F0 		movq	%rdx, -16(%rbp)
 3463 22af C60020   		movb	$32, (%rax)
 579:testSvf2Csvf.cpp **** 	renderBitStore(p, &cxt->insnHead);
 3464              		.loc 3 579 0
 3465 22b2 488B45E8 		movq	-24(%rbp), %rax
 3466 22b6 488D5068 		leaq	104(%rax), %rdx
 3467 22ba 488D45F0 		leaq	-16(%rbp), %rax
 3468 22be 4889D6   		movq	%rdx, %rsi
 3469 22c1 4889C7   		movq	%rax, %rdi
 3470 22c4 E8000000 		call	_Z14renderBitStoreRPcPK8BitStore
 3470      00
 580:testSvf2Csvf.cpp **** 	*p++ = ','; *p++ = ' ';
 3471              		.loc 3 580 0
 3472 22c9 488B45F0 		movq	-16(%rbp), %rax
 3473 22cd 488D5001 		leaq	1(%rax), %rdx
 3474 22d1 488955F0 		movq	%rdx, -16(%rbp)
 3475 22d5 C6002C   		movb	$44, (%rax)
 3476 22d8 488B45F0 		movq	-16(%rbp), %rax
 3477 22dc 488D5001 		leaq	1(%rax), %rdx
 3478 22e0 488955F0 		movq	%rdx, -16(%rbp)
 3479 22e4 C60020   		movb	$32, (%rax)
 581:testSvf2Csvf.cpp **** 
 582:testSvf2Csvf.cpp **** 	renderBitStore(p, &cxt->dataBody);
 3480              		.loc 3 582 0
 3481 22e7 488B45E8 		movq	-24(%rbp), %rax
 3482 22eb 488D90D0 		leaq	208(%rax), %rdx
 3482      000000
 3483 22f2 488D45F0 		leaq	-16(%rbp), %rax
 3484 22f6 4889D6   		movq	%rdx, %rsi
 3485 22f9 4889C7   		movq	%rax, %rdi
 3486 22fc E8000000 		call	_Z14renderBitStoreRPcPK8BitStore
 3486      00
 583:testSvf2Csvf.cpp **** 	*p++ = ','; *p++ = ' ';
 3487              		.loc 3 583 0
 3488 2301 488B45F0 		movq	-16(%rbp), %rax
 3489 2305 488D5001 		leaq	1(%rax), %rdx
 3490 2309 488955F0 		movq	%rdx, -16(%rbp)
 3491 230d C6002C   		movb	$44, (%rax)
 3492 2310 488B45F0 		movq	-16(%rbp), %rax
 3493 2314 488D5001 		leaq	1(%rax), %rdx
 3494 2318 488955F0 		movq	%rdx, -16(%rbp)
 3495 231c C60020   		movb	$32, (%rax)
 584:testSvf2Csvf.cpp **** 	renderBitStore(p, &cxt->insnBody);
 3496              		.loc 3 584 0
 3497 231f 488B45E8 		movq	-24(%rbp), %rax
 3498 2323 488D9038 		leaq	312(%rax), %rdx
 3498      010000
 3499 232a 488D45F0 		leaq	-16(%rbp), %rax
 3500 232e 4889D6   		movq	%rdx, %rsi
 3501 2331 4889C7   		movq	%rax, %rdi
 3502 2334 E8000000 		call	_Z14renderBitStoreRPcPK8BitStore
 3502      00
 585:testSvf2Csvf.cpp **** 	*p++ = ','; *p++ = ' ';
 3503              		.loc 3 585 0
 3504 2339 488B45F0 		movq	-16(%rbp), %rax
 3505 233d 488D5001 		leaq	1(%rax), %rdx
 3506 2341 488955F0 		movq	%rdx, -16(%rbp)
 3507 2345 C6002C   		movb	$44, (%rax)
 3508 2348 488B45F0 		movq	-16(%rbp), %rax
 3509 234c 488D5001 		leaq	1(%rax), %rdx
 3510 2350 488955F0 		movq	%rdx, -16(%rbp)
 3511 2354 C60020   		movb	$32, (%rax)
 586:testSvf2Csvf.cpp **** 
 587:testSvf2Csvf.cpp **** 	renderBitStore(p, &cxt->dataTail);
 3512              		.loc 3 587 0
 3513 2357 488B45E8 		movq	-24(%rbp), %rax
 3514 235b 488D90A0 		leaq	416(%rax), %rdx
 3514      010000
 3515 2362 488D45F0 		leaq	-16(%rbp), %rax
 3516 2366 4889D6   		movq	%rdx, %rsi
 3517 2369 4889C7   		movq	%rax, %rdi
 3518 236c E8000000 		call	_Z14renderBitStoreRPcPK8BitStore
 3518      00
 588:testSvf2Csvf.cpp **** 	*p++ = ','; *p++ = ' ';
 3519              		.loc 3 588 0
 3520 2371 488B45F0 		movq	-16(%rbp), %rax
 3521 2375 488D5001 		leaq	1(%rax), %rdx
 3522 2379 488955F0 		movq	%rdx, -16(%rbp)
 3523 237d C6002C   		movb	$44, (%rax)
 3524 2380 488B45F0 		movq	-16(%rbp), %rax
 3525 2384 488D5001 		leaq	1(%rax), %rdx
 3526 2388 488955F0 		movq	%rdx, -16(%rbp)
 3527 238c C60020   		movb	$32, (%rax)
 589:testSvf2Csvf.cpp **** 	renderBitStore(p, &cxt->insnTail);
 3528              		.loc 3 589 0
 3529 238f 488B45E8 		movq	-24(%rbp), %rax
 3530 2393 488D9008 		leaq	520(%rax), %rdx
 3530      020000
 3531 239a 488D45F0 		leaq	-16(%rbp), %rax
 3532 239e 4889D6   		movq	%rdx, %rsi
 3533 23a1 4889C7   		movq	%rax, %rdi
 3534 23a4 E8000000 		call	_Z14renderBitStoreRPcPK8BitStore
 3534      00
 590:testSvf2Csvf.cpp **** 	
 591:testSvf2Csvf.cpp **** 	*p = '\0';
 3535              		.loc 3 591 0
 3536 23a9 488B45F0 		movq	-16(%rbp), %rax
 3537 23ad C60000   		movb	$0, (%rax)
 592:testSvf2Csvf.cpp **** 
 593:testSvf2Csvf.cpp **** 	return result;
 3538              		.loc 3 593 0
 3539 23b0 488D0500 		leaq	_ZZ9renderCxtPK12ParseContextE6result(%rip), %rax
 3539      000000
 594:testSvf2Csvf.cpp **** }
 3540              		.loc 3 594 0
 3541 23b7 488B4DF8 		movq	-8(%rbp), %rcx
 3542 23bb 6448330C 		xorq	%fs:40, %rcx
 3542      25280000 
 3542      00
 3543 23c4 7405     		je	.L140
 3544 23c6 E8000000 		call	__stack_chk_fail@PLT
 3544      00
 3545              	.L140:
 3546 23cb C9       		leave
 3547              		.cfi_def_cfa 7, 8
 3548 23cc C3       		ret
 3549              		.cfi_endproc
 3550              	.LFE1105:
 3552              		.section	.rodata
 3553              	.LC115:
 3554 067e 46504741 		.string	"FPGALink_testParse"
 3554      4C696E6B 
 3554      5F746573 
 3554      74506172 
 3554      736500
 3555              		.section	.text._ZN22TestFPGALink_testParseC2Ev,"axG",@progbits,_ZN22TestFPGALink_testParseC5Ev,com
 3556              		.align 2
 3557              		.weak	_ZN22TestFPGALink_testParseC2Ev
 3559              	_ZN22TestFPGALink_testParseC2Ev:
 3560              	.LFB1107:
 595:testSvf2Csvf.cpp **** 
 596:testSvf2Csvf.cpp **** TEST(FPGALink_testParse) {
 3561              		.loc 3 596 0
 3562              		.cfi_startproc
 3563 0000 55       		pushq	%rbp
 3564              		.cfi_def_cfa_offset 16
 3565              		.cfi_offset 6, -16
 3566 0001 4889E5   		movq	%rsp, %rbp
 3567              		.cfi_def_cfa_register 6
 3568 0004 53       		pushq	%rbx
 3569 0005 4883EC18 		subq	$24, %rsp
 3570              		.cfi_offset 3, -24
 3571 0009 48897DE8 		movq	%rdi, -24(%rbp)
 3572              	.LBB8:
 3573              		.loc 3 596 0
 3574 000d 488B5DE8 		movq	-24(%rbp), %rbx
 3575 0011 E8000000 		call	_ZN13UnitTestSuite12GetSuiteNameEv
 3575      00
 3576 0016 41B85402 		movl	$596, %r8d
 3576      0000
 3577 001c 488D0D00 		leaq	.LC5(%rip), %rcx
 3577      000000
 3578 0023 4889C2   		movq	%rax, %rdx
 3579 0026 488D3500 		leaq	.LC115(%rip), %rsi
 3579      000000
 3580 002d 4889DF   		movq	%rbx, %rdi
 3581 0030 E8000000 		call	_ZN8UnitTest4TestC2EPKcS2_S2_i@PLT
 3581      00
 3582 0035 488D1500 		leaq	16+_ZTV22TestFPGALink_testParse(%rip), %rdx
 3582      000000
 3583 003c 488B45E8 		movq	-24(%rbp), %rax
 3584 0040 488910   		movq	%rdx, (%rax)
 3585              	.LBE8:
 3586 0043 90       		nop
 3587 0044 4883C418 		addq	$24, %rsp
 3588 0048 5B       		popq	%rbx
 3589 0049 5D       		popq	%rbp
 3590              		.cfi_def_cfa 7, 8
 3591 004a C3       		ret
 3592              		.cfi_endproc
 3593              	.LFE1107:
 3595              		.weak	_ZN22TestFPGALink_testParseC1Ev
 3596              		.set	_ZN22TestFPGALink_testParseC1Ev,_ZN22TestFPGALink_testParseC2Ev
 3597              		.globl	testFPGALink_testParseInstance
 3598              		.bss
 3599 0079 00000000 		.align 32
 3599      000000
 3602              	testFPGALink_testParseInstance:
 3603 0080 00000000 		.zero	56
 3603      00000000 
 3603      00000000 
 3603      00000000 
 3603      00000000 
 3604              		.globl	adderFPGALink_testParse
 3607              	adderFPGALink_testParse:
 3608 00b8 00       		.zero	1
 3609              		.section	.rodata
 3610              	.LC116:
 3611 0691 48445220 		.string	"HDR 8 TDI (aa)"
 3611      38205444 
 3611      49202861 
 3611      612900
 3612              		.align 8
 3613              	.LC117:
 3614 06a0 382C207B 		.string	"8, {AA}, {00}, {FF}, 0, {}, {}, {}, 0, {}, {}, {}, 0, {}, {}, {}, 0, {}, {}, {}, 0, {}, {
 3614      41417D2C 
 3614      207B3030 
 3614      7D2C207B 
 3614      46467D2C 
 3615              	.LC118:
 3616 06ff 48445220 		.string	"HDR 8 MASK (55)"
 3616      38204D41 
 3616      534B2028 
 3616      35352900 
 3617 070f 00       		.align 8
 3618              	.LC119:
 3619 0710 382C207B 		.string	"8, {AA}, {00}, {55}, 0, {}, {}, {}, 0, {}, {}, {}, 0, {}, {}, {}, 0, {}, {}, {}, 0, {}, {
 3619      41417D2C 
 3619      207B3030 
 3619      7D2C207B 
 3619      35357D2C 
 3620              	.LC120:
 3621 076f 48445220 		.string	"HDR 6 TDI (3A)"
 3621      36205444 
 3621      49202833 
 3621      412900
 3622 077e 0000     		.align 8
 3623              	.LC121:
 3624 0780 362C207B 		.string	"6, {3A}, {00}, {FF}, 0, {}, {}, {}, 0, {}, {}, {}, 0, {}, {}, {}, 0, {}, {}, {}, 0, {}, {
 3624      33417D2C 
 3624      207B3030 
 3624      7D2C207B 
 3624      46467D2C 
 3625 07df 00       		.align 8
 3626              	.LC122:
 3627 07e0 556E6861 		.string	"Unhandled exception in CHECK_EQUAL(\"8, {AA}, {00}, {FF}, \" \"0, {}, {}, {}, \" \"0, {},
 3627      6E646C65 
 3627      64206578 
 3627      63657074 
 3627      696F6E20 
 3628 0885 000000   		.align 8
 3629              	.LC123:
 3630 0888 556E6861 		.string	"Unhandled exception in CHECK_EQUAL(\"8, {AA}, {00}, {55}, \" \"0, {}, {}, {}, \" \"0, {},
 3630      6E646C65 
 3630      64206578 
 3630      63657074 
 3630      696F6E20 
 3631 092d 000000   		.align 8
 3632              	.LC124:
 3633 0930 556E6861 		.string	"Unhandled exception in CHECK_EQUAL(\"6, {3A}, {00}, {FF}, \" \"0, {}, {}, {}, \" \"0, {},
 3633      6E646C65 
 3633      64206578 
 3633      63657074 
 3633      696F6E20 
 3634              		.text
 3635 23cd 90       		.align 2
 3636              		.globl	_ZNK22TestFPGALink_testParse7RunImplEv
 3638              	_ZNK22TestFPGALink_testParse7RunImplEv:
 3639              	.LFB1109:
 3640              		.loc 3 596 0
 3641              		.cfi_startproc
 3642              		.cfi_personality 0x9b,DW.ref.__gxx_personality_v0
 3643              		.cfi_lsda 0x1b,.LLSDA1109
 3644 23ce 55       		pushq	%rbp
 3645              		.cfi_def_cfa_offset 16
 3646              		.cfi_offset 6, -16
 3647 23cf 4889E5   		movq	%rsp, %rbp
 3648              		.cfi_def_cfa_register 6
 3649 23d2 53       		pushq	%rbx
 3650 23d3 4881EC18 		subq	$792, %rsp
 3650      030000
 3651              		.cfi_offset 3, -24
 3652 23da 4889BDE8 		movq	%rdi, -792(%rbp)
 3652      FCFFFF
 3653              		.loc 3 596 0
 3654 23e1 64488B04 		movq	%fs:40, %rax
 3654      25280000 
 3654      00
 3655 23ea 488945E8 		movq	%rax, -24(%rbp)
 3656 23ee 31C0     		xorl	%eax, %eax
 597:testSvf2Csvf.cpp **** 	FLStatus fStatus;
 598:testSvf2Csvf.cpp **** 	struct ParseContext cxt;
 599:testSvf2Csvf.cpp **** 	struct Buffer csvfBuf;
 600:testSvf2Csvf.cpp **** 	BufferStatus bStatus;
 601:testSvf2Csvf.cpp **** 	bStatus = bufInitialise(&csvfBuf, 1024, 0x00, NULL);
 3657              		.loc 3 601 0
 3658 23f0 488D8500 		leaq	-768(%rbp), %rax
 3658      FDFFFF
 3659 23f7 B9000000 		movl	$0, %ecx
 3659      00
 3660 23fc BA000000 		movl	$0, %edx
 3660      00
 3661 2401 BE000400 		movl	$1024, %esi
 3661      00
 3662 2406 4889C7   		movq	%rax, %rdi
 3663              	.LEHB96:
 3664 2409 E8000000 		call	bufInitialise@PLT
 3664      00
 3665              	.LEHE96:
 3666 240e 8985F8FC 		movl	%eax, -776(%rbp)
 3666      FFFF
 3667              	.LEHB97:
 602:testSvf2Csvf.cpp **** 	CHECK_EQUAL(BUF_SUCCESS, bStatus);
 3668              		.loc 3 602 0
 3669 2414 E8000000 		call	_ZN8UnitTest11CurrentTest7DetailsEv@PLT
 3669      00
 3670 2419 488B08   		movq	(%rax), %rcx
 3671 241c 488D8540 		leaq	-704(%rbp), %rax
 3671      FDFFFF
 3672 2423 BA5A0200 		movl	$602, %edx
 3672      00
 3673 2428 4889CE   		movq	%rcx, %rsi
 3674 242b 4889C7   		movq	%rax, %rdi
 3675 242e E8000000 		call	_ZN8UnitTest11TestDetailsC1ERKS0_i@PLT
 3675      00
 3676              	.LEHE97:
 3677              		.loc 3 602 0 is_stmt 0 discriminator 2
 3678 2433 C78520FD 		movl	$0, -736(%rbp)
 3678      FFFF0000 
 3678      0000
 3679              	.LEHB98:
 3680 243d E8000000 		call	_ZN8UnitTest11CurrentTest7ResultsEv@PLT
 3680      00
 3681 2442 488B00   		movq	(%rax), %rax
 3682 2445 488D8D40 		leaq	-704(%rbp), %rcx
 3682      FDFFFF
 3683 244c 488D95F8 		leaq	-776(%rbp), %rdx
 3683      FCFFFF
 3684 2453 488DB520 		leaq	-736(%rbp), %rsi
 3684      FDFFFF
 3685 245a 4889C7   		movq	%rax, %rdi
 3686 245d E8000000 		call	_ZN8UnitTest10CheckEqualI12BufferStatusS1_EEvRNS_11TestResultsERKT_RKT0_RKNS_11TestDetailsE
 3686      00
 3687              	.LEHE98:
 3688              	.L145:
 603:testSvf2Csvf.cpp **** 	fStatus = cxtInitialise(&cxt, NULL);
 3689              		.loc 3 603 0 is_stmt 1
 3690 2462 488D8540 		leaq	-704(%rbp), %rax
 3690      FDFFFF
 3691 2469 BE000000 		movl	$0, %esi
 3691      00
 3692 246e 4889C7   		movq	%rax, %rdi
 3693              	.LEHB99:
 3694 2471 E8000000 		call	cxtInitialise@PLT
 3694      00
 3695              	.LEHE99:
 3696 2476 8985F4FC 		movl	%eax, -780(%rbp)
 3696      FFFF
 3697              	.LEHB100:
 604:testSvf2Csvf.cpp **** 	CHECK_EQUAL(FL_SUCCESS, fStatus);
 3698              		.loc 3 604 0
 3699 247c E8000000 		call	_ZN8UnitTest11CurrentTest7DetailsEv@PLT
 3699      00
 3700 2481 488B08   		movq	(%rax), %rcx
 3701 2484 488D8520 		leaq	-736(%rbp), %rax
 3701      FDFFFF
 3702 248b BA5C0200 		movl	$604, %edx
 3702      00
 3703 2490 4889CE   		movq	%rcx, %rsi
 3704 2493 4889C7   		movq	%rax, %rdi
 3705 2496 E8000000 		call	_ZN8UnitTest11TestDetailsC1ERKS0_i@PLT
 3705      00
 3706              	.LEHE100:
 3707              		.loc 3 604 0 is_stmt 0 discriminator 2
 3708 249b C785FCFC 		movl	$0, -772(%rbp)
 3708      FFFF0000 
 3708      0000
 3709              	.LEHB101:
 3710 24a5 E8000000 		call	_ZN8UnitTest11CurrentTest7ResultsEv@PLT
 3710      00
 3711 24aa 488B00   		movq	(%rax), %rax
 3712 24ad 488D8D20 		leaq	-736(%rbp), %rcx
 3712      FDFFFF
 3713 24b4 488D95F4 		leaq	-780(%rbp), %rdx
 3713      FCFFFF
 3714 24bb 488DB5FC 		leaq	-772(%rbp), %rsi
 3714      FCFFFF
 3715 24c2 4889C7   		movq	%rax, %rdi
 3716 24c5 E8000000 		call	_ZN8UnitTest10CheckEqualI8FLStatusS1_EEvRNS_11TestResultsERKT_RKT0_RKNS_11TestDetailsE
 3716      00
 3717              	.LEHE101:
 3718              	.L149:
 605:testSvf2Csvf.cpp **** 
 606:testSvf2Csvf.cpp **** 	// HDR, HIR, SDR, SIR, TDR, TIR
 607:testSvf2Csvf.cpp **** 	parseString(&cxt, "HDR 8 TDI (aa)", &csvfBuf);
 3719              		.loc 3 607 0 is_stmt 1
 3720 24ca 488D9500 		leaq	-768(%rbp), %rdx
 3720      FDFFFF
 3721 24d1 488D8540 		leaq	-704(%rbp), %rax
 3721      FDFFFF
 3722 24d8 488D3500 		leaq	.LC116(%rip), %rsi
 3722      000000
 3723 24df 4889C7   		movq	%rax, %rdi
 3724              	.LEHB102:
 3725 24e2 E8000000 		call	_Z11parseStringP12ParseContextPKcP6Buffer
 3725      00
 3726              	.LEHE102:
 3727              	.LEHB103:
 608:testSvf2Csvf.cpp **** 	CHECK_EQUAL(
 3728              		.loc 3 608 0
 3729 24e7 E8000000 		call	_ZN8UnitTest11CurrentTest7DetailsEv@PLT
 3729      00
 3730 24ec 488B08   		movq	(%rax), %rcx
 3731 24ef 488D8520 		leaq	-736(%rbp), %rax
 3731      FDFFFF
 3732 24f6 BA670200 		movl	$615, %edx
 3732      00
 3733 24fb 4889CE   		movq	%rcx, %rsi
 3734 24fe 4889C7   		movq	%rax, %rdi
 3735 2501 E8000000 		call	_ZN8UnitTest11TestDetailsC1ERKS0_i@PLT
 3735      00
 3736              		.loc 3 608 0 is_stmt 0 discriminator 2
 3737 2506 488D8540 		leaq	-704(%rbp), %rax
 3737      FDFFFF
 3738 250d 4889C7   		movq	%rax, %rdi
 3739 2510 E8000000 		call	_Z9renderCxtPK12ParseContext
 3739      00
 3740 2515 4889C3   		movq	%rax, %rbx
 3741 2518 E8000000 		call	_ZN8UnitTest11CurrentTest7ResultsEv@PLT
 3741      00
 3742 251d 488B00   		movq	(%rax), %rax
 3743 2520 488D9520 		leaq	-736(%rbp), %rdx
 3743      FDFFFF
 3744 2527 4889D1   		movq	%rdx, %rcx
 3745 252a 4889DA   		movq	%rbx, %rdx
 3746 252d 488D3500 		leaq	.LC117(%rip), %rsi
 3746      000000
 3747 2534 4889C7   		movq	%rax, %rdi
 3748 2537 E8000000 		call	_ZN8UnitTest10CheckEqualERNS_11TestResultsEPKcS3_RKNS_11TestDetailsE@PLT
 3748      00
 3749              	.LEHE103:
 3750              	.L152:
 609:testSvf2Csvf.cpp **** 		"8, {AA}, {00}, {FF}, "    // HDR
 610:testSvf2Csvf.cpp **** 		"0, {}, {}, {}, "          // HIR
 611:testSvf2Csvf.cpp **** 		"0, {}, {}, {}, "          // SDR
 612:testSvf2Csvf.cpp **** 		"0, {}, {}, {}, "          // SIR
 613:testSvf2Csvf.cpp **** 		"0, {}, {}, {}, "          // TDR
 614:testSvf2Csvf.cpp **** 		"0, {}, {}, {}",           // TIR
 615:testSvf2Csvf.cpp **** 		renderCxt(&cxt));
 616:testSvf2Csvf.cpp **** 
 617:testSvf2Csvf.cpp **** 	// HDR, HIR, SDR, SIR, TDR, TIR
 618:testSvf2Csvf.cpp **** 	parseString(&cxt, "HDR 8 MASK (55)", &csvfBuf);
 3751              		.loc 3 618 0 is_stmt 1
 3752 253c 488D9500 		leaq	-768(%rbp), %rdx
 3752      FDFFFF
 3753 2543 488D8540 		leaq	-704(%rbp), %rax
 3753      FDFFFF
 3754 254a 488D3500 		leaq	.LC118(%rip), %rsi
 3754      000000
 3755 2551 4889C7   		movq	%rax, %rdi
 3756              	.LEHB104:
 3757 2554 E8000000 		call	_Z11parseStringP12ParseContextPKcP6Buffer
 3757      00
 3758              	.LEHE104:
 3759              	.LEHB105:
 619:testSvf2Csvf.cpp **** 	CHECK_EQUAL(
 3760              		.loc 3 619 0
 3761 2559 E8000000 		call	_ZN8UnitTest11CurrentTest7DetailsEv@PLT
 3761      00
 3762 255e 488B08   		movq	(%rax), %rcx
 3763 2561 488D8520 		leaq	-736(%rbp), %rax
 3763      FDFFFF
 3764 2568 BA720200 		movl	$626, %edx
 3764      00
 3765 256d 4889CE   		movq	%rcx, %rsi
 3766 2570 4889C7   		movq	%rax, %rdi
 3767 2573 E8000000 		call	_ZN8UnitTest11TestDetailsC1ERKS0_i@PLT
 3767      00
 3768              		.loc 3 619 0 is_stmt 0 discriminator 2
 3769 2578 488D8540 		leaq	-704(%rbp), %rax
 3769      FDFFFF
 3770 257f 4889C7   		movq	%rax, %rdi
 3771 2582 E8000000 		call	_Z9renderCxtPK12ParseContext
 3771      00
 3772 2587 4889C3   		movq	%rax, %rbx
 3773 258a E8000000 		call	_ZN8UnitTest11CurrentTest7ResultsEv@PLT
 3773      00
 3774 258f 488B00   		movq	(%rax), %rax
 3775 2592 488D9520 		leaq	-736(%rbp), %rdx
 3775      FDFFFF
 3776 2599 4889D1   		movq	%rdx, %rcx
 3777 259c 4889DA   		movq	%rbx, %rdx
 3778 259f 488D3500 		leaq	.LC119(%rip), %rsi
 3778      000000
 3779 25a6 4889C7   		movq	%rax, %rdi
 3780 25a9 E8000000 		call	_ZN8UnitTest10CheckEqualERNS_11TestResultsEPKcS3_RKNS_11TestDetailsE@PLT
 3780      00
 3781              	.LEHE105:
 3782              	.L155:
 620:testSvf2Csvf.cpp **** 		"8, {AA}, {00}, {55}, "    // HDR
 621:testSvf2Csvf.cpp **** 		"0, {}, {}, {}, "          // HIR
 622:testSvf2Csvf.cpp **** 		"0, {}, {}, {}, "          // SDR
 623:testSvf2Csvf.cpp **** 		"0, {}, {}, {}, "          // SIR
 624:testSvf2Csvf.cpp **** 		"0, {}, {}, {}, "          // TDR
 625:testSvf2Csvf.cpp **** 		"0, {}, {}, {}",           // TIR
 626:testSvf2Csvf.cpp **** 		renderCxt(&cxt));
 627:testSvf2Csvf.cpp **** 
 628:testSvf2Csvf.cpp **** 	// HDR, HIR, SDR, SIR, TDR, TIR
 629:testSvf2Csvf.cpp **** 	parseString(&cxt, "HDR 6 TDI (3A)", &csvfBuf);
 3783              		.loc 3 629 0 is_stmt 1
 3784 25ae 488D9500 		leaq	-768(%rbp), %rdx
 3784      FDFFFF
 3785 25b5 488D8540 		leaq	-704(%rbp), %rax
 3785      FDFFFF
 3786 25bc 488D3500 		leaq	.LC120(%rip), %rsi
 3786      000000
 3787 25c3 4889C7   		movq	%rax, %rdi
 3788              	.LEHB106:
 3789 25c6 E8000000 		call	_Z11parseStringP12ParseContextPKcP6Buffer
 3789      00
 3790              	.LEHE106:
 3791              	.LEHB107:
 630:testSvf2Csvf.cpp **** 	CHECK_EQUAL(
 3792              		.loc 3 630 0
 3793 25cb E8000000 		call	_ZN8UnitTest11CurrentTest7DetailsEv@PLT
 3793      00
 3794 25d0 488B08   		movq	(%rax), %rcx
 3795 25d3 488D8520 		leaq	-736(%rbp), %rax
 3795      FDFFFF
 3796 25da BA7D0200 		movl	$637, %edx
 3796      00
 3797 25df 4889CE   		movq	%rcx, %rsi
 3798 25e2 4889C7   		movq	%rax, %rdi
 3799 25e5 E8000000 		call	_ZN8UnitTest11TestDetailsC1ERKS0_i@PLT
 3799      00
 3800              		.loc 3 630 0 is_stmt 0 discriminator 2
 3801 25ea 488D8540 		leaq	-704(%rbp), %rax
 3801      FDFFFF
 3802 25f1 4889C7   		movq	%rax, %rdi
 3803 25f4 E8000000 		call	_Z9renderCxtPK12ParseContext
 3803      00
 3804 25f9 4889C3   		movq	%rax, %rbx
 3805 25fc E8000000 		call	_ZN8UnitTest11CurrentTest7ResultsEv@PLT
 3805      00
 3806 2601 488B00   		movq	(%rax), %rax
 3807 2604 488D9520 		leaq	-736(%rbp), %rdx
 3807      FDFFFF
 3808 260b 4889D1   		movq	%rdx, %rcx
 3809 260e 4889DA   		movq	%rbx, %rdx
 3810 2611 488D3500 		leaq	.LC121(%rip), %rsi
 3810      000000
 3811 2618 4889C7   		movq	%rax, %rdi
 3812 261b E8000000 		call	_ZN8UnitTest10CheckEqualERNS_11TestResultsEPKcS3_RKNS_11TestDetailsE@PLT
 3812      00
 3813              	.LEHE107:
 3814              	.L158:
 631:testSvf2Csvf.cpp **** 		"6, {3A}, {00}, {FF}, "    // HDR
 632:testSvf2Csvf.cpp **** 		"0, {}, {}, {}, "          // HIR
 633:testSvf2Csvf.cpp **** 		"0, {}, {}, {}, "          // SDR
 634:testSvf2Csvf.cpp **** 		"0, {}, {}, {}, "          // SIR
 635:testSvf2Csvf.cpp **** 		"0, {}, {}, {}, "          // TDR
 636:testSvf2Csvf.cpp **** 		"0, {}, {}, {}",           // TIR
 637:testSvf2Csvf.cpp **** 		renderCxt(&cxt));
 638:testSvf2Csvf.cpp **** 
 639:testSvf2Csvf.cpp **** 	cxtDestroy(&cxt);
 3815              		.loc 3 639 0 is_stmt 1
 3816 2620 488D8540 		leaq	-704(%rbp), %rax
 3816      FDFFFF
 3817 2627 4889C7   		movq	%rax, %rdi
 3818              	.LEHB108:
 3819 262a E8000000 		call	cxtDestroy@PLT
 3819      00
 640:testSvf2Csvf.cpp **** 	bufDestroy(&csvfBuf);
 3820              		.loc 3 640 0
 3821 262f 488D8500 		leaq	-768(%rbp), %rax
 3821      FDFFFF
 3822 2636 4889C7   		movq	%rax, %rdi
 3823 2639 E8000000 		call	bufDestroy@PLT
 3823      00
 3824              	.LEHE108:
 641:testSvf2Csvf.cpp **** }
 3825              		.loc 3 641 0
 3826 263e 90       		nop
 3827 263f 488B45E8 		movq	-24(%rbp), %rax
 3828 2643 64483304 		xorq	%fs:40, %rax
 3828      25280000 
 3828      00
 3829 264c 0F840702 		je	.L160
 3829      0000
 3830 2652 E9FD0100 		jmp	.L173
 3830      00
 3831              	.L162:
 3832 2657 EB00     		jmp	.L144
 3833              	.L161:
 3834              	.L144:
 602:testSvf2Csvf.cpp **** 	fStatus = cxtInitialise(&cxt, NULL);
 3835              		.loc 3 602 0
 3836 2659 4889C7   		movq	%rax, %rdi
 3837 265c E8000000 		call	__cxa_begin_catch@PLT
 3837      00
 3838              	.LEHB109:
 3839 2661 E8000000 		call	_ZN8UnitTest11CurrentTest7ResultsEv@PLT
 3839      00
 3840 2666 488B18   		movq	(%rax), %rbx
 3841 2669 E8000000 		call	_ZN8UnitTest11CurrentTest7DetailsEv@PLT
 3841      00
 602:testSvf2Csvf.cpp **** 	fStatus = cxtInitialise(&cxt, NULL);
 3842              		.loc 3 602 0 is_stmt 0 discriminator 8
 3843 266e 488B08   		movq	(%rax), %rcx
 3844 2671 488D8540 		leaq	-704(%rbp), %rax
 3844      FDFFFF
 3845 2678 BA5A0200 		movl	$602, %edx
 3845      00
 3846 267d 4889CE   		movq	%rcx, %rsi
 3847 2680 4889C7   		movq	%rax, %rdi
 3848 2683 E8000000 		call	_ZN8UnitTest11TestDetailsC1ERKS0_i@PLT
 3848      00
 602:testSvf2Csvf.cpp **** 	fStatus = cxtInitialise(&cxt, NULL);
 3849              		.loc 3 602 0 discriminator 12
 3850 2688 488D8540 		leaq	-704(%rbp), %rax
 3850      FDFFFF
 3851 268f 488D1500 		leaq	.LC13(%rip), %rdx
 3851      000000
 3852 2696 4889C6   		movq	%rax, %rsi
 3853 2699 4889DF   		movq	%rbx, %rdi
 3854 269c E8000000 		call	_ZN8UnitTest11TestResults13OnTestFailureERKNS_11TestDetailsEPKc@PLT
 3854      00
 3855              	.LEHE109:
 3856              	.LEHB110:
 602:testSvf2Csvf.cpp **** 	fStatus = cxtInitialise(&cxt, NULL);
 3857              		.loc 3 602 0 discriminator 14
 3858 26a1 E8000000 		call	__cxa_end_catch@PLT
 3858      00
 3859              	.LEHE110:
 3860 26a6 E9B7FDFF 		jmp	.L145
 3860      FF
 3861              	.L163:
 3862 26ab 4889C3   		movq	%rax, %rbx
 602:testSvf2Csvf.cpp **** 	fStatus = cxtInitialise(&cxt, NULL);
 3863              		.loc 3 602 0
 3864 26ae E8000000 		call	__cxa_end_catch@PLT
 3864      00
 3865 26b3 4889D8   		movq	%rbx, %rax
 3866 26b6 4889C7   		movq	%rax, %rdi
 3867              	.LEHB111:
 3868 26b9 E8000000 		call	_Unwind_Resume@PLT
 3868      00
 3869              	.LEHE111:
 3870              	.L165:
 3871 26be EB00     		jmp	.L148
 3872              	.L164:
 3873              	.L148:
 604:testSvf2Csvf.cpp **** 
 3874              		.loc 3 604 0 is_stmt 1
 3875 26c0 4889C7   		movq	%rax, %rdi
 3876 26c3 E8000000 		call	__cxa_begin_catch@PLT
 3876      00
 3877              	.LEHB112:
 3878 26c8 E8000000 		call	_ZN8UnitTest11CurrentTest7ResultsEv@PLT
 3878      00
 3879 26cd 488B18   		movq	(%rax), %rbx
 3880 26d0 E8000000 		call	_ZN8UnitTest11CurrentTest7DetailsEv@PLT
 3880      00
 604:testSvf2Csvf.cpp **** 
 3881              		.loc 3 604 0 is_stmt 0 discriminator 8
 3882 26d5 488B08   		movq	(%rax), %rcx
 3883 26d8 488D8520 		leaq	-736(%rbp), %rax
 3883      FDFFFF
 3884 26df BA5C0200 		movl	$604, %edx
 3884      00
 3885 26e4 4889CE   		movq	%rcx, %rsi
 3886 26e7 4889C7   		movq	%rax, %rdi
 3887 26ea E8000000 		call	_ZN8UnitTest11TestDetailsC1ERKS0_i@PLT
 3887      00
 604:testSvf2Csvf.cpp **** 
 3888              		.loc 3 604 0 discriminator 12
 3889 26ef 488D8520 		leaq	-736(%rbp), %rax
 3889      FDFFFF
 3890 26f6 488D1500 		leaq	.LC2(%rip), %rdx
 3890      000000
 3891 26fd 4889C6   		movq	%rax, %rsi
 3892 2700 4889DF   		movq	%rbx, %rdi
 3893 2703 E8000000 		call	_ZN8UnitTest11TestResults13OnTestFailureERKNS_11TestDetailsEPKc@PLT
 3893      00
 3894              	.LEHE112:
 3895              	.LEHB113:
 604:testSvf2Csvf.cpp **** 
 3896              		.loc 3 604 0 discriminator 14
 3897 2708 E8000000 		call	__cxa_end_catch@PLT
 3897      00
 3898              	.LEHE113:
 3899 270d E9B8FDFF 		jmp	.L149
 3899      FF
 3900              	.L166:
 3901 2712 4889C3   		movq	%rax, %rbx
 604:testSvf2Csvf.cpp **** 
 3902              		.loc 3 604 0
 3903 2715 E8000000 		call	__cxa_end_catch@PLT
 3903      00
 3904 271a 4889D8   		movq	%rbx, %rax
 3905 271d 4889C7   		movq	%rax, %rdi
 3906              	.LEHB114:
 3907 2720 E8000000 		call	_Unwind_Resume@PLT
 3907      00
 3908              	.LEHE114:
 3909              	.L167:
 608:testSvf2Csvf.cpp **** 		"8, {AA}, {00}, {FF}, "    // HDR
 3910              		.loc 3 608 0 is_stmt 1
 3911 2725 4889C7   		movq	%rax, %rdi
 3912 2728 E8000000 		call	__cxa_begin_catch@PLT
 3912      00
 3913              	.LEHB115:
 3914 272d E8000000 		call	_ZN8UnitTest11CurrentTest7ResultsEv@PLT
 3914      00
 3915 2732 488B18   		movq	(%rax), %rbx
 3916 2735 E8000000 		call	_ZN8UnitTest11CurrentTest7DetailsEv@PLT
 3916      00
 608:testSvf2Csvf.cpp **** 		"8, {AA}, {00}, {FF}, "    // HDR
 3917              		.loc 3 608 0 is_stmt 0 discriminator 8
 3918 273a 488B08   		movq	(%rax), %rcx
 3919 273d 488D8520 		leaq	-736(%rbp), %rax
 3919      FDFFFF
 3920 2744 BA670200 		movl	$615, %edx
 3920      00
 3921 2749 4889CE   		movq	%rcx, %rsi
 3922 274c 4889C7   		movq	%rax, %rdi
 3923 274f E8000000 		call	_ZN8UnitTest11TestDetailsC1ERKS0_i@PLT
 3923      00
 608:testSvf2Csvf.cpp **** 		"8, {AA}, {00}, {FF}, "    // HDR
 3924              		.loc 3 608 0 discriminator 12
 3925 2754 488D8520 		leaq	-736(%rbp), %rax
 3925      FDFFFF
 3926 275b 488D1500 		leaq	.LC122(%rip), %rdx
 3926      000000
 3927 2762 4889C6   		movq	%rax, %rsi
 3928 2765 4889DF   		movq	%rbx, %rdi
 3929 2768 E8000000 		call	_ZN8UnitTest11TestResults13OnTestFailureERKNS_11TestDetailsEPKc@PLT
 3929      00
 3930              	.LEHE115:
 3931              	.LEHB116:
 608:testSvf2Csvf.cpp **** 		"8, {AA}, {00}, {FF}, "    // HDR
 3932              		.loc 3 608 0 discriminator 14
 3933 276d E8000000 		call	__cxa_end_catch@PLT
 3933      00
 3934              	.LEHE116:
 3935 2772 E9C5FDFF 		jmp	.L152
 3935      FF
 3936              	.L168:
 3937 2777 4889C3   		movq	%rax, %rbx
 608:testSvf2Csvf.cpp **** 		"8, {AA}, {00}, {FF}, "    // HDR
 3938              		.loc 3 608 0
 3939 277a E8000000 		call	__cxa_end_catch@PLT
 3939      00
 3940 277f 4889D8   		movq	%rbx, %rax
 3941 2782 4889C7   		movq	%rax, %rdi
 3942              	.LEHB117:
 3943 2785 E8000000 		call	_Unwind_Resume@PLT
 3943      00
 3944              	.LEHE117:
 3945              	.L169:
 619:testSvf2Csvf.cpp **** 		"8, {AA}, {00}, {55}, "    // HDR
 3946              		.loc 3 619 0 is_stmt 1
 3947 278a 4889C7   		movq	%rax, %rdi
 3948 278d E8000000 		call	__cxa_begin_catch@PLT
 3948      00
 3949              	.LEHB118:
 3950 2792 E8000000 		call	_ZN8UnitTest11CurrentTest7ResultsEv@PLT
 3950      00
 3951 2797 488B18   		movq	(%rax), %rbx
 3952 279a E8000000 		call	_ZN8UnitTest11CurrentTest7DetailsEv@PLT
 3952      00
 619:testSvf2Csvf.cpp **** 		"8, {AA}, {00}, {55}, "    // HDR
 3953              		.loc 3 619 0 is_stmt 0 discriminator 8
 3954 279f 488B08   		movq	(%rax), %rcx
 3955 27a2 488D8520 		leaq	-736(%rbp), %rax
 3955      FDFFFF
 3956 27a9 BA720200 		movl	$626, %edx
 3956      00
 3957 27ae 4889CE   		movq	%rcx, %rsi
 3958 27b1 4889C7   		movq	%rax, %rdi
 3959 27b4 E8000000 		call	_ZN8UnitTest11TestDetailsC1ERKS0_i@PLT
 3959      00
 619:testSvf2Csvf.cpp **** 		"8, {AA}, {00}, {55}, "    // HDR
 3960              		.loc 3 619 0 discriminator 12
 3961 27b9 488D8520 		leaq	-736(%rbp), %rax
 3961      FDFFFF
 3962 27c0 488D1500 		leaq	.LC123(%rip), %rdx
 3962      000000
 3963 27c7 4889C6   		movq	%rax, %rsi
 3964 27ca 4889DF   		movq	%rbx, %rdi
 3965 27cd E8000000 		call	_ZN8UnitTest11TestResults13OnTestFailureERKNS_11TestDetailsEPKc@PLT
 3965      00
 3966              	.LEHE118:
 3967              	.LEHB119:
 619:testSvf2Csvf.cpp **** 		"8, {AA}, {00}, {55}, "    // HDR
 3968              		.loc 3 619 0 discriminator 14
 3969 27d2 E8000000 		call	__cxa_end_catch@PLT
 3969      00
 3970              	.LEHE119:
 3971 27d7 E9D2FDFF 		jmp	.L155
 3971      FF
 3972              	.L170:
 3973 27dc 4889C3   		movq	%rax, %rbx
 619:testSvf2Csvf.cpp **** 		"8, {AA}, {00}, {55}, "    // HDR
 3974              		.loc 3 619 0
 3975 27df E8000000 		call	__cxa_end_catch@PLT
 3975      00
 3976 27e4 4889D8   		movq	%rbx, %rax
 3977 27e7 4889C7   		movq	%rax, %rdi
 3978              	.LEHB120:
 3979 27ea E8000000 		call	_Unwind_Resume@PLT
 3979      00
 3980              	.LEHE120:
 3981              	.L171:
 630:testSvf2Csvf.cpp **** 		"6, {3A}, {00}, {FF}, "    // HDR
 3982              		.loc 3 630 0 is_stmt 1
 3983 27ef 4889C7   		movq	%rax, %rdi
 3984 27f2 E8000000 		call	__cxa_begin_catch@PLT
 3984      00
 3985              	.LEHB121:
 3986 27f7 E8000000 		call	_ZN8UnitTest11CurrentTest7ResultsEv@PLT
 3986      00
 3987 27fc 488B18   		movq	(%rax), %rbx
 3988 27ff E8000000 		call	_ZN8UnitTest11CurrentTest7DetailsEv@PLT
 3988      00
 630:testSvf2Csvf.cpp **** 		"6, {3A}, {00}, {FF}, "    // HDR
 3989              		.loc 3 630 0 is_stmt 0 discriminator 8
 3990 2804 488B08   		movq	(%rax), %rcx
 3991 2807 488D8520 		leaq	-736(%rbp), %rax
 3991      FDFFFF
 3992 280e BA7D0200 		movl	$637, %edx
 3992      00
 3993 2813 4889CE   		movq	%rcx, %rsi
 3994 2816 4889C7   		movq	%rax, %rdi
 3995 2819 E8000000 		call	_ZN8UnitTest11TestDetailsC1ERKS0_i@PLT
 3995      00
 630:testSvf2Csvf.cpp **** 		"6, {3A}, {00}, {FF}, "    // HDR
 3996              		.loc 3 630 0 discriminator 12
 3997 281e 488D8520 		leaq	-736(%rbp), %rax
 3997      FDFFFF
 3998 2825 488D1500 		leaq	.LC124(%rip), %rdx
 3998      000000
 3999 282c 4889C6   		movq	%rax, %rsi
 4000 282f 4889DF   		movq	%rbx, %rdi
 4001 2832 E8000000 		call	_ZN8UnitTest11TestResults13OnTestFailureERKNS_11TestDetailsEPKc@PLT
 4001      00
 4002              	.LEHE121:
 4003              	.LEHB122:
 630:testSvf2Csvf.cpp **** 		"6, {3A}, {00}, {FF}, "    // HDR
 4004              		.loc 3 630 0 discriminator 14
 4005 2837 E8000000 		call	__cxa_end_catch@PLT
 4005      00
 4006              	.LEHE122:
 4007 283c E9DFFDFF 		jmp	.L158
 4007      FF
 4008              	.L172:
 4009 2841 4889C3   		movq	%rax, %rbx
 630:testSvf2Csvf.cpp **** 		"6, {3A}, {00}, {FF}, "    // HDR
 4010              		.loc 3 630 0
 4011 2844 E8000000 		call	__cxa_end_catch@PLT
 4011      00
 4012 2849 4889D8   		movq	%rbx, %rax
 4013 284c 4889C7   		movq	%rax, %rdi
 4014              	.LEHB123:
 4015 284f E8000000 		call	_Unwind_Resume@PLT
 4015      00
 4016              	.LEHE123:
 4017              	.L173:
 4018              		.loc 3 641 0 is_stmt 1
 4019 2854 E8000000 		call	__stack_chk_fail@PLT
 4019      00
 4020              	.L160:
 4021 2859 4881C418 		addq	$792, %rsp
 4021      030000
 4022 2860 5B       		popq	%rbx
 4023 2861 5D       		popq	%rbp
 4024              		.cfi_def_cfa 7, 8
 4025 2862 C3       		ret
 4026              		.cfi_endproc
 4027              	.LFE1109:
 4028              		.section	.gcc_except_table
 4029              		.align 4
 4030              	.LLSDA1109:
 4031 0228 FF       		.byte	0xff
 4032 0229 9B       		.byte	0x9b
 4033 022a A001     		.uleb128 .LLSDATT1109-.LLSDATTD1109
 4034              	.LLSDATTD1109:
 4035 022c 01       		.byte	0x1
 4036 022d 9501     		.uleb128 .LLSDACSE1109-.LLSDACSB1109
 4037              	.LLSDACSB1109:
 4038 022f 3B       		.uleb128 .LEHB96-.LFB1109
 4039 0230 05       		.uleb128 .LEHE96-.LEHB96
 4040 0231 00       		.uleb128 0
 4041 0232 00       		.uleb128 0
 4042 0233 46       		.uleb128 .LEHB97-.LFB1109
 4043 0234 1F       		.uleb128 .LEHE97-.LEHB97
 4044 0235 8B05     		.uleb128 .L161-.LFB1109
 4045 0237 01       		.uleb128 0x1
 4046 0238 6F       		.uleb128 .LEHB98-.LFB1109
 4047 0239 25       		.uleb128 .LEHE98-.LEHB98
 4048 023a 8905     		.uleb128 .L162-.LFB1109
 4049 023c 03       		.uleb128 0x3
 4050 023d A301     		.uleb128 .LEHB99-.LFB1109
 4051 023f 05       		.uleb128 .LEHE99-.LEHB99
 4052 0240 00       		.uleb128 0
 4053 0241 00       		.uleb128 0
 4054 0242 AE01     		.uleb128 .LEHB100-.LFB1109
 4055 0244 1F       		.uleb128 .LEHE100-.LEHB100
 4056 0245 F205     		.uleb128 .L164-.LFB1109
 4057 0247 01       		.uleb128 0x1
 4058 0248 D701     		.uleb128 .LEHB101-.LFB1109
 4059 024a 25       		.uleb128 .LEHE101-.LEHB101
 4060 024b F005     		.uleb128 .L165-.LFB1109
 4061 024d 03       		.uleb128 0x3
 4062 024e 9402     		.uleb128 .LEHB102-.LFB1109
 4063 0250 05       		.uleb128 .LEHE102-.LEHB102
 4064 0251 00       		.uleb128 0
 4065 0252 00       		.uleb128 0
 4066 0253 9902     		.uleb128 .LEHB103-.LFB1109
 4067 0255 55       		.uleb128 .LEHE103-.LEHB103
 4068 0256 D706     		.uleb128 .L167-.LFB1109
 4069 0258 01       		.uleb128 0x1
 4070 0259 8603     		.uleb128 .LEHB104-.LFB1109
 4071 025b 05       		.uleb128 .LEHE104-.LEHB104
 4072 025c 00       		.uleb128 0
 4073 025d 00       		.uleb128 0
 4074 025e 8B03     		.uleb128 .LEHB105-.LFB1109
 4075 0260 55       		.uleb128 .LEHE105-.LEHB105
 4076 0261 BC07     		.uleb128 .L169-.LFB1109
 4077 0263 01       		.uleb128 0x1
 4078 0264 F803     		.uleb128 .LEHB106-.LFB1109
 4079 0266 05       		.uleb128 .LEHE106-.LEHB106
 4080 0267 00       		.uleb128 0
 4081 0268 00       		.uleb128 0
 4082 0269 FD03     		.uleb128 .LEHB107-.LFB1109
 4083 026b 55       		.uleb128 .LEHE107-.LEHB107
 4084 026c A108     		.uleb128 .L171-.LFB1109
 4085 026e 01       		.uleb128 0x1
 4086 026f DC04     		.uleb128 .LEHB108-.LFB1109
 4087 0271 14       		.uleb128 .LEHE108-.LEHB108
 4088 0272 00       		.uleb128 0
 4089 0273 00       		.uleb128 0
 4090 0274 9305     		.uleb128 .LEHB109-.LFB1109
 4091 0276 40       		.uleb128 .LEHE109-.LEHB109
 4092 0277 DD05     		.uleb128 .L163-.LFB1109
 4093 0279 00       		.uleb128 0
 4094 027a D305     		.uleb128 .LEHB110-.LFB1109
 4095 027c 05       		.uleb128 .LEHE110-.LEHB110
 4096 027d 00       		.uleb128 0
 4097 027e 00       		.uleb128 0
 4098 027f EB05     		.uleb128 .LEHB111-.LFB1109
 4099 0281 05       		.uleb128 .LEHE111-.LEHB111
 4100 0282 00       		.uleb128 0
 4101 0283 00       		.uleb128 0
 4102 0284 FA05     		.uleb128 .LEHB112-.LFB1109
 4103 0286 40       		.uleb128 .LEHE112-.LEHB112
 4104 0287 C406     		.uleb128 .L166-.LFB1109
 4105 0289 00       		.uleb128 0
 4106 028a BA06     		.uleb128 .LEHB113-.LFB1109
 4107 028c 05       		.uleb128 .LEHE113-.LEHB113
 4108 028d 00       		.uleb128 0
 4109 028e 00       		.uleb128 0
 4110 028f D206     		.uleb128 .LEHB114-.LFB1109
 4111 0291 05       		.uleb128 .LEHE114-.LEHB114
 4112 0292 00       		.uleb128 0
 4113 0293 00       		.uleb128 0
 4114 0294 DF06     		.uleb128 .LEHB115-.LFB1109
 4115 0296 40       		.uleb128 .LEHE115-.LEHB115
 4116 0297 A907     		.uleb128 .L168-.LFB1109
 4117 0299 00       		.uleb128 0
 4118 029a 9F07     		.uleb128 .LEHB116-.LFB1109
 4119 029c 05       		.uleb128 .LEHE116-.LEHB116
 4120 029d 00       		.uleb128 0
 4121 029e 00       		.uleb128 0
 4122 029f B707     		.uleb128 .LEHB117-.LFB1109
 4123 02a1 05       		.uleb128 .LEHE117-.LEHB117
 4124 02a2 00       		.uleb128 0
 4125 02a3 00       		.uleb128 0
 4126 02a4 C407     		.uleb128 .LEHB118-.LFB1109
 4127 02a6 40       		.uleb128 .LEHE118-.LEHB118
 4128 02a7 8E08     		.uleb128 .L170-.LFB1109
 4129 02a9 00       		.uleb128 0
 4130 02aa 8408     		.uleb128 .LEHB119-.LFB1109
 4131 02ac 05       		.uleb128 .LEHE119-.LEHB119
 4132 02ad 00       		.uleb128 0
 4133 02ae 00       		.uleb128 0
 4134 02af 9C08     		.uleb128 .LEHB120-.LFB1109
 4135 02b1 05       		.uleb128 .LEHE120-.LEHB120
 4136 02b2 00       		.uleb128 0
 4137 02b3 00       		.uleb128 0
 4138 02b4 A908     		.uleb128 .LEHB121-.LFB1109
 4139 02b6 40       		.uleb128 .LEHE121-.LEHB121
 4140 02b7 F308     		.uleb128 .L172-.LFB1109
 4141 02b9 00       		.uleb128 0
 4142 02ba E908     		.uleb128 .LEHB122-.LFB1109
 4143 02bc 05       		.uleb128 .LEHE122-.LEHB122
 4144 02bd 00       		.uleb128 0
 4145 02be 00       		.uleb128 0
 4146 02bf 8109     		.uleb128 .LEHB123-.LFB1109
 4147 02c1 05       		.uleb128 .LEHE123-.LEHB123
 4148 02c2 00       		.uleb128 0
 4149 02c3 00       		.uleb128 0
 4150              	.LLSDACSE1109:
 4151 02c4 01       		.byte	0x1
 4152 02c5 00       		.byte	0
 4153 02c6 00       		.byte	0
 4154 02c7 7D       		.byte	0x7d
 4155              		.align 4
 4156 02c8 00000000 		.long	0
 4157              	
 4158              	.LLSDATT1109:
 4159              		.text
 4161              		.section	.rodata
 4162              	.LC125:
 4163 09d5 20205B25 		.string	"  [%d] %s:%s\n"
 4163      645D2025 
 4163      733A2573 
 4163      0A00
 4164 09e3 00000000 		.align 8
 4164      00
 4165              	.LC126:
 4166 09e8 556E6861 		.string	"Unhandled exception in CHECK_EQUAL(sExpected, sActual)"
 4166      6E646C65 
 4166      64206578 
 4166      63657074 
 4166      696F6E20 
 4167 0a1f 00       		.align 8
 4168              	.LC127:
 4169 0a20 556E6861 		.string	"Unhandled exception in CHECK_EQUAL(expected, actual)"
 4169      6E646C65 
 4169      64206578 
 4169      63657074 
 4169      696F6E20 
 4170              		.text
 4172              	_ZL7compareiPKhS0_:
 4173              	.LFB1110:
 642:testSvf2Csvf.cpp **** 
 643:testSvf2Csvf.cpp **** static void compare(int j, CmdPtr pExpected, CmdPtr pActual) {
 4174              		.loc 3 643 0
 4175              		.cfi_startproc
 4176              		.cfi_personality 0x9b,DW.ref.__gxx_personality_v0
 4177              		.cfi_lsda 0x1b,.LLSDA1110
 4178 2863 55       		pushq	%rbp
 4179              		.cfi_def_cfa_offset 16
 4180              		.cfi_offset 6, -16
 4181 2864 4889E5   		movq	%rsp, %rbp
 4182              		.cfi_def_cfa_register 6
 4183 2867 53       		pushq	%rbx
 4184 2868 4883EC78 		subq	$120, %rsp
 4185              		.cfi_offset 3, -24
 4186 286c 897D9C   		movl	%edi, -100(%rbp)
 4187 286f 48897590 		movq	%rsi, -112(%rbp)
 4188 2873 48895588 		movq	%rdx, -120(%rbp)
 4189              		.loc 3 643 0
 4190 2877 64488B04 		movq	%fs:40, %rax
 4190      25280000 
 4190      00
 4191 2880 488945E8 		movq	%rax, -24(%rbp)
 4192 2884 31C0     		xorl	%eax, %eax
 644:testSvf2Csvf.cpp **** 	const char *const sExpected = getCmdName(pExpected);
 4193              		.loc 3 644 0
 4194 2886 488B4590 		movq	-112(%rbp), %rax
 4195 288a 4889C7   		movq	%rax, %rdi
 4196              	.LEHB124:
 4197 288d E8000000 		call	getCmdName@PLT
 4197      00
 4198 2892 488945B0 		movq	%rax, -80(%rbp)
 645:testSvf2Csvf.cpp **** 	const char *const sActual = getCmdName(pActual);
 4199              		.loc 3 645 0
 4200 2896 488B4588 		movq	-120(%rbp), %rax
 4201 289a 4889C7   		movq	%rax, %rdi
 4202 289d E8000000 		call	getCmdName@PLT
 4202      00
 4203 28a2 488945B8 		movq	%rax, -72(%rbp)
 646:testSvf2Csvf.cpp **** 	uint32 expected = pExpected[0];
 4204              		.loc 3 646 0
 4205 28a6 488B4590 		movq	-112(%rbp), %rax
 4206 28aa 0FB600   		movzbl	(%rax), %eax
 4207 28ad 0FB6C0   		movzbl	%al, %eax
 4208 28b0 8945A8   		movl	%eax, -88(%rbp)
 647:testSvf2Csvf.cpp **** 	uint32 actual = pActual[0];
 4209              		.loc 3 647 0
 4210 28b3 488B4588 		movq	-120(%rbp), %rax
 4211 28b7 0FB600   		movzbl	(%rax), %eax
 4212 28ba 0FB6C0   		movzbl	%al, %eax
 4213 28bd 8945AC   		movl	%eax, -84(%rbp)
 648:testSvf2Csvf.cpp **** 	printf("  [%d] %s:%s\n", j, sExpected, sActual);
 4214              		.loc 3 648 0
 4215 28c0 488B4DB8 		movq	-72(%rbp), %rcx
 4216 28c4 488B55B0 		movq	-80(%rbp), %rdx
 4217 28c8 8B459C   		movl	-100(%rbp), %eax
 4218 28cb 89C6     		movl	%eax, %esi
 4219 28cd 488D3D00 		leaq	.LC125(%rip), %rdi
 4219      000000
 4220 28d4 B8000000 		movl	$0, %eax
 4220      00
 4221 28d9 E8000000 		call	printf@PLT
 4221      00
 4222              	.LEHE124:
 4223              	.LEHB125:
 649:testSvf2Csvf.cpp **** 	CHECK_EQUAL(sExpected, sActual);
 4224              		.loc 3 649 0
 4225 28de E8000000 		call	_ZN8UnitTest11CurrentTest7DetailsEv@PLT
 4225      00
 4226 28e3 488B08   		movq	(%rax), %rcx
 4227 28e6 488D45C0 		leaq	-64(%rbp), %rax
 4228 28ea BA890200 		movl	$649, %edx
 4228      00
 4229 28ef 4889CE   		movq	%rcx, %rsi
 4230 28f2 4889C7   		movq	%rax, %rdi
 4231 28f5 E8000000 		call	_ZN8UnitTest11TestDetailsC1ERKS0_i@PLT
 4231      00
 4232              		.loc 3 649 0 is_stmt 0 discriminator 2
 4233 28fa E8000000 		call	_ZN8UnitTest11CurrentTest7ResultsEv@PLT
 4233      00
 4234 28ff 488B00   		movq	(%rax), %rax
 4235 2902 488D4DC0 		leaq	-64(%rbp), %rcx
 4236 2906 488B55B8 		movq	-72(%rbp), %rdx
 4237 290a 488B75B0 		movq	-80(%rbp), %rsi
 4238 290e 4889C7   		movq	%rax, %rdi
 4239 2911 E8000000 		call	_ZN8UnitTest10CheckEqualERNS_11TestResultsEPKcS3_RKNS_11TestDetailsE@PLT
 4239      00
 4240              	.LEHE125:
 4241              	.L177:
 650:testSvf2Csvf.cpp **** 	if ( expected == XRUNTEST && actual == XRUNTEST ) {
 4242              		.loc 3 650 0 is_stmt 1
 4243 2916 8B45A8   		movl	-88(%rbp), %eax
 4244 2919 83F804   		cmpl	$4, %eax
 4245 291c 0F852A01 		jne	.L187
 4245      0000
 4246              		.loc 3 650 0 is_stmt 0 discriminator 1
 4247 2922 8B45AC   		movl	-84(%rbp), %eax
 4248 2925 83F804   		cmpl	$4, %eax
 4249 2928 0F851E01 		jne	.L187
 4249      0000
 651:testSvf2Csvf.cpp **** 		expected = readLongBE(pExpected + 1);
 4250              		.loc 3 651 0 is_stmt 1
 4251 292e 488B4590 		movq	-112(%rbp), %rax
 4252 2932 4883C001 		addq	$1, %rax
 4253 2936 4889C7   		movq	%rax, %rdi
 4254              	.LEHB126:
 4255 2939 E8000000 		call	readLongBE@PLT
 4255      00
 4256 293e 8945A8   		movl	%eax, -88(%rbp)
 652:testSvf2Csvf.cpp **** 		actual = readLongBE(pActual + 1);
 4257              		.loc 3 652 0
 4258 2941 488B4588 		movq	-120(%rbp), %rax
 4259 2945 4883C001 		addq	$1, %rax
 4260 2949 4889C7   		movq	%rax, %rdi
 4261 294c E8000000 		call	readLongBE@PLT
 4261      00
 4262              	.LEHE126:
 4263 2951 8945AC   		movl	%eax, -84(%rbp)
 4264              	.LEHB127:
 653:testSvf2Csvf.cpp **** 		CHECK_EQUAL(expected, actual);
 4265              		.loc 3 653 0
 4266 2954 E8000000 		call	_ZN8UnitTest11CurrentTest7DetailsEv@PLT
 4266      00
 4267 2959 488B08   		movq	(%rax), %rcx
 4268 295c 488D45C0 		leaq	-64(%rbp), %rax
 4269 2960 BA8D0200 		movl	$653, %edx
 4269      00
 4270 2965 4889CE   		movq	%rcx, %rsi
 4271 2968 4889C7   		movq	%rax, %rdi
 4272 296b E8000000 		call	_ZN8UnitTest11TestDetailsC1ERKS0_i@PLT
 4272      00
 4273              		.loc 3 653 0 is_stmt 0 discriminator 2
 4274 2970 E8000000 		call	_ZN8UnitTest11CurrentTest7ResultsEv@PLT
 4274      00
 4275 2975 488B00   		movq	(%rax), %rax
 4276 2978 488D4DC0 		leaq	-64(%rbp), %rcx
 4277 297c 488D55AC 		leaq	-84(%rbp), %rdx
 4278 2980 488D75A8 		leaq	-88(%rbp), %rsi
 4279 2984 4889C7   		movq	%rax, %rdi
 4280 2987 E8000000 		call	_ZN8UnitTest10CheckEqualIjjEEvRNS_11TestResultsERKT_RKT0_RKNS_11TestDetailsE
 4280      00
 4281              	.LEHE127:
 654:testSvf2Csvf.cpp **** 	}
 655:testSvf2Csvf.cpp **** }
 4282              		.loc 3 655 0 is_stmt 1
 4283 298c E9BB0000 		jmp	.L187
 4283      00
 4284              	.L183:
 649:testSvf2Csvf.cpp **** 	if ( expected == XRUNTEST && actual == XRUNTEST ) {
 4285              		.loc 3 649 0
 4286 2991 4889C7   		movq	%rax, %rdi
 4287 2994 E8000000 		call	__cxa_begin_catch@PLT
 4287      00
 4288              	.LEHB128:
 4289 2999 E8000000 		call	_ZN8UnitTest11CurrentTest7ResultsEv@PLT
 4289      00
 4290 299e 488B18   		movq	(%rax), %rbx
 4291 29a1 E8000000 		call	_ZN8UnitTest11CurrentTest7DetailsEv@PLT
 4291      00
 649:testSvf2Csvf.cpp **** 	if ( expected == XRUNTEST && actual == XRUNTEST ) {
 4292              		.loc 3 649 0 is_stmt 0 discriminator 8
 4293 29a6 488B08   		movq	(%rax), %rcx
 4294 29a9 488D45C0 		leaq	-64(%rbp), %rax
 4295 29ad BA890200 		movl	$649, %edx
 4295      00
 4296 29b2 4889CE   		movq	%rcx, %rsi
 4297 29b5 4889C7   		movq	%rax, %rdi
 4298 29b8 E8000000 		call	_ZN8UnitTest11TestDetailsC1ERKS0_i@PLT
 4298      00
 649:testSvf2Csvf.cpp **** 	if ( expected == XRUNTEST && actual == XRUNTEST ) {
 4299              		.loc 3 649 0 discriminator 12
 4300 29bd 488D45C0 		leaq	-64(%rbp), %rax
 4301 29c1 488D1500 		leaq	.LC126(%rip), %rdx
 4301      000000
 4302 29c8 4889C6   		movq	%rax, %rsi
 4303 29cb 4889DF   		movq	%rbx, %rdi
 4304 29ce E8000000 		call	_ZN8UnitTest11TestResults13OnTestFailureERKNS_11TestDetailsEPKc@PLT
 4304      00
 4305              	.LEHE128:
 4306              	.LEHB129:
 649:testSvf2Csvf.cpp **** 	if ( expected == XRUNTEST && actual == XRUNTEST ) {
 4307              		.loc 3 649 0 discriminator 14
 4308 29d3 E8000000 		call	__cxa_end_catch@PLT
 4308      00
 4309              	.LEHE129:
 4310 29d8 E939FFFF 		jmp	.L177
 4310      FF
 4311              	.L184:
 4312 29dd 4889C3   		movq	%rax, %rbx
 649:testSvf2Csvf.cpp **** 	if ( expected == XRUNTEST && actual == XRUNTEST ) {
 4313              		.loc 3 649 0
 4314 29e0 E8000000 		call	__cxa_end_catch@PLT
 4314      00
 4315 29e5 4889D8   		movq	%rbx, %rax
 4316 29e8 4889C7   		movq	%rax, %rdi
 4317              	.LEHB130:
 4318 29eb E8000000 		call	_Unwind_Resume@PLT
 4318      00
 4319              	.LEHE130:
 4320              	.L185:
 653:testSvf2Csvf.cpp **** 		CHECK_EQUAL(expected, actual);
 4321              		.loc 3 653 0 is_stmt 1
 4322 29f0 4889C7   		movq	%rax, %rdi
 4323 29f3 E8000000 		call	__cxa_begin_catch@PLT
 4323      00
 4324              	.LEHB131:
 4325 29f8 E8000000 		call	_ZN8UnitTest11CurrentTest7ResultsEv@PLT
 4325      00
 4326 29fd 488B18   		movq	(%rax), %rbx
 4327 2a00 E8000000 		call	_ZN8UnitTest11CurrentTest7DetailsEv@PLT
 4327      00
 653:testSvf2Csvf.cpp **** 		CHECK_EQUAL(expected, actual);
 4328              		.loc 3 653 0 is_stmt 0 discriminator 8
 4329 2a05 488B08   		movq	(%rax), %rcx
 4330 2a08 488D45C0 		leaq	-64(%rbp), %rax
 4331 2a0c BA8D0200 		movl	$653, %edx
 4331      00
 4332 2a11 4889CE   		movq	%rcx, %rsi
 4333 2a14 4889C7   		movq	%rax, %rdi
 4334 2a17 E8000000 		call	_ZN8UnitTest11TestDetailsC1ERKS0_i@PLT
 4334      00
 653:testSvf2Csvf.cpp **** 		CHECK_EQUAL(expected, actual);
 4335              		.loc 3 653 0 discriminator 12
 4336 2a1c 488D45C0 		leaq	-64(%rbp), %rax
 4337 2a20 488D1500 		leaq	.LC127(%rip), %rdx
 4337      000000
 4338 2a27 4889C6   		movq	%rax, %rsi
 4339 2a2a 4889DF   		movq	%rbx, %rdi
 4340 2a2d E8000000 		call	_ZN8UnitTest11TestResults13OnTestFailureERKNS_11TestDetailsEPKc@PLT
 4340      00
 4341              	.LEHE131:
 4342              	.LEHB132:
 653:testSvf2Csvf.cpp **** 		CHECK_EQUAL(expected, actual);
 4343              		.loc 3 653 0 discriminator 14
 4344 2a32 E8000000 		call	__cxa_end_catch@PLT
 4344      00
 4345              	.LEHE132:
 4346              		.loc 3 655 0 is_stmt 1 discriminator 14
 4347 2a37 EB13     		jmp	.L187
 4348              	.L186:
 4349 2a39 4889C3   		movq	%rax, %rbx
 653:testSvf2Csvf.cpp **** 		CHECK_EQUAL(expected, actual);
 4350              		.loc 3 653 0
 4351 2a3c E8000000 		call	__cxa_end_catch@PLT
 4351      00
 4352 2a41 4889D8   		movq	%rbx, %rax
 4353 2a44 4889C7   		movq	%rax, %rdi
 4354              	.LEHB133:
 4355 2a47 E8000000 		call	_Unwind_Resume@PLT
 4355      00
 4356              	.LEHE133:
 4357              	.L187:
 4358              		.loc 3 655 0
 4359 2a4c 90       		nop
 4360 2a4d 488B45E8 		movq	-24(%rbp), %rax
 4361 2a51 64483304 		xorq	%fs:40, %rax
 4361      25280000 
 4361      00
 4362 2a5a 7405     		je	.L182
 4363 2a5c E8000000 		call	__stack_chk_fail@PLT
 4363      00
 4364              	.L182:
 4365 2a61 4883C478 		addq	$120, %rsp
 4366 2a65 5B       		popq	%rbx
 4367 2a66 5D       		popq	%rbp
 4368              		.cfi_def_cfa 7, 8
 4369 2a67 C3       		ret
 4370              		.cfi_endproc
 4371              	.LFE1110:
 4372              		.section	.gcc_except_table
 4373              		.align 4
 4374              	.LLSDA1110:
 4375 02cc FF       		.byte	0xff
 4376 02cd 9B       		.byte	0x9b
 4377 02ce 3D       		.uleb128 .LLSDATT1110-.LLSDATTD1110
 4378              	.LLSDATTD1110:
 4379 02cf 01       		.byte	0x1
 4380 02d0 34       		.uleb128 .LLSDACSE1110-.LLSDACSB1110
 4381              	.LLSDACSB1110:
 4382 02d1 2A       		.uleb128 .LEHB124-.LFB1110
 4383 02d2 51       		.uleb128 .LEHE124-.LEHB124
 4384 02d3 00       		.uleb128 0
 4385 02d4 00       		.uleb128 0
 4386 02d5 7B       		.uleb128 .LEHB125-.LFB1110
 4387 02d6 38       		.uleb128 .LEHE125-.LEHB125
 4388 02d7 AE02     		.uleb128 .L183-.LFB1110
 4389 02d9 01       		.uleb128 0x1
 4390 02da D601     		.uleb128 .LEHB126-.LFB1110
 4391 02dc 18       		.uleb128 .LEHE126-.LEHB126
 4392 02dd 00       		.uleb128 0
 4393 02de 00       		.uleb128 0
 4394 02df F101     		.uleb128 .LEHB127-.LFB1110
 4395 02e1 38       		.uleb128 .LEHE127-.LEHB127
 4396 02e2 8D03     		.uleb128 .L185-.LFB1110
 4397 02e4 01       		.uleb128 0x1
 4398 02e5 B602     		.uleb128 .LEHB128-.LFB1110
 4399 02e7 3A       		.uleb128 .LEHE128-.LEHB128
 4400 02e8 FA02     		.uleb128 .L184-.LFB1110
 4401 02ea 00       		.uleb128 0
 4402 02eb F002     		.uleb128 .LEHB129-.LFB1110
 4403 02ed 05       		.uleb128 .LEHE129-.LEHB129
 4404 02ee 00       		.uleb128 0
 4405 02ef 00       		.uleb128 0
 4406 02f0 8803     		.uleb128 .LEHB130-.LFB1110
 4407 02f2 05       		.uleb128 .LEHE130-.LEHB130
 4408 02f3 00       		.uleb128 0
 4409 02f4 00       		.uleb128 0
 4410 02f5 9503     		.uleb128 .LEHB131-.LFB1110
 4411 02f7 3A       		.uleb128 .LEHE131-.LEHB131
 4412 02f8 D603     		.uleb128 .L186-.LFB1110
 4413 02fa 00       		.uleb128 0
 4414 02fb CF03     		.uleb128 .LEHB132-.LFB1110
 4415 02fd 05       		.uleb128 .LEHE132-.LEHB132
 4416 02fe 00       		.uleb128 0
 4417 02ff 00       		.uleb128 0
 4418 0300 E403     		.uleb128 .LEHB133-.LFB1110
 4419 0302 05       		.uleb128 .LEHE133-.LEHB133
 4420 0303 00       		.uleb128 0
 4421 0304 00       		.uleb128 0
 4422              	.LLSDACSE1110:
 4423 0305 01       		.byte	0x1
 4424 0306 00       		.byte	0
 4425 0307 00       		.align 4
 4426 0308 00000000 		.long	0
 4427              	
 4428              	.LLSDATT1110:
 4429              		.text
 4431              		.section	.rodata
 4432              	.LC128:
 4433 0a55 46504741 		.string	"FPGALink_testProcessIndex"
 4433      4C696E6B 
 4433      5F746573 
 4433      7450726F 
 4433      63657373 
 4434              		.section	.text._ZN29TestFPGALink_testProcessIndexC2Ev,"axG",@progbits,_ZN29TestFPGALink_testProces
 4435              		.align 2
 4436              		.weak	_ZN29TestFPGALink_testProcessIndexC2Ev
 4438              	_ZN29TestFPGALink_testProcessIndexC2Ev:
 4439              	.LFB1112:
 656:testSvf2Csvf.cpp **** 
 657:testSvf2Csvf.cpp **** TEST(FPGALink_testProcessIndex) {
 4440              		.loc 3 657 0
 4441              		.cfi_startproc
 4442 0000 55       		pushq	%rbp
 4443              		.cfi_def_cfa_offset 16
 4444              		.cfi_offset 6, -16
 4445 0001 4889E5   		movq	%rsp, %rbp
 4446              		.cfi_def_cfa_register 6
 4447 0004 53       		pushq	%rbx
 4448 0005 4883EC18 		subq	$24, %rsp
 4449              		.cfi_offset 3, -24
 4450 0009 48897DE8 		movq	%rdi, -24(%rbp)
 4451              	.LBB9:
 4452              		.loc 3 657 0
 4453 000d 488B5DE8 		movq	-24(%rbp), %rbx
 4454 0011 E8000000 		call	_ZN13UnitTestSuite12GetSuiteNameEv
 4454      00
 4455 0016 41B89102 		movl	$657, %r8d
 4455      0000
 4456 001c 488D0D00 		leaq	.LC5(%rip), %rcx
 4456      000000
 4457 0023 4889C2   		movq	%rax, %rdx
 4458 0026 488D3500 		leaq	.LC128(%rip), %rsi
 4458      000000
 4459 002d 4889DF   		movq	%rbx, %rdi
 4460 0030 E8000000 		call	_ZN8UnitTest4TestC2EPKcS2_S2_i@PLT
 4460      00
 4461 0035 488D1500 		leaq	16+_ZTV29TestFPGALink_testProcessIndex(%rip), %rdx
 4461      000000
 4462 003c 488B45E8 		movq	-24(%rbp), %rax
 4463 0040 488910   		movq	%rdx, (%rax)
 4464              	.LBE9:
 4465 0043 90       		nop
 4466 0044 4883C418 		addq	$24, %rsp
 4467 0048 5B       		popq	%rbx
 4468 0049 5D       		popq	%rbp
 4469              		.cfi_def_cfa 7, 8
 4470 004a C3       		ret
 4471              		.cfi_endproc
 4472              	.LFE1112:
 4474              		.weak	_ZN29TestFPGALink_testProcessIndexC1Ev
 4475              		.set	_ZN29TestFPGALink_testProcessIndexC1Ev,_ZN29TestFPGALink_testProcessIndexC2Ev
 4476              		.globl	testFPGALink_testProcessIndexInstance
 4477              		.bss
 4478 00b9 00000000 		.align 32
 4478      000000
