   1              		.file	"TestRunner.cpp"
   2              		.text
   3              	.Ltext0:
   4              		.section	.text._ZNK8UnitTest4TrueclEPKNS_4TestE,"axG",@progbits,_ZNK8UnitTest4TrueclEPKNS_4TestE,c
   5              		.align 2
   6              		.weak	_ZNK8UnitTest4TrueclEPKNS_4TestE
   8              	_ZNK8UnitTest4TrueclEPKNS_4TestE:
   9              	.LFB0:
  10              		.file 1 "TestRunner.h"
   1:TestRunner.h  **** #ifndef UNITTEST_TESTRUNNER_H
   2:TestRunner.h  **** #define UNITTEST_TESTRUNNER_H
   3:TestRunner.h  **** 
   4:TestRunner.h  **** #include "Test.h"
   5:TestRunner.h  **** #include "TestList.h"
   6:TestRunner.h  **** #include "CurrentTest.h"
   7:TestRunner.h  **** 
   8:TestRunner.h  **** namespace UnitTest {
   9:TestRunner.h  **** 
  10:TestRunner.h  **** class TestReporter;
  11:TestRunner.h  **** class TestResults;
  12:TestRunner.h  **** class Timer;
  13:TestRunner.h  **** 
  14:TestRunner.h  **** int RunAllTests();
  15:TestRunner.h  **** 
  16:TestRunner.h  **** struct True
  17:TestRunner.h  **** {
  18:TestRunner.h  **** 	bool operator()(const Test* const) const
  11              		.loc 1 18 0
  12              		.cfi_startproc
  13 0000 55       		pushq	%rbp
  14              		.cfi_def_cfa_offset 16
  15              		.cfi_offset 6, -16
  16 0001 4889E5   		movq	%rsp, %rbp
  17              		.cfi_def_cfa_register 6
  18 0004 48897DF8 		movq	%rdi, -8(%rbp)
  19 0008 488975F0 		movq	%rsi, -16(%rbp)
  19:TestRunner.h  **** 	{
  20:TestRunner.h  **** 		return true;	
  20              		.loc 1 20 0
  21 000c B8010000 		movl	$1, %eax
  21      00
  21:TestRunner.h  **** 	}
  22              		.loc 1 21 0
  23 0011 5D       		popq	%rbp
  24              		.cfi_def_cfa 7, 8
  25 0012 C3       		ret
  26              		.cfi_endproc
  27              	.LFE0:
  29              		.section	.text._ZN8UnitTest15MemoryOutStreamC1Ev,"axG",@progbits,_ZN8UnitTest15MemoryOutStreamC1Ev
  30              		.align 2
  31              		.weak	_ZN8UnitTest15MemoryOutStreamC1Ev
  33              	_ZN8UnitTest15MemoryOutStreamC1Ev:
  34              	.LFB1077:
  35              		.file 2 "MemoryOutStream.h"
   1:MemoryOutStream.h **** #ifndef UNITTEST_MEMORYOUTSTREAM_H
   2:MemoryOutStream.h **** #define UNITTEST_MEMORYOUTSTREAM_H
   3:MemoryOutStream.h **** 
   4:MemoryOutStream.h **** #include "Config.h"
   5:MemoryOutStream.h **** 
   6:MemoryOutStream.h **** #ifndef UNITTEST_USE_CUSTOM_STREAMS
   7:MemoryOutStream.h **** 
   8:MemoryOutStream.h **** #include <sstream>
   9:MemoryOutStream.h **** 
  10:MemoryOutStream.h **** namespace UnitTest
  11:MemoryOutStream.h **** {
  12:MemoryOutStream.h **** 
  13:MemoryOutStream.h **** class MemoryOutStream : public std::ostringstream
  14:MemoryOutStream.h **** {
  15:MemoryOutStream.h **** public:
  16:MemoryOutStream.h ****     MemoryOutStream() {}
  36              		.loc 2 16 0
  37              		.cfi_startproc
  38              		.cfi_personality 0x9b,DW.ref.__gxx_personality_v0
  39              		.cfi_lsda 0x1b,.LLSDA1077
  40 0000 55       		pushq	%rbp
  41              		.cfi_def_cfa_offset 16
  42              		.cfi_offset 6, -16
  43 0001 4889E5   		movq	%rsp, %rbp
  44              		.cfi_def_cfa_register 6
  45 0004 53       		pushq	%rbx
  46 0005 4883EC18 		subq	$24, %rsp
  47              		.cfi_offset 3, -24
  48 0009 48897DE8 		movq	%rdi, -24(%rbp)
  49              	.LBB2:
  50              		.loc 2 16 0
  51 000d 488B45E8 		movq	-24(%rbp), %rax
  52 0011 48059000 		addq	$144, %rax
  52      0000
  53 0017 4889C7   		movq	%rax, %rdi
  54              	.LEHB0:
  55 001a E8000000 		call	_ZNSt9basic_iosIcSt11char_traitsIcEEC2Ev@PLT
  55      00
  56              	.LEHE0:
  57 001f 488B45E8 		movq	-24(%rbp), %rax
  58 0023 488B1500 		movq	_ZTTN8UnitTest15MemoryOutStreamE@GOTPCREL(%rip), %rdx
  58      000000
  59 002a 488D4A08 		leaq	8(%rdx), %rcx
  60 002e BA100000 		movl	$16, %edx
  60      00
  61 0033 4889CE   		movq	%rcx, %rsi
  62 0036 4889C7   		movq	%rax, %rdi
  63              	.LEHB1:
  64 0039 E8000000 		call	_ZNSt7__cxx1119basic_ostringstreamIcSt11char_traitsIcESaIcEEC2ESt13_Ios_Openmode@PLT
  64      00
  65              	.LEHE1:
  66              		.loc 2 16 0 is_stmt 0 discriminator 8
  67 003e 488B0500 		movq	_ZTVN8UnitTest15MemoryOutStreamE@GOTPCREL(%rip), %rax
  67      000000
  68 0045 488D5018 		leaq	24(%rax), %rdx
  69 0049 488B45E8 		movq	-24(%rbp), %rax
  70 004d 488910   		movq	%rdx, (%rax)
  71 0050 488B45E8 		movq	-24(%rbp), %rax
  72 0054 488D9090 		leaq	144(%rax), %rdx
  72      000000
  73 005b 488B0500 		movq	_ZTVN8UnitTest15MemoryOutStreamE@GOTPCREL(%rip), %rax
  73      000000
  74 0062 488D4040 		leaq	64(%rax), %rax
  75 0066 488902   		movq	%rax, (%rdx)
  76 0069 488B45E8 		movq	-24(%rbp), %rax
  77 006d 4883C070 		addq	$112, %rax
  78 0071 4889C7   		movq	%rax, %rdi
  79              	.LEHB2:
  80 0074 E8000000 		call	_ZNSt7__cxx1112basic_stringIcSt11char_traitsIcESaIcEEC1Ev@PLT
  80      00
  81              	.LEHE2:
  82              	.LBE2:
  83              		.loc 2 16 0
  84 0079 EB3F     		jmp	.L9
  85              	.L7:
  86 007b 4889C3   		movq	%rax, %rbx
  87              	.LBB3:
  88 007e 488B45E8 		movq	-24(%rbp), %rax
  89 0082 488B1500 		movq	_ZTTN8UnitTest15MemoryOutStreamE@GOTPCREL(%rip), %rdx
  89      000000
  90 0089 488D5208 		leaq	8(%rdx), %rdx
  91 008d 4889D6   		movq	%rdx, %rsi
  92 0090 4889C7   		movq	%rax, %rdi
  93 0093 E8000000 		call	_ZNSt7__cxx1119basic_ostringstreamIcSt11char_traitsIcESaIcEED2Ev@PLT
  93      00
  94 0098 EB03     		jmp	.L8
  95              	.L6:
  96 009a 4889C3   		movq	%rax, %rbx
  97              	.L8:
  98              		.loc 2 16 0 discriminator 11
  99 009d 488B45E8 		movq	-24(%rbp), %rax
 100 00a1 48059000 		addq	$144, %rax
 100      0000
 101 00a7 4889C7   		movq	%rax, %rdi
 102 00aa E8000000 		call	_ZNSt9basic_iosIcSt11char_traitsIcEED2Ev@PLT
 102      00
 103 00af 4889D8   		movq	%rbx, %rax
 104 00b2 4889C7   		movq	%rax, %rdi
 105              	.LEHB3:
 106 00b5 E8000000 		call	_Unwind_Resume@PLT
 106      00
 107              	.LEHE3:
 108              	.L9:
 109              	.LBE3:
 110              		.loc 2 16 0
 111 00ba 4883C418 		addq	$24, %rsp
 112 00be 5B       		popq	%rbx
 113 00bf 5D       		popq	%rbp
 114              		.cfi_def_cfa 7, 8
 115 00c0 C3       		ret
 116              		.cfi_endproc
 117              	.LFE1077:
 118              		.globl	__gxx_personality_v0
 119              		.section	.gcc_except_table._ZN8UnitTest15MemoryOutStreamC1Ev,"aG",@progbits,_ZN8UnitTest15MemoryOu
 120              	.LLSDA1077:
 121 0000 FF       		.byte	0xff
 122 0001 FF       		.byte	0xff
 123 0002 01       		.byte	0x1
 124 0003 12       		.uleb128 .LLSDACSE1077-.LLSDACSB1077
 125              	.LLSDACSB1077:
 126 0004 1A       		.uleb128 .LEHB0-.LFB1077
 127 0005 05       		.uleb128 .LEHE0-.LEHB0
 128 0006 00       		.uleb128 0
 129 0007 00       		.uleb128 0
 130 0008 39       		.uleb128 .LEHB1-.LFB1077
 131 0009 05       		.uleb128 .LEHE1-.LEHB1
 132 000a 9A01     		.uleb128 .L6-.LFB1077
 133 000c 00       		.uleb128 0
 134 000d 74       		.uleb128 .LEHB2-.LFB1077
 135 000e 05       		.uleb128 .LEHE2-.LEHB2
 136 000f 7B       		.uleb128 .L7-.LFB1077
 137 0010 00       		.uleb128 0
 138 0011 B501     		.uleb128 .LEHB3-.LFB1077
 139 0013 05       		.uleb128 .LEHE3-.LEHB3
 140 0014 00       		.uleb128 0
 141 0015 00       		.uleb128 0
 142              	.LLSDACSE1077:
 143              		.section	.text._ZN8UnitTest15MemoryOutStreamC1Ev,"axG",@progbits,_ZN8UnitTest15MemoryOutStreamC1Ev
 145              		.section	.text._ZN8UnitTest12TestReporterC2Ev,"axG",@progbits,_ZN8UnitTest12TestReporterC5Ev,comda
 146              		.align 2
 147              		.weak	_ZN8UnitTest12TestReporterC2Ev
 149              	_ZN8UnitTest12TestReporterC2Ev:
 150              	.LFB1081:
 151              		.file 3 "TestReporter.h"
   1:TestReporter.h **** #ifndef UNITTEST_TESTREPORTER_H
   2:TestReporter.h **** #define UNITTEST_TESTREPORTER_H
   3:TestReporter.h **** 
   4:TestReporter.h **** namespace UnitTest {
   5:TestReporter.h **** 
   6:TestReporter.h **** class TestDetails;
   7:TestReporter.h **** 
   8:TestReporter.h **** class TestReporter
 152              		.loc 3 8 0 is_stmt 1
 153              		.cfi_startproc
 154 0000 55       		pushq	%rbp
 155              		.cfi_def_cfa_offset 16
 156              		.cfi_offset 6, -16
 157 0001 4889E5   		movq	%rsp, %rbp
 158              		.cfi_def_cfa_register 6
 159 0004 48897DF8 		movq	%rdi, -8(%rbp)
 160              	.LBB4:
 161              		.loc 3 8 0
 162 0008 488B0500 		movq	_ZTVN8UnitTest12TestReporterE@GOTPCREL(%rip), %rax
 162      000000
 163 000f 488D5010 		leaq	16(%rax), %rdx
 164 0013 488B45F8 		movq	-8(%rbp), %rax
 165 0017 488910   		movq	%rdx, (%rax)
 166              	.LBE4:
 167 001a 90       		nop
 168 001b 5D       		popq	%rbp
 169              		.cfi_def_cfa 7, 8
 170 001c C3       		ret
 171              		.cfi_endproc
 172              	.LFE1081:
 174              		.weak	_ZN8UnitTest12TestReporterC1Ev
 175              		.set	_ZN8UnitTest12TestReporterC1Ev,_ZN8UnitTest12TestReporterC2Ev
 176              		.section	.text._ZN8UnitTest18TestReporterStdoutC2Ev,"axG",@progbits,_ZN8UnitTest18TestReporterStdo
 177              		.align 2
 178              		.weak	_ZN8UnitTest18TestReporterStdoutC2Ev
 180              	_ZN8UnitTest18TestReporterStdoutC2Ev:
 181              	.LFB1083:
 182              		.file 4 "TestReporterStdout.h"
   1:TestReporterStdout.h **** #ifndef UNITTEST_TESTREPORTERSTDOUT_H
   2:TestReporterStdout.h **** #define UNITTEST_TESTREPORTERSTDOUT_H
   3:TestReporterStdout.h **** 
   4:TestReporterStdout.h **** #include "TestReporter.h"
   5:TestReporterStdout.h **** 
   6:TestReporterStdout.h **** namespace UnitTest {
   7:TestReporterStdout.h **** 
   8:TestReporterStdout.h **** class TestReporterStdout : public TestReporter
 183              		.loc 4 8 0
 184              		.cfi_startproc
 185 0000 55       		pushq	%rbp
 186              		.cfi_def_cfa_offset 16
 187              		.cfi_offset 6, -16
 188 0001 4889E5   		movq	%rsp, %rbp
 189              		.cfi_def_cfa_register 6
 190 0004 4883EC10 		subq	$16, %rsp
 191 0008 48897DF8 		movq	%rdi, -8(%rbp)
 192              	.LBB5:
 193              		.loc 4 8 0
 194 000c 488B45F8 		movq	-8(%rbp), %rax
 195 0010 4889C7   		movq	%rax, %rdi
 196 0013 E8000000 		call	_ZN8UnitTest12TestReporterC2Ev@PLT
 196      00
 197 0018 488B0500 		movq	_ZTVN8UnitTest18TestReporterStdoutE@GOTPCREL(%rip), %rax
 197      000000
 198 001f 488D5010 		leaq	16(%rax), %rdx
 199 0023 488B45F8 		movq	-8(%rbp), %rax
 200 0027 488910   		movq	%rdx, (%rax)
 201              	.LBE5:
 202 002a 90       		nop
 203 002b C9       		leave
 204              		.cfi_def_cfa 7, 8
 205 002c C3       		ret
 206              		.cfi_endproc
 207              	.LFE1083:
 209              		.weak	_ZN8UnitTest18TestReporterStdoutC1Ev
 210              		.set	_ZN8UnitTest18TestReporterStdoutC1Ev,_ZN8UnitTest18TestReporterStdoutC2Ev
 211              		.text
 212              		.globl	_ZN8UnitTest11RunAllTestsEv
 214              	_ZN8UnitTest11RunAllTestsEv:
 215              	.LFB1078:
 216              		.file 5 "TestRunner.cpp"
   1:TestRunner.cpp **** #include "TestRunner.h"
   2:TestRunner.cpp **** #include "TestResults.h"
   3:TestRunner.cpp **** #include "TestReporter.h"
   4:TestRunner.cpp **** #include "TestReporterStdout.h"
   5:TestRunner.cpp **** #include "TimeHelpers.h"
   6:TestRunner.cpp **** #include "MemoryOutStream.h"
   7:TestRunner.cpp **** 
   8:TestRunner.cpp **** #include <cstring>
   9:TestRunner.cpp **** 
  10:TestRunner.cpp **** 
  11:TestRunner.cpp **** namespace UnitTest {
  12:TestRunner.cpp **** 
  13:TestRunner.cpp **** int RunAllTests()
  14:TestRunner.cpp **** {
 217              		.loc 5 14 0
 218              		.cfi_startproc
 219              		.cfi_personality 0x9b,DW.ref.__gxx_personality_v0
 220              		.cfi_lsda 0x1b,.LLSDA1078
 221 0000 55       		pushq	%rbp
 222              		.cfi_def_cfa_offset 16
 223              		.cfi_offset 6, -16
 224 0001 4889E5   		movq	%rsp, %rbp
 225              		.cfi_def_cfa_register 6
 226 0004 53       		pushq	%rbx
 227 0005 4883EC38 		subq	$56, %rsp
 228              		.cfi_offset 3, -24
 229              		.loc 5 14 0
 230 0009 64488B04 		movq	%fs:40, %rax
 230      25280000 
 230      00
 231 0012 488945E8 		movq	%rax, -24(%rbp)
 232 0016 31C0     		xorl	%eax, %eax
  15:TestRunner.cpp **** 	TestReporterStdout reporter;
 233              		.loc 5 15 0
 234 0018 488D45C8 		leaq	-56(%rbp), %rax
 235 001c 4889C7   		movq	%rax, %rdi
 236 001f E8000000 		call	_ZN8UnitTest18TestReporterStdoutC1Ev@PLT
 236      00
  16:TestRunner.cpp **** 	TestRunner runner(reporter);
 237              		.loc 5 16 0
 238 0024 488D55C8 		leaq	-56(%rbp), %rdx
 239 0028 488D45D0 		leaq	-48(%rbp), %rax
 240 002c 4889D6   		movq	%rdx, %rsi
 241 002f 4889C7   		movq	%rax, %rdi
 242              	.LEHB4:
 243 0032 E8000000 		call	_ZN8UnitTest10TestRunnerC1ERNS_12TestReporterE@PLT
 243      00
 244              	.LEHE4:
 245              	.LEHB5:
  17:TestRunner.cpp **** 	return runner.RunTestsIf(Test::GetTestList(), NULL, True(), 0);
 246              		.loc 5 17 0
 247 0037 E8000000 		call	_ZN8UnitTest4Test11GetTestListEv@PLT
 247      00
 248 003c 4889C6   		movq	%rax, %rsi
 249 003f 488D55C7 		leaq	-57(%rbp), %rdx
 250 0043 488D45D0 		leaq	-48(%rbp), %rax
 251 0047 41B80000 		movl	$0, %r8d
 251      0000
 252 004d 4889D1   		movq	%rdx, %rcx
 253 0050 BA000000 		movl	$0, %edx
 253      00
 254 0055 4889C7   		movq	%rax, %rdi
 255 0058 E8000000 		call	_ZNK8UnitTest10TestRunner10RunTestsIfINS_4TrueEEEiRKNS_8TestListEPKcRKT_i@PLT
 255      00
 256              	.LEHE5:
 257              		.loc 5 17 0 is_stmt 0 discriminator 2
 258 005d 89C3     		movl	%eax, %ebx
  16:TestRunner.cpp **** 	TestRunner runner(reporter);
 259              		.loc 5 16 0 is_stmt 1 discriminator 2
 260 005f 488D45D0 		leaq	-48(%rbp), %rax
 261 0063 4889C7   		movq	%rax, %rdi
 262              	.LEHB6:
 263 0066 E8000000 		call	_ZN8UnitTest10TestRunnerD1Ev@PLT
 263      00
 264              	.LEHE6:
  15:TestRunner.cpp **** 	TestReporterStdout reporter;
 265              		.loc 5 15 0
 266 006b 488D45C8 		leaq	-56(%rbp), %rax
 267 006f 4889C7   		movq	%rax, %rdi
 268              	.LEHB7:
 269 0072 E8000000 		call	_ZN8UnitTest18TestReporterStdoutD1Ev@PLT
 269      00
 270              	.LEHE7:
 271              		.loc 5 17 0
 272 0077 89D8     		movl	%ebx, %eax
  18:TestRunner.cpp **** }
 273              		.loc 5 18 0
 274 0079 488B4DE8 		movq	-24(%rbp), %rcx
 275 007d 6448330C 		xorq	%fs:40, %rcx
 275      25280000 
 275      00
 276 0086 7432     		je	.L16
 277 0088 EB2B     		jmp	.L19
 278              	.L18:
 279 008a 4889C3   		movq	%rax, %rbx
  16:TestRunner.cpp **** 	TestRunner runner(reporter);
 280              		.loc 5 16 0
 281 008d 488D45D0 		leaq	-48(%rbp), %rax
 282 0091 4889C7   		movq	%rax, %rdi
 283 0094 E8000000 		call	_ZN8UnitTest10TestRunnerD1Ev@PLT
 283      00
 284 0099 EB03     		jmp	.L15
 285              	.L17:
 286 009b 4889C3   		movq	%rax, %rbx
 287              	.L15:
  15:TestRunner.cpp **** 	TestRunner runner(reporter);
 288              		.loc 5 15 0
 289 009e 488D45C8 		leaq	-56(%rbp), %rax
 290 00a2 4889C7   		movq	%rax, %rdi
 291 00a5 E8000000 		call	_ZN8UnitTest18TestReporterStdoutD1Ev@PLT
 291      00
 292 00aa 4889D8   		movq	%rbx, %rax
 293 00ad 4889C7   		movq	%rax, %rdi
 294              	.LEHB8:
 295 00b0 E8000000 		call	_Unwind_Resume@PLT
 295      00
 296              	.LEHE8:
 297              	.L19:
 298              		.loc 5 18 0
 299 00b5 E8000000 		call	__stack_chk_fail@PLT
 299      00
 300              	.L16:
 301 00ba 4883C438 		addq	$56, %rsp
 302 00be 5B       		popq	%rbx
 303 00bf 5D       		popq	%rbp
 304              		.cfi_def_cfa 7, 8
 305 00c0 C3       		ret
 306              		.cfi_endproc
 307              	.LFE1078:
 308              		.section	.gcc_except_table,"a",@progbits
 309              	.LLSDA1078:
 310 0000 FF       		.byte	0xff
 311 0001 FF       		.byte	0xff
 312 0002 01       		.byte	0x1
 313 0003 18       		.uleb128 .LLSDACSE1078-.LLSDACSB1078
 314              	.LLSDACSB1078:
 315 0004 32       		.uleb128 .LEHB4-.LFB1078
 316 0005 05       		.uleb128 .LEHE4-.LEHB4
 317 0006 9B01     		.uleb128 .L17-.LFB1078
 318 0008 00       		.uleb128 0
 319 0009 37       		.uleb128 .LEHB5-.LFB1078
 320 000a 26       		.uleb128 .LEHE5-.LEHB5
 321 000b 8A01     		.uleb128 .L18-.LFB1078
 322 000d 00       		.uleb128 0
 323 000e 66       		.uleb128 .LEHB6-.LFB1078
 324 000f 05       		.uleb128 .LEHE6-.LEHB6
 325 0010 9B01     		.uleb128 .L17-.LFB1078
 326 0012 00       		.uleb128 0
 327 0013 72       		.uleb128 .LEHB7-.LFB1078
 328 0014 05       		.uleb128 .LEHE7-.LEHB7
 329 0015 00       		.uleb128 0
 330 0016 00       		.uleb128 0
 331 0017 B001     		.uleb128 .LEHB8-.LFB1078
 332 0019 05       		.uleb128 .LEHE8-.LEHB8
 333 001a 00       		.uleb128 0
 334 001b 00       		.uleb128 0
 335              	.LLSDACSE1078:
 336              		.text
 338 00c1 90       		.align 2
 339              		.globl	_ZN8UnitTest10TestRunnerC2ERNS_12TestReporterE
 341              	_ZN8UnitTest10TestRunnerC2ERNS_12TestReporterE:
 342              	.LFB1086:
  19:TestRunner.cpp **** 
  20:TestRunner.cpp **** 
  21:TestRunner.cpp **** TestRunner::TestRunner(TestReporter& reporter)
 343              		.loc 5 21 0
 344              		.cfi_startproc
 345              		.cfi_personality 0x9b,DW.ref.__gxx_personality_v0
 346              		.cfi_lsda 0x1b,.LLSDA1086
 347 00c2 55       		pushq	%rbp
 348              		.cfi_def_cfa_offset 16
 349              		.cfi_offset 6, -16
 350 00c3 4889E5   		movq	%rsp, %rbp
 351              		.cfi_def_cfa_register 6
 352 00c6 4154     		pushq	%r12
 353 00c8 53       		pushq	%rbx
 354 00c9 4883EC10 		subq	$16, %rsp
 355              		.cfi_offset 12, -24
 356              		.cfi_offset 3, -32
 357 00cd 48897DE8 		movq	%rdi, -24(%rbp)
 358 00d1 488975E0 		movq	%rsi, -32(%rbp)
 359              	.LBB6:
  22:TestRunner.cpp **** 	: m_reporter(&reporter)
  23:TestRunner.cpp **** 	, m_result(new TestResults(&reporter))
  24:TestRunner.cpp **** 	, m_timer(new Timer)
 360              		.loc 5 24 0
 361 00d5 488B45E8 		movq	-24(%rbp), %rax
 362 00d9 488B55E0 		movq	-32(%rbp), %rdx
 363 00dd 488910   		movq	%rdx, (%rax)
  23:TestRunner.cpp **** 	, m_timer(new Timer)
 364              		.loc 5 23 0
 365 00e0 BF180000 		movl	$24, %edi
 365      00
 366              	.LEHB9:
 367 00e5 E8000000 		call	_Znwm@PLT
 367      00
 368              	.LEHE9:
 369 00ea 4889C3   		movq	%rax, %rbx
 370 00ed 488B45E0 		movq	-32(%rbp), %rax
 371 00f1 4889C6   		movq	%rax, %rsi
 372 00f4 4889DF   		movq	%rbx, %rdi
 373              	.LEHB10:
 374 00f7 E8000000 		call	_ZN8UnitTest11TestResultsC1EPNS_12TestReporterE@PLT
 374      00
 375              	.LEHE10:
 376              		.loc 5 24 0
 377 00fc 488B45E8 		movq	-24(%rbp), %rax
 378 0100 48895808 		movq	%rbx, 8(%rax)
 379 0104 BF100000 		movl	$16, %edi
 379      00
 380              	.LEHB11:
 381 0109 E8000000 		call	_Znwm@PLT
 381      00
 382              	.LEHE11:
 383 010e 4889C3   		movq	%rax, %rbx
 384 0111 4889DF   		movq	%rbx, %rdi
 385              	.LEHB12:
 386 0114 E8000000 		call	_ZN8UnitTest5TimerC1Ev@PLT
 386      00
 387              	.LEHE12:
 388              		.loc 5 24 0 is_stmt 0 discriminator 2
 389 0119 488B45E8 		movq	-24(%rbp), %rax
 390 011d 48895810 		movq	%rbx, 16(%rax)
  25:TestRunner.cpp **** {
  26:TestRunner.cpp **** 	m_timer->Start();
 391              		.loc 5 26 0 is_stmt 1 discriminator 2
 392 0121 488B45E8 		movq	-24(%rbp), %rax
 393 0125 488B4010 		movq	16(%rax), %rax
 394 0129 4889C7   		movq	%rax, %rdi
 395              	.LEHB13:
 396 012c E8000000 		call	_ZN8UnitTest5Timer5StartEv@PLT
 396      00
 397              	.LBE6:
  27:TestRunner.cpp **** }
 398              		.loc 5 27 0 discriminator 2
 399 0131 EB2C     		jmp	.L25
 400              	.L23:
 401 0133 4989C4   		movq	%rax, %r12
 402              	.LBB7:
  23:TestRunner.cpp **** 	, m_timer(new Timer)
 403              		.loc 5 23 0
 404 0136 4889DF   		movq	%rbx, %rdi
 405 0139 E8000000 		call	_ZdlPv@PLT
 405      00
 406 013e 4C89E0   		movq	%r12, %rax
 407 0141 4889C7   		movq	%rax, %rdi
 408 0144 E8000000 		call	_Unwind_Resume@PLT
 408      00
 409              	.L24:
 410 0149 4989C4   		movq	%rax, %r12
  24:TestRunner.cpp **** {
 411              		.loc 5 24 0
 412 014c 4889DF   		movq	%rbx, %rdi
 413 014f E8000000 		call	_ZdlPv@PLT
 413      00
 414 0154 4C89E0   		movq	%r12, %rax
 415 0157 4889C7   		movq	%rax, %rdi
 416 015a E8000000 		call	_Unwind_Resume@PLT
 416      00
 417              	.LEHE13:
 418              	.L25:
 419              	.LBE7:
 420              		.loc 5 27 0
 421 015f 4883C410 		addq	$16, %rsp
 422 0163 5B       		popq	%rbx
 423 0164 415C     		popq	%r12
 424 0166 5D       		popq	%rbp
 425              		.cfi_def_cfa 7, 8
 426 0167 C3       		ret
 427              		.cfi_endproc
 428              	.LFE1086:
 429              		.section	.gcc_except_table
 430              	.LLSDA1086:
 431 001c FF       		.byte	0xff
 432 001d FF       		.byte	0xff
 433 001e 01       		.byte	0x1
 434 001f 15       		.uleb128 .LLSDACSE1086-.LLSDACSB1086
 435              	.LLSDACSB1086:
 436 0020 23       		.uleb128 .LEHB9-.LFB1086
 437 0021 05       		.uleb128 .LEHE9-.LEHB9
 438 0022 00       		.uleb128 0
 439 0023 00       		.uleb128 0
 440 0024 35       		.uleb128 .LEHB10-.LFB1086
 441 0025 05       		.uleb128 .LEHE10-.LEHB10
 442 0026 71       		.uleb128 .L23-.LFB1086
 443 0027 00       		.uleb128 0
 444 0028 47       		.uleb128 .LEHB11-.LFB1086
 445 0029 05       		.uleb128 .LEHE11-.LEHB11
 446 002a 00       		.uleb128 0
 447 002b 00       		.uleb128 0
 448 002c 52       		.uleb128 .LEHB12-.LFB1086
 449 002d 05       		.uleb128 .LEHE12-.LEHB12
 450 002e 8701     		.uleb128 .L24-.LFB1086
 451 0030 00       		.uleb128 0
 452 0031 6A       		.uleb128 .LEHB13-.LFB1086
 453 0032 33       		.uleb128 .LEHE13-.LEHB13
 454 0033 00       		.uleb128 0
 455 0034 00       		.uleb128 0
 456              	.LLSDACSE1086:
 457              		.text
 459              		.globl	_ZN8UnitTest10TestRunnerC1ERNS_12TestReporterE
 460              		.set	_ZN8UnitTest10TestRunnerC1ERNS_12TestReporterE,_ZN8UnitTest10TestRunnerC2ERNS_12TestReporterE
 461              		.align 2
 462              		.globl	_ZN8UnitTest10TestRunnerD2Ev
 464              	_ZN8UnitTest10TestRunnerD2Ev:
 465              	.LFB1089:
  28:TestRunner.cpp **** 
  29:TestRunner.cpp **** TestRunner::~TestRunner()
 466              		.loc 5 29 0
 467              		.cfi_startproc
 468 0168 55       		pushq	%rbp
 469              		.cfi_def_cfa_offset 16
 470              		.cfi_offset 6, -16
 471 0169 4889E5   		movq	%rsp, %rbp
 472              		.cfi_def_cfa_register 6
 473 016c 4883EC10 		subq	$16, %rsp
 474 0170 48897DF8 		movq	%rdi, -8(%rbp)
 475              	.LBB8:
  30:TestRunner.cpp **** {
  31:TestRunner.cpp **** 	delete m_result;
 476              		.loc 5 31 0
 477 0174 488B45F8 		movq	-8(%rbp), %rax
 478 0178 488B4008 		movq	8(%rax), %rax
 479 017c 4889C7   		movq	%rax, %rdi
 480 017f E8000000 		call	_ZdlPv@PLT
 480      00
  32:TestRunner.cpp **** 	delete m_timer;
 481              		.loc 5 32 0
 482 0184 488B45F8 		movq	-8(%rbp), %rax
 483 0188 488B4010 		movq	16(%rax), %rax
 484 018c 4889C7   		movq	%rax, %rdi
 485 018f E8000000 		call	_ZdlPv@PLT
 485      00
 486              	.LBE8:
  33:TestRunner.cpp **** }
 487              		.loc 5 33 0
 488 0194 90       		nop
 489 0195 C9       		leave
 490              		.cfi_def_cfa 7, 8
 491 0196 C3       		ret
 492              		.cfi_endproc
 493              	.LFE1089:
 495              		.globl	_ZN8UnitTest10TestRunnerD1Ev
 496              		.set	_ZN8UnitTest10TestRunnerD1Ev,_ZN8UnitTest10TestRunnerD2Ev
 497 0197 90       		.align 2
 498              		.globl	_ZNK8UnitTest10TestRunner6FinishEv
 500              	_ZNK8UnitTest10TestRunner6FinishEv:
 501              	.LFB1091:
  34:TestRunner.cpp **** 
  35:TestRunner.cpp **** int TestRunner::Finish() const
  36:TestRunner.cpp **** {
 502              		.loc 5 36 0
 503              		.cfi_startproc
 504 0198 55       		pushq	%rbp
 505              		.cfi_def_cfa_offset 16
 506              		.cfi_offset 6, -16
 507 0199 4889E5   		movq	%rsp, %rbp
 508              		.cfi_def_cfa_register 6
 509 019c 4156     		pushq	%r14
 510 019e 4155     		pushq	%r13
 511 01a0 4154     		pushq	%r12
 512 01a2 53       		pushq	%rbx
 513 01a3 4883EC20 		subq	$32, %rsp
 514              		.cfi_offset 14, -24
 515              		.cfi_offset 13, -32
 516              		.cfi_offset 12, -40
 517              		.cfi_offset 3, -48
 518 01a7 48897DC8 		movq	%rdi, -56(%rbp)
  37:TestRunner.cpp ****     float const secondsElapsed = m_timer->GetTimeInMs() / 1000.0f;
 519              		.loc 5 37 0
 520 01ab 488B45C8 		movq	-56(%rbp), %rax
 521 01af 488B4010 		movq	16(%rax), %rax
 522 01b3 4889C7   		movq	%rax, %rdi
 523 01b6 E8000000 		call	_ZNK8UnitTest5Timer11GetTimeInMsEv@PLT
 523      00
 524 01bb F30F2AC0 		cvtsi2ss	%eax, %xmm0
 525 01bf F30F100D 		movss	.LC0(%rip), %xmm1
 525      00000000 
 526 01c7 F30F5EC1 		divss	%xmm1, %xmm0
 527 01cb F30F1145 		movss	%xmm0, -36(%rbp)
 527      DC
  38:TestRunner.cpp ****     m_reporter->ReportSummary(m_result->GetTotalTestCount(), 
 528              		.loc 5 38 0
 529 01d0 488B45C8 		movq	-56(%rbp), %rax
 530 01d4 4C8B20   		movq	(%rax), %r12
 531 01d7 488B45C8 		movq	-56(%rbp), %rax
 532 01db 488B00   		movq	(%rax), %rax
  39:TestRunner.cpp **** 							  m_result->GetFailedTestCount(), 
  40:TestRunner.cpp **** 							  m_result->GetFailureCount(), 
  41:TestRunner.cpp **** 							  secondsElapsed);
 533              		.loc 5 41 0
 534 01de 488B00   		movq	(%rax), %rax
 535 01e1 4883C028 		addq	$40, %rax
 536 01e5 488B18   		movq	(%rax), %rbx
  40:TestRunner.cpp **** 							  secondsElapsed);
 537              		.loc 5 40 0
 538 01e8 488B45C8 		movq	-56(%rbp), %rax
 539 01ec 488B4008 		movq	8(%rax), %rax
  38:TestRunner.cpp ****     m_reporter->ReportSummary(m_result->GetTotalTestCount(), 
 540              		.loc 5 38 0
 541 01f0 4889C7   		movq	%rax, %rdi
 542 01f3 E8000000 		call	_ZNK8UnitTest11TestResults15GetFailureCountEv@PLT
 542      00
 543 01f8 4189C6   		movl	%eax, %r14d
  39:TestRunner.cpp **** 							  m_result->GetFailedTestCount(), 
 544              		.loc 5 39 0
 545 01fb 488B45C8 		movq	-56(%rbp), %rax
 546 01ff 488B4008 		movq	8(%rax), %rax
  38:TestRunner.cpp ****     m_reporter->ReportSummary(m_result->GetTotalTestCount(), 
 547              		.loc 5 38 0
 548 0203 4889C7   		movq	%rax, %rdi
 549 0206 E8000000 		call	_ZNK8UnitTest11TestResults18GetFailedTestCountEv@PLT
 549      00
 550 020b 4189C5   		movl	%eax, %r13d
 551 020e 488B45C8 		movq	-56(%rbp), %rax
 552 0212 488B4008 		movq	8(%rax), %rax
 553 0216 4889C7   		movq	%rax, %rdi
 554 0219 E8000000 		call	_ZNK8UnitTest11TestResults17GetTotalTestCountEv@PLT
 554      00
 555 021e 89C6     		movl	%eax, %esi
 556 0220 8B45DC   		movl	-36(%rbp), %eax
 557 0223 8945C4   		movl	%eax, -60(%rbp)
 558 0226 F30F1045 		movss	-60(%rbp), %xmm0
 558      C4
 559 022b 4489F1   		movl	%r14d, %ecx
 560 022e 4489EA   		movl	%r13d, %edx
 561 0231 4C89E7   		movq	%r12, %rdi
 562 0234 FFD3     		call	*%rbx
 563              	.LVL0:
  42:TestRunner.cpp ****     
  43:TestRunner.cpp **** 	return m_result->GetFailureCount();
 564              		.loc 5 43 0
 565 0236 488B45C8 		movq	-56(%rbp), %rax
 566 023a 488B4008 		movq	8(%rax), %rax
 567 023e 4889C7   		movq	%rax, %rdi
 568 0241 E8000000 		call	_ZNK8UnitTest11TestResults15GetFailureCountEv@PLT
 568      00
  44:TestRunner.cpp **** }
 569              		.loc 5 44 0
 570 0246 4883C420 		addq	$32, %rsp
 571 024a 5B       		popq	%rbx
 572 024b 415C     		popq	%r12
 573 024d 415D     		popq	%r13
 574 024f 415E     		popq	%r14
 575 0251 5D       		popq	%rbp
 576              		.cfi_def_cfa 7, 8
 577 0252 C3       		ret
 578              		.cfi_endproc
 579              	.LFE1091:
 581 0253 90       		.align 2
 582              		.globl	_ZNK8UnitTest10TestRunner13IsTestInSuiteEPKNS_4TestEPKc
 584              	_ZNK8UnitTest10TestRunner13IsTestInSuiteEPKNS_4TestEPKc:
 585              	.LFB1092:
  45:TestRunner.cpp **** 
  46:TestRunner.cpp **** bool TestRunner::IsTestInSuite(const Test* const curTest, char const* suiteName) const
  47:TestRunner.cpp **** {
 586              		.loc 5 47 0
 587              		.cfi_startproc
 588 0254 55       		pushq	%rbp
 589              		.cfi_def_cfa_offset 16
 590              		.cfi_offset 6, -16
 591 0255 4889E5   		movq	%rsp, %rbp
 592              		.cfi_def_cfa_register 6
 593 0258 4883EC20 		subq	$32, %rsp
 594 025c 48897DF8 		movq	%rdi, -8(%rbp)
 595 0260 488975F0 		movq	%rsi, -16(%rbp)
 596 0264 488955E8 		movq	%rdx, -24(%rbp)
  48:TestRunner.cpp **** 	using namespace std;
  49:TestRunner.cpp **** 	return (suiteName == NULL) || !strcmp(curTest->m_details.suiteName, suiteName);
 597              		.loc 5 49 0
 598 0268 48837DE8 		cmpq	$0, -24(%rbp)
 598      00
 599 026d 741B     		je	.L30
 600              		.loc 5 49 0 is_stmt 0 discriminator 2
 601 026f 488B45F0 		movq	-16(%rbp), %rax
 602 0273 488B4008 		movq	8(%rax), %rax
 603 0277 488B55E8 		movq	-24(%rbp), %rdx
 604 027b 4889D6   		movq	%rdx, %rsi
 605 027e 4889C7   		movq	%rax, %rdi
 606 0281 E8000000 		call	strcmp@PLT
 606      00
 607 0286 85C0     		testl	%eax, %eax
 608 0288 7507     		jne	.L31
 609              	.L30:
 610              		.loc 5 49 0 discriminator 3
 611 028a B8010000 		movl	$1, %eax
 611      00
 612 028f EB05     		jmp	.L32
 613              	.L31:
 614              		.loc 5 49 0 discriminator 4
 615 0291 B8000000 		movl	$0, %eax
 615      00
 616              	.L32:
  50:TestRunner.cpp **** }
 617              		.loc 5 50 0 is_stmt 1 discriminator 6
 618 0296 C9       		leave
 619              		.cfi_def_cfa 7, 8
 620 0297 C3       		ret
 621              		.cfi_endproc
 622              	.LFE1092:
 624              		.section	.rodata
 625              		.align 8
 626              	.LC1:
 627 0000 476C6F62 		.string	"Global time constraint failed. Expected under "
 627      616C2074 
 627      696D6520 
 627      636F6E73 
 627      74726169 
 628              	.LC2:
 629 002f 6D732062 		.string	"ms but took "
 629      75742074 
 629      6F6F6B20 
 629      00
 630              	.LC3:
 631 003c 6D732E00 		.string	"ms."
 632              		.text
 633              		.align 2
 634              		.globl	_ZNK8UnitTest10TestRunner7RunTestEPNS_11TestResultsEPNS_4TestEi
 636              	_ZNK8UnitTest10TestRunner7RunTestEPNS_11TestResultsEPNS_4TestEi:
 637              	.LFB1093:
  51:TestRunner.cpp **** 
  52:TestRunner.cpp **** void TestRunner::RunTest(TestResults* const result, Test* const curTest, int const maxTestTimeInMs)
  53:TestRunner.cpp **** {
 638              		.loc 5 53 0
 639              		.cfi_startproc
 640              		.cfi_personality 0x9b,DW.ref.__gxx_personality_v0
 641              		.cfi_lsda 0x1b,.LLSDA1093
 642 0298 55       		pushq	%rbp
 643              		.cfi_def_cfa_offset 16
 644              		.cfi_offset 6, -16
 645 0299 4889E5   		movq	%rsp, %rbp
 646              		.cfi_def_cfa_register 6
 647 029c 53       		pushq	%rbx
 648 029d 4881ECE8 		subq	$488, %rsp
 648      010000
 649              		.cfi_offset 3, -24
 650 02a4 4889BD28 		movq	%rdi, -472(%rbp)
 650      FEFFFF
 651 02ab 4889B520 		movq	%rsi, -480(%rbp)
 651      FEFFFF
 652 02b2 48899518 		movq	%rdx, -488(%rbp)
 652      FEFFFF
 653 02b9 898D14FE 		movl	%ecx, -492(%rbp)
 653      FFFF
 654              		.loc 5 53 0
 655 02bf 64488B04 		movq	%fs:40, %rax
 655      25280000 
 655      00
 656 02c8 488945E8 		movq	%rax, -24(%rbp)
 657 02cc 31C0     		xorl	%eax, %eax
 658              	.LEHB14:
  54:TestRunner.cpp **** 	CurrentTest::Results() = result;
 659              		.loc 5 54 0
 660 02ce E8000000 		call	_ZN8UnitTest11CurrentTest7ResultsEv@PLT
 660      00
 661 02d3 4889C2   		movq	%rax, %rdx
 662 02d6 488B8520 		movq	-480(%rbp), %rax
 662      FEFFFF
 663 02dd 488902   		movq	%rax, (%rdx)
  55:TestRunner.cpp **** 
  56:TestRunner.cpp **** 	Timer testTimer;
 664              		.loc 5 56 0
 665 02e0 488D8540 		leaq	-448(%rbp), %rax
 665      FEFFFF
 666 02e7 4889C7   		movq	%rax, %rdi
 667 02ea E8000000 		call	_ZN8UnitTest5TimerC1Ev@PLT
 667      00
  57:TestRunner.cpp **** 	testTimer.Start();
 668              		.loc 5 57 0
 669 02ef 488D8540 		leaq	-448(%rbp), %rax
 669      FEFFFF
 670 02f6 4889C7   		movq	%rax, %rdi
 671 02f9 E8000000 		call	_ZN8UnitTest5Timer5StartEv@PLT
 671      00
  58:TestRunner.cpp **** 
  59:TestRunner.cpp **** 	result->OnTestStart(curTest->m_details);
 672              		.loc 5 59 0
 673 02fe 488B8518 		movq	-488(%rbp), %rax
 673      FEFFFF
 674 0305 488D5008 		leaq	8(%rax), %rdx
 675 0309 488B8520 		movq	-480(%rbp), %rax
 675      FEFFFF
 676 0310 4889D6   		movq	%rdx, %rsi
 677 0313 4889C7   		movq	%rax, %rdi
 678 0316 E8000000 		call	_ZN8UnitTest11TestResults11OnTestStartERKNS_11TestDetailsE@PLT
 678      00
  60:TestRunner.cpp **** 
  61:TestRunner.cpp **** 	curTest->Run();
 679              		.loc 5 61 0
 680 031b 488B8518 		movq	-488(%rbp), %rax
 680      FEFFFF
 681 0322 4889C7   		movq	%rax, %rdi
 682 0325 E8000000 		call	_ZN8UnitTest4Test3RunEv@PLT
 682      00
  62:TestRunner.cpp **** 
  63:TestRunner.cpp **** 	int const testTimeInMs = testTimer.GetTimeInMs();
 683              		.loc 5 63 0
 684 032a 488D8540 		leaq	-448(%rbp), %rax
 684      FEFFFF
 685 0331 4889C7   		movq	%rax, %rdi
 686 0334 E8000000 		call	_ZNK8UnitTest5Timer11GetTimeInMsEv@PLT
 686      00
 687 0339 89853CFE 		movl	%eax, -452(%rbp)
 687      FFFF
 688              	.LBB9:
  64:TestRunner.cpp **** 	if (maxTestTimeInMs > 0 && testTimeInMs > maxTestTimeInMs && !curTest->m_timeConstraintExempt)
 689              		.loc 5 64 0
 690 033f 83BD14FE 		cmpl	$0, -492(%rbp)
 690      FFFF00
 691 0346 0F8ECF00 		jle	.L35
 691      0000
 692              		.loc 5 64 0 is_stmt 0 discriminator 1
 693 034c 8B853CFE 		movl	-452(%rbp), %eax
 693      FFFF
 694 0352 3B8514FE 		cmpl	-492(%rbp), %eax
 694      FFFF
 695 0358 0F8EBD00 		jle	.L35
 695      0000
 696              		.loc 5 64 0 discriminator 2
 697 035e 488B8518 		movq	-488(%rbp), %rax
 697      FEFFFF
 698 0365 0FB64030 		movzbl	48(%rax), %eax
 699 0369 83F001   		xorl	$1, %eax
 700 036c 84C0     		testb	%al, %al
 701 036e 0F84A700 		je	.L35
 701      0000
 702              	.LBB10:
  65:TestRunner.cpp **** 	{
  66:TestRunner.cpp **** 	    MemoryOutStream stream;
 703              		.loc 5 66 0 is_stmt 1
 704 0374 488D8550 		leaq	-432(%rbp), %rax
 704      FEFFFF
 705 037b 4889C7   		movq	%rax, %rdi
 706 037e E8000000 		call	_ZN8UnitTest15MemoryOutStreamC1Ev@PLT
 706      00
 707              	.LEHE14:
  67:TestRunner.cpp **** 	    stream << "Global time constraint failed. Expected under " << maxTestTimeInMs <<
 708              		.loc 5 67 0
 709 0383 488D8550 		leaq	-432(%rbp), %rax
 709      FEFFFF
 710 038a 488D3500 		leaq	.LC1(%rip), %rsi
 710      000000
 711 0391 4889C7   		movq	%rax, %rdi
 712              	.LEHB15:
 713 0394 E8000000 		call	_ZStlsISt11char_traitsIcEERSt13basic_ostreamIcT_ES5_PKc@PLT
 713      00
 714 0399 4889C2   		movq	%rax, %rdx
  68:TestRunner.cpp **** 	            "ms but took " << testTimeInMs << "ms.";
 715              		.loc 5 68 0
 716 039c 8B8514FE 		movl	-492(%rbp), %eax
 716      FFFF
 717 03a2 89C6     		movl	%eax, %esi
 718 03a4 4889D7   		movq	%rdx, %rdi
 719 03a7 E8000000 		call	_ZNSolsEi@PLT
 719      00
 720              		.loc 5 68 0 is_stmt 0 discriminator 1
 721 03ac 488D3500 		leaq	.LC2(%rip), %rsi
 721      000000
 722 03b3 4889C7   		movq	%rax, %rdi
 723 03b6 E8000000 		call	_ZStlsISt11char_traitsIcEERSt13basic_ostreamIcT_ES5_PKc@PLT
 723      00
 724 03bb 4889C2   		movq	%rax, %rdx
 725 03be 8B853CFE 		movl	-452(%rbp), %eax
 725      FFFF
 726 03c4 89C6     		movl	%eax, %esi
 727 03c6 4889D7   		movq	%rdx, %rdi
 728 03c9 E8000000 		call	_ZNSolsEi@PLT
 728      00
 729              		.loc 5 68 0 discriminator 2
 730 03ce 488D3500 		leaq	.LC3(%rip), %rsi
 730      000000
 731 03d5 4889C7   		movq	%rax, %rdi
 732 03d8 E8000000 		call	_ZStlsISt11char_traitsIcEERSt13basic_ostreamIcT_ES5_PKc@PLT
 732      00
  69:TestRunner.cpp **** 
  70:TestRunner.cpp **** 	    result->OnTestFailure(curTest->m_details, stream.GetText());
 733              		.loc 5 70 0 is_stmt 1
 734 03dd 488D8550 		leaq	-432(%rbp), %rax
 734      FEFFFF
 735 03e4 4889C7   		movq	%rax, %rdi
 736 03e7 E8000000 		call	_ZNK8UnitTest15MemoryOutStream7GetTextEv@PLT
 736      00
 737 03ec 4889C2   		movq	%rax, %rdx
 738 03ef 488B8518 		movq	-488(%rbp), %rax
 738      FEFFFF
 739 03f6 488D4808 		leaq	8(%rax), %rcx
 740 03fa 488B8520 		movq	-480(%rbp), %rax
 740      FEFFFF
 741 0401 4889CE   		movq	%rcx, %rsi
 742 0404 4889C7   		movq	%rax, %rdi
 743 0407 E8000000 		call	_ZN8UnitTest11TestResults13OnTestFailureERKNS_11TestDetailsEPKc@PLT
 743      00
 744              	.LEHE15:
  66:TestRunner.cpp **** 	    stream << "Global time constraint failed. Expected under " << maxTestTimeInMs <<
 745              		.loc 5 66 0
 746 040c 488D8550 		leaq	-432(%rbp), %rax
 746      FEFFFF
 747 0413 4889C7   		movq	%rax, %rdi
 748              	.LEHB16:
 749 0416 E8000000 		call	_ZN8UnitTest15MemoryOutStreamD1Ev@PLT
 749      00
 750              	.L35:
 751              	.LBE10:
 752              	.LBE9:
  71:TestRunner.cpp **** 	}
  72:TestRunner.cpp **** 
  73:TestRunner.cpp **** 	result->OnTestFinish(curTest->m_details, testTimeInMs/1000.0f);
 753              		.loc 5 73 0
 754 041b F30F2A85 		cvtsi2ss	-452(%rbp), %xmm0
 754      3CFEFFFF 
 755 0423 F30F100D 		movss	.LC0(%rip), %xmm1
 755      00000000 
 756 042b F30F5EC1 		divss	%xmm1, %xmm0
 757 042f 488B8518 		movq	-488(%rbp), %rax
 757      FEFFFF
 758 0436 488D5008 		leaq	8(%rax), %rdx
 759 043a 488B8520 		movq	-480(%rbp), %rax
 759      FEFFFF
 760 0441 4889D6   		movq	%rdx, %rsi
 761 0444 4889C7   		movq	%rax, %rdi
 762 0447 E8000000 		call	_ZN8UnitTest11TestResults12OnTestFinishERKNS_11TestDetailsEf@PLT
 762      00
 763              	.LEHE16:
  74:TestRunner.cpp **** }
 764              		.loc 5 74 0
 765 044c 90       		nop
 766 044d 488B45E8 		movq	-24(%rbp), %rax
 767 0451 64483304 		xorq	%fs:40, %rax
 767      25280000 
 767      00
 768 045a 7424     		je	.L37
 769 045c EB1D     		jmp	.L39
 770              	.L38:
 771 045e 4889C3   		movq	%rax, %rbx
 772              	.LBB12:
 773              	.LBB11:
  66:TestRunner.cpp **** 	    stream << "Global time constraint failed. Expected under " << maxTestTimeInMs <<
 774              		.loc 5 66 0
 775 0461 488D8550 		leaq	-432(%rbp), %rax
 775      FEFFFF
 776 0468 4889C7   		movq	%rax, %rdi
 777 046b E8000000 		call	_ZN8UnitTest15MemoryOutStreamD1Ev@PLT
 777      00
 778 0470 4889D8   		movq	%rbx, %rax
 779 0473 4889C7   		movq	%rax, %rdi
 780              	.LEHB17:
 781 0476 E8000000 		call	_Unwind_Resume@PLT
 781      00
 782              	.LEHE17:
 783              	.L39:
 784              	.LBE11:
 785              	.LBE12:
 786              		.loc 5 74 0
 787 047b E8000000 		call	__stack_chk_fail@PLT
 787      00
 788              	.L37:
 789 0480 4881C4E8 		addq	$488, %rsp
 789      010000
 790 0487 5B       		popq	%rbx
 791 0488 5D       		popq	%rbp
 792              		.cfi_def_cfa 7, 8
 793 0489 C3       		ret
 794              		.cfi_endproc
 795              	.LFE1093:
 796              		.section	.gcc_except_table
 797              	.LLSDA1093:
 798 0035 FF       		.byte	0xff
 799 0036 FF       		.byte	0xff
 800 0037 01       		.byte	0x1
 801 0038 15       		.uleb128 .LLSDACSE1093-.LLSDACSB1093
 802              	.LLSDACSB1093:
 803 0039 36       		.uleb128 .LEHB14-.LFB1093
 804 003a B501     		.uleb128 .LEHE14-.LEHB14
 805 003c 00       		.uleb128 0
 806 003d 00       		.uleb128 0
 807 003e FC01     		.uleb128 .LEHB15-.LFB1093
 808 0040 78       		.uleb128 .LEHE15-.LEHB15
 809 0041 C603     		.uleb128 .L38-.LFB1093
 810 0043 00       		.uleb128 0
 811 0044 FE02     		.uleb128 .LEHB16-.LFB1093
 812 0046 36       		.uleb128 .LEHE16-.LEHB16
 813 0047 00       		.uleb128 0
 814 0048 00       		.uleb128 0
 815 0049 DE03     		.uleb128 .LEHB17-.LFB1093
 816 004b 05       		.uleb128 .LEHE17-.LEHB17
 817 004c 00       		.uleb128 0
 818 004d 00       		.uleb128 0
 819              	.LLSDACSE1093:
 820              		.text
 822              		.section	.text._ZNK8UnitTest10TestRunner10RunTestsIfINS_4TrueEEEiRKNS_8TestListEPKcRKT_i,"axG",@pr
 823              		.align 2
 824              		.weak	_ZNK8UnitTest10TestRunner10RunTestsIfINS_4TrueEEEiRKNS_8TestListEPKcRKT_i
 826              	_ZNK8UnitTest10TestRunner10RunTestsIfINS_4TrueEEEiRKNS_8TestListEPKcRKT_i:
 827              	.LFB1121:
  22:TestRunner.h  **** };
  23:TestRunner.h  **** 
  24:TestRunner.h  **** class TestRunner
  25:TestRunner.h  **** {
  26:TestRunner.h  **** public:
  27:TestRunner.h  **** 	explicit TestRunner(TestReporter& reporter);
  28:TestRunner.h  **** 	~TestRunner();
  29:TestRunner.h  **** 
  30:TestRunner.h  **** 	template <class Predicate>
  31:TestRunner.h  **** 	int RunTestsIf(TestList const& list, char const* suiteName, 
 828              		.loc 1 31 0
 829              		.cfi_startproc
 830 0000 55       		pushq	%rbp
 831              		.cfi_def_cfa_offset 16
 832              		.cfi_offset 6, -16
 833 0001 4889E5   		movq	%rsp, %rbp
 834              		.cfi_def_cfa_register 6
 835 0004 4883EC40 		subq	$64, %rsp
 836 0008 48897DE8 		movq	%rdi, -24(%rbp)
 837 000c 488975E0 		movq	%rsi, -32(%rbp)
 838 0010 488955D8 		movq	%rdx, -40(%rbp)
 839 0014 48894DD0 		movq	%rcx, -48(%rbp)
 840 0018 448945CC 		movl	%r8d, -52(%rbp)
  32:TestRunner.h  **** 				   const Predicate& predicate, int maxTestTimeInMs) const
  33:TestRunner.h  **** 	{
  34:TestRunner.h  **** 	    Test* curTest = list.GetHead();
 841              		.loc 1 34 0
 842 001c 488B45E0 		movq	-32(%rbp), %rax
 843 0020 4889C7   		movq	%rax, %rdi
 844 0023 E8000000 		call	_ZNK8UnitTest8TestList7GetHeadEv@PLT
 844      00
 845 0028 488945F8 		movq	%rax, -8(%rbp)
 846              	.L45:
  35:TestRunner.h  **** 
  36:TestRunner.h  **** 	    while (curTest != 0)
 847              		.loc 1 36 0
 848 002c 48837DF8 		cmpq	$0, -8(%rbp)
 848      00
 849 0031 746B     		je	.L41
  37:TestRunner.h  **** 	    {
  38:TestRunner.h  **** 		    if (IsTestInSuite(curTest,suiteName) && predicate(curTest))
 850              		.loc 1 38 0
 851 0033 488B55D8 		movq	-40(%rbp), %rdx
 852 0037 488B4DF8 		movq	-8(%rbp), %rcx
 853 003b 488B45E8 		movq	-24(%rbp), %rax
 854 003f 4889CE   		movq	%rcx, %rsi
 855 0042 4889C7   		movq	%rax, %rdi
 856 0045 E8000000 		call	_ZNK8UnitTest10TestRunner13IsTestInSuiteEPKNS_4TestEPKc@PLT
 856      00
 857 004a 84C0     		testb	%al, %al
 858 004c 741E     		je	.L42
 859              		.loc 1 38 0 is_stmt 0 discriminator 1
 860 004e 488B55F8 		movq	-8(%rbp), %rdx
 861 0052 488B45D0 		movq	-48(%rbp), %rax
 862 0056 4889D6   		movq	%rdx, %rsi
 863 0059 4889C7   		movq	%rax, %rdi
 864 005c E8000000 		call	_ZNK8UnitTest4TrueclEPKNS_4TestE@PLT
 864      00
 865 0061 84C0     		testb	%al, %al
 866 0063 7407     		je	.L42
 867              		.loc 1 38 0 discriminator 3
 868 0065 B8010000 		movl	$1, %eax
 868      00
 869 006a EB05     		jmp	.L43
 870              	.L42:
 871              		.loc 1 38 0 discriminator 4
 872 006c B8000000 		movl	$0, %eax
 872      00
 873              	.L43:
 874              		.loc 1 38 0 discriminator 6
 875 0071 84C0     		testb	%al, %al
 876 0073 741B     		je	.L44
  39:TestRunner.h  **** 			{
  40:TestRunner.h  **** 				RunTest(m_result, curTest, maxTestTimeInMs);
 877              		.loc 1 40 0 is_stmt 1
 878 0075 488B45E8 		movq	-24(%rbp), %rax
 879 0079 488B7008 		movq	8(%rax), %rsi
 880 007d 8B4DCC   		movl	-52(%rbp), %ecx
 881 0080 488B55F8 		movq	-8(%rbp), %rdx
 882 0084 488B45E8 		movq	-24(%rbp), %rax
 883 0088 4889C7   		movq	%rax, %rdi
 884 008b E8000000 		call	_ZNK8UnitTest10TestRunner7RunTestEPNS_11TestResultsEPNS_4TestEi@PLT
 884      00
 885              	.L44:
  41:TestRunner.h  **** 			}
  42:TestRunner.h  **** 
  43:TestRunner.h  **** 			curTest = curTest->next;
 886              		.loc 1 43 0
 887 0090 488B45F8 		movq	-8(%rbp), %rax
 888 0094 488B4028 		movq	40(%rax), %rax
 889 0098 488945F8 		movq	%rax, -8(%rbp)
  36:TestRunner.h  **** 	    {
 890              		.loc 1 36 0
 891 009c EB8E     		jmp	.L45
 892              	.L41:
  44:TestRunner.h  **** 	    }
  45:TestRunner.h  **** 
  46:TestRunner.h  **** 	    return Finish();
 893              		.loc 1 46 0
 894 009e 488B45E8 		movq	-24(%rbp), %rax
 895 00a2 4889C7   		movq	%rax, %rdi
 896 00a5 E8000000 		call	_ZNK8UnitTest10TestRunner6FinishEv@PLT
 896      00
  47:TestRunner.h  **** 	}	
 897              		.loc 1 47 0
 898 00aa C9       		leave
 899              		.cfi_def_cfa 7, 8
 900 00ab C3       		ret
 901              		.cfi_endproc
 902              	.LFE1121:
 904              		.weak	_ZTVN8UnitTest15MemoryOutStreamE
 905              		.section	.data.rel.ro._ZTVN8UnitTest15MemoryOutStreamE,"awG",@progbits,_ZTVN8UnitTest15MemoryOutSt
 906              		.align 8
 909              	_ZTVN8UnitTest15MemoryOutStreamE:
 910 0000 90000000 		.quad	144
 910      00000000 
 911 0008 00000000 		.quad	0
 911      00000000 
 912 0010 00000000 		.quad	_ZTIN8UnitTest15MemoryOutStreamE
 912      00000000 
 913 0018 00000000 		.quad	_ZN8UnitTest15MemoryOutStreamD1Ev
 913      00000000 
 914 0020 00000000 		.quad	_ZN8UnitTest15MemoryOutStreamD0Ev
 914      00000000 
 915 0028 70FFFFFF 		.quad	-144
 915      FFFFFFFF 
 916 0030 70FFFFFF 		.quad	-144
 916      FFFFFFFF 
 917 0038 00000000 		.quad	_ZTIN8UnitTest15MemoryOutStreamE
 917      00000000 
 918 0040 00000000 		.quad	_ZTv0_n24_N8UnitTest15MemoryOutStreamD1Ev
 918      00000000 
 919 0048 00000000 		.quad	_ZTv0_n24_N8UnitTest15MemoryOutStreamD0Ev
 919      00000000 
 920              		.weak	_ZTTN8UnitTest15MemoryOutStreamE
 921              		.section	.data.rel.ro._ZTTN8UnitTest15MemoryOutStreamE,"awG",@progbits,_ZTVN8UnitTest15MemoryOutSt
 922              		.align 8
 925              	_ZTTN8UnitTest15MemoryOutStreamE:
 926 0000 00000000 		.quad	_ZTVN8UnitTest15MemoryOutStreamE+24
 926      00000000 
 927 0008 00000000 		.quad	_ZTCN8UnitTest15MemoryOutStreamE0_NSt7__cxx1119basic_ostringstreamIcSt11char_traitsIcESaIcEE
 927      00000000 
 928 0010 00000000 		.quad	_ZTCN8UnitTest15MemoryOutStreamE0_So+24
 928      00000000 
 929 0018 00000000 		.quad	_ZTCN8UnitTest15MemoryOutStreamE0_So+64
 929      00000000 
 930 0020 00000000 		.quad	_ZTCN8UnitTest15MemoryOutStreamE0_NSt7__cxx1119basic_ostringstreamIcSt11char_traitsIcESaIcEE
 930      00000000 
 931 0028 00000000 		.quad	_ZTVN8UnitTest15MemoryOutStreamE+64
 931      00000000 
 932              		.hidden	_ZTCN8UnitTest15MemoryOutStreamE0_NSt7__cxx1119basic_ostringstreamIcSt11char_traitsIcESaIc
 933              		.weak	_ZTCN8UnitTest15MemoryOutStreamE0_NSt7__cxx1119basic_ostringstreamIcSt11char_traitsIcESaIcEE
 934              		.section	.data.rel.ro._ZTCN8UnitTest15MemoryOutStreamE0_NSt7__cxx1119basic_ostringstreamIcSt11char
 935              		.align 8
 938              	_ZTCN8UnitTest15MemoryOutStreamE0_NSt7__cxx1119basic_ostringstreamIcSt11char_traitsIcESaIcEEE:
 939 0000 90000000 		.quad	144
 939      00000000 
 940 0008 00000000 		.quad	0
 940      00000000 
 941 0010 00000000 		.quad	_ZTINSt7__cxx1119basic_ostringstreamIcSt11char_traitsIcESaIcEEE
 941      00000000 
 942 0018 00000000 		.quad	0
 942      00000000 
 943 0020 00000000 		.quad	0
 943      00000000 
 944 0028 70FFFFFF 		.quad	-144
 944      FFFFFFFF 
 945 0030 70FFFFFF 		.quad	-144
 945      FFFFFFFF 
 946 0038 00000000 		.quad	_ZTINSt7__cxx1119basic_ostringstreamIcSt11char_traitsIcESaIcEEE
 946      00000000 
 947 0040 00000000 		.quad	0
 947      00000000 
 948 0048 00000000 		.quad	0
 948      00000000 
 949              		.hidden	_ZTCN8UnitTest15MemoryOutStreamE0_So
 950              		.weak	_ZTCN8UnitTest15MemoryOutStreamE0_So
 951              		.section	.data.rel.ro._ZTCN8UnitTest15MemoryOutStreamE0_So,"awG",@progbits,_ZTVN8UnitTest15MemoryO
 952              		.align 8
 955              	_ZTCN8UnitTest15MemoryOutStreamE0_So:
 956 0000 90000000 		.quad	144
 956      00000000 
 957 0008 00000000 		.quad	0
 957      00000000 
 958 0010 00000000 		.quad	_ZTISo
 958      00000000 
 959 0018 00000000 		.quad	0
 959      00000000 
 960 0020 00000000 		.quad	0
 960      00000000 
 961 0028 70FFFFFF 		.quad	-144
 961      FFFFFFFF 
 962 0030 70FFFFFF 		.quad	-144
 962      FFFFFFFF 
 963 0038 00000000 		.quad	_ZTISo
 963      00000000 
 964 0040 00000000 		.quad	0
 964      00000000 
 965 0048 00000000 		.quad	0
 965      00000000 
 966              		.section	.text._ZN8UnitTest15MemoryOutStreamD1Ev,"axG",@progbits,_ZN8UnitTest15MemoryOutStreamD1Ev
 967              		.align 2
 968              		.weak	_ZN8UnitTest15MemoryOutStreamD1Ev
 970              	_ZN8UnitTest15MemoryOutStreamD1Ev:
 971              	.LFB1176:
  13:MemoryOutStream.h **** {
 972              		.loc 2 13 0
 973              		.cfi_startproc
 974              		.cfi_personality 0x9b,DW.ref.__gxx_personality_v0
 975              		.cfi_lsda 0x1b,.LLSDA1176
 976 0000 55       		pushq	%rbp
 977              		.cfi_def_cfa_offset 16
 978              		.cfi_offset 6, -16
 979 0001 4889E5   		movq	%rsp, %rbp
 980              		.cfi_def_cfa_register 6
 981 0004 53       		pushq	%rbx
 982 0005 4883EC18 		subq	$24, %rsp
 983              		.cfi_offset 3, -24
 984 0009 48897DE8 		movq	%rdi, -24(%rbp)
 985              	.LBB13:
  13:MemoryOutStream.h **** {
 986              		.loc 2 13 0
 987 000d 488B0500 		movq	_ZTVN8UnitTest15MemoryOutStreamE@GOTPCREL(%rip), %rax
 987      000000
 988 0014 488D5018 		leaq	24(%rax), %rdx
 989 0018 488B45E8 		movq	-24(%rbp), %rax
 990 001c 488910   		movq	%rdx, (%rax)
 991 001f 488B45E8 		movq	-24(%rbp), %rax
 992 0023 488D9090 		leaq	144(%rax), %rdx
 992      000000
 993 002a 488B0500 		movq	_ZTVN8UnitTest15MemoryOutStreamE@GOTPCREL(%rip), %rax
 993      000000
 994 0031 488D4040 		leaq	64(%rax), %rax
 995 0035 488902   		movq	%rax, (%rdx)
 996 0038 488B45E8 		movq	-24(%rbp), %rax
 997 003c 4883C070 		addq	$112, %rax
 998 0040 4889C7   		movq	%rax, %rdi
 999              	.LEHB18:
 1000 0043 E8000000 		call	_ZNSt7__cxx1112basic_stringIcSt11char_traitsIcESaIcEED1Ev@PLT
 1000      00
 1001              	.LEHE18:
  13:MemoryOutStream.h **** {
 1002              		.loc 2 13 0 is_stmt 0 discriminator 2
 1003 0048 488B45E8 		movq	-24(%rbp), %rax
 1004 004c 488B1500 		movq	_ZTTN8UnitTest15MemoryOutStreamE@GOTPCREL(%rip), %rdx
 1004      000000
 1005 0053 488D5208 		leaq	8(%rdx), %rdx
 1006 0057 4889D6   		movq	%rdx, %rsi
 1007 005a 4889C7   		movq	%rax, %rdi
 1008              	.LEHB19:
 1009 005d E8000000 		call	_ZNSt7__cxx1119basic_ostringstreamIcSt11char_traitsIcESaIcEED2Ev@PLT
 1009      00
 1010              	.LEHE19:
  13:MemoryOutStream.h **** {
 1011              		.loc 2 13 0 discriminator 4
 1012 0062 488B45E8 		movq	-24(%rbp), %rax
 1013 0066 48059000 		addq	$144, %rax
 1013      0000
 1014 006c 4889C7   		movq	%rax, %rdi
 1015              	.LEHB20:
 1016 006f E8000000 		call	_ZNSt9basic_iosIcSt11char_traitsIcEED2Ev@PLT
 1016      00
 1017              	.LEHE20:
 1018              	.LBE13:
 1019 0074 EB3F     		jmp	.L52
 1020              	.L50:
 1021 0076 4889C3   		movq	%rax, %rbx
 1022              	.LBB14:
  13:MemoryOutStream.h **** {
 1023              		.loc 2 13 0
 1024 0079 488B45E8 		movq	-24(%rbp), %rax
 1025 007d 488B1500 		movq	_ZTTN8UnitTest15MemoryOutStreamE@GOTPCREL(%rip), %rdx
 1025      000000
 1026 0084 488D5208 		leaq	8(%rdx), %rdx
 1027 0088 4889D6   		movq	%rdx, %rsi
 1028 008b 4889C7   		movq	%rax, %rdi
 1029 008e E8000000 		call	_ZNSt7__cxx1119basic_ostringstreamIcSt11char_traitsIcESaIcEED2Ev@PLT
 1029      00
 1030 0093 EB03     		jmp	.L49
 1031              	.L51:
 1032 0095 4889C3   		movq	%rax, %rbx
 1033              	.L49:
  13:MemoryOutStream.h **** {
 1034              		.loc 2 13 0 discriminator 3
 1035 0098 488B45E8 		movq	-24(%rbp), %rax
 1036 009c 48059000 		addq	$144, %rax
 1036      0000
 1037 00a2 4889C7   		movq	%rax, %rdi
 1038 00a5 E8000000 		call	_ZNSt9basic_iosIcSt11char_traitsIcEED2Ev@PLT
 1038      00
 1039 00aa 4889D8   		movq	%rbx, %rax
 1040 00ad 4889C7   		movq	%rax, %rdi
 1041              	.LEHB21:
 1042 00b0 E8000000 		call	_Unwind_Resume@PLT
 1042      00
 1043              	.LEHE21:
 1044              	.L52:
 1045              	.LBE14:
  13:MemoryOutStream.h **** {
 1046              		.loc 2 13 0
 1047 00b5 4883C418 		addq	$24, %rsp
 1048 00b9 5B       		popq	%rbx
 1049 00ba 5D       		popq	%rbp
 1050              		.cfi_def_cfa 7, 8
 1051 00bb C3       		ret
 1052              		.cfi_endproc
 1053              	.LFE1176:
 1054              		.section	.gcc_except_table
 1055              	.LLSDA1176:
 1056 004e FF       		.byte	0xff
 1057 004f FF       		.byte	0xff
 1058 0050 01       		.byte	0x1
 1059 0051 12       		.uleb128 .LLSDACSE1176-.LLSDACSB1176
 1060              	.LLSDACSB1176:
 1061 0052 43       		.uleb128 .LEHB18-.LFB1176
 1062 0053 05       		.uleb128 .LEHE18-.LEHB18
 1063 0054 76       		.uleb128 .L50-.LFB1176
 1064 0055 00       		.uleb128 0
 1065 0056 5D       		.uleb128 .LEHB19-.LFB1176
 1066 0057 05       		.uleb128 .LEHE19-.LEHB19
 1067 0058 9501     		.uleb128 .L51-.LFB1176
 1068 005a 00       		.uleb128 0
 1069 005b 6F       		.uleb128 .LEHB20-.LFB1176
 1070 005c 05       		.uleb128 .LEHE20-.LEHB20
 1071 005d 00       		.uleb128 0
 1072 005e 00       		.uleb128 0
 1073 005f B001     		.uleb128 .LEHB21-.LFB1176
 1074 0061 05       		.uleb128 .LEHE21-.LEHB21
 1075 0062 00       		.uleb128 0
 1076 0063 00       		.uleb128 0
 1077              	.LLSDACSE1176:
 1078              		.section	.text._ZN8UnitTest15MemoryOutStreamD1Ev,"axG",@progbits,_ZN8UnitTest15MemoryOutStreamD1Ev
 1080              		.set	.LTHUNK0,_ZN8UnitTest15MemoryOutStreamD1Ev
 1081              		.weak	_ZTv0_n24_N8UnitTest15MemoryOutStreamD1Ev
 1083              	_ZTv0_n24_N8UnitTest15MemoryOutStreamD1Ev:
 1084              	.LFB1182:
  13:MemoryOutStream.h **** {
 1085              		.loc 2 13 0 is_stmt 1
 1086              		.cfi_startproc
 1087 00bc 4C8B17   		movq	(%rdi), %r10
 1088 00bf 49037AE8 		addq	-24(%r10), %rdi
 1089 00c3 E938FFFF 		jmp	.LTHUNK0
 1089      FF
 1090              		.cfi_endproc
 1091              	.LFE1182:
 1093              		.section	.text._ZN8UnitTest15MemoryOutStreamD0Ev,"axG",@progbits,_ZN8UnitTest15MemoryOutStreamD0Ev
 1094              		.align 2
 1095              		.weak	_ZN8UnitTest15MemoryOutStreamD0Ev
 1097              	_ZN8UnitTest15MemoryOutStreamD0Ev:
 1098              	.LFB1177:
  13:MemoryOutStream.h **** {
 1099              		.loc 2 13 0
 1100              		.cfi_startproc
 1101              		.cfi_personality 0x9b,DW.ref.__gxx_personality_v0
 1102              		.cfi_lsda 0x1b,.LLSDA1177
 1103 0000 55       		pushq	%rbp
 1104              		.cfi_def_cfa_offset 16
 1105              		.cfi_offset 6, -16
 1106 0001 4889E5   		movq	%rsp, %rbp
 1107              		.cfi_def_cfa_register 6
 1108 0004 53       		pushq	%rbx
 1109 0005 4883EC18 		subq	$24, %rsp
 1110              		.cfi_offset 3, -24
 1111 0009 48897DE8 		movq	%rdi, -24(%rbp)
  13:MemoryOutStream.h **** {
 1112              		.loc 2 13 0
 1113 000d 488B45E8 		movq	-24(%rbp), %rax
 1114 0011 4889C7   		movq	%rax, %rdi
 1115              	.LEHB22:
 1116 0014 E8000000 		call	_ZN8UnitTest15MemoryOutStreamD1Ev@PLT
 1116      00
 1117              	.LEHE22:
  13:MemoryOutStream.h **** {
 1118              		.loc 2 13 0 is_stmt 0 discriminator 2
 1119 0019 488B45E8 		movq	-24(%rbp), %rax
 1120 001d 4889C7   		movq	%rax, %rdi
 1121 0020 E8000000 		call	_ZdlPv@PLT
 1121      00
 1122 0025 EB1A     		jmp	.L56
 1123              	.L55:
 1124 0027 4889C3   		movq	%rax, %rbx
  13:MemoryOutStream.h **** {
 1125              		.loc 2 13 0
 1126 002a 488B45E8 		movq	-24(%rbp), %rax
 1127 002e 4889C7   		movq	%rax, %rdi
 1128 0031 E8000000 		call	_ZdlPv@PLT
 1128      00
 1129 0036 4889D8   		movq	%rbx, %rax
 1130 0039 4889C7   		movq	%rax, %rdi
 1131              	.LEHB23:
 1132 003c E8000000 		call	_Unwind_Resume@PLT
 1132      00
 1133              	.LEHE23:
 1134              	.L56:
 1135 0041 4883C418 		addq	$24, %rsp
 1136 0045 5B       		popq	%rbx
 1137 0046 5D       		popq	%rbp
 1138              		.cfi_def_cfa 7, 8
 1139 0047 C3       		ret
 1140              		.cfi_endproc
 1141              	.LFE1177:
 1142              		.section	.gcc_except_table
 1143              	.LLSDA1177:
 1144 0064 FF       		.byte	0xff
 1145 0065 FF       		.byte	0xff
 1146 0066 01       		.byte	0x1
 1147 0067 08       		.uleb128 .LLSDACSE1177-.LLSDACSB1177
 1148              	.LLSDACSB1177:
 1149 0068 14       		.uleb128 .LEHB22-.LFB1177
 1150 0069 05       		.uleb128 .LEHE22-.LEHB22
 1151 006a 27       		.uleb128 .L55-.LFB1177
 1152 006b 00       		.uleb128 0
 1153 006c 3C       		.uleb128 .LEHB23-.LFB1177
 1154 006d 05       		.uleb128 .LEHE23-.LEHB23
 1155 006e 00       		.uleb128 0
 1156 006f 00       		.uleb128 0
 1157              	.LLSDACSE1177:
 1158              		.section	.text._ZN8UnitTest15MemoryOutStreamD0Ev,"axG",@progbits,_ZN8UnitTest15MemoryOutStreamD0Ev
 1160              		.set	.LTHUNK1,_ZN8UnitTest15MemoryOutStreamD0Ev
 1161              		.weak	_ZTv0_n24_N8UnitTest15MemoryOutStreamD0Ev
 1163              	_ZTv0_n24_N8UnitTest15MemoryOutStreamD0Ev:
 1164              	.LFB1183:
  13:MemoryOutStream.h **** {
 1165              		.loc 2 13 0 is_stmt 1
 1166              		.cfi_startproc
 1167 0048 4C8B17   		movq	(%rdi), %r10
 1168 004b 49037AE8 		addq	-24(%r10), %rdi
 1169 004f EBAF     		jmp	.LTHUNK1
 1170              		.cfi_endproc
 1171              	.LFE1183:
 1173              		.weak	_ZTIN8UnitTest15MemoryOutStreamE
 1174              		.section	.data.rel.ro._ZTIN8UnitTest15MemoryOutStreamE,"awG",@progbits,_ZTIN8UnitTest15MemoryOutSt
 1175              		.align 8
 1178              	_ZTIN8UnitTest15MemoryOutStreamE:
 1179 0000 00000000 		.quad	_ZTVN10__cxxabiv120__si_class_type_infoE+16
 1179      00000000 
 1180 0008 00000000 		.quad	_ZTSN8UnitTest15MemoryOutStreamE
 1180      00000000 
 1181 0010 00000000 		.quad	_ZTINSt7__cxx1119basic_ostringstreamIcSt11char_traitsIcESaIcEEE
 1181      00000000 
 1182              		.weak	_ZTSN8UnitTest15MemoryOutStreamE
 1183              		.section	.rodata._ZTSN8UnitTest15MemoryOutStreamE,"aG",@progbits,_ZTSN8UnitTest15MemoryOutStreamE,
 1184              		.align 16
 1187              	_ZTSN8UnitTest15MemoryOutStreamE:
 1188 0000 4E38556E 		.string	"N8UnitTest15MemoryOutStreamE"
 1188      69745465 
 1188      73743135 
 1188      4D656D6F 
 1188      72794F75 
 1189              		.section	.text._ZN8UnitTest18TestReporterStdoutD2Ev,"axG",@progbits,_ZN8UnitTest18TestReporterStdo
 1190              		.align 2
 1191              		.weak	_ZN8UnitTest18TestReporterStdoutD2Ev
 1193              	_ZN8UnitTest18TestReporterStdoutD2Ev:
 1194              	.LFB1179:
 1195              		.loc 4 8 0
 1196              		.cfi_startproc
 1197 0000 55       		pushq	%rbp
 1198              		.cfi_def_cfa_offset 16
 1199              		.cfi_offset 6, -16
 1200 0001 4889E5   		movq	%rsp, %rbp
 1201              		.cfi_def_cfa_register 6
 1202 0004 4883EC10 		subq	$16, %rsp
 1203 0008 48897DF8 		movq	%rdi, -8(%rbp)
 1204              	.LBB15:
 1205              		.loc 4 8 0
 1206 000c 488B0500 		movq	_ZTVN8UnitTest18TestReporterStdoutE@GOTPCREL(%rip), %rax
 1206      000000
 1207 0013 488D5010 		leaq	16(%rax), %rdx
 1208 0017 488B45F8 		movq	-8(%rbp), %rax
 1209 001b 488910   		movq	%rdx, (%rax)
 1210 001e 488B45F8 		movq	-8(%rbp), %rax
 1211 0022 4889C7   		movq	%rax, %rdi
 1212 0025 E8000000 		call	_ZN8UnitTest12TestReporterD2Ev@PLT
 1212      00
 1213              	.LBE15:
 1214 002a 90       		nop
 1215 002b C9       		leave
 1216              		.cfi_def_cfa 7, 8
 1217 002c C3       		ret
 1218              		.cfi_endproc
 1219              	.LFE1179:
 1221              		.weak	_ZN8UnitTest18TestReporterStdoutD1Ev
 1222              		.set	_ZN8UnitTest18TestReporterStdoutD1Ev,_ZN8UnitTest18TestReporterStdoutD2Ev
 1223              		.section	.text._ZN8UnitTest18TestReporterStdoutD0Ev,"axG",@progbits,_ZN8UnitTest18TestReporterStdo
 1224              		.align 2
 1225              		.weak	_ZN8UnitTest18TestReporterStdoutD0Ev
 1227              	_ZN8UnitTest18TestReporterStdoutD0Ev:
 1228              	.LFB1181:
 1229              		.loc 4 8 0
 1230              		.cfi_startproc
 1231              		.cfi_personality 0x9b,DW.ref.__gxx_personality_v0
 1232              		.cfi_lsda 0x1b,.LLSDA1181
 1233 0000 55       		pushq	%rbp
 1234              		.cfi_def_cfa_offset 16
 1235              		.cfi_offset 6, -16
 1236 0001 4889E5   		movq	%rsp, %rbp
 1237              		.cfi_def_cfa_register 6
 1238 0004 53       		pushq	%rbx
 1239 0005 4883EC18 		subq	$24, %rsp
 1240              		.cfi_offset 3, -24
 1241 0009 48897DE8 		movq	%rdi, -24(%rbp)
 1242              		.loc 4 8 0
 1243 000d 488B45E8 		movq	-24(%rbp), %rax
 1244 0011 4889C7   		movq	%rax, %rdi
 1245              	.LEHB24:
 1246 0014 E8000000 		call	_ZN8UnitTest18TestReporterStdoutD1Ev@PLT
 1246      00
 1247              	.LEHE24:
 1248              		.loc 4 8 0 is_stmt 0 discriminator 2
 1249 0019 488B45E8 		movq	-24(%rbp), %rax
 1250 001d 4889C7   		movq	%rax, %rdi
 1251 0020 E8000000 		call	_ZdlPv@PLT
 1251      00
 1252 0025 EB1A     		jmp	.L61
 1253              	.L60:
 1254 0027 4889C3   		movq	%rax, %rbx
 1255              		.loc 4 8 0
 1256 002a 488B45E8 		movq	-24(%rbp), %rax
 1257 002e 4889C7   		movq	%rax, %rdi
 1258 0031 E8000000 		call	_ZdlPv@PLT
 1258      00
 1259 0036 4889D8   		movq	%rbx, %rax
 1260 0039 4889C7   		movq	%rax, %rdi
 1261              	.LEHB25:
 1262 003c E8000000 		call	_Unwind_Resume@PLT
 1262      00
 1263              	.LEHE25:
 1264              	.L61:
 1265 0041 4883C418 		addq	$24, %rsp
 1266 0045 5B       		popq	%rbx
 1267 0046 5D       		popq	%rbp
 1268              		.cfi_def_cfa 7, 8
 1269 0047 C3       		ret
 1270              		.cfi_endproc
 1271              	.LFE1181:
 1272              		.section	.gcc_except_table
 1273              	.LLSDA1181:
 1274 0070 FF       		.byte	0xff
 1275 0071 FF       		.byte	0xff
 1276 0072 01       		.byte	0x1
 1277 0073 08       		.uleb128 .LLSDACSE1181-.LLSDACSB1181
 1278              	.LLSDACSB1181:
 1279 0074 14       		.uleb128 .LEHB24-.LFB1181
 1280 0075 05       		.uleb128 .LEHE24-.LEHB24
 1281 0076 27       		.uleb128 .L60-.LFB1181
 1282 0077 00       		.uleb128 0
 1283 0078 3C       		.uleb128 .LEHB25-.LFB1181
 1284 0079 05       		.uleb128 .LEHE25-.LEHB25
 1285 007a 00       		.uleb128 0
 1286 007b 00       		.uleb128 0
 1287              	.LLSDACSE1181:
 1288              		.section	.text._ZN8UnitTest18TestReporterStdoutD0Ev,"axG",@progbits,_ZN8UnitTest18TestReporterStdo
 1290              		.section	.rodata
 1291              		.align 4
 1292              	.LC0:
 1293 0040 00007A44 		.long	1148846080
 1294              		.text
 1295              	.Letext0:
 1296              		.file 6 "TestDetails.h"
 1297              		.file 7 "TestList.h"
 1298              		.file 8 "TestResults.h"
 1299              		.file 9 "PosixUtils/TimeHelpers.h"
 1300              		.file 10 "/usr/include/x86_64-linux-gnu/bits/types.h"
 1301              		.file 11 "/usr/include/x86_64-linux-gnu/bits/types/struct_timeval.h"
 1302              		.file 12 "/usr/include/x86_64-linux-gnu/sys/time.h"
 1303              		.file 13 "/usr/include/x86_64-linux-gnu/c++/7/bits/c++config.h"
 1304              		.file 14 "/usr/include/c++/7/bits/basic_string.h"
 1305              		.file 15 "/usr/include/c++/7/bits/basic_string.tcc"
 1306              		.file 16 "/usr/include/c++/7/bits/stringfwd.h"
 1307              		.file 17 "/usr/include/c++/7/cwchar"
 1308              		.file 18 "/usr/include/c++/7/bits/char_traits.h"
 1309              		.file 19 "/usr/include/c++/7/clocale"
 1310              		.file 20 "/usr/include/c++/7/bits/allocator.h"
 1311              		.file 21 "/usr/include/c++/7/cwctype"
 1312              		.file 22 "/usr/include/c++/7/cstring"
 1313              		.file 23 "/usr/include/c++/7/debug/debug.h"
 1314              		.file 24 "/usr/include/c++/7/bits/predefined_ops.h"
 1315              		.file 25 "/usr/include/c++/7/ext/new_allocator.h"
 1316              		.file 26 "/usr/include/c++/7/ext/numeric_traits.h"
 1317              		.file 27 "/usr/include/c++/7/ext/alloc_traits.h"
 1318              		.file 28 "/usr/lib/gcc/x86_64-linux-gnu/7/include/stddef.h"
 1319              		.file 29 "<built-in>"
 1320              		.file 30 "/usr/include/x86_64-linux-gnu/bits/types/wint_t.h"
 1321              		.file 31 "/usr/include/x86_64-linux-gnu/bits/types/__mbstate_t.h"
 1322              		.file 32 "/usr/include/x86_64-linux-gnu/bits/types/mbstate_t.h"
 1323              		.file 33 "/usr/include/x86_64-linux-gnu/bits/types/__FILE.h"
 1324              		.file 34 "/usr/include/wchar.h"
 1325              		.file 35 "/usr/include/x86_64-linux-gnu/bits/types/struct_tm.h"
 1326              		.file 36 "/usr/include/locale.h"
 1327              		.file 37 "/usr/include/time.h"
 1328              		.file 38 "/usr/include/x86_64-linux-gnu/bits/wctype-wchar.h"
 1329              		.file 39 "/usr/include/wctype.h"
 1330              		.file 40 "/usr/include/string.h"
 1331              		.file 41 "/usr/include/c++/7/new"
 10813              		.align 8
 10816              	DW.ref.__gxx_personality_v0:
 10817 0000 00000000 		.quad	__gxx_personality_v0
 10817      00000000 
 10818              		.ident	"GCC: (Ubuntu 7.2.0-8ubuntu3.2) 7.2.0"
 10819              		.section	.note.GNU-stack,"",@progbits
DEFINED SYMBOLS
                            *ABS*:0000000000000000 TestRunner.cpp
     /tmp/cck1ktYN.s:8      .text._ZNK8UnitTest4TrueclEPKNS_4TestE:0000000000000000 _ZNK8UnitTest4TrueclEPKNS_4TestE
     /tmp/cck1ktYN.s:33     .text._ZN8UnitTest15MemoryOutStreamC1Ev:0000000000000000 _ZN8UnitTest15MemoryOutStreamC1Ev
     /tmp/cck1ktYN.s:10816  .data.DW.ref.__gxx_personality_v0:0000000000000000 DW.ref.__gxx_personality_v0
     /tmp/cck1ktYN.s:925    .data.rel.ro._ZTTN8UnitTest15MemoryOutStreamE:0000000000000000 _ZTTN8UnitTest15MemoryOutStreamE
     /tmp/cck1ktYN.s:909    .data.rel.ro._ZTVN8UnitTest15MemoryOutStreamE:0000000000000000 _ZTVN8UnitTest15MemoryOutStreamE
     /tmp/cck1ktYN.s:149    .text._ZN8UnitTest12TestReporterC2Ev:0000000000000000 _ZN8UnitTest12TestReporterC2Ev
     /tmp/cck1ktYN.s:149    .text._ZN8UnitTest12TestReporterC2Ev:0000000000000000 _ZN8UnitTest12TestReporterC1Ev
     /tmp/cck1ktYN.s:180    .text._ZN8UnitTest18TestReporterStdoutC2Ev:0000000000000000 _ZN8UnitTest18TestReporterStdoutC2Ev
     /tmp/cck1ktYN.s:180    .text._ZN8UnitTest18TestReporterStdoutC2Ev:0000000000000000 _ZN8UnitTest18TestReporterStdoutC1Ev
     /tmp/cck1ktYN.s:214    .text:0000000000000000 _ZN8UnitTest11RunAllTestsEv
     /tmp/cck1ktYN.s:341    .text:00000000000000c2 _ZN8UnitTest10TestRunnerC1ERNS_12TestReporterE
     /tmp/cck1ktYN.s:826    .text._ZNK8UnitTest10TestRunner10RunTestsIfINS_4TrueEEEiRKNS_8TestListEPKcRKT_i:0000000000000000 _ZNK8UnitTest10TestRunner10RunTestsIfINS_4TrueEEEiRKNS_8TestListEPKcRKT_i
     /tmp/cck1ktYN.s:464    .text:0000000000000168 _ZN8UnitTest10TestRunnerD1Ev
     /tmp/cck1ktYN.s:1193   .text._ZN8UnitTest18TestReporterStdoutD2Ev:0000000000000000 _ZN8UnitTest18TestReporterStdoutD1Ev
     /tmp/cck1ktYN.s:341    .text:00000000000000c2 _ZN8UnitTest10TestRunnerC2ERNS_12TestReporterE
     /tmp/cck1ktYN.s:464    .text:0000000000000168 _ZN8UnitTest10TestRunnerD2Ev
     /tmp/cck1ktYN.s:500    .text:0000000000000198 _ZNK8UnitTest10TestRunner6FinishEv
     /tmp/cck1ktYN.s:584    .text:0000000000000254 _ZNK8UnitTest10TestRunner13IsTestInSuiteEPKNS_4TestEPKc
     /tmp/cck1ktYN.s:636    .text:0000000000000298 _ZNK8UnitTest10TestRunner7RunTestEPNS_11TestResultsEPNS_4TestEi
     /tmp/cck1ktYN.s:970    .text._ZN8UnitTest15MemoryOutStreamD1Ev:0000000000000000 _ZN8UnitTest15MemoryOutStreamD1Ev
     /tmp/cck1ktYN.s:1178   .data.rel.ro._ZTIN8UnitTest15MemoryOutStreamE:0000000000000000 _ZTIN8UnitTest15MemoryOutStreamE
     /tmp/cck1ktYN.s:1097   .text._ZN8UnitTest15MemoryOutStreamD0Ev:0000000000000000 _ZN8UnitTest15MemoryOutStreamD0Ev
     /tmp/cck1ktYN.s:1083   .text._ZN8UnitTest15MemoryOutStreamD1Ev:00000000000000bc _ZTv0_n24_N8UnitTest15MemoryOutStreamD1Ev
     /tmp/cck1ktYN.s:1163   .text._ZN8UnitTest15MemoryOutStreamD0Ev:0000000000000048 _ZTv0_n24_N8UnitTest15MemoryOutStreamD0Ev
     /tmp/cck1ktYN.s:938    .data.rel.ro._ZTCN8UnitTest15MemoryOutStreamE0_NSt7__cxx1119basic_ostringstreamIcSt11char_traitsIcESaIcEEE:0000000000000000 _ZTCN8UnitTest15MemoryOutStreamE0_NSt7__cxx1119basic_ostringstreamIcSt11char_traitsIcESaIcEEE
     /tmp/cck1ktYN.s:955    .data.rel.ro._ZTCN8UnitTest15MemoryOutStreamE0_So:0000000000000000 _ZTCN8UnitTest15MemoryOutStreamE0_So
     /tmp/cck1ktYN.s:1187   .rodata._ZTSN8UnitTest15MemoryOutStreamE:0000000000000000 _ZTSN8UnitTest15MemoryOutStreamE
     /tmp/cck1ktYN.s:1193   .text._ZN8UnitTest18TestReporterStdoutD2Ev:0000000000000000 _ZN8UnitTest18TestReporterStdoutD2Ev
     /tmp/cck1ktYN.s:1227   .text._ZN8UnitTest18TestReporterStdoutD0Ev:0000000000000000 _ZN8UnitTest18TestReporterStdoutD0Ev
                           .group:0000000000000000 _ZN8UnitTest12TestReporterC5Ev
                           .group:0000000000000000 _ZN8UnitTest18TestReporterStdoutC5Ev
                           .group:0000000000000000 _ZN8UnitTest18TestReporterStdoutD5Ev

UNDEFINED SYMBOLS
_GLOBAL_OFFSET_TABLE_
_ZNSt9basic_iosIcSt11char_traitsIcEEC2Ev
_ZNSt7__cxx1119basic_ostringstreamIcSt11char_traitsIcESaIcEEC2ESt13_Ios_Openmode
_ZNSt7__cxx1112basic_stringIcSt11char_traitsIcESaIcEEC1Ev
_ZNSt7__cxx1119basic_ostringstreamIcSt11char_traitsIcESaIcEED2Ev
_ZNSt9basic_iosIcSt11char_traitsIcEED2Ev
_Unwind_Resume
__gxx_personality_v0
_ZTVN8UnitTest12TestReporterE
_ZTVN8UnitTest18TestReporterStdoutE
_ZN8UnitTest4Test11GetTestListEv
__stack_chk_fail
_Znwm
_ZN8UnitTest11TestResultsC1EPNS_12TestReporterE
_ZN8UnitTest5TimerC1Ev
_ZN8UnitTest5Timer5StartEv
_ZdlPv
_ZNK8UnitTest5Timer11GetTimeInMsEv
_ZNK8UnitTest11TestResults15GetFailureCountEv
_ZNK8UnitTest11TestResults18GetFailedTestCountEv
_ZNK8UnitTest11TestResults17GetTotalTestCountEv
strcmp
_ZN8UnitTest11CurrentTest7ResultsEv
_ZN8UnitTest11TestResults11OnTestStartERKNS_11TestDetailsE
_ZN8UnitTest4Test3RunEv
_ZStlsISt11char_traitsIcEERSt13basic_ostreamIcT_ES5_PKc
_ZNSolsEi
_ZNK8UnitTest15MemoryOutStream7GetTextEv
_ZN8UnitTest11TestResults13OnTestFailureERKNS_11TestDetailsEPKc
_ZN8UnitTest11TestResults12OnTestFinishERKNS_11TestDetailsEf
_ZNK8UnitTest8TestList7GetHeadEv
_ZTINSt7__cxx1119basic_ostringstreamIcSt11char_traitsIcESaIcEEE
_ZTISo
_ZNSt7__cxx1112basic_stringIcSt11char_traitsIcESaIcEED1Ev
_ZTVN10__cxxabiv120__si_class_type_infoE
_ZN8UnitTest12TestReporterD2Ev
