   1              		.file	"testCore.cpp"
   2              		.text
   3              	.Ltext0:
   4              		.local	_ZStL8__ioinit
   5              		.comm	_ZStL8__ioinit,1,1
   6              		.section	.rodata
   7              	.LC0:
   8 0000 44656661 		.string	"DefaultSuite"
   8      756C7453 
   8      75697465 
   8      00
   9              		.section	.text._ZN13UnitTestSuite12GetSuiteNameEv,"axG",@progbits,_ZN13UnitTestSuite12GetSuiteName
  10              		.weak	_ZN13UnitTestSuite12GetSuiteNameEv
  12              	_ZN13UnitTestSuite12GetSuiteNameEv:
  13              	.LFB1047:
  14              		.file 1 "/home/gani/eval/20140524/makestuff/libs/libutpp/TestSuite.h"
   1:/home/gani/eval/20140524/makestuff/libs/libutpp/TestSuite.h **** #ifndef UNITTEST_TESTSUITE_H
   2:/home/gani/eval/20140524/makestuff/libs/libutpp/TestSuite.h **** #define UNITTEST_TESTSUITE_H
   3:/home/gani/eval/20140524/makestuff/libs/libutpp/TestSuite.h **** 
   4:/home/gani/eval/20140524/makestuff/libs/libutpp/TestSuite.h **** namespace UnitTestSuite {
   5:/home/gani/eval/20140524/makestuff/libs/libutpp/TestSuite.h **** 
   6:/home/gani/eval/20140524/makestuff/libs/libutpp/TestSuite.h ****     inline char const* GetSuiteName ()
   7:/home/gani/eval/20140524/makestuff/libs/libutpp/TestSuite.h ****     {
  15              		.loc 1 7 0
  16              		.cfi_startproc
  17 0000 55       		pushq	%rbp
  18              		.cfi_def_cfa_offset 16
  19              		.cfi_offset 6, -16
  20 0001 4889E5   		movq	%rsp, %rbp
  21              		.cfi_def_cfa_register 6
   8:/home/gani/eval/20140524/makestuff/libs/libutpp/TestSuite.h ****         return "DefaultSuite";
  22              		.loc 1 8 0
  23 0004 488D0500 		leaq	.LC0(%rip), %rax
  23      000000
   9:/home/gani/eval/20140524/makestuff/libs/libutpp/TestSuite.h ****     }
  24              		.loc 1 9 0
  25 000b 5D       		popq	%rbp
  26              		.cfi_def_cfa 7, 8
  27 000c C3       		ret
  28              		.cfi_endproc
  29              	.LFE1047:
  31              		.section	.text._ZN8UnitTest15MemoryOutStreamC1Ev,"axG",@progbits,_ZN8UnitTest15MemoryOutStreamC1Ev
  32              		.align 2
  33              		.weak	_ZN8UnitTest15MemoryOutStreamC1Ev
  35              	_ZN8UnitTest15MemoryOutStreamC1Ev:
  36              	.LFB1083:
  37              		.file 2 "/home/gani/eval/20140524/makestuff/libs/libutpp/MemoryOutStream.h"
   1:/home/gani/eval/20140524/makestuff/libs/libutpp/MemoryOutStream.h **** #ifndef UNITTEST_MEMORYOUTSTREAM_H
   2:/home/gani/eval/20140524/makestuff/libs/libutpp/MemoryOutStream.h **** #define UNITTEST_MEMORYOUTSTREAM_H
   3:/home/gani/eval/20140524/makestuff/libs/libutpp/MemoryOutStream.h **** 
   4:/home/gani/eval/20140524/makestuff/libs/libutpp/MemoryOutStream.h **** #include "Config.h"
   5:/home/gani/eval/20140524/makestuff/libs/libutpp/MemoryOutStream.h **** 
   6:/home/gani/eval/20140524/makestuff/libs/libutpp/MemoryOutStream.h **** #ifndef UNITTEST_USE_CUSTOM_STREAMS
   7:/home/gani/eval/20140524/makestuff/libs/libutpp/MemoryOutStream.h **** 
   8:/home/gani/eval/20140524/makestuff/libs/libutpp/MemoryOutStream.h **** #include <sstream>
   9:/home/gani/eval/20140524/makestuff/libs/libutpp/MemoryOutStream.h **** 
  10:/home/gani/eval/20140524/makestuff/libs/libutpp/MemoryOutStream.h **** namespace UnitTest
  11:/home/gani/eval/20140524/makestuff/libs/libutpp/MemoryOutStream.h **** {
  12:/home/gani/eval/20140524/makestuff/libs/libutpp/MemoryOutStream.h **** 
  13:/home/gani/eval/20140524/makestuff/libs/libutpp/MemoryOutStream.h **** class MemoryOutStream : public std::ostringstream
  14:/home/gani/eval/20140524/makestuff/libs/libutpp/MemoryOutStream.h **** {
  15:/home/gani/eval/20140524/makestuff/libs/libutpp/MemoryOutStream.h **** public:
  16:/home/gani/eval/20140524/makestuff/libs/libutpp/MemoryOutStream.h ****     MemoryOutStream() {}
  38              		.loc 2 16 0
  39              		.cfi_startproc
  40              		.cfi_personality 0x9b,DW.ref.__gxx_personality_v0
  41              		.cfi_lsda 0x1b,.LLSDA1083
  42 0000 55       		pushq	%rbp
  43              		.cfi_def_cfa_offset 16
  44              		.cfi_offset 6, -16
  45 0001 4889E5   		movq	%rsp, %rbp
  46              		.cfi_def_cfa_register 6
  47 0004 53       		pushq	%rbx
  48 0005 4883EC18 		subq	$24, %rsp
  49              		.cfi_offset 3, -24
  50 0009 48897DE8 		movq	%rdi, -24(%rbp)
  51              	.LBB2:
  52              		.loc 2 16 0
  53 000d 488B45E8 		movq	-24(%rbp), %rax
  54 0011 48059000 		addq	$144, %rax
  54      0000
  55 0017 4889C7   		movq	%rax, %rdi
  56              	.LEHB0:
  57 001a E8000000 		call	_ZNSt9basic_iosIcSt11char_traitsIcEEC2Ev@PLT
  57      00
  58              	.LEHE0:
  59 001f 488B45E8 		movq	-24(%rbp), %rax
  60 0023 488D0D00 		leaq	8+_ZTTN8UnitTest15MemoryOutStreamE(%rip), %rcx
  60      000000
  61 002a BA100000 		movl	$16, %edx
  61      00
  62 002f 4889CE   		movq	%rcx, %rsi
  63 0032 4889C7   		movq	%rax, %rdi
  64              	.LEHB1:
  65 0035 E8000000 		call	_ZNSt7__cxx1119basic_ostringstreamIcSt11char_traitsIcESaIcEEC2ESt13_Ios_Openmode@PLT
  65      00
  66              	.LEHE1:
  67              		.loc 2 16 0 is_stmt 0 discriminator 8
  68 003a 488D1500 		leaq	24+_ZTVN8UnitTest15MemoryOutStreamE(%rip), %rdx
  68      000000
  69 0041 488B45E8 		movq	-24(%rbp), %rax
  70 0045 488910   		movq	%rdx, (%rax)
  71 0048 488B45E8 		movq	-24(%rbp), %rax
  72 004c 488D9090 		leaq	144(%rax), %rdx
  72      000000
  73 0053 488D0500 		leaq	64+_ZTVN8UnitTest15MemoryOutStreamE(%rip), %rax
  73      000000
  74 005a 488902   		movq	%rax, (%rdx)
  75 005d 488B45E8 		movq	-24(%rbp), %rax
  76 0061 4883C070 		addq	$112, %rax
  77 0065 4889C7   		movq	%rax, %rdi
  78              	.LEHB2:
  79 0068 E8000000 		call	_ZNSt7__cxx1112basic_stringIcSt11char_traitsIcESaIcEEC1Ev@PLT
  79      00
  80              	.LEHE2:
  81              	.LBE2:
  82              		.loc 2 16 0
  83 006d EB3B     		jmp	.L9
  84              	.L7:
  85 006f 4889C3   		movq	%rax, %rbx
  86              	.LBB3:
  87 0072 488B45E8 		movq	-24(%rbp), %rax
  88 0076 488D1500 		leaq	8+_ZTTN8UnitTest15MemoryOutStreamE(%rip), %rdx
  88      000000
  89 007d 4889D6   		movq	%rdx, %rsi
  90 0080 4889C7   		movq	%rax, %rdi
  91 0083 E8000000 		call	_ZNSt7__cxx1119basic_ostringstreamIcSt11char_traitsIcESaIcEED2Ev@PLT
  91      00
  92 0088 EB03     		jmp	.L8
  93              	.L6:
  94 008a 4889C3   		movq	%rax, %rbx
  95              	.L8:
  96              		.loc 2 16 0 discriminator 11
  97 008d 488B45E8 		movq	-24(%rbp), %rax
  98 0091 48059000 		addq	$144, %rax
  98      0000
  99 0097 4889C7   		movq	%rax, %rdi
 100 009a E8000000 		call	_ZNSt9basic_iosIcSt11char_traitsIcEED2Ev@PLT
 100      00
 101 009f 4889D8   		movq	%rbx, %rax
 102 00a2 4889C7   		movq	%rax, %rdi
 103              	.LEHB3:
 104 00a5 E8000000 		call	_Unwind_Resume@PLT
 104      00
 105              	.LEHE3:
 106              	.L9:
 107              	.LBE3:
 108              		.loc 2 16 0
 109 00aa 4883C418 		addq	$24, %rsp
 110 00ae 5B       		popq	%rbx
 111 00af 5D       		popq	%rbp
 112              		.cfi_def_cfa 7, 8
 113 00b0 C3       		ret
 114              		.cfi_endproc
 115              	.LFE1083:
 116              		.globl	__gxx_personality_v0
 117              		.section	.gcc_except_table._ZN8UnitTest15MemoryOutStreamC1Ev,"aG",@progbits,_ZN8UnitTest15MemoryOu
 118              	.LLSDA1083:
 119 0000 FF       		.byte	0xff
 120 0001 FF       		.byte	0xff
 121 0002 01       		.byte	0x1
 122 0003 12       		.uleb128 .LLSDACSE1083-.LLSDACSB1083
 123              	.LLSDACSB1083:
 124 0004 1A       		.uleb128 .LEHB0-.LFB1083
 125 0005 05       		.uleb128 .LEHE0-.LEHB0
 126 0006 00       		.uleb128 0
 127 0007 00       		.uleb128 0
 128 0008 35       		.uleb128 .LEHB1-.LFB1083
 129 0009 05       		.uleb128 .LEHE1-.LEHB1
 130 000a 8A01     		.uleb128 .L6-.LFB1083
 131 000c 00       		.uleb128 0
 132 000d 68       		.uleb128 .LEHB2-.LFB1083
 133 000e 05       		.uleb128 .LEHE2-.LEHB2
 134 000f 6F       		.uleb128 .L7-.LFB1083
 135 0010 00       		.uleb128 0
 136 0011 A501     		.uleb128 .LEHB3-.LFB1083
 137 0013 05       		.uleb128 .LEHE3-.LEHB3
 138 0014 00       		.uleb128 0
 139 0015 00       		.uleb128 0
 140              	.LLSDACSE1083:
 141              		.section	.text._ZN8UnitTest15MemoryOutStreamC1Ev,"axG",@progbits,_ZN8UnitTest15MemoryOutStreamC1Ev
 143              		.data
 144              		.align 4
 147              	_ZL7m_count:
 148 0000 01000000 		.long	1
 149              		.local	_ZL11m_allocFree
 150              		.comm	_ZL11m_allocFree,4,4
 151              		.text
 152              		.globl	createInt
 154              	createInt:
 155              	.LFB1100:
 156              		.file 3 "testCore.cpp"
   1:testCore.cpp  **** /*
   2:testCore.cpp  ****  * Copyright (C) 2009-2012 Chris McClelland
   3:testCore.cpp  ****  *
   4:testCore.cpp  ****  * This program is free software: you can redistribute it and/or modify
   5:testCore.cpp  ****  * it under the terms of the GNU Lesser General Public License as published by
   6:testCore.cpp  ****  * the Free Software Foundation, either version 3 of the License, or
   7:testCore.cpp  ****  * (at your option) any later version.
   8:testCore.cpp  ****  *
   9:testCore.cpp  ****  * This program is distributed in the hope that it will be useful,
  10:testCore.cpp  ****  * but WITHOUT ANY WARRANTY; without even the implied warranty of
  11:testCore.cpp  ****  * MERCHANTABILITY or FITNESS FOR A PARTICULAR PURPOSE.  See the
  12:testCore.cpp  ****  * GNU Lesser General Public License for more details.
  13:testCore.cpp  ****  *
  14:testCore.cpp  ****  * You should have received a copy of the GNU Lesser General Public License
  15:testCore.cpp  ****  * along with this program.  If not, see <http://www.gnu.org/licenses/>.
  16:testCore.cpp  ****  */
  17:testCore.cpp  **** #include <iostream>
  18:testCore.cpp  **** #include <cstdlib>
  19:testCore.cpp  **** #include <errno.h>
  20:testCore.cpp  **** #include <UnitTest++.h>
  21:testCore.cpp  **** #include <makestuff.h>
  22:testCore.cpp  **** #include "../unbounded_queue.h"
  23:testCore.cpp  **** 
  24:testCore.cpp  **** using namespace std;
  25:testCore.cpp  **** 
  26:testCore.cpp  **** extern "C" {
  27:testCore.cpp  **** 	static uint32 m_count = 1;
  28:testCore.cpp  **** 	static int m_allocFree = 0;
  29:testCore.cpp  **** 	uint32 *createInt(void) {
 157              		.loc 3 29 0 is_stmt 1
 158              		.cfi_startproc
 159 0000 55       		pushq	%rbp
 160              		.cfi_def_cfa_offset 16
 161              		.cfi_offset 6, -16
 162 0001 4889E5   		movq	%rsp, %rbp
 163              		.cfi_def_cfa_register 6
 164 0004 4883EC10 		subq	$16, %rsp
  30:testCore.cpp  **** 		uint32 *p;
  31:testCore.cpp  **** 		if ( m_count > 8 ) {
 165              		.loc 3 31 0
 166 0008 8B050000 		movl	_ZL7m_count(%rip), %eax
 166      0000
 167 000e 83F808   		cmpl	$8, %eax
 168 0011 7607     		jbe	.L11
  32:testCore.cpp  **** 			return NULL;  // simulate out-of-memory
 169              		.loc 3 32 0
 170 0013 B8000000 		movl	$0, %eax
 170      00
 171 0018 EB3D     		jmp	.L12
 172              	.L11:
  33:testCore.cpp  **** 		}
  34:testCore.cpp  **** 		p = (uint32 *)malloc(sizeof(uint32));
 173              		.loc 3 34 0
 174 001a BF040000 		movl	$4, %edi
 174      00
 175 001f E8000000 		call	malloc@PLT
 175      00
 176 0024 488945F8 		movq	%rax, -8(%rbp)
  35:testCore.cpp  **** 		if ( p ) {
 177              		.loc 3 35 0
 178 0028 48837DF8 		cmpq	$0, -8(%rbp)
 178      00
 179 002d 7415     		je	.L13
  36:testCore.cpp  **** 			*p = m_count++;
 180              		.loc 3 36 0
 181 002f 8B050000 		movl	_ZL7m_count(%rip), %eax
 181      0000
 182 0035 8D5001   		leal	1(%rax), %edx
 183 0038 89150000 		movl	%edx, _ZL7m_count(%rip)
 183      0000
 184 003e 488B55F8 		movq	-8(%rbp), %rdx
 185 0042 8902     		movl	%eax, (%rdx)
 186              	.L13:
  37:testCore.cpp  **** 		}
  38:testCore.cpp  **** 		m_allocFree++;
 187              		.loc 3 38 0
 188 0044 8B050000 		movl	_ZL11m_allocFree(%rip), %eax
 188      0000
 189 004a 83C001   		addl	$1, %eax
 190 004d 89050000 		movl	%eax, _ZL11m_allocFree(%rip)
 190      0000
  39:testCore.cpp  **** 		return p;
 191              		.loc 3 39 0
 192 0053 488B45F8 		movq	-8(%rbp), %rax
 193              	.L12:
  40:testCore.cpp  **** 	}
 194              		.loc 3 40 0
 195 0057 C9       		leave
 196              		.cfi_def_cfa 7, 8
 197 0058 C3       		ret
 198              		.cfi_endproc
 199              	.LFE1100:
 201              		.globl	destroyInt
 203              	destroyInt:
 204              	.LFB1101:
  41:testCore.cpp  **** 	void destroyInt(uint32 *p) {
 205              		.loc 3 41 0
 206              		.cfi_startproc
 207 0059 55       		pushq	%rbp
 208              		.cfi_def_cfa_offset 16
 209              		.cfi_offset 6, -16
 210 005a 4889E5   		movq	%rsp, %rbp
 211              		.cfi_def_cfa_register 6
 212 005d 4883EC10 		subq	$16, %rsp
 213 0061 48897DF8 		movq	%rdi, -8(%rbp)
  42:testCore.cpp  **** 		if ( p ) {
 214              		.loc 3 42 0
 215 0065 48837DF8 		cmpq	$0, -8(%rbp)
 215      00
 216 006a 741B     		je	.L16
  43:testCore.cpp  **** 			m_allocFree--;
 217              		.loc 3 43 0
 218 006c 8B050000 		movl	_ZL11m_allocFree(%rip), %eax
 218      0000
 219 0072 83E801   		subl	$1, %eax
 220 0075 89050000 		movl	%eax, _ZL11m_allocFree(%rip)
 220      0000
  44:testCore.cpp  **** 			free((void*)p);
 221              		.loc 3 44 0
 222 007b 488B45F8 		movq	-8(%rbp), %rax
 223 007f 4889C7   		movq	%rax, %rdi
 224 0082 E8000000 		call	free@PLT
 224      00
 225              	.L16:
  45:testCore.cpp  **** 		}
  46:testCore.cpp  **** 	}
 226              		.loc 3 46 0
 227 0087 90       		nop
 228 0088 C9       		leave
 229              		.cfi_def_cfa 7, 8
 230 0089 C3       		ret
 231              		.cfi_endproc
 232              	.LFE1101:
 235              	_ZL5derefPKv:
 236              	.LFB1102:
  47:testCore.cpp  **** }
  48:testCore.cpp  **** 
  49:testCore.cpp  **** static inline uint32 deref(Item p) {
 237              		.loc 3 49 0
 238              		.cfi_startproc
 239 008a 55       		pushq	%rbp
 240              		.cfi_def_cfa_offset 16
 241              		.cfi_offset 6, -16
 242 008b 4889E5   		movq	%rsp, %rbp
 243              		.cfi_def_cfa_register 6
 244 008e 48897DF8 		movq	%rdi, -8(%rbp)
  50:testCore.cpp  **** 	return *((const uint32 *)p);
 245              		.loc 3 50 0
 246 0092 488B45F8 		movq	-8(%rbp), %rax
 247 0096 8B00     		movl	(%rax), %eax
  51:testCore.cpp  **** }
 248              		.loc 3 51 0
 249 0098 5D       		popq	%rbp
 250              		.cfi_def_cfa 7, 8
 251 0099 C3       		ret
 252              		.cfi_endproc
 253              	.LFE1102:
 255              		.section	.rodata
 256              	.LC1:
 257 000d 74657374 		.string	"testCore.cpp"
 257      436F7265 
 257      2E637070 
 257      00
 258              	.LC2:
 259 001a 51756575 		.string	"Queue_testInit"
 259      655F7465 
 259      7374496E 
 259      697400
 260              		.section	.text._ZN18TestQueue_testInitC2Ev,"axG",@progbits,_ZN18TestQueue_testInitC5Ev,comdat
 261              		.align 2
 262              		.weak	_ZN18TestQueue_testInitC2Ev
 264              	_ZN18TestQueue_testInitC2Ev:
 265              	.LFB1104:
  52:testCore.cpp  **** 
  53:testCore.cpp  **** TEST(Queue_testInit) {
 266              		.loc 3 53 0
 267              		.cfi_startproc
 268 0000 55       		pushq	%rbp
 269              		.cfi_def_cfa_offset 16
 270              		.cfi_offset 6, -16
 271 0001 4889E5   		movq	%rsp, %rbp
 272              		.cfi_def_cfa_register 6
 273 0004 53       		pushq	%rbx
 274 0005 4883EC18 		subq	$24, %rsp
 275              		.cfi_offset 3, -24
 276 0009 48897DE8 		movq	%rdi, -24(%rbp)
 277              	.LBB4:
 278              		.loc 3 53 0
 279 000d 488B5DE8 		movq	-24(%rbp), %rbx
 280 0011 E8000000 		call	_ZN13UnitTestSuite12GetSuiteNameEv
 280      00
 281 0016 41B83500 		movl	$53, %r8d
 281      0000
 282 001c 488D0D00 		leaq	.LC1(%rip), %rcx
 282      000000
 283 0023 4889C2   		movq	%rax, %rdx
 284 0026 488D3500 		leaq	.LC2(%rip), %rsi
 284      000000
 285 002d 4889DF   		movq	%rbx, %rdi
 286 0030 E8000000 		call	_ZN8UnitTest4TestC2EPKcS2_S2_i@PLT
 286      00
 287 0035 488D1500 		leaq	16+_ZTV18TestQueue_testInit(%rip), %rdx
 287      000000
 288 003c 488B45E8 		movq	-24(%rbp), %rax
 289 0040 488910   		movq	%rdx, (%rax)
 290              	.LBE4:
 291 0043 90       		nop
 292 0044 4883C418 		addq	$24, %rsp
 293 0048 5B       		popq	%rbx
 294 0049 5D       		popq	%rbp
 295              		.cfi_def_cfa 7, 8
 296 004a C3       		ret
 297              		.cfi_endproc
 298              	.LFE1104:
 300              		.weak	_ZN18TestQueue_testInitC1Ev
 301              		.set	_ZN18TestQueue_testInitC1Ev,_ZN18TestQueue_testInitC2Ev
 302              		.globl	testQueue_testInitInstance
 303              		.bss
 304              		.align 32
 307              	testQueue_testInitInstance:
 308 0000 00000000 		.zero	56
 308      00000000 
 308      00000000 
 308      00000000 
 308      00000000 
 309              		.globl	adderQueue_testInit
 312              	adderQueue_testInit:
 313 0038 00       		.zero	1
 314              		.section	.rodata
 315 0029 00000000 		.align 8
 315      000000
 316              	.LC3:
 317 0030 556E6861 		.string	"Unhandled exception in CHECK_EQUAL(USB_SUCCESS, status)"
 317      6E646C65 
 317      64206578 
 317      63657074 
 317      696F6E20 
 318              		.align 8
 319              	.LC4:
 320 0068 556E6861 		.string	"Unhandled exception in CHECK_EQUAL(4UL, queue.capacity)"
 320      6E646C65 
 320      64206578 
 320      63657074 
 320      696F6E20 
 321              		.align 8
 322              	.LC5:
 323 00a0 556E6861 		.string	"Unhandled exception in CHECK_EQUAL(0UL, queue.putIndex)"
 323      6E646C65 
 323      64206578 
 323      63657074 
 323      696F6E20 
 324              		.align 8
 325              	.LC6:
 326 00d8 556E6861 		.string	"Unhandled exception in CHECK_EQUAL(0UL, queue.takeIndex)"
 326      6E646C65 
 326      64206578 
 326      63657074 
 326      696F6E20 
 327 0111 00000000 		.align 8
 327      000000
 328              	.LC7:
 329 0118 556E6861 		.string	"Unhandled exception in CHECK_EQUAL(0UL, queue.numItems)"
 329      6E646C65 
 329      64206578 
 329      63657074 
 329      696F6E20 
 330              		.align 8
 331              	.LC8:
 332 0150 556E6861 		.string	"Unhandled exception in CHECK_EQUAL(1UL, deref(queue.itemArray[0]))"
 332      6E646C65 
 332      64206578 
 332      63657074 
 332      696F6E20 
 333 0193 00000000 		.align 8
 333      00
 334              	.LC9:
 335 0198 556E6861 		.string	"Unhandled exception in CHECK_EQUAL(2UL, deref(queue.itemArray[1]))"
 335      6E646C65 
 335      64206578 
 335      63657074 
 335      696F6E20 
 336 01db 00000000 		.align 8
 336      00
 337              	.LC10:
 338 01e0 556E6861 		.string	"Unhandled exception in CHECK_EQUAL(3UL, deref(queue.itemArray[2]))"
 338      6E646C65 
 338      64206578 
 338      63657074 
 338      696F6E20 
 339 0223 00000000 		.align 8
 339      00
 340              	.LC11:
 341 0228 556E6861 		.string	"Unhandled exception in CHECK_EQUAL(4UL, deref(queue.itemArray[3]))"
 341      6E646C65 
 341      64206578 
 341      63657074 
 341      696F6E20 
 342              		.text
 343              		.align 2
 344              		.globl	_ZNK18TestQueue_testInit7RunImplEv
 346              	_ZNK18TestQueue_testInit7RunImplEv:
 347              	.LFB1106:
 348              		.loc 3 53 0
 349              		.cfi_startproc
 350              		.cfi_personality 0x9b,DW.ref.__gxx_personality_v0
 351              		.cfi_lsda 0x1b,.LLSDA1106
 352 009a 55       		pushq	%rbp
 353              		.cfi_def_cfa_offset 16
 354              		.cfi_offset 6, -16
 355 009b 4889E5   		movq	%rsp, %rbp
 356              		.cfi_def_cfa_register 6
 357 009e 53       		pushq	%rbx
 358 009f 4881EC88 		subq	$136, %rsp
 358      000000
 359              		.cfi_offset 3, -24
 360 00a6 4889BD78 		movq	%rdi, -136(%rbp)
 360      FFFFFF
 361              		.loc 3 53 0
 362 00ad 64488B04 		movq	%fs:40, %rax
 362      25280000 
 362      00
 363 00b6 488945E8 		movq	%rax, -24(%rbp)
 364 00ba 31C0     		xorl	%eax, %eax
  54:testCore.cpp  **** 	struct UnboundedQueue queue;
  55:testCore.cpp  **** 	m_count = 1;
 365              		.loc 3 55 0
 366 00bc C7050000 		movl	$1, _ZL7m_count(%rip)
 366      00000100 
 366      0000
  56:testCore.cpp  **** 
  57:testCore.cpp  **** 	// Create queue
  58:testCore.cpp  **** 	USBStatus status = queueInit(&queue, 4, (CreateFunc)createInt, (DestroyFunc)destroyInt);
 367              		.loc 3 58 0
 368 00c6 488D45B0 		leaq	-80(%rbp), %rax
 369 00ca 488D0D00 		leaq	destroyInt(%rip), %rcx
 369      000000
 370 00d1 488D1500 		leaq	createInt(%rip), %rdx
 370      000000
 371 00d8 BE040000 		movl	$4, %esi
 371      00
 372 00dd 4889C7   		movq	%rax, %rdi
 373              	.LEHB4:
 374 00e0 E8000000 		call	queueInit@PLT
 374      00
 375              	.LEHE4:
 376 00e5 894580   		movl	%eax, -128(%rbp)
 377              	.LEHB5:
  59:testCore.cpp  **** 	CHECK_EQUAL(USB_SUCCESS, status);
 378              		.loc 3 59 0
 379 00e8 E8000000 		call	_ZN8UnitTest11CurrentTest7DetailsEv@PLT
 379      00
 380 00ed 488B08   		movq	(%rax), %rcx
 381 00f0 488D4590 		leaq	-112(%rbp), %rax
 382 00f4 BA3B0000 		movl	$59, %edx
 382      00
 383 00f9 4889CE   		movq	%rcx, %rsi
 384 00fc 4889C7   		movq	%rax, %rdi
 385 00ff E8000000 		call	_ZN8UnitTest11TestDetailsC1ERKS0_i@PLT
 385      00
 386              	.LEHE5:
 387              		.loc 3 59 0 is_stmt 0 discriminator 2
 388 0104 C7458800 		movl	$0, -120(%rbp)
 388      000000
 389              	.LEHB6:
 390 010b E8000000 		call	_ZN8UnitTest11CurrentTest7ResultsEv@PLT
 390      00
 391 0110 488B00   		movq	(%rax), %rax
 392 0113 488D4D90 		leaq	-112(%rbp), %rcx
 393 0117 488D5580 		leaq	-128(%rbp), %rdx
 394 011b 488D7588 		leaq	-120(%rbp), %rsi
 395 011f 4889C7   		movq	%rax, %rdi
 396 0122 E8000000 		call	_ZN8UnitTest10CheckEqualI9USBStatusS1_EEvRNS_11TestResultsERKT_RKT0_RKNS_11TestDetailsE
 396      00
 397              	.LEHE6:
 398              	.L23:
 399              	.LEHB7:
  60:testCore.cpp  **** 
  61:testCore.cpp  **** 	// Verify
  62:testCore.cpp  **** 	CHECK_EQUAL(4UL, queue.capacity);
 400              		.loc 3 62 0 is_stmt 1
 401 0127 E8000000 		call	_ZN8UnitTest11CurrentTest7DetailsEv@PLT
 401      00
 402 012c 488B08   		movq	(%rax), %rcx
 403 012f 488D4590 		leaq	-112(%rbp), %rax
 404 0133 BA3E0000 		movl	$62, %edx
 404      00
 405 0138 4889CE   		movq	%rcx, %rsi
 406 013b 4889C7   		movq	%rax, %rdi
 407 013e E8000000 		call	_ZN8UnitTest11TestDetailsC1ERKS0_i@PLT
 407      00
 408              	.LEHE7:
 409              		.loc 3 62 0 is_stmt 0 discriminator 2
 410 0143 48C74588 		movq	$4, -120(%rbp)
 410      04000000 
 411              	.LEHB8:
 412 014b E8000000 		call	_ZN8UnitTest11CurrentTest7ResultsEv@PLT
 412      00
 413 0150 488B00   		movq	(%rax), %rax
 414 0153 488D5590 		leaq	-112(%rbp), %rdx
 415 0157 488D4DB0 		leaq	-80(%rbp), %rcx
 416 015b 488D7908 		leaq	8(%rcx), %rdi
 417 015f 488D7588 		leaq	-120(%rbp), %rsi
 418 0163 4889D1   		movq	%rdx, %rcx
 419 0166 4889FA   		movq	%rdi, %rdx
 420 0169 4889C7   		movq	%rax, %rdi
 421 016c E8000000 		call	_ZN8UnitTest10CheckEqualImmEEvRNS_11TestResultsERKT_RKT0_RKNS_11TestDetailsE
 421      00
 422              	.LEHE8:
 423              	.L27:
 424              	.LEHB9:
  63:testCore.cpp  **** 	CHECK_EQUAL(0UL, queue.putIndex);
 425              		.loc 3 63 0 is_stmt 1
 426 0171 E8000000 		call	_ZN8UnitTest11CurrentTest7DetailsEv@PLT
 426      00
 427 0176 488B08   		movq	(%rax), %rcx
 428 0179 488D4590 		leaq	-112(%rbp), %rax
 429 017d BA3F0000 		movl	$63, %edx
 429      00
 430 0182 4889CE   		movq	%rcx, %rsi
 431 0185 4889C7   		movq	%rax, %rdi
 432 0188 E8000000 		call	_ZN8UnitTest11TestDetailsC1ERKS0_i@PLT
 432      00
 433              	.LEHE9:
 434              		.loc 3 63 0 is_stmt 0 discriminator 2
 435 018d 48C74588 		movq	$0, -120(%rbp)
 435      00000000 
 436              	.LEHB10:
 437 0195 E8000000 		call	_ZN8UnitTest11CurrentTest7ResultsEv@PLT
 437      00
 438 019a 488B00   		movq	(%rax), %rax
 439 019d 488D5590 		leaq	-112(%rbp), %rdx
 440 01a1 488D4DB0 		leaq	-80(%rbp), %rcx
 441 01a5 488D7910 		leaq	16(%rcx), %rdi
 442 01a9 488D7588 		leaq	-120(%rbp), %rsi
 443 01ad 4889D1   		movq	%rdx, %rcx
 444 01b0 4889FA   		movq	%rdi, %rdx
 445 01b3 4889C7   		movq	%rax, %rdi
 446 01b6 E8000000 		call	_ZN8UnitTest10CheckEqualImmEEvRNS_11TestResultsERKT_RKT0_RKNS_11TestDetailsE
 446      00
 447              	.LEHE10:
 448              	.L31:
 449              	.LEHB11:
  64:testCore.cpp  **** 	CHECK_EQUAL(0UL, queue.takeIndex);
 450              		.loc 3 64 0 is_stmt 1
 451 01bb E8000000 		call	_ZN8UnitTest11CurrentTest7DetailsEv@PLT
 451      00
 452 01c0 488B08   		movq	(%rax), %rcx
 453 01c3 488D4590 		leaq	-112(%rbp), %rax
 454 01c7 BA400000 		movl	$64, %edx
 454      00
 455 01cc 4889CE   		movq	%rcx, %rsi
 456 01cf 4889C7   		movq	%rax, %rdi
 457 01d2 E8000000 		call	_ZN8UnitTest11TestDetailsC1ERKS0_i@PLT
 457      00
 458              	.LEHE11:
 459              		.loc 3 64 0 is_stmt 0 discriminator 2
 460 01d7 48C74588 		movq	$0, -120(%rbp)
 460      00000000 
 461              	.LEHB12:
 462 01df E8000000 		call	_ZN8UnitTest11CurrentTest7ResultsEv@PLT
 462      00
 463 01e4 488B00   		movq	(%rax), %rax
 464 01e7 488D5590 		leaq	-112(%rbp), %rdx
 465 01eb 488D4DB0 		leaq	-80(%rbp), %rcx
 466 01ef 488D7918 		leaq	24(%rcx), %rdi
 467 01f3 488D7588 		leaq	-120(%rbp), %rsi
 468 01f7 4889D1   		movq	%rdx, %rcx
 469 01fa 4889FA   		movq	%rdi, %rdx
 470 01fd 4889C7   		movq	%rax, %rdi
 471 0200 E8000000 		call	_ZN8UnitTest10CheckEqualImmEEvRNS_11TestResultsERKT_RKT0_RKNS_11TestDetailsE
 471      00
 472              	.LEHE12:
 473              	.L35:
 474              	.LEHB13:
  65:testCore.cpp  **** 	CHECK_EQUAL(0UL, queue.numItems);
 475              		.loc 3 65 0 is_stmt 1
 476 0205 E8000000 		call	_ZN8UnitTest11CurrentTest7DetailsEv@PLT
 476      00
 477 020a 488B08   		movq	(%rax), %rcx
 478 020d 488D4590 		leaq	-112(%rbp), %rax
 479 0211 BA410000 		movl	$65, %edx
 479      00
 480 0216 4889CE   		movq	%rcx, %rsi
 481 0219 4889C7   		movq	%rax, %rdi
 482 021c E8000000 		call	_ZN8UnitTest11TestDetailsC1ERKS0_i@PLT
 482      00
 483              	.LEHE13:
 484              		.loc 3 65 0 is_stmt 0 discriminator 2
 485 0221 48C74588 		movq	$0, -120(%rbp)
 485      00000000 
 486              	.LEHB14:
 487 0229 E8000000 		call	_ZN8UnitTest11CurrentTest7ResultsEv@PLT
 487      00
 488 022e 488B00   		movq	(%rax), %rax
 489 0231 488D5590 		leaq	-112(%rbp), %rdx
 490 0235 488D4DB0 		leaq	-80(%rbp), %rcx
 491 0239 488D7920 		leaq	32(%rcx), %rdi
 492 023d 488D7588 		leaq	-120(%rbp), %rsi
 493 0241 4889D1   		movq	%rdx, %rcx
 494 0244 4889FA   		movq	%rdi, %rdx
 495 0247 4889C7   		movq	%rax, %rdi
 496 024a E8000000 		call	_ZN8UnitTest10CheckEqualImmEEvRNS_11TestResultsERKT_RKT0_RKNS_11TestDetailsE
 496      00
 497              	.LEHE14:
 498              	.L39:
 499              	.LEHB15:
  66:testCore.cpp  **** 
  67:testCore.cpp  **** 	// Verify array
  68:testCore.cpp  **** 	CHECK_EQUAL(1UL, deref(queue.itemArray[0]));
 500              		.loc 3 68 0 is_stmt 1
 501 024f E8000000 		call	_ZN8UnitTest11CurrentTest7DetailsEv@PLT
 501      00
 502 0254 488B08   		movq	(%rax), %rcx
 503 0257 488D4590 		leaq	-112(%rbp), %rax
 504 025b BA440000 		movl	$68, %edx
 504      00
 505 0260 4889CE   		movq	%rcx, %rsi
 506 0263 4889C7   		movq	%rax, %rdi
 507 0266 E8000000 		call	_ZN8UnitTest11TestDetailsC1ERKS0_i@PLT
 507      00
 508              	.LEHE15:
 509              		.loc 3 68 0 is_stmt 0 discriminator 2
 510 026b 488B45B0 		movq	-80(%rbp), %rax
 511 026f 488B00   		movq	(%rax), %rax
 512 0272 4889C7   		movq	%rax, %rdi
 513 0275 E810FEFF 		call	_ZL5derefPKv
 513      FF
 514 027a 894584   		movl	%eax, -124(%rbp)
 515 027d 48C74588 		movq	$1, -120(%rbp)
 515      01000000 
 516              	.LEHB16:
 517 0285 E8000000 		call	_ZN8UnitTest11CurrentTest7ResultsEv@PLT
 517      00
 518 028a 488B00   		movq	(%rax), %rax
 519 028d 488D4D90 		leaq	-112(%rbp), %rcx
 520 0291 488D5584 		leaq	-124(%rbp), %rdx
 521 0295 488D7588 		leaq	-120(%rbp), %rsi
 522 0299 4889C7   		movq	%rax, %rdi
 523 029c E8000000 		call	_ZN8UnitTest10CheckEqualImjEEvRNS_11TestResultsERKT_RKT0_RKNS_11TestDetailsE
 523      00
 524              	.LEHE16:
 525              	.L43:
 526              	.LEHB17:
  69:testCore.cpp  **** 	CHECK_EQUAL(2UL, deref(queue.itemArray[1]));
 527              		.loc 3 69 0 is_stmt 1
 528 02a1 E8000000 		call	_ZN8UnitTest11CurrentTest7DetailsEv@PLT
 528      00
 529 02a6 488B08   		movq	(%rax), %rcx
 530 02a9 488D4590 		leaq	-112(%rbp), %rax
 531 02ad BA450000 		movl	$69, %edx
 531      00
 532 02b2 4889CE   		movq	%rcx, %rsi
 533 02b5 4889C7   		movq	%rax, %rdi
 534 02b8 E8000000 		call	_ZN8UnitTest11TestDetailsC1ERKS0_i@PLT
 534      00
 535              	.LEHE17:
 536              		.loc 3 69 0 is_stmt 0 discriminator 2
 537 02bd 488B45B0 		movq	-80(%rbp), %rax
 538 02c1 4883C008 		addq	$8, %rax
 539 02c5 488B00   		movq	(%rax), %rax
 540 02c8 4889C7   		movq	%rax, %rdi
 541 02cb E8BAFDFF 		call	_ZL5derefPKv
 541      FF
 542 02d0 894584   		movl	%eax, -124(%rbp)
 543 02d3 48C74588 		movq	$2, -120(%rbp)
 543      02000000 
 544              	.LEHB18:
 545 02db E8000000 		call	_ZN8UnitTest11CurrentTest7ResultsEv@PLT
 545      00
 546 02e0 488B00   		movq	(%rax), %rax
 547 02e3 488D4D90 		leaq	-112(%rbp), %rcx
 548 02e7 488D5584 		leaq	-124(%rbp), %rdx
 549 02eb 488D7588 		leaq	-120(%rbp), %rsi
 550 02ef 4889C7   		movq	%rax, %rdi
 551 02f2 E8000000 		call	_ZN8UnitTest10CheckEqualImjEEvRNS_11TestResultsERKT_RKT0_RKNS_11TestDetailsE
 551      00
 552              	.LEHE18:
 553              	.L47:
 554              	.LEHB19:
  70:testCore.cpp  **** 	CHECK_EQUAL(3UL, deref(queue.itemArray[2]));
 555              		.loc 3 70 0 is_stmt 1
 556 02f7 E8000000 		call	_ZN8UnitTest11CurrentTest7DetailsEv@PLT
 556      00
 557 02fc 488B08   		movq	(%rax), %rcx
 558 02ff 488D4590 		leaq	-112(%rbp), %rax
 559 0303 BA460000 		movl	$70, %edx
 559      00
 560 0308 4889CE   		movq	%rcx, %rsi
 561 030b 4889C7   		movq	%rax, %rdi
 562 030e E8000000 		call	_ZN8UnitTest11TestDetailsC1ERKS0_i@PLT
 562      00
 563              	.LEHE19:
 564              		.loc 3 70 0 is_stmt 0 discriminator 2
 565 0313 488B45B0 		movq	-80(%rbp), %rax
 566 0317 4883C010 		addq	$16, %rax
 567 031b 488B00   		movq	(%rax), %rax
 568 031e 4889C7   		movq	%rax, %rdi
 569 0321 E864FDFF 		call	_ZL5derefPKv
 569      FF
 570 0326 894584   		movl	%eax, -124(%rbp)
 571 0329 48C74588 		movq	$3, -120(%rbp)
 571      03000000 
 572              	.LEHB20:
 573 0331 E8000000 		call	_ZN8UnitTest11CurrentTest7ResultsEv@PLT
 573      00
 574 0336 488B00   		movq	(%rax), %rax
 575 0339 488D4D90 		leaq	-112(%rbp), %rcx
 576 033d 488D5584 		leaq	-124(%rbp), %rdx
 577 0341 488D7588 		leaq	-120(%rbp), %rsi
 578 0345 4889C7   		movq	%rax, %rdi
 579 0348 E8000000 		call	_ZN8UnitTest10CheckEqualImjEEvRNS_11TestResultsERKT_RKT0_RKNS_11TestDetailsE
 579      00
 580              	.LEHE20:
 581              	.L51:
 582              	.LEHB21:
  71:testCore.cpp  **** 	CHECK_EQUAL(4UL, deref(queue.itemArray[3]));
 583              		.loc 3 71 0 is_stmt 1
 584 034d E8000000 		call	_ZN8UnitTest11CurrentTest7DetailsEv@PLT
 584      00
 585 0352 488B08   		movq	(%rax), %rcx
 586 0355 488D4590 		leaq	-112(%rbp), %rax
 587 0359 BA470000 		movl	$71, %edx
 587      00
 588 035e 4889CE   		movq	%rcx, %rsi
 589 0361 4889C7   		movq	%rax, %rdi
 590 0364 E8000000 		call	_ZN8UnitTest11TestDetailsC1ERKS0_i@PLT
 590      00
 591              	.LEHE21:
 592              		.loc 3 71 0 is_stmt 0 discriminator 2
 593 0369 488B45B0 		movq	-80(%rbp), %rax
 594 036d 4883C018 		addq	$24, %rax
 595 0371 488B00   		movq	(%rax), %rax
 596 0374 4889C7   		movq	%rax, %rdi
 597 0377 E80EFDFF 		call	_ZL5derefPKv
 597      FF
 598 037c 894584   		movl	%eax, -124(%rbp)
 599 037f 48C74588 		movq	$4, -120(%rbp)
 599      04000000 
 600              	.LEHB22:
 601 0387 E8000000 		call	_ZN8UnitTest11CurrentTest7ResultsEv@PLT
 601      00
 602 038c 488B00   		movq	(%rax), %rax
 603 038f 488D4D90 		leaq	-112(%rbp), %rcx
 604 0393 488D5584 		leaq	-124(%rbp), %rdx
 605 0397 488D7588 		leaq	-120(%rbp), %rsi
 606 039b 4889C7   		movq	%rax, %rdi
 607 039e E8000000 		call	_ZN8UnitTest10CheckEqualImjEEvRNS_11TestResultsERKT_RKT0_RKNS_11TestDetailsE
 607      00
 608              	.LEHE22:
 609              	.L55:
  72:testCore.cpp  **** 
  73:testCore.cpp  **** 	// Clean up
  74:testCore.cpp  **** 	queueDestroy(&queue);
 610              		.loc 3 74 0 is_stmt 1
 611 03a3 488D45B0 		leaq	-80(%rbp), %rax
 612 03a7 4889C7   		movq	%rax, %rdi
 613              	.LEHB23:
 614 03aa E8000000 		call	queueDestroy@PLT
 614      00
 615              	.LEHE23:
  75:testCore.cpp  **** }
 616              		.loc 3 75 0
 617 03af 90       		nop
 618 03b0 488B45E8 		movq	-24(%rbp), %rax
 619 03b4 64483304 		xorq	%fs:40, %rax
 619      25280000 
 619      00
 620 03bd 0F847303 		je	.L57
 620      0000
 621 03c3 E9690300 		jmp	.L85
 621      00
 622              	.L59:
 623 03c8 EB00     		jmp	.L22
 624              	.L58:
 625              	.L22:
  59:testCore.cpp  **** 
 626              		.loc 3 59 0
 627 03ca 4889C7   		movq	%rax, %rdi
 628 03cd E8000000 		call	__cxa_begin_catch@PLT
 628      00
 629              	.LEHB24:
 630 03d2 E8000000 		call	_ZN8UnitTest11CurrentTest7ResultsEv@PLT
 630      00
 631 03d7 488B18   		movq	(%rax), %rbx
 632 03da E8000000 		call	_ZN8UnitTest11CurrentTest7DetailsEv@PLT
 632      00
  59:testCore.cpp  **** 
 633              		.loc 3 59 0 is_stmt 0 discriminator 8
 634 03df 488B08   		movq	(%rax), %rcx
 635 03e2 488D4590 		leaq	-112(%rbp), %rax
 636 03e6 BA3B0000 		movl	$59, %edx
 636      00
 637 03eb 4889CE   		movq	%rcx, %rsi
 638 03ee 4889C7   		movq	%rax, %rdi
 639 03f1 E8000000 		call	_ZN8UnitTest11TestDetailsC1ERKS0_i@PLT
 639      00
  59:testCore.cpp  **** 
 640              		.loc 3 59 0 discriminator 12
 641 03f6 488D4590 		leaq	-112(%rbp), %rax
 642 03fa 488D1500 		leaq	.LC3(%rip), %rdx
 642      000000
 643 0401 4889C6   		movq	%rax, %rsi
 644 0404 4889DF   		movq	%rbx, %rdi
 645 0407 E8000000 		call	_ZN8UnitTest11TestResults13OnTestFailureERKNS_11TestDetailsEPKc@PLT
 645      00
 646              	.LEHE24:
 647              	.LEHB25:
  59:testCore.cpp  **** 
 648              		.loc 3 59 0 discriminator 14
 649 040c E8000000 		call	__cxa_end_catch@PLT
 649      00
 650              	.LEHE25:
 651 0411 E911FDFF 		jmp	.L23
 651      FF
 652              	.L60:
 653 0416 4889C3   		movq	%rax, %rbx
  59:testCore.cpp  **** 
 654              		.loc 3 59 0
 655 0419 E8000000 		call	__cxa_end_catch@PLT
 655      00
 656 041e 4889D8   		movq	%rbx, %rax
 657 0421 4889C7   		movq	%rax, %rdi
 658              	.LEHB26:
 659 0424 E8000000 		call	_Unwind_Resume@PLT
 659      00
 660              	.LEHE26:
 661              	.L62:
 662 0429 EB00     		jmp	.L26
 663              	.L61:
 664              	.L26:
  62:testCore.cpp  **** 	CHECK_EQUAL(0UL, queue.putIndex);
 665              		.loc 3 62 0 is_stmt 1
 666 042b 4889C7   		movq	%rax, %rdi
 667 042e E8000000 		call	__cxa_begin_catch@PLT
 667      00
 668              	.LEHB27:
 669 0433 E8000000 		call	_ZN8UnitTest11CurrentTest7ResultsEv@PLT
 669      00
 670 0438 488B18   		movq	(%rax), %rbx
 671 043b E8000000 		call	_ZN8UnitTest11CurrentTest7DetailsEv@PLT
 671      00
  62:testCore.cpp  **** 	CHECK_EQUAL(0UL, queue.putIndex);
 672              		.loc 3 62 0 is_stmt 0 discriminator 8
 673 0440 488B08   		movq	(%rax), %rcx
 674 0443 488D4590 		leaq	-112(%rbp), %rax
 675 0447 BA3E0000 		movl	$62, %edx
 675      00
 676 044c 4889CE   		movq	%rcx, %rsi
 677 044f 4889C7   		movq	%rax, %rdi
 678 0452 E8000000 		call	_ZN8UnitTest11TestDetailsC1ERKS0_i@PLT
 678      00
  62:testCore.cpp  **** 	CHECK_EQUAL(0UL, queue.putIndex);
 679              		.loc 3 62 0 discriminator 12
 680 0457 488D4590 		leaq	-112(%rbp), %rax
 681 045b 488D1500 		leaq	.LC4(%rip), %rdx
 681      000000
 682 0462 4889C6   		movq	%rax, %rsi
 683 0465 4889DF   		movq	%rbx, %rdi
 684 0468 E8000000 		call	_ZN8UnitTest11TestResults13OnTestFailureERKNS_11TestDetailsEPKc@PLT
 684      00
 685              	.LEHE27:
 686              	.LEHB28:
  62:testCore.cpp  **** 	CHECK_EQUAL(0UL, queue.putIndex);
 687              		.loc 3 62 0 discriminator 14
 688 046d E8000000 		call	__cxa_end_catch@PLT
 688      00
 689              	.LEHE28:
 690 0472 E9FAFCFF 		jmp	.L27
 690      FF
 691              	.L63:
 692 0477 4889C3   		movq	%rax, %rbx
  62:testCore.cpp  **** 	CHECK_EQUAL(0UL, queue.putIndex);
 693              		.loc 3 62 0
 694 047a E8000000 		call	__cxa_end_catch@PLT
 694      00
 695 047f 4889D8   		movq	%rbx, %rax
 696 0482 4889C7   		movq	%rax, %rdi
 697              	.LEHB29:
 698 0485 E8000000 		call	_Unwind_Resume@PLT
 698      00
 699              	.LEHE29:
 700              	.L65:
 701 048a EB00     		jmp	.L30
 702              	.L64:
 703              	.L30:
  63:testCore.cpp  **** 	CHECK_EQUAL(0UL, queue.takeIndex);
 704              		.loc 3 63 0 is_stmt 1
 705 048c 4889C7   		movq	%rax, %rdi
 706 048f E8000000 		call	__cxa_begin_catch@PLT
 706      00
 707              	.LEHB30:
 708 0494 E8000000 		call	_ZN8UnitTest11CurrentTest7ResultsEv@PLT
 708      00
 709 0499 488B18   		movq	(%rax), %rbx
 710 049c E8000000 		call	_ZN8UnitTest11CurrentTest7DetailsEv@PLT
 710      00
  63:testCore.cpp  **** 	CHECK_EQUAL(0UL, queue.takeIndex);
 711              		.loc 3 63 0 is_stmt 0 discriminator 8
 712 04a1 488B08   		movq	(%rax), %rcx
 713 04a4 488D4590 		leaq	-112(%rbp), %rax
 714 04a8 BA3F0000 		movl	$63, %edx
 714      00
 715 04ad 4889CE   		movq	%rcx, %rsi
 716 04b0 4889C7   		movq	%rax, %rdi
 717 04b3 E8000000 		call	_ZN8UnitTest11TestDetailsC1ERKS0_i@PLT
 717      00
  63:testCore.cpp  **** 	CHECK_EQUAL(0UL, queue.takeIndex);
 718              		.loc 3 63 0 discriminator 12
 719 04b8 488D4590 		leaq	-112(%rbp), %rax
 720 04bc 488D1500 		leaq	.LC5(%rip), %rdx
 720      000000
 721 04c3 4889C6   		movq	%rax, %rsi
 722 04c6 4889DF   		movq	%rbx, %rdi
 723 04c9 E8000000 		call	_ZN8UnitTest11TestResults13OnTestFailureERKNS_11TestDetailsEPKc@PLT
 723      00
 724              	.LEHE30:
 725              	.LEHB31:
  63:testCore.cpp  **** 	CHECK_EQUAL(0UL, queue.takeIndex);
 726              		.loc 3 63 0 discriminator 14
 727 04ce E8000000 		call	__cxa_end_catch@PLT
 727      00
 728              	.LEHE31:
 729 04d3 E9E3FCFF 		jmp	.L31
 729      FF
 730              	.L66:
 731 04d8 4889C3   		movq	%rax, %rbx
  63:testCore.cpp  **** 	CHECK_EQUAL(0UL, queue.takeIndex);
 732              		.loc 3 63 0
 733 04db E8000000 		call	__cxa_end_catch@PLT
 733      00
 734 04e0 4889D8   		movq	%rbx, %rax
 735 04e3 4889C7   		movq	%rax, %rdi
 736              	.LEHB32:
 737 04e6 E8000000 		call	_Unwind_Resume@PLT
 737      00
 738              	.LEHE32:
 739              	.L68:
 740 04eb EB00     		jmp	.L34
 741              	.L67:
 742              	.L34:
  64:testCore.cpp  **** 	CHECK_EQUAL(0UL, queue.numItems);
 743              		.loc 3 64 0 is_stmt 1
 744 04ed 4889C7   		movq	%rax, %rdi
 745 04f0 E8000000 		call	__cxa_begin_catch@PLT
 745      00
 746              	.LEHB33:
 747 04f5 E8000000 		call	_ZN8UnitTest11CurrentTest7ResultsEv@PLT
 747      00
 748 04fa 488B18   		movq	(%rax), %rbx
 749 04fd E8000000 		call	_ZN8UnitTest11CurrentTest7DetailsEv@PLT
 749      00
  64:testCore.cpp  **** 	CHECK_EQUAL(0UL, queue.numItems);
 750              		.loc 3 64 0 is_stmt 0 discriminator 8
 751 0502 488B08   		movq	(%rax), %rcx
 752 0505 488D4590 		leaq	-112(%rbp), %rax
 753 0509 BA400000 		movl	$64, %edx
 753      00
 754 050e 4889CE   		movq	%rcx, %rsi
 755 0511 4889C7   		movq	%rax, %rdi
 756 0514 E8000000 		call	_ZN8UnitTest11TestDetailsC1ERKS0_i@PLT
 756      00
  64:testCore.cpp  **** 	CHECK_EQUAL(0UL, queue.numItems);
 757              		.loc 3 64 0 discriminator 12
 758 0519 488D4590 		leaq	-112(%rbp), %rax
 759 051d 488D1500 		leaq	.LC6(%rip), %rdx
 759      000000
 760 0524 4889C6   		movq	%rax, %rsi
 761 0527 4889DF   		movq	%rbx, %rdi
 762 052a E8000000 		call	_ZN8UnitTest11TestResults13OnTestFailureERKNS_11TestDetailsEPKc@PLT
 762      00
 763              	.LEHE33:
 764              	.LEHB34:
  64:testCore.cpp  **** 	CHECK_EQUAL(0UL, queue.numItems);
 765              		.loc 3 64 0 discriminator 14
 766 052f E8000000 		call	__cxa_end_catch@PLT
 766      00
 767              	.LEHE34:
 768 0534 E9CCFCFF 		jmp	.L35
 768      FF
 769              	.L69:
 770 0539 4889C3   		movq	%rax, %rbx
  64:testCore.cpp  **** 	CHECK_EQUAL(0UL, queue.numItems);
 771              		.loc 3 64 0
 772 053c E8000000 		call	__cxa_end_catch@PLT
 772      00
 773 0541 4889D8   		movq	%rbx, %rax
 774 0544 4889C7   		movq	%rax, %rdi
 775              	.LEHB35:
 776 0547 E8000000 		call	_Unwind_Resume@PLT
 776      00
 777              	.LEHE35:
 778              	.L71:
 779 054c EB00     		jmp	.L38
 780              	.L70:
 781              	.L38:
  65:testCore.cpp  **** 
 782              		.loc 3 65 0 is_stmt 1
 783 054e 4889C7   		movq	%rax, %rdi
 784 0551 E8000000 		call	__cxa_begin_catch@PLT
 784      00
 785              	.LEHB36:
 786 0556 E8000000 		call	_ZN8UnitTest11CurrentTest7ResultsEv@PLT
 786      00
 787 055b 488B18   		movq	(%rax), %rbx
 788 055e E8000000 		call	_ZN8UnitTest11CurrentTest7DetailsEv@PLT
 788      00
  65:testCore.cpp  **** 
 789              		.loc 3 65 0 is_stmt 0 discriminator 8
 790 0563 488B08   		movq	(%rax), %rcx
 791 0566 488D4590 		leaq	-112(%rbp), %rax
 792 056a BA410000 		movl	$65, %edx
 792      00
 793 056f 4889CE   		movq	%rcx, %rsi
 794 0572 4889C7   		movq	%rax, %rdi
 795 0575 E8000000 		call	_ZN8UnitTest11TestDetailsC1ERKS0_i@PLT
 795      00
  65:testCore.cpp  **** 
 796              		.loc 3 65 0 discriminator 12
 797 057a 488D4590 		leaq	-112(%rbp), %rax
 798 057e 488D1500 		leaq	.LC7(%rip), %rdx
 798      000000
 799 0585 4889C6   		movq	%rax, %rsi
 800 0588 4889DF   		movq	%rbx, %rdi
 801 058b E8000000 		call	_ZN8UnitTest11TestResults13OnTestFailureERKNS_11TestDetailsEPKc@PLT
 801      00
 802              	.LEHE36:
 803              	.LEHB37:
  65:testCore.cpp  **** 
 804              		.loc 3 65 0 discriminator 14
 805 0590 E8000000 		call	__cxa_end_catch@PLT
 805      00
 806              	.LEHE37:
 807 0595 E9B5FCFF 		jmp	.L39
 807      FF
 808              	.L72:
 809 059a 4889C3   		movq	%rax, %rbx
  65:testCore.cpp  **** 
 810              		.loc 3 65 0
 811 059d E8000000 		call	__cxa_end_catch@PLT
 811      00
 812 05a2 4889D8   		movq	%rbx, %rax
 813 05a5 4889C7   		movq	%rax, %rdi
 814              	.LEHB38:
 815 05a8 E8000000 		call	_Unwind_Resume@PLT
 815      00
 816              	.LEHE38:
 817              	.L74:
 818 05ad EB00     		jmp	.L42
 819              	.L73:
 820              	.L42:
  68:testCore.cpp  **** 	CHECK_EQUAL(2UL, deref(queue.itemArray[1]));
 821              		.loc 3 68 0 is_stmt 1
 822 05af 4889C7   		movq	%rax, %rdi
 823 05b2 E8000000 		call	__cxa_begin_catch@PLT
 823      00
 824              	.LEHB39:
 825 05b7 E8000000 		call	_ZN8UnitTest11CurrentTest7ResultsEv@PLT
 825      00
 826 05bc 488B18   		movq	(%rax), %rbx
 827 05bf E8000000 		call	_ZN8UnitTest11CurrentTest7DetailsEv@PLT
 827      00
  68:testCore.cpp  **** 	CHECK_EQUAL(2UL, deref(queue.itemArray[1]));
 828              		.loc 3 68 0 is_stmt 0 discriminator 8
 829 05c4 488B08   		movq	(%rax), %rcx
 830 05c7 488D4590 		leaq	-112(%rbp), %rax
 831 05cb BA440000 		movl	$68, %edx
 831      00
 832 05d0 4889CE   		movq	%rcx, %rsi
 833 05d3 4889C7   		movq	%rax, %rdi
 834 05d6 E8000000 		call	_ZN8UnitTest11TestDetailsC1ERKS0_i@PLT
 834      00
  68:testCore.cpp  **** 	CHECK_EQUAL(2UL, deref(queue.itemArray[1]));
 835              		.loc 3 68 0 discriminator 12
 836 05db 488D4590 		leaq	-112(%rbp), %rax
 837 05df 488D1500 		leaq	.LC8(%rip), %rdx
 837      000000
 838 05e6 4889C6   		movq	%rax, %rsi
 839 05e9 4889DF   		movq	%rbx, %rdi
 840 05ec E8000000 		call	_ZN8UnitTest11TestResults13OnTestFailureERKNS_11TestDetailsEPKc@PLT
 840      00
 841              	.LEHE39:
 842              	.LEHB40:
  68:testCore.cpp  **** 	CHECK_EQUAL(2UL, deref(queue.itemArray[1]));
 843              		.loc 3 68 0 discriminator 14
 844 05f1 E8000000 		call	__cxa_end_catch@PLT
 844      00
 845              	.LEHE40:
 846 05f6 E9A6FCFF 		jmp	.L43
 846      FF
 847              	.L75:
 848 05fb 4889C3   		movq	%rax, %rbx
  68:testCore.cpp  **** 	CHECK_EQUAL(2UL, deref(queue.itemArray[1]));
 849              		.loc 3 68 0
 850 05fe E8000000 		call	__cxa_end_catch@PLT
 850      00
 851 0603 4889D8   		movq	%rbx, %rax
 852 0606 4889C7   		movq	%rax, %rdi
 853              	.LEHB41:
 854 0609 E8000000 		call	_Unwind_Resume@PLT
 854      00
 855              	.LEHE41:
 856              	.L77:
 857 060e EB00     		jmp	.L46
 858              	.L76:
 859              	.L46:
  69:testCore.cpp  **** 	CHECK_EQUAL(3UL, deref(queue.itemArray[2]));
 860              		.loc 3 69 0 is_stmt 1
 861 0610 4889C7   		movq	%rax, %rdi
 862 0613 E8000000 		call	__cxa_begin_catch@PLT
 862      00
 863              	.LEHB42:
 864 0618 E8000000 		call	_ZN8UnitTest11CurrentTest7ResultsEv@PLT
 864      00
 865 061d 488B18   		movq	(%rax), %rbx
 866 0620 E8000000 		call	_ZN8UnitTest11CurrentTest7DetailsEv@PLT
 866      00
  69:testCore.cpp  **** 	CHECK_EQUAL(3UL, deref(queue.itemArray[2]));
 867              		.loc 3 69 0 is_stmt 0 discriminator 8
 868 0625 488B08   		movq	(%rax), %rcx
 869 0628 488D4590 		leaq	-112(%rbp), %rax
 870 062c BA450000 		movl	$69, %edx
 870      00
 871 0631 4889CE   		movq	%rcx, %rsi
 872 0634 4889C7   		movq	%rax, %rdi
 873 0637 E8000000 		call	_ZN8UnitTest11TestDetailsC1ERKS0_i@PLT
 873      00
  69:testCore.cpp  **** 	CHECK_EQUAL(3UL, deref(queue.itemArray[2]));
 874              		.loc 3 69 0 discriminator 12
 875 063c 488D4590 		leaq	-112(%rbp), %rax
 876 0640 488D1500 		leaq	.LC9(%rip), %rdx
 876      000000
 877 0647 4889C6   		movq	%rax, %rsi
 878 064a 4889DF   		movq	%rbx, %rdi
 879 064d E8000000 		call	_ZN8UnitTest11TestResults13OnTestFailureERKNS_11TestDetailsEPKc@PLT
 879      00
 880              	.LEHE42:
 881              	.LEHB43:
  69:testCore.cpp  **** 	CHECK_EQUAL(3UL, deref(queue.itemArray[2]));
 882              		.loc 3 69 0 discriminator 14
 883 0652 E8000000 		call	__cxa_end_catch@PLT
 883      00
 884              	.LEHE43:
 885 0657 E99BFCFF 		jmp	.L47
 885      FF
 886              	.L78:
 887 065c 4889C3   		movq	%rax, %rbx
  69:testCore.cpp  **** 	CHECK_EQUAL(3UL, deref(queue.itemArray[2]));
 888              		.loc 3 69 0
 889 065f E8000000 		call	__cxa_end_catch@PLT
 889      00
 890 0664 4889D8   		movq	%rbx, %rax
 891 0667 4889C7   		movq	%rax, %rdi
 892              	.LEHB44:
 893 066a E8000000 		call	_Unwind_Resume@PLT
 893      00
 894              	.LEHE44:
 895              	.L80:
 896 066f EB00     		jmp	.L50
 897              	.L79:
 898              	.L50:
  70:testCore.cpp  **** 	CHECK_EQUAL(4UL, deref(queue.itemArray[3]));
 899              		.loc 3 70 0 is_stmt 1
 900 0671 4889C7   		movq	%rax, %rdi
 901 0674 E8000000 		call	__cxa_begin_catch@PLT
 901      00
 902              	.LEHB45:
 903 0679 E8000000 		call	_ZN8UnitTest11CurrentTest7ResultsEv@PLT
 903      00
 904 067e 488B18   		movq	(%rax), %rbx
 905 0681 E8000000 		call	_ZN8UnitTest11CurrentTest7DetailsEv@PLT
 905      00
  70:testCore.cpp  **** 	CHECK_EQUAL(4UL, deref(queue.itemArray[3]));
 906              		.loc 3 70 0 is_stmt 0 discriminator 8
 907 0686 488B08   		movq	(%rax), %rcx
 908 0689 488D4590 		leaq	-112(%rbp), %rax
 909 068d BA460000 		movl	$70, %edx
 909      00
 910 0692 4889CE   		movq	%rcx, %rsi
 911 0695 4889C7   		movq	%rax, %rdi
 912 0698 E8000000 		call	_ZN8UnitTest11TestDetailsC1ERKS0_i@PLT
 912      00
  70:testCore.cpp  **** 	CHECK_EQUAL(4UL, deref(queue.itemArray[3]));
 913              		.loc 3 70 0 discriminator 12
 914 069d 488D4590 		leaq	-112(%rbp), %rax
 915 06a1 488D1500 		leaq	.LC10(%rip), %rdx
 915      000000
 916 06a8 4889C6   		movq	%rax, %rsi
 917 06ab 4889DF   		movq	%rbx, %rdi
 918 06ae E8000000 		call	_ZN8UnitTest11TestResults13OnTestFailureERKNS_11TestDetailsEPKc@PLT
 918      00
 919              	.LEHE45:
 920              	.LEHB46:
  70:testCore.cpp  **** 	CHECK_EQUAL(4UL, deref(queue.itemArray[3]));
 921              		.loc 3 70 0 discriminator 14
 922 06b3 E8000000 		call	__cxa_end_catch@PLT
 922      00
 923              	.LEHE46:
 924 06b8 E990FCFF 		jmp	.L51
 924      FF
 925              	.L81:
 926 06bd 4889C3   		movq	%rax, %rbx
  70:testCore.cpp  **** 	CHECK_EQUAL(4UL, deref(queue.itemArray[3]));
 927              		.loc 3 70 0
 928 06c0 E8000000 		call	__cxa_end_catch@PLT
 928      00
 929 06c5 4889D8   		movq	%rbx, %rax
 930 06c8 4889C7   		movq	%rax, %rdi
 931              	.LEHB47:
 932 06cb E8000000 		call	_Unwind_Resume@PLT
 932      00
 933              	.LEHE47:
 934              	.L83:
 935 06d0 EB00     		jmp	.L54
 936              	.L82:
 937              	.L54:
  71:testCore.cpp  **** 
 938              		.loc 3 71 0 is_stmt 1
 939 06d2 4889C7   		movq	%rax, %rdi
 940 06d5 E8000000 		call	__cxa_begin_catch@PLT
 940      00
 941              	.LEHB48:
 942 06da E8000000 		call	_ZN8UnitTest11CurrentTest7ResultsEv@PLT
 942      00
 943 06df 488B18   		movq	(%rax), %rbx
 944 06e2 E8000000 		call	_ZN8UnitTest11CurrentTest7DetailsEv@PLT
 944      00
  71:testCore.cpp  **** 
 945              		.loc 3 71 0 is_stmt 0 discriminator 8
 946 06e7 488B08   		movq	(%rax), %rcx
 947 06ea 488D4590 		leaq	-112(%rbp), %rax
 948 06ee BA470000 		movl	$71, %edx
 948      00
 949 06f3 4889CE   		movq	%rcx, %rsi
 950 06f6 4889C7   		movq	%rax, %rdi
 951 06f9 E8000000 		call	_ZN8UnitTest11TestDetailsC1ERKS0_i@PLT
 951      00
  71:testCore.cpp  **** 
 952              		.loc 3 71 0 discriminator 12
 953 06fe 488D4590 		leaq	-112(%rbp), %rax
 954 0702 488D1500 		leaq	.LC11(%rip), %rdx
 954      000000
 955 0709 4889C6   		movq	%rax, %rsi
 956 070c 4889DF   		movq	%rbx, %rdi
 957 070f E8000000 		call	_ZN8UnitTest11TestResults13OnTestFailureERKNS_11TestDetailsEPKc@PLT
 957      00
 958              	.LEHE48:
 959              	.LEHB49:
  71:testCore.cpp  **** 
 960              		.loc 3 71 0 discriminator 14
 961 0714 E8000000 		call	__cxa_end_catch@PLT
 961      00
 962              	.LEHE49:
 963 0719 E985FCFF 		jmp	.L55
 963      FF
 964              	.L84:
 965 071e 4889C3   		movq	%rax, %rbx
  71:testCore.cpp  **** 
 966              		.loc 3 71 0
 967 0721 E8000000 		call	__cxa_end_catch@PLT
 967      00
 968 0726 4889D8   		movq	%rbx, %rax
 969 0729 4889C7   		movq	%rax, %rdi
 970              	.LEHB50:
 971 072c E8000000 		call	_Unwind_Resume@PLT
 971      00
 972              	.LEHE50:
 973              	.L85:
 974              		.loc 3 75 0 is_stmt 1
 975 0731 E8000000 		call	__stack_chk_fail@PLT
 975      00
 976              	.L57:
 977 0736 4881C488 		addq	$136, %rsp
 977      000000
 978 073d 5B       		popq	%rbx
 979 073e 5D       		popq	%rbp
 980              		.cfi_def_cfa 7, 8
 981 073f C3       		ret
 982              		.cfi_endproc
 983              	.LFE1106:
 984              		.section	.gcc_except_table,"a",@progbits
 985              		.align 4
 986              	.LLSDA1106:
 987 0000 FF       		.byte	0xff
 988 0001 9B       		.byte	0x9b
 989 0002 9002     		.uleb128 .LLSDATT1106-.LLSDATTD1106
 990              	.LLSDATTD1106:
 991 0004 01       		.byte	0x1
 992 0005 8302     		.uleb128 .LLSDACSE1106-.LLSDACSB1106
 993              	.LLSDACSB1106:
 994 0007 46       		.uleb128 .LEHB4-.LFB1106
 995 0008 05       		.uleb128 .LEHE4-.LEHB4
 996 0009 00       		.uleb128 0
 997 000a 00       		.uleb128 0
 998 000b 4E       		.uleb128 .LEHB5-.LFB1106
 999 000c 1C       		.uleb128 .LEHE5-.LEHB5
 1000 000d B006     		.uleb128 .L58-.LFB1106
 1001 000f 01       		.uleb128 0x1
 1002 0010 71       		.uleb128 .LEHB6-.LFB1106
 1003 0011 1C       		.uleb128 .LEHE6-.LEHB6
 1004 0012 AE06     		.uleb128 .L59-.LFB1106
 1005 0014 03       		.uleb128 0x3
 1006 0015 8D01     		.uleb128 .LEHB7-.LFB1106
 1007 0017 1C       		.uleb128 .LEHE7-.LEHB7
 1008 0018 9107     		.uleb128 .L61-.LFB1106
 1009 001a 01       		.uleb128 0x1
 1010 001b B101     		.uleb128 .LEHB8-.LFB1106
 1011 001d 26       		.uleb128 .LEHE8-.LEHB8
 1012 001e 8F07     		.uleb128 .L62-.LFB1106
 1013 0020 03       		.uleb128 0x3
 1014 0021 D701     		.uleb128 .LEHB9-.LFB1106
 1015 0023 1C       		.uleb128 .LEHE9-.LEHB9
 1016 0024 F207     		.uleb128 .L64-.LFB1106
 1017 0026 01       		.uleb128 0x1
 1018 0027 FB01     		.uleb128 .LEHB10-.LFB1106
 1019 0029 26       		.uleb128 .LEHE10-.LEHB10
 1020 002a F007     		.uleb128 .L65-.LFB1106
 1021 002c 03       		.uleb128 0x3
 1022 002d A102     		.uleb128 .LEHB11-.LFB1106
 1023 002f 1C       		.uleb128 .LEHE11-.LEHB11
 1024 0030 D308     		.uleb128 .L67-.LFB1106
 1025 0032 01       		.uleb128 0x1
 1026 0033 C502     		.uleb128 .LEHB12-.LFB1106
 1027 0035 26       		.uleb128 .LEHE12-.LEHB12
 1028 0036 D108     		.uleb128 .L68-.LFB1106
 1029 0038 03       		.uleb128 0x3
 1030 0039 EB02     		.uleb128 .LEHB13-.LFB1106
 1031 003b 1C       		.uleb128 .LEHE13-.LEHB13
 1032 003c B409     		.uleb128 .L70-.LFB1106
 1033 003e 01       		.uleb128 0x1
 1034 003f 8F03     		.uleb128 .LEHB14-.LFB1106
 1035 0041 26       		.uleb128 .LEHE14-.LEHB14
 1036 0042 B209     		.uleb128 .L71-.LFB1106
 1037 0044 03       		.uleb128 0x3
 1038 0045 B503     		.uleb128 .LEHB15-.LFB1106
 1039 0047 1C       		.uleb128 .LEHE15-.LEHB15
 1040 0048 950A     		.uleb128 .L73-.LFB1106
 1041 004a 01       		.uleb128 0x1
 1042 004b EB03     		.uleb128 .LEHB16-.LFB1106
 1043 004d 1C       		.uleb128 .LEHE16-.LEHB16
 1044 004e 930A     		.uleb128 .L74-.LFB1106
 1045 0050 03       		.uleb128 0x3
 1046 0051 8704     		.uleb128 .LEHB17-.LFB1106
 1047 0053 1C       		.uleb128 .LEHE17-.LEHB17
 1048 0054 F60A     		.uleb128 .L76-.LFB1106
 1049 0056 01       		.uleb128 0x1
 1050 0057 C104     		.uleb128 .LEHB18-.LFB1106
 1051 0059 1C       		.uleb128 .LEHE18-.LEHB18
 1052 005a F40A     		.uleb128 .L77-.LFB1106
 1053 005c 03       		.uleb128 0x3
 1054 005d DD04     		.uleb128 .LEHB19-.LFB1106
 1055 005f 1C       		.uleb128 .LEHE19-.LEHB19
 1056 0060 D70B     		.uleb128 .L79-.LFB1106
 1057 0062 01       		.uleb128 0x1
 1058 0063 9705     		.uleb128 .LEHB20-.LFB1106
 1059 0065 1C       		.uleb128 .LEHE20-.LEHB20
 1060 0066 D50B     		.uleb128 .L80-.LFB1106
 1061 0068 03       		.uleb128 0x3
 1062 0069 B305     		.uleb128 .LEHB21-.LFB1106
 1063 006b 1C       		.uleb128 .LEHE21-.LEHB21
 1064 006c B80C     		.uleb128 .L82-.LFB1106
 1065 006e 01       		.uleb128 0x1
 1066 006f ED05     		.uleb128 .LEHB22-.LFB1106
 1067 0071 1C       		.uleb128 .LEHE22-.LEHB22
 1068 0072 B60C     		.uleb128 .L83-.LFB1106
 1069 0074 03       		.uleb128 0x3
 1070 0075 9006     		.uleb128 .LEHB23-.LFB1106
 1071 0077 05       		.uleb128 .LEHE23-.LEHB23
 1072 0078 00       		.uleb128 0
 1073 0079 00       		.uleb128 0
 1074 007a B806     		.uleb128 .LEHB24-.LFB1106
 1075 007c 3A       		.uleb128 .LEHE24-.LEHB24
 1076 007d FC06     		.uleb128 .L60-.LFB1106
 1077 007f 00       		.uleb128 0
 1078 0080 F206     		.uleb128 .LEHB25-.LFB1106
 1079 0082 05       		.uleb128 .LEHE25-.LEHB25
 1080 0083 00       		.uleb128 0
 1081 0084 00       		.uleb128 0
 1082 0085 8A07     		.uleb128 .LEHB26-.LFB1106
 1083 0087 05       		.uleb128 .LEHE26-.LEHB26
 1084 0088 00       		.uleb128 0
 1085 0089 00       		.uleb128 0
 1086 008a 9907     		.uleb128 .LEHB27-.LFB1106
 1087 008c 3A       		.uleb128 .LEHE27-.LEHB27
 1088 008d DD07     		.uleb128 .L63-.LFB1106
 1089 008f 00       		.uleb128 0
 1090 0090 D307     		.uleb128 .LEHB28-.LFB1106
 1091 0092 05       		.uleb128 .LEHE28-.LEHB28
 1092 0093 00       		.uleb128 0
 1093 0094 00       		.uleb128 0
 1094 0095 EB07     		.uleb128 .LEHB29-.LFB1106
 1095 0097 05       		.uleb128 .LEHE29-.LEHB29
 1096 0098 00       		.uleb128 0
 1097 0099 00       		.uleb128 0
 1098 009a FA07     		.uleb128 .LEHB30-.LFB1106
 1099 009c 3A       		.uleb128 .LEHE30-.LEHB30
 1100 009d BE08     		.uleb128 .L66-.LFB1106
 1101 009f 00       		.uleb128 0
 1102 00a0 B408     		.uleb128 .LEHB31-.LFB1106
 1103 00a2 05       		.uleb128 .LEHE31-.LEHB31
 1104 00a3 00       		.uleb128 0
 1105 00a4 00       		.uleb128 0
 1106 00a5 CC08     		.uleb128 .LEHB32-.LFB1106
 1107 00a7 05       		.uleb128 .LEHE32-.LEHB32
 1108 00a8 00       		.uleb128 0
 1109 00a9 00       		.uleb128 0
 1110 00aa DB08     		.uleb128 .LEHB33-.LFB1106
 1111 00ac 3A       		.uleb128 .LEHE33-.LEHB33
 1112 00ad 9F09     		.uleb128 .L69-.LFB1106
 1113 00af 00       		.uleb128 0
 1114 00b0 9509     		.uleb128 .LEHB34-.LFB1106
 1115 00b2 05       		.uleb128 .LEHE34-.LEHB34
 1116 00b3 00       		.uleb128 0
 1117 00b4 00       		.uleb128 0
 1118 00b5 AD09     		.uleb128 .LEHB35-.LFB1106
 1119 00b7 05       		.uleb128 .LEHE35-.LEHB35
 1120 00b8 00       		.uleb128 0
 1121 00b9 00       		.uleb128 0
 1122 00ba BC09     		.uleb128 .LEHB36-.LFB1106
 1123 00bc 3A       		.uleb128 .LEHE36-.LEHB36
 1124 00bd 800A     		.uleb128 .L72-.LFB1106
 1125 00bf 00       		.uleb128 0
 1126 00c0 F609     		.uleb128 .LEHB37-.LFB1106
 1127 00c2 05       		.uleb128 .LEHE37-.LEHB37
 1128 00c3 00       		.uleb128 0
 1129 00c4 00       		.uleb128 0
 1130 00c5 8E0A     		.uleb128 .LEHB38-.LFB1106
 1131 00c7 05       		.uleb128 .LEHE38-.LEHB38
 1132 00c8 00       		.uleb128 0
 1133 00c9 00       		.uleb128 0
 1134 00ca 9D0A     		.uleb128 .LEHB39-.LFB1106
 1135 00cc 3A       		.uleb128 .LEHE39-.LEHB39
 1136 00cd E10A     		.uleb128 .L75-.LFB1106
 1137 00cf 00       		.uleb128 0
 1138 00d0 D70A     		.uleb128 .LEHB40-.LFB1106
 1139 00d2 05       		.uleb128 .LEHE40-.LEHB40
 1140 00d3 00       		.uleb128 0
 1141 00d4 00       		.uleb128 0
 1142 00d5 EF0A     		.uleb128 .LEHB41-.LFB1106
 1143 00d7 05       		.uleb128 .LEHE41-.LEHB41
 1144 00d8 00       		.uleb128 0
 1145 00d9 00       		.uleb128 0
 1146 00da FE0A     		.uleb128 .LEHB42-.LFB1106
 1147 00dc 3A       		.uleb128 .LEHE42-.LEHB42
 1148 00dd C20B     		.uleb128 .L78-.LFB1106
 1149 00df 00       		.uleb128 0
 1150 00e0 B80B     		.uleb128 .LEHB43-.LFB1106
 1151 00e2 05       		.uleb128 .LEHE43-.LEHB43
 1152 00e3 00       		.uleb128 0
 1153 00e4 00       		.uleb128 0
 1154 00e5 D00B     		.uleb128 .LEHB44-.LFB1106
 1155 00e7 05       		.uleb128 .LEHE44-.LEHB44
 1156 00e8 00       		.uleb128 0
 1157 00e9 00       		.uleb128 0
 1158 00ea DF0B     		.uleb128 .LEHB45-.LFB1106
 1159 00ec 3A       		.uleb128 .LEHE45-.LEHB45
 1160 00ed A30C     		.uleb128 .L81-.LFB1106
 1161 00ef 00       		.uleb128 0
 1162 00f0 990C     		.uleb128 .LEHB46-.LFB1106
 1163 00f2 05       		.uleb128 .LEHE46-.LEHB46
 1164 00f3 00       		.uleb128 0
 1165 00f4 00       		.uleb128 0
 1166 00f5 B10C     		.uleb128 .LEHB47-.LFB1106
 1167 00f7 05       		.uleb128 .LEHE47-.LEHB47
 1168 00f8 00       		.uleb128 0
 1169 00f9 00       		.uleb128 0
 1170 00fa C00C     		.uleb128 .LEHB48-.LFB1106
 1171 00fc 3A       		.uleb128 .LEHE48-.LEHB48
 1172 00fd 840D     		.uleb128 .L84-.LFB1106
 1173 00ff 00       		.uleb128 0
 1174 0100 FA0C     		.uleb128 .LEHB49-.LFB1106
 1175 0102 05       		.uleb128 .LEHE49-.LEHB49
 1176 0103 00       		.uleb128 0
 1177 0104 00       		.uleb128 0
 1178 0105 920D     		.uleb128 .LEHB50-.LFB1106
 1179 0107 05       		.uleb128 .LEHE50-.LEHB50
 1180 0108 00       		.uleb128 0
 1181 0109 00       		.uleb128 0
 1182              	.LLSDACSE1106:
 1183 010a 01       		.byte	0x1
 1184 010b 00       		.byte	0
 1185 010c 00       		.byte	0
 1186 010d 7D       		.byte	0x7d
 1187 010e 0000     		.align 4
 1188 0110 00000000 		.long	0
 1189              	
 1190              	.LLSDATT1106:
 1191              		.text
 1193              		.section	.rodata
 1194              	.LC12:
 1195 026b 51756575 		.string	"Queue_testPutNoWrap"
 1195      655F7465 
 1195      73745075 
 1195      744E6F57 
 1195      72617000 
 1196              		.section	.text._ZN23TestQueue_testPutNoWrapC2Ev,"axG",@progbits,_ZN23TestQueue_testPutNoWrapC5Ev,c
 1197              		.align 2
 1198              		.weak	_ZN23TestQueue_testPutNoWrapC2Ev
 1200              	_ZN23TestQueue_testPutNoWrapC2Ev:
 1201              	.LFB1108:
  76:testCore.cpp  **** 
  77:testCore.cpp  **** TEST(Queue_testPutNoWrap) {
 1202              		.loc 3 77 0
 1203              		.cfi_startproc
 1204 0000 55       		pushq	%rbp
 1205              		.cfi_def_cfa_offset 16
 1206              		.cfi_offset 6, -16
 1207 0001 4889E5   		movq	%rsp, %rbp
 1208              		.cfi_def_cfa_register 6
 1209 0004 53       		pushq	%rbx
 1210 0005 4883EC18 		subq	$24, %rsp
 1211              		.cfi_offset 3, -24
 1212 0009 48897DE8 		movq	%rdi, -24(%rbp)
 1213              	.LBB5:
 1214              		.loc 3 77 0
 1215 000d 488B5DE8 		movq	-24(%rbp), %rbx
 1216 0011 E8000000 		call	_ZN13UnitTestSuite12GetSuiteNameEv
 1216      00
 1217 0016 41B84D00 		movl	$77, %r8d
 1217      0000
 1218 001c 488D0D00 		leaq	.LC1(%rip), %rcx
 1218      000000
 1219 0023 4889C2   		movq	%rax, %rdx
 1220 0026 488D3500 		leaq	.LC12(%rip), %rsi
 1220      000000
 1221 002d 4889DF   		movq	%rbx, %rdi
 1222 0030 E8000000 		call	_ZN8UnitTest4TestC2EPKcS2_S2_i@PLT
 1222      00
 1223 0035 488D1500 		leaq	16+_ZTV23TestQueue_testPutNoWrap(%rip), %rdx
 1223      000000
 1224 003c 488B45E8 		movq	-24(%rbp), %rax
 1225 0040 488910   		movq	%rdx, (%rax)
 1226              	.LBE5:
 1227 0043 90       		nop
 1228 0044 4883C418 		addq	$24, %rsp
 1229 0048 5B       		popq	%rbx
 1230 0049 5D       		popq	%rbp
 1231              		.cfi_def_cfa 7, 8
 1232 004a C3       		ret
 1233              		.cfi_endproc
 1234              	.LFE1108:
 1236              		.weak	_ZN23TestQueue_testPutNoWrapC1Ev
 1237              		.set	_ZN23TestQueue_testPutNoWrapC1Ev,_ZN23TestQueue_testPutNoWrapC2Ev
 1238              		.globl	testQueue_testPutNoWrapInstance
 1239              		.bss
 1240 0039 00000000 		.align 32
 1240      000000
 1243              	testQueue_testPutNoWrapInstance:
 1244 0040 00000000 		.zero	56
 1244      00000000 
 1244      00000000 
 1244      00000000 
 1244      00000000 
 1245              		.globl	adderQueue_testPutNoWrap
 1248              	adderQueue_testPutNoWrap:
 1249 0078 00       		.zero	1
 1250              		.section	.rodata
 1251 027f 00       		.align 8
 1252              	.LC13:
 1253 0280 556E6861 		.string	"Unhandled exception in CHECK_EQUAL(1UL, *item)"
 1253      6E646C65 
 1253      64206578 
 1253      63657074 
 1253      696F6E20 
 1254 02af 00       		.align 8
 1255              	.LC14:
 1256 02b0 556E6861 		.string	"Unhandled exception in CHECK_EQUAL(2UL, *item)"
 1256      6E646C65 
 1256      64206578 
 1256      63657074 
 1256      696F6E20 
 1257 02df 00       		.align 8
 1258              	.LC15:
 1259 02e0 556E6861 		.string	"Unhandled exception in CHECK_EQUAL(3UL, *item)"
 1259      6E646C65 
 1259      64206578 
 1259      63657074 
 1259      696F6E20 
 1260 030f 00       		.align 8
 1261              	.LC16:
 1262 0310 556E6861 		.string	"Unhandled exception in CHECK_EQUAL(3UL, queue.putIndex)"
 1262      6E646C65 
 1262      64206578 
 1262      63657074 
 1262      696F6E20 
 1263              		.align 8
 1264              	.LC17:
 1265 0348 556E6861 		.string	"Unhandled exception in CHECK_EQUAL(3UL, queue.numItems)"
 1265      6E646C65 
 1265      64206578 
 1265      63657074 
 1265      696F6E20 
 1266              		.align 8
 1267              	.LC18:
 1268 0380 556E6861 		.string	"Unhandled exception in CHECK_EQUAL(5UL, deref(queue.itemArray[0]))"
 1268      6E646C65 
 1268      64206578 
 1268      63657074 
 1268      696F6E20 
 1269 03c3 00000000 		.align 8
 1269      00
 1270              	.LC19:
 1271 03c8 556E6861 		.string	"Unhandled exception in CHECK_EQUAL(6UL, deref(queue.itemArray[1]))"
 1271      6E646C65 
 1271      64206578 
 1271      63657074 
 1271      696F6E20 
 1272 040b 00000000 		.align 8
 1272      00
 1273              	.LC20:
 1274 0410 556E6861 		.string	"Unhandled exception in CHECK_EQUAL(7UL, deref(queue.itemArray[2]))"
 1274      6E646C65 
 1274      64206578 
 1274      63657074 
 1274      696F6E20 
 1275              		.text
 1276              		.align 2
 1277              		.globl	_ZNK23TestQueue_testPutNoWrap7RunImplEv
 1279              	_ZNK23TestQueue_testPutNoWrap7RunImplEv:
 1280              	.LFB1110:
 1281              		.loc 3 77 0
 1282              		.cfi_startproc
 1283              		.cfi_personality 0x9b,DW.ref.__gxx_personality_v0
 1284              		.cfi_lsda 0x1b,.LLSDA1110
 1285 0740 55       		pushq	%rbp
 1286              		.cfi_def_cfa_offset 16
 1287              		.cfi_offset 6, -16
 1288 0741 4889E5   		movq	%rsp, %rbp
 1289              		.cfi_def_cfa_register 6
 1290 0744 53       		pushq	%rbx
 1291 0745 4881EC98 		subq	$152, %rsp
 1291      000000
 1292              		.cfi_offset 3, -24
 1293 074c 4889BD68 		movq	%rdi, -152(%rbp)
 1293      FFFFFF
 1294              		.loc 3 77 0
 1295 0753 64488B04 		movq	%fs:40, %rax
 1295      25280000 
 1295      00
 1296 075c 488945E8 		movq	%rax, -24(%rbp)
 1297 0760 31C0     		xorl	%eax, %eax
  78:testCore.cpp  **** 	struct UnboundedQueue queue;
  79:testCore.cpp  **** 	uint32 *item;
  80:testCore.cpp  **** 	m_count = 1;
 1298              		.loc 3 80 0
 1299 0762 C7050000 		movl	$1, _ZL7m_count(%rip)
 1299      00000100 
 1299      0000
  81:testCore.cpp  **** 
  82:testCore.cpp  **** 	// Create queue
  83:testCore.cpp  **** 	USBStatus status = queueInit(&queue, 4, (CreateFunc)createInt, (DestroyFunc)destroyInt);
 1300              		.loc 3 83 0
 1301 076c 488D45B0 		leaq	-80(%rbp), %rax
 1302 0770 488D0D00 		leaq	destroyInt(%rip), %rcx
 1302      000000
 1303 0777 488D1500 		leaq	createInt(%rip), %rdx
 1303      000000
 1304 077e BE040000 		movl	$4, %esi
 1304      00
 1305 0783 4889C7   		movq	%rax, %rdi
 1306              	.LEHB51:
 1307 0786 E8000000 		call	queueInit@PLT
 1307      00
 1308              	.LEHE51:
 1309 078b 898578FF 		movl	%eax, -136(%rbp)
 1309      FFFF
 1310              	.LEHB52:
  84:testCore.cpp  **** 	CHECK_EQUAL(USB_SUCCESS, status);
 1311              		.loc 3 84 0
 1312 0791 E8000000 		call	_ZN8UnitTest11CurrentTest7DetailsEv@PLT
 1312      00
 1313 0796 488B08   		movq	(%rax), %rcx
 1314 0799 488D4590 		leaq	-112(%rbp), %rax
 1315 079d BA540000 		movl	$84, %edx
 1315      00
 1316 07a2 4889CE   		movq	%rcx, %rsi
 1317 07a5 4889C7   		movq	%rax, %rdi
 1318 07a8 E8000000 		call	_ZN8UnitTest11TestDetailsC1ERKS0_i@PLT
 1318      00
 1319              	.LEHE52:
 1320              		.loc 3 84 0 is_stmt 0 discriminator 2
 1321 07ad C7458800 		movl	$0, -120(%rbp)
 1321      000000
 1322              	.LEHB53:
 1323 07b4 E8000000 		call	_ZN8UnitTest11CurrentTest7ResultsEv@PLT
 1323      00
 1324 07b9 488B00   		movq	(%rax), %rax
 1325 07bc 488D4D90 		leaq	-112(%rbp), %rcx
 1326 07c0 488D9578 		leaq	-136(%rbp), %rdx
 1326      FFFFFF
 1327 07c7 488D7588 		leaq	-120(%rbp), %rsi
 1328 07cb 4889C7   		movq	%rax, %rdi
 1329 07ce E8000000 		call	_ZN8UnitTest10CheckEqualI9USBStatusS1_EEvRNS_11TestResultsERKT_RKT0_RKNS_11TestDetailsE
 1329      00
 1330              	.LEHE53:
 1331              	.L90:
  85:testCore.cpp  **** 
  86:testCore.cpp  **** 	// Put three items into the queue
  87:testCore.cpp  **** 	status = queuePut(&queue, (Item*)&item);
 1332              		.loc 3 87 0 is_stmt 1
 1333 07d3 488D5580 		leaq	-128(%rbp), %rdx
 1334 07d7 488D45B0 		leaq	-80(%rbp), %rax
 1335 07db 4889D6   		movq	%rdx, %rsi
 1336 07de 4889C7   		movq	%rax, %rdi
 1337              	.LEHB54:
 1338 07e1 E8000000 		call	queuePut@PLT
 1338      00
 1339              	.LEHE54:
 1340 07e6 898578FF 		movl	%eax, -136(%rbp)
 1340      FFFF
 1341              	.LEHB55:
  88:testCore.cpp  **** 	CHECK_EQUAL(USB_SUCCESS, status);
 1342              		.loc 3 88 0
 1343 07ec E8000000 		call	_ZN8UnitTest11CurrentTest7DetailsEv@PLT
 1343      00
 1344 07f1 488B08   		movq	(%rax), %rcx
 1345 07f4 488D4590 		leaq	-112(%rbp), %rax
 1346 07f8 BA580000 		movl	$88, %edx
 1346      00
 1347 07fd 4889CE   		movq	%rcx, %rsi
 1348 0800 4889C7   		movq	%rax, %rdi
 1349 0803 E8000000 		call	_ZN8UnitTest11TestDetailsC1ERKS0_i@PLT
 1349      00
 1350              	.LEHE55:
 1351              		.loc 3 88 0 is_stmt 0 discriminator 2
 1352 0808 C7458800 		movl	$0, -120(%rbp)
 1352      000000
 1353              	.LEHB56:
 1354 080f E8000000 		call	_ZN8UnitTest11CurrentTest7ResultsEv@PLT
 1354      00
 1355 0814 488B00   		movq	(%rax), %rax
 1356 0817 488D4D90 		leaq	-112(%rbp), %rcx
 1357 081b 488D9578 		leaq	-136(%rbp), %rdx
 1357      FFFFFF
 1358 0822 488D7588 		leaq	-120(%rbp), %rsi
 1359 0826 4889C7   		movq	%rax, %rdi
 1360 0829 E8000000 		call	_ZN8UnitTest10CheckEqualI9USBStatusS1_EEvRNS_11TestResultsERKT_RKT0_RKNS_11TestDetailsE
 1360      00
 1361              	.LEHE56:
 1362              	.L94:
 1363              	.LEHB57:
  89:testCore.cpp  **** 	CHECK_EQUAL(1UL, *item);
 1364              		.loc 3 89 0 is_stmt 1
 1365 082e E8000000 		call	_ZN8UnitTest11CurrentTest7DetailsEv@PLT
 1365      00
 1366 0833 488B08   		movq	(%rax), %rcx
 1367 0836 488D4590 		leaq	-112(%rbp), %rax
 1368 083a BA590000 		movl	$89, %edx
 1368      00
 1369 083f 4889CE   		movq	%rcx, %rsi
 1370 0842 4889C7   		movq	%rax, %rdi
 1371 0845 E8000000 		call	_ZN8UnitTest11TestDetailsC1ERKS0_i@PLT
 1371      00
 1372              	.LEHE57:
 1373              		.loc 3 89 0 is_stmt 0 discriminator 2
 1374 084a 488B5D80 		movq	-128(%rbp), %rbx
 1375 084e 48C74588 		movq	$1, -120(%rbp)
 1375      01000000 
 1376              	.LEHB58:
 1377 0856 E8000000 		call	_ZN8UnitTest11CurrentTest7ResultsEv@PLT
 1377      00
 1378 085b 488B00   		movq	(%rax), %rax
 1379 085e 488D5590 		leaq	-112(%rbp), %rdx
 1380 0862 488D7588 		leaq	-120(%rbp), %rsi
 1381 0866 4889D1   		movq	%rdx, %rcx
 1382 0869 4889DA   		movq	%rbx, %rdx
 1383 086c 4889C7   		movq	%rax, %rdi
 1384 086f E8000000 		call	_ZN8UnitTest10CheckEqualImjEEvRNS_11TestResultsERKT_RKT0_RKNS_11TestDetailsE
 1384      00
 1385              	.LEHE58:
 1386              	.L98:
  90:testCore.cpp  **** 	*item = 5;
 1387              		.loc 3 90 0 is_stmt 1
 1388 0874 488B4580 		movq	-128(%rbp), %rax
 1389 0878 C7000500 		movl	$5, (%rax)
 1389      0000
  91:testCore.cpp  **** 	queueCommitPut(&queue);
 1390              		.loc 3 91 0
 1391 087e 488D45B0 		leaq	-80(%rbp), %rax
 1392 0882 4889C7   		movq	%rax, %rdi
 1393              	.LEHB59:
 1394 0885 E8000000 		call	queueCommitPut@PLT
 1394      00
  92:testCore.cpp  **** 	status = queuePut(&queue, (Item*)&item);
 1395              		.loc 3 92 0
 1396 088a 488D5580 		leaq	-128(%rbp), %rdx
 1397 088e 488D45B0 		leaq	-80(%rbp), %rax
 1398 0892 4889D6   		movq	%rdx, %rsi
 1399 0895 4889C7   		movq	%rax, %rdi
 1400 0898 E8000000 		call	queuePut@PLT
 1400      00
 1401              	.LEHE59:
 1402 089d 898578FF 		movl	%eax, -136(%rbp)
 1402      FFFF
 1403              	.LEHB60:
  93:testCore.cpp  **** 	CHECK_EQUAL(USB_SUCCESS, status);
 1404              		.loc 3 93 0
 1405 08a3 E8000000 		call	_ZN8UnitTest11CurrentTest7DetailsEv@PLT
 1405      00
 1406 08a8 488B08   		movq	(%rax), %rcx
 1407 08ab 488D4590 		leaq	-112(%rbp), %rax
 1408 08af BA5D0000 		movl	$93, %edx
 1408      00
 1409 08b4 4889CE   		movq	%rcx, %rsi
 1410 08b7 4889C7   		movq	%rax, %rdi
 1411 08ba E8000000 		call	_ZN8UnitTest11TestDetailsC1ERKS0_i@PLT
 1411      00
 1412              	.LEHE60:
 1413              		.loc 3 93 0 is_stmt 0 discriminator 2
 1414 08bf C7458800 		movl	$0, -120(%rbp)
 1414      000000
 1415              	.LEHB61:
 1416 08c6 E8000000 		call	_ZN8UnitTest11CurrentTest7ResultsEv@PLT
 1416      00
 1417 08cb 488B00   		movq	(%rax), %rax
 1418 08ce 488D4D90 		leaq	-112(%rbp), %rcx
 1419 08d2 488D9578 		leaq	-136(%rbp), %rdx
 1419      FFFFFF
 1420 08d9 488D7588 		leaq	-120(%rbp), %rsi
 1421 08dd 4889C7   		movq	%rax, %rdi
 1422 08e0 E8000000 		call	_ZN8UnitTest10CheckEqualI9USBStatusS1_EEvRNS_11TestResultsERKT_RKT0_RKNS_11TestDetailsE
 1422      00
 1423              	.LEHE61:
 1424              	.L102:
 1425              	.LEHB62:
  94:testCore.cpp  **** 	CHECK_EQUAL(2UL, *item);
 1426              		.loc 3 94 0 is_stmt 1
 1427 08e5 E8000000 		call	_ZN8UnitTest11CurrentTest7DetailsEv@PLT
 1427      00
 1428 08ea 488B08   		movq	(%rax), %rcx
 1429 08ed 488D4590 		leaq	-112(%rbp), %rax
 1430 08f1 BA5E0000 		movl	$94, %edx
 1430      00
 1431 08f6 4889CE   		movq	%rcx, %rsi
 1432 08f9 4889C7   		movq	%rax, %rdi
 1433 08fc E8000000 		call	_ZN8UnitTest11TestDetailsC1ERKS0_i@PLT
 1433      00
 1434              	.LEHE62:
 1435              		.loc 3 94 0 is_stmt 0 discriminator 2
 1436 0901 488B5D80 		movq	-128(%rbp), %rbx
 1437 0905 48C74588 		movq	$2, -120(%rbp)
 1437      02000000 
 1438              	.LEHB63:
 1439 090d E8000000 		call	_ZN8UnitTest11CurrentTest7ResultsEv@PLT
 1439      00
 1440 0912 488B00   		movq	(%rax), %rax
 1441 0915 488D5590 		leaq	-112(%rbp), %rdx
 1442 0919 488D7588 		leaq	-120(%rbp), %rsi
 1443 091d 4889D1   		movq	%rdx, %rcx
 1444 0920 4889DA   		movq	%rbx, %rdx
 1445 0923 4889C7   		movq	%rax, %rdi
 1446 0926 E8000000 		call	_ZN8UnitTest10CheckEqualImjEEvRNS_11TestResultsERKT_RKT0_RKNS_11TestDetailsE
 1446      00
 1447              	.LEHE63:
 1448              	.L106:
  95:testCore.cpp  **** 	*item = 6;
 1449              		.loc 3 95 0 is_stmt 1
 1450 092b 488B4580 		movq	-128(%rbp), %rax
 1451 092f C7000600 		movl	$6, (%rax)
 1451      0000
  96:testCore.cpp  **** 	queueCommitPut(&queue);
 1452              		.loc 3 96 0
 1453 0935 488D45B0 		leaq	-80(%rbp), %rax
 1454 0939 4889C7   		movq	%rax, %rdi
 1455              	.LEHB64:
 1456 093c E8000000 		call	queueCommitPut@PLT
 1456      00
  97:testCore.cpp  **** 	status = queuePut(&queue, (Item*)&item);
 1457              		.loc 3 97 0
 1458 0941 488D5580 		leaq	-128(%rbp), %rdx
 1459 0945 488D45B0 		leaq	-80(%rbp), %rax
 1460 0949 4889D6   		movq	%rdx, %rsi
 1461 094c 4889C7   		movq	%rax, %rdi
 1462 094f E8000000 		call	queuePut@PLT
 1462      00
 1463              	.LEHE64:
 1464 0954 898578FF 		movl	%eax, -136(%rbp)
 1464      FFFF
 1465              	.LEHB65:
  98:testCore.cpp  **** 	CHECK_EQUAL(USB_SUCCESS, status);
 1466              		.loc 3 98 0
 1467 095a E8000000 		call	_ZN8UnitTest11CurrentTest7DetailsEv@PLT
 1467      00
 1468 095f 488B08   		movq	(%rax), %rcx
 1469 0962 488D4590 		leaq	-112(%rbp), %rax
 1470 0966 BA620000 		movl	$98, %edx
 1470      00
 1471 096b 4889CE   		movq	%rcx, %rsi
 1472 096e 4889C7   		movq	%rax, %rdi
 1473 0971 E8000000 		call	_ZN8UnitTest11TestDetailsC1ERKS0_i@PLT
 1473      00
 1474              	.LEHE65:
 1475              		.loc 3 98 0 is_stmt 0 discriminator 2
 1476 0976 C7458800 		movl	$0, -120(%rbp)
 1476      000000
 1477              	.LEHB66:
 1478 097d E8000000 		call	_ZN8UnitTest11CurrentTest7ResultsEv@PLT
 1478      00
 1479 0982 488B00   		movq	(%rax), %rax
 1480 0985 488D4D90 		leaq	-112(%rbp), %rcx
 1481 0989 488D9578 		leaq	-136(%rbp), %rdx
 1481      FFFFFF
 1482 0990 488D7588 		leaq	-120(%rbp), %rsi
 1483 0994 4889C7   		movq	%rax, %rdi
 1484 0997 E8000000 		call	_ZN8UnitTest10CheckEqualI9USBStatusS1_EEvRNS_11TestResultsERKT_RKT0_RKNS_11TestDetailsE
 1484      00
 1485              	.LEHE66:
 1486              	.L110:
 1487              	.LEHB67:
  99:testCore.cpp  **** 	CHECK_EQUAL(3UL, *item);
 1488              		.loc 3 99 0 is_stmt 1
 1489 099c E8000000 		call	_ZN8UnitTest11CurrentTest7DetailsEv@PLT
 1489      00
 1490 09a1 488B08   		movq	(%rax), %rcx
 1491 09a4 488D4590 		leaq	-112(%rbp), %rax
 1492 09a8 BA630000 		movl	$99, %edx
 1492      00
 1493 09ad 4889CE   		movq	%rcx, %rsi
 1494 09b0 4889C7   		movq	%rax, %rdi
 1495 09b3 E8000000 		call	_ZN8UnitTest11TestDetailsC1ERKS0_i@PLT
 1495      00
 1496              	.LEHE67:
 1497              		.loc 3 99 0 is_stmt 0 discriminator 2
 1498 09b8 488B5D80 		movq	-128(%rbp), %rbx
 1499 09bc 48C74588 		movq	$3, -120(%rbp)
 1499      03000000 
 1500              	.LEHB68:
 1501 09c4 E8000000 		call	_ZN8UnitTest11CurrentTest7ResultsEv@PLT
 1501      00
 1502 09c9 488B00   		movq	(%rax), %rax
 1503 09cc 488D5590 		leaq	-112(%rbp), %rdx
 1504 09d0 488D7588 		leaq	-120(%rbp), %rsi
 1505 09d4 4889D1   		movq	%rdx, %rcx
 1506 09d7 4889DA   		movq	%rbx, %rdx
 1507 09da 4889C7   		movq	%rax, %rdi
 1508 09dd E8000000 		call	_ZN8UnitTest10CheckEqualImjEEvRNS_11TestResultsERKT_RKT0_RKNS_11TestDetailsE
 1508      00
 1509              	.LEHE68:
 1510              	.L114:
 100:testCore.cpp  **** 	*item = 7;
 1511              		.loc 3 100 0 is_stmt 1
 1512 09e2 488B4580 		movq	-128(%rbp), %rax
 1513 09e6 C7000700 		movl	$7, (%rax)
 1513      0000
 101:testCore.cpp  **** 	queueCommitPut(&queue);
 1514              		.loc 3 101 0
 1515 09ec 488D45B0 		leaq	-80(%rbp), %rax
 1516 09f0 4889C7   		movq	%rax, %rdi
 1517              	.LEHB69:
 1518 09f3 E8000000 		call	queueCommitPut@PLT
 1518      00
 1519              	.LEHE69:
 1520              	.LEHB70:
 102:testCore.cpp  **** 
 103:testCore.cpp  **** 	// Verify
 104:testCore.cpp  **** 	CHECK_EQUAL(4UL, queue.capacity);
 1521              		.loc 3 104 0
 1522 09f8 E8000000 		call	_ZN8UnitTest11CurrentTest7DetailsEv@PLT
 1522      00
 1523 09fd 488B08   		movq	(%rax), %rcx
 1524 0a00 488D4590 		leaq	-112(%rbp), %rax
 1525 0a04 BA680000 		movl	$104, %edx
 1525      00
 1526 0a09 4889CE   		movq	%rcx, %rsi
 1527 0a0c 4889C7   		movq	%rax, %rdi
 1528 0a0f E8000000 		call	_ZN8UnitTest11TestDetailsC1ERKS0_i@PLT
 1528      00
 1529              	.LEHE70:
 1530              		.loc 3 104 0 is_stmt 0 discriminator 2
 1531 0a14 48C74588 		movq	$4, -120(%rbp)
 1531      04000000 
 1532              	.LEHB71:
 1533 0a1c E8000000 		call	_ZN8UnitTest11CurrentTest7ResultsEv@PLT
 1533      00
 1534 0a21 488B00   		movq	(%rax), %rax
 1535 0a24 488D5590 		leaq	-112(%rbp), %rdx
 1536 0a28 488D4DB0 		leaq	-80(%rbp), %rcx
 1537 0a2c 488D7908 		leaq	8(%rcx), %rdi
 1538 0a30 488D7588 		leaq	-120(%rbp), %rsi
 1539 0a34 4889D1   		movq	%rdx, %rcx
 1540 0a37 4889FA   		movq	%rdi, %rdx
 1541 0a3a 4889C7   		movq	%rax, %rdi
 1542 0a3d E8000000 		call	_ZN8UnitTest10CheckEqualImmEEvRNS_11TestResultsERKT_RKT0_RKNS_11TestDetailsE
 1542      00
 1543              	.LEHE71:
 1544              	.L118:
 1545              	.LEHB72:
 105:testCore.cpp  **** 	CHECK_EQUAL(3UL, queue.putIndex);
 1546              		.loc 3 105 0 is_stmt 1
 1547 0a42 E8000000 		call	_ZN8UnitTest11CurrentTest7DetailsEv@PLT
 1547      00
 1548 0a47 488B08   		movq	(%rax), %rcx
 1549 0a4a 488D4590 		leaq	-112(%rbp), %rax
 1550 0a4e BA690000 		movl	$105, %edx
 1550      00
 1551 0a53 4889CE   		movq	%rcx, %rsi
 1552 0a56 4889C7   		movq	%rax, %rdi
 1553 0a59 E8000000 		call	_ZN8UnitTest11TestDetailsC1ERKS0_i@PLT
 1553      00
 1554              	.LEHE72:
 1555              		.loc 3 105 0 is_stmt 0 discriminator 2
 1556 0a5e 48C74588 		movq	$3, -120(%rbp)
 1556      03000000 
 1557              	.LEHB73:
 1558 0a66 E8000000 		call	_ZN8UnitTest11CurrentTest7ResultsEv@PLT
 1558      00
 1559 0a6b 488B00   		movq	(%rax), %rax
 1560 0a6e 488D5590 		leaq	-112(%rbp), %rdx
 1561 0a72 488D4DB0 		leaq	-80(%rbp), %rcx
 1562 0a76 488D7910 		leaq	16(%rcx), %rdi
 1563 0a7a 488D7588 		leaq	-120(%rbp), %rsi
 1564 0a7e 4889D1   		movq	%rdx, %rcx
 1565 0a81 4889FA   		movq	%rdi, %rdx
 1566 0a84 4889C7   		movq	%rax, %rdi
 1567 0a87 E8000000 		call	_ZN8UnitTest10CheckEqualImmEEvRNS_11TestResultsERKT_RKT0_RKNS_11TestDetailsE
 1567      00
 1568              	.LEHE73:
 1569              	.L122:
 1570              	.LEHB74:
 106:testCore.cpp  **** 	CHECK_EQUAL(0UL, queue.takeIndex);
 1571              		.loc 3 106 0 is_stmt 1
 1572 0a8c E8000000 		call	_ZN8UnitTest11CurrentTest7DetailsEv@PLT
 1572      00
 1573 0a91 488B08   		movq	(%rax), %rcx
 1574 0a94 488D4590 		leaq	-112(%rbp), %rax
 1575 0a98 BA6A0000 		movl	$106, %edx
 1575      00
 1576 0a9d 4889CE   		movq	%rcx, %rsi
 1577 0aa0 4889C7   		movq	%rax, %rdi
 1578 0aa3 E8000000 		call	_ZN8UnitTest11TestDetailsC1ERKS0_i@PLT
 1578      00
 1579              	.LEHE74:
 1580              		.loc 3 106 0 is_stmt 0 discriminator 2
 1581 0aa8 48C74588 		movq	$0, -120(%rbp)
 1581      00000000 
 1582              	.LEHB75:
 1583 0ab0 E8000000 		call	_ZN8UnitTest11CurrentTest7ResultsEv@PLT
 1583      00
 1584 0ab5 488B00   		movq	(%rax), %rax
 1585 0ab8 488D5590 		leaq	-112(%rbp), %rdx
 1586 0abc 488D4DB0 		leaq	-80(%rbp), %rcx
 1587 0ac0 488D7918 		leaq	24(%rcx), %rdi
 1588 0ac4 488D7588 		leaq	-120(%rbp), %rsi
 1589 0ac8 4889D1   		movq	%rdx, %rcx
 1590 0acb 4889FA   		movq	%rdi, %rdx
 1591 0ace 4889C7   		movq	%rax, %rdi
 1592 0ad1 E8000000 		call	_ZN8UnitTest10CheckEqualImmEEvRNS_11TestResultsERKT_RKT0_RKNS_11TestDetailsE
 1592      00
 1593              	.LEHE75:
 1594              	.L126:
 1595              	.LEHB76:
 107:testCore.cpp  **** 	CHECK_EQUAL(3UL, queue.numItems);
 1596              		.loc 3 107 0 is_stmt 1
 1597 0ad6 E8000000 		call	_ZN8UnitTest11CurrentTest7DetailsEv@PLT
 1597      00
 1598 0adb 488B08   		movq	(%rax), %rcx
 1599 0ade 488D4590 		leaq	-112(%rbp), %rax
 1600 0ae2 BA6B0000 		movl	$107, %edx
 1600      00
 1601 0ae7 4889CE   		movq	%rcx, %rsi
 1602 0aea 4889C7   		movq	%rax, %rdi
 1603 0aed E8000000 		call	_ZN8UnitTest11TestDetailsC1ERKS0_i@PLT
 1603      00
 1604              	.LEHE76:
 1605              		.loc 3 107 0 is_stmt 0 discriminator 2
 1606 0af2 48C74588 		movq	$3, -120(%rbp)
 1606      03000000 
 1607              	.LEHB77:
 1608 0afa E8000000 		call	_ZN8UnitTest11CurrentTest7ResultsEv@PLT
 1608      00
 1609 0aff 488B00   		movq	(%rax), %rax
 1610 0b02 488D5590 		leaq	-112(%rbp), %rdx
 1611 0b06 488D4DB0 		leaq	-80(%rbp), %rcx
 1612 0b0a 488D7920 		leaq	32(%rcx), %rdi
 1613 0b0e 488D7588 		leaq	-120(%rbp), %rsi
 1614 0b12 4889D1   		movq	%rdx, %rcx
 1615 0b15 4889FA   		movq	%rdi, %rdx
 1616 0b18 4889C7   		movq	%rax, %rdi
 1617 0b1b E8000000 		call	_ZN8UnitTest10CheckEqualImmEEvRNS_11TestResultsERKT_RKT0_RKNS_11TestDetailsE
 1617      00
 1618              	.LEHE77:
 1619              	.L130:
 1620              	.LEHB78:
 108:testCore.cpp  **** 
 109:testCore.cpp  **** 	// Verify array
 110:testCore.cpp  **** 	CHECK_EQUAL(5UL, deref(queue.itemArray[0]));
 1621              		.loc 3 110 0 is_stmt 1
 1622 0b20 E8000000 		call	_ZN8UnitTest11CurrentTest7DetailsEv@PLT
 1622      00
 1623 0b25 488B08   		movq	(%rax), %rcx
 1624 0b28 488D4590 		leaq	-112(%rbp), %rax
 1625 0b2c BA6E0000 		movl	$110, %edx
 1625      00
 1626 0b31 4889CE   		movq	%rcx, %rsi
 1627 0b34 4889C7   		movq	%rax, %rdi
 1628 0b37 E8000000 		call	_ZN8UnitTest11TestDetailsC1ERKS0_i@PLT
 1628      00
 1629              	.LEHE78:
 1630              		.loc 3 110 0 is_stmt 0 discriminator 2
 1631 0b3c 488B45B0 		movq	-80(%rbp), %rax
 1632 0b40 488B00   		movq	(%rax), %rax
 1633 0b43 4889C7   		movq	%rax, %rdi
 1634 0b46 E83FF5FF 		call	_ZL5derefPKv
 1634      FF
 1635 0b4b 89857CFF 		movl	%eax, -132(%rbp)
 1635      FFFF
 1636 0b51 48C74588 		movq	$5, -120(%rbp)
 1636      05000000 
 1637              	.LEHB79:
 1638 0b59 E8000000 		call	_ZN8UnitTest11CurrentTest7ResultsEv@PLT
 1638      00
 1639 0b5e 488B00   		movq	(%rax), %rax
 1640 0b61 488D4D90 		leaq	-112(%rbp), %rcx
 1641 0b65 488D957C 		leaq	-132(%rbp), %rdx
 1641      FFFFFF
 1642 0b6c 488D7588 		leaq	-120(%rbp), %rsi
 1643 0b70 4889C7   		movq	%rax, %rdi
 1644 0b73 E8000000 		call	_ZN8UnitTest10CheckEqualImjEEvRNS_11TestResultsERKT_RKT0_RKNS_11TestDetailsE
 1644      00
 1645              	.LEHE79:
 1646              	.L134:
 1647              	.LEHB80:
 111:testCore.cpp  **** 	CHECK_EQUAL(6UL, deref(queue.itemArray[1]));
 1648              		.loc 3 111 0 is_stmt 1
 1649 0b78 E8000000 		call	_ZN8UnitTest11CurrentTest7DetailsEv@PLT
 1649      00
 1650 0b7d 488B08   		movq	(%rax), %rcx
 1651 0b80 488D4590 		leaq	-112(%rbp), %rax
 1652 0b84 BA6F0000 		movl	$111, %edx
 1652      00
 1653 0b89 4889CE   		movq	%rcx, %rsi
 1654 0b8c 4889C7   		movq	%rax, %rdi
 1655 0b8f E8000000 		call	_ZN8UnitTest11TestDetailsC1ERKS0_i@PLT
 1655      00
 1656              	.LEHE80:
 1657              		.loc 3 111 0 is_stmt 0 discriminator 2
 1658 0b94 488B45B0 		movq	-80(%rbp), %rax
 1659 0b98 4883C008 		addq	$8, %rax
 1660 0b9c 488B00   		movq	(%rax), %rax
 1661 0b9f 4889C7   		movq	%rax, %rdi
 1662 0ba2 E8E3F4FF 		call	_ZL5derefPKv
 1662      FF
 1663 0ba7 89857CFF 		movl	%eax, -132(%rbp)
 1663      FFFF
 1664 0bad 48C74588 		movq	$6, -120(%rbp)
 1664      06000000 
 1665              	.LEHB81:
 1666 0bb5 E8000000 		call	_ZN8UnitTest11CurrentTest7ResultsEv@PLT
 1666      00
 1667 0bba 488B00   		movq	(%rax), %rax
 1668 0bbd 488D4D90 		leaq	-112(%rbp), %rcx
 1669 0bc1 488D957C 		leaq	-132(%rbp), %rdx
 1669      FFFFFF
 1670 0bc8 488D7588 		leaq	-120(%rbp), %rsi
 1671 0bcc 4889C7   		movq	%rax, %rdi
 1672 0bcf E8000000 		call	_ZN8UnitTest10CheckEqualImjEEvRNS_11TestResultsERKT_RKT0_RKNS_11TestDetailsE
 1672      00
 1673              	.LEHE81:
 1674              	.L138:
 1675              	.LEHB82:
 112:testCore.cpp  **** 	CHECK_EQUAL(7UL, deref(queue.itemArray[2]));
 1676              		.loc 3 112 0 is_stmt 1
 1677 0bd4 E8000000 		call	_ZN8UnitTest11CurrentTest7DetailsEv@PLT
 1677      00
 1678 0bd9 488B08   		movq	(%rax), %rcx
 1679 0bdc 488D4590 		leaq	-112(%rbp), %rax
 1680 0be0 BA700000 		movl	$112, %edx
 1680      00
 1681 0be5 4889CE   		movq	%rcx, %rsi
 1682 0be8 4889C7   		movq	%rax, %rdi
 1683 0beb E8000000 		call	_ZN8UnitTest11TestDetailsC1ERKS0_i@PLT
 1683      00
 1684              	.LEHE82:
 1685              		.loc 3 112 0 is_stmt 0 discriminator 2
 1686 0bf0 488B45B0 		movq	-80(%rbp), %rax
 1687 0bf4 4883C010 		addq	$16, %rax
 1688 0bf8 488B00   		movq	(%rax), %rax
 1689 0bfb 4889C7   		movq	%rax, %rdi
 1690 0bfe E887F4FF 		call	_ZL5derefPKv
 1690      FF
 1691 0c03 89857CFF 		movl	%eax, -132(%rbp)
 1691      FFFF
 1692 0c09 48C74588 		movq	$7, -120(%rbp)
 1692      07000000 
 1693              	.LEHB83:
 1694 0c11 E8000000 		call	_ZN8UnitTest11CurrentTest7ResultsEv@PLT
 1694      00
 1695 0c16 488B00   		movq	(%rax), %rax
 1696 0c19 488D4D90 		leaq	-112(%rbp), %rcx
 1697 0c1d 488D957C 		leaq	-132(%rbp), %rdx
 1697      FFFFFF
 1698 0c24 488D7588 		leaq	-120(%rbp), %rsi
 1699 0c28 4889C7   		movq	%rax, %rdi
 1700 0c2b E8000000 		call	_ZN8UnitTest10CheckEqualImjEEvRNS_11TestResultsERKT_RKT0_RKNS_11TestDetailsE
 1700      00
 1701              	.LEHE83:
 1702              	.L142:
 1703              	.LEHB84:
 113:testCore.cpp  **** 	CHECK_EQUAL(4UL, deref(queue.itemArray[3]));
 1704              		.loc 3 113 0 is_stmt 1
 1705 0c30 E8000000 		call	_ZN8UnitTest11CurrentTest7DetailsEv@PLT
 1705      00
 1706 0c35 488B08   		movq	(%rax), %rcx
 1707 0c38 488D4590 		leaq	-112(%rbp), %rax
 1708 0c3c BA710000 		movl	$113, %edx
 1708      00
 1709 0c41 4889CE   		movq	%rcx, %rsi
 1710 0c44 4889C7   		movq	%rax, %rdi
 1711 0c47 E8000000 		call	_ZN8UnitTest11TestDetailsC1ERKS0_i@PLT
 1711      00
 1712              	.LEHE84:
 1713              		.loc 3 113 0 is_stmt 0 discriminator 2
 1714 0c4c 488B45B0 		movq	-80(%rbp), %rax
 1715 0c50 4883C018 		addq	$24, %rax
 1716 0c54 488B00   		movq	(%rax), %rax
 1717 0c57 4889C7   		movq	%rax, %rdi
 1718 0c5a E82BF4FF 		call	_ZL5derefPKv
 1718      FF
 1719 0c5f 89857CFF 		movl	%eax, -132(%rbp)
 1719      FFFF
 1720 0c65 48C74588 		movq	$4, -120(%rbp)
 1720      04000000 
 1721              	.LEHB85:
 1722 0c6d E8000000 		call	_ZN8UnitTest11CurrentTest7ResultsEv@PLT
 1722      00
 1723 0c72 488B00   		movq	(%rax), %rax
 1724 0c75 488D4D90 		leaq	-112(%rbp), %rcx
 1725 0c79 488D957C 		leaq	-132(%rbp), %rdx
 1725      FFFFFF
 1726 0c80 488D7588 		leaq	-120(%rbp), %rsi
 1727 0c84 4889C7   		movq	%rax, %rdi
 1728 0c87 E8000000 		call	_ZN8UnitTest10CheckEqualImjEEvRNS_11TestResultsERKT_RKT0_RKNS_11TestDetailsE
 1728      00
 1729              	.LEHE85:
 1730              	.L146:
 114:testCore.cpp  **** 
 115:testCore.cpp  **** 	// Clean up
 116:testCore.cpp  **** 	queueDestroy(&queue);
 1731              		.loc 3 116 0 is_stmt 1
 1732 0c8c 488D45B0 		leaq	-80(%rbp), %rax
 1733 0c90 4889C7   		movq	%rax, %rdi
 1734              	.LEHB86:
 1735 0c93 E8000000 		call	queueDestroy@PLT
 1735      00
 1736              	.LEHE86:
 117:testCore.cpp  **** }
 1737              		.loc 3 117 0
 1738 0c98 90       		nop
 1739 0c99 488B45E8 		movq	-24(%rbp), %rax
 1740 0c9d 64483304 		xorq	%fs:40, %rax
 1740      25280000 
 1740      00
 1741 0ca6 0F84B905 		je	.L148
 1741      0000
 1742 0cac E9AF0500 		jmp	.L194
 1742      00
 1743              	.L150:
 1744 0cb1 EB00     		jmp	.L89
 1745              	.L149:
 1746              	.L89:
  84:testCore.cpp  **** 
 1747              		.loc 3 84 0
 1748 0cb3 4889C7   		movq	%rax, %rdi
 1749 0cb6 E8000000 		call	__cxa_begin_catch@PLT
 1749      00
 1750              	.LEHB87:
 1751 0cbb E8000000 		call	_ZN8UnitTest11CurrentTest7ResultsEv@PLT
 1751      00
 1752 0cc0 488B18   		movq	(%rax), %rbx
 1753 0cc3 E8000000 		call	_ZN8UnitTest11CurrentTest7DetailsEv@PLT
 1753      00
  84:testCore.cpp  **** 
 1754              		.loc 3 84 0 is_stmt 0 discriminator 8
 1755 0cc8 488B08   		movq	(%rax), %rcx
 1756 0ccb 488D4590 		leaq	-112(%rbp), %rax
 1757 0ccf BA540000 		movl	$84, %edx
 1757      00
 1758 0cd4 4889CE   		movq	%rcx, %rsi
 1759 0cd7 4889C7   		movq	%rax, %rdi
 1760 0cda E8000000 		call	_ZN8UnitTest11TestDetailsC1ERKS0_i@PLT
 1760      00
  84:testCore.cpp  **** 
 1761              		.loc 3 84 0 discriminator 12
 1762 0cdf 488D4590 		leaq	-112(%rbp), %rax
 1763 0ce3 488D1500 		leaq	.LC3(%rip), %rdx
 1763      000000
 1764 0cea 4889C6   		movq	%rax, %rsi
 1765 0ced 4889DF   		movq	%rbx, %rdi
 1766 0cf0 E8000000 		call	_ZN8UnitTest11TestResults13OnTestFailureERKNS_11TestDetailsEPKc@PLT
 1766      00
 1767              	.LEHE87:
 1768              	.LEHB88:
  84:testCore.cpp  **** 
 1769              		.loc 3 84 0 discriminator 14
 1770 0cf5 E8000000 		call	__cxa_end_catch@PLT
 1770      00
 1771              	.LEHE88:
 1772 0cfa E9D4FAFF 		jmp	.L90
 1772      FF
 1773              	.L151:
 1774 0cff 4889C3   		movq	%rax, %rbx
  84:testCore.cpp  **** 
 1775              		.loc 3 84 0
 1776 0d02 E8000000 		call	__cxa_end_catch@PLT
 1776      00
 1777 0d07 4889D8   		movq	%rbx, %rax
 1778 0d0a 4889C7   		movq	%rax, %rdi
 1779              	.LEHB89:
 1780 0d0d E8000000 		call	_Unwind_Resume@PLT
 1780      00
 1781              	.LEHE89:
 1782              	.L153:
 1783 0d12 EB00     		jmp	.L93
 1784              	.L152:
 1785              	.L93:
  88:testCore.cpp  **** 	CHECK_EQUAL(1UL, *item);
 1786              		.loc 3 88 0 is_stmt 1
 1787 0d14 4889C7   		movq	%rax, %rdi
 1788 0d17 E8000000 		call	__cxa_begin_catch@PLT
 1788      00
 1789              	.LEHB90:
 1790 0d1c E8000000 		call	_ZN8UnitTest11CurrentTest7ResultsEv@PLT
 1790      00
 1791 0d21 488B18   		movq	(%rax), %rbx
 1792 0d24 E8000000 		call	_ZN8UnitTest11CurrentTest7DetailsEv@PLT
 1792      00
  88:testCore.cpp  **** 	CHECK_EQUAL(1UL, *item);
 1793              		.loc 3 88 0 is_stmt 0 discriminator 8
 1794 0d29 488B08   		movq	(%rax), %rcx
 1795 0d2c 488D4590 		leaq	-112(%rbp), %rax
 1796 0d30 BA580000 		movl	$88, %edx
 1796      00
 1797 0d35 4889CE   		movq	%rcx, %rsi
 1798 0d38 4889C7   		movq	%rax, %rdi
 1799 0d3b E8000000 		call	_ZN8UnitTest11TestDetailsC1ERKS0_i@PLT
 1799      00
  88:testCore.cpp  **** 	CHECK_EQUAL(1UL, *item);
 1800              		.loc 3 88 0 discriminator 12
 1801 0d40 488D4590 		leaq	-112(%rbp), %rax
 1802 0d44 488D1500 		leaq	.LC3(%rip), %rdx
 1802      000000
 1803 0d4b 4889C6   		movq	%rax, %rsi
 1804 0d4e 4889DF   		movq	%rbx, %rdi
 1805 0d51 E8000000 		call	_ZN8UnitTest11TestResults13OnTestFailureERKNS_11TestDetailsEPKc@PLT
 1805      00
 1806              	.LEHE90:
 1807              	.LEHB91:
  88:testCore.cpp  **** 	CHECK_EQUAL(1UL, *item);
 1808              		.loc 3 88 0 discriminator 14
 1809 0d56 E8000000 		call	__cxa_end_catch@PLT
 1809      00
 1810              	.LEHE91:
 1811 0d5b E9CEFAFF 		jmp	.L94
 1811      FF
 1812              	.L154:
 1813 0d60 4889C3   		movq	%rax, %rbx
  88:testCore.cpp  **** 	CHECK_EQUAL(1UL, *item);
 1814              		.loc 3 88 0
 1815 0d63 E8000000 		call	__cxa_end_catch@PLT
 1815      00
 1816 0d68 4889D8   		movq	%rbx, %rax
 1817 0d6b 4889C7   		movq	%rax, %rdi
 1818              	.LEHB92:
 1819 0d6e E8000000 		call	_Unwind_Resume@PLT
 1819      00
 1820              	.LEHE92:
 1821              	.L156:
 1822 0d73 EB00     		jmp	.L97
 1823              	.L155:
 1824              	.L97:
  89:testCore.cpp  **** 	*item = 5;
 1825              		.loc 3 89 0 is_stmt 1
 1826 0d75 4889C7   		movq	%rax, %rdi
 1827 0d78 E8000000 		call	__cxa_begin_catch@PLT
 1827      00
 1828              	.LEHB93:
 1829 0d7d E8000000 		call	_ZN8UnitTest11CurrentTest7ResultsEv@PLT
 1829      00
 1830 0d82 488B18   		movq	(%rax), %rbx
 1831 0d85 E8000000 		call	_ZN8UnitTest11CurrentTest7DetailsEv@PLT
 1831      00
  89:testCore.cpp  **** 	*item = 5;
 1832              		.loc 3 89 0 is_stmt 0 discriminator 8
 1833 0d8a 488B08   		movq	(%rax), %rcx
 1834 0d8d 488D4590 		leaq	-112(%rbp), %rax
 1835 0d91 BA590000 		movl	$89, %edx
 1835      00
 1836 0d96 4889CE   		movq	%rcx, %rsi
 1837 0d99 4889C7   		movq	%rax, %rdi
 1838 0d9c E8000000 		call	_ZN8UnitTest11TestDetailsC1ERKS0_i@PLT
 1838      00
  89:testCore.cpp  **** 	*item = 5;
 1839              		.loc 3 89 0 discriminator 12
 1840 0da1 488D4590 		leaq	-112(%rbp), %rax
 1841 0da5 488D1500 		leaq	.LC13(%rip), %rdx
 1841      000000
 1842 0dac 4889C6   		movq	%rax, %rsi
 1843 0daf 4889DF   		movq	%rbx, %rdi
 1844 0db2 E8000000 		call	_ZN8UnitTest11TestResults13OnTestFailureERKNS_11TestDetailsEPKc@PLT
 1844      00
 1845              	.LEHE93:
 1846              	.LEHB94:
  89:testCore.cpp  **** 	*item = 5;
 1847              		.loc 3 89 0 discriminator 14
 1848 0db7 E8000000 		call	__cxa_end_catch@PLT
 1848      00
 1849              	.LEHE94:
 1850 0dbc E9B3FAFF 		jmp	.L98
 1850      FF
 1851              	.L157:
 1852 0dc1 4889C3   		movq	%rax, %rbx
  89:testCore.cpp  **** 	*item = 5;
 1853              		.loc 3 89 0
 1854 0dc4 E8000000 		call	__cxa_end_catch@PLT
 1854      00
 1855 0dc9 4889D8   		movq	%rbx, %rax
 1856 0dcc 4889C7   		movq	%rax, %rdi
 1857              	.LEHB95:
 1858 0dcf E8000000 		call	_Unwind_Resume@PLT
 1858      00
 1859              	.LEHE95:
 1860              	.L159:
 1861 0dd4 EB00     		jmp	.L101
 1862              	.L158:
 1863              	.L101:
  93:testCore.cpp  **** 	CHECK_EQUAL(2UL, *item);
 1864              		.loc 3 93 0 is_stmt 1
 1865 0dd6 4889C7   		movq	%rax, %rdi
 1866 0dd9 E8000000 		call	__cxa_begin_catch@PLT
 1866      00
 1867              	.LEHB96:
 1868 0dde E8000000 		call	_ZN8UnitTest11CurrentTest7ResultsEv@PLT
 1868      00
 1869 0de3 488B18   		movq	(%rax), %rbx
 1870 0de6 E8000000 		call	_ZN8UnitTest11CurrentTest7DetailsEv@PLT
 1870      00
  93:testCore.cpp  **** 	CHECK_EQUAL(2UL, *item);
 1871              		.loc 3 93 0 is_stmt 0 discriminator 8
 1872 0deb 488B08   		movq	(%rax), %rcx
 1873 0dee 488D4590 		leaq	-112(%rbp), %rax
 1874 0df2 BA5D0000 		movl	$93, %edx
 1874      00
 1875 0df7 4889CE   		movq	%rcx, %rsi
 1876 0dfa 4889C7   		movq	%rax, %rdi
 1877 0dfd E8000000 		call	_ZN8UnitTest11TestDetailsC1ERKS0_i@PLT
 1877      00
  93:testCore.cpp  **** 	CHECK_EQUAL(2UL, *item);
 1878              		.loc 3 93 0 discriminator 12
 1879 0e02 488D4590 		leaq	-112(%rbp), %rax
 1880 0e06 488D1500 		leaq	.LC3(%rip), %rdx
 1880      000000
 1881 0e0d 4889C6   		movq	%rax, %rsi
 1882 0e10 4889DF   		movq	%rbx, %rdi
 1883 0e13 E8000000 		call	_ZN8UnitTest11TestResults13OnTestFailureERKNS_11TestDetailsEPKc@PLT
 1883      00
 1884              	.LEHE96:
 1885              	.LEHB97:
  93:testCore.cpp  **** 	CHECK_EQUAL(2UL, *item);
 1886              		.loc 3 93 0 discriminator 14
 1887 0e18 E8000000 		call	__cxa_end_catch@PLT
 1887      00
 1888              	.LEHE97:
 1889 0e1d E9C3FAFF 		jmp	.L102
 1889      FF
 1890              	.L160:
 1891 0e22 4889C3   		movq	%rax, %rbx
  93:testCore.cpp  **** 	CHECK_EQUAL(2UL, *item);
 1892              		.loc 3 93 0
 1893 0e25 E8000000 		call	__cxa_end_catch@PLT
 1893      00
 1894 0e2a 4889D8   		movq	%rbx, %rax
 1895 0e2d 4889C7   		movq	%rax, %rdi
 1896              	.LEHB98:
 1897 0e30 E8000000 		call	_Unwind_Resume@PLT
 1897      00
 1898              	.LEHE98:
 1899              	.L162:
 1900 0e35 EB00     		jmp	.L105
 1901              	.L161:
 1902              	.L105:
  94:testCore.cpp  **** 	*item = 6;
 1903              		.loc 3 94 0 is_stmt 1
 1904 0e37 4889C7   		movq	%rax, %rdi
 1905 0e3a E8000000 		call	__cxa_begin_catch@PLT
 1905      00
 1906              	.LEHB99:
 1907 0e3f E8000000 		call	_ZN8UnitTest11CurrentTest7ResultsEv@PLT
 1907      00
 1908 0e44 488B18   		movq	(%rax), %rbx
 1909 0e47 E8000000 		call	_ZN8UnitTest11CurrentTest7DetailsEv@PLT
 1909      00
  94:testCore.cpp  **** 	*item = 6;
 1910              		.loc 3 94 0 is_stmt 0 discriminator 8
 1911 0e4c 488B08   		movq	(%rax), %rcx
 1912 0e4f 488D4590 		leaq	-112(%rbp), %rax
 1913 0e53 BA5E0000 		movl	$94, %edx
 1913      00
 1914 0e58 4889CE   		movq	%rcx, %rsi
 1915 0e5b 4889C7   		movq	%rax, %rdi
 1916 0e5e E8000000 		call	_ZN8UnitTest11TestDetailsC1ERKS0_i@PLT
 1916      00
  94:testCore.cpp  **** 	*item = 6;
 1917              		.loc 3 94 0 discriminator 12
 1918 0e63 488D4590 		leaq	-112(%rbp), %rax
 1919 0e67 488D1500 		leaq	.LC14(%rip), %rdx
 1919      000000
 1920 0e6e 4889C6   		movq	%rax, %rsi
 1921 0e71 4889DF   		movq	%rbx, %rdi
 1922 0e74 E8000000 		call	_ZN8UnitTest11TestResults13OnTestFailureERKNS_11TestDetailsEPKc@PLT
 1922      00
 1923              	.LEHE99:
 1924              	.LEHB100:
  94:testCore.cpp  **** 	*item = 6;
 1925              		.loc 3 94 0 discriminator 14
 1926 0e79 E8000000 		call	__cxa_end_catch@PLT
 1926      00
 1927              	.LEHE100:
 1928 0e7e E9A8FAFF 		jmp	.L106
 1928      FF
 1929              	.L163:
 1930 0e83 4889C3   		movq	%rax, %rbx
  94:testCore.cpp  **** 	*item = 6;
 1931              		.loc 3 94 0
 1932 0e86 E8000000 		call	__cxa_end_catch@PLT
 1932      00
 1933 0e8b 4889D8   		movq	%rbx, %rax
 1934 0e8e 4889C7   		movq	%rax, %rdi
 1935              	.LEHB101:
 1936 0e91 E8000000 		call	_Unwind_Resume@PLT
 1936      00
 1937              	.LEHE101:
 1938              	.L165:
 1939 0e96 EB00     		jmp	.L109
 1940              	.L164:
 1941              	.L109:
  98:testCore.cpp  **** 	CHECK_EQUAL(3UL, *item);
 1942              		.loc 3 98 0 is_stmt 1
 1943 0e98 4889C7   		movq	%rax, %rdi
 1944 0e9b E8000000 		call	__cxa_begin_catch@PLT
 1944      00
 1945              	.LEHB102:
 1946 0ea0 E8000000 		call	_ZN8UnitTest11CurrentTest7ResultsEv@PLT
 1946      00
 1947 0ea5 488B18   		movq	(%rax), %rbx
 1948 0ea8 E8000000 		call	_ZN8UnitTest11CurrentTest7DetailsEv@PLT
 1948      00
  98:testCore.cpp  **** 	CHECK_EQUAL(3UL, *item);
 1949              		.loc 3 98 0 is_stmt 0 discriminator 8
 1950 0ead 488B08   		movq	(%rax), %rcx
 1951 0eb0 488D4590 		leaq	-112(%rbp), %rax
 1952 0eb4 BA620000 		movl	$98, %edx
 1952      00
 1953 0eb9 4889CE   		movq	%rcx, %rsi
 1954 0ebc 4889C7   		movq	%rax, %rdi
 1955 0ebf E8000000 		call	_ZN8UnitTest11TestDetailsC1ERKS0_i@PLT
 1955      00
  98:testCore.cpp  **** 	CHECK_EQUAL(3UL, *item);
 1956              		.loc 3 98 0 discriminator 12
 1957 0ec4 488D4590 		leaq	-112(%rbp), %rax
 1958 0ec8 488D1500 		leaq	.LC3(%rip), %rdx
 1958      000000
 1959 0ecf 4889C6   		movq	%rax, %rsi
 1960 0ed2 4889DF   		movq	%rbx, %rdi
 1961 0ed5 E8000000 		call	_ZN8UnitTest11TestResults13OnTestFailureERKNS_11TestDetailsEPKc@PLT
 1961      00
 1962              	.LEHE102:
 1963              	.LEHB103:
  98:testCore.cpp  **** 	CHECK_EQUAL(3UL, *item);
 1964              		.loc 3 98 0 discriminator 14
 1965 0eda E8000000 		call	__cxa_end_catch@PLT
 1965      00
 1966              	.LEHE103:
 1967 0edf E9B8FAFF 		jmp	.L110
 1967      FF
 1968              	.L166:
 1969 0ee4 4889C3   		movq	%rax, %rbx
  98:testCore.cpp  **** 	CHECK_EQUAL(3UL, *item);
 1970              		.loc 3 98 0
 1971 0ee7 E8000000 		call	__cxa_end_catch@PLT
 1971      00
 1972 0eec 4889D8   		movq	%rbx, %rax
 1973 0eef 4889C7   		movq	%rax, %rdi
 1974              	.LEHB104:
 1975 0ef2 E8000000 		call	_Unwind_Resume@PLT
 1975      00
 1976              	.LEHE104:
 1977              	.L168:
 1978 0ef7 EB00     		jmp	.L113
 1979              	.L167:
 1980              	.L113:
  99:testCore.cpp  **** 	*item = 7;
 1981              		.loc 3 99 0 is_stmt 1
 1982 0ef9 4889C7   		movq	%rax, %rdi
 1983 0efc E8000000 		call	__cxa_begin_catch@PLT
 1983      00
 1984              	.LEHB105:
 1985 0f01 E8000000 		call	_ZN8UnitTest11CurrentTest7ResultsEv@PLT
 1985      00
 1986 0f06 488B18   		movq	(%rax), %rbx
 1987 0f09 E8000000 		call	_ZN8UnitTest11CurrentTest7DetailsEv@PLT
 1987      00
  99:testCore.cpp  **** 	*item = 7;
 1988              		.loc 3 99 0 is_stmt 0 discriminator 8
 1989 0f0e 488B08   		movq	(%rax), %rcx
 1990 0f11 488D4590 		leaq	-112(%rbp), %rax
 1991 0f15 BA630000 		movl	$99, %edx
 1991      00
 1992 0f1a 4889CE   		movq	%rcx, %rsi
 1993 0f1d 4889C7   		movq	%rax, %rdi
 1994 0f20 E8000000 		call	_ZN8UnitTest11TestDetailsC1ERKS0_i@PLT
 1994      00
  99:testCore.cpp  **** 	*item = 7;
 1995              		.loc 3 99 0 discriminator 12
 1996 0f25 488D4590 		leaq	-112(%rbp), %rax
 1997 0f29 488D1500 		leaq	.LC15(%rip), %rdx
 1997      000000
 1998 0f30 4889C6   		movq	%rax, %rsi
 1999 0f33 4889DF   		movq	%rbx, %rdi
 2000 0f36 E8000000 		call	_ZN8UnitTest11TestResults13OnTestFailureERKNS_11TestDetailsEPKc@PLT
 2000      00
 2001              	.LEHE105:
 2002              	.LEHB106:
  99:testCore.cpp  **** 	*item = 7;
 2003              		.loc 3 99 0 discriminator 14
 2004 0f3b E8000000 		call	__cxa_end_catch@PLT
 2004      00
 2005              	.LEHE106:
 2006 0f40 E99DFAFF 		jmp	.L114
 2006      FF
 2007              	.L169:
 2008 0f45 4889C3   		movq	%rax, %rbx
  99:testCore.cpp  **** 	*item = 7;
 2009              		.loc 3 99 0
 2010 0f48 E8000000 		call	__cxa_end_catch@PLT
 2010      00
 2011 0f4d 4889D8   		movq	%rbx, %rax
 2012 0f50 4889C7   		movq	%rax, %rdi
 2013              	.LEHB107:
 2014 0f53 E8000000 		call	_Unwind_Resume@PLT
 2014      00
 2015              	.LEHE107:
 2016              	.L171:
 2017 0f58 EB00     		jmp	.L117
 2018              	.L170:
 2019              	.L117:
 104:testCore.cpp  **** 	CHECK_EQUAL(3UL, queue.putIndex);
 2020              		.loc 3 104 0 is_stmt 1
 2021 0f5a 4889C7   		movq	%rax, %rdi
 2022 0f5d E8000000 		call	__cxa_begin_catch@PLT
 2022      00
 2023              	.LEHB108:
 2024 0f62 E8000000 		call	_ZN8UnitTest11CurrentTest7ResultsEv@PLT
 2024      00
 2025 0f67 488B18   		movq	(%rax), %rbx
 2026 0f6a E8000000 		call	_ZN8UnitTest11CurrentTest7DetailsEv@PLT
 2026      00
 104:testCore.cpp  **** 	CHECK_EQUAL(3UL, queue.putIndex);
 2027              		.loc 3 104 0 is_stmt 0 discriminator 8
 2028 0f6f 488B08   		movq	(%rax), %rcx
 2029 0f72 488D4590 		leaq	-112(%rbp), %rax
 2030 0f76 BA680000 		movl	$104, %edx
 2030      00
 2031 0f7b 4889CE   		movq	%rcx, %rsi
 2032 0f7e 4889C7   		movq	%rax, %rdi
 2033 0f81 E8000000 		call	_ZN8UnitTest11TestDetailsC1ERKS0_i@PLT
 2033      00
 104:testCore.cpp  **** 	CHECK_EQUAL(3UL, queue.putIndex);
 2034              		.loc 3 104 0 discriminator 12
 2035 0f86 488D4590 		leaq	-112(%rbp), %rax
 2036 0f8a 488D1500 		leaq	.LC4(%rip), %rdx
 2036      000000
 2037 0f91 4889C6   		movq	%rax, %rsi
 2038 0f94 4889DF   		movq	%rbx, %rdi
 2039 0f97 E8000000 		call	_ZN8UnitTest11TestResults13OnTestFailureERKNS_11TestDetailsEPKc@PLT
 2039      00
 2040              	.LEHE108:
 2041              	.LEHB109:
 104:testCore.cpp  **** 	CHECK_EQUAL(3UL, queue.putIndex);
 2042              		.loc 3 104 0 discriminator 14
 2043 0f9c E8000000 		call	__cxa_end_catch@PLT
 2043      00
 2044              	.LEHE109:
 2045 0fa1 E99CFAFF 		jmp	.L118
 2045      FF
 2046              	.L172:
 2047 0fa6 4889C3   		movq	%rax, %rbx
 104:testCore.cpp  **** 	CHECK_EQUAL(3UL, queue.putIndex);
 2048              		.loc 3 104 0
 2049 0fa9 E8000000 		call	__cxa_end_catch@PLT
 2049      00
 2050 0fae 4889D8   		movq	%rbx, %rax
 2051 0fb1 4889C7   		movq	%rax, %rdi
 2052              	.LEHB110:
 2053 0fb4 E8000000 		call	_Unwind_Resume@PLT
 2053      00
 2054              	.LEHE110:
 2055              	.L174:
 2056 0fb9 EB00     		jmp	.L121
 2057              	.L173:
 2058              	.L121:
 105:testCore.cpp  **** 	CHECK_EQUAL(0UL, queue.takeIndex);
 2059              		.loc 3 105 0 is_stmt 1
 2060 0fbb 4889C7   		movq	%rax, %rdi
 2061 0fbe E8000000 		call	__cxa_begin_catch@PLT
 2061      00
 2062              	.LEHB111:
 2063 0fc3 E8000000 		call	_ZN8UnitTest11CurrentTest7ResultsEv@PLT
 2063      00
 2064 0fc8 488B18   		movq	(%rax), %rbx
 2065 0fcb E8000000 		call	_ZN8UnitTest11CurrentTest7DetailsEv@PLT
 2065      00
 105:testCore.cpp  **** 	CHECK_EQUAL(0UL, queue.takeIndex);
 2066              		.loc 3 105 0 is_stmt 0 discriminator 8
 2067 0fd0 488B08   		movq	(%rax), %rcx
 2068 0fd3 488D4590 		leaq	-112(%rbp), %rax
 2069 0fd7 BA690000 		movl	$105, %edx
 2069      00
 2070 0fdc 4889CE   		movq	%rcx, %rsi
 2071 0fdf 4889C7   		movq	%rax, %rdi
 2072 0fe2 E8000000 		call	_ZN8UnitTest11TestDetailsC1ERKS0_i@PLT
 2072      00
 105:testCore.cpp  **** 	CHECK_EQUAL(0UL, queue.takeIndex);
 2073              		.loc 3 105 0 discriminator 12
 2074 0fe7 488D4590 		leaq	-112(%rbp), %rax
 2075 0feb 488D1500 		leaq	.LC16(%rip), %rdx
 2075      000000
 2076 0ff2 4889C6   		movq	%rax, %rsi
 2077 0ff5 4889DF   		movq	%rbx, %rdi
 2078 0ff8 E8000000 		call	_ZN8UnitTest11TestResults13OnTestFailureERKNS_11TestDetailsEPKc@PLT
 2078      00
 2079              	.LEHE111:
 2080              	.LEHB112:
 105:testCore.cpp  **** 	CHECK_EQUAL(0UL, queue.takeIndex);
 2081              		.loc 3 105 0 discriminator 14
 2082 0ffd E8000000 		call	__cxa_end_catch@PLT
 2082      00
 2083              	.LEHE112:
 2084 1002 E985FAFF 		jmp	.L122
 2084      FF
 2085              	.L175:
 2086 1007 4889C3   		movq	%rax, %rbx
 105:testCore.cpp  **** 	CHECK_EQUAL(0UL, queue.takeIndex);
 2087              		.loc 3 105 0
 2088 100a E8000000 		call	__cxa_end_catch@PLT
 2088      00
 2089 100f 4889D8   		movq	%rbx, %rax
 2090 1012 4889C7   		movq	%rax, %rdi
 2091              	.LEHB113:
 2092 1015 E8000000 		call	_Unwind_Resume@PLT
 2092      00
 2093              	.LEHE113:
 2094              	.L177:
 2095 101a EB00     		jmp	.L125
 2096              	.L176:
 2097              	.L125:
 106:testCore.cpp  **** 	CHECK_EQUAL(3UL, queue.numItems);
 2098              		.loc 3 106 0 is_stmt 1
 2099 101c 4889C7   		movq	%rax, %rdi
 2100 101f E8000000 		call	__cxa_begin_catch@PLT
 2100      00
 2101              	.LEHB114:
 2102 1024 E8000000 		call	_ZN8UnitTest11CurrentTest7ResultsEv@PLT
 2102      00
 2103 1029 488B18   		movq	(%rax), %rbx
 2104 102c E8000000 		call	_ZN8UnitTest11CurrentTest7DetailsEv@PLT
 2104      00
 106:testCore.cpp  **** 	CHECK_EQUAL(3UL, queue.numItems);
 2105              		.loc 3 106 0 is_stmt 0 discriminator 8
 2106 1031 488B08   		movq	(%rax), %rcx
 2107 1034 488D4590 		leaq	-112(%rbp), %rax
 2108 1038 BA6A0000 		movl	$106, %edx
 2108      00
 2109 103d 4889CE   		movq	%rcx, %rsi
 2110 1040 4889C7   		movq	%rax, %rdi
 2111 1043 E8000000 		call	_ZN8UnitTest11TestDetailsC1ERKS0_i@PLT
 2111      00
 106:testCore.cpp  **** 	CHECK_EQUAL(3UL, queue.numItems);
 2112              		.loc 3 106 0 discriminator 12
 2113 1048 488D4590 		leaq	-112(%rbp), %rax
 2114 104c 488D1500 		leaq	.LC6(%rip), %rdx
 2114      000000
 2115 1053 4889C6   		movq	%rax, %rsi
 2116 1056 4889DF   		movq	%rbx, %rdi
 2117 1059 E8000000 		call	_ZN8UnitTest11TestResults13OnTestFailureERKNS_11TestDetailsEPKc@PLT
 2117      00
 2118              	.LEHE114:
 2119              	.LEHB115:
 106:testCore.cpp  **** 	CHECK_EQUAL(3UL, queue.numItems);
 2120              		.loc 3 106 0 discriminator 14
 2121 105e E8000000 		call	__cxa_end_catch@PLT
 2121      00
 2122              	.LEHE115:
 2123 1063 E96EFAFF 		jmp	.L126
 2123      FF
 2124              	.L178:
 2125 1068 4889C3   		movq	%rax, %rbx
 106:testCore.cpp  **** 	CHECK_EQUAL(3UL, queue.numItems);
 2126              		.loc 3 106 0
 2127 106b E8000000 		call	__cxa_end_catch@PLT
 2127      00
 2128 1070 4889D8   		movq	%rbx, %rax
 2129 1073 4889C7   		movq	%rax, %rdi
 2130              	.LEHB116:
 2131 1076 E8000000 		call	_Unwind_Resume@PLT
 2131      00
 2132              	.LEHE116:
 2133              	.L180:
 2134 107b EB00     		jmp	.L129
 2135              	.L179:
 2136              	.L129:
 107:testCore.cpp  **** 
 2137              		.loc 3 107 0 is_stmt 1
 2138 107d 4889C7   		movq	%rax, %rdi
 2139 1080 E8000000 		call	__cxa_begin_catch@PLT
 2139      00
 2140              	.LEHB117:
 2141 1085 E8000000 		call	_ZN8UnitTest11CurrentTest7ResultsEv@PLT
 2141      00
 2142 108a 488B18   		movq	(%rax), %rbx
 2143 108d E8000000 		call	_ZN8UnitTest11CurrentTest7DetailsEv@PLT
 2143      00
 107:testCore.cpp  **** 
 2144              		.loc 3 107 0 is_stmt 0 discriminator 8
 2145 1092 488B08   		movq	(%rax), %rcx
 2146 1095 488D4590 		leaq	-112(%rbp), %rax
 2147 1099 BA6B0000 		movl	$107, %edx
 2147      00
 2148 109e 4889CE   		movq	%rcx, %rsi
 2149 10a1 4889C7   		movq	%rax, %rdi
 2150 10a4 E8000000 		call	_ZN8UnitTest11TestDetailsC1ERKS0_i@PLT
 2150      00
 107:testCore.cpp  **** 
 2151              		.loc 3 107 0 discriminator 12
 2152 10a9 488D4590 		leaq	-112(%rbp), %rax
 2153 10ad 488D1500 		leaq	.LC17(%rip), %rdx
 2153      000000
 2154 10b4 4889C6   		movq	%rax, %rsi
 2155 10b7 4889DF   		movq	%rbx, %rdi
 2156 10ba E8000000 		call	_ZN8UnitTest11TestResults13OnTestFailureERKNS_11TestDetailsEPKc@PLT
 2156      00
 2157              	.LEHE117:
 2158              	.LEHB118:
 107:testCore.cpp  **** 
 2159              		.loc 3 107 0 discriminator 14
 2160 10bf E8000000 		call	__cxa_end_catch@PLT
 2160      00
 2161              	.LEHE118:
 2162 10c4 E957FAFF 		jmp	.L130
 2162      FF
 2163              	.L181:
 2164 10c9 4889C3   		movq	%rax, %rbx
 107:testCore.cpp  **** 
 2165              		.loc 3 107 0
 2166 10cc E8000000 		call	__cxa_end_catch@PLT
 2166      00
 2167 10d1 4889D8   		movq	%rbx, %rax
 2168 10d4 4889C7   		movq	%rax, %rdi
 2169              	.LEHB119:
 2170 10d7 E8000000 		call	_Unwind_Resume@PLT
 2170      00
 2171              	.LEHE119:
 2172              	.L183:
 2173 10dc EB00     		jmp	.L133
 2174              	.L182:
 2175              	.L133:
 110:testCore.cpp  **** 	CHECK_EQUAL(6UL, deref(queue.itemArray[1]));
 2176              		.loc 3 110 0 is_stmt 1
 2177 10de 4889C7   		movq	%rax, %rdi
 2178 10e1 E8000000 		call	__cxa_begin_catch@PLT
 2178      00
 2179              	.LEHB120:
 2180 10e6 E8000000 		call	_ZN8UnitTest11CurrentTest7ResultsEv@PLT
 2180      00
 2181 10eb 488B18   		movq	(%rax), %rbx
 2182 10ee E8000000 		call	_ZN8UnitTest11CurrentTest7DetailsEv@PLT
 2182      00
 110:testCore.cpp  **** 	CHECK_EQUAL(6UL, deref(queue.itemArray[1]));
 2183              		.loc 3 110 0 is_stmt 0 discriminator 8
 2184 10f3 488B08   		movq	(%rax), %rcx
 2185 10f6 488D4590 		leaq	-112(%rbp), %rax
 2186 10fa BA6E0000 		movl	$110, %edx
 2186      00
 2187 10ff 4889CE   		movq	%rcx, %rsi
 2188 1102 4889C7   		movq	%rax, %rdi
 2189 1105 E8000000 		call	_ZN8UnitTest11TestDetailsC1ERKS0_i@PLT
 2189      00
 110:testCore.cpp  **** 	CHECK_EQUAL(6UL, deref(queue.itemArray[1]));
 2190              		.loc 3 110 0 discriminator 12
 2191 110a 488D4590 		leaq	-112(%rbp), %rax
 2192 110e 488D1500 		leaq	.LC18(%rip), %rdx
 2192      000000
 2193 1115 4889C6   		movq	%rax, %rsi
 2194 1118 4889DF   		movq	%rbx, %rdi
 2195 111b E8000000 		call	_ZN8UnitTest11TestResults13OnTestFailureERKNS_11TestDetailsEPKc@PLT
 2195      00
 2196              	.LEHE120:
 2197              	.LEHB121:
 110:testCore.cpp  **** 	CHECK_EQUAL(6UL, deref(queue.itemArray[1]));
 2198              		.loc 3 110 0 discriminator 14
 2199 1120 E8000000 		call	__cxa_end_catch@PLT
 2199      00
 2200              	.LEHE121:
 2201 1125 E94EFAFF 		jmp	.L134
 2201      FF
 2202              	.L184:
 2203 112a 4889C3   		movq	%rax, %rbx
 110:testCore.cpp  **** 	CHECK_EQUAL(6UL, deref(queue.itemArray[1]));
 2204              		.loc 3 110 0
 2205 112d E8000000 		call	__cxa_end_catch@PLT
 2205      00
 2206 1132 4889D8   		movq	%rbx, %rax
 2207 1135 4889C7   		movq	%rax, %rdi
 2208              	.LEHB122:
 2209 1138 E8000000 		call	_Unwind_Resume@PLT
 2209      00
 2210              	.LEHE122:
 2211              	.L186:
 2212 113d EB00     		jmp	.L137
 2213              	.L185:
 2214              	.L137:
 111:testCore.cpp  **** 	CHECK_EQUAL(7UL, deref(queue.itemArray[2]));
 2215              		.loc 3 111 0 is_stmt 1
 2216 113f 4889C7   		movq	%rax, %rdi
 2217 1142 E8000000 		call	__cxa_begin_catch@PLT
 2217      00
 2218              	.LEHB123:
 2219 1147 E8000000 		call	_ZN8UnitTest11CurrentTest7ResultsEv@PLT
 2219      00
 2220 114c 488B18   		movq	(%rax), %rbx
 2221 114f E8000000 		call	_ZN8UnitTest11CurrentTest7DetailsEv@PLT
 2221      00
 111:testCore.cpp  **** 	CHECK_EQUAL(7UL, deref(queue.itemArray[2]));
 2222              		.loc 3 111 0 is_stmt 0 discriminator 8
 2223 1154 488B08   		movq	(%rax), %rcx
 2224 1157 488D4590 		leaq	-112(%rbp), %rax
 2225 115b BA6F0000 		movl	$111, %edx
 2225      00
 2226 1160 4889CE   		movq	%rcx, %rsi
 2227 1163 4889C7   		movq	%rax, %rdi
 2228 1166 E8000000 		call	_ZN8UnitTest11TestDetailsC1ERKS0_i@PLT
 2228      00
 111:testCore.cpp  **** 	CHECK_EQUAL(7UL, deref(queue.itemArray[2]));
 2229              		.loc 3 111 0 discriminator 12
 2230 116b 488D4590 		leaq	-112(%rbp), %rax
 2231 116f 488D1500 		leaq	.LC19(%rip), %rdx
 2231      000000
 2232 1176 4889C6   		movq	%rax, %rsi
 2233 1179 4889DF   		movq	%rbx, %rdi
 2234 117c E8000000 		call	_ZN8UnitTest11TestResults13OnTestFailureERKNS_11TestDetailsEPKc@PLT
 2234      00
 2235              	.LEHE123:
 2236              	.LEHB124:
 111:testCore.cpp  **** 	CHECK_EQUAL(7UL, deref(queue.itemArray[2]));
 2237              		.loc 3 111 0 discriminator 14
 2238 1181 E8000000 		call	__cxa_end_catch@PLT
 2238      00
 2239              	.LEHE124:
 2240 1186 E949FAFF 		jmp	.L138
 2240      FF
 2241              	.L187:
 2242 118b 4889C3   		movq	%rax, %rbx
 111:testCore.cpp  **** 	CHECK_EQUAL(7UL, deref(queue.itemArray[2]));
 2243              		.loc 3 111 0
 2244 118e E8000000 		call	__cxa_end_catch@PLT
 2244      00
 2245 1193 4889D8   		movq	%rbx, %rax
 2246 1196 4889C7   		movq	%rax, %rdi
 2247              	.LEHB125:
 2248 1199 E8000000 		call	_Unwind_Resume@PLT
 2248      00
 2249              	.LEHE125:
 2250              	.L189:
 2251 119e EB00     		jmp	.L141
 2252              	.L188:
 2253              	.L141:
 112:testCore.cpp  **** 	CHECK_EQUAL(4UL, deref(queue.itemArray[3]));
 2254              		.loc 3 112 0 is_stmt 1
 2255 11a0 4889C7   		movq	%rax, %rdi
 2256 11a3 E8000000 		call	__cxa_begin_catch@PLT
 2256      00
 2257              	.LEHB126:
 2258 11a8 E8000000 		call	_ZN8UnitTest11CurrentTest7ResultsEv@PLT
 2258      00
 2259 11ad 488B18   		movq	(%rax), %rbx
 2260 11b0 E8000000 		call	_ZN8UnitTest11CurrentTest7DetailsEv@PLT
 2260      00
 112:testCore.cpp  **** 	CHECK_EQUAL(4UL, deref(queue.itemArray[3]));
 2261              		.loc 3 112 0 is_stmt 0 discriminator 8
 2262 11b5 488B08   		movq	(%rax), %rcx
 2263 11b8 488D4590 		leaq	-112(%rbp), %rax
 2264 11bc BA700000 		movl	$112, %edx
 2264      00
 2265 11c1 4889CE   		movq	%rcx, %rsi
 2266 11c4 4889C7   		movq	%rax, %rdi
 2267 11c7 E8000000 		call	_ZN8UnitTest11TestDetailsC1ERKS0_i@PLT
 2267      00
 112:testCore.cpp  **** 	CHECK_EQUAL(4UL, deref(queue.itemArray[3]));
 2268              		.loc 3 112 0 discriminator 12
 2269 11cc 488D4590 		leaq	-112(%rbp), %rax
 2270 11d0 488D1500 		leaq	.LC20(%rip), %rdx
 2270      000000
 2271 11d7 4889C6   		movq	%rax, %rsi
 2272 11da 4889DF   		movq	%rbx, %rdi
 2273 11dd E8000000 		call	_ZN8UnitTest11TestResults13OnTestFailureERKNS_11TestDetailsEPKc@PLT
 2273      00
 2274              	.LEHE126:
 2275              	.LEHB127:
 112:testCore.cpp  **** 	CHECK_EQUAL(4UL, deref(queue.itemArray[3]));
 2276              		.loc 3 112 0 discriminator 14
 2277 11e2 E8000000 		call	__cxa_end_catch@PLT
 2277      00
 2278              	.LEHE127:
 2279 11e7 E944FAFF 		jmp	.L142
 2279      FF
 2280              	.L190:
 2281 11ec 4889C3   		movq	%rax, %rbx
 112:testCore.cpp  **** 	CHECK_EQUAL(4UL, deref(queue.itemArray[3]));
 2282              		.loc 3 112 0
 2283 11ef E8000000 		call	__cxa_end_catch@PLT
 2283      00
 2284 11f4 4889D8   		movq	%rbx, %rax
 2285 11f7 4889C7   		movq	%rax, %rdi
 2286              	.LEHB128:
 2287 11fa E8000000 		call	_Unwind_Resume@PLT
 2287      00
 2288              	.LEHE128:
 2289              	.L192:
 2290 11ff EB00     		jmp	.L145
 2291              	.L191:
 2292              	.L145:
 113:testCore.cpp  **** 
 2293              		.loc 3 113 0 is_stmt 1
 2294 1201 4889C7   		movq	%rax, %rdi
 2295 1204 E8000000 		call	__cxa_begin_catch@PLT
 2295      00
 2296              	.LEHB129:
 2297 1209 E8000000 		call	_ZN8UnitTest11CurrentTest7ResultsEv@PLT
 2297      00
 2298 120e 488B18   		movq	(%rax), %rbx
 2299 1211 E8000000 		call	_ZN8UnitTest11CurrentTest7DetailsEv@PLT
 2299      00
 113:testCore.cpp  **** 
 2300              		.loc 3 113 0 is_stmt 0 discriminator 8
 2301 1216 488B08   		movq	(%rax), %rcx
 2302 1219 488D4590 		leaq	-112(%rbp), %rax
 2303 121d BA710000 		movl	$113, %edx
 2303      00
 2304 1222 4889CE   		movq	%rcx, %rsi
 2305 1225 4889C7   		movq	%rax, %rdi
 2306 1228 E8000000 		call	_ZN8UnitTest11TestDetailsC1ERKS0_i@PLT
 2306      00
 113:testCore.cpp  **** 
 2307              		.loc 3 113 0 discriminator 12
 2308 122d 488D4590 		leaq	-112(%rbp), %rax
 2309 1231 488D1500 		leaq	.LC11(%rip), %rdx
 2309      000000
 2310 1238 4889C6   		movq	%rax, %rsi
 2311 123b 4889DF   		movq	%rbx, %rdi
 2312 123e E8000000 		call	_ZN8UnitTest11TestResults13OnTestFailureERKNS_11TestDetailsEPKc@PLT
 2312      00
 2313              	.LEHE129:
 2314              	.LEHB130:
 113:testCore.cpp  **** 
 2315              		.loc 3 113 0 discriminator 14
 2316 1243 E8000000 		call	__cxa_end_catch@PLT
 2316      00
 2317              	.LEHE130:
 2318 1248 E93FFAFF 		jmp	.L146
 2318      FF
 2319              	.L193:
 2320 124d 4889C3   		movq	%rax, %rbx
 113:testCore.cpp  **** 
 2321              		.loc 3 113 0
 2322 1250 E8000000 		call	__cxa_end_catch@PLT
 2322      00
 2323 1255 4889D8   		movq	%rbx, %rax
 2324 1258 4889C7   		movq	%rax, %rdi
 2325              	.LEHB131:
 2326 125b E8000000 		call	_Unwind_Resume@PLT
 2326      00
 2327              	.LEHE131:
 2328              	.L194:
 2329              		.loc 3 117 0 is_stmt 1
 2330 1260 E8000000 		call	__stack_chk_fail@PLT
 2330      00
 2331              	.L148:
 2332 1265 4881C498 		addq	$152, %rsp
 2332      000000
 2333 126c 5B       		popq	%rbx
 2334 126d 5D       		popq	%rbp
 2335              		.cfi_def_cfa 7, 8
 2336 126e C3       		ret
 2337              		.cfi_endproc
 2338              	.LFE1110:
 2339              		.section	.gcc_except_table
 2340              		.align 4
 2341              	.LLSDA1110:
 2342 0114 FF       		.byte	0xff
 2343 0115 9B       		.byte	0x9b
 2344 0116 CC03     		.uleb128 .LLSDATT1110-.LLSDATTD1110
 2345              	.LLSDATTD1110:
 2346 0118 01       		.byte	0x1
 2347 0119 BF03     		.uleb128 .LLSDACSE1110-.LLSDACSB1110
 2348              	.LLSDACSB1110:
 2349 011b 46       		.uleb128 .LEHB51-.LFB1110
 2350 011c 05       		.uleb128 .LEHE51-.LEHB51
 2351 011d 00       		.uleb128 0
 2352 011e 00       		.uleb128 0
 2353 011f 51       		.uleb128 .LEHB52-.LFB1110
 2354 0120 1C       		.uleb128 .LEHE52-.LEHB52
 2355 0121 F30A     		.uleb128 .L149-.LFB1110
 2356 0123 01       		.uleb128 0x1
 2357 0124 74       		.uleb128 .LEHB53-.LFB1110
 2358 0125 1F       		.uleb128 .LEHE53-.LEHB53
 2359 0126 F10A     		.uleb128 .L150-.LFB1110
 2360 0128 03       		.uleb128 0x3
 2361 0129 A101     		.uleb128 .LEHB54-.LFB1110
 2362 012b 05       		.uleb128 .LEHE54-.LEHB54
 2363 012c 00       		.uleb128 0
 2364 012d 00       		.uleb128 0
 2365 012e AC01     		.uleb128 .LEHB55-.LFB1110
 2366 0130 1C       		.uleb128 .LEHE55-.LEHB55
 2367 0131 D40B     		.uleb128 .L152-.LFB1110
 2368 0133 01       		.uleb128 0x1
 2369 0134 CF01     		.uleb128 .LEHB56-.LFB1110
 2370 0136 1F       		.uleb128 .LEHE56-.LEHB56
 2371 0137 D20B     		.uleb128 .L153-.LFB1110
 2372 0139 03       		.uleb128 0x3
 2373 013a EE01     		.uleb128 .LEHB57-.LFB1110
 2374 013c 1C       		.uleb128 .LEHE57-.LEHB57
 2375 013d B50C     		.uleb128 .L155-.LFB1110
 2376 013f 01       		.uleb128 0x1
 2377 0140 9602     		.uleb128 .LEHB58-.LFB1110
 2378 0142 1E       		.uleb128 .LEHE58-.LEHB58
 2379 0143 B30C     		.uleb128 .L156-.LFB1110
 2380 0145 03       		.uleb128 0x3
 2381 0146 C502     		.uleb128 .LEHB59-.LFB1110
 2382 0148 18       		.uleb128 .LEHE59-.LEHB59
 2383 0149 00       		.uleb128 0
 2384 014a 00       		.uleb128 0
 2385 014b E302     		.uleb128 .LEHB60-.LFB1110
 2386 014d 1C       		.uleb128 .LEHE60-.LEHB60
 2387 014e 960D     		.uleb128 .L158-.LFB1110
 2388 0150 01       		.uleb128 0x1
 2389 0151 8603     		.uleb128 .LEHB61-.LFB1110
 2390 0153 1F       		.uleb128 .LEHE61-.LEHB61
 2391 0154 940D     		.uleb128 .L159-.LFB1110
 2392 0156 03       		.uleb128 0x3
 2393 0157 A503     		.uleb128 .LEHB62-.LFB1110
 2394 0159 1C       		.uleb128 .LEHE62-.LEHB62
 2395 015a F70D     		.uleb128 .L161-.LFB1110
 2396 015c 01       		.uleb128 0x1
 2397 015d CD03     		.uleb128 .LEHB63-.LFB1110
 2398 015f 1E       		.uleb128 .LEHE63-.LEHB63
 2399 0160 F50D     		.uleb128 .L162-.LFB1110
 2400 0162 03       		.uleb128 0x3
 2401 0163 FC03     		.uleb128 .LEHB64-.LFB1110
 2402 0165 18       		.uleb128 .LEHE64-.LEHB64
 2403 0166 00       		.uleb128 0
 2404 0167 00       		.uleb128 0
 2405 0168 9A04     		.uleb128 .LEHB65-.LFB1110
 2406 016a 1C       		.uleb128 .LEHE65-.LEHB65
 2407 016b D80E     		.uleb128 .L164-.LFB1110
 2408 016d 01       		.uleb128 0x1
 2409 016e BD04     		.uleb128 .LEHB66-.LFB1110
 2410 0170 1F       		.uleb128 .LEHE66-.LEHB66
 2411 0171 D60E     		.uleb128 .L165-.LFB1110
 2412 0173 03       		.uleb128 0x3
 2413 0174 DC04     		.uleb128 .LEHB67-.LFB1110
 2414 0176 1C       		.uleb128 .LEHE67-.LEHB67
 2415 0177 B90F     		.uleb128 .L167-.LFB1110
 2416 0179 01       		.uleb128 0x1
 2417 017a 8405     		.uleb128 .LEHB68-.LFB1110
 2418 017c 1E       		.uleb128 .LEHE68-.LEHB68
 2419 017d B70F     		.uleb128 .L168-.LFB1110
 2420 017f 03       		.uleb128 0x3
 2421 0180 B305     		.uleb128 .LEHB69-.LFB1110
 2422 0182 05       		.uleb128 .LEHE69-.LEHB69
 2423 0183 00       		.uleb128 0
 2424 0184 00       		.uleb128 0
 2425 0185 B805     		.uleb128 .LEHB70-.LFB1110
 2426 0187 1C       		.uleb128 .LEHE70-.LEHB70
 2427 0188 9A10     		.uleb128 .L170-.LFB1110
 2428 018a 01       		.uleb128 0x1
 2429 018b DC05     		.uleb128 .LEHB71-.LFB1110
 2430 018d 26       		.uleb128 .LEHE71-.LEHB71
 2431 018e 9810     		.uleb128 .L171-.LFB1110
 2432 0190 03       		.uleb128 0x3
 2433 0191 8206     		.uleb128 .LEHB72-.LFB1110
 2434 0193 1C       		.uleb128 .LEHE72-.LEHB72
 2435 0194 FB10     		.uleb128 .L173-.LFB1110
 2436 0196 01       		.uleb128 0x1
 2437 0197 A606     		.uleb128 .LEHB73-.LFB1110
 2438 0199 26       		.uleb128 .LEHE73-.LEHB73
 2439 019a F910     		.uleb128 .L174-.LFB1110
 2440 019c 03       		.uleb128 0x3
 2441 019d CC06     		.uleb128 .LEHB74-.LFB1110
 2442 019f 1C       		.uleb128 .LEHE74-.LEHB74
 2443 01a0 DC11     		.uleb128 .L176-.LFB1110
 2444 01a2 01       		.uleb128 0x1
 2445 01a3 F006     		.uleb128 .LEHB75-.LFB1110
 2446 01a5 26       		.uleb128 .LEHE75-.LEHB75
 2447 01a6 DA11     		.uleb128 .L177-.LFB1110
 2448 01a8 03       		.uleb128 0x3
 2449 01a9 9607     		.uleb128 .LEHB76-.LFB1110
 2450 01ab 1C       		.uleb128 .LEHE76-.LEHB76
 2451 01ac BD12     		.uleb128 .L179-.LFB1110
 2452 01ae 01       		.uleb128 0x1
 2453 01af BA07     		.uleb128 .LEHB77-.LFB1110
 2454 01b1 26       		.uleb128 .LEHE77-.LEHB77
 2455 01b2 BB12     		.uleb128 .L180-.LFB1110
 2456 01b4 03       		.uleb128 0x3
 2457 01b5 E007     		.uleb128 .LEHB78-.LFB1110
 2458 01b7 1C       		.uleb128 .LEHE78-.LEHB78
 2459 01b8 9E13     		.uleb128 .L182-.LFB1110
 2460 01ba 01       		.uleb128 0x1
 2461 01bb 9908     		.uleb128 .LEHB79-.LFB1110
 2462 01bd 1F       		.uleb128 .LEHE79-.LEHB79
 2463 01be 9C13     		.uleb128 .L183-.LFB1110
 2464 01c0 03       		.uleb128 0x3
 2465 01c1 B808     		.uleb128 .LEHB80-.LFB1110
 2466 01c3 1C       		.uleb128 .LEHE80-.LEHB80
 2467 01c4 FF13     		.uleb128 .L185-.LFB1110
 2468 01c6 01       		.uleb128 0x1
 2469 01c7 F508     		.uleb128 .LEHB81-.LFB1110
 2470 01c9 1F       		.uleb128 .LEHE81-.LEHB81
 2471 01ca FD13     		.uleb128 .L186-.LFB1110
 2472 01cc 03       		.uleb128 0x3
 2473 01cd 9409     		.uleb128 .LEHB82-.LFB1110
 2474 01cf 1C       		.uleb128 .LEHE82-.LEHB82
 2475 01d0 E014     		.uleb128 .L188-.LFB1110
 2476 01d2 01       		.uleb128 0x1
 2477 01d3 D109     		.uleb128 .LEHB83-.LFB1110
 2478 01d5 1F       		.uleb128 .LEHE83-.LEHB83
 2479 01d6 DE14     		.uleb128 .L189-.LFB1110
 2480 01d8 03       		.uleb128 0x3
 2481 01d9 F009     		.uleb128 .LEHB84-.LFB1110
 2482 01db 1C       		.uleb128 .LEHE84-.LEHB84
 2483 01dc C115     		.uleb128 .L191-.LFB1110
 2484 01de 01       		.uleb128 0x1
 2485 01df AD0A     		.uleb128 .LEHB85-.LFB1110
 2486 01e1 1F       		.uleb128 .LEHE85-.LEHB85
 2487 01e2 BF15     		.uleb128 .L192-.LFB1110
 2488 01e4 03       		.uleb128 0x3
 2489 01e5 D30A     		.uleb128 .LEHB86-.LFB1110
 2490 01e7 05       		.uleb128 .LEHE86-.LEHB86
 2491 01e8 00       		.uleb128 0
 2492 01e9 00       		.uleb128 0
 2493 01ea FB0A     		.uleb128 .LEHB87-.LFB1110
 2494 01ec 3A       		.uleb128 .LEHE87-.LEHB87
 2495 01ed BF0B     		.uleb128 .L151-.LFB1110
 2496 01ef 00       		.uleb128 0
 2497 01f0 B50B     		.uleb128 .LEHB88-.LFB1110
 2498 01f2 05       		.uleb128 .LEHE88-.LEHB88
 2499 01f3 00       		.uleb128 0
 2500 01f4 00       		.uleb128 0
 2501 01f5 CD0B     		.uleb128 .LEHB89-.LFB1110
 2502 01f7 05       		.uleb128 .LEHE89-.LEHB89
 2503 01f8 00       		.uleb128 0
 2504 01f9 00       		.uleb128 0
 2505 01fa DC0B     		.uleb128 .LEHB90-.LFB1110
 2506 01fc 3A       		.uleb128 .LEHE90-.LEHB90
 2507 01fd A00C     		.uleb128 .L154-.LFB1110
 2508 01ff 00       		.uleb128 0
 2509 0200 960C     		.uleb128 .LEHB91-.LFB1110
 2510 0202 05       		.uleb128 .LEHE91-.LEHB91
 2511 0203 00       		.uleb128 0
 2512 0204 00       		.uleb128 0
 2513 0205 AE0C     		.uleb128 .LEHB92-.LFB1110
 2514 0207 05       		.uleb128 .LEHE92-.LEHB92
 2515 0208 00       		.uleb128 0
 2516 0209 00       		.uleb128 0
 2517 020a BD0C     		.uleb128 .LEHB93-.LFB1110
 2518 020c 3A       		.uleb128 .LEHE93-.LEHB93
 2519 020d 810D     		.uleb128 .L157-.LFB1110
 2520 020f 00       		.uleb128 0
 2521 0210 F70C     		.uleb128 .LEHB94-.LFB1110
 2522 0212 05       		.uleb128 .LEHE94-.LEHB94
 2523 0213 00       		.uleb128 0
 2524 0214 00       		.uleb128 0
 2525 0215 8F0D     		.uleb128 .LEHB95-.LFB1110
 2526 0217 05       		.uleb128 .LEHE95-.LEHB95
 2527 0218 00       		.uleb128 0
 2528 0219 00       		.uleb128 0
 2529 021a 9E0D     		.uleb128 .LEHB96-.LFB1110
 2530 021c 3A       		.uleb128 .LEHE96-.LEHB96
 2531 021d E20D     		.uleb128 .L160-.LFB1110
 2532 021f 00       		.uleb128 0
 2533 0220 D80D     		.uleb128 .LEHB97-.LFB1110
 2534 0222 05       		.uleb128 .LEHE97-.LEHB97
 2535 0223 00       		.uleb128 0
 2536 0224 00       		.uleb128 0
 2537 0225 F00D     		.uleb128 .LEHB98-.LFB1110
 2538 0227 05       		.uleb128 .LEHE98-.LEHB98
 2539 0228 00       		.uleb128 0
 2540 0229 00       		.uleb128 0
 2541 022a FF0D     		.uleb128 .LEHB99-.LFB1110
 2542 022c 3A       		.uleb128 .LEHE99-.LEHB99
 2543 022d C30E     		.uleb128 .L163-.LFB1110
 2544 022f 00       		.uleb128 0
 2545 0230 B90E     		.uleb128 .LEHB100-.LFB1110
 2546 0232 05       		.uleb128 .LEHE100-.LEHB100
 2547 0233 00       		.uleb128 0
 2548 0234 00       		.uleb128 0
 2549 0235 D10E     		.uleb128 .LEHB101-.LFB1110
 2550 0237 05       		.uleb128 .LEHE101-.LEHB101
 2551 0238 00       		.uleb128 0
 2552 0239 00       		.uleb128 0
 2553 023a E00E     		.uleb128 .LEHB102-.LFB1110
 2554 023c 3A       		.uleb128 .LEHE102-.LEHB102
 2555 023d A40F     		.uleb128 .L166-.LFB1110
 2556 023f 00       		.uleb128 0
 2557 0240 9A0F     		.uleb128 .LEHB103-.LFB1110
 2558 0242 05       		.uleb128 .LEHE103-.LEHB103
 2559 0243 00       		.uleb128 0
 2560 0244 00       		.uleb128 0
 2561 0245 B20F     		.uleb128 .LEHB104-.LFB1110
 2562 0247 05       		.uleb128 .LEHE104-.LEHB104
 2563 0248 00       		.uleb128 0
 2564 0249 00       		.uleb128 0
 2565 024a C10F     		.uleb128 .LEHB105-.LFB1110
 2566 024c 3A       		.uleb128 .LEHE105-.LEHB105
 2567 024d 8510     		.uleb128 .L169-.LFB1110
 2568 024f 00       		.uleb128 0
 2569 0250 FB0F     		.uleb128 .LEHB106-.LFB1110
 2570 0252 05       		.uleb128 .LEHE106-.LEHB106
 2571 0253 00       		.uleb128 0
 2572 0254 00       		.uleb128 0
 2573 0255 9310     		.uleb128 .LEHB107-.LFB1110
 2574 0257 05       		.uleb128 .LEHE107-.LEHB107
 2575 0258 00       		.uleb128 0
 2576 0259 00       		.uleb128 0
 2577 025a A210     		.uleb128 .LEHB108-.LFB1110
 2578 025c 3A       		.uleb128 .LEHE108-.LEHB108
 2579 025d E610     		.uleb128 .L172-.LFB1110
 2580 025f 00       		.uleb128 0
 2581 0260 DC10     		.uleb128 .LEHB109-.LFB1110
 2582 0262 05       		.uleb128 .LEHE109-.LEHB109
 2583 0263 00       		.uleb128 0
 2584 0264 00       		.uleb128 0
 2585 0265 F410     		.uleb128 .LEHB110-.LFB1110
 2586 0267 05       		.uleb128 .LEHE110-.LEHB110
 2587 0268 00       		.uleb128 0
 2588 0269 00       		.uleb128 0
 2589 026a 8311     		.uleb128 .LEHB111-.LFB1110
 2590 026c 3A       		.uleb128 .LEHE111-.LEHB111
 2591 026d C711     		.uleb128 .L175-.LFB1110
 2592 026f 00       		.uleb128 0
 2593 0270 BD11     		.uleb128 .LEHB112-.LFB1110
 2594 0272 05       		.uleb128 .LEHE112-.LEHB112
 2595 0273 00       		.uleb128 0
 2596 0274 00       		.uleb128 0
 2597 0275 D511     		.uleb128 .LEHB113-.LFB1110
 2598 0277 05       		.uleb128 .LEHE113-.LEHB113
 2599 0278 00       		.uleb128 0
 2600 0279 00       		.uleb128 0
 2601 027a E411     		.uleb128 .LEHB114-.LFB1110
 2602 027c 3A       		.uleb128 .LEHE114-.LEHB114
 2603 027d A812     		.uleb128 .L178-.LFB1110
 2604 027f 00       		.uleb128 0
 2605 0280 9E12     		.uleb128 .LEHB115-.LFB1110
 2606 0282 05       		.uleb128 .LEHE115-.LEHB115
 2607 0283 00       		.uleb128 0
 2608 0284 00       		.uleb128 0
 2609 0285 B612     		.uleb128 .LEHB116-.LFB1110
 2610 0287 05       		.uleb128 .LEHE116-.LEHB116
 2611 0288 00       		.uleb128 0
 2612 0289 00       		.uleb128 0
 2613 028a C512     		.uleb128 .LEHB117-.LFB1110
 2614 028c 3A       		.uleb128 .LEHE117-.LEHB117
 2615 028d 8913     		.uleb128 .L181-.LFB1110
 2616 028f 00       		.uleb128 0
 2617 0290 FF12     		.uleb128 .LEHB118-.LFB1110
 2618 0292 05       		.uleb128 .LEHE118-.LEHB118
 2619 0293 00       		.uleb128 0
 2620 0294 00       		.uleb128 0
 2621 0295 9713     		.uleb128 .LEHB119-.LFB1110
 2622 0297 05       		.uleb128 .LEHE119-.LEHB119
 2623 0298 00       		.uleb128 0
 2624 0299 00       		.uleb128 0
 2625 029a A613     		.uleb128 .LEHB120-.LFB1110
 2626 029c 3A       		.uleb128 .LEHE120-.LEHB120
 2627 029d EA13     		.uleb128 .L184-.LFB1110
 2628 029f 00       		.uleb128 0
 2629 02a0 E013     		.uleb128 .LEHB121-.LFB1110
 2630 02a2 05       		.uleb128 .LEHE121-.LEHB121
 2631 02a3 00       		.uleb128 0
 2632 02a4 00       		.uleb128 0
 2633 02a5 F813     		.uleb128 .LEHB122-.LFB1110
 2634 02a7 05       		.uleb128 .LEHE122-.LEHB122
 2635 02a8 00       		.uleb128 0
 2636 02a9 00       		.uleb128 0
 2637 02aa 8714     		.uleb128 .LEHB123-.LFB1110
 2638 02ac 3A       		.uleb128 .LEHE123-.LEHB123
 2639 02ad CB14     		.uleb128 .L187-.LFB1110
 2640 02af 00       		.uleb128 0
 2641 02b0 C114     		.uleb128 .LEHB124-.LFB1110
 2642 02b2 05       		.uleb128 .LEHE124-.LEHB124
 2643 02b3 00       		.uleb128 0
 2644 02b4 00       		.uleb128 0
 2645 02b5 D914     		.uleb128 .LEHB125-.LFB1110
 2646 02b7 05       		.uleb128 .LEHE125-.LEHB125
 2647 02b8 00       		.uleb128 0
 2648 02b9 00       		.uleb128 0
 2649 02ba E814     		.uleb128 .LEHB126-.LFB1110
 2650 02bc 3A       		.uleb128 .LEHE126-.LEHB126
 2651 02bd AC15     		.uleb128 .L190-.LFB1110
 2652 02bf 00       		.uleb128 0
 2653 02c0 A215     		.uleb128 .LEHB127-.LFB1110
 2654 02c2 05       		.uleb128 .LEHE127-.LEHB127
 2655 02c3 00       		.uleb128 0
 2656 02c4 00       		.uleb128 0
 2657 02c5 BA15     		.uleb128 .LEHB128-.LFB1110
 2658 02c7 05       		.uleb128 .LEHE128-.LEHB128
 2659 02c8 00       		.uleb128 0
 2660 02c9 00       		.uleb128 0
 2661 02ca C915     		.uleb128 .LEHB129-.LFB1110
 2662 02cc 3A       		.uleb128 .LEHE129-.LEHB129
 2663 02cd 8D16     		.uleb128 .L193-.LFB1110
 2664 02cf 00       		.uleb128 0
 2665 02d0 8316     		.uleb128 .LEHB130-.LFB1110
 2666 02d2 05       		.uleb128 .LEHE130-.LEHB130
 2667 02d3 00       		.uleb128 0
 2668 02d4 00       		.uleb128 0
 2669 02d5 9B16     		.uleb128 .LEHB131-.LFB1110
 2670 02d7 05       		.uleb128 .LEHE131-.LEHB131
 2671 02d8 00       		.uleb128 0
 2672 02d9 00       		.uleb128 0
 2673              	.LLSDACSE1110:
 2674 02da 01       		.byte	0x1
 2675 02db 00       		.byte	0
 2676 02dc 00       		.byte	0
 2677 02dd 7D       		.byte	0x7d
 2678 02de 0000     		.align 4
 2679 02e0 00000000 		.long	0
 2680              	
 2681              	.LLSDATT1110:
 2682              		.text
 2684              		.section	.rodata
 2685              	.LC21:
 2686 0453 51756575 		.string	"Queue_testPutWrap"
 2686      655F7465 
 2686      73745075 
 2686      74577261 
 2686      7000
 2687              		.section	.text._ZN21TestQueue_testPutWrapC2Ev,"axG",@progbits,_ZN21TestQueue_testPutWrapC5Ev,comda
 2688              		.align 2
 2689              		.weak	_ZN21TestQueue_testPutWrapC2Ev
 2691              	_ZN21TestQueue_testPutWrapC2Ev:
 2692              	.LFB1112:
 118:testCore.cpp  **** 
 119:testCore.cpp  **** TEST(Queue_testPutWrap) {
 2693              		.loc 3 119 0
 2694              		.cfi_startproc
 2695 0000 55       		pushq	%rbp
 2696              		.cfi_def_cfa_offset 16
 2697              		.cfi_offset 6, -16
 2698 0001 4889E5   		movq	%rsp, %rbp
 2699              		.cfi_def_cfa_register 6
 2700 0004 53       		pushq	%rbx
 2701 0005 4883EC18 		subq	$24, %rsp
 2702              		.cfi_offset 3, -24
 2703 0009 48897DE8 		movq	%rdi, -24(%rbp)
 2704              	.LBB6:
 2705              		.loc 3 119 0
 2706 000d 488B5DE8 		movq	-24(%rbp), %rbx
 2707 0011 E8000000 		call	_ZN13UnitTestSuite12GetSuiteNameEv
 2707      00
 2708 0016 41B87700 		movl	$119, %r8d
 2708      0000
 2709 001c 488D0D00 		leaq	.LC1(%rip), %rcx
 2709      000000
 2710 0023 4889C2   		movq	%rax, %rdx
 2711 0026 488D3500 		leaq	.LC21(%rip), %rsi
 2711      000000
 2712 002d 4889DF   		movq	%rbx, %rdi
 2713 0030 E8000000 		call	_ZN8UnitTest4TestC2EPKcS2_S2_i@PLT
 2713      00
 2714 0035 488D1500 		leaq	16+_ZTV21TestQueue_testPutWrap(%rip), %rdx
 2714      000000
 2715 003c 488B45E8 		movq	-24(%rbp), %rax
 2716 0040 488910   		movq	%rdx, (%rax)
 2717              	.LBE6:
 2718 0043 90       		nop
 2719 0044 4883C418 		addq	$24, %rsp
 2720 0048 5B       		popq	%rbx
 2721 0049 5D       		popq	%rbp
 2722              		.cfi_def_cfa 7, 8
 2723 004a C3       		ret
 2724              		.cfi_endproc
 2725              	.LFE1112:
 2727              		.weak	_ZN21TestQueue_testPutWrapC1Ev
 2728              		.set	_ZN21TestQueue_testPutWrapC1Ev,_ZN21TestQueue_testPutWrapC2Ev
 2729              		.globl	testQueue_testPutWrapInstance
 2730              		.bss
 2731 0079 00000000 		.align 32
 2731      000000
 2734              	testQueue_testPutWrapInstance:
 2735 0080 00000000 		.zero	56
 2735      00000000 
 2735      00000000 
 2735      00000000 
 2735      00000000 
 2736              		.globl	adderQueue_testPutWrap
 2739              	adderQueue_testPutWrap:
 2740 00b8 00       		.zero	1
 2741              		.section	.rodata
 2742 0465 000000   		.align 8
 2743              	.LC22:
 2744 0468 556E6861 		.string	"Unhandled exception in CHECK_EQUAL(4UL, *item)"
 2744      6E646C65 
 2744      64206578 
 2744      63657074 
 2744      696F6E20 
 2745 0497 00       		.align 8
 2746              	.LC23:
 2747 0498 556E6861 		.string	"Unhandled exception in CHECK_EQUAL(4UL, queue.numItems)"
 2747      6E646C65 
 2747      64206578 
 2747      63657074 
 2747      696F6E20 
 2748              		.align 8
 2749              	.LC24:
 2750 04d0 556E6861 		.string	"Unhandled exception in CHECK_EQUAL(8UL, deref(queue.itemArray[3]))"
 2750      6E646C65 
 2750      64206578 
 2750      63657074 
 2750      696F6E20 
 2751              		.text
 2752 126f 90       		.align 2
 2753              		.globl	_ZNK21TestQueue_testPutWrap7RunImplEv
 2755              	_ZNK21TestQueue_testPutWrap7RunImplEv:
 2756              	.LFB1114:
 2757              		.loc 3 119 0
 2758              		.cfi_startproc
 2759              		.cfi_personality 0x9b,DW.ref.__gxx_personality_v0
 2760              		.cfi_lsda 0x1b,.LLSDA1114
 2761 1270 55       		pushq	%rbp
 2762              		.cfi_def_cfa_offset 16
 2763              		.cfi_offset 6, -16
 2764 1271 4889E5   		movq	%rsp, %rbp
 2765              		.cfi_def_cfa_register 6
 2766 1274 53       		pushq	%rbx
 2767 1275 4881EC98 		subq	$152, %rsp
 2767      000000
 2768              		.cfi_offset 3, -24
 2769 127c 4889BD68 		movq	%rdi, -152(%rbp)
 2769      FFFFFF
 2770              		.loc 3 119 0
 2771 1283 64488B04 		movq	%fs:40, %rax
 2771      25280000 
 2771      00
 2772 128c 488945E8 		movq	%rax, -24(%rbp)
 2773 1290 31C0     		xorl	%eax, %eax
 120:testCore.cpp  **** 	struct UnboundedQueue queue;
 121:testCore.cpp  **** 	uint32 *item;
 122:testCore.cpp  **** 	m_count = 1;
 2774              		.loc 3 122 0
 2775 1292 C7050000 		movl	$1, _ZL7m_count(%rip)
 2775      00000100 
 2775      0000
 123:testCore.cpp  **** 
 124:testCore.cpp  **** 	// Create queue
 125:testCore.cpp  **** 	USBStatus status = queueInit(&queue, 4, (CreateFunc)createInt, (DestroyFunc)destroyInt);
 2776              		.loc 3 125 0
 2777 129c 488D45B0 		leaq	-80(%rbp), %rax
 2778 12a0 488D0D00 		leaq	destroyInt(%rip), %rcx
 2778      000000
 2779 12a7 488D1500 		leaq	createInt(%rip), %rdx
 2779      000000
 2780 12ae BE040000 		movl	$4, %esi
 2780      00
 2781 12b3 4889C7   		movq	%rax, %rdi
 2782              	.LEHB132:
 2783 12b6 E8000000 		call	queueInit@PLT
 2783      00
 2784              	.LEHE132:
 2785 12bb 898578FF 		movl	%eax, -136(%rbp)
 2785      FFFF
 2786              	.LEHB133:
 126:testCore.cpp  **** 	CHECK_EQUAL(USB_SUCCESS, status);
 2787              		.loc 3 126 0
 2788 12c1 E8000000 		call	_ZN8UnitTest11CurrentTest7DetailsEv@PLT
 2788      00
 2789 12c6 488B08   		movq	(%rax), %rcx
 2790 12c9 488D4590 		leaq	-112(%rbp), %rax
 2791 12cd BA7E0000 		movl	$126, %edx
 2791      00
 2792 12d2 4889CE   		movq	%rcx, %rsi
 2793 12d5 4889C7   		movq	%rax, %rdi
 2794 12d8 E8000000 		call	_ZN8UnitTest11TestDetailsC1ERKS0_i@PLT
 2794      00
 2795              	.LEHE133:
 2796              		.loc 3 126 0 is_stmt 0 discriminator 2
 2797 12dd C7458800 		movl	$0, -120(%rbp)
 2797      000000
 2798              	.LEHB134:
 2799 12e4 E8000000 		call	_ZN8UnitTest11CurrentTest7ResultsEv@PLT
 2799      00
 2800 12e9 488B00   		movq	(%rax), %rax
 2801 12ec 488D4D90 		leaq	-112(%rbp), %rcx
 2802 12f0 488D9578 		leaq	-136(%rbp), %rdx
 2802      FFFFFF
 2803 12f7 488D7588 		leaq	-120(%rbp), %rsi
 2804 12fb 4889C7   		movq	%rax, %rdi
 2805 12fe E8000000 		call	_ZN8UnitTest10CheckEqualI9USBStatusS1_EEvRNS_11TestResultsERKT_RKT0_RKNS_11TestDetailsE
 2805      00
 2806              	.LEHE134:
 2807              	.L199:
 127:testCore.cpp  **** 
 128:testCore.cpp  **** 	// Put four items into the queue
 129:testCore.cpp  **** 	status = queuePut(&queue, (Item*)&item);
 2808              		.loc 3 129 0 is_stmt 1
 2809 1303 488D5580 		leaq	-128(%rbp), %rdx
 2810 1307 488D45B0 		leaq	-80(%rbp), %rax
 2811 130b 4889D6   		movq	%rdx, %rsi
 2812 130e 4889C7   		movq	%rax, %rdi
 2813              	.LEHB135:
 2814 1311 E8000000 		call	queuePut@PLT
 2814      00
 2815              	.LEHE135:
 2816 1316 898578FF 		movl	%eax, -136(%rbp)
 2816      FFFF
 2817              	.LEHB136:
 130:testCore.cpp  **** 	CHECK_EQUAL(USB_SUCCESS, status);
 2818              		.loc 3 130 0
 2819 131c E8000000 		call	_ZN8UnitTest11CurrentTest7DetailsEv@PLT
 2819      00
 2820 1321 488B08   		movq	(%rax), %rcx
 2821 1324 488D4590 		leaq	-112(%rbp), %rax
 2822 1328 BA820000 		movl	$130, %edx
 2822      00
 2823 132d 4889CE   		movq	%rcx, %rsi
 2824 1330 4889C7   		movq	%rax, %rdi
 2825 1333 E8000000 		call	_ZN8UnitTest11TestDetailsC1ERKS0_i@PLT
 2825      00
 2826              	.LEHE136:
 2827              		.loc 3 130 0 is_stmt 0 discriminator 2
 2828 1338 C7458800 		movl	$0, -120(%rbp)
 2828      000000
 2829              	.LEHB137:
 2830 133f E8000000 		call	_ZN8UnitTest11CurrentTest7ResultsEv@PLT
 2830      00
 2831 1344 488B00   		movq	(%rax), %rax
 2832 1347 488D4D90 		leaq	-112(%rbp), %rcx
 2833 134b 488D9578 		leaq	-136(%rbp), %rdx
 2833      FFFFFF
 2834 1352 488D7588 		leaq	-120(%rbp), %rsi
 2835 1356 4889C7   		movq	%rax, %rdi
 2836 1359 E8000000 		call	_ZN8UnitTest10CheckEqualI9USBStatusS1_EEvRNS_11TestResultsERKT_RKT0_RKNS_11TestDetailsE
 2836      00
 2837              	.LEHE137:
 2838              	.L203:
 2839              	.LEHB138:
 131:testCore.cpp  **** 	CHECK_EQUAL(1UL, *item);
 2840              		.loc 3 131 0 is_stmt 1
 2841 135e E8000000 		call	_ZN8UnitTest11CurrentTest7DetailsEv@PLT
 2841      00
 2842 1363 488B08   		movq	(%rax), %rcx
 2843 1366 488D4590 		leaq	-112(%rbp), %rax
 2844 136a BA830000 		movl	$131, %edx
 2844      00
 2845 136f 4889CE   		movq	%rcx, %rsi
 2846 1372 4889C7   		movq	%rax, %rdi
 2847 1375 E8000000 		call	_ZN8UnitTest11TestDetailsC1ERKS0_i@PLT
 2847      00
 2848              	.LEHE138:
 2849              		.loc 3 131 0 is_stmt 0 discriminator 2
 2850 137a 488B5D80 		movq	-128(%rbp), %rbx
 2851 137e 48C74588 		movq	$1, -120(%rbp)
 2851      01000000 
 2852              	.LEHB139:
 2853 1386 E8000000 		call	_ZN8UnitTest11CurrentTest7ResultsEv@PLT
 2853      00
 2854 138b 488B00   		movq	(%rax), %rax
 2855 138e 488D5590 		leaq	-112(%rbp), %rdx
 2856 1392 488D7588 		leaq	-120(%rbp), %rsi
 2857 1396 4889D1   		movq	%rdx, %rcx
 2858 1399 4889DA   		movq	%rbx, %rdx
 2859 139c 4889C7   		movq	%rax, %rdi
 2860 139f E8000000 		call	_ZN8UnitTest10CheckEqualImjEEvRNS_11TestResultsERKT_RKT0_RKNS_11TestDetailsE
 2860      00
 2861              	.LEHE139:
 2862              	.L207:
 132:testCore.cpp  **** 	*item = 5;
 2863              		.loc 3 132 0 is_stmt 1
 2864 13a4 488B4580 		movq	-128(%rbp), %rax
 2865 13a8 C7000500 		movl	$5, (%rax)
 2865      0000
 133:testCore.cpp  **** 	queueCommitPut(&queue);
 2866              		.loc 3 133 0
 2867 13ae 488D45B0 		leaq	-80(%rbp), %rax
 2868 13b2 4889C7   		movq	%rax, %rdi
 2869              	.LEHB140:
 2870 13b5 E8000000 		call	queueCommitPut@PLT
 2870      00
 134:testCore.cpp  **** 	status = queuePut(&queue, (Item*)&item);
 2871              		.loc 3 134 0
 2872 13ba 488D5580 		leaq	-128(%rbp), %rdx
 2873 13be 488D45B0 		leaq	-80(%rbp), %rax
 2874 13c2 4889D6   		movq	%rdx, %rsi
 2875 13c5 4889C7   		movq	%rax, %rdi
 2876 13c8 E8000000 		call	queuePut@PLT
 2876      00
 2877              	.LEHE140:
 2878 13cd 898578FF 		movl	%eax, -136(%rbp)
 2878      FFFF
 2879              	.LEHB141:
 135:testCore.cpp  **** 	CHECK_EQUAL(USB_SUCCESS, status);
 2880              		.loc 3 135 0
 2881 13d3 E8000000 		call	_ZN8UnitTest11CurrentTest7DetailsEv@PLT
 2881      00
 2882 13d8 488B08   		movq	(%rax), %rcx
 2883 13db 488D4590 		leaq	-112(%rbp), %rax
 2884 13df BA870000 		movl	$135, %edx
 2884      00
 2885 13e4 4889CE   		movq	%rcx, %rsi
 2886 13e7 4889C7   		movq	%rax, %rdi
 2887 13ea E8000000 		call	_ZN8UnitTest11TestDetailsC1ERKS0_i@PLT
 2887      00
 2888              	.LEHE141:
 2889              		.loc 3 135 0 is_stmt 0 discriminator 2
 2890 13ef C7458800 		movl	$0, -120(%rbp)
 2890      000000
 2891              	.LEHB142:
 2892 13f6 E8000000 		call	_ZN8UnitTest11CurrentTest7ResultsEv@PLT
 2892      00
 2893 13fb 488B00   		movq	(%rax), %rax
 2894 13fe 488D4D90 		leaq	-112(%rbp), %rcx
 2895 1402 488D9578 		leaq	-136(%rbp), %rdx
 2895      FFFFFF
 2896 1409 488D7588 		leaq	-120(%rbp), %rsi
 2897 140d 4889C7   		movq	%rax, %rdi
 2898 1410 E8000000 		call	_ZN8UnitTest10CheckEqualI9USBStatusS1_EEvRNS_11TestResultsERKT_RKT0_RKNS_11TestDetailsE
 2898      00
 2899              	.LEHE142:
 2900              	.L211:
 2901              	.LEHB143:
 136:testCore.cpp  **** 	CHECK_EQUAL(2UL, *item);
 2902              		.loc 3 136 0 is_stmt 1
 2903 1415 E8000000 		call	_ZN8UnitTest11CurrentTest7DetailsEv@PLT
 2903      00
 2904 141a 488B08   		movq	(%rax), %rcx
 2905 141d 488D4590 		leaq	-112(%rbp), %rax
 2906 1421 BA880000 		movl	$136, %edx
 2906      00
 2907 1426 4889CE   		movq	%rcx, %rsi
 2908 1429 4889C7   		movq	%rax, %rdi
 2909 142c E8000000 		call	_ZN8UnitTest11TestDetailsC1ERKS0_i@PLT
 2909      00
 2910              	.LEHE143:
 2911              		.loc 3 136 0 is_stmt 0 discriminator 2
 2912 1431 488B5D80 		movq	-128(%rbp), %rbx
 2913 1435 48C74588 		movq	$2, -120(%rbp)
 2913      02000000 
 2914              	.LEHB144:
 2915 143d E8000000 		call	_ZN8UnitTest11CurrentTest7ResultsEv@PLT
 2915      00
 2916 1442 488B00   		movq	(%rax), %rax
 2917 1445 488D5590 		leaq	-112(%rbp), %rdx
 2918 1449 488D7588 		leaq	-120(%rbp), %rsi
 2919 144d 4889D1   		movq	%rdx, %rcx
 2920 1450 4889DA   		movq	%rbx, %rdx
 2921 1453 4889C7   		movq	%rax, %rdi
 2922 1456 E8000000 		call	_ZN8UnitTest10CheckEqualImjEEvRNS_11TestResultsERKT_RKT0_RKNS_11TestDetailsE
 2922      00
 2923              	.LEHE144:
 2924              	.L215:
 137:testCore.cpp  **** 	*item = 6;
 2925              		.loc 3 137 0 is_stmt 1
 2926 145b 488B4580 		movq	-128(%rbp), %rax
 2927 145f C7000600 		movl	$6, (%rax)
 2927      0000
 138:testCore.cpp  **** 	queueCommitPut(&queue);
 2928              		.loc 3 138 0
 2929 1465 488D45B0 		leaq	-80(%rbp), %rax
 2930 1469 4889C7   		movq	%rax, %rdi
 2931              	.LEHB145:
 2932 146c E8000000 		call	queueCommitPut@PLT
 2932      00
 139:testCore.cpp  **** 	status = queuePut(&queue, (Item*)&item);
 2933              		.loc 3 139 0
 2934 1471 488D5580 		leaq	-128(%rbp), %rdx
 2935 1475 488D45B0 		leaq	-80(%rbp), %rax
 2936 1479 4889D6   		movq	%rdx, %rsi
 2937 147c 4889C7   		movq	%rax, %rdi
 2938 147f E8000000 		call	queuePut@PLT
 2938      00
 2939              	.LEHE145:
 2940 1484 898578FF 		movl	%eax, -136(%rbp)
 2940      FFFF
 2941              	.LEHB146:
 140:testCore.cpp  **** 	CHECK_EQUAL(USB_SUCCESS, status);
 2942              		.loc 3 140 0
 2943 148a E8000000 		call	_ZN8UnitTest11CurrentTest7DetailsEv@PLT
 2943      00
 2944 148f 488B08   		movq	(%rax), %rcx
 2945 1492 488D4590 		leaq	-112(%rbp), %rax
 2946 1496 BA8C0000 		movl	$140, %edx
 2946      00
 2947 149b 4889CE   		movq	%rcx, %rsi
 2948 149e 4889C7   		movq	%rax, %rdi
 2949 14a1 E8000000 		call	_ZN8UnitTest11TestDetailsC1ERKS0_i@PLT
 2949      00
 2950              	.LEHE146:
 2951              		.loc 3 140 0 is_stmt 0 discriminator 2
 2952 14a6 C7458800 		movl	$0, -120(%rbp)
 2952      000000
 2953              	.LEHB147:
 2954 14ad E8000000 		call	_ZN8UnitTest11CurrentTest7ResultsEv@PLT
 2954      00
 2955 14b2 488B00   		movq	(%rax), %rax
 2956 14b5 488D4D90 		leaq	-112(%rbp), %rcx
 2957 14b9 488D9578 		leaq	-136(%rbp), %rdx
 2957      FFFFFF
 2958 14c0 488D7588 		leaq	-120(%rbp), %rsi
 2959 14c4 4889C7   		movq	%rax, %rdi
 2960 14c7 E8000000 		call	_ZN8UnitTest10CheckEqualI9USBStatusS1_EEvRNS_11TestResultsERKT_RKT0_RKNS_11TestDetailsE
 2960      00
 2961              	.LEHE147:
 2962              	.L219:
 2963              	.LEHB148:
 141:testCore.cpp  **** 	CHECK_EQUAL(3UL, *item);
 2964              		.loc 3 141 0 is_stmt 1
 2965 14cc E8000000 		call	_ZN8UnitTest11CurrentTest7DetailsEv@PLT
 2965      00
 2966 14d1 488B08   		movq	(%rax), %rcx
 2967 14d4 488D4590 		leaq	-112(%rbp), %rax
 2968 14d8 BA8D0000 		movl	$141, %edx
 2968      00
 2969 14dd 4889CE   		movq	%rcx, %rsi
 2970 14e0 4889C7   		movq	%rax, %rdi
 2971 14e3 E8000000 		call	_ZN8UnitTest11TestDetailsC1ERKS0_i@PLT
 2971      00
 2972              	.LEHE148:
 2973              		.loc 3 141 0 is_stmt 0 discriminator 2
 2974 14e8 488B5D80 		movq	-128(%rbp), %rbx
 2975 14ec 48C74588 		movq	$3, -120(%rbp)
 2975      03000000 
 2976              	.LEHB149:
 2977 14f4 E8000000 		call	_ZN8UnitTest11CurrentTest7ResultsEv@PLT
 2977      00
 2978 14f9 488B00   		movq	(%rax), %rax
 2979 14fc 488D5590 		leaq	-112(%rbp), %rdx
 2980 1500 488D7588 		leaq	-120(%rbp), %rsi
 2981 1504 4889D1   		movq	%rdx, %rcx
 2982 1507 4889DA   		movq	%rbx, %rdx
 2983 150a 4889C7   		movq	%rax, %rdi
 2984 150d E8000000 		call	_ZN8UnitTest10CheckEqualImjEEvRNS_11TestResultsERKT_RKT0_RKNS_11TestDetailsE
 2984      00
 2985              	.LEHE149:
 2986              	.L223:
 142:testCore.cpp  **** 	*item = 7;
 2987              		.loc 3 142 0 is_stmt 1
 2988 1512 488B4580 		movq	-128(%rbp), %rax
 2989 1516 C7000700 		movl	$7, (%rax)
 2989      0000
 143:testCore.cpp  **** 	queueCommitPut(&queue);
 2990              		.loc 3 143 0
 2991 151c 488D45B0 		leaq	-80(%rbp), %rax
 2992 1520 4889C7   		movq	%rax, %rdi
 2993              	.LEHB150:
 2994 1523 E8000000 		call	queueCommitPut@PLT
 2994      00
 144:testCore.cpp  **** 	status = queuePut(&queue, (Item*)&item);
 2995              		.loc 3 144 0
 2996 1528 488D5580 		leaq	-128(%rbp), %rdx
 2997 152c 488D45B0 		leaq	-80(%rbp), %rax
 2998 1530 4889D6   		movq	%rdx, %rsi
 2999 1533 4889C7   		movq	%rax, %rdi
 3000 1536 E8000000 		call	queuePut@PLT
 3000      00
 3001              	.LEHE150:
 3002 153b 898578FF 		movl	%eax, -136(%rbp)
 3002      FFFF
 3003              	.LEHB151:
 145:testCore.cpp  **** 	CHECK_EQUAL(USB_SUCCESS, status);
 3004              		.loc 3 145 0
 3005 1541 E8000000 		call	_ZN8UnitTest11CurrentTest7DetailsEv@PLT
 3005      00
 3006 1546 488B08   		movq	(%rax), %rcx
 3007 1549 488D4590 		leaq	-112(%rbp), %rax
 3008 154d BA910000 		movl	$145, %edx
 3008      00
 3009 1552 4889CE   		movq	%rcx, %rsi
 3010 1555 4889C7   		movq	%rax, %rdi
 3011 1558 E8000000 		call	_ZN8UnitTest11TestDetailsC1ERKS0_i@PLT
 3011      00
 3012              	.LEHE151:
 3013              		.loc 3 145 0 is_stmt 0 discriminator 2
 3014 155d C7458800 		movl	$0, -120(%rbp)
 3014      000000
 3015              	.LEHB152:
 3016 1564 E8000000 		call	_ZN8UnitTest11CurrentTest7ResultsEv@PLT
 3016      00
 3017 1569 488B00   		movq	(%rax), %rax
 3018 156c 488D4D90 		leaq	-112(%rbp), %rcx
 3019 1570 488D9578 		leaq	-136(%rbp), %rdx
 3019      FFFFFF
 3020 1577 488D7588 		leaq	-120(%rbp), %rsi
 3021 157b 4889C7   		movq	%rax, %rdi
 3022 157e E8000000 		call	_ZN8UnitTest10CheckEqualI9USBStatusS1_EEvRNS_11TestResultsERKT_RKT0_RKNS_11TestDetailsE
 3022      00
 3023              	.LEHE152:
 3024              	.L227:
 3025              	.LEHB153:
 146:testCore.cpp  **** 	CHECK_EQUAL(4UL, *item);
 3026              		.loc 3 146 0 is_stmt 1
 3027 1583 E8000000 		call	_ZN8UnitTest11CurrentTest7DetailsEv@PLT
 3027      00
 3028 1588 488B08   		movq	(%rax), %rcx
 3029 158b 488D4590 		leaq	-112(%rbp), %rax
 3030 158f BA920000 		movl	$146, %edx
 3030      00
 3031 1594 4889CE   		movq	%rcx, %rsi
 3032 1597 4889C7   		movq	%rax, %rdi
 3033 159a E8000000 		call	_ZN8UnitTest11TestDetailsC1ERKS0_i@PLT
 3033      00
 3034              	.LEHE153:
 3035              		.loc 3 146 0 is_stmt 0 discriminator 2
 3036 159f 488B5D80 		movq	-128(%rbp), %rbx
 3037 15a3 48C74588 		movq	$4, -120(%rbp)
 3037      04000000 
 3038              	.LEHB154:
 3039 15ab E8000000 		call	_ZN8UnitTest11CurrentTest7ResultsEv@PLT
 3039      00
 3040 15b0 488B00   		movq	(%rax), %rax
 3041 15b3 488D5590 		leaq	-112(%rbp), %rdx
 3042 15b7 488D7588 		leaq	-120(%rbp), %rsi
 3043 15bb 4889D1   		movq	%rdx, %rcx
 3044 15be 4889DA   		movq	%rbx, %rdx
 3045 15c1 4889C7   		movq	%rax, %rdi
 3046 15c4 E8000000 		call	_ZN8UnitTest10CheckEqualImjEEvRNS_11TestResultsERKT_RKT0_RKNS_11TestDetailsE
 3046      00
 3047              	.LEHE154:
 3048              	.L231:
 147:testCore.cpp  **** 	*item = 8;
 3049              		.loc 3 147 0 is_stmt 1
 3050 15c9 488B4580 		movq	-128(%rbp), %rax
 3051 15cd C7000800 		movl	$8, (%rax)
 3051      0000
 148:testCore.cpp  **** 	queueCommitPut(&queue);
 3052              		.loc 3 148 0
 3053 15d3 488D45B0 		leaq	-80(%rbp), %rax
 3054 15d7 4889C7   		movq	%rax, %rdi
 3055              	.LEHB155:
 3056 15da E8000000 		call	queueCommitPut@PLT
 3056      00
 3057              	.LEHE155:
 3058              	.LEHB156:
 149:testCore.cpp  **** 
 150:testCore.cpp  **** 	// Verify
 151:testCore.cpp  **** 	CHECK_EQUAL(4UL, queue.capacity);
 3059              		.loc 3 151 0
 3060 15df E8000000 		call	_ZN8UnitTest11CurrentTest7DetailsEv@PLT
 3060      00
 3061 15e4 488B08   		movq	(%rax), %rcx
 3062 15e7 488D4590 		leaq	-112(%rbp), %rax
 3063 15eb BA970000 		movl	$151, %edx
 3063      00
 3064 15f0 4889CE   		movq	%rcx, %rsi
 3065 15f3 4889C7   		movq	%rax, %rdi
 3066 15f6 E8000000 		call	_ZN8UnitTest11TestDetailsC1ERKS0_i@PLT
 3066      00
 3067              	.LEHE156:
 3068              		.loc 3 151 0 is_stmt 0 discriminator 2
 3069 15fb 48C74588 		movq	$4, -120(%rbp)
 3069      04000000 
 3070              	.LEHB157:
 3071 1603 E8000000 		call	_ZN8UnitTest11CurrentTest7ResultsEv@PLT
 3071      00
 3072 1608 488B00   		movq	(%rax), %rax
 3073 160b 488D5590 		leaq	-112(%rbp), %rdx
 3074 160f 488D4DB0 		leaq	-80(%rbp), %rcx
 3075 1613 488D7908 		leaq	8(%rcx), %rdi
 3076 1617 488D7588 		leaq	-120(%rbp), %rsi
 3077 161b 4889D1   		movq	%rdx, %rcx
 3078 161e 4889FA   		movq	%rdi, %rdx
 3079 1621 4889C7   		movq	%rax, %rdi
 3080 1624 E8000000 		call	_ZN8UnitTest10CheckEqualImmEEvRNS_11TestResultsERKT_RKT0_RKNS_11TestDetailsE
 3080      00
 3081              	.LEHE157:
 3082              	.L235:
 3083              	.LEHB158:
 152:testCore.cpp  **** 	CHECK_EQUAL(0UL, queue.putIndex);
 3084              		.loc 3 152 0 is_stmt 1
 3085 1629 E8000000 		call	_ZN8UnitTest11CurrentTest7DetailsEv@PLT
 3085      00
 3086 162e 488B08   		movq	(%rax), %rcx
 3087 1631 488D4590 		leaq	-112(%rbp), %rax
 3088 1635 BA980000 		movl	$152, %edx
 3088      00
 3089 163a 4889CE   		movq	%rcx, %rsi
 3090 163d 4889C7   		movq	%rax, %rdi
 3091 1640 E8000000 		call	_ZN8UnitTest11TestDetailsC1ERKS0_i@PLT
 3091      00
 3092              	.LEHE158:
 3093              		.loc 3 152 0 is_stmt 0 discriminator 2
 3094 1645 48C74588 		movq	$0, -120(%rbp)
 3094      00000000 
 3095              	.LEHB159:
 3096 164d E8000000 		call	_ZN8UnitTest11CurrentTest7ResultsEv@PLT
 3096      00
 3097 1652 488B00   		movq	(%rax), %rax
 3098 1655 488D5590 		leaq	-112(%rbp), %rdx
 3099 1659 488D4DB0 		leaq	-80(%rbp), %rcx
 3100 165d 488D7910 		leaq	16(%rcx), %rdi
 3101 1661 488D7588 		leaq	-120(%rbp), %rsi
 3102 1665 4889D1   		movq	%rdx, %rcx
 3103 1668 4889FA   		movq	%rdi, %rdx
 3104 166b 4889C7   		movq	%rax, %rdi
 3105 166e E8000000 		call	_ZN8UnitTest10CheckEqualImmEEvRNS_11TestResultsERKT_RKT0_RKNS_11TestDetailsE
 3105      00
 3106              	.LEHE159:
 3107              	.L239:
 3108              	.LEHB160:
 153:testCore.cpp  **** 	CHECK_EQUAL(0UL, queue.takeIndex);
 3109              		.loc 3 153 0 is_stmt 1
 3110 1673 E8000000 		call	_ZN8UnitTest11CurrentTest7DetailsEv@PLT
 3110      00
 3111 1678 488B08   		movq	(%rax), %rcx
 3112 167b 488D4590 		leaq	-112(%rbp), %rax
 3113 167f BA990000 		movl	$153, %edx
 3113      00
 3114 1684 4889CE   		movq	%rcx, %rsi
 3115 1687 4889C7   		movq	%rax, %rdi
 3116 168a E8000000 		call	_ZN8UnitTest11TestDetailsC1ERKS0_i@PLT
 3116      00
 3117              	.LEHE160:
 3118              		.loc 3 153 0 is_stmt 0 discriminator 2
 3119 168f 48C74588 		movq	$0, -120(%rbp)
 3119      00000000 
 3120              	.LEHB161:
 3121 1697 E8000000 		call	_ZN8UnitTest11CurrentTest7ResultsEv@PLT
 3121      00
 3122 169c 488B00   		movq	(%rax), %rax
 3123 169f 488D5590 		leaq	-112(%rbp), %rdx
 3124 16a3 488D4DB0 		leaq	-80(%rbp), %rcx
 3125 16a7 488D7918 		leaq	24(%rcx), %rdi
 3126 16ab 488D7588 		leaq	-120(%rbp), %rsi
 3127 16af 4889D1   		movq	%rdx, %rcx
 3128 16b2 4889FA   		movq	%rdi, %rdx
 3129 16b5 4889C7   		movq	%rax, %rdi
 3130 16b8 E8000000 		call	_ZN8UnitTest10CheckEqualImmEEvRNS_11TestResultsERKT_RKT0_RKNS_11TestDetailsE
 3130      00
 3131              	.LEHE161:
 3132              	.L243:
 3133              	.LEHB162:
 154:testCore.cpp  **** 	CHECK_EQUAL(4UL, queue.numItems);
 3134              		.loc 3 154 0 is_stmt 1
 3135 16bd E8000000 		call	_ZN8UnitTest11CurrentTest7DetailsEv@PLT
 3135      00
 3136 16c2 488B08   		movq	(%rax), %rcx
 3137 16c5 488D4590 		leaq	-112(%rbp), %rax
 3138 16c9 BA9A0000 		movl	$154, %edx
 3138      00
 3139 16ce 4889CE   		movq	%rcx, %rsi
 3140 16d1 4889C7   		movq	%rax, %rdi
 3141 16d4 E8000000 		call	_ZN8UnitTest11TestDetailsC1ERKS0_i@PLT
 3141      00
 3142              	.LEHE162:
 3143              		.loc 3 154 0 is_stmt 0 discriminator 2
 3144 16d9 48C74588 		movq	$4, -120(%rbp)
 3144      04000000 
 3145              	.LEHB163:
 3146 16e1 E8000000 		call	_ZN8UnitTest11CurrentTest7ResultsEv@PLT
 3146      00
 3147 16e6 488B00   		movq	(%rax), %rax
 3148 16e9 488D5590 		leaq	-112(%rbp), %rdx
 3149 16ed 488D4DB0 		leaq	-80(%rbp), %rcx
 3150 16f1 488D7920 		leaq	32(%rcx), %rdi
 3151 16f5 488D7588 		leaq	-120(%rbp), %rsi
 3152 16f9 4889D1   		movq	%rdx, %rcx
 3153 16fc 4889FA   		movq	%rdi, %rdx
 3154 16ff 4889C7   		movq	%rax, %rdi
 3155 1702 E8000000 		call	_ZN8UnitTest10CheckEqualImmEEvRNS_11TestResultsERKT_RKT0_RKNS_11TestDetailsE
 3155      00
 3156              	.LEHE163:
 3157              	.L247:
 3158              	.LEHB164:
 155:testCore.cpp  **** 
 156:testCore.cpp  **** 	// Verify array
 157:testCore.cpp  **** 	CHECK_EQUAL(5UL, deref(queue.itemArray[0]));
 3159              		.loc 3 157 0 is_stmt 1
 3160 1707 E8000000 		call	_ZN8UnitTest11CurrentTest7DetailsEv@PLT
 3160      00
 3161 170c 488B08   		movq	(%rax), %rcx
 3162 170f 488D4590 		leaq	-112(%rbp), %rax
 3163 1713 BA9D0000 		movl	$157, %edx
 3163      00
 3164 1718 4889CE   		movq	%rcx, %rsi
 3165 171b 4889C7   		movq	%rax, %rdi
 3166 171e E8000000 		call	_ZN8UnitTest11TestDetailsC1ERKS0_i@PLT
 3166      00
 3167              	.LEHE164:
 3168              		.loc 3 157 0 is_stmt 0 discriminator 2
 3169 1723 488B45B0 		movq	-80(%rbp), %rax
 3170 1727 488B00   		movq	(%rax), %rax
 3171 172a 4889C7   		movq	%rax, %rdi
 3172 172d E858E9FF 		call	_ZL5derefPKv
 3172      FF
 3173 1732 89857CFF 		movl	%eax, -132(%rbp)
 3173      FFFF
 3174 1738 48C74588 		movq	$5, -120(%rbp)
 3174      05000000 
 3175              	.LEHB165:
 3176 1740 E8000000 		call	_ZN8UnitTest11CurrentTest7ResultsEv@PLT
 3176      00
 3177 1745 488B00   		movq	(%rax), %rax
 3178 1748 488D4D90 		leaq	-112(%rbp), %rcx
 3179 174c 488D957C 		leaq	-132(%rbp), %rdx
 3179      FFFFFF
 3180 1753 488D7588 		leaq	-120(%rbp), %rsi
 3181 1757 4889C7   		movq	%rax, %rdi
 3182 175a E8000000 		call	_ZN8UnitTest10CheckEqualImjEEvRNS_11TestResultsERKT_RKT0_RKNS_11TestDetailsE
 3182      00
 3183              	.LEHE165:
 3184              	.L251:
 3185              	.LEHB166:
 158:testCore.cpp  **** 	CHECK_EQUAL(6UL, deref(queue.itemArray[1]));
 3186              		.loc 3 158 0 is_stmt 1
 3187 175f E8000000 		call	_ZN8UnitTest11CurrentTest7DetailsEv@PLT
 3187      00
 3188 1764 488B08   		movq	(%rax), %rcx
 3189 1767 488D4590 		leaq	-112(%rbp), %rax
 3190 176b BA9E0000 		movl	$158, %edx
 3190      00
 3191 1770 4889CE   		movq	%rcx, %rsi
 3192 1773 4889C7   		movq	%rax, %rdi
 3193 1776 E8000000 		call	_ZN8UnitTest11TestDetailsC1ERKS0_i@PLT
 3193      00
 3194              	.LEHE166:
 3195              		.loc 3 158 0 is_stmt 0 discriminator 2
 3196 177b 488B45B0 		movq	-80(%rbp), %rax
 3197 177f 4883C008 		addq	$8, %rax
 3198 1783 488B00   		movq	(%rax), %rax
 3199 1786 4889C7   		movq	%rax, %rdi
 3200 1789 E8FCE8FF 		call	_ZL5derefPKv
 3200      FF
 3201 178e 89857CFF 		movl	%eax, -132(%rbp)
 3201      FFFF
 3202 1794 48C74588 		movq	$6, -120(%rbp)
 3202      06000000 
 3203              	.LEHB167:
 3204 179c E8000000 		call	_ZN8UnitTest11CurrentTest7ResultsEv@PLT
 3204      00
 3205 17a1 488B00   		movq	(%rax), %rax
 3206 17a4 488D4D90 		leaq	-112(%rbp), %rcx
 3207 17a8 488D957C 		leaq	-132(%rbp), %rdx
 3207      FFFFFF
 3208 17af 488D7588 		leaq	-120(%rbp), %rsi
 3209 17b3 4889C7   		movq	%rax, %rdi
 3210 17b6 E8000000 		call	_ZN8UnitTest10CheckEqualImjEEvRNS_11TestResultsERKT_RKT0_RKNS_11TestDetailsE
 3210      00
 3211              	.LEHE167:
 3212              	.L255:
 3213              	.LEHB168:
 159:testCore.cpp  **** 	CHECK_EQUAL(7UL, deref(queue.itemArray[2]));
 3214              		.loc 3 159 0 is_stmt 1
 3215 17bb E8000000 		call	_ZN8UnitTest11CurrentTest7DetailsEv@PLT
 3215      00
 3216 17c0 488B08   		movq	(%rax), %rcx
 3217 17c3 488D4590 		leaq	-112(%rbp), %rax
 3218 17c7 BA9F0000 		movl	$159, %edx
 3218      00
 3219 17cc 4889CE   		movq	%rcx, %rsi
 3220 17cf 4889C7   		movq	%rax, %rdi
 3221 17d2 E8000000 		call	_ZN8UnitTest11TestDetailsC1ERKS0_i@PLT
 3221      00
 3222              	.LEHE168:
 3223              		.loc 3 159 0 is_stmt 0 discriminator 2
 3224 17d7 488B45B0 		movq	-80(%rbp), %rax
 3225 17db 4883C010 		addq	$16, %rax
 3226 17df 488B00   		movq	(%rax), %rax
 3227 17e2 4889C7   		movq	%rax, %rdi
 3228 17e5 E8A0E8FF 		call	_ZL5derefPKv
 3228      FF
 3229 17ea 89857CFF 		movl	%eax, -132(%rbp)
 3229      FFFF
 3230 17f0 48C74588 		movq	$7, -120(%rbp)
 3230      07000000 
 3231              	.LEHB169:
 3232 17f8 E8000000 		call	_ZN8UnitTest11CurrentTest7ResultsEv@PLT
 3232      00
 3233 17fd 488B00   		movq	(%rax), %rax
 3234 1800 488D4D90 		leaq	-112(%rbp), %rcx
 3235 1804 488D957C 		leaq	-132(%rbp), %rdx
 3235      FFFFFF
 3236 180b 488D7588 		leaq	-120(%rbp), %rsi
 3237 180f 4889C7   		movq	%rax, %rdi
 3238 1812 E8000000 		call	_ZN8UnitTest10CheckEqualImjEEvRNS_11TestResultsERKT_RKT0_RKNS_11TestDetailsE
 3238      00
 3239              	.LEHE169:
 3240              	.L259:
 3241              	.LEHB170:
 160:testCore.cpp  **** 	CHECK_EQUAL(8UL, deref(queue.itemArray[3]));
 3242              		.loc 3 160 0 is_stmt 1
 3243 1817 E8000000 		call	_ZN8UnitTest11CurrentTest7DetailsEv@PLT
 3243      00
 3244 181c 488B08   		movq	(%rax), %rcx
 3245 181f 488D4590 		leaq	-112(%rbp), %rax
 3246 1823 BAA00000 		movl	$160, %edx
 3246      00
 3247 1828 4889CE   		movq	%rcx, %rsi
 3248 182b 4889C7   		movq	%rax, %rdi
 3249 182e E8000000 		call	_ZN8UnitTest11TestDetailsC1ERKS0_i@PLT
 3249      00
 3250              	.LEHE170:
 3251              		.loc 3 160 0 is_stmt 0 discriminator 2
 3252 1833 488B45B0 		movq	-80(%rbp), %rax
 3253 1837 4883C018 		addq	$24, %rax
 3254 183b 488B00   		movq	(%rax), %rax
 3255 183e 4889C7   		movq	%rax, %rdi
 3256 1841 E844E8FF 		call	_ZL5derefPKv
 3256      FF
 3257 1846 89857CFF 		movl	%eax, -132(%rbp)
 3257      FFFF
 3258 184c 48C74588 		movq	$8, -120(%rbp)
 3258      08000000 
 3259              	.LEHB171:
 3260 1854 E8000000 		call	_ZN8UnitTest11CurrentTest7ResultsEv@PLT
 3260      00
 3261 1859 488B00   		movq	(%rax), %rax
 3262 185c 488D4D90 		leaq	-112(%rbp), %rcx
 3263 1860 488D957C 		leaq	-132(%rbp), %rdx
 3263      FFFFFF
 3264 1867 488D7588 		leaq	-120(%rbp), %rsi
 3265 186b 4889C7   		movq	%rax, %rdi
 3266 186e E8000000 		call	_ZN8UnitTest10CheckEqualImjEEvRNS_11TestResultsERKT_RKT0_RKNS_11TestDetailsE
 3266      00
 3267              	.LEHE171:
 3268              	.L263:
 161:testCore.cpp  **** 
 162:testCore.cpp  **** 	// Clean up
 163:testCore.cpp  **** 	queueDestroy(&queue);
 3269              		.loc 3 163 0 is_stmt 1
 3270 1873 488D45B0 		leaq	-80(%rbp), %rax
 3271 1877 4889C7   		movq	%rax, %rdi
 3272              	.LEHB172:
 3273 187a E8000000 		call	queueDestroy@PLT
 3273      00
 3274              	.LEHE172:
 164:testCore.cpp  **** }
 3275              		.loc 3 164 0
 3276 187f 90       		nop
 3277 1880 488B45E8 		movq	-24(%rbp), %rax
 3278 1884 64483304 		xorq	%fs:40, %rax
 3278      25280000 
 3278      00
 3279 188d 0F847B06 		je	.L265
 3279      0000
 3280 1893 E9710600 		jmp	.L317
 3280      00
 3281              	.L267:
 3282 1898 EB00     		jmp	.L198
 3283              	.L266:
 3284              	.L198:
 126:testCore.cpp  **** 
 3285              		.loc 3 126 0
 3286 189a 4889C7   		movq	%rax, %rdi
 3287 189d E8000000 		call	__cxa_begin_catch@PLT
 3287      00
 3288              	.LEHB173:
 3289 18a2 E8000000 		call	_ZN8UnitTest11CurrentTest7ResultsEv@PLT
 3289      00
 3290 18a7 488B18   		movq	(%rax), %rbx
 3291 18aa E8000000 		call	_ZN8UnitTest11CurrentTest7DetailsEv@PLT
 3291      00
 126:testCore.cpp  **** 
 3292              		.loc 3 126 0 is_stmt 0 discriminator 8
 3293 18af 488B08   		movq	(%rax), %rcx
 3294 18b2 488D4590 		leaq	-112(%rbp), %rax
 3295 18b6 BA7E0000 		movl	$126, %edx
 3295      00
 3296 18bb 4889CE   		movq	%rcx, %rsi
 3297 18be 4889C7   		movq	%rax, %rdi
 3298 18c1 E8000000 		call	_ZN8UnitTest11TestDetailsC1ERKS0_i@PLT
 3298      00
 126:testCore.cpp  **** 
 3299              		.loc 3 126 0 discriminator 12
 3300 18c6 488D4590 		leaq	-112(%rbp), %rax
 3301 18ca 488D1500 		leaq	.LC3(%rip), %rdx
 3301      000000
 3302 18d1 4889C6   		movq	%rax, %rsi
 3303 18d4 4889DF   		movq	%rbx, %rdi
 3304 18d7 E8000000 		call	_ZN8UnitTest11TestResults13OnTestFailureERKNS_11TestDetailsEPKc@PLT
 3304      00
 3305              	.LEHE173:
 3306              	.LEHB174:
 126:testCore.cpp  **** 
 3307              		.loc 3 126 0 discriminator 14
 3308 18dc E8000000 		call	__cxa_end_catch@PLT
 3308      00
 3309              	.LEHE174:
 3310 18e1 E91DFAFF 		jmp	.L199
 3310      FF
 3311              	.L268:
 3312 18e6 4889C3   		movq	%rax, %rbx
 126:testCore.cpp  **** 
 3313              		.loc 3 126 0
 3314 18e9 E8000000 		call	__cxa_end_catch@PLT
 3314      00
 3315 18ee 4889D8   		movq	%rbx, %rax
 3316 18f1 4889C7   		movq	%rax, %rdi
 3317              	.LEHB175:
 3318 18f4 E8000000 		call	_Unwind_Resume@PLT
 3318      00
 3319              	.LEHE175:
 3320              	.L270:
 3321 18f9 EB00     		jmp	.L202
 3322              	.L269:
 3323              	.L202:
 130:testCore.cpp  **** 	CHECK_EQUAL(1UL, *item);
 3324              		.loc 3 130 0 is_stmt 1
 3325 18fb 4889C7   		movq	%rax, %rdi
 3326 18fe E8000000 		call	__cxa_begin_catch@PLT
 3326      00
 3327              	.LEHB176:
 3328 1903 E8000000 		call	_ZN8UnitTest11CurrentTest7ResultsEv@PLT
 3328      00
 3329 1908 488B18   		movq	(%rax), %rbx
 3330 190b E8000000 		call	_ZN8UnitTest11CurrentTest7DetailsEv@PLT
 3330      00
 130:testCore.cpp  **** 	CHECK_EQUAL(1UL, *item);
 3331              		.loc 3 130 0 is_stmt 0 discriminator 8
 3332 1910 488B08   		movq	(%rax), %rcx
 3333 1913 488D4590 		leaq	-112(%rbp), %rax
 3334 1917 BA820000 		movl	$130, %edx
 3334      00
 3335 191c 4889CE   		movq	%rcx, %rsi
 3336 191f 4889C7   		movq	%rax, %rdi
 3337 1922 E8000000 		call	_ZN8UnitTest11TestDetailsC1ERKS0_i@PLT
 3337      00
 130:testCore.cpp  **** 	CHECK_EQUAL(1UL, *item);
 3338              		.loc 3 130 0 discriminator 12
 3339 1927 488D4590 		leaq	-112(%rbp), %rax
 3340 192b 488D1500 		leaq	.LC3(%rip), %rdx
 3340      000000
 3341 1932 4889C6   		movq	%rax, %rsi
 3342 1935 4889DF   		movq	%rbx, %rdi
 3343 1938 E8000000 		call	_ZN8UnitTest11TestResults13OnTestFailureERKNS_11TestDetailsEPKc@PLT
 3343      00
 3344              	.LEHE176:
 3345              	.LEHB177:
 130:testCore.cpp  **** 	CHECK_EQUAL(1UL, *item);
 3346              		.loc 3 130 0 discriminator 14
 3347 193d E8000000 		call	__cxa_end_catch@PLT
 3347      00
 3348              	.LEHE177:
 3349 1942 E917FAFF 		jmp	.L203
 3349      FF
 3350              	.L271:
 3351 1947 4889C3   		movq	%rax, %rbx
 130:testCore.cpp  **** 	CHECK_EQUAL(1UL, *item);
 3352              		.loc 3 130 0
 3353 194a E8000000 		call	__cxa_end_catch@PLT
 3353      00
 3354 194f 4889D8   		movq	%rbx, %rax
 3355 1952 4889C7   		movq	%rax, %rdi
 3356              	.LEHB178:
 3357 1955 E8000000 		call	_Unwind_Resume@PLT
 3357      00
 3358              	.LEHE178:
 3359              	.L273:
 3360 195a EB00     		jmp	.L206
 3361              	.L272:
 3362              	.L206:
 131:testCore.cpp  **** 	*item = 5;
 3363              		.loc 3 131 0 is_stmt 1
 3364 195c 4889C7   		movq	%rax, %rdi
 3365 195f E8000000 		call	__cxa_begin_catch@PLT
 3365      00
 3366              	.LEHB179:
 3367 1964 E8000000 		call	_ZN8UnitTest11CurrentTest7ResultsEv@PLT
 3367      00
 3368 1969 488B18   		movq	(%rax), %rbx
 3369 196c E8000000 		call	_ZN8UnitTest11CurrentTest7DetailsEv@PLT
 3369      00
 131:testCore.cpp  **** 	*item = 5;
 3370              		.loc 3 131 0 is_stmt 0 discriminator 8
 3371 1971 488B08   		movq	(%rax), %rcx
 3372 1974 488D4590 		leaq	-112(%rbp), %rax
 3373 1978 BA830000 		movl	$131, %edx
 3373      00
 3374 197d 4889CE   		movq	%rcx, %rsi
 3375 1980 4889C7   		movq	%rax, %rdi
 3376 1983 E8000000 		call	_ZN8UnitTest11TestDetailsC1ERKS0_i@PLT
 3376      00
 131:testCore.cpp  **** 	*item = 5;
 3377              		.loc 3 131 0 discriminator 12
 3378 1988 488D4590 		leaq	-112(%rbp), %rax
 3379 198c 488D1500 		leaq	.LC13(%rip), %rdx
 3379      000000
 3380 1993 4889C6   		movq	%rax, %rsi
 3381 1996 4889DF   		movq	%rbx, %rdi
 3382 1999 E8000000 		call	_ZN8UnitTest11TestResults13OnTestFailureERKNS_11TestDetailsEPKc@PLT
 3382      00
 3383              	.LEHE179:
 3384              	.LEHB180:
 131:testCore.cpp  **** 	*item = 5;
 3385              		.loc 3 131 0 discriminator 14
 3386 199e E8000000 		call	__cxa_end_catch@PLT
 3386      00
 3387              	.LEHE180:
 3388 19a3 E9FCF9FF 		jmp	.L207
 3388      FF
 3389              	.L274:
 3390 19a8 4889C3   		movq	%rax, %rbx
 131:testCore.cpp  **** 	*item = 5;
 3391              		.loc 3 131 0
 3392 19ab E8000000 		call	__cxa_end_catch@PLT
 3392      00
 3393 19b0 4889D8   		movq	%rbx, %rax
 3394 19b3 4889C7   		movq	%rax, %rdi
 3395              	.LEHB181:
 3396 19b6 E8000000 		call	_Unwind_Resume@PLT
 3396      00
 3397              	.LEHE181:
 3398              	.L276:
 3399 19bb EB00     		jmp	.L210
 3400              	.L275:
 3401              	.L210:
 135:testCore.cpp  **** 	CHECK_EQUAL(2UL, *item);
 3402              		.loc 3 135 0 is_stmt 1
 3403 19bd 4889C7   		movq	%rax, %rdi
 3404 19c0 E8000000 		call	__cxa_begin_catch@PLT
 3404      00
 3405              	.LEHB182:
 3406 19c5 E8000000 		call	_ZN8UnitTest11CurrentTest7ResultsEv@PLT
 3406      00
 3407 19ca 488B18   		movq	(%rax), %rbx
 3408 19cd E8000000 		call	_ZN8UnitTest11CurrentTest7DetailsEv@PLT
 3408      00
 135:testCore.cpp  **** 	CHECK_EQUAL(2UL, *item);
 3409              		.loc 3 135 0 is_stmt 0 discriminator 8
 3410 19d2 488B08   		movq	(%rax), %rcx
 3411 19d5 488D4590 		leaq	-112(%rbp), %rax
 3412 19d9 BA870000 		movl	$135, %edx
 3412      00
 3413 19de 4889CE   		movq	%rcx, %rsi
 3414 19e1 4889C7   		movq	%rax, %rdi
 3415 19e4 E8000000 		call	_ZN8UnitTest11TestDetailsC1ERKS0_i@PLT
 3415      00
 135:testCore.cpp  **** 	CHECK_EQUAL(2UL, *item);
 3416              		.loc 3 135 0 discriminator 12
 3417 19e9 488D4590 		leaq	-112(%rbp), %rax
 3418 19ed 488D1500 		leaq	.LC3(%rip), %rdx
 3418      000000
 3419 19f4 4889C6   		movq	%rax, %rsi
 3420 19f7 4889DF   		movq	%rbx, %rdi
 3421 19fa E8000000 		call	_ZN8UnitTest11TestResults13OnTestFailureERKNS_11TestDetailsEPKc@PLT
 3421      00
 3422              	.LEHE182:
 3423              	.LEHB183:
 135:testCore.cpp  **** 	CHECK_EQUAL(2UL, *item);
 3424              		.loc 3 135 0 discriminator 14
 3425 19ff E8000000 		call	__cxa_end_catch@PLT
 3425      00
 3426              	.LEHE183:
 3427 1a04 E90CFAFF 		jmp	.L211
 3427      FF
 3428              	.L277:
 3429 1a09 4889C3   		movq	%rax, %rbx
 135:testCore.cpp  **** 	CHECK_EQUAL(2UL, *item);
 3430              		.loc 3 135 0
 3431 1a0c E8000000 		call	__cxa_end_catch@PLT
 3431      00
 3432 1a11 4889D8   		movq	%rbx, %rax
 3433 1a14 4889C7   		movq	%rax, %rdi
 3434              	.LEHB184:
 3435 1a17 E8000000 		call	_Unwind_Resume@PLT
 3435      00
 3436              	.LEHE184:
 3437              	.L279:
 3438 1a1c EB00     		jmp	.L214
 3439              	.L278:
 3440              	.L214:
 136:testCore.cpp  **** 	*item = 6;
 3441              		.loc 3 136 0 is_stmt 1
 3442 1a1e 4889C7   		movq	%rax, %rdi
 3443 1a21 E8000000 		call	__cxa_begin_catch@PLT
 3443      00
 3444              	.LEHB185:
 3445 1a26 E8000000 		call	_ZN8UnitTest11CurrentTest7ResultsEv@PLT
 3445      00
 3446 1a2b 488B18   		movq	(%rax), %rbx
 3447 1a2e E8000000 		call	_ZN8UnitTest11CurrentTest7DetailsEv@PLT
 3447      00
 136:testCore.cpp  **** 	*item = 6;
 3448              		.loc 3 136 0 is_stmt 0 discriminator 8
 3449 1a33 488B08   		movq	(%rax), %rcx
 3450 1a36 488D4590 		leaq	-112(%rbp), %rax
 3451 1a3a BA880000 		movl	$136, %edx
 3451      00
 3452 1a3f 4889CE   		movq	%rcx, %rsi
 3453 1a42 4889C7   		movq	%rax, %rdi
 3454 1a45 E8000000 		call	_ZN8UnitTest11TestDetailsC1ERKS0_i@PLT
 3454      00
 136:testCore.cpp  **** 	*item = 6;
 3455              		.loc 3 136 0 discriminator 12
 3456 1a4a 488D4590 		leaq	-112(%rbp), %rax
 3457 1a4e 488D1500 		leaq	.LC14(%rip), %rdx
 3457      000000
 3458 1a55 4889C6   		movq	%rax, %rsi
 3459 1a58 4889DF   		movq	%rbx, %rdi
 3460 1a5b E8000000 		call	_ZN8UnitTest11TestResults13OnTestFailureERKNS_11TestDetailsEPKc@PLT
 3460      00
 3461              	.LEHE185:
 3462              	.LEHB186:
 136:testCore.cpp  **** 	*item = 6;
 3463              		.loc 3 136 0 discriminator 14
 3464 1a60 E8000000 		call	__cxa_end_catch@PLT
 3464      00
 3465              	.LEHE186:
 3466 1a65 E9F1F9FF 		jmp	.L215
 3466      FF
 3467              	.L280:
 3468 1a6a 4889C3   		movq	%rax, %rbx
 136:testCore.cpp  **** 	*item = 6;
 3469              		.loc 3 136 0
 3470 1a6d E8000000 		call	__cxa_end_catch@PLT
 3470      00
 3471 1a72 4889D8   		movq	%rbx, %rax
 3472 1a75 4889C7   		movq	%rax, %rdi
 3473              	.LEHB187:
 3474 1a78 E8000000 		call	_Unwind_Resume@PLT
 3474      00
 3475              	.LEHE187:
 3476              	.L282:
 3477 1a7d EB00     		jmp	.L218
 3478              	.L281:
 3479              	.L218:
 140:testCore.cpp  **** 	CHECK_EQUAL(3UL, *item);
 3480              		.loc 3 140 0 is_stmt 1
 3481 1a7f 4889C7   		movq	%rax, %rdi
 3482 1a82 E8000000 		call	__cxa_begin_catch@PLT
 3482      00
 3483              	.LEHB188:
 3484 1a87 E8000000 		call	_ZN8UnitTest11CurrentTest7ResultsEv@PLT
 3484      00
 3485 1a8c 488B18   		movq	(%rax), %rbx
 3486 1a8f E8000000 		call	_ZN8UnitTest11CurrentTest7DetailsEv@PLT
 3486      00
 140:testCore.cpp  **** 	CHECK_EQUAL(3UL, *item);
 3487              		.loc 3 140 0 is_stmt 0 discriminator 8
 3488 1a94 488B08   		movq	(%rax), %rcx
 3489 1a97 488D4590 		leaq	-112(%rbp), %rax
 3490 1a9b BA8C0000 		movl	$140, %edx
 3490      00
 3491 1aa0 4889CE   		movq	%rcx, %rsi
 3492 1aa3 4889C7   		movq	%rax, %rdi
 3493 1aa6 E8000000 		call	_ZN8UnitTest11TestDetailsC1ERKS0_i@PLT
 3493      00
 140:testCore.cpp  **** 	CHECK_EQUAL(3UL, *item);
 3494              		.loc 3 140 0 discriminator 12
 3495 1aab 488D4590 		leaq	-112(%rbp), %rax
 3496 1aaf 488D1500 		leaq	.LC3(%rip), %rdx
 3496      000000
 3497 1ab6 4889C6   		movq	%rax, %rsi
 3498 1ab9 4889DF   		movq	%rbx, %rdi
 3499 1abc E8000000 		call	_ZN8UnitTest11TestResults13OnTestFailureERKNS_11TestDetailsEPKc@PLT
 3499      00
 3500              	.LEHE188:
 3501              	.LEHB189:
 140:testCore.cpp  **** 	CHECK_EQUAL(3UL, *item);
 3502              		.loc 3 140 0 discriminator 14
 3503 1ac1 E8000000 		call	__cxa_end_catch@PLT
 3503      00
 3504              	.LEHE189:
 3505 1ac6 E901FAFF 		jmp	.L219
 3505      FF
 3506              	.L283:
 3507 1acb 4889C3   		movq	%rax, %rbx
 140:testCore.cpp  **** 	CHECK_EQUAL(3UL, *item);
 3508              		.loc 3 140 0
 3509 1ace E8000000 		call	__cxa_end_catch@PLT
 3509      00
 3510 1ad3 4889D8   		movq	%rbx, %rax
 3511 1ad6 4889C7   		movq	%rax, %rdi
 3512              	.LEHB190:
 3513 1ad9 E8000000 		call	_Unwind_Resume@PLT
 3513      00
 3514              	.LEHE190:
 3515              	.L285:
 3516 1ade EB00     		jmp	.L222
 3517              	.L284:
 3518              	.L222:
 141:testCore.cpp  **** 	*item = 7;
 3519              		.loc 3 141 0 is_stmt 1
 3520 1ae0 4889C7   		movq	%rax, %rdi
 3521 1ae3 E8000000 		call	__cxa_begin_catch@PLT
 3521      00
 3522              	.LEHB191:
 3523 1ae8 E8000000 		call	_ZN8UnitTest11CurrentTest7ResultsEv@PLT
 3523      00
 3524 1aed 488B18   		movq	(%rax), %rbx
 3525 1af0 E8000000 		call	_ZN8UnitTest11CurrentTest7DetailsEv@PLT
 3525      00
 141:testCore.cpp  **** 	*item = 7;
 3526              		.loc 3 141 0 is_stmt 0 discriminator 8
 3527 1af5 488B08   		movq	(%rax), %rcx
 3528 1af8 488D4590 		leaq	-112(%rbp), %rax
 3529 1afc BA8D0000 		movl	$141, %edx
 3529      00
 3530 1b01 4889CE   		movq	%rcx, %rsi
 3531 1b04 4889C7   		movq	%rax, %rdi
 3532 1b07 E8000000 		call	_ZN8UnitTest11TestDetailsC1ERKS0_i@PLT
 3532      00
 141:testCore.cpp  **** 	*item = 7;
 3533              		.loc 3 141 0 discriminator 12
 3534 1b0c 488D4590 		leaq	-112(%rbp), %rax
 3535 1b10 488D1500 		leaq	.LC15(%rip), %rdx
 3535      000000
 3536 1b17 4889C6   		movq	%rax, %rsi
 3537 1b1a 4889DF   		movq	%rbx, %rdi
 3538 1b1d E8000000 		call	_ZN8UnitTest11TestResults13OnTestFailureERKNS_11TestDetailsEPKc@PLT
 3538      00
 3539              	.LEHE191:
 3540              	.LEHB192:
 141:testCore.cpp  **** 	*item = 7;
 3541              		.loc 3 141 0 discriminator 14
 3542 1b22 E8000000 		call	__cxa_end_catch@PLT
 3542      00
 3543              	.LEHE192:
 3544 1b27 E9E6F9FF 		jmp	.L223
 3544      FF
 3545              	.L286:
 3546 1b2c 4889C3   		movq	%rax, %rbx
 141:testCore.cpp  **** 	*item = 7;
 3547              		.loc 3 141 0
 3548 1b2f E8000000 		call	__cxa_end_catch@PLT
 3548      00
 3549 1b34 4889D8   		movq	%rbx, %rax
 3550 1b37 4889C7   		movq	%rax, %rdi
 3551              	.LEHB193:
 3552 1b3a E8000000 		call	_Unwind_Resume@PLT
 3552      00
 3553              	.LEHE193:
 3554              	.L288:
 3555 1b3f EB00     		jmp	.L226
 3556              	.L287:
 3557              	.L226:
 145:testCore.cpp  **** 	CHECK_EQUAL(4UL, *item);
 3558              		.loc 3 145 0 is_stmt 1
 3559 1b41 4889C7   		movq	%rax, %rdi
 3560 1b44 E8000000 		call	__cxa_begin_catch@PLT
 3560      00
 3561              	.LEHB194:
 3562 1b49 E8000000 		call	_ZN8UnitTest11CurrentTest7ResultsEv@PLT
 3562      00
 3563 1b4e 488B18   		movq	(%rax), %rbx
 3564 1b51 E8000000 		call	_ZN8UnitTest11CurrentTest7DetailsEv@PLT
 3564      00
 145:testCore.cpp  **** 	CHECK_EQUAL(4UL, *item);
 3565              		.loc 3 145 0 is_stmt 0 discriminator 8
 3566 1b56 488B08   		movq	(%rax), %rcx
 3567 1b59 488D4590 		leaq	-112(%rbp), %rax
 3568 1b5d BA910000 		movl	$145, %edx
 3568      00
 3569 1b62 4889CE   		movq	%rcx, %rsi
 3570 1b65 4889C7   		movq	%rax, %rdi
 3571 1b68 E8000000 		call	_ZN8UnitTest11TestDetailsC1ERKS0_i@PLT
 3571      00
 145:testCore.cpp  **** 	CHECK_EQUAL(4UL, *item);
 3572              		.loc 3 145 0 discriminator 12
 3573 1b6d 488D4590 		leaq	-112(%rbp), %rax
 3574 1b71 488D1500 		leaq	.LC3(%rip), %rdx
 3574      000000
 3575 1b78 4889C6   		movq	%rax, %rsi
 3576 1b7b 4889DF   		movq	%rbx, %rdi
 3577 1b7e E8000000 		call	_ZN8UnitTest11TestResults13OnTestFailureERKNS_11TestDetailsEPKc@PLT
 3577      00
 3578              	.LEHE194:
 3579              	.LEHB195:
 145:testCore.cpp  **** 	CHECK_EQUAL(4UL, *item);
 3580              		.loc 3 145 0 discriminator 14
 3581 1b83 E8000000 		call	__cxa_end_catch@PLT
 3581      00
 3582              	.LEHE195:
 3583 1b88 E9F6F9FF 		jmp	.L227
 3583      FF
 3584              	.L289:
 3585 1b8d 4889C3   		movq	%rax, %rbx
 145:testCore.cpp  **** 	CHECK_EQUAL(4UL, *item);
 3586              		.loc 3 145 0
 3587 1b90 E8000000 		call	__cxa_end_catch@PLT
 3587      00
 3588 1b95 4889D8   		movq	%rbx, %rax
 3589 1b98 4889C7   		movq	%rax, %rdi
 3590              	.LEHB196:
 3591 1b9b E8000000 		call	_Unwind_Resume@PLT
 3591      00
 3592              	.LEHE196:
 3593              	.L291:
 3594 1ba0 EB00     		jmp	.L230
 3595              	.L290:
 3596              	.L230:
 146:testCore.cpp  **** 	*item = 8;
 3597              		.loc 3 146 0 is_stmt 1
 3598 1ba2 4889C7   		movq	%rax, %rdi
 3599 1ba5 E8000000 		call	__cxa_begin_catch@PLT
 3599      00
 3600              	.LEHB197:
 3601 1baa E8000000 		call	_ZN8UnitTest11CurrentTest7ResultsEv@PLT
 3601      00
 3602 1baf 488B18   		movq	(%rax), %rbx
 3603 1bb2 E8000000 		call	_ZN8UnitTest11CurrentTest7DetailsEv@PLT
 3603      00
 146:testCore.cpp  **** 	*item = 8;
 3604              		.loc 3 146 0 is_stmt 0 discriminator 8
 3605 1bb7 488B08   		movq	(%rax), %rcx
 3606 1bba 488D4590 		leaq	-112(%rbp), %rax
 3607 1bbe BA920000 		movl	$146, %edx
 3607      00
 3608 1bc3 4889CE   		movq	%rcx, %rsi
 3609 1bc6 4889C7   		movq	%rax, %rdi
 3610 1bc9 E8000000 		call	_ZN8UnitTest11TestDetailsC1ERKS0_i@PLT
 3610      00
 146:testCore.cpp  **** 	*item = 8;
 3611              		.loc 3 146 0 discriminator 12
 3612 1bce 488D4590 		leaq	-112(%rbp), %rax
 3613 1bd2 488D1500 		leaq	.LC22(%rip), %rdx
 3613      000000
 3614 1bd9 4889C6   		movq	%rax, %rsi
 3615 1bdc 4889DF   		movq	%rbx, %rdi
 3616 1bdf E8000000 		call	_ZN8UnitTest11TestResults13OnTestFailureERKNS_11TestDetailsEPKc@PLT
 3616      00
 3617              	.LEHE197:
 3618              	.LEHB198:
 146:testCore.cpp  **** 	*item = 8;
 3619              		.loc 3 146 0 discriminator 14
 3620 1be4 E8000000 		call	__cxa_end_catch@PLT
 3620      00
 3621              	.LEHE198:
 3622 1be9 E9DBF9FF 		jmp	.L231
 3622      FF
 3623              	.L292:
 3624 1bee 4889C3   		movq	%rax, %rbx
 146:testCore.cpp  **** 	*item = 8;
 3625              		.loc 3 146 0
 3626 1bf1 E8000000 		call	__cxa_end_catch@PLT
 3626      00
 3627 1bf6 4889D8   		movq	%rbx, %rax
 3628 1bf9 4889C7   		movq	%rax, %rdi
 3629              	.LEHB199:
 3630 1bfc E8000000 		call	_Unwind_Resume@PLT
 3630      00
 3631              	.LEHE199:
 3632              	.L294:
 3633 1c01 EB00     		jmp	.L234
 3634              	.L293:
 3635              	.L234:
 151:testCore.cpp  **** 	CHECK_EQUAL(0UL, queue.putIndex);
 3636              		.loc 3 151 0 is_stmt 1
 3637 1c03 4889C7   		movq	%rax, %rdi
 3638 1c06 E8000000 		call	__cxa_begin_catch@PLT
 3638      00
 3639              	.LEHB200:
 3640 1c0b E8000000 		call	_ZN8UnitTest11CurrentTest7ResultsEv@PLT
 3640      00
 3641 1c10 488B18   		movq	(%rax), %rbx
 3642 1c13 E8000000 		call	_ZN8UnitTest11CurrentTest7DetailsEv@PLT
 3642      00
 151:testCore.cpp  **** 	CHECK_EQUAL(0UL, queue.putIndex);
 3643              		.loc 3 151 0 is_stmt 0 discriminator 8
 3644 1c18 488B08   		movq	(%rax), %rcx
 3645 1c1b 488D4590 		leaq	-112(%rbp), %rax
 3646 1c1f BA970000 		movl	$151, %edx
 3646      00
 3647 1c24 4889CE   		movq	%rcx, %rsi
 3648 1c27 4889C7   		movq	%rax, %rdi
 3649 1c2a E8000000 		call	_ZN8UnitTest11TestDetailsC1ERKS0_i@PLT
 3649      00
 151:testCore.cpp  **** 	CHECK_EQUAL(0UL, queue.putIndex);
 3650              		.loc 3 151 0 discriminator 12
 3651 1c2f 488D4590 		leaq	-112(%rbp), %rax
 3652 1c33 488D1500 		leaq	.LC4(%rip), %rdx
 3652      000000
 3653 1c3a 4889C6   		movq	%rax, %rsi
 3654 1c3d 4889DF   		movq	%rbx, %rdi
 3655 1c40 E8000000 		call	_ZN8UnitTest11TestResults13OnTestFailureERKNS_11TestDetailsEPKc@PLT
 3655      00
 3656              	.LEHE200:
 3657              	.LEHB201:
 151:testCore.cpp  **** 	CHECK_EQUAL(0UL, queue.putIndex);
 3658              		.loc 3 151 0 discriminator 14
 3659 1c45 E8000000 		call	__cxa_end_catch@PLT
 3659      00
 3660              	.LEHE201:
 3661 1c4a E9DAF9FF 		jmp	.L235
 3661      FF
 3662              	.L295:
 3663 1c4f 4889C3   		movq	%rax, %rbx
 151:testCore.cpp  **** 	CHECK_EQUAL(0UL, queue.putIndex);
 3664              		.loc 3 151 0
 3665 1c52 E8000000 		call	__cxa_end_catch@PLT
 3665      00
 3666 1c57 4889D8   		movq	%rbx, %rax
 3667 1c5a 4889C7   		movq	%rax, %rdi
 3668              	.LEHB202:
 3669 1c5d E8000000 		call	_Unwind_Resume@PLT
 3669      00
 3670              	.LEHE202:
 3671              	.L297:
 3672 1c62 EB00     		jmp	.L238
 3673              	.L296:
 3674              	.L238:
 152:testCore.cpp  **** 	CHECK_EQUAL(0UL, queue.takeIndex);
 3675              		.loc 3 152 0 is_stmt 1
 3676 1c64 4889C7   		movq	%rax, %rdi
 3677 1c67 E8000000 		call	__cxa_begin_catch@PLT
 3677      00
 3678              	.LEHB203:
 3679 1c6c E8000000 		call	_ZN8UnitTest11CurrentTest7ResultsEv@PLT
 3679      00
 3680 1c71 488B18   		movq	(%rax), %rbx
 3681 1c74 E8000000 		call	_ZN8UnitTest11CurrentTest7DetailsEv@PLT
 3681      00
 152:testCore.cpp  **** 	CHECK_EQUAL(0UL, queue.takeIndex);
 3682              		.loc 3 152 0 is_stmt 0 discriminator 8
 3683 1c79 488B08   		movq	(%rax), %rcx
 3684 1c7c 488D4590 		leaq	-112(%rbp), %rax
 3685 1c80 BA980000 		movl	$152, %edx
 3685      00
 3686 1c85 4889CE   		movq	%rcx, %rsi
 3687 1c88 4889C7   		movq	%rax, %rdi
 3688 1c8b E8000000 		call	_ZN8UnitTest11TestDetailsC1ERKS0_i@PLT
 3688      00
 152:testCore.cpp  **** 	CHECK_EQUAL(0UL, queue.takeIndex);
 3689              		.loc 3 152 0 discriminator 12
 3690 1c90 488D4590 		leaq	-112(%rbp), %rax
 3691 1c94 488D1500 		leaq	.LC5(%rip), %rdx
 3691      000000
 3692 1c9b 4889C6   		movq	%rax, %rsi
 3693 1c9e 4889DF   		movq	%rbx, %rdi
 3694 1ca1 E8000000 		call	_ZN8UnitTest11TestResults13OnTestFailureERKNS_11TestDetailsEPKc@PLT
 3694      00
 3695              	.LEHE203:
 3696              	.LEHB204:
 152:testCore.cpp  **** 	CHECK_EQUAL(0UL, queue.takeIndex);
 3697              		.loc 3 152 0 discriminator 14
 3698 1ca6 E8000000 		call	__cxa_end_catch@PLT
 3698      00
 3699              	.LEHE204:
 3700 1cab E9C3F9FF 		jmp	.L239
 3700      FF
 3701              	.L298:
 3702 1cb0 4889C3   		movq	%rax, %rbx
 152:testCore.cpp  **** 	CHECK_EQUAL(0UL, queue.takeIndex);
 3703              		.loc 3 152 0
 3704 1cb3 E8000000 		call	__cxa_end_catch@PLT
 3704      00
 3705 1cb8 4889D8   		movq	%rbx, %rax
 3706 1cbb 4889C7   		movq	%rax, %rdi
 3707              	.LEHB205:
 3708 1cbe E8000000 		call	_Unwind_Resume@PLT
 3708      00
 3709              	.LEHE205:
 3710              	.L300:
 3711 1cc3 EB00     		jmp	.L242
 3712              	.L299:
 3713              	.L242:
 153:testCore.cpp  **** 	CHECK_EQUAL(4UL, queue.numItems);
 3714              		.loc 3 153 0 is_stmt 1
 3715 1cc5 4889C7   		movq	%rax, %rdi
 3716 1cc8 E8000000 		call	__cxa_begin_catch@PLT
 3716      00
 3717              	.LEHB206:
 3718 1ccd E8000000 		call	_ZN8UnitTest11CurrentTest7ResultsEv@PLT
 3718      00
 3719 1cd2 488B18   		movq	(%rax), %rbx
 3720 1cd5 E8000000 		call	_ZN8UnitTest11CurrentTest7DetailsEv@PLT
 3720      00
 153:testCore.cpp  **** 	CHECK_EQUAL(4UL, queue.numItems);
 3721              		.loc 3 153 0 is_stmt 0 discriminator 8
 3722 1cda 488B08   		movq	(%rax), %rcx
 3723 1cdd 488D4590 		leaq	-112(%rbp), %rax
 3724 1ce1 BA990000 		movl	$153, %edx
 3724      00
 3725 1ce6 4889CE   		movq	%rcx, %rsi
 3726 1ce9 4889C7   		movq	%rax, %rdi
 3727 1cec E8000000 		call	_ZN8UnitTest11TestDetailsC1ERKS0_i@PLT
 3727      00
 153:testCore.cpp  **** 	CHECK_EQUAL(4UL, queue.numItems);
 3728              		.loc 3 153 0 discriminator 12
 3729 1cf1 488D4590 		leaq	-112(%rbp), %rax
 3730 1cf5 488D1500 		leaq	.LC6(%rip), %rdx
 3730      000000
 3731 1cfc 4889C6   		movq	%rax, %rsi
 3732 1cff 4889DF   		movq	%rbx, %rdi
 3733 1d02 E8000000 		call	_ZN8UnitTest11TestResults13OnTestFailureERKNS_11TestDetailsEPKc@PLT
 3733      00
 3734              	.LEHE206:
 3735              	.LEHB207:
 153:testCore.cpp  **** 	CHECK_EQUAL(4UL, queue.numItems);
 3736              		.loc 3 153 0 discriminator 14
 3737 1d07 E8000000 		call	__cxa_end_catch@PLT
 3737      00
 3738              	.LEHE207:
 3739 1d0c E9ACF9FF 		jmp	.L243
 3739      FF
 3740              	.L301:
 3741 1d11 4889C3   		movq	%rax, %rbx
 153:testCore.cpp  **** 	CHECK_EQUAL(4UL, queue.numItems);
 3742              		.loc 3 153 0
 3743 1d14 E8000000 		call	__cxa_end_catch@PLT
 3743      00
 3744 1d19 4889D8   		movq	%rbx, %rax
 3745 1d1c 4889C7   		movq	%rax, %rdi
 3746              	.LEHB208:
 3747 1d1f E8000000 		call	_Unwind_Resume@PLT
 3747      00
 3748              	.LEHE208:
 3749              	.L303:
 3750 1d24 EB00     		jmp	.L246
 3751              	.L302:
 3752              	.L246:
 154:testCore.cpp  **** 
 3753              		.loc 3 154 0 is_stmt 1
 3754 1d26 4889C7   		movq	%rax, %rdi
 3755 1d29 E8000000 		call	__cxa_begin_catch@PLT
 3755      00
 3756              	.LEHB209:
 3757 1d2e E8000000 		call	_ZN8UnitTest11CurrentTest7ResultsEv@PLT
 3757      00
 3758 1d33 488B18   		movq	(%rax), %rbx
 3759 1d36 E8000000 		call	_ZN8UnitTest11CurrentTest7DetailsEv@PLT
 3759      00
 154:testCore.cpp  **** 
 3760              		.loc 3 154 0 is_stmt 0 discriminator 8
 3761 1d3b 488B08   		movq	(%rax), %rcx
 3762 1d3e 488D4590 		leaq	-112(%rbp), %rax
 3763 1d42 BA9A0000 		movl	$154, %edx
 3763      00
 3764 1d47 4889CE   		movq	%rcx, %rsi
 3765 1d4a 4889C7   		movq	%rax, %rdi
 3766 1d4d E8000000 		call	_ZN8UnitTest11TestDetailsC1ERKS0_i@PLT
 3766      00
 154:testCore.cpp  **** 
 3767              		.loc 3 154 0 discriminator 12
 3768 1d52 488D4590 		leaq	-112(%rbp), %rax
 3769 1d56 488D1500 		leaq	.LC23(%rip), %rdx
 3769      000000
 3770 1d5d 4889C6   		movq	%rax, %rsi
 3771 1d60 4889DF   		movq	%rbx, %rdi
 3772 1d63 E8000000 		call	_ZN8UnitTest11TestResults13OnTestFailureERKNS_11TestDetailsEPKc@PLT
 3772      00
 3773              	.LEHE209:
 3774              	.LEHB210:
 154:testCore.cpp  **** 
 3775              		.loc 3 154 0 discriminator 14
 3776 1d68 E8000000 		call	__cxa_end_catch@PLT
 3776      00
 3777              	.LEHE210:
 3778 1d6d E995F9FF 		jmp	.L247
 3778      FF
 3779              	.L304:
 3780 1d72 4889C3   		movq	%rax, %rbx
 154:testCore.cpp  **** 
 3781              		.loc 3 154 0
 3782 1d75 E8000000 		call	__cxa_end_catch@PLT
 3782      00
 3783 1d7a 4889D8   		movq	%rbx, %rax
 3784 1d7d 4889C7   		movq	%rax, %rdi
 3785              	.LEHB211:
 3786 1d80 E8000000 		call	_Unwind_Resume@PLT
 3786      00
 3787              	.LEHE211:
 3788              	.L306:
 3789 1d85 EB00     		jmp	.L250
 3790              	.L305:
 3791              	.L250:
 157:testCore.cpp  **** 	CHECK_EQUAL(6UL, deref(queue.itemArray[1]));
 3792              		.loc 3 157 0 is_stmt 1
 3793 1d87 4889C7   		movq	%rax, %rdi
 3794 1d8a E8000000 		call	__cxa_begin_catch@PLT
 3794      00
 3795              	.LEHB212:
 3796 1d8f E8000000 		call	_ZN8UnitTest11CurrentTest7ResultsEv@PLT
 3796      00
 3797 1d94 488B18   		movq	(%rax), %rbx
 3798 1d97 E8000000 		call	_ZN8UnitTest11CurrentTest7DetailsEv@PLT
 3798      00
 157:testCore.cpp  **** 	CHECK_EQUAL(6UL, deref(queue.itemArray[1]));
 3799              		.loc 3 157 0 is_stmt 0 discriminator 8
 3800 1d9c 488B08   		movq	(%rax), %rcx
 3801 1d9f 488D4590 		leaq	-112(%rbp), %rax
 3802 1da3 BA9D0000 		movl	$157, %edx
 3802      00
 3803 1da8 4889CE   		movq	%rcx, %rsi
 3804 1dab 4889C7   		movq	%rax, %rdi
 3805 1dae E8000000 		call	_ZN8UnitTest11TestDetailsC1ERKS0_i@PLT
 3805      00
 157:testCore.cpp  **** 	CHECK_EQUAL(6UL, deref(queue.itemArray[1]));
 3806              		.loc 3 157 0 discriminator 12
 3807 1db3 488D4590 		leaq	-112(%rbp), %rax
 3808 1db7 488D1500 		leaq	.LC18(%rip), %rdx
 3808      000000
 3809 1dbe 4889C6   		movq	%rax, %rsi
 3810 1dc1 4889DF   		movq	%rbx, %rdi
 3811 1dc4 E8000000 		call	_ZN8UnitTest11TestResults13OnTestFailureERKNS_11TestDetailsEPKc@PLT
 3811      00
 3812              	.LEHE212:
 3813              	.LEHB213:
 157:testCore.cpp  **** 	CHECK_EQUAL(6UL, deref(queue.itemArray[1]));
 3814              		.loc 3 157 0 discriminator 14
 3815 1dc9 E8000000 		call	__cxa_end_catch@PLT
 3815      00
 3816              	.LEHE213:
 3817 1dce E98CF9FF 		jmp	.L251
 3817      FF
 3818              	.L307:
 3819 1dd3 4889C3   		movq	%rax, %rbx
 157:testCore.cpp  **** 	CHECK_EQUAL(6UL, deref(queue.itemArray[1]));
 3820              		.loc 3 157 0
 3821 1dd6 E8000000 		call	__cxa_end_catch@PLT
 3821      00
 3822 1ddb 4889D8   		movq	%rbx, %rax
 3823 1dde 4889C7   		movq	%rax, %rdi
 3824              	.LEHB214:
 3825 1de1 E8000000 		call	_Unwind_Resume@PLT
 3825      00
 3826              	.LEHE214:
 3827              	.L309:
 3828 1de6 EB00     		jmp	.L254
 3829              	.L308:
 3830              	.L254:
 158:testCore.cpp  **** 	CHECK_EQUAL(7UL, deref(queue.itemArray[2]));
 3831              		.loc 3 158 0 is_stmt 1
 3832 1de8 4889C7   		movq	%rax, %rdi
 3833 1deb E8000000 		call	__cxa_begin_catch@PLT
 3833      00
 3834              	.LEHB215:
 3835 1df0 E8000000 		call	_ZN8UnitTest11CurrentTest7ResultsEv@PLT
 3835      00
 3836 1df5 488B18   		movq	(%rax), %rbx
 3837 1df8 E8000000 		call	_ZN8UnitTest11CurrentTest7DetailsEv@PLT
 3837      00
 158:testCore.cpp  **** 	CHECK_EQUAL(7UL, deref(queue.itemArray[2]));
 3838              		.loc 3 158 0 is_stmt 0 discriminator 8
 3839 1dfd 488B08   		movq	(%rax), %rcx
 3840 1e00 488D4590 		leaq	-112(%rbp), %rax
 3841 1e04 BA9E0000 		movl	$158, %edx
 3841      00
 3842 1e09 4889CE   		movq	%rcx, %rsi
 3843 1e0c 4889C7   		movq	%rax, %rdi
 3844 1e0f E8000000 		call	_ZN8UnitTest11TestDetailsC1ERKS0_i@PLT
 3844      00
 158:testCore.cpp  **** 	CHECK_EQUAL(7UL, deref(queue.itemArray[2]));
 3845              		.loc 3 158 0 discriminator 12
 3846 1e14 488D4590 		leaq	-112(%rbp), %rax
 3847 1e18 488D1500 		leaq	.LC19(%rip), %rdx
 3847      000000
 3848 1e1f 4889C6   		movq	%rax, %rsi
 3849 1e22 4889DF   		movq	%rbx, %rdi
 3850 1e25 E8000000 		call	_ZN8UnitTest11TestResults13OnTestFailureERKNS_11TestDetailsEPKc@PLT
 3850      00
 3851              	.LEHE215:
 3852              	.LEHB216:
 158:testCore.cpp  **** 	CHECK_EQUAL(7UL, deref(queue.itemArray[2]));
 3853              		.loc 3 158 0 discriminator 14
 3854 1e2a E8000000 		call	__cxa_end_catch@PLT
 3854      00
 3855              	.LEHE216:
 3856 1e2f E987F9FF 		jmp	.L255
 3856      FF
 3857              	.L310:
 3858 1e34 4889C3   		movq	%rax, %rbx
 158:testCore.cpp  **** 	CHECK_EQUAL(7UL, deref(queue.itemArray[2]));
 3859              		.loc 3 158 0
 3860 1e37 E8000000 		call	__cxa_end_catch@PLT
 3860      00
 3861 1e3c 4889D8   		movq	%rbx, %rax
 3862 1e3f 4889C7   		movq	%rax, %rdi
 3863              	.LEHB217:
 3864 1e42 E8000000 		call	_Unwind_Resume@PLT
 3864      00
 3865              	.LEHE217:
 3866              	.L312:
 3867 1e47 EB00     		jmp	.L258
 3868              	.L311:
 3869              	.L258:
 159:testCore.cpp  **** 	CHECK_EQUAL(8UL, deref(queue.itemArray[3]));
 3870              		.loc 3 159 0 is_stmt 1
 3871 1e49 4889C7   		movq	%rax, %rdi
 3872 1e4c E8000000 		call	__cxa_begin_catch@PLT
 3872      00
 3873              	.LEHB218:
 3874 1e51 E8000000 		call	_ZN8UnitTest11CurrentTest7ResultsEv@PLT
 3874      00
 3875 1e56 488B18   		movq	(%rax), %rbx
 3876 1e59 E8000000 		call	_ZN8UnitTest11CurrentTest7DetailsEv@PLT
 3876      00
 159:testCore.cpp  **** 	CHECK_EQUAL(8UL, deref(queue.itemArray[3]));
 3877              		.loc 3 159 0 is_stmt 0 discriminator 8
 3878 1e5e 488B08   		movq	(%rax), %rcx
 3879 1e61 488D4590 		leaq	-112(%rbp), %rax
 3880 1e65 BA9F0000 		movl	$159, %edx
 3880      00
 3881 1e6a 4889CE   		movq	%rcx, %rsi
 3882 1e6d 4889C7   		movq	%rax, %rdi
 3883 1e70 E8000000 		call	_ZN8UnitTest11TestDetailsC1ERKS0_i@PLT
 3883      00
 159:testCore.cpp  **** 	CHECK_EQUAL(8UL, deref(queue.itemArray[3]));
 3884              		.loc 3 159 0 discriminator 12
 3885 1e75 488D4590 		leaq	-112(%rbp), %rax
 3886 1e79 488D1500 		leaq	.LC20(%rip), %rdx
 3886      000000
 3887 1e80 4889C6   		movq	%rax, %rsi
 3888 1e83 4889DF   		movq	%rbx, %rdi
 3889 1e86 E8000000 		call	_ZN8UnitTest11TestResults13OnTestFailureERKNS_11TestDetailsEPKc@PLT
 3889      00
 3890              	.LEHE218:
 3891              	.LEHB219:
 159:testCore.cpp  **** 	CHECK_EQUAL(8UL, deref(queue.itemArray[3]));
 3892              		.loc 3 159 0 discriminator 14
 3893 1e8b E8000000 		call	__cxa_end_catch@PLT
 3893      00
 3894              	.LEHE219:
 3895 1e90 E982F9FF 		jmp	.L259
 3895      FF
 3896              	.L313:
 3897 1e95 4889C3   		movq	%rax, %rbx
 159:testCore.cpp  **** 	CHECK_EQUAL(8UL, deref(queue.itemArray[3]));
 3898              		.loc 3 159 0
 3899 1e98 E8000000 		call	__cxa_end_catch@PLT
 3899      00
 3900 1e9d 4889D8   		movq	%rbx, %rax
 3901 1ea0 4889C7   		movq	%rax, %rdi
 3902              	.LEHB220:
 3903 1ea3 E8000000 		call	_Unwind_Resume@PLT
 3903      00
 3904              	.LEHE220:
 3905              	.L315:
 3906 1ea8 EB00     		jmp	.L262
 3907              	.L314:
 3908              	.L262:
 160:testCore.cpp  **** 
 3909              		.loc 3 160 0 is_stmt 1
 3910 1eaa 4889C7   		movq	%rax, %rdi
 3911 1ead E8000000 		call	__cxa_begin_catch@PLT
 3911      00
 3912              	.LEHB221:
 3913 1eb2 E8000000 		call	_ZN8UnitTest11CurrentTest7ResultsEv@PLT
 3913      00
 3914 1eb7 488B18   		movq	(%rax), %rbx
 3915 1eba E8000000 		call	_ZN8UnitTest11CurrentTest7DetailsEv@PLT
 3915      00
 160:testCore.cpp  **** 
 3916              		.loc 3 160 0 is_stmt 0 discriminator 8
 3917 1ebf 488B08   		movq	(%rax), %rcx
 3918 1ec2 488D4590 		leaq	-112(%rbp), %rax
 3919 1ec6 BAA00000 		movl	$160, %edx
 3919      00
 3920 1ecb 4889CE   		movq	%rcx, %rsi
 3921 1ece 4889C7   		movq	%rax, %rdi
 3922 1ed1 E8000000 		call	_ZN8UnitTest11TestDetailsC1ERKS0_i@PLT
 3922      00
 160:testCore.cpp  **** 
 3923              		.loc 3 160 0 discriminator 12
 3924 1ed6 488D4590 		leaq	-112(%rbp), %rax
 3925 1eda 488D1500 		leaq	.LC24(%rip), %rdx
 3925      000000
 3926 1ee1 4889C6   		movq	%rax, %rsi
 3927 1ee4 4889DF   		movq	%rbx, %rdi
 3928 1ee7 E8000000 		call	_ZN8UnitTest11TestResults13OnTestFailureERKNS_11TestDetailsEPKc@PLT
 3928      00
 3929              	.LEHE221:
 3930              	.LEHB222:
 160:testCore.cpp  **** 
 3931              		.loc 3 160 0 discriminator 14
 3932 1eec E8000000 		call	__cxa_end_catch@PLT
 3932      00
 3933              	.LEHE222:
 3934 1ef1 E97DF9FF 		jmp	.L263
 3934      FF
 3935              	.L316:
 3936 1ef6 4889C3   		movq	%rax, %rbx
 160:testCore.cpp  **** 
 3937              		.loc 3 160 0
 3938 1ef9 E8000000 		call	__cxa_end_catch@PLT
 3938      00
 3939 1efe 4889D8   		movq	%rbx, %rax
 3940 1f01 4889C7   		movq	%rax, %rdi
 3941              	.LEHB223:
 3942 1f04 E8000000 		call	_Unwind_Resume@PLT
 3942      00
 3943              	.LEHE223:
 3944              	.L317:
 3945              		.loc 3 164 0 is_stmt 1
 3946 1f09 E8000000 		call	__stack_chk_fail@PLT
 3946      00
 3947              	.L265:
 3948 1f0e 4881C498 		addq	$152, %rsp
 3948      000000
 3949 1f15 5B       		popq	%rbx
 3950 1f16 5D       		popq	%rbp
 3951              		.cfi_def_cfa 7, 8
 3952 1f17 C3       		ret
 3953              		.cfi_endproc
 3954              	.LFE1114:
 3955              		.section	.gcc_except_table
 3956              		.align 4
 3957              	.LLSDA1114:
 3958 02e4 FF       		.byte	0xff
 3959 02e5 9B       		.byte	0x9b
 3960 02e6 8804     		.uleb128 .LLSDATT1114-.LLSDATTD1114
 3961              	.LLSDATTD1114:
 3962 02e8 01       		.byte	0x1
 3963 02e9 FC03     		.uleb128 .LLSDACSE1114-.LLSDACSB1114
 3964              	.LLSDACSB1114:
 3965 02eb 46       		.uleb128 .LEHB132-.LFB1114
 3966 02ec 05       		.uleb128 .LEHE132-.LEHB132
 3967 02ed 00       		.uleb128 0
 3968 02ee 00       		.uleb128 0
 3969 02ef 51       		.uleb128 .LEHB133-.LFB1114
 3970 02f0 1C       		.uleb128 .LEHE133-.LEHB133
 3971 02f1 AA0C     		.uleb128 .L266-.LFB1114
 3972 02f3 01       		.uleb128 0x1
 3973 02f4 74       		.uleb128 .LEHB134-.LFB1114
 3974 02f5 1F       		.uleb128 .LEHE134-.LEHB134
 3975 02f6 A80C     		.uleb128 .L267-.LFB1114
 3976 02f8 03       		.uleb128 0x3
 3977 02f9 A101     		.uleb128 .LEHB135-.LFB1114
 3978 02fb 05       		.uleb128 .LEHE135-.LEHB135
 3979 02fc 00       		.uleb128 0
 3980 02fd 00       		.uleb128 0
 3981 02fe AC01     		.uleb128 .LEHB136-.LFB1114
 3982 0300 1C       		.uleb128 .LEHE136-.LEHB136
 3983 0301 8B0D     		.uleb128 .L269-.LFB1114
 3984 0303 01       		.uleb128 0x1
 3985 0304 CF01     		.uleb128 .LEHB137-.LFB1114
 3986 0306 1F       		.uleb128 .LEHE137-.LEHB137
 3987 0307 890D     		.uleb128 .L270-.LFB1114
 3988 0309 03       		.uleb128 0x3
 3989 030a EE01     		.uleb128 .LEHB138-.LFB1114
 3990 030c 1C       		.uleb128 .LEHE138-.LEHB138
 3991 030d EC0D     		.uleb128 .L272-.LFB1114
 3992 030f 01       		.uleb128 0x1
 3993 0310 9602     		.uleb128 .LEHB139-.LFB1114
 3994 0312 1E       		.uleb128 .LEHE139-.LEHB139
 3995 0313 EA0D     		.uleb128 .L273-.LFB1114
 3996 0315 03       		.uleb128 0x3
 3997 0316 C502     		.uleb128 .LEHB140-.LFB1114
 3998 0318 18       		.uleb128 .LEHE140-.LEHB140
 3999 0319 00       		.uleb128 0
 4000 031a 00       		.uleb128 0
 4001 031b E302     		.uleb128 .LEHB141-.LFB1114
 4002 031d 1C       		.uleb128 .LEHE141-.LEHB141
 4003 031e CD0E     		.uleb128 .L275-.LFB1114
 4004 0320 01       		.uleb128 0x1
 4005 0321 8603     		.uleb128 .LEHB142-.LFB1114
 4006 0323 1F       		.uleb128 .LEHE142-.LEHB142
 4007 0324 CB0E     		.uleb128 .L276-.LFB1114
 4008 0326 03       		.uleb128 0x3
 4009 0327 A503     		.uleb128 .LEHB143-.LFB1114
 4010 0329 1C       		.uleb128 .LEHE143-.LEHB143
 4011 032a AE0F     		.uleb128 .L278-.LFB1114
 4012 032c 01       		.uleb128 0x1
 4013 032d CD03     		.uleb128 .LEHB144-.LFB1114
 4014 032f 1E       		.uleb128 .LEHE144-.LEHB144
 4015 0330 AC0F     		.uleb128 .L279-.LFB1114
 4016 0332 03       		.uleb128 0x3
 4017 0333 FC03     		.uleb128 .LEHB145-.LFB1114
 4018 0335 18       		.uleb128 .LEHE145-.LEHB145
 4019 0336 00       		.uleb128 0
 4020 0337 00       		.uleb128 0
 4021 0338 9A04     		.uleb128 .LEHB146-.LFB1114
 4022 033a 1C       		.uleb128 .LEHE146-.LEHB146
 4023 033b 8F10     		.uleb128 .L281-.LFB1114
 4024 033d 01       		.uleb128 0x1
 4025 033e BD04     		.uleb128 .LEHB147-.LFB1114
 4026 0340 1F       		.uleb128 .LEHE147-.LEHB147
 4027 0341 8D10     		.uleb128 .L282-.LFB1114
 4028 0343 03       		.uleb128 0x3
 4029 0344 DC04     		.uleb128 .LEHB148-.LFB1114
 4030 0346 1C       		.uleb128 .LEHE148-.LEHB148
 4031 0347 F010     		.uleb128 .L284-.LFB1114
 4032 0349 01       		.uleb128 0x1
 4033 034a 8405     		.uleb128 .LEHB149-.LFB1114
 4034 034c 1E       		.uleb128 .LEHE149-.LEHB149
 4035 034d EE10     		.uleb128 .L285-.LFB1114
 4036 034f 03       		.uleb128 0x3
 4037 0350 B305     		.uleb128 .LEHB150-.LFB1114
 4038 0352 18       		.uleb128 .LEHE150-.LEHB150
 4039 0353 00       		.uleb128 0
 4040 0354 00       		.uleb128 0
 4041 0355 D105     		.uleb128 .LEHB151-.LFB1114
 4042 0357 1C       		.uleb128 .LEHE151-.LEHB151
 4043 0358 D111     		.uleb128 .L287-.LFB1114
 4044 035a 01       		.uleb128 0x1
 4045 035b F405     		.uleb128 .LEHB152-.LFB1114
 4046 035d 1F       		.uleb128 .LEHE152-.LEHB152
 4047 035e CF11     		.uleb128 .L288-.LFB1114
 4048 0360 03       		.uleb128 0x3
 4049 0361 9306     		.uleb128 .LEHB153-.LFB1114
 4050 0363 1C       		.uleb128 .LEHE153-.LEHB153
 4051 0364 B212     		.uleb128 .L290-.LFB1114
 4052 0366 01       		.uleb128 0x1
 4053 0367 BB06     		.uleb128 .LEHB154-.LFB1114
 4054 0369 1E       		.uleb128 .LEHE154-.LEHB154
 4055 036a B012     		.uleb128 .L291-.LFB1114
 4056 036c 03       		.uleb128 0x3
 4057 036d EA06     		.uleb128 .LEHB155-.LFB1114
 4058 036f 05       		.uleb128 .LEHE155-.LEHB155
 4059 0370 00       		.uleb128 0
 4060 0371 00       		.uleb128 0
 4061 0372 EF06     		.uleb128 .LEHB156-.LFB1114
 4062 0374 1C       		.uleb128 .LEHE156-.LEHB156
 4063 0375 9313     		.uleb128 .L293-.LFB1114
 4064 0377 01       		.uleb128 0x1
 4065 0378 9307     		.uleb128 .LEHB157-.LFB1114
 4066 037a 26       		.uleb128 .LEHE157-.LEHB157
 4067 037b 9113     		.uleb128 .L294-.LFB1114
 4068 037d 03       		.uleb128 0x3
 4069 037e B907     		.uleb128 .LEHB158-.LFB1114
 4070 0380 1C       		.uleb128 .LEHE158-.LEHB158
 4071 0381 F413     		.uleb128 .L296-.LFB1114
 4072 0383 01       		.uleb128 0x1
 4073 0384 DD07     		.uleb128 .LEHB159-.LFB1114
 4074 0386 26       		.uleb128 .LEHE159-.LEHB159
 4075 0387 F213     		.uleb128 .L297-.LFB1114
 4076 0389 03       		.uleb128 0x3
 4077 038a 8308     		.uleb128 .LEHB160-.LFB1114
 4078 038c 1C       		.uleb128 .LEHE160-.LEHB160
 4079 038d D514     		.uleb128 .L299-.LFB1114
 4080 038f 01       		.uleb128 0x1
 4081 0390 A708     		.uleb128 .LEHB161-.LFB1114
 4082 0392 26       		.uleb128 .LEHE161-.LEHB161
 4083 0393 D314     		.uleb128 .L300-.LFB1114
 4084 0395 03       		.uleb128 0x3
 4085 0396 CD08     		.uleb128 .LEHB162-.LFB1114
 4086 0398 1C       		.uleb128 .LEHE162-.LEHB162
 4087 0399 B615     		.uleb128 .L302-.LFB1114
 4088 039b 01       		.uleb128 0x1
 4089 039c F108     		.uleb128 .LEHB163-.LFB1114
 4090 039e 26       		.uleb128 .LEHE163-.LEHB163
 4091 039f B415     		.uleb128 .L303-.LFB1114
 4092 03a1 03       		.uleb128 0x3
 4093 03a2 9709     		.uleb128 .LEHB164-.LFB1114
 4094 03a4 1C       		.uleb128 .LEHE164-.LEHB164
 4095 03a5 9716     		.uleb128 .L305-.LFB1114
 4096 03a7 01       		.uleb128 0x1
 4097 03a8 D009     		.uleb128 .LEHB165-.LFB1114
 4098 03aa 1F       		.uleb128 .LEHE165-.LEHB165
 4099 03ab 9516     		.uleb128 .L306-.LFB1114
 4100 03ad 03       		.uleb128 0x3
 4101 03ae EF09     		.uleb128 .LEHB166-.LFB1114
 4102 03b0 1C       		.uleb128 .LEHE166-.LEHB166
 4103 03b1 F816     		.uleb128 .L308-.LFB1114
 4104 03b3 01       		.uleb128 0x1
 4105 03b4 AC0A     		.uleb128 .LEHB167-.LFB1114
 4106 03b6 1F       		.uleb128 .LEHE167-.LEHB167
 4107 03b7 F616     		.uleb128 .L309-.LFB1114
 4108 03b9 03       		.uleb128 0x3
 4109 03ba CB0A     		.uleb128 .LEHB168-.LFB1114
 4110 03bc 1C       		.uleb128 .LEHE168-.LEHB168
 4111 03bd D917     		.uleb128 .L311-.LFB1114
 4112 03bf 01       		.uleb128 0x1
 4113 03c0 880B     		.uleb128 .LEHB169-.LFB1114
 4114 03c2 1F       		.uleb128 .LEHE169-.LEHB169
 4115 03c3 D717     		.uleb128 .L312-.LFB1114
 4116 03c5 03       		.uleb128 0x3
 4117 03c6 A70B     		.uleb128 .LEHB170-.LFB1114
 4118 03c8 1C       		.uleb128 .LEHE170-.LEHB170
 4119 03c9 BA18     		.uleb128 .L314-.LFB1114
 4120 03cb 01       		.uleb128 0x1
 4121 03cc E40B     		.uleb128 .LEHB171-.LFB1114
 4122 03ce 1F       		.uleb128 .LEHE171-.LEHB171
 4123 03cf B818     		.uleb128 .L315-.LFB1114
 4124 03d1 03       		.uleb128 0x3
 4125 03d2 8A0C     		.uleb128 .LEHB172-.LFB1114
 4126 03d4 05       		.uleb128 .LEHE172-.LEHB172
 4127 03d5 00       		.uleb128 0
 4128 03d6 00       		.uleb128 0
 4129 03d7 B20C     		.uleb128 .LEHB173-.LFB1114
 4130 03d9 3A       		.uleb128 .LEHE173-.LEHB173
 4131 03da F60C     		.uleb128 .L268-.LFB1114
 4132 03dc 00       		.uleb128 0
 4133 03dd EC0C     		.uleb128 .LEHB174-.LFB1114
 4134 03df 05       		.uleb128 .LEHE174-.LEHB174
 4135 03e0 00       		.uleb128 0
 4136 03e1 00       		.uleb128 0
 4137 03e2 840D     		.uleb128 .LEHB175-.LFB1114
 4138 03e4 05       		.uleb128 .LEHE175-.LEHB175
 4139 03e5 00       		.uleb128 0
 4140 03e6 00       		.uleb128 0
 4141 03e7 930D     		.uleb128 .LEHB176-.LFB1114
 4142 03e9 3A       		.uleb128 .LEHE176-.LEHB176
 4143 03ea D70D     		.uleb128 .L271-.LFB1114
 4144 03ec 00       		.uleb128 0
 4145 03ed CD0D     		.uleb128 .LEHB177-.LFB1114
 4146 03ef 05       		.uleb128 .LEHE177-.LEHB177
 4147 03f0 00       		.uleb128 0
 4148 03f1 00       		.uleb128 0
 4149 03f2 E50D     		.uleb128 .LEHB178-.LFB1114
 4150 03f4 05       		.uleb128 .LEHE178-.LEHB178
 4151 03f5 00       		.uleb128 0
 4152 03f6 00       		.uleb128 0
 4153 03f7 F40D     		.uleb128 .LEHB179-.LFB1114
 4154 03f9 3A       		.uleb128 .LEHE179-.LEHB179
 4155 03fa B80E     		.uleb128 .L274-.LFB1114
 4156 03fc 00       		.uleb128 0
 4157 03fd AE0E     		.uleb128 .LEHB180-.LFB1114
 4158 03ff 05       		.uleb128 .LEHE180-.LEHB180
 4159 0400 00       		.uleb128 0
 4160 0401 00       		.uleb128 0
 4161 0402 C60E     		.uleb128 .LEHB181-.LFB1114
 4162 0404 05       		.uleb128 .LEHE181-.LEHB181
 4163 0405 00       		.uleb128 0
 4164 0406 00       		.uleb128 0
 4165 0407 D50E     		.uleb128 .LEHB182-.LFB1114
 4166 0409 3A       		.uleb128 .LEHE182-.LEHB182
 4167 040a 990F     		.uleb128 .L277-.LFB1114
 4168 040c 00       		.uleb128 0
 4169 040d 8F0F     		.uleb128 .LEHB183-.LFB1114
 4170 040f 05       		.uleb128 .LEHE183-.LEHB183
 4171 0410 00       		.uleb128 0
 4172 0411 00       		.uleb128 0
 4173 0412 A70F     		.uleb128 .LEHB184-.LFB1114
 4174 0414 05       		.uleb128 .LEHE184-.LEHB184
 4175 0415 00       		.uleb128 0
 4176 0416 00       		.uleb128 0
 4177 0417 B60F     		.uleb128 .LEHB185-.LFB1114
 4178 0419 3A       		.uleb128 .LEHE185-.LEHB185
 4179 041a FA0F     		.uleb128 .L280-.LFB1114
 4180 041c 00       		.uleb128 0
 4181 041d F00F     		.uleb128 .LEHB186-.LFB1114
 4182 041f 05       		.uleb128 .LEHE186-.LEHB186
 4183 0420 00       		.uleb128 0
 4184 0421 00       		.uleb128 0
 4185 0422 8810     		.uleb128 .LEHB187-.LFB1114
 4186 0424 05       		.uleb128 .LEHE187-.LEHB187
 4187 0425 00       		.uleb128 0
 4188 0426 00       		.uleb128 0
 4189 0427 9710     		.uleb128 .LEHB188-.LFB1114
 4190 0429 3A       		.uleb128 .LEHE188-.LEHB188
 4191 042a DB10     		.uleb128 .L283-.LFB1114
 4192 042c 00       		.uleb128 0
 4193 042d D110     		.uleb128 .LEHB189-.LFB1114
 4194 042f 05       		.uleb128 .LEHE189-.LEHB189
 4195 0430 00       		.uleb128 0
 4196 0431 00       		.uleb128 0
 4197 0432 E910     		.uleb128 .LEHB190-.LFB1114
 4198 0434 05       		.uleb128 .LEHE190-.LEHB190
 4199 0435 00       		.uleb128 0
 4200 0436 00       		.uleb128 0
 4201 0437 F810     		.uleb128 .LEHB191-.LFB1114
 4202 0439 3A       		.uleb128 .LEHE191-.LEHB191
 4203 043a BC11     		.uleb128 .L286-.LFB1114
 4204 043c 00       		.uleb128 0
 4205 043d B211     		.uleb128 .LEHB192-.LFB1114
 4206 043f 05       		.uleb128 .LEHE192-.LEHB192
 4207 0440 00       		.uleb128 0
 4208 0441 00       		.uleb128 0
 4209 0442 CA11     		.uleb128 .LEHB193-.LFB1114
 4210 0444 05       		.uleb128 .LEHE193-.LEHB193
 4211 0445 00       		.uleb128 0
 4212 0446 00       		.uleb128 0
 4213 0447 D911     		.uleb128 .LEHB194-.LFB1114
 4214 0449 3A       		.uleb128 .LEHE194-.LEHB194
 4215 044a 9D12     		.uleb128 .L289-.LFB1114
 4216 044c 00       		.uleb128 0
 4217 044d 9312     		.uleb128 .LEHB195-.LFB1114
 4218 044f 05       		.uleb128 .LEHE195-.LEHB195
 4219 0450 00       		.uleb128 0
 4220 0451 00       		.uleb128 0
 4221 0452 AB12     		.uleb128 .LEHB196-.LFB1114
 4222 0454 05       		.uleb128 .LEHE196-.LEHB196
 4223 0455 00       		.uleb128 0
 4224 0456 00       		.uleb128 0
 4225 0457 BA12     		.uleb128 .LEHB197-.LFB1114
 4226 0459 3A       		.uleb128 .LEHE197-.LEHB197
 4227 045a FE12     		.uleb128 .L292-.LFB1114
 4228 045c 00       		.uleb128 0
 4229 045d F412     		.uleb128 .LEHB198-.LFB1114
 4230 045f 05       		.uleb128 .LEHE198-.LEHB198
 4231 0460 00       		.uleb128 0
 4232 0461 00       		.uleb128 0
 4233 0462 8C13     		.uleb128 .LEHB199-.LFB1114
 4234 0464 05       		.uleb128 .LEHE199-.LEHB199
 4235 0465 00       		.uleb128 0
 4236 0466 00       		.uleb128 0
 4237 0467 9B13     		.uleb128 .LEHB200-.LFB1114
 4238 0469 3A       		.uleb128 .LEHE200-.LEHB200
 4239 046a DF13     		.uleb128 .L295-.LFB1114
 4240 046c 00       		.uleb128 0
 4241 046d D513     		.uleb128 .LEHB201-.LFB1114
 4242 046f 05       		.uleb128 .LEHE201-.LEHB201
 4243 0470 00       		.uleb128 0
 4244 0471 00       		.uleb128 0
 4245 0472 ED13     		.uleb128 .LEHB202-.LFB1114
 4246 0474 05       		.uleb128 .LEHE202-.LEHB202
 4247 0475 00       		.uleb128 0
 4248 0476 00       		.uleb128 0
 4249 0477 FC13     		.uleb128 .LEHB203-.LFB1114
 4250 0479 3A       		.uleb128 .LEHE203-.LEHB203
 4251 047a C014     		.uleb128 .L298-.LFB1114
 4252 047c 00       		.uleb128 0
 4253 047d B614     		.uleb128 .LEHB204-.LFB1114
 4254 047f 05       		.uleb128 .LEHE204-.LEHB204
 4255 0480 00       		.uleb128 0
 4256 0481 00       		.uleb128 0
 4257 0482 CE14     		.uleb128 .LEHB205-.LFB1114
 4258 0484 05       		.uleb128 .LEHE205-.LEHB205
 4259 0485 00       		.uleb128 0
 4260 0486 00       		.uleb128 0
 4261 0487 DD14     		.uleb128 .LEHB206-.LFB1114
 4262 0489 3A       		.uleb128 .LEHE206-.LEHB206
 4263 048a A115     		.uleb128 .L301-.LFB1114
 4264 048c 00       		.uleb128 0
 4265 048d 9715     		.uleb128 .LEHB207-.LFB1114
 4266 048f 05       		.uleb128 .LEHE207-.LEHB207
 4267 0490 00       		.uleb128 0
 4268 0491 00       		.uleb128 0
 4269 0492 AF15     		.uleb128 .LEHB208-.LFB1114
 4270 0494 05       		.uleb128 .LEHE208-.LEHB208
 4271 0495 00       		.uleb128 0
 4272 0496 00       		.uleb128 0
 4273 0497 BE15     		.uleb128 .LEHB209-.LFB1114
 4274 0499 3A       		.uleb128 .LEHE209-.LEHB209
 4275 049a 8216     		.uleb128 .L304-.LFB1114
 4276 049c 00       		.uleb128 0
 4277 049d F815     		.uleb128 .LEHB210-.LFB1114
 4278 049f 05       		.uleb128 .LEHE210-.LEHB210
 4279 04a0 00       		.uleb128 0
 4280 04a1 00       		.uleb128 0
 4281 04a2 9016     		.uleb128 .LEHB211-.LFB1114
 4282 04a4 05       		.uleb128 .LEHE211-.LEHB211
 4283 04a5 00       		.uleb128 0
 4284 04a6 00       		.uleb128 0
 4285 04a7 9F16     		.uleb128 .LEHB212-.LFB1114
 4286 04a9 3A       		.uleb128 .LEHE212-.LEHB212
 4287 04aa E316     		.uleb128 .L307-.LFB1114
 4288 04ac 00       		.uleb128 0
 4289 04ad D916     		.uleb128 .LEHB213-.LFB1114
 4290 04af 05       		.uleb128 .LEHE213-.LEHB213
 4291 04b0 00       		.uleb128 0
 4292 04b1 00       		.uleb128 0
 4293 04b2 F116     		.uleb128 .LEHB214-.LFB1114
 4294 04b4 05       		.uleb128 .LEHE214-.LEHB214
 4295 04b5 00       		.uleb128 0
 4296 04b6 00       		.uleb128 0
 4297 04b7 8017     		.uleb128 .LEHB215-.LFB1114
 4298 04b9 3A       		.uleb128 .LEHE215-.LEHB215
 4299 04ba C417     		.uleb128 .L310-.LFB1114
 4300 04bc 00       		.uleb128 0
 4301 04bd BA17     		.uleb128 .LEHB216-.LFB1114
 4302 04bf 05       		.uleb128 .LEHE216-.LEHB216
 4303 04c0 00       		.uleb128 0
 4304 04c1 00       		.uleb128 0
 4305 04c2 D217     		.uleb128 .LEHB217-.LFB1114
 4306 04c4 05       		.uleb128 .LEHE217-.LEHB217
 4307 04c5 00       		.uleb128 0
 4308 04c6 00       		.uleb128 0
 4309 04c7 E117     		.uleb128 .LEHB218-.LFB1114
 4310 04c9 3A       		.uleb128 .LEHE218-.LEHB218
 4311 04ca A518     		.uleb128 .L313-.LFB1114
 4312 04cc 00       		.uleb128 0
 4313 04cd 9B18     		.uleb128 .LEHB219-.LFB1114
 4314 04cf 05       		.uleb128 .LEHE219-.LEHB219
 4315 04d0 00       		.uleb128 0
 4316 04d1 00       		.uleb128 0
 4317 04d2 B318     		.uleb128 .LEHB220-.LFB1114
 4318 04d4 05       		.uleb128 .LEHE220-.LEHB220
 4319 04d5 00       		.uleb128 0
 4320 04d6 00       		.uleb128 0
 4321 04d7 C218     		.uleb128 .LEHB221-.LFB1114
 4322 04d9 3A       		.uleb128 .LEHE221-.LEHB221
 4323 04da 8619     		.uleb128 .L316-.LFB1114
 4324 04dc 00       		.uleb128 0
 4325 04dd FC18     		.uleb128 .LEHB222-.LFB1114
 4326 04df 05       		.uleb128 .LEHE222-.LEHB222
 4327 04e0 00       		.uleb128 0
 4328 04e1 00       		.uleb128 0
 4329 04e2 9419     		.uleb128 .LEHB223-.LFB1114
 4330 04e4 05       		.uleb128 .LEHE223-.LEHB223
 4331 04e5 00       		.uleb128 0
 4332 04e6 00       		.uleb128 0
 4333              	.LLSDACSE1114:
 4334 04e7 01       		.byte	0x1
 4335 04e8 00       		.byte	0
 4336 04e9 00       		.byte	0
 4337 04ea 7D       		.byte	0x7d
 4338 04eb 00       		.align 4
 4339 04ec 00000000 		.long	0
 4340              	
 4341              	.LLSDATT1114:
 4342              		.text
 4344              		.section	.rodata
 4345              	.LC25:
 4346 0513 51756575 		.string	"Queue_testPutTake"
 4346      655F7465 
 4346      73745075 
 4346      7454616B 
 4346      6500
 4347              		.section	.text._ZN21TestQueue_testPutTakeC2Ev,"axG",@progbits,_ZN21TestQueue_testPutTakeC5Ev,comda
 4348              		.align 2
 4349              		.weak	_ZN21TestQueue_testPutTakeC2Ev
 4351              	_ZN21TestQueue_testPutTakeC2Ev:
 4352              	.LFB1116:
 165:testCore.cpp  **** 
 166:testCore.cpp  **** TEST(Queue_testPutTake) {
 4353              		.loc 3 166 0
 4354              		.cfi_startproc
 4355 0000 55       		pushq	%rbp
 4356              		.cfi_def_cfa_offset 16
 4357              		.cfi_offset 6, -16
 4358 0001 4889E5   		movq	%rsp, %rbp
 4359              		.cfi_def_cfa_register 6
 4360 0004 53       		pushq	%rbx
 4361 0005 4883EC18 		subq	$24, %rsp
 4362              		.cfi_offset 3, -24
 4363 0009 48897DE8 		movq	%rdi, -24(%rbp)
 4364              	.LBB7:
 4365              		.loc 3 166 0
 4366 000d 488B5DE8 		movq	-24(%rbp), %rbx
 4367 0011 E8000000 		call	_ZN13UnitTestSuite12GetSuiteNameEv
 4367      00
 4368 0016 41B8A600 		movl	$166, %r8d
 4368      0000
 4369 001c 488D0D00 		leaq	.LC1(%rip), %rcx
 4369      000000
 4370 0023 4889C2   		movq	%rax, %rdx
 4371 0026 488D3500 		leaq	.LC25(%rip), %rsi
 4371      000000
 4372 002d 4889DF   		movq	%rbx, %rdi
 4373 0030 E8000000 		call	_ZN8UnitTest4TestC2EPKcS2_S2_i@PLT
 4373      00
 4374 0035 488D1500 		leaq	16+_ZTV21TestQueue_testPutTake(%rip), %rdx
 4374      000000
 4375 003c 488B45E8 		movq	-24(%rbp), %rax
 4376 0040 488910   		movq	%rdx, (%rax)
 4377              	.LBE7:
 4378 0043 90       		nop
 4379 0044 4883C418 		addq	$24, %rsp
 4380 0048 5B       		popq	%rbx
 4381 0049 5D       		popq	%rbp
 4382              		.cfi_def_cfa 7, 8
 4383 004a C3       		ret
 4384              		.cfi_endproc
 4385              	.LFE1116:
 4387              		.weak	_ZN21TestQueue_testPutTakeC1Ev
 4388              		.set	_ZN21TestQueue_testPutTakeC1Ev,_ZN21TestQueue_testPutTakeC2Ev
 4389              		.globl	testQueue_testPutTakeInstance
 4390              		.bss
 4391 00b9 00000000 		.align 32
 4391      000000
 4394              	testQueue_testPutTakeInstance:
 4395 00c0 00000000 		.zero	56
 4395      00000000 
 4395      00000000 
 4395      00000000 
 4395      00000000 
 4396              		.globl	adderQueue_testPutTake
 4399              	adderQueue_testPutTake:
 4400 00f8 00       		.zero	1
 4401              		.section	.rodata
 4402 0525 000000   		.align 8
 4403              	.LC26:
 4404 0528 556E6861 		.string	"Unhandled exception in CHECK_EQUAL(5UL, *item)"
 4404      6E646C65 
 4404      64206578 
 4404      63657074 
 4404      696F6E20 
 4405 0557 00       		.align 8
 4406              	.LC27:
 4407 0558 556E6861 		.string	"Unhandled exception in CHECK_EQUAL(6UL, *item)"
 4407      6E646C65 
 4407      64206578 
 4407      63657074 
 4407      696F6E20 
 4408 0587 00       		.align 8
 4409              	.LC28:
 4410 0588 556E6861 		.string	"Unhandled exception in CHECK_EQUAL(7UL, *item)"
 4410      6E646C65 
 4410      64206578 
 4410      63657074 
 4410      696F6E20 
 4411 05b7 00       		.align 8
 4412              	.LC29:
 4413 05b8 556E6861 		.string	"Unhandled exception in CHECK_EQUAL(8UL, *item)"
 4413      6E646C65 
 4413      64206578 
 4413      63657074 
 4413      696F6E20 
 4414              		.text
 4415              		.align 2
 4416              		.globl	_ZNK21TestQueue_testPutTake7RunImplEv
 4418              	_ZNK21TestQueue_testPutTake7RunImplEv:
 4419              	.LFB1118:
 4420              		.loc 3 166 0
 4421              		.cfi_startproc
 4422              		.cfi_personality 0x9b,DW.ref.__gxx_personality_v0
 4423              		.cfi_lsda 0x1b,.LLSDA1118
 4424 1f18 55       		pushq	%rbp
 4425              		.cfi_def_cfa_offset 16
 4426              		.cfi_offset 6, -16
 4427 1f19 4889E5   		movq	%rsp, %rbp
 4428              		.cfi_def_cfa_register 6
 4429 1f1c 53       		pushq	%rbx
 4430 1f1d 4881EC98 		subq	$152, %rsp
 4430      000000
 4431              		.cfi_offset 3, -24
 4432 1f24 4889BD68 		movq	%rdi, -152(%rbp)
 4432      FFFFFF
 4433              		.loc 3 166 0
 4434 1f2b 64488B04 		movq	%fs:40, %rax
 4434      25280000 
 4434      00
 4435 1f34 488945E8 		movq	%rax, -24(%rbp)
 4436 1f38 31C0     		xorl	%eax, %eax
 167:testCore.cpp  **** 	struct UnboundedQueue queue;
 168:testCore.cpp  **** 	uint32 *item;
 169:testCore.cpp  **** 	m_count = 1;
 4437              		.loc 3 169 0
 4438 1f3a C7050000 		movl	$1, _ZL7m_count(%rip)
 4438      00000100 
 4438      0000
 170:testCore.cpp  **** 
 171:testCore.cpp  **** 	// Create queue
 172:testCore.cpp  **** 	USBStatus status = queueInit(&queue, 4, (CreateFunc)createInt, (DestroyFunc)destroyInt);
 4439              		.loc 3 172 0
 4440 1f44 488D45B0 		leaq	-80(%rbp), %rax
 4441 1f48 488D0D00 		leaq	destroyInt(%rip), %rcx
 4441      000000
 4442 1f4f 488D1500 		leaq	createInt(%rip), %rdx
 4442      000000
 4443 1f56 BE040000 		movl	$4, %esi
 4443      00
 4444 1f5b 4889C7   		movq	%rax, %rdi
 4445              	.LEHB224:
 4446 1f5e E8000000 		call	queueInit@PLT
 4446      00
 4447              	.LEHE224:
 4448 1f63 898578FF 		movl	%eax, -136(%rbp)
 4448      FFFF
 4449              	.LEHB225:
 173:testCore.cpp  **** 	CHECK_EQUAL(USB_SUCCESS, status);
 4450              		.loc 3 173 0
 4451 1f69 E8000000 		call	_ZN8UnitTest11CurrentTest7DetailsEv@PLT
 4451      00
 4452 1f6e 488B08   		movq	(%rax), %rcx
 4453 1f71 488D4590 		leaq	-112(%rbp), %rax
 4454 1f75 BAAD0000 		movl	$173, %edx
 4454      00
 4455 1f7a 4889CE   		movq	%rcx, %rsi
 4456 1f7d 4889C7   		movq	%rax, %rdi
 4457 1f80 E8000000 		call	_ZN8UnitTest11TestDetailsC1ERKS0_i@PLT
 4457      00
 4458              	.LEHE225:
 4459              		.loc 3 173 0 is_stmt 0 discriminator 2
 4460 1f85 C7458800 		movl	$0, -120(%rbp)
 4460      000000
 4461              	.LEHB226:
 4462 1f8c E8000000 		call	_ZN8UnitTest11CurrentTest7ResultsEv@PLT
 4462      00
 4463 1f91 488B00   		movq	(%rax), %rax
 4464 1f94 488D4D90 		leaq	-112(%rbp), %rcx
 4465 1f98 488D9578 		leaq	-136(%rbp), %rdx
 4465      FFFFFF
 4466 1f9f 488D7588 		leaq	-120(%rbp), %rsi
 4467 1fa3 4889C7   		movq	%rax, %rdi
 4468 1fa6 E8000000 		call	_ZN8UnitTest10CheckEqualI9USBStatusS1_EEvRNS_11TestResultsERKT_RKT0_RKNS_11TestDetailsE
 4468      00
 4469              	.LEHE226:
 4470              	.L322:
 174:testCore.cpp  **** 
 175:testCore.cpp  **** 	// Put four items into the queue
 176:testCore.cpp  **** 	status = queuePut(&queue, (Item*)&item);
 4471              		.loc 3 176 0 is_stmt 1
 4472 1fab 488D5580 		leaq	-128(%rbp), %rdx
 4473 1faf 488D45B0 		leaq	-80(%rbp), %rax
 4474 1fb3 4889D6   		movq	%rdx, %rsi
 4475 1fb6 4889C7   		movq	%rax, %rdi
 4476              	.LEHB227:
 4477 1fb9 E8000000 		call	queuePut@PLT
 4477      00
 4478              	.LEHE227:
 4479 1fbe 898578FF 		movl	%eax, -136(%rbp)
 4479      FFFF
 4480              	.LEHB228:
 177:testCore.cpp  **** 	CHECK_EQUAL(USB_SUCCESS, status);
 4481              		.loc 3 177 0
 4482 1fc4 E8000000 		call	_ZN8UnitTest11CurrentTest7DetailsEv@PLT
 4482      00
 4483 1fc9 488B08   		movq	(%rax), %rcx
 4484 1fcc 488D4590 		leaq	-112(%rbp), %rax
 4485 1fd0 BAB10000 		movl	$177, %edx
 4485      00
 4486 1fd5 4889CE   		movq	%rcx, %rsi
 4487 1fd8 4889C7   		movq	%rax, %rdi
 4488 1fdb E8000000 		call	_ZN8UnitTest11TestDetailsC1ERKS0_i@PLT
 4488      00
 4489              	.LEHE228:
 4490              		.loc 3 177 0 is_stmt 0 discriminator 2
 4491 1fe0 C7458800 		movl	$0, -120(%rbp)
 4491      000000
 4492              	.LEHB229:
 4493 1fe7 E8000000 		call	_ZN8UnitTest11CurrentTest7ResultsEv@PLT
 4493      00
 4494 1fec 488B00   		movq	(%rax), %rax
 4495 1fef 488D4D90 		leaq	-112(%rbp), %rcx
 4496 1ff3 488D9578 		leaq	-136(%rbp), %rdx
 4496      FFFFFF
 4497 1ffa 488D7588 		leaq	-120(%rbp), %rsi
 4498 1ffe 4889C7   		movq	%rax, %rdi
 4499 2001 E8000000 		call	_ZN8UnitTest10CheckEqualI9USBStatusS1_EEvRNS_11TestResultsERKT_RKT0_RKNS_11TestDetailsE
 4499      00
 4500              	.LEHE229:
 4501              	.L326:
 4502              	.LEHB230:
 178:testCore.cpp  **** 	CHECK_EQUAL(1UL, *item);
 4503              		.loc 3 178 0 is_stmt 1
 4504 2006 E8000000 		call	_ZN8UnitTest11CurrentTest7DetailsEv@PLT
 4504      00
 4505 200b 488B08   		movq	(%rax), %rcx
 4506 200e 488D4590 		leaq	-112(%rbp), %rax
 4507 2012 BAB20000 		movl	$178, %edx
 4507      00
 4508 2017 4889CE   		movq	%rcx, %rsi
 4509 201a 4889C7   		movq	%rax, %rdi
 4510 201d E8000000 		call	_ZN8UnitTest11TestDetailsC1ERKS0_i@PLT
 4510      00
 4511              	.LEHE230:
 4512              		.loc 3 178 0 is_stmt 0 discriminator 2
 4513 2022 488B5D80 		movq	-128(%rbp), %rbx
 4514 2026 48C74588 		movq	$1, -120(%rbp)
 4514      01000000 
 4515              	.LEHB231:
 4516 202e E8000000 		call	_ZN8UnitTest11CurrentTest7ResultsEv@PLT
 4516      00
 4517 2033 488B00   		movq	(%rax), %rax
 4518 2036 488D5590 		leaq	-112(%rbp), %rdx
 4519 203a 488D7588 		leaq	-120(%rbp), %rsi
 4520 203e 4889D1   		movq	%rdx, %rcx
 4521 2041 4889DA   		movq	%rbx, %rdx
 4522 2044 4889C7   		movq	%rax, %rdi
 4523 2047 E8000000 		call	_ZN8UnitTest10CheckEqualImjEEvRNS_11TestResultsERKT_RKT0_RKNS_11TestDetailsE
 4523      00
 4524              	.LEHE231:
 4525              	.L330:
 179:testCore.cpp  **** 	*item = 5;
 4526              		.loc 3 179 0 is_stmt 1
 4527 204c 488B4580 		movq	-128(%rbp), %rax
 4528 2050 C7000500 		movl	$5, (%rax)
 4528      0000
 180:testCore.cpp  **** 	queueCommitPut(&queue);
 4529              		.loc 3 180 0
 4530 2056 488D45B0 		leaq	-80(%rbp), %rax
 4531 205a 4889C7   		movq	%rax, %rdi
 4532              	.LEHB232:
 4533 205d E8000000 		call	queueCommitPut@PLT
 4533      00
 181:testCore.cpp  **** 	status = queuePut(&queue, (Item*)&item);
 4534              		.loc 3 181 0
 4535 2062 488D5580 		leaq	-128(%rbp), %rdx
 4536 2066 488D45B0 		leaq	-80(%rbp), %rax
 4537 206a 4889D6   		movq	%rdx, %rsi
 4538 206d 4889C7   		movq	%rax, %rdi
 4539 2070 E8000000 		call	queuePut@PLT
 4539      00
 4540              	.LEHE232:
 4541 2075 898578FF 		movl	%eax, -136(%rbp)
 4541      FFFF
 4542              	.LEHB233:
 182:testCore.cpp  **** 	CHECK_EQUAL(USB_SUCCESS, status);
 4543              		.loc 3 182 0
 4544 207b E8000000 		call	_ZN8UnitTest11CurrentTest7DetailsEv@PLT
 4544      00
 4545 2080 488B08   		movq	(%rax), %rcx
 4546 2083 488D4590 		leaq	-112(%rbp), %rax
 4547 2087 BAB60000 		movl	$182, %edx
 4547      00
 4548 208c 4889CE   		movq	%rcx, %rsi
 4549 208f 4889C7   		movq	%rax, %rdi
 4550 2092 E8000000 		call	_ZN8UnitTest11TestDetailsC1ERKS0_i@PLT
 4550      00
 4551              	.LEHE233:
 4552              		.loc 3 182 0 is_stmt 0 discriminator 2
 4553 2097 C7458800 		movl	$0, -120(%rbp)
 4553      000000
 4554              	.LEHB234:
 4555 209e E8000000 		call	_ZN8UnitTest11CurrentTest7ResultsEv@PLT
 4555      00
 4556 20a3 488B00   		movq	(%rax), %rax
 4557 20a6 488D4D90 		leaq	-112(%rbp), %rcx
 4558 20aa 488D9578 		leaq	-136(%rbp), %rdx
 4558      FFFFFF
 4559 20b1 488D7588 		leaq	-120(%rbp), %rsi
 4560 20b5 4889C7   		movq	%rax, %rdi
 4561 20b8 E8000000 		call	_ZN8UnitTest10CheckEqualI9USBStatusS1_EEvRNS_11TestResultsERKT_RKT0_RKNS_11TestDetailsE
 4561      00
 4562              	.LEHE234:
 4563              	.L334:
 4564              	.LEHB235:
 183:testCore.cpp  **** 	CHECK_EQUAL(2UL, *item);
 4565              		.loc 3 183 0 is_stmt 1
 4566 20bd E8000000 		call	_ZN8UnitTest11CurrentTest7DetailsEv@PLT
 4566      00
 4567 20c2 488B08   		movq	(%rax), %rcx
 4568 20c5 488D4590 		leaq	-112(%rbp), %rax
 4569 20c9 BAB70000 		movl	$183, %edx
 4569      00
 4570 20ce 4889CE   		movq	%rcx, %rsi
 4571 20d1 4889C7   		movq	%rax, %rdi
 4572 20d4 E8000000 		call	_ZN8UnitTest11TestDetailsC1ERKS0_i@PLT
 4572      00
 4573              	.LEHE235:
 4574              		.loc 3 183 0 is_stmt 0 discriminator 2
 4575 20d9 488B5D80 		movq	-128(%rbp), %rbx
 4576 20dd 48C74588 		movq	$2, -120(%rbp)
 4576      02000000 
 4577              	.LEHB236:
 4578 20e5 E8000000 		call	_ZN8UnitTest11CurrentTest7ResultsEv@PLT
 4578      00
 4579 20ea 488B00   		movq	(%rax), %rax
 4580 20ed 488D5590 		leaq	-112(%rbp), %rdx
 4581 20f1 488D7588 		leaq	-120(%rbp), %rsi
 4582 20f5 4889D1   		movq	%rdx, %rcx
 4583 20f8 4889DA   		movq	%rbx, %rdx
 4584 20fb 4889C7   		movq	%rax, %rdi
 4585 20fe E8000000 		call	_ZN8UnitTest10CheckEqualImjEEvRNS_11TestResultsERKT_RKT0_RKNS_11TestDetailsE
 4585      00
 4586              	.LEHE236:
 4587              	.L338:
 184:testCore.cpp  **** 	*item = 6;
 4588              		.loc 3 184 0 is_stmt 1
 4589 2103 488B4580 		movq	-128(%rbp), %rax
 4590 2107 C7000600 		movl	$6, (%rax)
 4590      0000
 185:testCore.cpp  **** 	queueCommitPut(&queue);
 4591              		.loc 3 185 0
 4592 210d 488D45B0 		leaq	-80(%rbp), %rax
 4593 2111 4889C7   		movq	%rax, %rdi
 4594              	.LEHB237:
 4595 2114 E8000000 		call	queueCommitPut@PLT
 4595      00
 186:testCore.cpp  **** 	status = queuePut(&queue, (Item*)&item);
 4596              		.loc 3 186 0
 4597 2119 488D5580 		leaq	-128(%rbp), %rdx
 4598 211d 488D45B0 		leaq	-80(%rbp), %rax
 4599 2121 4889D6   		movq	%rdx, %rsi
 4600 2124 4889C7   		movq	%rax, %rdi
 4601 2127 E8000000 		call	queuePut@PLT
 4601      00
 4602              	.LEHE237:
 4603 212c 898578FF 		movl	%eax, -136(%rbp)
 4603      FFFF
 4604              	.LEHB238:
 187:testCore.cpp  **** 	CHECK_EQUAL(USB_SUCCESS, status);
 4605              		.loc 3 187 0
 4606 2132 E8000000 		call	_ZN8UnitTest11CurrentTest7DetailsEv@PLT
 4606      00
 4607 2137 488B08   		movq	(%rax), %rcx
 4608 213a 488D4590 		leaq	-112(%rbp), %rax
 4609 213e BABB0000 		movl	$187, %edx
 4609      00
 4610 2143 4889CE   		movq	%rcx, %rsi
 4611 2146 4889C7   		movq	%rax, %rdi
 4612 2149 E8000000 		call	_ZN8UnitTest11TestDetailsC1ERKS0_i@PLT
 4612      00
 4613              	.LEHE238:
 4614              		.loc 3 187 0 is_stmt 0 discriminator 2
 4615 214e C7458800 		movl	$0, -120(%rbp)
 4615      000000
 4616              	.LEHB239:
 4617 2155 E8000000 		call	_ZN8UnitTest11CurrentTest7ResultsEv@PLT
 4617      00
 4618 215a 488B00   		movq	(%rax), %rax
 4619 215d 488D4D90 		leaq	-112(%rbp), %rcx
 4620 2161 488D9578 		leaq	-136(%rbp), %rdx
 4620      FFFFFF
 4621 2168 488D7588 		leaq	-120(%rbp), %rsi
 4622 216c 4889C7   		movq	%rax, %rdi
 4623 216f E8000000 		call	_ZN8UnitTest10CheckEqualI9USBStatusS1_EEvRNS_11TestResultsERKT_RKT0_RKNS_11TestDetailsE
 4623      00
 4624              	.LEHE239:
 4625              	.L342:
 4626              	.LEHB240:
 188:testCore.cpp  **** 	CHECK_EQUAL(3UL, *item);
 4627              		.loc 3 188 0 is_stmt 1
 4628 2174 E8000000 		call	_ZN8UnitTest11CurrentTest7DetailsEv@PLT
 4628      00
 4629 2179 488B08   		movq	(%rax), %rcx
 4630 217c 488D4590 		leaq	-112(%rbp), %rax
 4631 2180 BABC0000 		movl	$188, %edx
 4631      00
 4632 2185 4889CE   		movq	%rcx, %rsi
 4633 2188 4889C7   		movq	%rax, %rdi
 4634 218b E8000000 		call	_ZN8UnitTest11TestDetailsC1ERKS0_i@PLT
 4634      00
 4635              	.LEHE240:
 4636              		.loc 3 188 0 is_stmt 0 discriminator 2
 4637 2190 488B5D80 		movq	-128(%rbp), %rbx
 4638 2194 48C74588 		movq	$3, -120(%rbp)
 4638      03000000 
 4639              	.LEHB241:
 4640 219c E8000000 		call	_ZN8UnitTest11CurrentTest7ResultsEv@PLT
 4640      00
 4641 21a1 488B00   		movq	(%rax), %rax
 4642 21a4 488D5590 		leaq	-112(%rbp), %rdx
 4643 21a8 488D7588 		leaq	-120(%rbp), %rsi
 4644 21ac 4889D1   		movq	%rdx, %rcx
 4645 21af 4889DA   		movq	%rbx, %rdx
 4646 21b2 4889C7   		movq	%rax, %rdi
 4647 21b5 E8000000 		call	_ZN8UnitTest10CheckEqualImjEEvRNS_11TestResultsERKT_RKT0_RKNS_11TestDetailsE
 4647      00
 4648              	.LEHE241:
 4649              	.L346:
 189:testCore.cpp  **** 	*item = 7;
 4650              		.loc 3 189 0 is_stmt 1
 4651 21ba 488B4580 		movq	-128(%rbp), %rax
 4652 21be C7000700 		movl	$7, (%rax)
 4652      0000
 190:testCore.cpp  **** 	queueCommitPut(&queue);
 4653              		.loc 3 190 0
 4654 21c4 488D45B0 		leaq	-80(%rbp), %rax
 4655 21c8 4889C7   		movq	%rax, %rdi
 4656              	.LEHB242:
 4657 21cb E8000000 		call	queueCommitPut@PLT
 4657      00
 191:testCore.cpp  **** 	status = queuePut(&queue, (Item*)&item);
 4658              		.loc 3 191 0
 4659 21d0 488D5580 		leaq	-128(%rbp), %rdx
 4660 21d4 488D45B0 		leaq	-80(%rbp), %rax
 4661 21d8 4889D6   		movq	%rdx, %rsi
 4662 21db 4889C7   		movq	%rax, %rdi
 4663 21de E8000000 		call	queuePut@PLT
 4663      00
 4664              	.LEHE242:
 4665 21e3 898578FF 		movl	%eax, -136(%rbp)
 4665      FFFF
 4666              	.LEHB243:
 192:testCore.cpp  **** 	CHECK_EQUAL(USB_SUCCESS, status);
 4667              		.loc 3 192 0
 4668 21e9 E8000000 		call	_ZN8UnitTest11CurrentTest7DetailsEv@PLT
 4668      00
 4669 21ee 488B08   		movq	(%rax), %rcx
 4670 21f1 488D4590 		leaq	-112(%rbp), %rax
 4671 21f5 BAC00000 		movl	$192, %edx
 4671      00
 4672 21fa 4889CE   		movq	%rcx, %rsi
 4673 21fd 4889C7   		movq	%rax, %rdi
 4674 2200 E8000000 		call	_ZN8UnitTest11TestDetailsC1ERKS0_i@PLT
 4674      00
 4675              	.LEHE243:
 4676              		.loc 3 192 0 is_stmt 0 discriminator 2
 4677 2205 C7458800 		movl	$0, -120(%rbp)
 4677      000000
 4678              	.LEHB244:
 4679 220c E8000000 		call	_ZN8UnitTest11CurrentTest7ResultsEv@PLT
 4679      00
 4680 2211 488B00   		movq	(%rax), %rax
 4681 2214 488D4D90 		leaq	-112(%rbp), %rcx
 4682 2218 488D9578 		leaq	-136(%rbp), %rdx
 4682      FFFFFF
 4683 221f 488D7588 		leaq	-120(%rbp), %rsi
 4684 2223 4889C7   		movq	%rax, %rdi
 4685 2226 E8000000 		call	_ZN8UnitTest10CheckEqualI9USBStatusS1_EEvRNS_11TestResultsERKT_RKT0_RKNS_11TestDetailsE
 4685      00
 4686              	.LEHE244:
 4687              	.L350:
 4688              	.LEHB245:
 193:testCore.cpp  **** 	CHECK_EQUAL(4UL, *item);
 4689              		.loc 3 193 0 is_stmt 1
 4690 222b E8000000 		call	_ZN8UnitTest11CurrentTest7DetailsEv@PLT
 4690      00
 4691 2230 488B08   		movq	(%rax), %rcx
 4692 2233 488D4590 		leaq	-112(%rbp), %rax
 4693 2237 BAC10000 		movl	$193, %edx
 4693      00
 4694 223c 4889CE   		movq	%rcx, %rsi
 4695 223f 4889C7   		movq	%rax, %rdi
 4696 2242 E8000000 		call	_ZN8UnitTest11TestDetailsC1ERKS0_i@PLT
 4696      00
 4697              	.LEHE245:
 4698              		.loc 3 193 0 is_stmt 0 discriminator 2
 4699 2247 488B5D80 		movq	-128(%rbp), %rbx
 4700 224b 48C74588 		movq	$4, -120(%rbp)
 4700      04000000 
 4701              	.LEHB246:
 4702 2253 E8000000 		call	_ZN8UnitTest11CurrentTest7ResultsEv@PLT
 4702      00
 4703 2258 488B00   		movq	(%rax), %rax
 4704 225b 488D5590 		leaq	-112(%rbp), %rdx
 4705 225f 488D7588 		leaq	-120(%rbp), %rsi
 4706 2263 4889D1   		movq	%rdx, %rcx
 4707 2266 4889DA   		movq	%rbx, %rdx
 4708 2269 4889C7   		movq	%rax, %rdi
 4709 226c E8000000 		call	_ZN8UnitTest10CheckEqualImjEEvRNS_11TestResultsERKT_RKT0_RKNS_11TestDetailsE
 4709      00
 4710              	.LEHE246:
 4711              	.L354:
 194:testCore.cpp  **** 	*item = 8;
 4712              		.loc 3 194 0 is_stmt 1
 4713 2271 488B4580 		movq	-128(%rbp), %rax
 4714 2275 C7000800 		movl	$8, (%rax)
 4714      0000
 195:testCore.cpp  **** 	queueCommitPut(&queue);
 4715              		.loc 3 195 0
 4716 227b 488D45B0 		leaq	-80(%rbp), %rax
 4717 227f 4889C7   		movq	%rax, %rdi
 4718              	.LEHB247:
 4719 2282 E8000000 		call	queueCommitPut@PLT
 4719      00
 196:testCore.cpp  **** 
 197:testCore.cpp  **** 	// Take four items out of the queue
 198:testCore.cpp  **** 	status = queueTake(&queue, (Item*)&item);
 4720              		.loc 3 198 0
 4721 2287 488D5580 		leaq	-128(%rbp), %rdx
 4722 228b 488D45B0 		leaq	-80(%rbp), %rax
 4723 228f 4889D6   		movq	%rdx, %rsi
 4724 2292 4889C7   		movq	%rax, %rdi
 4725 2295 E8000000 		call	queueTake@PLT
 4725      00
 4726              	.LEHE247:
 4727 229a 898578FF 		movl	%eax, -136(%rbp)
 4727      FFFF
 4728              	.LEHB248:
 199:testCore.cpp  **** 	CHECK_EQUAL(USB_SUCCESS, status);
 4729              		.loc 3 199 0
 4730 22a0 E8000000 		call	_ZN8UnitTest11CurrentTest7DetailsEv@PLT
 4730      00
 4731 22a5 488B08   		movq	(%rax), %rcx
 4732 22a8 488D4590 		leaq	-112(%rbp), %rax
 4733 22ac BAC70000 		movl	$199, %edx
 4733      00
 4734 22b1 4889CE   		movq	%rcx, %rsi
 4735 22b4 4889C7   		movq	%rax, %rdi
 4736 22b7 E8000000 		call	_ZN8UnitTest11TestDetailsC1ERKS0_i@PLT
 4736      00
 4737              	.LEHE248:
 4738              		.loc 3 199 0 is_stmt 0 discriminator 2
 4739 22bc C7458800 		movl	$0, -120(%rbp)
 4739      000000
 4740              	.LEHB249:
 4741 22c3 E8000000 		call	_ZN8UnitTest11CurrentTest7ResultsEv@PLT
 4741      00
 4742 22c8 488B00   		movq	(%rax), %rax
 4743 22cb 488D4D90 		leaq	-112(%rbp), %rcx
 4744 22cf 488D9578 		leaq	-136(%rbp), %rdx
 4744      FFFFFF
 4745 22d6 488D7588 		leaq	-120(%rbp), %rsi
 4746 22da 4889C7   		movq	%rax, %rdi
 4747 22dd E8000000 		call	_ZN8UnitTest10CheckEqualI9USBStatusS1_EEvRNS_11TestResultsERKT_RKT0_RKNS_11TestDetailsE
 4747      00
 4748              	.LEHE249:
 4749              	.L358:
 4750              	.LEHB250:
 200:testCore.cpp  **** 	CHECK_EQUAL(5UL, *item);
 4751              		.loc 3 200 0 is_stmt 1
 4752 22e2 E8000000 		call	_ZN8UnitTest11CurrentTest7DetailsEv@PLT
 4752      00
 4753 22e7 488B08   		movq	(%rax), %rcx
 4754 22ea 488D4590 		leaq	-112(%rbp), %rax
 4755 22ee BAC80000 		movl	$200, %edx
 4755      00
 4756 22f3 4889CE   		movq	%rcx, %rsi
 4757 22f6 4889C7   		movq	%rax, %rdi
 4758 22f9 E8000000 		call	_ZN8UnitTest11TestDetailsC1ERKS0_i@PLT
 4758      00
 4759              	.LEHE250:
 4760              		.loc 3 200 0 is_stmt 0 discriminator 2
 4761 22fe 488B5D80 		movq	-128(%rbp), %rbx
 4762 2302 48C74588 		movq	$5, -120(%rbp)
 4762      05000000 
 4763              	.LEHB251:
 4764 230a E8000000 		call	_ZN8UnitTest11CurrentTest7ResultsEv@PLT
 4764      00
 4765 230f 488B00   		movq	(%rax), %rax
 4766 2312 488D5590 		leaq	-112(%rbp), %rdx
 4767 2316 488D7588 		leaq	-120(%rbp), %rsi
 4768 231a 4889D1   		movq	%rdx, %rcx
 4769 231d 4889DA   		movq	%rbx, %rdx
 4770 2320 4889C7   		movq	%rax, %rdi
 4771 2323 E8000000 		call	_ZN8UnitTest10CheckEqualImjEEvRNS_11TestResultsERKT_RKT0_RKNS_11TestDetailsE
 4771      00
 4772              	.LEHE251:
 4773              	.L362:
 201:testCore.cpp  **** 	queueCommitTake(&queue);
 4774              		.loc 3 201 0 is_stmt 1
 4775 2328 488D45B0 		leaq	-80(%rbp), %rax
 4776 232c 4889C7   		movq	%rax, %rdi
 4777              	.LEHB252:
 4778 232f E8000000 		call	queueCommitTake@PLT
 4778      00
 202:testCore.cpp  **** 	status = queueTake(&queue, (Item*)&item);
 4779              		.loc 3 202 0
 4780 2334 488D5580 		leaq	-128(%rbp), %rdx
 4781 2338 488D45B0 		leaq	-80(%rbp), %rax
 4782 233c 4889D6   		movq	%rdx, %rsi
 4783 233f 4889C7   		movq	%rax, %rdi
 4784 2342 E8000000 		call	queueTake@PLT
 4784      00
 4785              	.LEHE252:
 4786 2347 898578FF 		movl	%eax, -136(%rbp)
 4786      FFFF
 4787              	.LEHB253:
 203:testCore.cpp  **** 	CHECK_EQUAL(USB_SUCCESS, status);
 4788              		.loc 3 203 0
 4789 234d E8000000 		call	_ZN8UnitTest11CurrentTest7DetailsEv@PLT
 4789      00
 4790 2352 488B08   		movq	(%rax), %rcx
 4791 2355 488D4590 		leaq	-112(%rbp), %rax
 4792 2359 BACB0000 		movl	$203, %edx
 4792      00
 4793 235e 4889CE   		movq	%rcx, %rsi
 4794 2361 4889C7   		movq	%rax, %rdi
 4795 2364 E8000000 		call	_ZN8UnitTest11TestDetailsC1ERKS0_i@PLT
 4795      00
 4796              	.LEHE253:
 4797              		.loc 3 203 0 is_stmt 0 discriminator 2
 4798 2369 C7458800 		movl	$0, -120(%rbp)
 4798      000000
 4799              	.LEHB254:
 4800 2370 E8000000 		call	_ZN8UnitTest11CurrentTest7ResultsEv@PLT
 4800      00
 4801 2375 488B00   		movq	(%rax), %rax
 4802 2378 488D4D90 		leaq	-112(%rbp), %rcx
 4803 237c 488D9578 		leaq	-136(%rbp), %rdx
 4803      FFFFFF
 4804 2383 488D7588 		leaq	-120(%rbp), %rsi
 4805 2387 4889C7   		movq	%rax, %rdi
 4806 238a E8000000 		call	_ZN8UnitTest10CheckEqualI9USBStatusS1_EEvRNS_11TestResultsERKT_RKT0_RKNS_11TestDetailsE
 4806      00
 4807              	.LEHE254:
 4808              	.L366:
 4809              	.LEHB255:
 204:testCore.cpp  **** 	CHECK_EQUAL(6UL, *item);
 4810              		.loc 3 204 0 is_stmt 1
 4811 238f E8000000 		call	_ZN8UnitTest11CurrentTest7DetailsEv@PLT
 4811      00
 4812 2394 488B08   		movq	(%rax), %rcx
 4813 2397 488D4590 		leaq	-112(%rbp), %rax
 4814 239b BACC0000 		movl	$204, %edx
 4814      00
 4815 23a0 4889CE   		movq	%rcx, %rsi
 4816 23a3 4889C7   		movq	%rax, %rdi
 4817 23a6 E8000000 		call	_ZN8UnitTest11TestDetailsC1ERKS0_i@PLT
 4817      00
 4818              	.LEHE255:
 4819              		.loc 3 204 0 is_stmt 0 discriminator 2
 4820 23ab 488B5D80 		movq	-128(%rbp), %rbx
 4821 23af 48C74588 		movq	$6, -120(%rbp)
 4821      06000000 
 4822              	.LEHB256:
 4823 23b7 E8000000 		call	_ZN8UnitTest11CurrentTest7ResultsEv@PLT
 4823      00
 4824 23bc 488B00   		movq	(%rax), %rax
 4825 23bf 488D5590 		leaq	-112(%rbp), %rdx
 4826 23c3 488D7588 		leaq	-120(%rbp), %rsi
 4827 23c7 4889D1   		movq	%rdx, %rcx
 4828 23ca 4889DA   		movq	%rbx, %rdx
 4829 23cd 4889C7   		movq	%rax, %rdi
 4830 23d0 E8000000 		call	_ZN8UnitTest10CheckEqualImjEEvRNS_11TestResultsERKT_RKT0_RKNS_11TestDetailsE
 4830      00
 4831              	.LEHE256:
 4832              	.L370:
 205:testCore.cpp  **** 	queueCommitTake(&queue);
 4833              		.loc 3 205 0 is_stmt 1
 4834 23d5 488D45B0 		leaq	-80(%rbp), %rax
 4835 23d9 4889C7   		movq	%rax, %rdi
 4836              	.LEHB257:
 4837 23dc E8000000 		call	queueCommitTake@PLT
 4837      00
 206:testCore.cpp  **** 	status = queueTake(&queue, (Item*)&item);
 4838              		.loc 3 206 0
 4839 23e1 488D5580 		leaq	-128(%rbp), %rdx
 4840 23e5 488D45B0 		leaq	-80(%rbp), %rax
 4841 23e9 4889D6   		movq	%rdx, %rsi
 4842 23ec 4889C7   		movq	%rax, %rdi
 4843 23ef E8000000 		call	queueTake@PLT
 4843      00
 4844              	.LEHE257:
 4845 23f4 898578FF 		movl	%eax, -136(%rbp)
 4845      FFFF
 4846              	.LEHB258:
 207:testCore.cpp  **** 	CHECK_EQUAL(USB_SUCCESS, status);
 4847              		.loc 3 207 0
 4848 23fa E8000000 		call	_ZN8UnitTest11CurrentTest7DetailsEv@PLT
 4848      00
 4849 23ff 488B08   		movq	(%rax), %rcx
 4850 2402 488D4590 		leaq	-112(%rbp), %rax
 4851 2406 BACF0000 		movl	$207, %edx
 4851      00
 4852 240b 4889CE   		movq	%rcx, %rsi
 4853 240e 4889C7   		movq	%rax, %rdi
 4854 2411 E8000000 		call	_ZN8UnitTest11TestDetailsC1ERKS0_i@PLT
 4854      00
 4855              	.LEHE258:
 4856              		.loc 3 207 0 is_stmt 0 discriminator 2
 4857 2416 C7458800 		movl	$0, -120(%rbp)
 4857      000000
 4858              	.LEHB259:
 4859 241d E8000000 		call	_ZN8UnitTest11CurrentTest7ResultsEv@PLT
 4859      00
 4860 2422 488B00   		movq	(%rax), %rax
 4861 2425 488D4D90 		leaq	-112(%rbp), %rcx
 4862 2429 488D9578 		leaq	-136(%rbp), %rdx
 4862      FFFFFF
 4863 2430 488D7588 		leaq	-120(%rbp), %rsi
 4864 2434 4889C7   		movq	%rax, %rdi
 4865 2437 E8000000 		call	_ZN8UnitTest10CheckEqualI9USBStatusS1_EEvRNS_11TestResultsERKT_RKT0_RKNS_11TestDetailsE
 4865      00
 4866              	.LEHE259:
 4867              	.L374:
 4868              	.LEHB260:
 208:testCore.cpp  **** 	CHECK_EQUAL(7UL, *item);
 4869              		.loc 3 208 0 is_stmt 1
 4870 243c E8000000 		call	_ZN8UnitTest11CurrentTest7DetailsEv@PLT
 4870      00
 4871 2441 488B08   		movq	(%rax), %rcx
 4872 2444 488D4590 		leaq	-112(%rbp), %rax
 4873 2448 BAD00000 		movl	$208, %edx
 4873      00
 4874 244d 4889CE   		movq	%rcx, %rsi
 4875 2450 4889C7   		movq	%rax, %rdi
 4876 2453 E8000000 		call	_ZN8UnitTest11TestDetailsC1ERKS0_i@PLT
 4876      00
 4877              	.LEHE260:
 4878              		.loc 3 208 0 is_stmt 0 discriminator 2
 4879 2458 488B5D80 		movq	-128(%rbp), %rbx
 4880 245c 48C74588 		movq	$7, -120(%rbp)
 4880      07000000 
 4881              	.LEHB261:
 4882 2464 E8000000 		call	_ZN8UnitTest11CurrentTest7ResultsEv@PLT
 4882      00
 4883 2469 488B00   		movq	(%rax), %rax
 4884 246c 488D5590 		leaq	-112(%rbp), %rdx
 4885 2470 488D7588 		leaq	-120(%rbp), %rsi
 4886 2474 4889D1   		movq	%rdx, %rcx
 4887 2477 4889DA   		movq	%rbx, %rdx
 4888 247a 4889C7   		movq	%rax, %rdi
 4889 247d E8000000 		call	_ZN8UnitTest10CheckEqualImjEEvRNS_11TestResultsERKT_RKT0_RKNS_11TestDetailsE
 4889      00
 4890              	.LEHE261:
 4891              	.L378:
 209:testCore.cpp  **** 	queueCommitTake(&queue);
 4892              		.loc 3 209 0 is_stmt 1
 4893 2482 488D45B0 		leaq	-80(%rbp), %rax
 4894 2486 4889C7   		movq	%rax, %rdi
 4895              	.LEHB262:
 4896 2489 E8000000 		call	queueCommitTake@PLT
 4896      00
 210:testCore.cpp  **** 	status = queueTake(&queue, (Item*)&item);
 4897              		.loc 3 210 0
 4898 248e 488D5580 		leaq	-128(%rbp), %rdx
 4899 2492 488D45B0 		leaq	-80(%rbp), %rax
 4900 2496 4889D6   		movq	%rdx, %rsi
 4901 2499 4889C7   		movq	%rax, %rdi
 4902 249c E8000000 		call	queueTake@PLT
 4902      00
 4903              	.LEHE262:
 4904 24a1 898578FF 		movl	%eax, -136(%rbp)
 4904      FFFF
 4905              	.LEHB263:
 211:testCore.cpp  **** 	CHECK_EQUAL(USB_SUCCESS, status);
 4906              		.loc 3 211 0
 4907 24a7 E8000000 		call	_ZN8UnitTest11CurrentTest7DetailsEv@PLT
 4907      00
 4908 24ac 488B08   		movq	(%rax), %rcx
 4909 24af 488D4590 		leaq	-112(%rbp), %rax
 4910 24b3 BAD30000 		movl	$211, %edx
 4910      00
 4911 24b8 4889CE   		movq	%rcx, %rsi
 4912 24bb 4889C7   		movq	%rax, %rdi
 4913 24be E8000000 		call	_ZN8UnitTest11TestDetailsC1ERKS0_i@PLT
 4913      00
 4914              	.LEHE263:
 4915              		.loc 3 211 0 is_stmt 0 discriminator 2
 4916 24c3 C7458800 		movl	$0, -120(%rbp)
 4916      000000
 4917              	.LEHB264:
 4918 24ca E8000000 		call	_ZN8UnitTest11CurrentTest7ResultsEv@PLT
 4918      00
 4919 24cf 488B00   		movq	(%rax), %rax
 4920 24d2 488D4D90 		leaq	-112(%rbp), %rcx
 4921 24d6 488D9578 		leaq	-136(%rbp), %rdx
 4921      FFFFFF
 4922 24dd 488D7588 		leaq	-120(%rbp), %rsi
 4923 24e1 4889C7   		movq	%rax, %rdi
 4924 24e4 E8000000 		call	_ZN8UnitTest10CheckEqualI9USBStatusS1_EEvRNS_11TestResultsERKT_RKT0_RKNS_11TestDetailsE
 4924      00
 4925              	.LEHE264:
 4926              	.L382:
 4927              	.LEHB265:
 212:testCore.cpp  **** 	CHECK_EQUAL(8UL, *item);
 4928              		.loc 3 212 0 is_stmt 1
 4929 24e9 E8000000 		call	_ZN8UnitTest11CurrentTest7DetailsEv@PLT
 4929      00
 4930 24ee 488B08   		movq	(%rax), %rcx
 4931 24f1 488D4590 		leaq	-112(%rbp), %rax
 4932 24f5 BAD40000 		movl	$212, %edx
 4932      00
 4933 24fa 4889CE   		movq	%rcx, %rsi
 4934 24fd 4889C7   		movq	%rax, %rdi
 4935 2500 E8000000 		call	_ZN8UnitTest11TestDetailsC1ERKS0_i@PLT
 4935      00
 4936              	.LEHE265:
 4937              		.loc 3 212 0 is_stmt 0 discriminator 2
 4938 2505 488B5D80 		movq	-128(%rbp), %rbx
 4939 2509 48C74588 		movq	$8, -120(%rbp)
 4939      08000000 
 4940              	.LEHB266:
 4941 2511 E8000000 		call	_ZN8UnitTest11CurrentTest7ResultsEv@PLT
 4941      00
 4942 2516 488B00   		movq	(%rax), %rax
 4943 2519 488D5590 		leaq	-112(%rbp), %rdx
 4944 251d 488D7588 		leaq	-120(%rbp), %rsi
 4945 2521 4889D1   		movq	%rdx, %rcx
 4946 2524 4889DA   		movq	%rbx, %rdx
 4947 2527 4889C7   		movq	%rax, %rdi
 4948 252a E8000000 		call	_ZN8UnitTest10CheckEqualImjEEvRNS_11TestResultsERKT_RKT0_RKNS_11TestDetailsE
 4948      00
 4949              	.LEHE266:
 4950              	.L386:
 213:testCore.cpp  **** 	queueCommitTake(&queue);
 4951              		.loc 3 213 0 is_stmt 1
 4952 252f 488D45B0 		leaq	-80(%rbp), %rax
 4953 2533 4889C7   		movq	%rax, %rdi
 4954              	.LEHB267:
 4955 2536 E8000000 		call	queueCommitTake@PLT
 4955      00
 4956              	.LEHE267:
 4957              	.LEHB268:
 214:testCore.cpp  **** 
 215:testCore.cpp  **** 	// Verify
 216:testCore.cpp  **** 	CHECK_EQUAL(4UL, queue.capacity);
 4958              		.loc 3 216 0
 4959 253b E8000000 		call	_ZN8UnitTest11CurrentTest7DetailsEv@PLT
 4959      00
 4960 2540 488B08   		movq	(%rax), %rcx
 4961 2543 488D4590 		leaq	-112(%rbp), %rax
 4962 2547 BAD80000 		movl	$216, %edx
 4962      00
 4963 254c 4889CE   		movq	%rcx, %rsi
 4964 254f 4889C7   		movq	%rax, %rdi
 4965 2552 E8000000 		call	_ZN8UnitTest11TestDetailsC1ERKS0_i@PLT
 4965      00
 4966              	.LEHE268:
 4967              		.loc 3 216 0 is_stmt 0 discriminator 2
 4968 2557 48C74588 		movq	$4, -120(%rbp)
 4968      04000000 
 4969              	.LEHB269:
 4970 255f E8000000 		call	_ZN8UnitTest11CurrentTest7ResultsEv@PLT
 4970      00
 4971 2564 488B00   		movq	(%rax), %rax
 4972 2567 488D5590 		leaq	-112(%rbp), %rdx
 4973 256b 488D4DB0 		leaq	-80(%rbp), %rcx
 4974 256f 488D7908 		leaq	8(%rcx), %rdi
 4975 2573 488D7588 		leaq	-120(%rbp), %rsi
 4976 2577 4889D1   		movq	%rdx, %rcx
 4977 257a 4889FA   		movq	%rdi, %rdx
 4978 257d 4889C7   		movq	%rax, %rdi
