   1              		.file	"testCore.cpp"
   2              		.text
   3              	.Ltext0:
   4              		.local	_ZStL8__ioinit
   5              		.comm	_ZStL8__ioinit,1,1
   6              		.section	.rodata
   7              	.LC0:
   8 0000 44656661 		.string	"DefaultSuite"
   8      756C7453 
   8      75697465 
   8      00
   9              		.section	.text._ZN13UnitTestSuite12GetSuiteNameEv,"axG",@progbits,_ZN13UnitTestSuite12GetSuiteName
  10              		.weak	_ZN13UnitTestSuite12GetSuiteNameEv
  12              	_ZN13UnitTestSuite12GetSuiteNameEv:
  13              	.LFB1047:
  14              		.file 1 "/home/gani/eval/20140524/makestuff/libs/libutpp/TestSuite.h"
   1:/home/gani/eval/20140524/makestuff/libs/libutpp/TestSuite.h **** #ifndef UNITTEST_TESTSUITE_H
   2:/home/gani/eval/20140524/makestuff/libs/libutpp/TestSuite.h **** #define UNITTEST_TESTSUITE_H
   3:/home/gani/eval/20140524/makestuff/libs/libutpp/TestSuite.h **** 
   4:/home/gani/eval/20140524/makestuff/libs/libutpp/TestSuite.h **** namespace UnitTestSuite {
   5:/home/gani/eval/20140524/makestuff/libs/libutpp/TestSuite.h **** 
   6:/home/gani/eval/20140524/makestuff/libs/libutpp/TestSuite.h ****     inline char const* GetSuiteName ()
   7:/home/gani/eval/20140524/makestuff/libs/libutpp/TestSuite.h ****     {
  15              		.loc 1 7 0
  16              		.cfi_startproc
  17 0000 55       		pushq	%rbp
  18              		.cfi_def_cfa_offset 16
  19              		.cfi_offset 6, -16
  20 0001 4889E5   		movq	%rsp, %rbp
  21              		.cfi_def_cfa_register 6
   8:/home/gani/eval/20140524/makestuff/libs/libutpp/TestSuite.h ****         return "DefaultSuite";
  22              		.loc 1 8 0
  23 0004 488D0500 		leaq	.LC0(%rip), %rax
  23      000000
   9:/home/gani/eval/20140524/makestuff/libs/libutpp/TestSuite.h ****     }
  24              		.loc 1 9 0
  25 000b 5D       		popq	%rbp
  26              		.cfi_def_cfa 7, 8
  27 000c C3       		ret
  28              		.cfi_endproc
  29              	.LFE1047:
  31              		.section	.text._ZN8UnitTest15MemoryOutStreamC1Ev,"axG",@progbits,_ZN8UnitTest15MemoryOutStreamC1Ev
  32              		.align 2
  33              		.weak	_ZN8UnitTest15MemoryOutStreamC1Ev
  35              	_ZN8UnitTest15MemoryOutStreamC1Ev:
  36              	.LFB1083:
  37              		.file 2 "/home/gani/eval/20140524/makestuff/libs/libutpp/MemoryOutStream.h"
   1:/home/gani/eval/20140524/makestuff/libs/libutpp/MemoryOutStream.h **** #ifndef UNITTEST_MEMORYOUTSTREAM_H
   2:/home/gani/eval/20140524/makestuff/libs/libutpp/MemoryOutStream.h **** #define UNITTEST_MEMORYOUTSTREAM_H
   3:/home/gani/eval/20140524/makestuff/libs/libutpp/MemoryOutStream.h **** 
   4:/home/gani/eval/20140524/makestuff/libs/libutpp/MemoryOutStream.h **** #include "Config.h"
   5:/home/gani/eval/20140524/makestuff/libs/libutpp/MemoryOutStream.h **** 
   6:/home/gani/eval/20140524/makestuff/libs/libutpp/MemoryOutStream.h **** #ifndef UNITTEST_USE_CUSTOM_STREAMS
   7:/home/gani/eval/20140524/makestuff/libs/libutpp/MemoryOutStream.h **** 
   8:/home/gani/eval/20140524/makestuff/libs/libutpp/MemoryOutStream.h **** #include <sstream>
   9:/home/gani/eval/20140524/makestuff/libs/libutpp/MemoryOutStream.h **** 
  10:/home/gani/eval/20140524/makestuff/libs/libutpp/MemoryOutStream.h **** namespace UnitTest
  11:/home/gani/eval/20140524/makestuff/libs/libutpp/MemoryOutStream.h **** {
  12:/home/gani/eval/20140524/makestuff/libs/libutpp/MemoryOutStream.h **** 
  13:/home/gani/eval/20140524/makestuff/libs/libutpp/MemoryOutStream.h **** class MemoryOutStream : public std::ostringstream
  14:/home/gani/eval/20140524/makestuff/libs/libutpp/MemoryOutStream.h **** {
  15:/home/gani/eval/20140524/makestuff/libs/libutpp/MemoryOutStream.h **** public:
  16:/home/gani/eval/20140524/makestuff/libs/libutpp/MemoryOutStream.h ****     MemoryOutStream() {}
  38              		.loc 2 16 0
  39              		.cfi_startproc
  40              		.cfi_personality 0x9b,DW.ref.__gxx_personality_v0
  41              		.cfi_lsda 0x1b,.LLSDA1083
  42 0000 55       		pushq	%rbp
  43              		.cfi_def_cfa_offset 16
  44              		.cfi_offset 6, -16
  45 0001 4889E5   		movq	%rsp, %rbp
  46              		.cfi_def_cfa_register 6
  47 0004 53       		pushq	%rbx
  48 0005 4883EC18 		subq	$24, %rsp
  49              		.cfi_offset 3, -24
  50 0009 48897DE8 		movq	%rdi, -24(%rbp)
  51              	.LBB2:
  52              		.loc 2 16 0
  53 000d 488B45E8 		movq	-24(%rbp), %rax
  54 0011 48059000 		addq	$144, %rax
  54      0000
  55 0017 4889C7   		movq	%rax, %rdi
  56              	.LEHB0:
  57 001a E8000000 		call	_ZNSt9basic_iosIcSt11char_traitsIcEEC2Ev@PLT
  57      00
  58              	.LEHE0:
  59 001f 488B45E8 		movq	-24(%rbp), %rax
  60 0023 488D0D00 		leaq	8+_ZTTN8UnitTest15MemoryOutStreamE(%rip), %rcx
  60      000000
  61 002a BA100000 		movl	$16, %edx
  61      00
  62 002f 4889CE   		movq	%rcx, %rsi
  63 0032 4889C7   		movq	%rax, %rdi
  64              	.LEHB1:
  65 0035 E8000000 		call	_ZNSt7__cxx1119basic_ostringstreamIcSt11char_traitsIcESaIcEEC2ESt13_Ios_Openmode@PLT
  65      00
  66              	.LEHE1:
  67              		.loc 2 16 0 is_stmt 0 discriminator 8
  68 003a 488D1500 		leaq	24+_ZTVN8UnitTest15MemoryOutStreamE(%rip), %rdx
  68      000000
  69 0041 488B45E8 		movq	-24(%rbp), %rax
  70 0045 488910   		movq	%rdx, (%rax)
  71 0048 488B45E8 		movq	-24(%rbp), %rax
  72 004c 488D9090 		leaq	144(%rax), %rdx
  72      000000
  73 0053 488D0500 		leaq	64+_ZTVN8UnitTest15MemoryOutStreamE(%rip), %rax
  73      000000
  74 005a 488902   		movq	%rax, (%rdx)
  75 005d 488B45E8 		movq	-24(%rbp), %rax
  76 0061 4883C070 		addq	$112, %rax
  77 0065 4889C7   		movq	%rax, %rdi
  78              	.LEHB2:
  79 0068 E8000000 		call	_ZNSt7__cxx1112basic_stringIcSt11char_traitsIcESaIcEEC1Ev@PLT
  79      00
  80              	.LEHE2:
  81              	.LBE2:
  82              		.loc 2 16 0
  83 006d EB3B     		jmp	.L9
  84              	.L7:
  85 006f 4889C3   		movq	%rax, %rbx
  86              	.LBB3:
  87 0072 488B45E8 		movq	-24(%rbp), %rax
  88 0076 488D1500 		leaq	8+_ZTTN8UnitTest15MemoryOutStreamE(%rip), %rdx
  88      000000
  89 007d 4889D6   		movq	%rdx, %rsi
  90 0080 4889C7   		movq	%rax, %rdi
  91 0083 E8000000 		call	_ZNSt7__cxx1119basic_ostringstreamIcSt11char_traitsIcESaIcEED2Ev@PLT
  91      00
  92 0088 EB03     		jmp	.L8
  93              	.L6:
  94 008a 4889C3   		movq	%rax, %rbx
  95              	.L8:
  96              		.loc 2 16 0 discriminator 11
  97 008d 488B45E8 		movq	-24(%rbp), %rax
  98 0091 48059000 		addq	$144, %rax
  98      0000
  99 0097 4889C7   		movq	%rax, %rdi
 100 009a E8000000 		call	_ZNSt9basic_iosIcSt11char_traitsIcEED2Ev@PLT
 100      00
 101 009f 4889D8   		movq	%rbx, %rax
 102 00a2 4889C7   		movq	%rax, %rdi
 103              	.LEHB3:
 104 00a5 E8000000 		call	_Unwind_Resume@PLT
 104      00
 105              	.LEHE3:
 106              	.L9:
 107              	.LBE3:
 108              		.loc 2 16 0
 109 00aa 4883C418 		addq	$24, %rsp
 110 00ae 5B       		popq	%rbx
 111 00af 5D       		popq	%rbp
 112              		.cfi_def_cfa 7, 8
 113 00b0 C3       		ret
 114              		.cfi_endproc
 115              	.LFE1083:
 116              		.globl	__gxx_personality_v0
 117              		.section	.gcc_except_table._ZN8UnitTest15MemoryOutStreamC1Ev,"aG",@progbits,_ZN8UnitTest15MemoryOu
 118              	.LLSDA1083:
 119 0000 FF       		.byte	0xff
 120 0001 FF       		.byte	0xff
 121 0002 01       		.byte	0x1
 122 0003 12       		.uleb128 .LLSDACSE1083-.LLSDACSB1083
 123              	.LLSDACSB1083:
 124 0004 1A       		.uleb128 .LEHB0-.LFB1083
 125 0005 05       		.uleb128 .LEHE0-.LEHB0
 126 0006 00       		.uleb128 0
 127 0007 00       		.uleb128 0
 128 0008 35       		.uleb128 .LEHB1-.LFB1083
 129 0009 05       		.uleb128 .LEHE1-.LEHB1
 130 000a 8A01     		.uleb128 .L6-.LFB1083
 131 000c 00       		.uleb128 0
 132 000d 68       		.uleb128 .LEHB2-.LFB1083
 133 000e 05       		.uleb128 .LEHE2-.LEHB2
 134 000f 6F       		.uleb128 .L7-.LFB1083
 135 0010 00       		.uleb128 0
 136 0011 A501     		.uleb128 .LEHB3-.LFB1083
 137 0013 05       		.uleb128 .LEHE3-.LEHB3
 138 0014 00       		.uleb128 0
 139 0015 00       		.uleb128 0
 140              	.LLSDACSE1083:
 141              		.section	.text._ZN8UnitTest15MemoryOutStreamC1Ev,"axG",@progbits,_ZN8UnitTest15MemoryOutStreamC1Ev
 143              		.data
 144              		.align 4
 147              	_ZL7m_count:
 148 0000 01000000 		.long	1
 149              		.local	_ZL11m_allocFree
 150              		.comm	_ZL11m_allocFree,4,4
 151              		.text
 152              		.globl	createInt
 154              	createInt:
 155              	.LFB1100:
 156              		.file 3 "testCore.cpp"
   1:testCore.cpp  **** /*
   2:testCore.cpp  ****  * Copyright (C) 2009-2012 Chris McClelland
   3:testCore.cpp  ****  *
   4:testCore.cpp  ****  * This program is free software: you can redistribute it and/or modify
   5:testCore.cpp  ****  * it under the terms of the GNU Lesser General Public License as published by
   6:testCore.cpp  ****  * the Free Software Foundation, either version 3 of the License, or
   7:testCore.cpp  ****  * (at your option) any later version.
   8:testCore.cpp  ****  *
   9:testCore.cpp  ****  * This program is distributed in the hope that it will be useful,
  10:testCore.cpp  ****  * but WITHOUT ANY WARRANTY; without even the implied warranty of
  11:testCore.cpp  ****  * MERCHANTABILITY or FITNESS FOR A PARTICULAR PURPOSE.  See the
  12:testCore.cpp  ****  * GNU Lesser General Public License for more details.
  13:testCore.cpp  ****  *
  14:testCore.cpp  ****  * You should have received a copy of the GNU Lesser General Public License
  15:testCore.cpp  ****  * along with this program.  If not, see <http://www.gnu.org/licenses/>.
  16:testCore.cpp  ****  */
  17:testCore.cpp  **** #include <iostream>
  18:testCore.cpp  **** #include <cstdlib>
  19:testCore.cpp  **** #include <errno.h>
  20:testCore.cpp  **** #include <UnitTest++.h>
  21:testCore.cpp  **** #include <makestuff.h>
  22:testCore.cpp  **** #include "../unbounded_queue.h"
  23:testCore.cpp  **** 
  24:testCore.cpp  **** using namespace std;
  25:testCore.cpp  **** 
  26:testCore.cpp  **** extern "C" {
  27:testCore.cpp  **** 	static uint32 m_count = 1;
  28:testCore.cpp  **** 	static int m_allocFree = 0;
  29:testCore.cpp  **** 	uint32 *createInt(void) {
 157              		.loc 3 29 0 is_stmt 1
 158              		.cfi_startproc
 159 0000 55       		pushq	%rbp
 160              		.cfi_def_cfa_offset 16
 161              		.cfi_offset 6, -16
 162 0001 4889E5   		movq	%rsp, %rbp
 163              		.cfi_def_cfa_register 6
 164 0004 4883EC10 		subq	$16, %rsp
  30:testCore.cpp  **** 		uint32 *p;
  31:testCore.cpp  **** 		if ( m_count > 8 ) {
 165              		.loc 3 31 0
 166 0008 8B050000 		movl	_ZL7m_count(%rip), %eax
 166      0000
 167 000e 83F808   		cmpl	$8, %eax
 168 0011 7607     		jbe	.L11
  32:testCore.cpp  **** 			return NULL;  // simulate out-of-memory
 169              		.loc 3 32 0
 170 0013 B8000000 		movl	$0, %eax
 170      00
 171 0018 EB3D     		jmp	.L12
 172              	.L11:
  33:testCore.cpp  **** 		}
  34:testCore.cpp  **** 		p = (uint32 *)malloc(sizeof(uint32));
 173              		.loc 3 34 0
 174 001a BF040000 		movl	$4, %edi
 174      00
 175 001f E8000000 		call	malloc@PLT
 175      00
 176 0024 488945F8 		movq	%rax, -8(%rbp)
  35:testCore.cpp  **** 		if ( p ) {
 177              		.loc 3 35 0
 178 0028 48837DF8 		cmpq	$0, -8(%rbp)
 178      00
 179 002d 7415     		je	.L13
  36:testCore.cpp  **** 			*p = m_count++;
 180              		.loc 3 36 0
 181 002f 8B050000 		movl	_ZL7m_count(%rip), %eax
 181      0000
 182 0035 8D5001   		leal	1(%rax), %edx
 183 0038 89150000 		movl	%edx, _ZL7m_count(%rip)
 183      0000
 184 003e 488B55F8 		movq	-8(%rbp), %rdx
 185 0042 8902     		movl	%eax, (%rdx)
 186              	.L13:
  37:testCore.cpp  **** 		}
  38:testCore.cpp  **** 		m_allocFree++;
 187              		.loc 3 38 0
 188 0044 8B050000 		movl	_ZL11m_allocFree(%rip), %eax
 188      0000
 189 004a 83C001   		addl	$1, %eax
 190 004d 89050000 		movl	%eax, _ZL11m_allocFree(%rip)
 190      0000
  39:testCore.cpp  **** 		return p;
 191              		.loc 3 39 0
 192 0053 488B45F8 		movq	-8(%rbp), %rax
 193              	.L12:
  40:testCore.cpp  **** 	}
 194              		.loc 3 40 0
 195 0057 C9       		leave
 196              		.cfi_def_cfa 7, 8
 197 0058 C3       		ret
 198              		.cfi_endproc
 199              	.LFE1100:
 201              		.globl	destroyInt
 203              	destroyInt:
 204              	.LFB1101:
  41:testCore.cpp  **** 	void destroyInt(uint32 *p) {
 205              		.loc 3 41 0
 206              		.cfi_startproc
 207 0059 55       		pushq	%rbp
 208              		.cfi_def_cfa_offset 16
 209              		.cfi_offset 6, -16
 210 005a 4889E5   		movq	%rsp, %rbp
 211              		.cfi_def_cfa_register 6
 212 005d 4883EC10 		subq	$16, %rsp
 213 0061 48897DF8 		movq	%rdi, -8(%rbp)
  42:testCore.cpp  **** 		if ( p ) {
 214              		.loc 3 42 0
 215 0065 48837DF8 		cmpq	$0, -8(%rbp)
 215      00
 216 006a 741B     		je	.L16
  43:testCore.cpp  **** 			m_allocFree--;
 217              		.loc 3 43 0
 218 006c 8B050000 		movl	_ZL11m_allocFree(%rip), %eax
 218      0000
 219 0072 83E801   		subl	$1, %eax
 220 0075 89050000 		movl	%eax, _ZL11m_allocFree(%rip)
 220      0000
  44:testCore.cpp  **** 			free((void*)p);
 221              		.loc 3 44 0
 222 007b 488B45F8 		movq	-8(%rbp), %rax
 223 007f 4889C7   		movq	%rax, %rdi
 224 0082 E8000000 		call	free@PLT
 224      00
 225              	.L16:
  45:testCore.cpp  **** 		}
  46:testCore.cpp  **** 	}
 226              		.loc 3 46 0
 227 0087 90       		nop
 228 0088 C9       		leave
 229              		.cfi_def_cfa 7, 8
 230 0089 C3       		ret
 231              		.cfi_endproc
 232              	.LFE1101:
 235              	_ZL5derefPKv:
 236              	.LFB1102:
  47:testCore.cpp  **** }
  48:testCore.cpp  **** 
  49:testCore.cpp  **** static inline uint32 deref(Item p) {
 237              		.loc 3 49 0
 238              		.cfi_startproc
 239 008a 55       		pushq	%rbp
 240              		.cfi_def_cfa_offset 16
 241              		.cfi_offset 6, -16
 242 008b 4889E5   		movq	%rsp, %rbp
 243              		.cfi_def_cfa_register 6
 244 008e 48897DF8 		movq	%rdi, -8(%rbp)
  50:testCore.cpp  **** 	return *((const uint32 *)p);
 245              		.loc 3 50 0
 246 0092 488B45F8 		movq	-8(%rbp), %rax
 247 0096 8B00     		movl	(%rax), %eax
  51:testCore.cpp  **** }
 248              		.loc 3 51 0
 249 0098 5D       		popq	%rbp
 250              		.cfi_def_cfa 7, 8
 251 0099 C3       		ret
 252              		.cfi_endproc
 253              	.LFE1102:
 255              		.section	.rodata
 256              	.LC1:
 257 000d 74657374 		.string	"testCore.cpp"
 257      436F7265 
 257      2E637070 
 257      00
 258              	.LC2:
 259 001a 51756575 		.string	"Queue_testInit"
 259      655F7465 
 259      7374496E 
 259      697400
 260              		.section	.text._ZN18TestQueue_testInitC2Ev,"axG",@progbits,_ZN18TestQueue_testInitC5Ev,comdat
 261              		.align 2
 262              		.weak	_ZN18TestQueue_testInitC2Ev
 264              	_ZN18TestQueue_testInitC2Ev:
 265              	.LFB1104:
  52:testCore.cpp  **** 
  53:testCore.cpp  **** TEST(Queue_testInit) {
 266              		.loc 3 53 0
 267              		.cfi_startproc
 268 0000 55       		pushq	%rbp
 269              		.cfi_def_cfa_offset 16
 270              		.cfi_offset 6, -16
 271 0001 4889E5   		movq	%rsp, %rbp
 272              		.cfi_def_cfa_register 6
 273 0004 53       		pushq	%rbx
 274 0005 4883EC18 		subq	$24, %rsp
 275              		.cfi_offset 3, -24
 276 0009 48897DE8 		movq	%rdi, -24(%rbp)
 277              	.LBB4:
 278              		.loc 3 53 0
 279 000d 488B5DE8 		movq	-24(%rbp), %rbx
 280 0011 E8000000 		call	_ZN13UnitTestSuite12GetSuiteNameEv
 280      00
 281 0016 41B83500 		movl	$53, %r8d
 281      0000
 282 001c 488D0D00 		leaq	.LC1(%rip), %rcx
 282      000000
 283 0023 4889C2   		movq	%rax, %rdx
 284 0026 488D3500 		leaq	.LC2(%rip), %rsi
 284      000000
 285 002d 4889DF   		movq	%rbx, %rdi
 286 0030 E8000000 		call	_ZN8UnitTest4TestC2EPKcS2_S2_i@PLT
 286      00
 287 0035 488D1500 		leaq	16+_ZTV18TestQueue_testInit(%rip), %rdx
 287      000000
 288 003c 488B45E8 		movq	-24(%rbp), %rax
 289 0040 488910   		movq	%rdx, (%rax)
 290              	.LBE4:
 291 0043 90       		nop
 292 0044 4883C418 		addq	$24, %rsp
 293 0048 5B       		popq	%rbx
 294 0049 5D       		popq	%rbp
 295              		.cfi_def_cfa 7, 8
 296 004a C3       		ret
 297              		.cfi_endproc
 298              	.LFE1104:
 300              		.weak	_ZN18TestQueue_testInitC1Ev
 301              		.set	_ZN18TestQueue_testInitC1Ev,_ZN18TestQueue_testInitC2Ev
 302              		.globl	testQueue_testInitInstance
 303              		.bss
 304              		.align 32
 307              	testQueue_testInitInstance:
 308 0000 00000000 		.zero	56
 308      00000000 
 308      00000000 
 308      00000000 
 308      00000000 
 309              		.globl	adderQueue_testInit
 312              	adderQueue_testInit:
 313 0038 00       		.zero	1
 314              		.section	.rodata
 315 0029 00000000 		.align 8
 315      000000
 316              	.LC3:
 317 0030 556E6861 		.string	"Unhandled exception in CHECK_EQUAL(USB_SUCCESS, status)"
 317      6E646C65 
 317      64206578 
 317      63657074 
 317      696F6E20 
 318              		.align 8
 319              	.LC4:
 320 0068 556E6861 		.string	"Unhandled exception in CHECK_EQUAL(4UL, queue.capacity)"
 320      6E646C65 
 320      64206578 
 320      63657074 
 320      696F6E20 
 321              		.align 8
 322              	.LC5:
 323 00a0 556E6861 		.string	"Unhandled exception in CHECK_EQUAL(0UL, queue.putIndex)"
 323      6E646C65 
 323      64206578 
 323      63657074 
 323      696F6E20 
 324              		.align 8
 325              	.LC6:
 326 00d8 556E6861 		.string	"Unhandled exception in CHECK_EQUAL(0UL, queue.takeIndex)"
 326      6E646C65 
 326      64206578 
 326      63657074 
 326      696F6E20 
 327 0111 00000000 		.align 8
 327      000000
 328              	.LC7:
 329 0118 556E6861 		.string	"Unhandled exception in CHECK_EQUAL(0UL, queue.numItems)"
 329      6E646C65 
 329      64206578 
 329      63657074 
 329      696F6E20 
 330              		.align 8
 331              	.LC8:
 332 0150 556E6861 		.string	"Unhandled exception in CHECK_EQUAL(1UL, deref(queue.itemArray[0]))"
 332      6E646C65 
 332      64206578 
 332      63657074 
 332      696F6E20 
 333 0193 00000000 		.align 8
 333      00
 334              	.LC9:
 335 0198 556E6861 		.string	"Unhandled exception in CHECK_EQUAL(2UL, deref(queue.itemArray[1]))"
 335      6E646C65 
 335      64206578 
 335      63657074 
 335      696F6E20 
 336 01db 00000000 		.align 8
 336      00
 337              	.LC10:
 338 01e0 556E6861 		.string	"Unhandled exception in CHECK_EQUAL(3UL, deref(queue.itemArray[2]))"
 338      6E646C65 
 338      64206578 
 338      63657074 
 338      696F6E20 
 339 0223 00000000 		.align 8
 339      00
 340              	.LC11:
 341 0228 556E6861 		.string	"Unhandled exception in CHECK_EQUAL(4UL, deref(queue.itemArray[3]))"
 341      6E646C65 
 341      64206578 
 341      63657074 
 341      696F6E20 
 342              		.text
 343              		.align 2
 344              		.globl	_ZNK18TestQueue_testInit7RunImplEv
 346              	_ZNK18TestQueue_testInit7RunImplEv:
 347              	.LFB1106:
 348              		.loc 3 53 0
 349              		.cfi_startproc
 350              		.cfi_personality 0x9b,DW.ref.__gxx_personality_v0
 351              		.cfi_lsda 0x1b,.LLSDA1106
 352 009a 55       		pushq	%rbp
 353              		.cfi_def_cfa_offset 16
 354              		.cfi_offset 6, -16
 355 009b 4889E5   		movq	%rsp, %rbp
 356              		.cfi_def_cfa_register 6
 357 009e 53       		pushq	%rbx
 358 009f 4881EC88 		subq	$136, %rsp
 358      000000
 359              		.cfi_offset 3, -24
 360 00a6 4889BD78 		movq	%rdi, -136(%rbp)
 360      FFFFFF
 361              		.loc 3 53 0
 362 00ad 64488B04 		movq	%fs:40, %rax
 362      25280000 
 362      00
 363 00b6 488945E8 		movq	%rax, -24(%rbp)
 364 00ba 31C0     		xorl	%eax, %eax
  54:testCore.cpp  **** 	struct UnboundedQueue queue;
  55:testCore.cpp  **** 	m_count = 1;
 365              		.loc 3 55 0
 366 00bc C7050000 		movl	$1, _ZL7m_count(%rip)
 366      00000100 
 366      0000
  56:testCore.cpp  **** 
  57:testCore.cpp  **** 	// Create queue
  58:testCore.cpp  **** 	USBStatus status = queueInit(&queue, 4, (CreateFunc)createInt, (DestroyFunc)destroyInt);
 367              		.loc 3 58 0
 368 00c6 488D45B0 		leaq	-80(%rbp), %rax
 369 00ca 488D0D00 		leaq	destroyInt(%rip), %rcx
 369      000000
 370 00d1 488D1500 		leaq	createInt(%rip), %rdx
 370      000000
 371 00d8 BE040000 		movl	$4, %esi
 371      00
 372 00dd 4889C7   		movq	%rax, %rdi
 373              	.LEHB4:
 374 00e0 E8000000 		call	queueInit@PLT
 374      00
 375              	.LEHE4:
 376 00e5 894580   		movl	%eax, -128(%rbp)
 377              	.LEHB5:
  59:testCore.cpp  **** 	CHECK_EQUAL(USB_SUCCESS, status);
 378              		.loc 3 59 0
 379 00e8 E8000000 		call	_ZN8UnitTest11CurrentTest7DetailsEv@PLT
 379      00
 380 00ed 488B08   		movq	(%rax), %rcx
 381 00f0 488D4590 		leaq	-112(%rbp), %rax
 382 00f4 BA3B0000 		movl	$59, %edx
 382      00
 383 00f9 4889CE   		movq	%rcx, %rsi
 384 00fc 4889C7   		movq	%rax, %rdi
 385 00ff E8000000 		call	_ZN8UnitTest11TestDetailsC1ERKS0_i@PLT
 385      00
 386              	.LEHE5:
 387              		.loc 3 59 0 is_stmt 0 discriminator 2
 388 0104 C7458800 		movl	$0, -120(%rbp)
 388      000000
 389              	.LEHB6:
 390 010b E8000000 		call	_ZN8UnitTest11CurrentTest7ResultsEv@PLT
 390      00
 391 0110 488B00   		movq	(%rax), %rax
 392 0113 488D4D90 		leaq	-112(%rbp), %rcx
 393 0117 488D5580 		leaq	-128(%rbp), %rdx
 394 011b 488D7588 		leaq	-120(%rbp), %rsi
 395 011f 4889C7   		movq	%rax, %rdi
 396 0122 E8000000 		call	_ZN8UnitTest10CheckEqualI9USBStatusS1_EEvRNS_11TestResultsERKT_RKT0_RKNS_11TestDetailsE
 396      00
 397              	.LEHE6:
 398              	.L23:
 399              	.LEHB7:
  60:testCore.cpp  **** 
  61:testCore.cpp  **** 	// Verify
  62:testCore.cpp  **** 	CHECK_EQUAL(4UL, queue.capacity);
 400              		.loc 3 62 0 is_stmt 1
 401 0127 E8000000 		call	_ZN8UnitTest11CurrentTest7DetailsEv@PLT
 401      00
 402 012c 488B08   		movq	(%rax), %rcx
 403 012f 488D4590 		leaq	-112(%rbp), %rax
 404 0133 BA3E0000 		movl	$62, %edx
 404      00
 405 0138 4889CE   		movq	%rcx, %rsi
 406 013b 4889C7   		movq	%rax, %rdi
 407 013e E8000000 		call	_ZN8UnitTest11TestDetailsC1ERKS0_i@PLT
 407      00
 408              	.LEHE7:
 409              		.loc 3 62 0 is_stmt 0 discriminator 2
 410 0143 48C74588 		movq	$4, -120(%rbp)
 410      04000000 
 411              	.LEHB8:
 412 014b E8000000 		call	_ZN8UnitTest11CurrentTest7ResultsEv@PLT
 412      00
 413 0150 488B00   		movq	(%rax), %rax
 414 0153 488D5590 		leaq	-112(%rbp), %rdx
 415 0157 488D4DB0 		leaq	-80(%rbp), %rcx
 416 015b 488D7908 		leaq	8(%rcx), %rdi
 417 015f 488D7588 		leaq	-120(%rbp), %rsi
 418 0163 4889D1   		movq	%rdx, %rcx
 419 0166 4889FA   		movq	%rdi, %rdx
 420 0169 4889C7   		movq	%rax, %rdi
 421 016c E8000000 		call	_ZN8UnitTest10CheckEqualImmEEvRNS_11TestResultsERKT_RKT0_RKNS_11TestDetailsE
 421      00
 422              	.LEHE8:
 423              	.L27:
 424              	.LEHB9:
  63:testCore.cpp  **** 	CHECK_EQUAL(0UL, queue.putIndex);
 425              		.loc 3 63 0 is_stmt 1
 426 0171 E8000000 		call	_ZN8UnitTest11CurrentTest7DetailsEv@PLT
 426      00
 427 0176 488B08   		movq	(%rax), %rcx
 428 0179 488D4590 		leaq	-112(%rbp), %rax
 429 017d BA3F0000 		movl	$63, %edx
 429      00
 430 0182 4889CE   		movq	%rcx, %rsi
 431 0185 4889C7   		movq	%rax, %rdi
 432 0188 E8000000 		call	_ZN8UnitTest11TestDetailsC1ERKS0_i@PLT
 432      00
 433              	.LEHE9:
 434              		.loc 3 63 0 is_stmt 0 discriminator 2
 435 018d 48C74588 		movq	$0, -120(%rbp)
 435      00000000 
 436              	.LEHB10:
 437 0195 E8000000 		call	_ZN8UnitTest11CurrentTest7ResultsEv@PLT
 437      00
 438 019a 488B00   		movq	(%rax), %rax
 439 019d 488D5590 		leaq	-112(%rbp), %rdx
 440 01a1 488D4DB0 		leaq	-80(%rbp), %rcx
 441 01a5 488D7910 		leaq	16(%rcx), %rdi
 442 01a9 488D7588 		leaq	-120(%rbp), %rsi
 443 01ad 4889D1   		movq	%rdx, %rcx
 444 01b0 4889FA   		movq	%rdi, %rdx
 445 01b3 4889C7   		movq	%rax, %rdi
 446 01b6 E8000000 		call	_ZN8UnitTest10CheckEqualImmEEvRNS_11TestResultsERKT_RKT0_RKNS_11TestDetailsE
 446      00
 447              	.LEHE10:
 448              	.L31:
 449              	.LEHB11:
  64:testCore.cpp  **** 	CHECK_EQUAL(0UL, queue.takeIndex);
 450              		.loc 3 64 0 is_stmt 1
 451 01bb E8000000 		call	_ZN8UnitTest11CurrentTest7DetailsEv@PLT
 451      00
 452 01c0 488B08   		movq	(%rax), %rcx
 453 01c3 488D4590 		leaq	-112(%rbp), %rax
 454 01c7 BA400000 		movl	$64, %edx
 454      00
 455 01cc 4889CE   		movq	%rcx, %rsi
 456 01cf 4889C7   		movq	%rax, %rdi
 457 01d2 E8000000 		call	_ZN8UnitTest11TestDetailsC1ERKS0_i@PLT
 457      00
 458              	.LEHE11:
 459              		.loc 3 64 0 is_stmt 0 discriminator 2
 460 01d7 48C74588 		movq	$0, -120(%rbp)
 460      00000000 
 461              	.LEHB12:
 462 01df E8000000 		call	_ZN8UnitTest11CurrentTest7ResultsEv@PLT
 462      00
 463 01e4 488B00   		movq	(%rax), %rax
 464 01e7 488D5590 		leaq	-112(%rbp), %rdx
 465 01eb 488D4DB0 		leaq	-80(%rbp), %rcx
 466 01ef 488D7918 		leaq	24(%rcx), %rdi
 467 01f3 488D7588 		leaq	-120(%rbp), %rsi
 468 01f7 4889D1   		movq	%rdx, %rcx
 469 01fa 4889FA   		movq	%rdi, %rdx
 470 01fd 4889C7   		movq	%rax, %rdi
 471 0200 E8000000 		call	_ZN8UnitTest10CheckEqualImmEEvRNS_11TestResultsERKT_RKT0_RKNS_11TestDetailsE
 471      00
 472              	.LEHE12:
 473              	.L35:
 474              	.LEHB13:
  65:testCore.cpp  **** 	CHECK_EQUAL(0UL, queue.numItems);
 475              		.loc 3 65 0 is_stmt 1
 476 0205 E8000000 		call	_ZN8UnitTest11CurrentTest7DetailsEv@PLT
 476      00
 477 020a 488B08   		movq	(%rax), %rcx
 478 020d 488D4590 		leaq	-112(%rbp), %rax
 479 0211 BA410000 		movl	$65, %edx
 479      00
 480 0216 4889CE   		movq	%rcx, %rsi
 481 0219 4889C7   		movq	%rax, %rdi
 482 021c E8000000 		call	_ZN8UnitTest11TestDetailsC1ERKS0_i@PLT
 482      00
 483              	.LEHE13:
 484              		.loc 3 65 0 is_stmt 0 discriminator 2
 485 0221 48C74588 		movq	$0, -120(%rbp)
 485      00000000 
 486              	.LEHB14:
 487 0229 E8000000 		call	_ZN8UnitTest11CurrentTest7ResultsEv@PLT
 487      00
 488 022e 488B00   		movq	(%rax), %rax
 489 0231 488D5590 		leaq	-112(%rbp), %rdx
 490 0235 488D4DB0 		leaq	-80(%rbp), %rcx
 491 0239 488D7920 		leaq	32(%rcx), %rdi
 492 023d 488D7588 		leaq	-120(%rbp), %rsi
 493 0241 4889D1   		movq	%rdx, %rcx
 494 0244 4889FA   		movq	%rdi, %rdx
 495 0247 4889C7   		movq	%rax, %rdi
 496 024a E8000000 		call	_ZN8UnitTest10CheckEqualImmEEvRNS_11TestResultsERKT_RKT0_RKNS_11TestDetailsE
 496      00
 497              	.LEHE14:
 498              	.L39:
 499              	.LEHB15:
  66:testCore.cpp  **** 
  67:testCore.cpp  **** 	// Verify array
  68:testCore.cpp  **** 	CHECK_EQUAL(1UL, deref(queue.itemArray[0]));
 500              		.loc 3 68 0 is_stmt 1
 501 024f E8000000 		call	_ZN8UnitTest11CurrentTest7DetailsEv@PLT
 501      00
 502 0254 488B08   		movq	(%rax), %rcx
 503 0257 488D4590 		leaq	-112(%rbp), %rax
 504 025b BA440000 		movl	$68, %edx
 504      00
 505 0260 4889CE   		movq	%rcx, %rsi
 506 0263 4889C7   		movq	%rax, %rdi
 507 0266 E8000000 		call	_ZN8UnitTest11TestDetailsC1ERKS0_i@PLT
 507      00
 508              	.LEHE15:
 509              		.loc 3 68 0 is_stmt 0 discriminator 2
 510 026b 488B45B0 		movq	-80(%rbp), %rax
 511 026f 488B00   		movq	(%rax), %rax
 512 0272 4889C7   		movq	%rax, %rdi
 513 0275 E810FEFF 		call	_ZL5derefPKv
 513      FF
 514 027a 894584   		movl	%eax, -124(%rbp)
 515 027d 48C74588 		movq	$1, -120(%rbp)
 515      01000000 
 516              	.LEHB16:
 517 0285 E8000000 		call	_ZN8UnitTest11CurrentTest7ResultsEv@PLT
 517      00
 518 028a 488B00   		movq	(%rax), %rax
 519 028d 488D4D90 		leaq	-112(%rbp), %rcx
 520 0291 488D5584 		leaq	-124(%rbp), %rdx
 521 0295 488D7588 		leaq	-120(%rbp), %rsi
 522 0299 4889C7   		movq	%rax, %rdi
 523 029c E8000000 		call	_ZN8UnitTest10CheckEqualImjEEvRNS_11TestResultsERKT_RKT0_RKNS_11TestDetailsE
 523      00
 524              	.LEHE16:
 525              	.L43:
 526              	.LEHB17:
  69:testCore.cpp  **** 	CHECK_EQUAL(2UL, deref(queue.itemArray[1]));
 527              		.loc 3 69 0 is_stmt 1
 528 02a1 E8000000 		call	_ZN8UnitTest11CurrentTest7DetailsEv@PLT
 528      00
 529 02a6 488B08   		movq	(%rax), %rcx
 530 02a9 488D4590 		leaq	-112(%rbp), %rax
 531 02ad BA450000 		movl	$69, %edx
 531      00
 532 02b2 4889CE   		movq	%rcx, %rsi
 533 02b5 4889C7   		movq	%rax, %rdi
 534 02b8 E8000000 		call	_ZN8UnitTest11TestDetailsC1ERKS0_i@PLT
 534      00
 535              	.LEHE17:
 536              		.loc 3 69 0 is_stmt 0 discriminator 2
 537 02bd 488B45B0 		movq	-80(%rbp), %rax
 538 02c1 4883C008 		addq	$8, %rax
 539 02c5 488B00   		movq	(%rax), %rax
 540 02c8 4889C7   		movq	%rax, %rdi
 541 02cb E8BAFDFF 		call	_ZL5derefPKv
 541      FF
 542 02d0 894584   		movl	%eax, -124(%rbp)
 543 02d3 48C74588 		movq	$2, -120(%rbp)
 543      02000000 
 544              	.LEHB18:
 545 02db E8000000 		call	_ZN8UnitTest11CurrentTest7ResultsEv@PLT
 545      00
 546 02e0 488B00   		movq	(%rax), %rax
 547 02e3 488D4D90 		leaq	-112(%rbp), %rcx
 548 02e7 488D5584 		leaq	-124(%rbp), %rdx
 549 02eb 488D7588 		leaq	-120(%rbp), %rsi
 550 02ef 4889C7   		movq	%rax, %rdi
 551 02f2 E8000000 		call	_ZN8UnitTest10CheckEqualImjEEvRNS_11TestResultsERKT_RKT0_RKNS_11TestDetailsE
 551      00
 552              	.LEHE18:
 553              	.L47:
 554              	.LEHB19:
  70:testCore.cpp  **** 	CHECK_EQUAL(3UL, deref(queue.itemArray[2]));
 555              		.loc 3 70 0 is_stmt 1
 556 02f7 E8000000 		call	_ZN8UnitTest11CurrentTest7DetailsEv@PLT
 556      00
 557 02fc 488B08   		movq	(%rax), %rcx
 558 02ff 488D4590 		leaq	-112(%rbp), %rax
 559 0303 BA460000 		movl	$70, %edx
 559      00
 560 0308 4889CE   		movq	%rcx, %rsi
 561 030b 4889C7   		movq	%rax, %rdi
 562 030e E8000000 		call	_ZN8UnitTest11TestDetailsC1ERKS0_i@PLT
 562      00
 563              	.LEHE19:
 564              		.loc 3 70 0 is_stmt 0 discriminator 2
 565 0313 488B45B0 		movq	-80(%rbp), %rax
 566 0317 4883C010 		addq	$16, %rax
 567 031b 488B00   		movq	(%rax), %rax
 568 031e 4889C7   		movq	%rax, %rdi
 569 0321 E864FDFF 		call	_ZL5derefPKv
 569      FF
 570 0326 894584   		movl	%eax, -124(%rbp)
 571 0329 48C74588 		movq	$3, -120(%rbp)
 571      03000000 
 572              	.LEHB20:
 573 0331 E8000000 		call	_ZN8UnitTest11CurrentTest7ResultsEv@PLT
 573      00
 574 0336 488B00   		movq	(%rax), %rax
 575 0339 488D4D90 		leaq	-112(%rbp), %rcx
 576 033d 488D5584 		leaq	-124(%rbp), %rdx
 577 0341 488D7588 		leaq	-120(%rbp), %rsi
 578 0345 4889C7   		movq	%rax, %rdi
 579 0348 E8000000 		call	_ZN8UnitTest10CheckEqualImjEEvRNS_11TestResultsERKT_RKT0_RKNS_11TestDetailsE
 579      00
 580              	.LEHE20:
 581              	.L51:
 582              	.LEHB21:
  71:testCore.cpp  **** 	CHECK_EQUAL(4UL, deref(queue.itemArray[3]));
 583              		.loc 3 71 0 is_stmt 1
 584 034d E8000000 		call	_ZN8UnitTest11CurrentTest7DetailsEv@PLT
 584      00
 585 0352 488B08   		movq	(%rax), %rcx
 586 0355 488D4590 		leaq	-112(%rbp), %rax
 587 0359 BA470000 		movl	$71, %edx
 587      00
 588 035e 4889CE   		movq	%rcx, %rsi
 589 0361 4889C7   		movq	%rax, %rdi
 590 0364 E8000000 		call	_ZN8UnitTest11TestDetailsC1ERKS0_i@PLT
 590      00
 591              	.LEHE21:
 592              		.loc 3 71 0 is_stmt 0 discriminator 2
 593 0369 488B45B0 		movq	-80(%rbp), %rax
 594 036d 4883C018 		addq	$24, %rax
 595 0371 488B00   		movq	(%rax), %rax
 596 0374 4889C7   		movq	%rax, %rdi
 597 0377 E80EFDFF 		call	_ZL5derefPKv
 597      FF
 598 037c 894584   		movl	%eax, -124(%rbp)
 599 037f 48C74588 		movq	$4, -120(%rbp)
 599      04000000 
 600              	.LEHB22:
 601 0387 E8000000 		call	_ZN8UnitTest11CurrentTest7ResultsEv@PLT
 601      00
 602 038c 488B00   		movq	(%rax), %rax
 603 038f 488D4D90 		leaq	-112(%rbp), %rcx
 604 0393 488D5584 		leaq	-124(%rbp), %rdx
 605 0397 488D7588 		leaq	-120(%rbp), %rsi
 606 039b 4889C7   		movq	%rax, %rdi
 607 039e E8000000 		call	_ZN8UnitTest10CheckEqualImjEEvRNS_11TestResultsERKT_RKT0_RKNS_11TestDetailsE
 607      00
 608              	.LEHE22:
 609              	.L55:
  72:testCore.cpp  **** 
  73:testCore.cpp  **** 	// Clean up
  74:testCore.cpp  **** 	queueDestroy(&queue);
 610              		.loc 3 74 0 is_stmt 1
 611 03a3 488D45B0 		leaq	-80(%rbp), %rax
 612 03a7 4889C7   		movq	%rax, %rdi
 613              	.LEHB23:
 614 03aa E8000000 		call	queueDestroy@PLT
 614      00
 615              	.LEHE23:
  75:testCore.cpp  **** }
 616              		.loc 3 75 0
 617 03af 90       		nop
 618 03b0 488B45E8 		movq	-24(%rbp), %rax
 619 03b4 64483304 		xorq	%fs:40, %rax
 619      25280000 
 619      00
 620 03bd 0F847303 		je	.L57
 620      0000
 621 03c3 E9690300 		jmp	.L85
 621      00
 622              	.L59:
 623 03c8 EB00     		jmp	.L22
 624              	.L58:
 625              	.L22:
  59:testCore.cpp  **** 
 626              		.loc 3 59 0
 627 03ca 4889C7   		movq	%rax, %rdi
 628 03cd E8000000 		call	__cxa_begin_catch@PLT
 628      00
 629              	.LEHB24:
 630 03d2 E8000000 		call	_ZN8UnitTest11CurrentTest7ResultsEv@PLT
 630      00
 631 03d7 488B18   		movq	(%rax), %rbx
 632 03da E8000000 		call	_ZN8UnitTest11CurrentTest7DetailsEv@PLT
 632      00
  59:testCore.cpp  **** 
 633              		.loc 3 59 0 is_stmt 0 discriminator 8
 634 03df 488B08   		movq	(%rax), %rcx
 635 03e2 488D4590 		leaq	-112(%rbp), %rax
 636 03e6 BA3B0000 		movl	$59, %edx
 636      00
 637 03eb 4889CE   		movq	%rcx, %rsi
 638 03ee 4889C7   		movq	%rax, %rdi
 639 03f1 E8000000 		call	_ZN8UnitTest11TestDetailsC1ERKS0_i@PLT
 639      00
  59:testCore.cpp  **** 
 640              		.loc 3 59 0 discriminator 12
 641 03f6 488D4590 		leaq	-112(%rbp), %rax
 642 03fa 488D1500 		leaq	.LC3(%rip), %rdx
 642      000000
 643 0401 4889C6   		movq	%rax, %rsi
 644 0404 4889DF   		movq	%rbx, %rdi
 645 0407 E8000000 		call	_ZN8UnitTest11TestResults13OnTestFailureERKNS_11TestDetailsEPKc@PLT
 645      00
 646              	.LEHE24:
 647              	.LEHB25:
  59:testCore.cpp  **** 
 648              		.loc 3 59 0 discriminator 14
 649 040c E8000000 		call	__cxa_end_catch@PLT
 649      00
 650              	.LEHE25:
 651 0411 E911FDFF 		jmp	.L23
 651      FF
 652              	.L60:
 653 0416 4889C3   		movq	%rax, %rbx
  59:testCore.cpp  **** 
 654              		.loc 3 59 0
 655 0419 E8000000 		call	__cxa_end_catch@PLT
 655      00
 656 041e 4889D8   		movq	%rbx, %rax
 657 0421 4889C7   		movq	%rax, %rdi
 658              	.LEHB26:
 659 0424 E8000000 		call	_Unwind_Resume@PLT
 659      00
 660              	.LEHE26:
 661              	.L62:
 662 0429 EB00     		jmp	.L26
 663              	.L61:
 664              	.L26:
  62:testCore.cpp  **** 	CHECK_EQUAL(0UL, queue.putIndex);
 665              		.loc 3 62 0 is_stmt 1
 666 042b 4889C7   		movq	%rax, %rdi
 667 042e E8000000 		call	__cxa_begin_catch@PLT
 667      00
 668              	.LEHB27:
 669 0433 E8000000 		call	_ZN8UnitTest11CurrentTest7ResultsEv@PLT
 669      00
 670 0438 488B18   		movq	(%rax), %rbx
 671 043b E8000000 		call	_ZN8UnitTest11CurrentTest7DetailsEv@PLT
 671      00
  62:testCore.cpp  **** 	CHECK_EQUAL(0UL, queue.putIndex);
 672              		.loc 3 62 0 is_stmt 0 discriminator 8
 673 0440 488B08   		movq	(%rax), %rcx
 674 0443 488D4590 		leaq	-112(%rbp), %rax
 675 0447 BA3E0000 		movl	$62, %edx
 675      00
 676 044c 4889CE   		movq	%rcx, %rsi
 677 044f 4889C7   		movq	%rax, %rdi
 678 0452 E8000000 		call	_ZN8UnitTest11TestDetailsC1ERKS0_i@PLT
 678      00
  62:testCore.cpp  **** 	CHECK_EQUAL(0UL, queue.putIndex);
 679              		.loc 3 62 0 discriminator 12
 680 0457 488D4590 		leaq	-112(%rbp), %rax
 681 045b 488D1500 		leaq	.LC4(%rip), %rdx
 681      000000
 682 0462 4889C6   		movq	%rax, %rsi
 683 0465 4889DF   		movq	%rbx, %rdi
 684 0468 E8000000 		call	_ZN8UnitTest11TestResults13OnTestFailureERKNS_11TestDetailsEPKc@PLT
 684      00
 685              	.LEHE27:
 686              	.LEHB28:
  62:testCore.cpp  **** 	CHECK_EQUAL(0UL, queue.putIndex);
 687              		.loc 3 62 0 discriminator 14
 688 046d E8000000 		call	__cxa_end_catch@PLT
 688      00
 689              	.LEHE28:
 690 0472 E9FAFCFF 		jmp	.L27
 690      FF
 691              	.L63:
 692 0477 4889C3   		movq	%rax, %rbx
  62:testCore.cpp  **** 	CHECK_EQUAL(0UL, queue.putIndex);
 693              		.loc 3 62 0
 694 047a E8000000 		call	__cxa_end_catch@PLT
 694      00
 695 047f 4889D8   		movq	%rbx, %rax
 696 0482 4889C7   		movq	%rax, %rdi
 697              	.LEHB29:
 698 0485 E8000000 		call	_Unwind_Resume@PLT
 698      00
 699              	.LEHE29:
 700              	.L65:
 701 048a EB00     		jmp	.L30
 702              	.L64:
 703              	.L30:
  63:testCore.cpp  **** 	CHECK_EQUAL(0UL, queue.takeIndex);
 704              		.loc 3 63 0 is_stmt 1
 705 048c 4889C7   		movq	%rax, %rdi
 706 048f E8000000 		call	__cxa_begin_catch@PLT
 706      00
 707              	.LEHB30:
 708 0494 E8000000 		call	_ZN8UnitTest11CurrentTest7ResultsEv@PLT
 708      00
 709 0499 488B18   		movq	(%rax), %rbx
 710 049c E8000000 		call	_ZN8UnitTest11CurrentTest7DetailsEv@PLT
 710      00
  63:testCore.cpp  **** 	CHECK_EQUAL(0UL, queue.takeIndex);
 711              		.loc 3 63 0 is_stmt 0 discriminator 8
 712 04a1 488B08   		movq	(%rax), %rcx
 713 04a4 488D4590 		leaq	-112(%rbp), %rax
 714 04a8 BA3F0000 		movl	$63, %edx
 714      00
 715 04ad 4889CE   		movq	%rcx, %rsi
 716 04b0 4889C7   		movq	%rax, %rdi
 717 04b3 E8000000 		call	_ZN8UnitTest11TestDetailsC1ERKS0_i@PLT
 717      00
  63:testCore.cpp  **** 	CHECK_EQUAL(0UL, queue.takeIndex);
 718              		.loc 3 63 0 discriminator 12
 719 04b8 488D4590 		leaq	-112(%rbp), %rax
 720 04bc 488D1500 		leaq	.LC5(%rip), %rdx
 720      000000
 721 04c3 4889C6   		movq	%rax, %rsi
 722 04c6 4889DF   		movq	%rbx, %rdi
 723 04c9 E8000000 		call	_ZN8UnitTest11TestResults13OnTestFailureERKNS_11TestDetailsEPKc@PLT
 723      00
 724              	.LEHE30:
 725              	.LEHB31:
  63:testCore.cpp  **** 	CHECK_EQUAL(0UL, queue.takeIndex);
 726              		.loc 3 63 0 discriminator 14
 727 04ce E8000000 		call	__cxa_end_catch@PLT
 727      00
 728              	.LEHE31:
 729 04d3 E9E3FCFF 		jmp	.L31
 729      FF
 730              	.L66:
 731 04d8 4889C3   		movq	%rax, %rbx
  63:testCore.cpp  **** 	CHECK_EQUAL(0UL, queue.takeIndex);
 732              		.loc 3 63 0
 733 04db E8000000 		call	__cxa_end_catch@PLT
 733      00
 734 04e0 4889D8   		movq	%rbx, %rax
 735 04e3 4889C7   		movq	%rax, %rdi
 736              	.LEHB32:
 737 04e6 E8000000 		call	_Unwind_Resume@PLT
 737      00
 738              	.LEHE32:
 739              	.L68:
 740 04eb EB00     		jmp	.L34
 741              	.L67:
 742              	.L34:
  64:testCore.cpp  **** 	CHECK_EQUAL(0UL, queue.numItems);
 743              		.loc 3 64 0 is_stmt 1
 744 04ed 4889C7   		movq	%rax, %rdi
 745 04f0 E8000000 		call	__cxa_begin_catch@PLT
 745      00
 746              	.LEHB33:
 747 04f5 E8000000 		call	_ZN8UnitTest11CurrentTest7ResultsEv@PLT
 747      00
 748 04fa 488B18   		movq	(%rax), %rbx
 749 04fd E8000000 		call	_ZN8UnitTest11CurrentTest7DetailsEv@PLT
 749      00
  64:testCore.cpp  **** 	CHECK_EQUAL(0UL, queue.numItems);
 750              		.loc 3 64 0 is_stmt 0 discriminator 8
 751 0502 488B08   		movq	(%rax), %rcx
 752 0505 488D4590 		leaq	-112(%rbp), %rax
 753 0509 BA400000 		movl	$64, %edx
 753      00
 754 050e 4889CE   		movq	%rcx, %rsi
 755 0511 4889C7   		movq	%rax, %rdi
 756 0514 E8000000 		call	_ZN8UnitTest11TestDetailsC1ERKS0_i@PLT
 756      00
  64:testCore.cpp  **** 	CHECK_EQUAL(0UL, queue.numItems);
 757              		.loc 3 64 0 discriminator 12
 758 0519 488D4590 		leaq	-112(%rbp), %rax
 759 051d 488D1500 		leaq	.LC6(%rip), %rdx
 759      000000
 760 0524 4889C6   		movq	%rax, %rsi
 761 0527 4889DF   		movq	%rbx, %rdi
 762 052a E8000000 		call	_ZN8UnitTest11TestResults13OnTestFailureERKNS_11TestDetailsEPKc@PLT
 762      00
 763              	.LEHE33:
 764              	.LEHB34:
  64:testCore.cpp  **** 	CHECK_EQUAL(0UL, queue.numItems);
 765              		.loc 3 64 0 discriminator 14
 766 052f E8000000 		call	__cxa_end_catch@PLT
 766      00
 767              	.LEHE34:
 768 0534 E9CCFCFF 		jmp	.L35
 768      FF
 769              	.L69:
 770 0539 4889C3   		movq	%rax, %rbx
  64:testCore.cpp  **** 	CHECK_EQUAL(0UL, queue.numItems);
 771              		.loc 3 64 0
 772 053c E8000000 		call	__cxa_end_catch@PLT
 772      00
 773 0541 4889D8   		movq	%rbx, %rax
 774 0544 4889C7   		movq	%rax, %rdi
 775              	.LEHB35:
 776 0547 E8000000 		call	_Unwind_Resume@PLT
 776      00
 777              	.LEHE35:
 778              	.L71:
 779 054c EB00     		jmp	.L38
 780              	.L70:
 781              	.L38:
  65:testCore.cpp  **** 
 782              		.loc 3 65 0 is_stmt 1
 783 054e 4889C7   		movq	%rax, %rdi
 784 0551 E8000000 		call	__cxa_begin_catch@PLT
 784      00
 785              	.LEHB36:
 786 0556 E8000000 		call	_ZN8UnitTest11CurrentTest7ResultsEv@PLT
 786      00
 787 055b 488B18   		movq	(%rax), %rbx
 788 055e E8000000 		call	_ZN8UnitTest11CurrentTest7DetailsEv@PLT
 788      00
  65:testCore.cpp  **** 
 789              		.loc 3 65 0 is_stmt 0 discriminator 8
 790 0563 488B08   		movq	(%rax), %rcx
 791 0566 488D4590 		leaq	-112(%rbp), %rax
 792 056a BA410000 		movl	$65, %edx
 792      00
 793 056f 4889CE   		movq	%rcx, %rsi
 794 0572 4889C7   		movq	%rax, %rdi
 795 0575 E8000000 		call	_ZN8UnitTest11TestDetailsC1ERKS0_i@PLT
 795      00
  65:testCore.cpp  **** 
 796              		.loc 3 65 0 discriminator 12
 797 057a 488D4590 		leaq	-112(%rbp), %rax
 798 057e 488D1500 		leaq	.LC7(%rip), %rdx
 798      000000
 799 0585 4889C6   		movq	%rax, %rsi
 800 0588 4889DF   		movq	%rbx, %rdi
 801 058b E8000000 		call	_ZN8UnitTest11TestResults13OnTestFailureERKNS_11TestDetailsEPKc@PLT
 801      00
 802              	.LEHE36:
 803              	.LEHB37:
  65:testCore.cpp  **** 
 804              		.loc 3 65 0 discriminator 14
 805 0590 E8000000 		call	__cxa_end_catch@PLT
 805      00
 806              	.LEHE37:
 807 0595 E9B5FCFF 		jmp	.L39
 807      FF
 808              	.L72:
 809 059a 4889C3   		movq	%rax, %rbx
  65:testCore.cpp  **** 
 810              		.loc 3 65 0
 811 059d E8000000 		call	__cxa_end_catch@PLT
 811      00
 812 05a2 4889D8   		movq	%rbx, %rax
 813 05a5 4889C7   		movq	%rax, %rdi
 814              	.LEHB38:
 815 05a8 E8000000 		call	_Unwind_Resume@PLT
 815      00
 816              	.LEHE38:
 817              	.L74:
 818 05ad EB00     		jmp	.L42
 819              	.L73:
 820              	.L42:
  68:testCore.cpp  **** 	CHECK_EQUAL(2UL, deref(queue.itemArray[1]));
 821              		.loc 3 68 0 is_stmt 1
 822 05af 4889C7   		movq	%rax, %rdi
 823 05b2 E8000000 		call	__cxa_begin_catch@PLT
 823      00
 824              	.LEHB39:
 825 05b7 E8000000 		call	_ZN8UnitTest11CurrentTest7ResultsEv@PLT
 825      00
 826 05bc 488B18   		movq	(%rax), %rbx
 827 05bf E8000000 		call	_ZN8UnitTest11CurrentTest7DetailsEv@PLT
 827      00
  68:testCore.cpp  **** 	CHECK_EQUAL(2UL, deref(queue.itemArray[1]));
 828              		.loc 3 68 0 is_stmt 0 discriminator 8
 829 05c4 488B08   		movq	(%rax), %rcx
 830 05c7 488D4590 		leaq	-112(%rbp), %rax
 831 05cb BA440000 		movl	$68, %edx
 831      00
 832 05d0 4889CE   		movq	%rcx, %rsi
 833 05d3 4889C7   		movq	%rax, %rdi
 834 05d6 E8000000 		call	_ZN8UnitTest11TestDetailsC1ERKS0_i@PLT
 834      00
  68:testCore.cpp  **** 	CHECK_EQUAL(2UL, deref(queue.itemArray[1]));
 835              		.loc 3 68 0 discriminator 12
 836 05db 488D4590 		leaq	-112(%rbp), %rax
 837 05df 488D1500 		leaq	.LC8(%rip), %rdx
 837      000000
 838 05e6 4889C6   		movq	%rax, %rsi
 839 05e9 4889DF   		movq	%rbx, %rdi
 840 05ec E8000000 		call	_ZN8UnitTest11TestResults13OnTestFailureERKNS_11TestDetailsEPKc@PLT
 840      00
 841              	.LEHE39:
 842              	.LEHB40:
  68:testCore.cpp  **** 	CHECK_EQUAL(2UL, deref(queue.itemArray[1]));
 843              		.loc 3 68 0 discriminator 14
 844 05f1 E8000000 		call	__cxa_end_catch@PLT
 844      00
 845              	.LEHE40:
 846 05f6 E9A6FCFF 		jmp	.L43
 846      FF
 847              	.L75:
 848 05fb 4889C3   		movq	%rax, %rbx
  68:testCore.cpp  **** 	CHECK_EQUAL(2UL, deref(queue.itemArray[1]));
 849              		.loc 3 68 0
 850 05fe E8000000 		call	__cxa_end_catch@PLT
 850      00
 851 0603 4889D8   		movq	%rbx, %rax
 852 0606 4889C7   		movq	%rax, %rdi
 853              	.LEHB41:
 854 0609 E8000000 		call	_Unwind_Resume@PLT
 854      00
 855              	.LEHE41:
 856              	.L77:
 857 060e EB00     		jmp	.L46
 858              	.L76:
 859              	.L46:
  69:testCore.cpp  **** 	CHECK_EQUAL(3UL, deref(queue.itemArray[2]));
 860              		.loc 3 69 0 is_stmt 1
 861 0610 4889C7   		movq	%rax, %rdi
 862 0613 E8000000 		call	__cxa_begin_catch@PLT
 862      00
 863              	.LEHB42:
 864 0618 E8000000 		call	_ZN8UnitTest11CurrentTest7ResultsEv@PLT
 864      00
 865 061d 488B18   		movq	(%rax), %rbx
 866 0620 E8000000 		call	_ZN8UnitTest11CurrentTest7DetailsEv@PLT
 866      00
  69:testCore.cpp  **** 	CHECK_EQUAL(3UL, deref(queue.itemArray[2]));
 867              		.loc 3 69 0 is_stmt 0 discriminator 8
 868 0625 488B08   		movq	(%rax), %rcx
 869 0628 488D4590 		leaq	-112(%rbp), %rax
 870 062c BA450000 		movl	$69, %edx
 870      00
 871 0631 4889CE   		movq	%rcx, %rsi
 872 0634 4889C7   		movq	%rax, %rdi
 873 0637 E8000000 		call	_ZN8UnitTest11TestDetailsC1ERKS0_i@PLT
 873      00
  69:testCore.cpp  **** 	CHECK_EQUAL(3UL, deref(queue.itemArray[2]));
 874              		.loc 3 69 0 discriminator 12
 875 063c 488D4590 		leaq	-112(%rbp), %rax
 876 0640 488D1500 		leaq	.LC9(%rip), %rdx
 876      000000
 877 0647 4889C6   		movq	%rax, %rsi
 878 064a 4889DF   		movq	%rbx, %rdi
 879 064d E8000000 		call	_ZN8UnitTest11TestResults13OnTestFailureERKNS_11TestDetailsEPKc@PLT
 879      00
 880              	.LEHE42:
 881              	.LEHB43:
  69:testCore.cpp  **** 	CHECK_EQUAL(3UL, deref(queue.itemArray[2]));
 882              		.loc 3 69 0 discriminator 14
 883 0652 E8000000 		call	__cxa_end_catch@PLT
 883      00
 884              	.LEHE43:
 885 0657 E99BFCFF 		jmp	.L47
 885      FF
 886              	.L78:
 887 065c 4889C3   		movq	%rax, %rbx
  69:testCore.cpp  **** 	CHECK_EQUAL(3UL, deref(queue.itemArray[2]));
 888              		.loc 3 69 0
 889 065f E8000000 		call	__cxa_end_catch@PLT
 889      00
 890 0664 4889D8   		movq	%rbx, %rax
 891 0667 4889C7   		movq	%rax, %rdi
 892              	.LEHB44:
 893 066a E8000000 		call	_Unwind_Resume@PLT
 893      00
 894              	.LEHE44:
 895              	.L80:
 896 066f EB00     		jmp	.L50
 897              	.L79:
 898              	.L50:
  70:testCore.cpp  **** 	CHECK_EQUAL(4UL, deref(queue.itemArray[3]));
 899              		.loc 3 70 0 is_stmt 1
 900 0671 4889C7   		movq	%rax, %rdi
 901 0674 E8000000 		call	__cxa_begin_catch@PLT
 901      00
 902              	.LEHB45:
 903 0679 E8000000 		call	_ZN8UnitTest11CurrentTest7ResultsEv@PLT
 903      00
 904 067e 488B18   		movq	(%rax), %rbx
 905 0681 E8000000 		call	_ZN8UnitTest11CurrentTest7DetailsEv@PLT
 905      00
  70:testCore.cpp  **** 	CHECK_EQUAL(4UL, deref(queue.itemArray[3]));
 906              		.loc 3 70 0 is_stmt 0 discriminator 8
 907 0686 488B08   		movq	(%rax), %rcx
 908 0689 488D4590 		leaq	-112(%rbp), %rax
 909 068d BA460000 		movl	$70, %edx
 909      00
 910 0692 4889CE   		movq	%rcx, %rsi
 911 0695 4889C7   		movq	%rax, %rdi
 912 0698 E8000000 		call	_ZN8UnitTest11TestDetailsC1ERKS0_i@PLT
 912      00
  70:testCore.cpp  **** 	CHECK_EQUAL(4UL, deref(queue.itemArray[3]));
 913              		.loc 3 70 0 discriminator 12
 914 069d 488D4590 		leaq	-112(%rbp), %rax
 915 06a1 488D1500 		leaq	.LC10(%rip), %rdx
 915      000000
 916 06a8 4889C6   		movq	%rax, %rsi
 917 06ab 4889DF   		movq	%rbx, %rdi
 918 06ae E8000000 		call	_ZN8UnitTest11TestResults13OnTestFailureERKNS_11TestDetailsEPKc@PLT
 918      00
 919              	.LEHE45:
 920              	.LEHB46:
  70:testCore.cpp  **** 	CHECK_EQUAL(4UL, deref(queue.itemArray[3]));
 921              		.loc 3 70 0 discriminator 14
 922 06b3 E8000000 		call	__cxa_end_catch@PLT
 922      00
 923              	.LEHE46:
 924 06b8 E990FCFF 		jmp	.L51
 924      FF
 925              	.L81:
 926 06bd 4889C3   		movq	%rax, %rbx
  70:testCore.cpp  **** 	CHECK_EQUAL(4UL, deref(queue.itemArray[3]));
 927              		.loc 3 70 0
 928 06c0 E8000000 		call	__cxa_end_catch@PLT
 928      00
 929 06c5 4889D8   		movq	%rbx, %rax
 930 06c8 4889C7   		movq	%rax, %rdi
 931              	.LEHB47:
 932 06cb E8000000 		call	_Unwind_Resume@PLT
 932      00
 933              	.LEHE47:
 934              	.L83:
 935 06d0 EB00     		jmp	.L54
 936              	.L82:
 937              	.L54:
  71:testCore.cpp  **** 
 938              		.loc 3 71 0 is_stmt 1
 939 06d2 4889C7   		movq	%rax, %rdi
 940 06d5 E8000000 		call	__cxa_begin_catch@PLT
 940      00
 941              	.LEHB48:
 942 06da E8000000 		call	_ZN8UnitTest11CurrentTest7ResultsEv@PLT
 942      00
 943 06df 488B18   		movq	(%rax), %rbx
 944 06e2 E8000000 		call	_ZN8UnitTest11CurrentTest7DetailsEv@PLT
 944      00
  71:testCore.cpp  **** 
 945              		.loc 3 71 0 is_stmt 0 discriminator 8
 946 06e7 488B08   		movq	(%rax), %rcx
 947 06ea 488D4590 		leaq	-112(%rbp), %rax
 948 06ee BA470000 		movl	$71, %edx
 948      00
 949 06f3 4889CE   		movq	%rcx, %rsi
 950 06f6 4889C7   		movq	%rax, %rdi
 951 06f9 E8000000 		call	_ZN8UnitTest11TestDetailsC1ERKS0_i@PLT
 951      00
  71:testCore.cpp  **** 
 952              		.loc 3 71 0 discriminator 12
 953 06fe 488D4590 		leaq	-112(%rbp), %rax
 954 0702 488D1500 		leaq	.LC11(%rip), %rdx
 954      000000
 955 0709 4889C6   		movq	%rax, %rsi
 956 070c 4889DF   		movq	%rbx, %rdi
 957 070f E8000000 		call	_ZN8UnitTest11TestResults13OnTestFailureERKNS_11TestDetailsEPKc@PLT
 957      00
 958              	.LEHE48:
 959              	.LEHB49:
  71:testCore.cpp  **** 
 960              		.loc 3 71 0 discriminator 14
 961 0714 E8000000 		call	__cxa_end_catch@PLT
 961      00
 962              	.LEHE49:
 963 0719 E985FCFF 		jmp	.L55
 963      FF
 964              	.L84:
 965 071e 4889C3   		movq	%rax, %rbx
  71:testCore.cpp  **** 
 966              		.loc 3 71 0
 967 0721 E8000000 		call	__cxa_end_catch@PLT
 967      00
 968 0726 4889D8   		movq	%rbx, %rax
 969 0729 4889C7   		movq	%rax, %rdi
 970              	.LEHB50:
 971 072c E8000000 		call	_Unwind_Resume@PLT
 971      00
 972              	.LEHE50:
 973              	.L85:
 974              		.loc 3 75 0 is_stmt 1
 975 0731 E8000000 		call	__stack_chk_fail@PLT
 975      00
 976              	.L57:
 977 0736 4881C488 		addq	$136, %rsp
 977      000000
 978 073d 5B       		popq	%rbx
 979 073e 5D       		popq	%rbp
 980              		.cfi_def_cfa 7, 8
 981 073f C3       		ret
 982              		.cfi_endproc
 983              	.LFE1106:
 984              		.section	.gcc_except_table,"a",@progbits
 985              		.align 4
 986              	.LLSDA1106:
 987 0000 FF       		.byte	0xff
 988 0001 9B       		.byte	0x9b
 989 0002 9002     		.uleb128 .LLSDATT1106-.LLSDATTD1106
 990              	.LLSDATTD1106:
 991 0004 01       		.byte	0x1
 992 0005 8302     		.uleb128 .LLSDACSE1106-.LLSDACSB1106
 993              	.LLSDACSB1106:
 994 0007 46       		.uleb128 .LEHB4-.LFB1106
 995 0008 05       		.uleb128 .LEHE4-.LEHB4
 996 0009 00       		.uleb128 0
 997 000a 00       		.uleb128 0
 998 000b 4E       		.uleb128 .LEHB5-.LFB1106
 999 000c 1C       		.uleb128 .LEHE5-.LEHB5
 1000 000d B006     		.uleb128 .L58-.LFB1106
 1001 000f 01       		.uleb128 0x1
 1002 0010 71       		.uleb128 .LEHB6-.LFB1106
 1003 0011 1C       		.uleb128 .LEHE6-.LEHB6
 1004 0012 AE06     		.uleb128 .L59-.LFB1106
 1005 0014 03       		.uleb128 0x3
 1006 0015 8D01     		.uleb128 .LEHB7-.LFB1106
 1007 0017 1C       		.uleb128 .LEHE7-.LEHB7
 1008 0018 9107     		.uleb128 .L61-.LFB1106
 1009 001a 01       		.uleb128 0x1
 1010 001b B101     		.uleb128 .LEHB8-.LFB1106
 1011 001d 26       		.uleb128 .LEHE8-.LEHB8
 1012 001e 8F07     		.uleb128 .L62-.LFB1106
 1013 0020 03       		.uleb128 0x3
 1014 0021 D701     		.uleb128 .LEHB9-.LFB1106
 1015 0023 1C       		.uleb128 .LEHE9-.LEHB9
 1016 0024 F207     		.uleb128 .L64-.LFB1106
 1017 0026 01       		.uleb128 0x1
 1018 0027 FB01     		.uleb128 .LEHB10-.LFB1106
 1019 0029 26       		.uleb128 .LEHE10-.LEHB10
 1020 002a F007     		.uleb128 .L65-.LFB1106
 1021 002c 03       		.uleb128 0x3
 1022 002d A102     		.uleb128 .LEHB11-.LFB1106
 1023 002f 1C       		.uleb128 .LEHE11-.LEHB11
 1024 0030 D308     		.uleb128 .L67-.LFB1106
 1025 0032 01       		.uleb128 0x1
 1026 0033 C502     		.uleb128 .LEHB12-.LFB1106
 1027 0035 26       		.uleb128 .LEHE12-.LEHB12
 1028 0036 D108     		.uleb128 .L68-.LFB1106
 1029 0038 03       		.uleb128 0x3
 1030 0039 EB02     		.uleb128 .LEHB13-.LFB1106
 1031 003b 1C       		.uleb128 .LEHE13-.LEHB13
 1032 003c B409     		.uleb128 .L70-.LFB1106
 1033 003e 01       		.uleb128 0x1
 1034 003f 8F03     		.uleb128 .LEHB14-.LFB1106
 1035 0041 26       		.uleb128 .LEHE14-.LEHB14
 1036 0042 B209     		.uleb128 .L71-.LFB1106
 1037 0044 03       		.uleb128 0x3
 1038 0045 B503     		.uleb128 .LEHB15-.LFB1106
 1039 0047 1C       		.uleb128 .LEHE15-.LEHB15
 1040 0048 950A     		.uleb128 .L73-.LFB1106
 1041 004a 01       		.uleb128 0x1
 1042 004b EB03     		.uleb128 .LEHB16-.LFB1106
 1043 004d 1C       		.uleb128 .LEHE16-.LEHB16
 1044 004e 930A     		.uleb128 .L74-.LFB1106
 1045 0050 03       		.uleb128 0x3
 1046 0051 8704     		.uleb128 .LEHB17-.LFB1106
 1047 0053 1C       		.uleb128 .LEHE17-.LEHB17
 1048 0054 F60A     		.uleb128 .L76-.LFB1106
 1049 0056 01       		.uleb128 0x1
 1050 0057 C104     		.uleb128 .LEHB18-.LFB1106
 1051 0059 1C       		.uleb128 .LEHE18-.LEHB18
 1052 005a F40A     		.uleb128 .L77-.LFB1106
 1053 005c 03       		.uleb128 0x3
 1054 005d DD04     		.uleb128 .LEHB19-.LFB1106
 1055 005f 1C       		.uleb128 .LEHE19-.LEHB19
 1056 0060 D70B     		.uleb128 .L79-.LFB1106
 1057 0062 01       		.uleb128 0x1
 1058 0063 9705     		.uleb128 .LEHB20-.LFB1106
 1059 0065 1C       		.uleb128 .LEHE20-.LEHB20
 1060 0066 D50B     		.uleb128 .L80-.LFB1106
 1061 0068 03       		.uleb128 0x3
 1062 0069 B305     		.uleb128 .LEHB21-.LFB1106
 1063 006b 1C       		.uleb128 .LEHE21-.LEHB21
 1064 006c B80C     		.uleb128 .L82-.LFB1106
 1065 006e 01       		.uleb128 0x1
 1066 006f ED05     		.uleb128 .LEHB22-.LFB1106
 1067 0071 1C       		.uleb128 .LEHE22-.LEHB22
 1068 0072 B60C     		.uleb128 .L83-.LFB1106
 1069 0074 03       		.uleb128 0x3
 1070 0075 9006     		.uleb128 .LEHB23-.LFB1106
 1071 0077 05       		.uleb128 .LEHE23-.LEHB23
 1072 0078 00       		.uleb128 0
 1073 0079 00       		.uleb128 0
 1074 007a B806     		.uleb128 .LEHB24-.LFB1106
 1075 007c 3A       		.uleb128 .LEHE24-.LEHB24
 1076 007d FC06     		.uleb128 .L60-.LFB1106
 1077 007f 00       		.uleb128 0
 1078 0080 F206     		.uleb128 .LEHB25-.LFB1106
 1079 0082 05       		.uleb128 .LEHE25-.LEHB25
 1080 0083 00       		.uleb128 0
 1081 0084 00       		.uleb128 0
 1082 0085 8A07     		.uleb128 .LEHB26-.LFB1106
 1083 0087 05       		.uleb128 .LEHE26-.LEHB26
 1084 0088 00       		.uleb128 0
 1085 0089 00       		.uleb128 0
 1086 008a 9907     		.uleb128 .LEHB27-.LFB1106
 1087 008c 3A       		.uleb128 .LEHE27-.LEHB27
 1088 008d DD07     		.uleb128 .L63-.LFB1106
 1089 008f 00       		.uleb128 0
 1090 0090 D307     		.uleb128 .LEHB28-.LFB1106
 1091 0092 05       		.uleb128 .LEHE28-.LEHB28
 1092 0093 00       		.uleb128 0
 1093 0094 00       		.uleb128 0
 1094 0095 EB07     		.uleb128 .LEHB29-.LFB1106
 1095 0097 05       		.uleb128 .LEHE29-.LEHB29
 1096 0098 00       		.uleb128 0
 1097 0099 00       		.uleb128 0
 1098 009a FA07     		.uleb128 .LEHB30-.LFB1106
 1099 009c 3A       		.uleb128 .LEHE30-.LEHB30
 1100 009d BE08     		.uleb128 .L66-.LFB1106
 1101 009f 00       		.uleb128 0
 1102 00a0 B408     		.uleb128 .LEHB31-.LFB1106
 1103 00a2 05       		.uleb128 .LEHE31-.LEHB31
 1104 00a3 00       		.uleb128 0
 1105 00a4 00       		.uleb128 0
 1106 00a5 CC08     		.uleb128 .LEHB32-.LFB1106
 1107 00a7 05       		.uleb128 .LEHE32-.LEHB32
 1108 00a8 00       		.uleb128 0
 1109 00a9 00       		.uleb128 0
 1110 00aa DB08     		.uleb128 .LEHB33-.LFB1106
 1111 00ac 3A       		.uleb128 .LEHE33-.LEHB33
 1112 00ad 9F09     		.uleb128 .L69-.LFB1106
 1113 00af 00       		.uleb128 0
 1114 00b0 9509     		.uleb128 .LEHB34-.LFB1106
 1115 00b2 05       		.uleb128 .LEHE34-.LEHB34
 1116 00b3 00       		.uleb128 0
 1117 00b4 00       		.uleb128 0
 1118 00b5 AD09     		.uleb128 .LEHB35-.LFB1106
 1119 00b7 05       		.uleb128 .LEHE35-.LEHB35
 1120 00b8 00       		.uleb128 0
 1121 00b9 00       		.uleb128 0
 1122 00ba BC09     		.uleb128 .LEHB36-.LFB1106
 1123 00bc 3A       		.uleb128 .LEHE36-.LEHB36
 1124 00bd 800A     		.uleb128 .L72-.LFB1106
 1125 00bf 00       		.uleb128 0
 1126 00c0 F609     		.uleb128 .LEHB37-.LFB1106
 1127 00c2 05       		.uleb128 .LEHE37-.LEHB37
 1128 00c3 00       		.uleb128 0
 1129 00c4 00       		.uleb128 0
 1130 00c5 8E0A     		.uleb128 .LEHB38-.LFB1106
 1131 00c7 05       		.uleb128 .LEHE38-.LEHB38
 1132 00c8 00       		.uleb128 0
 1133 00c9 00       		.uleb128 0
 1134 00ca 9D0A     		.uleb128 .LEHB39-.LFB1106
 1135 00cc 3A       		.uleb128 .LEHE39-.LEHB39
 1136 00cd E10A     		.uleb128 .L75-.LFB1106
 1137 00cf 00       		.uleb128 0
 1138 00d0 D70A     		.uleb128 .LEHB40-.LFB1106
 1139 00d2 05       		.uleb128 .LEHE40-.LEHB40
 1140 00d3 00       		.uleb128 0
 1141 00d4 00       		.uleb128 0
 1142 00d5 EF0A     		.uleb128 .LEHB41-.LFB1106
 1143 00d7 05       		.uleb128 .LEHE41-.LEHB41
 1144 00d8 00       		.uleb128 0
 1145 00d9 00       		.uleb128 0
 1146 00da FE0A     		.uleb128 .LEHB42-.LFB1106
 1147 00dc 3A       		.uleb128 .LEHE42-.LEHB42
 1148 00dd C20B     		.uleb128 .L78-.LFB1106
 1149 00df 00       		.uleb128 0
 1150 00e0 B80B     		.uleb128 .LEHB43-.LFB1106
 1151 00e2 05       		.uleb128 .LEHE43-.LEHB43
 1152 00e3 00       		.uleb128 0
 1153 00e4 00       		.uleb128 0
 1154 00e5 D00B     		.uleb128 .LEHB44-.LFB1106
 1155 00e7 05       		.uleb128 .LEHE44-.LEHB44
 1156 00e8 00       		.uleb128 0
 1157 00e9 00       		.uleb128 0
 1158 00ea DF0B     		.uleb128 .LEHB45-.LFB1106
 1159 00ec 3A       		.uleb128 .LEHE45-.LEHB45
 1160 00ed A30C     		.uleb128 .L81-.LFB1106
 1161 00ef 00       		.uleb128 0
 1162 00f0 990C     		.uleb128 .LEHB46-.LFB1106
 1163 00f2 05       		.uleb128 .LEHE46-.LEHB46
 1164 00f3 00       		.uleb128 0
 1165 00f4 00       		.uleb128 0
 1166 00f5 B10C     		.uleb128 .LEHB47-.LFB1106
 1167 00f7 05       		.uleb128 .LEHE47-.LEHB47
 1168 00f8 00       		.uleb128 0
 1169 00f9 00       		.uleb128 0
 1170 00fa C00C     		.uleb128 .LEHB48-.LFB1106
 1171 00fc 3A       		.uleb128 .LEHE48-.LEHB48
 1172 00fd 840D     		.uleb128 .L84-.LFB1106
 1173 00ff 00       		.uleb128 0
 1174 0100 FA0C     		.uleb128 .LEHB49-.LFB1106
 1175 0102 05       		.uleb128 .LEHE49-.LEHB49
 1176 0103 00       		.uleb128 0
 1177 0104 00       		.uleb128 0
 1178 0105 920D     		.uleb128 .LEHB50-.LFB1106
 1179 0107 05       		.uleb128 .LEHE50-.LEHB50
 1180 0108 00       		.uleb128 0
 1181 0109 00       		.uleb128 0
 1182              	.LLSDACSE1106:
 1183 010a 01       		.byte	0x1
 1184 010b 00       		.byte	0
 1185 010c 00       		.byte	0
 1186 010d 7D       		.byte	0x7d
 1187 010e 0000     		.align 4
 1188 0110 00000000 		.long	0
 1189              	
 1190              	.LLSDATT1106:
 1191              		.text
 1193              		.section	.rodata
 1194              	.LC12:
 1195 026b 51756575 		.string	"Queue_testPutNoWrap"
 1195      655F7465 
 1195      73745075 
 1195      744E6F57 
 1195      72617000 
 1196              		.section	.text._ZN23TestQueue_testPutNoWrapC2Ev,"axG",@progbits,_ZN23TestQueue_testPutNoWrapC5Ev,c
 1197              		.align 2
 1198              		.weak	_ZN23TestQueue_testPutNoWrapC2Ev
 1200              	_ZN23TestQueue_testPutNoWrapC2Ev:
 1201              	.LFB1108:
  76:testCore.cpp  **** 
  77:testCore.cpp  **** TEST(Queue_testPutNoWrap) {
 1202              		.loc 3 77 0
 1203              		.cfi_startproc
 1204 0000 55       		pushq	%rbp
 1205              		.cfi_def_cfa_offset 16
 1206              		.cfi_offset 6, -16
 1207 0001 4889E5   		movq	%rsp, %rbp
 1208              		.cfi_def_cfa_register 6
 1209 0004 53       		pushq	%rbx
 1210 0005 4883EC18 		subq	$24, %rsp
 1211              		.cfi_offset 3, -24
 1212 0009 48897DE8 		movq	%rdi, -24(%rbp)
 1213              	.LBB5:
 1214              		.loc 3 77 0
 1215 000d 488B5DE8 		movq	-24(%rbp), %rbx
 1216 0011 E8000000 		call	_ZN13UnitTestSuite12GetSuiteNameEv
 1216      00
 1217 0016 41B84D00 		movl	$77, %r8d
 1217      0000
 1218 001c 488D0D00 		leaq	.LC1(%rip), %rcx
 1218      000000
 1219 0023 4889C2   		movq	%rax, %rdx
 1220 0026 488D3500 		leaq	.LC12(%rip), %rsi
 1220      000000
 1221 002d 4889DF   		movq	%rbx, %rdi
 1222 0030 E8000000 		call	_ZN8UnitTest4TestC2EPKcS2_S2_i@PLT
 1222      00
 1223 0035 488D1500 		leaq	16+_ZTV23TestQueue_testPutNoWrap(%rip), %rdx
 1223      000000
 1224 003c 488B45E8 		movq	-24(%rbp), %rax
 1225 0040 488910   		movq	%rdx, (%rax)
 1226              	.LBE5:
 1227 0043 90       		nop
 1228 0044 4883C418 		addq	$24, %rsp
 1229 0048 5B       		popq	%rbx
 1230 0049 5D       		popq	%rbp
 1231              		.cfi_def_cfa 7, 8
 1232 004a C3       		ret
 1233              		.cfi_endproc
 1234              	.LFE1108:
 1236              		.weak	_ZN23TestQueue_testPutNoWrapC1Ev
 1237              		.set	_ZN23TestQueue_testPutNoWrapC1Ev,_ZN23TestQueue_testPutNoWrapC2Ev
 1238              		.globl	testQueue_testPutNoWrapInstance
 1239              		.bss
 1240 0039 00000000 		.align 32
 1240      000000
 1243              	testQueue_testPutNoWrapInstance:
 1244 0040 00000000 		.zero	56
 1244      00000000 
 1244      00000000 
 1244      00000000 
 1244      00000000 
 1245              		.globl	adderQueue_testPutNoWrap
 1248              	adderQueue_testPutNoWrap:
 1249 0078 00       		.zero	1
 1250              		.section	.rodata
 1251 027f 00       		.align 8
 1252              	.LC13:
 1253 0280 556E6861 		.string	"Unhandled exception in CHECK_EQUAL(1UL, *item)"
 1253      6E646C65 
 1253      64206578 
 1253      63657074 
 1253      696F6E20 
 1254 02af 00       		.align 8
 1255              	.LC14:
 1256 02b0 556E6861 		.string	"Unhandled exception in CHECK_EQUAL(2UL, *item)"
 1256      6E646C65 
 1256      64206578 
 1256      63657074 
 1256      696F6E20 
 1257 02df 00       		.align 8
 1258              	.LC15:
 1259 02e0 556E6861 		.string	"Unhandled exception in CHECK_EQUAL(3UL, *item)"
 1259      6E646C65 
 1259      64206578 
 1259      63657074 
 1259      696F6E20 
 1260 030f 00       		.align 8
 1261              	.LC16:
 1262 0310 556E6861 		.string	"Unhandled exception in CHECK_EQUAL(3UL, queue.putIndex)"
 1262      6E646C65 
 1262      64206578 
 1262      63657074 
 1262      696F6E20 
 1263              		.align 8
 1264              	.LC17:
 1265 0348 556E6861 		.string	"Unhandled exception in CHECK_EQUAL(3UL, queue.numItems)"
 1265      6E646C65 
 1265      64206578 
 1265      63657074 
 1265      696F6E20 
 1266              		.align 8
 1267              	.LC18:
 1268 0380 556E6861 		.string	"Unhandled exception in CHECK_EQUAL(5UL, deref(queue.itemArray[0]))"
 1268      6E646C65 
 1268      64206578 
 1268      63657074 
 1268      696F6E20 
 1269 03c3 00000000 		.align 8
 1269      00
 1270              	.LC19:
 1271 03c8 556E6861 		.string	"Unhandled exception in CHECK_EQUAL(6UL, deref(queue.itemArray[1]))"
 1271      6E646C65 
 1271      64206578 
 1271      63657074 
 1271      696F6E20 
 1272 040b 00000000 		.align 8
 1272      00
 1273              	.LC20:
 1274 0410 556E6861 		.string	"Unhandled exception in CHECK_EQUAL(7UL, deref(queue.itemArray[2]))"
 1274      6E646C65 
 1274      64206578 
 1274      63657074 
 1274      696F6E20 
 1275              		.text
 1276              		.align 2
 1277              		.globl	_ZNK23TestQueue_testPutNoWrap7RunImplEv
 1279              	_ZNK23TestQueue_testPutNoWrap7RunImplEv:
 1280              	.LFB1110:
 1281              		.loc 3 77 0
 1282              		.cfi_startproc
 1283              		.cfi_personality 0x9b,DW.ref.__gxx_personality_v0
 1284              		.cfi_lsda 0x1b,.LLSDA1110
 1285 0740 55       		pushq	%rbp
 1286              		.cfi_def_cfa_offset 16
 1287              		.cfi_offset 6, -16
 1288 0741 4889E5   		movq	%rsp, %rbp
 1289              		.cfi_def_cfa_register 6
 1290 0744 53       		pushq	%rbx
 1291 0745 4881EC98 		subq	$152, %rsp
 1291      000000
 1292              		.cfi_offset 3, -24
 1293 074c 4889BD68 		movq	%rdi, -152(%rbp)
 1293      FFFFFF
 1294              		.loc 3 77 0
 1295 0753 64488B04 		movq	%fs:40, %rax
 1295      25280000 
 1295      00
 1296 075c 488945E8 		movq	%rax, -24(%rbp)
 1297 0760 31C0     		xorl	%eax, %eax
  78:testCore.cpp  **** 	struct UnboundedQueue queue;
  79:testCore.cpp  **** 	uint32 *item;
  80:testCore.cpp  **** 	m_count = 1;
 1298              		.loc 3 80 0
 1299 0762 C7050000 		movl	$1, _ZL7m_count(%rip)
 1299      00000100 
 1299      0000
  81:testCore.cpp  **** 
  82:testCore.cpp  **** 	// Create queue
  83:testCore.cpp  **** 	USBStatus status = queueInit(&queue, 4, (CreateFunc)createInt, (DestroyFunc)destroyInt);
 1300              		.loc 3 83 0
 1301 076c 488D45B0 		leaq	-80(%rbp), %rax
 1302 0770 488D0D00 		leaq	destroyInt(%rip), %rcx
 1302      000000
 1303 0777 488D1500 		leaq	createInt(%rip), %rdx
 1303      000000
 1304 077e BE040000 		movl	$4, %esi
 1304      00
 1305 0783 4889C7   		movq	%rax, %rdi
 1306              	.LEHB51:
 1307 0786 E8000000 		call	queueInit@PLT
 1307      00
 1308              	.LEHE51:
 1309 078b 898578FF 		movl	%eax, -136(%rbp)
 1309      FFFF
 1310              	.LEHB52:
  84:testCore.cpp  **** 	CHECK_EQUAL(USB_SUCCESS, status);
 1311              		.loc 3 84 0
 1312 0791 E8000000 		call	_ZN8UnitTest11CurrentTest7DetailsEv@PLT
 1312      00
 1313 0796 488B08   		movq	(%rax), %rcx
 1314 0799 488D4590 		leaq	-112(%rbp), %rax
 1315 079d BA540000 		movl	$84, %edx
 1315      00
 1316 07a2 4889CE   		movq	%rcx, %rsi
 1317 07a5 4889C7   		movq	%rax, %rdi
 1318 07a8 E8000000 		call	_ZN8UnitTest11TestDetailsC1ERKS0_i@PLT
 1318      00
 1319              	.LEHE52:
 1320              		.loc 3 84 0 is_stmt 0 discriminator 2
 1321 07ad C7458800 		movl	$0, -120(%rbp)
 1321      000000
 1322              	.LEHB53:
 1323 07b4 E8000000 		call	_ZN8UnitTest11CurrentTest7ResultsEv@PLT
 1323      00
 1324 07b9 488B00   		movq	(%rax), %rax
 1325 07bc 488D4D90 		leaq	-112(%rbp), %rcx
 1326 07c0 488D9578 		leaq	-136(%rbp), %rdx
 1326      FFFFFF
 1327 07c7 488D7588 		leaq	-120(%rbp), %rsi
 1328 07cb 4889C7   		movq	%rax, %rdi
 1329 07ce E8000000 		call	_ZN8UnitTest10CheckEqualI9USBStatusS1_EEvRNS_11TestResultsERKT_RKT0_RKNS_11TestDetailsE
 1329      00
 1330              	.LEHE53:
 1331              	.L90:
  85:testCore.cpp  **** 
  86:testCore.cpp  **** 	// Put three items into the queue
  87:testCore.cpp  **** 	status = queuePut(&queue, (Item*)&item);
 1332              		.loc 3 87 0 is_stmt 1
 1333 07d3 488D5580 		leaq	-128(%rbp), %rdx
 1334 07d7 488D45B0 		leaq	-80(%rbp), %rax
 1335 07db 4889D6   		movq	%rdx, %rsi
 1336 07de 4889C7   		movq	%rax, %rdi
 1337              	.LEHB54:
 1338 07e1 E8000000 		call	queuePut@PLT
 1338      00
 1339              	.LEHE54:
 1340 07e6 898578FF 		movl	%eax, -136(%rbp)
 1340      FFFF
 1341              	.LEHB55:
  88:testCore.cpp  **** 	CHECK_EQUAL(USB_SUCCESS, status);
 1342              		.loc 3 88 0
 1343 07ec E8000000 		call	_ZN8UnitTest11CurrentTest7DetailsEv@PLT
 1343      00
 1344 07f1 488B08   		movq	(%rax), %rcx
 1345 07f4 488D4590 		leaq	-112(%rbp), %rax
 1346 07f8 BA580000 		movl	$88, %edx
 1346      00
 1347 07fd 4889CE   		movq	%rcx, %rsi
 1348 0800 4889C7   		movq	%rax, %rdi
 1349 0803 E8000000 		call	_ZN8UnitTest11TestDetailsC1ERKS0_i@PLT
 1349      00
 1350              	.LEHE55:
 1351              		.loc 3 88 0 is_stmt 0 discriminator 2
 1352 0808 C7458800 		movl	$0, -120(%rbp)
 1352      000000
 1353              	.LEHB56:
 1354 080f E8000000 		call	_ZN8UnitTest11CurrentTest7ResultsEv@PLT
 1354      00
 1355 0814 488B00   		movq	(%rax), %rax
 1356 0817 488D4D90 		leaq	-112(%rbp), %rcx
 1357 081b 488D9578 		leaq	-136(%rbp), %rdx
 1357      FFFFFF
 1358 0822 488D7588 		leaq	-120(%rbp), %rsi
 1359 0826 4889C7   		movq	%rax, %rdi
 1360 0829 E8000000 		call	_ZN8UnitTest10CheckEqualI9USBStatusS1_EEvRNS_11TestResultsERKT_RKT0_RKNS_11TestDetailsE
 1360      00
 1361              	.LEHE56:
 1362              	.L94:
 1363              	.LEHB57:
  89:testCore.cpp  **** 	CHECK_EQUAL(1UL, *item);
 1364              		.loc 3 89 0 is_stmt 1
 1365 082e E8000000 		call	_ZN8UnitTest11CurrentTest7DetailsEv@PLT
 1365      00
 1366 0833 488B08   		movq	(%rax), %rcx
 1367 0836 488D4590 		leaq	-112(%rbp), %rax
 1368 083a BA590000 		movl	$89, %edx
 1368      00
 1369 083f 4889CE   		movq	%rcx, %rsi
 1370 0842 4889C7   		movq	%rax, %rdi
 1371 0845 E8000000 		call	_ZN8UnitTest11TestDetailsC1ERKS0_i@PLT
 1371      00
 1372              	.LEHE57:
 1373              		.loc 3 89 0 is_stmt 0 discriminator 2
 1374 084a 488B5D80 		movq	-128(%rbp), %rbx
 1375 084e 48C74588 		movq	$1, -120(%rbp)
 1375      01000000 
 1376              	.LEHB58:
 1377 0856 E8000000 		call	_ZN8UnitTest11CurrentTest7ResultsEv@PLT
 1377      00
 1378 085b 488B00   		movq	(%rax), %rax
 1379 085e 488D5590 		leaq	-112(%rbp), %rdx
 1380 0862 488D7588 		leaq	-120(%rbp), %rsi
 1381 0866 4889D1   		movq	%rdx, %rcx
 1382 0869 4889DA   		movq	%rbx, %rdx
 1383 086c 4889C7   		movq	%rax, %rdi
 1384 086f E8000000 		call	_ZN8UnitTest10CheckEqualImjEEvRNS_11TestResultsERKT_RKT0_RKNS_11TestDetailsE
 1384      00
 1385              	.LEHE58:
 1386              	.L98:
  90:testCore.cpp  **** 	*item = 5;
 1387              		.loc 3 90 0 is_stmt 1
 1388 0874 488B4580 		movq	-128(%rbp), %rax
 1389 0878 C7000500 		movl	$5, (%rax)
 1389      0000
  91:testCore.cpp  **** 	queueCommitPut(&queue);
 1390              		.loc 3 91 0
 1391 087e 488D45B0 		leaq	-80(%rbp), %rax
 1392 0882 4889C7   		movq	%rax, %rdi
 1393              	.LEHB59:
 1394 0885 E8000000 		call	queueCommitPut@PLT
 1394      00
  92:testCore.cpp  **** 	status = queuePut(&queue, (Item*)&item);
 1395              		.loc 3 92 0
 1396 088a 488D5580 		leaq	-128(%rbp), %rdx
 1397 088e 488D45B0 		leaq	-80(%rbp), %rax
 1398 0892 4889D6   		movq	%rdx, %rsi
 1399 0895 4889C7   		movq	%rax, %rdi
 1400 0898 E8000000 		call	queuePut@PLT
 1400      00
 1401              	.LEHE59:
 1402 089d 898578FF 		movl	%eax, -136(%rbp)
 1402      FFFF
 1403              	.LEHB60:
  93:testCore.cpp  **** 	CHECK_EQUAL(USB_SUCCESS, status);
 1404              		.loc 3 93 0
 1405 08a3 E8000000 		call	_ZN8UnitTest11CurrentTest7DetailsEv@PLT
 1405      00
 1406 08a8 488B08   		movq	(%rax), %rcx
 1407 08ab 488D4590 		leaq	-112(%rbp), %rax
 1408 08af BA5D0000 		movl	$93, %edx
 1408      00
 1409 08b4 4889CE   		movq	%rcx, %rsi
 1410 08b7 4889C7   		movq	%rax, %rdi
 1411 08ba E8000000 		call	_ZN8UnitTest11TestDetailsC1ERKS0_i@PLT
 1411      00
 1412              	.LEHE60:
 1413              		.loc 3 93 0 is_stmt 0 discriminator 2
 1414 08bf C7458800 		movl	$0, -120(%rbp)
 1414      000000
 1415              	.LEHB61:
 1416 08c6 E8000000 		call	_ZN8UnitTest11CurrentTest7ResultsEv@PLT
 1416      00
 1417 08cb 488B00   		movq	(%rax), %rax
 1418 08ce 488D4D90 		leaq	-112(%rbp), %rcx
 1419 08d2 488D9578 		leaq	-136(%rbp), %rdx
 1419      FFFFFF
 1420 08d9 488D7588 		leaq	-120(%rbp), %rsi
 1421 08dd 4889C7   		movq	%rax, %rdi
 1422 08e0 E8000000 		call	_ZN8UnitTest10CheckEqualI9USBStatusS1_EEvRNS_11TestResultsERKT_RKT0_RKNS_11TestDetailsE
 1422      00
 1423              	.LEHE61:
 1424              	.L102:
 1425              	.LEHB62:
  94:testCore.cpp  **** 	CHECK_EQUAL(2UL, *item);
 1426              		.loc 3 94 0 is_stmt 1
 1427 08e5 E8000000 		call	_ZN8UnitTest11CurrentTest7DetailsEv@PLT
 1427      00
 1428 08ea 488B08   		movq	(%rax), %rcx
 1429 08ed 488D4590 		leaq	-112(%rbp), %rax
 1430 08f1 BA5E0000 		movl	$94, %edx
 1430      00
 1431 08f6 4889CE   		movq	%rcx, %rsi
 1432 08f9 4889C7   		movq	%rax, %rdi
 1433 08fc E8000000 		call	_ZN8UnitTest11TestDetailsC1ERKS0_i@PLT
 1433      00
 1434              	.LEHE62:
 1435              		.loc 3 94 0 is_stmt 0 discriminator 2
 1436 0901 488B5D80 		movq	-128(%rbp), %rbx
 1437 0905 48C74588 		movq	$2, -120(%rbp)
 1437      02000000 
 1438              	.LEHB63:
 1439 090d E8000000 		call	_ZN8UnitTest11CurrentTest7ResultsEv@PLT
 1439      00
 1440 0912 488B00   		movq	(%rax), %rax
 1441 0915 488D5590 		leaq	-112(%rbp), %rdx
 1442 0919 488D7588 		leaq	-120(%rbp), %rsi
 1443 091d 4889D1   		movq	%rdx, %rcx
 1444 0920 4889DA   		movq	%rbx, %rdx
 1445 0923 4889C7   		movq	%rax, %rdi
 1446 0926 E8000000 		call	_ZN8UnitTest10CheckEqualImjEEvRNS_11TestResultsERKT_RKT0_RKNS_11TestDetailsE
 1446      00
 1447              	.LEHE63:
 1448              	.L106:
  95:testCore.cpp  **** 	*item = 6;
 1449              		.loc 3 95 0 is_stmt 1
 1450 092b 488B4580 		movq	-128(%rbp), %rax
 1451 092f C7000600 		movl	$6, (%rax)
 1451      0000
  96:testCore.cpp  **** 	queueCommitPut(&queue);
 1452              		.loc 3 96 0
 1453 0935 488D45B0 		leaq	-80(%rbp), %rax
 1454 0939 4889C7   		movq	%rax, %rdi
 1455              	.LEHB64:
 1456 093c E8000000 		call	queueCommitPut@PLT
 1456      00
  97:testCore.cpp  **** 	status = queuePut(&queue, (Item*)&item);
 1457              		.loc 3 97 0
 1458 0941 488D5580 		leaq	-128(%rbp), %rdx
 1459 0945 488D45B0 		leaq	-80(%rbp), %rax
 1460 0949 4889D6   		movq	%rdx, %rsi
 1461 094c 4889C7   		movq	%rax, %rdi
 1462 094f E8000000 		call	queuePut@PLT
 1462      00
 1463              	.LEHE64:
 1464 0954 898578FF 		movl	%eax, -136(%rbp)
 1464      FFFF
 1465              	.LEHB65:
  98:testCore.cpp  **** 	CHECK_EQUAL(USB_SUCCESS, status);
 1466              		.loc 3 98 0
 1467 095a E8000000 		call	_ZN8UnitTest11CurrentTest7DetailsEv@PLT
 1467      00
 1468 095f 488B08   		movq	(%rax), %rcx
 1469 0962 488D4590 		leaq	-112(%rbp), %rax
 1470 0966 BA620000 		movl	$98, %edx
 1470      00
 1471 096b 4889CE   		movq	%rcx, %rsi
 1472 096e 4889C7   		movq	%rax, %rdi
 1473 0971 E8000000 		call	_ZN8UnitTest11TestDetailsC1ERKS0_i@PLT
 1473      00
 1474              	.LEHE65:
 1475              		.loc 3 98 0 is_stmt 0 discriminator 2
 1476 0976 C7458800 		movl	$0, -120(%rbp)
 1476      000000
 1477              	.LEHB66:
 1478 097d E8000000 		call	_ZN8UnitTest11CurrentTest7ResultsEv@PLT
 1478      00
 1479 0982 488B00   		movq	(%rax), %rax
 1480 0985 488D4D90 		leaq	-112(%rbp), %rcx
 1481 0989 488D9578 		leaq	-136(%rbp), %rdx
 1481      FFFFFF
 1482 0990 488D7588 		leaq	-120(%rbp), %rsi
 1483 0994 4889C7   		movq	%rax, %rdi
 1484 0997 E8000000 		call	_ZN8UnitTest10CheckEqualI9USBStatusS1_EEvRNS_11TestResultsERKT_RKT0_RKNS_11TestDetailsE
 1484      00
 1485              	.LEHE66:
 1486              	.L110:
 1487              	.LEHB67:
  99:testCore.cpp  **** 	CHECK_EQUAL(3UL, *item);
 1488              		.loc 3 99 0 is_stmt 1
 1489 099c E8000000 		call	_ZN8UnitTest11CurrentTest7DetailsEv@PLT
 1489      00
 1490 09a1 488B08   		movq	(%rax), %rcx
 1491 09a4 488D4590 		leaq	-112(%rbp), %rax
 1492 09a8 BA630000 		movl	$99, %edx
 1492      00
 1493 09ad 4889CE   		movq	%rcx, %rsi
 1494 09b0 4889C7   		movq	%rax, %rdi
 1495 09b3 E8000000 		call	_ZN8UnitTest11TestDetailsC1ERKS0_i@PLT
 1495      00
 1496              	.LEHE67:
 1497              		.loc 3 99 0 is_stmt 0 discriminator 2
 1498 09b8 488B5D80 		movq	-128(%rbp), %rbx
 1499 09bc 48C74588 		movq	$3, -120(%rbp)
 1499      03000000 
 1500              	.LEHB68:
 1501 09c4 E8000000 		call	_ZN8UnitTest11CurrentTest7ResultsEv@PLT
 1501      00
 1502 09c9 488B00   		movq	(%rax), %rax
 1503 09cc 488D5590 		leaq	-112(%rbp), %rdx
 1504 09d0 488D7588 		leaq	-120(%rbp), %rsi
 1505 09d4 4889D1   		movq	%rdx, %rcx
 1506 09d7 4889DA   		movq	%rbx, %rdx
 1507 09da 4889C7   		movq	%rax, %rdi
 1508 09dd E8000000 		call	_ZN8UnitTest10CheckEqualImjEEvRNS_11TestResultsERKT_RKT0_RKNS_11TestDetailsE
 1508      00
 1509              	.LEHE68:
 1510              	.L114:
 100:testCore.cpp  **** 	*item = 7;
 1511              		.loc 3 100 0 is_stmt 1
 1512 09e2 488B4580 		movq	-128(%rbp), %rax
 1513 09e6 C7000700 		movl	$7, (%rax)
 1513      0000
 101:testCore.cpp  **** 	queueCommitPut(&queue);
 1514              		.loc 3 101 0
 1515 09ec 488D45B0 		leaq	-80(%rbp), %rax
 1516 09f0 4889C7   		movq	%rax, %rdi
 1517              	.LEHB69:
 1518 09f3 E8000000 		call	queueCommitPut@PLT
 1518      00
 1519              	.LEHE69:
 1520              	.LEHB70:
 102:testCore.cpp  **** 
 103:testCore.cpp  **** 	// Verify
 104:testCore.cpp  **** 	CHECK_EQUAL(4UL, queue.capacity);
 1521              		.loc 3 104 0
 1522 09f8 E8000000 		call	_ZN8UnitTest11CurrentTest7DetailsEv@PLT
 1522      00
 1523 09fd 488B08   		movq	(%rax), %rcx
 1524 0a00 488D4590 		leaq	-112(%rbp), %rax
 1525 0a04 BA680000 		movl	$104, %edx
 1525      00
 1526 0a09 4889CE   		movq	%rcx, %rsi
 1527 0a0c 4889C7   		movq	%rax, %rdi
 1528 0a0f E8000000 		call	_ZN8UnitTest11TestDetailsC1ERKS0_i@PLT
 1528      00
 1529              	.LEHE70:
 1530              		.loc 3 104 0 is_stmt 0 discriminator 2
 1531 0a14 48C74588 		movq	$4, -120(%rbp)
 1531      04000000 
 1532              	.LEHB71:
 1533 0a1c E8000000 		call	_ZN8UnitTest11CurrentTest7ResultsEv@PLT
 1533      00
 1534 0a21 488B00   		movq	(%rax), %rax
 1535 0a24 488D5590 		leaq	-112(%rbp), %rdx
 1536 0a28 488D4DB0 		leaq	-80(%rbp), %rcx
 1537 0a2c 488D7908 		leaq	8(%rcx), %rdi
 1538 0a30 488D7588 		leaq	-120(%rbp), %rsi
 1539 0a34 4889D1   		movq	%rdx, %rcx
 1540 0a37 4889FA   		movq	%rdi, %rdx
 1541 0a3a 4889C7   		movq	%rax, %rdi
 1542 0a3d E8000000 		call	_ZN8UnitTest10CheckEqualImmEEvRNS_11TestResultsERKT_RKT0_RKNS_11TestDetailsE
 1542      00
 1543              	.LEHE71:
 1544              	.L118:
 1545              	.LEHB72:
 105:testCore.cpp  **** 	CHECK_EQUAL(3UL, queue.putIndex);
 1546              		.loc 3 105 0 is_stmt 1
 1547 0a42 E8000000 		call	_ZN8UnitTest11CurrentTest7DetailsEv@PLT
 1547      00
 1548 0a47 488B08   		movq	(%rax), %rcx
 1549 0a4a 488D4590 		leaq	-112(%rbp), %rax
 1550 0a4e BA690000 		movl	$105, %edx
 1550      00
 1551 0a53 4889CE   		movq	%rcx, %rsi
 1552 0a56 4889C7   		movq	%rax, %rdi
 1553 0a59 E8000000 		call	_ZN8UnitTest11TestDetailsC1ERKS0_i@PLT
 1553      00
 1554              	.LEHE72:
 1555              		.loc 3 105 0 is_stmt 0 discriminator 2
 1556 0a5e 48C74588 		movq	$3, -120(%rbp)
 1556      03000000 
 1557              	.LEHB73:
 1558 0a66 E8000000 		call	_ZN8UnitTest11CurrentTest7ResultsEv@PLT
 1558      00
 1559 0a6b 488B00   		movq	(%rax), %rax
 1560 0a6e 488D5590 		leaq	-112(%rbp), %rdx
 1561 0a72 488D4DB0 		leaq	-80(%rbp), %rcx
 1562 0a76 488D7910 		leaq	16(%rcx), %rdi
 1563 0a7a 488D7588 		leaq	-120(%rbp), %rsi
 1564 0a7e 4889D1   		movq	%rdx, %rcx
 1565 0a81 4889FA   		movq	%rdi, %rdx
 1566 0a84 4889C7   		movq	%rax, %rdi
 1567 0a87 E8000000 		call	_ZN8UnitTest10CheckEqualImmEEvRNS_11TestResultsERKT_RKT0_RKNS_11TestDetailsE
 1567      00
 1568              	.LEHE73:
 1569              	.L122:
 1570              	.LEHB74:
 106:testCore.cpp  **** 	CHECK_EQUAL(0UL, queue.takeIndex);
 1571              		.loc 3 106 0 is_stmt 1
 1572 0a8c E8000000 		call	_ZN8UnitTest11CurrentTest7DetailsEv@PLT
 1572      00
 1573 0a91 488B08   		movq	(%rax), %rcx
 1574 0a94 488D4590 		leaq	-112(%rbp), %rax
 1575 0a98 BA6A0000 		movl	$106, %edx
 1575      00
 1576 0a9d 4889CE   		movq	%rcx, %rsi
 1577 0aa0 4889C7   		movq	%rax, %rdi
 1578 0aa3 E8000000 		call	_ZN8UnitTest11TestDetailsC1ERKS0_i@PLT
 1578      00
 1579              	.LEHE74:
 1580              		.loc 3 106 0 is_stmt 0 discriminator 2
 1581 0aa8 48C74588 		movq	$0, -120(%rbp)
 1581      00000000 
 1582              	.LEHB75:
 1583 0ab0 E8000000 		call	_ZN8UnitTest11CurrentTest7ResultsEv@PLT
 1583      00
 1584 0ab5 488B00   		movq	(%rax), %rax
 1585 0ab8 488D5590 		leaq	-112(%rbp), %rdx
 1586 0abc 488D4DB0 		leaq	-80(%rbp), %rcx
 1587 0ac0 488D7918 		leaq	24(%rcx), %rdi
 1588 0ac4 488D7588 		leaq	-120(%rbp), %rsi
 1589 0ac8 4889D1   		movq	%rdx, %rcx
 1590 0acb 4889FA   		movq	%rdi, %rdx
 1591 0ace 4889C7   		movq	%rax, %rdi
 1592 0ad1 E8000000 		call	_ZN8UnitTest10CheckEqualImmEEvRNS_11TestResultsERKT_RKT0_RKNS_11TestDetailsE
 1592      00
 1593              	.LEHE75:
 1594              	.L126:
 1595              	.LEHB76:
 107:testCore.cpp  **** 	CHECK_EQUAL(3UL, queue.numItems);
 1596              		.loc 3 107 0 is_stmt 1
 1597 0ad6 E8000000 		call	_ZN8UnitTest11CurrentTest7DetailsEv@PLT
 1597      00
 1598 0adb 488B08   		movq	(%rax), %rcx
 1599 0ade 488D4590 		leaq	-112(%rbp), %rax
 1600 0ae2 BA6B0000 		movl	$107, %edx
 1600      00
 1601 0ae7 4889CE   		movq	%rcx, %rsi
 1602 0aea 4889C7   		movq	%rax, %rdi
 1603 0aed E8000000 		call	_ZN8UnitTest11TestDetailsC1ERKS0_i@PLT
 1603      00
 1604              	.LEHE76:
 1605              		.loc 3 107 0 is_stmt 0 discriminator 2
 1606 0af2 48C74588 		movq	$3, -120(%rbp)
 1606      03000000 
 1607              	.LEHB77:
 1608 0afa E8000000 		call	_ZN8UnitTest11CurrentTest7ResultsEv@PLT
 1608      00
 1609 0aff 488B00   		movq	(%rax), %rax
 1610 0b02 488D5590 		leaq	-112(%rbp), %rdx
 1611 0b06 488D4DB0 		leaq	-80(%rbp), %rcx
 1612 0b0a 488D7920 		leaq	32(%rcx), %rdi
 1613 0b0e 488D7588 		leaq	-120(%rbp), %rsi
 1614 0b12 4889D1   		movq	%rdx, %rcx
 1615 0b15 4889FA   		movq	%rdi, %rdx
 1616 0b18 4889C7   		movq	%rax, %rdi
 1617 0b1b E8000000 		call	_ZN8UnitTest10CheckEqualImmEEvRNS_11TestResultsERKT_RKT0_RKNS_11TestDetailsE
 1617      00
 1618              	.LEHE77:
 1619              	.L130:
 1620              	.LEHB78:
 108:testCore.cpp  **** 
 109:testCore.cpp  **** 	// Verify array
 110:testCore.cpp  **** 	CHECK_EQUAL(5UL, deref(queue.itemArray[0]));
 1621              		.loc 3 110 0 is_stmt 1
 1622 0b20 E8000000 		call	_ZN8UnitTest11CurrentTest7DetailsEv@PLT
 1622      00
 1623 0b25 488B08   		movq	(%rax), %rcx
 1624 0b28 488D4590 		leaq	-112(%rbp), %rax
 1625 0b2c BA6E0000 		movl	$110, %edx
 1625      00
 1626 0b31 4889CE   		movq	%rcx, %rsi
 1627 0b34 4889C7   		movq	%rax, %rdi
 1628 0b37 E8000000 		call	_ZN8UnitTest11TestDetailsC1ERKS0_i@PLT
 1628      00
 1629              	.LEHE78:
 1630              		.loc 3 110 0 is_stmt 0 discriminator 2
 1631 0b3c 488B45B0 		movq	-80(%rbp), %rax
 1632 0b40 488B00   		movq	(%rax), %rax
 1633 0b43 4889C7   		movq	%rax, %rdi
 1634 0b46 E83FF5FF 		call	_ZL5derefPKv
 1634      FF
 1635 0b4b 89857CFF 		movl	%eax, -132(%rbp)
 1635      FFFF
 1636 0b51 48C74588 		movq	$5, -120(%rbp)
 1636      05000000 
 1637              	.LEHB79:
 1638 0b59 E8000000 		call	_ZN8UnitTest11CurrentTest7ResultsEv@PLT
 1638      00
 1639 0b5e 488B00   		movq	(%rax), %rax
 1640 0b61 488D4D90 		leaq	-112(%rbp), %rcx
 1641 0b65 488D957C 		leaq	-132(%rbp), %rdx
 1641      FFFFFF
 1642 0b6c 488D7588 		leaq	-120(%rbp), %rsi
 1643 0b70 4889C7   		movq	%rax, %rdi
 1644 0b73 E8000000 		call	_ZN8UnitTest10CheckEqualImjEEvRNS_11TestResultsERKT_RKT0_RKNS_11TestDetailsE
 1644      00
 1645              	.LEHE79:
 1646              	.L134:
 1647              	.LEHB80:
 111:testCore.cpp  **** 	CHECK_EQUAL(6UL, deref(queue.itemArray[1]));
 1648              		.loc 3 111 0 is_stmt 1
 1649 0b78 E8000000 		call	_ZN8UnitTest11CurrentTest7DetailsEv@PLT
 1649      00
 1650 0b7d 488B08   		movq	(%rax), %rcx
 1651 0b80 488D4590 		leaq	-112(%rbp), %rax
 1652 0b84 BA6F0000 		movl	$111, %edx
 1652      00
 1653 0b89 4889CE   		movq	%rcx, %rsi
 1654 0b8c 4889C7   		movq	%rax, %rdi
 1655 0b8f E8000000 		call	_ZN8UnitTest11TestDetailsC1ERKS0_i@PLT
 1655      00
 1656              	.LEHE80:
 1657              		.loc 3 111 0 is_stmt 0 discriminator 2
 1658 0b94 488B45B0 		movq	-80(%rbp), %rax
 1659 0b98 4883C008 		addq	$8, %rax
 1660 0b9c 488B00   		movq	(%rax), %rax
 1661 0b9f 4889C7   		movq	%rax, %rdi
 1662 0ba2 E8E3F4FF 		call	_ZL5derefPKv
 1662      FF
 1663 0ba7 89857CFF 		movl	%eax, -132(%rbp)
 1663      FFFF
 1664 0bad 48C74588 		movq	$6, -120(%rbp)
 1664      06000000 
 1665              	.LEHB81:
 1666 0bb5 E8000000 		call	_ZN8UnitTest11CurrentTest7ResultsEv@PLT
 1666      00
 1667 0bba 488B00   		movq	(%rax), %rax
 1668 0bbd 488D4D90 		leaq	-112(%rbp), %rcx
 1669 0bc1 488D957C 		leaq	-132(%rbp), %rdx
 1669      FFFFFF
 1670 0bc8 488D7588 		leaq	-120(%rbp), %rsi
 1671 0bcc 4889C7   		movq	%rax, %rdi
 1672 0bcf E8000000 		call	_ZN8UnitTest10CheckEqualImjEEvRNS_11TestResultsERKT_RKT0_RKNS_11TestDetailsE
 1672      00
 1673              	.LEHE81:
 1674              	.L138:
 1675              	.LEHB82:
 112:testCore.cpp  **** 	CHECK_EQUAL(7UL, deref(queue.itemArray[2]));
 1676              		.loc 3 112 0 is_stmt 1
 1677 0bd4 E8000000 		call	_ZN8UnitTest11CurrentTest7DetailsEv@PLT
 1677      00
 1678 0bd9 488B08   		movq	(%rax), %rcx
 1679 0bdc 488D4590 		leaq	-112(%rbp), %rax
 1680 0be0 BA700000 		movl	$112, %edx
 1680      00
 1681 0be5 4889CE   		movq	%rcx, %rsi
 1682 0be8 4889C7   		movq	%rax, %rdi
 1683 0beb E8000000 		call	_ZN8UnitTest11TestDetailsC1ERKS0_i@PLT
 1683      00
 1684              	.LEHE82:
 1685              		.loc 3 112 0 is_stmt 0 discriminator 2
 1686 0bf0 488B45B0 		movq	-80(%rbp), %rax
 1687 0bf4 4883C010 		addq	$16, %rax
 1688 0bf8 488B00   		movq	(%rax), %rax
 1689 0bfb 4889C7   		movq	%rax, %rdi
 1690 0bfe E887F4FF 		call	_ZL5derefPKv
 1690      FF
 1691 0c03 89857CFF 		movl	%eax, -132(%rbp)
 1691      FFFF
 1692 0c09 48C74588 		movq	$7, -120(%rbp)
 1692      07000000 
 1693              	.LEHB83:
 1694 0c11 E8000000 		call	_ZN8UnitTest11CurrentTest7ResultsEv@PLT
 1694      00
 1695 0c16 488B00   		movq	(%rax), %rax
 1696 0c19 488D4D90 		leaq	-112(%rbp), %rcx
 1697 0c1d 488D957C 		leaq	-132(%rbp), %rdx
 1697      FFFFFF
 1698 0c24 488D7588 		leaq	-120(%rbp), %rsi
 1699 0c28 4889C7   		movq	%rax, %rdi
 1700 0c2b E8000000 		call	_ZN8UnitTest10CheckEqualImjEEvRNS_11TestResultsERKT_RKT0_RKNS_11TestDetailsE
 1700      00
 1701              	.LEHE83:
 1702              	.L142:
 1703              	.LEHB84:
 113:testCore.cpp  **** 	CHECK_EQUAL(4UL, deref(queue.itemArray[3]));
 1704              		.loc 3 113 0 is_stmt 1
 1705 0c30 E8000000 		call	_ZN8UnitTest11CurrentTest7DetailsEv@PLT
 1705      00
 1706 0c35 488B08   		movq	(%rax), %rcx
 1707 0c38 488D4590 		leaq	-112(%rbp), %rax
 1708 0c3c BA710000 		movl	$113, %edx
 1708      00
 1709 0c41 4889CE   		movq	%rcx, %rsi
 1710 0c44 4889C7   		movq	%rax, %rdi
 1711 0c47 E8000000 		call	_ZN8UnitTest11TestDetailsC1ERKS0_i@PLT
 1711      00
 1712              	.LEHE84:
 1713              		.loc 3 113 0 is_stmt 0 discriminator 2
 1714 0c4c 488B45B0 		movq	-80(%rbp), %rax
 1715 0c50 4883C018 		addq	$24, %rax
 1716 0c54 488B00   		movq	(%rax), %rax
 1717 0c57 4889C7   		movq	%rax, %rdi
 1718 0c5a E82BF4FF 		call	_ZL5derefPKv
 1718      FF
 1719 0c5f 89857CFF 		movl	%eax, -132(%rbp)
 1719      FFFF
 1720 0c65 48C74588 		movq	$4, -120(%rbp)
 1720      04000000 
 1721              	.LEHB85:
 1722 0c6d E8000000 		call	_ZN8UnitTest11CurrentTest7ResultsEv@PLT
 1722      00
 1723 0c72 488B00   		movq	(%rax), %rax
 1724 0c75 488D4D90 		leaq	-112(%rbp), %rcx
 1725 0c79 488D957C 		leaq	-132(%rbp), %rdx
 1725      FFFFFF
 1726 0c80 488D7588 		leaq	-120(%rbp), %rsi
 1727 0c84 4889C7   		movq	%rax, %rdi
 1728 0c87 E8000000 		call	_ZN8UnitTest10CheckEqualImjEEvRNS_11TestResultsERKT_RKT0_RKNS_11TestDetailsE
 1728      00
 1729              	.LEHE85:
 1730              	.L146:
 114:testCore.cpp  **** 
 115:testCore.cpp  **** 	// Clean up
 116:testCore.cpp  **** 	queueDestroy(&queue);
 1731              		.loc 3 116 0 is_stmt 1
 1732 0c8c 488D45B0 		leaq	-80(%rbp), %rax
 1733 0c90 4889C7   		movq	%rax, %rdi
 1734              	.LEHB86:
 1735 0c93 E8000000 		call	queueDestroy@PLT
 1735      00
 1736              	.LEHE86:
 117:testCore.cpp  **** }
 1737              		.loc 3 117 0
 1738 0c98 90       		nop
 1739 0c99 488B45E8 		movq	-24(%rbp), %rax
 1740 0c9d 64483304 		xorq	%fs:40, %rax
 1740      25280000 
 1740      00
 1741 0ca6 0F84B905 		je	.L148
 1741      0000
 1742 0cac E9AF0500 		jmp	.L194
 1742      00
 1743              	.L150:
 1744 0cb1 EB00     		jmp	.L89
 1745              	.L149:
 1746              	.L89:
  84:testCore.cpp  **** 
 1747              		.loc 3 84 0
 1748 0cb3 4889C7   		movq	%rax, %rdi
 1749 0cb6 E8000000 		call	__cxa_begin_catch@PLT
 1749      00
 1750              	.LEHB87:
 1751 0cbb E8000000 		call	_ZN8UnitTest11CurrentTest7ResultsEv@PLT
 1751      00
 1752 0cc0 488B18   		movq	(%rax), %rbx
 1753 0cc3 E8000000 		call	_ZN8UnitTest11CurrentTest7DetailsEv@PLT
 1753      00
  84:testCore.cpp  **** 
 1754              		.loc 3 84 0 is_stmt 0 discriminator 8
 1755 0cc8 488B08   		movq	(%rax), %rcx
 1756 0ccb 488D4590 		leaq	-112(%rbp), %rax
 1757 0ccf BA540000 		movl	$84, %edx
 1757      00
 1758 0cd4 4889CE   		movq	%rcx, %rsi
 1759 0cd7 4889C7   		movq	%rax, %rdi
 1760 0cda E8000000 		call	_ZN8UnitTest11TestDetailsC1ERKS0_i@PLT
 1760      00
  84:testCore.cpp  **** 
 1761              		.loc 3 84 0 discriminator 12
 1762 0cdf 488D4590 		leaq	-112(%rbp), %rax
 1763 0ce3 488D1500 		leaq	.LC3(%rip), %rdx
 1763      000000
 1764 0cea 4889C6   		movq	%rax, %rsi
 1765 0ced 4889DF   		movq	%rbx, %rdi
 1766 0cf0 E8000000 		call	_ZN8UnitTest11TestResults13OnTestFailureERKNS_11TestDetailsEPKc@PLT
 1766      00
 1767              	.LEHE87:
 1768              	.LEHB88:
  84:testCore.cpp  **** 
 1769              		.loc 3 84 0 discriminator 14
 1770 0cf5 E8000000 		call	__cxa_end_catch@PLT
 1770      00
 1771              	.LEHE88:
 1772 0cfa E9D4FAFF 		jmp	.L90
 1772      FF
 1773              	.L151:
 1774 0cff 4889C3   		movq	%rax, %rbx
  84:testCore.cpp  **** 
 1775              		.loc 3 84 0
 1776 0d02 E8000000 		call	__cxa_end_catch@PLT
 1776      00
 1777 0d07 4889D8   		movq	%rbx, %rax
 1778 0d0a 4889C7   		movq	%rax, %rdi
 1779              	.LEHB89:
 1780 0d0d E8000000 		call	_Unwind_Resume@PLT
 1780      00
 1781              	.LEHE89:
 1782              	.L153:
 1783 0d12 EB00     		jmp	.L93
 1784              	.L152:
 1785              	.L93:
  88:testCore.cpp  **** 	CHECK_EQUAL(1UL, *item);
 1786              		.loc 3 88 0 is_stmt 1
 1787 0d14 4889C7   		movq	%rax, %rdi
 1788 0d17 E8000000 		call	__cxa_begin_catch@PLT
 1788      00
 1789              	.LEHB90:
 1790 0d1c E8000000 		call	_ZN8UnitTest11CurrentTest7ResultsEv@PLT
 1790      00
 1791 0d21 488B18   		movq	(%rax), %rbx
 1792 0d24 E8000000 		call	_ZN8UnitTest11CurrentTest7DetailsEv@PLT
 1792      00
  88:testCore.cpp  **** 	CHECK_EQUAL(1UL, *item);
 1793              		.loc 3 88 0 is_stmt 0 discriminator 8
 1794 0d29 488B08   		movq	(%rax), %rcx
 1795 0d2c 488D4590 		leaq	-112(%rbp), %rax
 1796 0d30 BA580000 		movl	$88, %edx
 1796      00
 1797 0d35 4889CE   		movq	%rcx, %rsi
 1798 0d38 4889C7   		movq	%rax, %rdi
 1799 0d3b E8000000 		call	_ZN8UnitTest11TestDetailsC1ERKS0_i@PLT
 1799      00
  88:testCore.cpp  **** 	CHECK_EQUAL(1UL, *item);
 1800              		.loc 3 88 0 discriminator 12
 1801 0d40 488D4590 		leaq	-112(%rbp), %rax
 1802 0d44 488D1500 		leaq	.LC3(%rip), %rdx
 1802      000000
 1803 0d4b 4889C6   		movq	%rax, %rsi
 1804 0d4e 4889DF   		movq	%rbx, %rdi
 1805 0d51 E8000000 		call	_ZN8UnitTest11TestResults13OnTestFailureERKNS_11TestDetailsEPKc@PLT
 1805      00
 1806              	.LEHE90:
 1807              	.LEHB91:
  88:testCore.cpp  **** 	CHECK_EQUAL(1UL, *item);
 1808              		.loc 3 88 0 discriminator 14
 1809 0d56 E8000000 		call	__cxa_end_catch@PLT
 1809      00
 1810              	.LEHE91:
 1811 0d5b E9CEFAFF 		jmp	.L94
 1811      FF
 1812              	.L154:
 1813 0d60 4889C3   		movq	%rax, %rbx
  88:testCore.cpp  **** 	CHECK_EQUAL(1UL, *item);
 1814              		.loc 3 88 0
 1815 0d63 E8000000 		call	__cxa_end_catch@PLT
 1815      00
 1816 0d68 4889D8   		movq	%rbx, %rax
 1817 0d6b 4889C7   		movq	%rax, %rdi
 1818              	.LEHB92:
 1819 0d6e E8000000 		call	_Unwind_Resume@PLT
 1819      00
 1820              	.LEHE92:
 1821              	.L156:
 1822 0d73 EB00     		jmp	.L97
 1823              	.L155:
 1824              	.L97:
  89:testCore.cpp  **** 	*item = 5;
 1825              		.loc 3 89 0 is_stmt 1
 1826 0d75 4889C7   		movq	%rax, %rdi
 1827 0d78 E8000000 		call	__cxa_begin_catch@PLT
 1827      00
 1828              	.LEHB93:
 1829 0d7d E8000000 		call	_ZN8UnitTest11CurrentTest7ResultsEv@PLT
 1829      00
 1830 0d82 488B18   		movq	(%rax), %rbx
 1831 0d85 E8000000 		call	_ZN8UnitTest11CurrentTest7DetailsEv@PLT
 1831      00
  89:testCore.cpp  **** 	*item = 5;
 1832              		.loc 3 89 0 is_stmt 0 discriminator 8
 1833 0d8a 488B08   		movq	(%rax), %rcx
 1834 0d8d 488D4590 		leaq	-112(%rbp), %rax
 1835 0d91 BA590000 		movl	$89, %edx
 1835      00
 1836 0d96 4889CE   		movq	%rcx, %rsi
 1837 0d99 4889C7   		movq	%rax, %rdi
 1838 0d9c E8000000 		call	_ZN8UnitTest11TestDetailsC1ERKS0_i@PLT
 1838      00
  89:testCore.cpp  **** 	*item = 5;
 1839              		.loc 3 89 0 discriminator 12
 1840 0da1 488D4590 		leaq	-112(%rbp), %rax
 1841 0da5 488D1500 		leaq	.LC13(%rip), %rdx
 1841      000000
 1842 0dac 4889C6   		movq	%rax, %rsi
 1843 0daf 4889DF   		movq	%rbx, %rdi
 1844 0db2 E8000000 		call	_ZN8UnitTest11TestResults13OnTestFailureERKNS_11TestDetailsEPKc@PLT
 1844      00
 1845              	.LEHE93:
 1846              	.LEHB94:
  89:testCore.cpp  **** 	*item = 5;
 1847              		.loc 3 89 0 discriminator 14
 1848 0db7 E8000000 		call	__cxa_end_catch@PLT
 1848      00
 1849              	.LEHE94:
 1850 0dbc E9B3FAFF 		jmp	.L98
 1850      FF
 1851              	.L157:
 1852 0dc1 4889C3   		movq	%rax, %rbx
  89:testCore.cpp  **** 	*item = 5;
 1853              		.loc 3 89 0
 1854 0dc4 E8000000 		call	__cxa_end_catch@PLT
 1854      00
 1855 0dc9 4889D8   		movq	%rbx, %rax
 1856 0dcc 4889C7   		movq	%rax, %rdi
 1857              	.LEHB95:
 1858 0dcf E8000000 		call	_Unwind_Resume@PLT
 1858      00
 1859              	.LEHE95:
 1860              	.L159:
 1861 0dd4 EB00     		jmp	.L101
 1862              	.L158:
 1863              	.L101:
  93:testCore.cpp  **** 	CHECK_EQUAL(2UL, *item);
 1864              		.loc 3 93 0 is_stmt 1
 1865 0dd6 4889C7   		movq	%rax, %rdi
 1866 0dd9 E8000000 		call	__cxa_begin_catch@PLT
 1866      00
 1867              	.LEHB96:
 1868 0dde E8000000 		call	_ZN8UnitTest11CurrentTest7ResultsEv@PLT
 1868      00
 1869 0de3 488B18   		movq	(%rax), %rbx
 1870 0de6 E8000000 		call	_ZN8UnitTest11CurrentTest7DetailsEv@PLT
 1870      00
  93:testCore.cpp  **** 	CHECK_EQUAL(2UL, *item);
 1871              		.loc 3 93 0 is_stmt 0 discriminator 8
 1872 0deb 488B08   		movq	(%rax), %rcx
 1873 0dee 488D4590 		leaq	-112(%rbp), %rax
 1874 0df2 BA5D0000 		movl	$93, %edx
 1874      00
 1875 0df7 4889CE   		movq	%rcx, %rsi
 1876 0dfa 4889C7   		movq	%rax, %rdi
 1877 0dfd E8000000 		call	_ZN8UnitTest11TestDetailsC1ERKS0_i@PLT
 1877      00
  93:testCore.cpp  **** 	CHECK_EQUAL(2UL, *item);
 1878              		.loc 3 93 0 discriminator 12
 1879 0e02 488D4590 		leaq	-112(%rbp), %rax
 1880 0e06 488D1500 		leaq	.LC3(%rip), %rdx
 1880      000000
 1881 0e0d 4889C6   		movq	%rax, %rsi
 1882 0e10 4889DF   		movq	%rbx, %rdi
 1883 0e13 E8000000 		call	_ZN8UnitTest11TestResults13OnTestFailureERKNS_11TestDetailsEPKc@PLT
 1883      00
 1884              	.LEHE96:
 1885              	.LEHB97:
  93:testCore.cpp  **** 	CHECK_EQUAL(2UL, *item);
 1886              		.loc 3 93 0 discriminator 14
 1887 0e18 E8000000 		call	__cxa_end_catch@PLT
 1887      00
 1888              	.LEHE97:
 1889 0e1d E9C3FAFF 		jmp	.L102
 1889      FF
 1890              	.L160:
 1891 0e22 4889C3   		movq	%rax, %rbx
  93:testCore.cpp  **** 	CHECK_EQUAL(2UL, *item);
 1892              		.loc 3 93 0
 1893 0e25 E8000000 		call	__cxa_end_catch@PLT
 1893      00
 1894 0e2a 4889D8   		movq	%rbx, %rax
 1895 0e2d 4889C7   		movq	%rax, %rdi
 1896              	.LEHB98:
 1897 0e30 E8000000 		call	_Unwind_Resume@PLT
 1897      00
 1898              	.LEHE98:
 1899              	.L162:
 1900 0e35 EB00     		jmp	.L105
 1901              	.L161:
 1902              	.L105:
  94:testCore.cpp  **** 	*item = 6;
 1903              		.loc 3 94 0 is_stmt 1
 1904 0e37 4889C7   		movq	%rax, %rdi
 1905 0e3a E8000000 		call	__cxa_begin_catch@PLT
 1905      00
 1906              	.LEHB99:
 1907 0e3f E8000000 		call	_ZN8UnitTest11CurrentTest7ResultsEv@PLT
 1907      00
 1908 0e44 488B18   		movq	(%rax), %rbx
 1909 0e47 E8000000 		call	_ZN8UnitTest11CurrentTest7DetailsEv@PLT
 1909      00
  94:testCore.cpp  **** 	*item = 6;
 1910              		.loc 3 94 0 is_stmt 0 discriminator 8
 1911 0e4c 488B08   		movq	(%rax), %rcx
 1912 0e4f 488D4590 		leaq	-112(%rbp), %rax
 1913 0e53 BA5E0000 		movl	$94, %edx
 1913      00
 1914 0e58 4889CE   		movq	%rcx, %rsi
 1915 0e5b 4889C7   		movq	%rax, %rdi
 1916 0e5e E8000000 		call	_ZN8UnitTest11TestDetailsC1ERKS0_i@PLT
 1916      00
  94:testCore.cpp  **** 	*item = 6;
 1917              		.loc 3 94 0 discriminator 12
 1918 0e63 488D4590 		leaq	-112(%rbp), %rax
 1919 0e67 488D1500 		leaq	.LC14(%rip), %rdx
 1919      000000
 1920 0e6e 4889C6   		movq	%rax, %rsi
 1921 0e71 4889DF   		movq	%rbx, %rdi
 1922 0e74 E8000000 		call	_ZN8UnitTest11TestResults13OnTestFailureERKNS_11TestDetailsEPKc@PLT
 1922      00
 1923              	.LEHE99:
 1924              	.LEHB100:
  94:testCore.cpp  **** 	*item = 6;
 1925              		.loc 3 94 0 discriminator 14
 1926 0e79 E8000000 		call	__cxa_end_catch@PLT
 1926      00
 1927              	.LEHE100:
 1928 0e7e E9A8FAFF 		jmp	.L106
 1928      FF
 1929              	.L163:
 1930 0e83 4889C3   		movq	%rax, %rbx
  94:testCore.cpp  **** 	*item = 6;
 1931              		.loc 3 94 0
 1932 0e86 E8000000 		call	__cxa_end_catch@PLT
 1932      00
 1933 0e8b 4889D8   		movq	%rbx, %rax
 1934 0e8e 4889C7   		movq	%rax, %rdi
 1935              	.LEHB101:
 1936 0e91 E8000000 		call	_Unwind_Resume@PLT
 1936      00
 1937              	.LEHE101:
 1938              	.L165:
 1939 0e96 EB00     		jmp	.L109
 1940              	.L164:
 1941              	.L109:
  98:testCore.cpp  **** 	CHECK_EQUAL(3UL, *item);
 1942              		.loc 3 98 0 is_stmt 1
 1943 0e98 4889C7   		movq	%rax, %rdi
 1944 0e9b E8000000 		call	__cxa_begin_catch@PLT
 1944      00
 1945              	.LEHB102:
 1946 0ea0 E8000000 		call	_ZN8UnitTest11CurrentTest7ResultsEv@PLT
 1946      00
 1947 0ea5 488B18   		movq	(%rax), %rbx
 1948 0ea8 E8000000 		call	_ZN8UnitTest11CurrentTest7DetailsEv@PLT
 1948      00
  98:testCore.cpp  **** 	CHECK_EQUAL(3UL, *item);
 1949              		.loc 3 98 0 is_stmt 0 discriminator 8
 1950 0ead 488B08   		movq	(%rax), %rcx
 1951 0eb0 488D4590 		leaq	-112(%rbp), %rax
 1952 0eb4 BA620000 		movl	$98, %edx
 1952      00
 1953 0eb9 4889CE   		movq	%rcx, %rsi
 1954 0ebc 4889C7   		movq	%rax, %rdi
 1955 0ebf E8000000 		call	_ZN8UnitTest11TestDetailsC1ERKS0_i@PLT
 1955      00
  98:testCore.cpp  **** 	CHECK_EQUAL(3UL, *item);
 1956              		.loc 3 98 0 discriminator 12
 1957 0ec4 488D4590 		leaq	-112(%rbp), %rax
 1958 0ec8 488D1500 		leaq	.LC3(%rip), %rdx
 1958      000000
 1959 0ecf 4889C6   		movq	%rax, %rsi
 1960 0ed2 4889DF   		movq	%rbx, %rdi
 1961 0ed5 E8000000 		call	_ZN8UnitTest11TestResults13OnTestFailureERKNS_11TestDetailsEPKc@PLT
 1961      00
 1962              	.LEHE102:
 1963              	.LEHB103:
  98:testCore.cpp  **** 	CHECK_EQUAL(3UL, *item);
 1964              		.loc 3 98 0 discriminator 14
 1965 0eda E8000000 		call	__cxa_end_catch@PLT
 1965      00
 1966              	.LEHE103:
 1967 0edf E9B8FAFF 		jmp	.L110
 1967      FF
 1968              	.L166:
 1969 0ee4 4889C3   		movq	%rax, %rbx
  98:testCore.cpp  **** 	CHECK_EQUAL(3UL, *item);
 1970              		.loc 3 98 0
 1971 0ee7 E8000000 		call	__cxa_end_catch@PLT
 1971      00
 1972 0eec 4889D8   		movq	%rbx, %rax
 1973 0eef 4889C7   		movq	%rax, %rdi
 1974              	.LEHB104:
 1975 0ef2 E8000000 		call	_Unwind_Resume@PLT
 1975      00
 1976              	.LEHE104:
 1977              	.L168:
 1978 0ef7 EB00     		jmp	.L113
 1979              	.L167:
 1980              	.L113:
  99:testCore.cpp  **** 	*item = 7;
 1981              		.loc 3 99 0 is_stmt 1
 1982 0ef9 4889C7   		movq	%rax, %rdi
 1983 0efc E8000000 		call	__cxa_begin_catch@PLT
 1983      00
 1984              	.LEHB105:
 1985 0f01 E8000000 		call	_ZN8UnitTest11CurrentTest7ResultsEv@PLT
 1985      00
 1986 0f06 488B18   		movq	(%rax), %rbx
 1987 0f09 E8000000 		call	_ZN8UnitTest11CurrentTest7DetailsEv@PLT
 1987      00
  99:testCore.cpp  **** 	*item = 7;
 1988              		.loc 3 99 0 is_stmt 0 discriminator 8
 1989 0f0e 488B08   		movq	(%rax), %rcx
 1990 0f11 488D4590 		leaq	-112(%rbp), %rax
 1991 0f15 BA630000 		movl	$99, %edx
 1991      00
 1992 0f1a 4889CE   		movq	%rcx, %rsi
 1993 0f1d 4889C7   		movq	%rax, %rdi
 1994 0f20 E8000000 		call	_ZN8UnitTest11TestDetailsC1ERKS0_i@PLT
 1994      00
  99:testCore.cpp  **** 	*item = 7;
 1995              		.loc 3 99 0 discriminator 12
 1996 0f25 488D4590 		leaq	-112(%rbp), %rax
 1997 0f29 488D1500 		leaq	.LC15(%rip), %rdx
 1997      000000
 1998 0f30 4889C6   		movq	%rax, %rsi
 1999 0f33 4889DF   		movq	%rbx, %rdi
 2000 0f36 E8000000 		call	_ZN8UnitTest11TestResults13OnTestFailureERKNS_11TestDetailsEPKc@PLT
 2000      00
 2001              	.LEHE105:
 2002              	.LEHB106:
  99:testCore.cpp  **** 	*item = 7;
 2003              		.loc 3 99 0 discriminator 14
 2004 0f3b E8000000 		call	__cxa_end_catch@PLT
 2004      00
 2005              	.LEHE106:
 2006 0f40 E99DFAFF 		jmp	.L114
 2006      FF
 2007              	.L169:
 2008 0f45 4889C3   		movq	%rax, %rbx
  99:testCore.cpp  **** 	*item = 7;
 2009              		.loc 3 99 0
 2010 0f48 E8000000 		call	__cxa_end_catch@PLT
 2010      00
 2011 0f4d 4889D8   		movq	%rbx, %rax
 2012 0f50 4889C7   		movq	%rax, %rdi
 2013              	.LEHB107:
 2014 0f53 E8000000 		call	_Unwind_Resume@PLT
 2014      00
 2015              	.LEHE107:
 2016              	.L171:
 2017 0f58 EB00     		jmp	.L117
 2018              	.L170:
 2019              	.L117:
 104:testCore.cpp  **** 	CHECK_EQUAL(3UL, queue.putIndex);
 2020              		.loc 3 104 0 is_stmt 1
 2021 0f5a 4889C7   		movq	%rax, %rdi
 2022 0f5d E8000000 		call	__cxa_begin_catch@PLT
 2022      00
 2023              	.LEHB108:
 2024 0f62 E8000000 		call	_ZN8UnitTest11CurrentTest7ResultsEv@PLT
 2024      00
 2025 0f67 488B18   		movq	(%rax), %rbx
 2026 0f6a E8000000 		call	_ZN8UnitTest11CurrentTest7DetailsEv@PLT
 2026      00
 104:testCore.cpp  **** 	CHECK_EQUAL(3UL, queue.putIndex);
 2027              		.loc 3 104 0 is_stmt 0 discriminator 8
 2028 0f6f 488B08   		movq	(%rax), %rcx
 2029 0f72 488D4590 		leaq	-112(%rbp), %rax
 2030 0f76 BA680000 		movl	$104, %edx
 2030      00
 2031 0f7b 4889CE   		movq	%rcx, %rsi
 2032 0f7e 4889C7   		movq	%rax, %rdi
 2033 0f81 E8000000 		call	_ZN8UnitTest11TestDetailsC1ERKS0_i@PLT
 2033      00
 104:testCore.cpp  **** 	CHECK_EQUAL(3UL, queue.putIndex);
 2034              		.loc 3 104 0 discriminator 12
 2035 0f86 488D4590 		leaq	-112(%rbp), %rax
 2036 0f8a 488D1500 		leaq	.LC4(%rip), %rdx
 2036      000000
 2037 0f91 4889C6   		movq	%rax, %rsi
 2038 0f94 4889DF   		movq	%rbx, %rdi
 2039 0f97 E8000000 		call	_ZN8UnitTest11TestResults13OnTestFailureERKNS_11TestDetailsEPKc@PLT
 2039      00
 2040              	.LEHE108:
 2041              	.LEHB109:
 104:testCore.cpp  **** 	CHECK_EQUAL(3UL, queue.putIndex);
 2042              		.loc 3 104 0 discriminator 14
 2043 0f9c E8000000 		call	__cxa_end_catch@PLT
 2043      00
 2044              	.LEHE109:
 2045 0fa1 E99CFAFF 		jmp	.L118
 2045      FF
 2046              	.L172:
 2047 0fa6 4889C3   		movq	%rax, %rbx
 104:testCore.cpp  **** 	CHECK_EQUAL(3UL, queue.putIndex);
 2048              		.loc 3 104 0
 2049 0fa9 E8000000 		call	__cxa_end_catch@PLT
 2049      00
 2050 0fae 4889D8   		movq	%rbx, %rax
 2051 0fb1 4889C7   		movq	%rax, %rdi
 2052              	.LEHB110:
 2053 0fb4 E8000000 		call	_Unwind_Resume@PLT
 2053      00
 2054              	.LEHE110:
 2055              	.L174:
 2056 0fb9 EB00     		jmp	.L121
 2057              	.L173:
 2058              	.L121:
 105:testCore.cpp  **** 	CHECK_EQUAL(0UL, queue.takeIndex);
 2059              		.loc 3 105 0 is_stmt 1
 2060 0fbb 4889C7   		movq	%rax, %rdi
 2061 0fbe E8000000 		call	__cxa_begin_catch@PLT
 2061      00
 2062              	.LEHB111:
 2063 0fc3 E8000000 		call	_ZN8UnitTest11CurrentTest7ResultsEv@PLT
 2063      00
 2064 0fc8 488B18   		movq	(%rax), %rbx
 2065 0fcb E8000000 		call	_ZN8UnitTest11CurrentTest7DetailsEv@PLT
 2065      00
 105:testCore.cpp  **** 	CHECK_EQUAL(0UL, queue.takeIndex);
 2066              		.loc 3 105 0 is_stmt 0 discriminator 8
 2067 0fd0 488B08   		movq	(%rax), %rcx
 2068 0fd3 488D4590 		leaq	-112(%rbp), %rax
 2069 0fd7 BA690000 		movl	$105, %edx
 2069      00
 2070 0fdc 4889CE   		movq	%rcx, %rsi
 2071 0fdf 4889C7   		movq	%rax, %rdi
 2072 0fe2 E8000000 		call	_ZN8UnitTest11TestDetailsC1ERKS0_i@PLT
 2072      00
 105:testCore.cpp  **** 	CHECK_EQUAL(0UL, queue.takeIndex);
 2073              		.loc 3 105 0 discriminator 12
 2074 0fe7 488D4590 		leaq	-112(%rbp), %rax
 2075 0feb 488D1500 		leaq	.LC16(%rip), %rdx
 2075      000000
 2076 0ff2 4889C6   		movq	%rax, %rsi
 2077 0ff5 4889DF   		movq	%rbx, %rdi
 2078 0ff8 E8000000 		call	_ZN8UnitTest11TestResults13OnTestFailureERKNS_11TestDetailsEPKc@PLT
 2078      00
 2079              	.LEHE111:
 2080              	.LEHB112:
 105:testCore.cpp  **** 	CHECK_EQUAL(0UL, queue.takeIndex);
 2081              		.loc 3 105 0 discriminator 14
 2082 0ffd E8000000 		call	__cxa_end_catch@PLT
 2082      00
 2083              	.LEHE112:
 2084 1002 E985FAFF 		jmp	.L122
 2084      FF
 2085              	.L175:
 2086 1007 4889C3   		movq	%rax, %rbx
 105:testCore.cpp  **** 	CHECK_EQUAL(0UL, queue.takeIndex);
 2087              		.loc 3 105 0
 2088 100a E8000000 		call	__cxa_end_catch@PLT
 2088      00
 2089 100f 4889D8   		movq	%rbx, %rax
 2090 1012 4889C7   		movq	%rax, %rdi
 2091              	.LEHB113:
 2092 1015 E8000000 		call	_Unwind_Resume@PLT
 2092      00
 2093              	.LEHE113:
 2094              	.L177:
 2095 101a EB00     		jmp	.L125
 2096              	.L176:
 2097              	.L125:
 106:testCore.cpp  **** 	CHECK_EQUAL(3UL, queue.numItems);
 2098              		.loc 3 106 0 is_stmt 1
 2099 101c 4889C7   		movq	%rax, %rdi
 2100 101f E8000000 		call	__cxa_begin_catch@PLT
 2100      00
 2101              	.LEHB114:
 2102 1024 E8000000 		call	_ZN8UnitTest11CurrentTest7ResultsEv@PLT
 2102      00
 2103 1029 488B18   		movq	(%rax), %rbx
 2104 102c E8000000 		call	_ZN8UnitTest11CurrentTest7DetailsEv@PLT
 2104      00
 106:testCore.cpp  **** 	CHECK_EQUAL(3UL, queue.numItems);
 2105              		.loc 3 106 0 is_stmt 0 discriminator 8
 2106 1031 488B08   		movq	(%rax), %rcx
 2107 1034 488D4590 		leaq	-112(%rbp), %rax
 2108 1038 BA6A0000 		movl	$106, %edx
 2108      00
 2109 103d 4889CE   		movq	%rcx, %rsi
 2110 1040 4889C7   		movq	%rax, %rdi
 2111 1043 E8000000 		call	_ZN8UnitTest11TestDetailsC1ERKS0_i@PLT
 2111      00
 106:testCore.cpp  **** 	CHECK_EQUAL(3UL, queue.numItems);
 2112              		.loc 3 106 0 discriminator 12
 2113 1048 488D4590 		leaq	-112(%rbp), %rax
 2114 104c 488D1500 		leaq	.LC6(%rip), %rdx
 2114      000000
 2115 1053 4889C6   		movq	%rax, %rsi
 2116 1056 4889DF   		movq	%rbx, %rdi
 2117 1059 E8000000 		call	_ZN8UnitTest11TestResults13OnTestFailureERKNS_11TestDetailsEPKc@PLT
 2117      00
 2118              	.LEHE114:
 2119              	.LEHB115:
 106:testCore.cpp  **** 	CHECK_EQUAL(3UL, queue.numItems);
 2120              		.loc 3 106 0 discriminator 14
 2121 105e E8000000 		call	__cxa_end_catch@PLT
 2121      00
 2122              	.LEHE115:
 2123 1063 E96EFAFF 		jmp	.L126
 2123      FF
 2124              	.L178:
 2125 1068 4889C3   		movq	%rax, %rbx
 106:testCore.cpp  **** 	CHECK_EQUAL(3UL, queue.numItems);
 2126              		.loc 3 106 0
 2127 106b E8000000 		call	__cxa_end_catch@PLT
 2127      00
 2128 1070 4889D8   		movq	%rbx, %rax
 2129 1073 4889C7   		movq	%rax, %rdi
 2130              	.LEHB116:
 2131 1076 E8000000 		call	_Unwind_Resume@PLT
 2131      00
 2132              	.LEHE116:
 2133              	.L180:
 2134 107b EB00     		jmp	.L129
 2135              	.L179:
 2136              	.L129:
 107:testCore.cpp  **** 
 2137              		.loc 3 107 0 is_stmt 1
 2138 107d 4889C7   		movq	%rax, %rdi
 2139 1080 E8000000 		call	__cxa_begin_catch@PLT
 2139      00
 2140              	.LEHB117:
 2141 1085 E8000000 		call	_ZN8UnitTest11CurrentTest7ResultsEv@PLT
 2141      00
 2142 108a 488B18   		movq	(%rax), %rbx
 2143 108d E8000000 		call	_ZN8UnitTest11CurrentTest7DetailsEv@PLT
 2143      00
 107:testCore.cpp  **** 
 2144              		.loc 3 107 0 is_stmt 0 discriminator 8
 2145 1092 488B08   		movq	(%rax), %rcx
 2146 1095 488D4590 		leaq	-112(%rbp), %rax
 2147 1099 BA6B0000 		movl	$107, %edx
 2147      00
 2148 109e 4889CE   		movq	%rcx, %rsi
 2149 10a1 4889C7   		movq	%rax, %rdi
 2150 10a4 E8000000 		call	_ZN8UnitTest11TestDetailsC1ERKS0_i@PLT
 2150      00
 107:testCore.cpp  **** 
 2151              		.loc 3 107 0 discriminator 12
 2152 10a9 488D4590 		leaq	-112(%rbp), %rax
 2153 10ad 488D1500 		leaq	.LC17(%rip), %rdx
 2153      000000
 2154 10b4 4889C6   		movq	%rax, %rsi
 2155 10b7 4889DF   		movq	%rbx, %rdi
 2156 10ba E8000000 		call	_ZN8UnitTest11TestResults13OnTestFailureERKNS_11TestDetailsEPKc@PLT
 2156      00
 2157              	.LEHE117:
 2158              	.LEHB118:
 107:testCore.cpp  **** 
 2159              		.loc 3 107 0 discriminator 14
 2160 10bf E8000000 		call	__cxa_end_catch@PLT
 2160      00
 2161              	.LEHE118:
 2162 10c4 E957FAFF 		jmp	.L130
 2162      FF
 2163              	.L181:
 2164 10c9 4889C3   		movq	%rax, %rbx
 107:testCore.cpp  **** 
 2165              		.loc 3 107 0
 2166 10cc E8000000 		call	__cxa_end_catch@PLT
 2166      00
 2167 10d1 4889D8   		movq	%rbx, %rax
 2168 10d4 4889C7   		movq	%rax, %rdi
 2169              	.LEHB119:
 2170 10d7 E8000000 		call	_Unwind_Resume@PLT
 2170      00
 2171              	.LEHE119:
 2172              	.L183:
 2173 10dc EB00     		jmp	.L133
 2174              	.L182:
 2175              	.L133:
 110:testCore.cpp  **** 	CHECK_EQUAL(6UL, deref(queue.itemArray[1]));
 2176              		.loc 3 110 0 is_stmt 1
 2177 10de 4889C7   		movq	%rax, %rdi
 2178 10e1 E8000000 		call	__cxa_begin_catch@PLT
 2178      00
 2179              	.LEHB120:
 2180 10e6 E8000000 		call	_ZN8UnitTest11CurrentTest7ResultsEv@PLT
 2180      00
 2181 10eb 488B18   		movq	(%rax), %rbx
 2182 10ee E8000000 		call	_ZN8UnitTest11CurrentTest7DetailsEv@PLT
 2182      00
 110:testCore.cpp  **** 	CHECK_EQUAL(6UL, deref(queue.itemArray[1]));
 2183              		.loc 3 110 0 is_stmt 0 discriminator 8
 2184 10f3 488B08   		movq	(%rax), %rcx
 2185 10f6 488D4590 		leaq	-112(%rbp), %rax
 2186 10fa BA6E0000 		movl	$110, %edx
 2186      00
 2187 10ff 4889CE   		movq	%rcx, %rsi
 2188 1102 4889C7   		movq	%rax, %rdi
 2189 1105 E8000000 		call	_ZN8UnitTest11TestDetailsC1ERKS0_i@PLT
 2189      00
 110:testCore.cpp  **** 	CHECK_EQUAL(6UL, deref(queue.itemArray[1]));
 2190              		.loc 3 110 0 discriminator 12
 2191 110a 488D4590 		leaq	-112(%rbp), %rax
 2192 110e 488D1500 		leaq	.LC18(%rip), %rdx
 2192      000000
 2193 1115 4889C6   		movq	%rax, %rsi
 2194 1118 4889DF   		movq	%rbx, %rdi
 2195 111b E8000000 		call	_ZN8UnitTest11TestResults13OnTestFailureERKNS_11TestDetailsEPKc@PLT
 2195      00
 2196              	.LEHE120:
 2197              	.LEHB121:
 110:testCore.cpp  **** 	CHECK_EQUAL(6UL, deref(queue.itemArray[1]));
 2198              		.loc 3 110 0 discriminator 14
 2199 1120 E8000000 		call	__cxa_end_catch@PLT
 2199      00
 2200              	.LEHE121:
 2201 1125 E94EFAFF 		jmp	.L134
 2201      FF
 2202              	.L184:
 2203 112a 4889C3   		movq	%rax, %rbx
 110:testCore.cpp  **** 	CHECK_EQUAL(6UL, deref(queue.itemArray[1]));
 2204              		.loc 3 110 0
 2205 112d E8000000 		call	__cxa_end_catch@PLT
 2205      00
 2206 1132 4889D8   		movq	%rbx, %rax
 2207 1135 4889C7   		movq	%rax, %rdi
 2208              	.LEHB122:
 2209 1138 E8000000 		call	_Unwind_Resume@PLT
 2209      00
 2210              	.LEHE122:
 2211              	.L186:
 2212 113d EB00     		jmp	.L137
 2213              	.L185:
 2214              	.L137:
 111:testCore.cpp  **** 	CHECK_EQUAL(7UL, deref(queue.itemArray[2]));
 2215              		.loc 3 111 0 is_stmt 1
 2216 113f 4889C7   		movq	%rax, %rdi
 2217 1142 E8000000 		call	__cxa_begin_catch@PLT
 2217      00
 2218              	.LEHB123:
 2219 1147 E8000000 		call	_ZN8UnitTest11CurrentTest7ResultsEv@PLT
 2219      00
 2220 114c 488B18   		movq	(%rax), %rbx
 2221 114f E8000000 		call	_ZN8UnitTest11CurrentTest7DetailsEv@PLT
 2221      00
 111:testCore.cpp  **** 	CHECK_EQUAL(7UL, deref(queue.itemArray[2]));
 2222              		.loc 3 111 0 is_stmt 0 discriminator 8
 2223 1154 488B08   		movq	(%rax), %rcx
 2224 1157 488D4590 		leaq	-112(%rbp), %rax
 2225 115b BA6F0000 		movl	$111, %edx
 2225      00
 2226 1160 4889CE   		movq	%rcx, %rsi
 2227 1163 4889C7   		movq	%rax, %rdi
 2228 1166 E8000000 		call	_ZN8UnitTest11TestDetailsC1ERKS0_i@PLT
 2228      00
 111:testCore.cpp  **** 	CHECK_EQUAL(7UL, deref(queue.itemArray[2]));
 2229              		.loc 3 111 0 discriminator 12
 2230 116b 488D4590 		leaq	-112(%rbp), %rax
 2231 116f 488D1500 		leaq	.LC19(%rip), %rdx
 2231      000000
 2232 1176 4889C6   		movq	%rax, %rsi
 2233 1179 4889DF   		movq	%rbx, %rdi
 2234 117c E8000000 		call	_ZN8UnitTest11TestResults13OnTestFailureERKNS_11TestDetailsEPKc@PLT
 2234      00
 2235              	.LEHE123:
 2236              	.LEHB124:
 111:testCore.cpp  **** 	CHECK_EQUAL(7UL, deref(queue.itemArray[2]));
 2237              		.loc 3 111 0 discriminator 14
 2238 1181 E8000000 		call	__cxa_end_catch@PLT
 2238      00
 2239              	.LEHE124:
 2240 1186 E949FAFF 		jmp	.L138
 2240      FF
 2241              	.L187:
 2242 118b 4889C3   		movq	%rax, %rbx
 111:testCore.cpp  **** 	CHECK_EQUAL(7UL, deref(queue.itemArray[2]));
 2243              		.loc 3 111 0
 2244 118e E8000000 		call	__cxa_end_catch@PLT
 2244      00
 2245 1193 4889D8   		movq	%rbx, %rax
 2246 1196 4889C7   		movq	%rax, %rdi
 2247              	.LEHB125:
 2248 1199 E8000000 		call	_Unwind_Resume@PLT
 2248      00
 2249              	.LEHE125:
 2250              	.L189:
 2251 119e EB00     		jmp	.L141
 2252              	.L188:
 2253              	.L141:
 112:testCore.cpp  **** 	CHECK_EQUAL(4UL, deref(queue.itemArray[3]));
 2254              		.loc 3 112 0 is_stmt 1
 2255 11a0 4889C7   		movq	%rax, %rdi
 2256 11a3 E8000000 		call	__cxa_begin_catch@PLT
 2256      00
 2257              	.LEHB126:
 2258 11a8 E8000000 		call	_ZN8UnitTest11CurrentTest7ResultsEv@PLT
 2258      00
 2259 11ad 488B18   		movq	(%rax), %rbx
 2260 11b0 E8000000 		call	_ZN8UnitTest11CurrentTest7DetailsEv@PLT
 2260      00
 112:testCore.cpp  **** 	CHECK_EQUAL(4UL, deref(queue.itemArray[3]));
 2261              		.loc 3 112 0 is_stmt 0 discriminator 8
 2262 11b5 488B08   		movq	(%rax), %rcx
 2263 11b8 488D4590 		leaq	-112(%rbp), %rax
 2264 11bc BA700000 		movl	$112, %edx
 2264      00
 2265 11c1 4889CE   		movq	%rcx, %rsi
 2266 11c4 4889C7   		movq	%rax, %rdi
 2267 11c7 E8000000 		call	_ZN8UnitTest11TestDetailsC1ERKS0_i@PLT
 2267      00
 112:testCore.cpp  **** 	CHECK_EQUAL(4UL, deref(queue.itemArray[3]));
 2268              		.loc 3 112 0 discriminator 12
 2269 11cc 488D4590 		leaq	-112(%rbp), %rax
 2270 11d0 488D1500 		leaq	.LC20(%rip), %rdx
 2270      000000
 2271 11d7 4889C6   		movq	%rax, %rsi
 2272 11da 4889DF   		movq	%rbx, %rdi
 2273 11dd E8000000 		call	_ZN8UnitTest11TestResults13OnTestFailureERKNS_11TestDetailsEPKc@PLT
 2273      00
 2274              	.LEHE126:
 2275              	.LEHB127:
 112:testCore.cpp  **** 	CHECK_EQUAL(4UL, deref(queue.itemArray[3]));
 2276              		.loc 3 112 0 discriminator 14
 2277 11e2 E8000000 		call	__cxa_end_catch@PLT
 2277      00
 2278              	.LEHE127:
 2279 11e7 E944FAFF 		jmp	.L142
 2279      FF
 2280              	.L190:
 2281 11ec 4889C3   		movq	%rax, %rbx
 112:testCore.cpp  **** 	CHECK_EQUAL(4UL, deref(queue.itemArray[3]));
 2282              		.loc 3 112 0
 2283 11ef E8000000 		call	__cxa_end_catch@PLT
 2283      00
 2284 11f4 4889D8   		movq	%rbx, %rax
 2285 11f7 4889C7   		movq	%rax, %rdi
 2286              	.LEHB128:
 2287 11fa E8000000 		call	_Unwind_Resume@PLT
 2287      00
 2288              	.LEHE128:
 2289              	.L192:
 2290 11ff EB00     		jmp	.L145
 2291              	.L191:
 2292              	.L145:
 113:testCore.cpp  **** 
 2293              		.loc 3 113 0 is_stmt 1
 2294 1201 4889C7   		movq	%rax, %rdi
 2295 1204 E8000000 		call	__cxa_begin_catch@PLT
 2295      00
 2296              	.LEHB129:
 2297 1209 E8000000 		call	_ZN8UnitTest11CurrentTest7ResultsEv@PLT
 2297      00
 2298 120e 488B18   		movq	(%rax), %rbx
 2299 1211 E8000000 		call	_ZN8UnitTest11CurrentTest7DetailsEv@PLT
 2299      00
 113:testCore.cpp  **** 
 2300              		.loc 3 113 0 is_stmt 0 discriminator 8
 2301 1216 488B08   		movq	(%rax), %rcx
 2302 1219 488D4590 		leaq	-112(%rbp), %rax
 2303 121d BA710000 		movl	$113, %edx
 2303      00
 2304 1222 4889CE   		movq	%rcx, %rsi
 2305 1225 4889C7   		movq	%rax, %rdi
 2306 1228 E8000000 		call	_ZN8UnitTest11TestDetailsC1ERKS0_i@PLT
 2306      00
 113:testCore.cpp  **** 
 2307              		.loc 3 113 0 discriminator 12
 2308 122d 488D4590 		leaq	-112(%rbp), %rax
 2309 1231 488D1500 		leaq	.LC11(%rip), %rdx
 2309      000000
 2310 1238 4889C6   		movq	%rax, %rsi
 2311 123b 4889DF   		movq	%rbx, %rdi
 2312 123e E8000000 		call	_ZN8UnitTest11TestResults13OnTestFailureERKNS_11TestDetailsEPKc@PLT
 2312      00
 2313              	.LEHE129:
 2314              	.LEHB130:
 113:testCore.cpp  **** 
 2315              		.loc 3 113 0 discriminator 14
 2316 1243 E8000000 		call	__cxa_end_catch@PLT
 2316      00
 2317              	.LEHE130:
 2318 1248 E93FFAFF 		jmp	.L146
 2318      FF
 2319              	.L193:
 2320 124d 4889C3   		movq	%rax, %rbx
 113:testCore.cpp  **** 
 2321              		.loc 3 113 0
 2322 1250 E8000000 		call	__cxa_end_catch@PLT
 2322      00
 2323 1255 4889D8   		movq	%rbx, %rax
 2324 1258 4889C7   		movq	%rax, %rdi
 2325              	.LEHB131:
 2326 125b E8000000 		call	_Unwind_Resume@PLT
 2326      00
 2327              	.LEHE131:
 2328              	.L194:
 2329              		.loc 3 117 0 is_stmt 1
 2330 1260 E8000000 		call	__stack_chk_fail@PLT
 2330      00
 2331              	.L148:
 2332 1265 4881C498 		addq	$152, %rsp
 2332      000000
 2333 126c 5B       		popq	%rbx
 2334 126d 5D       		popq	%rbp
 2335              		.cfi_def_cfa 7, 8
 2336 126e C3       		ret
 2337              		.cfi_endproc
 2338              	.LFE1110:
 2339              		.section	.gcc_except_table
 2340              		.align 4
 2341              	.LLSDA1110:
 2342 0114 FF       		.byte	0xff
 2343 0115 9B       		.byte	0x9b
 2344 0116 CC03     		.uleb128 .LLSDATT1110-.LLSDATTD1110
 2345              	.LLSDATTD1110:
 2346 0118 01       		.byte	0x1
 2347 0119 BF03     		.uleb128 .LLSDACSE1110-.LLSDACSB1110
 2348              	.LLSDACSB1110:
 2349 011b 46       		.uleb128 .LEHB51-.LFB1110
 2350 011c 05       		.uleb128 .LEHE51-.LEHB51
 2351 011d 00       		.uleb128 0
 2352 011e 00       		.uleb128 0
 2353 011f 51       		.uleb128 .LEHB52-.LFB1110
 2354 0120 1C       		.uleb128 .LEHE52-.LEHB52
 2355 0121 F30A     		.uleb128 .L149-.LFB1110
 2356 0123 01       		.uleb128 0x1
 2357 0124 74       		.uleb128 .LEHB53-.LFB1110
 2358 0125 1F       		.uleb128 .LEHE53-.LEHB53
 2359 0126 F10A     		.uleb128 .L150-.LFB1110
 2360 0128 03       		.uleb128 0x3
 2361 0129 A101     		.uleb128 .LEHB54-.LFB1110
 2362 012b 05       		.uleb128 .LEHE54-.LEHB54
 2363 012c 00       		.uleb128 0
 2364 012d 00       		.uleb128 0
 2365 012e AC01     		.uleb128 .LEHB55-.LFB1110
 2366 0130 1C       		.uleb128 .LEHE55-.LEHB55
 2367 0131 D40B     		.uleb128 .L152-.LFB1110
 2368 0133 01       		.uleb128 0x1
 2369 0134 CF01     		.uleb128 .LEHB56-.LFB1110
 2370 0136 1F       		.uleb128 .LEHE56-.LEHB56
 2371 0137 D20B     		.uleb128 .L153-.LFB1110
 2372 0139 03       		.uleb128 0x3
 2373 013a EE01     		.uleb128 .LEHB57-.LFB1110
 2374 013c 1C       		.uleb128 .LEHE57-.LEHB57
 2375 013d B50C     		.uleb128 .L155-.LFB1110
 2376 013f 01       		.uleb128 0x1
 2377 0140 9602     		.uleb128 .LEHB58-.LFB1110
 2378 0142 1E       		.uleb128 .LEHE58-.LEHB58
 2379 0143 B30C     		.uleb128 .L156-.LFB1110
 2380 0145 03       		.uleb128 0x3
 2381 0146 C502     		.uleb128 .LEHB59-.LFB1110
 2382 0148 18       		.uleb128 .LEHE59-.LEHB59
 2383 0149 00       		.uleb128 0
 2384 014a 00       		.uleb128 0
 2385 014b E302     		.uleb128 .LEHB60-.LFB1110
 2386 014d 1C       		.uleb128 .LEHE60-.LEHB60
 2387 014e 960D     		.uleb128 .L158-.LFB1110
 2388 0150 01       		.uleb128 0x1
 2389 0151 8603     		.uleb128 .LEHB61-.LFB1110
 2390 0153 1F       		.uleb128 .LEHE61-.LEHB61
 2391 0154 940D     		.uleb128 .L159-.LFB1110
 2392 0156 03       		.uleb128 0x3
 2393 0157 A503     		.uleb128 .LEHB62-.LFB1110
 2394 0159 1C       		.uleb128 .LEHE62-.LEHB62
 2395 015a F70D     		.uleb128 .L161-.LFB1110
 2396 015c 01       		.uleb128 0x1
 2397 015d CD03     		.uleb128 .LEHB63-.LFB1110
 2398 015f 1E       		.uleb128 .LEHE63-.LEHB63
 2399 0160 F50D     		.uleb128 .L162-.LFB1110
 2400 0162 03       		.uleb128 0x3
 2401 0163 FC03     		.uleb128 .LEHB64-.LFB1110
 2402 0165 18       		.uleb128 .LEHE64-.LEHB64
 2403 0166 00       		.uleb128 0
 2404 0167 00       		.uleb128 0
 2405 0168 9A04     		.uleb128 .LEHB65-.LFB1110
 2406 016a 1C       		.uleb128 .LEHE65-.LEHB65
 2407 016b D80E     		.uleb128 .L164-.LFB1110
 2408 016d 01       		.uleb128 0x1
 2409 016e BD04     		.uleb128 .LEHB66-.LFB1110
 2410 0170 1F       		.uleb128 .LEHE66-.LEHB66
 2411 0171 D60E     		.uleb128 .L165-.LFB1110
 2412 0173 03       		.uleb128 0x3
 2413 0174 DC04     		.uleb128 .LEHB67-.LFB1110
 2414 0176 1C       		.uleb128 .LEHE67-.LEHB67
 2415 0177 B90F     		.uleb128 .L167-.LFB1110
 2416 0179 01       		.uleb128 0x1
 2417 017a 8405     		.uleb128 .LEHB68-.LFB1110
 2418 017c 1E       		.uleb128 .LEHE68-.LEHB68
 2419 017d B70F     		.uleb128 .L168-.LFB1110
 2420 017f 03       		.uleb128 0x3
 2421 0180 B305     		.uleb128 .LEHB69-.LFB1110
 2422 0182 05       		.uleb128 .LEHE69-.LEHB69
 2423 0183 00       		.uleb128 0
 2424 0184 00       		.uleb128 0
 2425 0185 B805     		.uleb128 .LEHB70-.LFB1110
 2426 0187 1C       		.uleb128 .LEHE70-.LEHB70
 2427 0188 9A10     		.uleb128 .L170-.LFB1110
 2428 018a 01       		.uleb128 0x1
 2429 018b DC05     		.uleb128 .LEHB71-.LFB1110
 2430 018d 26       		.uleb128 .LEHE71-.LEHB71
 2431 018e 9810     		.uleb128 .L171-.LFB1110
 2432 0190 03       		.uleb128 0x3
 2433 0191 8206     		.uleb128 .LEHB72-.LFB1110
 2434 0193 1C       		.uleb128 .LEHE72-.LEHB72
 2435 0194 FB10     		.uleb128 .L173-.LFB1110
 2436 0196 01       		.uleb128 0x1
 2437 0197 A606     		.uleb128 .LEHB73-.LFB1110
 2438 0199 26       		.uleb128 .LEHE73-.LEHB73
 2439 019a F910     		.uleb128 .L174-.LFB1110
 2440 019c 03       		.uleb128 0x3
 2441 019d CC06     		.uleb128 .LEHB74-.LFB1110
 2442 019f 1C       		.uleb128 .LEHE74-.LEHB74
 2443 01a0 DC11     		.uleb128 .L176-.LFB1110
 2444 01a2 01       		.uleb128 0x1
 2445 01a3 F006     		.uleb128 .LEHB75-.LFB1110
 2446 01a5 26       		.uleb128 .LEHE75-.LEHB75
 2447 01a6 DA11     		.uleb128 .L177-.LFB1110
 2448 01a8 03       		.uleb128 0x3
 2449 01a9 9607     		.uleb128 .LEHB76-.LFB1110
 2450 01ab 1C       		.uleb128 .LEHE76-.LEHB76
 2451 01ac BD12     		.uleb128 .L179-.LFB1110
 2452 01ae 01       		.uleb128 0x1
 2453 01af BA07     		.uleb128 .LEHB77-.LFB1110
 2454 01b1 26       		.uleb128 .LEHE77-.LEHB77
 2455 01b2 BB12     		.uleb128 .L180-.LFB1110
 2456 01b4 03       		.uleb128 0x3
 2457 01b5 E007     		.uleb128 .LEHB78-.LFB1110
 2458 01b7 1C       		.uleb128 .LEHE78-.LEHB78
 2459 01b8 9E13     		.uleb128 .L182-.LFB1110
 2460 01ba 01       		.uleb128 0x1
 2461 01bb 9908     		.uleb128 .LEHB79-.LFB1110
 2462 01bd 1F       		.uleb128 .LEHE79-.LEHB79
 2463 01be 9C13     		.uleb128 .L183-.LFB1110
 2464 01c0 03       		.uleb128 0x3
 2465 01c1 B808     		.uleb128 .LEHB80-.LFB1110
 2466 01c3 1C       		.uleb128 .LEHE80-.LEHB80
 2467 01c4 FF13     		.uleb128 .L185-.LFB1110
 2468 01c6 01       		.uleb128 0x1
 2469 01c7 F508     		.uleb128 .LEHB81-.LFB1110
 2470 01c9 1F       		.uleb128 .LEHE81-.LEHB81
 2471 01ca FD13     		.uleb128 .L186-.LFB1110
 2472 01cc 03       		.uleb128 0x3
 2473 01cd 9409     		.uleb128 .LEHB82-.LFB1110
 2474 01cf 1C       		.uleb128 .LEHE82-.LEHB82
 2475 01d0 E014     		.uleb128 .L188-.LFB1110
 2476 01d2 01       		.uleb128 0x1
 2477 01d3 D109     		.uleb128 .LEHB83-.LFB1110
 2478 01d5 1F       		.uleb128 .LEHE83-.LEHB83
 2479 01d6 DE14     		.uleb128 .L189-.LFB1110
 2480 01d8 03       		.uleb128 0x3
 2481 01d9 F009     		.uleb128 .LEHB84-.LFB1110
 2482 01db 1C       		.uleb128 .LEHE84-.LEHB84
 2483 01dc C115     		.uleb128 .L191-.LFB1110
 2484 01de 01       		.uleb128 0x1
 2485 01df AD0A     		.uleb128 .LEHB85-.LFB1110
 2486 01e1 1F       		.uleb128 .LEHE85-.LEHB85
 2487 01e2 BF15     		.uleb128 .L192-.LFB1110
 2488 01e4 03       		.uleb128 0x3
 2489 01e5 D30A     		.uleb128 .LEHB86-.LFB1110
 2490 01e7 05       		.uleb128 .LEHE86-.LEHB86
 2491 01e8 00       		.uleb128 0
 2492 01e9 00       		.uleb128 0
 2493 01ea FB0A     		.uleb128 .LEHB87-.LFB1110
 2494 01ec 3A       		.uleb128 .LEHE87-.LEHB87
 2495 01ed BF0B     		.uleb128 .L151-.LFB1110
 2496 01ef 00       		.uleb128 0
 2497 01f0 B50B     		.uleb128 .LEHB88-.LFB1110
 2498 01f2 05       		.uleb128 .LEHE88-.LEHB88
 2499 01f3 00       		.uleb128 0
 2500 01f4 00       		.uleb128 0
 2501 01f5 CD0B     		.uleb128 .LEHB89-.LFB1110
 2502 01f7 05       		.uleb128 .LEHE89-.LEHB89
 2503 01f8 00       		.uleb128 0
 2504 01f9 00       		.uleb128 0
 2505 01fa DC0B     		.uleb128 .LEHB90-.LFB1110
 2506 01fc 3A       		.uleb128 .LEHE90-.LEHB90
 2507 01fd A00C     		.uleb128 .L154-.LFB1110
 2508 01ff 00       		.uleb128 0
 2509 0200 960C     		.uleb128 .LEHB91-.LFB1110
 2510 0202 05       		.uleb128 .LEHE91-.LEHB91
 2511 0203 00       		.uleb128 0
 2512 0204 00       		.uleb128 0
 2513 0205 AE0C     		.uleb128 .LEHB92-.LFB1110
 2514 0207 05       		.uleb128 .LEHE92-.LEHB92
 2515 0208 00       		.uleb128 0
 2516 0209 00       		.uleb128 0
 2517 020a BD0C     		.uleb128 .LEHB93-.LFB1110
 2518 020c 3A       		.uleb128 .LEHE93-.LEHB93
 2519 020d 810D     		.uleb128 .L157-.LFB1110
 2520 020f 00       		.uleb128 0
 2521 0210 F70C     		.uleb128 .LEHB94-.LFB1110
 2522 0212 05       		.uleb128 .LEHE94-.LEHB94
 2523 0213 00       		.uleb128 0
 2524 0214 00       		.uleb128 0
 2525 0215 8F0D     		.uleb128 .LEHB95-.LFB1110
 2526 0217 05       		.uleb128 .LEHE95-.LEHB95
 2527 0218 00       		.uleb128 0
 2528 0219 00       		.uleb128 0
 2529 021a 9E0D     		.uleb128 .LEHB96-.LFB1110
 2530 021c 3A       		.uleb128 .LEHE96-.LEHB96
 2531 021d E20D     		.uleb128 .L160-.LFB1110
 2532 021f 00       		.uleb128 0
 2533 0220 D80D     		.uleb128 .LEHB97-.LFB1110
 2534 0222 05       		.uleb128 .LEHE97-.LEHB97
 2535 0223 00       		.uleb128 0
 2536 0224 00       		.uleb128 0
 2537 0225 F00D     		.uleb128 .LEHB98-.LFB1110
 2538 0227 05       		.uleb128 .LEHE98-.LEHB98
 2539 0228 00       		.uleb128 0
 2540 0229 00       		.uleb128 0
 2541 022a FF0D     		.uleb128 .LEHB99-.LFB1110
 2542 022c 3A       		.uleb128 .LEHE99-.LEHB99
 2543 022d C30E     		.uleb128 .L163-.LFB1110
 2544 022f 00       		.uleb128 0
 2545 0230 B90E     		.uleb128 .LEHB100-.LFB1110
 2546 0232 05       		.uleb128 .LEHE100-.LEHB100
 2547 0233 00       		.uleb128 0
 2548 0234 00       		.uleb128 0
 2549 0235 D10E     		.uleb128 .LEHB101-.LFB1110
 2550 0237 05       		.uleb128 .LEHE101-.LEHB101
 2551 0238 00       		.uleb128 0
 2552 0239 00       		.uleb128 0
 2553 023a E00E     		.uleb128 .LEHB102-.LFB1110
 2554 023c 3A       		.uleb128 .LEHE102-.LEHB102
 2555 023d A40F     		.uleb128 .L166-.LFB1110
 2556 023f 00       		.uleb128 0
 2557 0240 9A0F     		.uleb128 .LEHB103-.LFB1110
 2558 0242 05       		.uleb128 .LEHE103-.LEHB103
 2559 0243 00       		.uleb128 0
 2560 0244 00       		.uleb128 0
 2561 0245 B20F     		.uleb128 .LEHB104-.LFB1110
 2562 0247 05       		.uleb128 .LEHE104-.LEHB104
 2563 0248 00       		.uleb128 0
 2564 0249 00       		.uleb128 0
 2565 024a C10F     		.uleb128 .LEHB105-.LFB1110
 2566 024c 3A       		.uleb128 .LEHE105-.LEHB105
 2567 024d 8510     		.uleb128 .L169-.LFB1110
 2568 024f 00       		.uleb128 0
 2569 0250 FB0F     		.uleb128 .LEHB106-.LFB1110
 2570 0252 05       		.uleb128 .LEHE106-.LEHB106
 2571 0253 00       		.uleb128 0
 2572 0254 00       		.uleb128 0
 2573 0255 9310     		.uleb128 .LEHB107-.LFB1110
 2574 0257 05       		.uleb128 .LEHE107-.LEHB107
 2575 0258 00       		.uleb128 0
 2576 0259 00       		.uleb128 0
 2577 025a A210     		.uleb128 .LEHB108-.LFB1110
 2578 025c 3A       		.uleb128 .LEHE108-.LEHB108
 2579 025d E610     		.uleb128 .L172-.LFB1110
 2580 025f 00       		.uleb128 0
 2581 0260 DC10     		.uleb128 .LEHB109-.LFB1110
 2582 0262 05       		.uleb128 .LEHE109-.LEHB109
 2583 0263 00       		.uleb128 0
 2584 0264 00       		.uleb128 0
 2585 0265 F410     		.uleb128 .LEHB110-.LFB1110
 2586 0267 05       		.uleb128 .LEHE110-.LEHB110
 2587 0268 00       		.uleb128 0
 2588 0269 00       		.uleb128 0
 2589 026a 8311     		.uleb128 .LEHB111-.LFB1110
 2590 026c 3A       		.uleb128 .LEHE111-.LEHB111
 2591 026d C711     		.uleb128 .L175-.LFB1110
 2592 026f 00       		.uleb128 0
 2593 0270 BD11     		.uleb128 .LEHB112-.LFB1110
 2594 0272 05       		.uleb128 .LEHE112-.LEHB112
 2595 0273 00       		.uleb128 0
 2596 0274 00       		.uleb128 0
 2597 0275 D511     		.uleb128 .LEHB113-.LFB1110
 2598 0277 05       		.uleb128 .LEHE113-.LEHB113
 2599 0278 00       		.uleb128 0
 2600 0279 00       		.uleb128 0
 2601 027a E411     		.uleb128 .LEHB114-.LFB1110
 2602 027c 3A       		.uleb128 .LEHE114-.LEHB114
 2603 027d A812     		.uleb128 .L178-.LFB1110
 2604 027f 00       		.uleb128 0
 2605 0280 9E12     		.uleb128 .LEHB115-.LFB1110
 2606 0282 05       		.uleb128 .LEHE115-.LEHB115
 2607 0283 00       		.uleb128 0
 2608 0284 00       		.uleb128 0
 2609 0285 B612     		.uleb128 .LEHB116-.LFB1110
 2610 0287 05       		.uleb128 .LEHE116-.LEHB116
 2611 0288 00       		.uleb128 0
 2612 0289 00       		.uleb128 0
 2613 028a C512     		.uleb128 .LEHB117-.LFB1110
 2614 028c 3A       		.uleb128 .LEHE117-.LEHB117
 2615 028d 8913     		.uleb128 .L181-.LFB1110
 2616 028f 00       		.uleb128 0
 2617 0290 FF12     		.uleb128 .LEHB118-.LFB1110
 2618 0292 05       		.uleb128 .LEHE118-.LEHB118
 2619 0293 00       		.uleb128 0
 2620 0294 00       		.uleb128 0
 2621 0295 9713     		.uleb128 .LEHB119-.LFB1110
 2622 0297 05       		.uleb128 .LEHE119-.LEHB119
 2623 0298 00       		.uleb128 0
 2624 0299 00       		.uleb128 0
 2625 029a A613     		.uleb128 .LEHB120-.LFB1110
 2626 029c 3A       		.uleb128 .LEHE120-.LEHB120
 2627 029d EA13     		.uleb128 .L184-.LFB1110
 2628 029f 00       		.uleb128 0
 2629 02a0 E013     		.uleb128 .LEHB121-.LFB1110
 2630 02a2 05       		.uleb128 .LEHE121-.LEHB121
 2631 02a3 00       		.uleb128 0
 2632 02a4 00       		.uleb128 0
 2633 02a5 F813     		.uleb128 .LEHB122-.LFB1110
 2634 02a7 05       		.uleb128 .LEHE122-.LEHB122
 2635 02a8 00       		.uleb128 0
 2636 02a9 00       		.uleb128 0
 2637 02aa 8714     		.uleb128 .LEHB123-.LFB1110
 2638 02ac 3A       		.uleb128 .LEHE123-.LEHB123
 2639 02ad CB14     		.uleb128 .L187-.LFB1110
 2640 02af 00       		.uleb128 0
 2641 02b0 C114     		.uleb128 .LEHB124-.LFB1110
 2642 02b2 05       		.uleb128 .LEHE124-.LEHB124
 2643 02b3 00       		.uleb128 0
 2644 02b4 00       		.uleb128 0
 2645 02b5 D914     		.uleb128 .LEHB125-.LFB1110
 2646 02b7 05       		.uleb128 .LEHE125-.LEHB125
 2647 02b8 00       		.uleb128 0
 2648 02b9 00       		.uleb128 0
 2649 02ba E814     		.uleb128 .LEHB126-.LFB1110
 2650 02bc 3A       		.uleb128 .LEHE126-.LEHB126
 2651 02bd AC15     		.uleb128 .L190-.LFB1110
 2652 02bf 00       		.uleb128 0
 2653 02c0 A215     		.uleb128 .LEHB127-.LFB1110
 2654 02c2 05       		.uleb128 .LEHE127-.LEHB127
 2655 02c3 00       		.uleb128 0
 2656 02c4 00       		.uleb128 0
 2657 02c5 BA15     		.uleb128 .LEHB128-.LFB1110
 2658 02c7 05       		.uleb128 .LEHE128-.LEHB128
 2659 02c8 00       		.uleb128 0
 2660 02c9 00       		.uleb128 0
 2661 02ca C915     		.uleb128 .LEHB129-.LFB1110
 2662 02cc 3A       		.uleb128 .LEHE129-.LEHB129
 2663 02cd 8D16     		.uleb128 .L193-.LFB1110
 2664 02cf 00       		.uleb128 0
 2665 02d0 8316     		.uleb128 .LEHB130-.LFB1110
 2666 02d2 05       		.uleb128 .LEHE130-.LEHB130
 2667 02d3 00       		.uleb128 0
 2668 02d4 00       		.uleb128 0
 2669 02d5 9B16     		.uleb128 .LEHB131-.LFB1110
 2670 02d7 05       		.uleb128 .LEHE131-.LEHB131
 2671 02d8 00       		.uleb128 0
 2672 02d9 00       		.uleb128 0
 2673              	.LLSDACSE1110:
 2674 02da 01       		.byte	0x1
 2675 02db 00       		.byte	0
 2676 02dc 00       		.byte	0
 2677 02dd 7D       		.byte	0x7d
 2678 02de 0000     		.align 4
 2679 02e0 00000000 		.long	0
 2680              	
 2681              	.LLSDATT1110:
 2682              		.text
 2684              		.section	.rodata
 2685              	.LC21:
 2686 0453 51756575 		.string	"Queue_testPutWrap"
 2686      655F7465 
 2686      73745075 
 2686      74577261 
 2686      7000
 2687              		.section	.text._ZN21TestQueue_testPutWrapC2Ev,"axG",@progbits,_ZN21TestQueue_testPutWrapC5Ev,comda
 2688              		.align 2
 2689              		.weak	_ZN21TestQueue_testPutWrapC2Ev
 2691              	_ZN21TestQueue_testPutWrapC2Ev:
 2692              	.LFB1112:
 118:testCore.cpp  **** 
 119:testCore.cpp  **** TEST(Queue_testPutWrap) {
 2693              		.loc 3 119 0
 2694              		.cfi_startproc
 2695 0000 55       		pushq	%rbp
 2696              		.cfi_def_cfa_offset 16
 2697              		.cfi_offset 6, -16
 2698 0001 4889E5   		movq	%rsp, %rbp
 2699              		.cfi_def_cfa_register 6
 2700 0004 53       		pushq	%rbx
 2701 0005 4883EC18 		subq	$24, %rsp
 2702              		.cfi_offset 3, -24
 2703 0009 48897DE8 		movq	%rdi, -24(%rbp)
 2704              	.LBB6:
 2705              		.loc 3 119 0
 2706 000d 488B5DE8 		movq	-24(%rbp), %rbx
 2707 0011 E8000000 		call	_ZN13UnitTestSuite12GetSuiteNameEv
 2707      00
 2708 0016 41B87700 		movl	$119, %r8d
 2708      0000
 2709 001c 488D0D00 		leaq	.LC1(%rip), %rcx
 2709      000000
 2710 0023 4889C2   		movq	%rax, %rdx
 2711 0026 488D3500 		leaq	.LC21(%rip), %rsi
 2711      000000
 2712 002d 4889DF   		movq	%rbx, %rdi
 2713 0030 E8000000 		call	_ZN8UnitTest4TestC2EPKcS2_S2_i@PLT
 2713      00
 2714 0035 488D1500 		leaq	16+_ZTV21TestQueue_testPutWrap(%rip), %rdx
 2714      000000
 2715 003c 488B45E8 		movq	-24(%rbp), %rax
 2716 0040 488910   		movq	%rdx, (%rax)
 2717              	.LBE6:
 2718 0043 90       		nop
 2719 0044 4883C418 		addq	$24, %rsp
 2720 0048 5B       		popq	%rbx
 2721 0049 5D       		popq	%rbp
 2722              		.cfi_def_cfa 7, 8
 2723 004a C3       		ret
 2724              		.cfi_endproc
 2725              	.LFE1112:
 2727              		.weak	_ZN21TestQueue_testPutWrapC1Ev
 2728              		.set	_ZN21TestQueue_testPutWrapC1Ev,_ZN21TestQueue_testPutWrapC2Ev
 2729              		.globl	testQueue_testPutWrapInstance
 2730              		.bss
 2731 0079 00000000 		.align 32
 2731      000000
 2734              	testQueue_testPutWrapInstance:
 2735 0080 00000000 		.zero	56
 2735      00000000 
 2735      00000000 
 2735      00000000 
 2735      00000000 
 2736              		.globl	adderQueue_testPutWrap
 2739              	adderQueue_testPutWrap:
 2740 00b8 00       		.zero	1
 2741              		.section	.rodata
 2742 0465 000000   		.align 8
 2743              	.LC22:
 2744 0468 556E6861 		.string	"Unhandled exception in CHECK_EQUAL(4UL, *item)"
 2744      6E646C65 
 2744      64206578 
 2744      63657074 
 2744      696F6E20 
 2745 0497 00       		.align 8
 2746              	.LC23:
 2747 0498 556E6861 		.string	"Unhandled exception in CHECK_EQUAL(4UL, queue.numItems)"
 2747      6E646C65 
 2747      64206578 
 2747      63657074 
 2747      696F6E20 
 2748              		.align 8
 2749              	.LC24:
 2750 04d0 556E6861 		.string	"Unhandled exception in CHECK_EQUAL(8UL, deref(queue.itemArray[3]))"
 2750      6E646C65 
 2750      64206578 
 2750      63657074 
 2750      696F6E20 
 2751              		.text
 2752 126f 90       		.align 2
 2753              		.globl	_ZNK21TestQueue_testPutWrap7RunImplEv
 2755              	_ZNK21TestQueue_testPutWrap7RunImplEv:
 2756              	.LFB1114:
 2757              		.loc 3 119 0
 2758              		.cfi_startproc
 2759              		.cfi_personality 0x9b,DW.ref.__gxx_personality_v0
 2760              		.cfi_lsda 0x1b,.LLSDA1114
 2761 1270 55       		pushq	%rbp
 2762              		.cfi_def_cfa_offset 16
 2763              		.cfi_offset 6, -16
 2764 1271 4889E5   		movq	%rsp, %rbp
 2765              		.cfi_def_cfa_register 6
 2766 1274 53       		pushq	%rbx
 2767 1275 4881EC98 		subq	$152, %rsp
 2767      000000
 2768              		.cfi_offset 3, -24
 2769 127c 4889BD68 		movq	%rdi, -152(%rbp)
 2769      FFFFFF
 2770              		.loc 3 119 0
 2771 1283 64488B04 		movq	%fs:40, %rax
 2771      25280000 
 2771      00
 2772 128c 488945E8 		movq	%rax, -24(%rbp)
 2773 1290 31C0     		xorl	%eax, %eax
 120:testCore.cpp  **** 	struct UnboundedQueue queue;
 121:testCore.cpp  **** 	uint32 *item;
 122:testCore.cpp  **** 	m_count = 1;
 2774              		.loc 3 122 0
 2775 1292 C7050000 		movl	$1, _ZL7m_count(%rip)
 2775      00000100 
 2775      0000
 123:testCore.cpp  **** 
 124:testCore.cpp  **** 	// Create queue
 125:testCore.cpp  **** 	USBStatus status = queueInit(&queue, 4, (CreateFunc)createInt, (DestroyFunc)destroyInt);
 2776              		.loc 3 125 0
 2777 129c 488D45B0 		leaq	-80(%rbp), %rax
 2778 12a0 488D0D00 		leaq	destroyInt(%rip), %rcx
 2778      000000
 2779 12a7 488D1500 		leaq	createInt(%rip), %rdx
 2779      000000
 2780 12ae BE040000 		movl	$4, %esi
 2780      00
 2781 12b3 4889C7   		movq	%rax, %rdi
 2782              	.LEHB132:
 2783 12b6 E8000000 		call	queueInit@PLT
 2783      00
 2784              	.LEHE132:
 2785 12bb 898578FF 		movl	%eax, -136(%rbp)
 2785      FFFF
 2786              	.LEHB133:
 126:testCore.cpp  **** 	CHECK_EQUAL(USB_SUCCESS, status);
 2787              		.loc 3 126 0
 2788 12c1 E8000000 		call	_ZN8UnitTest11CurrentTest7DetailsEv@PLT
 2788      00
 2789 12c6 488B08   		movq	(%rax), %rcx
 2790 12c9 488D4590 		leaq	-112(%rbp), %rax
 2791 12cd BA7E0000 		movl	$126, %edx
 2791      00
 2792 12d2 4889CE   		movq	%rcx, %rsi
 2793 12d5 4889C7   		movq	%rax, %rdi
 2794 12d8 E8000000 		call	_ZN8UnitTest11TestDetailsC1ERKS0_i@PLT
 2794      00
 2795              	.LEHE133:
 2796              		.loc 3 126 0 is_stmt 0 discriminator 2
 2797 12dd C7458800 		movl	$0, -120(%rbp)
 2797      000000
 2798              	.LEHB134:
 2799 12e4 E8000000 		call	_ZN8UnitTest11CurrentTest7ResultsEv@PLT
 2799      00
 2800 12e9 488B00   		movq	(%rax), %rax
 2801 12ec 488D4D90 		leaq	-112(%rbp), %rcx
 2802 12f0 488D9578 		leaq	-136(%rbp), %rdx
 2802      FFFFFF
 2803 12f7 488D7588 		leaq	-120(%rbp), %rsi
 2804 12fb 4889C7   		movq	%rax, %rdi
 2805 12fe E8000000 		call	_ZN8UnitTest10CheckEqualI9USBStatusS1_EEvRNS_11TestResultsERKT_RKT0_RKNS_11TestDetailsE
 2805      00
 2806              	.LEHE134:
 2807              	.L199:
 127:testCore.cpp  **** 
 128:testCore.cpp  **** 	// Put four items into the queue
 129:testCore.cpp  **** 	status = queuePut(&queue, (Item*)&item);
 2808              		.loc 3 129 0 is_stmt 1
 2809 1303 488D5580 		leaq	-128(%rbp), %rdx
 2810 1307 488D45B0 		leaq	-80(%rbp), %rax
 2811 130b 4889D6   		movq	%rdx, %rsi
 2812 130e 4889C7   		movq	%rax, %rdi
 2813              	.LEHB135:
 2814 1311 E8000000 		call	queuePut@PLT
 2814      00
 2815              	.LEHE135:
 2816 1316 898578FF 		movl	%eax, -136(%rbp)
 2816      FFFF
 2817              	.LEHB136:
 130:testCore.cpp  **** 	CHECK_EQUAL(USB_SUCCESS, status);
 2818              		.loc 3 130 0
 2819 131c E8000000 		call	_ZN8UnitTest11CurrentTest7DetailsEv@PLT
 2819      00
 2820 1321 488B08   		movq	(%rax), %rcx
 2821 1324 488D4590 		leaq	-112(%rbp), %rax
 2822 1328 BA820000 		movl	$130, %edx
 2822      00
 2823 132d 4889CE   		movq	%rcx, %rsi
 2824 1330 4889C7   		movq	%rax, %rdi
 2825 1333 E8000000 		call	_ZN8UnitTest11TestDetailsC1ERKS0_i@PLT
 2825      00
 2826              	.LEHE136:
 2827              		.loc 3 130 0 is_stmt 0 discriminator 2
 2828 1338 C7458800 		movl	$0, -120(%rbp)
 2828      000000
 2829              	.LEHB137:
 2830 133f E8000000 		call	_ZN8UnitTest11CurrentTest7ResultsEv@PLT
 2830      00
 2831 1344 488B00   		movq	(%rax), %rax
 2832 1347 488D4D90 		leaq	-112(%rbp), %rcx
 2833 134b 488D9578 		leaq	-136(%rbp), %rdx
 2833      FFFFFF
 2834 1352 488D7588 		leaq	-120(%rbp), %rsi
 2835 1356 4889C7   		movq	%rax, %rdi
 2836 1359 E8000000 		call	_ZN8UnitTest10CheckEqualI9USBStatusS1_EEvRNS_11TestResultsERKT_RKT0_RKNS_11TestDetailsE
 2836      00
 2837              	.LEHE137:
 2838              	.L203:
 2839              	.LEHB138:
 131:testCore.cpp  **** 	CHECK_EQUAL(1UL, *item);
 2840              		.loc 3 131 0 is_stmt 1
 2841 135e E8000000 		call	_ZN8UnitTest11CurrentTest7DetailsEv@PLT
 2841      00
 2842 1363 488B08   		movq	(%rax), %rcx
 2843 1366 488D4590 		leaq	-112(%rbp), %rax
 2844 136a BA830000 		movl	$131, %edx
 2844      00
 2845 136f 4889CE   		movq	%rcx, %rsi
 2846 1372 4889C7   		movq	%rax, %rdi
 2847 1375 E8000000 		call	_ZN8UnitTest11TestDetailsC1ERKS0_i@PLT
 2847      00
 2848              	.LEHE138:
 2849              		.loc 3 131 0 is_stmt 0 discriminator 2
 2850 137a 488B5D80 		movq	-128(%rbp), %rbx
 2851 137e 48C74588 		movq	$1, -120(%rbp)
 2851      01000000 
 2852              	.LEHB139:
 2853 1386 E8000000 		call	_ZN8UnitTest11CurrentTest7ResultsEv@PLT
 2853      00
 2854 138b 488B00   		movq	(%rax), %rax
 2855 138e 488D5590 		leaq	-112(%rbp), %rdx
 2856 1392 488D7588 		leaq	-120(%rbp), %rsi
 2857 1396 4889D1   		movq	%rdx, %rcx
 2858 1399 4889DA   		movq	%rbx, %rdx
 2859 139c 4889C7   		movq	%rax, %rdi
 2860 139f E8000000 		call	_ZN8UnitTest10CheckEqualImjEEvRNS_11TestResultsERKT_RKT0_RKNS_11TestDetailsE
 2860      00
 2861              	.LEHE139:
 2862              	.L207:
 132:testCore.cpp  **** 	*item = 5;
 2863              		.loc 3 132 0 is_stmt 1
 2864 13a4 488B4580 		movq	-128(%rbp), %rax
 2865 13a8 C7000500 		movl	$5, (%rax)
 2865      0000
 133:testCore.cpp  **** 	queueCommitPut(&queue);
 2866              		.loc 3 133 0
 2867 13ae 488D45B0 		leaq	-80(%rbp), %rax
 2868 13b2 4889C7   		movq	%rax, %rdi
 2869              	.LEHB140:
 2870 13b5 E8000000 		call	queueCommitPut@PLT
 2870      00
 134:testCore.cpp  **** 	status = queuePut(&queue, (Item*)&item);
 2871              		.loc 3 134 0
 2872 13ba 488D5580 		leaq	-128(%rbp), %rdx
 2873 13be 488D45B0 		leaq	-80(%rbp), %rax
 2874 13c2 4889D6   		movq	%rdx, %rsi
 2875 13c5 4889C7   		movq	%rax, %rdi
 2876 13c8 E8000000 		call	queuePut@PLT
 2876      00
 2877              	.LEHE140:
 2878 13cd 898578FF 		movl	%eax, -136(%rbp)
 2878      FFFF
 2879              	.LEHB141:
 135:testCore.cpp  **** 	CHECK_EQUAL(USB_SUCCESS, status);
 2880              		.loc 3 135 0
 2881 13d3 E8000000 		call	_ZN8UnitTest11CurrentTest7DetailsEv@PLT
 2881      00
 2882 13d8 488B08   		movq	(%rax), %rcx
 2883 13db 488D4590 		leaq	-112(%rbp), %rax
 2884 13df BA870000 		movl	$135, %edx
 2884      00
 2885 13e4 4889CE   		movq	%rcx, %rsi
 2886 13e7 4889C7   		movq	%rax, %rdi
 2887 13ea E8000000 		call	_ZN8UnitTest11TestDetailsC1ERKS0_i@PLT
 2887      00
 2888              	.LEHE141:
 2889              		.loc 3 135 0 is_stmt 0 discriminator 2
 2890 13ef C7458800 		movl	$0, -120(%rbp)
 2890      000000
 2891              	.LEHB142:
 2892 13f6 E8000000 		call	_ZN8UnitTest11CurrentTest7ResultsEv@PLT
 2892      00
 2893 13fb 488B00   		movq	(%rax), %rax
 2894 13fe 488D4D90 		leaq	-112(%rbp), %rcx
 2895 1402 488D9578 		leaq	-136(%rbp), %rdx
 2895      FFFFFF
 2896 1409 488D7588 		leaq	-120(%rbp), %rsi
 2897 140d 4889C7   		movq	%rax, %rdi
 2898 1410 E8000000 		call	_ZN8UnitTest10CheckEqualI9USBStatusS1_EEvRNS_11TestResultsERKT_RKT0_RKNS_11TestDetailsE
 2898      00
 2899              	.LEHE142:
 2900              	.L211:
 2901              	.LEHB143:
 136:testCore.cpp  **** 	CHECK_EQUAL(2UL, *item);
 2902              		.loc 3 136 0 is_stmt 1
 2903 1415 E8000000 		call	_ZN8UnitTest11CurrentTest7DetailsEv@PLT
 2903      00
 2904 141a 488B08   		movq	(%rax), %rcx
 2905 141d 488D4590 		leaq	-112(%rbp), %rax
 2906 1421 BA880000 		movl	$136, %edx
 2906      00
 2907 1426 4889CE   		movq	%rcx, %rsi
 2908 1429 4889C7   		movq	%rax, %rdi
 2909 142c E8000000 		call	_ZN8UnitTest11TestDetailsC1ERKS0_i@PLT
 2909      00
 2910              	.LEHE143:
 2911              		.loc 3 136 0 is_stmt 0 discriminator 2
 2912 1431 488B5D80 		movq	-128(%rbp), %rbx
 2913 1435 48C74588 		movq	$2, -120(%rbp)
 2913      02000000 
 2914              	.LEHB144:
 2915 143d E8000000 		call	_ZN8UnitTest11CurrentTest7ResultsEv@PLT
 2915      00
 2916 1442 488B00   		movq	(%rax), %rax
 2917 1445 488D5590 		leaq	-112(%rbp), %rdx
 2918 1449 488D7588 		leaq	-120(%rbp), %rsi
 2919 144d 4889D1   		movq	%rdx, %rcx
 2920 1450 4889DA   		movq	%rbx, %rdx
 2921 1453 4889C7   		movq	%rax, %rdi
 2922 1456 E8000000 		call	_ZN8UnitTest10CheckEqualImjEEvRNS_11TestResultsERKT_RKT0_RKNS_11TestDetailsE
 2922      00
 2923              	.LEHE144:
 2924              	.L215:
 137:testCore.cpp  **** 	*item = 6;
 2925              		.loc 3 137 0 is_stmt 1
 2926 145b 488B4580 		movq	-128(%rbp), %rax
 2927 145f C7000600 		movl	$6, (%rax)
 2927      0000
 138:testCore.cpp  **** 	queueCommitPut(&queue);
 2928              		.loc 3 138 0
 2929 1465 488D45B0 		leaq	-80(%rbp), %rax
 2930 1469 4889C7   		movq	%rax, %rdi
 2931              	.LEHB145:
 2932 146c E8000000 		call	queueCommitPut@PLT
 2932      00
 139:testCore.cpp  **** 	status = queuePut(&queue, (Item*)&item);
 2933              		.loc 3 139 0
 2934 1471 488D5580 		leaq	-128(%rbp), %rdx
 2935 1475 488D45B0 		leaq	-80(%rbp), %rax
 2936 1479 4889D6   		movq	%rdx, %rsi
 2937 147c 4889C7   		movq	%rax, %rdi
 2938 147f E8000000 		call	queuePut@PLT
 2938      00
 2939              	.LEHE145:
 2940 1484 898578FF 		movl	%eax, -136(%rbp)
 2940      FFFF
 2941              	.LEHB146:
 140:testCore.cpp  **** 	CHECK_EQUAL(USB_SUCCESS, status);
 2942              		.loc 3 140 0
 2943 148a E8000000 		call	_ZN8UnitTest11CurrentTest7DetailsEv@PLT
 2943      00
 2944 148f 488B08   		movq	(%rax), %rcx
 2945 1492 488D4590 		leaq	-112(%rbp), %rax
 2946 1496 BA8C0000 		movl	$140, %edx
 2946      00
 2947 149b 4889CE   		movq	%rcx, %rsi
 2948 149e 4889C7   		movq	%rax, %rdi
 2949 14a1 E8000000 		call	_ZN8UnitTest11TestDetailsC1ERKS0_i@PLT
 2949      00
 2950              	.LEHE146:
 2951              		.loc 3 140 0 is_stmt 0 discriminator 2
 2952 14a6 C7458800 		movl	$0, -120(%rbp)
 2952      000000
 2953              	.LEHB147:
 2954 14ad E8000000 		call	_ZN8UnitTest11CurrentTest7ResultsEv@PLT
 2954      00
 2955 14b2 488B00   		movq	(%rax), %rax
 2956 14b5 488D4D90 		leaq	-112(%rbp), %rcx
 2957 14b9 488D9578 		leaq	-136(%rbp), %rdx
 2957      FFFFFF
 2958 14c0 488D7588 		leaq	-120(%rbp), %rsi
 2959 14c4 4889C7   		movq	%rax, %rdi
 2960 14c7 E8000000 		call	_ZN8UnitTest10CheckEqualI9USBStatusS1_EEvRNS_11TestResultsERKT_RKT0_RKNS_11TestDetailsE
 2960      00
 2961              	.LEHE147:
 2962              	.L219:
 2963              	.LEHB148:
 141:testCore.cpp  **** 	CHECK_EQUAL(3UL, *item);
 2964              		.loc 3 141 0 is_stmt 1
 2965 14cc E8000000 		call	_ZN8UnitTest11CurrentTest7DetailsEv@PLT
 2965      00
 2966 14d1 488B08   		movq	(%rax), %rcx
 2967 14d4 488D4590 		leaq	-112(%rbp), %rax
 2968 14d8 BA8D0000 		movl	$141, %edx
 2968      00
 2969 14dd 4889CE   		movq	%rcx, %rsi
 2970 14e0 4889C7   		movq	%rax, %rdi
 2971 14e3 E8000000 		call	_ZN8UnitTest11TestDetailsC1ERKS0_i@PLT
 2971      00
 2972              	.LEHE148:
 2973              		.loc 3 141 0 is_stmt 0 discriminator 2
 2974 14e8 488B5D80 		movq	-128(%rbp), %rbx
 2975 14ec 48C74588 		movq	$3, -120(%rbp)
 2975      03000000 
 2976              	.LEHB149:
 2977 14f4 E8000000 		call	_ZN8UnitTest11CurrentTest7ResultsEv@PLT
 2977      00
 2978 14f9 488B00   		movq	(%rax), %rax
 2979 14fc 488D5590 		leaq	-112(%rbp), %rdx
 2980 1500 488D7588 		leaq	-120(%rbp), %rsi
 2981 1504 4889D1   		movq	%rdx, %rcx
 2982 1507 4889DA   		movq	%rbx, %rdx
 2983 150a 4889C7   		movq	%rax, %rdi
 2984 150d E8000000 		call	_ZN8UnitTest10CheckEqualImjEEvRNS_11TestResultsERKT_RKT0_RKNS_11TestDetailsE
 2984      00
 2985              	.LEHE149:
 2986              	.L223:
 142:testCore.cpp  **** 	*item = 7;
 2987              		.loc 3 142 0 is_stmt 1
 2988 1512 488B4580 		movq	-128(%rbp), %rax
 2989 1516 C7000700 		movl	$7, (%rax)
 2989      0000
 143:testCore.cpp  **** 	queueCommitPut(&queue);
 2990              		.loc 3 143 0
 2991 151c 488D45B0 		leaq	-80(%rbp), %rax
 2992 1520 4889C7   		movq	%rax, %rdi
 2993              	.LEHB150:
 2994 1523 E8000000 		call	queueCommitPut@PLT
 2994      00
 144:testCore.cpp  **** 	status = queuePut(&queue, (Item*)&item);
 2995              		.loc 3 144 0
 2996 1528 488D5580 		leaq	-128(%rbp), %rdx
 2997 152c 488D45B0 		leaq	-80(%rbp), %rax
 2998 1530 4889D6   		movq	%rdx, %rsi
 2999 1533 4889C7   		movq	%rax, %rdi
 3000 1536 E8000000 		call	queuePut@PLT
 3000      00
 3001              	.LEHE150:
 3002 153b 898578FF 		movl	%eax, -136(%rbp)
 3002      FFFF
 3003              	.LEHB151:
 145:testCore.cpp  **** 	CHECK_EQUAL(USB_SUCCESS, status);
 3004              		.loc 3 145 0
 3005 1541 E8000000 		call	_ZN8UnitTest11CurrentTest7DetailsEv@PLT
 3005      00
 3006 1546 488B08   		movq	(%rax), %rcx
 3007 1549 488D4590 		leaq	-112(%rbp), %rax
 3008 154d BA910000 		movl	$145, %edx
 3008      00
 3009 1552 4889CE   		movq	%rcx, %rsi
 3010 1555 4889C7   		movq	%rax, %rdi
 3011 1558 E8000000 		call	_ZN8UnitTest11TestDetailsC1ERKS0_i@PLT
 3011      00
 3012              	.LEHE151:
 3013              		.loc 3 145 0 is_stmt 0 discriminator 2
 3014 155d C7458800 		movl	$0, -120(%rbp)
 3014      000000
 3015              	.LEHB152:
 3016 1564 E8000000 		call	_ZN8UnitTest11CurrentTest7ResultsEv@PLT
 3016      00
 3017 1569 488B00   		movq	(%rax), %rax
 3018 156c 488D4D90 		leaq	-112(%rbp), %rcx
 3019 1570 488D9578 		leaq	-136(%rbp), %rdx
 3019      FFFFFF
 3020 1577 488D7588 		leaq	-120(%rbp), %rsi
 3021 157b 4889C7   		movq	%rax, %rdi
 3022 157e E8000000 		call	_ZN8UnitTest10CheckEqualI9USBStatusS1_EEvRNS_11TestResultsERKT_RKT0_RKNS_11TestDetailsE
 3022      00
 3023              	.LEHE152:
 3024              	.L227:
 3025              	.LEHB153:
 146:testCore.cpp  **** 	CHECK_EQUAL(4UL, *item);
 3026              		.loc 3 146 0 is_stmt 1
 3027 1583 E8000000 		call	_ZN8UnitTest11CurrentTest7DetailsEv@PLT
 3027      00
 3028 1588 488B08   		movq	(%rax), %rcx
 3029 158b 488D4590 		leaq	-112(%rbp), %rax
 3030 158f BA920000 		movl	$146, %edx
 3030      00
 3031 1594 4889CE   		movq	%rcx, %rsi
 3032 1597 4889C7   		movq	%rax, %rdi
 3033 159a E8000000 		call	_ZN8UnitTest11TestDetailsC1ERKS0_i@PLT
 3033      00
 3034              	.LEHE153:
 3035              		.loc 3 146 0 is_stmt 0 discriminator 2
 3036 159f 488B5D80 		movq	-128(%rbp), %rbx
 3037 15a3 48C74588 		movq	$4, -120(%rbp)
 3037      04000000 
 3038              	.LEHB154:
 3039 15ab E8000000 		call	_ZN8UnitTest11CurrentTest7ResultsEv@PLT
 3039      00
 3040 15b0 488B00   		movq	(%rax), %rax
 3041 15b3 488D5590 		leaq	-112(%rbp), %rdx
 3042 15b7 488D7588 		leaq	-120(%rbp), %rsi
 3043 15bb 4889D1   		movq	%rdx, %rcx
 3044 15be 4889DA   		movq	%rbx, %rdx
 3045 15c1 4889C7   		movq	%rax, %rdi
 3046 15c4 E8000000 		call	_ZN8UnitTest10CheckEqualImjEEvRNS_11TestResultsERKT_RKT0_RKNS_11TestDetailsE
 3046      00
 3047              	.LEHE154:
 3048              	.L231:
 147:testCore.cpp  **** 	*item = 8;
 3049              		.loc 3 147 0 is_stmt 1
 3050 15c9 488B4580 		movq	-128(%rbp), %rax
 3051 15cd C7000800 		movl	$8, (%rax)
 3051      0000
 148:testCore.cpp  **** 	queueCommitPut(&queue);
 3052              		.loc 3 148 0
 3053 15d3 488D45B0 		leaq	-80(%rbp), %rax
 3054 15d7 4889C7   		movq	%rax, %rdi
 3055              	.LEHB155:
 3056 15da E8000000 		call	queueCommitPut@PLT
 3056      00
 3057              	.LEHE155:
 3058              	.LEHB156:
 149:testCore.cpp  **** 
 150:testCore.cpp  **** 	// Verify
 151:testCore.cpp  **** 	CHECK_EQUAL(4UL, queue.capacity);
 3059              		.loc 3 151 0
 3060 15df E8000000 		call	_ZN8UnitTest11CurrentTest7DetailsEv@PLT
 3060      00
 3061 15e4 488B08   		movq	(%rax), %rcx
 3062 15e7 488D4590 		leaq	-112(%rbp), %rax
 3063 15eb BA970000 		movl	$151, %edx
 3063      00
 3064 15f0 4889CE   		movq	%rcx, %rsi
 3065 15f3 4889C7   		movq	%rax, %rdi
 3066 15f6 E8000000 		call	_ZN8UnitTest11TestDetailsC1ERKS0_i@PLT
 3066      00
 3067              	.LEHE156:
 3068              		.loc 3 151 0 is_stmt 0 discriminator 2
 3069 15fb 48C74588 		movq	$4, -120(%rbp)
 3069      04000000 
 3070              	.LEHB157:
 3071 1603 E8000000 		call	_ZN8UnitTest11CurrentTest7ResultsEv@PLT
 3071      00
 3072 1608 488B00   		movq	(%rax), %rax
 3073 160b 488D5590 		leaq	-112(%rbp), %rdx
 3074 160f 488D4DB0 		leaq	-80(%rbp), %rcx
 3075 1613 488D7908 		leaq	8(%rcx), %rdi
 3076 1617 488D7588 		leaq	-120(%rbp), %rsi
 3077 161b 4889D1   		movq	%rdx, %rcx
 3078 161e 4889FA   		movq	%rdi, %rdx
 3079 1621 4889C7   		movq	%rax, %rdi
 3080 1624 E8000000 		call	_ZN8UnitTest10CheckEqualImmEEvRNS_11TestResultsERKT_RKT0_RKNS_11TestDetailsE
 3080      00
 3081              	.LEHE157:
 3082              	.L235:
 3083              	.LEHB158:
 152:testCore.cpp  **** 	CHECK_EQUAL(0UL, queue.putIndex);
 3084              		.loc 3 152 0 is_stmt 1
 3085 1629 E8000000 		call	_ZN8UnitTest11CurrentTest7DetailsEv@PLT
 3085      00
 3086 162e 488B08   		movq	(%rax), %rcx
 3087 1631 488D4590 		leaq	-112(%rbp), %rax
 3088 1635 BA980000 		movl	$152, %edx
 3088      00
 3089 163a 4889CE   		movq	%rcx, %rsi
 3090 163d 4889C7   		movq	%rax, %rdi
 3091 1640 E8000000 		call	_ZN8UnitTest11TestDetailsC1ERKS0_i@PLT
 3091      00
 3092              	.LEHE158:
 3093              		.loc 3 152 0 is_stmt 0 discriminator 2
 3094 1645 48C74588 		movq	$0, -120(%rbp)
 3094      00000000 
 3095              	.LEHB159:
 3096 164d E8000000 		call	_ZN8UnitTest11CurrentTest7ResultsEv@PLT
 3096      00
 3097 1652 488B00   		movq	(%rax), %rax
 3098 1655 488D5590 		leaq	-112(%rbp), %rdx
 3099 1659 488D4DB0 		leaq	-80(%rbp), %rcx
 3100 165d 488D7910 		leaq	16(%rcx), %rdi
 3101 1661 488D7588 		leaq	-120(%rbp), %rsi
 3102 1665 4889D1   		movq	%rdx, %rcx
 3103 1668 4889FA   		movq	%rdi, %rdx
 3104 166b 4889C7   		movq	%rax, %rdi
 3105 166e E8000000 		call	_ZN8UnitTest10CheckEqualImmEEvRNS_11TestResultsERKT_RKT0_RKNS_11TestDetailsE
 3105      00
 3106              	.LEHE159:
 3107              	.L239:
 3108              	.LEHB160:
 153:testCore.cpp  **** 	CHECK_EQUAL(0UL, queue.takeIndex);
 3109              		.loc 3 153 0 is_stmt 1
 3110 1673 E8000000 		call	_ZN8UnitTest11CurrentTest7DetailsEv@PLT
 3110      00
 3111 1678 488B08   		movq	(%rax), %rcx
 3112 167b 488D4590 		leaq	-112(%rbp), %rax
 3113 167f BA990000 		movl	$153, %edx
 3113      00
 3114 1684 4889CE   		movq	%rcx, %rsi
 3115 1687 4889C7   		movq	%rax, %rdi
 3116 168a E8000000 		call	_ZN8UnitTest11TestDetailsC1ERKS0_i@PLT
 3116      00
 3117              	.LEHE160:
 3118              		.loc 3 153 0 is_stmt 0 discriminator 2
 3119 168f 48C74588 		movq	$0, -120(%rbp)
 3119      00000000 
 3120              	.LEHB161:
 3121 1697 E8000000 		call	_ZN8UnitTest11CurrentTest7ResultsEv@PLT
 3121      00
 3122 169c 488B00   		movq	(%rax), %rax
 3123 169f 488D5590 		leaq	-112(%rbp), %rdx
 3124 16a3 488D4DB0 		leaq	-80(%rbp), %rcx
 3125 16a7 488D7918 		leaq	24(%rcx), %rdi
 3126 16ab 488D7588 		leaq	-120(%rbp), %rsi
 3127 16af 4889D1   		movq	%rdx, %rcx
 3128 16b2 4889FA   		movq	%rdi, %rdx
 3129 16b5 4889C7   		movq	%rax, %rdi
 3130 16b8 E8000000 		call	_ZN8UnitTest10CheckEqualImmEEvRNS_11TestResultsERKT_RKT0_RKNS_11TestDetailsE
 3130      00
 3131              	.LEHE161:
 3132              	.L243:
 3133              	.LEHB162:
 154:testCore.cpp  **** 	CHECK_EQUAL(4UL, queue.numItems);
 3134              		.loc 3 154 0 is_stmt 1
 3135 16bd E8000000 		call	_ZN8UnitTest11CurrentTest7DetailsEv@PLT
 3135      00
 3136 16c2 488B08   		movq	(%rax), %rcx
 3137 16c5 488D4590 		leaq	-112(%rbp), %rax
 3138 16c9 BA9A0000 		movl	$154, %edx
 3138      00
 3139 16ce 4889CE   		movq	%rcx, %rsi
 3140 16d1 4889C7   		movq	%rax, %rdi
 3141 16d4 E8000000 		call	_ZN8UnitTest11TestDetailsC1ERKS0_i@PLT
 3141      00
 3142              	.LEHE162:
 3143              		.loc 3 154 0 is_stmt 0 discriminator 2
 3144 16d9 48C74588 		movq	$4, -120(%rbp)
 3144      04000000 
 3145              	.LEHB163:
 3146 16e1 E8000000 		call	_ZN8UnitTest11CurrentTest7ResultsEv@PLT
 3146      00
 3147 16e6 488B00   		movq	(%rax), %rax
 3148 16e9 488D5590 		leaq	-112(%rbp), %rdx
 3149 16ed 488D4DB0 		leaq	-80(%rbp), %rcx
 3150 16f1 488D7920 		leaq	32(%rcx), %rdi
 3151 16f5 488D7588 		leaq	-120(%rbp), %rsi
 3152 16f9 4889D1   		movq	%rdx, %rcx
 3153 16fc 4889FA   		movq	%rdi, %rdx
 3154 16ff 4889C7   		movq	%rax, %rdi
 3155 1702 E8000000 		call	_ZN8UnitTest10CheckEqualImmEEvRNS_11TestResultsERKT_RKT0_RKNS_11TestDetailsE
 3155      00
 3156              	.LEHE163:
 3157              	.L247:
 3158              	.LEHB164:
 155:testCore.cpp  **** 
 156:testCore.cpp  **** 	// Verify array
 157:testCore.cpp  **** 	CHECK_EQUAL(5UL, deref(queue.itemArray[0]));
 3159              		.loc 3 157 0 is_stmt 1
 3160 1707 E8000000 		call	_ZN8UnitTest11CurrentTest7DetailsEv@PLT
 3160      00
 3161 170c 488B08   		movq	(%rax), %rcx
 3162 170f 488D4590 		leaq	-112(%rbp), %rax
 3163 1713 BA9D0000 		movl	$157, %edx
 3163      00
 3164 1718 4889CE   		movq	%rcx, %rsi
 3165 171b 4889C7   		movq	%rax, %rdi
 3166 171e E8000000 		call	_ZN8UnitTest11TestDetailsC1ERKS0_i@PLT
 3166      00
 3167              	.LEHE164:
 3168              		.loc 3 157 0 is_stmt 0 discriminator 2
 3169 1723 488B45B0 		movq	-80(%rbp), %rax
 3170 1727 488B00   		movq	(%rax), %rax
 3171 172a 4889C7   		movq	%rax, %rdi
 3172 172d E858E9FF 		call	_ZL5derefPKv
 3172      FF
 3173 1732 89857CFF 		movl	%eax, -132(%rbp)
 3173      FFFF
 3174 1738 48C74588 		movq	$5, -120(%rbp)
 3174      05000000 
 3175              	.LEHB165:
 3176 1740 E8000000 		call	_ZN8UnitTest11CurrentTest7ResultsEv@PLT
 3176      00
 3177 1745 488B00   		movq	(%rax), %rax
 3178 1748 488D4D90 		leaq	-112(%rbp), %rcx
 3179 174c 488D957C 		leaq	-132(%rbp), %rdx
 3179      FFFFFF
 3180 1753 488D7588 		leaq	-120(%rbp), %rsi
 3181 1757 4889C7   		movq	%rax, %rdi
 3182 175a E8000000 		call	_ZN8UnitTest10CheckEqualImjEEvRNS_11TestResultsERKT_RKT0_RKNS_11TestDetailsE
 3182      00
 3183              	.LEHE165:
 3184              	.L251:
 3185              	.LEHB166:
 158:testCore.cpp  **** 	CHECK_EQUAL(6UL, deref(queue.itemArray[1]));
 3186              		.loc 3 158 0 is_stmt 1
 3187 175f E8000000 		call	_ZN8UnitTest11CurrentTest7DetailsEv@PLT
 3187      00
 3188 1764 488B08   		movq	(%rax), %rcx
 3189 1767 488D4590 		leaq	-112(%rbp), %rax
 3190 176b BA9E0000 		movl	$158, %edx
 3190      00
 3191 1770 4889CE   		movq	%rcx, %rsi
 3192 1773 4889C7   		movq	%rax, %rdi
 3193 1776 E8000000 		call	_ZN8UnitTest11TestDetailsC1ERKS0_i@PLT
 3193      00
 3194              	.LEHE166:
 3195              		.loc 3 158 0 is_stmt 0 discriminator 2
 3196 177b 488B45B0 		movq	-80(%rbp), %rax
 3197 177f 4883C008 		addq	$8, %rax
 3198 1783 488B00   		movq	(%rax), %rax
 3199 1786 4889C7   		movq	%rax, %rdi
 3200 1789 E8FCE8FF 		call	_ZL5derefPKv
 3200      FF
 3201 178e 89857CFF 		movl	%eax, -132(%rbp)
 3201      FFFF
 3202 1794 48C74588 		movq	$6, -120(%rbp)
 3202      06000000 
 3203              	.LEHB167:
 3204 179c E8000000 		call	_ZN8UnitTest11CurrentTest7ResultsEv@PLT
 3204      00
 3205 17a1 488B00   		movq	(%rax), %rax
 3206 17a4 488D4D90 		leaq	-112(%rbp), %rcx
 3207 17a8 488D957C 		leaq	-132(%rbp), %rdx
 3207      FFFFFF
 3208 17af 488D7588 		leaq	-120(%rbp), %rsi
 3209 17b3 4889C7   		movq	%rax, %rdi
 3210 17b6 E8000000 		call	_ZN8UnitTest10CheckEqualImjEEvRNS_11TestResultsERKT_RKT0_RKNS_11TestDetailsE
 3210      00
 3211              	.LEHE167:
 3212              	.L255:
 3213              	.LEHB168:
 159:testCore.cpp  **** 	CHECK_EQUAL(7UL, deref(queue.itemArray[2]));
 3214              		.loc 3 159 0 is_stmt 1
 3215 17bb E8000000 		call	_ZN8UnitTest11CurrentTest7DetailsEv@PLT
 3215      00
 3216 17c0 488B08   		movq	(%rax), %rcx
 3217 17c3 488D4590 		leaq	-112(%rbp), %rax
 3218 17c7 BA9F0000 		movl	$159, %edx
 3218      00
 3219 17cc 4889CE   		movq	%rcx, %rsi
 3220 17cf 4889C7   		movq	%rax, %rdi
 3221 17d2 E8000000 		call	_ZN8UnitTest11TestDetailsC1ERKS0_i@PLT
 3221      00
 3222              	.LEHE168:
 3223              		.loc 3 159 0 is_stmt 0 discriminator 2
 3224 17d7 488B45B0 		movq	-80(%rbp), %rax
 3225 17db 4883C010 		addq	$16, %rax
 3226 17df 488B00   		movq	(%rax), %rax
 3227 17e2 4889C7   		movq	%rax, %rdi
 3228 17e5 E8A0E8FF 		call	_ZL5derefPKv
 3228      FF
 3229 17ea 89857CFF 		movl	%eax, -132(%rbp)
 3229      FFFF
 3230 17f0 48C74588 		movq	$7, -120(%rbp)
 3230      07000000 
 3231              	.LEHB169:
 3232 17f8 E8000000 		call	_ZN8UnitTest11CurrentTest7ResultsEv@PLT
 3232      00
 3233 17fd 488B00   		movq	(%rax), %rax
 3234 1800 488D4D90 		leaq	-112(%rbp), %rcx
 3235 1804 488D957C 		leaq	-132(%rbp), %rdx
 3235      FFFFFF
 3236 180b 488D7588 		leaq	-120(%rbp), %rsi
 3237 180f 4889C7   		movq	%rax, %rdi
 3238 1812 E8000000 		call	_ZN8UnitTest10CheckEqualImjEEvRNS_11TestResultsERKT_RKT0_RKNS_11TestDetailsE
 3238      00
 3239              	.LEHE169:
 3240              	.L259:
 3241              	.LEHB170:
 160:testCore.cpp  **** 	CHECK_EQUAL(8UL, deref(queue.itemArray[3]));
 3242              		.loc 3 160 0 is_stmt 1
 3243 1817 E8000000 		call	_ZN8UnitTest11CurrentTest7DetailsEv@PLT
 3243      00
 3244 181c 488B08   		movq	(%rax), %rcx
 3245 181f 488D4590 		leaq	-112(%rbp), %rax
 3246 1823 BAA00000 		movl	$160, %edx
 3246      00
 3247 1828 4889CE   		movq	%rcx, %rsi
 3248 182b 4889C7   		movq	%rax, %rdi
 3249 182e E8000000 		call	_ZN8UnitTest11TestDetailsC1ERKS0_i@PLT
 3249      00
 3250              	.LEHE170:
 3251              		.loc 3 160 0 is_stmt 0 discriminator 2
 3252 1833 488B45B0 		movq	-80(%rbp), %rax
 3253 1837 4883C018 		addq	$24, %rax
 3254 183b 488B00   		movq	(%rax), %rax
 3255 183e 4889C7   		movq	%rax, %rdi
 3256 1841 E844E8FF 		call	_ZL5derefPKv
 3256      FF
 3257 1846 89857CFF 		movl	%eax, -132(%rbp)
 3257      FFFF
 3258 184c 48C74588 		movq	$8, -120(%rbp)
 3258      08000000 
 3259              	.LEHB171:
 3260 1854 E8000000 		call	_ZN8UnitTest11CurrentTest7ResultsEv@PLT
 3260      00
 3261 1859 488B00   		movq	(%rax), %rax
 3262 185c 488D4D90 		leaq	-112(%rbp), %rcx
 3263 1860 488D957C 		leaq	-132(%rbp), %rdx
 3263      FFFFFF
 3264 1867 488D7588 		leaq	-120(%rbp), %rsi
 3265 186b 4889C7   		movq	%rax, %rdi
 3266 186e E8000000 		call	_ZN8UnitTest10CheckEqualImjEEvRNS_11TestResultsERKT_RKT0_RKNS_11TestDetailsE
 3266      00
 3267              	.LEHE171:
 3268              	.L263:
 161:testCore.cpp  **** 
 162:testCore.cpp  **** 	// Clean up
 163:testCore.cpp  **** 	queueDestroy(&queue);
 3269              		.loc 3 163 0 is_stmt 1
 3270 1873 488D45B0 		leaq	-80(%rbp), %rax
 3271 1877 4889C7   		movq	%rax, %rdi
 3272              	.LEHB172:
 3273 187a E8000000 		call	queueDestroy@PLT
 3273      00
 3274              	.LEHE172:
 164:testCore.cpp  **** }
 3275              		.loc 3 164 0
 3276 187f 90       		nop
 3277 1880 488B45E8 		movq	-24(%rbp), %rax
 3278 1884 64483304 		xorq	%fs:40, %rax
 3278      25280000 
 3278      00
 3279 188d 0F847B06 		je	.L265
 3279      0000
 3280 1893 E9710600 		jmp	.L317
 3280      00
 3281              	.L267:
 3282 1898 EB00     		jmp	.L198
 3283              	.L266:
 3284              	.L198:
 126:testCore.cpp  **** 
 3285              		.loc 3 126 0
 3286 189a 4889C7   		movq	%rax, %rdi
 3287 189d E8000000 		call	__cxa_begin_catch@PLT
 3287      00
 3288              	.LEHB173:
 3289 18a2 E8000000 		call	_ZN8UnitTest11CurrentTest7ResultsEv@PLT
 3289      00
 3290 18a7 488B18   		movq	(%rax), %rbx
 3291 18aa E8000000 		call	_ZN8UnitTest11CurrentTest7DetailsEv@PLT
 3291      00
 126:testCore.cpp  **** 
 3292              		.loc 3 126 0 is_stmt 0 discriminator 8
 3293 18af 488B08   		movq	(%rax), %rcx
 3294 18b2 488D4590 		leaq	-112(%rbp), %rax
 3295 18b6 BA7E0000 		movl	$126, %edx
 3295      00
 3296 18bb 4889CE   		movq	%rcx, %rsi
 3297 18be 4889C7   		movq	%rax, %rdi
 3298 18c1 E8000000 		call	_ZN8UnitTest11TestDetailsC1ERKS0_i@PLT
 3298      00
 126:testCore.cpp  **** 
 3299              		.loc 3 126 0 discriminator 12
 3300 18c6 488D4590 		leaq	-112(%rbp), %rax
 3301 18ca 488D1500 		leaq	.LC3(%rip), %rdx
 3301      000000
 3302 18d1 4889C6   		movq	%rax, %rsi
 3303 18d4 4889DF   		movq	%rbx, %rdi
 3304 18d7 E8000000 		call	_ZN8UnitTest11TestResults13OnTestFailureERKNS_11TestDetailsEPKc@PLT
 3304      00
 3305              	.LEHE173:
 3306              	.LEHB174:
 126:testCore.cpp  **** 
 3307              		.loc 3 126 0 discriminator 14
 3308 18dc E8000000 		call	__cxa_end_catch@PLT
 3308      00
 3309              	.LEHE174:
 3310 18e1 E91DFAFF 		jmp	.L199
 3310      FF
 3311              	.L268:
 3312 18e6 4889C3   		movq	%rax, %rbx
 126:testCore.cpp  **** 
 3313              		.loc 3 126 0
 3314 18e9 E8000000 		call	__cxa_end_catch@PLT
 3314      00
 3315 18ee 4889D8   		movq	%rbx, %rax
 3316 18f1 4889C7   		movq	%rax, %rdi
 3317              	.LEHB175:
 3318 18f4 E8000000 		call	_Unwind_Resume@PLT
 3318      00
 3319              	.LEHE175:
 3320              	.L270:
 3321 18f9 EB00     		jmp	.L202
 3322              	.L269:
 3323              	.L202:
 130:testCore.cpp  **** 	CHECK_EQUAL(1UL, *item);
 3324              		.loc 3 130 0 is_stmt 1
 3325 18fb 4889C7   		movq	%rax, %rdi
 3326 18fe E8000000 		call	__cxa_begin_catch@PLT
 3326      00
 3327              	.LEHB176:
 3328 1903 E8000000 		call	_ZN8UnitTest11CurrentTest7ResultsEv@PLT
 3328      00
 3329 1908 488B18   		movq	(%rax), %rbx
 3330 190b E8000000 		call	_ZN8UnitTest11CurrentTest7DetailsEv@PLT
 3330      00
 130:testCore.cpp  **** 	CHECK_EQUAL(1UL, *item);
 3331              		.loc 3 130 0 is_stmt 0 discriminator 8
 3332 1910 488B08   		movq	(%rax), %rcx
 3333 1913 488D4590 		leaq	-112(%rbp), %rax
 3334 1917 BA820000 		movl	$130, %edx
 3334      00
 3335 191c 4889CE   		movq	%rcx, %rsi
 3336 191f 4889C7   		movq	%rax, %rdi
 3337 1922 E8000000 		call	_ZN8UnitTest11TestDetailsC1ERKS0_i@PLT
 3337      00
 130:testCore.cpp  **** 	CHECK_EQUAL(1UL, *item);
 3338              		.loc 3 130 0 discriminator 12
 3339 1927 488D4590 		leaq	-112(%rbp), %rax
 3340 192b 488D1500 		leaq	.LC3(%rip), %rdx
 3340      000000
 3341 1932 4889C6   		movq	%rax, %rsi
 3342 1935 4889DF   		movq	%rbx, %rdi
 3343 1938 E8000000 		call	_ZN8UnitTest11TestResults13OnTestFailureERKNS_11TestDetailsEPKc@PLT
 3343      00
 3344              	.LEHE176:
 3345              	.LEHB177:
 130:testCore.cpp  **** 	CHECK_EQUAL(1UL, *item);
 3346              		.loc 3 130 0 discriminator 14
 3347 193d E8000000 		call	__cxa_end_catch@PLT
 3347      00
 3348              	.LEHE177:
 3349 1942 E917FAFF 		jmp	.L203
 3349      FF
 3350              	.L271:
 3351 1947 4889C3   		movq	%rax, %rbx
 130:testCore.cpp  **** 	CHECK_EQUAL(1UL, *item);
 3352              		.loc 3 130 0
 3353 194a E8000000 		call	__cxa_end_catch@PLT
 3353      00
 3354 194f 4889D8   		movq	%rbx, %rax
 3355 1952 4889C7   		movq	%rax, %rdi
 3356              	.LEHB178:
 3357 1955 E8000000 		call	_Unwind_Resume@PLT
 3357      00
 3358              	.LEHE178:
 3359              	.L273:
 3360 195a EB00     		jmp	.L206
 3361              	.L272:
 3362              	.L206:
 131:testCore.cpp  **** 	*item = 5;
 3363              		.loc 3 131 0 is_stmt 1
 3364 195c 4889C7   		movq	%rax, %rdi
 3365 195f E8000000 		call	__cxa_begin_catch@PLT
 3365      00
 3366              	.LEHB179:
 3367 1964 E8000000 		call	_ZN8UnitTest11CurrentTest7ResultsEv@PLT
 3367      00
 3368 1969 488B18   		movq	(%rax), %rbx
 3369 196c E8000000 		call	_ZN8UnitTest11CurrentTest7DetailsEv@PLT
 3369      00
 131:testCore.cpp  **** 	*item = 5;
 3370              		.loc 3 131 0 is_stmt 0 discriminator 8
 3371 1971 488B08   		movq	(%rax), %rcx
 3372 1974 488D4590 		leaq	-112(%rbp), %rax
 3373 1978 BA830000 		movl	$131, %edx
 3373      00
 3374 197d 4889CE   		movq	%rcx, %rsi
 3375 1980 4889C7   		movq	%rax, %rdi
 3376 1983 E8000000 		call	_ZN8UnitTest11TestDetailsC1ERKS0_i@PLT
 3376      00
 131:testCore.cpp  **** 	*item = 5;
 3377              		.loc 3 131 0 discriminator 12
 3378 1988 488D4590 		leaq	-112(%rbp), %rax
 3379 198c 488D1500 		leaq	.LC13(%rip), %rdx
 3379      000000
 3380 1993 4889C6   		movq	%rax, %rsi
 3381 1996 4889DF   		movq	%rbx, %rdi
 3382 1999 E8000000 		call	_ZN8UnitTest11TestResults13OnTestFailureERKNS_11TestDetailsEPKc@PLT
 3382      00
 3383              	.LEHE179:
 3384              	.LEHB180:
 131:testCore.cpp  **** 	*item = 5;
 3385              		.loc 3 131 0 discriminator 14
 3386 199e E8000000 		call	__cxa_end_catch@PLT
 3386      00
 3387              	.LEHE180:
 3388 19a3 E9FCF9FF 		jmp	.L207
 3388      FF
 3389              	.L274:
 3390 19a8 4889C3   		movq	%rax, %rbx
 131:testCore.cpp  **** 	*item = 5;
 3391              		.loc 3 131 0
 3392 19ab E8000000 		call	__cxa_end_catch@PLT
 3392      00
 3393 19b0 4889D8   		movq	%rbx, %rax
 3394 19b3 4889C7   		movq	%rax, %rdi
 3395              	.LEHB181:
 3396 19b6 E8000000 		call	_Unwind_Resume@PLT
 3396      00
 3397              	.LEHE181:
 3398              	.L276:
 3399 19bb EB00     		jmp	.L210
 3400              	.L275:
 3401              	.L210:
 135:testCore.cpp  **** 	CHECK_EQUAL(2UL, *item);
 3402              		.loc 3 135 0 is_stmt 1
 3403 19bd 4889C7   		movq	%rax, %rdi
 3404 19c0 E8000000 		call	__cxa_begin_catch@PLT
 3404      00
 3405              	.LEHB182:
 3406 19c5 E8000000 		call	_ZN8UnitTest11CurrentTest7ResultsEv@PLT
 3406      00
 3407 19ca 488B18   		movq	(%rax), %rbx
 3408 19cd E8000000 		call	_ZN8UnitTest11CurrentTest7DetailsEv@PLT
 3408      00
 135:testCore.cpp  **** 	CHECK_EQUAL(2UL, *item);
 3409              		.loc 3 135 0 is_stmt 0 discriminator 8
 3410 19d2 488B08   		movq	(%rax), %rcx
 3411 19d5 488D4590 		leaq	-112(%rbp), %rax
 3412 19d9 BA870000 		movl	$135, %edx
 3412      00
 3413 19de 4889CE   		movq	%rcx, %rsi
 3414 19e1 4889C7   		movq	%rax, %rdi
 3415 19e4 E8000000 		call	_ZN8UnitTest11TestDetailsC1ERKS0_i@PLT
 3415      00
 135:testCore.cpp  **** 	CHECK_EQUAL(2UL, *item);
 3416              		.loc 3 135 0 discriminator 12
 3417 19e9 488D4590 		leaq	-112(%rbp), %rax
 3418 19ed 488D1500 		leaq	.LC3(%rip), %rdx
 3418      000000
 3419 19f4 4889C6   		movq	%rax, %rsi
 3420 19f7 4889DF   		movq	%rbx, %rdi
 3421 19fa E8000000 		call	_ZN8UnitTest11TestResults13OnTestFailureERKNS_11TestDetailsEPKc@PLT
 3421      00
 3422              	.LEHE182:
 3423              	.LEHB183:
 135:testCore.cpp  **** 	CHECK_EQUAL(2UL, *item);
 3424              		.loc 3 135 0 discriminator 14
 3425 19ff E8000000 		call	__cxa_end_catch@PLT
 3425      00
 3426              	.LEHE183:
 3427 1a04 E90CFAFF 		jmp	.L211
 3427      FF
 3428              	.L277:
 3429 1a09 4889C3   		movq	%rax, %rbx
 135:testCore.cpp  **** 	CHECK_EQUAL(2UL, *item);
 3430              		.loc 3 135 0
 3431 1a0c E8000000 		call	__cxa_end_catch@PLT
 3431      00
 3432 1a11 4889D8   		movq	%rbx, %rax
 3433 1a14 4889C7   		movq	%rax, %rdi
 3434              	.LEHB184:
 3435 1a17 E8000000 		call	_Unwind_Resume@PLT
 3435      00
 3436              	.LEHE184:
 3437              	.L279:
 3438 1a1c EB00     		jmp	.L214
 3439              	.L278:
 3440              	.L214:
 136:testCore.cpp  **** 	*item = 6;
 3441              		.loc 3 136 0 is_stmt 1
 3442 1a1e 4889C7   		movq	%rax, %rdi
 3443 1a21 E8000000 		call	__cxa_begin_catch@PLT
 3443      00
 3444              	.LEHB185:
 3445 1a26 E8000000 		call	_ZN8UnitTest11CurrentTest7ResultsEv@PLT
 3445      00
 3446 1a2b 488B18   		movq	(%rax), %rbx
 3447 1a2e E8000000 		call	_ZN8UnitTest11CurrentTest7DetailsEv@PLT
 3447      00
 136:testCore.cpp  **** 	*item = 6;
 3448              		.loc 3 136 0 is_stmt 0 discriminator 8
 3449 1a33 488B08   		movq	(%rax), %rcx
 3450 1a36 488D4590 		leaq	-112(%rbp), %rax
 3451 1a3a BA880000 		movl	$136, %edx
 3451      00
 3452 1a3f 4889CE   		movq	%rcx, %rsi
 3453 1a42 4889C7   		movq	%rax, %rdi
 3454 1a45 E8000000 		call	_ZN8UnitTest11TestDetailsC1ERKS0_i@PLT
 3454      00
 136:testCore.cpp  **** 	*item = 6;
 3455              		.loc 3 136 0 discriminator 12
 3456 1a4a 488D4590 		leaq	-112(%rbp), %rax
 3457 1a4e 488D1500 		leaq	.LC14(%rip), %rdx
 3457      000000
 3458 1a55 4889C6   		movq	%rax, %rsi
 3459 1a58 4889DF   		movq	%rbx, %rdi
 3460 1a5b E8000000 		call	_ZN8UnitTest11TestResults13OnTestFailureERKNS_11TestDetailsEPKc@PLT
 3460      00
 3461              	.LEHE185:
 3462              	.LEHB186:
 136:testCore.cpp  **** 	*item = 6;
 3463              		.loc 3 136 0 discriminator 14
 3464 1a60 E8000000 		call	__cxa_end_catch@PLT
 3464      00
 3465              	.LEHE186:
 3466 1a65 E9F1F9FF 		jmp	.L215
 3466      FF
 3467              	.L280:
 3468 1a6a 4889C3   		movq	%rax, %rbx
 136:testCore.cpp  **** 	*item = 6;
 3469              		.loc 3 136 0
 3470 1a6d E8000000 		call	__cxa_end_catch@PLT
 3470      00
 3471 1a72 4889D8   		movq	%rbx, %rax
 3472 1a75 4889C7   		movq	%rax, %rdi
 3473              	.LEHB187:
 3474 1a78 E8000000 		call	_Unwind_Resume@PLT
 3474      00
 3475              	.LEHE187:
 3476              	.L282:
 3477 1a7d EB00     		jmp	.L218
 3478              	.L281:
 3479              	.L218:
 140:testCore.cpp  **** 	CHECK_EQUAL(3UL, *item);
 3480              		.loc 3 140 0 is_stmt 1
 3481 1a7f 4889C7   		movq	%rax, %rdi
 3482 1a82 E8000000 		call	__cxa_begin_catch@PLT
 3482      00
 3483              	.LEHB188:
 3484 1a87 E8000000 		call	_ZN8UnitTest11CurrentTest7ResultsEv@PLT
 3484      00
 3485 1a8c 488B18   		movq	(%rax), %rbx
 3486 1a8f E8000000 		call	_ZN8UnitTest11CurrentTest7DetailsEv@PLT
 3486      00
 140:testCore.cpp  **** 	CHECK_EQUAL(3UL, *item);
 3487              		.loc 3 140 0 is_stmt 0 discriminator 8
 3488 1a94 488B08   		movq	(%rax), %rcx
 3489 1a97 488D4590 		leaq	-112(%rbp), %rax
 3490 1a9b BA8C0000 		movl	$140, %edx
 3490      00
 3491 1aa0 4889CE   		movq	%rcx, %rsi
 3492 1aa3 4889C7   		movq	%rax, %rdi
 3493 1aa6 E8000000 		call	_ZN8UnitTest11TestDetailsC1ERKS0_i@PLT
 3493      00
 140:testCore.cpp  **** 	CHECK_EQUAL(3UL, *item);
 3494              		.loc 3 140 0 discriminator 12
 3495 1aab 488D4590 		leaq	-112(%rbp), %rax
 3496 1aaf 488D1500 		leaq	.LC3(%rip), %rdx
 3496      000000
 3497 1ab6 4889C6   		movq	%rax, %rsi
 3498 1ab9 4889DF   		movq	%rbx, %rdi
 3499 1abc E8000000 		call	_ZN8UnitTest11TestResults13OnTestFailureERKNS_11TestDetailsEPKc@PLT
 3499      00
 3500              	.LEHE188:
 3501              	.LEHB189:
 140:testCore.cpp  **** 	CHECK_EQUAL(3UL, *item);
 3502              		.loc 3 140 0 discriminator 14
 3503 1ac1 E8000000 		call	__cxa_end_catch@PLT
 3503      00
 3504              	.LEHE189:
 3505 1ac6 E901FAFF 		jmp	.L219
 3505      FF
 3506              	.L283:
 3507 1acb 4889C3   		movq	%rax, %rbx
 140:testCore.cpp  **** 	CHECK_EQUAL(3UL, *item);
 3508              		.loc 3 140 0
 3509 1ace E8000000 		call	__cxa_end_catch@PLT
 3509      00
 3510 1ad3 4889D8   		movq	%rbx, %rax
 3511 1ad6 4889C7   		movq	%rax, %rdi
 3512              	.LEHB190:
 3513 1ad9 E8000000 		call	_Unwind_Resume@PLT
 3513      00
 3514              	.LEHE190:
 3515              	.L285:
 3516 1ade EB00     		jmp	.L222
 3517              	.L284:
 3518              	.L222:
 141:testCore.cpp  **** 	*item = 7;
 3519              		.loc 3 141 0 is_stmt 1
 3520 1ae0 4889C7   		movq	%rax, %rdi
 3521 1ae3 E8000000 		call	__cxa_begin_catch@PLT
 3521      00
 3522              	.LEHB191:
 3523 1ae8 E8000000 		call	_ZN8UnitTest11CurrentTest7ResultsEv@PLT
 3523      00
 3524 1aed 488B18   		movq	(%rax), %rbx
 3525 1af0 E8000000 		call	_ZN8UnitTest11CurrentTest7DetailsEv@PLT
 3525      00
 141:testCore.cpp  **** 	*item = 7;
 3526              		.loc 3 141 0 is_stmt 0 discriminator 8
 3527 1af5 488B08   		movq	(%rax), %rcx
 3528 1af8 488D4590 		leaq	-112(%rbp), %rax
 3529 1afc BA8D0000 		movl	$141, %edx
 3529      00
 3530 1b01 4889CE   		movq	%rcx, %rsi
 3531 1b04 4889C7   		movq	%rax, %rdi
 3532 1b07 E8000000 		call	_ZN8UnitTest11TestDetailsC1ERKS0_i@PLT
 3532      00
 141:testCore.cpp  **** 	*item = 7;
 3533              		.loc 3 141 0 discriminator 12
 3534 1b0c 488D4590 		leaq	-112(%rbp), %rax
 3535 1b10 488D1500 		leaq	.LC15(%rip), %rdx
 3535      000000
 3536 1b17 4889C6   		movq	%rax, %rsi
 3537 1b1a 4889DF   		movq	%rbx, %rdi
 3538 1b1d E8000000 		call	_ZN8UnitTest11TestResults13OnTestFailureERKNS_11TestDetailsEPKc@PLT
 3538      00
 3539              	.LEHE191:
 3540              	.LEHB192:
 141:testCore.cpp  **** 	*item = 7;
 3541              		.loc 3 141 0 discriminator 14
 3542 1b22 E8000000 		call	__cxa_end_catch@PLT
 3542      00
 3543              	.LEHE192:
 3544 1b27 E9E6F9FF 		jmp	.L223
 3544      FF
 3545              	.L286:
 3546 1b2c 4889C3   		movq	%rax, %rbx
 141:testCore.cpp  **** 	*item = 7;
 3547              		.loc 3 141 0
 3548 1b2f E8000000 		call	__cxa_end_catch@PLT
 3548      00
 3549 1b34 4889D8   		movq	%rbx, %rax
 3550 1b37 4889C7   		movq	%rax, %rdi
 3551              	.LEHB193:
 3552 1b3a E8000000 		call	_Unwind_Resume@PLT
 3552      00
 3553              	.LEHE193:
 3554              	.L288:
 3555 1b3f EB00     		jmp	.L226
 3556              	.L287:
 3557              	.L226:
 145:testCore.cpp  **** 	CHECK_EQUAL(4UL, *item);
 3558              		.loc 3 145 0 is_stmt 1
 3559 1b41 4889C7   		movq	%rax, %rdi
 3560 1b44 E8000000 		call	__cxa_begin_catch@PLT
 3560      00
 3561              	.LEHB194:
 3562 1b49 E8000000 		call	_ZN8UnitTest11CurrentTest7ResultsEv@PLT
 3562      00
 3563 1b4e 488B18   		movq	(%rax), %rbx
 3564 1b51 E8000000 		call	_ZN8UnitTest11CurrentTest7DetailsEv@PLT
 3564      00
 145:testCore.cpp  **** 	CHECK_EQUAL(4UL, *item);
 3565              		.loc 3 145 0 is_stmt 0 discriminator 8
 3566 1b56 488B08   		movq	(%rax), %rcx
 3567 1b59 488D4590 		leaq	-112(%rbp), %rax
 3568 1b5d BA910000 		movl	$145, %edx
 3568      00
 3569 1b62 4889CE   		movq	%rcx, %rsi
 3570 1b65 4889C7   		movq	%rax, %rdi
 3571 1b68 E8000000 		call	_ZN8UnitTest11TestDetailsC1ERKS0_i@PLT
 3571      00
 145:testCore.cpp  **** 	CHECK_EQUAL(4UL, *item);
 3572              		.loc 3 145 0 discriminator 12
 3573 1b6d 488D4590 		leaq	-112(%rbp), %rax
 3574 1b71 488D1500 		leaq	.LC3(%rip), %rdx
 3574      000000
 3575 1b78 4889C6   		movq	%rax, %rsi
 3576 1b7b 4889DF   		movq	%rbx, %rdi
 3577 1b7e E8000000 		call	_ZN8UnitTest11TestResults13OnTestFailureERKNS_11TestDetailsEPKc@PLT
 3577      00
 3578              	.LEHE194:
 3579              	.LEHB195:
 145:testCore.cpp  **** 	CHECK_EQUAL(4UL, *item);
 3580              		.loc 3 145 0 discriminator 14
 3581 1b83 E8000000 		call	__cxa_end_catch@PLT
 3581      00
 3582              	.LEHE195:
 3583 1b88 E9F6F9FF 		jmp	.L227
 3583      FF
 3584              	.L289:
 3585 1b8d 4889C3   		movq	%rax, %rbx
 145:testCore.cpp  **** 	CHECK_EQUAL(4UL, *item);
 3586              		.loc 3 145 0
 3587 1b90 E8000000 		call	__cxa_end_catch@PLT
 3587      00
 3588 1b95 4889D8   		movq	%rbx, %rax
 3589 1b98 4889C7   		movq	%rax, %rdi
 3590              	.LEHB196:
 3591 1b9b E8000000 		call	_Unwind_Resume@PLT
 3591      00
 3592              	.LEHE196:
 3593              	.L291:
 3594 1ba0 EB00     		jmp	.L230
 3595              	.L290:
 3596              	.L230:
 146:testCore.cpp  **** 	*item = 8;
 3597              		.loc 3 146 0 is_stmt 1
 3598 1ba2 4889C7   		movq	%rax, %rdi
 3599 1ba5 E8000000 		call	__cxa_begin_catch@PLT
 3599      00
 3600              	.LEHB197:
 3601 1baa E8000000 		call	_ZN8UnitTest11CurrentTest7ResultsEv@PLT
 3601      00
 3602 1baf 488B18   		movq	(%rax), %rbx
 3603 1bb2 E8000000 		call	_ZN8UnitTest11CurrentTest7DetailsEv@PLT
 3603      00
 146:testCore.cpp  **** 	*item = 8;
 3604              		.loc 3 146 0 is_stmt 0 discriminator 8
 3605 1bb7 488B08   		movq	(%rax), %rcx
 3606 1bba 488D4590 		leaq	-112(%rbp), %rax
 3607 1bbe BA920000 		movl	$146, %edx
 3607      00
 3608 1bc3 4889CE   		movq	%rcx, %rsi
 3609 1bc6 4889C7   		movq	%rax, %rdi
 3610 1bc9 E8000000 		call	_ZN8UnitTest11TestDetailsC1ERKS0_i@PLT
 3610      00
 146:testCore.cpp  **** 	*item = 8;
 3611              		.loc 3 146 0 discriminator 12
 3612 1bce 488D4590 		leaq	-112(%rbp), %rax
 3613 1bd2 488D1500 		leaq	.LC22(%rip), %rdx
 3613      000000
 3614 1bd9 4889C6   		movq	%rax, %rsi
 3615 1bdc 4889DF   		movq	%rbx, %rdi
 3616 1bdf E8000000 		call	_ZN8UnitTest11TestResults13OnTestFailureERKNS_11TestDetailsEPKc@PLT
 3616      00
 3617              	.LEHE197:
 3618              	.LEHB198:
 146:testCore.cpp  **** 	*item = 8;
 3619              		.loc 3 146 0 discriminator 14
 3620 1be4 E8000000 		call	__cxa_end_catch@PLT
 3620      00
 3621              	.LEHE198:
 3622 1be9 E9DBF9FF 		jmp	.L231
 3622      FF
 3623              	.L292:
 3624 1bee 4889C3   		movq	%rax, %rbx
 146:testCore.cpp  **** 	*item = 8;
 3625              		.loc 3 146 0
 3626 1bf1 E8000000 		call	__cxa_end_catch@PLT
 3626      00
 3627 1bf6 4889D8   		movq	%rbx, %rax
 3628 1bf9 4889C7   		movq	%rax, %rdi
 3629              	.LEHB199:
 3630 1bfc E8000000 		call	_Unwind_Resume@PLT
 3630      00
 3631              	.LEHE199:
 3632              	.L294:
 3633 1c01 EB00     		jmp	.L234
 3634              	.L293:
 3635              	.L234:
 151:testCore.cpp  **** 	CHECK_EQUAL(0UL, queue.putIndex);
 3636              		.loc 3 151 0 is_stmt 1
 3637 1c03 4889C7   		movq	%rax, %rdi
 3638 1c06 E8000000 		call	__cxa_begin_catch@PLT
 3638      00
 3639              	.LEHB200:
 3640 1c0b E8000000 		call	_ZN8UnitTest11CurrentTest7ResultsEv@PLT
 3640      00
 3641 1c10 488B18   		movq	(%rax), %rbx
 3642 1c13 E8000000 		call	_ZN8UnitTest11CurrentTest7DetailsEv@PLT
 3642      00
 151:testCore.cpp  **** 	CHECK_EQUAL(0UL, queue.putIndex);
 3643              		.loc 3 151 0 is_stmt 0 discriminator 8
 3644 1c18 488B08   		movq	(%rax), %rcx
 3645 1c1b 488D4590 		leaq	-112(%rbp), %rax
 3646 1c1f BA970000 		movl	$151, %edx
 3646      00
 3647 1c24 4889CE   		movq	%rcx, %rsi
 3648 1c27 4889C7   		movq	%rax, %rdi
 3649 1c2a E8000000 		call	_ZN8UnitTest11TestDetailsC1ERKS0_i@PLT
 3649      00
 151:testCore.cpp  **** 	CHECK_EQUAL(0UL, queue.putIndex);
 3650              		.loc 3 151 0 discriminator 12
 3651 1c2f 488D4590 		leaq	-112(%rbp), %rax
 3652 1c33 488D1500 		leaq	.LC4(%rip), %rdx
 3652      000000
 3653 1c3a 4889C6   		movq	%rax, %rsi
 3654 1c3d 4889DF   		movq	%rbx, %rdi
 3655 1c40 E8000000 		call	_ZN8UnitTest11TestResults13OnTestFailureERKNS_11TestDetailsEPKc@PLT
 3655      00
 3656              	.LEHE200:
 3657              	.LEHB201:
 151:testCore.cpp  **** 	CHECK_EQUAL(0UL, queue.putIndex);
 3658              		.loc 3 151 0 discriminator 14
 3659 1c45 E8000000 		call	__cxa_end_catch@PLT
 3659      00
 3660              	.LEHE201:
 3661 1c4a E9DAF9FF 		jmp	.L235
 3661      FF
 3662              	.L295:
 3663 1c4f 4889C3   		movq	%rax, %rbx
 151:testCore.cpp  **** 	CHECK_EQUAL(0UL, queue.putIndex);
 3664              		.loc 3 151 0
 3665 1c52 E8000000 		call	__cxa_end_catch@PLT
 3665      00
 3666 1c57 4889D8   		movq	%rbx, %rax
 3667 1c5a 4889C7   		movq	%rax, %rdi
 3668              	.LEHB202:
 3669 1c5d E8000000 		call	_Unwind_Resume@PLT
 3669      00
 3670              	.LEHE202:
 3671              	.L297:
 3672 1c62 EB00     		jmp	.L238
 3673              	.L296:
 3674              	.L238:
 152:testCore.cpp  **** 	CHECK_EQUAL(0UL, queue.takeIndex);
 3675              		.loc 3 152 0 is_stmt 1
 3676 1c64 4889C7   		movq	%rax, %rdi
 3677 1c67 E8000000 		call	__cxa_begin_catch@PLT
 3677      00
 3678              	.LEHB203:
 3679 1c6c E8000000 		call	_ZN8UnitTest11CurrentTest7ResultsEv@PLT
 3679      00
 3680 1c71 488B18   		movq	(%rax), %rbx
 3681 1c74 E8000000 		call	_ZN8UnitTest11CurrentTest7DetailsEv@PLT
 3681      00
 152:testCore.cpp  **** 	CHECK_EQUAL(0UL, queue.takeIndex);
 3682              		.loc 3 152 0 is_stmt 0 discriminator 8
 3683 1c79 488B08   		movq	(%rax), %rcx
 3684 1c7c 488D4590 		leaq	-112(%rbp), %rax
 3685 1c80 BA980000 		movl	$152, %edx
 3685      00
 3686 1c85 4889CE   		movq	%rcx, %rsi
 3687 1c88 4889C7   		movq	%rax, %rdi
 3688 1c8b E8000000 		call	_ZN8UnitTest11TestDetailsC1ERKS0_i@PLT
 3688      00
 152:testCore.cpp  **** 	CHECK_EQUAL(0UL, queue.takeIndex);
 3689              		.loc 3 152 0 discriminator 12
 3690 1c90 488D4590 		leaq	-112(%rbp), %rax
 3691 1c94 488D1500 		leaq	.LC5(%rip), %rdx
 3691      000000
 3692 1c9b 4889C6   		movq	%rax, %rsi
 3693 1c9e 4889DF   		movq	%rbx, %rdi
 3694 1ca1 E8000000 		call	_ZN8UnitTest11TestResults13OnTestFailureERKNS_11TestDetailsEPKc@PLT
 3694      00
 3695              	.LEHE203:
 3696              	.LEHB204:
 152:testCore.cpp  **** 	CHECK_EQUAL(0UL, queue.takeIndex);
 3697              		.loc 3 152 0 discriminator 14
 3698 1ca6 E8000000 		call	__cxa_end_catch@PLT
 3698      00
 3699              	.LEHE204:
 3700 1cab E9C3F9FF 		jmp	.L239
 3700      FF
 3701              	.L298:
 3702 1cb0 4889C3   		movq	%rax, %rbx
 152:testCore.cpp  **** 	CHECK_EQUAL(0UL, queue.takeIndex);
 3703              		.loc 3 152 0
 3704 1cb3 E8000000 		call	__cxa_end_catch@PLT
 3704      00
 3705 1cb8 4889D8   		movq	%rbx, %rax
 3706 1cbb 4889C7   		movq	%rax, %rdi
 3707              	.LEHB205:
 3708 1cbe E8000000 		call	_Unwind_Resume@PLT
 3708      00
 3709              	.LEHE205:
 3710              	.L300:
 3711 1cc3 EB00     		jmp	.L242
 3712              	.L299:
 3713              	.L242:
 153:testCore.cpp  **** 	CHECK_EQUAL(4UL, queue.numItems);
 3714              		.loc 3 153 0 is_stmt 1
 3715 1cc5 4889C7   		movq	%rax, %rdi
 3716 1cc8 E8000000 		call	__cxa_begin_catch@PLT
 3716      00
 3717              	.LEHB206:
 3718 1ccd E8000000 		call	_ZN8UnitTest11CurrentTest7ResultsEv@PLT
 3718      00
 3719 1cd2 488B18   		movq	(%rax), %rbx
 3720 1cd5 E8000000 		call	_ZN8UnitTest11CurrentTest7DetailsEv@PLT
 3720      00
 153:testCore.cpp  **** 	CHECK_EQUAL(4UL, queue.numItems);
 3721              		.loc 3 153 0 is_stmt 0 discriminator 8
 3722 1cda 488B08   		movq	(%rax), %rcx
 3723 1cdd 488D4590 		leaq	-112(%rbp), %rax
 3724 1ce1 BA990000 		movl	$153, %edx
 3724      00
 3725 1ce6 4889CE   		movq	%rcx, %rsi
 3726 1ce9 4889C7   		movq	%rax, %rdi
 3727 1cec E8000000 		call	_ZN8UnitTest11TestDetailsC1ERKS0_i@PLT
 3727      00
 153:testCore.cpp  **** 	CHECK_EQUAL(4UL, queue.numItems);
 3728              		.loc 3 153 0 discriminator 12
 3729 1cf1 488D4590 		leaq	-112(%rbp), %rax
 3730 1cf5 488D1500 		leaq	.LC6(%rip), %rdx
 3730      000000
 3731 1cfc 4889C6   		movq	%rax, %rsi
 3732 1cff 4889DF   		movq	%rbx, %rdi
 3733 1d02 E8000000 		call	_ZN8UnitTest11TestResults13OnTestFailureERKNS_11TestDetailsEPKc@PLT
 3733      00
 3734              	.LEHE206:
 3735              	.LEHB207:
 153:testCore.cpp  **** 	CHECK_EQUAL(4UL, queue.numItems);
 3736              		.loc 3 153 0 discriminator 14
 3737 1d07 E8000000 		call	__cxa_end_catch@PLT
 3737      00
 3738              	.LEHE207:
 3739 1d0c E9ACF9FF 		jmp	.L243
 3739      FF
 3740              	.L301:
 3741 1d11 4889C3   		movq	%rax, %rbx
 153:testCore.cpp  **** 	CHECK_EQUAL(4UL, queue.numItems);
 3742              		.loc 3 153 0
 3743 1d14 E8000000 		call	__cxa_end_catch@PLT
 3743      00
 3744 1d19 4889D8   		movq	%rbx, %rax
 3745 1d1c 4889C7   		movq	%rax, %rdi
 3746              	.LEHB208:
 3747 1d1f E8000000 		call	_Unwind_Resume@PLT
 3747      00
 3748              	.LEHE208:
 3749              	.L303:
 3750 1d24 EB00     		jmp	.L246
 3751              	.L302:
 3752              	.L246:
 154:testCore.cpp  **** 
 3753              		.loc 3 154 0 is_stmt 1
 3754 1d26 4889C7   		movq	%rax, %rdi
 3755 1d29 E8000000 		call	__cxa_begin_catch@PLT
 3755      00
 3756              	.LEHB209:
 3757 1d2e E8000000 		call	_ZN8UnitTest11CurrentTest7ResultsEv@PLT
 3757      00
 3758 1d33 488B18   		movq	(%rax), %rbx
 3759 1d36 E8000000 		call	_ZN8UnitTest11CurrentTest7DetailsEv@PLT
 3759      00
 154:testCore.cpp  **** 
 3760              		.loc 3 154 0 is_stmt 0 discriminator 8
 3761 1d3b 488B08   		movq	(%rax), %rcx
 3762 1d3e 488D4590 		leaq	-112(%rbp), %rax
 3763 1d42 BA9A0000 		movl	$154, %edx
 3763      00
 3764 1d47 4889CE   		movq	%rcx, %rsi
 3765 1d4a 4889C7   		movq	%rax, %rdi
 3766 1d4d E8000000 		call	_ZN8UnitTest11TestDetailsC1ERKS0_i@PLT
 3766      00
 154:testCore.cpp  **** 
 3767              		.loc 3 154 0 discriminator 12
 3768 1d52 488D4590 		leaq	-112(%rbp), %rax
 3769 1d56 488D1500 		leaq	.LC23(%rip), %rdx
 3769      000000
 3770 1d5d 4889C6   		movq	%rax, %rsi
 3771 1d60 4889DF   		movq	%rbx, %rdi
 3772 1d63 E8000000 		call	_ZN8UnitTest11TestResults13OnTestFailureERKNS_11TestDetailsEPKc@PLT
 3772      00
 3773              	.LEHE209:
 3774              	.LEHB210:
 154:testCore.cpp  **** 
 3775              		.loc 3 154 0 discriminator 14
 3776 1d68 E8000000 		call	__cxa_end_catch@PLT
 3776      00
 3777              	.LEHE210:
 3778 1d6d E995F9FF 		jmp	.L247
 3778      FF
 3779              	.L304:
 3780 1d72 4889C3   		movq	%rax, %rbx
 154:testCore.cpp  **** 
 3781              		.loc 3 154 0
 3782 1d75 E8000000 		call	__cxa_end_catch@PLT
 3782      00
 3783 1d7a 4889D8   		movq	%rbx, %rax
 3784 1d7d 4889C7   		movq	%rax, %rdi
 3785              	.LEHB211:
 3786 1d80 E8000000 		call	_Unwind_Resume@PLT
 3786      00
 3787              	.LEHE211:
 3788              	.L306:
 3789 1d85 EB00     		jmp	.L250
 3790              	.L305:
 3791              	.L250:
 157:testCore.cpp  **** 	CHECK_EQUAL(6UL, deref(queue.itemArray[1]));
 3792              		.loc 3 157 0 is_stmt 1
 3793 1d87 4889C7   		movq	%rax, %rdi
 3794 1d8a E8000000 		call	__cxa_begin_catch@PLT
 3794      00
 3795              	.LEHB212:
 3796 1d8f E8000000 		call	_ZN8UnitTest11CurrentTest7ResultsEv@PLT
 3796      00
 3797 1d94 488B18   		movq	(%rax), %rbx
 3798 1d97 E8000000 		call	_ZN8UnitTest11CurrentTest7DetailsEv@PLT
 3798      00
 157:testCore.cpp  **** 	CHECK_EQUAL(6UL, deref(queue.itemArray[1]));
 3799              		.loc 3 157 0 is_stmt 0 discriminator 8
 3800 1d9c 488B08   		movq	(%rax), %rcx
 3801 1d9f 488D4590 		leaq	-112(%rbp), %rax
 3802 1da3 BA9D0000 		movl	$157, %edx
 3802      00
 3803 1da8 4889CE   		movq	%rcx, %rsi
 3804 1dab 4889C7   		movq	%rax, %rdi
 3805 1dae E8000000 		call	_ZN8UnitTest11TestDetailsC1ERKS0_i@PLT
 3805      00
 157:testCore.cpp  **** 	CHECK_EQUAL(6UL, deref(queue.itemArray[1]));
 3806              		.loc 3 157 0 discriminator 12
 3807 1db3 488D4590 		leaq	-112(%rbp), %rax
 3808 1db7 488D1500 		leaq	.LC18(%rip), %rdx
 3808      000000
 3809 1dbe 4889C6   		movq	%rax, %rsi
 3810 1dc1 4889DF   		movq	%rbx, %rdi
 3811 1dc4 E8000000 		call	_ZN8UnitTest11TestResults13OnTestFailureERKNS_11TestDetailsEPKc@PLT
 3811      00
 3812              	.LEHE212:
 3813              	.LEHB213:
 157:testCore.cpp  **** 	CHECK_EQUAL(6UL, deref(queue.itemArray[1]));
 3814              		.loc 3 157 0 discriminator 14
 3815 1dc9 E8000000 		call	__cxa_end_catch@PLT
 3815      00
 3816              	.LEHE213:
 3817 1dce E98CF9FF 		jmp	.L251
 3817      FF
 3818              	.L307:
 3819 1dd3 4889C3   		movq	%rax, %rbx
 157:testCore.cpp  **** 	CHECK_EQUAL(6UL, deref(queue.itemArray[1]));
 3820              		.loc 3 157 0
 3821 1dd6 E8000000 		call	__cxa_end_catch@PLT
 3821      00
 3822 1ddb 4889D8   		movq	%rbx, %rax
 3823 1dde 4889C7   		movq	%rax, %rdi
 3824              	.LEHB214:
 3825 1de1 E8000000 		call	_Unwind_Resume@PLT
 3825      00
 3826              	.LEHE214:
 3827              	.L309:
 3828 1de6 EB00     		jmp	.L254
 3829              	.L308:
 3830              	.L254:
 158:testCore.cpp  **** 	CHECK_EQUAL(7UL, deref(queue.itemArray[2]));
 3831              		.loc 3 158 0 is_stmt 1
 3832 1de8 4889C7   		movq	%rax, %rdi
 3833 1deb E8000000 		call	__cxa_begin_catch@PLT
 3833      00
 3834              	.LEHB215:
 3835 1df0 E8000000 		call	_ZN8UnitTest11CurrentTest7ResultsEv@PLT
 3835      00
 3836 1df5 488B18   		movq	(%rax), %rbx
 3837 1df8 E8000000 		call	_ZN8UnitTest11CurrentTest7DetailsEv@PLT
 3837      00
 158:testCore.cpp  **** 	CHECK_EQUAL(7UL, deref(queue.itemArray[2]));
 3838              		.loc 3 158 0 is_stmt 0 discriminator 8
 3839 1dfd 488B08   		movq	(%rax), %rcx
 3840 1e00 488D4590 		leaq	-112(%rbp), %rax
 3841 1e04 BA9E0000 		movl	$158, %edx
 3841      00
 3842 1e09 4889CE   		movq	%rcx, %rsi
 3843 1e0c 4889C7   		movq	%rax, %rdi
 3844 1e0f E8000000 		call	_ZN8UnitTest11TestDetailsC1ERKS0_i@PLT
 3844      00
 158:testCore.cpp  **** 	CHECK_EQUAL(7UL, deref(queue.itemArray[2]));
 3845              		.loc 3 158 0 discriminator 12
 3846 1e14 488D4590 		leaq	-112(%rbp), %rax
 3847 1e18 488D1500 		leaq	.LC19(%rip), %rdx
 3847      000000
 3848 1e1f 4889C6   		movq	%rax, %rsi
 3849 1e22 4889DF   		movq	%rbx, %rdi
 3850 1e25 E8000000 		call	_ZN8UnitTest11TestResults13OnTestFailureERKNS_11TestDetailsEPKc@PLT
 3850      00
 3851              	.LEHE215:
 3852              	.LEHB216:
 158:testCore.cpp  **** 	CHECK_EQUAL(7UL, deref(queue.itemArray[2]));
 3853              		.loc 3 158 0 discriminator 14
 3854 1e2a E8000000 		call	__cxa_end_catch@PLT
 3854      00
 3855              	.LEHE216:
 3856 1e2f E987F9FF 		jmp	.L255
 3856      FF
 3857              	.L310:
 3858 1e34 4889C3   		movq	%rax, %rbx
 158:testCore.cpp  **** 	CHECK_EQUAL(7UL, deref(queue.itemArray[2]));
 3859              		.loc 3 158 0
 3860 1e37 E8000000 		call	__cxa_end_catch@PLT
 3860      00
 3861 1e3c 4889D8   		movq	%rbx, %rax
 3862 1e3f 4889C7   		movq	%rax, %rdi
 3863              	.LEHB217:
 3864 1e42 E8000000 		call	_Unwind_Resume@PLT
 3864      00
 3865              	.LEHE217:
 3866              	.L312:
 3867 1e47 EB00     		jmp	.L258
 3868              	.L311:
 3869              	.L258:
 159:testCore.cpp  **** 	CHECK_EQUAL(8UL, deref(queue.itemArray[3]));
 3870              		.loc 3 159 0 is_stmt 1
 3871 1e49 4889C7   		movq	%rax, %rdi
 3872 1e4c E8000000 		call	__cxa_begin_catch@PLT
 3872      00
 3873              	.LEHB218:
 3874 1e51 E8000000 		call	_ZN8UnitTest11CurrentTest7ResultsEv@PLT
 3874      00
 3875 1e56 488B18   		movq	(%rax), %rbx
 3876 1e59 E8000000 		call	_ZN8UnitTest11CurrentTest7DetailsEv@PLT
 3876      00
 159:testCore.cpp  **** 	CHECK_EQUAL(8UL, deref(queue.itemArray[3]));
 3877              		.loc 3 159 0 is_stmt 0 discriminator 8
 3878 1e5e 488B08   		movq	(%rax), %rcx
 3879 1e61 488D4590 		leaq	-112(%rbp), %rax
 3880 1e65 BA9F0000 		movl	$159, %edx
 3880      00
 3881 1e6a 4889CE   		movq	%rcx, %rsi
 3882 1e6d 4889C7   		movq	%rax, %rdi
 3883 1e70 E8000000 		call	_ZN8UnitTest11TestDetailsC1ERKS0_i@PLT
 3883      00
 159:testCore.cpp  **** 	CHECK_EQUAL(8UL, deref(queue.itemArray[3]));
 3884              		.loc 3 159 0 discriminator 12
 3885 1e75 488D4590 		leaq	-112(%rbp), %rax
 3886 1e79 488D1500 		leaq	.LC20(%rip), %rdx
 3886      000000
 3887 1e80 4889C6   		movq	%rax, %rsi
 3888 1e83 4889DF   		movq	%rbx, %rdi
 3889 1e86 E8000000 		call	_ZN8UnitTest11TestResults13OnTestFailureERKNS_11TestDetailsEPKc@PLT
 3889      00
 3890              	.LEHE218:
 3891              	.LEHB219:
 159:testCore.cpp  **** 	CHECK_EQUAL(8UL, deref(queue.itemArray[3]));
 3892              		.loc 3 159 0 discriminator 14
 3893 1e8b E8000000 		call	__cxa_end_catch@PLT
 3893      00
 3894              	.LEHE219:
 3895 1e90 E982F9FF 		jmp	.L259
 3895      FF
 3896              	.L313:
 3897 1e95 4889C3   		movq	%rax, %rbx
 159:testCore.cpp  **** 	CHECK_EQUAL(8UL, deref(queue.itemArray[3]));
 3898              		.loc 3 159 0
 3899 1e98 E8000000 		call	__cxa_end_catch@PLT
 3899      00
 3900 1e9d 4889D8   		movq	%rbx, %rax
 3901 1ea0 4889C7   		movq	%rax, %rdi
 3902              	.LEHB220:
 3903 1ea3 E8000000 		call	_Unwind_Resume@PLT
 3903      00
 3904              	.LEHE220:
 3905              	.L315:
 3906 1ea8 EB00     		jmp	.L262
 3907              	.L314:
 3908              	.L262:
 160:testCore.cpp  **** 
 3909              		.loc 3 160 0 is_stmt 1
 3910 1eaa 4889C7   		movq	%rax, %rdi
 3911 1ead E8000000 		call	__cxa_begin_catch@PLT
 3911      00
 3912              	.LEHB221:
 3913 1eb2 E8000000 		call	_ZN8UnitTest11CurrentTest7ResultsEv@PLT
 3913      00
 3914 1eb7 488B18   		movq	(%rax), %rbx
 3915 1eba E8000000 		call	_ZN8UnitTest11CurrentTest7DetailsEv@PLT
 3915      00
 160:testCore.cpp  **** 
 3916              		.loc 3 160 0 is_stmt 0 discriminator 8
 3917 1ebf 488B08   		movq	(%rax), %rcx
 3918 1ec2 488D4590 		leaq	-112(%rbp), %rax
 3919 1ec6 BAA00000 		movl	$160, %edx
 3919      00
 3920 1ecb 4889CE   		movq	%rcx, %rsi
 3921 1ece 4889C7   		movq	%rax, %rdi
 3922 1ed1 E8000000 		call	_ZN8UnitTest11TestDetailsC1ERKS0_i@PLT
 3922      00
 160:testCore.cpp  **** 
 3923              		.loc 3 160 0 discriminator 12
 3924 1ed6 488D4590 		leaq	-112(%rbp), %rax
 3925 1eda 488D1500 		leaq	.LC24(%rip), %rdx
 3925      000000
 3926 1ee1 4889C6   		movq	%rax, %rsi
 3927 1ee4 4889DF   		movq	%rbx, %rdi
 3928 1ee7 E8000000 		call	_ZN8UnitTest11TestResults13OnTestFailureERKNS_11TestDetailsEPKc@PLT
 3928      00
 3929              	.LEHE221:
 3930              	.LEHB222:
 160:testCore.cpp  **** 
 3931              		.loc 3 160 0 discriminator 14
 3932 1eec E8000000 		call	__cxa_end_catch@PLT
 3932      00
 3933              	.LEHE222:
 3934 1ef1 E97DF9FF 		jmp	.L263
 3934      FF
 3935              	.L316:
 3936 1ef6 4889C3   		movq	%rax, %rbx
 160:testCore.cpp  **** 
 3937              		.loc 3 160 0
 3938 1ef9 E8000000 		call	__cxa_end_catch@PLT
 3938      00
 3939 1efe 4889D8   		movq	%rbx, %rax
 3940 1f01 4889C7   		movq	%rax, %rdi
 3941              	.LEHB223:
 3942 1f04 E8000000 		call	_Unwind_Resume@PLT
 3942      00
 3943              	.LEHE223:
 3944              	.L317:
 3945              		.loc 3 164 0 is_stmt 1
 3946 1f09 E8000000 		call	__stack_chk_fail@PLT
 3946      00
 3947              	.L265:
 3948 1f0e 4881C498 		addq	$152, %rsp
 3948      000000
 3949 1f15 5B       		popq	%rbx
 3950 1f16 5D       		popq	%rbp
 3951              		.cfi_def_cfa 7, 8
 3952 1f17 C3       		ret
 3953              		.cfi_endproc
 3954              	.LFE1114:
 3955              		.section	.gcc_except_table
 3956              		.align 4
 3957              	.LLSDA1114:
 3958 02e4 FF       		.byte	0xff
 3959 02e5 9B       		.byte	0x9b
 3960 02e6 8804     		.uleb128 .LLSDATT1114-.LLSDATTD1114
 3961              	.LLSDATTD1114:
 3962 02e8 01       		.byte	0x1
 3963 02e9 FC03     		.uleb128 .LLSDACSE1114-.LLSDACSB1114
 3964              	.LLSDACSB1114:
 3965 02eb 46       		.uleb128 .LEHB132-.LFB1114
 3966 02ec 05       		.uleb128 .LEHE132-.LEHB132
 3967 02ed 00       		.uleb128 0
 3968 02ee 00       		.uleb128 0
 3969 02ef 51       		.uleb128 .LEHB133-.LFB1114
 3970 02f0 1C       		.uleb128 .LEHE133-.LEHB133
 3971 02f1 AA0C     		.uleb128 .L266-.LFB1114
 3972 02f3 01       		.uleb128 0x1
 3973 02f4 74       		.uleb128 .LEHB134-.LFB1114
 3974 02f5 1F       		.uleb128 .LEHE134-.LEHB134
 3975 02f6 A80C     		.uleb128 .L267-.LFB1114
 3976 02f8 03       		.uleb128 0x3
 3977 02f9 A101     		.uleb128 .LEHB135-.LFB1114
 3978 02fb 05       		.uleb128 .LEHE135-.LEHB135
 3979 02fc 00       		.uleb128 0
 3980 02fd 00       		.uleb128 0
 3981 02fe AC01     		.uleb128 .LEHB136-.LFB1114
 3982 0300 1C       		.uleb128 .LEHE136-.LEHB136
 3983 0301 8B0D     		.uleb128 .L269-.LFB1114
 3984 0303 01       		.uleb128 0x1
 3985 0304 CF01     		.uleb128 .LEHB137-.LFB1114
 3986 0306 1F       		.uleb128 .LEHE137-.LEHB137
 3987 0307 890D     		.uleb128 .L270-.LFB1114
 3988 0309 03       		.uleb128 0x3
 3989 030a EE01     		.uleb128 .LEHB138-.LFB1114
 3990 030c 1C       		.uleb128 .LEHE138-.LEHB138
 3991 030d EC0D     		.uleb128 .L272-.LFB1114
 3992 030f 01       		.uleb128 0x1
 3993 0310 9602     		.uleb128 .LEHB139-.LFB1114
 3994 0312 1E       		.uleb128 .LEHE139-.LEHB139
 3995 0313 EA0D     		.uleb128 .L273-.LFB1114
 3996 0315 03       		.uleb128 0x3
 3997 0316 C502     		.uleb128 .LEHB140-.LFB1114
 3998 0318 18       		.uleb128 .LEHE140-.LEHB140
 3999 0319 00       		.uleb128 0
 4000 031a 00       		.uleb128 0
 4001 031b E302     		.uleb128 .LEHB141-.LFB1114
 4002 031d 1C       		.uleb128 .LEHE141-.LEHB141
 4003 031e CD0E     		.uleb128 .L275-.LFB1114
 4004 0320 01       		.uleb128 0x1
 4005 0321 8603     		.uleb128 .LEHB142-.LFB1114
 4006 0323 1F       		.uleb128 .LEHE142-.LEHB142
 4007 0324 CB0E     		.uleb128 .L276-.LFB1114
 4008 0326 03       		.uleb128 0x3
 4009 0327 A503     		.uleb128 .LEHB143-.LFB1114
 4010 0329 1C       		.uleb128 .LEHE143-.LEHB143
 4011 032a AE0F     		.uleb128 .L278-.LFB1114
 4012 032c 01       		.uleb128 0x1
 4013 032d CD03     		.uleb128 .LEHB144-.LFB1114
 4014 032f 1E       		.uleb128 .LEHE144-.LEHB144
 4015 0330 AC0F     		.uleb128 .L279-.LFB1114
 4016 0332 03       		.uleb128 0x3
 4017 0333 FC03     		.uleb128 .LEHB145-.LFB1114
 4018 0335 18       		.uleb128 .LEHE145-.LEHB145
 4019 0336 00       		.uleb128 0
 4020 0337 00       		.uleb128 0
 4021 0338 9A04     		.uleb128 .LEHB146-.LFB1114
 4022 033a 1C       		.uleb128 .LEHE146-.LEHB146
 4023 033b 8F10     		.uleb128 .L281-.LFB1114
 4024 033d 01       		.uleb128 0x1
 4025 033e BD04     		.uleb128 .LEHB147-.LFB1114
 4026 0340 1F       		.uleb128 .LEHE147-.LEHB147
 4027 0341 8D10     		.uleb128 .L282-.LFB1114
 4028 0343 03       		.uleb128 0x3
 4029 0344 DC04     		.uleb128 .LEHB148-.LFB1114
 4030 0346 1C       		.uleb128 .LEHE148-.LEHB148
 4031 0347 F010     		.uleb128 .L284-.LFB1114
 4032 0349 01       		.uleb128 0x1
 4033 034a 8405     		.uleb128 .LEHB149-.LFB1114
 4034 034c 1E       		.uleb128 .LEHE149-.LEHB149
 4035 034d EE10     		.uleb128 .L285-.LFB1114
 4036 034f 03       		.uleb128 0x3
 4037 0350 B305     		.uleb128 .LEHB150-.LFB1114
 4038 0352 18       		.uleb128 .LEHE150-.LEHB150
 4039 0353 00       		.uleb128 0
 4040 0354 00       		.uleb128 0
 4041 0355 D105     		.uleb128 .LEHB151-.LFB1114
 4042 0357 1C       		.uleb128 .LEHE151-.LEHB151
 4043 0358 D111     		.uleb128 .L287-.LFB1114
 4044 035a 01       		.uleb128 0x1
 4045 035b F405     		.uleb128 .LEHB152-.LFB1114
 4046 035d 1F       		.uleb128 .LEHE152-.LEHB152
 4047 035e CF11     		.uleb128 .L288-.LFB1114
 4048 0360 03       		.uleb128 0x3
 4049 0361 9306     		.uleb128 .LEHB153-.LFB1114
 4050 0363 1C       		.uleb128 .LEHE153-.LEHB153
 4051 0364 B212     		.uleb128 .L290-.LFB1114
 4052 0366 01       		.uleb128 0x1
 4053 0367 BB06     		.uleb128 .LEHB154-.LFB1114
 4054 0369 1E       		.uleb128 .LEHE154-.LEHB154
 4055 036a B012     		.uleb128 .L291-.LFB1114
 4056 036c 03       		.uleb128 0x3
 4057 036d EA06     		.uleb128 .LEHB155-.LFB1114
 4058 036f 05       		.uleb128 .LEHE155-.LEHB155
 4059 0370 00       		.uleb128 0
 4060 0371 00       		.uleb128 0
 4061 0372 EF06     		.uleb128 .LEHB156-.LFB1114
 4062 0374 1C       		.uleb128 .LEHE156-.LEHB156
 4063 0375 9313     		.uleb128 .L293-.LFB1114
 4064 0377 01       		.uleb128 0x1
 4065 0378 9307     		.uleb128 .LEHB157-.LFB1114
 4066 037a 26       		.uleb128 .LEHE157-.LEHB157
 4067 037b 9113     		.uleb128 .L294-.LFB1114
 4068 037d 03       		.uleb128 0x3
 4069 037e B907     		.uleb128 .LEHB158-.LFB1114
 4070 0380 1C       		.uleb128 .LEHE158-.LEHB158
 4071 0381 F413     		.uleb128 .L296-.LFB1114
 4072 0383 01       		.uleb128 0x1
 4073 0384 DD07     		.uleb128 .LEHB159-.LFB1114
 4074 0386 26       		.uleb128 .LEHE159-.LEHB159
 4075 0387 F213     		.uleb128 .L297-.LFB1114
 4076 0389 03       		.uleb128 0x3
 4077 038a 8308     		.uleb128 .LEHB160-.LFB1114
 4078 038c 1C       		.uleb128 .LEHE160-.LEHB160
 4079 038d D514     		.uleb128 .L299-.LFB1114
 4080 038f 01       		.uleb128 0x1
 4081 0390 A708     		.uleb128 .LEHB161-.LFB1114
 4082 0392 26       		.uleb128 .LEHE161-.LEHB161
 4083 0393 D314     		.uleb128 .L300-.LFB1114
 4084 0395 03       		.uleb128 0x3
 4085 0396 CD08     		.uleb128 .LEHB162-.LFB1114
 4086 0398 1C       		.uleb128 .LEHE162-.LEHB162
 4087 0399 B615     		.uleb128 .L302-.LFB1114
 4088 039b 01       		.uleb128 0x1
 4089 039c F108     		.uleb128 .LEHB163-.LFB1114
 4090 039e 26       		.uleb128 .LEHE163-.LEHB163
 4091 039f B415     		.uleb128 .L303-.LFB1114
 4092 03a1 03       		.uleb128 0x3
 4093 03a2 9709     		.uleb128 .LEHB164-.LFB1114
 4094 03a4 1C       		.uleb128 .LEHE164-.LEHB164
 4095 03a5 9716     		.uleb128 .L305-.LFB1114
 4096 03a7 01       		.uleb128 0x1
 4097 03a8 D009     		.uleb128 .LEHB165-.LFB1114
 4098 03aa 1F       		.uleb128 .LEHE165-.LEHB165
 4099 03ab 9516     		.uleb128 .L306-.LFB1114
 4100 03ad 03       		.uleb128 0x3
 4101 03ae EF09     		.uleb128 .LEHB166-.LFB1114
 4102 03b0 1C       		.uleb128 .LEHE166-.LEHB166
 4103 03b1 F816     		.uleb128 .L308-.LFB1114
 4104 03b3 01       		.uleb128 0x1
 4105 03b4 AC0A     		.uleb128 .LEHB167-.LFB1114
 4106 03b6 1F       		.uleb128 .LEHE167-.LEHB167
 4107 03b7 F616     		.uleb128 .L309-.LFB1114
 4108 03b9 03       		.uleb128 0x3
 4109 03ba CB0A     		.uleb128 .LEHB168-.LFB1114
 4110 03bc 1C       		.uleb128 .LEHE168-.LEHB168
 4111 03bd D917     		.uleb128 .L311-.LFB1114
 4112 03bf 01       		.uleb128 0x1
 4113 03c0 880B     		.uleb128 .LEHB169-.LFB1114
 4114 03c2 1F       		.uleb128 .LEHE169-.LEHB169
 4115 03c3 D717     		.uleb128 .L312-.LFB1114
 4116 03c5 03       		.uleb128 0x3
 4117 03c6 A70B     		.uleb128 .LEHB170-.LFB1114
 4118 03c8 1C       		.uleb128 .LEHE170-.LEHB170
 4119 03c9 BA18     		.uleb128 .L314-.LFB1114
 4120 03cb 01       		.uleb128 0x1
 4121 03cc E40B     		.uleb128 .LEHB171-.LFB1114
 4122 03ce 1F       		.uleb128 .LEHE171-.LEHB171
 4123 03cf B818     		.uleb128 .L315-.LFB1114
 4124 03d1 03       		.uleb128 0x3
 4125 03d2 8A0C     		.uleb128 .LEHB172-.LFB1114
 4126 03d4 05       		.uleb128 .LEHE172-.LEHB172
 4127 03d5 00       		.uleb128 0
 4128 03d6 00       		.uleb128 0
 4129 03d7 B20C     		.uleb128 .LEHB173-.LFB1114
 4130 03d9 3A       		.uleb128 .LEHE173-.LEHB173
 4131 03da F60C     		.uleb128 .L268-.LFB1114
 4132 03dc 00       		.uleb128 0
 4133 03dd EC0C     		.uleb128 .LEHB174-.LFB1114
 4134 03df 05       		.uleb128 .LEHE174-.LEHB174
 4135 03e0 00       		.uleb128 0
 4136 03e1 00       		.uleb128 0
 4137 03e2 840D     		.uleb128 .LEHB175-.LFB1114
 4138 03e4 05       		.uleb128 .LEHE175-.LEHB175
 4139 03e5 00       		.uleb128 0
 4140 03e6 00       		.uleb128 0
 4141 03e7 930D     		.uleb128 .LEHB176-.LFB1114
 4142 03e9 3A       		.uleb128 .LEHE176-.LEHB176
 4143 03ea D70D     		.uleb128 .L271-.LFB1114
 4144 03ec 00       		.uleb128 0
 4145 03ed CD0D     		.uleb128 .LEHB177-.LFB1114
 4146 03ef 05       		.uleb128 .LEHE177-.LEHB177
 4147 03f0 00       		.uleb128 0
 4148 03f1 00       		.uleb128 0
 4149 03f2 E50D     		.uleb128 .LEHB178-.LFB1114
 4150 03f4 05       		.uleb128 .LEHE178-.LEHB178
 4151 03f5 00       		.uleb128 0
 4152 03f6 00       		.uleb128 0
 4153 03f7 F40D     		.uleb128 .LEHB179-.LFB1114
 4154 03f9 3A       		.uleb128 .LEHE179-.LEHB179
 4155 03fa B80E     		.uleb128 .L274-.LFB1114
 4156 03fc 00       		.uleb128 0
 4157 03fd AE0E     		.uleb128 .LEHB180-.LFB1114
 4158 03ff 05       		.uleb128 .LEHE180-.LEHB180
 4159 0400 00       		.uleb128 0
 4160 0401 00       		.uleb128 0
 4161 0402 C60E     		.uleb128 .LEHB181-.LFB1114
 4162 0404 05       		.uleb128 .LEHE181-.LEHB181
 4163 0405 00       		.uleb128 0
 4164 0406 00       		.uleb128 0
 4165 0407 D50E     		.uleb128 .LEHB182-.LFB1114
 4166 0409 3A       		.uleb128 .LEHE182-.LEHB182
 4167 040a 990F     		.uleb128 .L277-.LFB1114
 4168 040c 00       		.uleb128 0
 4169 040d 8F0F     		.uleb128 .LEHB183-.LFB1114
 4170 040f 05       		.uleb128 .LEHE183-.LEHB183
 4171 0410 00       		.uleb128 0
 4172 0411 00       		.uleb128 0
 4173 0412 A70F     		.uleb128 .LEHB184-.LFB1114
 4174 0414 05       		.uleb128 .LEHE184-.LEHB184
 4175 0415 00       		.uleb128 0
 4176 0416 00       		.uleb128 0
 4177 0417 B60F     		.uleb128 .LEHB185-.LFB1114
 4178 0419 3A       		.uleb128 .LEHE185-.LEHB185
 4179 041a FA0F     		.uleb128 .L280-.LFB1114
 4180 041c 00       		.uleb128 0
 4181 041d F00F     		.uleb128 .LEHB186-.LFB1114
 4182 041f 05       		.uleb128 .LEHE186-.LEHB186
 4183 0420 00       		.uleb128 0
 4184 0421 00       		.uleb128 0
 4185 0422 8810     		.uleb128 .LEHB187-.LFB1114
 4186 0424 05       		.uleb128 .LEHE187-.LEHB187
 4187 0425 00       		.uleb128 0
 4188 0426 00       		.uleb128 0
 4189 0427 9710     		.uleb128 .LEHB188-.LFB1114
 4190 0429 3A       		.uleb128 .LEHE188-.LEHB188
 4191 042a DB10     		.uleb128 .L283-.LFB1114
 4192 042c 00       		.uleb128 0
 4193 042d D110     		.uleb128 .LEHB189-.LFB1114
 4194 042f 05       		.uleb128 .LEHE189-.LEHB189
 4195 0430 00       		.uleb128 0
 4196 0431 00       		.uleb128 0
 4197 0432 E910     		.uleb128 .LEHB190-.LFB1114
 4198 0434 05       		.uleb128 .LEHE190-.LEHB190
 4199 0435 00       		.uleb128 0
 4200 0436 00       		.uleb128 0
 4201 0437 F810     		.uleb128 .LEHB191-.LFB1114
 4202 0439 3A       		.uleb128 .LEHE191-.LEHB191
 4203 043a BC11     		.uleb128 .L286-.LFB1114
 4204 043c 00       		.uleb128 0
 4205 043d B211     		.uleb128 .LEHB192-.LFB1114
 4206 043f 05       		.uleb128 .LEHE192-.LEHB192
 4207 0440 00       		.uleb128 0
 4208 0441 00       		.uleb128 0
 4209 0442 CA11     		.uleb128 .LEHB193-.LFB1114
 4210 0444 05       		.uleb128 .LEHE193-.LEHB193
 4211 0445 00       		.uleb128 0
 4212 0446 00       		.uleb128 0
 4213 0447 D911     		.uleb128 .LEHB194-.LFB1114
 4214 0449 3A       		.uleb128 .LEHE194-.LEHB194
 4215 044a 9D12     		.uleb128 .L289-.LFB1114
 4216 044c 00       		.uleb128 0
 4217 044d 9312     		.uleb128 .LEHB195-.LFB1114
 4218 044f 05       		.uleb128 .LEHE195-.LEHB195
 4219 0450 00       		.uleb128 0
 4220 0451 00       		.uleb128 0
 4221 0452 AB12     		.uleb128 .LEHB196-.LFB1114
 4222 0454 05       		.uleb128 .LEHE196-.LEHB196
 4223 0455 00       		.uleb128 0
 4224 0456 00       		.uleb128 0
 4225 0457 BA12     		.uleb128 .LEHB197-.LFB1114
 4226 0459 3A       		.uleb128 .LEHE197-.LEHB197
 4227 045a FE12     		.uleb128 .L292-.LFB1114
 4228 045c 00       		.uleb128 0
 4229 045d F412     		.uleb128 .LEHB198-.LFB1114
 4230 045f 05       		.uleb128 .LEHE198-.LEHB198
 4231 0460 00       		.uleb128 0
 4232 0461 00       		.uleb128 0
 4233 0462 8C13     		.uleb128 .LEHB199-.LFB1114
 4234 0464 05       		.uleb128 .LEHE199-.LEHB199
 4235 0465 00       		.uleb128 0
 4236 0466 00       		.uleb128 0
 4237 0467 9B13     		.uleb128 .LEHB200-.LFB1114
 4238 0469 3A       		.uleb128 .LEHE200-.LEHB200
 4239 046a DF13     		.uleb128 .L295-.LFB1114
 4240 046c 00       		.uleb128 0
 4241 046d D513     		.uleb128 .LEHB201-.LFB1114
 4242 046f 05       		.uleb128 .LEHE201-.LEHB201
 4243 0470 00       		.uleb128 0
 4244 0471 00       		.uleb128 0
 4245 0472 ED13     		.uleb128 .LEHB202-.LFB1114
 4246 0474 05       		.uleb128 .LEHE202-.LEHB202
 4247 0475 00       		.uleb128 0
 4248 0476 00       		.uleb128 0
 4249 0477 FC13     		.uleb128 .LEHB203-.LFB1114
 4250 0479 3A       		.uleb128 .LEHE203-.LEHB203
 4251 047a C014     		.uleb128 .L298-.LFB1114
 4252 047c 00       		.uleb128 0
 4253 047d B614     		.uleb128 .LEHB204-.LFB1114
 4254 047f 05       		.uleb128 .LEHE204-.LEHB204
 4255 0480 00       		.uleb128 0
 4256 0481 00       		.uleb128 0
 4257 0482 CE14     		.uleb128 .LEHB205-.LFB1114
 4258 0484 05       		.uleb128 .LEHE205-.LEHB205
 4259 0485 00       		.uleb128 0
 4260 0486 00       		.uleb128 0
 4261 0487 DD14     		.uleb128 .LEHB206-.LFB1114
 4262 0489 3A       		.uleb128 .LEHE206-.LEHB206
 4263 048a A115     		.uleb128 .L301-.LFB1114
 4264 048c 00       		.uleb128 0
 4265 048d 9715     		.uleb128 .LEHB207-.LFB1114
 4266 048f 05       		.uleb128 .LEHE207-.LEHB207
 4267 0490 00       		.uleb128 0
 4268 0491 00       		.uleb128 0
 4269 0492 AF15     		.uleb128 .LEHB208-.LFB1114
 4270 0494 05       		.uleb128 .LEHE208-.LEHB208
 4271 0495 00       		.uleb128 0
 4272 0496 00       		.uleb128 0
 4273 0497 BE15     		.uleb128 .LEHB209-.LFB1114
 4274 0499 3A       		.uleb128 .LEHE209-.LEHB209
 4275 049a 8216     		.uleb128 .L304-.LFB1114
 4276 049c 00       		.uleb128 0
 4277 049d F815     		.uleb128 .LEHB210-.LFB1114
 4278 049f 05       		.uleb128 .LEHE210-.LEHB210
 4279 04a0 00       		.uleb128 0
 4280 04a1 00       		.uleb128 0
 4281 04a2 9016     		.uleb128 .LEHB211-.LFB1114
 4282 04a4 05       		.uleb128 .LEHE211-.LEHB211
 4283 04a5 00       		.uleb128 0
 4284 04a6 00       		.uleb128 0
 4285 04a7 9F16     		.uleb128 .LEHB212-.LFB1114
 4286 04a9 3A       		.uleb128 .LEHE212-.LEHB212
 4287 04aa E316     		.uleb128 .L307-.LFB1114
 4288 04ac 00       		.uleb128 0
 4289 04ad D916     		.uleb128 .LEHB213-.LFB1114
 4290 04af 05       		.uleb128 .LEHE213-.LEHB213
 4291 04b0 00       		.uleb128 0
 4292 04b1 00       		.uleb128 0
 4293 04b2 F116     		.uleb128 .LEHB214-.LFB1114
 4294 04b4 05       		.uleb128 .LEHE214-.LEHB214
 4295 04b5 00       		.uleb128 0
 4296 04b6 00       		.uleb128 0
 4297 04b7 8017     		.uleb128 .LEHB215-.LFB1114
 4298 04b9 3A       		.uleb128 .LEHE215-.LEHB215
 4299 04ba C417     		.uleb128 .L310-.LFB1114
 4300 04bc 00       		.uleb128 0
 4301 04bd BA17     		.uleb128 .LEHB216-.LFB1114
 4302 04bf 05       		.uleb128 .LEHE216-.LEHB216
 4303 04c0 00       		.uleb128 0
 4304 04c1 00       		.uleb128 0
 4305 04c2 D217     		.uleb128 .LEHB217-.LFB1114
 4306 04c4 05       		.uleb128 .LEHE217-.LEHB217
 4307 04c5 00       		.uleb128 0
 4308 04c6 00       		.uleb128 0
 4309 04c7 E117     		.uleb128 .LEHB218-.LFB1114
 4310 04c9 3A       		.uleb128 .LEHE218-.LEHB218
 4311 04ca A518     		.uleb128 .L313-.LFB1114
 4312 04cc 00       		.uleb128 0
 4313 04cd 9B18     		.uleb128 .LEHB219-.LFB1114
 4314 04cf 05       		.uleb128 .LEHE219-.LEHB219
 4315 04d0 00       		.uleb128 0
 4316 04d1 00       		.uleb128 0
 4317 04d2 B318     		.uleb128 .LEHB220-.LFB1114
 4318 04d4 05       		.uleb128 .LEHE220-.LEHB220
 4319 04d5 00       		.uleb128 0
 4320 04d6 00       		.uleb128 0
 4321 04d7 C218     		.uleb128 .LEHB221-.LFB1114
 4322 04d9 3A       		.uleb128 .LEHE221-.LEHB221
 4323 04da 8619     		.uleb128 .L316-.LFB1114
 4324 04dc 00       		.uleb128 0
 4325 04dd FC18     		.uleb128 .LEHB222-.LFB1114
 4326 04df 05       		.uleb128 .LEHE222-.LEHB222
 4327 04e0 00       		.uleb128 0
 4328 04e1 00       		.uleb128 0
 4329 04e2 9419     		.uleb128 .LEHB223-.LFB1114
 4330 04e4 05       		.uleb128 .LEHE223-.LEHB223
 4331 04e5 00       		.uleb128 0
 4332 04e6 00       		.uleb128 0
 4333              	.LLSDACSE1114:
 4334 04e7 01       		.byte	0x1
 4335 04e8 00       		.byte	0
 4336 04e9 00       		.byte	0
 4337 04ea 7D       		.byte	0x7d
 4338 04eb 00       		.align 4
 4339 04ec 00000000 		.long	0
 4340              	
 4341              	.LLSDATT1114:
 4342              		.text
 4344              		.section	.rodata
 4345              	.LC25:
 4346 0513 51756575 		.string	"Queue_testPutTake"
 4346      655F7465 
 4346      73745075 
 4346      7454616B 
 4346      6500
 4347              		.section	.text._ZN21TestQueue_testPutTakeC2Ev,"axG",@progbits,_ZN21TestQueue_testPutTakeC5Ev,comda
 4348              		.align 2
 4349              		.weak	_ZN21TestQueue_testPutTakeC2Ev
 4351              	_ZN21TestQueue_testPutTakeC2Ev:
 4352              	.LFB1116:
 165:testCore.cpp  **** 
 166:testCore.cpp  **** TEST(Queue_testPutTake) {
 4353              		.loc 3 166 0
 4354              		.cfi_startproc
 4355 0000 55       		pushq	%rbp
 4356              		.cfi_def_cfa_offset 16
 4357              		.cfi_offset 6, -16
 4358 0001 4889E5   		movq	%rsp, %rbp
 4359              		.cfi_def_cfa_register 6
 4360 0004 53       		pushq	%rbx
 4361 0005 4883EC18 		subq	$24, %rsp
 4362              		.cfi_offset 3, -24
 4363 0009 48897DE8 		movq	%rdi, -24(%rbp)
 4364              	.LBB7:
 4365              		.loc 3 166 0
 4366 000d 488B5DE8 		movq	-24(%rbp), %rbx
 4367 0011 E8000000 		call	_ZN13UnitTestSuite12GetSuiteNameEv
 4367      00
 4368 0016 41B8A600 		movl	$166, %r8d
 4368      0000
 4369 001c 488D0D00 		leaq	.LC1(%rip), %rcx
 4369      000000
 4370 0023 4889C2   		movq	%rax, %rdx
 4371 0026 488D3500 		leaq	.LC25(%rip), %rsi
 4371      000000
 4372 002d 4889DF   		movq	%rbx, %rdi
 4373 0030 E8000000 		call	_ZN8UnitTest4TestC2EPKcS2_S2_i@PLT
 4373      00
 4374 0035 488D1500 		leaq	16+_ZTV21TestQueue_testPutTake(%rip), %rdx
 4374      000000
 4375 003c 488B45E8 		movq	-24(%rbp), %rax
 4376 0040 488910   		movq	%rdx, (%rax)
 4377              	.LBE7:
 4378 0043 90       		nop
 4379 0044 4883C418 		addq	$24, %rsp
 4380 0048 5B       		popq	%rbx
 4381 0049 5D       		popq	%rbp
 4382              		.cfi_def_cfa 7, 8
 4383 004a C3       		ret
 4384              		.cfi_endproc
 4385              	.LFE1116:
 4387              		.weak	_ZN21TestQueue_testPutTakeC1Ev
 4388              		.set	_ZN21TestQueue_testPutTakeC1Ev,_ZN21TestQueue_testPutTakeC2Ev
 4389              		.globl	testQueue_testPutTakeInstance
 4390              		.bss
 4391 00b9 00000000 		.align 32
 4391      000000
 4394              	testQueue_testPutTakeInstance:
 4395 00c0 00000000 		.zero	56
 4395      00000000 
 4395      00000000 
 4395      00000000 
 4395      00000000 
 4396              		.globl	adderQueue_testPutTake
 4399              	adderQueue_testPutTake:
 4400 00f8 00       		.zero	1
 4401              		.section	.rodata
 4402 0525 000000   		.align 8
 4403              	.LC26:
 4404 0528 556E6861 		.string	"Unhandled exception in CHECK_EQUAL(5UL, *item)"
 4404      6E646C65 
 4404      64206578 
 4404      63657074 
 4404      696F6E20 
 4405 0557 00       		.align 8
 4406              	.LC27:
 4407 0558 556E6861 		.string	"Unhandled exception in CHECK_EQUAL(6UL, *item)"
 4407      6E646C65 
 4407      64206578 
 4407      63657074 
 4407      696F6E20 
 4408 0587 00       		.align 8
 4409              	.LC28:
 4410 0588 556E6861 		.string	"Unhandled exception in CHECK_EQUAL(7UL, *item)"
 4410      6E646C65 
 4410      64206578 
 4410      63657074 
 4410      696F6E20 
 4411 05b7 00       		.align 8
 4412              	.LC29:
 4413 05b8 556E6861 		.string	"Unhandled exception in CHECK_EQUAL(8UL, *item)"
 4413      6E646C65 
 4413      64206578 
 4413      63657074 
 4413      696F6E20 
 4414              		.text
 4415              		.align 2
 4416              		.globl	_ZNK21TestQueue_testPutTake7RunImplEv
 4418              	_ZNK21TestQueue_testPutTake7RunImplEv:
 4419              	.LFB1118:
 4420              		.loc 3 166 0
 4421              		.cfi_startproc
 4422              		.cfi_personality 0x9b,DW.ref.__gxx_personality_v0
 4423              		.cfi_lsda 0x1b,.LLSDA1118
 4424 1f18 55       		pushq	%rbp
 4425              		.cfi_def_cfa_offset 16
 4426              		.cfi_offset 6, -16
 4427 1f19 4889E5   		movq	%rsp, %rbp
 4428              		.cfi_def_cfa_register 6
 4429 1f1c 53       		pushq	%rbx
 4430 1f1d 4881EC98 		subq	$152, %rsp
 4430      000000
 4431              		.cfi_offset 3, -24
 4432 1f24 4889BD68 		movq	%rdi, -152(%rbp)
 4432      FFFFFF
 4433              		.loc 3 166 0
 4434 1f2b 64488B04 		movq	%fs:40, %rax
 4434      25280000 
 4434      00
 4435 1f34 488945E8 		movq	%rax, -24(%rbp)
 4436 1f38 31C0     		xorl	%eax, %eax
 167:testCore.cpp  **** 	struct UnboundedQueue queue;
 168:testCore.cpp  **** 	uint32 *item;
 169:testCore.cpp  **** 	m_count = 1;
 4437              		.loc 3 169 0
 4438 1f3a C7050000 		movl	$1, _ZL7m_count(%rip)
 4438      00000100 
 4438      0000
 170:testCore.cpp  **** 
 171:testCore.cpp  **** 	// Create queue
 172:testCore.cpp  **** 	USBStatus status = queueInit(&queue, 4, (CreateFunc)createInt, (DestroyFunc)destroyInt);
 4439              		.loc 3 172 0
 4440 1f44 488D45B0 		leaq	-80(%rbp), %rax
 4441 1f48 488D0D00 		leaq	destroyInt(%rip), %rcx
 4441      000000
 4442 1f4f 488D1500 		leaq	createInt(%rip), %rdx
 4442      000000
 4443 1f56 BE040000 		movl	$4, %esi
 4443      00
 4444 1f5b 4889C7   		movq	%rax, %rdi
 4445              	.LEHB224:
 4446 1f5e E8000000 		call	queueInit@PLT
 4446      00
 4447              	.LEHE224:
 4448 1f63 898578FF 		movl	%eax, -136(%rbp)
 4448      FFFF
 4449              	.LEHB225:
 173:testCore.cpp  **** 	CHECK_EQUAL(USB_SUCCESS, status);
 4450              		.loc 3 173 0
 4451 1f69 E8000000 		call	_ZN8UnitTest11CurrentTest7DetailsEv@PLT
 4451      00
 4452 1f6e 488B08   		movq	(%rax), %rcx
 4453 1f71 488D4590 		leaq	-112(%rbp), %rax
 4454 1f75 BAAD0000 		movl	$173, %edx
 4454      00
 4455 1f7a 4889CE   		movq	%rcx, %rsi
 4456 1f7d 4889C7   		movq	%rax, %rdi
 4457 1f80 E8000000 		call	_ZN8UnitTest11TestDetailsC1ERKS0_i@PLT
 4457      00
 4458              	.LEHE225:
 4459              		.loc 3 173 0 is_stmt 0 discriminator 2
 4460 1f85 C7458800 		movl	$0, -120(%rbp)
 4460      000000
 4461              	.LEHB226:
 4462 1f8c E8000000 		call	_ZN8UnitTest11CurrentTest7ResultsEv@PLT
 4462      00
 4463 1f91 488B00   		movq	(%rax), %rax
 4464 1f94 488D4D90 		leaq	-112(%rbp), %rcx
 4465 1f98 488D9578 		leaq	-136(%rbp), %rdx
 4465      FFFFFF
 4466 1f9f 488D7588 		leaq	-120(%rbp), %rsi
 4467 1fa3 4889C7   		movq	%rax, %rdi
 4468 1fa6 E8000000 		call	_ZN8UnitTest10CheckEqualI9USBStatusS1_EEvRNS_11TestResultsERKT_RKT0_RKNS_11TestDetailsE
 4468      00
 4469              	.LEHE226:
 4470              	.L322:
 174:testCore.cpp  **** 
 175:testCore.cpp  **** 	// Put four items into the queue
 176:testCore.cpp  **** 	status = queuePut(&queue, (Item*)&item);
 4471              		.loc 3 176 0 is_stmt 1
 4472 1fab 488D5580 		leaq	-128(%rbp), %rdx
 4473 1faf 488D45B0 		leaq	-80(%rbp), %rax
 4474 1fb3 4889D6   		movq	%rdx, %rsi
 4475 1fb6 4889C7   		movq	%rax, %rdi
 4476              	.LEHB227:
 4477 1fb9 E8000000 		call	queuePut@PLT
 4477      00
 4478              	.LEHE227:
 4479 1fbe 898578FF 		movl	%eax, -136(%rbp)
 4479      FFFF
 4480              	.LEHB228:
 177:testCore.cpp  **** 	CHECK_EQUAL(USB_SUCCESS, status);
 4481              		.loc 3 177 0
 4482 1fc4 E8000000 		call	_ZN8UnitTest11CurrentTest7DetailsEv@PLT
 4482      00
 4483 1fc9 488B08   		movq	(%rax), %rcx
 4484 1fcc 488D4590 		leaq	-112(%rbp), %rax
 4485 1fd0 BAB10000 		movl	$177, %edx
 4485      00
 4486 1fd5 4889CE   		movq	%rcx, %rsi
 4487 1fd8 4889C7   		movq	%rax, %rdi
 4488 1fdb E8000000 		call	_ZN8UnitTest11TestDetailsC1ERKS0_i@PLT
 4488      00
 4489              	.LEHE228:
 4490              		.loc 3 177 0 is_stmt 0 discriminator 2
 4491 1fe0 C7458800 		movl	$0, -120(%rbp)
 4491      000000
 4492              	.LEHB229:
 4493 1fe7 E8000000 		call	_ZN8UnitTest11CurrentTest7ResultsEv@PLT
 4493      00
 4494 1fec 488B00   		movq	(%rax), %rax
 4495 1fef 488D4D90 		leaq	-112(%rbp), %rcx
 4496 1ff3 488D9578 		leaq	-136(%rbp), %rdx
 4496      FFFFFF
 4497 1ffa 488D7588 		leaq	-120(%rbp), %rsi
 4498 1ffe 4889C7   		movq	%rax, %rdi
 4499 2001 E8000000 		call	_ZN8UnitTest10CheckEqualI9USBStatusS1_EEvRNS_11TestResultsERKT_RKT0_RKNS_11TestDetailsE
 4499      00
 4500              	.LEHE229:
 4501              	.L326:
 4502              	.LEHB230:
 178:testCore.cpp  **** 	CHECK_EQUAL(1UL, *item);
 4503              		.loc 3 178 0 is_stmt 1
 4504 2006 E8000000 		call	_ZN8UnitTest11CurrentTest7DetailsEv@PLT
 4504      00
 4505 200b 488B08   		movq	(%rax), %rcx
 4506 200e 488D4590 		leaq	-112(%rbp), %rax
 4507 2012 BAB20000 		movl	$178, %edx
 4507      00
 4508 2017 4889CE   		movq	%rcx, %rsi
 4509 201a 4889C7   		movq	%rax, %rdi
 4510 201d E8000000 		call	_ZN8UnitTest11TestDetailsC1ERKS0_i@PLT
 4510      00
 4511              	.LEHE230:
 4512              		.loc 3 178 0 is_stmt 0 discriminator 2
 4513 2022 488B5D80 		movq	-128(%rbp), %rbx
 4514 2026 48C74588 		movq	$1, -120(%rbp)
 4514      01000000 
 4515              	.LEHB231:
 4516 202e E8000000 		call	_ZN8UnitTest11CurrentTest7ResultsEv@PLT
 4516      00
 4517 2033 488B00   		movq	(%rax), %rax
 4518 2036 488D5590 		leaq	-112(%rbp), %rdx
 4519 203a 488D7588 		leaq	-120(%rbp), %rsi
 4520 203e 4889D1   		movq	%rdx, %rcx
 4521 2041 4889DA   		movq	%rbx, %rdx
 4522 2044 4889C7   		movq	%rax, %rdi
 4523 2047 E8000000 		call	_ZN8UnitTest10CheckEqualImjEEvRNS_11TestResultsERKT_RKT0_RKNS_11TestDetailsE
 4523      00
 4524              	.LEHE231:
 4525              	.L330:
 179:testCore.cpp  **** 	*item = 5;
 4526              		.loc 3 179 0 is_stmt 1
 4527 204c 488B4580 		movq	-128(%rbp), %rax
 4528 2050 C7000500 		movl	$5, (%rax)
 4528      0000
 180:testCore.cpp  **** 	queueCommitPut(&queue);
 4529              		.loc 3 180 0
 4530 2056 488D45B0 		leaq	-80(%rbp), %rax
 4531 205a 4889C7   		movq	%rax, %rdi
 4532              	.LEHB232:
 4533 205d E8000000 		call	queueCommitPut@PLT
 4533      00
 181:testCore.cpp  **** 	status = queuePut(&queue, (Item*)&item);
 4534              		.loc 3 181 0
 4535 2062 488D5580 		leaq	-128(%rbp), %rdx
 4536 2066 488D45B0 		leaq	-80(%rbp), %rax
 4537 206a 4889D6   		movq	%rdx, %rsi
 4538 206d 4889C7   		movq	%rax, %rdi
 4539 2070 E8000000 		call	queuePut@PLT
 4539      00
 4540              	.LEHE232:
 4541 2075 898578FF 		movl	%eax, -136(%rbp)
 4541      FFFF
 4542              	.LEHB233:
 182:testCore.cpp  **** 	CHECK_EQUAL(USB_SUCCESS, status);
 4543              		.loc 3 182 0
 4544 207b E8000000 		call	_ZN8UnitTest11CurrentTest7DetailsEv@PLT
 4544      00
 4545 2080 488B08   		movq	(%rax), %rcx
 4546 2083 488D4590 		leaq	-112(%rbp), %rax
 4547 2087 BAB60000 		movl	$182, %edx
 4547      00
 4548 208c 4889CE   		movq	%rcx, %rsi
 4549 208f 4889C7   		movq	%rax, %rdi
 4550 2092 E8000000 		call	_ZN8UnitTest11TestDetailsC1ERKS0_i@PLT
 4550      00
 4551              	.LEHE233:
 4552              		.loc 3 182 0 is_stmt 0 discriminator 2
 4553 2097 C7458800 		movl	$0, -120(%rbp)
 4553      000000
 4554              	.LEHB234:
 4555 209e E8000000 		call	_ZN8UnitTest11CurrentTest7ResultsEv@PLT
 4555      00
 4556 20a3 488B00   		movq	(%rax), %rax
 4557 20a6 488D4D90 		leaq	-112(%rbp), %rcx
 4558 20aa 488D9578 		leaq	-136(%rbp), %rdx
 4558      FFFFFF
 4559 20b1 488D7588 		leaq	-120(%rbp), %rsi
 4560 20b5 4889C7   		movq	%rax, %rdi
 4561 20b8 E8000000 		call	_ZN8UnitTest10CheckEqualI9USBStatusS1_EEvRNS_11TestResultsERKT_RKT0_RKNS_11TestDetailsE
 4561      00
 4562              	.LEHE234:
 4563              	.L334:
 4564              	.LEHB235:
 183:testCore.cpp  **** 	CHECK_EQUAL(2UL, *item);
 4565              		.loc 3 183 0 is_stmt 1
 4566 20bd E8000000 		call	_ZN8UnitTest11CurrentTest7DetailsEv@PLT
 4566      00
 4567 20c2 488B08   		movq	(%rax), %rcx
 4568 20c5 488D4590 		leaq	-112(%rbp), %rax
 4569 20c9 BAB70000 		movl	$183, %edx
 4569      00
 4570 20ce 4889CE   		movq	%rcx, %rsi
 4571 20d1 4889C7   		movq	%rax, %rdi
 4572 20d4 E8000000 		call	_ZN8UnitTest11TestDetailsC1ERKS0_i@PLT
 4572      00
 4573              	.LEHE235:
 4574              		.loc 3 183 0 is_stmt 0 discriminator 2
 4575 20d9 488B5D80 		movq	-128(%rbp), %rbx
 4576 20dd 48C74588 		movq	$2, -120(%rbp)
 4576      02000000 
 4577              	.LEHB236:
 4578 20e5 E8000000 		call	_ZN8UnitTest11CurrentTest7ResultsEv@PLT
 4578      00
 4579 20ea 488B00   		movq	(%rax), %rax
 4580 20ed 488D5590 		leaq	-112(%rbp), %rdx
 4581 20f1 488D7588 		leaq	-120(%rbp), %rsi
 4582 20f5 4889D1   		movq	%rdx, %rcx
 4583 20f8 4889DA   		movq	%rbx, %rdx
 4584 20fb 4889C7   		movq	%rax, %rdi
 4585 20fe E8000000 		call	_ZN8UnitTest10CheckEqualImjEEvRNS_11TestResultsERKT_RKT0_RKNS_11TestDetailsE
 4585      00
 4586              	.LEHE236:
 4587              	.L338:
 184:testCore.cpp  **** 	*item = 6;
 4588              		.loc 3 184 0 is_stmt 1
 4589 2103 488B4580 		movq	-128(%rbp), %rax
 4590 2107 C7000600 		movl	$6, (%rax)
 4590      0000
 185:testCore.cpp  **** 	queueCommitPut(&queue);
 4591              		.loc 3 185 0
 4592 210d 488D45B0 		leaq	-80(%rbp), %rax
 4593 2111 4889C7   		movq	%rax, %rdi
 4594              	.LEHB237:
 4595 2114 E8000000 		call	queueCommitPut@PLT
 4595      00
 186:testCore.cpp  **** 	status = queuePut(&queue, (Item*)&item);
 4596              		.loc 3 186 0
 4597 2119 488D5580 		leaq	-128(%rbp), %rdx
 4598 211d 488D45B0 		leaq	-80(%rbp), %rax
 4599 2121 4889D6   		movq	%rdx, %rsi
 4600 2124 4889C7   		movq	%rax, %rdi
 4601 2127 E8000000 		call	queuePut@PLT
 4601      00
 4602              	.LEHE237:
 4603 212c 898578FF 		movl	%eax, -136(%rbp)
 4603      FFFF
 4604              	.LEHB238:
 187:testCore.cpp  **** 	CHECK_EQUAL(USB_SUCCESS, status);
 4605              		.loc 3 187 0
 4606 2132 E8000000 		call	_ZN8UnitTest11CurrentTest7DetailsEv@PLT
 4606      00
 4607 2137 488B08   		movq	(%rax), %rcx
 4608 213a 488D4590 		leaq	-112(%rbp), %rax
 4609 213e BABB0000 		movl	$187, %edx
 4609      00
 4610 2143 4889CE   		movq	%rcx, %rsi
 4611 2146 4889C7   		movq	%rax, %rdi
 4612 2149 E8000000 		call	_ZN8UnitTest11TestDetailsC1ERKS0_i@PLT
 4612      00
 4613              	.LEHE238:
 4614              		.loc 3 187 0 is_stmt 0 discriminator 2
 4615 214e C7458800 		movl	$0, -120(%rbp)
 4615      000000
 4616              	.LEHB239:
 4617 2155 E8000000 		call	_ZN8UnitTest11CurrentTest7ResultsEv@PLT
 4617      00
 4618 215a 488B00   		movq	(%rax), %rax
 4619 215d 488D4D90 		leaq	-112(%rbp), %rcx
 4620 2161 488D9578 		leaq	-136(%rbp), %rdx
 4620      FFFFFF
 4621 2168 488D7588 		leaq	-120(%rbp), %rsi
 4622 216c 4889C7   		movq	%rax, %rdi
 4623 216f E8000000 		call	_ZN8UnitTest10CheckEqualI9USBStatusS1_EEvRNS_11TestResultsERKT_RKT0_RKNS_11TestDetailsE
 4623      00
 4624              	.LEHE239:
 4625              	.L342:
 4626              	.LEHB240:
 188:testCore.cpp  **** 	CHECK_EQUAL(3UL, *item);
 4627              		.loc 3 188 0 is_stmt 1
 4628 2174 E8000000 		call	_ZN8UnitTest11CurrentTest7DetailsEv@PLT
 4628      00
 4629 2179 488B08   		movq	(%rax), %rcx
 4630 217c 488D4590 		leaq	-112(%rbp), %rax
 4631 2180 BABC0000 		movl	$188, %edx
 4631      00
 4632 2185 4889CE   		movq	%rcx, %rsi
 4633 2188 4889C7   		movq	%rax, %rdi
 4634 218b E8000000 		call	_ZN8UnitTest11TestDetailsC1ERKS0_i@PLT
 4634      00
 4635              	.LEHE240:
 4636              		.loc 3 188 0 is_stmt 0 discriminator 2
 4637 2190 488B5D80 		movq	-128(%rbp), %rbx
 4638 2194 48C74588 		movq	$3, -120(%rbp)
 4638      03000000 
 4639              	.LEHB241:
 4640 219c E8000000 		call	_ZN8UnitTest11CurrentTest7ResultsEv@PLT
 4640      00
 4641 21a1 488B00   		movq	(%rax), %rax
 4642 21a4 488D5590 		leaq	-112(%rbp), %rdx
 4643 21a8 488D7588 		leaq	-120(%rbp), %rsi
 4644 21ac 4889D1   		movq	%rdx, %rcx
 4645 21af 4889DA   		movq	%rbx, %rdx
 4646 21b2 4889C7   		movq	%rax, %rdi
 4647 21b5 E8000000 		call	_ZN8UnitTest10CheckEqualImjEEvRNS_11TestResultsERKT_RKT0_RKNS_11TestDetailsE
 4647      00
 4648              	.LEHE241:
 4649              	.L346:
 189:testCore.cpp  **** 	*item = 7;
 4650              		.loc 3 189 0 is_stmt 1
 4651 21ba 488B4580 		movq	-128(%rbp), %rax
 4652 21be C7000700 		movl	$7, (%rax)
 4652      0000
 190:testCore.cpp  **** 	queueCommitPut(&queue);
 4653              		.loc 3 190 0
 4654 21c4 488D45B0 		leaq	-80(%rbp), %rax
 4655 21c8 4889C7   		movq	%rax, %rdi
 4656              	.LEHB242:
 4657 21cb E8000000 		call	queueCommitPut@PLT
 4657      00
 191:testCore.cpp  **** 	status = queuePut(&queue, (Item*)&item);
 4658              		.loc 3 191 0
 4659 21d0 488D5580 		leaq	-128(%rbp), %rdx
 4660 21d4 488D45B0 		leaq	-80(%rbp), %rax
 4661 21d8 4889D6   		movq	%rdx, %rsi
 4662 21db 4889C7   		movq	%rax, %rdi
 4663 21de E8000000 		call	queuePut@PLT
 4663      00
 4664              	.LEHE242:
 4665 21e3 898578FF 		movl	%eax, -136(%rbp)
 4665      FFFF
 4666              	.LEHB243:
 192:testCore.cpp  **** 	CHECK_EQUAL(USB_SUCCESS, status);
 4667              		.loc 3 192 0
 4668 21e9 E8000000 		call	_ZN8UnitTest11CurrentTest7DetailsEv@PLT
 4668      00
 4669 21ee 488B08   		movq	(%rax), %rcx
 4670 21f1 488D4590 		leaq	-112(%rbp), %rax
 4671 21f5 BAC00000 		movl	$192, %edx
 4671      00
 4672 21fa 4889CE   		movq	%rcx, %rsi
 4673 21fd 4889C7   		movq	%rax, %rdi
 4674 2200 E8000000 		call	_ZN8UnitTest11TestDetailsC1ERKS0_i@PLT
 4674      00
 4675              	.LEHE243:
 4676              		.loc 3 192 0 is_stmt 0 discriminator 2
 4677 2205 C7458800 		movl	$0, -120(%rbp)
 4677      000000
 4678              	.LEHB244:
 4679 220c E8000000 		call	_ZN8UnitTest11CurrentTest7ResultsEv@PLT
 4679      00
 4680 2211 488B00   		movq	(%rax), %rax
 4681 2214 488D4D90 		leaq	-112(%rbp), %rcx
 4682 2218 488D9578 		leaq	-136(%rbp), %rdx
 4682      FFFFFF
 4683 221f 488D7588 		leaq	-120(%rbp), %rsi
 4684 2223 4889C7   		movq	%rax, %rdi
 4685 2226 E8000000 		call	_ZN8UnitTest10CheckEqualI9USBStatusS1_EEvRNS_11TestResultsERKT_RKT0_RKNS_11TestDetailsE
 4685      00
 4686              	.LEHE244:
 4687              	.L350:
 4688              	.LEHB245:
 193:testCore.cpp  **** 	CHECK_EQUAL(4UL, *item);
 4689              		.loc 3 193 0 is_stmt 1
 4690 222b E8000000 		call	_ZN8UnitTest11CurrentTest7DetailsEv@PLT
 4690      00
 4691 2230 488B08   		movq	(%rax), %rcx
 4692 2233 488D4590 		leaq	-112(%rbp), %rax
 4693 2237 BAC10000 		movl	$193, %edx
 4693      00
 4694 223c 4889CE   		movq	%rcx, %rsi
 4695 223f 4889C7   		movq	%rax, %rdi
 4696 2242 E8000000 		call	_ZN8UnitTest11TestDetailsC1ERKS0_i@PLT
 4696      00
 4697              	.LEHE245:
 4698              		.loc 3 193 0 is_stmt 0 discriminator 2
 4699 2247 488B5D80 		movq	-128(%rbp), %rbx
 4700 224b 48C74588 		movq	$4, -120(%rbp)
 4700      04000000 
 4701              	.LEHB246:
 4702 2253 E8000000 		call	_ZN8UnitTest11CurrentTest7ResultsEv@PLT
 4702      00
 4703 2258 488B00   		movq	(%rax), %rax
 4704 225b 488D5590 		leaq	-112(%rbp), %rdx
 4705 225f 488D7588 		leaq	-120(%rbp), %rsi
 4706 2263 4889D1   		movq	%rdx, %rcx
 4707 2266 4889DA   		movq	%rbx, %rdx
 4708 2269 4889C7   		movq	%rax, %rdi
 4709 226c E8000000 		call	_ZN8UnitTest10CheckEqualImjEEvRNS_11TestResultsERKT_RKT0_RKNS_11TestDetailsE
 4709      00
 4710              	.LEHE246:
 4711              	.L354:
 194:testCore.cpp  **** 	*item = 8;
 4712              		.loc 3 194 0 is_stmt 1
 4713 2271 488B4580 		movq	-128(%rbp), %rax
 4714 2275 C7000800 		movl	$8, (%rax)
 4714      0000
 195:testCore.cpp  **** 	queueCommitPut(&queue);
 4715              		.loc 3 195 0
 4716 227b 488D45B0 		leaq	-80(%rbp), %rax
 4717 227f 4889C7   		movq	%rax, %rdi
 4718              	.LEHB247:
 4719 2282 E8000000 		call	queueCommitPut@PLT
 4719      00
 196:testCore.cpp  **** 
 197:testCore.cpp  **** 	// Take four items out of the queue
 198:testCore.cpp  **** 	status = queueTake(&queue, (Item*)&item);
 4720              		.loc 3 198 0
 4721 2287 488D5580 		leaq	-128(%rbp), %rdx
 4722 228b 488D45B0 		leaq	-80(%rbp), %rax
 4723 228f 4889D6   		movq	%rdx, %rsi
 4724 2292 4889C7   		movq	%rax, %rdi
 4725 2295 E8000000 		call	queueTake@PLT
 4725      00
 4726              	.LEHE247:
 4727 229a 898578FF 		movl	%eax, -136(%rbp)
 4727      FFFF
 4728              	.LEHB248:
 199:testCore.cpp  **** 	CHECK_EQUAL(USB_SUCCESS, status);
 4729              		.loc 3 199 0
 4730 22a0 E8000000 		call	_ZN8UnitTest11CurrentTest7DetailsEv@PLT
 4730      00
 4731 22a5 488B08   		movq	(%rax), %rcx
 4732 22a8 488D4590 		leaq	-112(%rbp), %rax
 4733 22ac BAC70000 		movl	$199, %edx
 4733      00
 4734 22b1 4889CE   		movq	%rcx, %rsi
 4735 22b4 4889C7   		movq	%rax, %rdi
 4736 22b7 E8000000 		call	_ZN8UnitTest11TestDetailsC1ERKS0_i@PLT
 4736      00
 4737              	.LEHE248:
 4738              		.loc 3 199 0 is_stmt 0 discriminator 2
 4739 22bc C7458800 		movl	$0, -120(%rbp)
 4739      000000
 4740              	.LEHB249:
 4741 22c3 E8000000 		call	_ZN8UnitTest11CurrentTest7ResultsEv@PLT
 4741      00
 4742 22c8 488B00   		movq	(%rax), %rax
 4743 22cb 488D4D90 		leaq	-112(%rbp), %rcx
 4744 22cf 488D9578 		leaq	-136(%rbp), %rdx
 4744      FFFFFF
 4745 22d6 488D7588 		leaq	-120(%rbp), %rsi
 4746 22da 4889C7   		movq	%rax, %rdi
 4747 22dd E8000000 		call	_ZN8UnitTest10CheckEqualI9USBStatusS1_EEvRNS_11TestResultsERKT_RKT0_RKNS_11TestDetailsE
 4747      00
 4748              	.LEHE249:
 4749              	.L358:
 4750              	.LEHB250:
 200:testCore.cpp  **** 	CHECK_EQUAL(5UL, *item);
 4751              		.loc 3 200 0 is_stmt 1
 4752 22e2 E8000000 		call	_ZN8UnitTest11CurrentTest7DetailsEv@PLT
 4752      00
 4753 22e7 488B08   		movq	(%rax), %rcx
 4754 22ea 488D4590 		leaq	-112(%rbp), %rax
 4755 22ee BAC80000 		movl	$200, %edx
 4755      00
 4756 22f3 4889CE   		movq	%rcx, %rsi
 4757 22f6 4889C7   		movq	%rax, %rdi
 4758 22f9 E8000000 		call	_ZN8UnitTest11TestDetailsC1ERKS0_i@PLT
 4758      00
 4759              	.LEHE250:
 4760              		.loc 3 200 0 is_stmt 0 discriminator 2
 4761 22fe 488B5D80 		movq	-128(%rbp), %rbx
 4762 2302 48C74588 		movq	$5, -120(%rbp)
 4762      05000000 
 4763              	.LEHB251:
 4764 230a E8000000 		call	_ZN8UnitTest11CurrentTest7ResultsEv@PLT
 4764      00
 4765 230f 488B00   		movq	(%rax), %rax
 4766 2312 488D5590 		leaq	-112(%rbp), %rdx
 4767 2316 488D7588 		leaq	-120(%rbp), %rsi
 4768 231a 4889D1   		movq	%rdx, %rcx
 4769 231d 4889DA   		movq	%rbx, %rdx
 4770 2320 4889C7   		movq	%rax, %rdi
 4771 2323 E8000000 		call	_ZN8UnitTest10CheckEqualImjEEvRNS_11TestResultsERKT_RKT0_RKNS_11TestDetailsE
 4771      00
 4772              	.LEHE251:
 4773              	.L362:
 201:testCore.cpp  **** 	queueCommitTake(&queue);
 4774              		.loc 3 201 0 is_stmt 1
 4775 2328 488D45B0 		leaq	-80(%rbp), %rax
 4776 232c 4889C7   		movq	%rax, %rdi
 4777              	.LEHB252:
 4778 232f E8000000 		call	queueCommitTake@PLT
 4778      00
 202:testCore.cpp  **** 	status = queueTake(&queue, (Item*)&item);
 4779              		.loc 3 202 0
 4780 2334 488D5580 		leaq	-128(%rbp), %rdx
 4781 2338 488D45B0 		leaq	-80(%rbp), %rax
 4782 233c 4889D6   		movq	%rdx, %rsi
 4783 233f 4889C7   		movq	%rax, %rdi
 4784 2342 E8000000 		call	queueTake@PLT
 4784      00
 4785              	.LEHE252:
 4786 2347 898578FF 		movl	%eax, -136(%rbp)
 4786      FFFF
 4787              	.LEHB253:
 203:testCore.cpp  **** 	CHECK_EQUAL(USB_SUCCESS, status);
 4788              		.loc 3 203 0
 4789 234d E8000000 		call	_ZN8UnitTest11CurrentTest7DetailsEv@PLT
 4789      00
 4790 2352 488B08   		movq	(%rax), %rcx
 4791 2355 488D4590 		leaq	-112(%rbp), %rax
 4792 2359 BACB0000 		movl	$203, %edx
 4792      00
 4793 235e 4889CE   		movq	%rcx, %rsi
 4794 2361 4889C7   		movq	%rax, %rdi
 4795 2364 E8000000 		call	_ZN8UnitTest11TestDetailsC1ERKS0_i@PLT
 4795      00
 4796              	.LEHE253:
 4797              		.loc 3 203 0 is_stmt 0 discriminator 2
 4798 2369 C7458800 		movl	$0, -120(%rbp)
 4798      000000
 4799              	.LEHB254:
 4800 2370 E8000000 		call	_ZN8UnitTest11CurrentTest7ResultsEv@PLT
 4800      00
 4801 2375 488B00   		movq	(%rax), %rax
 4802 2378 488D4D90 		leaq	-112(%rbp), %rcx
 4803 237c 488D9578 		leaq	-136(%rbp), %rdx
 4803      FFFFFF
 4804 2383 488D7588 		leaq	-120(%rbp), %rsi
 4805 2387 4889C7   		movq	%rax, %rdi
 4806 238a E8000000 		call	_ZN8UnitTest10CheckEqualI9USBStatusS1_EEvRNS_11TestResultsERKT_RKT0_RKNS_11TestDetailsE
 4806      00
 4807              	.LEHE254:
 4808              	.L366:
 4809              	.LEHB255:
 204:testCore.cpp  **** 	CHECK_EQUAL(6UL, *item);
 4810              		.loc 3 204 0 is_stmt 1
 4811 238f E8000000 		call	_ZN8UnitTest11CurrentTest7DetailsEv@PLT
 4811      00
 4812 2394 488B08   		movq	(%rax), %rcx
 4813 2397 488D4590 		leaq	-112(%rbp), %rax
 4814 239b BACC0000 		movl	$204, %edx
 4814      00
 4815 23a0 4889CE   		movq	%rcx, %rsi
 4816 23a3 4889C7   		movq	%rax, %rdi
 4817 23a6 E8000000 		call	_ZN8UnitTest11TestDetailsC1ERKS0_i@PLT
 4817      00
 4818              	.LEHE255:
 4819              		.loc 3 204 0 is_stmt 0 discriminator 2
 4820 23ab 488B5D80 		movq	-128(%rbp), %rbx
 4821 23af 48C74588 		movq	$6, -120(%rbp)
 4821      06000000 
 4822              	.LEHB256:
 4823 23b7 E8000000 		call	_ZN8UnitTest11CurrentTest7ResultsEv@PLT
 4823      00
 4824 23bc 488B00   		movq	(%rax), %rax
 4825 23bf 488D5590 		leaq	-112(%rbp), %rdx
 4826 23c3 488D7588 		leaq	-120(%rbp), %rsi
 4827 23c7 4889D1   		movq	%rdx, %rcx
 4828 23ca 4889DA   		movq	%rbx, %rdx
 4829 23cd 4889C7   		movq	%rax, %rdi
 4830 23d0 E8000000 		call	_ZN8UnitTest10CheckEqualImjEEvRNS_11TestResultsERKT_RKT0_RKNS_11TestDetailsE
 4830      00
 4831              	.LEHE256:
 4832              	.L370:
 205:testCore.cpp  **** 	queueCommitTake(&queue);
 4833              		.loc 3 205 0 is_stmt 1
 4834 23d5 488D45B0 		leaq	-80(%rbp), %rax
 4835 23d9 4889C7   		movq	%rax, %rdi
 4836              	.LEHB257:
 4837 23dc E8000000 		call	queueCommitTake@PLT
 4837      00
 206:testCore.cpp  **** 	status = queueTake(&queue, (Item*)&item);
 4838              		.loc 3 206 0
 4839 23e1 488D5580 		leaq	-128(%rbp), %rdx
 4840 23e5 488D45B0 		leaq	-80(%rbp), %rax
 4841 23e9 4889D6   		movq	%rdx, %rsi
 4842 23ec 4889C7   		movq	%rax, %rdi
 4843 23ef E8000000 		call	queueTake@PLT
 4843      00
 4844              	.LEHE257:
 4845 23f4 898578FF 		movl	%eax, -136(%rbp)
 4845      FFFF
 4846              	.LEHB258:
 207:testCore.cpp  **** 	CHECK_EQUAL(USB_SUCCESS, status);
 4847              		.loc 3 207 0
 4848 23fa E8000000 		call	_ZN8UnitTest11CurrentTest7DetailsEv@PLT
 4848      00
 4849 23ff 488B08   		movq	(%rax), %rcx
 4850 2402 488D4590 		leaq	-112(%rbp), %rax
 4851 2406 BACF0000 		movl	$207, %edx
 4851      00
 4852 240b 4889CE   		movq	%rcx, %rsi
 4853 240e 4889C7   		movq	%rax, %rdi
 4854 2411 E8000000 		call	_ZN8UnitTest11TestDetailsC1ERKS0_i@PLT
 4854      00
 4855              	.LEHE258:
 4856              		.loc 3 207 0 is_stmt 0 discriminator 2
 4857 2416 C7458800 		movl	$0, -120(%rbp)
 4857      000000
 4858              	.LEHB259:
 4859 241d E8000000 		call	_ZN8UnitTest11CurrentTest7ResultsEv@PLT
 4859      00
 4860 2422 488B00   		movq	(%rax), %rax
 4861 2425 488D4D90 		leaq	-112(%rbp), %rcx
 4862 2429 488D9578 		leaq	-136(%rbp), %rdx
 4862      FFFFFF
 4863 2430 488D7588 		leaq	-120(%rbp), %rsi
 4864 2434 4889C7   		movq	%rax, %rdi
 4865 2437 E8000000 		call	_ZN8UnitTest10CheckEqualI9USBStatusS1_EEvRNS_11TestResultsERKT_RKT0_RKNS_11TestDetailsE
 4865      00
 4866              	.LEHE259:
 4867              	.L374:
 4868              	.LEHB260:
 208:testCore.cpp  **** 	CHECK_EQUAL(7UL, *item);
 4869              		.loc 3 208 0 is_stmt 1
 4870 243c E8000000 		call	_ZN8UnitTest11CurrentTest7DetailsEv@PLT
 4870      00
 4871 2441 488B08   		movq	(%rax), %rcx
 4872 2444 488D4590 		leaq	-112(%rbp), %rax
 4873 2448 BAD00000 		movl	$208, %edx
 4873      00
 4874 244d 4889CE   		movq	%rcx, %rsi
 4875 2450 4889C7   		movq	%rax, %rdi
 4876 2453 E8000000 		call	_ZN8UnitTest11TestDetailsC1ERKS0_i@PLT
 4876      00
 4877              	.LEHE260:
 4878              		.loc 3 208 0 is_stmt 0 discriminator 2
 4879 2458 488B5D80 		movq	-128(%rbp), %rbx
 4880 245c 48C74588 		movq	$7, -120(%rbp)
 4880      07000000 
 4881              	.LEHB261:
 4882 2464 E8000000 		call	_ZN8UnitTest11CurrentTest7ResultsEv@PLT
 4882      00
 4883 2469 488B00   		movq	(%rax), %rax
 4884 246c 488D5590 		leaq	-112(%rbp), %rdx
 4885 2470 488D7588 		leaq	-120(%rbp), %rsi
 4886 2474 4889D1   		movq	%rdx, %rcx
 4887 2477 4889DA   		movq	%rbx, %rdx
 4888 247a 4889C7   		movq	%rax, %rdi
 4889 247d E8000000 		call	_ZN8UnitTest10CheckEqualImjEEvRNS_11TestResultsERKT_RKT0_RKNS_11TestDetailsE
 4889      00
 4890              	.LEHE261:
 4891              	.L378:
 209:testCore.cpp  **** 	queueCommitTake(&queue);
 4892              		.loc 3 209 0 is_stmt 1
 4893 2482 488D45B0 		leaq	-80(%rbp), %rax
 4894 2486 4889C7   		movq	%rax, %rdi
 4895              	.LEHB262:
 4896 2489 E8000000 		call	queueCommitTake@PLT
 4896      00
 210:testCore.cpp  **** 	status = queueTake(&queue, (Item*)&item);
 4897              		.loc 3 210 0
 4898 248e 488D5580 		leaq	-128(%rbp), %rdx
 4899 2492 488D45B0 		leaq	-80(%rbp), %rax
 4900 2496 4889D6   		movq	%rdx, %rsi
 4901 2499 4889C7   		movq	%rax, %rdi
 4902 249c E8000000 		call	queueTake@PLT
 4902      00
 4903              	.LEHE262:
 4904 24a1 898578FF 		movl	%eax, -136(%rbp)
 4904      FFFF
 4905              	.LEHB263:
 211:testCore.cpp  **** 	CHECK_EQUAL(USB_SUCCESS, status);
 4906              		.loc 3 211 0
 4907 24a7 E8000000 		call	_ZN8UnitTest11CurrentTest7DetailsEv@PLT
 4907      00
 4908 24ac 488B08   		movq	(%rax), %rcx
 4909 24af 488D4590 		leaq	-112(%rbp), %rax
 4910 24b3 BAD30000 		movl	$211, %edx
 4910      00
 4911 24b8 4889CE   		movq	%rcx, %rsi
 4912 24bb 4889C7   		movq	%rax, %rdi
 4913 24be E8000000 		call	_ZN8UnitTest11TestDetailsC1ERKS0_i@PLT
 4913      00
 4914              	.LEHE263:
 4915              		.loc 3 211 0 is_stmt 0 discriminator 2
 4916 24c3 C7458800 		movl	$0, -120(%rbp)
 4916      000000
 4917              	.LEHB264:
 4918 24ca E8000000 		call	_ZN8UnitTest11CurrentTest7ResultsEv@PLT
 4918      00
 4919 24cf 488B00   		movq	(%rax), %rax
 4920 24d2 488D4D90 		leaq	-112(%rbp), %rcx
 4921 24d6 488D9578 		leaq	-136(%rbp), %rdx
 4921      FFFFFF
 4922 24dd 488D7588 		leaq	-120(%rbp), %rsi
 4923 24e1 4889C7   		movq	%rax, %rdi
 4924 24e4 E8000000 		call	_ZN8UnitTest10CheckEqualI9USBStatusS1_EEvRNS_11TestResultsERKT_RKT0_RKNS_11TestDetailsE
 4924      00
 4925              	.LEHE264:
 4926              	.L382:
 4927              	.LEHB265:
 212:testCore.cpp  **** 	CHECK_EQUAL(8UL, *item);
 4928              		.loc 3 212 0 is_stmt 1
 4929 24e9 E8000000 		call	_ZN8UnitTest11CurrentTest7DetailsEv@PLT
 4929      00
 4930 24ee 488B08   		movq	(%rax), %rcx
 4931 24f1 488D4590 		leaq	-112(%rbp), %rax
 4932 24f5 BAD40000 		movl	$212, %edx
 4932      00
 4933 24fa 4889CE   		movq	%rcx, %rsi
 4934 24fd 4889C7   		movq	%rax, %rdi
 4935 2500 E8000000 		call	_ZN8UnitTest11TestDetailsC1ERKS0_i@PLT
 4935      00
 4936              	.LEHE265:
 4937              		.loc 3 212 0 is_stmt 0 discriminator 2
 4938 2505 488B5D80 		movq	-128(%rbp), %rbx
 4939 2509 48C74588 		movq	$8, -120(%rbp)
 4939      08000000 
 4940              	.LEHB266:
 4941 2511 E8000000 		call	_ZN8UnitTest11CurrentTest7ResultsEv@PLT
 4941      00
 4942 2516 488B00   		movq	(%rax), %rax
 4943 2519 488D5590 		leaq	-112(%rbp), %rdx
 4944 251d 488D7588 		leaq	-120(%rbp), %rsi
 4945 2521 4889D1   		movq	%rdx, %rcx
 4946 2524 4889DA   		movq	%rbx, %rdx
 4947 2527 4889C7   		movq	%rax, %rdi
 4948 252a E8000000 		call	_ZN8UnitTest10CheckEqualImjEEvRNS_11TestResultsERKT_RKT0_RKNS_11TestDetailsE
 4948      00
 4949              	.LEHE266:
 4950              	.L386:
 213:testCore.cpp  **** 	queueCommitTake(&queue);
 4951              		.loc 3 213 0 is_stmt 1
 4952 252f 488D45B0 		leaq	-80(%rbp), %rax
 4953 2533 4889C7   		movq	%rax, %rdi
 4954              	.LEHB267:
 4955 2536 E8000000 		call	queueCommitTake@PLT
 4955      00
 4956              	.LEHE267:
 4957              	.LEHB268:
 214:testCore.cpp  **** 
 215:testCore.cpp  **** 	// Verify
 216:testCore.cpp  **** 	CHECK_EQUAL(4UL, queue.capacity);
 4958              		.loc 3 216 0
 4959 253b E8000000 		call	_ZN8UnitTest11CurrentTest7DetailsEv@PLT
 4959      00
 4960 2540 488B08   		movq	(%rax), %rcx
 4961 2543 488D4590 		leaq	-112(%rbp), %rax
 4962 2547 BAD80000 		movl	$216, %edx
 4962      00
 4963 254c 4889CE   		movq	%rcx, %rsi
 4964 254f 4889C7   		movq	%rax, %rdi
 4965 2552 E8000000 		call	_ZN8UnitTest11TestDetailsC1ERKS0_i@PLT
 4965      00
 4966              	.LEHE268:
 4967              		.loc 3 216 0 is_stmt 0 discriminator 2
 4968 2557 48C74588 		movq	$4, -120(%rbp)
 4968      04000000 
 4969              	.LEHB269:
 4970 255f E8000000 		call	_ZN8UnitTest11CurrentTest7ResultsEv@PLT
 4970      00
 4971 2564 488B00   		movq	(%rax), %rax
 4972 2567 488D5590 		leaq	-112(%rbp), %rdx
 4973 256b 488D4DB0 		leaq	-80(%rbp), %rcx
 4974 256f 488D7908 		leaq	8(%rcx), %rdi
 4975 2573 488D7588 		leaq	-120(%rbp), %rsi
 4976 2577 4889D1   		movq	%rdx, %rcx
 4977 257a 4889FA   		movq	%rdi, %rdx
 4978 257d 4889C7   		movq	%rax, %rdi
 4979 2580 E8000000 		call	_ZN8UnitTest10CheckEqualImmEEvRNS_11TestResultsERKT_RKT0_RKNS_11TestDetailsE
 4979      00
 4980              	.LEHE269:
 4981              	.L390:
 4982              	.LEHB270:
 217:testCore.cpp  **** 	CHECK_EQUAL(0UL, queue.putIndex);
 4983              		.loc 3 217 0 is_stmt 1
 4984 2585 E8000000 		call	_ZN8UnitTest11CurrentTest7DetailsEv@PLT
 4984      00
 4985 258a 488B08   		movq	(%rax), %rcx
 4986 258d 488D4590 		leaq	-112(%rbp), %rax
 4987 2591 BAD90000 		movl	$217, %edx
 4987      00
 4988 2596 4889CE   		movq	%rcx, %rsi
 4989 2599 4889C7   		movq	%rax, %rdi
 4990 259c E8000000 		call	_ZN8UnitTest11TestDetailsC1ERKS0_i@PLT
 4990      00
 4991              	.LEHE270:
 4992              		.loc 3 217 0 is_stmt 0 discriminator 2
 4993 25a1 48C74588 		movq	$0, -120(%rbp)
 4993      00000000 
 4994              	.LEHB271:
 4995 25a9 E8000000 		call	_ZN8UnitTest11CurrentTest7ResultsEv@PLT
 4995      00
 4996 25ae 488B00   		movq	(%rax), %rax
 4997 25b1 488D5590 		leaq	-112(%rbp), %rdx
 4998 25b5 488D4DB0 		leaq	-80(%rbp), %rcx
 4999 25b9 488D7910 		leaq	16(%rcx), %rdi
 5000 25bd 488D7588 		leaq	-120(%rbp), %rsi
 5001 25c1 4889D1   		movq	%rdx, %rcx
 5002 25c4 4889FA   		movq	%rdi, %rdx
 5003 25c7 4889C7   		movq	%rax, %rdi
 5004 25ca E8000000 		call	_ZN8UnitTest10CheckEqualImmEEvRNS_11TestResultsERKT_RKT0_RKNS_11TestDetailsE
 5004      00
 5005              	.LEHE271:
 5006              	.L394:
 5007              	.LEHB272:
 218:testCore.cpp  **** 	CHECK_EQUAL(0UL, queue.takeIndex);
 5008              		.loc 3 218 0 is_stmt 1
 5009 25cf E8000000 		call	_ZN8UnitTest11CurrentTest7DetailsEv@PLT
 5009      00
 5010 25d4 488B08   		movq	(%rax), %rcx
 5011 25d7 488D4590 		leaq	-112(%rbp), %rax
 5012 25db BADA0000 		movl	$218, %edx
 5012      00
 5013 25e0 4889CE   		movq	%rcx, %rsi
 5014 25e3 4889C7   		movq	%rax, %rdi
 5015 25e6 E8000000 		call	_ZN8UnitTest11TestDetailsC1ERKS0_i@PLT
 5015      00
 5016              	.LEHE272:
 5017              		.loc 3 218 0 is_stmt 0 discriminator 2
 5018 25eb 48C74588 		movq	$0, -120(%rbp)
 5018      00000000 
 5019              	.LEHB273:
 5020 25f3 E8000000 		call	_ZN8UnitTest11CurrentTest7ResultsEv@PLT
 5020      00
 5021 25f8 488B00   		movq	(%rax), %rax
 5022 25fb 488D5590 		leaq	-112(%rbp), %rdx
 5023 25ff 488D4DB0 		leaq	-80(%rbp), %rcx
 5024 2603 488D7918 		leaq	24(%rcx), %rdi
 5025 2607 488D7588 		leaq	-120(%rbp), %rsi
 5026 260b 4889D1   		movq	%rdx, %rcx
 5027 260e 4889FA   		movq	%rdi, %rdx
 5028 2611 4889C7   		movq	%rax, %rdi
 5029 2614 E8000000 		call	_ZN8UnitTest10CheckEqualImmEEvRNS_11TestResultsERKT_RKT0_RKNS_11TestDetailsE
 5029      00
 5030              	.LEHE273:
 5031              	.L398:
 5032              	.LEHB274:
 219:testCore.cpp  **** 	CHECK_EQUAL(0UL, queue.numItems);
 5033              		.loc 3 219 0 is_stmt 1
 5034 2619 E8000000 		call	_ZN8UnitTest11CurrentTest7DetailsEv@PLT
 5034      00
 5035 261e 488B08   		movq	(%rax), %rcx
 5036 2621 488D4590 		leaq	-112(%rbp), %rax
 5037 2625 BADB0000 		movl	$219, %edx
 5037      00
 5038 262a 4889CE   		movq	%rcx, %rsi
 5039 262d 4889C7   		movq	%rax, %rdi
 5040 2630 E8000000 		call	_ZN8UnitTest11TestDetailsC1ERKS0_i@PLT
 5040      00
 5041              	.LEHE274:
 5042              		.loc 3 219 0 is_stmt 0 discriminator 2
 5043 2635 48C74588 		movq	$0, -120(%rbp)
 5043      00000000 
 5044              	.LEHB275:
 5045 263d E8000000 		call	_ZN8UnitTest11CurrentTest7ResultsEv@PLT
 5045      00
 5046 2642 488B00   		movq	(%rax), %rax
 5047 2645 488D5590 		leaq	-112(%rbp), %rdx
 5048 2649 488D4DB0 		leaq	-80(%rbp), %rcx
 5049 264d 488D7920 		leaq	32(%rcx), %rdi
 5050 2651 488D7588 		leaq	-120(%rbp), %rsi
 5051 2655 4889D1   		movq	%rdx, %rcx
 5052 2658 4889FA   		movq	%rdi, %rdx
 5053 265b 4889C7   		movq	%rax, %rdi
 5054 265e E8000000 		call	_ZN8UnitTest10CheckEqualImmEEvRNS_11TestResultsERKT_RKT0_RKNS_11TestDetailsE
 5054      00
 5055              	.LEHE275:
 5056              	.L402:
 5057              	.LEHB276:
 220:testCore.cpp  **** 
 221:testCore.cpp  **** 	// Verify array
 222:testCore.cpp  **** 	CHECK_EQUAL(5UL, deref(queue.itemArray[0]));
 5058              		.loc 3 222 0 is_stmt 1
 5059 2663 E8000000 		call	_ZN8UnitTest11CurrentTest7DetailsEv@PLT
 5059      00
 5060 2668 488B08   		movq	(%rax), %rcx
 5061 266b 488D4590 		leaq	-112(%rbp), %rax
 5062 266f BADE0000 		movl	$222, %edx
 5062      00
 5063 2674 4889CE   		movq	%rcx, %rsi
 5064 2677 4889C7   		movq	%rax, %rdi
 5065 267a E8000000 		call	_ZN8UnitTest11TestDetailsC1ERKS0_i@PLT
 5065      00
 5066              	.LEHE276:
 5067              		.loc 3 222 0 is_stmt 0 discriminator 2
 5068 267f 488B45B0 		movq	-80(%rbp), %rax
 5069 2683 488B00   		movq	(%rax), %rax
 5070 2686 4889C7   		movq	%rax, %rdi
 5071 2689 E8FCD9FF 		call	_ZL5derefPKv
 5071      FF
 5072 268e 89857CFF 		movl	%eax, -132(%rbp)
 5072      FFFF
 5073 2694 48C74588 		movq	$5, -120(%rbp)
 5073      05000000 
 5074              	.LEHB277:
 5075 269c E8000000 		call	_ZN8UnitTest11CurrentTest7ResultsEv@PLT
 5075      00
 5076 26a1 488B00   		movq	(%rax), %rax
 5077 26a4 488D4D90 		leaq	-112(%rbp), %rcx
 5078 26a8 488D957C 		leaq	-132(%rbp), %rdx
 5078      FFFFFF
 5079 26af 488D7588 		leaq	-120(%rbp), %rsi
 5080 26b3 4889C7   		movq	%rax, %rdi
 5081 26b6 E8000000 		call	_ZN8UnitTest10CheckEqualImjEEvRNS_11TestResultsERKT_RKT0_RKNS_11TestDetailsE
 5081      00
 5082              	.LEHE277:
 5083              	.L406:
 5084              	.LEHB278:
 223:testCore.cpp  **** 	CHECK_EQUAL(6UL, deref(queue.itemArray[1]));
 5085              		.loc 3 223 0 is_stmt 1
 5086 26bb E8000000 		call	_ZN8UnitTest11CurrentTest7DetailsEv@PLT
 5086      00
 5087 26c0 488B08   		movq	(%rax), %rcx
 5088 26c3 488D4590 		leaq	-112(%rbp), %rax
 5089 26c7 BADF0000 		movl	$223, %edx
 5089      00
 5090 26cc 4889CE   		movq	%rcx, %rsi
 5091 26cf 4889C7   		movq	%rax, %rdi
 5092 26d2 E8000000 		call	_ZN8UnitTest11TestDetailsC1ERKS0_i@PLT
 5092      00
 5093              	.LEHE278:
 5094              		.loc 3 223 0 is_stmt 0 discriminator 2
 5095 26d7 488B45B0 		movq	-80(%rbp), %rax
 5096 26db 4883C008 		addq	$8, %rax
 5097 26df 488B00   		movq	(%rax), %rax
 5098 26e2 4889C7   		movq	%rax, %rdi
 5099 26e5 E8A0D9FF 		call	_ZL5derefPKv
 5099      FF
 5100 26ea 89857CFF 		movl	%eax, -132(%rbp)
 5100      FFFF
 5101 26f0 48C74588 		movq	$6, -120(%rbp)
 5101      06000000 
 5102              	.LEHB279:
 5103 26f8 E8000000 		call	_ZN8UnitTest11CurrentTest7ResultsEv@PLT
 5103      00
 5104 26fd 488B00   		movq	(%rax), %rax
 5105 2700 488D4D90 		leaq	-112(%rbp), %rcx
 5106 2704 488D957C 		leaq	-132(%rbp), %rdx
 5106      FFFFFF
 5107 270b 488D7588 		leaq	-120(%rbp), %rsi
 5108 270f 4889C7   		movq	%rax, %rdi
 5109 2712 E8000000 		call	_ZN8UnitTest10CheckEqualImjEEvRNS_11TestResultsERKT_RKT0_RKNS_11TestDetailsE
 5109      00
 5110              	.LEHE279:
 5111              	.L410:
 5112              	.LEHB280:
 224:testCore.cpp  **** 	CHECK_EQUAL(7UL, deref(queue.itemArray[2]));
 5113              		.loc 3 224 0 is_stmt 1
 5114 2717 E8000000 		call	_ZN8UnitTest11CurrentTest7DetailsEv@PLT
 5114      00
 5115 271c 488B08   		movq	(%rax), %rcx
 5116 271f 488D4590 		leaq	-112(%rbp), %rax
 5117 2723 BAE00000 		movl	$224, %edx
 5117      00
 5118 2728 4889CE   		movq	%rcx, %rsi
 5119 272b 4889C7   		movq	%rax, %rdi
 5120 272e E8000000 		call	_ZN8UnitTest11TestDetailsC1ERKS0_i@PLT
 5120      00
 5121              	.LEHE280:
 5122              		.loc 3 224 0 is_stmt 0 discriminator 2
 5123 2733 488B45B0 		movq	-80(%rbp), %rax
 5124 2737 4883C010 		addq	$16, %rax
 5125 273b 488B00   		movq	(%rax), %rax
 5126 273e 4889C7   		movq	%rax, %rdi
 5127 2741 E844D9FF 		call	_ZL5derefPKv
 5127      FF
 5128 2746 89857CFF 		movl	%eax, -132(%rbp)
 5128      FFFF
 5129 274c 48C74588 		movq	$7, -120(%rbp)
 5129      07000000 
 5130              	.LEHB281:
 5131 2754 E8000000 		call	_ZN8UnitTest11CurrentTest7ResultsEv@PLT
 5131      00
 5132 2759 488B00   		movq	(%rax), %rax
 5133 275c 488D4D90 		leaq	-112(%rbp), %rcx
 5134 2760 488D957C 		leaq	-132(%rbp), %rdx
 5134      FFFFFF
 5135 2767 488D7588 		leaq	-120(%rbp), %rsi
 5136 276b 4889C7   		movq	%rax, %rdi
 5137 276e E8000000 		call	_ZN8UnitTest10CheckEqualImjEEvRNS_11TestResultsERKT_RKT0_RKNS_11TestDetailsE
 5137      00
 5138              	.LEHE281:
 5139              	.L414:
 5140              	.LEHB282:
 225:testCore.cpp  **** 	CHECK_EQUAL(8UL, deref(queue.itemArray[3]));
 5141              		.loc 3 225 0 is_stmt 1
 5142 2773 E8000000 		call	_ZN8UnitTest11CurrentTest7DetailsEv@PLT
 5142      00
 5143 2778 488B08   		movq	(%rax), %rcx
 5144 277b 488D4590 		leaq	-112(%rbp), %rax
 5145 277f BAE10000 		movl	$225, %edx
 5145      00
 5146 2784 4889CE   		movq	%rcx, %rsi
 5147 2787 4889C7   		movq	%rax, %rdi
 5148 278a E8000000 		call	_ZN8UnitTest11TestDetailsC1ERKS0_i@PLT
 5148      00
 5149              	.LEHE282:
 5150              		.loc 3 225 0 is_stmt 0 discriminator 2
 5151 278f 488B45B0 		movq	-80(%rbp), %rax
 5152 2793 4883C018 		addq	$24, %rax
 5153 2797 488B00   		movq	(%rax), %rax
 5154 279a 4889C7   		movq	%rax, %rdi
 5155 279d E8E8D8FF 		call	_ZL5derefPKv
 5155      FF
 5156 27a2 89857CFF 		movl	%eax, -132(%rbp)
 5156      FFFF
 5157 27a8 48C74588 		movq	$8, -120(%rbp)
 5157      08000000 
 5158              	.LEHB283:
 5159 27b0 E8000000 		call	_ZN8UnitTest11CurrentTest7ResultsEv@PLT
 5159      00
 5160 27b5 488B00   		movq	(%rax), %rax
 5161 27b8 488D4D90 		leaq	-112(%rbp), %rcx
 5162 27bc 488D957C 		leaq	-132(%rbp), %rdx
 5162      FFFFFF
 5163 27c3 488D7588 		leaq	-120(%rbp), %rsi
 5164 27c7 4889C7   		movq	%rax, %rdi
 5165 27ca E8000000 		call	_ZN8UnitTest10CheckEqualImjEEvRNS_11TestResultsERKT_RKT0_RKNS_11TestDetailsE
 5165      00
 5166              	.LEHE283:
 5167              	.L418:
 226:testCore.cpp  **** 
 227:testCore.cpp  **** 	// Clean up
 228:testCore.cpp  **** 	queueDestroy(&queue);
 5168              		.loc 3 228 0 is_stmt 1
 5169 27cf 488D45B0 		leaq	-80(%rbp), %rax
 5170 27d3 4889C7   		movq	%rax, %rdi
 5171              	.LEHB284:
 5172 27d6 E8000000 		call	queueDestroy@PLT
 5172      00
 5173              	.LEHE284:
 229:testCore.cpp  **** }
 5174              		.loc 3 229 0
 5175 27db 90       		nop
 5176 27dc 488B45E8 		movq	-24(%rbp), %rax
 5177 27e0 64483304 		xorq	%fs:40, %rax
 5177      25280000 
 5177      00
 5178 27e9 0F848309 		je	.L420
 5178      0000
 5179 27ef E9790900 		jmp	.L496
 5179      00
 5180              	.L422:
 5181 27f4 EB00     		jmp	.L321
 5182              	.L421:
 5183              	.L321:
 173:testCore.cpp  **** 
 5184              		.loc 3 173 0
 5185 27f6 4889C7   		movq	%rax, %rdi
 5186 27f9 E8000000 		call	__cxa_begin_catch@PLT
 5186      00
 5187              	.LEHB285:
 5188 27fe E8000000 		call	_ZN8UnitTest11CurrentTest7ResultsEv@PLT
 5188      00
 5189 2803 488B18   		movq	(%rax), %rbx
 5190 2806 E8000000 		call	_ZN8UnitTest11CurrentTest7DetailsEv@PLT
 5190      00
 173:testCore.cpp  **** 
 5191              		.loc 3 173 0 is_stmt 0 discriminator 8
 5192 280b 488B08   		movq	(%rax), %rcx
 5193 280e 488D4590 		leaq	-112(%rbp), %rax
 5194 2812 BAAD0000 		movl	$173, %edx
 5194      00
 5195 2817 4889CE   		movq	%rcx, %rsi
 5196 281a 4889C7   		movq	%rax, %rdi
 5197 281d E8000000 		call	_ZN8UnitTest11TestDetailsC1ERKS0_i@PLT
 5197      00
 173:testCore.cpp  **** 
 5198              		.loc 3 173 0 discriminator 12
 5199 2822 488D4590 		leaq	-112(%rbp), %rax
 5200 2826 488D1500 		leaq	.LC3(%rip), %rdx
 5200      000000
 5201 282d 4889C6   		movq	%rax, %rsi
 5202 2830 4889DF   		movq	%rbx, %rdi
 5203 2833 E8000000 		call	_ZN8UnitTest11TestResults13OnTestFailureERKNS_11TestDetailsEPKc@PLT
 5203      00
 5204              	.LEHE285:
 5205              	.LEHB286:
 173:testCore.cpp  **** 
 5206              		.loc 3 173 0 discriminator 14
 5207 2838 E8000000 		call	__cxa_end_catch@PLT
 5207      00
 5208              	.LEHE286:
 5209 283d E969F7FF 		jmp	.L322
 5209      FF
 5210              	.L423:
 5211 2842 4889C3   		movq	%rax, %rbx
 173:testCore.cpp  **** 
 5212              		.loc 3 173 0
 5213 2845 E8000000 		call	__cxa_end_catch@PLT
 5213      00
 5214 284a 4889D8   		movq	%rbx, %rax
 5215 284d 4889C7   		movq	%rax, %rdi
 5216              	.LEHB287:
 5217 2850 E8000000 		call	_Unwind_Resume@PLT
 5217      00
 5218              	.LEHE287:
 5219              	.L425:
 5220 2855 EB00     		jmp	.L325
 5221              	.L424:
 5222              	.L325:
 177:testCore.cpp  **** 	CHECK_EQUAL(1UL, *item);
 5223              		.loc 3 177 0 is_stmt 1
 5224 2857 4889C7   		movq	%rax, %rdi
 5225 285a E8000000 		call	__cxa_begin_catch@PLT
 5225      00
 5226              	.LEHB288:
 5227 285f E8000000 		call	_ZN8UnitTest11CurrentTest7ResultsEv@PLT
 5227      00
 5228 2864 488B18   		movq	(%rax), %rbx
 5229 2867 E8000000 		call	_ZN8UnitTest11CurrentTest7DetailsEv@PLT
 5229      00
 177:testCore.cpp  **** 	CHECK_EQUAL(1UL, *item);
 5230              		.loc 3 177 0 is_stmt 0 discriminator 8
 5231 286c 488B08   		movq	(%rax), %rcx
 5232 286f 488D4590 		leaq	-112(%rbp), %rax
 5233 2873 BAB10000 		movl	$177, %edx
 5233      00
 5234 2878 4889CE   		movq	%rcx, %rsi
 5235 287b 4889C7   		movq	%rax, %rdi
 5236 287e E8000000 		call	_ZN8UnitTest11TestDetailsC1ERKS0_i@PLT
 5236      00
 177:testCore.cpp  **** 	CHECK_EQUAL(1UL, *item);
 5237              		.loc 3 177 0 discriminator 12
 5238 2883 488D4590 		leaq	-112(%rbp), %rax
 5239 2887 488D1500 		leaq	.LC3(%rip), %rdx
 5239      000000
 5240 288e 4889C6   		movq	%rax, %rsi
 5241 2891 4889DF   		movq	%rbx, %rdi
 5242 2894 E8000000 		call	_ZN8UnitTest11TestResults13OnTestFailureERKNS_11TestDetailsEPKc@PLT
 5242      00
 5243              	.LEHE288:
 5244              	.LEHB289:
 177:testCore.cpp  **** 	CHECK_EQUAL(1UL, *item);
 5245              		.loc 3 177 0 discriminator 14
 5246 2899 E8000000 		call	__cxa_end_catch@PLT
 5246      00
 5247              	.LEHE289:
 5248 289e E963F7FF 		jmp	.L326
 5248      FF
 5249              	.L426:
 5250 28a3 4889C3   		movq	%rax, %rbx
 177:testCore.cpp  **** 	CHECK_EQUAL(1UL, *item);
 5251              		.loc 3 177 0
 5252 28a6 E8000000 		call	__cxa_end_catch@PLT
 5252      00
 5253 28ab 4889D8   		movq	%rbx, %rax
 5254 28ae 4889C7   		movq	%rax, %rdi
 5255              	.LEHB290:
 5256 28b1 E8000000 		call	_Unwind_Resume@PLT
 5256      00
 5257              	.LEHE290:
 5258              	.L428:
 5259 28b6 EB00     		jmp	.L329
 5260              	.L427:
 5261              	.L329:
 178:testCore.cpp  **** 	*item = 5;
 5262              		.loc 3 178 0 is_stmt 1
 5263 28b8 4889C7   		movq	%rax, %rdi
 5264 28bb E8000000 		call	__cxa_begin_catch@PLT
 5264      00
 5265              	.LEHB291:
 5266 28c0 E8000000 		call	_ZN8UnitTest11CurrentTest7ResultsEv@PLT
 5266      00
 5267 28c5 488B18   		movq	(%rax), %rbx
 5268 28c8 E8000000 		call	_ZN8UnitTest11CurrentTest7DetailsEv@PLT
 5268      00
 178:testCore.cpp  **** 	*item = 5;
 5269              		.loc 3 178 0 is_stmt 0 discriminator 8
 5270 28cd 488B08   		movq	(%rax), %rcx
 5271 28d0 488D4590 		leaq	-112(%rbp), %rax
 5272 28d4 BAB20000 		movl	$178, %edx
 5272      00
 5273 28d9 4889CE   		movq	%rcx, %rsi
 5274 28dc 4889C7   		movq	%rax, %rdi
 5275 28df E8000000 		call	_ZN8UnitTest11TestDetailsC1ERKS0_i@PLT
 5275      00
 178:testCore.cpp  **** 	*item = 5;
 5276              		.loc 3 178 0 discriminator 12
 5277 28e4 488D4590 		leaq	-112(%rbp), %rax
 5278 28e8 488D1500 		leaq	.LC13(%rip), %rdx
 5278      000000
 5279 28ef 4889C6   		movq	%rax, %rsi
 5280 28f2 4889DF   		movq	%rbx, %rdi
 5281 28f5 E8000000 		call	_ZN8UnitTest11TestResults13OnTestFailureERKNS_11TestDetailsEPKc@PLT
 5281      00
 5282              	.LEHE291:
 5283              	.LEHB292:
 178:testCore.cpp  **** 	*item = 5;
 5284              		.loc 3 178 0 discriminator 14
 5285 28fa E8000000 		call	__cxa_end_catch@PLT
 5285      00
 5286              	.LEHE292:
 5287 28ff E948F7FF 		jmp	.L330
 5287      FF
 5288              	.L429:
 5289 2904 4889C3   		movq	%rax, %rbx
 178:testCore.cpp  **** 	*item = 5;
 5290              		.loc 3 178 0
 5291 2907 E8000000 		call	__cxa_end_catch@PLT
 5291      00
 5292 290c 4889D8   		movq	%rbx, %rax
 5293 290f 4889C7   		movq	%rax, %rdi
 5294              	.LEHB293:
 5295 2912 E8000000 		call	_Unwind_Resume@PLT
 5295      00
 5296              	.LEHE293:
 5297              	.L431:
 5298 2917 EB00     		jmp	.L333
 5299              	.L430:
 5300              	.L333:
 182:testCore.cpp  **** 	CHECK_EQUAL(2UL, *item);
 5301              		.loc 3 182 0 is_stmt 1
 5302 2919 4889C7   		movq	%rax, %rdi
 5303 291c E8000000 		call	__cxa_begin_catch@PLT
 5303      00
 5304              	.LEHB294:
 5305 2921 E8000000 		call	_ZN8UnitTest11CurrentTest7ResultsEv@PLT
 5305      00
 5306 2926 488B18   		movq	(%rax), %rbx
 5307 2929 E8000000 		call	_ZN8UnitTest11CurrentTest7DetailsEv@PLT
 5307      00
 182:testCore.cpp  **** 	CHECK_EQUAL(2UL, *item);
 5308              		.loc 3 182 0 is_stmt 0 discriminator 8
 5309 292e 488B08   		movq	(%rax), %rcx
 5310 2931 488D4590 		leaq	-112(%rbp), %rax
 5311 2935 BAB60000 		movl	$182, %edx
 5311      00
 5312 293a 4889CE   		movq	%rcx, %rsi
 5313 293d 4889C7   		movq	%rax, %rdi
 5314 2940 E8000000 		call	_ZN8UnitTest11TestDetailsC1ERKS0_i@PLT
 5314      00
 182:testCore.cpp  **** 	CHECK_EQUAL(2UL, *item);
 5315              		.loc 3 182 0 discriminator 12
 5316 2945 488D4590 		leaq	-112(%rbp), %rax
 5317 2949 488D1500 		leaq	.LC3(%rip), %rdx
 5317      000000
 5318 2950 4889C6   		movq	%rax, %rsi
 5319 2953 4889DF   		movq	%rbx, %rdi
 5320 2956 E8000000 		call	_ZN8UnitTest11TestResults13OnTestFailureERKNS_11TestDetailsEPKc@PLT
 5320      00
 5321              	.LEHE294:
 5322              	.LEHB295:
 182:testCore.cpp  **** 	CHECK_EQUAL(2UL, *item);
 5323              		.loc 3 182 0 discriminator 14
 5324 295b E8000000 		call	__cxa_end_catch@PLT
 5324      00
 5325              	.LEHE295:
 5326 2960 E958F7FF 		jmp	.L334
 5326      FF
 5327              	.L432:
 5328 2965 4889C3   		movq	%rax, %rbx
 182:testCore.cpp  **** 	CHECK_EQUAL(2UL, *item);
 5329              		.loc 3 182 0
 5330 2968 E8000000 		call	__cxa_end_catch@PLT
 5330      00
 5331 296d 4889D8   		movq	%rbx, %rax
 5332 2970 4889C7   		movq	%rax, %rdi
 5333              	.LEHB296:
 5334 2973 E8000000 		call	_Unwind_Resume@PLT
 5334      00
 5335              	.LEHE296:
 5336              	.L434:
 5337 2978 EB00     		jmp	.L337
 5338              	.L433:
 5339              	.L337:
 183:testCore.cpp  **** 	*item = 6;
 5340              		.loc 3 183 0 is_stmt 1
 5341 297a 4889C7   		movq	%rax, %rdi
 5342 297d E8000000 		call	__cxa_begin_catch@PLT
 5342      00
 5343              	.LEHB297:
 5344 2982 E8000000 		call	_ZN8UnitTest11CurrentTest7ResultsEv@PLT
 5344      00
 5345 2987 488B18   		movq	(%rax), %rbx
 5346 298a E8000000 		call	_ZN8UnitTest11CurrentTest7DetailsEv@PLT
 5346      00
 183:testCore.cpp  **** 	*item = 6;
 5347              		.loc 3 183 0 is_stmt 0 discriminator 8
 5348 298f 488B08   		movq	(%rax), %rcx
 5349 2992 488D4590 		leaq	-112(%rbp), %rax
 5350 2996 BAB70000 		movl	$183, %edx
 5350      00
 5351 299b 4889CE   		movq	%rcx, %rsi
 5352 299e 4889C7   		movq	%rax, %rdi
 5353 29a1 E8000000 		call	_ZN8UnitTest11TestDetailsC1ERKS0_i@PLT
 5353      00
 183:testCore.cpp  **** 	*item = 6;
 5354              		.loc 3 183 0 discriminator 12
 5355 29a6 488D4590 		leaq	-112(%rbp), %rax
 5356 29aa 488D1500 		leaq	.LC14(%rip), %rdx
 5356      000000
 5357 29b1 4889C6   		movq	%rax, %rsi
 5358 29b4 4889DF   		movq	%rbx, %rdi
 5359 29b7 E8000000 		call	_ZN8UnitTest11TestResults13OnTestFailureERKNS_11TestDetailsEPKc@PLT
 5359      00
 5360              	.LEHE297:
 5361              	.LEHB298:
 183:testCore.cpp  **** 	*item = 6;
 5362              		.loc 3 183 0 discriminator 14
 5363 29bc E8000000 		call	__cxa_end_catch@PLT
 5363      00
 5364              	.LEHE298:
 5365 29c1 E93DF7FF 		jmp	.L338
 5365      FF
 5366              	.L435:
 5367 29c6 4889C3   		movq	%rax, %rbx
 183:testCore.cpp  **** 	*item = 6;
 5368              		.loc 3 183 0
 5369 29c9 E8000000 		call	__cxa_end_catch@PLT
 5369      00
 5370 29ce 4889D8   		movq	%rbx, %rax
 5371 29d1 4889C7   		movq	%rax, %rdi
 5372              	.LEHB299:
 5373 29d4 E8000000 		call	_Unwind_Resume@PLT
 5373      00
 5374              	.LEHE299:
 5375              	.L437:
 5376 29d9 EB00     		jmp	.L341
 5377              	.L436:
 5378              	.L341:
 187:testCore.cpp  **** 	CHECK_EQUAL(3UL, *item);
 5379              		.loc 3 187 0 is_stmt 1
 5380 29db 4889C7   		movq	%rax, %rdi
 5381 29de E8000000 		call	__cxa_begin_catch@PLT
 5381      00
 5382              	.LEHB300:
 5383 29e3 E8000000 		call	_ZN8UnitTest11CurrentTest7ResultsEv@PLT
 5383      00
 5384 29e8 488B18   		movq	(%rax), %rbx
 5385 29eb E8000000 		call	_ZN8UnitTest11CurrentTest7DetailsEv@PLT
 5385      00
 187:testCore.cpp  **** 	CHECK_EQUAL(3UL, *item);
 5386              		.loc 3 187 0 is_stmt 0 discriminator 8
 5387 29f0 488B08   		movq	(%rax), %rcx
 5388 29f3 488D4590 		leaq	-112(%rbp), %rax
 5389 29f7 BABB0000 		movl	$187, %edx
 5389      00
 5390 29fc 4889CE   		movq	%rcx, %rsi
 5391 29ff 4889C7   		movq	%rax, %rdi
 5392 2a02 E8000000 		call	_ZN8UnitTest11TestDetailsC1ERKS0_i@PLT
 5392      00
 187:testCore.cpp  **** 	CHECK_EQUAL(3UL, *item);
 5393              		.loc 3 187 0 discriminator 12
 5394 2a07 488D4590 		leaq	-112(%rbp), %rax
 5395 2a0b 488D1500 		leaq	.LC3(%rip), %rdx
 5395      000000
 5396 2a12 4889C6   		movq	%rax, %rsi
 5397 2a15 4889DF   		movq	%rbx, %rdi
 5398 2a18 E8000000 		call	_ZN8UnitTest11TestResults13OnTestFailureERKNS_11TestDetailsEPKc@PLT
 5398      00
 5399              	.LEHE300:
 5400              	.LEHB301:
 187:testCore.cpp  **** 	CHECK_EQUAL(3UL, *item);
 5401              		.loc 3 187 0 discriminator 14
 5402 2a1d E8000000 		call	__cxa_end_catch@PLT
 5402      00
 5403              	.LEHE301:
 5404 2a22 E94DF7FF 		jmp	.L342
 5404      FF
 5405              	.L438:
 5406 2a27 4889C3   		movq	%rax, %rbx
 187:testCore.cpp  **** 	CHECK_EQUAL(3UL, *item);
 5407              		.loc 3 187 0
 5408 2a2a E8000000 		call	__cxa_end_catch@PLT
 5408      00
 5409 2a2f 4889D8   		movq	%rbx, %rax
 5410 2a32 4889C7   		movq	%rax, %rdi
 5411              	.LEHB302:
 5412 2a35 E8000000 		call	_Unwind_Resume@PLT
 5412      00
 5413              	.LEHE302:
 5414              	.L440:
 5415 2a3a EB00     		jmp	.L345
 5416              	.L439:
 5417              	.L345:
 188:testCore.cpp  **** 	*item = 7;
 5418              		.loc 3 188 0 is_stmt 1
 5419 2a3c 4889C7   		movq	%rax, %rdi
 5420 2a3f E8000000 		call	__cxa_begin_catch@PLT
 5420      00
 5421              	.LEHB303:
 5422 2a44 E8000000 		call	_ZN8UnitTest11CurrentTest7ResultsEv@PLT
 5422      00
 5423 2a49 488B18   		movq	(%rax), %rbx
 5424 2a4c E8000000 		call	_ZN8UnitTest11CurrentTest7DetailsEv@PLT
 5424      00
 188:testCore.cpp  **** 	*item = 7;
 5425              		.loc 3 188 0 is_stmt 0 discriminator 8
 5426 2a51 488B08   		movq	(%rax), %rcx
 5427 2a54 488D4590 		leaq	-112(%rbp), %rax
 5428 2a58 BABC0000 		movl	$188, %edx
 5428      00
 5429 2a5d 4889CE   		movq	%rcx, %rsi
 5430 2a60 4889C7   		movq	%rax, %rdi
 5431 2a63 E8000000 		call	_ZN8UnitTest11TestDetailsC1ERKS0_i@PLT
 5431      00
 188:testCore.cpp  **** 	*item = 7;
 5432              		.loc 3 188 0 discriminator 12
 5433 2a68 488D4590 		leaq	-112(%rbp), %rax
 5434 2a6c 488D1500 		leaq	.LC15(%rip), %rdx
 5434      000000
 5435 2a73 4889C6   		movq	%rax, %rsi
 5436 2a76 4889DF   		movq	%rbx, %rdi
 5437 2a79 E8000000 		call	_ZN8UnitTest11TestResults13OnTestFailureERKNS_11TestDetailsEPKc@PLT
 5437      00
 5438              	.LEHE303:
 5439              	.LEHB304:
 188:testCore.cpp  **** 	*item = 7;
 5440              		.loc 3 188 0 discriminator 14
 5441 2a7e E8000000 		call	__cxa_end_catch@PLT
 5441      00
 5442              	.LEHE304:
 5443 2a83 E932F7FF 		jmp	.L346
 5443      FF
 5444              	.L441:
 5445 2a88 4889C3   		movq	%rax, %rbx
 188:testCore.cpp  **** 	*item = 7;
 5446              		.loc 3 188 0
 5447 2a8b E8000000 		call	__cxa_end_catch@PLT
 5447      00
 5448 2a90 4889D8   		movq	%rbx, %rax
 5449 2a93 4889C7   		movq	%rax, %rdi
 5450              	.LEHB305:
 5451 2a96 E8000000 		call	_Unwind_Resume@PLT
 5451      00
 5452              	.LEHE305:
 5453              	.L443:
 5454 2a9b EB00     		jmp	.L349
 5455              	.L442:
 5456              	.L349:
 192:testCore.cpp  **** 	CHECK_EQUAL(4UL, *item);
 5457              		.loc 3 192 0 is_stmt 1
 5458 2a9d 4889C7   		movq	%rax, %rdi
 5459 2aa0 E8000000 		call	__cxa_begin_catch@PLT
 5459      00
 5460              	.LEHB306:
 5461 2aa5 E8000000 		call	_ZN8UnitTest11CurrentTest7ResultsEv@PLT
 5461      00
 5462 2aaa 488B18   		movq	(%rax), %rbx
 5463 2aad E8000000 		call	_ZN8UnitTest11CurrentTest7DetailsEv@PLT
 5463      00
 192:testCore.cpp  **** 	CHECK_EQUAL(4UL, *item);
 5464              		.loc 3 192 0 is_stmt 0 discriminator 8
 5465 2ab2 488B08   		movq	(%rax), %rcx
 5466 2ab5 488D4590 		leaq	-112(%rbp), %rax
 5467 2ab9 BAC00000 		movl	$192, %edx
 5467      00
 5468 2abe 4889CE   		movq	%rcx, %rsi
 5469 2ac1 4889C7   		movq	%rax, %rdi
 5470 2ac4 E8000000 		call	_ZN8UnitTest11TestDetailsC1ERKS0_i@PLT
 5470      00
 192:testCore.cpp  **** 	CHECK_EQUAL(4UL, *item);
 5471              		.loc 3 192 0 discriminator 12
 5472 2ac9 488D4590 		leaq	-112(%rbp), %rax
 5473 2acd 488D1500 		leaq	.LC3(%rip), %rdx
 5473      000000
 5474 2ad4 4889C6   		movq	%rax, %rsi
 5475 2ad7 4889DF   		movq	%rbx, %rdi
 5476 2ada E8000000 		call	_ZN8UnitTest11TestResults13OnTestFailureERKNS_11TestDetailsEPKc@PLT
 5476      00
 5477              	.LEHE306:
 5478              	.LEHB307:
 192:testCore.cpp  **** 	CHECK_EQUAL(4UL, *item);
 5479              		.loc 3 192 0 discriminator 14
 5480 2adf E8000000 		call	__cxa_end_catch@PLT
 5480      00
 5481              	.LEHE307:
 5482 2ae4 E942F7FF 		jmp	.L350
 5482      FF
 5483              	.L444:
 5484 2ae9 4889C3   		movq	%rax, %rbx
 192:testCore.cpp  **** 	CHECK_EQUAL(4UL, *item);
 5485              		.loc 3 192 0
 5486 2aec E8000000 		call	__cxa_end_catch@PLT
 5486      00
 5487 2af1 4889D8   		movq	%rbx, %rax
 5488 2af4 4889C7   		movq	%rax, %rdi
 5489              	.LEHB308:
 5490 2af7 E8000000 		call	_Unwind_Resume@PLT
 5490      00
 5491              	.LEHE308:
 5492              	.L446:
 5493 2afc EB00     		jmp	.L353
 5494              	.L445:
 5495              	.L353:
 193:testCore.cpp  **** 	*item = 8;
 5496              		.loc 3 193 0 is_stmt 1
 5497 2afe 4889C7   		movq	%rax, %rdi
 5498 2b01 E8000000 		call	__cxa_begin_catch@PLT
 5498      00
 5499              	.LEHB309:
 5500 2b06 E8000000 		call	_ZN8UnitTest11CurrentTest7ResultsEv@PLT
 5500      00
 5501 2b0b 488B18   		movq	(%rax), %rbx
 5502 2b0e E8000000 		call	_ZN8UnitTest11CurrentTest7DetailsEv@PLT
 5502      00
 193:testCore.cpp  **** 	*item = 8;
 5503              		.loc 3 193 0 is_stmt 0 discriminator 8
 5504 2b13 488B08   		movq	(%rax), %rcx
 5505 2b16 488D4590 		leaq	-112(%rbp), %rax
 5506 2b1a BAC10000 		movl	$193, %edx
 5506      00
 5507 2b1f 4889CE   		movq	%rcx, %rsi
 5508 2b22 4889C7   		movq	%rax, %rdi
 5509 2b25 E8000000 		call	_ZN8UnitTest11TestDetailsC1ERKS0_i@PLT
 5509      00
 193:testCore.cpp  **** 	*item = 8;
 5510              		.loc 3 193 0 discriminator 12
 5511 2b2a 488D4590 		leaq	-112(%rbp), %rax
 5512 2b2e 488D1500 		leaq	.LC22(%rip), %rdx
 5512      000000
 5513 2b35 4889C6   		movq	%rax, %rsi
 5514 2b38 4889DF   		movq	%rbx, %rdi
 5515 2b3b E8000000 		call	_ZN8UnitTest11TestResults13OnTestFailureERKNS_11TestDetailsEPKc@PLT
 5515      00
 5516              	.LEHE309:
 5517              	.LEHB310:
 193:testCore.cpp  **** 	*item = 8;
 5518              		.loc 3 193 0 discriminator 14
 5519 2b40 E8000000 		call	__cxa_end_catch@PLT
 5519      00
 5520              	.LEHE310:
 5521 2b45 E927F7FF 		jmp	.L354
 5521      FF
 5522              	.L447:
 5523 2b4a 4889C3   		movq	%rax, %rbx
 193:testCore.cpp  **** 	*item = 8;
 5524              		.loc 3 193 0
 5525 2b4d E8000000 		call	__cxa_end_catch@PLT
 5525      00
 5526 2b52 4889D8   		movq	%rbx, %rax
 5527 2b55 4889C7   		movq	%rax, %rdi
 5528              	.LEHB311:
 5529 2b58 E8000000 		call	_Unwind_Resume@PLT
 5529      00
 5530              	.LEHE311:
 5531              	.L449:
 5532 2b5d EB00     		jmp	.L357
 5533              	.L448:
 5534              	.L357:
 199:testCore.cpp  **** 	CHECK_EQUAL(5UL, *item);
 5535              		.loc 3 199 0 is_stmt 1
 5536 2b5f 4889C7   		movq	%rax, %rdi
 5537 2b62 E8000000 		call	__cxa_begin_catch@PLT
 5537      00
 5538              	.LEHB312:
 5539 2b67 E8000000 		call	_ZN8UnitTest11CurrentTest7ResultsEv@PLT
 5539      00
 5540 2b6c 488B18   		movq	(%rax), %rbx
 5541 2b6f E8000000 		call	_ZN8UnitTest11CurrentTest7DetailsEv@PLT
 5541      00
 199:testCore.cpp  **** 	CHECK_EQUAL(5UL, *item);
 5542              		.loc 3 199 0 is_stmt 0 discriminator 8
 5543 2b74 488B08   		movq	(%rax), %rcx
 5544 2b77 488D4590 		leaq	-112(%rbp), %rax
 5545 2b7b BAC70000 		movl	$199, %edx
 5545      00
 5546 2b80 4889CE   		movq	%rcx, %rsi
 5547 2b83 4889C7   		movq	%rax, %rdi
 5548 2b86 E8000000 		call	_ZN8UnitTest11TestDetailsC1ERKS0_i@PLT
 5548      00
 199:testCore.cpp  **** 	CHECK_EQUAL(5UL, *item);
 5549              		.loc 3 199 0 discriminator 12
 5550 2b8b 488D4590 		leaq	-112(%rbp), %rax
 5551 2b8f 488D1500 		leaq	.LC3(%rip), %rdx
 5551      000000
 5552 2b96 4889C6   		movq	%rax, %rsi
 5553 2b99 4889DF   		movq	%rbx, %rdi
 5554 2b9c E8000000 		call	_ZN8UnitTest11TestResults13OnTestFailureERKNS_11TestDetailsEPKc@PLT
 5554      00
 5555              	.LEHE312:
 5556              	.LEHB313:
 199:testCore.cpp  **** 	CHECK_EQUAL(5UL, *item);
 5557              		.loc 3 199 0 discriminator 14
 5558 2ba1 E8000000 		call	__cxa_end_catch@PLT
 5558      00
 5559              	.LEHE313:
 5560 2ba6 E937F7FF 		jmp	.L358
 5560      FF
 5561              	.L450:
 5562 2bab 4889C3   		movq	%rax, %rbx
 199:testCore.cpp  **** 	CHECK_EQUAL(5UL, *item);
 5563              		.loc 3 199 0
 5564 2bae E8000000 		call	__cxa_end_catch@PLT
 5564      00
 5565 2bb3 4889D8   		movq	%rbx, %rax
 5566 2bb6 4889C7   		movq	%rax, %rdi
 5567              	.LEHB314:
 5568 2bb9 E8000000 		call	_Unwind_Resume@PLT
 5568      00
 5569              	.LEHE314:
 5570              	.L452:
 5571 2bbe EB00     		jmp	.L361
 5572              	.L451:
 5573              	.L361:
 200:testCore.cpp  **** 	queueCommitTake(&queue);
 5574              		.loc 3 200 0 is_stmt 1
 5575 2bc0 4889C7   		movq	%rax, %rdi
 5576 2bc3 E8000000 		call	__cxa_begin_catch@PLT
 5576      00
 5577              	.LEHB315:
 5578 2bc8 E8000000 		call	_ZN8UnitTest11CurrentTest7ResultsEv@PLT
 5578      00
 5579 2bcd 488B18   		movq	(%rax), %rbx
 5580 2bd0 E8000000 		call	_ZN8UnitTest11CurrentTest7DetailsEv@PLT
 5580      00
 200:testCore.cpp  **** 	queueCommitTake(&queue);
 5581              		.loc 3 200 0 is_stmt 0 discriminator 8
 5582 2bd5 488B08   		movq	(%rax), %rcx
 5583 2bd8 488D4590 		leaq	-112(%rbp), %rax
 5584 2bdc BAC80000 		movl	$200, %edx
 5584      00
 5585 2be1 4889CE   		movq	%rcx, %rsi
 5586 2be4 4889C7   		movq	%rax, %rdi
 5587 2be7 E8000000 		call	_ZN8UnitTest11TestDetailsC1ERKS0_i@PLT
 5587      00
 200:testCore.cpp  **** 	queueCommitTake(&queue);
 5588              		.loc 3 200 0 discriminator 12
 5589 2bec 488D4590 		leaq	-112(%rbp), %rax
 5590 2bf0 488D1500 		leaq	.LC26(%rip), %rdx
 5590      000000
 5591 2bf7 4889C6   		movq	%rax, %rsi
 5592 2bfa 4889DF   		movq	%rbx, %rdi
 5593 2bfd E8000000 		call	_ZN8UnitTest11TestResults13OnTestFailureERKNS_11TestDetailsEPKc@PLT
 5593      00
 5594              	.LEHE315:
 5595              	.LEHB316:
 200:testCore.cpp  **** 	queueCommitTake(&queue);
 5596              		.loc 3 200 0 discriminator 14
 5597 2c02 E8000000 		call	__cxa_end_catch@PLT
 5597      00
 5598              	.LEHE316:
 5599 2c07 E91CF7FF 		jmp	.L362
 5599      FF
 5600              	.L453:
 5601 2c0c 4889C3   		movq	%rax, %rbx
 200:testCore.cpp  **** 	queueCommitTake(&queue);
 5602              		.loc 3 200 0
 5603 2c0f E8000000 		call	__cxa_end_catch@PLT
 5603      00
 5604 2c14 4889D8   		movq	%rbx, %rax
 5605 2c17 4889C7   		movq	%rax, %rdi
 5606              	.LEHB317:
 5607 2c1a E8000000 		call	_Unwind_Resume@PLT
 5607      00
 5608              	.LEHE317:
 5609              	.L455:
 5610 2c1f EB00     		jmp	.L365
 5611              	.L454:
 5612              	.L365:
 203:testCore.cpp  **** 	CHECK_EQUAL(6UL, *item);
 5613              		.loc 3 203 0 is_stmt 1
 5614 2c21 4889C7   		movq	%rax, %rdi
 5615 2c24 E8000000 		call	__cxa_begin_catch@PLT
 5615      00
 5616              	.LEHB318:
 5617 2c29 E8000000 		call	_ZN8UnitTest11CurrentTest7ResultsEv@PLT
 5617      00
 5618 2c2e 488B18   		movq	(%rax), %rbx
 5619 2c31 E8000000 		call	_ZN8UnitTest11CurrentTest7DetailsEv@PLT
 5619      00
 203:testCore.cpp  **** 	CHECK_EQUAL(6UL, *item);
 5620              		.loc 3 203 0 is_stmt 0 discriminator 8
 5621 2c36 488B08   		movq	(%rax), %rcx
 5622 2c39 488D4590 		leaq	-112(%rbp), %rax
 5623 2c3d BACB0000 		movl	$203, %edx
 5623      00
 5624 2c42 4889CE   		movq	%rcx, %rsi
 5625 2c45 4889C7   		movq	%rax, %rdi
 5626 2c48 E8000000 		call	_ZN8UnitTest11TestDetailsC1ERKS0_i@PLT
 5626      00
 203:testCore.cpp  **** 	CHECK_EQUAL(6UL, *item);
 5627              		.loc 3 203 0 discriminator 12
 5628 2c4d 488D4590 		leaq	-112(%rbp), %rax
 5629 2c51 488D1500 		leaq	.LC3(%rip), %rdx
 5629      000000
 5630 2c58 4889C6   		movq	%rax, %rsi
 5631 2c5b 4889DF   		movq	%rbx, %rdi
 5632 2c5e E8000000 		call	_ZN8UnitTest11TestResults13OnTestFailureERKNS_11TestDetailsEPKc@PLT
 5632      00
 5633              	.LEHE318:
 5634              	.LEHB319:
 203:testCore.cpp  **** 	CHECK_EQUAL(6UL, *item);
 5635              		.loc 3 203 0 discriminator 14
 5636 2c63 E8000000 		call	__cxa_end_catch@PLT
 5636      00
 5637              	.LEHE319:
 5638 2c68 E922F7FF 		jmp	.L366
 5638      FF
 5639              	.L456:
 5640 2c6d 4889C3   		movq	%rax, %rbx
 203:testCore.cpp  **** 	CHECK_EQUAL(6UL, *item);
 5641              		.loc 3 203 0
 5642 2c70 E8000000 		call	__cxa_end_catch@PLT
 5642      00
 5643 2c75 4889D8   		movq	%rbx, %rax
 5644 2c78 4889C7   		movq	%rax, %rdi
 5645              	.LEHB320:
 5646 2c7b E8000000 		call	_Unwind_Resume@PLT
 5646      00
 5647              	.LEHE320:
 5648              	.L458:
 5649 2c80 EB00     		jmp	.L369
 5650              	.L457:
 5651              	.L369:
 204:testCore.cpp  **** 	queueCommitTake(&queue);
 5652              		.loc 3 204 0 is_stmt 1
 5653 2c82 4889C7   		movq	%rax, %rdi
 5654 2c85 E8000000 		call	__cxa_begin_catch@PLT
 5654      00
 5655              	.LEHB321:
 5656 2c8a E8000000 		call	_ZN8UnitTest11CurrentTest7ResultsEv@PLT
 5656      00
 5657 2c8f 488B18   		movq	(%rax), %rbx
 5658 2c92 E8000000 		call	_ZN8UnitTest11CurrentTest7DetailsEv@PLT
 5658      00
 204:testCore.cpp  **** 	queueCommitTake(&queue);
 5659              		.loc 3 204 0 is_stmt 0 discriminator 8
 5660 2c97 488B08   		movq	(%rax), %rcx
 5661 2c9a 488D4590 		leaq	-112(%rbp), %rax
 5662 2c9e BACC0000 		movl	$204, %edx
 5662      00
 5663 2ca3 4889CE   		movq	%rcx, %rsi
 5664 2ca6 4889C7   		movq	%rax, %rdi
 5665 2ca9 E8000000 		call	_ZN8UnitTest11TestDetailsC1ERKS0_i@PLT
 5665      00
 204:testCore.cpp  **** 	queueCommitTake(&queue);
 5666              		.loc 3 204 0 discriminator 12
 5667 2cae 488D4590 		leaq	-112(%rbp), %rax
 5668 2cb2 488D1500 		leaq	.LC27(%rip), %rdx
 5668      000000
 5669 2cb9 4889C6   		movq	%rax, %rsi
 5670 2cbc 4889DF   		movq	%rbx, %rdi
 5671 2cbf E8000000 		call	_ZN8UnitTest11TestResults13OnTestFailureERKNS_11TestDetailsEPKc@PLT
 5671      00
 5672              	.LEHE321:
 5673              	.LEHB322:
 204:testCore.cpp  **** 	queueCommitTake(&queue);
 5674              		.loc 3 204 0 discriminator 14
 5675 2cc4 E8000000 		call	__cxa_end_catch@PLT
 5675      00
 5676              	.LEHE322:
 5677 2cc9 E907F7FF 		jmp	.L370
 5677      FF
 5678              	.L459:
 5679 2cce 4889C3   		movq	%rax, %rbx
 204:testCore.cpp  **** 	queueCommitTake(&queue);
 5680              		.loc 3 204 0
 5681 2cd1 E8000000 		call	__cxa_end_catch@PLT
 5681      00
 5682 2cd6 4889D8   		movq	%rbx, %rax
 5683 2cd9 4889C7   		movq	%rax, %rdi
 5684              	.LEHB323:
 5685 2cdc E8000000 		call	_Unwind_Resume@PLT
 5685      00
 5686              	.LEHE323:
 5687              	.L461:
 5688 2ce1 EB00     		jmp	.L373
 5689              	.L460:
 5690              	.L373:
 207:testCore.cpp  **** 	CHECK_EQUAL(7UL, *item);
 5691              		.loc 3 207 0 is_stmt 1
 5692 2ce3 4889C7   		movq	%rax, %rdi
 5693 2ce6 E8000000 		call	__cxa_begin_catch@PLT
 5693      00
 5694              	.LEHB324:
 5695 2ceb E8000000 		call	_ZN8UnitTest11CurrentTest7ResultsEv@PLT
 5695      00
 5696 2cf0 488B18   		movq	(%rax), %rbx
 5697 2cf3 E8000000 		call	_ZN8UnitTest11CurrentTest7DetailsEv@PLT
 5697      00
 207:testCore.cpp  **** 	CHECK_EQUAL(7UL, *item);
 5698              		.loc 3 207 0 is_stmt 0 discriminator 8
 5699 2cf8 488B08   		movq	(%rax), %rcx
 5700 2cfb 488D4590 		leaq	-112(%rbp), %rax
 5701 2cff BACF0000 		movl	$207, %edx
 5701      00
 5702 2d04 4889CE   		movq	%rcx, %rsi
 5703 2d07 4889C7   		movq	%rax, %rdi
 5704 2d0a E8000000 		call	_ZN8UnitTest11TestDetailsC1ERKS0_i@PLT
 5704      00
 207:testCore.cpp  **** 	CHECK_EQUAL(7UL, *item);
 5705              		.loc 3 207 0 discriminator 12
 5706 2d0f 488D4590 		leaq	-112(%rbp), %rax
 5707 2d13 488D1500 		leaq	.LC3(%rip), %rdx
 5707      000000
 5708 2d1a 4889C6   		movq	%rax, %rsi
 5709 2d1d 4889DF   		movq	%rbx, %rdi
 5710 2d20 E8000000 		call	_ZN8UnitTest11TestResults13OnTestFailureERKNS_11TestDetailsEPKc@PLT
 5710      00
 5711              	.LEHE324:
 5712              	.LEHB325:
 207:testCore.cpp  **** 	CHECK_EQUAL(7UL, *item);
 5713              		.loc 3 207 0 discriminator 14
 5714 2d25 E8000000 		call	__cxa_end_catch@PLT
 5714      00
 5715              	.LEHE325:
 5716 2d2a E90DF7FF 		jmp	.L374
 5716      FF
 5717              	.L462:
 5718 2d2f 4889C3   		movq	%rax, %rbx
 207:testCore.cpp  **** 	CHECK_EQUAL(7UL, *item);
 5719              		.loc 3 207 0
 5720 2d32 E8000000 		call	__cxa_end_catch@PLT
 5720      00
 5721 2d37 4889D8   		movq	%rbx, %rax
 5722 2d3a 4889C7   		movq	%rax, %rdi
 5723              	.LEHB326:
 5724 2d3d E8000000 		call	_Unwind_Resume@PLT
 5724      00
 5725              	.LEHE326:
 5726              	.L464:
 5727 2d42 EB00     		jmp	.L377
 5728              	.L463:
 5729              	.L377:
 208:testCore.cpp  **** 	queueCommitTake(&queue);
 5730              		.loc 3 208 0 is_stmt 1
 5731 2d44 4889C7   		movq	%rax, %rdi
 5732 2d47 E8000000 		call	__cxa_begin_catch@PLT
 5732      00
 5733              	.LEHB327:
 5734 2d4c E8000000 		call	_ZN8UnitTest11CurrentTest7ResultsEv@PLT
 5734      00
 5735 2d51 488B18   		movq	(%rax), %rbx
 5736 2d54 E8000000 		call	_ZN8UnitTest11CurrentTest7DetailsEv@PLT
 5736      00
 208:testCore.cpp  **** 	queueCommitTake(&queue);
 5737              		.loc 3 208 0 is_stmt 0 discriminator 8
 5738 2d59 488B08   		movq	(%rax), %rcx
 5739 2d5c 488D4590 		leaq	-112(%rbp), %rax
 5740 2d60 BAD00000 		movl	$208, %edx
 5740      00
 5741 2d65 4889CE   		movq	%rcx, %rsi
 5742 2d68 4889C7   		movq	%rax, %rdi
 5743 2d6b E8000000 		call	_ZN8UnitTest11TestDetailsC1ERKS0_i@PLT
 5743      00
 208:testCore.cpp  **** 	queueCommitTake(&queue);
 5744              		.loc 3 208 0 discriminator 12
 5745 2d70 488D4590 		leaq	-112(%rbp), %rax
 5746 2d74 488D1500 		leaq	.LC28(%rip), %rdx
 5746      000000
 5747 2d7b 4889C6   		movq	%rax, %rsi
 5748 2d7e 4889DF   		movq	%rbx, %rdi
 5749 2d81 E8000000 		call	_ZN8UnitTest11TestResults13OnTestFailureERKNS_11TestDetailsEPKc@PLT
 5749      00
 5750              	.LEHE327:
 5751              	.LEHB328:
 208:testCore.cpp  **** 	queueCommitTake(&queue);
 5752              		.loc 3 208 0 discriminator 14
 5753 2d86 E8000000 		call	__cxa_end_catch@PLT
 5753      00
 5754              	.LEHE328:
 5755 2d8b E9F2F6FF 		jmp	.L378
 5755      FF
 5756              	.L465:
 5757 2d90 4889C3   		movq	%rax, %rbx
 208:testCore.cpp  **** 	queueCommitTake(&queue);
 5758              		.loc 3 208 0
 5759 2d93 E8000000 		call	__cxa_end_catch@PLT
 5759      00
 5760 2d98 4889D8   		movq	%rbx, %rax
 5761 2d9b 4889C7   		movq	%rax, %rdi
 5762              	.LEHB329:
 5763 2d9e E8000000 		call	_Unwind_Resume@PLT
 5763      00
 5764              	.LEHE329:
 5765              	.L467:
 5766 2da3 EB00     		jmp	.L381
 5767              	.L466:
 5768              	.L381:
 211:testCore.cpp  **** 	CHECK_EQUAL(8UL, *item);
 5769              		.loc 3 211 0 is_stmt 1
 5770 2da5 4889C7   		movq	%rax, %rdi
 5771 2da8 E8000000 		call	__cxa_begin_catch@PLT
 5771      00
 5772              	.LEHB330:
 5773 2dad E8000000 		call	_ZN8UnitTest11CurrentTest7ResultsEv@PLT
 5773      00
 5774 2db2 488B18   		movq	(%rax), %rbx
 5775 2db5 E8000000 		call	_ZN8UnitTest11CurrentTest7DetailsEv@PLT
 5775      00
 211:testCore.cpp  **** 	CHECK_EQUAL(8UL, *item);
 5776              		.loc 3 211 0 is_stmt 0 discriminator 8
 5777 2dba 488B08   		movq	(%rax), %rcx
 5778 2dbd 488D4590 		leaq	-112(%rbp), %rax
 5779 2dc1 BAD30000 		movl	$211, %edx
 5779      00
 5780 2dc6 4889CE   		movq	%rcx, %rsi
 5781 2dc9 4889C7   		movq	%rax, %rdi
 5782 2dcc E8000000 		call	_ZN8UnitTest11TestDetailsC1ERKS0_i@PLT
 5782      00
 211:testCore.cpp  **** 	CHECK_EQUAL(8UL, *item);
 5783              		.loc 3 211 0 discriminator 12
 5784 2dd1 488D4590 		leaq	-112(%rbp), %rax
 5785 2dd5 488D1500 		leaq	.LC3(%rip), %rdx
 5785      000000
 5786 2ddc 4889C6   		movq	%rax, %rsi
 5787 2ddf 4889DF   		movq	%rbx, %rdi
 5788 2de2 E8000000 		call	_ZN8UnitTest11TestResults13OnTestFailureERKNS_11TestDetailsEPKc@PLT
 5788      00
 5789              	.LEHE330:
 5790              	.LEHB331:
 211:testCore.cpp  **** 	CHECK_EQUAL(8UL, *item);
 5791              		.loc 3 211 0 discriminator 14
 5792 2de7 E8000000 		call	__cxa_end_catch@PLT
 5792      00
 5793              	.LEHE331:
 5794 2dec E9F8F6FF 		jmp	.L382
 5794      FF
 5795              	.L468:
 5796 2df1 4889C3   		movq	%rax, %rbx
 211:testCore.cpp  **** 	CHECK_EQUAL(8UL, *item);
 5797              		.loc 3 211 0
 5798 2df4 E8000000 		call	__cxa_end_catch@PLT
 5798      00
 5799 2df9 4889D8   		movq	%rbx, %rax
 5800 2dfc 4889C7   		movq	%rax, %rdi
 5801              	.LEHB332:
 5802 2dff E8000000 		call	_Unwind_Resume@PLT
 5802      00
 5803              	.LEHE332:
 5804              	.L470:
 5805 2e04 EB00     		jmp	.L385
 5806              	.L469:
 5807              	.L385:
 212:testCore.cpp  **** 	queueCommitTake(&queue);
 5808              		.loc 3 212 0 is_stmt 1
 5809 2e06 4889C7   		movq	%rax, %rdi
 5810 2e09 E8000000 		call	__cxa_begin_catch@PLT
 5810      00
 5811              	.LEHB333:
 5812 2e0e E8000000 		call	_ZN8UnitTest11CurrentTest7ResultsEv@PLT
 5812      00
 5813 2e13 488B18   		movq	(%rax), %rbx
 5814 2e16 E8000000 		call	_ZN8UnitTest11CurrentTest7DetailsEv@PLT
 5814      00
 212:testCore.cpp  **** 	queueCommitTake(&queue);
 5815              		.loc 3 212 0 is_stmt 0 discriminator 8
 5816 2e1b 488B08   		movq	(%rax), %rcx
 5817 2e1e 488D4590 		leaq	-112(%rbp), %rax
 5818 2e22 BAD40000 		movl	$212, %edx
 5818      00
 5819 2e27 4889CE   		movq	%rcx, %rsi
 5820 2e2a 4889C7   		movq	%rax, %rdi
 5821 2e2d E8000000 		call	_ZN8UnitTest11TestDetailsC1ERKS0_i@PLT
 5821      00
 212:testCore.cpp  **** 	queueCommitTake(&queue);
 5822              		.loc 3 212 0 discriminator 12
 5823 2e32 488D4590 		leaq	-112(%rbp), %rax
 5824 2e36 488D1500 		leaq	.LC29(%rip), %rdx
 5824      000000
 5825 2e3d 4889C6   		movq	%rax, %rsi
 5826 2e40 4889DF   		movq	%rbx, %rdi
 5827 2e43 E8000000 		call	_ZN8UnitTest11TestResults13OnTestFailureERKNS_11TestDetailsEPKc@PLT
 5827      00
 5828              	.LEHE333:
 5829              	.LEHB334:
 212:testCore.cpp  **** 	queueCommitTake(&queue);
 5830              		.loc 3 212 0 discriminator 14
 5831 2e48 E8000000 		call	__cxa_end_catch@PLT
 5831      00
 5832              	.LEHE334:
 5833 2e4d E9DDF6FF 		jmp	.L386
 5833      FF
 5834              	.L471:
 5835 2e52 4889C3   		movq	%rax, %rbx
 212:testCore.cpp  **** 	queueCommitTake(&queue);
 5836              		.loc 3 212 0
 5837 2e55 E8000000 		call	__cxa_end_catch@PLT
 5837      00
 5838 2e5a 4889D8   		movq	%rbx, %rax
 5839 2e5d 4889C7   		movq	%rax, %rdi
 5840              	.LEHB335:
 5841 2e60 E8000000 		call	_Unwind_Resume@PLT
 5841      00
 5842              	.LEHE335:
 5843              	.L473:
 5844 2e65 EB00     		jmp	.L389
 5845              	.L472:
 5846              	.L389:
 216:testCore.cpp  **** 	CHECK_EQUAL(0UL, queue.putIndex);
 5847              		.loc 3 216 0 is_stmt 1
 5848 2e67 4889C7   		movq	%rax, %rdi
 5849 2e6a E8000000 		call	__cxa_begin_catch@PLT
 5849      00
 5850              	.LEHB336:
 5851 2e6f E8000000 		call	_ZN8UnitTest11CurrentTest7ResultsEv@PLT
 5851      00
 5852 2e74 488B18   		movq	(%rax), %rbx
 5853 2e77 E8000000 		call	_ZN8UnitTest11CurrentTest7DetailsEv@PLT
 5853      00
 216:testCore.cpp  **** 	CHECK_EQUAL(0UL, queue.putIndex);
 5854              		.loc 3 216 0 is_stmt 0 discriminator 8
 5855 2e7c 488B08   		movq	(%rax), %rcx
 5856 2e7f 488D4590 		leaq	-112(%rbp), %rax
 5857 2e83 BAD80000 		movl	$216, %edx
 5857      00
 5858 2e88 4889CE   		movq	%rcx, %rsi
 5859 2e8b 4889C7   		movq	%rax, %rdi
 5860 2e8e E8000000 		call	_ZN8UnitTest11TestDetailsC1ERKS0_i@PLT
 5860      00
 216:testCore.cpp  **** 	CHECK_EQUAL(0UL, queue.putIndex);
 5861              		.loc 3 216 0 discriminator 12
 5862 2e93 488D4590 		leaq	-112(%rbp), %rax
 5863 2e97 488D1500 		leaq	.LC4(%rip), %rdx
 5863      000000
 5864 2e9e 4889C6   		movq	%rax, %rsi
 5865 2ea1 4889DF   		movq	%rbx, %rdi
 5866 2ea4 E8000000 		call	_ZN8UnitTest11TestResults13OnTestFailureERKNS_11TestDetailsEPKc@PLT
 5866      00
 5867              	.LEHE336:
 5868              	.LEHB337:
 216:testCore.cpp  **** 	CHECK_EQUAL(0UL, queue.putIndex);
 5869              		.loc 3 216 0 discriminator 14
 5870 2ea9 E8000000 		call	__cxa_end_catch@PLT
 5870      00
 5871              	.LEHE337:
 5872 2eae E9D2F6FF 		jmp	.L390
 5872      FF
 5873              	.L474:
 5874 2eb3 4889C3   		movq	%rax, %rbx
 216:testCore.cpp  **** 	CHECK_EQUAL(0UL, queue.putIndex);
 5875              		.loc 3 216 0
 5876 2eb6 E8000000 		call	__cxa_end_catch@PLT
 5876      00
 5877 2ebb 4889D8   		movq	%rbx, %rax
 5878 2ebe 4889C7   		movq	%rax, %rdi
 5879              	.LEHB338:
 5880 2ec1 E8000000 		call	_Unwind_Resume@PLT
 5880      00
 5881              	.LEHE338:
 5882              	.L476:
 5883 2ec6 EB00     		jmp	.L393
 5884              	.L475:
 5885              	.L393:
 217:testCore.cpp  **** 	CHECK_EQUAL(0UL, queue.takeIndex);
 5886              		.loc 3 217 0 is_stmt 1
 5887 2ec8 4889C7   		movq	%rax, %rdi
 5888 2ecb E8000000 		call	__cxa_begin_catch@PLT
 5888      00
 5889              	.LEHB339:
 5890 2ed0 E8000000 		call	_ZN8UnitTest11CurrentTest7ResultsEv@PLT
 5890      00
 5891 2ed5 488B18   		movq	(%rax), %rbx
 5892 2ed8 E8000000 		call	_ZN8UnitTest11CurrentTest7DetailsEv@PLT
 5892      00
 217:testCore.cpp  **** 	CHECK_EQUAL(0UL, queue.takeIndex);
 5893              		.loc 3 217 0 is_stmt 0 discriminator 8
 5894 2edd 488B08   		movq	(%rax), %rcx
 5895 2ee0 488D4590 		leaq	-112(%rbp), %rax
 5896 2ee4 BAD90000 		movl	$217, %edx
 5896      00
 5897 2ee9 4889CE   		movq	%rcx, %rsi
 5898 2eec 4889C7   		movq	%rax, %rdi
 5899 2eef E8000000 		call	_ZN8UnitTest11TestDetailsC1ERKS0_i@PLT
 5899      00
 217:testCore.cpp  **** 	CHECK_EQUAL(0UL, queue.takeIndex);
 5900              		.loc 3 217 0 discriminator 12
 5901 2ef4 488D4590 		leaq	-112(%rbp), %rax
 5902 2ef8 488D1500 		leaq	.LC5(%rip), %rdx
 5902      000000
 5903 2eff 4889C6   		movq	%rax, %rsi
 5904 2f02 4889DF   		movq	%rbx, %rdi
 5905 2f05 E8000000 		call	_ZN8UnitTest11TestResults13OnTestFailureERKNS_11TestDetailsEPKc@PLT
 5905      00
 5906              	.LEHE339:
 5907              	.LEHB340:
 217:testCore.cpp  **** 	CHECK_EQUAL(0UL, queue.takeIndex);
 5908              		.loc 3 217 0 discriminator 14
 5909 2f0a E8000000 		call	__cxa_end_catch@PLT
 5909      00
 5910              	.LEHE340:
 5911 2f0f E9BBF6FF 		jmp	.L394
 5911      FF
 5912              	.L477:
 5913 2f14 4889C3   		movq	%rax, %rbx
 217:testCore.cpp  **** 	CHECK_EQUAL(0UL, queue.takeIndex);
 5914              		.loc 3 217 0
 5915 2f17 E8000000 		call	__cxa_end_catch@PLT
 5915      00
 5916 2f1c 4889D8   		movq	%rbx, %rax
 5917 2f1f 4889C7   		movq	%rax, %rdi
 5918              	.LEHB341:
 5919 2f22 E8000000 		call	_Unwind_Resume@PLT
 5919      00
 5920              	.LEHE341:
 5921              	.L479:
 5922 2f27 EB00     		jmp	.L397
 5923              	.L478:
 5924              	.L397:
 218:testCore.cpp  **** 	CHECK_EQUAL(0UL, queue.numItems);
 5925              		.loc 3 218 0 is_stmt 1
 5926 2f29 4889C7   		movq	%rax, %rdi
 5927 2f2c E8000000 		call	__cxa_begin_catch@PLT
 5927      00
 5928              	.LEHB342:
 5929 2f31 E8000000 		call	_ZN8UnitTest11CurrentTest7ResultsEv@PLT
 5929      00
 5930 2f36 488B18   		movq	(%rax), %rbx
 5931 2f39 E8000000 		call	_ZN8UnitTest11CurrentTest7DetailsEv@PLT
 5931      00
 218:testCore.cpp  **** 	CHECK_EQUAL(0UL, queue.numItems);
 5932              		.loc 3 218 0 is_stmt 0 discriminator 8
 5933 2f3e 488B08   		movq	(%rax), %rcx
 5934 2f41 488D4590 		leaq	-112(%rbp), %rax
 5935 2f45 BADA0000 		movl	$218, %edx
 5935      00
 5936 2f4a 4889CE   		movq	%rcx, %rsi
 5937 2f4d 4889C7   		movq	%rax, %rdi
 5938 2f50 E8000000 		call	_ZN8UnitTest11TestDetailsC1ERKS0_i@PLT
 5938      00
 218:testCore.cpp  **** 	CHECK_EQUAL(0UL, queue.numItems);
 5939              		.loc 3 218 0 discriminator 12
 5940 2f55 488D4590 		leaq	-112(%rbp), %rax
 5941 2f59 488D1500 		leaq	.LC6(%rip), %rdx
 5941      000000
 5942 2f60 4889C6   		movq	%rax, %rsi
 5943 2f63 4889DF   		movq	%rbx, %rdi
 5944 2f66 E8000000 		call	_ZN8UnitTest11TestResults13OnTestFailureERKNS_11TestDetailsEPKc@PLT
 5944      00
 5945              	.LEHE342:
 5946              	.LEHB343:
 218:testCore.cpp  **** 	CHECK_EQUAL(0UL, queue.numItems);
 5947              		.loc 3 218 0 discriminator 14
 5948 2f6b E8000000 		call	__cxa_end_catch@PLT
 5948      00
 5949              	.LEHE343:
 5950 2f70 E9A4F6FF 		jmp	.L398
 5950      FF
 5951              	.L480:
 5952 2f75 4889C3   		movq	%rax, %rbx
 218:testCore.cpp  **** 	CHECK_EQUAL(0UL, queue.numItems);
 5953              		.loc 3 218 0
 5954 2f78 E8000000 		call	__cxa_end_catch@PLT
 5954      00
 5955 2f7d 4889D8   		movq	%rbx, %rax
 5956 2f80 4889C7   		movq	%rax, %rdi
 5957              	.LEHB344:
 5958 2f83 E8000000 		call	_Unwind_Resume@PLT
 5958      00
 5959              	.LEHE344:
 5960              	.L482:
 5961 2f88 EB00     		jmp	.L401
 5962              	.L481:
 5963              	.L401:
 219:testCore.cpp  **** 
 5964              		.loc 3 219 0 is_stmt 1
 5965 2f8a 4889C7   		movq	%rax, %rdi
 5966 2f8d E8000000 		call	__cxa_begin_catch@PLT
 5966      00
 5967              	.LEHB345:
 5968 2f92 E8000000 		call	_ZN8UnitTest11CurrentTest7ResultsEv@PLT
 5968      00
 5969 2f97 488B18   		movq	(%rax), %rbx
 5970 2f9a E8000000 		call	_ZN8UnitTest11CurrentTest7DetailsEv@PLT
 5970      00
 219:testCore.cpp  **** 
 5971              		.loc 3 219 0 is_stmt 0 discriminator 8
 5972 2f9f 488B08   		movq	(%rax), %rcx
 5973 2fa2 488D4590 		leaq	-112(%rbp), %rax
 5974 2fa6 BADB0000 		movl	$219, %edx
 5974      00
 5975 2fab 4889CE   		movq	%rcx, %rsi
 5976 2fae 4889C7   		movq	%rax, %rdi
 5977 2fb1 E8000000 		call	_ZN8UnitTest11TestDetailsC1ERKS0_i@PLT
 5977      00
 219:testCore.cpp  **** 
 5978              		.loc 3 219 0 discriminator 12
 5979 2fb6 488D4590 		leaq	-112(%rbp), %rax
 5980 2fba 488D1500 		leaq	.LC7(%rip), %rdx
 5980      000000
 5981 2fc1 4889C6   		movq	%rax, %rsi
 5982 2fc4 4889DF   		movq	%rbx, %rdi
 5983 2fc7 E8000000 		call	_ZN8UnitTest11TestResults13OnTestFailureERKNS_11TestDetailsEPKc@PLT
 5983      00
 5984              	.LEHE345:
 5985              	.LEHB346:
 219:testCore.cpp  **** 
 5986              		.loc 3 219 0 discriminator 14
 5987 2fcc E8000000 		call	__cxa_end_catch@PLT
 5987      00
 5988              	.LEHE346:
 5989 2fd1 E98DF6FF 		jmp	.L402
 5989      FF
 5990              	.L483:
 5991 2fd6 4889C3   		movq	%rax, %rbx
 219:testCore.cpp  **** 
 5992              		.loc 3 219 0
 5993 2fd9 E8000000 		call	__cxa_end_catch@PLT
 5993      00
 5994 2fde 4889D8   		movq	%rbx, %rax
 5995 2fe1 4889C7   		movq	%rax, %rdi
 5996              	.LEHB347:
 5997 2fe4 E8000000 		call	_Unwind_Resume@PLT
 5997      00
 5998              	.LEHE347:
 5999              	.L485:
 6000 2fe9 EB00     		jmp	.L405
 6001              	.L484:
 6002              	.L405:
 222:testCore.cpp  **** 	CHECK_EQUAL(6UL, deref(queue.itemArray[1]));
 6003              		.loc 3 222 0 is_stmt 1
 6004 2feb 4889C7   		movq	%rax, %rdi
 6005 2fee E8000000 		call	__cxa_begin_catch@PLT
 6005      00
 6006              	.LEHB348:
 6007 2ff3 E8000000 		call	_ZN8UnitTest11CurrentTest7ResultsEv@PLT
 6007      00
 6008 2ff8 488B18   		movq	(%rax), %rbx
 6009 2ffb E8000000 		call	_ZN8UnitTest11CurrentTest7DetailsEv@PLT
 6009      00
 222:testCore.cpp  **** 	CHECK_EQUAL(6UL, deref(queue.itemArray[1]));
 6010              		.loc 3 222 0 is_stmt 0 discriminator 8
 6011 3000 488B08   		movq	(%rax), %rcx
 6012 3003 488D4590 		leaq	-112(%rbp), %rax
 6013 3007 BADE0000 		movl	$222, %edx
 6013      00
 6014 300c 4889CE   		movq	%rcx, %rsi
 6015 300f 4889C7   		movq	%rax, %rdi
 6016 3012 E8000000 		call	_ZN8UnitTest11TestDetailsC1ERKS0_i@PLT
 6016      00
 222:testCore.cpp  **** 	CHECK_EQUAL(6UL, deref(queue.itemArray[1]));
 6017              		.loc 3 222 0 discriminator 12
 6018 3017 488D4590 		leaq	-112(%rbp), %rax
 6019 301b 488D1500 		leaq	.LC18(%rip), %rdx
 6019      000000
 6020 3022 4889C6   		movq	%rax, %rsi
 6021 3025 4889DF   		movq	%rbx, %rdi
 6022 3028 E8000000 		call	_ZN8UnitTest11TestResults13OnTestFailureERKNS_11TestDetailsEPKc@PLT
 6022      00
 6023              	.LEHE348:
 6024              	.LEHB349:
 222:testCore.cpp  **** 	CHECK_EQUAL(6UL, deref(queue.itemArray[1]));
 6025              		.loc 3 222 0 discriminator 14
 6026 302d E8000000 		call	__cxa_end_catch@PLT
 6026      00
 6027              	.LEHE349:
 6028 3032 E984F6FF 		jmp	.L406
 6028      FF
 6029              	.L486:
 6030 3037 4889C3   		movq	%rax, %rbx
 222:testCore.cpp  **** 	CHECK_EQUAL(6UL, deref(queue.itemArray[1]));
 6031              		.loc 3 222 0
 6032 303a E8000000 		call	__cxa_end_catch@PLT
 6032      00
 6033 303f 4889D8   		movq	%rbx, %rax
 6034 3042 4889C7   		movq	%rax, %rdi
 6035              	.LEHB350:
 6036 3045 E8000000 		call	_Unwind_Resume@PLT
 6036      00
 6037              	.LEHE350:
 6038              	.L488:
 6039 304a EB00     		jmp	.L409
 6040              	.L487:
 6041              	.L409:
 223:testCore.cpp  **** 	CHECK_EQUAL(7UL, deref(queue.itemArray[2]));
 6042              		.loc 3 223 0 is_stmt 1
 6043 304c 4889C7   		movq	%rax, %rdi
 6044 304f E8000000 		call	__cxa_begin_catch@PLT
 6044      00
 6045              	.LEHB351:
 6046 3054 E8000000 		call	_ZN8UnitTest11CurrentTest7ResultsEv@PLT
 6046      00
 6047 3059 488B18   		movq	(%rax), %rbx
 6048 305c E8000000 		call	_ZN8UnitTest11CurrentTest7DetailsEv@PLT
 6048      00
 223:testCore.cpp  **** 	CHECK_EQUAL(7UL, deref(queue.itemArray[2]));
 6049              		.loc 3 223 0 is_stmt 0 discriminator 8
 6050 3061 488B08   		movq	(%rax), %rcx
 6051 3064 488D4590 		leaq	-112(%rbp), %rax
 6052 3068 BADF0000 		movl	$223, %edx
 6052      00
 6053 306d 4889CE   		movq	%rcx, %rsi
 6054 3070 4889C7   		movq	%rax, %rdi
 6055 3073 E8000000 		call	_ZN8UnitTest11TestDetailsC1ERKS0_i@PLT
 6055      00
 223:testCore.cpp  **** 	CHECK_EQUAL(7UL, deref(queue.itemArray[2]));
 6056              		.loc 3 223 0 discriminator 12
 6057 3078 488D4590 		leaq	-112(%rbp), %rax
 6058 307c 488D1500 		leaq	.LC19(%rip), %rdx
 6058      000000
 6059 3083 4889C6   		movq	%rax, %rsi
 6060 3086 4889DF   		movq	%rbx, %rdi
 6061 3089 E8000000 		call	_ZN8UnitTest11TestResults13OnTestFailureERKNS_11TestDetailsEPKc@PLT
 6061      00
 6062              	.LEHE351:
 6063              	.LEHB352:
 223:testCore.cpp  **** 	CHECK_EQUAL(7UL, deref(queue.itemArray[2]));
 6064              		.loc 3 223 0 discriminator 14
 6065 308e E8000000 		call	__cxa_end_catch@PLT
 6065      00
 6066              	.LEHE352:
 6067 3093 E97FF6FF 		jmp	.L410
 6067      FF
 6068              	.L489:
 6069 3098 4889C3   		movq	%rax, %rbx
 223:testCore.cpp  **** 	CHECK_EQUAL(7UL, deref(queue.itemArray[2]));
 6070              		.loc 3 223 0
 6071 309b E8000000 		call	__cxa_end_catch@PLT
 6071      00
 6072 30a0 4889D8   		movq	%rbx, %rax
 6073 30a3 4889C7   		movq	%rax, %rdi
 6074              	.LEHB353:
 6075 30a6 E8000000 		call	_Unwind_Resume@PLT
 6075      00
 6076              	.LEHE353:
 6077              	.L491:
 6078 30ab EB00     		jmp	.L413
 6079              	.L490:
 6080              	.L413:
 224:testCore.cpp  **** 	CHECK_EQUAL(8UL, deref(queue.itemArray[3]));
 6081              		.loc 3 224 0 is_stmt 1
 6082 30ad 4889C7   		movq	%rax, %rdi
 6083 30b0 E8000000 		call	__cxa_begin_catch@PLT
 6083      00
 6084              	.LEHB354:
 6085 30b5 E8000000 		call	_ZN8UnitTest11CurrentTest7ResultsEv@PLT
 6085      00
 6086 30ba 488B18   		movq	(%rax), %rbx
 6087 30bd E8000000 		call	_ZN8UnitTest11CurrentTest7DetailsEv@PLT
 6087      00
 224:testCore.cpp  **** 	CHECK_EQUAL(8UL, deref(queue.itemArray[3]));
 6088              		.loc 3 224 0 is_stmt 0 discriminator 8
 6089 30c2 488B08   		movq	(%rax), %rcx
 6090 30c5 488D4590 		leaq	-112(%rbp), %rax
 6091 30c9 BAE00000 		movl	$224, %edx
 6091      00
 6092 30ce 4889CE   		movq	%rcx, %rsi
 6093 30d1 4889C7   		movq	%rax, %rdi
 6094 30d4 E8000000 		call	_ZN8UnitTest11TestDetailsC1ERKS0_i@PLT
 6094      00
 224:testCore.cpp  **** 	CHECK_EQUAL(8UL, deref(queue.itemArray[3]));
 6095              		.loc 3 224 0 discriminator 12
 6096 30d9 488D4590 		leaq	-112(%rbp), %rax
 6097 30dd 488D1500 		leaq	.LC20(%rip), %rdx
 6097      000000
 6098 30e4 4889C6   		movq	%rax, %rsi
 6099 30e7 4889DF   		movq	%rbx, %rdi
 6100 30ea E8000000 		call	_ZN8UnitTest11TestResults13OnTestFailureERKNS_11TestDetailsEPKc@PLT
 6100      00
 6101              	.LEHE354:
 6102              	.LEHB355:
 224:testCore.cpp  **** 	CHECK_EQUAL(8UL, deref(queue.itemArray[3]));
 6103              		.loc 3 224 0 discriminator 14
 6104 30ef E8000000 		call	__cxa_end_catch@PLT
 6104      00
 6105              	.LEHE355:
 6106 30f4 E97AF6FF 		jmp	.L414
 6106      FF
 6107              	.L492:
 6108 30f9 4889C3   		movq	%rax, %rbx
 224:testCore.cpp  **** 	CHECK_EQUAL(8UL, deref(queue.itemArray[3]));
 6109              		.loc 3 224 0
 6110 30fc E8000000 		call	__cxa_end_catch@PLT
 6110      00
 6111 3101 4889D8   		movq	%rbx, %rax
 6112 3104 4889C7   		movq	%rax, %rdi
 6113              	.LEHB356:
 6114 3107 E8000000 		call	_Unwind_Resume@PLT
 6114      00
 6115              	.LEHE356:
 6116              	.L494:
 6117 310c EB00     		jmp	.L417
 6118              	.L493:
 6119              	.L417:
 225:testCore.cpp  **** 
 6120              		.loc 3 225 0 is_stmt 1
 6121 310e 4889C7   		movq	%rax, %rdi
 6122 3111 E8000000 		call	__cxa_begin_catch@PLT
 6122      00
 6123              	.LEHB357:
 6124 3116 E8000000 		call	_ZN8UnitTest11CurrentTest7ResultsEv@PLT
 6124      00
 6125 311b 488B18   		movq	(%rax), %rbx
 6126 311e E8000000 		call	_ZN8UnitTest11CurrentTest7DetailsEv@PLT
 6126      00
 225:testCore.cpp  **** 
 6127              		.loc 3 225 0 is_stmt 0 discriminator 8
 6128 3123 488B08   		movq	(%rax), %rcx
 6129 3126 488D4590 		leaq	-112(%rbp), %rax
 6130 312a BAE10000 		movl	$225, %edx
 6130      00
 6131 312f 4889CE   		movq	%rcx, %rsi
 6132 3132 4889C7   		movq	%rax, %rdi
 6133 3135 E8000000 		call	_ZN8UnitTest11TestDetailsC1ERKS0_i@PLT
 6133      00
 225:testCore.cpp  **** 
 6134              		.loc 3 225 0 discriminator 12
 6135 313a 488D4590 		leaq	-112(%rbp), %rax
 6136 313e 488D1500 		leaq	.LC24(%rip), %rdx
 6136      000000
 6137 3145 4889C6   		movq	%rax, %rsi
 6138 3148 4889DF   		movq	%rbx, %rdi
 6139 314b E8000000 		call	_ZN8UnitTest11TestResults13OnTestFailureERKNS_11TestDetailsEPKc@PLT
 6139      00
 6140              	.LEHE357:
 6141              	.LEHB358:
 225:testCore.cpp  **** 
 6142              		.loc 3 225 0 discriminator 14
 6143 3150 E8000000 		call	__cxa_end_catch@PLT
 6143      00
 6144              	.LEHE358:
 6145 3155 E975F6FF 		jmp	.L418
 6145      FF
 6146              	.L495:
 6147 315a 4889C3   		movq	%rax, %rbx
 225:testCore.cpp  **** 
 6148              		.loc 3 225 0
 6149 315d E8000000 		call	__cxa_end_catch@PLT
 6149      00
 6150 3162 4889D8   		movq	%rbx, %rax
 6151 3165 4889C7   		movq	%rax, %rdi
 6152              	.LEHB359:
 6153 3168 E8000000 		call	_Unwind_Resume@PLT
 6153      00
 6154              	.LEHE359:
 6155              	.L496:
 6156              		.loc 3 229 0 is_stmt 1
 6157 316d E8000000 		call	__stack_chk_fail@PLT
 6157      00
 6158              	.L420:
 6159 3172 4881C498 		addq	$152, %rsp
 6159      000000
 6160 3179 5B       		popq	%rbx
 6161 317a 5D       		popq	%rbp
 6162              		.cfi_def_cfa 7, 8
 6163 317b C3       		ret
 6164              		.cfi_endproc
 6165              	.LFE1118:
 6166              		.section	.gcc_except_table
 6167              		.align 4
 6168              	.LLSDA1118:
 6169 04f0 FF       		.byte	0xff
 6170 04f1 9B       		.byte	0x9b
 6171 04f2 FC05     		.uleb128 .LLSDATT1118-.LLSDATTD1118
 6172              	.LLSDATTD1118:
 6173 04f4 01       		.byte	0x1
 6174 04f5 F005     		.uleb128 .LLSDACSE1118-.LLSDACSB1118
 6175              	.LLSDACSB1118:
 6176 04f7 46       		.uleb128 .LEHB224-.LFB1118
 6177 04f8 05       		.uleb128 .LEHE224-.LEHB224
 6178 04f9 00       		.uleb128 0
 6179 04fa 00       		.uleb128 0
 6180 04fb 51       		.uleb128 .LEHB225-.LFB1118
 6181 04fc 1C       		.uleb128 .LEHE225-.LEHB225
 6182 04fd DE11     		.uleb128 .L421-.LFB1118
 6183 04ff 01       		.uleb128 0x1
 6184 0500 74       		.uleb128 .LEHB226-.LFB1118
 6185 0501 1F       		.uleb128 .LEHE226-.LEHB226
 6186 0502 DC11     		.uleb128 .L422-.LFB1118
 6187 0504 03       		.uleb128 0x3
 6188 0505 A101     		.uleb128 .LEHB227-.LFB1118
 6189 0507 05       		.uleb128 .LEHE227-.LEHB227
 6190 0508 00       		.uleb128 0
 6191 0509 00       		.uleb128 0
 6192 050a AC01     		.uleb128 .LEHB228-.LFB1118
 6193 050c 1C       		.uleb128 .LEHE228-.LEHB228
 6194 050d BF12     		.uleb128 .L424-.LFB1118
 6195 050f 01       		.uleb128 0x1
 6196 0510 CF01     		.uleb128 .LEHB229-.LFB1118
 6197 0512 1F       		.uleb128 .LEHE229-.LEHB229
 6198 0513 BD12     		.uleb128 .L425-.LFB1118
 6199 0515 03       		.uleb128 0x3
 6200 0516 EE01     		.uleb128 .LEHB230-.LFB1118
 6201 0518 1C       		.uleb128 .LEHE230-.LEHB230
 6202 0519 A013     		.uleb128 .L427-.LFB1118
 6203 051b 01       		.uleb128 0x1
 6204 051c 9602     		.uleb128 .LEHB231-.LFB1118
 6205 051e 1E       		.uleb128 .LEHE231-.LEHB231
 6206 051f 9E13     		.uleb128 .L428-.LFB1118
 6207 0521 03       		.uleb128 0x3
 6208 0522 C502     		.uleb128 .LEHB232-.LFB1118
 6209 0524 18       		.uleb128 .LEHE232-.LEHB232
 6210 0525 00       		.uleb128 0
 6211 0526 00       		.uleb128 0
 6212 0527 E302     		.uleb128 .LEHB233-.LFB1118
 6213 0529 1C       		.uleb128 .LEHE233-.LEHB233
 6214 052a 8114     		.uleb128 .L430-.LFB1118
 6215 052c 01       		.uleb128 0x1
 6216 052d 8603     		.uleb128 .LEHB234-.LFB1118
 6217 052f 1F       		.uleb128 .LEHE234-.LEHB234
 6218 0530 FF13     		.uleb128 .L431-.LFB1118
 6219 0532 03       		.uleb128 0x3
 6220 0533 A503     		.uleb128 .LEHB235-.LFB1118
 6221 0535 1C       		.uleb128 .LEHE235-.LEHB235
 6222 0536 E214     		.uleb128 .L433-.LFB1118
 6223 0538 01       		.uleb128 0x1
 6224 0539 CD03     		.uleb128 .LEHB236-.LFB1118
 6225 053b 1E       		.uleb128 .LEHE236-.LEHB236
 6226 053c E014     		.uleb128 .L434-.LFB1118
 6227 053e 03       		.uleb128 0x3
 6228 053f FC03     		.uleb128 .LEHB237-.LFB1118
 6229 0541 18       		.uleb128 .LEHE237-.LEHB237
 6230 0542 00       		.uleb128 0
 6231 0543 00       		.uleb128 0
 6232 0544 9A04     		.uleb128 .LEHB238-.LFB1118
 6233 0546 1C       		.uleb128 .LEHE238-.LEHB238
 6234 0547 C315     		.uleb128 .L436-.LFB1118
 6235 0549 01       		.uleb128 0x1
 6236 054a BD04     		.uleb128 .LEHB239-.LFB1118
 6237 054c 1F       		.uleb128 .LEHE239-.LEHB239
 6238 054d C115     		.uleb128 .L437-.LFB1118
 6239 054f 03       		.uleb128 0x3
 6240 0550 DC04     		.uleb128 .LEHB240-.LFB1118
 6241 0552 1C       		.uleb128 .LEHE240-.LEHB240
 6242 0553 A416     		.uleb128 .L439-.LFB1118
 6243 0555 01       		.uleb128 0x1
 6244 0556 8405     		.uleb128 .LEHB241-.LFB1118
 6245 0558 1E       		.uleb128 .LEHE241-.LEHB241
 6246 0559 A216     		.uleb128 .L440-.LFB1118
 6247 055b 03       		.uleb128 0x3
 6248 055c B305     		.uleb128 .LEHB242-.LFB1118
 6249 055e 18       		.uleb128 .LEHE242-.LEHB242
 6250 055f 00       		.uleb128 0
 6251 0560 00       		.uleb128 0
 6252 0561 D105     		.uleb128 .LEHB243-.LFB1118
 6253 0563 1C       		.uleb128 .LEHE243-.LEHB243
 6254 0564 8517     		.uleb128 .L442-.LFB1118
 6255 0566 01       		.uleb128 0x1
 6256 0567 F405     		.uleb128 .LEHB244-.LFB1118
 6257 0569 1F       		.uleb128 .LEHE244-.LEHB244
 6258 056a 8317     		.uleb128 .L443-.LFB1118
 6259 056c 03       		.uleb128 0x3
 6260 056d 9306     		.uleb128 .LEHB245-.LFB1118
 6261 056f 1C       		.uleb128 .LEHE245-.LEHB245
 6262 0570 E617     		.uleb128 .L445-.LFB1118
 6263 0572 01       		.uleb128 0x1
 6264 0573 BB06     		.uleb128 .LEHB246-.LFB1118
 6265 0575 1E       		.uleb128 .LEHE246-.LEHB246
 6266 0576 E417     		.uleb128 .L446-.LFB1118
 6267 0578 03       		.uleb128 0x3
 6268 0579 EA06     		.uleb128 .LEHB247-.LFB1118
 6269 057b 18       		.uleb128 .LEHE247-.LEHB247
 6270 057c 00       		.uleb128 0
 6271 057d 00       		.uleb128 0
 6272 057e 8807     		.uleb128 .LEHB248-.LFB1118
 6273 0580 1C       		.uleb128 .LEHE248-.LEHB248
 6274 0581 C718     		.uleb128 .L448-.LFB1118
 6275 0583 01       		.uleb128 0x1
 6276 0584 AB07     		.uleb128 .LEHB249-.LFB1118
 6277 0586 1F       		.uleb128 .LEHE249-.LEHB249
 6278 0587 C518     		.uleb128 .L449-.LFB1118
 6279 0589 03       		.uleb128 0x3
 6280 058a CA07     		.uleb128 .LEHB250-.LFB1118
 6281 058c 1C       		.uleb128 .LEHE250-.LEHB250
 6282 058d A819     		.uleb128 .L451-.LFB1118
 6283 058f 01       		.uleb128 0x1
 6284 0590 F207     		.uleb128 .LEHB251-.LFB1118
 6285 0592 1E       		.uleb128 .LEHE251-.LEHB251
 6286 0593 A619     		.uleb128 .L452-.LFB1118
 6287 0595 03       		.uleb128 0x3
 6288 0596 9708     		.uleb128 .LEHB252-.LFB1118
 6289 0598 18       		.uleb128 .LEHE252-.LEHB252
 6290 0599 00       		.uleb128 0
 6291 059a 00       		.uleb128 0
 6292 059b B508     		.uleb128 .LEHB253-.LFB1118
 6293 059d 1C       		.uleb128 .LEHE253-.LEHB253
 6294 059e 891A     		.uleb128 .L454-.LFB1118
 6295 05a0 01       		.uleb128 0x1
 6296 05a1 D808     		.uleb128 .LEHB254-.LFB1118
 6297 05a3 1F       		.uleb128 .LEHE254-.LEHB254
 6298 05a4 871A     		.uleb128 .L455-.LFB1118
 6299 05a6 03       		.uleb128 0x3
 6300 05a7 F708     		.uleb128 .LEHB255-.LFB1118
 6301 05a9 1C       		.uleb128 .LEHE255-.LEHB255
 6302 05aa EA1A     		.uleb128 .L457-.LFB1118
 6303 05ac 01       		.uleb128 0x1
 6304 05ad 9F09     		.uleb128 .LEHB256-.LFB1118
 6305 05af 1E       		.uleb128 .LEHE256-.LEHB256
 6306 05b0 E81A     		.uleb128 .L458-.LFB1118
 6307 05b2 03       		.uleb128 0x3
 6308 05b3 C409     		.uleb128 .LEHB257-.LFB1118
 6309 05b5 18       		.uleb128 .LEHE257-.LEHB257
 6310 05b6 00       		.uleb128 0
 6311 05b7 00       		.uleb128 0
 6312 05b8 E209     		.uleb128 .LEHB258-.LFB1118
 6313 05ba 1C       		.uleb128 .LEHE258-.LEHB258
 6314 05bb CB1B     		.uleb128 .L460-.LFB1118
 6315 05bd 01       		.uleb128 0x1
 6316 05be 850A     		.uleb128 .LEHB259-.LFB1118
 6317 05c0 1F       		.uleb128 .LEHE259-.LEHB259
 6318 05c1 C91B     		.uleb128 .L461-.LFB1118
 6319 05c3 03       		.uleb128 0x3
 6320 05c4 A40A     		.uleb128 .LEHB260-.LFB1118
 6321 05c6 1C       		.uleb128 .LEHE260-.LEHB260
 6322 05c7 AC1C     		.uleb128 .L463-.LFB1118
 6323 05c9 01       		.uleb128 0x1
 6324 05ca CC0A     		.uleb128 .LEHB261-.LFB1118
 6325 05cc 1E       		.uleb128 .LEHE261-.LEHB261
 6326 05cd AA1C     		.uleb128 .L464-.LFB1118
 6327 05cf 03       		.uleb128 0x3
 6328 05d0 F10A     		.uleb128 .LEHB262-.LFB1118
 6329 05d2 18       		.uleb128 .LEHE262-.LEHB262
 6330 05d3 00       		.uleb128 0
 6331 05d4 00       		.uleb128 0
 6332 05d5 8F0B     		.uleb128 .LEHB263-.LFB1118
 6333 05d7 1C       		.uleb128 .LEHE263-.LEHB263
 6334 05d8 8D1D     		.uleb128 .L466-.LFB1118
 6335 05da 01       		.uleb128 0x1
 6336 05db B20B     		.uleb128 .LEHB264-.LFB1118
 6337 05dd 1F       		.uleb128 .LEHE264-.LEHB264
 6338 05de 8B1D     		.uleb128 .L467-.LFB1118
 6339 05e0 03       		.uleb128 0x3
 6340 05e1 D10B     		.uleb128 .LEHB265-.LFB1118
 6341 05e3 1C       		.uleb128 .LEHE265-.LEHB265
 6342 05e4 EE1D     		.uleb128 .L469-.LFB1118
 6343 05e6 01       		.uleb128 0x1
 6344 05e7 F90B     		.uleb128 .LEHB266-.LFB1118
 6345 05e9 1E       		.uleb128 .LEHE266-.LEHB266
 6346 05ea EC1D     		.uleb128 .L470-.LFB1118
 6347 05ec 03       		.uleb128 0x3
 6348 05ed 9E0C     		.uleb128 .LEHB267-.LFB1118
 6349 05ef 05       		.uleb128 .LEHE267-.LEHB267
 6350 05f0 00       		.uleb128 0
 6351 05f1 00       		.uleb128 0
 6352 05f2 A30C     		.uleb128 .LEHB268-.LFB1118
 6353 05f4 1C       		.uleb128 .LEHE268-.LEHB268
 6354 05f5 CF1E     		.uleb128 .L472-.LFB1118
 6355 05f7 01       		.uleb128 0x1
 6356 05f8 C70C     		.uleb128 .LEHB269-.LFB1118
 6357 05fa 26       		.uleb128 .LEHE269-.LEHB269
 6358 05fb CD1E     		.uleb128 .L473-.LFB1118
 6359 05fd 03       		.uleb128 0x3
 6360 05fe ED0C     		.uleb128 .LEHB270-.LFB1118
 6361 0600 1C       		.uleb128 .LEHE270-.LEHB270
 6362 0601 B01F     		.uleb128 .L475-.LFB1118
 6363 0603 01       		.uleb128 0x1
 6364 0604 910D     		.uleb128 .LEHB271-.LFB1118
 6365 0606 26       		.uleb128 .LEHE271-.LEHB271
 6366 0607 AE1F     		.uleb128 .L476-.LFB1118
 6367 0609 03       		.uleb128 0x3
 6368 060a B70D     		.uleb128 .LEHB272-.LFB1118
 6369 060c 1C       		.uleb128 .LEHE272-.LEHB272
 6370 060d 9120     		.uleb128 .L478-.LFB1118
 6371 060f 01       		.uleb128 0x1
 6372 0610 DB0D     		.uleb128 .LEHB273-.LFB1118
 6373 0612 26       		.uleb128 .LEHE273-.LEHB273
 6374 0613 8F20     		.uleb128 .L479-.LFB1118
 6375 0615 03       		.uleb128 0x3
 6376 0616 810E     		.uleb128 .LEHB274-.LFB1118
 6377 0618 1C       		.uleb128 .LEHE274-.LEHB274
 6378 0619 F220     		.uleb128 .L481-.LFB1118
 6379 061b 01       		.uleb128 0x1
 6380 061c A50E     		.uleb128 .LEHB275-.LFB1118
 6381 061e 26       		.uleb128 .LEHE275-.LEHB275
 6382 061f F020     		.uleb128 .L482-.LFB1118
 6383 0621 03       		.uleb128 0x3
 6384 0622 CB0E     		.uleb128 .LEHB276-.LFB1118
 6385 0624 1C       		.uleb128 .LEHE276-.LEHB276
 6386 0625 D321     		.uleb128 .L484-.LFB1118
 6387 0627 01       		.uleb128 0x1
 6388 0628 840F     		.uleb128 .LEHB277-.LFB1118
 6389 062a 1F       		.uleb128 .LEHE277-.LEHB277
 6390 062b D121     		.uleb128 .L485-.LFB1118
 6391 062d 03       		.uleb128 0x3
 6392 062e A30F     		.uleb128 .LEHB278-.LFB1118
 6393 0630 1C       		.uleb128 .LEHE278-.LEHB278
 6394 0631 B422     		.uleb128 .L487-.LFB1118
 6395 0633 01       		.uleb128 0x1
 6396 0634 E00F     		.uleb128 .LEHB279-.LFB1118
 6397 0636 1F       		.uleb128 .LEHE279-.LEHB279
 6398 0637 B222     		.uleb128 .L488-.LFB1118
 6399 0639 03       		.uleb128 0x3
 6400 063a FF0F     		.uleb128 .LEHB280-.LFB1118
 6401 063c 1C       		.uleb128 .LEHE280-.LEHB280
 6402 063d 9523     		.uleb128 .L490-.LFB1118
 6403 063f 01       		.uleb128 0x1
 6404 0640 BC10     		.uleb128 .LEHB281-.LFB1118
 6405 0642 1F       		.uleb128 .LEHE281-.LEHB281
 6406 0643 9323     		.uleb128 .L491-.LFB1118
 6407 0645 03       		.uleb128 0x3
 6408 0646 DB10     		.uleb128 .LEHB282-.LFB1118
 6409 0648 1C       		.uleb128 .LEHE282-.LEHB282
 6410 0649 F623     		.uleb128 .L493-.LFB1118
 6411 064b 01       		.uleb128 0x1
 6412 064c 9811     		.uleb128 .LEHB283-.LFB1118
 6413 064e 1F       		.uleb128 .LEHE283-.LEHB283
 6414 064f F423     		.uleb128 .L494-.LFB1118
 6415 0651 03       		.uleb128 0x3
 6416 0652 BE11     		.uleb128 .LEHB284-.LFB1118
 6417 0654 05       		.uleb128 .LEHE284-.LEHB284
 6418 0655 00       		.uleb128 0
 6419 0656 00       		.uleb128 0
 6420 0657 E611     		.uleb128 .LEHB285-.LFB1118
 6421 0659 3A       		.uleb128 .LEHE285-.LEHB285
 6422 065a AA12     		.uleb128 .L423-.LFB1118
 6423 065c 00       		.uleb128 0
 6424 065d A012     		.uleb128 .LEHB286-.LFB1118
 6425 065f 05       		.uleb128 .LEHE286-.LEHB286
 6426 0660 00       		.uleb128 0
 6427 0661 00       		.uleb128 0
 6428 0662 B812     		.uleb128 .LEHB287-.LFB1118
 6429 0664 05       		.uleb128 .LEHE287-.LEHB287
 6430 0665 00       		.uleb128 0
 6431 0666 00       		.uleb128 0
 6432 0667 C712     		.uleb128 .LEHB288-.LFB1118
 6433 0669 3A       		.uleb128 .LEHE288-.LEHB288
 6434 066a 8B13     		.uleb128 .L426-.LFB1118
 6435 066c 00       		.uleb128 0
 6436 066d 8113     		.uleb128 .LEHB289-.LFB1118
 6437 066f 05       		.uleb128 .LEHE289-.LEHB289
 6438 0670 00       		.uleb128 0
 6439 0671 00       		.uleb128 0
 6440 0672 9913     		.uleb128 .LEHB290-.LFB1118
 6441 0674 05       		.uleb128 .LEHE290-.LEHB290
 6442 0675 00       		.uleb128 0
 6443 0676 00       		.uleb128 0
 6444 0677 A813     		.uleb128 .LEHB291-.LFB1118
 6445 0679 3A       		.uleb128 .LEHE291-.LEHB291
 6446 067a EC13     		.uleb128 .L429-.LFB1118
 6447 067c 00       		.uleb128 0
 6448 067d E213     		.uleb128 .LEHB292-.LFB1118
 6449 067f 05       		.uleb128 .LEHE292-.LEHB292
 6450 0680 00       		.uleb128 0
 6451 0681 00       		.uleb128 0
 6452 0682 FA13     		.uleb128 .LEHB293-.LFB1118
 6453 0684 05       		.uleb128 .LEHE293-.LEHB293
 6454 0685 00       		.uleb128 0
 6455 0686 00       		.uleb128 0
 6456 0687 8914     		.uleb128 .LEHB294-.LFB1118
 6457 0689 3A       		.uleb128 .LEHE294-.LEHB294
 6458 068a CD14     		.uleb128 .L432-.LFB1118
 6459 068c 00       		.uleb128 0
 6460 068d C314     		.uleb128 .LEHB295-.LFB1118
 6461 068f 05       		.uleb128 .LEHE295-.LEHB295
 6462 0690 00       		.uleb128 0
 6463 0691 00       		.uleb128 0
 6464 0692 DB14     		.uleb128 .LEHB296-.LFB1118
 6465 0694 05       		.uleb128 .LEHE296-.LEHB296
 6466 0695 00       		.uleb128 0
 6467 0696 00       		.uleb128 0
 6468 0697 EA14     		.uleb128 .LEHB297-.LFB1118
 6469 0699 3A       		.uleb128 .LEHE297-.LEHB297
 6470 069a AE15     		.uleb128 .L435-.LFB1118
 6471 069c 00       		.uleb128 0
 6472 069d A415     		.uleb128 .LEHB298-.LFB1118
 6473 069f 05       		.uleb128 .LEHE298-.LEHB298
 6474 06a0 00       		.uleb128 0
 6475 06a1 00       		.uleb128 0
 6476 06a2 BC15     		.uleb128 .LEHB299-.LFB1118
 6477 06a4 05       		.uleb128 .LEHE299-.LEHB299
 6478 06a5 00       		.uleb128 0
 6479 06a6 00       		.uleb128 0
 6480 06a7 CB15     		.uleb128 .LEHB300-.LFB1118
 6481 06a9 3A       		.uleb128 .LEHE300-.LEHB300
 6482 06aa 8F16     		.uleb128 .L438-.LFB1118
 6483 06ac 00       		.uleb128 0
 6484 06ad 8516     		.uleb128 .LEHB301-.LFB1118
 6485 06af 05       		.uleb128 .LEHE301-.LEHB301
 6486 06b0 00       		.uleb128 0
 6487 06b1 00       		.uleb128 0
 6488 06b2 9D16     		.uleb128 .LEHB302-.LFB1118
 6489 06b4 05       		.uleb128 .LEHE302-.LEHB302
 6490 06b5 00       		.uleb128 0
 6491 06b6 00       		.uleb128 0
 6492 06b7 AC16     		.uleb128 .LEHB303-.LFB1118
 6493 06b9 3A       		.uleb128 .LEHE303-.LEHB303
 6494 06ba F016     		.uleb128 .L441-.LFB1118
 6495 06bc 00       		.uleb128 0
 6496 06bd E616     		.uleb128 .LEHB304-.LFB1118
 6497 06bf 05       		.uleb128 .LEHE304-.LEHB304
 6498 06c0 00       		.uleb128 0
 6499 06c1 00       		.uleb128 0
 6500 06c2 FE16     		.uleb128 .LEHB305-.LFB1118
 6501 06c4 05       		.uleb128 .LEHE305-.LEHB305
 6502 06c5 00       		.uleb128 0
 6503 06c6 00       		.uleb128 0
 6504 06c7 8D17     		.uleb128 .LEHB306-.LFB1118
 6505 06c9 3A       		.uleb128 .LEHE306-.LEHB306
 6506 06ca D117     		.uleb128 .L444-.LFB1118
 6507 06cc 00       		.uleb128 0
 6508 06cd C717     		.uleb128 .LEHB307-.LFB1118
 6509 06cf 05       		.uleb128 .LEHE307-.LEHB307
 6510 06d0 00       		.uleb128 0
 6511 06d1 00       		.uleb128 0
 6512 06d2 DF17     		.uleb128 .LEHB308-.LFB1118
 6513 06d4 05       		.uleb128 .LEHE308-.LEHB308
 6514 06d5 00       		.uleb128 0
 6515 06d6 00       		.uleb128 0
 6516 06d7 EE17     		.uleb128 .LEHB309-.LFB1118
 6517 06d9 3A       		.uleb128 .LEHE309-.LEHB309
 6518 06da B218     		.uleb128 .L447-.LFB1118
 6519 06dc 00       		.uleb128 0
 6520 06dd A818     		.uleb128 .LEHB310-.LFB1118
 6521 06df 05       		.uleb128 .LEHE310-.LEHB310
 6522 06e0 00       		.uleb128 0
 6523 06e1 00       		.uleb128 0
 6524 06e2 C018     		.uleb128 .LEHB311-.LFB1118
 6525 06e4 05       		.uleb128 .LEHE311-.LEHB311
 6526 06e5 00       		.uleb128 0
 6527 06e6 00       		.uleb128 0
 6528 06e7 CF18     		.uleb128 .LEHB312-.LFB1118
 6529 06e9 3A       		.uleb128 .LEHE312-.LEHB312
 6530 06ea 9319     		.uleb128 .L450-.LFB1118
 6531 06ec 00       		.uleb128 0
 6532 06ed 8919     		.uleb128 .LEHB313-.LFB1118
 6533 06ef 05       		.uleb128 .LEHE313-.LEHB313
 6534 06f0 00       		.uleb128 0
 6535 06f1 00       		.uleb128 0
 6536 06f2 A119     		.uleb128 .LEHB314-.LFB1118
 6537 06f4 05       		.uleb128 .LEHE314-.LEHB314
 6538 06f5 00       		.uleb128 0
 6539 06f6 00       		.uleb128 0
 6540 06f7 B019     		.uleb128 .LEHB315-.LFB1118
 6541 06f9 3A       		.uleb128 .LEHE315-.LEHB315
 6542 06fa F419     		.uleb128 .L453-.LFB1118
 6543 06fc 00       		.uleb128 0
 6544 06fd EA19     		.uleb128 .LEHB316-.LFB1118
 6545 06ff 05       		.uleb128 .LEHE316-.LEHB316
 6546 0700 00       		.uleb128 0
 6547 0701 00       		.uleb128 0
 6548 0702 821A     		.uleb128 .LEHB317-.LFB1118
 6549 0704 05       		.uleb128 .LEHE317-.LEHB317
 6550 0705 00       		.uleb128 0
 6551 0706 00       		.uleb128 0
 6552 0707 911A     		.uleb128 .LEHB318-.LFB1118
 6553 0709 3A       		.uleb128 .LEHE318-.LEHB318
 6554 070a D51A     		.uleb128 .L456-.LFB1118
 6555 070c 00       		.uleb128 0
 6556 070d CB1A     		.uleb128 .LEHB319-.LFB1118
 6557 070f 05       		.uleb128 .LEHE319-.LEHB319
 6558 0710 00       		.uleb128 0
 6559 0711 00       		.uleb128 0
 6560 0712 E31A     		.uleb128 .LEHB320-.LFB1118
 6561 0714 05       		.uleb128 .LEHE320-.LEHB320
 6562 0715 00       		.uleb128 0
 6563 0716 00       		.uleb128 0
 6564 0717 F21A     		.uleb128 .LEHB321-.LFB1118
 6565 0719 3A       		.uleb128 .LEHE321-.LEHB321
 6566 071a B61B     		.uleb128 .L459-.LFB1118
 6567 071c 00       		.uleb128 0
 6568 071d AC1B     		.uleb128 .LEHB322-.LFB1118
 6569 071f 05       		.uleb128 .LEHE322-.LEHB322
 6570 0720 00       		.uleb128 0
 6571 0721 00       		.uleb128 0
 6572 0722 C41B     		.uleb128 .LEHB323-.LFB1118
 6573 0724 05       		.uleb128 .LEHE323-.LEHB323
 6574 0725 00       		.uleb128 0
 6575 0726 00       		.uleb128 0
 6576 0727 D31B     		.uleb128 .LEHB324-.LFB1118
 6577 0729 3A       		.uleb128 .LEHE324-.LEHB324
 6578 072a 971C     		.uleb128 .L462-.LFB1118
 6579 072c 00       		.uleb128 0
 6580 072d 8D1C     		.uleb128 .LEHB325-.LFB1118
 6581 072f 05       		.uleb128 .LEHE325-.LEHB325
 6582 0730 00       		.uleb128 0
 6583 0731 00       		.uleb128 0
 6584 0732 A51C     		.uleb128 .LEHB326-.LFB1118
 6585 0734 05       		.uleb128 .LEHE326-.LEHB326
 6586 0735 00       		.uleb128 0
 6587 0736 00       		.uleb128 0
 6588 0737 B41C     		.uleb128 .LEHB327-.LFB1118
 6589 0739 3A       		.uleb128 .LEHE327-.LEHB327
 6590 073a F81C     		.uleb128 .L465-.LFB1118
 6591 073c 00       		.uleb128 0
 6592 073d EE1C     		.uleb128 .LEHB328-.LFB1118
 6593 073f 05       		.uleb128 .LEHE328-.LEHB328
 6594 0740 00       		.uleb128 0
 6595 0741 00       		.uleb128 0
 6596 0742 861D     		.uleb128 .LEHB329-.LFB1118
 6597 0744 05       		.uleb128 .LEHE329-.LEHB329
 6598 0745 00       		.uleb128 0
 6599 0746 00       		.uleb128 0
 6600 0747 951D     		.uleb128 .LEHB330-.LFB1118
 6601 0749 3A       		.uleb128 .LEHE330-.LEHB330
 6602 074a D91D     		.uleb128 .L468-.LFB1118
 6603 074c 00       		.uleb128 0
 6604 074d CF1D     		.uleb128 .LEHB331-.LFB1118
 6605 074f 05       		.uleb128 .LEHE331-.LEHB331
 6606 0750 00       		.uleb128 0
 6607 0751 00       		.uleb128 0
 6608 0752 E71D     		.uleb128 .LEHB332-.LFB1118
 6609 0754 05       		.uleb128 .LEHE332-.LEHB332
 6610 0755 00       		.uleb128 0
 6611 0756 00       		.uleb128 0
 6612 0757 F61D     		.uleb128 .LEHB333-.LFB1118
 6613 0759 3A       		.uleb128 .LEHE333-.LEHB333
 6614 075a BA1E     		.uleb128 .L471-.LFB1118
 6615 075c 00       		.uleb128 0
 6616 075d B01E     		.uleb128 .LEHB334-.LFB1118
 6617 075f 05       		.uleb128 .LEHE334-.LEHB334
 6618 0760 00       		.uleb128 0
 6619 0761 00       		.uleb128 0
 6620 0762 C81E     		.uleb128 .LEHB335-.LFB1118
 6621 0764 05       		.uleb128 .LEHE335-.LEHB335
 6622 0765 00       		.uleb128 0
 6623 0766 00       		.uleb128 0
 6624 0767 D71E     		.uleb128 .LEHB336-.LFB1118
 6625 0769 3A       		.uleb128 .LEHE336-.LEHB336
 6626 076a 9B1F     		.uleb128 .L474-.LFB1118
 6627 076c 00       		.uleb128 0
 6628 076d 911F     		.uleb128 .LEHB337-.LFB1118
 6629 076f 05       		.uleb128 .LEHE337-.LEHB337
 6630 0770 00       		.uleb128 0
 6631 0771 00       		.uleb128 0
 6632 0772 A91F     		.uleb128 .LEHB338-.LFB1118
 6633 0774 05       		.uleb128 .LEHE338-.LEHB338
 6634 0775 00       		.uleb128 0
 6635 0776 00       		.uleb128 0
 6636 0777 B81F     		.uleb128 .LEHB339-.LFB1118
 6637 0779 3A       		.uleb128 .LEHE339-.LEHB339
 6638 077a FC1F     		.uleb128 .L477-.LFB1118
 6639 077c 00       		.uleb128 0
 6640 077d F21F     		.uleb128 .LEHB340-.LFB1118
 6641 077f 05       		.uleb128 .LEHE340-.LEHB340
 6642 0780 00       		.uleb128 0
 6643 0781 00       		.uleb128 0
 6644 0782 8A20     		.uleb128 .LEHB341-.LFB1118
 6645 0784 05       		.uleb128 .LEHE341-.LEHB341
 6646 0785 00       		.uleb128 0
 6647 0786 00       		.uleb128 0
 6648 0787 9920     		.uleb128 .LEHB342-.LFB1118
 6649 0789 3A       		.uleb128 .LEHE342-.LEHB342
 6650 078a DD20     		.uleb128 .L480-.LFB1118
 6651 078c 00       		.uleb128 0
 6652 078d D320     		.uleb128 .LEHB343-.LFB1118
 6653 078f 05       		.uleb128 .LEHE343-.LEHB343
 6654 0790 00       		.uleb128 0
 6655 0791 00       		.uleb128 0
 6656 0792 EB20     		.uleb128 .LEHB344-.LFB1118
 6657 0794 05       		.uleb128 .LEHE344-.LEHB344
 6658 0795 00       		.uleb128 0
 6659 0796 00       		.uleb128 0
 6660 0797 FA20     		.uleb128 .LEHB345-.LFB1118
 6661 0799 3A       		.uleb128 .LEHE345-.LEHB345
 6662 079a BE21     		.uleb128 .L483-.LFB1118
 6663 079c 00       		.uleb128 0
 6664 079d B421     		.uleb128 .LEHB346-.LFB1118
 6665 079f 05       		.uleb128 .LEHE346-.LEHB346
 6666 07a0 00       		.uleb128 0
 6667 07a1 00       		.uleb128 0
 6668 07a2 CC21     		.uleb128 .LEHB347-.LFB1118
 6669 07a4 05       		.uleb128 .LEHE347-.LEHB347
 6670 07a5 00       		.uleb128 0
 6671 07a6 00       		.uleb128 0
 6672 07a7 DB21     		.uleb128 .LEHB348-.LFB1118
 6673 07a9 3A       		.uleb128 .LEHE348-.LEHB348
 6674 07aa 9F22     		.uleb128 .L486-.LFB1118
 6675 07ac 00       		.uleb128 0
 6676 07ad 9522     		.uleb128 .LEHB349-.LFB1118
 6677 07af 05       		.uleb128 .LEHE349-.LEHB349
 6678 07b0 00       		.uleb128 0
 6679 07b1 00       		.uleb128 0
 6680 07b2 AD22     		.uleb128 .LEHB350-.LFB1118
 6681 07b4 05       		.uleb128 .LEHE350-.LEHB350
 6682 07b5 00       		.uleb128 0
 6683 07b6 00       		.uleb128 0
 6684 07b7 BC22     		.uleb128 .LEHB351-.LFB1118
 6685 07b9 3A       		.uleb128 .LEHE351-.LEHB351
 6686 07ba 8023     		.uleb128 .L489-.LFB1118
 6687 07bc 00       		.uleb128 0
 6688 07bd F622     		.uleb128 .LEHB352-.LFB1118
 6689 07bf 05       		.uleb128 .LEHE352-.LEHB352
 6690 07c0 00       		.uleb128 0
 6691 07c1 00       		.uleb128 0
 6692 07c2 8E23     		.uleb128 .LEHB353-.LFB1118
 6693 07c4 05       		.uleb128 .LEHE353-.LEHB353
 6694 07c5 00       		.uleb128 0
 6695 07c6 00       		.uleb128 0
 6696 07c7 9D23     		.uleb128 .LEHB354-.LFB1118
 6697 07c9 3A       		.uleb128 .LEHE354-.LEHB354
 6698 07ca E123     		.uleb128 .L492-.LFB1118
 6699 07cc 00       		.uleb128 0
 6700 07cd D723     		.uleb128 .LEHB355-.LFB1118
 6701 07cf 05       		.uleb128 .LEHE355-.LEHB355
 6702 07d0 00       		.uleb128 0
 6703 07d1 00       		.uleb128 0
 6704 07d2 EF23     		.uleb128 .LEHB356-.LFB1118
 6705 07d4 05       		.uleb128 .LEHE356-.LEHB356
 6706 07d5 00       		.uleb128 0
 6707 07d6 00       		.uleb128 0
 6708 07d7 FE23     		.uleb128 .LEHB357-.LFB1118
 6709 07d9 3A       		.uleb128 .LEHE357-.LEHB357
 6710 07da C224     		.uleb128 .L495-.LFB1118
 6711 07dc 00       		.uleb128 0
 6712 07dd B824     		.uleb128 .LEHB358-.LFB1118
 6713 07df 05       		.uleb128 .LEHE358-.LEHB358
 6714 07e0 00       		.uleb128 0
 6715 07e1 00       		.uleb128 0
 6716 07e2 D024     		.uleb128 .LEHB359-.LFB1118
 6717 07e4 05       		.uleb128 .LEHE359-.LEHB359
 6718 07e5 00       		.uleb128 0
 6719 07e6 00       		.uleb128 0
 6720              	.LLSDACSE1118:
 6721 07e7 01       		.byte	0x1
 6722 07e8 00       		.byte	0
 6723 07e9 00       		.byte	0
 6724 07ea 7D       		.byte	0x7d
 6725 07eb 00       		.align 4
 6726 07ec 00000000 		.long	0
 6727              	
 6728              	.LLSDATT1118:
 6729              		.text
 6731              		.section	.rodata
 6732 05e7 00       		.align 8
 6733              	.LC30:
 6734 05e8 556E6861 		.string	"Unhandled exception in CHECK_EQUAL((offset) % 4 + 1UL, *item)"
 6734      6E646C65 
 6734      64206578 
 6734      63657074 
 6734      696F6E20 
 6735 0626 0000     		.align 8
 6736              	.LC31:
 6737 0628 556E6861 		.string	"Unhandled exception in CHECK_EQUAL((offset + 1UL) % 4 + 1UL, *item)"
 6737      6E646C65 
 6737      64206578 
 6737      63657074 
 6737      696F6E20 
 6738 066c 00000000 		.align 8
 6739              	.LC32:
 6740 0670 556E6861 		.string	"Unhandled exception in CHECK_EQUAL((offset + 2UL) % 4 + 1UL, *item)"
 6740      6E646C65 
 6740      64206578 
 6740      63657074 
 6740      696F6E20 
 6741 06b4 00000000 		.align 8
 6742              	.LC33:
 6743 06b8 556E6861 		.string	"Unhandled exception in CHECK_EQUAL((offset + 3UL) % 4 + 1UL, *item)"
 6743      6E646C65 
 6743      64206578 
 6743      63657074 
 6743      696F6E20 
 6744 06fc 00000000 		.align 8
 6745              	.LC34:
 6746 0700 556E6861 		.string	"Unhandled exception in CHECK_EQUAL(offset, queue.putIndex)"
 6746      6E646C65 
 6746      64206578 
 6746      63657074 
 6746      696F6E20 
 6747 073b 00000000 		.align 8
 6747      00
 6748              	.LC35:
 6749 0740 556E6861 		.string	"Unhandled exception in CHECK_EQUAL(offset, queue.takeIndex)"
 6749      6E646C65 
 6749      64206578 
 6749      63657074 
 6749      696F6E20 
 6750 077c 00000000 		.align 8
 6751              	.LC36:
 6752 0780 556E6861 		.string	"Unhandled exception in CHECK_EQUAL(8UL, queue.capacity)"
 6752      6E646C65 
 6752      64206578 
 6752      63657074 
 6752      696F6E20 
 6753              		.align 8
 6754              	.LC37:
 6755 07b8 556E6861 		.string	"Unhandled exception in CHECK_EQUAL(5UL, queue.putIndex)"
 6755      6E646C65 
 6755      64206578 
 6755      63657074 
 6755      696F6E20 
 6756              		.align 8
 6757              	.LC38:
 6758 07f0 556E6861 		.string	"Unhandled exception in CHECK_EQUAL(5UL, queue.numItems)"
 6758      6E646C65 
 6758      64206578 
 6758      63657074 
 6758      696F6E20 
 6759              		.align 8
 6760              	.LC39:
 6761 0828 556E6861 		.string	"Unhandled exception in CHECK_EQUAL(100UL, deref(queue.itemArray[0]))"
 6761      6E646C65 
 6761      64206578 
 6761      63657074 
 6761      696F6E20 
 6762 086d 000000   		.align 8
 6763              	.LC40:
 6764 0870 556E6861 		.string	"Unhandled exception in CHECK_EQUAL(101UL, deref(queue.itemArray[1]))"
 6764      6E646C65 
 6764      64206578 
 6764      63657074 
 6764      696F6E20 
 6765 08b5 000000   		.align 8
 6766              	.LC41:
 6767 08b8 556E6861 		.string	"Unhandled exception in CHECK_EQUAL(102UL, deref(queue.itemArray[2]))"
 6767      6E646C65 
 6767      64206578 
 6767      63657074 
 6767      696F6E20 
 6768 08fd 000000   		.align 8
 6769              	.LC42:
 6770 0900 556E6861 		.string	"Unhandled exception in CHECK_EQUAL(103UL, deref(queue.itemArray[3]))"
 6770      6E646C65 
 6770      64206578 
 6770      63657074 
 6770      696F6E20 
 6771 0945 000000   		.align 8
 6772              	.LC43:
 6773 0948 556E6861 		.string	"Unhandled exception in CHECK_EQUAL(104UL, deref(queue.itemArray[4]))"
 6773      6E646C65 
 6773      64206578 
 6773      63657074 
 6773      696F6E20 
 6774 098d 000000   		.align 8
 6775              	.LC44:
 6776 0990 556E6861 		.string	"Unhandled exception in CHECK_EQUAL(6UL, deref(queue.itemArray[5]))"
 6776      6E646C65 
 6776      64206578 
 6776      63657074 
 6776      696F6E20 
 6777 09d3 00000000 		.align 8
 6777      00
 6778              	.LC45:
 6779 09d8 556E6861 		.string	"Unhandled exception in CHECK_EQUAL(7UL, deref(queue.itemArray[6]))"
 6779      6E646C65 
 6779      64206578 
 6779      63657074 
 6779      696F6E20 
 6780 0a1b 00000000 		.align 8
 6780      00
 6781              	.LC46:
 6782 0a20 556E6861 		.string	"Unhandled exception in CHECK_EQUAL(8UL, deref(queue.itemArray[7]))"
 6782      6E646C65 
 6782      64206578 
 6782      63657074 
 6782      696F6E20 
 6783 0a63 00000000 		.align 8
 6783      00
 6784              	.LC47:
 6785 0a68 556E6861 		.string	"Unhandled exception in CHECK_EQUAL(100UL, *item)"
 6785      6E646C65 
 6785      64206578 
 6785      63657074 
 6785      696F6E20 
 6786 0a99 00000000 		.align 8
 6786      000000
 6787              	.LC48:
 6788 0aa0 556E6861 		.string	"Unhandled exception in CHECK_EQUAL(101UL, *item)"
 6788      6E646C65 
 6788      64206578 
 6788      63657074 
 6788      696F6E20 
 6789 0ad1 00000000 		.align 8
 6789      000000
 6790              	.LC49:
 6791 0ad8 556E6861 		.string	"Unhandled exception in CHECK_EQUAL(102UL, *item)"
 6791      6E646C65 
 6791      64206578 
 6791      63657074 
 6791      696F6E20 
 6792 0b09 00000000 		.align 8
 6792      000000
 6793              	.LC50:
 6794 0b10 556E6861 		.string	"Unhandled exception in CHECK_EQUAL(103UL, *item)"
 6794      6E646C65 
 6794      64206578 
 6794      63657074 
 6794      696F6E20 
 6795 0b41 00000000 		.align 8
 6795      000000
 6796              	.LC51:
 6797 0b48 556E6861 		.string	"Unhandled exception in CHECK_EQUAL(104UL, *item)"
 6797      6E646C65 
 6797      64206578 
 6797      63657074 
 6797      696F6E20 
 6798 0b79 00000000 		.align 8
 6798      000000
 6799              	.LC52:
 6800 0b80 556E6861 		.string	"Unhandled exception in CHECK_EQUAL(USB_EMPTY_QUEUE, status)"
 6800      6E646C65 
 6800      64206578 
 6800      63657074 
 6800      696F6E20 
 6801              		.text
 6802              		.globl	_Z11testReallocm
 6804              	_Z11testReallocm:
 6805              	.LFB1119:
 230:testCore.cpp  **** 
 231:testCore.cpp  **** void testRealloc(const size_t offset) {
 6806              		.loc 3 231 0
 6807              		.cfi_startproc
 6808              		.cfi_personality 0x9b,DW.ref.__gxx_personality_v0
 6809              		.cfi_lsda 0x1b,.LLSDA1119
 6810 317c 55       		pushq	%rbp
 6811              		.cfi_def_cfa_offset 16
 6812              		.cfi_offset 6, -16
 6813 317d 4889E5   		movq	%rsp, %rbp
 6814              		.cfi_def_cfa_register 6
 6815 3180 53       		pushq	%rbx
 6816 3181 4881EC98 		subq	$152, %rsp
 6816      000000
 6817              		.cfi_offset 3, -24
 6818 3188 4889BD68 		movq	%rdi, -152(%rbp)
 6818      FFFFFF
 6819              		.loc 3 231 0
 6820 318f 64488B04 		movq	%fs:40, %rax
 6820      25280000 
 6820      00
 6821 3198 488945E8 		movq	%rax, -24(%rbp)
 6822 319c 31C0     		xorl	%eax, %eax
 232:testCore.cpp  **** 	struct UnboundedQueue queue;
 233:testCore.cpp  **** 	uint32 *item;
 234:testCore.cpp  **** 	m_count = 1;
 6823              		.loc 3 234 0
 6824 319e C7050000 		movl	$1, _ZL7m_count(%rip)
 6824      00000100 
 6824      0000
 235:testCore.cpp  **** 
 236:testCore.cpp  **** 	// Create queue
 237:testCore.cpp  **** 	USBStatus status = queueInit(&queue, 4, (CreateFunc)createInt, (DestroyFunc)destroyInt);
 6825              		.loc 3 237 0
 6826 31a8 488D45B0 		leaq	-80(%rbp), %rax
 6827 31ac 488D0D00 		leaq	destroyInt(%rip), %rcx
 6827      000000
 6828 31b3 488D1500 		leaq	createInt(%rip), %rdx
 6828      000000
 6829 31ba BE040000 		movl	$4, %esi
 6829      00
 6830 31bf 4889C7   		movq	%rax, %rdi
 6831              	.LEHB360:
 6832 31c2 E8000000 		call	queueInit@PLT
 6832      00
 6833              	.LEHE360:
 6834 31c7 898578FF 		movl	%eax, -136(%rbp)
 6834      FFFF
 6835              	.LEHB361:
 238:testCore.cpp  **** 	CHECK_EQUAL(USB_SUCCESS, status);
 6836              		.loc 3 238 0
 6837 31cd E8000000 		call	_ZN8UnitTest11CurrentTest7DetailsEv@PLT
 6837      00
 6838 31d2 488B08   		movq	(%rax), %rcx
 6839 31d5 488D4590 		leaq	-112(%rbp), %rax
 6840 31d9 BAEE0000 		movl	$238, %edx
 6840      00
 6841 31de 4889CE   		movq	%rcx, %rsi
 6842 31e1 4889C7   		movq	%rax, %rdi
 6843 31e4 E8000000 		call	_ZN8UnitTest11TestDetailsC1ERKS0_i@PLT
 6843      00
 6844              	.LEHE361:
 6845              		.loc 3 238 0 is_stmt 0 discriminator 2
 6846 31e9 C7458800 		movl	$0, -120(%rbp)
 6846      000000
 6847              	.LEHB362:
 6848 31f0 E8000000 		call	_ZN8UnitTest11CurrentTest7ResultsEv@PLT
 6848      00
 6849 31f5 488B00   		movq	(%rax), %rax
 6850 31f8 488D4D90 		leaq	-112(%rbp), %rcx
 6851 31fc 488D9578 		leaq	-136(%rbp), %rdx
 6851      FFFFFF
 6852 3203 488D7588 		leaq	-120(%rbp), %rsi
 6853 3207 4889C7   		movq	%rax, %rdi
 6854 320a E8000000 		call	_ZN8UnitTest10CheckEqualI9USBStatusS1_EEvRNS_11TestResultsERKT_RKT0_RKNS_11TestDetailsE
 6854      00
 6855              	.LEHE362:
 6856              	.L500:
 239:testCore.cpp  **** 
 240:testCore.cpp  **** 	// Shift indices so realloc has to do more work
 241:testCore.cpp  **** 	queue.putIndex = offset;
 6857              		.loc 3 241 0 is_stmt 1
 6858 320f 488B8568 		movq	-152(%rbp), %rax
 6858      FFFFFF
 6859 3216 488945C0 		movq	%rax, -64(%rbp)
 242:testCore.cpp  **** 	queue.takeIndex = offset;
 6860              		.loc 3 242 0
 6861 321a 488B8568 		movq	-152(%rbp), %rax
 6861      FFFFFF
 6862 3221 488945C8 		movq	%rax, -56(%rbp)
 243:testCore.cpp  **** 
 244:testCore.cpp  **** 	// Now fill the queue to capacity
 245:testCore.cpp  **** 	status = queuePut(&queue, (Item*)&item);
 6863              		.loc 3 245 0
 6864 3225 488D5580 		leaq	-128(%rbp), %rdx
 6865 3229 488D45B0 		leaq	-80(%rbp), %rax
 6866 322d 4889D6   		movq	%rdx, %rsi
 6867 3230 4889C7   		movq	%rax, %rdi
 6868              	.LEHB363:
 6869 3233 E8000000 		call	queuePut@PLT
 6869      00
 6870              	.LEHE363:
 6871 3238 898578FF 		movl	%eax, -136(%rbp)
 6871      FFFF
 6872              	.LEHB364:
 246:testCore.cpp  **** 	CHECK_EQUAL(USB_SUCCESS, status);
 6873              		.loc 3 246 0
 6874 323e E8000000 		call	_ZN8UnitTest11CurrentTest7DetailsEv@PLT
 6874      00
 6875 3243 488B08   		movq	(%rax), %rcx
 6876 3246 488D4590 		leaq	-112(%rbp), %rax
 6877 324a BAF60000 		movl	$246, %edx
 6877      00
 6878 324f 4889CE   		movq	%rcx, %rsi
 6879 3252 4889C7   		movq	%rax, %rdi
 6880 3255 E8000000 		call	_ZN8UnitTest11TestDetailsC1ERKS0_i@PLT
 6880      00
 6881              	.LEHE364:
 6882              		.loc 3 246 0 is_stmt 0 discriminator 2
 6883 325a C7458800 		movl	$0, -120(%rbp)
 6883      000000
 6884              	.LEHB365:
 6885 3261 E8000000 		call	_ZN8UnitTest11CurrentTest7ResultsEv@PLT
 6885      00
 6886 3266 488B00   		movq	(%rax), %rax
 6887 3269 488D4D90 		leaq	-112(%rbp), %rcx
 6888 326d 488D9578 		leaq	-136(%rbp), %rdx
 6888      FFFFFF
 6889 3274 488D7588 		leaq	-120(%rbp), %rsi
 6890 3278 4889C7   		movq	%rax, %rdi
 6891 327b E8000000 		call	_ZN8UnitTest10CheckEqualI9USBStatusS1_EEvRNS_11TestResultsERKT_RKT0_RKNS_11TestDetailsE
 6891      00
 6892              	.LEHE365:
 6893              	.L504:
 6894              	.LEHB366:
 247:testCore.cpp  **** 	CHECK_EQUAL((offset) % 4 + 1UL, *item);
 6895              		.loc 3 247 0 is_stmt 1
 6896 3280 E8000000 		call	_ZN8UnitTest11CurrentTest7DetailsEv@PLT
 6896      00
 6897 3285 488B08   		movq	(%rax), %rcx
 6898 3288 488D4590 		leaq	-112(%rbp), %rax
 6899 328c BAF70000 		movl	$247, %edx
 6899      00
 6900 3291 4889CE   		movq	%rcx, %rsi
 6901 3294 4889C7   		movq	%rax, %rdi
 6902 3297 E8000000 		call	_ZN8UnitTest11TestDetailsC1ERKS0_i@PLT
 6902      00
 6903              	.LEHE366:
 6904              		.loc 3 247 0 is_stmt 0 discriminator 2
 6905 329c 488B5D80 		movq	-128(%rbp), %rbx
 6906 32a0 488B8568 		movq	-152(%rbp), %rax
 6906      FFFFFF
 6907 32a7 83E003   		andl	$3, %eax
 6908 32aa 4883C001 		addq	$1, %rax
 6909 32ae 48894588 		movq	%rax, -120(%rbp)
 6910              	.LEHB367:
 6911 32b2 E8000000 		call	_ZN8UnitTest11CurrentTest7ResultsEv@PLT
 6911      00
 6912 32b7 488B00   		movq	(%rax), %rax
 6913 32ba 488D5590 		leaq	-112(%rbp), %rdx
 6914 32be 488D7588 		leaq	-120(%rbp), %rsi
 6915 32c2 4889D1   		movq	%rdx, %rcx
 6916 32c5 4889DA   		movq	%rbx, %rdx
 6917 32c8 4889C7   		movq	%rax, %rdi
 6918 32cb E8000000 		call	_ZN8UnitTest10CheckEqualImjEEvRNS_11TestResultsERKT_RKT0_RKNS_11TestDetailsE
 6918      00
 6919              	.LEHE367:
 6920              	.L508:
 248:testCore.cpp  **** 	*item = 100;
 6921              		.loc 3 248 0 is_stmt 1
 6922 32d0 488B4580 		movq	-128(%rbp), %rax
 6923 32d4 C7006400 		movl	$100, (%rax)
 6923      0000
 249:testCore.cpp  **** 	queueCommitPut(&queue);
 6924              		.loc 3 249 0
 6925 32da 488D45B0 		leaq	-80(%rbp), %rax
 6926 32de 4889C7   		movq	%rax, %rdi
 6927              	.LEHB368:
 6928 32e1 E8000000 		call	queueCommitPut@PLT
 6928      00
 250:testCore.cpp  **** 	status = queuePut(&queue, (Item*)&item);
 6929              		.loc 3 250 0
 6930 32e6 488D5580 		leaq	-128(%rbp), %rdx
 6931 32ea 488D45B0 		leaq	-80(%rbp), %rax
 6932 32ee 4889D6   		movq	%rdx, %rsi
 6933 32f1 4889C7   		movq	%rax, %rdi
 6934 32f4 E8000000 		call	queuePut@PLT
 6934      00
 6935              	.LEHE368:
 6936 32f9 898578FF 		movl	%eax, -136(%rbp)
 6936      FFFF
 6937              	.LEHB369:
 251:testCore.cpp  **** 	CHECK_EQUAL(USB_SUCCESS, status);
 6938              		.loc 3 251 0
 6939 32ff E8000000 		call	_ZN8UnitTest11CurrentTest7DetailsEv@PLT
 6939      00
 6940 3304 488B08   		movq	(%rax), %rcx
 6941 3307 488D4590 		leaq	-112(%rbp), %rax
 6942 330b BAFB0000 		movl	$251, %edx
 6942      00
 6943 3310 4889CE   		movq	%rcx, %rsi
 6944 3313 4889C7   		movq	%rax, %rdi
 6945 3316 E8000000 		call	_ZN8UnitTest11TestDetailsC1ERKS0_i@PLT
 6945      00
 6946              	.LEHE369:
 6947              		.loc 3 251 0 is_stmt 0 discriminator 2
 6948 331b C7458800 		movl	$0, -120(%rbp)
 6948      000000
 6949              	.LEHB370:
 6950 3322 E8000000 		call	_ZN8UnitTest11CurrentTest7ResultsEv@PLT
 6950      00
 6951 3327 488B00   		movq	(%rax), %rax
 6952 332a 488D4D90 		leaq	-112(%rbp), %rcx
 6953 332e 488D9578 		leaq	-136(%rbp), %rdx
 6953      FFFFFF
 6954 3335 488D7588 		leaq	-120(%rbp), %rsi
 6955 3339 4889C7   		movq	%rax, %rdi
 6956 333c E8000000 		call	_ZN8UnitTest10CheckEqualI9USBStatusS1_EEvRNS_11TestResultsERKT_RKT0_RKNS_11TestDetailsE
 6956      00
 6957              	.LEHE370:
 6958              	.L512:
 6959              	.LEHB371:
 252:testCore.cpp  **** 	CHECK_EQUAL((offset + 1UL) % 4 + 1UL, *item);
 6960              		.loc 3 252 0 is_stmt 1
 6961 3341 E8000000 		call	_ZN8UnitTest11CurrentTest7DetailsEv@PLT
 6961      00
 6962 3346 488B08   		movq	(%rax), %rcx
 6963 3349 488D4590 		leaq	-112(%rbp), %rax
 6964 334d BAFC0000 		movl	$252, %edx
 6964      00
 6965 3352 4889CE   		movq	%rcx, %rsi
 6966 3355 4889C7   		movq	%rax, %rdi
 6967 3358 E8000000 		call	_ZN8UnitTest11TestDetailsC1ERKS0_i@PLT
 6967      00
 6968              	.LEHE371:
 6969              		.loc 3 252 0 is_stmt 0 discriminator 2
 6970 335d 488B5D80 		movq	-128(%rbp), %rbx
 6971 3361 488B8568 		movq	-152(%rbp), %rax
 6971      FFFFFF
 6972 3368 4883C001 		addq	$1, %rax
 6973 336c 83E003   		andl	$3, %eax
 6974 336f 4883C001 		addq	$1, %rax
 6975 3373 48894588 		movq	%rax, -120(%rbp)
 6976              	.LEHB372:
 6977 3377 E8000000 		call	_ZN8UnitTest11CurrentTest7ResultsEv@PLT
 6977      00
 6978 337c 488B00   		movq	(%rax), %rax
 6979 337f 488D5590 		leaq	-112(%rbp), %rdx
 6980 3383 488D7588 		leaq	-120(%rbp), %rsi
 6981 3387 4889D1   		movq	%rdx, %rcx
 6982 338a 4889DA   		movq	%rbx, %rdx
 6983 338d 4889C7   		movq	%rax, %rdi
 6984 3390 E8000000 		call	_ZN8UnitTest10CheckEqualImjEEvRNS_11TestResultsERKT_RKT0_RKNS_11TestDetailsE
 6984      00
 6985              	.LEHE372:
 6986              	.L516:
 253:testCore.cpp  **** 	*item = 101;
 6987              		.loc 3 253 0 is_stmt 1
 6988 3395 488B4580 		movq	-128(%rbp), %rax
 6989 3399 C7006500 		movl	$101, (%rax)
 6989      0000
 254:testCore.cpp  **** 	queueCommitPut(&queue);
 6990              		.loc 3 254 0
 6991 339f 488D45B0 		leaq	-80(%rbp), %rax
 6992 33a3 4889C7   		movq	%rax, %rdi
 6993              	.LEHB373:
 6994 33a6 E8000000 		call	queueCommitPut@PLT
 6994      00
 255:testCore.cpp  **** 	status = queuePut(&queue, (Item*)&item);
 6995              		.loc 3 255 0
 6996 33ab 488D5580 		leaq	-128(%rbp), %rdx
 6997 33af 488D45B0 		leaq	-80(%rbp), %rax
 6998 33b3 4889D6   		movq	%rdx, %rsi
 6999 33b6 4889C7   		movq	%rax, %rdi
 7000 33b9 E8000000 		call	queuePut@PLT
 7000      00
 7001              	.LEHE373:
 7002 33be 898578FF 		movl	%eax, -136(%rbp)
 7002      FFFF
 7003              	.LEHB374:
 256:testCore.cpp  **** 	CHECK_EQUAL(USB_SUCCESS, status);
 7004              		.loc 3 256 0
 7005 33c4 E8000000 		call	_ZN8UnitTest11CurrentTest7DetailsEv@PLT
 7005      00
 7006 33c9 488B08   		movq	(%rax), %rcx
 7007 33cc 488D4590 		leaq	-112(%rbp), %rax
 7008 33d0 BA000100 		movl	$256, %edx
 7008      00
 7009 33d5 4889CE   		movq	%rcx, %rsi
 7010 33d8 4889C7   		movq	%rax, %rdi
 7011 33db E8000000 		call	_ZN8UnitTest11TestDetailsC1ERKS0_i@PLT
 7011      00
 7012              	.LEHE374:
 7013              		.loc 3 256 0 is_stmt 0 discriminator 2
 7014 33e0 C7458800 		movl	$0, -120(%rbp)
 7014      000000
 7015              	.LEHB375:
 7016 33e7 E8000000 		call	_ZN8UnitTest11CurrentTest7ResultsEv@PLT
 7016      00
 7017 33ec 488B00   		movq	(%rax), %rax
 7018 33ef 488D4D90 		leaq	-112(%rbp), %rcx
 7019 33f3 488D9578 		leaq	-136(%rbp), %rdx
 7019      FFFFFF
 7020 33fa 488D7588 		leaq	-120(%rbp), %rsi
 7021 33fe 4889C7   		movq	%rax, %rdi
 7022 3401 E8000000 		call	_ZN8UnitTest10CheckEqualI9USBStatusS1_EEvRNS_11TestResultsERKT_RKT0_RKNS_11TestDetailsE
 7022      00
 7023              	.LEHE375:
 7024              	.L520:
 7025              	.LEHB376:
 257:testCore.cpp  **** 	CHECK_EQUAL((offset + 2UL) % 4 + 1UL, *item);
 7026              		.loc 3 257 0 is_stmt 1
 7027 3406 E8000000 		call	_ZN8UnitTest11CurrentTest7DetailsEv@PLT
 7027      00
 7028 340b 488B08   		movq	(%rax), %rcx
 7029 340e 488D4590 		leaq	-112(%rbp), %rax
 7030 3412 BA010100 		movl	$257, %edx
 7030      00
 7031 3417 4889CE   		movq	%rcx, %rsi
 7032 341a 4889C7   		movq	%rax, %rdi
 7033 341d E8000000 		call	_ZN8UnitTest11TestDetailsC1ERKS0_i@PLT
 7033      00
 7034              	.LEHE376:
 7035              		.loc 3 257 0 is_stmt 0 discriminator 2
 7036 3422 488B5D80 		movq	-128(%rbp), %rbx
 7037 3426 488B8568 		movq	-152(%rbp), %rax
 7037      FFFFFF
 7038 342d 4883C002 		addq	$2, %rax
 7039 3431 83E003   		andl	$3, %eax
 7040 3434 4883C001 		addq	$1, %rax
 7041 3438 48894588 		movq	%rax, -120(%rbp)
 7042              	.LEHB377:
 7043 343c E8000000 		call	_ZN8UnitTest11CurrentTest7ResultsEv@PLT
 7043      00
 7044 3441 488B00   		movq	(%rax), %rax
 7045 3444 488D5590 		leaq	-112(%rbp), %rdx
 7046 3448 488D7588 		leaq	-120(%rbp), %rsi
 7047 344c 4889D1   		movq	%rdx, %rcx
 7048 344f 4889DA   		movq	%rbx, %rdx
 7049 3452 4889C7   		movq	%rax, %rdi
 7050 3455 E8000000 		call	_ZN8UnitTest10CheckEqualImjEEvRNS_11TestResultsERKT_RKT0_RKNS_11TestDetailsE
 7050      00
 7051              	.LEHE377:
 7052              	.L524:
 258:testCore.cpp  **** 	*item = 102;
 7053              		.loc 3 258 0 is_stmt 1
 7054 345a 488B4580 		movq	-128(%rbp), %rax
 7055 345e C7006600 		movl	$102, (%rax)
 7055      0000
 259:testCore.cpp  **** 	queueCommitPut(&queue);
 7056              		.loc 3 259 0
 7057 3464 488D45B0 		leaq	-80(%rbp), %rax
 7058 3468 4889C7   		movq	%rax, %rdi
 7059              	.LEHB378:
 7060 346b E8000000 		call	queueCommitPut@PLT
 7060      00
 260:testCore.cpp  **** 	status = queuePut(&queue, (Item*)&item);
 7061              		.loc 3 260 0
 7062 3470 488D5580 		leaq	-128(%rbp), %rdx
 7063 3474 488D45B0 		leaq	-80(%rbp), %rax
 7064 3478 4889D6   		movq	%rdx, %rsi
 7065 347b 4889C7   		movq	%rax, %rdi
 7066 347e E8000000 		call	queuePut@PLT
 7066      00
 7067              	.LEHE378:
 7068 3483 898578FF 		movl	%eax, -136(%rbp)
 7068      FFFF
 7069              	.LEHB379:
 261:testCore.cpp  **** 	CHECK_EQUAL(USB_SUCCESS, status);
 7070              		.loc 3 261 0
 7071 3489 E8000000 		call	_ZN8UnitTest11CurrentTest7DetailsEv@PLT
 7071      00
 7072 348e 488B08   		movq	(%rax), %rcx
 7073 3491 488D4590 		leaq	-112(%rbp), %rax
 7074 3495 BA050100 		movl	$261, %edx
 7074      00
 7075 349a 4889CE   		movq	%rcx, %rsi
 7076 349d 4889C7   		movq	%rax, %rdi
 7077 34a0 E8000000 		call	_ZN8UnitTest11TestDetailsC1ERKS0_i@PLT
 7077      00
 7078              	.LEHE379:
 7079              		.loc 3 261 0 is_stmt 0 discriminator 2
 7080 34a5 C7458800 		movl	$0, -120(%rbp)
 7080      000000
 7081              	.LEHB380:
 7082 34ac E8000000 		call	_ZN8UnitTest11CurrentTest7ResultsEv@PLT
 7082      00
 7083 34b1 488B00   		movq	(%rax), %rax
 7084 34b4 488D4D90 		leaq	-112(%rbp), %rcx
 7085 34b8 488D9578 		leaq	-136(%rbp), %rdx
 7085      FFFFFF
 7086 34bf 488D7588 		leaq	-120(%rbp), %rsi
 7087 34c3 4889C7   		movq	%rax, %rdi
 7088 34c6 E8000000 		call	_ZN8UnitTest10CheckEqualI9USBStatusS1_EEvRNS_11TestResultsERKT_RKT0_RKNS_11TestDetailsE
 7088      00
 7089              	.LEHE380:
 7090              	.L528:
 7091              	.LEHB381:
 262:testCore.cpp  **** 	CHECK_EQUAL((offset + 3UL) % 4 + 1UL, *item);
 7092              		.loc 3 262 0 is_stmt 1
 7093 34cb E8000000 		call	_ZN8UnitTest11CurrentTest7DetailsEv@PLT
 7093      00
 7094 34d0 488B08   		movq	(%rax), %rcx
 7095 34d3 488D4590 		leaq	-112(%rbp), %rax
 7096 34d7 BA060100 		movl	$262, %edx
 7096      00
 7097 34dc 4889CE   		movq	%rcx, %rsi
 7098 34df 4889C7   		movq	%rax, %rdi
 7099 34e2 E8000000 		call	_ZN8UnitTest11TestDetailsC1ERKS0_i@PLT
 7099      00
 7100              	.LEHE381:
 7101              		.loc 3 262 0 is_stmt 0 discriminator 2
 7102 34e7 488B5D80 		movq	-128(%rbp), %rbx
 7103 34eb 488B8568 		movq	-152(%rbp), %rax
 7103      FFFFFF
 7104 34f2 4883C003 		addq	$3, %rax
 7105 34f6 83E003   		andl	$3, %eax
 7106 34f9 4883C001 		addq	$1, %rax
 7107 34fd 48894588 		movq	%rax, -120(%rbp)
 7108              	.LEHB382:
 7109 3501 E8000000 		call	_ZN8UnitTest11CurrentTest7ResultsEv@PLT
 7109      00
 7110 3506 488B00   		movq	(%rax), %rax
 7111 3509 488D5590 		leaq	-112(%rbp), %rdx
 7112 350d 488D7588 		leaq	-120(%rbp), %rsi
 7113 3511 4889D1   		movq	%rdx, %rcx
 7114 3514 4889DA   		movq	%rbx, %rdx
 7115 3517 4889C7   		movq	%rax, %rdi
 7116 351a E8000000 		call	_ZN8UnitTest10CheckEqualImjEEvRNS_11TestResultsERKT_RKT0_RKNS_11TestDetailsE
 7116      00
 7117              	.LEHE382:
 7118              	.L532:
 263:testCore.cpp  **** 	*item = 103;
 7119              		.loc 3 263 0 is_stmt 1
 7120 351f 488B4580 		movq	-128(%rbp), %rax
 7121 3523 C7006700 		movl	$103, (%rax)
 7121      0000
 264:testCore.cpp  **** 	queueCommitPut(&queue);
 7122              		.loc 3 264 0
 7123 3529 488D45B0 		leaq	-80(%rbp), %rax
 7124 352d 4889C7   		movq	%rax, %rdi
 7125              	.LEHB383:
 7126 3530 E8000000 		call	queueCommitPut@PLT
 7126      00
 7127              	.LEHE383:
 7128              	.LEHB384:
 265:testCore.cpp  **** 
 266:testCore.cpp  **** 	// Verify
 267:testCore.cpp  **** 	CHECK_EQUAL(4UL, queue.capacity);
 7129              		.loc 3 267 0
 7130 3535 E8000000 		call	_ZN8UnitTest11CurrentTest7DetailsEv@PLT
 7130      00
 7131 353a 488B08   		movq	(%rax), %rcx
 7132 353d 488D4590 		leaq	-112(%rbp), %rax
 7133 3541 BA0B0100 		movl	$267, %edx
 7133      00
 7134 3546 4889CE   		movq	%rcx, %rsi
 7135 3549 4889C7   		movq	%rax, %rdi
 7136 354c E8000000 		call	_ZN8UnitTest11TestDetailsC1ERKS0_i@PLT
 7136      00
 7137              	.LEHE384:
 7138              		.loc 3 267 0 is_stmt 0 discriminator 2
 7139 3551 48C74588 		movq	$4, -120(%rbp)
 7139      04000000 
 7140              	.LEHB385:
 7141 3559 E8000000 		call	_ZN8UnitTest11CurrentTest7ResultsEv@PLT
 7141      00
 7142 355e 488B00   		movq	(%rax), %rax
 7143 3561 488D5590 		leaq	-112(%rbp), %rdx
 7144 3565 488D4DB0 		leaq	-80(%rbp), %rcx
 7145 3569 488D7908 		leaq	8(%rcx), %rdi
 7146 356d 488D7588 		leaq	-120(%rbp), %rsi
 7147 3571 4889D1   		movq	%rdx, %rcx
 7148 3574 4889FA   		movq	%rdi, %rdx
 7149 3577 4889C7   		movq	%rax, %rdi
 7150 357a E8000000 		call	_ZN8UnitTest10CheckEqualImmEEvRNS_11TestResultsERKT_RKT0_RKNS_11TestDetailsE
 7150      00
 7151              	.LEHE385:
 7152              	.L536:
 7153              	.LEHB386:
 268:testCore.cpp  **** 	CHECK_EQUAL(offset, queue.putIndex);
 7154              		.loc 3 268 0 is_stmt 1
 7155 357f E8000000 		call	_ZN8UnitTest11CurrentTest7DetailsEv@PLT
 7155      00
 7156 3584 488B08   		movq	(%rax), %rcx
 7157 3587 488D4590 		leaq	-112(%rbp), %rax
 7158 358b BA0C0100 		movl	$268, %edx
 7158      00
 7159 3590 4889CE   		movq	%rcx, %rsi
 7160 3593 4889C7   		movq	%rax, %rdi
 7161 3596 E8000000 		call	_ZN8UnitTest11TestDetailsC1ERKS0_i@PLT
 7161      00
 7162              		.loc 3 268 0 is_stmt 0 discriminator 2
 7163 359b E8000000 		call	_ZN8UnitTest11CurrentTest7ResultsEv@PLT
 7163      00
 7164 35a0 488B00   		movq	(%rax), %rax
 7165 35a3 488D5590 		leaq	-112(%rbp), %rdx
 7166 35a7 488D4DB0 		leaq	-80(%rbp), %rcx
 7167 35ab 488D7910 		leaq	16(%rcx), %rdi
 7168 35af 488DB568 		leaq	-152(%rbp), %rsi
 7168      FFFFFF
 7169 35b6 4889D1   		movq	%rdx, %rcx
 7170 35b9 4889FA   		movq	%rdi, %rdx
 7171 35bc 4889C7   		movq	%rax, %rdi
 7172 35bf E8000000 		call	_ZN8UnitTest10CheckEqualImmEEvRNS_11TestResultsERKT_RKT0_RKNS_11TestDetailsE
 7172      00
 7173              	.LEHE386:
 7174              	.L539:
 7175              	.LEHB387:
 269:testCore.cpp  **** 	CHECK_EQUAL(offset, queue.takeIndex);
 7176              		.loc 3 269 0 is_stmt 1
 7177 35c4 E8000000 		call	_ZN8UnitTest11CurrentTest7DetailsEv@PLT
 7177      00
 7178 35c9 488B08   		movq	(%rax), %rcx
 7179 35cc 488D4590 		leaq	-112(%rbp), %rax
 7180 35d0 BA0D0100 		movl	$269, %edx
 7180      00
 7181 35d5 4889CE   		movq	%rcx, %rsi
 7182 35d8 4889C7   		movq	%rax, %rdi
 7183 35db E8000000 		call	_ZN8UnitTest11TestDetailsC1ERKS0_i@PLT
 7183      00
 7184              		.loc 3 269 0 is_stmt 0 discriminator 2
 7185 35e0 E8000000 		call	_ZN8UnitTest11CurrentTest7ResultsEv@PLT
 7185      00
 7186 35e5 488B00   		movq	(%rax), %rax
 7187 35e8 488D5590 		leaq	-112(%rbp), %rdx
 7188 35ec 488D4DB0 		leaq	-80(%rbp), %rcx
 7189 35f0 488D7918 		leaq	24(%rcx), %rdi
 7190 35f4 488DB568 		leaq	-152(%rbp), %rsi
 7190      FFFFFF
 7191 35fb 4889D1   		movq	%rdx, %rcx
 7192 35fe 4889FA   		movq	%rdi, %rdx
 7193 3601 4889C7   		movq	%rax, %rdi
 7194 3604 E8000000 		call	_ZN8UnitTest10CheckEqualImmEEvRNS_11TestResultsERKT_RKT0_RKNS_11TestDetailsE
 7194      00
 7195              	.LEHE387:
 7196              	.L542:
 7197              	.LEHB388:
 270:testCore.cpp  **** 	CHECK_EQUAL(4UL, queue.numItems);
 7198              		.loc 3 270 0 is_stmt 1
 7199 3609 E8000000 		call	_ZN8UnitTest11CurrentTest7DetailsEv@PLT
 7199      00
 7200 360e 488B08   		movq	(%rax), %rcx
 7201 3611 488D4590 		leaq	-112(%rbp), %rax
 7202 3615 BA0E0100 		movl	$270, %edx
 7202      00
 7203 361a 4889CE   		movq	%rcx, %rsi
 7204 361d 4889C7   		movq	%rax, %rdi
 7205 3620 E8000000 		call	_ZN8UnitTest11TestDetailsC1ERKS0_i@PLT
 7205      00
 7206              	.LEHE388:
 7207              		.loc 3 270 0 is_stmt 0 discriminator 2
 7208 3625 48C74588 		movq	$4, -120(%rbp)
 7208      04000000 
 7209              	.LEHB389:
 7210 362d E8000000 		call	_ZN8UnitTest11CurrentTest7ResultsEv@PLT
 7210      00
 7211 3632 488B00   		movq	(%rax), %rax
 7212 3635 488D5590 		leaq	-112(%rbp), %rdx
 7213 3639 488D4DB0 		leaq	-80(%rbp), %rcx
 7214 363d 488D7920 		leaq	32(%rcx), %rdi
 7215 3641 488D7588 		leaq	-120(%rbp), %rsi
 7216 3645 4889D1   		movq	%rdx, %rcx
 7217 3648 4889FA   		movq	%rdi, %rdx
 7218 364b 4889C7   		movq	%rax, %rdi
 7219 364e E8000000 		call	_ZN8UnitTest10CheckEqualImmEEvRNS_11TestResultsERKT_RKT0_RKNS_11TestDetailsE
 7219      00
 7220              	.LEHE389:
 7221              	.L546:
 271:testCore.cpp  **** 
 272:testCore.cpp  **** 	// Force reallocation
 273:testCore.cpp  **** 	status = queuePut(&queue, (Item*)&item);
 7222              		.loc 3 273 0 is_stmt 1
 7223 3653 488D5580 		leaq	-128(%rbp), %rdx
 7224 3657 488D45B0 		leaq	-80(%rbp), %rax
 7225 365b 4889D6   		movq	%rdx, %rsi
 7226 365e 4889C7   		movq	%rax, %rdi
 7227              	.LEHB390:
 7228 3661 E8000000 		call	queuePut@PLT
 7228      00
 7229              	.LEHE390:
 7230 3666 898578FF 		movl	%eax, -136(%rbp)
 7230      FFFF
 7231              	.LEHB391:
 274:testCore.cpp  **** 	CHECK_EQUAL(USB_SUCCESS, status);
 7232              		.loc 3 274 0
 7233 366c E8000000 		call	_ZN8UnitTest11CurrentTest7DetailsEv@PLT
 7233      00
 7234 3671 488B08   		movq	(%rax), %rcx
 7235 3674 488D4590 		leaq	-112(%rbp), %rax
 7236 3678 BA120100 		movl	$274, %edx
 7236      00
 7237 367d 4889CE   		movq	%rcx, %rsi
 7238 3680 4889C7   		movq	%rax, %rdi
 7239 3683 E8000000 		call	_ZN8UnitTest11TestDetailsC1ERKS0_i@PLT
 7239      00
 7240              	.LEHE391:
 7241              		.loc 3 274 0 is_stmt 0 discriminator 2
 7242 3688 C7458800 		movl	$0, -120(%rbp)
 7242      000000
 7243              	.LEHB392:
 7244 368f E8000000 		call	_ZN8UnitTest11CurrentTest7ResultsEv@PLT
 7244      00
 7245 3694 488B00   		movq	(%rax), %rax
 7246 3697 488D4D90 		leaq	-112(%rbp), %rcx
 7247 369b 488D9578 		leaq	-136(%rbp), %rdx
 7247      FFFFFF
 7248 36a2 488D7588 		leaq	-120(%rbp), %rsi
 7249 36a6 4889C7   		movq	%rax, %rdi
 7250 36a9 E8000000 		call	_ZN8UnitTest10CheckEqualI9USBStatusS1_EEvRNS_11TestResultsERKT_RKT0_RKNS_11TestDetailsE
 7250      00
 7251              	.LEHE392:
 7252              	.L550:
 7253              	.LEHB393:
 275:testCore.cpp  **** 	CHECK_EQUAL(5UL, *item);
 7254              		.loc 3 275 0 is_stmt 1
 7255 36ae E8000000 		call	_ZN8UnitTest11CurrentTest7DetailsEv@PLT
 7255      00
 7256 36b3 488B08   		movq	(%rax), %rcx
 7257 36b6 488D4590 		leaq	-112(%rbp), %rax
 7258 36ba BA130100 		movl	$275, %edx
 7258      00
 7259 36bf 4889CE   		movq	%rcx, %rsi
 7260 36c2 4889C7   		movq	%rax, %rdi
 7261 36c5 E8000000 		call	_ZN8UnitTest11TestDetailsC1ERKS0_i@PLT
 7261      00
 7262              	.LEHE393:
 7263              		.loc 3 275 0 is_stmt 0 discriminator 2
 7264 36ca 488B5D80 		movq	-128(%rbp), %rbx
 7265 36ce 48C74588 		movq	$5, -120(%rbp)
 7265      05000000 
 7266              	.LEHB394:
 7267 36d6 E8000000 		call	_ZN8UnitTest11CurrentTest7ResultsEv@PLT
 7267      00
 7268 36db 488B00   		movq	(%rax), %rax
 7269 36de 488D5590 		leaq	-112(%rbp), %rdx
 7270 36e2 488D7588 		leaq	-120(%rbp), %rsi
 7271 36e6 4889D1   		movq	%rdx, %rcx
 7272 36e9 4889DA   		movq	%rbx, %rdx
 7273 36ec 4889C7   		movq	%rax, %rdi
 7274 36ef E8000000 		call	_ZN8UnitTest10CheckEqualImjEEvRNS_11TestResultsERKT_RKT0_RKNS_11TestDetailsE
 7274      00
 7275              	.LEHE394:
 7276              	.L554:
 276:testCore.cpp  **** 	*item = 104;
 7277              		.loc 3 276 0 is_stmt 1
 7278 36f4 488B4580 		movq	-128(%rbp), %rax
 7279 36f8 C7006800 		movl	$104, (%rax)
 7279      0000
 277:testCore.cpp  **** 	queueCommitPut(&queue);
 7280              		.loc 3 277 0
 7281 36fe 488D45B0 		leaq	-80(%rbp), %rax
 7282 3702 4889C7   		movq	%rax, %rdi
 7283              	.LEHB395:
 7284 3705 E8000000 		call	queueCommitPut@PLT
 7284      00
 7285              	.LEHE395:
 7286              	.LEHB396:
 278:testCore.cpp  **** 
 279:testCore.cpp  **** 	// Verify
 280:testCore.cpp  **** 	CHECK_EQUAL(8UL, queue.capacity);
 7287              		.loc 3 280 0
 7288 370a E8000000 		call	_ZN8UnitTest11CurrentTest7DetailsEv@PLT
 7288      00
 7289 370f 488B08   		movq	(%rax), %rcx
 7290 3712 488D4590 		leaq	-112(%rbp), %rax
 7291 3716 BA180100 		movl	$280, %edx
 7291      00
 7292 371b 4889CE   		movq	%rcx, %rsi
 7293 371e 4889C7   		movq	%rax, %rdi
 7294 3721 E8000000 		call	_ZN8UnitTest11TestDetailsC1ERKS0_i@PLT
 7294      00
 7295              	.LEHE396:
 7296              		.loc 3 280 0 is_stmt 0 discriminator 2
 7297 3726 48C74588 		movq	$8, -120(%rbp)
 7297      08000000 
 7298              	.LEHB397:
 7299 372e E8000000 		call	_ZN8UnitTest11CurrentTest7ResultsEv@PLT
 7299      00
 7300 3733 488B00   		movq	(%rax), %rax
 7301 3736 488D5590 		leaq	-112(%rbp), %rdx
 7302 373a 488D4DB0 		leaq	-80(%rbp), %rcx
 7303 373e 488D7908 		leaq	8(%rcx), %rdi
 7304 3742 488D7588 		leaq	-120(%rbp), %rsi
 7305 3746 4889D1   		movq	%rdx, %rcx
 7306 3749 4889FA   		movq	%rdi, %rdx
 7307 374c 4889C7   		movq	%rax, %rdi
 7308 374f E8000000 		call	_ZN8UnitTest10CheckEqualImmEEvRNS_11TestResultsERKT_RKT0_RKNS_11TestDetailsE
 7308      00
 7309              	.LEHE397:
 7310              	.L558:
 7311              	.LEHB398:
 281:testCore.cpp  **** 	CHECK_EQUAL(5UL, queue.putIndex);
 7312              		.loc 3 281 0 is_stmt 1
 7313 3754 E8000000 		call	_ZN8UnitTest11CurrentTest7DetailsEv@PLT
 7313      00
 7314 3759 488B08   		movq	(%rax), %rcx
 7315 375c 488D4590 		leaq	-112(%rbp), %rax
 7316 3760 BA190100 		movl	$281, %edx
 7316      00
 7317 3765 4889CE   		movq	%rcx, %rsi
 7318 3768 4889C7   		movq	%rax, %rdi
 7319 376b E8000000 		call	_ZN8UnitTest11TestDetailsC1ERKS0_i@PLT
 7319      00
 7320              	.LEHE398:
 7321              		.loc 3 281 0 is_stmt 0 discriminator 2
 7322 3770 48C74588 		movq	$5, -120(%rbp)
 7322      05000000 
 7323              	.LEHB399:
 7324 3778 E8000000 		call	_ZN8UnitTest11CurrentTest7ResultsEv@PLT
 7324      00
 7325 377d 488B00   		movq	(%rax), %rax
 7326 3780 488D5590 		leaq	-112(%rbp), %rdx
 7327 3784 488D4DB0 		leaq	-80(%rbp), %rcx
 7328 3788 488D7910 		leaq	16(%rcx), %rdi
 7329 378c 488D7588 		leaq	-120(%rbp), %rsi
 7330 3790 4889D1   		movq	%rdx, %rcx
 7331 3793 4889FA   		movq	%rdi, %rdx
 7332 3796 4889C7   		movq	%rax, %rdi
 7333 3799 E8000000 		call	_ZN8UnitTest10CheckEqualImmEEvRNS_11TestResultsERKT_RKT0_RKNS_11TestDetailsE
 7333      00
 7334              	.LEHE399:
 7335              	.L562:
 7336              	.LEHB400:
 282:testCore.cpp  **** 	CHECK_EQUAL(0UL, queue.takeIndex);
 7337              		.loc 3 282 0 is_stmt 1
 7338 379e E8000000 		call	_ZN8UnitTest11CurrentTest7DetailsEv@PLT
 7338      00
 7339 37a3 488B08   		movq	(%rax), %rcx
 7340 37a6 488D4590 		leaq	-112(%rbp), %rax
 7341 37aa BA1A0100 		movl	$282, %edx
 7341      00
 7342 37af 4889CE   		movq	%rcx, %rsi
 7343 37b2 4889C7   		movq	%rax, %rdi
 7344 37b5 E8000000 		call	_ZN8UnitTest11TestDetailsC1ERKS0_i@PLT
 7344      00
 7345              	.LEHE400:
 7346              		.loc 3 282 0 is_stmt 0 discriminator 2
 7347 37ba 48C74588 		movq	$0, -120(%rbp)
 7347      00000000 
 7348              	.LEHB401:
 7349 37c2 E8000000 		call	_ZN8UnitTest11CurrentTest7ResultsEv@PLT
 7349      00
 7350 37c7 488B00   		movq	(%rax), %rax
 7351 37ca 488D5590 		leaq	-112(%rbp), %rdx
 7352 37ce 488D4DB0 		leaq	-80(%rbp), %rcx
 7353 37d2 488D7918 		leaq	24(%rcx), %rdi
 7354 37d6 488D7588 		leaq	-120(%rbp), %rsi
 7355 37da 4889D1   		movq	%rdx, %rcx
 7356 37dd 4889FA   		movq	%rdi, %rdx
 7357 37e0 4889C7   		movq	%rax, %rdi
 7358 37e3 E8000000 		call	_ZN8UnitTest10CheckEqualImmEEvRNS_11TestResultsERKT_RKT0_RKNS_11TestDetailsE
 7358      00
 7359              	.LEHE401:
 7360              	.L566:
 7361              	.LEHB402:
 283:testCore.cpp  **** 	CHECK_EQUAL(5UL, queue.numItems);
 7362              		.loc 3 283 0 is_stmt 1
 7363 37e8 E8000000 		call	_ZN8UnitTest11CurrentTest7DetailsEv@PLT
 7363      00
 7364 37ed 488B08   		movq	(%rax), %rcx
 7365 37f0 488D4590 		leaq	-112(%rbp), %rax
 7366 37f4 BA1B0100 		movl	$283, %edx
 7366      00
 7367 37f9 4889CE   		movq	%rcx, %rsi
 7368 37fc 4889C7   		movq	%rax, %rdi
 7369 37ff E8000000 		call	_ZN8UnitTest11TestDetailsC1ERKS0_i@PLT
 7369      00
 7370              	.LEHE402:
 7371              		.loc 3 283 0 is_stmt 0 discriminator 2
 7372 3804 48C74588 		movq	$5, -120(%rbp)
 7372      05000000 
 7373              	.LEHB403:
 7374 380c E8000000 		call	_ZN8UnitTest11CurrentTest7ResultsEv@PLT
 7374      00
 7375 3811 488B00   		movq	(%rax), %rax
 7376 3814 488D5590 		leaq	-112(%rbp), %rdx
 7377 3818 488D4DB0 		leaq	-80(%rbp), %rcx
 7378 381c 488D7920 		leaq	32(%rcx), %rdi
 7379 3820 488D7588 		leaq	-120(%rbp), %rsi
 7380 3824 4889D1   		movq	%rdx, %rcx
 7381 3827 4889FA   		movq	%rdi, %rdx
 7382 382a 4889C7   		movq	%rax, %rdi
 7383 382d E8000000 		call	_ZN8UnitTest10CheckEqualImmEEvRNS_11TestResultsERKT_RKT0_RKNS_11TestDetailsE
 7383      00
 7384              	.LEHE403:
 7385              	.L570:
 7386              	.LEHB404:
 284:testCore.cpp  **** 
 285:testCore.cpp  **** 	// Verify array
 286:testCore.cpp  **** 	CHECK_EQUAL(100UL, deref(queue.itemArray[0]));
 7387              		.loc 3 286 0 is_stmt 1
 7388 3832 E8000000 		call	_ZN8UnitTest11CurrentTest7DetailsEv@PLT
 7388      00
 7389 3837 488B08   		movq	(%rax), %rcx
 7390 383a 488D4590 		leaq	-112(%rbp), %rax
 7391 383e BA1E0100 		movl	$286, %edx
 7391      00
 7392 3843 4889CE   		movq	%rcx, %rsi
 7393 3846 4889C7   		movq	%rax, %rdi
 7394 3849 E8000000 		call	_ZN8UnitTest11TestDetailsC1ERKS0_i@PLT
 7394      00
 7395              	.LEHE404:
 7396              		.loc 3 286 0 is_stmt 0 discriminator 2
 7397 384e 488B45B0 		movq	-80(%rbp), %rax
 7398 3852 488B00   		movq	(%rax), %rax
 7399 3855 4889C7   		movq	%rax, %rdi
 7400 3858 E82DC8FF 		call	_ZL5derefPKv
 7400      FF
 7401 385d 89857CFF 		movl	%eax, -132(%rbp)
 7401      FFFF
 7402 3863 48C74588 		movq	$100, -120(%rbp)
 7402      64000000 
 7403              	.LEHB405:
 7404 386b E8000000 		call	_ZN8UnitTest11CurrentTest7ResultsEv@PLT
 7404      00
 7405 3870 488B00   		movq	(%rax), %rax
 7406 3873 488D4D90 		leaq	-112(%rbp), %rcx
 7407 3877 488D957C 		leaq	-132(%rbp), %rdx
 7407      FFFFFF
 7408 387e 488D7588 		leaq	-120(%rbp), %rsi
 7409 3882 4889C7   		movq	%rax, %rdi
 7410 3885 E8000000 		call	_ZN8UnitTest10CheckEqualImjEEvRNS_11TestResultsERKT_RKT0_RKNS_11TestDetailsE
 7410      00
 7411              	.LEHE405:
 7412              	.L574:
 7413              	.LEHB406:
 287:testCore.cpp  **** 	CHECK_EQUAL(101UL, deref(queue.itemArray[1]));
 7414              		.loc 3 287 0 is_stmt 1
 7415 388a E8000000 		call	_ZN8UnitTest11CurrentTest7DetailsEv@PLT
 7415      00
 7416 388f 488B08   		movq	(%rax), %rcx
 7417 3892 488D4590 		leaq	-112(%rbp), %rax
 7418 3896 BA1F0100 		movl	$287, %edx
 7418      00
 7419 389b 4889CE   		movq	%rcx, %rsi
 7420 389e 4889C7   		movq	%rax, %rdi
 7421 38a1 E8000000 		call	_ZN8UnitTest11TestDetailsC1ERKS0_i@PLT
 7421      00
 7422              	.LEHE406:
 7423              		.loc 3 287 0 is_stmt 0 discriminator 2
 7424 38a6 488B45B0 		movq	-80(%rbp), %rax
 7425 38aa 4883C008 		addq	$8, %rax
 7426 38ae 488B00   		movq	(%rax), %rax
 7427 38b1 4889C7   		movq	%rax, %rdi
 7428 38b4 E8D1C7FF 		call	_ZL5derefPKv
 7428      FF
 7429 38b9 89857CFF 		movl	%eax, -132(%rbp)
 7429      FFFF
 7430 38bf 48C74588 		movq	$101, -120(%rbp)
 7430      65000000 
 7431              	.LEHB407:
 7432 38c7 E8000000 		call	_ZN8UnitTest11CurrentTest7ResultsEv@PLT
 7432      00
 7433 38cc 488B00   		movq	(%rax), %rax
 7434 38cf 488D4D90 		leaq	-112(%rbp), %rcx
 7435 38d3 488D957C 		leaq	-132(%rbp), %rdx
 7435      FFFFFF
 7436 38da 488D7588 		leaq	-120(%rbp), %rsi
 7437 38de 4889C7   		movq	%rax, %rdi
 7438 38e1 E8000000 		call	_ZN8UnitTest10CheckEqualImjEEvRNS_11TestResultsERKT_RKT0_RKNS_11TestDetailsE
 7438      00
 7439              	.LEHE407:
 7440              	.L578:
 7441              	.LEHB408:
 288:testCore.cpp  **** 	CHECK_EQUAL(102UL, deref(queue.itemArray[2]));
 7442              		.loc 3 288 0 is_stmt 1
 7443 38e6 E8000000 		call	_ZN8UnitTest11CurrentTest7DetailsEv@PLT
 7443      00
 7444 38eb 488B08   		movq	(%rax), %rcx
 7445 38ee 488D4590 		leaq	-112(%rbp), %rax
 7446 38f2 BA200100 		movl	$288, %edx
 7446      00
 7447 38f7 4889CE   		movq	%rcx, %rsi
 7448 38fa 4889C7   		movq	%rax, %rdi
 7449 38fd E8000000 		call	_ZN8UnitTest11TestDetailsC1ERKS0_i@PLT
 7449      00
 7450              	.LEHE408:
 7451              		.loc 3 288 0 is_stmt 0 discriminator 2
 7452 3902 488B45B0 		movq	-80(%rbp), %rax
 7453 3906 4883C010 		addq	$16, %rax
 7454 390a 488B00   		movq	(%rax), %rax
 7455 390d 4889C7   		movq	%rax, %rdi
 7456 3910 E875C7FF 		call	_ZL5derefPKv
 7456      FF
 7457 3915 89857CFF 		movl	%eax, -132(%rbp)
 7457      FFFF
 7458 391b 48C74588 		movq	$102, -120(%rbp)
 7458      66000000 
 7459              	.LEHB409:
 7460 3923 E8000000 		call	_ZN8UnitTest11CurrentTest7ResultsEv@PLT
 7460      00
 7461 3928 488B00   		movq	(%rax), %rax
 7462 392b 488D4D90 		leaq	-112(%rbp), %rcx
 7463 392f 488D957C 		leaq	-132(%rbp), %rdx
 7463      FFFFFF
 7464 3936 488D7588 		leaq	-120(%rbp), %rsi
 7465 393a 4889C7   		movq	%rax, %rdi
 7466 393d E8000000 		call	_ZN8UnitTest10CheckEqualImjEEvRNS_11TestResultsERKT_RKT0_RKNS_11TestDetailsE
 7466      00
 7467              	.LEHE409:
 7468              	.L582:
 7469              	.LEHB410:
 289:testCore.cpp  **** 	CHECK_EQUAL(103UL, deref(queue.itemArray[3]));
 7470              		.loc 3 289 0 is_stmt 1
 7471 3942 E8000000 		call	_ZN8UnitTest11CurrentTest7DetailsEv@PLT
 7471      00
 7472 3947 488B08   		movq	(%rax), %rcx
 7473 394a 488D4590 		leaq	-112(%rbp), %rax
 7474 394e BA210100 		movl	$289, %edx
 7474      00
 7475 3953 4889CE   		movq	%rcx, %rsi
 7476 3956 4889C7   		movq	%rax, %rdi
 7477 3959 E8000000 		call	_ZN8UnitTest11TestDetailsC1ERKS0_i@PLT
 7477      00
 7478              	.LEHE410:
 7479              		.loc 3 289 0 is_stmt 0 discriminator 2
 7480 395e 488B45B0 		movq	-80(%rbp), %rax
 7481 3962 4883C018 		addq	$24, %rax
 7482 3966 488B00   		movq	(%rax), %rax
 7483 3969 4889C7   		movq	%rax, %rdi
 7484 396c E819C7FF 		call	_ZL5derefPKv
 7484      FF
 7485 3971 89857CFF 		movl	%eax, -132(%rbp)
 7485      FFFF
 7486 3977 48C74588 		movq	$103, -120(%rbp)
 7486      67000000 
 7487              	.LEHB411:
 7488 397f E8000000 		call	_ZN8UnitTest11CurrentTest7ResultsEv@PLT
 7488      00
 7489 3984 488B00   		movq	(%rax), %rax
 7490 3987 488D4D90 		leaq	-112(%rbp), %rcx
 7491 398b 488D957C 		leaq	-132(%rbp), %rdx
 7491      FFFFFF
 7492 3992 488D7588 		leaq	-120(%rbp), %rsi
 7493 3996 4889C7   		movq	%rax, %rdi
 7494 3999 E8000000 		call	_ZN8UnitTest10CheckEqualImjEEvRNS_11TestResultsERKT_RKT0_RKNS_11TestDetailsE
 7494      00
 7495              	.LEHE411:
 7496              	.L586:
 7497              	.LEHB412:
 290:testCore.cpp  **** 	CHECK_EQUAL(104UL, deref(queue.itemArray[4]));
 7498              		.loc 3 290 0 is_stmt 1
 7499 399e E8000000 		call	_ZN8UnitTest11CurrentTest7DetailsEv@PLT
 7499      00
 7500 39a3 488B08   		movq	(%rax), %rcx
 7501 39a6 488D4590 		leaq	-112(%rbp), %rax
 7502 39aa BA220100 		movl	$290, %edx
 7502      00
 7503 39af 4889CE   		movq	%rcx, %rsi
 7504 39b2 4889C7   		movq	%rax, %rdi
 7505 39b5 E8000000 		call	_ZN8UnitTest11TestDetailsC1ERKS0_i@PLT
 7505      00
 7506              	.LEHE412:
 7507              		.loc 3 290 0 is_stmt 0 discriminator 2
 7508 39ba 488B45B0 		movq	-80(%rbp), %rax
 7509 39be 4883C020 		addq	$32, %rax
 7510 39c2 488B00   		movq	(%rax), %rax
 7511 39c5 4889C7   		movq	%rax, %rdi
 7512 39c8 E8BDC6FF 		call	_ZL5derefPKv
 7512      FF
 7513 39cd 89857CFF 		movl	%eax, -132(%rbp)
 7513      FFFF
 7514 39d3 48C74588 		movq	$104, -120(%rbp)
 7514      68000000 
 7515              	.LEHB413:
 7516 39db E8000000 		call	_ZN8UnitTest11CurrentTest7ResultsEv@PLT
 7516      00
 7517 39e0 488B00   		movq	(%rax), %rax
 7518 39e3 488D4D90 		leaq	-112(%rbp), %rcx
 7519 39e7 488D957C 		leaq	-132(%rbp), %rdx
 7519      FFFFFF
 7520 39ee 488D7588 		leaq	-120(%rbp), %rsi
 7521 39f2 4889C7   		movq	%rax, %rdi
 7522 39f5 E8000000 		call	_ZN8UnitTest10CheckEqualImjEEvRNS_11TestResultsERKT_RKT0_RKNS_11TestDetailsE
 7522      00
 7523              	.LEHE413:
 7524              	.L590:
 7525              	.LEHB414:
 291:testCore.cpp  **** 	CHECK_EQUAL(6UL, deref(queue.itemArray[5]));
 7526              		.loc 3 291 0 is_stmt 1
 7527 39fa E8000000 		call	_ZN8UnitTest11CurrentTest7DetailsEv@PLT
 7527      00
 7528 39ff 488B08   		movq	(%rax), %rcx
 7529 3a02 488D4590 		leaq	-112(%rbp), %rax
 7530 3a06 BA230100 		movl	$291, %edx
 7530      00
 7531 3a0b 4889CE   		movq	%rcx, %rsi
 7532 3a0e 4889C7   		movq	%rax, %rdi
 7533 3a11 E8000000 		call	_ZN8UnitTest11TestDetailsC1ERKS0_i@PLT
 7533      00
 7534              	.LEHE414:
 7535              		.loc 3 291 0 is_stmt 0 discriminator 2
 7536 3a16 488B45B0 		movq	-80(%rbp), %rax
 7537 3a1a 4883C028 		addq	$40, %rax
 7538 3a1e 488B00   		movq	(%rax), %rax
 7539 3a21 4889C7   		movq	%rax, %rdi
 7540 3a24 E861C6FF 		call	_ZL5derefPKv
 7540      FF
 7541 3a29 89857CFF 		movl	%eax, -132(%rbp)
 7541      FFFF
 7542 3a2f 48C74588 		movq	$6, -120(%rbp)
 7542      06000000 
 7543              	.LEHB415:
 7544 3a37 E8000000 		call	_ZN8UnitTest11CurrentTest7ResultsEv@PLT
 7544      00
 7545 3a3c 488B00   		movq	(%rax), %rax
 7546 3a3f 488D4D90 		leaq	-112(%rbp), %rcx
 7547 3a43 488D957C 		leaq	-132(%rbp), %rdx
 7547      FFFFFF
 7548 3a4a 488D7588 		leaq	-120(%rbp), %rsi
 7549 3a4e 4889C7   		movq	%rax, %rdi
 7550 3a51 E8000000 		call	_ZN8UnitTest10CheckEqualImjEEvRNS_11TestResultsERKT_RKT0_RKNS_11TestDetailsE
 7550      00
 7551              	.LEHE415:
 7552              	.L594:
 7553              	.LEHB416:
 292:testCore.cpp  **** 	CHECK_EQUAL(7UL, deref(queue.itemArray[6]));
 7554              		.loc 3 292 0 is_stmt 1
 7555 3a56 E8000000 		call	_ZN8UnitTest11CurrentTest7DetailsEv@PLT
 7555      00
 7556 3a5b 488B08   		movq	(%rax), %rcx
 7557 3a5e 488D4590 		leaq	-112(%rbp), %rax
 7558 3a62 BA240100 		movl	$292, %edx
 7558      00
 7559 3a67 4889CE   		movq	%rcx, %rsi
 7560 3a6a 4889C7   		movq	%rax, %rdi
 7561 3a6d E8000000 		call	_ZN8UnitTest11TestDetailsC1ERKS0_i@PLT
 7561      00
 7562              	.LEHE416:
 7563              		.loc 3 292 0 is_stmt 0 discriminator 2
 7564 3a72 488B45B0 		movq	-80(%rbp), %rax
 7565 3a76 4883C030 		addq	$48, %rax
 7566 3a7a 488B00   		movq	(%rax), %rax
 7567 3a7d 4889C7   		movq	%rax, %rdi
 7568 3a80 E805C6FF 		call	_ZL5derefPKv
 7568      FF
 7569 3a85 89857CFF 		movl	%eax, -132(%rbp)
 7569      FFFF
 7570 3a8b 48C74588 		movq	$7, -120(%rbp)
 7570      07000000 
 7571              	.LEHB417:
 7572 3a93 E8000000 		call	_ZN8UnitTest11CurrentTest7ResultsEv@PLT
 7572      00
 7573 3a98 488B00   		movq	(%rax), %rax
 7574 3a9b 488D4D90 		leaq	-112(%rbp), %rcx
 7575 3a9f 488D957C 		leaq	-132(%rbp), %rdx
 7575      FFFFFF
 7576 3aa6 488D7588 		leaq	-120(%rbp), %rsi
 7577 3aaa 4889C7   		movq	%rax, %rdi
 7578 3aad E8000000 		call	_ZN8UnitTest10CheckEqualImjEEvRNS_11TestResultsERKT_RKT0_RKNS_11TestDetailsE
 7578      00
 7579              	.LEHE417:
 7580              	.L598:
 7581              	.LEHB418:
 293:testCore.cpp  **** 	CHECK_EQUAL(8UL, deref(queue.itemArray[7]));
 7582              		.loc 3 293 0 is_stmt 1
 7583 3ab2 E8000000 		call	_ZN8UnitTest11CurrentTest7DetailsEv@PLT
 7583      00
 7584 3ab7 488B08   		movq	(%rax), %rcx
 7585 3aba 488D4590 		leaq	-112(%rbp), %rax
 7586 3abe BA250100 		movl	$293, %edx
 7586      00
 7587 3ac3 4889CE   		movq	%rcx, %rsi
 7588 3ac6 4889C7   		movq	%rax, %rdi
 7589 3ac9 E8000000 		call	_ZN8UnitTest11TestDetailsC1ERKS0_i@PLT
 7589      00
 7590              	.LEHE418:
 7591              		.loc 3 293 0 is_stmt 0 discriminator 2
 7592 3ace 488B45B0 		movq	-80(%rbp), %rax
 7593 3ad2 4883C038 		addq	$56, %rax
 7594 3ad6 488B00   		movq	(%rax), %rax
 7595 3ad9 4889C7   		movq	%rax, %rdi
 7596 3adc E8A9C5FF 		call	_ZL5derefPKv
 7596      FF
 7597 3ae1 89857CFF 		movl	%eax, -132(%rbp)
 7597      FFFF
 7598 3ae7 48C74588 		movq	$8, -120(%rbp)
 7598      08000000 
 7599              	.LEHB419:
 7600 3aef E8000000 		call	_ZN8UnitTest11CurrentTest7ResultsEv@PLT
 7600      00
 7601 3af4 488B00   		movq	(%rax), %rax
 7602 3af7 488D4D90 		leaq	-112(%rbp), %rcx
 7603 3afb 488D957C 		leaq	-132(%rbp), %rdx
 7603      FFFFFF
 7604 3b02 488D7588 		leaq	-120(%rbp), %rsi
 7605 3b06 4889C7   		movq	%rax, %rdi
 7606 3b09 E8000000 		call	_ZN8UnitTest10CheckEqualImjEEvRNS_11TestResultsERKT_RKT0_RKNS_11TestDetailsE
 7606      00
 7607              	.LEHE419:
 7608              	.L602:
 294:testCore.cpp  **** 
 295:testCore.cpp  **** 	// Take five items out of the queue
 296:testCore.cpp  **** 	status = queueTake(&queue, (Item*)&item);
 7609              		.loc 3 296 0 is_stmt 1
 7610 3b0e 488D5580 		leaq	-128(%rbp), %rdx
 7611 3b12 488D45B0 		leaq	-80(%rbp), %rax
 7612 3b16 4889D6   		movq	%rdx, %rsi
 7613 3b19 4889C7   		movq	%rax, %rdi
 7614              	.LEHB420:
 7615 3b1c E8000000 		call	queueTake@PLT
 7615      00
 7616              	.LEHE420:
 7617 3b21 898578FF 		movl	%eax, -136(%rbp)
 7617      FFFF
 7618              	.LEHB421:
 297:testCore.cpp  **** 	CHECK_EQUAL(USB_SUCCESS, status);
 7619              		.loc 3 297 0
 7620 3b27 E8000000 		call	_ZN8UnitTest11CurrentTest7DetailsEv@PLT
 7620      00
 7621 3b2c 488B08   		movq	(%rax), %rcx
 7622 3b2f 488D4590 		leaq	-112(%rbp), %rax
 7623 3b33 BA290100 		movl	$297, %edx
 7623      00
 7624 3b38 4889CE   		movq	%rcx, %rsi
 7625 3b3b 4889C7   		movq	%rax, %rdi
 7626 3b3e E8000000 		call	_ZN8UnitTest11TestDetailsC1ERKS0_i@PLT
 7626      00
 7627              	.LEHE421:
 7628              		.loc 3 297 0 is_stmt 0 discriminator 2
 7629 3b43 C7458800 		movl	$0, -120(%rbp)
 7629      000000
 7630              	.LEHB422:
 7631 3b4a E8000000 		call	_ZN8UnitTest11CurrentTest7ResultsEv@PLT
 7631      00
 7632 3b4f 488B00   		movq	(%rax), %rax
 7633 3b52 488D4D90 		leaq	-112(%rbp), %rcx
 7634 3b56 488D9578 		leaq	-136(%rbp), %rdx
 7634      FFFFFF
 7635 3b5d 488D7588 		leaq	-120(%rbp), %rsi
 7636 3b61 4889C7   		movq	%rax, %rdi
 7637 3b64 E8000000 		call	_ZN8UnitTest10CheckEqualI9USBStatusS1_EEvRNS_11TestResultsERKT_RKT0_RKNS_11TestDetailsE
 7637      00
 7638              	.LEHE422:
 7639              	.L606:
 7640              	.LEHB423:
 298:testCore.cpp  **** 	CHECK_EQUAL(100UL, *item);
 7641              		.loc 3 298 0 is_stmt 1
 7642 3b69 E8000000 		call	_ZN8UnitTest11CurrentTest7DetailsEv@PLT
 7642      00
 7643 3b6e 488B08   		movq	(%rax), %rcx
 7644 3b71 488D4590 		leaq	-112(%rbp), %rax
 7645 3b75 BA2A0100 		movl	$298, %edx
 7645      00
 7646 3b7a 4889CE   		movq	%rcx, %rsi
 7647 3b7d 4889C7   		movq	%rax, %rdi
 7648 3b80 E8000000 		call	_ZN8UnitTest11TestDetailsC1ERKS0_i@PLT
 7648      00
 7649              	.LEHE423:
 7650              		.loc 3 298 0 is_stmt 0 discriminator 2
 7651 3b85 488B5D80 		movq	-128(%rbp), %rbx
 7652 3b89 48C74588 		movq	$100, -120(%rbp)
 7652      64000000 
 7653              	.LEHB424:
 7654 3b91 E8000000 		call	_ZN8UnitTest11CurrentTest7ResultsEv@PLT
 7654      00
 7655 3b96 488B00   		movq	(%rax), %rax
 7656 3b99 488D5590 		leaq	-112(%rbp), %rdx
 7657 3b9d 488D7588 		leaq	-120(%rbp), %rsi
 7658 3ba1 4889D1   		movq	%rdx, %rcx
 7659 3ba4 4889DA   		movq	%rbx, %rdx
 7660 3ba7 4889C7   		movq	%rax, %rdi
 7661 3baa E8000000 		call	_ZN8UnitTest10CheckEqualImjEEvRNS_11TestResultsERKT_RKT0_RKNS_11TestDetailsE
 7661      00
 7662              	.LEHE424:
 7663              	.L610:
 299:testCore.cpp  **** 	queueCommitTake(&queue);
 7664              		.loc 3 299 0 is_stmt 1
 7665 3baf 488D45B0 		leaq	-80(%rbp), %rax
 7666 3bb3 4889C7   		movq	%rax, %rdi
 7667              	.LEHB425:
 7668 3bb6 E8000000 		call	queueCommitTake@PLT
 7668      00
 300:testCore.cpp  **** 	status = queueTake(&queue, (Item*)&item);
 7669              		.loc 3 300 0
 7670 3bbb 488D5580 		leaq	-128(%rbp), %rdx
 7671 3bbf 488D45B0 		leaq	-80(%rbp), %rax
 7672 3bc3 4889D6   		movq	%rdx, %rsi
 7673 3bc6 4889C7   		movq	%rax, %rdi
 7674 3bc9 E8000000 		call	queueTake@PLT
 7674      00
 7675              	.LEHE425:
 7676 3bce 898578FF 		movl	%eax, -136(%rbp)
 7676      FFFF
 7677              	.LEHB426:
 301:testCore.cpp  **** 	CHECK_EQUAL(USB_SUCCESS, status);
 7678              		.loc 3 301 0
 7679 3bd4 E8000000 		call	_ZN8UnitTest11CurrentTest7DetailsEv@PLT
 7679      00
 7680 3bd9 488B08   		movq	(%rax), %rcx
 7681 3bdc 488D4590 		leaq	-112(%rbp), %rax
 7682 3be0 BA2D0100 		movl	$301, %edx
 7682      00
 7683 3be5 4889CE   		movq	%rcx, %rsi
 7684 3be8 4889C7   		movq	%rax, %rdi
 7685 3beb E8000000 		call	_ZN8UnitTest11TestDetailsC1ERKS0_i@PLT
 7685      00
 7686              	.LEHE426:
 7687              		.loc 3 301 0 is_stmt 0 discriminator 2
 7688 3bf0 C7458800 		movl	$0, -120(%rbp)
 7688      000000
 7689              	.LEHB427:
 7690 3bf7 E8000000 		call	_ZN8UnitTest11CurrentTest7ResultsEv@PLT
 7690      00
 7691 3bfc 488B00   		movq	(%rax), %rax
 7692 3bff 488D4D90 		leaq	-112(%rbp), %rcx
 7693 3c03 488D9578 		leaq	-136(%rbp), %rdx
 7693      FFFFFF
 7694 3c0a 488D7588 		leaq	-120(%rbp), %rsi
 7695 3c0e 4889C7   		movq	%rax, %rdi
 7696 3c11 E8000000 		call	_ZN8UnitTest10CheckEqualI9USBStatusS1_EEvRNS_11TestResultsERKT_RKT0_RKNS_11TestDetailsE
 7696      00
 7697              	.LEHE427:
 7698              	.L614:
 7699              	.LEHB428:
 302:testCore.cpp  **** 	CHECK_EQUAL(101UL, *item);
 7700              		.loc 3 302 0 is_stmt 1
 7701 3c16 E8000000 		call	_ZN8UnitTest11CurrentTest7DetailsEv@PLT
 7701      00
 7702 3c1b 488B08   		movq	(%rax), %rcx
 7703 3c1e 488D4590 		leaq	-112(%rbp), %rax
 7704 3c22 BA2E0100 		movl	$302, %edx
 7704      00
 7705 3c27 4889CE   		movq	%rcx, %rsi
 7706 3c2a 4889C7   		movq	%rax, %rdi
 7707 3c2d E8000000 		call	_ZN8UnitTest11TestDetailsC1ERKS0_i@PLT
 7707      00
 7708              	.LEHE428:
 7709              		.loc 3 302 0 is_stmt 0 discriminator 2
 7710 3c32 488B5D80 		movq	-128(%rbp), %rbx
 7711 3c36 48C74588 		movq	$101, -120(%rbp)
 7711      65000000 
 7712              	.LEHB429:
 7713 3c3e E8000000 		call	_ZN8UnitTest11CurrentTest7ResultsEv@PLT
 7713      00
 7714 3c43 488B00   		movq	(%rax), %rax
 7715 3c46 488D5590 		leaq	-112(%rbp), %rdx
 7716 3c4a 488D7588 		leaq	-120(%rbp), %rsi
 7717 3c4e 4889D1   		movq	%rdx, %rcx
 7718 3c51 4889DA   		movq	%rbx, %rdx
 7719 3c54 4889C7   		movq	%rax, %rdi
 7720 3c57 E8000000 		call	_ZN8UnitTest10CheckEqualImjEEvRNS_11TestResultsERKT_RKT0_RKNS_11TestDetailsE
 7720      00
 7721              	.LEHE429:
 7722              	.L618:
 303:testCore.cpp  **** 	queueCommitTake(&queue);
 7723              		.loc 3 303 0 is_stmt 1
 7724 3c5c 488D45B0 		leaq	-80(%rbp), %rax
 7725 3c60 4889C7   		movq	%rax, %rdi
 7726              	.LEHB430:
 7727 3c63 E8000000 		call	queueCommitTake@PLT
 7727      00
 304:testCore.cpp  **** 	status = queueTake(&queue, (Item*)&item);
 7728              		.loc 3 304 0
 7729 3c68 488D5580 		leaq	-128(%rbp), %rdx
 7730 3c6c 488D45B0 		leaq	-80(%rbp), %rax
 7731 3c70 4889D6   		movq	%rdx, %rsi
 7732 3c73 4889C7   		movq	%rax, %rdi
 7733 3c76 E8000000 		call	queueTake@PLT
 7733      00
 7734              	.LEHE430:
 7735 3c7b 898578FF 		movl	%eax, -136(%rbp)
 7735      FFFF
 7736              	.LEHB431:
 305:testCore.cpp  **** 	CHECK_EQUAL(USB_SUCCESS, status);
 7737              		.loc 3 305 0
 7738 3c81 E8000000 		call	_ZN8UnitTest11CurrentTest7DetailsEv@PLT
 7738      00
 7739 3c86 488B08   		movq	(%rax), %rcx
 7740 3c89 488D4590 		leaq	-112(%rbp), %rax
 7741 3c8d BA310100 		movl	$305, %edx
 7741      00
 7742 3c92 4889CE   		movq	%rcx, %rsi
 7743 3c95 4889C7   		movq	%rax, %rdi
 7744 3c98 E8000000 		call	_ZN8UnitTest11TestDetailsC1ERKS0_i@PLT
 7744      00
 7745              	.LEHE431:
 7746              		.loc 3 305 0 is_stmt 0 discriminator 2
 7747 3c9d C7458800 		movl	$0, -120(%rbp)
 7747      000000
 7748              	.LEHB432:
 7749 3ca4 E8000000 		call	_ZN8UnitTest11CurrentTest7ResultsEv@PLT
 7749      00
 7750 3ca9 488B00   		movq	(%rax), %rax
 7751 3cac 488D4D90 		leaq	-112(%rbp), %rcx
 7752 3cb0 488D9578 		leaq	-136(%rbp), %rdx
 7752      FFFFFF
 7753 3cb7 488D7588 		leaq	-120(%rbp), %rsi
 7754 3cbb 4889C7   		movq	%rax, %rdi
 7755 3cbe E8000000 		call	_ZN8UnitTest10CheckEqualI9USBStatusS1_EEvRNS_11TestResultsERKT_RKT0_RKNS_11TestDetailsE
 7755      00
 7756              	.LEHE432:
 7757              	.L622:
 7758              	.LEHB433:
 306:testCore.cpp  **** 	CHECK_EQUAL(102UL, *item);
 7759              		.loc 3 306 0 is_stmt 1
 7760 3cc3 E8000000 		call	_ZN8UnitTest11CurrentTest7DetailsEv@PLT
 7760      00
 7761 3cc8 488B08   		movq	(%rax), %rcx
 7762 3ccb 488D4590 		leaq	-112(%rbp), %rax
 7763 3ccf BA320100 		movl	$306, %edx
 7763      00
 7764 3cd4 4889CE   		movq	%rcx, %rsi
 7765 3cd7 4889C7   		movq	%rax, %rdi
 7766 3cda E8000000 		call	_ZN8UnitTest11TestDetailsC1ERKS0_i@PLT
 7766      00
 7767              	.LEHE433:
 7768              		.loc 3 306 0 is_stmt 0 discriminator 2
 7769 3cdf 488B5D80 		movq	-128(%rbp), %rbx
 7770 3ce3 48C74588 		movq	$102, -120(%rbp)
 7770      66000000 
 7771              	.LEHB434:
 7772 3ceb E8000000 		call	_ZN8UnitTest11CurrentTest7ResultsEv@PLT
 7772      00
 7773 3cf0 488B00   		movq	(%rax), %rax
 7774 3cf3 488D5590 		leaq	-112(%rbp), %rdx
 7775 3cf7 488D7588 		leaq	-120(%rbp), %rsi
 7776 3cfb 4889D1   		movq	%rdx, %rcx
 7777 3cfe 4889DA   		movq	%rbx, %rdx
 7778 3d01 4889C7   		movq	%rax, %rdi
 7779 3d04 E8000000 		call	_ZN8UnitTest10CheckEqualImjEEvRNS_11TestResultsERKT_RKT0_RKNS_11TestDetailsE
 7779      00
 7780              	.LEHE434:
 7781              	.L626:
 307:testCore.cpp  **** 	queueCommitTake(&queue);
 7782              		.loc 3 307 0 is_stmt 1
 7783 3d09 488D45B0 		leaq	-80(%rbp), %rax
 7784 3d0d 4889C7   		movq	%rax, %rdi
 7785              	.LEHB435:
 7786 3d10 E8000000 		call	queueCommitTake@PLT
 7786      00
 308:testCore.cpp  **** 	status = queueTake(&queue, (Item*)&item);
 7787              		.loc 3 308 0
 7788 3d15 488D5580 		leaq	-128(%rbp), %rdx
 7789 3d19 488D45B0 		leaq	-80(%rbp), %rax
 7790 3d1d 4889D6   		movq	%rdx, %rsi
 7791 3d20 4889C7   		movq	%rax, %rdi
 7792 3d23 E8000000 		call	queueTake@PLT
 7792      00
 7793              	.LEHE435:
 7794 3d28 898578FF 		movl	%eax, -136(%rbp)
 7794      FFFF
 7795              	.LEHB436:
 309:testCore.cpp  **** 	CHECK_EQUAL(USB_SUCCESS, status);
 7796              		.loc 3 309 0
 7797 3d2e E8000000 		call	_ZN8UnitTest11CurrentTest7DetailsEv@PLT
 7797      00
 7798 3d33 488B08   		movq	(%rax), %rcx
 7799 3d36 488D4590 		leaq	-112(%rbp), %rax
 7800 3d3a BA350100 		movl	$309, %edx
 7800      00
 7801 3d3f 4889CE   		movq	%rcx, %rsi
 7802 3d42 4889C7   		movq	%rax, %rdi
 7803 3d45 E8000000 		call	_ZN8UnitTest11TestDetailsC1ERKS0_i@PLT
 7803      00
 7804              	.LEHE436:
 7805              		.loc 3 309 0 is_stmt 0 discriminator 2
 7806 3d4a C7458800 		movl	$0, -120(%rbp)
 7806      000000
 7807              	.LEHB437:
 7808 3d51 E8000000 		call	_ZN8UnitTest11CurrentTest7ResultsEv@PLT
 7808      00
 7809 3d56 488B00   		movq	(%rax), %rax
 7810 3d59 488D4D90 		leaq	-112(%rbp), %rcx
 7811 3d5d 488D9578 		leaq	-136(%rbp), %rdx
 7811      FFFFFF
 7812 3d64 488D7588 		leaq	-120(%rbp), %rsi
 7813 3d68 4889C7   		movq	%rax, %rdi
 7814 3d6b E8000000 		call	_ZN8UnitTest10CheckEqualI9USBStatusS1_EEvRNS_11TestResultsERKT_RKT0_RKNS_11TestDetailsE
 7814      00
 7815              	.LEHE437:
 7816              	.L630:
 7817              	.LEHB438:
 310:testCore.cpp  **** 	CHECK_EQUAL(103UL, *item);
 7818              		.loc 3 310 0 is_stmt 1
 7819 3d70 E8000000 		call	_ZN8UnitTest11CurrentTest7DetailsEv@PLT
 7819      00
 7820 3d75 488B08   		movq	(%rax), %rcx
 7821 3d78 488D4590 		leaq	-112(%rbp), %rax
 7822 3d7c BA360100 		movl	$310, %edx
 7822      00
 7823 3d81 4889CE   		movq	%rcx, %rsi
 7824 3d84 4889C7   		movq	%rax, %rdi
 7825 3d87 E8000000 		call	_ZN8UnitTest11TestDetailsC1ERKS0_i@PLT
 7825      00
 7826              	.LEHE438:
 7827              		.loc 3 310 0 is_stmt 0 discriminator 2
 7828 3d8c 488B5D80 		movq	-128(%rbp), %rbx
 7829 3d90 48C74588 		movq	$103, -120(%rbp)
 7829      67000000 
 7830              	.LEHB439:
 7831 3d98 E8000000 		call	_ZN8UnitTest11CurrentTest7ResultsEv@PLT
 7831      00
 7832 3d9d 488B00   		movq	(%rax), %rax
 7833 3da0 488D5590 		leaq	-112(%rbp), %rdx
 7834 3da4 488D7588 		leaq	-120(%rbp), %rsi
 7835 3da8 4889D1   		movq	%rdx, %rcx
 7836 3dab 4889DA   		movq	%rbx, %rdx
 7837 3dae 4889C7   		movq	%rax, %rdi
 7838 3db1 E8000000 		call	_ZN8UnitTest10CheckEqualImjEEvRNS_11TestResultsERKT_RKT0_RKNS_11TestDetailsE
 7838      00
 7839              	.LEHE439:
 7840              	.L634:
 311:testCore.cpp  **** 	queueCommitTake(&queue);
 7841              		.loc 3 311 0 is_stmt 1
 7842 3db6 488D45B0 		leaq	-80(%rbp), %rax
 7843 3dba 4889C7   		movq	%rax, %rdi
 7844              	.LEHB440:
 7845 3dbd E8000000 		call	queueCommitTake@PLT
 7845      00
 312:testCore.cpp  **** 	status = queueTake(&queue, (Item*)&item);
 7846              		.loc 3 312 0
 7847 3dc2 488D5580 		leaq	-128(%rbp), %rdx
 7848 3dc6 488D45B0 		leaq	-80(%rbp), %rax
 7849 3dca 4889D6   		movq	%rdx, %rsi
 7850 3dcd 4889C7   		movq	%rax, %rdi
 7851 3dd0 E8000000 		call	queueTake@PLT
 7851      00
 7852              	.LEHE440:
 7853 3dd5 898578FF 		movl	%eax, -136(%rbp)
 7853      FFFF
 7854              	.LEHB441:
 313:testCore.cpp  **** 	CHECK_EQUAL(USB_SUCCESS, status);
 7855              		.loc 3 313 0
 7856 3ddb E8000000 		call	_ZN8UnitTest11CurrentTest7DetailsEv@PLT
 7856      00
 7857 3de0 488B08   		movq	(%rax), %rcx
 7858 3de3 488D4590 		leaq	-112(%rbp), %rax
 7859 3de7 BA390100 		movl	$313, %edx
 7859      00
 7860 3dec 4889CE   		movq	%rcx, %rsi
 7861 3def 4889C7   		movq	%rax, %rdi
 7862 3df2 E8000000 		call	_ZN8UnitTest11TestDetailsC1ERKS0_i@PLT
 7862      00
 7863              	.LEHE441:
 7864              		.loc 3 313 0 is_stmt 0 discriminator 2
 7865 3df7 C7458800 		movl	$0, -120(%rbp)
 7865      000000
 7866              	.LEHB442:
 7867 3dfe E8000000 		call	_ZN8UnitTest11CurrentTest7ResultsEv@PLT
 7867      00
 7868 3e03 488B00   		movq	(%rax), %rax
 7869 3e06 488D4D90 		leaq	-112(%rbp), %rcx
 7870 3e0a 488D9578 		leaq	-136(%rbp), %rdx
 7870      FFFFFF
 7871 3e11 488D7588 		leaq	-120(%rbp), %rsi
 7872 3e15 4889C7   		movq	%rax, %rdi
 7873 3e18 E8000000 		call	_ZN8UnitTest10CheckEqualI9USBStatusS1_EEvRNS_11TestResultsERKT_RKT0_RKNS_11TestDetailsE
 7873      00
 7874              	.LEHE442:
 7875              	.L638:
 7876              	.LEHB443:
 314:testCore.cpp  **** 	CHECK_EQUAL(104UL, *item);
 7877              		.loc 3 314 0 is_stmt 1
 7878 3e1d E8000000 		call	_ZN8UnitTest11CurrentTest7DetailsEv@PLT
 7878      00
 7879 3e22 488B08   		movq	(%rax), %rcx
 7880 3e25 488D4590 		leaq	-112(%rbp), %rax
 7881 3e29 BA3A0100 		movl	$314, %edx
 7881      00
 7882 3e2e 4889CE   		movq	%rcx, %rsi
 7883 3e31 4889C7   		movq	%rax, %rdi
 7884 3e34 E8000000 		call	_ZN8UnitTest11TestDetailsC1ERKS0_i@PLT
 7884      00
 7885              	.LEHE443:
 7886              		.loc 3 314 0 is_stmt 0 discriminator 2
 7887 3e39 488B5D80 		movq	-128(%rbp), %rbx
 7888 3e3d 48C74588 		movq	$104, -120(%rbp)
 7888      68000000 
 7889              	.LEHB444:
 7890 3e45 E8000000 		call	_ZN8UnitTest11CurrentTest7ResultsEv@PLT
 7890      00
 7891 3e4a 488B00   		movq	(%rax), %rax
 7892 3e4d 488D5590 		leaq	-112(%rbp), %rdx
 7893 3e51 488D7588 		leaq	-120(%rbp), %rsi
 7894 3e55 4889D1   		movq	%rdx, %rcx
 7895 3e58 4889DA   		movq	%rbx, %rdx
 7896 3e5b 4889C7   		movq	%rax, %rdi
 7897 3e5e E8000000 		call	_ZN8UnitTest10CheckEqualImjEEvRNS_11TestResultsERKT_RKT0_RKNS_11TestDetailsE
 7897      00
 7898              	.LEHE444:
 7899              	.L642:
 315:testCore.cpp  **** 	queueCommitTake(&queue);
 7900              		.loc 3 315 0 is_stmt 1
 7901 3e63 488D45B0 		leaq	-80(%rbp), %rax
 7902 3e67 4889C7   		movq	%rax, %rdi
 7903              	.LEHB445:
 7904 3e6a E8000000 		call	queueCommitTake@PLT
 7904      00
 316:testCore.cpp  **** 
 317:testCore.cpp  **** 	// Try to take one more
 318:testCore.cpp  **** 	status = queueTake(&queue, (Item*)&item);
 7905              		.loc 3 318 0
 7906 3e6f 488D5580 		leaq	-128(%rbp), %rdx
 7907 3e73 488D45B0 		leaq	-80(%rbp), %rax
 7908 3e77 4889D6   		movq	%rdx, %rsi
 7909 3e7a 4889C7   		movq	%rax, %rdi
 7910 3e7d E8000000 		call	queueTake@PLT
 7910      00
 7911              	.LEHE445:
 7912 3e82 898578FF 		movl	%eax, -136(%rbp)
 7912      FFFF
 7913              	.LEHB446:
 319:testCore.cpp  **** 	CHECK_EQUAL(USB_EMPTY_QUEUE, status);
 7914              		.loc 3 319 0
 7915 3e88 E8000000 		call	_ZN8UnitTest11CurrentTest7DetailsEv@PLT
 7915      00
 7916 3e8d 488B08   		movq	(%rax), %rcx
 7917 3e90 488D4590 		leaq	-112(%rbp), %rax
 7918 3e94 BA3F0100 		movl	$319, %edx
 7918      00
 7919 3e99 4889CE   		movq	%rcx, %rsi
 7920 3e9c 4889C7   		movq	%rax, %rdi
 7921 3e9f E8000000 		call	_ZN8UnitTest11TestDetailsC1ERKS0_i@PLT
 7921      00
 7922              	.LEHE446:
 7923              		.loc 3 319 0 is_stmt 0 discriminator 2
 7924 3ea4 C745880D 		movl	$13, -120(%rbp)
 7924      000000
 7925              	.LEHB447:
 7926 3eab E8000000 		call	_ZN8UnitTest11CurrentTest7ResultsEv@PLT
 7926      00
 7927 3eb0 488B00   		movq	(%rax), %rax
 7928 3eb3 488D4D90 		leaq	-112(%rbp), %rcx
 7929 3eb7 488D9578 		leaq	-136(%rbp), %rdx
 7929      FFFFFF
 7930 3ebe 488D7588 		leaq	-120(%rbp), %rsi
 7931 3ec2 4889C7   		movq	%rax, %rdi
 7932 3ec5 E8000000 		call	_ZN8UnitTest10CheckEqualI9USBStatusS1_EEvRNS_11TestResultsERKT_RKT0_RKNS_11TestDetailsE
 7932      00
 7933              	.LEHE447:
 7934              	.L646:
 320:testCore.cpp  **** 
 321:testCore.cpp  **** 	queueDestroy(&queue);
 7935              		.loc 3 321 0 is_stmt 1
 7936 3eca 488D45B0 		leaq	-80(%rbp), %rax
 7937 3ece 4889C7   		movq	%rax, %rdi
 7938              	.LEHB448:
 7939 3ed1 E8000000 		call	queueDestroy@PLT
 7939      00
 7940              	.LEHE448:
 322:testCore.cpp  **** }
 7941              		.loc 3 322 0
 7942 3ed6 90       		nop
 7943 3ed7 488B45E8 		movq	-24(%rbp), %rax
 7944 3edb 64483304 		xorq	%fs:40, %rax
 7944      25280000 
 7944      00
 7945 3ee4 0F846C0E 		je	.L648
 7945      0000
 7946 3eea E9620E00 		jmp	.L761
 7946      00
 7947              	.L650:
 7948 3eef EB00     		jmp	.L499
 7949              	.L649:
 7950              	.L499:
 238:testCore.cpp  **** 
 7951              		.loc 3 238 0
 7952 3ef1 4889C7   		movq	%rax, %rdi
 7953 3ef4 E8000000 		call	__cxa_begin_catch@PLT
 7953      00
 7954              	.LEHB449:
 7955 3ef9 E8000000 		call	_ZN8UnitTest11CurrentTest7ResultsEv@PLT
 7955      00
 7956 3efe 488B18   		movq	(%rax), %rbx
 7957 3f01 E8000000 		call	_ZN8UnitTest11CurrentTest7DetailsEv@PLT
 7957      00
 238:testCore.cpp  **** 
 7958              		.loc 3 238 0 is_stmt 0 discriminator 8
 7959 3f06 488B08   		movq	(%rax), %rcx
 7960 3f09 488D4590 		leaq	-112(%rbp), %rax
 7961 3f0d BAEE0000 		movl	$238, %edx
 7961      00
 7962 3f12 4889CE   		movq	%rcx, %rsi
 7963 3f15 4889C7   		movq	%rax, %rdi
 7964 3f18 E8000000 		call	_ZN8UnitTest11TestDetailsC1ERKS0_i@PLT
 7964      00
 238:testCore.cpp  **** 
 7965              		.loc 3 238 0 discriminator 12
 7966 3f1d 488D4590 		leaq	-112(%rbp), %rax
 7967 3f21 488D1500 		leaq	.LC3(%rip), %rdx
 7967      000000
 7968 3f28 4889C6   		movq	%rax, %rsi
 7969 3f2b 4889DF   		movq	%rbx, %rdi
 7970 3f2e E8000000 		call	_ZN8UnitTest11TestResults13OnTestFailureERKNS_11TestDetailsEPKc@PLT
 7970      00
 7971              	.LEHE449:
 7972              	.LEHB450:
 238:testCore.cpp  **** 
 7973              		.loc 3 238 0 discriminator 14
 7974 3f33 E8000000 		call	__cxa_end_catch@PLT
 7974      00
 7975              	.LEHE450:
 7976 3f38 E9D2F2FF 		jmp	.L500
 7976      FF
 7977              	.L651:
 7978 3f3d 4889C3   		movq	%rax, %rbx
 238:testCore.cpp  **** 
 7979              		.loc 3 238 0
 7980 3f40 E8000000 		call	__cxa_end_catch@PLT
 7980      00
 7981 3f45 4889D8   		movq	%rbx, %rax
 7982 3f48 4889C7   		movq	%rax, %rdi
 7983              	.LEHB451:
 7984 3f4b E8000000 		call	_Unwind_Resume@PLT
 7984      00
 7985              	.LEHE451:
 7986              	.L653:
 7987 3f50 EB00     		jmp	.L503
 7988              	.L652:
 7989              	.L503:
 246:testCore.cpp  **** 	CHECK_EQUAL((offset) % 4 + 1UL, *item);
 7990              		.loc 3 246 0 is_stmt 1
 7991 3f52 4889C7   		movq	%rax, %rdi
 7992 3f55 E8000000 		call	__cxa_begin_catch@PLT
 7992      00
 7993              	.LEHB452:
 7994 3f5a E8000000 		call	_ZN8UnitTest11CurrentTest7ResultsEv@PLT
 7994      00
 7995 3f5f 488B18   		movq	(%rax), %rbx
 7996 3f62 E8000000 		call	_ZN8UnitTest11CurrentTest7DetailsEv@PLT
 7996      00
 246:testCore.cpp  **** 	CHECK_EQUAL((offset) % 4 + 1UL, *item);
 7997              		.loc 3 246 0 is_stmt 0 discriminator 8
 7998 3f67 488B08   		movq	(%rax), %rcx
 7999 3f6a 488D4590 		leaq	-112(%rbp), %rax
 8000 3f6e BAF60000 		movl	$246, %edx
 8000      00
 8001 3f73 4889CE   		movq	%rcx, %rsi
 8002 3f76 4889C7   		movq	%rax, %rdi
 8003 3f79 E8000000 		call	_ZN8UnitTest11TestDetailsC1ERKS0_i@PLT
 8003      00
 246:testCore.cpp  **** 	CHECK_EQUAL((offset) % 4 + 1UL, *item);
 8004              		.loc 3 246 0 discriminator 12
 8005 3f7e 488D4590 		leaq	-112(%rbp), %rax
 8006 3f82 488D1500 		leaq	.LC3(%rip), %rdx
 8006      000000
 8007 3f89 4889C6   		movq	%rax, %rsi
 8008 3f8c 4889DF   		movq	%rbx, %rdi
 8009 3f8f E8000000 		call	_ZN8UnitTest11TestResults13OnTestFailureERKNS_11TestDetailsEPKc@PLT
 8009      00
 8010              	.LEHE452:
 8011              	.LEHB453:
 246:testCore.cpp  **** 	CHECK_EQUAL((offset) % 4 + 1UL, *item);
 8012              		.loc 3 246 0 discriminator 14
 8013 3f94 E8000000 		call	__cxa_end_catch@PLT
 8013      00
 8014              	.LEHE453:
 8015 3f99 E9E2F2FF 		jmp	.L504
 8015      FF
 8016              	.L654:
 8017 3f9e 4889C3   		movq	%rax, %rbx
 246:testCore.cpp  **** 	CHECK_EQUAL((offset) % 4 + 1UL, *item);
 8018              		.loc 3 246 0
 8019 3fa1 E8000000 		call	__cxa_end_catch@PLT
 8019      00
 8020 3fa6 4889D8   		movq	%rbx, %rax
 8021 3fa9 4889C7   		movq	%rax, %rdi
 8022              	.LEHB454:
 8023 3fac E8000000 		call	_Unwind_Resume@PLT
 8023      00
 8024              	.LEHE454:
 8025              	.L656:
 8026 3fb1 EB00     		jmp	.L507
 8027              	.L655:
 8028              	.L507:
 247:testCore.cpp  **** 	*item = 100;
 8029              		.loc 3 247 0 is_stmt 1
 8030 3fb3 4889C7   		movq	%rax, %rdi
 8031 3fb6 E8000000 		call	__cxa_begin_catch@PLT
 8031      00
 8032              	.LEHB455:
 8033 3fbb E8000000 		call	_ZN8UnitTest11CurrentTest7ResultsEv@PLT
 8033      00
 8034 3fc0 488B18   		movq	(%rax), %rbx
 8035 3fc3 E8000000 		call	_ZN8UnitTest11CurrentTest7DetailsEv@PLT
 8035      00
 247:testCore.cpp  **** 	*item = 100;
 8036              		.loc 3 247 0 is_stmt 0 discriminator 8
 8037 3fc8 488B08   		movq	(%rax), %rcx
 8038 3fcb 488D4590 		leaq	-112(%rbp), %rax
 8039 3fcf BAF70000 		movl	$247, %edx
 8039      00
 8040 3fd4 4889CE   		movq	%rcx, %rsi
 8041 3fd7 4889C7   		movq	%rax, %rdi
 8042 3fda E8000000 		call	_ZN8UnitTest11TestDetailsC1ERKS0_i@PLT
 8042      00
 247:testCore.cpp  **** 	*item = 100;
 8043              		.loc 3 247 0 discriminator 12
 8044 3fdf 488D4590 		leaq	-112(%rbp), %rax
 8045 3fe3 488D1500 		leaq	.LC30(%rip), %rdx
 8045      000000
 8046 3fea 4889C6   		movq	%rax, %rsi
 8047 3fed 4889DF   		movq	%rbx, %rdi
 8048 3ff0 E8000000 		call	_ZN8UnitTest11TestResults13OnTestFailureERKNS_11TestDetailsEPKc@PLT
 8048      00
 8049              	.LEHE455:
 8050              	.LEHB456:
 247:testCore.cpp  **** 	*item = 100;
 8051              		.loc 3 247 0 discriminator 14
 8052 3ff5 E8000000 		call	__cxa_end_catch@PLT
 8052      00
 8053              	.LEHE456:
 8054 3ffa E9D1F2FF 		jmp	.L508
 8054      FF
 8055              	.L657:
 8056 3fff 4889C3   		movq	%rax, %rbx
 247:testCore.cpp  **** 	*item = 100;
 8057              		.loc 3 247 0
 8058 4002 E8000000 		call	__cxa_end_catch@PLT
 8058      00
 8059 4007 4889D8   		movq	%rbx, %rax
 8060 400a 4889C7   		movq	%rax, %rdi
 8061              	.LEHB457:
 8062 400d E8000000 		call	_Unwind_Resume@PLT
 8062      00
 8063              	.LEHE457:
 8064              	.L659:
 8065 4012 EB00     		jmp	.L511
 8066              	.L658:
 8067              	.L511:
 251:testCore.cpp  **** 	CHECK_EQUAL((offset + 1UL) % 4 + 1UL, *item);
 8068              		.loc 3 251 0 is_stmt 1
 8069 4014 4889C7   		movq	%rax, %rdi
 8070 4017 E8000000 		call	__cxa_begin_catch@PLT
 8070      00
 8071              	.LEHB458:
 8072 401c E8000000 		call	_ZN8UnitTest11CurrentTest7ResultsEv@PLT
 8072      00
 8073 4021 488B18   		movq	(%rax), %rbx
 8074 4024 E8000000 		call	_ZN8UnitTest11CurrentTest7DetailsEv@PLT
 8074      00
 251:testCore.cpp  **** 	CHECK_EQUAL((offset + 1UL) % 4 + 1UL, *item);
 8075              		.loc 3 251 0 is_stmt 0 discriminator 8
 8076 4029 488B08   		movq	(%rax), %rcx
 8077 402c 488D4590 		leaq	-112(%rbp), %rax
 8078 4030 BAFB0000 		movl	$251, %edx
 8078      00
 8079 4035 4889CE   		movq	%rcx, %rsi
 8080 4038 4889C7   		movq	%rax, %rdi
 8081 403b E8000000 		call	_ZN8UnitTest11TestDetailsC1ERKS0_i@PLT
 8081      00
 251:testCore.cpp  **** 	CHECK_EQUAL((offset + 1UL) % 4 + 1UL, *item);
 8082              		.loc 3 251 0 discriminator 12
 8083 4040 488D4590 		leaq	-112(%rbp), %rax
 8084 4044 488D1500 		leaq	.LC3(%rip), %rdx
 8084      000000
 8085 404b 4889C6   		movq	%rax, %rsi
 8086 404e 4889DF   		movq	%rbx, %rdi
 8087 4051 E8000000 		call	_ZN8UnitTest11TestResults13OnTestFailureERKNS_11TestDetailsEPKc@PLT
 8087      00
 8088              	.LEHE458:
 8089              	.LEHB459:
 251:testCore.cpp  **** 	CHECK_EQUAL((offset + 1UL) % 4 + 1UL, *item);
 8090              		.loc 3 251 0 discriminator 14
 8091 4056 E8000000 		call	__cxa_end_catch@PLT
 8091      00
 8092              	.LEHE459:
 8093 405b E9E1F2FF 		jmp	.L512
 8093      FF
 8094              	.L660:
 8095 4060 4889C3   		movq	%rax, %rbx
 251:testCore.cpp  **** 	CHECK_EQUAL((offset + 1UL) % 4 + 1UL, *item);
 8096              		.loc 3 251 0
 8097 4063 E8000000 		call	__cxa_end_catch@PLT
 8097      00
 8098 4068 4889D8   		movq	%rbx, %rax
 8099 406b 4889C7   		movq	%rax, %rdi
 8100              	.LEHB460:
 8101 406e E8000000 		call	_Unwind_Resume@PLT
 8101      00
 8102              	.LEHE460:
 8103              	.L662:
 8104 4073 EB00     		jmp	.L515
 8105              	.L661:
 8106              	.L515:
 252:testCore.cpp  **** 	*item = 101;
 8107              		.loc 3 252 0 is_stmt 1
 8108 4075 4889C7   		movq	%rax, %rdi
 8109 4078 E8000000 		call	__cxa_begin_catch@PLT
 8109      00
 8110              	.LEHB461:
 8111 407d E8000000 		call	_ZN8UnitTest11CurrentTest7ResultsEv@PLT
 8111      00
 8112 4082 488B18   		movq	(%rax), %rbx
 8113 4085 E8000000 		call	_ZN8UnitTest11CurrentTest7DetailsEv@PLT
 8113      00
 252:testCore.cpp  **** 	*item = 101;
 8114              		.loc 3 252 0 is_stmt 0 discriminator 8
 8115 408a 488B08   		movq	(%rax), %rcx
 8116 408d 488D4590 		leaq	-112(%rbp), %rax
 8117 4091 BAFC0000 		movl	$252, %edx
 8117      00
 8118 4096 4889CE   		movq	%rcx, %rsi
 8119 4099 4889C7   		movq	%rax, %rdi
 8120 409c E8000000 		call	_ZN8UnitTest11TestDetailsC1ERKS0_i@PLT
 8120      00
 252:testCore.cpp  **** 	*item = 101;
 8121              		.loc 3 252 0 discriminator 12
 8122 40a1 488D4590 		leaq	-112(%rbp), %rax
 8123 40a5 488D1500 		leaq	.LC31(%rip), %rdx
 8123      000000
 8124 40ac 4889C6   		movq	%rax, %rsi
 8125 40af 4889DF   		movq	%rbx, %rdi
 8126 40b2 E8000000 		call	_ZN8UnitTest11TestResults13OnTestFailureERKNS_11TestDetailsEPKc@PLT
 8126      00
 8127              	.LEHE461:
 8128              	.LEHB462:
 252:testCore.cpp  **** 	*item = 101;
 8129              		.loc 3 252 0 discriminator 14
 8130 40b7 E8000000 		call	__cxa_end_catch@PLT
 8130      00
 8131              	.LEHE462:
 8132 40bc E9D4F2FF 		jmp	.L516
 8132      FF
 8133              	.L663:
 8134 40c1 4889C3   		movq	%rax, %rbx
 252:testCore.cpp  **** 	*item = 101;
 8135              		.loc 3 252 0
 8136 40c4 E8000000 		call	__cxa_end_catch@PLT
 8136      00
 8137 40c9 4889D8   		movq	%rbx, %rax
 8138 40cc 4889C7   		movq	%rax, %rdi
 8139              	.LEHB463:
 8140 40cf E8000000 		call	_Unwind_Resume@PLT
 8140      00
 8141              	.LEHE463:
 8142              	.L665:
 8143 40d4 EB00     		jmp	.L519
 8144              	.L664:
 8145              	.L519:
 256:testCore.cpp  **** 	CHECK_EQUAL((offset + 2UL) % 4 + 1UL, *item);
 8146              		.loc 3 256 0 is_stmt 1
 8147 40d6 4889C7   		movq	%rax, %rdi
 8148 40d9 E8000000 		call	__cxa_begin_catch@PLT
 8148      00
 8149              	.LEHB464:
 8150 40de E8000000 		call	_ZN8UnitTest11CurrentTest7ResultsEv@PLT
 8150      00
 8151 40e3 488B18   		movq	(%rax), %rbx
 8152 40e6 E8000000 		call	_ZN8UnitTest11CurrentTest7DetailsEv@PLT
 8152      00
 256:testCore.cpp  **** 	CHECK_EQUAL((offset + 2UL) % 4 + 1UL, *item);
 8153              		.loc 3 256 0 is_stmt 0 discriminator 8
 8154 40eb 488B08   		movq	(%rax), %rcx
 8155 40ee 488D4590 		leaq	-112(%rbp), %rax
 8156 40f2 BA000100 		movl	$256, %edx
 8156      00
 8157 40f7 4889CE   		movq	%rcx, %rsi
 8158 40fa 4889C7   		movq	%rax, %rdi
 8159 40fd E8000000 		call	_ZN8UnitTest11TestDetailsC1ERKS0_i@PLT
 8159      00
 256:testCore.cpp  **** 	CHECK_EQUAL((offset + 2UL) % 4 + 1UL, *item);
 8160              		.loc 3 256 0 discriminator 12
 8161 4102 488D4590 		leaq	-112(%rbp), %rax
 8162 4106 488D1500 		leaq	.LC3(%rip), %rdx
 8162      000000
 8163 410d 4889C6   		movq	%rax, %rsi
 8164 4110 4889DF   		movq	%rbx, %rdi
 8165 4113 E8000000 		call	_ZN8UnitTest11TestResults13OnTestFailureERKNS_11TestDetailsEPKc@PLT
 8165      00
 8166              	.LEHE464:
 8167              	.LEHB465:
 256:testCore.cpp  **** 	CHECK_EQUAL((offset + 2UL) % 4 + 1UL, *item);
 8168              		.loc 3 256 0 discriminator 14
 8169 4118 E8000000 		call	__cxa_end_catch@PLT
 8169      00
 8170              	.LEHE465:
 8171 411d E9E4F2FF 		jmp	.L520
 8171      FF
 8172              	.L666:
 8173 4122 4889C3   		movq	%rax, %rbx
 256:testCore.cpp  **** 	CHECK_EQUAL((offset + 2UL) % 4 + 1UL, *item);
 8174              		.loc 3 256 0
 8175 4125 E8000000 		call	__cxa_end_catch@PLT
 8175      00
 8176 412a 4889D8   		movq	%rbx, %rax
 8177 412d 4889C7   		movq	%rax, %rdi
 8178              	.LEHB466:
 8179 4130 E8000000 		call	_Unwind_Resume@PLT
 8179      00
 8180              	.LEHE466:
 8181              	.L668:
 8182 4135 EB00     		jmp	.L523
 8183              	.L667:
 8184              	.L523:
 257:testCore.cpp  **** 	*item = 102;
 8185              		.loc 3 257 0 is_stmt 1
 8186 4137 4889C7   		movq	%rax, %rdi
 8187 413a E8000000 		call	__cxa_begin_catch@PLT
 8187      00
 8188              	.LEHB467:
 8189 413f E8000000 		call	_ZN8UnitTest11CurrentTest7ResultsEv@PLT
 8189      00
 8190 4144 488B18   		movq	(%rax), %rbx
 8191 4147 E8000000 		call	_ZN8UnitTest11CurrentTest7DetailsEv@PLT
 8191      00
 257:testCore.cpp  **** 	*item = 102;
 8192              		.loc 3 257 0 is_stmt 0 discriminator 8
 8193 414c 488B08   		movq	(%rax), %rcx
 8194 414f 488D4590 		leaq	-112(%rbp), %rax
 8195 4153 BA010100 		movl	$257, %edx
 8195      00
 8196 4158 4889CE   		movq	%rcx, %rsi
 8197 415b 4889C7   		movq	%rax, %rdi
 8198 415e E8000000 		call	_ZN8UnitTest11TestDetailsC1ERKS0_i@PLT
 8198      00
 257:testCore.cpp  **** 	*item = 102;
 8199              		.loc 3 257 0 discriminator 12
 8200 4163 488D4590 		leaq	-112(%rbp), %rax
 8201 4167 488D1500 		leaq	.LC32(%rip), %rdx
 8201      000000
 8202 416e 4889C6   		movq	%rax, %rsi
 8203 4171 4889DF   		movq	%rbx, %rdi
 8204 4174 E8000000 		call	_ZN8UnitTest11TestResults13OnTestFailureERKNS_11TestDetailsEPKc@PLT
 8204      00
 8205              	.LEHE467:
 8206              	.LEHB468:
 257:testCore.cpp  **** 	*item = 102;
 8207              		.loc 3 257 0 discriminator 14
 8208 4179 E8000000 		call	__cxa_end_catch@PLT
 8208      00
 8209              	.LEHE468:
 8210 417e E9D7F2FF 		jmp	.L524
 8210      FF
 8211              	.L669:
 8212 4183 4889C3   		movq	%rax, %rbx
 257:testCore.cpp  **** 	*item = 102;
 8213              		.loc 3 257 0
 8214 4186 E8000000 		call	__cxa_end_catch@PLT
 8214      00
 8215 418b 4889D8   		movq	%rbx, %rax
 8216 418e 4889C7   		movq	%rax, %rdi
 8217              	.LEHB469:
 8218 4191 E8000000 		call	_Unwind_Resume@PLT
 8218      00
 8219              	.LEHE469:
 8220              	.L671:
 8221 4196 EB00     		jmp	.L527
 8222              	.L670:
 8223              	.L527:
 261:testCore.cpp  **** 	CHECK_EQUAL((offset + 3UL) % 4 + 1UL, *item);
 8224              		.loc 3 261 0 is_stmt 1
 8225 4198 4889C7   		movq	%rax, %rdi
 8226 419b E8000000 		call	__cxa_begin_catch@PLT
 8226      00
 8227              	.LEHB470:
 8228 41a0 E8000000 		call	_ZN8UnitTest11CurrentTest7ResultsEv@PLT
 8228      00
 8229 41a5 488B18   		movq	(%rax), %rbx
 8230 41a8 E8000000 		call	_ZN8UnitTest11CurrentTest7DetailsEv@PLT
 8230      00
 261:testCore.cpp  **** 	CHECK_EQUAL((offset + 3UL) % 4 + 1UL, *item);
 8231              		.loc 3 261 0 is_stmt 0 discriminator 8
 8232 41ad 488B08   		movq	(%rax), %rcx
 8233 41b0 488D4590 		leaq	-112(%rbp), %rax
 8234 41b4 BA050100 		movl	$261, %edx
 8234      00
 8235 41b9 4889CE   		movq	%rcx, %rsi
 8236 41bc 4889C7   		movq	%rax, %rdi
 8237 41bf E8000000 		call	_ZN8UnitTest11TestDetailsC1ERKS0_i@PLT
 8237      00
 261:testCore.cpp  **** 	CHECK_EQUAL((offset + 3UL) % 4 + 1UL, *item);
 8238              		.loc 3 261 0 discriminator 12
 8239 41c4 488D4590 		leaq	-112(%rbp), %rax
 8240 41c8 488D1500 		leaq	.LC3(%rip), %rdx
 8240      000000
 8241 41cf 4889C6   		movq	%rax, %rsi
 8242 41d2 4889DF   		movq	%rbx, %rdi
 8243 41d5 E8000000 		call	_ZN8UnitTest11TestResults13OnTestFailureERKNS_11TestDetailsEPKc@PLT
 8243      00
 8244              	.LEHE470:
 8245              	.LEHB471:
 261:testCore.cpp  **** 	CHECK_EQUAL((offset + 3UL) % 4 + 1UL, *item);
 8246              		.loc 3 261 0 discriminator 14
 8247 41da E8000000 		call	__cxa_end_catch@PLT
 8247      00
 8248              	.LEHE471:
 8249 41df E9E7F2FF 		jmp	.L528
 8249      FF
 8250              	.L672:
 8251 41e4 4889C3   		movq	%rax, %rbx
 261:testCore.cpp  **** 	CHECK_EQUAL((offset + 3UL) % 4 + 1UL, *item);
 8252              		.loc 3 261 0
 8253 41e7 E8000000 		call	__cxa_end_catch@PLT
 8253      00
 8254 41ec 4889D8   		movq	%rbx, %rax
 8255 41ef 4889C7   		movq	%rax, %rdi
 8256              	.LEHB472:
 8257 41f2 E8000000 		call	_Unwind_Resume@PLT
 8257      00
 8258              	.LEHE472:
 8259              	.L674:
 8260 41f7 EB00     		jmp	.L531
 8261              	.L673:
 8262              	.L531:
 262:testCore.cpp  **** 	*item = 103;
 8263              		.loc 3 262 0 is_stmt 1
 8264 41f9 4889C7   		movq	%rax, %rdi
 8265 41fc E8000000 		call	__cxa_begin_catch@PLT
 8265      00
 8266              	.LEHB473:
 8267 4201 E8000000 		call	_ZN8UnitTest11CurrentTest7ResultsEv@PLT
 8267      00
 8268 4206 488B18   		movq	(%rax), %rbx
 8269 4209 E8000000 		call	_ZN8UnitTest11CurrentTest7DetailsEv@PLT
 8269      00
 262:testCore.cpp  **** 	*item = 103;
 8270              		.loc 3 262 0 is_stmt 0 discriminator 8
 8271 420e 488B08   		movq	(%rax), %rcx
 8272 4211 488D4590 		leaq	-112(%rbp), %rax
 8273 4215 BA060100 		movl	$262, %edx
 8273      00
 8274 421a 4889CE   		movq	%rcx, %rsi
 8275 421d 4889C7   		movq	%rax, %rdi
 8276 4220 E8000000 		call	_ZN8UnitTest11TestDetailsC1ERKS0_i@PLT
 8276      00
 262:testCore.cpp  **** 	*item = 103;
 8277              		.loc 3 262 0 discriminator 12
 8278 4225 488D4590 		leaq	-112(%rbp), %rax
 8279 4229 488D1500 		leaq	.LC33(%rip), %rdx
 8279      000000
 8280 4230 4889C6   		movq	%rax, %rsi
 8281 4233 4889DF   		movq	%rbx, %rdi
 8282 4236 E8000000 		call	_ZN8UnitTest11TestResults13OnTestFailureERKNS_11TestDetailsEPKc@PLT
 8282      00
 8283              	.LEHE473:
 8284              	.LEHB474:
 262:testCore.cpp  **** 	*item = 103;
 8285              		.loc 3 262 0 discriminator 14
 8286 423b E8000000 		call	__cxa_end_catch@PLT
 8286      00
 8287              	.LEHE474:
 8288 4240 E9DAF2FF 		jmp	.L532
 8288      FF
 8289              	.L675:
 8290 4245 4889C3   		movq	%rax, %rbx
 262:testCore.cpp  **** 	*item = 103;
 8291              		.loc 3 262 0
 8292 4248 E8000000 		call	__cxa_end_catch@PLT
 8292      00
 8293 424d 4889D8   		movq	%rbx, %rax
 8294 4250 4889C7   		movq	%rax, %rdi
 8295              	.LEHB475:
 8296 4253 E8000000 		call	_Unwind_Resume@PLT
 8296      00
 8297              	.LEHE475:
 8298              	.L677:
 8299 4258 EB00     		jmp	.L535
 8300              	.L676:
 8301              	.L535:
 267:testCore.cpp  **** 	CHECK_EQUAL(offset, queue.putIndex);
 8302              		.loc 3 267 0 is_stmt 1
 8303 425a 4889C7   		movq	%rax, %rdi
 8304 425d E8000000 		call	__cxa_begin_catch@PLT
 8304      00
 8305              	.LEHB476:
 8306 4262 E8000000 		call	_ZN8UnitTest11CurrentTest7ResultsEv@PLT
 8306      00
 8307 4267 488B18   		movq	(%rax), %rbx
 8308 426a E8000000 		call	_ZN8UnitTest11CurrentTest7DetailsEv@PLT
 8308      00
 267:testCore.cpp  **** 	CHECK_EQUAL(offset, queue.putIndex);
 8309              		.loc 3 267 0 is_stmt 0 discriminator 8
 8310 426f 488B08   		movq	(%rax), %rcx
 8311 4272 488D4590 		leaq	-112(%rbp), %rax
 8312 4276 BA0B0100 		movl	$267, %edx
 8312      00
 8313 427b 4889CE   		movq	%rcx, %rsi
 8314 427e 4889C7   		movq	%rax, %rdi
 8315 4281 E8000000 		call	_ZN8UnitTest11TestDetailsC1ERKS0_i@PLT
 8315      00
 267:testCore.cpp  **** 	CHECK_EQUAL(offset, queue.putIndex);
 8316              		.loc 3 267 0 discriminator 12
 8317 4286 488D4590 		leaq	-112(%rbp), %rax
 8318 428a 488D1500 		leaq	.LC4(%rip), %rdx
 8318      000000
 8319 4291 4889C6   		movq	%rax, %rsi
 8320 4294 4889DF   		movq	%rbx, %rdi
 8321 4297 E8000000 		call	_ZN8UnitTest11TestResults13OnTestFailureERKNS_11TestDetailsEPKc@PLT
 8321      00
 8322              	.LEHE476:
 8323              	.LEHB477:
 267:testCore.cpp  **** 	CHECK_EQUAL(offset, queue.putIndex);
 8324              		.loc 3 267 0 discriminator 14
 8325 429c E8000000 		call	__cxa_end_catch@PLT
 8325      00
 8326              	.LEHE477:
 8327 42a1 E9D9F2FF 		jmp	.L536
 8327      FF
 8328              	.L678:
 8329 42a6 4889C3   		movq	%rax, %rbx
 267:testCore.cpp  **** 	CHECK_EQUAL(offset, queue.putIndex);
 8330              		.loc 3 267 0
 8331 42a9 E8000000 		call	__cxa_end_catch@PLT
 8331      00
 8332 42ae 4889D8   		movq	%rbx, %rax
 8333 42b1 4889C7   		movq	%rax, %rdi
 8334              	.LEHB478:
 8335 42b4 E8000000 		call	_Unwind_Resume@PLT
 8335      00
 8336              	.LEHE478:
 8337              	.L679:
 268:testCore.cpp  **** 	CHECK_EQUAL(offset, queue.takeIndex);
 8338              		.loc 3 268 0 is_stmt 1
 8339 42b9 4889C7   		movq	%rax, %rdi
 8340 42bc E8000000 		call	__cxa_begin_catch@PLT
 8340      00
 8341              	.LEHB479:
 8342 42c1 E8000000 		call	_ZN8UnitTest11CurrentTest7ResultsEv@PLT
 8342      00
 8343 42c6 488B18   		movq	(%rax), %rbx
 8344 42c9 E8000000 		call	_ZN8UnitTest11CurrentTest7DetailsEv@PLT
 8344      00
 268:testCore.cpp  **** 	CHECK_EQUAL(offset, queue.takeIndex);
 8345              		.loc 3 268 0 is_stmt 0 discriminator 8
 8346 42ce 488B08   		movq	(%rax), %rcx
 8347 42d1 488D4590 		leaq	-112(%rbp), %rax
 8348 42d5 BA0C0100 		movl	$268, %edx
 8348      00
 8349 42da 4889CE   		movq	%rcx, %rsi
 8350 42dd 4889C7   		movq	%rax, %rdi
 8351 42e0 E8000000 		call	_ZN8UnitTest11TestDetailsC1ERKS0_i@PLT
 8351      00
 268:testCore.cpp  **** 	CHECK_EQUAL(offset, queue.takeIndex);
 8352              		.loc 3 268 0 discriminator 12
 8353 42e5 488D4590 		leaq	-112(%rbp), %rax
 8354 42e9 488D1500 		leaq	.LC34(%rip), %rdx
 8354      000000
 8355 42f0 4889C6   		movq	%rax, %rsi
 8356 42f3 4889DF   		movq	%rbx, %rdi
 8357 42f6 E8000000 		call	_ZN8UnitTest11TestResults13OnTestFailureERKNS_11TestDetailsEPKc@PLT
 8357      00
 8358              	.LEHE479:
 8359              	.LEHB480:
 268:testCore.cpp  **** 	CHECK_EQUAL(offset, queue.takeIndex);
 8360              		.loc 3 268 0 discriminator 14
 8361 42fb E8000000 		call	__cxa_end_catch@PLT
 8361      00
 8362              	.LEHE480:
 8363 4300 E9BFF2FF 		jmp	.L539
 8363      FF
 8364              	.L680:
 8365 4305 4889C3   		movq	%rax, %rbx
 268:testCore.cpp  **** 	CHECK_EQUAL(offset, queue.takeIndex);
 8366              		.loc 3 268 0
 8367 4308 E8000000 		call	__cxa_end_catch@PLT
 8367      00
 8368 430d 4889D8   		movq	%rbx, %rax
 8369 4310 4889C7   		movq	%rax, %rdi
 8370              	.LEHB481:
 8371 4313 E8000000 		call	_Unwind_Resume@PLT
 8371      00
 8372              	.LEHE481:
 8373              	.L681:
 269:testCore.cpp  **** 	CHECK_EQUAL(4UL, queue.numItems);
 8374              		.loc 3 269 0 is_stmt 1
 8375 4318 4889C7   		movq	%rax, %rdi
 8376 431b E8000000 		call	__cxa_begin_catch@PLT
 8376      00
 8377              	.LEHB482:
 8378 4320 E8000000 		call	_ZN8UnitTest11CurrentTest7ResultsEv@PLT
 8378      00
 8379 4325 488B18   		movq	(%rax), %rbx
 8380 4328 E8000000 		call	_ZN8UnitTest11CurrentTest7DetailsEv@PLT
 8380      00
 269:testCore.cpp  **** 	CHECK_EQUAL(4UL, queue.numItems);
 8381              		.loc 3 269 0 is_stmt 0 discriminator 8
 8382 432d 488B08   		movq	(%rax), %rcx
 8383 4330 488D4590 		leaq	-112(%rbp), %rax
 8384 4334 BA0D0100 		movl	$269, %edx
 8384      00
 8385 4339 4889CE   		movq	%rcx, %rsi
 8386 433c 4889C7   		movq	%rax, %rdi
 8387 433f E8000000 		call	_ZN8UnitTest11TestDetailsC1ERKS0_i@PLT
 8387      00
 269:testCore.cpp  **** 	CHECK_EQUAL(4UL, queue.numItems);
 8388              		.loc 3 269 0 discriminator 12
 8389 4344 488D4590 		leaq	-112(%rbp), %rax
 8390 4348 488D1500 		leaq	.LC35(%rip), %rdx
 8390      000000
 8391 434f 4889C6   		movq	%rax, %rsi
 8392 4352 4889DF   		movq	%rbx, %rdi
 8393 4355 E8000000 		call	_ZN8UnitTest11TestResults13OnTestFailureERKNS_11TestDetailsEPKc@PLT
 8393      00
 8394              	.LEHE482:
 8395              	.LEHB483:
 269:testCore.cpp  **** 	CHECK_EQUAL(4UL, queue.numItems);
 8396              		.loc 3 269 0 discriminator 14
 8397 435a E8000000 		call	__cxa_end_catch@PLT
 8397      00
 8398              	.LEHE483:
 8399 435f E9A5F2FF 		jmp	.L542
 8399      FF
 8400              	.L682:
 8401 4364 4889C3   		movq	%rax, %rbx
 269:testCore.cpp  **** 	CHECK_EQUAL(4UL, queue.numItems);
 8402              		.loc 3 269 0
 8403 4367 E8000000 		call	__cxa_end_catch@PLT
 8403      00
 8404 436c 4889D8   		movq	%rbx, %rax
 8405 436f 4889C7   		movq	%rax, %rdi
 8406              	.LEHB484:
 8407 4372 E8000000 		call	_Unwind_Resume@PLT
 8407      00
 8408              	.LEHE484:
 8409              	.L684:
 8410 4377 EB00     		jmp	.L545
 8411              	.L683:
 8412              	.L545:
 270:testCore.cpp  **** 
 8413              		.loc 3 270 0 is_stmt 1
 8414 4379 4889C7   		movq	%rax, %rdi
 8415 437c E8000000 		call	__cxa_begin_catch@PLT
 8415      00
 8416              	.LEHB485:
 8417 4381 E8000000 		call	_ZN8UnitTest11CurrentTest7ResultsEv@PLT
 8417      00
 8418 4386 488B18   		movq	(%rax), %rbx
 8419 4389 E8000000 		call	_ZN8UnitTest11CurrentTest7DetailsEv@PLT
 8419      00
 270:testCore.cpp  **** 
 8420              		.loc 3 270 0 is_stmt 0 discriminator 8
 8421 438e 488B08   		movq	(%rax), %rcx
 8422 4391 488D4590 		leaq	-112(%rbp), %rax
 8423 4395 BA0E0100 		movl	$270, %edx
 8423      00
 8424 439a 4889CE   		movq	%rcx, %rsi
 8425 439d 4889C7   		movq	%rax, %rdi
 8426 43a0 E8000000 		call	_ZN8UnitTest11TestDetailsC1ERKS0_i@PLT
 8426      00
 270:testCore.cpp  **** 
 8427              		.loc 3 270 0 discriminator 12
 8428 43a5 488D4590 		leaq	-112(%rbp), %rax
 8429 43a9 488D1500 		leaq	.LC23(%rip), %rdx
 8429      000000
 8430 43b0 4889C6   		movq	%rax, %rsi
 8431 43b3 4889DF   		movq	%rbx, %rdi
 8432 43b6 E8000000 		call	_ZN8UnitTest11TestResults13OnTestFailureERKNS_11TestDetailsEPKc@PLT
 8432      00
 8433              	.LEHE485:
 8434              	.LEHB486:
 270:testCore.cpp  **** 
 8435              		.loc 3 270 0 discriminator 14
 8436 43bb E8000000 		call	__cxa_end_catch@PLT
 8436      00
 8437              	.LEHE486:
 8438 43c0 E98EF2FF 		jmp	.L546
 8438      FF
 8439              	.L685:
 8440 43c5 4889C3   		movq	%rax, %rbx
 270:testCore.cpp  **** 
 8441              		.loc 3 270 0
 8442 43c8 E8000000 		call	__cxa_end_catch@PLT
 8442      00
 8443 43cd 4889D8   		movq	%rbx, %rax
 8444 43d0 4889C7   		movq	%rax, %rdi
 8445              	.LEHB487:
 8446 43d3 E8000000 		call	_Unwind_Resume@PLT
 8446      00
 8447              	.LEHE487:
 8448              	.L687:
 8449 43d8 EB00     		jmp	.L549
 8450              	.L686:
 8451              	.L549:
 274:testCore.cpp  **** 	CHECK_EQUAL(5UL, *item);
 8452              		.loc 3 274 0 is_stmt 1
 8453 43da 4889C7   		movq	%rax, %rdi
 8454 43dd E8000000 		call	__cxa_begin_catch@PLT
 8454      00
 8455              	.LEHB488:
 8456 43e2 E8000000 		call	_ZN8UnitTest11CurrentTest7ResultsEv@PLT
 8456      00
 8457 43e7 488B18   		movq	(%rax), %rbx
 8458 43ea E8000000 		call	_ZN8UnitTest11CurrentTest7DetailsEv@PLT
 8458      00
 274:testCore.cpp  **** 	CHECK_EQUAL(5UL, *item);
 8459              		.loc 3 274 0 is_stmt 0 discriminator 8
 8460 43ef 488B08   		movq	(%rax), %rcx
 8461 43f2 488D4590 		leaq	-112(%rbp), %rax
 8462 43f6 BA120100 		movl	$274, %edx
 8462      00
 8463 43fb 4889CE   		movq	%rcx, %rsi
 8464 43fe 4889C7   		movq	%rax, %rdi
 8465 4401 E8000000 		call	_ZN8UnitTest11TestDetailsC1ERKS0_i@PLT
 8465      00
 274:testCore.cpp  **** 	CHECK_EQUAL(5UL, *item);
 8466              		.loc 3 274 0 discriminator 12
 8467 4406 488D4590 		leaq	-112(%rbp), %rax
 8468 440a 488D1500 		leaq	.LC3(%rip), %rdx
 8468      000000
 8469 4411 4889C6   		movq	%rax, %rsi
 8470 4414 4889DF   		movq	%rbx, %rdi
 8471 4417 E8000000 		call	_ZN8UnitTest11TestResults13OnTestFailureERKNS_11TestDetailsEPKc@PLT
 8471      00
 8472              	.LEHE488:
 8473              	.LEHB489:
 274:testCore.cpp  **** 	CHECK_EQUAL(5UL, *item);
 8474              		.loc 3 274 0 discriminator 14
 8475 441c E8000000 		call	__cxa_end_catch@PLT
 8475      00
 8476              	.LEHE489:
 8477 4421 E988F2FF 		jmp	.L550
 8477      FF
 8478              	.L688:
 8479 4426 4889C3   		movq	%rax, %rbx
 274:testCore.cpp  **** 	CHECK_EQUAL(5UL, *item);
 8480              		.loc 3 274 0
 8481 4429 E8000000 		call	__cxa_end_catch@PLT
 8481      00
 8482 442e 4889D8   		movq	%rbx, %rax
 8483 4431 4889C7   		movq	%rax, %rdi
 8484              	.LEHB490:
 8485 4434 E8000000 		call	_Unwind_Resume@PLT
 8485      00
 8486              	.LEHE490:
 8487              	.L690:
 8488 4439 EB00     		jmp	.L553
 8489              	.L689:
 8490              	.L553:
 275:testCore.cpp  **** 	*item = 104;
 8491              		.loc 3 275 0 is_stmt 1
 8492 443b 4889C7   		movq	%rax, %rdi
 8493 443e E8000000 		call	__cxa_begin_catch@PLT
 8493      00
 8494              	.LEHB491:
 8495 4443 E8000000 		call	_ZN8UnitTest11CurrentTest7ResultsEv@PLT
 8495      00
 8496 4448 488B18   		movq	(%rax), %rbx
 8497 444b E8000000 		call	_ZN8UnitTest11CurrentTest7DetailsEv@PLT
 8497      00
 275:testCore.cpp  **** 	*item = 104;
 8498              		.loc 3 275 0 is_stmt 0 discriminator 8
 8499 4450 488B08   		movq	(%rax), %rcx
 8500 4453 488D4590 		leaq	-112(%rbp), %rax
 8501 4457 BA130100 		movl	$275, %edx
 8501      00
 8502 445c 4889CE   		movq	%rcx, %rsi
 8503 445f 4889C7   		movq	%rax, %rdi
 8504 4462 E8000000 		call	_ZN8UnitTest11TestDetailsC1ERKS0_i@PLT
 8504      00
 275:testCore.cpp  **** 	*item = 104;
 8505              		.loc 3 275 0 discriminator 12
 8506 4467 488D4590 		leaq	-112(%rbp), %rax
 8507 446b 488D1500 		leaq	.LC26(%rip), %rdx
 8507      000000
 8508 4472 4889C6   		movq	%rax, %rsi
 8509 4475 4889DF   		movq	%rbx, %rdi
 8510 4478 E8000000 		call	_ZN8UnitTest11TestResults13OnTestFailureERKNS_11TestDetailsEPKc@PLT
 8510      00
 8511              	.LEHE491:
 8512              	.LEHB492:
 275:testCore.cpp  **** 	*item = 104;
 8513              		.loc 3 275 0 discriminator 14
 8514 447d E8000000 		call	__cxa_end_catch@PLT
 8514      00
 8515              	.LEHE492:
 8516 4482 E96DF2FF 		jmp	.L554
 8516      FF
 8517              	.L691:
 8518 4487 4889C3   		movq	%rax, %rbx
 275:testCore.cpp  **** 	*item = 104;
 8519              		.loc 3 275 0
 8520 448a E8000000 		call	__cxa_end_catch@PLT
 8520      00
 8521 448f 4889D8   		movq	%rbx, %rax
 8522 4492 4889C7   		movq	%rax, %rdi
 8523              	.LEHB493:
 8524 4495 E8000000 		call	_Unwind_Resume@PLT
 8524      00
 8525              	.LEHE493:
 8526              	.L693:
 8527 449a EB00     		jmp	.L557
 8528              	.L692:
 8529              	.L557:
 280:testCore.cpp  **** 	CHECK_EQUAL(5UL, queue.putIndex);
 8530              		.loc 3 280 0 is_stmt 1
 8531 449c 4889C7   		movq	%rax, %rdi
 8532 449f E8000000 		call	__cxa_begin_catch@PLT
 8532      00
 8533              	.LEHB494:
 8534 44a4 E8000000 		call	_ZN8UnitTest11CurrentTest7ResultsEv@PLT
 8534      00
 8535 44a9 488B18   		movq	(%rax), %rbx
 8536 44ac E8000000 		call	_ZN8UnitTest11CurrentTest7DetailsEv@PLT
 8536      00
 280:testCore.cpp  **** 	CHECK_EQUAL(5UL, queue.putIndex);
 8537              		.loc 3 280 0 is_stmt 0 discriminator 8
 8538 44b1 488B08   		movq	(%rax), %rcx
 8539 44b4 488D4590 		leaq	-112(%rbp), %rax
 8540 44b8 BA180100 		movl	$280, %edx
 8540      00
 8541 44bd 4889CE   		movq	%rcx, %rsi
 8542 44c0 4889C7   		movq	%rax, %rdi
 8543 44c3 E8000000 		call	_ZN8UnitTest11TestDetailsC1ERKS0_i@PLT
 8543      00
 280:testCore.cpp  **** 	CHECK_EQUAL(5UL, queue.putIndex);
 8544              		.loc 3 280 0 discriminator 12
 8545 44c8 488D4590 		leaq	-112(%rbp), %rax
 8546 44cc 488D1500 		leaq	.LC36(%rip), %rdx
 8546      000000
 8547 44d3 4889C6   		movq	%rax, %rsi
 8548 44d6 4889DF   		movq	%rbx, %rdi
 8549 44d9 E8000000 		call	_ZN8UnitTest11TestResults13OnTestFailureERKNS_11TestDetailsEPKc@PLT
 8549      00
 8550              	.LEHE494:
 8551              	.LEHB495:
 280:testCore.cpp  **** 	CHECK_EQUAL(5UL, queue.putIndex);
 8552              		.loc 3 280 0 discriminator 14
 8553 44de E8000000 		call	__cxa_end_catch@PLT
 8553      00
 8554              	.LEHE495:
 8555 44e3 E96CF2FF 		jmp	.L558
 8555      FF
 8556              	.L694:
 8557 44e8 4889C3   		movq	%rax, %rbx
 280:testCore.cpp  **** 	CHECK_EQUAL(5UL, queue.putIndex);
 8558              		.loc 3 280 0
 8559 44eb E8000000 		call	__cxa_end_catch@PLT
 8559      00
 8560 44f0 4889D8   		movq	%rbx, %rax
 8561 44f3 4889C7   		movq	%rax, %rdi
 8562              	.LEHB496:
 8563 44f6 E8000000 		call	_Unwind_Resume@PLT
 8563      00
 8564              	.LEHE496:
 8565              	.L696:
 8566 44fb EB00     		jmp	.L561
 8567              	.L695:
 8568              	.L561:
 281:testCore.cpp  **** 	CHECK_EQUAL(0UL, queue.takeIndex);
 8569              		.loc 3 281 0 is_stmt 1
 8570 44fd 4889C7   		movq	%rax, %rdi
 8571 4500 E8000000 		call	__cxa_begin_catch@PLT
 8571      00
 8572              	.LEHB497:
 8573 4505 E8000000 		call	_ZN8UnitTest11CurrentTest7ResultsEv@PLT
 8573      00
 8574 450a 488B18   		movq	(%rax), %rbx
 8575 450d E8000000 		call	_ZN8UnitTest11CurrentTest7DetailsEv@PLT
 8575      00
 281:testCore.cpp  **** 	CHECK_EQUAL(0UL, queue.takeIndex);
 8576              		.loc 3 281 0 is_stmt 0 discriminator 8
 8577 4512 488B08   		movq	(%rax), %rcx
 8578 4515 488D4590 		leaq	-112(%rbp), %rax
 8579 4519 BA190100 		movl	$281, %edx
 8579      00
 8580 451e 4889CE   		movq	%rcx, %rsi
 8581 4521 4889C7   		movq	%rax, %rdi
 8582 4524 E8000000 		call	_ZN8UnitTest11TestDetailsC1ERKS0_i@PLT
 8582      00
 281:testCore.cpp  **** 	CHECK_EQUAL(0UL, queue.takeIndex);
 8583              		.loc 3 281 0 discriminator 12
 8584 4529 488D4590 		leaq	-112(%rbp), %rax
 8585 452d 488D1500 		leaq	.LC37(%rip), %rdx
 8585      000000
 8586 4534 4889C6   		movq	%rax, %rsi
 8587 4537 4889DF   		movq	%rbx, %rdi
 8588 453a E8000000 		call	_ZN8UnitTest11TestResults13OnTestFailureERKNS_11TestDetailsEPKc@PLT
 8588      00
 8589              	.LEHE497:
 8590              	.LEHB498:
 281:testCore.cpp  **** 	CHECK_EQUAL(0UL, queue.takeIndex);
 8591              		.loc 3 281 0 discriminator 14
 8592 453f E8000000 		call	__cxa_end_catch@PLT
 8592      00
 8593              	.LEHE498:
 8594 4544 E955F2FF 		jmp	.L562
 8594      FF
 8595              	.L697:
 8596 4549 4889C3   		movq	%rax, %rbx
 281:testCore.cpp  **** 	CHECK_EQUAL(0UL, queue.takeIndex);
 8597              		.loc 3 281 0
 8598 454c E8000000 		call	__cxa_end_catch@PLT
 8598      00
 8599 4551 4889D8   		movq	%rbx, %rax
 8600 4554 4889C7   		movq	%rax, %rdi
 8601              	.LEHB499:
 8602 4557 E8000000 		call	_Unwind_Resume@PLT
 8602      00
 8603              	.LEHE499:
 8604              	.L699:
 8605 455c EB00     		jmp	.L565
 8606              	.L698:
 8607              	.L565:
 282:testCore.cpp  **** 	CHECK_EQUAL(5UL, queue.numItems);
 8608              		.loc 3 282 0 is_stmt 1
 8609 455e 4889C7   		movq	%rax, %rdi
 8610 4561 E8000000 		call	__cxa_begin_catch@PLT
 8610      00
 8611              	.LEHB500:
 8612 4566 E8000000 		call	_ZN8UnitTest11CurrentTest7ResultsEv@PLT
 8612      00
 8613 456b 488B18   		movq	(%rax), %rbx
 8614 456e E8000000 		call	_ZN8UnitTest11CurrentTest7DetailsEv@PLT
 8614      00
 282:testCore.cpp  **** 	CHECK_EQUAL(5UL, queue.numItems);
 8615              		.loc 3 282 0 is_stmt 0 discriminator 8
 8616 4573 488B08   		movq	(%rax), %rcx
 8617 4576 488D4590 		leaq	-112(%rbp), %rax
 8618 457a BA1A0100 		movl	$282, %edx
 8618      00
 8619 457f 4889CE   		movq	%rcx, %rsi
 8620 4582 4889C7   		movq	%rax, %rdi
 8621 4585 E8000000 		call	_ZN8UnitTest11TestDetailsC1ERKS0_i@PLT
 8621      00
 282:testCore.cpp  **** 	CHECK_EQUAL(5UL, queue.numItems);
 8622              		.loc 3 282 0 discriminator 12
 8623 458a 488D4590 		leaq	-112(%rbp), %rax
 8624 458e 488D1500 		leaq	.LC6(%rip), %rdx
 8624      000000
 8625 4595 4889C6   		movq	%rax, %rsi
 8626 4598 4889DF   		movq	%rbx, %rdi
 8627 459b E8000000 		call	_ZN8UnitTest11TestResults13OnTestFailureERKNS_11TestDetailsEPKc@PLT
 8627      00
 8628              	.LEHE500:
 8629              	.LEHB501:
 282:testCore.cpp  **** 	CHECK_EQUAL(5UL, queue.numItems);
 8630              		.loc 3 282 0 discriminator 14
 8631 45a0 E8000000 		call	__cxa_end_catch@PLT
 8631      00
 8632              	.LEHE501:
 8633 45a5 E93EF2FF 		jmp	.L566
 8633      FF
 8634              	.L700:
 8635 45aa 4889C3   		movq	%rax, %rbx
 282:testCore.cpp  **** 	CHECK_EQUAL(5UL, queue.numItems);
 8636              		.loc 3 282 0
 8637 45ad E8000000 		call	__cxa_end_catch@PLT
 8637      00
 8638 45b2 4889D8   		movq	%rbx, %rax
 8639 45b5 4889C7   		movq	%rax, %rdi
 8640              	.LEHB502:
 8641 45b8 E8000000 		call	_Unwind_Resume@PLT
 8641      00
 8642              	.LEHE502:
 8643              	.L702:
 8644 45bd EB00     		jmp	.L569
 8645              	.L701:
 8646              	.L569:
 283:testCore.cpp  **** 
 8647              		.loc 3 283 0 is_stmt 1
 8648 45bf 4889C7   		movq	%rax, %rdi
 8649 45c2 E8000000 		call	__cxa_begin_catch@PLT
 8649      00
 8650              	.LEHB503:
 8651 45c7 E8000000 		call	_ZN8UnitTest11CurrentTest7ResultsEv@PLT
 8651      00
 8652 45cc 488B18   		movq	(%rax), %rbx
 8653 45cf E8000000 		call	_ZN8UnitTest11CurrentTest7DetailsEv@PLT
 8653      00
 283:testCore.cpp  **** 
 8654              		.loc 3 283 0 is_stmt 0 discriminator 8
 8655 45d4 488B08   		movq	(%rax), %rcx
 8656 45d7 488D4590 		leaq	-112(%rbp), %rax
 8657 45db BA1B0100 		movl	$283, %edx
 8657      00
 8658 45e0 4889CE   		movq	%rcx, %rsi
 8659 45e3 4889C7   		movq	%rax, %rdi
 8660 45e6 E8000000 		call	_ZN8UnitTest11TestDetailsC1ERKS0_i@PLT
 8660      00
 283:testCore.cpp  **** 
 8661              		.loc 3 283 0 discriminator 12
 8662 45eb 488D4590 		leaq	-112(%rbp), %rax
 8663 45ef 488D1500 		leaq	.LC38(%rip), %rdx
 8663      000000
 8664 45f6 4889C6   		movq	%rax, %rsi
 8665 45f9 4889DF   		movq	%rbx, %rdi
 8666 45fc E8000000 		call	_ZN8UnitTest11TestResults13OnTestFailureERKNS_11TestDetailsEPKc@PLT
 8666      00
 8667              	.LEHE503:
 8668              	.LEHB504:
 283:testCore.cpp  **** 
 8669              		.loc 3 283 0 discriminator 14
 8670 4601 E8000000 		call	__cxa_end_catch@PLT
 8670      00
 8671              	.LEHE504:
 8672 4606 E927F2FF 		jmp	.L570
 8672      FF
 8673              	.L703:
 8674 460b 4889C3   		movq	%rax, %rbx
 283:testCore.cpp  **** 
 8675              		.loc 3 283 0
 8676 460e E8000000 		call	__cxa_end_catch@PLT
 8676      00
 8677 4613 4889D8   		movq	%rbx, %rax
 8678 4616 4889C7   		movq	%rax, %rdi
 8679              	.LEHB505:
 8680 4619 E8000000 		call	_Unwind_Resume@PLT
 8680      00
 8681              	.LEHE505:
 8682              	.L705:
 8683 461e EB00     		jmp	.L573
 8684              	.L704:
 8685              	.L573:
 286:testCore.cpp  **** 	CHECK_EQUAL(101UL, deref(queue.itemArray[1]));
 8686              		.loc 3 286 0 is_stmt 1
 8687 4620 4889C7   		movq	%rax, %rdi
 8688 4623 E8000000 		call	__cxa_begin_catch@PLT
 8688      00
 8689              	.LEHB506:
 8690 4628 E8000000 		call	_ZN8UnitTest11CurrentTest7ResultsEv@PLT
 8690      00
 8691 462d 488B18   		movq	(%rax), %rbx
 8692 4630 E8000000 		call	_ZN8UnitTest11CurrentTest7DetailsEv@PLT
 8692      00
 286:testCore.cpp  **** 	CHECK_EQUAL(101UL, deref(queue.itemArray[1]));
 8693              		.loc 3 286 0 is_stmt 0 discriminator 8
 8694 4635 488B08   		movq	(%rax), %rcx
 8695 4638 488D4590 		leaq	-112(%rbp), %rax
 8696 463c BA1E0100 		movl	$286, %edx
 8696      00
 8697 4641 4889CE   		movq	%rcx, %rsi
 8698 4644 4889C7   		movq	%rax, %rdi
 8699 4647 E8000000 		call	_ZN8UnitTest11TestDetailsC1ERKS0_i@PLT
 8699      00
 286:testCore.cpp  **** 	CHECK_EQUAL(101UL, deref(queue.itemArray[1]));
 8700              		.loc 3 286 0 discriminator 12
 8701 464c 488D4590 		leaq	-112(%rbp), %rax
 8702 4650 488D1500 		leaq	.LC39(%rip), %rdx
 8702      000000
 8703 4657 4889C6   		movq	%rax, %rsi
 8704 465a 4889DF   		movq	%rbx, %rdi
 8705 465d E8000000 		call	_ZN8UnitTest11TestResults13OnTestFailureERKNS_11TestDetailsEPKc@PLT
 8705      00
 8706              	.LEHE506:
 8707              	.LEHB507:
 286:testCore.cpp  **** 	CHECK_EQUAL(101UL, deref(queue.itemArray[1]));
 8708              		.loc 3 286 0 discriminator 14
 8709 4662 E8000000 		call	__cxa_end_catch@PLT
 8709      00
 8710              	.LEHE507:
 8711 4667 E91EF2FF 		jmp	.L574
 8711      FF
 8712              	.L706:
 8713 466c 4889C3   		movq	%rax, %rbx
 286:testCore.cpp  **** 	CHECK_EQUAL(101UL, deref(queue.itemArray[1]));
 8714              		.loc 3 286 0
 8715 466f E8000000 		call	__cxa_end_catch@PLT
 8715      00
 8716 4674 4889D8   		movq	%rbx, %rax
 8717 4677 4889C7   		movq	%rax, %rdi
 8718              	.LEHB508:
 8719 467a E8000000 		call	_Unwind_Resume@PLT
 8719      00
 8720              	.LEHE508:
 8721              	.L708:
 8722 467f EB00     		jmp	.L577
 8723              	.L707:
 8724              	.L577:
 287:testCore.cpp  **** 	CHECK_EQUAL(102UL, deref(queue.itemArray[2]));
 8725              		.loc 3 287 0 is_stmt 1
 8726 4681 4889C7   		movq	%rax, %rdi
 8727 4684 E8000000 		call	__cxa_begin_catch@PLT
 8727      00
 8728              	.LEHB509:
 8729 4689 E8000000 		call	_ZN8UnitTest11CurrentTest7ResultsEv@PLT
 8729      00
 8730 468e 488B18   		movq	(%rax), %rbx
 8731 4691 E8000000 		call	_ZN8UnitTest11CurrentTest7DetailsEv@PLT
 8731      00
 287:testCore.cpp  **** 	CHECK_EQUAL(102UL, deref(queue.itemArray[2]));
 8732              		.loc 3 287 0 is_stmt 0 discriminator 8
 8733 4696 488B08   		movq	(%rax), %rcx
 8734 4699 488D4590 		leaq	-112(%rbp), %rax
 8735 469d BA1F0100 		movl	$287, %edx
 8735      00
 8736 46a2 4889CE   		movq	%rcx, %rsi
 8737 46a5 4889C7   		movq	%rax, %rdi
 8738 46a8 E8000000 		call	_ZN8UnitTest11TestDetailsC1ERKS0_i@PLT
 8738      00
 287:testCore.cpp  **** 	CHECK_EQUAL(102UL, deref(queue.itemArray[2]));
 8739              		.loc 3 287 0 discriminator 12
 8740 46ad 488D4590 		leaq	-112(%rbp), %rax
 8741 46b1 488D1500 		leaq	.LC40(%rip), %rdx
 8741      000000
 8742 46b8 4889C6   		movq	%rax, %rsi
 8743 46bb 4889DF   		movq	%rbx, %rdi
 8744 46be E8000000 		call	_ZN8UnitTest11TestResults13OnTestFailureERKNS_11TestDetailsEPKc@PLT
 8744      00
 8745              	.LEHE509:
 8746              	.LEHB510:
 287:testCore.cpp  **** 	CHECK_EQUAL(102UL, deref(queue.itemArray[2]));
 8747              		.loc 3 287 0 discriminator 14
 8748 46c3 E8000000 		call	__cxa_end_catch@PLT
 8748      00
 8749              	.LEHE510:
 8750 46c8 E919F2FF 		jmp	.L578
 8750      FF
 8751              	.L709:
 8752 46cd 4889C3   		movq	%rax, %rbx
 287:testCore.cpp  **** 	CHECK_EQUAL(102UL, deref(queue.itemArray[2]));
 8753              		.loc 3 287 0
 8754 46d0 E8000000 		call	__cxa_end_catch@PLT
 8754      00
 8755 46d5 4889D8   		movq	%rbx, %rax
 8756 46d8 4889C7   		movq	%rax, %rdi
 8757              	.LEHB511:
 8758 46db E8000000 		call	_Unwind_Resume@PLT
 8758      00
 8759              	.LEHE511:
 8760              	.L711:
 8761 46e0 EB00     		jmp	.L581
 8762              	.L710:
 8763              	.L581:
 288:testCore.cpp  **** 	CHECK_EQUAL(103UL, deref(queue.itemArray[3]));
 8764              		.loc 3 288 0 is_stmt 1
 8765 46e2 4889C7   		movq	%rax, %rdi
 8766 46e5 E8000000 		call	__cxa_begin_catch@PLT
 8766      00
 8767              	.LEHB512:
 8768 46ea E8000000 		call	_ZN8UnitTest11CurrentTest7ResultsEv@PLT
 8768      00
 8769 46ef 488B18   		movq	(%rax), %rbx
 8770 46f2 E8000000 		call	_ZN8UnitTest11CurrentTest7DetailsEv@PLT
 8770      00
 288:testCore.cpp  **** 	CHECK_EQUAL(103UL, deref(queue.itemArray[3]));
 8771              		.loc 3 288 0 is_stmt 0 discriminator 8
 8772 46f7 488B08   		movq	(%rax), %rcx
 8773 46fa 488D4590 		leaq	-112(%rbp), %rax
 8774 46fe BA200100 		movl	$288, %edx
 8774      00
 8775 4703 4889CE   		movq	%rcx, %rsi
 8776 4706 4889C7   		movq	%rax, %rdi
 8777 4709 E8000000 		call	_ZN8UnitTest11TestDetailsC1ERKS0_i@PLT
 8777      00
 288:testCore.cpp  **** 	CHECK_EQUAL(103UL, deref(queue.itemArray[3]));
 8778              		.loc 3 288 0 discriminator 12
 8779 470e 488D4590 		leaq	-112(%rbp), %rax
 8780 4712 488D1500 		leaq	.LC41(%rip), %rdx
 8780      000000
 8781 4719 4889C6   		movq	%rax, %rsi
 8782 471c 4889DF   		movq	%rbx, %rdi
 8783 471f E8000000 		call	_ZN8UnitTest11TestResults13OnTestFailureERKNS_11TestDetailsEPKc@PLT
 8783      00
 8784              	.LEHE512:
 8785              	.LEHB513:
 288:testCore.cpp  **** 	CHECK_EQUAL(103UL, deref(queue.itemArray[3]));
 8786              		.loc 3 288 0 discriminator 14
 8787 4724 E8000000 		call	__cxa_end_catch@PLT
 8787      00
 8788              	.LEHE513:
 8789 4729 E914F2FF 		jmp	.L582
 8789      FF
 8790              	.L712:
 8791 472e 4889C3   		movq	%rax, %rbx
 288:testCore.cpp  **** 	CHECK_EQUAL(103UL, deref(queue.itemArray[3]));
 8792              		.loc 3 288 0
 8793 4731 E8000000 		call	__cxa_end_catch@PLT
 8793      00
 8794 4736 4889D8   		movq	%rbx, %rax
 8795 4739 4889C7   		movq	%rax, %rdi
 8796              	.LEHB514:
 8797 473c E8000000 		call	_Unwind_Resume@PLT
 8797      00
 8798              	.LEHE514:
 8799              	.L714:
 8800 4741 EB00     		jmp	.L585
 8801              	.L713:
 8802              	.L585:
 289:testCore.cpp  **** 	CHECK_EQUAL(104UL, deref(queue.itemArray[4]));
 8803              		.loc 3 289 0 is_stmt 1
 8804 4743 4889C7   		movq	%rax, %rdi
 8805 4746 E8000000 		call	__cxa_begin_catch@PLT
 8805      00
 8806              	.LEHB515:
 8807 474b E8000000 		call	_ZN8UnitTest11CurrentTest7ResultsEv@PLT
 8807      00
 8808 4750 488B18   		movq	(%rax), %rbx
 8809 4753 E8000000 		call	_ZN8UnitTest11CurrentTest7DetailsEv@PLT
 8809      00
 289:testCore.cpp  **** 	CHECK_EQUAL(104UL, deref(queue.itemArray[4]));
 8810              		.loc 3 289 0 is_stmt 0 discriminator 8
 8811 4758 488B08   		movq	(%rax), %rcx
 8812 475b 488D4590 		leaq	-112(%rbp), %rax
 8813 475f BA210100 		movl	$289, %edx
 8813      00
 8814 4764 4889CE   		movq	%rcx, %rsi
 8815 4767 4889C7   		movq	%rax, %rdi
 8816 476a E8000000 		call	_ZN8UnitTest11TestDetailsC1ERKS0_i@PLT
 8816      00
 289:testCore.cpp  **** 	CHECK_EQUAL(104UL, deref(queue.itemArray[4]));
 8817              		.loc 3 289 0 discriminator 12
 8818 476f 488D4590 		leaq	-112(%rbp), %rax
 8819 4773 488D1500 		leaq	.LC42(%rip), %rdx
 8819      000000
 8820 477a 4889C6   		movq	%rax, %rsi
 8821 477d 4889DF   		movq	%rbx, %rdi
 8822 4780 E8000000 		call	_ZN8UnitTest11TestResults13OnTestFailureERKNS_11TestDetailsEPKc@PLT
 8822      00
 8823              	.LEHE515:
 8824              	.LEHB516:
 289:testCore.cpp  **** 	CHECK_EQUAL(104UL, deref(queue.itemArray[4]));
 8825              		.loc 3 289 0 discriminator 14
 8826 4785 E8000000 		call	__cxa_end_catch@PLT
 8826      00
 8827              	.LEHE516:
 8828 478a E90FF2FF 		jmp	.L586
 8828      FF
 8829              	.L715:
 8830 478f 4889C3   		movq	%rax, %rbx
 289:testCore.cpp  **** 	CHECK_EQUAL(104UL, deref(queue.itemArray[4]));
 8831              		.loc 3 289 0
 8832 4792 E8000000 		call	__cxa_end_catch@PLT
 8832      00
 8833 4797 4889D8   		movq	%rbx, %rax
 8834 479a 4889C7   		movq	%rax, %rdi
 8835              	.LEHB517:
 8836 479d E8000000 		call	_Unwind_Resume@PLT
 8836      00
 8837              	.LEHE517:
 8838              	.L717:
 8839 47a2 EB00     		jmp	.L589
 8840              	.L716:
 8841              	.L589:
 290:testCore.cpp  **** 	CHECK_EQUAL(6UL, deref(queue.itemArray[5]));
 8842              		.loc 3 290 0 is_stmt 1
 8843 47a4 4889C7   		movq	%rax, %rdi
 8844 47a7 E8000000 		call	__cxa_begin_catch@PLT
 8844      00
 8845              	.LEHB518:
 8846 47ac E8000000 		call	_ZN8UnitTest11CurrentTest7ResultsEv@PLT
 8846      00
 8847 47b1 488B18   		movq	(%rax), %rbx
 8848 47b4 E8000000 		call	_ZN8UnitTest11CurrentTest7DetailsEv@PLT
 8848      00
 290:testCore.cpp  **** 	CHECK_EQUAL(6UL, deref(queue.itemArray[5]));
 8849              		.loc 3 290 0 is_stmt 0 discriminator 8
 8850 47b9 488B08   		movq	(%rax), %rcx
 8851 47bc 488D4590 		leaq	-112(%rbp), %rax
 8852 47c0 BA220100 		movl	$290, %edx
 8852      00
 8853 47c5 4889CE   		movq	%rcx, %rsi
 8854 47c8 4889C7   		movq	%rax, %rdi
 8855 47cb E8000000 		call	_ZN8UnitTest11TestDetailsC1ERKS0_i@PLT
 8855      00
 290:testCore.cpp  **** 	CHECK_EQUAL(6UL, deref(queue.itemArray[5]));
 8856              		.loc 3 290 0 discriminator 12
 8857 47d0 488D4590 		leaq	-112(%rbp), %rax
 8858 47d4 488D1500 		leaq	.LC43(%rip), %rdx
 8858      000000
 8859 47db 4889C6   		movq	%rax, %rsi
 8860 47de 4889DF   		movq	%rbx, %rdi
 8861 47e1 E8000000 		call	_ZN8UnitTest11TestResults13OnTestFailureERKNS_11TestDetailsEPKc@PLT
 8861      00
 8862              	.LEHE518:
 8863              	.LEHB519:
 290:testCore.cpp  **** 	CHECK_EQUAL(6UL, deref(queue.itemArray[5]));
 8864              		.loc 3 290 0 discriminator 14
 8865 47e6 E8000000 		call	__cxa_end_catch@PLT
 8865      00
 8866              	.LEHE519:
 8867 47eb E90AF2FF 		jmp	.L590
 8867      FF
 8868              	.L718:
 8869 47f0 4889C3   		movq	%rax, %rbx
 290:testCore.cpp  **** 	CHECK_EQUAL(6UL, deref(queue.itemArray[5]));
 8870              		.loc 3 290 0
 8871 47f3 E8000000 		call	__cxa_end_catch@PLT
 8871      00
 8872 47f8 4889D8   		movq	%rbx, %rax
 8873 47fb 4889C7   		movq	%rax, %rdi
 8874              	.LEHB520:
 8875 47fe E8000000 		call	_Unwind_Resume@PLT
 8875      00
 8876              	.LEHE520:
 8877              	.L720:
 8878 4803 EB00     		jmp	.L593
 8879              	.L719:
 8880              	.L593:
 291:testCore.cpp  **** 	CHECK_EQUAL(7UL, deref(queue.itemArray[6]));
 8881              		.loc 3 291 0 is_stmt 1
 8882 4805 4889C7   		movq	%rax, %rdi
 8883 4808 E8000000 		call	__cxa_begin_catch@PLT
 8883      00
 8884              	.LEHB521:
 8885 480d E8000000 		call	_ZN8UnitTest11CurrentTest7ResultsEv@PLT
 8885      00
 8886 4812 488B18   		movq	(%rax), %rbx
 8887 4815 E8000000 		call	_ZN8UnitTest11CurrentTest7DetailsEv@PLT
 8887      00
 291:testCore.cpp  **** 	CHECK_EQUAL(7UL, deref(queue.itemArray[6]));
 8888              		.loc 3 291 0 is_stmt 0 discriminator 8
 8889 481a 488B08   		movq	(%rax), %rcx
 8890 481d 488D4590 		leaq	-112(%rbp), %rax
 8891 4821 BA230100 		movl	$291, %edx
 8891      00
 8892 4826 4889CE   		movq	%rcx, %rsi
 8893 4829 4889C7   		movq	%rax, %rdi
 8894 482c E8000000 		call	_ZN8UnitTest11TestDetailsC1ERKS0_i@PLT
 8894      00
 291:testCore.cpp  **** 	CHECK_EQUAL(7UL, deref(queue.itemArray[6]));
 8895              		.loc 3 291 0 discriminator 12
 8896 4831 488D4590 		leaq	-112(%rbp), %rax
 8897 4835 488D1500 		leaq	.LC44(%rip), %rdx
 8897      000000
 8898 483c 4889C6   		movq	%rax, %rsi
 8899 483f 4889DF   		movq	%rbx, %rdi
 8900 4842 E8000000 		call	_ZN8UnitTest11TestResults13OnTestFailureERKNS_11TestDetailsEPKc@PLT
 8900      00
 8901              	.LEHE521:
 8902              	.LEHB522:
 291:testCore.cpp  **** 	CHECK_EQUAL(7UL, deref(queue.itemArray[6]));
 8903              		.loc 3 291 0 discriminator 14
 8904 4847 E8000000 		call	__cxa_end_catch@PLT
 8904      00
 8905              	.LEHE522:
 8906 484c E905F2FF 		jmp	.L594
 8906      FF
 8907              	.L721:
 8908 4851 4889C3   		movq	%rax, %rbx
 291:testCore.cpp  **** 	CHECK_EQUAL(7UL, deref(queue.itemArray[6]));
 8909              		.loc 3 291 0
 8910 4854 E8000000 		call	__cxa_end_catch@PLT
 8910      00
 8911 4859 4889D8   		movq	%rbx, %rax
 8912 485c 4889C7   		movq	%rax, %rdi
 8913              	.LEHB523:
 8914 485f E8000000 		call	_Unwind_Resume@PLT
 8914      00
 8915              	.LEHE523:
 8916              	.L723:
 8917 4864 EB00     		jmp	.L597
 8918              	.L722:
 8919              	.L597:
 292:testCore.cpp  **** 	CHECK_EQUAL(8UL, deref(queue.itemArray[7]));
 8920              		.loc 3 292 0 is_stmt 1
 8921 4866 4889C7   		movq	%rax, %rdi
 8922 4869 E8000000 		call	__cxa_begin_catch@PLT
 8922      00
 8923              	.LEHB524:
 8924 486e E8000000 		call	_ZN8UnitTest11CurrentTest7ResultsEv@PLT
 8924      00
 8925 4873 488B18   		movq	(%rax), %rbx
 8926 4876 E8000000 		call	_ZN8UnitTest11CurrentTest7DetailsEv@PLT
 8926      00
 292:testCore.cpp  **** 	CHECK_EQUAL(8UL, deref(queue.itemArray[7]));
 8927              		.loc 3 292 0 is_stmt 0 discriminator 8
 8928 487b 488B08   		movq	(%rax), %rcx
 8929 487e 488D4590 		leaq	-112(%rbp), %rax
 8930 4882 BA240100 		movl	$292, %edx
 8930      00
 8931 4887 4889CE   		movq	%rcx, %rsi
 8932 488a 4889C7   		movq	%rax, %rdi
 8933 488d E8000000 		call	_ZN8UnitTest11TestDetailsC1ERKS0_i@PLT
 8933      00
 292:testCore.cpp  **** 	CHECK_EQUAL(8UL, deref(queue.itemArray[7]));
 8934              		.loc 3 292 0 discriminator 12
 8935 4892 488D4590 		leaq	-112(%rbp), %rax
 8936 4896 488D1500 		leaq	.LC45(%rip), %rdx
 8936      000000
 8937 489d 4889C6   		movq	%rax, %rsi
 8938 48a0 4889DF   		movq	%rbx, %rdi
 8939 48a3 E8000000 		call	_ZN8UnitTest11TestResults13OnTestFailureERKNS_11TestDetailsEPKc@PLT
 8939      00
 8940              	.LEHE524:
 8941              	.LEHB525:
 292:testCore.cpp  **** 	CHECK_EQUAL(8UL, deref(queue.itemArray[7]));
 8942              		.loc 3 292 0 discriminator 14
 8943 48a8 E8000000 		call	__cxa_end_catch@PLT
 8943      00
 8944              	.LEHE525:
 8945 48ad E900F2FF 		jmp	.L598
 8945      FF
 8946              	.L724:
 8947 48b2 4889C3   		movq	%rax, %rbx
 292:testCore.cpp  **** 	CHECK_EQUAL(8UL, deref(queue.itemArray[7]));
 8948              		.loc 3 292 0
 8949 48b5 E8000000 		call	__cxa_end_catch@PLT
 8949      00
 8950 48ba 4889D8   		movq	%rbx, %rax
 8951 48bd 4889C7   		movq	%rax, %rdi
 8952              	.LEHB526:
 8953 48c0 E8000000 		call	_Unwind_Resume@PLT
 8953      00
 8954              	.LEHE526:
 8955              	.L726:
 8956 48c5 EB00     		jmp	.L601
 8957              	.L725:
 8958              	.L601:
 293:testCore.cpp  **** 
 8959              		.loc 3 293 0 is_stmt 1
 8960 48c7 4889C7   		movq	%rax, %rdi
 8961 48ca E8000000 		call	__cxa_begin_catch@PLT
 8961      00
 8962              	.LEHB527:
 8963 48cf E8000000 		call	_ZN8UnitTest11CurrentTest7ResultsEv@PLT
 8963      00
 8964 48d4 488B18   		movq	(%rax), %rbx
 8965 48d7 E8000000 		call	_ZN8UnitTest11CurrentTest7DetailsEv@PLT
 8965      00
 293:testCore.cpp  **** 
 8966              		.loc 3 293 0 is_stmt 0 discriminator 8
 8967 48dc 488B08   		movq	(%rax), %rcx
 8968 48df 488D4590 		leaq	-112(%rbp), %rax
 8969 48e3 BA250100 		movl	$293, %edx
 8969      00
 8970 48e8 4889CE   		movq	%rcx, %rsi
 8971 48eb 4889C7   		movq	%rax, %rdi
 8972 48ee E8000000 		call	_ZN8UnitTest11TestDetailsC1ERKS0_i@PLT
 8972      00
 293:testCore.cpp  **** 
 8973              		.loc 3 293 0 discriminator 12
 8974 48f3 488D4590 		leaq	-112(%rbp), %rax
 8975 48f7 488D1500 		leaq	.LC46(%rip), %rdx
 8975      000000
 8976 48fe 4889C6   		movq	%rax, %rsi
 8977 4901 4889DF   		movq	%rbx, %rdi
 8978 4904 E8000000 		call	_ZN8UnitTest11TestResults13OnTestFailureERKNS_11TestDetailsEPKc@PLT
 8978      00
 8979              	.LEHE527:
 8980              	.LEHB528:
 293:testCore.cpp  **** 
 8981              		.loc 3 293 0 discriminator 14
 8982 4909 E8000000 		call	__cxa_end_catch@PLT
 8982      00
 8983              	.LEHE528:
 8984 490e E9FBF1FF 		jmp	.L602
 8984      FF
 8985              	.L727:
 8986 4913 4889C3   		movq	%rax, %rbx
 293:testCore.cpp  **** 
 8987              		.loc 3 293 0
 8988 4916 E8000000 		call	__cxa_end_catch@PLT
 8988      00
 8989 491b 4889D8   		movq	%rbx, %rax
 8990 491e 4889C7   		movq	%rax, %rdi
 8991              	.LEHB529:
 8992 4921 E8000000 		call	_Unwind_Resume@PLT
 8992      00
 8993              	.LEHE529:
 8994              	.L729:
 8995 4926 EB00     		jmp	.L605
 8996              	.L728:
 8997              	.L605:
 297:testCore.cpp  **** 	CHECK_EQUAL(100UL, *item);
 8998              		.loc 3 297 0 is_stmt 1
 8999 4928 4889C7   		movq	%rax, %rdi
 9000 492b E8000000 		call	__cxa_begin_catch@PLT
 9000      00
 9001              	.LEHB530:
 9002 4930 E8000000 		call	_ZN8UnitTest11CurrentTest7ResultsEv@PLT
 9002      00
 9003 4935 488B18   		movq	(%rax), %rbx
 9004 4938 E8000000 		call	_ZN8UnitTest11CurrentTest7DetailsEv@PLT
 9004      00
 297:testCore.cpp  **** 	CHECK_EQUAL(100UL, *item);
 9005              		.loc 3 297 0 is_stmt 0 discriminator 8
 9006 493d 488B08   		movq	(%rax), %rcx
 9007 4940 488D4590 		leaq	-112(%rbp), %rax
 9008 4944 BA290100 		movl	$297, %edx
 9008      00
 9009 4949 4889CE   		movq	%rcx, %rsi
 9010 494c 4889C7   		movq	%rax, %rdi
 9011 494f E8000000 		call	_ZN8UnitTest11TestDetailsC1ERKS0_i@PLT
 9011      00
 297:testCore.cpp  **** 	CHECK_EQUAL(100UL, *item);
 9012              		.loc 3 297 0 discriminator 12
 9013 4954 488D4590 		leaq	-112(%rbp), %rax
 9014 4958 488D1500 		leaq	.LC3(%rip), %rdx
 9014      000000
 9015 495f 4889C6   		movq	%rax, %rsi
 9016 4962 4889DF   		movq	%rbx, %rdi
 9017 4965 E8000000 		call	_ZN8UnitTest11TestResults13OnTestFailureERKNS_11TestDetailsEPKc@PLT
 9017      00
 9018              	.LEHE530:
 9019              	.LEHB531:
 297:testCore.cpp  **** 	CHECK_EQUAL(100UL, *item);
 9020              		.loc 3 297 0 discriminator 14
 9021 496a E8000000 		call	__cxa_end_catch@PLT
 9021      00
 9022              	.LEHE531:
 9023 496f E9F5F1FF 		jmp	.L606
 9023      FF
 9024              	.L730:
 9025 4974 4889C3   		movq	%rax, %rbx
 297:testCore.cpp  **** 	CHECK_EQUAL(100UL, *item);
 9026              		.loc 3 297 0
 9027 4977 E8000000 		call	__cxa_end_catch@PLT
 9027      00
 9028 497c 4889D8   		movq	%rbx, %rax
 9029 497f 4889C7   		movq	%rax, %rdi
 9030              	.LEHB532:
 9031 4982 E8000000 		call	_Unwind_Resume@PLT
 9031      00
 9032              	.LEHE532:
 9033              	.L732:
 9034 4987 EB00     		jmp	.L609
 9035              	.L731:
 9036              	.L609:
 298:testCore.cpp  **** 	queueCommitTake(&queue);
 9037              		.loc 3 298 0 is_stmt 1
 9038 4989 4889C7   		movq	%rax, %rdi
 9039 498c E8000000 		call	__cxa_begin_catch@PLT
 9039      00
 9040              	.LEHB533:
 9041 4991 E8000000 		call	_ZN8UnitTest11CurrentTest7ResultsEv@PLT
 9041      00
 9042 4996 488B18   		movq	(%rax), %rbx
 9043 4999 E8000000 		call	_ZN8UnitTest11CurrentTest7DetailsEv@PLT
 9043      00
 298:testCore.cpp  **** 	queueCommitTake(&queue);
 9044              		.loc 3 298 0 is_stmt 0 discriminator 8
 9045 499e 488B08   		movq	(%rax), %rcx
 9046 49a1 488D4590 		leaq	-112(%rbp), %rax
 9047 49a5 BA2A0100 		movl	$298, %edx
 9047      00
 9048 49aa 4889CE   		movq	%rcx, %rsi
 9049 49ad 4889C7   		movq	%rax, %rdi
 9050 49b0 E8000000 		call	_ZN8UnitTest11TestDetailsC1ERKS0_i@PLT
 9050      00
 298:testCore.cpp  **** 	queueCommitTake(&queue);
 9051              		.loc 3 298 0 discriminator 12
 9052 49b5 488D4590 		leaq	-112(%rbp), %rax
 9053 49b9 488D1500 		leaq	.LC47(%rip), %rdx
 9053      000000
 9054 49c0 4889C6   		movq	%rax, %rsi
 9055 49c3 4889DF   		movq	%rbx, %rdi
 9056 49c6 E8000000 		call	_ZN8UnitTest11TestResults13OnTestFailureERKNS_11TestDetailsEPKc@PLT
 9056      00
 9057              	.LEHE533:
 9058              	.LEHB534:
 298:testCore.cpp  **** 	queueCommitTake(&queue);
 9059              		.loc 3 298 0 discriminator 14
 9060 49cb E8000000 		call	__cxa_end_catch@PLT
 9060      00
 9061              	.LEHE534:
 9062 49d0 E9DAF1FF 		jmp	.L610
 9062      FF
 9063              	.L733:
 9064 49d5 4889C3   		movq	%rax, %rbx
 298:testCore.cpp  **** 	queueCommitTake(&queue);
 9065              		.loc 3 298 0
 9066 49d8 E8000000 		call	__cxa_end_catch@PLT
 9066      00
 9067 49dd 4889D8   		movq	%rbx, %rax
 9068 49e0 4889C7   		movq	%rax, %rdi
 9069              	.LEHB535:
 9070 49e3 E8000000 		call	_Unwind_Resume@PLT
 9070      00
 9071              	.LEHE535:
 9072              	.L735:
 9073 49e8 EB00     		jmp	.L613
 9074              	.L734:
 9075              	.L613:
 301:testCore.cpp  **** 	CHECK_EQUAL(101UL, *item);
 9076              		.loc 3 301 0 is_stmt 1
 9077 49ea 4889C7   		movq	%rax, %rdi
 9078 49ed E8000000 		call	__cxa_begin_catch@PLT
 9078      00
 9079              	.LEHB536:
 9080 49f2 E8000000 		call	_ZN8UnitTest11CurrentTest7ResultsEv@PLT
 9080      00
 9081 49f7 488B18   		movq	(%rax), %rbx
 9082 49fa E8000000 		call	_ZN8UnitTest11CurrentTest7DetailsEv@PLT
 9082      00
 301:testCore.cpp  **** 	CHECK_EQUAL(101UL, *item);
 9083              		.loc 3 301 0 is_stmt 0 discriminator 8
 9084 49ff 488B08   		movq	(%rax), %rcx
 9085 4a02 488D4590 		leaq	-112(%rbp), %rax
 9086 4a06 BA2D0100 		movl	$301, %edx
 9086      00
 9087 4a0b 4889CE   		movq	%rcx, %rsi
 9088 4a0e 4889C7   		movq	%rax, %rdi
 9089 4a11 E8000000 		call	_ZN8UnitTest11TestDetailsC1ERKS0_i@PLT
 9089      00
 301:testCore.cpp  **** 	CHECK_EQUAL(101UL, *item);
 9090              		.loc 3 301 0 discriminator 12
 9091 4a16 488D4590 		leaq	-112(%rbp), %rax
 9092 4a1a 488D1500 		leaq	.LC3(%rip), %rdx
 9092      000000
 9093 4a21 4889C6   		movq	%rax, %rsi
 9094 4a24 4889DF   		movq	%rbx, %rdi
 9095 4a27 E8000000 		call	_ZN8UnitTest11TestResults13OnTestFailureERKNS_11TestDetailsEPKc@PLT
 9095      00
 9096              	.LEHE536:
 9097              	.LEHB537:
 301:testCore.cpp  **** 	CHECK_EQUAL(101UL, *item);
 9098              		.loc 3 301 0 discriminator 14
 9099 4a2c E8000000 		call	__cxa_end_catch@PLT
 9099      00
 9100              	.LEHE537:
 9101 4a31 E9E0F1FF 		jmp	.L614
 9101      FF
 9102              	.L736:
 9103 4a36 4889C3   		movq	%rax, %rbx
 301:testCore.cpp  **** 	CHECK_EQUAL(101UL, *item);
 9104              		.loc 3 301 0
 9105 4a39 E8000000 		call	__cxa_end_catch@PLT
 9105      00
 9106 4a3e 4889D8   		movq	%rbx, %rax
 9107 4a41 4889C7   		movq	%rax, %rdi
 9108              	.LEHB538:
 9109 4a44 E8000000 		call	_Unwind_Resume@PLT
 9109      00
 9110              	.LEHE538:
 9111              	.L738:
 9112 4a49 EB00     		jmp	.L617
 9113              	.L737:
 9114              	.L617:
 302:testCore.cpp  **** 	queueCommitTake(&queue);
 9115              		.loc 3 302 0 is_stmt 1
 9116 4a4b 4889C7   		movq	%rax, %rdi
 9117 4a4e E8000000 		call	__cxa_begin_catch@PLT
 9117      00
 9118              	.LEHB539:
 9119 4a53 E8000000 		call	_ZN8UnitTest11CurrentTest7ResultsEv@PLT
 9119      00
 9120 4a58 488B18   		movq	(%rax), %rbx
 9121 4a5b E8000000 		call	_ZN8UnitTest11CurrentTest7DetailsEv@PLT
 9121      00
 302:testCore.cpp  **** 	queueCommitTake(&queue);
 9122              		.loc 3 302 0 is_stmt 0 discriminator 8
 9123 4a60 488B08   		movq	(%rax), %rcx
 9124 4a63 488D4590 		leaq	-112(%rbp), %rax
 9125 4a67 BA2E0100 		movl	$302, %edx
 9125      00
 9126 4a6c 4889CE   		movq	%rcx, %rsi
 9127 4a6f 4889C7   		movq	%rax, %rdi
 9128 4a72 E8000000 		call	_ZN8UnitTest11TestDetailsC1ERKS0_i@PLT
 9128      00
 302:testCore.cpp  **** 	queueCommitTake(&queue);
 9129              		.loc 3 302 0 discriminator 12
 9130 4a77 488D4590 		leaq	-112(%rbp), %rax
 9131 4a7b 488D1500 		leaq	.LC48(%rip), %rdx
 9131      000000
 9132 4a82 4889C6   		movq	%rax, %rsi
 9133 4a85 4889DF   		movq	%rbx, %rdi
 9134 4a88 E8000000 		call	_ZN8UnitTest11TestResults13OnTestFailureERKNS_11TestDetailsEPKc@PLT
 9134      00
 9135              	.LEHE539:
 9136              	.LEHB540:
 302:testCore.cpp  **** 	queueCommitTake(&queue);
 9137              		.loc 3 302 0 discriminator 14
 9138 4a8d E8000000 		call	__cxa_end_catch@PLT
 9138      00
 9139              	.LEHE540:
 9140 4a92 E9C5F1FF 		jmp	.L618
 9140      FF
 9141              	.L739:
 9142 4a97 4889C3   		movq	%rax, %rbx
 302:testCore.cpp  **** 	queueCommitTake(&queue);
 9143              		.loc 3 302 0
 9144 4a9a E8000000 		call	__cxa_end_catch@PLT
 9144      00
 9145 4a9f 4889D8   		movq	%rbx, %rax
 9146 4aa2 4889C7   		movq	%rax, %rdi
 9147              	.LEHB541:
 9148 4aa5 E8000000 		call	_Unwind_Resume@PLT
 9148      00
 9149              	.LEHE541:
 9150              	.L741:
 9151 4aaa EB00     		jmp	.L621
 9152              	.L740:
 9153              	.L621:
 305:testCore.cpp  **** 	CHECK_EQUAL(102UL, *item);
 9154              		.loc 3 305 0 is_stmt 1
 9155 4aac 4889C7   		movq	%rax, %rdi
 9156 4aaf E8000000 		call	__cxa_begin_catch@PLT
 9156      00
 9157              	.LEHB542:
 9158 4ab4 E8000000 		call	_ZN8UnitTest11CurrentTest7ResultsEv@PLT
 9158      00
 9159 4ab9 488B18   		movq	(%rax), %rbx
 9160 4abc E8000000 		call	_ZN8UnitTest11CurrentTest7DetailsEv@PLT
 9160      00
 305:testCore.cpp  **** 	CHECK_EQUAL(102UL, *item);
 9161              		.loc 3 305 0 is_stmt 0 discriminator 8
 9162 4ac1 488B08   		movq	(%rax), %rcx
 9163 4ac4 488D4590 		leaq	-112(%rbp), %rax
 9164 4ac8 BA310100 		movl	$305, %edx
 9164      00
 9165 4acd 4889CE   		movq	%rcx, %rsi
 9166 4ad0 4889C7   		movq	%rax, %rdi
 9167 4ad3 E8000000 		call	_ZN8UnitTest11TestDetailsC1ERKS0_i@PLT
 9167      00
 305:testCore.cpp  **** 	CHECK_EQUAL(102UL, *item);
 9168              		.loc 3 305 0 discriminator 12
 9169 4ad8 488D4590 		leaq	-112(%rbp), %rax
 9170 4adc 488D1500 		leaq	.LC3(%rip), %rdx
 9170      000000
 9171 4ae3 4889C6   		movq	%rax, %rsi
 9172 4ae6 4889DF   		movq	%rbx, %rdi
 9173 4ae9 E8000000 		call	_ZN8UnitTest11TestResults13OnTestFailureERKNS_11TestDetailsEPKc@PLT
 9173      00
 9174              	.LEHE542:
 9175              	.LEHB543:
 305:testCore.cpp  **** 	CHECK_EQUAL(102UL, *item);
 9176              		.loc 3 305 0 discriminator 14
 9177 4aee E8000000 		call	__cxa_end_catch@PLT
 9177      00
 9178              	.LEHE543:
 9179 4af3 E9CBF1FF 		jmp	.L622
 9179      FF
 9180              	.L742:
 9181 4af8 4889C3   		movq	%rax, %rbx
 305:testCore.cpp  **** 	CHECK_EQUAL(102UL, *item);
 9182              		.loc 3 305 0
 9183 4afb E8000000 		call	__cxa_end_catch@PLT
 9183      00
 9184 4b00 4889D8   		movq	%rbx, %rax
 9185 4b03 4889C7   		movq	%rax, %rdi
 9186              	.LEHB544:
 9187 4b06 E8000000 		call	_Unwind_Resume@PLT
 9187      00
 9188              	.LEHE544:
 9189              	.L744:
 9190 4b0b EB00     		jmp	.L625
 9191              	.L743:
 9192              	.L625:
 306:testCore.cpp  **** 	queueCommitTake(&queue);
 9193              		.loc 3 306 0 is_stmt 1
 9194 4b0d 4889C7   		movq	%rax, %rdi
 9195 4b10 E8000000 		call	__cxa_begin_catch@PLT
 9195      00
 9196              	.LEHB545:
 9197 4b15 E8000000 		call	_ZN8UnitTest11CurrentTest7ResultsEv@PLT
 9197      00
 9198 4b1a 488B18   		movq	(%rax), %rbx
 9199 4b1d E8000000 		call	_ZN8UnitTest11CurrentTest7DetailsEv@PLT
 9199      00
 306:testCore.cpp  **** 	queueCommitTake(&queue);
 9200              		.loc 3 306 0 is_stmt 0 discriminator 8
 9201 4b22 488B08   		movq	(%rax), %rcx
 9202 4b25 488D4590 		leaq	-112(%rbp), %rax
 9203 4b29 BA320100 		movl	$306, %edx
 9203      00
 9204 4b2e 4889CE   		movq	%rcx, %rsi
 9205 4b31 4889C7   		movq	%rax, %rdi
 9206 4b34 E8000000 		call	_ZN8UnitTest11TestDetailsC1ERKS0_i@PLT
 9206      00
 306:testCore.cpp  **** 	queueCommitTake(&queue);
 9207              		.loc 3 306 0 discriminator 12
 9208 4b39 488D4590 		leaq	-112(%rbp), %rax
 9209 4b3d 488D1500 		leaq	.LC49(%rip), %rdx
 9209      000000
 9210 4b44 4889C6   		movq	%rax, %rsi
 9211 4b47 4889DF   		movq	%rbx, %rdi
 9212 4b4a E8000000 		call	_ZN8UnitTest11TestResults13OnTestFailureERKNS_11TestDetailsEPKc@PLT
 9212      00
 9213              	.LEHE545:
 9214              	.LEHB546:
 306:testCore.cpp  **** 	queueCommitTake(&queue);
 9215              		.loc 3 306 0 discriminator 14
 9216 4b4f E8000000 		call	__cxa_end_catch@PLT
 9216      00
 9217              	.LEHE546:
 9218 4b54 E9B0F1FF 		jmp	.L626
 9218      FF
 9219              	.L745:
 9220 4b59 4889C3   		movq	%rax, %rbx
 306:testCore.cpp  **** 	queueCommitTake(&queue);
 9221              		.loc 3 306 0
 9222 4b5c E8000000 		call	__cxa_end_catch@PLT
 9222      00
 9223 4b61 4889D8   		movq	%rbx, %rax
 9224 4b64 4889C7   		movq	%rax, %rdi
 9225              	.LEHB547:
 9226 4b67 E8000000 		call	_Unwind_Resume@PLT
 9226      00
 9227              	.LEHE547:
 9228              	.L747:
 9229 4b6c EB00     		jmp	.L629
 9230              	.L746:
 9231              	.L629:
 309:testCore.cpp  **** 	CHECK_EQUAL(103UL, *item);
 9232              		.loc 3 309 0 is_stmt 1
 9233 4b6e 4889C7   		movq	%rax, %rdi
 9234 4b71 E8000000 		call	__cxa_begin_catch@PLT
 9234      00
 9235              	.LEHB548:
 9236 4b76 E8000000 		call	_ZN8UnitTest11CurrentTest7ResultsEv@PLT
 9236      00
 9237 4b7b 488B18   		movq	(%rax), %rbx
 9238 4b7e E8000000 		call	_ZN8UnitTest11CurrentTest7DetailsEv@PLT
 9238      00
 309:testCore.cpp  **** 	CHECK_EQUAL(103UL, *item);
 9239              		.loc 3 309 0 is_stmt 0 discriminator 8
 9240 4b83 488B08   		movq	(%rax), %rcx
 9241 4b86 488D4590 		leaq	-112(%rbp), %rax
 9242 4b8a BA350100 		movl	$309, %edx
 9242      00
 9243 4b8f 4889CE   		movq	%rcx, %rsi
 9244 4b92 4889C7   		movq	%rax, %rdi
 9245 4b95 E8000000 		call	_ZN8UnitTest11TestDetailsC1ERKS0_i@PLT
 9245      00
 309:testCore.cpp  **** 	CHECK_EQUAL(103UL, *item);
 9246              		.loc 3 309 0 discriminator 12
 9247 4b9a 488D4590 		leaq	-112(%rbp), %rax
 9248 4b9e 488D1500 		leaq	.LC3(%rip), %rdx
 9248      000000
 9249 4ba5 4889C6   		movq	%rax, %rsi
 9250 4ba8 4889DF   		movq	%rbx, %rdi
 9251 4bab E8000000 		call	_ZN8UnitTest11TestResults13OnTestFailureERKNS_11TestDetailsEPKc@PLT
 9251      00
 9252              	.LEHE548:
 9253              	.LEHB549:
 309:testCore.cpp  **** 	CHECK_EQUAL(103UL, *item);
 9254              		.loc 3 309 0 discriminator 14
 9255 4bb0 E8000000 		call	__cxa_end_catch@PLT
 9255      00
 9256              	.LEHE549:
 9257 4bb5 E9B6F1FF 		jmp	.L630
 9257      FF
 9258              	.L748:
 9259 4bba 4889C3   		movq	%rax, %rbx
 309:testCore.cpp  **** 	CHECK_EQUAL(103UL, *item);
 9260              		.loc 3 309 0
 9261 4bbd E8000000 		call	__cxa_end_catch@PLT
 9261      00
 9262 4bc2 4889D8   		movq	%rbx, %rax
 9263 4bc5 4889C7   		movq	%rax, %rdi
 9264              	.LEHB550:
 9265 4bc8 E8000000 		call	_Unwind_Resume@PLT
 9265      00
 9266              	.LEHE550:
 9267              	.L750:
 9268 4bcd EB00     		jmp	.L633
 9269              	.L749:
 9270              	.L633:
 310:testCore.cpp  **** 	queueCommitTake(&queue);
 9271              		.loc 3 310 0 is_stmt 1
 9272 4bcf 4889C7   		movq	%rax, %rdi
 9273 4bd2 E8000000 		call	__cxa_begin_catch@PLT
 9273      00
 9274              	.LEHB551:
 9275 4bd7 E8000000 		call	_ZN8UnitTest11CurrentTest7ResultsEv@PLT
 9275      00
 9276 4bdc 488B18   		movq	(%rax), %rbx
 9277 4bdf E8000000 		call	_ZN8UnitTest11CurrentTest7DetailsEv@PLT
 9277      00
 310:testCore.cpp  **** 	queueCommitTake(&queue);
 9278              		.loc 3 310 0 is_stmt 0 discriminator 8
 9279 4be4 488B08   		movq	(%rax), %rcx
 9280 4be7 488D4590 		leaq	-112(%rbp), %rax
 9281 4beb BA360100 		movl	$310, %edx
 9281      00
 9282 4bf0 4889CE   		movq	%rcx, %rsi
 9283 4bf3 4889C7   		movq	%rax, %rdi
 9284 4bf6 E8000000 		call	_ZN8UnitTest11TestDetailsC1ERKS0_i@PLT
 9284      00
 310:testCore.cpp  **** 	queueCommitTake(&queue);
 9285              		.loc 3 310 0 discriminator 12
 9286 4bfb 488D4590 		leaq	-112(%rbp), %rax
 9287 4bff 488D1500 		leaq	.LC50(%rip), %rdx
 9287      000000
 9288 4c06 4889C6   		movq	%rax, %rsi
 9289 4c09 4889DF   		movq	%rbx, %rdi
 9290 4c0c E8000000 		call	_ZN8UnitTest11TestResults13OnTestFailureERKNS_11TestDetailsEPKc@PLT
 9290      00
 9291              	.LEHE551:
 9292              	.LEHB552:
 310:testCore.cpp  **** 	queueCommitTake(&queue);
 9293              		.loc 3 310 0 discriminator 14
 9294 4c11 E8000000 		call	__cxa_end_catch@PLT
 9294      00
 9295              	.LEHE552:
 9296 4c16 E99BF1FF 		jmp	.L634
 9296      FF
 9297              	.L751:
 9298 4c1b 4889C3   		movq	%rax, %rbx
 310:testCore.cpp  **** 	queueCommitTake(&queue);
 9299              		.loc 3 310 0
 9300 4c1e E8000000 		call	__cxa_end_catch@PLT
 9300      00
 9301 4c23 4889D8   		movq	%rbx, %rax
 9302 4c26 4889C7   		movq	%rax, %rdi
 9303              	.LEHB553:
 9304 4c29 E8000000 		call	_Unwind_Resume@PLT
 9304      00
 9305              	.LEHE553:
 9306              	.L753:
 9307 4c2e EB00     		jmp	.L637
 9308              	.L752:
 9309              	.L637:
 313:testCore.cpp  **** 	CHECK_EQUAL(104UL, *item);
 9310              		.loc 3 313 0 is_stmt 1
 9311 4c30 4889C7   		movq	%rax, %rdi
 9312 4c33 E8000000 		call	__cxa_begin_catch@PLT
 9312      00
 9313              	.LEHB554:
 9314 4c38 E8000000 		call	_ZN8UnitTest11CurrentTest7ResultsEv@PLT
 9314      00
 9315 4c3d 488B18   		movq	(%rax), %rbx
 9316 4c40 E8000000 		call	_ZN8UnitTest11CurrentTest7DetailsEv@PLT
 9316      00
 313:testCore.cpp  **** 	CHECK_EQUAL(104UL, *item);
 9317              		.loc 3 313 0 is_stmt 0 discriminator 8
 9318 4c45 488B08   		movq	(%rax), %rcx
 9319 4c48 488D4590 		leaq	-112(%rbp), %rax
 9320 4c4c BA390100 		movl	$313, %edx
 9320      00
 9321 4c51 4889CE   		movq	%rcx, %rsi
 9322 4c54 4889C7   		movq	%rax, %rdi
 9323 4c57 E8000000 		call	_ZN8UnitTest11TestDetailsC1ERKS0_i@PLT
 9323      00
 313:testCore.cpp  **** 	CHECK_EQUAL(104UL, *item);
 9324              		.loc 3 313 0 discriminator 12
 9325 4c5c 488D4590 		leaq	-112(%rbp), %rax
 9326 4c60 488D1500 		leaq	.LC3(%rip), %rdx
 9326      000000
 9327 4c67 4889C6   		movq	%rax, %rsi
 9328 4c6a 4889DF   		movq	%rbx, %rdi
 9329 4c6d E8000000 		call	_ZN8UnitTest11TestResults13OnTestFailureERKNS_11TestDetailsEPKc@PLT
 9329      00
 9330              	.LEHE554:
 9331              	.LEHB555:
 313:testCore.cpp  **** 	CHECK_EQUAL(104UL, *item);
 9332              		.loc 3 313 0 discriminator 14
 9333 4c72 E8000000 		call	__cxa_end_catch@PLT
 9333      00
 9334              	.LEHE555:
 9335 4c77 E9A1F1FF 		jmp	.L638
 9335      FF
 9336              	.L754:
 9337 4c7c 4889C3   		movq	%rax, %rbx
 313:testCore.cpp  **** 	CHECK_EQUAL(104UL, *item);
 9338              		.loc 3 313 0
 9339 4c7f E8000000 		call	__cxa_end_catch@PLT
 9339      00
 9340 4c84 4889D8   		movq	%rbx, %rax
 9341 4c87 4889C7   		movq	%rax, %rdi
 9342              	.LEHB556:
 9343 4c8a E8000000 		call	_Unwind_Resume@PLT
 9343      00
 9344              	.LEHE556:
 9345              	.L756:
 9346 4c8f EB00     		jmp	.L641
 9347              	.L755:
 9348              	.L641:
 314:testCore.cpp  **** 	queueCommitTake(&queue);
 9349              		.loc 3 314 0 is_stmt 1
 9350 4c91 4889C7   		movq	%rax, %rdi
 9351 4c94 E8000000 		call	__cxa_begin_catch@PLT
 9351      00
 9352              	.LEHB557:
 9353 4c99 E8000000 		call	_ZN8UnitTest11CurrentTest7ResultsEv@PLT
 9353      00
 9354 4c9e 488B18   		movq	(%rax), %rbx
 9355 4ca1 E8000000 		call	_ZN8UnitTest11CurrentTest7DetailsEv@PLT
 9355      00
 314:testCore.cpp  **** 	queueCommitTake(&queue);
 9356              		.loc 3 314 0 is_stmt 0 discriminator 8
 9357 4ca6 488B08   		movq	(%rax), %rcx
 9358 4ca9 488D4590 		leaq	-112(%rbp), %rax
 9359 4cad BA3A0100 		movl	$314, %edx
 9359      00
 9360 4cb2 4889CE   		movq	%rcx, %rsi
 9361 4cb5 4889C7   		movq	%rax, %rdi
 9362 4cb8 E8000000 		call	_ZN8UnitTest11TestDetailsC1ERKS0_i@PLT
 9362      00
 314:testCore.cpp  **** 	queueCommitTake(&queue);
 9363              		.loc 3 314 0 discriminator 12
 9364 4cbd 488D4590 		leaq	-112(%rbp), %rax
 9365 4cc1 488D1500 		leaq	.LC51(%rip), %rdx
 9365      000000
 9366 4cc8 4889C6   		movq	%rax, %rsi
 9367 4ccb 4889DF   		movq	%rbx, %rdi
 9368 4cce E8000000 		call	_ZN8UnitTest11TestResults13OnTestFailureERKNS_11TestDetailsEPKc@PLT
 9368      00
 9369              	.LEHE557:
 9370              	.LEHB558:
 314:testCore.cpp  **** 	queueCommitTake(&queue);
 9371              		.loc 3 314 0 discriminator 14
 9372 4cd3 E8000000 		call	__cxa_end_catch@PLT
 9372      00
 9373              	.LEHE558:
 9374 4cd8 E986F1FF 		jmp	.L642
 9374      FF
 9375              	.L757:
 9376 4cdd 4889C3   		movq	%rax, %rbx
 314:testCore.cpp  **** 	queueCommitTake(&queue);
 9377              		.loc 3 314 0
 9378 4ce0 E8000000 		call	__cxa_end_catch@PLT
 9378      00
 9379 4ce5 4889D8   		movq	%rbx, %rax
 9380 4ce8 4889C7   		movq	%rax, %rdi
 9381              	.LEHB559:
 9382 4ceb E8000000 		call	_Unwind_Resume@PLT
 9382      00
 9383              	.LEHE559:
 9384              	.L759:
 9385 4cf0 EB00     		jmp	.L645
 9386              	.L758:
 9387              	.L645:
 319:testCore.cpp  **** 
 9388              		.loc 3 319 0 is_stmt 1
 9389 4cf2 4889C7   		movq	%rax, %rdi
 9390 4cf5 E8000000 		call	__cxa_begin_catch@PLT
 9390      00
 9391              	.LEHB560:
 9392 4cfa E8000000 		call	_ZN8UnitTest11CurrentTest7ResultsEv@PLT
 9392      00
 9393 4cff 488B18   		movq	(%rax), %rbx
 9394 4d02 E8000000 		call	_ZN8UnitTest11CurrentTest7DetailsEv@PLT
 9394      00
 319:testCore.cpp  **** 
 9395              		.loc 3 319 0 is_stmt 0 discriminator 8
 9396 4d07 488B08   		movq	(%rax), %rcx
 9397 4d0a 488D4590 		leaq	-112(%rbp), %rax
 9398 4d0e BA3F0100 		movl	$319, %edx
 9398      00
 9399 4d13 4889CE   		movq	%rcx, %rsi
 9400 4d16 4889C7   		movq	%rax, %rdi
 9401 4d19 E8000000 		call	_ZN8UnitTest11TestDetailsC1ERKS0_i@PLT
 9401      00
 319:testCore.cpp  **** 
 9402              		.loc 3 319 0 discriminator 12
 9403 4d1e 488D4590 		leaq	-112(%rbp), %rax
 9404 4d22 488D1500 		leaq	.LC52(%rip), %rdx
 9404      000000
 9405 4d29 4889C6   		movq	%rax, %rsi
 9406 4d2c 4889DF   		movq	%rbx, %rdi
 9407 4d2f E8000000 		call	_ZN8UnitTest11TestResults13OnTestFailureERKNS_11TestDetailsEPKc@PLT
 9407      00
 9408              	.LEHE560:
 9409              	.LEHB561:
 319:testCore.cpp  **** 
 9410              		.loc 3 319 0 discriminator 14
 9411 4d34 E8000000 		call	__cxa_end_catch@PLT
 9411      00
 9412              	.LEHE561:
 9413 4d39 E98CF1FF 		jmp	.L646
 9413      FF
 9414              	.L760:
 9415 4d3e 4889C3   		movq	%rax, %rbx
 319:testCore.cpp  **** 
 9416              		.loc 3 319 0
 9417 4d41 E8000000 		call	__cxa_end_catch@PLT
 9417      00
 9418 4d46 4889D8   		movq	%rbx, %rax
 9419 4d49 4889C7   		movq	%rax, %rdi
 9420              	.LEHB562:
 9421 4d4c E8000000 		call	_Unwind_Resume@PLT
 9421      00
 9422              	.LEHE562:
 9423              	.L761:
 9424              		.loc 3 322 0 is_stmt 1
 9425 4d51 E8000000 		call	__stack_chk_fail@PLT
 9425      00
 9426              	.L648:
 9427 4d56 4881C498 		addq	$152, %rsp
 9427      000000
 9428 4d5d 5B       		popq	%rbx
 9429 4d5e 5D       		popq	%rbp
 9430              		.cfi_def_cfa 7, 8
 9431 4d5f C3       		ret
 9432              		.cfi_endproc
 9433              	.LFE1119:
 9434              		.section	.gcc_except_table
 9435              		.align 4
 9436              	.LLSDA1119:
 9437 07f0 FF       		.byte	0xff
 9438 07f1 9B       		.byte	0x9b
 9439 07f2 F008     		.uleb128 .LLSDATT1119-.LLSDATTD1119
 9440              	.LLSDATTD1119:
 9441 07f4 01       		.byte	0x1
 9442 07f5 E408     		.uleb128 .LLSDACSE1119-.LLSDACSB1119
 9443              	.LLSDACSB1119:
 9444 07f7 46       		.uleb128 .LEHB360-.LFB1119
 9445 07f8 05       		.uleb128 .LEHE360-.LEHB360
 9446 07f9 00       		.uleb128 0
 9447 07fa 00       		.uleb128 0
 9448 07fb 51       		.uleb128 .LEHB361-.LFB1119
 9449 07fc 1C       		.uleb128 .LEHE361-.LEHB361
 9450 07fd F51A     		.uleb128 .L649-.LFB1119
 9451 07ff 01       		.uleb128 0x1
 9452 0800 74       		.uleb128 .LEHB362-.LFB1119
 9453 0801 1F       		.uleb128 .LEHE362-.LEHB362
 9454 0802 F31A     		.uleb128 .L650-.LFB1119
 9455 0804 03       		.uleb128 0x3
 9456 0805 B701     		.uleb128 .LEHB363-.LFB1119
 9457 0807 05       		.uleb128 .LEHE363-.LEHB363
 9458 0808 00       		.uleb128 0
 9459 0809 00       		.uleb128 0
 9460 080a C201     		.uleb128 .LEHB364-.LFB1119
 9461 080c 1C       		.uleb128 .LEHE364-.LEHB364
 9462 080d D61B     		.uleb128 .L652-.LFB1119
 9463 080f 01       		.uleb128 0x1
 9464 0810 E501     		.uleb128 .LEHB365-.LFB1119
 9465 0812 1F       		.uleb128 .LEHE365-.LEHB365
 9466 0813 D41B     		.uleb128 .L653-.LFB1119
 9467 0815 03       		.uleb128 0x3
 9468 0816 8402     		.uleb128 .LEHB366-.LFB1119
 9469 0818 1C       		.uleb128 .LEHE366-.LEHB366
 9470 0819 B71C     		.uleb128 .L655-.LFB1119
 9471 081b 01       		.uleb128 0x1
 9472 081c B602     		.uleb128 .LEHB367-.LFB1119
 9473 081e 1E       		.uleb128 .LEHE367-.LEHB367
 9474 081f B51C     		.uleb128 .L656-.LFB1119
 9475 0821 03       		.uleb128 0x3
 9476 0822 E502     		.uleb128 .LEHB368-.LFB1119
 9477 0824 18       		.uleb128 .LEHE368-.LEHB368
 9478 0825 00       		.uleb128 0
 9479 0826 00       		.uleb128 0
 9480 0827 8303     		.uleb128 .LEHB369-.LFB1119
 9481 0829 1C       		.uleb128 .LEHE369-.LEHB369
 9482 082a 981D     		.uleb128 .L658-.LFB1119
 9483 082c 01       		.uleb128 0x1
 9484 082d A603     		.uleb128 .LEHB370-.LFB1119
 9485 082f 1F       		.uleb128 .LEHE370-.LEHB370
 9486 0830 961D     		.uleb128 .L659-.LFB1119
 9487 0832 03       		.uleb128 0x3
 9488 0833 C503     		.uleb128 .LEHB371-.LFB1119
 9489 0835 1C       		.uleb128 .LEHE371-.LEHB371
 9490 0836 F91D     		.uleb128 .L661-.LFB1119
 9491 0838 01       		.uleb128 0x1
 9492 0839 FB03     		.uleb128 .LEHB372-.LFB1119
 9493 083b 1E       		.uleb128 .LEHE372-.LEHB372
 9494 083c F71D     		.uleb128 .L662-.LFB1119
 9495 083e 03       		.uleb128 0x3
 9496 083f AA04     		.uleb128 .LEHB373-.LFB1119
 9497 0841 18       		.uleb128 .LEHE373-.LEHB373
 9498 0842 00       		.uleb128 0
 9499 0843 00       		.uleb128 0
 9500 0844 C804     		.uleb128 .LEHB374-.LFB1119
 9501 0846 1C       		.uleb128 .LEHE374-.LEHB374
 9502 0847 DA1E     		.uleb128 .L664-.LFB1119
 9503 0849 01       		.uleb128 0x1
 9504 084a EB04     		.uleb128 .LEHB375-.LFB1119
 9505 084c 1F       		.uleb128 .LEHE375-.LEHB375
 9506 084d D81E     		.uleb128 .L665-.LFB1119
 9507 084f 03       		.uleb128 0x3
 9508 0850 8A05     		.uleb128 .LEHB376-.LFB1119
 9509 0852 1C       		.uleb128 .LEHE376-.LEHB376
 9510 0853 BB1F     		.uleb128 .L667-.LFB1119
 9511 0855 01       		.uleb128 0x1
 9512 0856 C005     		.uleb128 .LEHB377-.LFB1119
 9513 0858 1E       		.uleb128 .LEHE377-.LEHB377
 9514 0859 B91F     		.uleb128 .L668-.LFB1119
 9515 085b 03       		.uleb128 0x3
 9516 085c EF05     		.uleb128 .LEHB378-.LFB1119
 9517 085e 18       		.uleb128 .LEHE378-.LEHB378
 9518 085f 00       		.uleb128 0
 9519 0860 00       		.uleb128 0
 9520 0861 8D06     		.uleb128 .LEHB379-.LFB1119
 9521 0863 1C       		.uleb128 .LEHE379-.LEHB379
 9522 0864 9C20     		.uleb128 .L670-.LFB1119
 9523 0866 01       		.uleb128 0x1
 9524 0867 B006     		.uleb128 .LEHB380-.LFB1119
 9525 0869 1F       		.uleb128 .LEHE380-.LEHB380
 9526 086a 9A20     		.uleb128 .L671-.LFB1119
 9527 086c 03       		.uleb128 0x3
 9528 086d CF06     		.uleb128 .LEHB381-.LFB1119
 9529 086f 1C       		.uleb128 .LEHE381-.LEHB381
 9530 0870 FD20     		.uleb128 .L673-.LFB1119
 9531 0872 01       		.uleb128 0x1
 9532 0873 8507     		.uleb128 .LEHB382-.LFB1119
 9533 0875 1E       		.uleb128 .LEHE382-.LEHB382
 9534 0876 FB20     		.uleb128 .L674-.LFB1119
 9535 0878 03       		.uleb128 0x3
 9536 0879 B407     		.uleb128 .LEHB383-.LFB1119
 9537 087b 05       		.uleb128 .LEHE383-.LEHB383
 9538 087c 00       		.uleb128 0
 9539 087d 00       		.uleb128 0
 9540 087e B907     		.uleb128 .LEHB384-.LFB1119
 9541 0880 1C       		.uleb128 .LEHE384-.LEHB384
 9542 0881 DE21     		.uleb128 .L676-.LFB1119
 9543 0883 01       		.uleb128 0x1
 9544 0884 DD07     		.uleb128 .LEHB385-.LFB1119
 9545 0886 26       		.uleb128 .LEHE385-.LEHB385
 9546 0887 DC21     		.uleb128 .L677-.LFB1119
 9547 0889 03       		.uleb128 0x3
 9548 088a 8308     		.uleb128 .LEHB386-.LFB1119
 9549 088c 45       		.uleb128 .LEHE386-.LEHB386
 9550 088d BD22     		.uleb128 .L679-.LFB1119
 9551 088f 01       		.uleb128 0x1
 9552 0890 C808     		.uleb128 .LEHB387-.LFB1119
 9553 0892 45       		.uleb128 .LEHE387-.LEHB387
 9554 0893 9C23     		.uleb128 .L681-.LFB1119
 9555 0895 01       		.uleb128 0x1
 9556 0896 8D09     		.uleb128 .LEHB388-.LFB1119
 9557 0898 1C       		.uleb128 .LEHE388-.LEHB388
 9558 0899 FD23     		.uleb128 .L683-.LFB1119
 9559 089b 01       		.uleb128 0x1
 9560 089c B109     		.uleb128 .LEHB389-.LFB1119
 9561 089e 26       		.uleb128 .LEHE389-.LEHB389
 9562 089f FB23     		.uleb128 .L684-.LFB1119
 9563 08a1 03       		.uleb128 0x3
 9564 08a2 E509     		.uleb128 .LEHB390-.LFB1119
 9565 08a4 05       		.uleb128 .LEHE390-.LEHB390
 9566 08a5 00       		.uleb128 0
 9567 08a6 00       		.uleb128 0
 9568 08a7 F009     		.uleb128 .LEHB391-.LFB1119
 9569 08a9 1C       		.uleb128 .LEHE391-.LEHB391
 9570 08aa DE24     		.uleb128 .L686-.LFB1119
 9571 08ac 01       		.uleb128 0x1
 9572 08ad 930A     		.uleb128 .LEHB392-.LFB1119
 9573 08af 1F       		.uleb128 .LEHE392-.LEHB392
 9574 08b0 DC24     		.uleb128 .L687-.LFB1119
 9575 08b2 03       		.uleb128 0x3
 9576 08b3 B20A     		.uleb128 .LEHB393-.LFB1119
 9577 08b5 1C       		.uleb128 .LEHE393-.LEHB393
 9578 08b6 BF25     		.uleb128 .L689-.LFB1119
 9579 08b8 01       		.uleb128 0x1
 9580 08b9 DA0A     		.uleb128 .LEHB394-.LFB1119
 9581 08bb 1E       		.uleb128 .LEHE394-.LEHB394
 9582 08bc BD25     		.uleb128 .L690-.LFB1119
 9583 08be 03       		.uleb128 0x3
 9584 08bf 890B     		.uleb128 .LEHB395-.LFB1119
 9585 08c1 05       		.uleb128 .LEHE395-.LEHB395
 9586 08c2 00       		.uleb128 0
 9587 08c3 00       		.uleb128 0
 9588 08c4 8E0B     		.uleb128 .LEHB396-.LFB1119
 9589 08c6 1C       		.uleb128 .LEHE396-.LEHB396
 9590 08c7 A026     		.uleb128 .L692-.LFB1119
 9591 08c9 01       		.uleb128 0x1
 9592 08ca B20B     		.uleb128 .LEHB397-.LFB1119
 9593 08cc 26       		.uleb128 .LEHE397-.LEHB397
 9594 08cd 9E26     		.uleb128 .L693-.LFB1119
 9595 08cf 03       		.uleb128 0x3
 9596 08d0 D80B     		.uleb128 .LEHB398-.LFB1119
 9597 08d2 1C       		.uleb128 .LEHE398-.LEHB398
 9598 08d3 8127     		.uleb128 .L695-.LFB1119
 9599 08d5 01       		.uleb128 0x1
 9600 08d6 FC0B     		.uleb128 .LEHB399-.LFB1119
 9601 08d8 26       		.uleb128 .LEHE399-.LEHB399
 9602 08d9 FF26     		.uleb128 .L696-.LFB1119
 9603 08db 03       		.uleb128 0x3
 9604 08dc A20C     		.uleb128 .LEHB400-.LFB1119
 9605 08de 1C       		.uleb128 .LEHE400-.LEHB400
 9606 08df E227     		.uleb128 .L698-.LFB1119
 9607 08e1 01       		.uleb128 0x1
 9608 08e2 C60C     		.uleb128 .LEHB401-.LFB1119
 9609 08e4 26       		.uleb128 .LEHE401-.LEHB401
 9610 08e5 E027     		.uleb128 .L699-.LFB1119
 9611 08e7 03       		.uleb128 0x3
 9612 08e8 EC0C     		.uleb128 .LEHB402-.LFB1119
 9613 08ea 1C       		.uleb128 .LEHE402-.LEHB402
 9614 08eb C328     		.uleb128 .L701-.LFB1119
 9615 08ed 01       		.uleb128 0x1
 9616 08ee 900D     		.uleb128 .LEHB403-.LFB1119
 9617 08f0 26       		.uleb128 .LEHE403-.LEHB403
 9618 08f1 C128     		.uleb128 .L702-.LFB1119
 9619 08f3 03       		.uleb128 0x3
 9620 08f4 B60D     		.uleb128 .LEHB404-.LFB1119
 9621 08f6 1C       		.uleb128 .LEHE404-.LEHB404
 9622 08f7 A429     		.uleb128 .L704-.LFB1119
 9623 08f9 01       		.uleb128 0x1
 9624 08fa EF0D     		.uleb128 .LEHB405-.LFB1119
 9625 08fc 1F       		.uleb128 .LEHE405-.LEHB405
 9626 08fd A229     		.uleb128 .L705-.LFB1119
 9627 08ff 03       		.uleb128 0x3
 9628 0900 8E0E     		.uleb128 .LEHB406-.LFB1119
 9629 0902 1C       		.uleb128 .LEHE406-.LEHB406
 9630 0903 852A     		.uleb128 .L707-.LFB1119
 9631 0905 01       		.uleb128 0x1
 9632 0906 CB0E     		.uleb128 .LEHB407-.LFB1119
 9633 0908 1F       		.uleb128 .LEHE407-.LEHB407
 9634 0909 832A     		.uleb128 .L708-.LFB1119
 9635 090b 03       		.uleb128 0x3
 9636 090c EA0E     		.uleb128 .LEHB408-.LFB1119
 9637 090e 1C       		.uleb128 .LEHE408-.LEHB408
 9638 090f E62A     		.uleb128 .L710-.LFB1119
 9639 0911 01       		.uleb128 0x1
 9640 0912 A70F     		.uleb128 .LEHB409-.LFB1119
 9641 0914 1F       		.uleb128 .LEHE409-.LEHB409
 9642 0915 E42A     		.uleb128 .L711-.LFB1119
 9643 0917 03       		.uleb128 0x3
 9644 0918 C60F     		.uleb128 .LEHB410-.LFB1119
 9645 091a 1C       		.uleb128 .LEHE410-.LEHB410
 9646 091b C72B     		.uleb128 .L713-.LFB1119
 9647 091d 01       		.uleb128 0x1
 9648 091e 8310     		.uleb128 .LEHB411-.LFB1119
 9649 0920 1F       		.uleb128 .LEHE411-.LEHB411
 9650 0921 C52B     		.uleb128 .L714-.LFB1119
 9651 0923 03       		.uleb128 0x3
 9652 0924 A210     		.uleb128 .LEHB412-.LFB1119
 9653 0926 1C       		.uleb128 .LEHE412-.LEHB412
 9654 0927 A82C     		.uleb128 .L716-.LFB1119
 9655 0929 01       		.uleb128 0x1
 9656 092a DF10     		.uleb128 .LEHB413-.LFB1119
 9657 092c 1F       		.uleb128 .LEHE413-.LEHB413
 9658 092d A62C     		.uleb128 .L717-.LFB1119
 9659 092f 03       		.uleb128 0x3
 9660 0930 FE10     		.uleb128 .LEHB414-.LFB1119
 9661 0932 1C       		.uleb128 .LEHE414-.LEHB414
 9662 0933 892D     		.uleb128 .L719-.LFB1119
 9663 0935 01       		.uleb128 0x1
 9664 0936 BB11     		.uleb128 .LEHB415-.LFB1119
 9665 0938 1F       		.uleb128 .LEHE415-.LEHB415
 9666 0939 872D     		.uleb128 .L720-.LFB1119
 9667 093b 03       		.uleb128 0x3
 9668 093c DA11     		.uleb128 .LEHB416-.LFB1119
 9669 093e 1C       		.uleb128 .LEHE416-.LEHB416
 9670 093f EA2D     		.uleb128 .L722-.LFB1119
 9671 0941 01       		.uleb128 0x1
 9672 0942 9712     		.uleb128 .LEHB417-.LFB1119
 9673 0944 1F       		.uleb128 .LEHE417-.LEHB417
 9674 0945 E82D     		.uleb128 .L723-.LFB1119
 9675 0947 03       		.uleb128 0x3
 9676 0948 B612     		.uleb128 .LEHB418-.LFB1119
 9677 094a 1C       		.uleb128 .LEHE418-.LEHB418
 9678 094b CB2E     		.uleb128 .L725-.LFB1119
 9679 094d 01       		.uleb128 0x1
 9680 094e F312     		.uleb128 .LEHB419-.LFB1119
 9681 0950 1F       		.uleb128 .LEHE419-.LEHB419
 9682 0951 C92E     		.uleb128 .L726-.LFB1119
 9683 0953 03       		.uleb128 0x3
 9684 0954 A013     		.uleb128 .LEHB420-.LFB1119
 9685 0956 05       		.uleb128 .LEHE420-.LEHB420
 9686 0957 00       		.uleb128 0
 9687 0958 00       		.uleb128 0
 9688 0959 AB13     		.uleb128 .LEHB421-.LFB1119
 9689 095b 1C       		.uleb128 .LEHE421-.LEHB421
 9690 095c AC2F     		.uleb128 .L728-.LFB1119
 9691 095e 01       		.uleb128 0x1
 9692 095f CE13     		.uleb128 .LEHB422-.LFB1119
 9693 0961 1F       		.uleb128 .LEHE422-.LEHB422
 9694 0962 AA2F     		.uleb128 .L729-.LFB1119
 9695 0964 03       		.uleb128 0x3
 9696 0965 ED13     		.uleb128 .LEHB423-.LFB1119
 9697 0967 1C       		.uleb128 .LEHE423-.LEHB423
 9698 0968 8D30     		.uleb128 .L731-.LFB1119
 9699 096a 01       		.uleb128 0x1
 9700 096b 9514     		.uleb128 .LEHB424-.LFB1119
 9701 096d 1E       		.uleb128 .LEHE424-.LEHB424
 9702 096e 8B30     		.uleb128 .L732-.LFB1119
 9703 0970 03       		.uleb128 0x3
 9704 0971 BA14     		.uleb128 .LEHB425-.LFB1119
 9705 0973 18       		.uleb128 .LEHE425-.LEHB425
 9706 0974 00       		.uleb128 0
 9707 0975 00       		.uleb128 0
 9708 0976 D814     		.uleb128 .LEHB426-.LFB1119
 9709 0978 1C       		.uleb128 .LEHE426-.LEHB426
 9710 0979 EE30     		.uleb128 .L734-.LFB1119
 9711 097b 01       		.uleb128 0x1
 9712 097c FB14     		.uleb128 .LEHB427-.LFB1119
 9713 097e 1F       		.uleb128 .LEHE427-.LEHB427
 9714 097f EC30     		.uleb128 .L735-.LFB1119
 9715 0981 03       		.uleb128 0x3
 9716 0982 9A15     		.uleb128 .LEHB428-.LFB1119
 9717 0984 1C       		.uleb128 .LEHE428-.LEHB428
 9718 0985 CF31     		.uleb128 .L737-.LFB1119
 9719 0987 01       		.uleb128 0x1
 9720 0988 C215     		.uleb128 .LEHB429-.LFB1119
 9721 098a 1E       		.uleb128 .LEHE429-.LEHB429
 9722 098b CD31     		.uleb128 .L738-.LFB1119
 9723 098d 03       		.uleb128 0x3
 9724 098e E715     		.uleb128 .LEHB430-.LFB1119
 9725 0990 18       		.uleb128 .LEHE430-.LEHB430
 9726 0991 00       		.uleb128 0
 9727 0992 00       		.uleb128 0
 9728 0993 8516     		.uleb128 .LEHB431-.LFB1119
 9729 0995 1C       		.uleb128 .LEHE431-.LEHB431
 9730 0996 B032     		.uleb128 .L740-.LFB1119
 9731 0998 01       		.uleb128 0x1
 9732 0999 A816     		.uleb128 .LEHB432-.LFB1119
 9733 099b 1F       		.uleb128 .LEHE432-.LEHB432
 9734 099c AE32     		.uleb128 .L741-.LFB1119
 9735 099e 03       		.uleb128 0x3
 9736 099f C716     		.uleb128 .LEHB433-.LFB1119
 9737 09a1 1C       		.uleb128 .LEHE433-.LEHB433
 9738 09a2 9133     		.uleb128 .L743-.LFB1119
 9739 09a4 01       		.uleb128 0x1
 9740 09a5 EF16     		.uleb128 .LEHB434-.LFB1119
 9741 09a7 1E       		.uleb128 .LEHE434-.LEHB434
 9742 09a8 8F33     		.uleb128 .L744-.LFB1119
 9743 09aa 03       		.uleb128 0x3
 9744 09ab 9417     		.uleb128 .LEHB435-.LFB1119
 9745 09ad 18       		.uleb128 .LEHE435-.LEHB435
 9746 09ae 00       		.uleb128 0
 9747 09af 00       		.uleb128 0
 9748 09b0 B217     		.uleb128 .LEHB436-.LFB1119
 9749 09b2 1C       		.uleb128 .LEHE436-.LEHB436
 9750 09b3 F233     		.uleb128 .L746-.LFB1119
 9751 09b5 01       		.uleb128 0x1
 9752 09b6 D517     		.uleb128 .LEHB437-.LFB1119
 9753 09b8 1F       		.uleb128 .LEHE437-.LEHB437
 9754 09b9 F033     		.uleb128 .L747-.LFB1119
 9755 09bb 03       		.uleb128 0x3
 9756 09bc F417     		.uleb128 .LEHB438-.LFB1119
 9757 09be 1C       		.uleb128 .LEHE438-.LEHB438
 9758 09bf D334     		.uleb128 .L749-.LFB1119
 9759 09c1 01       		.uleb128 0x1
 9760 09c2 9C18     		.uleb128 .LEHB439-.LFB1119
 9761 09c4 1E       		.uleb128 .LEHE439-.LEHB439
 9762 09c5 D134     		.uleb128 .L750-.LFB1119
 9763 09c7 03       		.uleb128 0x3
 9764 09c8 C118     		.uleb128 .LEHB440-.LFB1119
 9765 09ca 18       		.uleb128 .LEHE440-.LEHB440
 9766 09cb 00       		.uleb128 0
 9767 09cc 00       		.uleb128 0
 9768 09cd DF18     		.uleb128 .LEHB441-.LFB1119
 9769 09cf 1C       		.uleb128 .LEHE441-.LEHB441
 9770 09d0 B435     		.uleb128 .L752-.LFB1119
 9771 09d2 01       		.uleb128 0x1
 9772 09d3 8219     		.uleb128 .LEHB442-.LFB1119
 9773 09d5 1F       		.uleb128 .LEHE442-.LEHB442
 9774 09d6 B235     		.uleb128 .L753-.LFB1119
 9775 09d8 03       		.uleb128 0x3
 9776 09d9 A119     		.uleb128 .LEHB443-.LFB1119
 9777 09db 1C       		.uleb128 .LEHE443-.LEHB443
 9778 09dc 9536     		.uleb128 .L755-.LFB1119
 9779 09de 01       		.uleb128 0x1
 9780 09df C919     		.uleb128 .LEHB444-.LFB1119
 9781 09e1 1E       		.uleb128 .LEHE444-.LEHB444
 9782 09e2 9336     		.uleb128 .L756-.LFB1119
 9783 09e4 03       		.uleb128 0x3
 9784 09e5 EE19     		.uleb128 .LEHB445-.LFB1119
 9785 09e7 18       		.uleb128 .LEHE445-.LEHB445
 9786 09e8 00       		.uleb128 0
 9787 09e9 00       		.uleb128 0
 9788 09ea 8C1A     		.uleb128 .LEHB446-.LFB1119
 9789 09ec 1C       		.uleb128 .LEHE446-.LEHB446
 9790 09ed F636     		.uleb128 .L758-.LFB1119
 9791 09ef 01       		.uleb128 0x1
 9792 09f0 AF1A     		.uleb128 .LEHB447-.LFB1119
 9793 09f2 1F       		.uleb128 .LEHE447-.LEHB447
 9794 09f3 F436     		.uleb128 .L759-.LFB1119
 9795 09f5 03       		.uleb128 0x3
 9796 09f6 D51A     		.uleb128 .LEHB448-.LFB1119
 9797 09f8 05       		.uleb128 .LEHE448-.LEHB448
 9798 09f9 00       		.uleb128 0
 9799 09fa 00       		.uleb128 0
 9800 09fb FD1A     		.uleb128 .LEHB449-.LFB1119
 9801 09fd 3A       		.uleb128 .LEHE449-.LEHB449
 9802 09fe C11B     		.uleb128 .L651-.LFB1119
 9803 0a00 00       		.uleb128 0
 9804 0a01 B71B     		.uleb128 .LEHB450-.LFB1119
 9805 0a03 05       		.uleb128 .LEHE450-.LEHB450
 9806 0a04 00       		.uleb128 0
 9807 0a05 00       		.uleb128 0
 9808 0a06 CF1B     		.uleb128 .LEHB451-.LFB1119
 9809 0a08 05       		.uleb128 .LEHE451-.LEHB451
 9810 0a09 00       		.uleb128 0
 9811 0a0a 00       		.uleb128 0
 9812 0a0b DE1B     		.uleb128 .LEHB452-.LFB1119
 9813 0a0d 3A       		.uleb128 .LEHE452-.LEHB452
 9814 0a0e A21C     		.uleb128 .L654-.LFB1119
 9815 0a10 00       		.uleb128 0
 9816 0a11 981C     		.uleb128 .LEHB453-.LFB1119
 9817 0a13 05       		.uleb128 .LEHE453-.LEHB453
 9818 0a14 00       		.uleb128 0
 9819 0a15 00       		.uleb128 0
 9820 0a16 B01C     		.uleb128 .LEHB454-.LFB1119
 9821 0a18 05       		.uleb128 .LEHE454-.LEHB454
 9822 0a19 00       		.uleb128 0
 9823 0a1a 00       		.uleb128 0
 9824 0a1b BF1C     		.uleb128 .LEHB455-.LFB1119
 9825 0a1d 3A       		.uleb128 .LEHE455-.LEHB455
 9826 0a1e 831D     		.uleb128 .L657-.LFB1119
 9827 0a20 00       		.uleb128 0
 9828 0a21 F91C     		.uleb128 .LEHB456-.LFB1119
 9829 0a23 05       		.uleb128 .LEHE456-.LEHB456
 9830 0a24 00       		.uleb128 0
 9831 0a25 00       		.uleb128 0
 9832 0a26 911D     		.uleb128 .LEHB457-.LFB1119
 9833 0a28 05       		.uleb128 .LEHE457-.LEHB457
 9834 0a29 00       		.uleb128 0
 9835 0a2a 00       		.uleb128 0
 9836 0a2b A01D     		.uleb128 .LEHB458-.LFB1119
 9837 0a2d 3A       		.uleb128 .LEHE458-.LEHB458
 9838 0a2e E41D     		.uleb128 .L660-.LFB1119
 9839 0a30 00       		.uleb128 0
 9840 0a31 DA1D     		.uleb128 .LEHB459-.LFB1119
 9841 0a33 05       		.uleb128 .LEHE459-.LEHB459
 9842 0a34 00       		.uleb128 0
 9843 0a35 00       		.uleb128 0
 9844 0a36 F21D     		.uleb128 .LEHB460-.LFB1119
 9845 0a38 05       		.uleb128 .LEHE460-.LEHB460
 9846 0a39 00       		.uleb128 0
 9847 0a3a 00       		.uleb128 0
 9848 0a3b 811E     		.uleb128 .LEHB461-.LFB1119
 9849 0a3d 3A       		.uleb128 .LEHE461-.LEHB461
 9850 0a3e C51E     		.uleb128 .L663-.LFB1119
 9851 0a40 00       		.uleb128 0
 9852 0a41 BB1E     		.uleb128 .LEHB462-.LFB1119
 9853 0a43 05       		.uleb128 .LEHE462-.LEHB462
 9854 0a44 00       		.uleb128 0
 9855 0a45 00       		.uleb128 0
 9856 0a46 D31E     		.uleb128 .LEHB463-.LFB1119
 9857 0a48 05       		.uleb128 .LEHE463-.LEHB463
 9858 0a49 00       		.uleb128 0
 9859 0a4a 00       		.uleb128 0
 9860 0a4b E21E     		.uleb128 .LEHB464-.LFB1119
 9861 0a4d 3A       		.uleb128 .LEHE464-.LEHB464
 9862 0a4e A61F     		.uleb128 .L666-.LFB1119
 9863 0a50 00       		.uleb128 0
 9864 0a51 9C1F     		.uleb128 .LEHB465-.LFB1119
 9865 0a53 05       		.uleb128 .LEHE465-.LEHB465
 9866 0a54 00       		.uleb128 0
 9867 0a55 00       		.uleb128 0
 9868 0a56 B41F     		.uleb128 .LEHB466-.LFB1119
 9869 0a58 05       		.uleb128 .LEHE466-.LEHB466
 9870 0a59 00       		.uleb128 0
 9871 0a5a 00       		.uleb128 0
 9872 0a5b C31F     		.uleb128 .LEHB467-.LFB1119
 9873 0a5d 3A       		.uleb128 .LEHE467-.LEHB467
 9874 0a5e 8720     		.uleb128 .L669-.LFB1119
 9875 0a60 00       		.uleb128 0
 9876 0a61 FD1F     		.uleb128 .LEHB468-.LFB1119
 9877 0a63 05       		.uleb128 .LEHE468-.LEHB468
 9878 0a64 00       		.uleb128 0
 9879 0a65 00       		.uleb128 0
 9880 0a66 9520     		.uleb128 .LEHB469-.LFB1119
 9881 0a68 05       		.uleb128 .LEHE469-.LEHB469
 9882 0a69 00       		.uleb128 0
 9883 0a6a 00       		.uleb128 0
 9884 0a6b A420     		.uleb128 .LEHB470-.LFB1119
 9885 0a6d 3A       		.uleb128 .LEHE470-.LEHB470
 9886 0a6e E820     		.uleb128 .L672-.LFB1119
 9887 0a70 00       		.uleb128 0
 9888 0a71 DE20     		.uleb128 .LEHB471-.LFB1119
 9889 0a73 05       		.uleb128 .LEHE471-.LEHB471
 9890 0a74 00       		.uleb128 0
 9891 0a75 00       		.uleb128 0
 9892 0a76 F620     		.uleb128 .LEHB472-.LFB1119
 9893 0a78 05       		.uleb128 .LEHE472-.LEHB472
 9894 0a79 00       		.uleb128 0
 9895 0a7a 00       		.uleb128 0
 9896 0a7b 8521     		.uleb128 .LEHB473-.LFB1119
 9897 0a7d 3A       		.uleb128 .LEHE473-.LEHB473
 9898 0a7e C921     		.uleb128 .L675-.LFB1119
 9899 0a80 00       		.uleb128 0
 9900 0a81 BF21     		.uleb128 .LEHB474-.LFB1119
 9901 0a83 05       		.uleb128 .LEHE474-.LEHB474
 9902 0a84 00       		.uleb128 0
 9903 0a85 00       		.uleb128 0
 9904 0a86 D721     		.uleb128 .LEHB475-.LFB1119
 9905 0a88 05       		.uleb128 .LEHE475-.LEHB475
 9906 0a89 00       		.uleb128 0
 9907 0a8a 00       		.uleb128 0
 9908 0a8b E621     		.uleb128 .LEHB476-.LFB1119
 9909 0a8d 3A       		.uleb128 .LEHE476-.LEHB476
 9910 0a8e AA22     		.uleb128 .L678-.LFB1119
 9911 0a90 00       		.uleb128 0
 9912 0a91 A022     		.uleb128 .LEHB477-.LFB1119
 9913 0a93 05       		.uleb128 .LEHE477-.LEHB477
 9914 0a94 00       		.uleb128 0
 9915 0a95 00       		.uleb128 0
 9916 0a96 B822     		.uleb128 .LEHB478-.LFB1119
 9917 0a98 05       		.uleb128 .LEHE478-.LEHB478
 9918 0a99 00       		.uleb128 0
 9919 0a9a 00       		.uleb128 0
 9920 0a9b C522     		.uleb128 .LEHB479-.LFB1119
 9921 0a9d 3A       		.uleb128 .LEHE479-.LEHB479
 9922 0a9e 8923     		.uleb128 .L680-.LFB1119
 9923 0aa0 00       		.uleb128 0
 9924 0aa1 FF22     		.uleb128 .LEHB480-.LFB1119
 9925 0aa3 05       		.uleb128 .LEHE480-.LEHB480
 9926 0aa4 00       		.uleb128 0
 9927 0aa5 00       		.uleb128 0
 9928 0aa6 9723     		.uleb128 .LEHB481-.LFB1119
 9929 0aa8 05       		.uleb128 .LEHE481-.LEHB481
 9930 0aa9 00       		.uleb128 0
 9931 0aaa 00       		.uleb128 0
 9932 0aab A423     		.uleb128 .LEHB482-.LFB1119
 9933 0aad 3A       		.uleb128 .LEHE482-.LEHB482
 9934 0aae E823     		.uleb128 .L682-.LFB1119
 9935 0ab0 00       		.uleb128 0
 9936 0ab1 DE23     		.uleb128 .LEHB483-.LFB1119
 9937 0ab3 05       		.uleb128 .LEHE483-.LEHB483
 9938 0ab4 00       		.uleb128 0
 9939 0ab5 00       		.uleb128 0
 9940 0ab6 F623     		.uleb128 .LEHB484-.LFB1119
 9941 0ab8 05       		.uleb128 .LEHE484-.LEHB484
 9942 0ab9 00       		.uleb128 0
 9943 0aba 00       		.uleb128 0
 9944 0abb 8524     		.uleb128 .LEHB485-.LFB1119
 9945 0abd 3A       		.uleb128 .LEHE485-.LEHB485
 9946 0abe C924     		.uleb128 .L685-.LFB1119
 9947 0ac0 00       		.uleb128 0
 9948 0ac1 BF24     		.uleb128 .LEHB486-.LFB1119
 9949 0ac3 05       		.uleb128 .LEHE486-.LEHB486
 9950 0ac4 00       		.uleb128 0
 9951 0ac5 00       		.uleb128 0
 9952 0ac6 D724     		.uleb128 .LEHB487-.LFB1119
 9953 0ac8 05       		.uleb128 .LEHE487-.LEHB487
 9954 0ac9 00       		.uleb128 0
 9955 0aca 00       		.uleb128 0
 9956 0acb E624     		.uleb128 .LEHB488-.LFB1119
 9957 0acd 3A       		.uleb128 .LEHE488-.LEHB488
 9958 0ace AA25     		.uleb128 .L688-.LFB1119
 9959 0ad0 00       		.uleb128 0
 9960 0ad1 A025     		.uleb128 .LEHB489-.LFB1119
 9961 0ad3 05       		.uleb128 .LEHE489-.LEHB489
 9962 0ad4 00       		.uleb128 0
 9963 0ad5 00       		.uleb128 0
 9964 0ad6 B825     		.uleb128 .LEHB490-.LFB1119
 9965 0ad8 05       		.uleb128 .LEHE490-.LEHB490
 9966 0ad9 00       		.uleb128 0
 9967 0ada 00       		.uleb128 0
 9968 0adb C725     		.uleb128 .LEHB491-.LFB1119
 9969 0add 3A       		.uleb128 .LEHE491-.LEHB491
 9970 0ade 8B26     		.uleb128 .L691-.LFB1119
 9971 0ae0 00       		.uleb128 0
 9972 0ae1 8126     		.uleb128 .LEHB492-.LFB1119
 9973 0ae3 05       		.uleb128 .LEHE492-.LEHB492
 9974 0ae4 00       		.uleb128 0
 9975 0ae5 00       		.uleb128 0
 9976 0ae6 9926     		.uleb128 .LEHB493-.LFB1119
 9977 0ae8 05       		.uleb128 .LEHE493-.LEHB493
 9978 0ae9 00       		.uleb128 0
 9979 0aea 00       		.uleb128 0
 9980 0aeb A826     		.uleb128 .LEHB494-.LFB1119
 9981 0aed 3A       		.uleb128 .LEHE494-.LEHB494
 9982 0aee EC26     		.uleb128 .L694-.LFB1119
 9983 0af0 00       		.uleb128 0
 9984 0af1 E226     		.uleb128 .LEHB495-.LFB1119
 9985 0af3 05       		.uleb128 .LEHE495-.LEHB495
 9986 0af4 00       		.uleb128 0
 9987 0af5 00       		.uleb128 0
 9988 0af6 FA26     		.uleb128 .LEHB496-.LFB1119
 9989 0af8 05       		.uleb128 .LEHE496-.LEHB496
 9990 0af9 00       		.uleb128 0
 9991 0afa 00       		.uleb128 0
 9992 0afb 8927     		.uleb128 .LEHB497-.LFB1119
 9993 0afd 3A       		.uleb128 .LEHE497-.LEHB497
 9994 0afe CD27     		.uleb128 .L697-.LFB1119
 9995 0b00 00       		.uleb128 0
 9996 0b01 C327     		.uleb128 .LEHB498-.LFB1119
 9997 0b03 05       		.uleb128 .LEHE498-.LEHB498
 9998 0b04 00       		.uleb128 0
 9999 0b05 00       		.uleb128 0
 10000 0b06 DB27     		.uleb128 .LEHB499-.LFB1119
 10001 0b08 05       		.uleb128 .LEHE499-.LEHB499
 10002 0b09 00       		.uleb128 0
 10003 0b0a 00       		.uleb128 0
 10004 0b0b EA27     		.uleb128 .LEHB500-.LFB1119
 10005 0b0d 3A       		.uleb128 .LEHE500-.LEHB500
 10006 0b0e AE28     		.uleb128 .L700-.LFB1119
 10007 0b10 00       		.uleb128 0
 10008 0b11 A428     		.uleb128 .LEHB501-.LFB1119
 10009 0b13 05       		.uleb128 .LEHE501-.LEHB501
 10010 0b14 00       		.uleb128 0
 10011 0b15 00       		.uleb128 0
 10012 0b16 BC28     		.uleb128 .LEHB502-.LFB1119
 10013 0b18 05       		.uleb128 .LEHE502-.LEHB502
 10014 0b19 00       		.uleb128 0
 10015 0b1a 00       		.uleb128 0
 10016 0b1b CB28     		.uleb128 .LEHB503-.LFB1119
 10017 0b1d 3A       		.uleb128 .LEHE503-.LEHB503
 10018 0b1e 8F29     		.uleb128 .L703-.LFB1119
 10019 0b20 00       		.uleb128 0
 10020 0b21 8529     		.uleb128 .LEHB504-.LFB1119
 10021 0b23 05       		.uleb128 .LEHE504-.LEHB504
 10022 0b24 00       		.uleb128 0
 10023 0b25 00       		.uleb128 0
 10024 0b26 9D29     		.uleb128 .LEHB505-.LFB1119
 10025 0b28 05       		.uleb128 .LEHE505-.LEHB505
 10026 0b29 00       		.uleb128 0
 10027 0b2a 00       		.uleb128 0
 10028 0b2b AC29     		.uleb128 .LEHB506-.LFB1119
 10029 0b2d 3A       		.uleb128 .LEHE506-.LEHB506
 10030 0b2e F029     		.uleb128 .L706-.LFB1119
 10031 0b30 00       		.uleb128 0
 10032 0b31 E629     		.uleb128 .LEHB507-.LFB1119
 10033 0b33 05       		.uleb128 .LEHE507-.LEHB507
 10034 0b34 00       		.uleb128 0
 10035 0b35 00       		.uleb128 0
 10036 0b36 FE29     		.uleb128 .LEHB508-.LFB1119
 10037 0b38 05       		.uleb128 .LEHE508-.LEHB508
 10038 0b39 00       		.uleb128 0
 10039 0b3a 00       		.uleb128 0
 10040 0b3b 8D2A     		.uleb128 .LEHB509-.LFB1119
 10041 0b3d 3A       		.uleb128 .LEHE509-.LEHB509
 10042 0b3e D12A     		.uleb128 .L709-.LFB1119
 10043 0b40 00       		.uleb128 0
 10044 0b41 C72A     		.uleb128 .LEHB510-.LFB1119
 10045 0b43 05       		.uleb128 .LEHE510-.LEHB510
 10046 0b44 00       		.uleb128 0
 10047 0b45 00       		.uleb128 0
 10048 0b46 DF2A     		.uleb128 .LEHB511-.LFB1119
 10049 0b48 05       		.uleb128 .LEHE511-.LEHB511
 10050 0b49 00       		.uleb128 0
 10051 0b4a 00       		.uleb128 0
 10052 0b4b EE2A     		.uleb128 .LEHB512-.LFB1119
 10053 0b4d 3A       		.uleb128 .LEHE512-.LEHB512
 10054 0b4e B22B     		.uleb128 .L712-.LFB1119
 10055 0b50 00       		.uleb128 0
 10056 0b51 A82B     		.uleb128 .LEHB513-.LFB1119
 10057 0b53 05       		.uleb128 .LEHE513-.LEHB513
 10058 0b54 00       		.uleb128 0
 10059 0b55 00       		.uleb128 0
 10060 0b56 C02B     		.uleb128 .LEHB514-.LFB1119
 10061 0b58 05       		.uleb128 .LEHE514-.LEHB514
 10062 0b59 00       		.uleb128 0
 10063 0b5a 00       		.uleb128 0
 10064 0b5b CF2B     		.uleb128 .LEHB515-.LFB1119
 10065 0b5d 3A       		.uleb128 .LEHE515-.LEHB515
 10066 0b5e 932C     		.uleb128 .L715-.LFB1119
 10067 0b60 00       		.uleb128 0
 10068 0b61 892C     		.uleb128 .LEHB516-.LFB1119
 10069 0b63 05       		.uleb128 .LEHE516-.LEHB516
 10070 0b64 00       		.uleb128 0
 10071 0b65 00       		.uleb128 0
 10072 0b66 A12C     		.uleb128 .LEHB517-.LFB1119
 10073 0b68 05       		.uleb128 .LEHE517-.LEHB517
 10074 0b69 00       		.uleb128 0
 10075 0b6a 00       		.uleb128 0
 10076 0b6b B02C     		.uleb128 .LEHB518-.LFB1119
 10077 0b6d 3A       		.uleb128 .LEHE518-.LEHB518
 10078 0b6e F42C     		.uleb128 .L718-.LFB1119
 10079 0b70 00       		.uleb128 0
 10080 0b71 EA2C     		.uleb128 .LEHB519-.LFB1119
 10081 0b73 05       		.uleb128 .LEHE519-.LEHB519
 10082 0b74 00       		.uleb128 0
 10083 0b75 00       		.uleb128 0
 10084 0b76 822D     		.uleb128 .LEHB520-.LFB1119
 10085 0b78 05       		.uleb128 .LEHE520-.LEHB520
 10086 0b79 00       		.uleb128 0
 10087 0b7a 00       		.uleb128 0
 10088 0b7b 912D     		.uleb128 .LEHB521-.LFB1119
 10089 0b7d 3A       		.uleb128 .LEHE521-.LEHB521
 10090 0b7e D52D     		.uleb128 .L721-.LFB1119
 10091 0b80 00       		.uleb128 0
 10092 0b81 CB2D     		.uleb128 .LEHB522-.LFB1119
 10093 0b83 05       		.uleb128 .LEHE522-.LEHB522
 10094 0b84 00       		.uleb128 0
 10095 0b85 00       		.uleb128 0
 10096 0b86 E32D     		.uleb128 .LEHB523-.LFB1119
 10097 0b88 05       		.uleb128 .LEHE523-.LEHB523
 10098 0b89 00       		.uleb128 0
 10099 0b8a 00       		.uleb128 0
 10100 0b8b F22D     		.uleb128 .LEHB524-.LFB1119
 10101 0b8d 3A       		.uleb128 .LEHE524-.LEHB524
 10102 0b8e B62E     		.uleb128 .L724-.LFB1119
 10103 0b90 00       		.uleb128 0
 10104 0b91 AC2E     		.uleb128 .LEHB525-.LFB1119
 10105 0b93 05       		.uleb128 .LEHE525-.LEHB525
 10106 0b94 00       		.uleb128 0
 10107 0b95 00       		.uleb128 0
 10108 0b96 C42E     		.uleb128 .LEHB526-.LFB1119
 10109 0b98 05       		.uleb128 .LEHE526-.LEHB526
 10110 0b99 00       		.uleb128 0
 10111 0b9a 00       		.uleb128 0
 10112 0b9b D32E     		.uleb128 .LEHB527-.LFB1119
 10113 0b9d 3A       		.uleb128 .LEHE527-.LEHB527
 10114 0b9e 972F     		.uleb128 .L727-.LFB1119
 10115 0ba0 00       		.uleb128 0
 10116 0ba1 8D2F     		.uleb128 .LEHB528-.LFB1119
 10117 0ba3 05       		.uleb128 .LEHE528-.LEHB528
 10118 0ba4 00       		.uleb128 0
 10119 0ba5 00       		.uleb128 0
 10120 0ba6 A52F     		.uleb128 .LEHB529-.LFB1119
 10121 0ba8 05       		.uleb128 .LEHE529-.LEHB529
 10122 0ba9 00       		.uleb128 0
 10123 0baa 00       		.uleb128 0
 10124 0bab B42F     		.uleb128 .LEHB530-.LFB1119
 10125 0bad 3A       		.uleb128 .LEHE530-.LEHB530
 10126 0bae F82F     		.uleb128 .L730-.LFB1119
 10127 0bb0 00       		.uleb128 0
 10128 0bb1 EE2F     		.uleb128 .LEHB531-.LFB1119
 10129 0bb3 05       		.uleb128 .LEHE531-.LEHB531
 10130 0bb4 00       		.uleb128 0
 10131 0bb5 00       		.uleb128 0
 10132 0bb6 8630     		.uleb128 .LEHB532-.LFB1119
 10133 0bb8 05       		.uleb128 .LEHE532-.LEHB532
 10134 0bb9 00       		.uleb128 0
 10135 0bba 00       		.uleb128 0
 10136 0bbb 9530     		.uleb128 .LEHB533-.LFB1119
 10137 0bbd 3A       		.uleb128 .LEHE533-.LEHB533
 10138 0bbe D930     		.uleb128 .L733-.LFB1119
 10139 0bc0 00       		.uleb128 0
 10140 0bc1 CF30     		.uleb128 .LEHB534-.LFB1119
 10141 0bc3 05       		.uleb128 .LEHE534-.LEHB534
 10142 0bc4 00       		.uleb128 0
 10143 0bc5 00       		.uleb128 0
 10144 0bc6 E730     		.uleb128 .LEHB535-.LFB1119
 10145 0bc8 05       		.uleb128 .LEHE535-.LEHB535
 10146 0bc9 00       		.uleb128 0
 10147 0bca 00       		.uleb128 0
 10148 0bcb F630     		.uleb128 .LEHB536-.LFB1119
 10149 0bcd 3A       		.uleb128 .LEHE536-.LEHB536
 10150 0bce BA31     		.uleb128 .L736-.LFB1119
 10151 0bd0 00       		.uleb128 0
 10152 0bd1 B031     		.uleb128 .LEHB537-.LFB1119
 10153 0bd3 05       		.uleb128 .LEHE537-.LEHB537
 10154 0bd4 00       		.uleb128 0
 10155 0bd5 00       		.uleb128 0
 10156 0bd6 C831     		.uleb128 .LEHB538-.LFB1119
 10157 0bd8 05       		.uleb128 .LEHE538-.LEHB538
 10158 0bd9 00       		.uleb128 0
 10159 0bda 00       		.uleb128 0
 10160 0bdb D731     		.uleb128 .LEHB539-.LFB1119
 10161 0bdd 3A       		.uleb128 .LEHE539-.LEHB539
 10162 0bde 9B32     		.uleb128 .L739-.LFB1119
 10163 0be0 00       		.uleb128 0
 10164 0be1 9132     		.uleb128 .LEHB540-.LFB1119
 10165 0be3 05       		.uleb128 .LEHE540-.LEHB540
 10166 0be4 00       		.uleb128 0
 10167 0be5 00       		.uleb128 0
 10168 0be6 A932     		.uleb128 .LEHB541-.LFB1119
 10169 0be8 05       		.uleb128 .LEHE541-.LEHB541
 10170 0be9 00       		.uleb128 0
 10171 0bea 00       		.uleb128 0
 10172 0beb B832     		.uleb128 .LEHB542-.LFB1119
 10173 0bed 3A       		.uleb128 .LEHE542-.LEHB542
 10174 0bee FC32     		.uleb128 .L742-.LFB1119
 10175 0bf0 00       		.uleb128 0
 10176 0bf1 F232     		.uleb128 .LEHB543-.LFB1119
 10177 0bf3 05       		.uleb128 .LEHE543-.LEHB543
 10178 0bf4 00       		.uleb128 0
 10179 0bf5 00       		.uleb128 0
 10180 0bf6 8A33     		.uleb128 .LEHB544-.LFB1119
 10181 0bf8 05       		.uleb128 .LEHE544-.LEHB544
 10182 0bf9 00       		.uleb128 0
 10183 0bfa 00       		.uleb128 0
 10184 0bfb 9933     		.uleb128 .LEHB545-.LFB1119
 10185 0bfd 3A       		.uleb128 .LEHE545-.LEHB545
 10186 0bfe DD33     		.uleb128 .L745-.LFB1119
 10187 0c00 00       		.uleb128 0
 10188 0c01 D333     		.uleb128 .LEHB546-.LFB1119
 10189 0c03 05       		.uleb128 .LEHE546-.LEHB546
 10190 0c04 00       		.uleb128 0
 10191 0c05 00       		.uleb128 0
 10192 0c06 EB33     		.uleb128 .LEHB547-.LFB1119
 10193 0c08 05       		.uleb128 .LEHE547-.LEHB547
 10194 0c09 00       		.uleb128 0
 10195 0c0a 00       		.uleb128 0
 10196 0c0b FA33     		.uleb128 .LEHB548-.LFB1119
 10197 0c0d 3A       		.uleb128 .LEHE548-.LEHB548
 10198 0c0e BE34     		.uleb128 .L748-.LFB1119
 10199 0c10 00       		.uleb128 0
 10200 0c11 B434     		.uleb128 .LEHB549-.LFB1119
 10201 0c13 05       		.uleb128 .LEHE549-.LEHB549
 10202 0c14 00       		.uleb128 0
 10203 0c15 00       		.uleb128 0
 10204 0c16 CC34     		.uleb128 .LEHB550-.LFB1119
 10205 0c18 05       		.uleb128 .LEHE550-.LEHB550
 10206 0c19 00       		.uleb128 0
 10207 0c1a 00       		.uleb128 0
 10208 0c1b DB34     		.uleb128 .LEHB551-.LFB1119
 10209 0c1d 3A       		.uleb128 .LEHE551-.LEHB551
 10210 0c1e 9F35     		.uleb128 .L751-.LFB1119
 10211 0c20 00       		.uleb128 0
 10212 0c21 9535     		.uleb128 .LEHB552-.LFB1119
 10213 0c23 05       		.uleb128 .LEHE552-.LEHB552
 10214 0c24 00       		.uleb128 0
 10215 0c25 00       		.uleb128 0
 10216 0c26 AD35     		.uleb128 .LEHB553-.LFB1119
 10217 0c28 05       		.uleb128 .LEHE553-.LEHB553
 10218 0c29 00       		.uleb128 0
 10219 0c2a 00       		.uleb128 0
 10220 0c2b BC35     		.uleb128 .LEHB554-.LFB1119
 10221 0c2d 3A       		.uleb128 .LEHE554-.LEHB554
 10222 0c2e 8036     		.uleb128 .L754-.LFB1119
 10223 0c30 00       		.uleb128 0
 10224 0c31 F635     		.uleb128 .LEHB555-.LFB1119
 10225 0c33 05       		.uleb128 .LEHE555-.LEHB555
 10226 0c34 00       		.uleb128 0
 10227 0c35 00       		.uleb128 0
 10228 0c36 8E36     		.uleb128 .LEHB556-.LFB1119
 10229 0c38 05       		.uleb128 .LEHE556-.LEHB556
 10230 0c39 00       		.uleb128 0
 10231 0c3a 00       		.uleb128 0
 10232 0c3b 9D36     		.uleb128 .LEHB557-.LFB1119
 10233 0c3d 3A       		.uleb128 .LEHE557-.LEHB557
 10234 0c3e E136     		.uleb128 .L757-.LFB1119
 10235 0c40 00       		.uleb128 0
 10236 0c41 D736     		.uleb128 .LEHB558-.LFB1119
 10237 0c43 05       		.uleb128 .LEHE558-.LEHB558
 10238 0c44 00       		.uleb128 0
 10239 0c45 00       		.uleb128 0
 10240 0c46 EF36     		.uleb128 .LEHB559-.LFB1119
 10241 0c48 05       		.uleb128 .LEHE559-.LEHB559
 10242 0c49 00       		.uleb128 0
 10243 0c4a 00       		.uleb128 0
 10244 0c4b FE36     		.uleb128 .LEHB560-.LFB1119
 10245 0c4d 3A       		.uleb128 .LEHE560-.LEHB560
 10246 0c4e C237     		.uleb128 .L760-.LFB1119
 10247 0c50 00       		.uleb128 0
 10248 0c51 B837     		.uleb128 .LEHB561-.LFB1119
 10249 0c53 05       		.uleb128 .LEHE561-.LEHB561
 10250 0c54 00       		.uleb128 0
 10251 0c55 00       		.uleb128 0
 10252 0c56 D037     		.uleb128 .LEHB562-.LFB1119
 10253 0c58 05       		.uleb128 .LEHE562-.LEHB562
 10254 0c59 00       		.uleb128 0
 10255 0c5a 00       		.uleb128 0
 10256              	.LLSDACSE1119:
 10257 0c5b 01       		.byte	0x1
 10258 0c5c 00       		.byte	0
 10259 0c5d 00       		.byte	0
 10260 0c5e 7D       		.byte	0x7d
 10261 0c5f 00       		.align 4
 10262 0c60 00000000 		.long	0
 10263              	
 10264              	.LLSDATT1119:
 10265              		.text
 10267              		.section	.rodata
 10268              	.LC53:
 10269 0bbc 51756575 		.string	"Queue_testRealloc"
 10269      655F7465 
 10269      73745265 
 10269      616C6C6F 
 10269      6300
 10270              		.section	.text._ZN21TestQueue_testReallocC2Ev,"axG",@progbits,_ZN21TestQueue_testReallocC5Ev,comda
 10271              		.align 2
 10272              		.weak	_ZN21TestQueue_testReallocC2Ev
 10274              	_ZN21TestQueue_testReallocC2Ev:
 10275              	.LFB1121:
 323:testCore.cpp  **** 
 324:testCore.cpp  **** TEST(Queue_testRealloc) {
 10276              		.loc 3 324 0
 10277              		.cfi_startproc
 10278 0000 55       		pushq	%rbp
 10279              		.cfi_def_cfa_offset 16
 10280              		.cfi_offset 6, -16
 10281 0001 4889E5   		movq	%rsp, %rbp
 10282              		.cfi_def_cfa_register 6
 10283 0004 53       		pushq	%rbx
 10284 0005 4883EC18 		subq	$24, %rsp
 10285              		.cfi_offset 3, -24
 10286 0009 48897DE8 		movq	%rdi, -24(%rbp)
 10287              	.LBB8:
 10288              		.loc 3 324 0
 10289 000d 488B5DE8 		movq	-24(%rbp), %rbx
 10290 0011 E8000000 		call	_ZN13UnitTestSuite12GetSuiteNameEv
 10290      00
 10291 0016 41B84401 		movl	$324, %r8d
 10291      0000
 10292 001c 488D0D00 		leaq	.LC1(%rip), %rcx
 10292      000000
 10293 0023 4889C2   		movq	%rax, %rdx
 10294 0026 488D3500 		leaq	.LC53(%rip), %rsi
 10294      000000
 10295 002d 4889DF   		movq	%rbx, %rdi
 10296 0030 E8000000 		call	_ZN8UnitTest4TestC2EPKcS2_S2_i@PLT
 10296      00
 10297 0035 488D1500 		leaq	16+_ZTV21TestQueue_testRealloc(%rip), %rdx
 10297      000000
 10298 003c 488B45E8 		movq	-24(%rbp), %rax
 10299 0040 488910   		movq	%rdx, (%rax)
 10300              	.LBE8:
 10301 0043 90       		nop
 10302 0044 4883C418 		addq	$24, %rsp
 10303 0048 5B       		popq	%rbx
 10304 0049 5D       		popq	%rbp
 10305              		.cfi_def_cfa 7, 8
 10306 004a C3       		ret
 10307              		.cfi_endproc
 10308              	.LFE1121:
 10310              		.weak	_ZN21TestQueue_testReallocC1Ev
 10311              		.set	_ZN21TestQueue_testReallocC1Ev,_ZN21TestQueue_testReallocC2Ev
 10312              		.globl	testQueue_testReallocInstance
 10313              		.bss
 10314 00f9 00000000 		.align 32
 10314      000000
 10317              	testQueue_testReallocInstance:
 10318 0100 00000000 		.zero	56
 10318      00000000 
 10318      00000000 
 10318      00000000 
 10318      00000000 
 10319              		.globl	adderQueue_testRealloc
 10322              	adderQueue_testRealloc:
 10323 0138 00       		.zero	1
 10324              		.text
 10325              		.align 2
 10326              		.globl	_ZNK21TestQueue_testRealloc7RunImplEv
 10328              	_ZNK21TestQueue_testRealloc7RunImplEv:
 10329              	.LFB1123:
 10330              		.loc 3 324 0
 10331              		.cfi_startproc
 10332 4d60 55       		pushq	%rbp
 10333              		.cfi_def_cfa_offset 16
 10334              		.cfi_offset 6, -16
 10335 4d61 4889E5   		movq	%rsp, %rbp
 10336              		.cfi_def_cfa_register 6
 10337 4d64 4883EC10 		subq	$16, %rsp
 10338 4d68 48897DF8 		movq	%rdi, -8(%rbp)
 325:testCore.cpp  **** 	testRealloc(0);
 10339              		.loc 3 325 0
 10340 4d6c BF000000 		movl	$0, %edi
 10340      00
 10341 4d71 E8000000 		call	_Z11testReallocm
 10341      00
 326:testCore.cpp  **** 	testRealloc(1);
 10342              		.loc 3 326 0
 10343 4d76 BF010000 		movl	$1, %edi
 10343      00
 10344 4d7b E8000000 		call	_Z11testReallocm
 10344      00
 327:testCore.cpp  **** 	testRealloc(2);
 10345              		.loc 3 327 0
 10346 4d80 BF020000 		movl	$2, %edi
 10346      00
 10347 4d85 E8000000 		call	_Z11testReallocm
 10347      00
 328:testCore.cpp  **** 	testRealloc(3);
 10348              		.loc 3 328 0
 10349 4d8a BF030000 		movl	$3, %edi
 10349      00
 10350 4d8f E8000000 		call	_Z11testReallocm
 10350      00
 329:testCore.cpp  **** }
 10351              		.loc 3 329 0
 10352 4d94 90       		nop
 10353 4d95 C9       		leave
 10354              		.cfi_def_cfa 7, 8
 10355 4d96 C3       		ret
 10356              		.cfi_endproc
 10357              	.LFE1123:
 10359              		.section	.rodata
 10360              	.LC54:
 10361 0bce 51756575 		.string	"Queue_testAllocOOM"
 10361      655F7465 
 10361      7374416C 
 10361      6C6F634F 
 10361      4F4D00
 10362              		.section	.text._ZN22TestQueue_testAllocOOMC2Ev,"axG",@progbits,_ZN22TestQueue_testAllocOOMC5Ev,com
 10363              		.align 2
 10364              		.weak	_ZN22TestQueue_testAllocOOMC2Ev
 10366              	_ZN22TestQueue_testAllocOOMC2Ev:
 10367              	.LFB1125:
 330:testCore.cpp  **** 
 331:testCore.cpp  **** TEST(Queue_testAllocOOM) {
 10368              		.loc 3 331 0
 10369              		.cfi_startproc
 10370 0000 55       		pushq	%rbp
 10371              		.cfi_def_cfa_offset 16
 10372              		.cfi_offset 6, -16
 10373 0001 4889E5   		movq	%rsp, %rbp
 10374              		.cfi_def_cfa_register 6
 10375 0004 53       		pushq	%rbx
 10376 0005 4883EC18 		subq	$24, %rsp
 10377              		.cfi_offset 3, -24
 10378 0009 48897DE8 		movq	%rdi, -24(%rbp)
 10379              	.LBB9:
 10380              		.loc 3 331 0
 10381 000d 488B5DE8 		movq	-24(%rbp), %rbx
 10382 0011 E8000000 		call	_ZN13UnitTestSuite12GetSuiteNameEv
 10382      00
 10383 0016 41B84B01 		movl	$331, %r8d
 10383      0000
 10384 001c 488D0D00 		leaq	.LC1(%rip), %rcx
 10384      000000
 10385 0023 4889C2   		movq	%rax, %rdx
 10386 0026 488D3500 		leaq	.LC54(%rip), %rsi
 10386      000000
 10387 002d 4889DF   		movq	%rbx, %rdi
 10388 0030 E8000000 		call	_ZN8UnitTest4TestC2EPKcS2_S2_i@PLT
 10388      00
 10389 0035 488D1500 		leaq	16+_ZTV22TestQueue_testAllocOOM(%rip), %rdx
 10389      000000
 10390 003c 488B45E8 		movq	-24(%rbp), %rax
 10391 0040 488910   		movq	%rdx, (%rax)
 10392              	.LBE9:
 10393 0043 90       		nop
 10394 0044 4883C418 		addq	$24, %rsp
 10395 0048 5B       		popq	%rbx
 10396 0049 5D       		popq	%rbp
 10397              		.cfi_def_cfa 7, 8
 10398 004a C3       		ret
 10399              		.cfi_endproc
 10400              	.LFE1125:
 10402              		.weak	_ZN22TestQueue_testAllocOOMC1Ev
 10403              		.set	_ZN22TestQueue_testAllocOOMC1Ev,_ZN22TestQueue_testAllocOOMC2Ev
 10404              		.globl	testQueue_testAllocOOMInstance
 10405              		.bss
 10406 0139 00000000 		.align 32
 10406      000000
 10409              	testQueue_testAllocOOMInstance:
 10410 0140 00000000 		.zero	56
 10410      00000000 
 10410      00000000 
 10410      00000000 
 10410      00000000 
 10411              		.globl	adderQueue_testAllocOOM
 10414              	adderQueue_testAllocOOM:
 10415 0178 00       		.zero	1
 10416              		.section	.rodata
 10417 0be1 00000000 		.align 8
 10417      000000
 10418              	.LC55:
 10419 0be8 556E6861 		.string	"Unhandled exception in CHECK_EQUAL(USB_ALLOC_ERR, status)"
 10419      6E646C65 
 10419      64206578 
 10419      63657074 
 10419      696F6E20 
 10420              		.text
 10421 4d97 90       		.align 2
 10422              		.globl	_ZNK22TestQueue_testAllocOOM7RunImplEv
 10424              	_ZNK22TestQueue_testAllocOOM7RunImplEv:
 10425              	.LFB1127:
 10426              		.loc 3 331 0
 10427              		.cfi_startproc
 10428              		.cfi_personality 0x9b,DW.ref.__gxx_personality_v0
 10429              		.cfi_lsda 0x1b,.LLSDA1127
 10430 4d98 55       		pushq	%rbp
 10431              		.cfi_def_cfa_offset 16
 10432              		.cfi_offset 6, -16
 10433 4d99 4889E5   		movq	%rsp, %rbp
 10434              		.cfi_def_cfa_register 6
 10435 4d9c 53       		pushq	%rbx
 10436 4d9d 4881EC88 		subq	$136, %rsp
 10436      000000
 10437              		.cfi_offset 3, -24
 10438 4da4 4889BD78 		movq	%rdi, -136(%rbp)
 10438      FFFFFF
 10439              		.loc 3 331 0
 10440 4dab 64488B04 		movq	%fs:40, %rax
 10440      25280000 
 10440      00
 10441 4db4 488945E8 		movq	%rax, -24(%rbp)
 10442 4db8 31C0     		xorl	%eax, %eax
 332:testCore.cpp  **** 	struct UnboundedQueue queue;
 333:testCore.cpp  **** 	m_count = 1;
 10443              		.loc 3 333 0
 10444 4dba C7050000 		movl	$1, _ZL7m_count(%rip)
 10444      00000100 
 10444      0000
 334:testCore.cpp  **** 
 335:testCore.cpp  **** 	// Create queue
 336:testCore.cpp  **** 	USBStatus status = queueInit(&queue, 9, (CreateFunc)createInt, (DestroyFunc)destroyInt);
 10445              		.loc 3 336 0
 10446 4dc4 488D45B0 		leaq	-80(%rbp), %rax
 10447 4dc8 488D0D00 		leaq	destroyInt(%rip), %rcx
 10447      000000
 10448 4dcf 488D1500 		leaq	createInt(%rip), %rdx
 10448      000000
 10449 4dd6 BE090000 		movl	$9, %esi
 10449      00
 10450 4ddb 4889C7   		movq	%rax, %rdi
 10451              	.LEHB563:
 10452 4dde E8000000 		call	queueInit@PLT
 10452      00
 10453              	.LEHE563:
 10454 4de3 894588   		movl	%eax, -120(%rbp)
 10455              	.LEHB564:
 337:testCore.cpp  **** 	CHECK_EQUAL(USB_ALLOC_ERR, status);
 10456              		.loc 3 337 0
 10457 4de6 E8000000 		call	_ZN8UnitTest11CurrentTest7DetailsEv@PLT
 10457      00
 10458 4deb 488B08   		movq	(%rax), %rcx
 10459 4dee 488D4590 		leaq	-112(%rbp), %rax
 10460 4df2 BA510100 		movl	$337, %edx
 10460      00
 10461 4df7 4889CE   		movq	%rcx, %rsi
 10462 4dfa 4889C7   		movq	%rax, %rdi
 10463 4dfd E8000000 		call	_ZN8UnitTest11TestDetailsC1ERKS0_i@PLT
 10463      00
 10464              	.LEHE564:
 10465              		.loc 3 337 0 is_stmt 0 discriminator 2
 10466 4e02 C7458C0C 		movl	$12, -116(%rbp)
 10466      000000
 10467              	.LEHB565:
 10468 4e09 E8000000 		call	_ZN8UnitTest11CurrentTest7ResultsEv@PLT
 10468      00
 10469 4e0e 488B00   		movq	(%rax), %rax
 10470 4e11 488D4D90 		leaq	-112(%rbp), %rcx
 10471 4e15 488D5588 		leaq	-120(%rbp), %rdx
 10472 4e19 488D758C 		leaq	-116(%rbp), %rsi
 10473 4e1d 4889C7   		movq	%rax, %rdi
 10474 4e20 E8000000 		call	_ZN8UnitTest10CheckEqualI9USBStatusS1_EEvRNS_11TestResultsERKT_RKT0_RKNS_11TestDetailsE
 10474      00
 10475              	.LEHE565:
 10476              	.L768:
 338:testCore.cpp  **** 
 339:testCore.cpp  **** 	queueDestroy(&queue);
 10477              		.loc 3 339 0 is_stmt 1
 10478 4e25 488D45B0 		leaq	-80(%rbp), %rax
 10479 4e29 4889C7   		movq	%rax, %rdi
 10480              	.LEHB566:
 10481 4e2c E8000000 		call	queueDestroy@PLT
 10481      00
 10482              	.LEHE566:
 340:testCore.cpp  **** }
 10483              		.loc 3 340 0
 10484 4e31 90       		nop
 10485 4e32 488B45E8 		movq	-24(%rbp), %rax
 10486 4e36 64483304 		xorq	%fs:40, %rax
 10486      25280000 
 10486      00
 10487 4e3f 7465     		je	.L770
 10488 4e41 EB5E     		jmp	.L774
 10489              	.L772:
 10490 4e43 EB00     		jmp	.L767
 10491              	.L771:
 10492              	.L767:
 337:testCore.cpp  **** 	CHECK_EQUAL(USB_ALLOC_ERR, status);
 10493              		.loc 3 337 0
 10494 4e45 4889C7   		movq	%rax, %rdi
 10495 4e48 E8000000 		call	__cxa_begin_catch@PLT
 10495      00
 10496              	.LEHB567:
 10497 4e4d E8000000 		call	_ZN8UnitTest11CurrentTest7ResultsEv@PLT
 10497      00
 10498 4e52 488B18   		movq	(%rax), %rbx
 10499 4e55 E8000000 		call	_ZN8UnitTest11CurrentTest7DetailsEv@PLT
 10499      00
 337:testCore.cpp  **** 	CHECK_EQUAL(USB_ALLOC_ERR, status);
 10500              		.loc 3 337 0 is_stmt 0 discriminator 8
 10501 4e5a 488B08   		movq	(%rax), %rcx
 10502 4e5d 488D4590 		leaq	-112(%rbp), %rax
 10503 4e61 BA510100 		movl	$337, %edx
 10503      00
 10504 4e66 4889CE   		movq	%rcx, %rsi
 10505 4e69 4889C7   		movq	%rax, %rdi
 10506 4e6c E8000000 		call	_ZN8UnitTest11TestDetailsC1ERKS0_i@PLT
 10506      00
 337:testCore.cpp  **** 	CHECK_EQUAL(USB_ALLOC_ERR, status);
 10507              		.loc 3 337 0 discriminator 12
 10508 4e71 488D4590 		leaq	-112(%rbp), %rax
 10509 4e75 488D1500 		leaq	.LC55(%rip), %rdx
 10509      000000
 10510 4e7c 4889C6   		movq	%rax, %rsi
 10511 4e7f 4889DF   		movq	%rbx, %rdi
 10512 4e82 E8000000 		call	_ZN8UnitTest11TestResults13OnTestFailureERKNS_11TestDetailsEPKc@PLT
 10512      00
 10513              	.LEHE567:
 10514              	.LEHB568:
 337:testCore.cpp  **** 	CHECK_EQUAL(USB_ALLOC_ERR, status);
 10515              		.loc 3 337 0 discriminator 14
 10516 4e87 E8000000 		call	__cxa_end_catch@PLT
 10516      00
 10517              	.LEHE568:
 10518 4e8c EB97     		jmp	.L768
 10519              	.L773:
 10520 4e8e 4889C3   		movq	%rax, %rbx
 337:testCore.cpp  **** 	CHECK_EQUAL(USB_ALLOC_ERR, status);
 10521              		.loc 3 337 0
 10522 4e91 E8000000 		call	__cxa_end_catch@PLT
 10522      00
 10523 4e96 4889D8   		movq	%rbx, %rax
 10524 4e99 4889C7   		movq	%rax, %rdi
 10525              	.LEHB569:
 10526 4e9c E8000000 		call	_Unwind_Resume@PLT
 10526      00
 10527              	.LEHE569:
 10528              	.L774:
 10529              		.loc 3 340 0 is_stmt 1
 10530 4ea1 E8000000 		call	__stack_chk_fail@PLT
 10530      00
 10531              	.L770:
 10532 4ea6 4881C488 		addq	$136, %rsp
 10532      000000
 10533 4ead 5B       		popq	%rbx
 10534 4eae 5D       		popq	%rbp
 10535              		.cfi_def_cfa 7, 8
 10536 4eaf C3       		ret
 10537              		.cfi_endproc
 10538              	.LFE1127:
 10539              		.section	.gcc_except_table
 10540              		.align 4
 10541              	.LLSDA1127:
 10542 0c64 FF       		.byte	0xff
 10543 0c65 9B       		.byte	0x9b
 10544 0c66 2D       		.uleb128 .LLSDATT1127-.LLSDATTD1127
 10545              	.LLSDATTD1127:
 10546 0c67 01       		.byte	0x1
 10547 0c68 23       		.uleb128 .LLSDACSE1127-.LLSDACSB1127
 10548              	.LLSDACSB1127:
 10549 0c69 46       		.uleb128 .LEHB563-.LFB1127
 10550 0c6a 05       		.uleb128 .LEHE563-.LEHB563
 10551 0c6b 00       		.uleb128 0
 10552 0c6c 00       		.uleb128 0
 10553 0c6d 4E       		.uleb128 .LEHB564-.LFB1127
 10554 0c6e 1C       		.uleb128 .LEHE564-.LEHB564
 10555 0c6f AD01     		.uleb128 .L771-.LFB1127
 10556 0c71 01       		.uleb128 0x1
 10557 0c72 71       		.uleb128 .LEHB565-.LFB1127
 10558 0c73 1C       		.uleb128 .LEHE565-.LEHB565
 10559 0c74 AB01     		.uleb128 .L772-.LFB1127
 10560 0c76 03       		.uleb128 0x3
 10561 0c77 9401     		.uleb128 .LEHB566-.LFB1127
 10562 0c79 05       		.uleb128 .LEHE566-.LEHB566
 10563 0c7a 00       		.uleb128 0
 10564 0c7b 00       		.uleb128 0
 10565 0c7c B501     		.uleb128 .LEHB567-.LFB1127
 10566 0c7e 3A       		.uleb128 .LEHE567-.LEHB567
 10567 0c7f F601     		.uleb128 .L773-.LFB1127
 10568 0c81 00       		.uleb128 0
 10569 0c82 EF01     		.uleb128 .LEHB568-.LFB1127
 10570 0c84 05       		.uleb128 .LEHE568-.LEHB568
 10571 0c85 00       		.uleb128 0
 10572 0c86 00       		.uleb128 0
 10573 0c87 8402     		.uleb128 .LEHB569-.LFB1127
 10574 0c89 05       		.uleb128 .LEHE569-.LEHB569
 10575 0c8a 00       		.uleb128 0
 10576 0c8b 00       		.uleb128 0
 10577              	.LLSDACSE1127:
 10578 0c8c 01       		.byte	0x1
 10579 0c8d 00       		.byte	0
 10580 0c8e 00       		.byte	0
 10581 0c8f 7D       		.byte	0x7d
 10582              		.align 4
 10583 0c90 00000000 		.long	0
 10584              	
 10585              	.LLSDATT1127:
 10586              		.text
 10588              		.section	.rodata
 10589              	.LC56:
 10590 0c22 51756575 		.string	"Queue_testReallocOOM"
 10590      655F7465 
 10590      73745265 
 10590      616C6C6F 
 10590      634F4F4D 
 10591              		.section	.text._ZN24TestQueue_testReallocOOMC2Ev,"axG",@progbits,_ZN24TestQueue_testReallocOOMC5Ev
 10592              		.align 2
 10593              		.weak	_ZN24TestQueue_testReallocOOMC2Ev
 10595              	_ZN24TestQueue_testReallocOOMC2Ev:
 10596              	.LFB1129:
 341:testCore.cpp  **** 
 342:testCore.cpp  **** TEST(Queue_testReallocOOM) {
 10597              		.loc 3 342 0
 10598              		.cfi_startproc
 10599 0000 55       		pushq	%rbp
 10600              		.cfi_def_cfa_offset 16
 10601              		.cfi_offset 6, -16
 10602 0001 4889E5   		movq	%rsp, %rbp
 10603              		.cfi_def_cfa_register 6
 10604 0004 53       		pushq	%rbx
 10605 0005 4883EC18 		subq	$24, %rsp
 10606              		.cfi_offset 3, -24
 10607 0009 48897DE8 		movq	%rdi, -24(%rbp)
 10608              	.LBB10:
 10609              		.loc 3 342 0
 10610 000d 488B5DE8 		movq	-24(%rbp), %rbx
 10611 0011 E8000000 		call	_ZN13UnitTestSuite12GetSuiteNameEv
 10611      00
 10612 0016 41B85601 		movl	$342, %r8d
 10612      0000
 10613 001c 488D0D00 		leaq	.LC1(%rip), %rcx
 10613      000000
 10614 0023 4889C2   		movq	%rax, %rdx
 10615 0026 488D3500 		leaq	.LC56(%rip), %rsi
 10615      000000
 10616 002d 4889DF   		movq	%rbx, %rdi
 10617 0030 E8000000 		call	_ZN8UnitTest4TestC2EPKcS2_S2_i@PLT
 10617      00
 10618 0035 488D1500 		leaq	16+_ZTV24TestQueue_testReallocOOM(%rip), %rdx
 10618      000000
 10619 003c 488B45E8 		movq	-24(%rbp), %rax
 10620 0040 488910   		movq	%rdx, (%rax)
 10621              	.LBE10:
 10622 0043 90       		nop
 10623 0044 4883C418 		addq	$24, %rsp
 10624 0048 5B       		popq	%rbx
 10625 0049 5D       		popq	%rbp
 10626              		.cfi_def_cfa 7, 8
 10627 004a C3       		ret
 10628              		.cfi_endproc
 10629              	.LFE1129:
 10631              		.weak	_ZN24TestQueue_testReallocOOMC1Ev
 10632              		.set	_ZN24TestQueue_testReallocOOMC1Ev,_ZN24TestQueue_testReallocOOMC2Ev
 10633              		.globl	testQueue_testReallocOOMInstance
 10634              		.bss
 10635 0179 00000000 		.align 32
 10635      000000
 10638              	testQueue_testReallocOOMInstance:
 10639 0180 00000000 		.zero	56
 10639      00000000 
 10639      00000000 
 10639      00000000 
 10639      00000000 
 10640              		.globl	adderQueue_testReallocOOM
 10643              	adderQueue_testReallocOOM:
 10644 01b8 00       		.zero	1
 10645              		.text
 10646              		.align 2
 10647              		.globl	_ZNK24TestQueue_testReallocOOM7RunImplEv
 10649              	_ZNK24TestQueue_testReallocOOM7RunImplEv:
 10650              	.LFB1131:
 10651              		.loc 3 342 0
 10652              		.cfi_startproc
 10653              		.cfi_personality 0x9b,DW.ref.__gxx_personality_v0
 10654              		.cfi_lsda 0x1b,.LLSDA1131
 10655 4eb0 55       		pushq	%rbp
 10656              		.cfi_def_cfa_offset 16
 10657              		.cfi_offset 6, -16
 10658 4eb1 4889E5   		movq	%rsp, %rbp
 10659              		.cfi_def_cfa_register 6
 10660 4eb4 53       		pushq	%rbx
 10661 4eb5 4881EC88 		subq	$136, %rsp
 10661      000000
 10662              		.cfi_offset 3, -24
 10663 4ebc 4889BD78 		movq	%rdi, -136(%rbp)
 10663      FFFFFF
 10664              		.loc 3 342 0
 10665 4ec3 64488B04 		movq	%fs:40, %rax
 10665      25280000 
 10665      00
 10666 4ecc 488945E8 		movq	%rax, -24(%rbp)
 10667 4ed0 31C0     		xorl	%eax, %eax
 343:testCore.cpp  **** 	struct UnboundedQueue queue;
 344:testCore.cpp  **** 	uint32 *item;
 345:testCore.cpp  **** 	m_count = 1;
 10668              		.loc 3 345 0
 10669 4ed2 C7050000 		movl	$1, _ZL7m_count(%rip)
 10669      00000100 
 10669      0000
 346:testCore.cpp  **** 
 347:testCore.cpp  **** 	// Create queue
 348:testCore.cpp  **** 	USBStatus status = queueInit(&queue, 8, (CreateFunc)createInt, (DestroyFunc)destroyInt);
 10670              		.loc 3 348 0
 10671 4edc 488D45B0 		leaq	-80(%rbp), %rax
 10672 4ee0 488D0D00 		leaq	destroyInt(%rip), %rcx
 10672      000000
 10673 4ee7 488D1500 		leaq	createInt(%rip), %rdx
 10673      000000
 10674 4eee BE080000 		movl	$8, %esi
 10674      00
 10675 4ef3 4889C7   		movq	%rax, %rdi
 10676              	.LEHB570:
 10677 4ef6 E8000000 		call	queueInit@PLT
 10677      00
 10678              	.LEHE570:
 10679 4efb 894580   		movl	%eax, -128(%rbp)
 10680              	.LEHB571:
 349:testCore.cpp  **** 	CHECK_EQUAL(USB_SUCCESS, status);
 10681              		.loc 3 349 0
 10682 4efe E8000000 		call	_ZN8UnitTest11CurrentTest7DetailsEv@PLT
 10682      00
 10683 4f03 488B08   		movq	(%rax), %rcx
 10684 4f06 488D4590 		leaq	-112(%rbp), %rax
 10685 4f0a BA5D0100 		movl	$349, %edx
 10685      00
 10686 4f0f 4889CE   		movq	%rcx, %rsi
 10687 4f12 4889C7   		movq	%rax, %rdi
 10688 4f15 E8000000 		call	_ZN8UnitTest11TestDetailsC1ERKS0_i@PLT
 10688      00
 10689              	.LEHE571:
 10690              		.loc 3 349 0 is_stmt 0 discriminator 2
 10691 4f1a C7458800 		movl	$0, -120(%rbp)
 10691      000000
 10692              	.LEHB572:
 10693 4f21 E8000000 		call	_ZN8UnitTest11CurrentTest7ResultsEv@PLT
 10693      00
 10694 4f26 488B00   		movq	(%rax), %rax
 10695 4f29 488D4D90 		leaq	-112(%rbp), %rcx
 10696 4f2d 488D5580 		leaq	-128(%rbp), %rdx
 10697 4f31 488D7588 		leaq	-120(%rbp), %rsi
 10698 4f35 4889C7   		movq	%rax, %rdi
 10699 4f38 E8000000 		call	_ZN8UnitTest10CheckEqualI9USBStatusS1_EEvRNS_11TestResultsERKT_RKT0_RKNS_11TestDetailsE
 10699      00
 10700              	.LEHE572:
 10701              	.L779:
 350:testCore.cpp  **** 
 351:testCore.cpp  **** 	// Put eight items into the queue
 352:testCore.cpp  **** 	status = queuePut(&queue, (Item*)&item);
 10702              		.loc 3 352 0 is_stmt 1
 10703 4f3d 488D5588 		leaq	-120(%rbp), %rdx
 10704 4f41 488D45B0 		leaq	-80(%rbp), %rax
 10705 4f45 4889D6   		movq	%rdx, %rsi
 10706 4f48 4889C7   		movq	%rax, %rdi
 10707              	.LEHB573:
 10708 4f4b E8000000 		call	queuePut@PLT
 10708      00
 10709              	.LEHE573:
 10710 4f50 894580   		movl	%eax, -128(%rbp)
 10711              	.LEHB574:
 353:testCore.cpp  **** 	CHECK_EQUAL(USB_SUCCESS, status);
 10712              		.loc 3 353 0
 10713 4f53 E8000000 		call	_ZN8UnitTest11CurrentTest7DetailsEv@PLT
 10713      00
 10714 4f58 488B08   		movq	(%rax), %rcx
 10715 4f5b 488D4590 		leaq	-112(%rbp), %rax
 10716 4f5f BA610100 		movl	$353, %edx
 10716      00
 10717 4f64 4889CE   		movq	%rcx, %rsi
 10718 4f67 4889C7   		movq	%rax, %rdi
 10719 4f6a E8000000 		call	_ZN8UnitTest11TestDetailsC1ERKS0_i@PLT
 10719      00
 10720              	.LEHE574:
 10721              		.loc 3 353 0 is_stmt 0 discriminator 2
 10722 4f6f C7458400 		movl	$0, -124(%rbp)
 10722      000000
 10723              	.LEHB575:
 10724 4f76 E8000000 		call	_ZN8UnitTest11CurrentTest7ResultsEv@PLT
 10724      00
 10725 4f7b 488B00   		movq	(%rax), %rax
 10726 4f7e 488D4D90 		leaq	-112(%rbp), %rcx
 10727 4f82 488D5580 		leaq	-128(%rbp), %rdx
 10728 4f86 488D7584 		leaq	-124(%rbp), %rsi
 10729 4f8a 4889C7   		movq	%rax, %rdi
 10730 4f8d E8000000 		call	_ZN8UnitTest10CheckEqualI9USBStatusS1_EEvRNS_11TestResultsERKT_RKT0_RKNS_11TestDetailsE
 10730      00
 10731              	.LEHE575:
 10732              	.L783:
 354:testCore.cpp  **** 	queueCommitPut(&queue);
 10733              		.loc 3 354 0 is_stmt 1
 10734 4f92 488D45B0 		leaq	-80(%rbp), %rax
 10735 4f96 4889C7   		movq	%rax, %rdi
 10736              	.LEHB576:
 10737 4f99 E8000000 		call	queueCommitPut@PLT
 10737      00
 355:testCore.cpp  **** 	status = queuePut(&queue, (Item*)&item);
 10738              		.loc 3 355 0
 10739 4f9e 488D5588 		leaq	-120(%rbp), %rdx
 10740 4fa2 488D45B0 		leaq	-80(%rbp), %rax
 10741 4fa6 4889D6   		movq	%rdx, %rsi
 10742 4fa9 4889C7   		movq	%rax, %rdi
 10743 4fac E8000000 		call	queuePut@PLT
 10743      00
 10744              	.LEHE576:
 10745 4fb1 894580   		movl	%eax, -128(%rbp)
 10746              	.LEHB577:
 356:testCore.cpp  **** 	CHECK_EQUAL(USB_SUCCESS, status);
 10747              		.loc 3 356 0
 10748 4fb4 E8000000 		call	_ZN8UnitTest11CurrentTest7DetailsEv@PLT
 10748      00
 10749 4fb9 488B08   		movq	(%rax), %rcx
 10750 4fbc 488D4590 		leaq	-112(%rbp), %rax
 10751 4fc0 BA640100 		movl	$356, %edx
 10751      00
 10752 4fc5 4889CE   		movq	%rcx, %rsi
 10753 4fc8 4889C7   		movq	%rax, %rdi
 10754 4fcb E8000000 		call	_ZN8UnitTest11TestDetailsC1ERKS0_i@PLT
 10754      00
 10755              	.LEHE577:
 10756              		.loc 3 356 0 is_stmt 0 discriminator 2
 10757 4fd0 C7458400 		movl	$0, -124(%rbp)
 10757      000000
 10758              	.LEHB578:
 10759 4fd7 E8000000 		call	_ZN8UnitTest11CurrentTest7ResultsEv@PLT
 10759      00
 10760 4fdc 488B00   		movq	(%rax), %rax
 10761 4fdf 488D4D90 		leaq	-112(%rbp), %rcx
 10762 4fe3 488D5580 		leaq	-128(%rbp), %rdx
 10763 4fe7 488D7584 		leaq	-124(%rbp), %rsi
 10764 4feb 4889C7   		movq	%rax, %rdi
 10765 4fee E8000000 		call	_ZN8UnitTest10CheckEqualI9USBStatusS1_EEvRNS_11TestResultsERKT_RKT0_RKNS_11TestDetailsE
 10765      00
 10766              	.LEHE578:
 10767              	.L787:
 357:testCore.cpp  **** 	queueCommitPut(&queue);
 10768              		.loc 3 357 0 is_stmt 1
 10769 4ff3 488D45B0 		leaq	-80(%rbp), %rax
 10770 4ff7 4889C7   		movq	%rax, %rdi
 10771              	.LEHB579:
 10772 4ffa E8000000 		call	queueCommitPut@PLT
 10772      00
 358:testCore.cpp  **** 	status = queuePut(&queue, (Item*)&item);
 10773              		.loc 3 358 0
 10774 4fff 488D5588 		leaq	-120(%rbp), %rdx
 10775 5003 488D45B0 		leaq	-80(%rbp), %rax
 10776 5007 4889D6   		movq	%rdx, %rsi
 10777 500a 4889C7   		movq	%rax, %rdi
 10778 500d E8000000 		call	queuePut@PLT
 10778      00
 10779              	.LEHE579:
 10780 5012 894580   		movl	%eax, -128(%rbp)
 10781              	.LEHB580:
 359:testCore.cpp  **** 	CHECK_EQUAL(USB_SUCCESS, status);
 10782              		.loc 3 359 0
 10783 5015 E8000000 		call	_ZN8UnitTest11CurrentTest7DetailsEv@PLT
 10783      00
 10784 501a 488B08   		movq	(%rax), %rcx
 10785 501d 488D4590 		leaq	-112(%rbp), %rax
 10786 5021 BA670100 		movl	$359, %edx
 10786      00
 10787 5026 4889CE   		movq	%rcx, %rsi
 10788 5029 4889C7   		movq	%rax, %rdi
 10789 502c E8000000 		call	_ZN8UnitTest11TestDetailsC1ERKS0_i@PLT
 10789      00
 10790              	.LEHE580:
 10791              		.loc 3 359 0 is_stmt 0 discriminator 2
 10792 5031 C7458400 		movl	$0, -124(%rbp)
 10792      000000
 10793              	.LEHB581:
 10794 5038 E8000000 		call	_ZN8UnitTest11CurrentTest7ResultsEv@PLT
 10794      00
 10795 503d 488B00   		movq	(%rax), %rax
 10796 5040 488D4D90 		leaq	-112(%rbp), %rcx
 10797 5044 488D5580 		leaq	-128(%rbp), %rdx
 10798 5048 488D7584 		leaq	-124(%rbp), %rsi
 10799 504c 4889C7   		movq	%rax, %rdi
 10800 504f E8000000 		call	_ZN8UnitTest10CheckEqualI9USBStatusS1_EEvRNS_11TestResultsERKT_RKT0_RKNS_11TestDetailsE
 10800      00
 10801              	.LEHE581:
 10802              	.L791:
 360:testCore.cpp  **** 	queueCommitPut(&queue);
 10803              		.loc 3 360 0 is_stmt 1
 10804 5054 488D45B0 		leaq	-80(%rbp), %rax
 10805 5058 4889C7   		movq	%rax, %rdi
 10806              	.LEHB582:
 10807 505b E8000000 		call	queueCommitPut@PLT
 10807      00
 361:testCore.cpp  **** 	status = queuePut(&queue, (Item*)&item);
 10808              		.loc 3 361 0
 10809 5060 488D5588 		leaq	-120(%rbp), %rdx
 10810 5064 488D45B0 		leaq	-80(%rbp), %rax
 10811 5068 4889D6   		movq	%rdx, %rsi
 10812 506b 4889C7   		movq	%rax, %rdi
 10813 506e E8000000 		call	queuePut@PLT
 10813      00
 10814              	.LEHE582:
 10815 5073 894580   		movl	%eax, -128(%rbp)
 10816              	.LEHB583:
 362:testCore.cpp  **** 	CHECK_EQUAL(USB_SUCCESS, status);
 10817              		.loc 3 362 0
 10818 5076 E8000000 		call	_ZN8UnitTest11CurrentTest7DetailsEv@PLT
 10818      00
 10819 507b 488B08   		movq	(%rax), %rcx
 10820 507e 488D4590 		leaq	-112(%rbp), %rax
 10821 5082 BA6A0100 		movl	$362, %edx
 10821      00
 10822 5087 4889CE   		movq	%rcx, %rsi
 10823 508a 4889C7   		movq	%rax, %rdi
 10824 508d E8000000 		call	_ZN8UnitTest11TestDetailsC1ERKS0_i@PLT
 10824      00
 10825              	.LEHE583:
 10826              		.loc 3 362 0 is_stmt 0 discriminator 2
 10827 5092 C7458400 		movl	$0, -124(%rbp)
 10827      000000
 10828              	.LEHB584:
 10829 5099 E8000000 		call	_ZN8UnitTest11CurrentTest7ResultsEv@PLT
 10829      00
 10830 509e 488B00   		movq	(%rax), %rax
 10831 50a1 488D4D90 		leaq	-112(%rbp), %rcx
 10832 50a5 488D5580 		leaq	-128(%rbp), %rdx
 10833 50a9 488D7584 		leaq	-124(%rbp), %rsi
 10834 50ad 4889C7   		movq	%rax, %rdi
 10835 50b0 E8000000 		call	_ZN8UnitTest10CheckEqualI9USBStatusS1_EEvRNS_11TestResultsERKT_RKT0_RKNS_11TestDetailsE
 10835      00
 10836              	.LEHE584:
 10837              	.L795:
 363:testCore.cpp  **** 	queueCommitPut(&queue);
 10838              		.loc 3 363 0 is_stmt 1
 10839 50b5 488D45B0 		leaq	-80(%rbp), %rax
 10840 50b9 4889C7   		movq	%rax, %rdi
 10841              	.LEHB585:
 10842 50bc E8000000 		call	queueCommitPut@PLT
 10842      00
 364:testCore.cpp  **** 	status = queuePut(&queue, (Item*)&item);
 10843              		.loc 3 364 0
 10844 50c1 488D5588 		leaq	-120(%rbp), %rdx
 10845 50c5 488D45B0 		leaq	-80(%rbp), %rax
 10846 50c9 4889D6   		movq	%rdx, %rsi
 10847 50cc 4889C7   		movq	%rax, %rdi
 10848 50cf E8000000 		call	queuePut@PLT
 10848      00
 10849              	.LEHE585:
 10850 50d4 894580   		movl	%eax, -128(%rbp)
 10851              	.LEHB586:
 365:testCore.cpp  **** 	CHECK_EQUAL(USB_SUCCESS, status);
 10852              		.loc 3 365 0
 10853 50d7 E8000000 		call	_ZN8UnitTest11CurrentTest7DetailsEv@PLT
 10853      00
 10854 50dc 488B08   		movq	(%rax), %rcx
 10855 50df 488D4590 		leaq	-112(%rbp), %rax
 10856 50e3 BA6D0100 		movl	$365, %edx
 10856      00
 10857 50e8 4889CE   		movq	%rcx, %rsi
 10858 50eb 4889C7   		movq	%rax, %rdi
 10859 50ee E8000000 		call	_ZN8UnitTest11TestDetailsC1ERKS0_i@PLT
 10859      00
 10860              	.LEHE586:
 10861              		.loc 3 365 0 is_stmt 0 discriminator 2
 10862 50f3 C7458400 		movl	$0, -124(%rbp)
 10862      000000
 10863              	.LEHB587:
 10864 50fa E8000000 		call	_ZN8UnitTest11CurrentTest7ResultsEv@PLT
 10864      00
 10865 50ff 488B00   		movq	(%rax), %rax
 10866 5102 488D4D90 		leaq	-112(%rbp), %rcx
 10867 5106 488D5580 		leaq	-128(%rbp), %rdx
 10868 510a 488D7584 		leaq	-124(%rbp), %rsi
 10869 510e 4889C7   		movq	%rax, %rdi
 10870 5111 E8000000 		call	_ZN8UnitTest10CheckEqualI9USBStatusS1_EEvRNS_11TestResultsERKT_RKT0_RKNS_11TestDetailsE
 10870      00
 10871              	.LEHE587:
 10872              	.L799:
 366:testCore.cpp  **** 	queueCommitPut(&queue);
 10873              		.loc 3 366 0 is_stmt 1
 10874 5116 488D45B0 		leaq	-80(%rbp), %rax
 10875 511a 4889C7   		movq	%rax, %rdi
 10876              	.LEHB588:
 10877 511d E8000000 		call	queueCommitPut@PLT
 10877      00
 367:testCore.cpp  **** 	status = queuePut(&queue, (Item*)&item);
 10878              		.loc 3 367 0
 10879 5122 488D5588 		leaq	-120(%rbp), %rdx
 10880 5126 488D45B0 		leaq	-80(%rbp), %rax
 10881 512a 4889D6   		movq	%rdx, %rsi
 10882 512d 4889C7   		movq	%rax, %rdi
 10883 5130 E8000000 		call	queuePut@PLT
 10883      00
 10884              	.LEHE588:
 10885 5135 894580   		movl	%eax, -128(%rbp)
 10886              	.LEHB589:
 368:testCore.cpp  **** 	CHECK_EQUAL(USB_SUCCESS, status);
 10887              		.loc 3 368 0
 10888 5138 E8000000 		call	_ZN8UnitTest11CurrentTest7DetailsEv@PLT
 10888      00
 10889 513d 488B08   		movq	(%rax), %rcx
 10890 5140 488D4590 		leaq	-112(%rbp), %rax
 10891 5144 BA700100 		movl	$368, %edx
 10891      00
 10892 5149 4889CE   		movq	%rcx, %rsi
 10893 514c 4889C7   		movq	%rax, %rdi
 10894 514f E8000000 		call	_ZN8UnitTest11TestDetailsC1ERKS0_i@PLT
 10894      00
 10895              	.LEHE589:
 10896              		.loc 3 368 0 is_stmt 0 discriminator 2
 10897 5154 C7458400 		movl	$0, -124(%rbp)
 10897      000000
 10898              	.LEHB590:
 10899 515b E8000000 		call	_ZN8UnitTest11CurrentTest7ResultsEv@PLT
 10899      00
 10900 5160 488B00   		movq	(%rax), %rax
 10901 5163 488D4D90 		leaq	-112(%rbp), %rcx
 10902 5167 488D5580 		leaq	-128(%rbp), %rdx
 10903 516b 488D7584 		leaq	-124(%rbp), %rsi
 10904 516f 4889C7   		movq	%rax, %rdi
 10905 5172 E8000000 		call	_ZN8UnitTest10CheckEqualI9USBStatusS1_EEvRNS_11TestResultsERKT_RKT0_RKNS_11TestDetailsE
 10905      00
 10906              	.LEHE590:
 10907              	.L803:
 369:testCore.cpp  **** 	queueCommitPut(&queue);
 10908              		.loc 3 369 0 is_stmt 1
 10909 5177 488D45B0 		leaq	-80(%rbp), %rax
 10910 517b 4889C7   		movq	%rax, %rdi
 10911              	.LEHB591:
 10912 517e E8000000 		call	queueCommitPut@PLT
 10912      00
 370:testCore.cpp  **** 	status = queuePut(&queue, (Item*)&item);
 10913              		.loc 3 370 0
 10914 5183 488D5588 		leaq	-120(%rbp), %rdx
 10915 5187 488D45B0 		leaq	-80(%rbp), %rax
 10916 518b 4889D6   		movq	%rdx, %rsi
 10917 518e 4889C7   		movq	%rax, %rdi
 10918 5191 E8000000 		call	queuePut@PLT
 10918      00
 10919              	.LEHE591:
 10920 5196 894580   		movl	%eax, -128(%rbp)
 10921              	.LEHB592:
 371:testCore.cpp  **** 	CHECK_EQUAL(USB_SUCCESS, status);
 10922              		.loc 3 371 0
 10923 5199 E8000000 		call	_ZN8UnitTest11CurrentTest7DetailsEv@PLT
 10923      00
 10924 519e 488B08   		movq	(%rax), %rcx
 10925 51a1 488D4590 		leaq	-112(%rbp), %rax
 10926 51a5 BA730100 		movl	$371, %edx
 10926      00
 10927 51aa 4889CE   		movq	%rcx, %rsi
 10928 51ad 4889C7   		movq	%rax, %rdi
 10929 51b0 E8000000 		call	_ZN8UnitTest11TestDetailsC1ERKS0_i@PLT
 10929      00
 10930              	.LEHE592:
 10931              		.loc 3 371 0 is_stmt 0 discriminator 2
 10932 51b5 C7458400 		movl	$0, -124(%rbp)
 10932      000000
 10933              	.LEHB593:
 10934 51bc E8000000 		call	_ZN8UnitTest11CurrentTest7ResultsEv@PLT
 10934      00
 10935 51c1 488B00   		movq	(%rax), %rax
 10936 51c4 488D4D90 		leaq	-112(%rbp), %rcx
 10937 51c8 488D5580 		leaq	-128(%rbp), %rdx
 10938 51cc 488D7584 		leaq	-124(%rbp), %rsi
 10939 51d0 4889C7   		movq	%rax, %rdi
 10940 51d3 E8000000 		call	_ZN8UnitTest10CheckEqualI9USBStatusS1_EEvRNS_11TestResultsERKT_RKT0_RKNS_11TestDetailsE
 10940      00
 10941              	.LEHE593:
 10942              	.L807:
 372:testCore.cpp  **** 	queueCommitPut(&queue);
 10943              		.loc 3 372 0 is_stmt 1
 10944 51d8 488D45B0 		leaq	-80(%rbp), %rax
 10945 51dc 4889C7   		movq	%rax, %rdi
 10946              	.LEHB594:
 10947 51df E8000000 		call	queueCommitPut@PLT
 10947      00
 373:testCore.cpp  **** 	status = queuePut(&queue, (Item*)&item);
 10948              		.loc 3 373 0
 10949 51e4 488D5588 		leaq	-120(%rbp), %rdx
 10950 51e8 488D45B0 		leaq	-80(%rbp), %rax
 10951 51ec 4889D6   		movq	%rdx, %rsi
 10952 51ef 4889C7   		movq	%rax, %rdi
 10953 51f2 E8000000 		call	queuePut@PLT
 10953      00
 10954              	.LEHE594:
 10955 51f7 894580   		movl	%eax, -128(%rbp)
 10956              	.LEHB595:
 374:testCore.cpp  **** 	CHECK_EQUAL(USB_SUCCESS, status);
 10957              		.loc 3 374 0
 10958 51fa E8000000 		call	_ZN8UnitTest11CurrentTest7DetailsEv@PLT
 10958      00
 10959 51ff 488B08   		movq	(%rax), %rcx
 10960 5202 488D4590 		leaq	-112(%rbp), %rax
 10961 5206 BA760100 		movl	$374, %edx
 10961      00
 10962 520b 4889CE   		movq	%rcx, %rsi
 10963 520e 4889C7   		movq	%rax, %rdi
 10964 5211 E8000000 		call	_ZN8UnitTest11TestDetailsC1ERKS0_i@PLT
 10964      00
 10965              	.LEHE595:
 10966              		.loc 3 374 0 is_stmt 0 discriminator 2
 10967 5216 C7458400 		movl	$0, -124(%rbp)
 10967      000000
 10968              	.LEHB596:
 10969 521d E8000000 		call	_ZN8UnitTest11CurrentTest7ResultsEv@PLT
 10969      00
 10970 5222 488B00   		movq	(%rax), %rax
 10971 5225 488D4D90 		leaq	-112(%rbp), %rcx
 10972 5229 488D5580 		leaq	-128(%rbp), %rdx
 10973 522d 488D7584 		leaq	-124(%rbp), %rsi
 10974 5231 4889C7   		movq	%rax, %rdi
 10975 5234 E8000000 		call	_ZN8UnitTest10CheckEqualI9USBStatusS1_EEvRNS_11TestResultsERKT_RKT0_RKNS_11TestDetailsE
 10975      00
 10976              	.LEHE596:
 10977              	.L811:
 375:testCore.cpp  **** 	queueCommitPut(&queue);
 10978              		.loc 3 375 0 is_stmt 1
 10979 5239 488D45B0 		leaq	-80(%rbp), %rax
 10980 523d 4889C7   		movq	%rax, %rdi
 10981              	.LEHB597:
 10982 5240 E8000000 		call	queueCommitPut@PLT
 10982      00
 376:testCore.cpp  **** 
 377:testCore.cpp  **** 	// The ninth allocation fails
 378:testCore.cpp  **** 	status = queuePut(&queue, (Item*)&item);
 10983              		.loc 3 378 0
 10984 5245 488D5588 		leaq	-120(%rbp), %rdx
 10985 5249 488D45B0 		leaq	-80(%rbp), %rax
 10986 524d 4889D6   		movq	%rdx, %rsi
 10987 5250 4889C7   		movq	%rax, %rdi
 10988 5253 E8000000 		call	queuePut@PLT
 10988      00
 10989              	.LEHE597:
 10990 5258 894580   		movl	%eax, -128(%rbp)
 10991              	.LEHB598:
 379:testCore.cpp  **** 	CHECK_EQUAL(USB_ALLOC_ERR, status);
 10992              		.loc 3 379 0
 10993 525b E8000000 		call	_ZN8UnitTest11CurrentTest7DetailsEv@PLT
 10993      00
 10994 5260 488B08   		movq	(%rax), %rcx
 10995 5263 488D4590 		leaq	-112(%rbp), %rax
 10996 5267 BA7B0100 		movl	$379, %edx
 10996      00
 10997 526c 4889CE   		movq	%rcx, %rsi
 10998 526f 4889C7   		movq	%rax, %rdi
 10999 5272 E8000000 		call	_ZN8UnitTest11TestDetailsC1ERKS0_i@PLT
 10999      00
 11000              	.LEHE598:
 11001              		.loc 3 379 0 is_stmt 0 discriminator 2
 11002 5277 C745840C 		movl	$12, -124(%rbp)
 11002      000000
 11003              	.LEHB599:
 11004 527e E8000000 		call	_ZN8UnitTest11CurrentTest7ResultsEv@PLT
 11004      00
 11005 5283 488B00   		movq	(%rax), %rax
 11006 5286 488D4D90 		leaq	-112(%rbp), %rcx
 11007 528a 488D5580 		leaq	-128(%rbp), %rdx
 11008 528e 488D7584 		leaq	-124(%rbp), %rsi
 11009 5292 4889C7   		movq	%rax, %rdi
 11010 5295 E8000000 		call	_ZN8UnitTest10CheckEqualI9USBStatusS1_EEvRNS_11TestResultsERKT_RKT0_RKNS_11TestDetailsE
 11010      00
 11011              	.LEHE599:
 11012              	.L815:
 380:testCore.cpp  **** 
 381:testCore.cpp  **** 	queueDestroy(&queue);
 11013              		.loc 3 381 0 is_stmt 1
 11014 529a 488D45B0 		leaq	-80(%rbp), %rax
 11015 529e 4889C7   		movq	%rax, %rdi
 11016              	.LEHB600:
 11017 52a1 E8000000 		call	queueDestroy@PLT
 11017      00
 11018              	.LEHE600:
 382:testCore.cpp  **** }
 11019              		.loc 3 382 0
 11020 52a6 90       		nop
 11021 52a7 488B45E8 		movq	-24(%rbp), %rax
 11022 52ab 64483304 		xorq	%fs:40, %rax
 11022      25280000 
 11022      00
 11023 52b4 0F84D403 		je	.L817
 11023      0000
 11024 52ba E9CA0300 		jmp	.L848
 11024      00
 11025              	.L819:
 11026 52bf EB00     		jmp	.L778
 11027              	.L818:
 11028              	.L778:
 349:testCore.cpp  **** 
 11029              		.loc 3 349 0
 11030 52c1 4889C7   		movq	%rax, %rdi
 11031 52c4 E8000000 		call	__cxa_begin_catch@PLT
 11031      00
 11032              	.LEHB601:
 11033 52c9 E8000000 		call	_ZN8UnitTest11CurrentTest7ResultsEv@PLT
 11033      00
 11034 52ce 488B18   		movq	(%rax), %rbx
 11035 52d1 E8000000 		call	_ZN8UnitTest11CurrentTest7DetailsEv@PLT
 11035      00
 349:testCore.cpp  **** 
 11036              		.loc 3 349 0 is_stmt 0 discriminator 8
 11037 52d6 488B08   		movq	(%rax), %rcx
 11038 52d9 488D4590 		leaq	-112(%rbp), %rax
 11039 52dd BA5D0100 		movl	$349, %edx
 11039      00
 11040 52e2 4889CE   		movq	%rcx, %rsi
 11041 52e5 4889C7   		movq	%rax, %rdi
 11042 52e8 E8000000 		call	_ZN8UnitTest11TestDetailsC1ERKS0_i@PLT
 11042      00
 349:testCore.cpp  **** 
 11043              		.loc 3 349 0 discriminator 12
 11044 52ed 488D4590 		leaq	-112(%rbp), %rax
 11045 52f1 488D1500 		leaq	.LC3(%rip), %rdx
 11045      000000
 11046 52f8 4889C6   		movq	%rax, %rsi
 11047 52fb 4889DF   		movq	%rbx, %rdi
 11048 52fe E8000000 		call	_ZN8UnitTest11TestResults13OnTestFailureERKNS_11TestDetailsEPKc@PLT
 11048      00
 11049              	.LEHE601:
 11050              	.LEHB602:
 349:testCore.cpp  **** 
 11051              		.loc 3 349 0 discriminator 14
 11052 5303 E8000000 		call	__cxa_end_catch@PLT
 11052      00
 11053              	.LEHE602:
 11054 5308 E930FCFF 		jmp	.L779
 11054      FF
 11055              	.L820:
 11056 530d 4889C3   		movq	%rax, %rbx
 349:testCore.cpp  **** 
 11057              		.loc 3 349 0
 11058 5310 E8000000 		call	__cxa_end_catch@PLT
 11058      00
 11059 5315 4889D8   		movq	%rbx, %rax
 11060 5318 4889C7   		movq	%rax, %rdi
 11061              	.LEHB603:
 11062 531b E8000000 		call	_Unwind_Resume@PLT
 11062      00
 11063              	.LEHE603:
 11064              	.L822:
 11065 5320 EB00     		jmp	.L782
 11066              	.L821:
 11067              	.L782:
 353:testCore.cpp  **** 	queueCommitPut(&queue);
 11068              		.loc 3 353 0 is_stmt 1
 11069 5322 4889C7   		movq	%rax, %rdi
 11070 5325 E8000000 		call	__cxa_begin_catch@PLT
 11070      00
 11071              	.LEHB604:
 11072 532a E8000000 		call	_ZN8UnitTest11CurrentTest7ResultsEv@PLT
 11072      00
 11073 532f 488B18   		movq	(%rax), %rbx
 11074 5332 E8000000 		call	_ZN8UnitTest11CurrentTest7DetailsEv@PLT
 11074      00
 353:testCore.cpp  **** 	queueCommitPut(&queue);
 11075              		.loc 3 353 0 is_stmt 0 discriminator 8
 11076 5337 488B08   		movq	(%rax), %rcx
 11077 533a 488D4590 		leaq	-112(%rbp), %rax
 11078 533e BA610100 		movl	$353, %edx
 11078      00
 11079 5343 4889CE   		movq	%rcx, %rsi
 11080 5346 4889C7   		movq	%rax, %rdi
 11081 5349 E8000000 		call	_ZN8UnitTest11TestDetailsC1ERKS0_i@PLT
 11081      00
 353:testCore.cpp  **** 	queueCommitPut(&queue);
 11082              		.loc 3 353 0 discriminator 12
 11083 534e 488D4590 		leaq	-112(%rbp), %rax
 11084 5352 488D1500 		leaq	.LC3(%rip), %rdx
 11084      000000
 11085 5359 4889C6   		movq	%rax, %rsi
 11086 535c 4889DF   		movq	%rbx, %rdi
 11087 535f E8000000 		call	_ZN8UnitTest11TestResults13OnTestFailureERKNS_11TestDetailsEPKc@PLT
 11087      00
 11088              	.LEHE604:
 11089              	.LEHB605:
 353:testCore.cpp  **** 	queueCommitPut(&queue);
 11090              		.loc 3 353 0 discriminator 14
 11091 5364 E8000000 		call	__cxa_end_catch@PLT
 11091      00
 11092              	.LEHE605:
 11093 5369 E924FCFF 		jmp	.L783
 11093      FF
 11094              	.L823:
 11095 536e 4889C3   		movq	%rax, %rbx
 353:testCore.cpp  **** 	queueCommitPut(&queue);
 11096              		.loc 3 353 0
 11097 5371 E8000000 		call	__cxa_end_catch@PLT
 11097      00
 11098 5376 4889D8   		movq	%rbx, %rax
 11099 5379 4889C7   		movq	%rax, %rdi
 11100              	.LEHB606:
 11101 537c E8000000 		call	_Unwind_Resume@PLT
 11101      00
 11102              	.LEHE606:
 11103              	.L825:
 11104 5381 EB00     		jmp	.L786
 11105              	.L824:
 11106              	.L786:
 356:testCore.cpp  **** 	queueCommitPut(&queue);
 11107              		.loc 3 356 0 is_stmt 1
 11108 5383 4889C7   		movq	%rax, %rdi
 11109 5386 E8000000 		call	__cxa_begin_catch@PLT
 11109      00
 11110              	.LEHB607:
 11111 538b E8000000 		call	_ZN8UnitTest11CurrentTest7ResultsEv@PLT
 11111      00
 11112 5390 488B18   		movq	(%rax), %rbx
 11113 5393 E8000000 		call	_ZN8UnitTest11CurrentTest7DetailsEv@PLT
 11113      00
 356:testCore.cpp  **** 	queueCommitPut(&queue);
 11114              		.loc 3 356 0 is_stmt 0 discriminator 8
 11115 5398 488B08   		movq	(%rax), %rcx
 11116 539b 488D4590 		leaq	-112(%rbp), %rax
 11117 539f BA640100 		movl	$356, %edx
 11117      00
 11118 53a4 4889CE   		movq	%rcx, %rsi
 11119 53a7 4889C7   		movq	%rax, %rdi
 11120 53aa E8000000 		call	_ZN8UnitTest11TestDetailsC1ERKS0_i@PLT
 11120      00
 356:testCore.cpp  **** 	queueCommitPut(&queue);
 11121              		.loc 3 356 0 discriminator 12
 11122 53af 488D4590 		leaq	-112(%rbp), %rax
 11123 53b3 488D1500 		leaq	.LC3(%rip), %rdx
 11123      000000
 11124 53ba 4889C6   		movq	%rax, %rsi
 11125 53bd 4889DF   		movq	%rbx, %rdi
 11126 53c0 E8000000 		call	_ZN8UnitTest11TestResults13OnTestFailureERKNS_11TestDetailsEPKc@PLT
 11126      00
 11127              	.LEHE607:
 11128              	.LEHB608:
 356:testCore.cpp  **** 	queueCommitPut(&queue);
 11129              		.loc 3 356 0 discriminator 14
 11130 53c5 E8000000 		call	__cxa_end_catch@PLT
 11130      00
 11131              	.LEHE608:
 11132 53ca E924FCFF 		jmp	.L787
 11132      FF
 11133              	.L826:
 11134 53cf 4889C3   		movq	%rax, %rbx
 356:testCore.cpp  **** 	queueCommitPut(&queue);
 11135              		.loc 3 356 0
 11136 53d2 E8000000 		call	__cxa_end_catch@PLT
 11136      00
 11137 53d7 4889D8   		movq	%rbx, %rax
 11138 53da 4889C7   		movq	%rax, %rdi
 11139              	.LEHB609:
 11140 53dd E8000000 		call	_Unwind_Resume@PLT
 11140      00
 11141              	.LEHE609:
 11142              	.L828:
 11143 53e2 EB00     		jmp	.L790
 11144              	.L827:
 11145              	.L790:
 359:testCore.cpp  **** 	queueCommitPut(&queue);
 11146              		.loc 3 359 0 is_stmt 1
 11147 53e4 4889C7   		movq	%rax, %rdi
 11148 53e7 E8000000 		call	__cxa_begin_catch@PLT
 11148      00
 11149              	.LEHB610:
 11150 53ec E8000000 		call	_ZN8UnitTest11CurrentTest7ResultsEv@PLT
 11150      00
 11151 53f1 488B18   		movq	(%rax), %rbx
 11152 53f4 E8000000 		call	_ZN8UnitTest11CurrentTest7DetailsEv@PLT
 11152      00
 359:testCore.cpp  **** 	queueCommitPut(&queue);
 11153              		.loc 3 359 0 is_stmt 0 discriminator 8
 11154 53f9 488B08   		movq	(%rax), %rcx
 11155 53fc 488D4590 		leaq	-112(%rbp), %rax
 11156 5400 BA670100 		movl	$359, %edx
 11156      00
 11157 5405 4889CE   		movq	%rcx, %rsi
 11158 5408 4889C7   		movq	%rax, %rdi
 11159 540b E8000000 		call	_ZN8UnitTest11TestDetailsC1ERKS0_i@PLT
 11159      00
 359:testCore.cpp  **** 	queueCommitPut(&queue);
 11160              		.loc 3 359 0 discriminator 12
 11161 5410 488D4590 		leaq	-112(%rbp), %rax
 11162 5414 488D1500 		leaq	.LC3(%rip), %rdx
 11162      000000
 11163 541b 4889C6   		movq	%rax, %rsi
 11164 541e 4889DF   		movq	%rbx, %rdi
 11165 5421 E8000000 		call	_ZN8UnitTest11TestResults13OnTestFailureERKNS_11TestDetailsEPKc@PLT
 11165      00
 11166              	.LEHE610:
 11167              	.LEHB611:
 359:testCore.cpp  **** 	queueCommitPut(&queue);
 11168              		.loc 3 359 0 discriminator 14
 11169 5426 E8000000 		call	__cxa_end_catch@PLT
 11169      00
 11170              	.LEHE611:
 11171 542b E924FCFF 		jmp	.L791
 11171      FF
 11172              	.L829:
 11173 5430 4889C3   		movq	%rax, %rbx
 359:testCore.cpp  **** 	queueCommitPut(&queue);
 11174              		.loc 3 359 0
 11175 5433 E8000000 		call	__cxa_end_catch@PLT
 11175      00
 11176 5438 4889D8   		movq	%rbx, %rax
 11177 543b 4889C7   		movq	%rax, %rdi
 11178              	.LEHB612:
 11179 543e E8000000 		call	_Unwind_Resume@PLT
 11179      00
 11180              	.LEHE612:
 11181              	.L831:
 11182 5443 EB00     		jmp	.L794
 11183              	.L830:
 11184              	.L794:
 362:testCore.cpp  **** 	queueCommitPut(&queue);
 11185              		.loc 3 362 0 is_stmt 1
 11186 5445 4889C7   		movq	%rax, %rdi
 11187 5448 E8000000 		call	__cxa_begin_catch@PLT
 11187      00
 11188              	.LEHB613:
 11189 544d E8000000 		call	_ZN8UnitTest11CurrentTest7ResultsEv@PLT
 11189      00
 11190 5452 488B18   		movq	(%rax), %rbx
 11191 5455 E8000000 		call	_ZN8UnitTest11CurrentTest7DetailsEv@PLT
 11191      00
 362:testCore.cpp  **** 	queueCommitPut(&queue);
 11192              		.loc 3 362 0 is_stmt 0 discriminator 8
 11193 545a 488B08   		movq	(%rax), %rcx
 11194 545d 488D4590 		leaq	-112(%rbp), %rax
 11195 5461 BA6A0100 		movl	$362, %edx
 11195      00
 11196 5466 4889CE   		movq	%rcx, %rsi
 11197 5469 4889C7   		movq	%rax, %rdi
 11198 546c E8000000 		call	_ZN8UnitTest11TestDetailsC1ERKS0_i@PLT
 11198      00
 362:testCore.cpp  **** 	queueCommitPut(&queue);
 11199              		.loc 3 362 0 discriminator 12
 11200 5471 488D4590 		leaq	-112(%rbp), %rax
 11201 5475 488D1500 		leaq	.LC3(%rip), %rdx
 11201      000000
 11202 547c 4889C6   		movq	%rax, %rsi
 11203 547f 4889DF   		movq	%rbx, %rdi
 11204 5482 E8000000 		call	_ZN8UnitTest11TestResults13OnTestFailureERKNS_11TestDetailsEPKc@PLT
 11204      00
 11205              	.LEHE613:
 11206              	.LEHB614:
 362:testCore.cpp  **** 	queueCommitPut(&queue);
 11207              		.loc 3 362 0 discriminator 14
 11208 5487 E8000000 		call	__cxa_end_catch@PLT
 11208      00
 11209              	.LEHE614:
 11210 548c E924FCFF 		jmp	.L795
 11210      FF
 11211              	.L832:
 11212 5491 4889C3   		movq	%rax, %rbx
 362:testCore.cpp  **** 	queueCommitPut(&queue);
 11213              		.loc 3 362 0
 11214 5494 E8000000 		call	__cxa_end_catch@PLT
 11214      00
 11215 5499 4889D8   		movq	%rbx, %rax
 11216 549c 4889C7   		movq	%rax, %rdi
 11217              	.LEHB615:
 11218 549f E8000000 		call	_Unwind_Resume@PLT
 11218      00
 11219              	.LEHE615:
 11220              	.L834:
 11221 54a4 EB00     		jmp	.L798
 11222              	.L833:
 11223              	.L798:
 365:testCore.cpp  **** 	queueCommitPut(&queue);
 11224              		.loc 3 365 0 is_stmt 1
 11225 54a6 4889C7   		movq	%rax, %rdi
 11226 54a9 E8000000 		call	__cxa_begin_catch@PLT
 11226      00
 11227              	.LEHB616:
 11228 54ae E8000000 		call	_ZN8UnitTest11CurrentTest7ResultsEv@PLT
 11228      00
 11229 54b3 488B18   		movq	(%rax), %rbx
 11230 54b6 E8000000 		call	_ZN8UnitTest11CurrentTest7DetailsEv@PLT
 11230      00
 365:testCore.cpp  **** 	queueCommitPut(&queue);
 11231              		.loc 3 365 0 is_stmt 0 discriminator 8
 11232 54bb 488B08   		movq	(%rax), %rcx
 11233 54be 488D4590 		leaq	-112(%rbp), %rax
 11234 54c2 BA6D0100 		movl	$365, %edx
 11234      00
 11235 54c7 4889CE   		movq	%rcx, %rsi
 11236 54ca 4889C7   		movq	%rax, %rdi
 11237 54cd E8000000 		call	_ZN8UnitTest11TestDetailsC1ERKS0_i@PLT
 11237      00
 365:testCore.cpp  **** 	queueCommitPut(&queue);
 11238              		.loc 3 365 0 discriminator 12
 11239 54d2 488D4590 		leaq	-112(%rbp), %rax
 11240 54d6 488D1500 		leaq	.LC3(%rip), %rdx
 11240      000000
 11241 54dd 4889C6   		movq	%rax, %rsi
 11242 54e0 4889DF   		movq	%rbx, %rdi
 11243 54e3 E8000000 		call	_ZN8UnitTest11TestResults13OnTestFailureERKNS_11TestDetailsEPKc@PLT
 11243      00
 11244              	.LEHE616:
 11245              	.LEHB617:
 365:testCore.cpp  **** 	queueCommitPut(&queue);
 11246              		.loc 3 365 0 discriminator 14
 11247 54e8 E8000000 		call	__cxa_end_catch@PLT
 11247      00
 11248              	.LEHE617:
 11249 54ed E924FCFF 		jmp	.L799
 11249      FF
 11250              	.L835:
 11251 54f2 4889C3   		movq	%rax, %rbx
 365:testCore.cpp  **** 	queueCommitPut(&queue);
 11252              		.loc 3 365 0
 11253 54f5 E8000000 		call	__cxa_end_catch@PLT
 11253      00
 11254 54fa 4889D8   		movq	%rbx, %rax
 11255 54fd 4889C7   		movq	%rax, %rdi
 11256              	.LEHB618:
 11257 5500 E8000000 		call	_Unwind_Resume@PLT
 11257      00
 11258              	.LEHE618:
 11259              	.L837:
 11260 5505 EB00     		jmp	.L802
 11261              	.L836:
 11262              	.L802:
 368:testCore.cpp  **** 	queueCommitPut(&queue);
 11263              		.loc 3 368 0 is_stmt 1
 11264 5507 4889C7   		movq	%rax, %rdi
 11265 550a E8000000 		call	__cxa_begin_catch@PLT
 11265      00
 11266              	.LEHB619:
 11267 550f E8000000 		call	_ZN8UnitTest11CurrentTest7ResultsEv@PLT
 11267      00
 11268 5514 488B18   		movq	(%rax), %rbx
 11269 5517 E8000000 		call	_ZN8UnitTest11CurrentTest7DetailsEv@PLT
 11269      00
 368:testCore.cpp  **** 	queueCommitPut(&queue);
 11270              		.loc 3 368 0 is_stmt 0 discriminator 8
 11271 551c 488B08   		movq	(%rax), %rcx
 11272 551f 488D4590 		leaq	-112(%rbp), %rax
 11273 5523 BA700100 		movl	$368, %edx
 11273      00
 11274 5528 4889CE   		movq	%rcx, %rsi
 11275 552b 4889C7   		movq	%rax, %rdi
 11276 552e E8000000 		call	_ZN8UnitTest11TestDetailsC1ERKS0_i@PLT
 11276      00
 368:testCore.cpp  **** 	queueCommitPut(&queue);
 11277              		.loc 3 368 0 discriminator 12
 11278 5533 488D4590 		leaq	-112(%rbp), %rax
 11279 5537 488D1500 		leaq	.LC3(%rip), %rdx
 11279      000000
 11280 553e 4889C6   		movq	%rax, %rsi
 11281 5541 4889DF   		movq	%rbx, %rdi
 11282 5544 E8000000 		call	_ZN8UnitTest11TestResults13OnTestFailureERKNS_11TestDetailsEPKc@PLT
 11282      00
 11283              	.LEHE619:
 11284              	.LEHB620:
 368:testCore.cpp  **** 	queueCommitPut(&queue);
 11285              		.loc 3 368 0 discriminator 14
 11286 5549 E8000000 		call	__cxa_end_catch@PLT
 11286      00
 11287              	.LEHE620:
 11288 554e E924FCFF 		jmp	.L803
 11288      FF
 11289              	.L838:
 11290 5553 4889C3   		movq	%rax, %rbx
 368:testCore.cpp  **** 	queueCommitPut(&queue);
 11291              		.loc 3 368 0
 11292 5556 E8000000 		call	__cxa_end_catch@PLT
 11292      00
 11293 555b 4889D8   		movq	%rbx, %rax
 11294 555e 4889C7   		movq	%rax, %rdi
 11295              	.LEHB621:
 11296 5561 E8000000 		call	_Unwind_Resume@PLT
 11296      00
 11297              	.LEHE621:
 11298              	.L840:
 11299 5566 EB00     		jmp	.L806
 11300              	.L839:
 11301              	.L806:
 371:testCore.cpp  **** 	queueCommitPut(&queue);
 11302              		.loc 3 371 0 is_stmt 1
 11303 5568 4889C7   		movq	%rax, %rdi
 11304 556b E8000000 		call	__cxa_begin_catch@PLT
 11304      00
 11305              	.LEHB622:
 11306 5570 E8000000 		call	_ZN8UnitTest11CurrentTest7ResultsEv@PLT
 11306      00
 11307 5575 488B18   		movq	(%rax), %rbx
 11308 5578 E8000000 		call	_ZN8UnitTest11CurrentTest7DetailsEv@PLT
 11308      00
 371:testCore.cpp  **** 	queueCommitPut(&queue);
 11309              		.loc 3 371 0 is_stmt 0 discriminator 8
 11310 557d 488B08   		movq	(%rax), %rcx
 11311 5580 488D4590 		leaq	-112(%rbp), %rax
 11312 5584 BA730100 		movl	$371, %edx
 11312      00
 11313 5589 4889CE   		movq	%rcx, %rsi
 11314 558c 4889C7   		movq	%rax, %rdi
 11315 558f E8000000 		call	_ZN8UnitTest11TestDetailsC1ERKS0_i@PLT
 11315      00
 371:testCore.cpp  **** 	queueCommitPut(&queue);
 11316              		.loc 3 371 0 discriminator 12
 11317 5594 488D4590 		leaq	-112(%rbp), %rax
 11318 5598 488D1500 		leaq	.LC3(%rip), %rdx
 11318      000000
 11319 559f 4889C6   		movq	%rax, %rsi
 11320 55a2 4889DF   		movq	%rbx, %rdi
 11321 55a5 E8000000 		call	_ZN8UnitTest11TestResults13OnTestFailureERKNS_11TestDetailsEPKc@PLT
 11321      00
 11322              	.LEHE622:
 11323              	.LEHB623:
 371:testCore.cpp  **** 	queueCommitPut(&queue);
 11324              		.loc 3 371 0 discriminator 14
 11325 55aa E8000000 		call	__cxa_end_catch@PLT
 11325      00
 11326              	.LEHE623:
 11327 55af E924FCFF 		jmp	.L807
 11327      FF
 11328              	.L841:
 11329 55b4 4889C3   		movq	%rax, %rbx
 371:testCore.cpp  **** 	queueCommitPut(&queue);
 11330              		.loc 3 371 0
 11331 55b7 E8000000 		call	__cxa_end_catch@PLT
 11331      00
 11332 55bc 4889D8   		movq	%rbx, %rax
 11333 55bf 4889C7   		movq	%rax, %rdi
 11334              	.LEHB624:
 11335 55c2 E8000000 		call	_Unwind_Resume@PLT
 11335      00
 11336              	.LEHE624:
 11337              	.L843:
 11338 55c7 EB00     		jmp	.L810
 11339              	.L842:
 11340              	.L810:
 374:testCore.cpp  **** 	queueCommitPut(&queue);
 11341              		.loc 3 374 0 is_stmt 1
 11342 55c9 4889C7   		movq	%rax, %rdi
 11343 55cc E8000000 		call	__cxa_begin_catch@PLT
 11343      00
 11344              	.LEHB625:
 11345 55d1 E8000000 		call	_ZN8UnitTest11CurrentTest7ResultsEv@PLT
 11345      00
 11346 55d6 488B18   		movq	(%rax), %rbx
 11347 55d9 E8000000 		call	_ZN8UnitTest11CurrentTest7DetailsEv@PLT
 11347      00
 374:testCore.cpp  **** 	queueCommitPut(&queue);
 11348              		.loc 3 374 0 is_stmt 0 discriminator 8
 11349 55de 488B08   		movq	(%rax), %rcx
 11350 55e1 488D4590 		leaq	-112(%rbp), %rax
 11351 55e5 BA760100 		movl	$374, %edx
 11351      00
 11352 55ea 4889CE   		movq	%rcx, %rsi
 11353 55ed 4889C7   		movq	%rax, %rdi
 11354 55f0 E8000000 		call	_ZN8UnitTest11TestDetailsC1ERKS0_i@PLT
 11354      00
 374:testCore.cpp  **** 	queueCommitPut(&queue);
 11355              		.loc 3 374 0 discriminator 12
 11356 55f5 488D4590 		leaq	-112(%rbp), %rax
 11357 55f9 488D1500 		leaq	.LC3(%rip), %rdx
 11357      000000
 11358 5600 4889C6   		movq	%rax, %rsi
 11359 5603 4889DF   		movq	%rbx, %rdi
 11360 5606 E8000000 		call	_ZN8UnitTest11TestResults13OnTestFailureERKNS_11TestDetailsEPKc@PLT
 11360      00
 11361              	.LEHE625:
 11362              	.LEHB626:
 374:testCore.cpp  **** 	queueCommitPut(&queue);
 11363              		.loc 3 374 0 discriminator 14
 11364 560b E8000000 		call	__cxa_end_catch@PLT
 11364      00
 11365              	.LEHE626:
 11366 5610 E924FCFF 		jmp	.L811
 11366      FF
 11367              	.L844:
 11368 5615 4889C3   		movq	%rax, %rbx
 374:testCore.cpp  **** 	queueCommitPut(&queue);
 11369              		.loc 3 374 0
 11370 5618 E8000000 		call	__cxa_end_catch@PLT
 11370      00
 11371 561d 4889D8   		movq	%rbx, %rax
 11372 5620 4889C7   		movq	%rax, %rdi
 11373              	.LEHB627:
 11374 5623 E8000000 		call	_Unwind_Resume@PLT
 11374      00
 11375              	.LEHE627:
 11376              	.L846:
 11377 5628 EB00     		jmp	.L814
 11378              	.L845:
 11379              	.L814:
 379:testCore.cpp  **** 
 11380              		.loc 3 379 0 is_stmt 1
 11381 562a 4889C7   		movq	%rax, %rdi
 11382 562d E8000000 		call	__cxa_begin_catch@PLT
 11382      00
 11383              	.LEHB628:
 11384 5632 E8000000 		call	_ZN8UnitTest11CurrentTest7ResultsEv@PLT
 11384      00
 11385 5637 488B18   		movq	(%rax), %rbx
 11386 563a E8000000 		call	_ZN8UnitTest11CurrentTest7DetailsEv@PLT
 11386      00
 379:testCore.cpp  **** 
 11387              		.loc 3 379 0 is_stmt 0 discriminator 8
 11388 563f 488B08   		movq	(%rax), %rcx
 11389 5642 488D4590 		leaq	-112(%rbp), %rax
 11390 5646 BA7B0100 		movl	$379, %edx
 11390      00
 11391 564b 4889CE   		movq	%rcx, %rsi
 11392 564e 4889C7   		movq	%rax, %rdi
 11393 5651 E8000000 		call	_ZN8UnitTest11TestDetailsC1ERKS0_i@PLT
 11393      00
 379:testCore.cpp  **** 
 11394              		.loc 3 379 0 discriminator 12
 11395 5656 488D4590 		leaq	-112(%rbp), %rax
 11396 565a 488D1500 		leaq	.LC55(%rip), %rdx
 11396      000000
 11397 5661 4889C6   		movq	%rax, %rsi
 11398 5664 4889DF   		movq	%rbx, %rdi
 11399 5667 E8000000 		call	_ZN8UnitTest11TestResults13OnTestFailureERKNS_11TestDetailsEPKc@PLT
 11399      00
 11400              	.LEHE628:
 11401              	.LEHB629:
 379:testCore.cpp  **** 
 11402              		.loc 3 379 0 discriminator 14
 11403 566c E8000000 		call	__cxa_end_catch@PLT
 11403      00
 11404              	.LEHE629:
 11405 5671 E924FCFF 		jmp	.L815
 11405      FF
 11406              	.L847:
 11407 5676 4889C3   		movq	%rax, %rbx
 379:testCore.cpp  **** 
 11408              		.loc 3 379 0
 11409 5679 E8000000 		call	__cxa_end_catch@PLT
 11409      00
 11410 567e 4889D8   		movq	%rbx, %rax
 11411 5681 4889C7   		movq	%rax, %rdi
 11412              	.LEHB630:
 11413 5684 E8000000 		call	_Unwind_Resume@PLT
 11413      00
 11414              	.LEHE630:
 11415              	.L848:
 11416              		.loc 3 382 0 is_stmt 1
 11417 5689 E8000000 		call	__stack_chk_fail@PLT
 11417      00
 11418              	.L817:
 11419 568e 4881C488 		addq	$136, %rsp
 11419      000000
 11420 5695 5B       		popq	%rbx
 11421 5696 5D       		popq	%rbp
 11422              		.cfi_def_cfa 7, 8
 11423 5697 C3       		ret
 11424              		.cfi_endproc
 11425              	.LFE1131:
 11426              		.section	.gcc_except_table
 11427              		.align 4
 11428              	.LLSDA1131:
 11429 0c94 FF       		.byte	0xff
 11430 0c95 9B       		.byte	0x9b
 11431 0c96 D802     		.uleb128 .LLSDATT1131-.LLSDATTD1131
 11432              	.LLSDATTD1131:
 11433 0c98 01       		.byte	0x1
 11434 0c99 CC02     		.uleb128 .LLSDACSE1131-.LLSDACSB1131
 11435              	.LLSDACSB1131:
 11436 0c9b 46       		.uleb128 .LEHB570-.LFB1131
 11437 0c9c 05       		.uleb128 .LEHE570-.LEHB570
 11438 0c9d 00       		.uleb128 0
 11439 0c9e 00       		.uleb128 0
 11440 0c9f 4E       		.uleb128 .LEHB571-.LFB1131
 11441 0ca0 1C       		.uleb128 .LEHE571-.LEHB571
 11442 0ca1 9108     		.uleb128 .L818-.LFB1131
 11443 0ca3 01       		.uleb128 0x1
 11444 0ca4 71       		.uleb128 .LEHB572-.LFB1131
 11445 0ca5 1C       		.uleb128 .LEHE572-.LEHB572
 11446 0ca6 8F08     		.uleb128 .L819-.LFB1131
 11447 0ca8 03       		.uleb128 0x3
 11448 0ca9 9B01     		.uleb128 .LEHB573-.LFB1131
 11449 0cab 05       		.uleb128 .LEHE573-.LEHB573
 11450 0cac 00       		.uleb128 0
 11451 0cad 00       		.uleb128 0
 11452 0cae A301     		.uleb128 .LEHB574-.LFB1131
 11453 0cb0 1C       		.uleb128 .LEHE574-.LEHB574
 11454 0cb1 F208     		.uleb128 .L821-.LFB1131
 11455 0cb3 01       		.uleb128 0x1
 11456 0cb4 C601     		.uleb128 .LEHB575-.LFB1131
 11457 0cb6 1C       		.uleb128 .LEHE575-.LEHB575
 11458 0cb7 F008     		.uleb128 .L822-.LFB1131
 11459 0cb9 03       		.uleb128 0x3
 11460 0cba E901     		.uleb128 .LEHB576-.LFB1131
 11461 0cbc 18       		.uleb128 .LEHE576-.LEHB576
 11462 0cbd 00       		.uleb128 0
 11463 0cbe 00       		.uleb128 0
 11464 0cbf 8402     		.uleb128 .LEHB577-.LFB1131
 11465 0cc1 1C       		.uleb128 .LEHE577-.LEHB577
 11466 0cc2 D309     		.uleb128 .L824-.LFB1131
 11467 0cc4 01       		.uleb128 0x1
 11468 0cc5 A702     		.uleb128 .LEHB578-.LFB1131
 11469 0cc7 1C       		.uleb128 .LEHE578-.LEHB578
 11470 0cc8 D109     		.uleb128 .L825-.LFB1131
 11471 0cca 03       		.uleb128 0x3
 11472 0ccb CA02     		.uleb128 .LEHB579-.LFB1131
 11473 0ccd 18       		.uleb128 .LEHE579-.LEHB579
 11474 0cce 00       		.uleb128 0
 11475 0ccf 00       		.uleb128 0
 11476 0cd0 E502     		.uleb128 .LEHB580-.LFB1131
 11477 0cd2 1C       		.uleb128 .LEHE580-.LEHB580
 11478 0cd3 B40A     		.uleb128 .L827-.LFB1131
 11479 0cd5 01       		.uleb128 0x1
 11480 0cd6 8803     		.uleb128 .LEHB581-.LFB1131
 11481 0cd8 1C       		.uleb128 .LEHE581-.LEHB581
 11482 0cd9 B20A     		.uleb128 .L828-.LFB1131
 11483 0cdb 03       		.uleb128 0x3
 11484 0cdc AB03     		.uleb128 .LEHB582-.LFB1131
 11485 0cde 18       		.uleb128 .LEHE582-.LEHB582
 11486 0cdf 00       		.uleb128 0
 11487 0ce0 00       		.uleb128 0
 11488 0ce1 C603     		.uleb128 .LEHB583-.LFB1131
 11489 0ce3 1C       		.uleb128 .LEHE583-.LEHB583
 11490 0ce4 950B     		.uleb128 .L830-.LFB1131
 11491 0ce6 01       		.uleb128 0x1
 11492 0ce7 E903     		.uleb128 .LEHB584-.LFB1131
 11493 0ce9 1C       		.uleb128 .LEHE584-.LEHB584
 11494 0cea 930B     		.uleb128 .L831-.LFB1131
 11495 0cec 03       		.uleb128 0x3
 11496 0ced 8C04     		.uleb128 .LEHB585-.LFB1131
 11497 0cef 18       		.uleb128 .LEHE585-.LEHB585
 11498 0cf0 00       		.uleb128 0
 11499 0cf1 00       		.uleb128 0
 11500 0cf2 A704     		.uleb128 .LEHB586-.LFB1131
 11501 0cf4 1C       		.uleb128 .LEHE586-.LEHB586
 11502 0cf5 F60B     		.uleb128 .L833-.LFB1131
 11503 0cf7 01       		.uleb128 0x1
 11504 0cf8 CA04     		.uleb128 .LEHB587-.LFB1131
 11505 0cfa 1C       		.uleb128 .LEHE587-.LEHB587
 11506 0cfb F40B     		.uleb128 .L834-.LFB1131
 11507 0cfd 03       		.uleb128 0x3
 11508 0cfe ED04     		.uleb128 .LEHB588-.LFB1131
 11509 0d00 18       		.uleb128 .LEHE588-.LEHB588
 11510 0d01 00       		.uleb128 0
 11511 0d02 00       		.uleb128 0
 11512 0d03 8805     		.uleb128 .LEHB589-.LFB1131
 11513 0d05 1C       		.uleb128 .LEHE589-.LEHB589
 11514 0d06 D70C     		.uleb128 .L836-.LFB1131
 11515 0d08 01       		.uleb128 0x1
 11516 0d09 AB05     		.uleb128 .LEHB590-.LFB1131
 11517 0d0b 1C       		.uleb128 .LEHE590-.LEHB590
 11518 0d0c D50C     		.uleb128 .L837-.LFB1131
 11519 0d0e 03       		.uleb128 0x3
 11520 0d0f CE05     		.uleb128 .LEHB591-.LFB1131
 11521 0d11 18       		.uleb128 .LEHE591-.LEHB591
 11522 0d12 00       		.uleb128 0
 11523 0d13 00       		.uleb128 0
 11524 0d14 E905     		.uleb128 .LEHB592-.LFB1131
 11525 0d16 1C       		.uleb128 .LEHE592-.LEHB592
 11526 0d17 B80D     		.uleb128 .L839-.LFB1131
 11527 0d19 01       		.uleb128 0x1
 11528 0d1a 8C06     		.uleb128 .LEHB593-.LFB1131
 11529 0d1c 1C       		.uleb128 .LEHE593-.LEHB593
 11530 0d1d B60D     		.uleb128 .L840-.LFB1131
 11531 0d1f 03       		.uleb128 0x3
 11532 0d20 AF06     		.uleb128 .LEHB594-.LFB1131
 11533 0d22 18       		.uleb128 .LEHE594-.LEHB594
 11534 0d23 00       		.uleb128 0
 11535 0d24 00       		.uleb128 0
 11536 0d25 CA06     		.uleb128 .LEHB595-.LFB1131
 11537 0d27 1C       		.uleb128 .LEHE595-.LEHB595
 11538 0d28 990E     		.uleb128 .L842-.LFB1131
 11539 0d2a 01       		.uleb128 0x1
 11540 0d2b ED06     		.uleb128 .LEHB596-.LFB1131
 11541 0d2d 1C       		.uleb128 .LEHE596-.LEHB596
 11542 0d2e 970E     		.uleb128 .L843-.LFB1131
 11543 0d30 03       		.uleb128 0x3
 11544 0d31 9007     		.uleb128 .LEHB597-.LFB1131
 11545 0d33 18       		.uleb128 .LEHE597-.LEHB597
 11546 0d34 00       		.uleb128 0
 11547 0d35 00       		.uleb128 0
 11548 0d36 AB07     		.uleb128 .LEHB598-.LFB1131
 11549 0d38 1C       		.uleb128 .LEHE598-.LEHB598
 11550 0d39 FA0E     		.uleb128 .L845-.LFB1131
 11551 0d3b 01       		.uleb128 0x1
 11552 0d3c CE07     		.uleb128 .LEHB599-.LFB1131
 11553 0d3e 1C       		.uleb128 .LEHE599-.LEHB599
 11554 0d3f F80E     		.uleb128 .L846-.LFB1131
 11555 0d41 03       		.uleb128 0x3
 11556 0d42 F107     		.uleb128 .LEHB600-.LFB1131
 11557 0d44 05       		.uleb128 .LEHE600-.LEHB600
 11558 0d45 00       		.uleb128 0
 11559 0d46 00       		.uleb128 0
 11560 0d47 9908     		.uleb128 .LEHB601-.LFB1131
 11561 0d49 3A       		.uleb128 .LEHE601-.LEHB601
 11562 0d4a DD08     		.uleb128 .L820-.LFB1131
 11563 0d4c 00       		.uleb128 0
 11564 0d4d D308     		.uleb128 .LEHB602-.LFB1131
 11565 0d4f 05       		.uleb128 .LEHE602-.LEHB602
 11566 0d50 00       		.uleb128 0
 11567 0d51 00       		.uleb128 0
 11568 0d52 EB08     		.uleb128 .LEHB603-.LFB1131
 11569 0d54 05       		.uleb128 .LEHE603-.LEHB603
 11570 0d55 00       		.uleb128 0
 11571 0d56 00       		.uleb128 0
 11572 0d57 FA08     		.uleb128 .LEHB604-.LFB1131
 11573 0d59 3A       		.uleb128 .LEHE604-.LEHB604
 11574 0d5a BE09     		.uleb128 .L823-.LFB1131
 11575 0d5c 00       		.uleb128 0
 11576 0d5d B409     		.uleb128 .LEHB605-.LFB1131
 11577 0d5f 05       		.uleb128 .LEHE605-.LEHB605
 11578 0d60 00       		.uleb128 0
 11579 0d61 00       		.uleb128 0
 11580 0d62 CC09     		.uleb128 .LEHB606-.LFB1131
 11581 0d64 05       		.uleb128 .LEHE606-.LEHB606
 11582 0d65 00       		.uleb128 0
 11583 0d66 00       		.uleb128 0
 11584 0d67 DB09     		.uleb128 .LEHB607-.LFB1131
 11585 0d69 3A       		.uleb128 .LEHE607-.LEHB607
 11586 0d6a 9F0A     		.uleb128 .L826-.LFB1131
 11587 0d6c 00       		.uleb128 0
 11588 0d6d 950A     		.uleb128 .LEHB608-.LFB1131
 11589 0d6f 05       		.uleb128 .LEHE608-.LEHB608
 11590 0d70 00       		.uleb128 0
 11591 0d71 00       		.uleb128 0
 11592 0d72 AD0A     		.uleb128 .LEHB609-.LFB1131
 11593 0d74 05       		.uleb128 .LEHE609-.LEHB609
 11594 0d75 00       		.uleb128 0
 11595 0d76 00       		.uleb128 0
 11596 0d77 BC0A     		.uleb128 .LEHB610-.LFB1131
 11597 0d79 3A       		.uleb128 .LEHE610-.LEHB610
 11598 0d7a 800B     		.uleb128 .L829-.LFB1131
 11599 0d7c 00       		.uleb128 0
 11600 0d7d F60A     		.uleb128 .LEHB611-.LFB1131
 11601 0d7f 05       		.uleb128 .LEHE611-.LEHB611
 11602 0d80 00       		.uleb128 0
 11603 0d81 00       		.uleb128 0
 11604 0d82 8E0B     		.uleb128 .LEHB612-.LFB1131
 11605 0d84 05       		.uleb128 .LEHE612-.LEHB612
 11606 0d85 00       		.uleb128 0
 11607 0d86 00       		.uleb128 0
 11608 0d87 9D0B     		.uleb128 .LEHB613-.LFB1131
 11609 0d89 3A       		.uleb128 .LEHE613-.LEHB613
 11610 0d8a E10B     		.uleb128 .L832-.LFB1131
 11611 0d8c 00       		.uleb128 0
 11612 0d8d D70B     		.uleb128 .LEHB614-.LFB1131
 11613 0d8f 05       		.uleb128 .LEHE614-.LEHB614
 11614 0d90 00       		.uleb128 0
 11615 0d91 00       		.uleb128 0
 11616 0d92 EF0B     		.uleb128 .LEHB615-.LFB1131
 11617 0d94 05       		.uleb128 .LEHE615-.LEHB615
 11618 0d95 00       		.uleb128 0
 11619 0d96 00       		.uleb128 0
 11620 0d97 FE0B     		.uleb128 .LEHB616-.LFB1131
 11621 0d99 3A       		.uleb128 .LEHE616-.LEHB616
 11622 0d9a C20C     		.uleb128 .L835-.LFB1131
 11623 0d9c 00       		.uleb128 0
 11624 0d9d B80C     		.uleb128 .LEHB617-.LFB1131
 11625 0d9f 05       		.uleb128 .LEHE617-.LEHB617
 11626 0da0 00       		.uleb128 0
 11627 0da1 00       		.uleb128 0
 11628 0da2 D00C     		.uleb128 .LEHB618-.LFB1131
 11629 0da4 05       		.uleb128 .LEHE618-.LEHB618
 11630 0da5 00       		.uleb128 0
 11631 0da6 00       		.uleb128 0
 11632 0da7 DF0C     		.uleb128 .LEHB619-.LFB1131
 11633 0da9 3A       		.uleb128 .LEHE619-.LEHB619
 11634 0daa A30D     		.uleb128 .L838-.LFB1131
 11635 0dac 00       		.uleb128 0
 11636 0dad 990D     		.uleb128 .LEHB620-.LFB1131
 11637 0daf 05       		.uleb128 .LEHE620-.LEHB620
 11638 0db0 00       		.uleb128 0
 11639 0db1 00       		.uleb128 0
 11640 0db2 B10D     		.uleb128 .LEHB621-.LFB1131
 11641 0db4 05       		.uleb128 .LEHE621-.LEHB621
 11642 0db5 00       		.uleb128 0
 11643 0db6 00       		.uleb128 0
 11644 0db7 C00D     		.uleb128 .LEHB622-.LFB1131
 11645 0db9 3A       		.uleb128 .LEHE622-.LEHB622
 11646 0dba 840E     		.uleb128 .L841-.LFB1131
 11647 0dbc 00       		.uleb128 0
 11648 0dbd FA0D     		.uleb128 .LEHB623-.LFB1131
 11649 0dbf 05       		.uleb128 .LEHE623-.LEHB623
 11650 0dc0 00       		.uleb128 0
 11651 0dc1 00       		.uleb128 0
 11652 0dc2 920E     		.uleb128 .LEHB624-.LFB1131
 11653 0dc4 05       		.uleb128 .LEHE624-.LEHB624
 11654 0dc5 00       		.uleb128 0
 11655 0dc6 00       		.uleb128 0
 11656 0dc7 A10E     		.uleb128 .LEHB625-.LFB1131
 11657 0dc9 3A       		.uleb128 .LEHE625-.LEHB625
 11658 0dca E50E     		.uleb128 .L844-.LFB1131
 11659 0dcc 00       		.uleb128 0
 11660 0dcd DB0E     		.uleb128 .LEHB626-.LFB1131
 11661 0dcf 05       		.uleb128 .LEHE626-.LEHB626
 11662 0dd0 00       		.uleb128 0
 11663 0dd1 00       		.uleb128 0
 11664 0dd2 F30E     		.uleb128 .LEHB627-.LFB1131
 11665 0dd4 05       		.uleb128 .LEHE627-.LEHB627
 11666 0dd5 00       		.uleb128 0
 11667 0dd6 00       		.uleb128 0
 11668 0dd7 820F     		.uleb128 .LEHB628-.LFB1131
 11669 0dd9 3A       		.uleb128 .LEHE628-.LEHB628
 11670 0dda C60F     		.uleb128 .L847-.LFB1131
 11671 0ddc 00       		.uleb128 0
 11672 0ddd BC0F     		.uleb128 .LEHB629-.LFB1131
 11673 0ddf 05       		.uleb128 .LEHE629-.LEHB629
 11674 0de0 00       		.uleb128 0
 11675 0de1 00       		.uleb128 0
 11676 0de2 D40F     		.uleb128 .LEHB630-.LFB1131
 11677 0de4 05       		.uleb128 .LEHE630-.LEHB630
 11678 0de5 00       		.uleb128 0
 11679 0de6 00       		.uleb128 0
 11680              	.LLSDACSE1131:
 11681 0de7 01       		.byte	0x1
 11682 0de8 00       		.byte	0
 11683 0de9 00       		.byte	0
 11684 0dea 7D       		.byte	0x7d
 11685 0deb 00       		.align 4
 11686 0dec 00000000 		.long	0
 11687              	
 11688              	.LLSDATT1131:
 11689              		.text
 11691              		.section	.rodata
 11692              	.LC57:
 11693 0c37 51756575 		.string	"Queue_testAllocFreeMatching"
 11693      655F7465 
 11693      7374416C 
 11693      6C6F6346 
 11693      7265654D 
 11694              		.section	.text._ZN31TestQueue_testAllocFreeMatchingC2Ev,"axG",@progbits,_ZN31TestQueue_testAllocFr
 11695              		.align 2
 11696              		.weak	_ZN31TestQueue_testAllocFreeMatchingC2Ev
 11698              	_ZN31TestQueue_testAllocFreeMatchingC2Ev:
 11699              	.LFB1133:
 383:testCore.cpp  **** 
 384:testCore.cpp  **** TEST(Queue_testAllocFreeMatching) {
 11700              		.loc 3 384 0
 11701              		.cfi_startproc
 11702 0000 55       		pushq	%rbp
 11703              		.cfi_def_cfa_offset 16
 11704              		.cfi_offset 6, -16
 11705 0001 4889E5   		movq	%rsp, %rbp
 11706              		.cfi_def_cfa_register 6
 11707 0004 53       		pushq	%rbx
 11708 0005 4883EC18 		subq	$24, %rsp
 11709              		.cfi_offset 3, -24
 11710 0009 48897DE8 		movq	%rdi, -24(%rbp)
 11711              	.LBB11:
 11712              		.loc 3 384 0
 11713 000d 488B5DE8 		movq	-24(%rbp), %rbx
 11714 0011 E8000000 		call	_ZN13UnitTestSuite12GetSuiteNameEv
 11714      00
 11715 0016 41B88001 		movl	$384, %r8d
 11715      0000
 11716 001c 488D0D00 		leaq	.LC1(%rip), %rcx
 11716      000000
 11717 0023 4889C2   		movq	%rax, %rdx
 11718 0026 488D3500 		leaq	.LC57(%rip), %rsi
 11718      000000
 11719 002d 4889DF   		movq	%rbx, %rdi
 11720 0030 E8000000 		call	_ZN8UnitTest4TestC2EPKcS2_S2_i@PLT
 11720      00
 11721 0035 488D1500 		leaq	16+_ZTV31TestQueue_testAllocFreeMatching(%rip), %rdx
 11721      000000
 11722 003c 488B45E8 		movq	-24(%rbp), %rax
 11723 0040 488910   		movq	%rdx, (%rax)
 11724              	.LBE11:
 11725 0043 90       		nop
 11726 0044 4883C418 		addq	$24, %rsp
 11727 0048 5B       		popq	%rbx
 11728 0049 5D       		popq	%rbp
 11729              		.cfi_def_cfa 7, 8
 11730 004a C3       		ret
 11731              		.cfi_endproc
 11732              	.LFE1133:
 11734              		.weak	_ZN31TestQueue_testAllocFreeMatchingC1Ev
 11735              		.set	_ZN31TestQueue_testAllocFreeMatchingC1Ev,_ZN31TestQueue_testAllocFreeMatchingC2Ev
 11736              		.globl	testQueue_testAllocFreeMatchingInstance
 11737              		.bss
 11738 01b9 00000000 		.align 32
 11738      000000
 11741              	testQueue_testAllocFreeMatchingInstance:
 11742 01c0 00000000 		.zero	56
 11742      00000000 
 11742      00000000 
 11742      00000000 
 11742      00000000 
 11743              		.globl	adderQueue_testAllocFreeMatching
 11746              	adderQueue_testAllocFreeMatching:
 11747 01f8 00       		.zero	1
 11748              		.section	.rodata
 11749 0c53 00000000 		.align 8
 11749      00
 11750              	.LC58:
 11751 0c58 556E6861 		.string	"Unhandled exception in CHECK_EQUAL(0, m_allocFree)"
 11751      6E646C65 
 11751      64206578 
 11751      63657074 
 11751      696F6E20 
 11752              		.text
 11753              		.align 2
 11754              		.globl	_ZNK31TestQueue_testAllocFreeMatching7RunImplEv
 11756              	_ZNK31TestQueue_testAllocFreeMatching7RunImplEv:
 11757              	.LFB1135:
 11758              		.loc 3 384 0
 11759              		.cfi_startproc
 11760              		.cfi_personality 0x9b,DW.ref.__gxx_personality_v0
 11761              		.cfi_lsda 0x1b,.LLSDA1135
 11762 5698 55       		pushq	%rbp
 11763              		.cfi_def_cfa_offset 16
 11764              		.cfi_offset 6, -16
 11765 5699 4889E5   		movq	%rsp, %rbp
 11766              		.cfi_def_cfa_register 6
 11767 569c 53       		pushq	%rbx
 11768 569d 4883EC58 		subq	$88, %rsp
 11769              		.cfi_offset 3, -24
 11770 56a1 48897DA8 		movq	%rdi, -88(%rbp)
 11771              		.loc 3 384 0
 11772 56a5 64488B04 		movq	%fs:40, %rax
 11772      25280000 
 11772      00
 11773 56ae 488945E8 		movq	%rax, -24(%rbp)
 11774 56b2 31C0     		xorl	%eax, %eax
 11775              	.LEHB631:
 385:testCore.cpp  **** 	CHECK_EQUAL(0, m_allocFree);
 11776              		.loc 3 385 0
 11777 56b4 E8000000 		call	_ZN8UnitTest11CurrentTest7DetailsEv@PLT
 11777      00
 11778 56b9 488B08   		movq	(%rax), %rcx
 11779 56bc 488D45C0 		leaq	-64(%rbp), %rax
 11780 56c0 BA810100 		movl	$385, %edx
 11780      00
 11781 56c5 4889CE   		movq	%rcx, %rsi
 11782 56c8 4889C7   		movq	%rax, %rdi
 11783 56cb E8000000 		call	_ZN8UnitTest11TestDetailsC1ERKS0_i@PLT
 11783      00
 11784              	.LEHE631:
 11785              		.loc 3 385 0 is_stmt 0 discriminator 2
 11786 56d0 C745BC00 		movl	$0, -68(%rbp)
 11786      000000
 11787              	.LEHB632:
 11788 56d7 E8000000 		call	_ZN8UnitTest11CurrentTest7ResultsEv@PLT
 11788      00
 11789 56dc 488B00   		movq	(%rax), %rax
 11790 56df 488D55C0 		leaq	-64(%rbp), %rdx
 11791 56e3 488D75BC 		leaq	-68(%rbp), %rsi
 11792 56e7 4889D1   		movq	%rdx, %rcx
 11793 56ea 488D1500 		leaq	_ZL11m_allocFree(%rip), %rdx
 11793      000000
 11794 56f1 4889C7   		movq	%rax, %rdi
 11795 56f4 E8000000 		call	_ZN8UnitTest10CheckEqualIiiEEvRNS_11TestResultsERKT_RKT0_RKNS_11TestDetailsE
 11795      00
 11796              	.LEHE632:
 386:testCore.cpp  **** }
 11797              		.loc 3 386 0 is_stmt 1
 11798 56f9 EB5E     		jmp	.L850
 11799              	.L857:
 11800 56fb EB00     		jmp	.L852
 11801              	.L856:
 11802              	.L852:
 385:testCore.cpp  **** 	CHECK_EQUAL(0, m_allocFree);
 11803              		.loc 3 385 0
 11804 56fd 4889C7   		movq	%rax, %rdi
 11805 5700 E8000000 		call	__cxa_begin_catch@PLT
 11805      00
 11806              	.LEHB633:
 11807 5705 E8000000 		call	_ZN8UnitTest11CurrentTest7ResultsEv@PLT
 11807      00
 11808 570a 488B18   		movq	(%rax), %rbx
 11809 570d E8000000 		call	_ZN8UnitTest11CurrentTest7DetailsEv@PLT
 11809      00
 385:testCore.cpp  **** 	CHECK_EQUAL(0, m_allocFree);
 11810              		.loc 3 385 0 is_stmt 0 discriminator 8
 11811 5712 488B08   		movq	(%rax), %rcx
 11812 5715 488D45C0 		leaq	-64(%rbp), %rax
 11813 5719 BA810100 		movl	$385, %edx
 11813      00
 11814 571e 4889CE   		movq	%rcx, %rsi
 11815 5721 4889C7   		movq	%rax, %rdi
 11816 5724 E8000000 		call	_ZN8UnitTest11TestDetailsC1ERKS0_i@PLT
 11816      00
 385:testCore.cpp  **** 	CHECK_EQUAL(0, m_allocFree);
 11817              		.loc 3 385 0 discriminator 12
 11818 5729 488D45C0 		leaq	-64(%rbp), %rax
 11819 572d 488D1500 		leaq	.LC58(%rip), %rdx
 11819      000000
 11820 5734 4889C6   		movq	%rax, %rsi
 11821 5737 4889DF   		movq	%rbx, %rdi
 11822 573a E8000000 		call	_ZN8UnitTest11TestResults13OnTestFailureERKNS_11TestDetailsEPKc@PLT
 11822      00
 11823              	.LEHE633:
 11824              	.LEHB634:
 385:testCore.cpp  **** 	CHECK_EQUAL(0, m_allocFree);
 11825              		.loc 3 385 0 discriminator 14
 11826 573f E8000000 		call	__cxa_end_catch@PLT
 11826      00
 11827              	.LEHE634:
 11828              		.loc 3 386 0 is_stmt 1 discriminator 14
 11829 5744 EB13     		jmp	.L850
 11830              	.L858:
 11831 5746 4889C3   		movq	%rax, %rbx
 385:testCore.cpp  **** 	CHECK_EQUAL(0, m_allocFree);
 11832              		.loc 3 385 0
 11833 5749 E8000000 		call	__cxa_end_catch@PLT
 11833      00
 11834 574e 4889D8   		movq	%rbx, %rax
 11835 5751 4889C7   		movq	%rax, %rdi
 11836              	.LEHB635:
 11837 5754 E8000000 		call	_Unwind_Resume@PLT
 11837      00
 11838              	.LEHE635:
 11839              	.L850:
 11840              		.loc 3 386 0
 11841 5759 488B45E8 		movq	-24(%rbp), %rax
 11842 575d 64483304 		xorq	%fs:40, %rax
 11842      25280000 
 11842      00
 11843 5766 7405     		je	.L855
 11844 5768 E8000000 		call	__stack_chk_fail@PLT
 11844      00
 11845              	.L855:
 11846 576d 4883C458 		addq	$88, %rsp
 11847 5771 5B       		popq	%rbx
 11848 5772 5D       		popq	%rbp
 11849              		.cfi_def_cfa 7, 8
 11850 5773 C3       		ret
 11851              		.cfi_endproc
 11852              	.LFE1135:
 11853              		.section	.gcc_except_table
 11854              		.align 4
 11855              	.LLSDA1135:
 11856 0df0 FF       		.byte	0xff
 11857 0df1 9B       		.byte	0x9b
 11858 0df2 21       		.uleb128 .LLSDATT1135-.LLSDATTD1135
 11859              	.LLSDATTD1135:
 11860 0df3 01       		.byte	0x1
 11861 0df4 17       		.uleb128 .LLSDACSE1135-.LLSDACSB1135
 11862              	.LLSDACSB1135:
 11863 0df5 1C       		.uleb128 .LEHB631-.LFB1135
 11864 0df6 1C       		.uleb128 .LEHE631-.LEHB631
 11865 0df7 65       		.uleb128 .L856-.LFB1135
 11866 0df8 01       		.uleb128 0x1
 11867 0df9 3F       		.uleb128 .LEHB632-.LFB1135
 11868 0dfa 22       		.uleb128 .LEHE632-.LEHB632
 11869 0dfb 63       		.uleb128 .L857-.LFB1135
 11870 0dfc 03       		.uleb128 0x3
 11871 0dfd 6D       		.uleb128 .LEHB633-.LFB1135
 11872 0dfe 3A       		.uleb128 .LEHE633-.LEHB633
 11873 0dff AE01     		.uleb128 .L858-.LFB1135
 11874 0e01 00       		.uleb128 0
 11875 0e02 A701     		.uleb128 .LEHB634-.LFB1135
 11876 0e04 05       		.uleb128 .LEHE634-.LEHB634
 11877 0e05 00       		.uleb128 0
 11878 0e06 00       		.uleb128 0
 11879 0e07 BC01     		.uleb128 .LEHB635-.LFB1135
 11880 0e09 05       		.uleb128 .LEHE635-.LEHB635
 11881 0e0a 00       		.uleb128 0
 11882 0e0b 00       		.uleb128 0
 11883              	.LLSDACSE1135:
 11884 0e0c 01       		.byte	0x1
 11885 0e0d 00       		.byte	0
 11886 0e0e 00       		.byte	0
 11887 0e0f 7D       		.byte	0x7d
 11888              		.align 4
 11889 0e10 00000000 		.long	0
 11890              	
 11891              	.LLSDATT1135:
 11892              		.text
 11894              		.section	.text._ZN8UnitTest15MemoryOutStreamD1Ev,"axG",@progbits,_ZN8UnitTest15MemoryOutStreamD1Ev
 11895              		.align 2
 11896              		.weak	_ZN8UnitTest15MemoryOutStreamD1Ev
 11898              	_ZN8UnitTest15MemoryOutStreamD1Ev:
 11899              	.LFB1166:
  13:/home/gani/eval/20140524/makestuff/libs/libutpp/MemoryOutStream.h **** {
 11900              		.loc 2 13 0
 11901              		.cfi_startproc
 11902              		.cfi_personality 0x9b,DW.ref.__gxx_personality_v0
 11903              		.cfi_lsda 0x1b,.LLSDA1166
 11904 0000 55       		pushq	%rbp
 11905              		.cfi_def_cfa_offset 16
 11906              		.cfi_offset 6, -16
 11907 0001 4889E5   		movq	%rsp, %rbp
 11908              		.cfi_def_cfa_register 6
 11909 0004 53       		pushq	%rbx
 11910 0005 4883EC18 		subq	$24, %rsp
 11911              		.cfi_offset 3, -24
 11912 0009 48897DE8 		movq	%rdi, -24(%rbp)
 11913              	.LBB12:
  13:/home/gani/eval/20140524/makestuff/libs/libutpp/MemoryOutStream.h **** {
 11914              		.loc 2 13 0
 11915 000d 488D1500 		leaq	24+_ZTVN8UnitTest15MemoryOutStreamE(%rip), %rdx
 11915      000000
 11916 0014 488B45E8 		movq	-24(%rbp), %rax
 11917 0018 488910   		movq	%rdx, (%rax)
 11918 001b 488B45E8 		movq	-24(%rbp), %rax
 11919 001f 488D9090 		leaq	144(%rax), %rdx
 11919      000000
 11920 0026 488D0500 		leaq	64+_ZTVN8UnitTest15MemoryOutStreamE(%rip), %rax
 11920      000000
 11921 002d 488902   		movq	%rax, (%rdx)
 11922 0030 488B45E8 		movq	-24(%rbp), %rax
 11923 0034 4883C070 		addq	$112, %rax
 11924 0038 4889C7   		movq	%rax, %rdi
 11925              	.LEHB636:
 11926 003b E8000000 		call	_ZNSt7__cxx1112basic_stringIcSt11char_traitsIcESaIcEED1Ev@PLT
 11926      00
 11927              	.LEHE636:
  13:/home/gani/eval/20140524/makestuff/libs/libutpp/MemoryOutStream.h **** {
 11928              		.loc 2 13 0 is_stmt 0 discriminator 2
 11929 0040 488B45E8 		movq	-24(%rbp), %rax
 11930 0044 488D1500 		leaq	8+_ZTTN8UnitTest15MemoryOutStreamE(%rip), %rdx
 11930      000000
 11931 004b 4889D6   		movq	%rdx, %rsi
 11932 004e 4889C7   		movq	%rax, %rdi
 11933              	.LEHB637:
 11934 0051 E8000000 		call	_ZNSt7__cxx1119basic_ostringstreamIcSt11char_traitsIcESaIcEED2Ev@PLT
 11934      00
 11935              	.LEHE637:
  13:/home/gani/eval/20140524/makestuff/libs/libutpp/MemoryOutStream.h **** {
 11936              		.loc 2 13 0 discriminator 4
 11937 0056 488B45E8 		movq	-24(%rbp), %rax
 11938 005a 48059000 		addq	$144, %rax
 11938      0000
 11939 0060 4889C7   		movq	%rax, %rdi
 11940              	.LEHB638:
 11941 0063 E8000000 		call	_ZNSt9basic_iosIcSt11char_traitsIcEED2Ev@PLT
 11941      00
 11942              	.LEHE638:
 11943              	.LBE12:
 11944 0068 EB3B     		jmp	.L864
 11945              	.L862:
 11946 006a 4889C3   		movq	%rax, %rbx
 11947              	.LBB13:
  13:/home/gani/eval/20140524/makestuff/libs/libutpp/MemoryOutStream.h **** {
 11948              		.loc 2 13 0
 11949 006d 488B45E8 		movq	-24(%rbp), %rax
 11950 0071 488D1500 		leaq	8+_ZTTN8UnitTest15MemoryOutStreamE(%rip), %rdx
 11950      000000
 11951 0078 4889D6   		movq	%rdx, %rsi
 11952 007b 4889C7   		movq	%rax, %rdi
 11953 007e E8000000 		call	_ZNSt7__cxx1119basic_ostringstreamIcSt11char_traitsIcESaIcEED2Ev@PLT
 11953      00
 11954 0083 EB03     		jmp	.L861
 11955              	.L863:
 11956 0085 4889C3   		movq	%rax, %rbx
 11957              	.L861:
  13:/home/gani/eval/20140524/makestuff/libs/libutpp/MemoryOutStream.h **** {
 11958              		.loc 2 13 0 discriminator 3
 11959 0088 488B45E8 		movq	-24(%rbp), %rax
 11960 008c 48059000 		addq	$144, %rax
 11960      0000
 11961 0092 4889C7   		movq	%rax, %rdi
 11962 0095 E8000000 		call	_ZNSt9basic_iosIcSt11char_traitsIcEED2Ev@PLT
 11962      00
 11963 009a 4889D8   		movq	%rbx, %rax
 11964 009d 4889C7   		movq	%rax, %rdi
 11965              	.LEHB639:
 11966 00a0 E8000000 		call	_Unwind_Resume@PLT
 11966      00
 11967              	.LEHE639:
 11968              	.L864:
 11969              	.LBE13:
  13:/home/gani/eval/20140524/makestuff/libs/libutpp/MemoryOutStream.h **** {
 11970              		.loc 2 13 0
 11971 00a5 4883C418 		addq	$24, %rsp
 11972 00a9 5B       		popq	%rbx
 11973 00aa 5D       		popq	%rbp
 11974              		.cfi_def_cfa 7, 8
 11975 00ab C3       		ret
 11976              		.cfi_endproc
 11977              	.LFE1166:
 11978              		.section	.gcc_except_table
 11979              	.LLSDA1166:
 11980 0e14 FF       		.byte	0xff
 11981 0e15 FF       		.byte	0xff
 11982 0e16 01       		.byte	0x1
 11983 0e17 12       		.uleb128 .LLSDACSE1166-.LLSDACSB1166
 11984              	.LLSDACSB1166:
 11985 0e18 3B       		.uleb128 .LEHB636-.LFB1166
 11986 0e19 05       		.uleb128 .LEHE636-.LEHB636
 11987 0e1a 6A       		.uleb128 .L862-.LFB1166
 11988 0e1b 00       		.uleb128 0
 11989 0e1c 51       		.uleb128 .LEHB637-.LFB1166
 11990 0e1d 05       		.uleb128 .LEHE637-.LEHB637
 11991 0e1e 8501     		.uleb128 .L863-.LFB1166
 11992 0e20 00       		.uleb128 0
 11993 0e21 63       		.uleb128 .LEHB638-.LFB1166
 11994 0e22 05       		.uleb128 .LEHE638-.LEHB638
 11995 0e23 00       		.uleb128 0
 11996 0e24 00       		.uleb128 0
 11997 0e25 A001     		.uleb128 .LEHB639-.LFB1166
 11998 0e27 05       		.uleb128 .LEHE639-.LEHB639
 11999 0e28 00       		.uleb128 0
 12000 0e29 00       		.uleb128 0
 12001              	.LLSDACSE1166:
 12002              		.section	.text._ZN8UnitTest15MemoryOutStreamD1Ev,"axG",@progbits,_ZN8UnitTest15MemoryOutStreamD1Ev
 12004              		.set	.LTHUNK0,_ZN8UnitTest15MemoryOutStreamD1Ev
 12005              		.weak	_ZTv0_n24_N8UnitTest15MemoryOutStreamD1Ev
 12007              	_ZTv0_n24_N8UnitTest15MemoryOutStreamD1Ev:
 12008              	.LFB1259:
  13:/home/gani/eval/20140524/makestuff/libs/libutpp/MemoryOutStream.h **** {
 12009              		.loc 2 13 0 is_stmt 1
 12010              		.cfi_startproc
 12011 00ac 4C8B17   		movq	(%rdi), %r10
 12012 00af 49037AE8 		addq	-24(%r10), %rdi
 12013 00b3 E948FFFF 		jmp	.LTHUNK0
 12013      FF
 12014              		.cfi_endproc
 12015              	.LFE1259:
 12017              		.section	.text._ZN8UnitTest15MemoryOutStreamD0Ev,"axG",@progbits,_ZN8UnitTest15MemoryOutStreamD0Ev
 12018              		.align 2
 12019              		.weak	_ZN8UnitTest15MemoryOutStreamD0Ev
 12021              	_ZN8UnitTest15MemoryOutStreamD0Ev:
 12022              	.LFB1167:
  13:/home/gani/eval/20140524/makestuff/libs/libutpp/MemoryOutStream.h **** {
 12023              		.loc 2 13 0
 12024              		.cfi_startproc
 12025              		.cfi_personality 0x9b,DW.ref.__gxx_personality_v0
 12026              		.cfi_lsda 0x1b,.LLSDA1167
 12027 0000 55       		pushq	%rbp
 12028              		.cfi_def_cfa_offset 16
 12029              		.cfi_offset 6, -16
 12030 0001 4889E5   		movq	%rsp, %rbp
 12031              		.cfi_def_cfa_register 6
 12032 0004 53       		pushq	%rbx
 12033 0005 4883EC18 		subq	$24, %rsp
 12034              		.cfi_offset 3, -24
 12035 0009 48897DE8 		movq	%rdi, -24(%rbp)
  13:/home/gani/eval/20140524/makestuff/libs/libutpp/MemoryOutStream.h **** {
 12036              		.loc 2 13 0
 12037 000d 488B45E8 		movq	-24(%rbp), %rax
 12038 0011 4889C7   		movq	%rax, %rdi
 12039              	.LEHB640:
 12040 0014 E8000000 		call	_ZN8UnitTest15MemoryOutStreamD1Ev
 12040      00
 12041              	.LEHE640:
  13:/home/gani/eval/20140524/makestuff/libs/libutpp/MemoryOutStream.h **** {
 12042              		.loc 2 13 0 is_stmt 0 discriminator 2
 12043 0019 488B45E8 		movq	-24(%rbp), %rax
 12044 001d 4889C7   		movq	%rax, %rdi
 12045 0020 E8000000 		call	_ZdlPv@PLT
 12045      00
 12046 0025 EB1A     		jmp	.L868
 12047              	.L867:
 12048 0027 4889C3   		movq	%rax, %rbx
  13:/home/gani/eval/20140524/makestuff/libs/libutpp/MemoryOutStream.h **** {
 12049              		.loc 2 13 0
 12050 002a 488B45E8 		movq	-24(%rbp), %rax
 12051 002e 4889C7   		movq	%rax, %rdi
 12052 0031 E8000000 		call	_ZdlPv@PLT
 12052      00
 12053 0036 4889D8   		movq	%rbx, %rax
 12054 0039 4889C7   		movq	%rax, %rdi
 12055              	.LEHB641:
 12056 003c E8000000 		call	_Unwind_Resume@PLT
 12056      00
 12057              	.LEHE641:
 12058              	.L868:
 12059 0041 4883C418 		addq	$24, %rsp
 12060 0045 5B       		popq	%rbx
 12061 0046 5D       		popq	%rbp
 12062              		.cfi_def_cfa 7, 8
 12063 0047 C3       		ret
 12064              		.cfi_endproc
 12065              	.LFE1167:
 12066              		.section	.gcc_except_table
 12067              	.LLSDA1167:
 12068 0e2a FF       		.byte	0xff
 12069 0e2b FF       		.byte	0xff
 12070 0e2c 01       		.byte	0x1
 12071 0e2d 08       		.uleb128 .LLSDACSE1167-.LLSDACSB1167
 12072              	.LLSDACSB1167:
 12073 0e2e 14       		.uleb128 .LEHB640-.LFB1167
 12074 0e2f 05       		.uleb128 .LEHE640-.LEHB640
 12075 0e30 27       		.uleb128 .L867-.LFB1167
 12076 0e31 00       		.uleb128 0
 12077 0e32 3C       		.uleb128 .LEHB641-.LFB1167
 12078 0e33 05       		.uleb128 .LEHE641-.LEHB641
 12079 0e34 00       		.uleb128 0
 12080 0e35 00       		.uleb128 0
 12081              	.LLSDACSE1167:
 12082              		.section	.text._ZN8UnitTest15MemoryOutStreamD0Ev,"axG",@progbits,_ZN8UnitTest15MemoryOutStreamD0Ev
 12084              		.set	.LTHUNK1,_ZN8UnitTest15MemoryOutStreamD0Ev
 12085              		.weak	_ZTv0_n24_N8UnitTest15MemoryOutStreamD0Ev
 12087              	_ZTv0_n24_N8UnitTest15MemoryOutStreamD0Ev:
 12088              	.LFB1260:
  13:/home/gani/eval/20140524/makestuff/libs/libutpp/MemoryOutStream.h **** {
 12089              		.loc 2 13 0 is_stmt 1
 12090              		.cfi_startproc
 12091 0048 4C8B17   		movq	(%rdi), %r10
 12092 004b 49037AE8 		addq	-24(%r10), %rdi
 12093 004f EBAF     		jmp	.LTHUNK1
 12094              		.cfi_endproc
 12095              	.LFE1260:
 12097              		.section	.rodata
 12098              	.LC59:
 12099 0c8b 45787065 		.string	"Expected "
 12099      63746564 
 12099      2000
 12100              	.LC60:
 12101 0c95 20627574 		.string	" but was "
 12101      20776173 
 12101      2000
 12102              		.section	.text._ZN8UnitTest10CheckEqualI9USBStatusS1_EEvRNS_11TestResultsERKT_RKT0_RKNS_11TestDeta
 12103              		.weak	_ZN8UnitTest10CheckEqualI9USBStatusS1_EEvRNS_11TestResultsERKT_RKT0_RKNS_11TestDetailsE
 12105              	_ZN8UnitTest10CheckEqualI9USBStatusS1_EEvRNS_11TestResultsERKT_RKT0_RKNS_11TestDetailsE:
 12106              	.LFB1163:
 12107              		.file 4 "/home/gani/eval/20140524/makestuff/libs/libutpp/Checks.h"
   1:/home/gani/eval/20140524/makestuff/libs/libutpp/Checks.h **** #ifndef UNITTEST_CHECKS_H
   2:/home/gani/eval/20140524/makestuff/libs/libutpp/Checks.h **** #define UNITTEST_CHECKS_H
   3:/home/gani/eval/20140524/makestuff/libs/libutpp/Checks.h **** 
   4:/home/gani/eval/20140524/makestuff/libs/libutpp/Checks.h **** #include "Config.h"
   5:/home/gani/eval/20140524/makestuff/libs/libutpp/Checks.h **** #include "TestResults.h"
   6:/home/gani/eval/20140524/makestuff/libs/libutpp/Checks.h **** #include "MemoryOutStream.h"
   7:/home/gani/eval/20140524/makestuff/libs/libutpp/Checks.h **** 
   8:/home/gani/eval/20140524/makestuff/libs/libutpp/Checks.h **** namespace UnitTest {
   9:/home/gani/eval/20140524/makestuff/libs/libutpp/Checks.h **** 
  10:/home/gani/eval/20140524/makestuff/libs/libutpp/Checks.h **** 
  11:/home/gani/eval/20140524/makestuff/libs/libutpp/Checks.h **** template< typename Value >
  12:/home/gani/eval/20140524/makestuff/libs/libutpp/Checks.h **** bool Check(Value const value)
  13:/home/gani/eval/20140524/makestuff/libs/libutpp/Checks.h **** {
  14:/home/gani/eval/20140524/makestuff/libs/libutpp/Checks.h ****     return !!value; // doing double negative to avoid silly VS warnings
  15:/home/gani/eval/20140524/makestuff/libs/libutpp/Checks.h **** }
  16:/home/gani/eval/20140524/makestuff/libs/libutpp/Checks.h **** 
  17:/home/gani/eval/20140524/makestuff/libs/libutpp/Checks.h **** 
  18:/home/gani/eval/20140524/makestuff/libs/libutpp/Checks.h **** template< typename Expected, typename Actual >
  19:/home/gani/eval/20140524/makestuff/libs/libutpp/Checks.h **** void CheckEqual(TestResults& results, Expected const& expected, Actual const& actual, TestDetails c
 12108              		.loc 4 19 0
 12109              		.cfi_startproc
 12110              		.cfi_personality 0x9b,DW.ref.__gxx_personality_v0
 12111              		.cfi_lsda 0x1b,.LLSDA1163
 12112 0000 55       		pushq	%rbp
 12113              		.cfi_def_cfa_offset 16
 12114              		.cfi_offset 6, -16
 12115 0001 4889E5   		movq	%rsp, %rbp
 12116              		.cfi_def_cfa_register 6
 12117 0004 53       		pushq	%rbx
 12118 0005 4881ECC8 		subq	$456, %rsp
 12118      010000
 12119              		.cfi_offset 3, -24
 12120 000c 4889BD48 		movq	%rdi, -440(%rbp)
 12120      FEFFFF
 12121 0013 4889B540 		movq	%rsi, -448(%rbp)
 12121      FEFFFF
 12122 001a 48899538 		movq	%rdx, -456(%rbp)
 12122      FEFFFF
 12123 0021 48898D30 		movq	%rcx, -464(%rbp)
 12123      FEFFFF
 12124              		.loc 4 19 0
 12125 0028 64488B04 		movq	%fs:40, %rax
 12125      25280000 
 12125      00
 12126 0031 488945E8 		movq	%rax, -24(%rbp)
 12127 0035 31C0     		xorl	%eax, %eax
 12128              	.LBB14:
  20:/home/gani/eval/20140524/makestuff/libs/libutpp/Checks.h **** {
  21:/home/gani/eval/20140524/makestuff/libs/libutpp/Checks.h ****     if (!(expected == actual))
 12129              		.loc 4 21 0
 12130 0037 488B8540 		movq	-448(%rbp), %rax
 12130      FEFFFF
 12131 003e 8B10     		movl	(%rax), %edx
 12132 0040 488B8538 		movq	-456(%rbp), %rax
 12132      FEFFFF
 12133 0047 8B00     		movl	(%rax), %eax
 12134 0049 39C2     		cmpl	%eax, %edx
 12135 004b 0F84B900 		je	.L874
 12135      0000
 12136              	.LBB15:
  22:/home/gani/eval/20140524/makestuff/libs/libutpp/Checks.h ****     {
  23:/home/gani/eval/20140524/makestuff/libs/libutpp/Checks.h ****         UnitTest::MemoryOutStream stream;
 12137              		.loc 4 23 0
 12138 0051 488D8550 		leaq	-432(%rbp), %rax
 12138      FEFFFF
 12139 0058 4889C7   		movq	%rax, %rdi
 12140              	.LEHB642:
 12141 005b E8000000 		call	_ZN8UnitTest15MemoryOutStreamC1Ev
 12141      00
 12142              	.LEHE642:
  24:/home/gani/eval/20140524/makestuff/libs/libutpp/Checks.h ****         stream << "Expected " << expected << " but was " << actual;
 12143              		.loc 4 24 0
 12144 0060 488D8550 		leaq	-432(%rbp), %rax
 12144      FEFFFF
 12145 0067 488D3500 		leaq	.LC59(%rip), %rsi
 12145      000000
 12146 006e 4889C7   		movq	%rax, %rdi
 12147              	.LEHB643:
 12148 0071 E8000000 		call	_ZStlsISt11char_traitsIcEERSt13basic_ostreamIcT_ES5_PKc@PLT
 12148      00
 12149 0076 4889C2   		movq	%rax, %rdx
 12150 0079 488B8540 		movq	-448(%rbp), %rax
 12150      FEFFFF
 12151 0080 8B00     		movl	(%rax), %eax
 12152 0082 89C6     		movl	%eax, %esi
 12153 0084 4889D7   		movq	%rdx, %rdi
 12154 0087 E8000000 		call	_ZNSolsEi@PLT
 12154      00
 12155              		.loc 4 24 0 is_stmt 0 discriminator 1
 12156 008c 488D3500 		leaq	.LC60(%rip), %rsi
 12156      000000
 12157 0093 4889C7   		movq	%rax, %rdi
 12158 0096 E8000000 		call	_ZStlsISt11char_traitsIcEERSt13basic_ostreamIcT_ES5_PKc@PLT
 12158      00
 12159              		.loc 4 24 0 discriminator 2
 12160 009b 4889C2   		movq	%rax, %rdx
 12161 009e 488B8538 		movq	-456(%rbp), %rax
 12161      FEFFFF
 12162 00a5 8B00     		movl	(%rax), %eax
 12163 00a7 89C6     		movl	%eax, %esi
 12164 00a9 4889D7   		movq	%rdx, %rdi
 12165 00ac E8000000 		call	_ZNSolsEi@PLT
 12165      00
  25:/home/gani/eval/20140524/makestuff/libs/libutpp/Checks.h **** 
  26:/home/gani/eval/20140524/makestuff/libs/libutpp/Checks.h ****         results.OnTestFailure(details, stream.GetText());
 12166              		.loc 4 26 0 is_stmt 1
 12167 00b1 488D8550 		leaq	-432(%rbp), %rax
 12167      FEFFFF
 12168 00b8 4889C7   		movq	%rax, %rdi
 12169 00bb E8000000 		call	_ZNK8UnitTest15MemoryOutStream7GetTextEv@PLT
 12169      00
 12170 00c0 4889C2   		movq	%rax, %rdx
 12171 00c3 488B8D30 		movq	-464(%rbp), %rcx
 12171      FEFFFF
 12172 00ca 488B8548 		movq	-440(%rbp), %rax
 12172      FEFFFF
 12173 00d1 4889CE   		movq	%rcx, %rsi
 12174 00d4 4889C7   		movq	%rax, %rdi
 12175 00d7 E8000000 		call	_ZN8UnitTest11TestResults13OnTestFailureERKNS_11TestDetailsEPKc@PLT
 12175      00
 12176              	.LEHE643:
  23:/home/gani/eval/20140524/makestuff/libs/libutpp/Checks.h ****         stream << "Expected " << expected << " but was " << actual;
 12177              		.loc 4 23 0
 12178 00dc 488D8550 		leaq	-432(%rbp), %rax
 12178      FEFFFF
 12179 00e3 4889C7   		movq	%rax, %rdi
 12180              	.LEHB644:
 12181 00e6 E8000000 		call	_ZN8UnitTest15MemoryOutStreamD1Ev
 12181      00
 12182              	.LEHE644:
 12183              	.LBE15:
 12184              	.LBE14:
  27:/home/gani/eval/20140524/makestuff/libs/libutpp/Checks.h ****     }
  28:/home/gani/eval/20140524/makestuff/libs/libutpp/Checks.h **** }
 12185              		.loc 4 28 0
 12186 00eb EB1D     		jmp	.L874
 12187              	.L873:
 12188 00ed 4889C3   		movq	%rax, %rbx
 12189              	.LBB17:
 12190              	.LBB16:
  23:/home/gani/eval/20140524/makestuff/libs/libutpp/Checks.h ****         stream << "Expected " << expected << " but was " << actual;
 12191              		.loc 4 23 0
 12192 00f0 488D8550 		leaq	-432(%rbp), %rax
 12192      FEFFFF
 12193 00f7 4889C7   		movq	%rax, %rdi
 12194 00fa E8000000 		call	_ZN8UnitTest15MemoryOutStreamD1Ev
 12194      00
 12195 00ff 4889D8   		movq	%rbx, %rax
 12196 0102 4889C7   		movq	%rax, %rdi
 12197              	.LEHB645:
 12198 0105 E8000000 		call	_Unwind_Resume@PLT
 12198      00
 12199              	.LEHE645:
 12200              	.L874:
 12201              	.LBE16:
 12202              	.LBE17:
 12203              		.loc 4 28 0
 12204 010a 90       		nop
 12205 010b 488B45E8 		movq	-24(%rbp), %rax
 12206 010f 64483304 		xorq	%fs:40, %rax
 12206      25280000 
 12206      00
 12207 0118 7405     		je	.L872
 12208 011a E8000000 		call	__stack_chk_fail@PLT
 12208      00
 12209              	.L872:
 12210 011f 4881C4C8 		addq	$456, %rsp
 12210      010000
 12211 0126 5B       		popq	%rbx
 12212 0127 5D       		popq	%rbp
 12213              		.cfi_def_cfa 7, 8
 12214 0128 C3       		ret
 12215              		.cfi_endproc
 12216              	.LFE1163:
 12217              		.section	.gcc_except_table
 12218              	.LLSDA1163:
 12219 0e36 FF       		.byte	0xff
 12220 0e37 FF       		.byte	0xff
 12221 0e38 01       		.byte	0x1
 12222 0e39 13       		.uleb128 .LLSDACSE1163-.LLSDACSB1163
 12223              	.LLSDACSB1163:
 12224 0e3a 5B       		.uleb128 .LEHB642-.LFB1163
 12225 0e3b 05       		.uleb128 .LEHE642-.LEHB642
 12226 0e3c 00       		.uleb128 0
 12227 0e3d 00       		.uleb128 0
 12228 0e3e 71       		.uleb128 .LEHB643-.LFB1163
 12229 0e3f 6B       		.uleb128 .LEHE643-.LEHB643
 12230 0e40 ED01     		.uleb128 .L873-.LFB1163
 12231 0e42 00       		.uleb128 0
 12232 0e43 E601     		.uleb128 .LEHB644-.LFB1163
 12233 0e45 05       		.uleb128 .LEHE644-.LEHB644
 12234 0e46 00       		.uleb128 0
 12235 0e47 00       		.uleb128 0
 12236 0e48 8502     		.uleb128 .LEHB645-.LFB1163
 12237 0e4a 05       		.uleb128 .LEHE645-.LEHB645
 12238 0e4b 00       		.uleb128 0
 12239 0e4c 00       		.uleb128 0
 12240              	.LLSDACSE1163:
 12241              		.section	.text._ZN8UnitTest10CheckEqualI9USBStatusS1_EEvRNS_11TestResultsERKT_RKT0_RKNS_11TestDeta
 12243              		.section	.text._ZN8UnitTest10CheckEqualImmEEvRNS_11TestResultsERKT_RKT0_RKNS_11TestDetailsE,"axG",
 12244              		.weak	_ZN8UnitTest10CheckEqualImmEEvRNS_11TestResultsERKT_RKT0_RKNS_11TestDetailsE
 12246              	_ZN8UnitTest10CheckEqualImmEEvRNS_11TestResultsERKT_RKT0_RKNS_11TestDetailsE:
 12247              	.LFB1168:
  19:/home/gani/eval/20140524/makestuff/libs/libutpp/Checks.h **** {
 12248              		.loc 4 19 0
 12249              		.cfi_startproc
 12250              		.cfi_personality 0x9b,DW.ref.__gxx_personality_v0
 12251              		.cfi_lsda 0x1b,.LLSDA1168
 12252 0000 55       		pushq	%rbp
 12253              		.cfi_def_cfa_offset 16
 12254              		.cfi_offset 6, -16
 12255 0001 4889E5   		movq	%rsp, %rbp
 12256              		.cfi_def_cfa_register 6
 12257 0004 53       		pushq	%rbx
 12258 0005 4881ECC8 		subq	$456, %rsp
 12258      010000
 12259              		.cfi_offset 3, -24
 12260 000c 4889BD48 		movq	%rdi, -440(%rbp)
 12260      FEFFFF
 12261 0013 4889B540 		movq	%rsi, -448(%rbp)
 12261      FEFFFF
 12262 001a 48899538 		movq	%rdx, -456(%rbp)
 12262      FEFFFF
 12263 0021 48898D30 		movq	%rcx, -464(%rbp)
 12263      FEFFFF
  19:/home/gani/eval/20140524/makestuff/libs/libutpp/Checks.h **** {
 12264              		.loc 4 19 0
 12265 0028 64488B04 		movq	%fs:40, %rax
 12265      25280000 
 12265      00
 12266 0031 488945E8 		movq	%rax, -24(%rbp)
 12267 0035 31C0     		xorl	%eax, %eax
 12268              	.LBB18:
  21:/home/gani/eval/20140524/makestuff/libs/libutpp/Checks.h ****     {
 12269              		.loc 4 21 0
 12270 0037 488B8540 		movq	-448(%rbp), %rax
 12270      FEFFFF
 12271 003e 488B10   		movq	(%rax), %rdx
 12272 0041 488B8538 		movq	-456(%rbp), %rax
 12272      FEFFFF
 12273 0048 488B00   		movq	(%rax), %rax
 12274 004b 4839C2   		cmpq	%rax, %rdx
 12275 004e 0F84BD00 		je	.L880
 12275      0000
 12276              	.LBB19:
  23:/home/gani/eval/20140524/makestuff/libs/libutpp/Checks.h ****         stream << "Expected " << expected << " but was " << actual;
 12277              		.loc 4 23 0
 12278 0054 488D8550 		leaq	-432(%rbp), %rax
 12278      FEFFFF
 12279 005b 4889C7   		movq	%rax, %rdi
 12280              	.LEHB646:
 12281 005e E8000000 		call	_ZN8UnitTest15MemoryOutStreamC1Ev
 12281      00
 12282              	.LEHE646:
  24:/home/gani/eval/20140524/makestuff/libs/libutpp/Checks.h **** 
 12283              		.loc 4 24 0
 12284 0063 488D8550 		leaq	-432(%rbp), %rax
 12284      FEFFFF
 12285 006a 488D3500 		leaq	.LC59(%rip), %rsi
 12285      000000
 12286 0071 4889C7   		movq	%rax, %rdi
 12287              	.LEHB647:
 12288 0074 E8000000 		call	_ZStlsISt11char_traitsIcEERSt13basic_ostreamIcT_ES5_PKc@PLT
 12288      00
 12289 0079 4889C2   		movq	%rax, %rdx
 12290 007c 488B8540 		movq	-448(%rbp), %rax
 12290      FEFFFF
 12291 0083 488B00   		movq	(%rax), %rax
 12292 0086 4889C6   		movq	%rax, %rsi
 12293 0089 4889D7   		movq	%rdx, %rdi
 12294 008c E8000000 		call	_ZNSolsEm@PLT
 12294      00
  24:/home/gani/eval/20140524/makestuff/libs/libutpp/Checks.h **** 
 12295              		.loc 4 24 0 is_stmt 0 discriminator 1
 12296 0091 488D3500 		leaq	.LC60(%rip), %rsi
 12296      000000
 12297 0098 4889C7   		movq	%rax, %rdi
 12298 009b E8000000 		call	_ZStlsISt11char_traitsIcEERSt13basic_ostreamIcT_ES5_PKc@PLT
 12298      00
  24:/home/gani/eval/20140524/makestuff/libs/libutpp/Checks.h **** 
 12299              		.loc 4 24 0 discriminator 2
 12300 00a0 4889C2   		movq	%rax, %rdx
 12301 00a3 488B8538 		movq	-456(%rbp), %rax
 12301      FEFFFF
 12302 00aa 488B00   		movq	(%rax), %rax
 12303 00ad 4889C6   		movq	%rax, %rsi
 12304 00b0 4889D7   		movq	%rdx, %rdi
 12305 00b3 E8000000 		call	_ZNSolsEm@PLT
 12305      00
  26:/home/gani/eval/20140524/makestuff/libs/libutpp/Checks.h ****     }
 12306              		.loc 4 26 0 is_stmt 1
 12307 00b8 488D8550 		leaq	-432(%rbp), %rax
 12307      FEFFFF
 12308 00bf 4889C7   		movq	%rax, %rdi
 12309 00c2 E8000000 		call	_ZNK8UnitTest15MemoryOutStream7GetTextEv@PLT
 12309      00
 12310 00c7 4889C2   		movq	%rax, %rdx
 12311 00ca 488B8D30 		movq	-464(%rbp), %rcx
 12311      FEFFFF
 12312 00d1 488B8548 		movq	-440(%rbp), %rax
 12312      FEFFFF
 12313 00d8 4889CE   		movq	%rcx, %rsi
 12314 00db 4889C7   		movq	%rax, %rdi
 12315 00de E8000000 		call	_ZN8UnitTest11TestResults13OnTestFailureERKNS_11TestDetailsEPKc@PLT
 12315      00
 12316              	.LEHE647:
  23:/home/gani/eval/20140524/makestuff/libs/libutpp/Checks.h ****         stream << "Expected " << expected << " but was " << actual;
 12317              		.loc 4 23 0
 12318 00e3 488D8550 		leaq	-432(%rbp), %rax
 12318      FEFFFF
 12319 00ea 4889C7   		movq	%rax, %rdi
 12320              	.LEHB648:
 12321 00ed E8000000 		call	_ZN8UnitTest15MemoryOutStreamD1Ev
 12321      00
 12322              	.LEHE648:
 12323              	.LBE19:
 12324              	.LBE18:
 12325              		.loc 4 28 0
 12326 00f2 EB1D     		jmp	.L880
 12327              	.L879:
 12328 00f4 4889C3   		movq	%rax, %rbx
 12329              	.LBB21:
 12330              	.LBB20:
  23:/home/gani/eval/20140524/makestuff/libs/libutpp/Checks.h ****         stream << "Expected " << expected << " but was " << actual;
 12331              		.loc 4 23 0
 12332 00f7 488D8550 		leaq	-432(%rbp), %rax
 12332      FEFFFF
 12333 00fe 4889C7   		movq	%rax, %rdi
 12334 0101 E8000000 		call	_ZN8UnitTest15MemoryOutStreamD1Ev
 12334      00
 12335 0106 4889D8   		movq	%rbx, %rax
 12336 0109 4889C7   		movq	%rax, %rdi
 12337              	.LEHB649:
 12338 010c E8000000 		call	_Unwind_Resume@PLT
 12338      00
 12339              	.LEHE649:
 12340              	.L880:
 12341              	.LBE20:
 12342              	.LBE21:
 12343              		.loc 4 28 0
 12344 0111 90       		nop
 12345 0112 488B45E8 		movq	-24(%rbp), %rax
 12346 0116 64483304 		xorq	%fs:40, %rax
 12346      25280000 
 12346      00
 12347 011f 7405     		je	.L878
 12348 0121 E8000000 		call	__stack_chk_fail@PLT
 12348      00
 12349              	.L878:
 12350 0126 4881C4C8 		addq	$456, %rsp
 12350      010000
 12351 012d 5B       		popq	%rbx
 12352 012e 5D       		popq	%rbp
 12353              		.cfi_def_cfa 7, 8
 12354 012f C3       		ret
 12355              		.cfi_endproc
 12356              	.LFE1168:
 12357              		.section	.gcc_except_table
 12358              	.LLSDA1168:
 12359 0e4d FF       		.byte	0xff
 12360 0e4e FF       		.byte	0xff
 12361 0e4f 01       		.byte	0x1
 12362 0e50 13       		.uleb128 .LLSDACSE1168-.LLSDACSB1168
 12363              	.LLSDACSB1168:
 12364 0e51 5E       		.uleb128 .LEHB646-.LFB1168
 12365 0e52 05       		.uleb128 .LEHE646-.LEHB646
 12366 0e53 00       		.uleb128 0
 12367 0e54 00       		.uleb128 0
 12368 0e55 74       		.uleb128 .LEHB647-.LFB1168
 12369 0e56 6F       		.uleb128 .LEHE647-.LEHB647
 12370 0e57 F401     		.uleb128 .L879-.LFB1168
 12371 0e59 00       		.uleb128 0
 12372 0e5a ED01     		.uleb128 .LEHB648-.LFB1168
 12373 0e5c 05       		.uleb128 .LEHE648-.LEHB648
 12374 0e5d 00       		.uleb128 0
 12375 0e5e 00       		.uleb128 0
 12376 0e5f 8C02     		.uleb128 .LEHB649-.LFB1168
 12377 0e61 05       		.uleb128 .LEHE649-.LEHB649
 12378 0e62 00       		.uleb128 0
 12379 0e63 00       		.uleb128 0
 12380              	.LLSDACSE1168:
 12381              		.section	.text._ZN8UnitTest10CheckEqualImmEEvRNS_11TestResultsERKT_RKT0_RKNS_11TestDetailsE,"axG",
 12383              		.section	.text._ZN8UnitTest10CheckEqualImjEEvRNS_11TestResultsERKT_RKT0_RKNS_11TestDetailsE,"axG",
 12384              		.weak	_ZN8UnitTest10CheckEqualImjEEvRNS_11TestResultsERKT_RKT0_RKNS_11TestDetailsE
 12386              	_ZN8UnitTest10CheckEqualImjEEvRNS_11TestResultsERKT_RKT0_RKNS_11TestDetailsE:
 12387              	.LFB1169:
  19:/home/gani/eval/20140524/makestuff/libs/libutpp/Checks.h **** {
 12388              		.loc 4 19 0
 12389              		.cfi_startproc
 12390              		.cfi_personality 0x9b,DW.ref.__gxx_personality_v0
 12391              		.cfi_lsda 0x1b,.LLSDA1169
 12392 0000 55       		pushq	%rbp
 12393              		.cfi_def_cfa_offset 16
 12394              		.cfi_offset 6, -16
 12395 0001 4889E5   		movq	%rsp, %rbp
 12396              		.cfi_def_cfa_register 6
 12397 0004 53       		pushq	%rbx
 12398 0005 4881ECC8 		subq	$456, %rsp
 12398      010000
 12399              		.cfi_offset 3, -24
 12400 000c 4889BD48 		movq	%rdi, -440(%rbp)
 12400      FEFFFF
 12401 0013 4889B540 		movq	%rsi, -448(%rbp)
 12401      FEFFFF
 12402 001a 48899538 		movq	%rdx, -456(%rbp)
 12402      FEFFFF
 12403 0021 48898D30 		movq	%rcx, -464(%rbp)
 12403      FEFFFF
  19:/home/gani/eval/20140524/makestuff/libs/libutpp/Checks.h **** {
 12404              		.loc 4 19 0
 12405 0028 64488B04 		movq	%fs:40, %rax
 12405      25280000 
 12405      00
 12406 0031 488945E8 		movq	%rax, -24(%rbp)
 12407 0035 31C0     		xorl	%eax, %eax
 12408              	.LBB22:
  21:/home/gani/eval/20140524/makestuff/libs/libutpp/Checks.h ****     {
 12409              		.loc 4 21 0
 12410 0037 488B8540 		movq	-448(%rbp), %rax
 12410      FEFFFF
 12411 003e 488B10   		movq	(%rax), %rdx
 12412 0041 488B8538 		movq	-456(%rbp), %rax
 12412      FEFFFF
 12413 0048 8B00     		movl	(%rax), %eax
 12414 004a 89C0     		movl	%eax, %eax
 12415 004c 4839C2   		cmpq	%rax, %rdx
 12416 004f 0F84BB00 		je	.L886
 12416      0000
 12417              	.LBB23:
  23:/home/gani/eval/20140524/makestuff/libs/libutpp/Checks.h ****         stream << "Expected " << expected << " but was " << actual;
 12418              		.loc 4 23 0
 12419 0055 488D8550 		leaq	-432(%rbp), %rax
 12419      FEFFFF
 12420 005c 4889C7   		movq	%rax, %rdi
 12421              	.LEHB650:
 12422 005f E8000000 		call	_ZN8UnitTest15MemoryOutStreamC1Ev
 12422      00
 12423              	.LEHE650:
  24:/home/gani/eval/20140524/makestuff/libs/libutpp/Checks.h **** 
 12424              		.loc 4 24 0
 12425 0064 488D8550 		leaq	-432(%rbp), %rax
 12425      FEFFFF
 12426 006b 488D3500 		leaq	.LC59(%rip), %rsi
 12426      000000
 12427 0072 4889C7   		movq	%rax, %rdi
 12428              	.LEHB651:
 12429 0075 E8000000 		call	_ZStlsISt11char_traitsIcEERSt13basic_ostreamIcT_ES5_PKc@PLT
 12429      00
 12430 007a 4889C2   		movq	%rax, %rdx
 12431 007d 488B8540 		movq	-448(%rbp), %rax
 12431      FEFFFF
 12432 0084 488B00   		movq	(%rax), %rax
 12433 0087 4889C6   		movq	%rax, %rsi
 12434 008a 4889D7   		movq	%rdx, %rdi
 12435 008d E8000000 		call	_ZNSolsEm@PLT
 12435      00
  24:/home/gani/eval/20140524/makestuff/libs/libutpp/Checks.h **** 
 12436              		.loc 4 24 0 is_stmt 0 discriminator 1
 12437 0092 488D3500 		leaq	.LC60(%rip), %rsi
 12437      000000
 12438 0099 4889C7   		movq	%rax, %rdi
 12439 009c E8000000 		call	_ZStlsISt11char_traitsIcEERSt13basic_ostreamIcT_ES5_PKc@PLT
 12439      00
  24:/home/gani/eval/20140524/makestuff/libs/libutpp/Checks.h **** 
 12440              		.loc 4 24 0 discriminator 2
 12441 00a1 4889C2   		movq	%rax, %rdx
 12442 00a4 488B8538 		movq	-456(%rbp), %rax
 12442      FEFFFF
 12443 00ab 8B00     		movl	(%rax), %eax
 12444 00ad 89C6     		movl	%eax, %esi
 12445 00af 4889D7   		movq	%rdx, %rdi
 12446 00b2 E8000000 		call	_ZNSolsEj@PLT
 12446      00
  26:/home/gani/eval/20140524/makestuff/libs/libutpp/Checks.h ****     }
 12447              		.loc 4 26 0 is_stmt 1
 12448 00b7 488D8550 		leaq	-432(%rbp), %rax
 12448      FEFFFF
 12449 00be 4889C7   		movq	%rax, %rdi
 12450 00c1 E8000000 		call	_ZNK8UnitTest15MemoryOutStream7GetTextEv@PLT
 12450      00
 12451 00c6 4889C2   		movq	%rax, %rdx
 12452 00c9 488B8D30 		movq	-464(%rbp), %rcx
 12452      FEFFFF
 12453 00d0 488B8548 		movq	-440(%rbp), %rax
 12453      FEFFFF
 12454 00d7 4889CE   		movq	%rcx, %rsi
 12455 00da 4889C7   		movq	%rax, %rdi
 12456 00dd E8000000 		call	_ZN8UnitTest11TestResults13OnTestFailureERKNS_11TestDetailsEPKc@PLT
 12456      00
 12457              	.LEHE651:
  23:/home/gani/eval/20140524/makestuff/libs/libutpp/Checks.h ****         stream << "Expected " << expected << " but was " << actual;
 12458              		.loc 4 23 0
 12459 00e2 488D8550 		leaq	-432(%rbp), %rax
 12459      FEFFFF
 12460 00e9 4889C7   		movq	%rax, %rdi
 12461              	.LEHB652:
 12462 00ec E8000000 		call	_ZN8UnitTest15MemoryOutStreamD1Ev
 12462      00
 12463              	.LEHE652:
 12464              	.LBE23:
 12465              	.LBE22:
 12466              		.loc 4 28 0
 12467 00f1 EB1D     		jmp	.L886
 12468              	.L885:
 12469 00f3 4889C3   		movq	%rax, %rbx
 12470              	.LBB25:
 12471              	.LBB24:
  23:/home/gani/eval/20140524/makestuff/libs/libutpp/Checks.h ****         stream << "Expected " << expected << " but was " << actual;
 12472              		.loc 4 23 0
 12473 00f6 488D8550 		leaq	-432(%rbp), %rax
 12473      FEFFFF
 12474 00fd 4889C7   		movq	%rax, %rdi
 12475 0100 E8000000 		call	_ZN8UnitTest15MemoryOutStreamD1Ev
 12475      00
 12476 0105 4889D8   		movq	%rbx, %rax
 12477 0108 4889C7   		movq	%rax, %rdi
 12478              	.LEHB653:
 12479 010b E8000000 		call	_Unwind_Resume@PLT
 12479      00
 12480              	.LEHE653:
 12481              	.L886:
 12482              	.LBE24:
 12483              	.LBE25:
 12484              		.loc 4 28 0
 12485 0110 90       		nop
 12486 0111 488B45E8 		movq	-24(%rbp), %rax
 12487 0115 64483304 		xorq	%fs:40, %rax
 12487      25280000 
 12487      00
 12488 011e 7405     		je	.L884
 12489 0120 E8000000 		call	__stack_chk_fail@PLT
 12489      00
 12490              	.L884:
 12491 0125 4881C4C8 		addq	$456, %rsp
 12491      010000
 12492 012c 5B       		popq	%rbx
 12493 012d 5D       		popq	%rbp
 12494              		.cfi_def_cfa 7, 8
 12495 012e C3       		ret
 12496              		.cfi_endproc
 12497              	.LFE1169:
 12498              		.section	.gcc_except_table
 12499              	.LLSDA1169:
 12500 0e64 FF       		.byte	0xff
 12501 0e65 FF       		.byte	0xff
 12502 0e66 01       		.byte	0x1
 12503 0e67 13       		.uleb128 .LLSDACSE1169-.LLSDACSB1169
 12504              	.LLSDACSB1169:
 12505 0e68 5F       		.uleb128 .LEHB650-.LFB1169
 12506 0e69 05       		.uleb128 .LEHE650-.LEHB650
 12507 0e6a 00       		.uleb128 0
 12508 0e6b 00       		.uleb128 0
 12509 0e6c 75       		.uleb128 .LEHB651-.LFB1169
 12510 0e6d 6D       		.uleb128 .LEHE651-.LEHB651
 12511 0e6e F301     		.uleb128 .L885-.LFB1169
 12512 0e70 00       		.uleb128 0
 12513 0e71 EC01     		.uleb128 .LEHB652-.LFB1169
 12514 0e73 05       		.uleb128 .LEHE652-.LEHB652
 12515 0e74 00       		.uleb128 0
 12516 0e75 00       		.uleb128 0
 12517 0e76 8B02     		.uleb128 .LEHB653-.LFB1169
 12518 0e78 05       		.uleb128 .LEHE653-.LEHB653
 12519 0e79 00       		.uleb128 0
 12520 0e7a 00       		.uleb128 0
 12521              	.LLSDACSE1169:
 12522              		.section	.text._ZN8UnitTest10CheckEqualImjEEvRNS_11TestResultsERKT_RKT0_RKNS_11TestDetailsE,"axG",
 12524              		.section	.text._ZN8UnitTest10CheckEqualIiiEEvRNS_11TestResultsERKT_RKT0_RKNS_11TestDetailsE,"axG",
 12525              		.weak	_ZN8UnitTest10CheckEqualIiiEEvRNS_11TestResultsERKT_RKT0_RKNS_11TestDetailsE
 12527              	_ZN8UnitTest10CheckEqualIiiEEvRNS_11TestResultsERKT_RKT0_RKNS_11TestDetailsE:
 12528              	.LFB1170:
  19:/home/gani/eval/20140524/makestuff/libs/libutpp/Checks.h **** {
 12529              		.loc 4 19 0
 12530              		.cfi_startproc
 12531              		.cfi_personality 0x9b,DW.ref.__gxx_personality_v0
 12532              		.cfi_lsda 0x1b,.LLSDA1170
 12533 0000 55       		pushq	%rbp
 12534              		.cfi_def_cfa_offset 16
 12535              		.cfi_offset 6, -16
 12536 0001 4889E5   		movq	%rsp, %rbp
 12537              		.cfi_def_cfa_register 6
 12538 0004 53       		pushq	%rbx
 12539 0005 4881ECC8 		subq	$456, %rsp
 12539      010000
 12540              		.cfi_offset 3, -24
 12541 000c 4889BD48 		movq	%rdi, -440(%rbp)
 12541      FEFFFF
 12542 0013 4889B540 		movq	%rsi, -448(%rbp)
 12542      FEFFFF
 12543 001a 48899538 		movq	%rdx, -456(%rbp)
 12543      FEFFFF
 12544 0021 48898D30 		movq	%rcx, -464(%rbp)
 12544      FEFFFF
  19:/home/gani/eval/20140524/makestuff/libs/libutpp/Checks.h **** {
 12545              		.loc 4 19 0
 12546 0028 64488B04 		movq	%fs:40, %rax
 12546      25280000 
 12546      00
 12547 0031 488945E8 		movq	%rax, -24(%rbp)
 12548 0035 31C0     		xorl	%eax, %eax
 12549              	.LBB26:
  21:/home/gani/eval/20140524/makestuff/libs/libutpp/Checks.h ****     {
 12550              		.loc 4 21 0
 12551 0037 488B8540 		movq	-448(%rbp), %rax
 12551      FEFFFF
 12552 003e 8B10     		movl	(%rax), %edx
 12553 0040 488B8538 		movq	-456(%rbp), %rax
 12553      FEFFFF
 12554 0047 8B00     		movl	(%rax), %eax
 12555 0049 39C2     		cmpl	%eax, %edx
 12556 004b 0F84B900 		je	.L892
 12556      0000
 12557              	.LBB27:
  23:/home/gani/eval/20140524/makestuff/libs/libutpp/Checks.h ****         stream << "Expected " << expected << " but was " << actual;
 12558              		.loc 4 23 0
 12559 0051 488D8550 		leaq	-432(%rbp), %rax
 12559      FEFFFF
 12560 0058 4889C7   		movq	%rax, %rdi
 12561              	.LEHB654:
 12562 005b E8000000 		call	_ZN8UnitTest15MemoryOutStreamC1Ev
 12562      00
 12563              	.LEHE654:
  24:/home/gani/eval/20140524/makestuff/libs/libutpp/Checks.h **** 
 12564              		.loc 4 24 0
 12565 0060 488D8550 		leaq	-432(%rbp), %rax
 12565      FEFFFF
 12566 0067 488D3500 		leaq	.LC59(%rip), %rsi
 12566      000000
 12567 006e 4889C7   		movq	%rax, %rdi
 12568              	.LEHB655:
 12569 0071 E8000000 		call	_ZStlsISt11char_traitsIcEERSt13basic_ostreamIcT_ES5_PKc@PLT
 12569      00
 12570 0076 4889C2   		movq	%rax, %rdx
 12571 0079 488B8540 		movq	-448(%rbp), %rax
 12571      FEFFFF
 12572 0080 8B00     		movl	(%rax), %eax
 12573 0082 89C6     		movl	%eax, %esi
 12574 0084 4889D7   		movq	%rdx, %rdi
 12575 0087 E8000000 		call	_ZNSolsEi@PLT
 12575      00
  24:/home/gani/eval/20140524/makestuff/libs/libutpp/Checks.h **** 
 12576              		.loc 4 24 0 is_stmt 0 discriminator 1
 12577 008c 488D3500 		leaq	.LC60(%rip), %rsi
 12577      000000
 12578 0093 4889C7   		movq	%rax, %rdi
 12579 0096 E8000000 		call	_ZStlsISt11char_traitsIcEERSt13basic_ostreamIcT_ES5_PKc@PLT
 12579      00
  24:/home/gani/eval/20140524/makestuff/libs/libutpp/Checks.h **** 
 12580              		.loc 4 24 0 discriminator 2
 12581 009b 4889C2   		movq	%rax, %rdx
 12582 009e 488B8538 		movq	-456(%rbp), %rax
 12582      FEFFFF
 12583 00a5 8B00     		movl	(%rax), %eax
 12584 00a7 89C6     		movl	%eax, %esi
 12585 00a9 4889D7   		movq	%rdx, %rdi
 12586 00ac E8000000 		call	_ZNSolsEi@PLT
 12586      00
  26:/home/gani/eval/20140524/makestuff/libs/libutpp/Checks.h ****     }
 12587              		.loc 4 26 0 is_stmt 1
 12588 00b1 488D8550 		leaq	-432(%rbp), %rax
 12588      FEFFFF
 12589 00b8 4889C7   		movq	%rax, %rdi
 12590 00bb E8000000 		call	_ZNK8UnitTest15MemoryOutStream7GetTextEv@PLT
 12590      00
 12591 00c0 4889C2   		movq	%rax, %rdx
 12592 00c3 488B8D30 		movq	-464(%rbp), %rcx
 12592      FEFFFF
 12593 00ca 488B8548 		movq	-440(%rbp), %rax
 12593      FEFFFF
 12594 00d1 4889CE   		movq	%rcx, %rsi
 12595 00d4 4889C7   		movq	%rax, %rdi
 12596 00d7 E8000000 		call	_ZN8UnitTest11TestResults13OnTestFailureERKNS_11TestDetailsEPKc@PLT
 12596      00
 12597              	.LEHE655:
  23:/home/gani/eval/20140524/makestuff/libs/libutpp/Checks.h ****         stream << "Expected " << expected << " but was " << actual;
 12598              		.loc 4 23 0
 12599 00dc 488D8550 		leaq	-432(%rbp), %rax
 12599      FEFFFF
 12600 00e3 4889C7   		movq	%rax, %rdi
 12601              	.LEHB656:
 12602 00e6 E8000000 		call	_ZN8UnitTest15MemoryOutStreamD1Ev
 12602      00
 12603              	.LEHE656:
 12604              	.LBE27:
 12605              	.LBE26:
 12606              		.loc 4 28 0
 12607 00eb EB1D     		jmp	.L892
 12608              	.L891:
 12609 00ed 4889C3   		movq	%rax, %rbx
 12610              	.LBB29:
 12611              	.LBB28:
  23:/home/gani/eval/20140524/makestuff/libs/libutpp/Checks.h ****         stream << "Expected " << expected << " but was " << actual;
 12612              		.loc 4 23 0
 12613 00f0 488D8550 		leaq	-432(%rbp), %rax
 12613      FEFFFF
 12614 00f7 4889C7   		movq	%rax, %rdi
 12615 00fa E8000000 		call	_ZN8UnitTest15MemoryOutStreamD1Ev
 12615      00
 12616 00ff 4889D8   		movq	%rbx, %rax
 12617 0102 4889C7   		movq	%rax, %rdi
 12618              	.LEHB657:
 12619 0105 E8000000 		call	_Unwind_Resume@PLT
 12619      00
 12620              	.LEHE657:
 12621              	.L892:
 12622              	.LBE28:
 12623              	.LBE29:
 12624              		.loc 4 28 0
 12625 010a 90       		nop
 12626 010b 488B45E8 		movq	-24(%rbp), %rax
 12627 010f 64483304 		xorq	%fs:40, %rax
 12627      25280000 
 12627      00
 12628 0118 7405     		je	.L890
 12629 011a E8000000 		call	__stack_chk_fail@PLT
 12629      00
 12630              	.L890:
 12631 011f 4881C4C8 		addq	$456, %rsp
 12631      010000
 12632 0126 5B       		popq	%rbx
 12633 0127 5D       		popq	%rbp
 12634              		.cfi_def_cfa 7, 8
 12635 0128 C3       		ret
 12636              		.cfi_endproc
 12637              	.LFE1170:
 12638              		.section	.gcc_except_table
 12639              	.LLSDA1170:
 12640 0e7b FF       		.byte	0xff
 12641 0e7c FF       		.byte	0xff
 12642 0e7d 01       		.byte	0x1
 12643 0e7e 13       		.uleb128 .LLSDACSE1170-.LLSDACSB1170
 12644              	.LLSDACSB1170:
 12645 0e7f 5B       		.uleb128 .LEHB654-.LFB1170
 12646 0e80 05       		.uleb128 .LEHE654-.LEHB654
 12647 0e81 00       		.uleb128 0
 12648 0e82 00       		.uleb128 0
 12649 0e83 71       		.uleb128 .LEHB655-.LFB1170
 12650 0e84 6B       		.uleb128 .LEHE655-.LEHB655
 12651 0e85 ED01     		.uleb128 .L891-.LFB1170
 12652 0e87 00       		.uleb128 0
 12653 0e88 E601     		.uleb128 .LEHB656-.LFB1170
 12654 0e8a 05       		.uleb128 .LEHE656-.LEHB656
 12655 0e8b 00       		.uleb128 0
 12656 0e8c 00       		.uleb128 0
 12657 0e8d 8502     		.uleb128 .LEHB657-.LFB1170
 12658 0e8f 05       		.uleb128 .LEHE657-.LEHB657
 12659 0e90 00       		.uleb128 0
 12660 0e91 00       		.uleb128 0
 12661              	.LLSDACSE1170:
 12662              		.section	.text._ZN8UnitTest10CheckEqualIiiEEvRNS_11TestResultsERKT_RKT0_RKNS_11TestDetailsE,"axG",
 12664              		.weak	_ZTV31TestQueue_testAllocFreeMatching
 12665              		.section	.data.rel.ro.local._ZTV31TestQueue_testAllocFreeMatching,"awG",@progbits,_ZTV31TestQueue_
 12666              		.align 8
 12669              	_ZTV31TestQueue_testAllocFreeMatching:
 12670 0000 00000000 		.quad	0
 12670      00000000 
 12671 0008 00000000 		.quad	_ZTI31TestQueue_testAllocFreeMatching
 12671      00000000 
 12672 0010 00000000 		.quad	_ZN31TestQueue_testAllocFreeMatchingD1Ev
 12672      00000000 
 12673 0018 00000000 		.quad	_ZN31TestQueue_testAllocFreeMatchingD0Ev
 12673      00000000 
 12674 0020 00000000 		.quad	_ZNK31TestQueue_testAllocFreeMatching7RunImplEv
 12674      00000000 
 12675              		.section	.text._ZN31TestQueue_testAllocFreeMatchingD2Ev,"axG",@progbits,_ZN31TestQueue_testAllocFr
 12676              		.align 2
 12677              		.weak	_ZN31TestQueue_testAllocFreeMatchingD2Ev
 12679              	_ZN31TestQueue_testAllocFreeMatchingD2Ev:
 12680              	.LFB1226:
 384:testCore.cpp  **** 	CHECK_EQUAL(0, m_allocFree);
 12681              		.loc 3 384 0
 12682              		.cfi_startproc
 12683 0000 55       		pushq	%rbp
 12684              		.cfi_def_cfa_offset 16
 12685              		.cfi_offset 6, -16
 12686 0001 4889E5   		movq	%rsp, %rbp
 12687              		.cfi_def_cfa_register 6
 12688 0004 4883EC10 		subq	$16, %rsp
 12689 0008 48897DF8 		movq	%rdi, -8(%rbp)
 12690              	.LBB30:
 384:testCore.cpp  **** 	CHECK_EQUAL(0, m_allocFree);
 12691              		.loc 3 384 0
 12692 000c 488D1500 		leaq	16+_ZTV31TestQueue_testAllocFreeMatching(%rip), %rdx
 12692      000000
 12693 0013 488B45F8 		movq	-8(%rbp), %rax
 12694 0017 488910   		movq	%rdx, (%rax)
 12695 001a 488B45F8 		movq	-8(%rbp), %rax
 12696 001e 4889C7   		movq	%rax, %rdi
 12697 0021 E8000000 		call	_ZN8UnitTest4TestD2Ev@PLT
 12697      00
 12698              	.LBE30:
 12699 0026 90       		nop
 12700 0027 C9       		leave
 12701              		.cfi_def_cfa 7, 8
 12702 0028 C3       		ret
 12703              		.cfi_endproc
 12704              	.LFE1226:
 12706              		.weak	_ZN31TestQueue_testAllocFreeMatchingD1Ev
 12707              		.set	_ZN31TestQueue_testAllocFreeMatchingD1Ev,_ZN31TestQueue_testAllocFreeMatchingD2Ev
 12708              		.section	.text._ZN31TestQueue_testAllocFreeMatchingD0Ev,"axG",@progbits,_ZN31TestQueue_testAllocFr
 12709              		.align 2
 12710              		.weak	_ZN31TestQueue_testAllocFreeMatchingD0Ev
 12712              	_ZN31TestQueue_testAllocFreeMatchingD0Ev:
 12713              	.LFB1228:
 384:testCore.cpp  **** 	CHECK_EQUAL(0, m_allocFree);
 12714              		.loc 3 384 0
 12715              		.cfi_startproc
 12716              		.cfi_personality 0x9b,DW.ref.__gxx_personality_v0
 12717              		.cfi_lsda 0x1b,.LLSDA1228
 12718 0000 55       		pushq	%rbp
 12719              		.cfi_def_cfa_offset 16
 12720              		.cfi_offset 6, -16
 12721 0001 4889E5   		movq	%rsp, %rbp
 12722              		.cfi_def_cfa_register 6
 12723 0004 53       		pushq	%rbx
 12724 0005 4883EC18 		subq	$24, %rsp
 12725              		.cfi_offset 3, -24
 12726 0009 48897DE8 		movq	%rdi, -24(%rbp)
 384:testCore.cpp  **** 	CHECK_EQUAL(0, m_allocFree);
 12727              		.loc 3 384 0
 12728 000d 488B45E8 		movq	-24(%rbp), %rax
 12729 0011 4889C7   		movq	%rax, %rdi
 12730              	.LEHB658:
 12731 0014 E8000000 		call	_ZN31TestQueue_testAllocFreeMatchingD1Ev
 12731      00
 12732              	.LEHE658:
 384:testCore.cpp  **** 	CHECK_EQUAL(0, m_allocFree);
 12733              		.loc 3 384 0 is_stmt 0 discriminator 2
 12734 0019 488B45E8 		movq	-24(%rbp), %rax
 12735 001d 4889C7   		movq	%rax, %rdi
 12736 0020 E8000000 		call	_ZdlPv@PLT
 12736      00
 12737 0025 EB1A     		jmp	.L897
 12738              	.L896:
 12739 0027 4889C3   		movq	%rax, %rbx
 384:testCore.cpp  **** 	CHECK_EQUAL(0, m_allocFree);
 12740              		.loc 3 384 0
 12741 002a 488B45E8 		movq	-24(%rbp), %rax
 12742 002e 4889C7   		movq	%rax, %rdi
 12743 0031 E8000000 		call	_ZdlPv@PLT
 12743      00
 12744 0036 4889D8   		movq	%rbx, %rax
 12745 0039 4889C7   		movq	%rax, %rdi
 12746              	.LEHB659:
 12747 003c E8000000 		call	_Unwind_Resume@PLT
 12747      00
 12748              	.LEHE659:
 12749              	.L897:
 12750 0041 4883C418 		addq	$24, %rsp
 12751 0045 5B       		popq	%rbx
 12752 0046 5D       		popq	%rbp
 12753              		.cfi_def_cfa 7, 8
 12754 0047 C3       		ret
 12755              		.cfi_endproc
 12756              	.LFE1228:
 12757              		.section	.gcc_except_table
 12758              	.LLSDA1228:
 12759 0e92 FF       		.byte	0xff
 12760 0e93 FF       		.byte	0xff
 12761 0e94 01       		.byte	0x1
 12762 0e95 08       		.uleb128 .LLSDACSE1228-.LLSDACSB1228
 12763              	.LLSDACSB1228:
 12764 0e96 14       		.uleb128 .LEHB658-.LFB1228
 12765 0e97 05       		.uleb128 .LEHE658-.LEHB658
 12766 0e98 27       		.uleb128 .L896-.LFB1228
 12767 0e99 00       		.uleb128 0
 12768 0e9a 3C       		.uleb128 .LEHB659-.LFB1228
 12769 0e9b 05       		.uleb128 .LEHE659-.LEHB659
 12770 0e9c 00       		.uleb128 0
 12771 0e9d 00       		.uleb128 0
 12772              	.LLSDACSE1228:
 12773              		.section	.text._ZN31TestQueue_testAllocFreeMatchingD0Ev,"axG",@progbits,_ZN31TestQueue_testAllocFr
 12775              		.weak	_ZTV24TestQueue_testReallocOOM
 12776              		.section	.data.rel.ro.local._ZTV24TestQueue_testReallocOOM,"awG",@progbits,_ZTV24TestQueue_testRea
 12777              		.align 8
 12780              	_ZTV24TestQueue_testReallocOOM:
 12781 0000 00000000 		.quad	0
 12781      00000000 
 12782 0008 00000000 		.quad	_ZTI24TestQueue_testReallocOOM
 12782      00000000 
 12783 0010 00000000 		.quad	_ZN24TestQueue_testReallocOOMD1Ev
 12783      00000000 
 12784 0018 00000000 		.quad	_ZN24TestQueue_testReallocOOMD0Ev
 12784      00000000 
 12785 0020 00000000 		.quad	_ZNK24TestQueue_testReallocOOM7RunImplEv
 12785      00000000 
 12786              		.section	.text._ZN24TestQueue_testReallocOOMD2Ev,"axG",@progbits,_ZN24TestQueue_testReallocOOMD5Ev
 12787              		.align 2
 12788              		.weak	_ZN24TestQueue_testReallocOOMD2Ev
 12790              	_ZN24TestQueue_testReallocOOMD2Ev:
 12791              	.LFB1230:
 342:testCore.cpp  **** 	struct UnboundedQueue queue;
 12792              		.loc 3 342 0 is_stmt 1
 12793              		.cfi_startproc
 12794 0000 55       		pushq	%rbp
 12795              		.cfi_def_cfa_offset 16
 12796              		.cfi_offset 6, -16
 12797 0001 4889E5   		movq	%rsp, %rbp
 12798              		.cfi_def_cfa_register 6
 12799 0004 4883EC10 		subq	$16, %rsp
 12800 0008 48897DF8 		movq	%rdi, -8(%rbp)
 12801              	.LBB31:
 342:testCore.cpp  **** 	struct UnboundedQueue queue;
 12802              		.loc 3 342 0
 12803 000c 488D1500 		leaq	16+_ZTV24TestQueue_testReallocOOM(%rip), %rdx
 12803      000000
 12804 0013 488B45F8 		movq	-8(%rbp), %rax
 12805 0017 488910   		movq	%rdx, (%rax)
 12806 001a 488B45F8 		movq	-8(%rbp), %rax
 12807 001e 4889C7   		movq	%rax, %rdi
 12808 0021 E8000000 		call	_ZN8UnitTest4TestD2Ev@PLT
 12808      00
 12809              	.LBE31:
 12810 0026 90       		nop
 12811 0027 C9       		leave
 12812              		.cfi_def_cfa 7, 8
 12813 0028 C3       		ret
 12814              		.cfi_endproc
 12815              	.LFE1230:
 12817              		.weak	_ZN24TestQueue_testReallocOOMD1Ev
 12818              		.set	_ZN24TestQueue_testReallocOOMD1Ev,_ZN24TestQueue_testReallocOOMD2Ev
 12819              		.section	.text._ZN24TestQueue_testReallocOOMD0Ev,"axG",@progbits,_ZN24TestQueue_testReallocOOMD5Ev
 12820              		.align 2
 12821              		.weak	_ZN24TestQueue_testReallocOOMD0Ev
 12823              	_ZN24TestQueue_testReallocOOMD0Ev:
 12824              	.LFB1232:
 342:testCore.cpp  **** 	struct UnboundedQueue queue;
 12825              		.loc 3 342 0
 12826              		.cfi_startproc
 12827              		.cfi_personality 0x9b,DW.ref.__gxx_personality_v0
 12828              		.cfi_lsda 0x1b,.LLSDA1232
 12829 0000 55       		pushq	%rbp
 12830              		.cfi_def_cfa_offset 16
 12831              		.cfi_offset 6, -16
 12832 0001 4889E5   		movq	%rsp, %rbp
 12833              		.cfi_def_cfa_register 6
 12834 0004 53       		pushq	%rbx
 12835 0005 4883EC18 		subq	$24, %rsp
 12836              		.cfi_offset 3, -24
 12837 0009 48897DE8 		movq	%rdi, -24(%rbp)
 342:testCore.cpp  **** 	struct UnboundedQueue queue;
 12838              		.loc 3 342 0
 12839 000d 488B45E8 		movq	-24(%rbp), %rax
 12840 0011 4889C7   		movq	%rax, %rdi
 12841              	.LEHB660:
 12842 0014 E8000000 		call	_ZN24TestQueue_testReallocOOMD1Ev
 12842      00
 12843              	.LEHE660:
 342:testCore.cpp  **** 	struct UnboundedQueue queue;
 12844              		.loc 3 342 0 is_stmt 0 discriminator 2
 12845 0019 488B45E8 		movq	-24(%rbp), %rax
 12846 001d 4889C7   		movq	%rax, %rdi
 12847 0020 E8000000 		call	_ZdlPv@PLT
 12847      00
 12848 0025 EB1A     		jmp	.L902
 12849              	.L901:
 12850 0027 4889C3   		movq	%rax, %rbx
 342:testCore.cpp  **** 	struct UnboundedQueue queue;
 12851              		.loc 3 342 0
 12852 002a 488B45E8 		movq	-24(%rbp), %rax
 12853 002e 4889C7   		movq	%rax, %rdi
 12854 0031 E8000000 		call	_ZdlPv@PLT
 12854      00
 12855 0036 4889D8   		movq	%rbx, %rax
 12856 0039 4889C7   		movq	%rax, %rdi
 12857              	.LEHB661:
 12858 003c E8000000 		call	_Unwind_Resume@PLT
 12858      00
 12859              	.LEHE661:
 12860              	.L902:
 12861 0041 4883C418 		addq	$24, %rsp
 12862 0045 5B       		popq	%rbx
 12863 0046 5D       		popq	%rbp
 12864              		.cfi_def_cfa 7, 8
 12865 0047 C3       		ret
 12866              		.cfi_endproc
 12867              	.LFE1232:
 12868              		.section	.gcc_except_table
 12869              	.LLSDA1232:
 12870 0e9e FF       		.byte	0xff
 12871 0e9f FF       		.byte	0xff
 12872 0ea0 01       		.byte	0x1
 12873 0ea1 08       		.uleb128 .LLSDACSE1232-.LLSDACSB1232
 12874              	.LLSDACSB1232:
 12875 0ea2 14       		.uleb128 .LEHB660-.LFB1232
 12876 0ea3 05       		.uleb128 .LEHE660-.LEHB660
 12877 0ea4 27       		.uleb128 .L901-.LFB1232
 12878 0ea5 00       		.uleb128 0
 12879 0ea6 3C       		.uleb128 .LEHB661-.LFB1232
 12880 0ea7 05       		.uleb128 .LEHE661-.LEHB661
 12881 0ea8 00       		.uleb128 0
 12882 0ea9 00       		.uleb128 0
 12883              	.LLSDACSE1232:
 12884              		.section	.text._ZN24TestQueue_testReallocOOMD0Ev,"axG",@progbits,_ZN24TestQueue_testReallocOOMD5Ev
 12886              		.weak	_ZTV22TestQueue_testAllocOOM
 12887              		.section	.data.rel.ro.local._ZTV22TestQueue_testAllocOOM,"awG",@progbits,_ZTV22TestQueue_testAlloc
 12888              		.align 8
 12891              	_ZTV22TestQueue_testAllocOOM:
 12892 0000 00000000 		.quad	0
 12892      00000000 
 12893 0008 00000000 		.quad	_ZTI22TestQueue_testAllocOOM
 12893      00000000 
 12894 0010 00000000 		.quad	_ZN22TestQueue_testAllocOOMD1Ev
 12894      00000000 
 12895 0018 00000000 		.quad	_ZN22TestQueue_testAllocOOMD0Ev
 12895      00000000 
 12896 0020 00000000 		.quad	_ZNK22TestQueue_testAllocOOM7RunImplEv
 12896      00000000 
 12897              		.section	.text._ZN22TestQueue_testAllocOOMD2Ev,"axG",@progbits,_ZN22TestQueue_testAllocOOMD5Ev,com
 12898              		.align 2
 12899              		.weak	_ZN22TestQueue_testAllocOOMD2Ev
 12901              	_ZN22TestQueue_testAllocOOMD2Ev:
 12902              	.LFB1234:
 331:testCore.cpp  **** 	struct UnboundedQueue queue;
 12903              		.loc 3 331 0 is_stmt 1
 12904              		.cfi_startproc
 12905 0000 55       		pushq	%rbp
 12906              		.cfi_def_cfa_offset 16
 12907              		.cfi_offset 6, -16
 12908 0001 4889E5   		movq	%rsp, %rbp
 12909              		.cfi_def_cfa_register 6
 12910 0004 4883EC10 		subq	$16, %rsp
 12911 0008 48897DF8 		movq	%rdi, -8(%rbp)
 12912              	.LBB32:
 331:testCore.cpp  **** 	struct UnboundedQueue queue;
 12913              		.loc 3 331 0
 12914 000c 488D1500 		leaq	16+_ZTV22TestQueue_testAllocOOM(%rip), %rdx
 12914      000000
 12915 0013 488B45F8 		movq	-8(%rbp), %rax
 12916 0017 488910   		movq	%rdx, (%rax)
 12917 001a 488B45F8 		movq	-8(%rbp), %rax
 12918 001e 4889C7   		movq	%rax, %rdi
 12919 0021 E8000000 		call	_ZN8UnitTest4TestD2Ev@PLT
 12919      00
 12920              	.LBE32:
 12921 0026 90       		nop
 12922 0027 C9       		leave
 12923              		.cfi_def_cfa 7, 8
 12924 0028 C3       		ret
 12925              		.cfi_endproc
 12926              	.LFE1234:
 12928              		.weak	_ZN22TestQueue_testAllocOOMD1Ev
 12929              		.set	_ZN22TestQueue_testAllocOOMD1Ev,_ZN22TestQueue_testAllocOOMD2Ev
 12930              		.section	.text._ZN22TestQueue_testAllocOOMD0Ev,"axG",@progbits,_ZN22TestQueue_testAllocOOMD5Ev,com
 12931              		.align 2
 12932              		.weak	_ZN22TestQueue_testAllocOOMD0Ev
 12934              	_ZN22TestQueue_testAllocOOMD0Ev:
 12935              	.LFB1236:
 331:testCore.cpp  **** 	struct UnboundedQueue queue;
 12936              		.loc 3 331 0
 12937              		.cfi_startproc
 12938              		.cfi_personality 0x9b,DW.ref.__gxx_personality_v0
 12939              		.cfi_lsda 0x1b,.LLSDA1236
 12940 0000 55       		pushq	%rbp
 12941              		.cfi_def_cfa_offset 16
 12942              		.cfi_offset 6, -16
 12943 0001 4889E5   		movq	%rsp, %rbp
 12944              		.cfi_def_cfa_register 6
 12945 0004 53       		pushq	%rbx
 12946 0005 4883EC18 		subq	$24, %rsp
 12947              		.cfi_offset 3, -24
 12948 0009 48897DE8 		movq	%rdi, -24(%rbp)
 331:testCore.cpp  **** 	struct UnboundedQueue queue;
 12949              		.loc 3 331 0
 12950 000d 488B45E8 		movq	-24(%rbp), %rax
 12951 0011 4889C7   		movq	%rax, %rdi
 12952              	.LEHB662:
 12953 0014 E8000000 		call	_ZN22TestQueue_testAllocOOMD1Ev
 12953      00
 12954              	.LEHE662:
 331:testCore.cpp  **** 	struct UnboundedQueue queue;
 12955              		.loc 3 331 0 is_stmt 0 discriminator 2
 12956 0019 488B45E8 		movq	-24(%rbp), %rax
 12957 001d 4889C7   		movq	%rax, %rdi
 12958 0020 E8000000 		call	_ZdlPv@PLT
 12958      00
 12959 0025 EB1A     		jmp	.L907
 12960              	.L906:
 12961 0027 4889C3   		movq	%rax, %rbx
 331:testCore.cpp  **** 	struct UnboundedQueue queue;
 12962              		.loc 3 331 0
 12963 002a 488B45E8 		movq	-24(%rbp), %rax
 12964 002e 4889C7   		movq	%rax, %rdi
 12965 0031 E8000000 		call	_ZdlPv@PLT
 12965      00
 12966 0036 4889D8   		movq	%rbx, %rax
 12967 0039 4889C7   		movq	%rax, %rdi
 12968              	.LEHB663:
 12969 003c E8000000 		call	_Unwind_Resume@PLT
 12969      00
 12970              	.LEHE663:
 12971              	.L907:
 12972 0041 4883C418 		addq	$24, %rsp
 12973 0045 5B       		popq	%rbx
 12974 0046 5D       		popq	%rbp
 12975              		.cfi_def_cfa 7, 8
 12976 0047 C3       		ret
 12977              		.cfi_endproc
 12978              	.LFE1236:
 12979              		.section	.gcc_except_table
 12980              	.LLSDA1236:
 12981 0eaa FF       		.byte	0xff
 12982 0eab FF       		.byte	0xff
 12983 0eac 01       		.byte	0x1
 12984 0ead 08       		.uleb128 .LLSDACSE1236-.LLSDACSB1236
 12985              	.LLSDACSB1236:
 12986 0eae 14       		.uleb128 .LEHB662-.LFB1236
 12987 0eaf 05       		.uleb128 .LEHE662-.LEHB662
 12988 0eb0 27       		.uleb128 .L906-.LFB1236
 12989 0eb1 00       		.uleb128 0
 12990 0eb2 3C       		.uleb128 .LEHB663-.LFB1236
 12991 0eb3 05       		.uleb128 .LEHE663-.LEHB663
 12992 0eb4 00       		.uleb128 0
 12993 0eb5 00       		.uleb128 0
 12994              	.LLSDACSE1236:
 12995              		.section	.text._ZN22TestQueue_testAllocOOMD0Ev,"axG",@progbits,_ZN22TestQueue_testAllocOOMD5Ev,com
 12997              		.weak	_ZTV21TestQueue_testRealloc
 12998              		.section	.data.rel.ro.local._ZTV21TestQueue_testRealloc,"awG",@progbits,_ZTV21TestQueue_testReallo
 12999              		.align 8
 13002              	_ZTV21TestQueue_testRealloc:
 13003 0000 00000000 		.quad	0
 13003      00000000 
 13004 0008 00000000 		.quad	_ZTI21TestQueue_testRealloc
 13004      00000000 
 13005 0010 00000000 		.quad	_ZN21TestQueue_testReallocD1Ev
 13005      00000000 
 13006 0018 00000000 		.quad	_ZN21TestQueue_testReallocD0Ev
 13006      00000000 
 13007 0020 00000000 		.quad	_ZNK21TestQueue_testRealloc7RunImplEv
 13007      00000000 
 13008              		.section	.text._ZN21TestQueue_testReallocD2Ev,"axG",@progbits,_ZN21TestQueue_testReallocD5Ev,comda
 13009              		.align 2
 13010              		.weak	_ZN21TestQueue_testReallocD2Ev
 13012              	_ZN21TestQueue_testReallocD2Ev:
 13013              	.LFB1238:
 324:testCore.cpp  **** 	testRealloc(0);
 13014              		.loc 3 324 0 is_stmt 1
 13015              		.cfi_startproc
 13016 0000 55       		pushq	%rbp
 13017              		.cfi_def_cfa_offset 16
 13018              		.cfi_offset 6, -16
 13019 0001 4889E5   		movq	%rsp, %rbp
 13020              		.cfi_def_cfa_register 6
 13021 0004 4883EC10 		subq	$16, %rsp
 13022 0008 48897DF8 		movq	%rdi, -8(%rbp)
 13023              	.LBB33:
 324:testCore.cpp  **** 	testRealloc(0);
 13024              		.loc 3 324 0
 13025 000c 488D1500 		leaq	16+_ZTV21TestQueue_testRealloc(%rip), %rdx
 13025      000000
 13026 0013 488B45F8 		movq	-8(%rbp), %rax
 13027 0017 488910   		movq	%rdx, (%rax)
 13028 001a 488B45F8 		movq	-8(%rbp), %rax
 13029 001e 4889C7   		movq	%rax, %rdi
 13030 0021 E8000000 		call	_ZN8UnitTest4TestD2Ev@PLT
 13030      00
 13031              	.LBE33:
 13032 0026 90       		nop
 13033 0027 C9       		leave
 13034              		.cfi_def_cfa 7, 8
 13035 0028 C3       		ret
 13036              		.cfi_endproc
 13037              	.LFE1238:
 13039              		.weak	_ZN21TestQueue_testReallocD1Ev
 13040              		.set	_ZN21TestQueue_testReallocD1Ev,_ZN21TestQueue_testReallocD2Ev
 13041              		.section	.text._ZN21TestQueue_testReallocD0Ev,"axG",@progbits,_ZN21TestQueue_testReallocD5Ev,comda
 13042              		.align 2
 13043              		.weak	_ZN21TestQueue_testReallocD0Ev
 13045              	_ZN21TestQueue_testReallocD0Ev:
 13046              	.LFB1240:
 324:testCore.cpp  **** 	testRealloc(0);
 13047              		.loc 3 324 0
 13048              		.cfi_startproc
 13049              		.cfi_personality 0x9b,DW.ref.__gxx_personality_v0
 13050              		.cfi_lsda 0x1b,.LLSDA1240
 13051 0000 55       		pushq	%rbp
 13052              		.cfi_def_cfa_offset 16
 13053              		.cfi_offset 6, -16
 13054 0001 4889E5   		movq	%rsp, %rbp
 13055              		.cfi_def_cfa_register 6
 13056 0004 53       		pushq	%rbx
 13057 0005 4883EC18 		subq	$24, %rsp
 13058              		.cfi_offset 3, -24
 13059 0009 48897DE8 		movq	%rdi, -24(%rbp)
 324:testCore.cpp  **** 	testRealloc(0);
 13060              		.loc 3 324 0
 13061 000d 488B45E8 		movq	-24(%rbp), %rax
 13062 0011 4889C7   		movq	%rax, %rdi
 13063              	.LEHB664:
 13064 0014 E8000000 		call	_ZN21TestQueue_testReallocD1Ev
 13064      00
 13065              	.LEHE664:
 324:testCore.cpp  **** 	testRealloc(0);
 13066              		.loc 3 324 0 is_stmt 0 discriminator 2
 13067 0019 488B45E8 		movq	-24(%rbp), %rax
 13068 001d 4889C7   		movq	%rax, %rdi
 13069 0020 E8000000 		call	_ZdlPv@PLT
 13069      00
 13070 0025 EB1A     		jmp	.L912
 13071              	.L911:
 13072 0027 4889C3   		movq	%rax, %rbx
 324:testCore.cpp  **** 	testRealloc(0);
 13073              		.loc 3 324 0
 13074 002a 488B45E8 		movq	-24(%rbp), %rax
 13075 002e 4889C7   		movq	%rax, %rdi
 13076 0031 E8000000 		call	_ZdlPv@PLT
 13076      00
 13077 0036 4889D8   		movq	%rbx, %rax
 13078 0039 4889C7   		movq	%rax, %rdi
 13079              	.LEHB665:
 13080 003c E8000000 		call	_Unwind_Resume@PLT
 13080      00
 13081              	.LEHE665:
 13082              	.L912:
 13083 0041 4883C418 		addq	$24, %rsp
 13084 0045 5B       		popq	%rbx
 13085 0046 5D       		popq	%rbp
 13086              		.cfi_def_cfa 7, 8
 13087 0047 C3       		ret
 13088              		.cfi_endproc
 13089              	.LFE1240:
 13090              		.section	.gcc_except_table
 13091              	.LLSDA1240:
 13092 0eb6 FF       		.byte	0xff
 13093 0eb7 FF       		.byte	0xff
 13094 0eb8 01       		.byte	0x1
 13095 0eb9 08       		.uleb128 .LLSDACSE1240-.LLSDACSB1240
 13096              	.LLSDACSB1240:
 13097 0eba 14       		.uleb128 .LEHB664-.LFB1240
 13098 0ebb 05       		.uleb128 .LEHE664-.LEHB664
 13099 0ebc 27       		.uleb128 .L911-.LFB1240
 13100 0ebd 00       		.uleb128 0
 13101 0ebe 3C       		.uleb128 .LEHB665-.LFB1240
 13102 0ebf 05       		.uleb128 .LEHE665-.LEHB665
 13103 0ec0 00       		.uleb128 0
 13104 0ec1 00       		.uleb128 0
 13105              	.LLSDACSE1240:
 13106              		.section	.text._ZN21TestQueue_testReallocD0Ev,"axG",@progbits,_ZN21TestQueue_testReallocD5Ev,comda
 13108              		.weak	_ZTV21TestQueue_testPutTake
 13109              		.section	.data.rel.ro.local._ZTV21TestQueue_testPutTake,"awG",@progbits,_ZTV21TestQueue_testPutTak
 13110              		.align 8
 13113              	_ZTV21TestQueue_testPutTake:
 13114 0000 00000000 		.quad	0
 13114      00000000 
 13115 0008 00000000 		.quad	_ZTI21TestQueue_testPutTake
 13115      00000000 
 13116 0010 00000000 		.quad	_ZN21TestQueue_testPutTakeD1Ev
 13116      00000000 
 13117 0018 00000000 		.quad	_ZN21TestQueue_testPutTakeD0Ev
 13117      00000000 
 13118 0020 00000000 		.quad	_ZNK21TestQueue_testPutTake7RunImplEv
 13118      00000000 
 13119              		.section	.text._ZN21TestQueue_testPutTakeD2Ev,"axG",@progbits,_ZN21TestQueue_testPutTakeD5Ev,comda
 13120              		.align 2
 13121              		.weak	_ZN21TestQueue_testPutTakeD2Ev
 13123              	_ZN21TestQueue_testPutTakeD2Ev:
 13124              	.LFB1242:
 166:testCore.cpp  **** 	struct UnboundedQueue queue;
 13125              		.loc 3 166 0 is_stmt 1
 13126              		.cfi_startproc
 13127 0000 55       		pushq	%rbp
 13128              		.cfi_def_cfa_offset 16
 13129              		.cfi_offset 6, -16
 13130 0001 4889E5   		movq	%rsp, %rbp
 13131              		.cfi_def_cfa_register 6
 13132 0004 4883EC10 		subq	$16, %rsp
 13133 0008 48897DF8 		movq	%rdi, -8(%rbp)
 13134              	.LBB34:
 166:testCore.cpp  **** 	struct UnboundedQueue queue;
 13135              		.loc 3 166 0
 13136 000c 488D1500 		leaq	16+_ZTV21TestQueue_testPutTake(%rip), %rdx
 13136      000000
 13137 0013 488B45F8 		movq	-8(%rbp), %rax
 13138 0017 488910   		movq	%rdx, (%rax)
 13139 001a 488B45F8 		movq	-8(%rbp), %rax
 13140 001e 4889C7   		movq	%rax, %rdi
 13141 0021 E8000000 		call	_ZN8UnitTest4TestD2Ev@PLT
 13141      00
 13142              	.LBE34:
 13143 0026 90       		nop
 13144 0027 C9       		leave
 13145              		.cfi_def_cfa 7, 8
 13146 0028 C3       		ret
 13147              		.cfi_endproc
 13148              	.LFE1242:
 13150              		.weak	_ZN21TestQueue_testPutTakeD1Ev
 13151              		.set	_ZN21TestQueue_testPutTakeD1Ev,_ZN21TestQueue_testPutTakeD2Ev
 13152              		.section	.text._ZN21TestQueue_testPutTakeD0Ev,"axG",@progbits,_ZN21TestQueue_testPutTakeD5Ev,comda
 13153              		.align 2
 13154              		.weak	_ZN21TestQueue_testPutTakeD0Ev
 13156              	_ZN21TestQueue_testPutTakeD0Ev:
 13157              	.LFB1244:
 166:testCore.cpp  **** 	struct UnboundedQueue queue;
 13158              		.loc 3 166 0
 13159              		.cfi_startproc
 13160              		.cfi_personality 0x9b,DW.ref.__gxx_personality_v0
 13161              		.cfi_lsda 0x1b,.LLSDA1244
 13162 0000 55       		pushq	%rbp
 13163              		.cfi_def_cfa_offset 16
 13164              		.cfi_offset 6, -16
 13165 0001 4889E5   		movq	%rsp, %rbp
 13166              		.cfi_def_cfa_register 6
 13167 0004 53       		pushq	%rbx
 13168 0005 4883EC18 		subq	$24, %rsp
 13169              		.cfi_offset 3, -24
 13170 0009 48897DE8 		movq	%rdi, -24(%rbp)
 166:testCore.cpp  **** 	struct UnboundedQueue queue;
 13171              		.loc 3 166 0
 13172 000d 488B45E8 		movq	-24(%rbp), %rax
 13173 0011 4889C7   		movq	%rax, %rdi
 13174              	.LEHB666:
 13175 0014 E8000000 		call	_ZN21TestQueue_testPutTakeD1Ev
 13175      00
 13176              	.LEHE666:
 166:testCore.cpp  **** 	struct UnboundedQueue queue;
 13177              		.loc 3 166 0 is_stmt 0 discriminator 2
 13178 0019 488B45E8 		movq	-24(%rbp), %rax
 13179 001d 4889C7   		movq	%rax, %rdi
 13180 0020 E8000000 		call	_ZdlPv@PLT
 13180      00
 13181 0025 EB1A     		jmp	.L917
 13182              	.L916:
 13183 0027 4889C3   		movq	%rax, %rbx
 166:testCore.cpp  **** 	struct UnboundedQueue queue;
 13184              		.loc 3 166 0
 13185 002a 488B45E8 		movq	-24(%rbp), %rax
 13186 002e 4889C7   		movq	%rax, %rdi
 13187 0031 E8000000 		call	_ZdlPv@PLT
 13187      00
 13188 0036 4889D8   		movq	%rbx, %rax
 13189 0039 4889C7   		movq	%rax, %rdi
 13190              	.LEHB667:
 13191 003c E8000000 		call	_Unwind_Resume@PLT
 13191      00
 13192              	.LEHE667:
 13193              	.L917:
 13194 0041 4883C418 		addq	$24, %rsp
 13195 0045 5B       		popq	%rbx
 13196 0046 5D       		popq	%rbp
 13197              		.cfi_def_cfa 7, 8
 13198 0047 C3       		ret
 13199              		.cfi_endproc
 13200              	.LFE1244:
 13201              		.section	.gcc_except_table
 13202              	.LLSDA1244:
 13203 0ec2 FF       		.byte	0xff
 13204 0ec3 FF       		.byte	0xff
 13205 0ec4 01       		.byte	0x1
 13206 0ec5 08       		.uleb128 .LLSDACSE1244-.LLSDACSB1244
 13207              	.LLSDACSB1244:
 13208 0ec6 14       		.uleb128 .LEHB666-.LFB1244
 13209 0ec7 05       		.uleb128 .LEHE666-.LEHB666
 13210 0ec8 27       		.uleb128 .L916-.LFB1244
 13211 0ec9 00       		.uleb128 0
 13212 0eca 3C       		.uleb128 .LEHB667-.LFB1244
 13213 0ecb 05       		.uleb128 .LEHE667-.LEHB667
 13214 0ecc 00       		.uleb128 0
 13215 0ecd 00       		.uleb128 0
 13216              	.LLSDACSE1244:
 13217              		.section	.text._ZN21TestQueue_testPutTakeD0Ev,"axG",@progbits,_ZN21TestQueue_testPutTakeD5Ev,comda
 13219              		.weak	_ZTV21TestQueue_testPutWrap
 13220              		.section	.data.rel.ro.local._ZTV21TestQueue_testPutWrap,"awG",@progbits,_ZTV21TestQueue_testPutWra
 13221              		.align 8
 13224              	_ZTV21TestQueue_testPutWrap:
 13225 0000 00000000 		.quad	0
 13225      00000000 
 13226 0008 00000000 		.quad	_ZTI21TestQueue_testPutWrap
 13226      00000000 
 13227 0010 00000000 		.quad	_ZN21TestQueue_testPutWrapD1Ev
 13227      00000000 
 13228 0018 00000000 		.quad	_ZN21TestQueue_testPutWrapD0Ev
 13228      00000000 
 13229 0020 00000000 		.quad	_ZNK21TestQueue_testPutWrap7RunImplEv
 13229      00000000 
 13230              		.section	.text._ZN21TestQueue_testPutWrapD2Ev,"axG",@progbits,_ZN21TestQueue_testPutWrapD5Ev,comda
 13231              		.align 2
 13232              		.weak	_ZN21TestQueue_testPutWrapD2Ev
 13234              	_ZN21TestQueue_testPutWrapD2Ev:
 13235              	.LFB1246:
 119:testCore.cpp  **** 	struct UnboundedQueue queue;
 13236              		.loc 3 119 0 is_stmt 1
 13237              		.cfi_startproc
 13238 0000 55       		pushq	%rbp
 13239              		.cfi_def_cfa_offset 16
 13240              		.cfi_offset 6, -16
 13241 0001 4889E5   		movq	%rsp, %rbp
 13242              		.cfi_def_cfa_register 6
 13243 0004 4883EC10 		subq	$16, %rsp
 13244 0008 48897DF8 		movq	%rdi, -8(%rbp)
 13245              	.LBB35:
 119:testCore.cpp  **** 	struct UnboundedQueue queue;
 13246              		.loc 3 119 0
 13247 000c 488D1500 		leaq	16+_ZTV21TestQueue_testPutWrap(%rip), %rdx
 13247      000000
 13248 0013 488B45F8 		movq	-8(%rbp), %rax
 13249 0017 488910   		movq	%rdx, (%rax)
 13250 001a 488B45F8 		movq	-8(%rbp), %rax
 13251 001e 4889C7   		movq	%rax, %rdi
 13252 0021 E8000000 		call	_ZN8UnitTest4TestD2Ev@PLT
 13252      00
 13253              	.LBE35:
 13254 0026 90       		nop
 13255 0027 C9       		leave
 13256              		.cfi_def_cfa 7, 8
 13257 0028 C3       		ret
 13258              		.cfi_endproc
 13259              	.LFE1246:
 13261              		.weak	_ZN21TestQueue_testPutWrapD1Ev
 13262              		.set	_ZN21TestQueue_testPutWrapD1Ev,_ZN21TestQueue_testPutWrapD2Ev
 13263              		.section	.text._ZN21TestQueue_testPutWrapD0Ev,"axG",@progbits,_ZN21TestQueue_testPutWrapD5Ev,comda
 13264              		.align 2
 13265              		.weak	_ZN21TestQueue_testPutWrapD0Ev
 13267              	_ZN21TestQueue_testPutWrapD0Ev:
 13268              	.LFB1248:
 119:testCore.cpp  **** 	struct UnboundedQueue queue;
 13269              		.loc 3 119 0
 13270              		.cfi_startproc
 13271              		.cfi_personality 0x9b,DW.ref.__gxx_personality_v0
 13272              		.cfi_lsda 0x1b,.LLSDA1248
 13273 0000 55       		pushq	%rbp
 13274              		.cfi_def_cfa_offset 16
 13275              		.cfi_offset 6, -16
 13276 0001 4889E5   		movq	%rsp, %rbp
 13277              		.cfi_def_cfa_register 6
 13278 0004 53       		pushq	%rbx
 13279 0005 4883EC18 		subq	$24, %rsp
 13280              		.cfi_offset 3, -24
 13281 0009 48897DE8 		movq	%rdi, -24(%rbp)
 119:testCore.cpp  **** 	struct UnboundedQueue queue;
 13282              		.loc 3 119 0
 13283 000d 488B45E8 		movq	-24(%rbp), %rax
 13284 0011 4889C7   		movq	%rax, %rdi
 13285              	.LEHB668:
 13286 0014 E8000000 		call	_ZN21TestQueue_testPutWrapD1Ev
 13286      00
 13287              	.LEHE668:
 119:testCore.cpp  **** 	struct UnboundedQueue queue;
 13288              		.loc 3 119 0 is_stmt 0 discriminator 2
 13289 0019 488B45E8 		movq	-24(%rbp), %rax
 13290 001d 4889C7   		movq	%rax, %rdi
 13291 0020 E8000000 		call	_ZdlPv@PLT
 13291      00
 13292 0025 EB1A     		jmp	.L922
 13293              	.L921:
 13294 0027 4889C3   		movq	%rax, %rbx
 119:testCore.cpp  **** 	struct UnboundedQueue queue;
 13295              		.loc 3 119 0
 13296 002a 488B45E8 		movq	-24(%rbp), %rax
 13297 002e 4889C7   		movq	%rax, %rdi
 13298 0031 E8000000 		call	_ZdlPv@PLT
 13298      00
 13299 0036 4889D8   		movq	%rbx, %rax
 13300 0039 4889C7   		movq	%rax, %rdi
 13301              	.LEHB669:
 13302 003c E8000000 		call	_Unwind_Resume@PLT
 13302      00
 13303              	.LEHE669:
 13304              	.L922:
 13305 0041 4883C418 		addq	$24, %rsp
 13306 0045 5B       		popq	%rbx
 13307 0046 5D       		popq	%rbp
 13308              		.cfi_def_cfa 7, 8
 13309 0047 C3       		ret
 13310              		.cfi_endproc
 13311              	.LFE1248:
 13312              		.section	.gcc_except_table
 13313              	.LLSDA1248:
 13314 0ece FF       		.byte	0xff
 13315 0ecf FF       		.byte	0xff
 13316 0ed0 01       		.byte	0x1
 13317 0ed1 08       		.uleb128 .LLSDACSE1248-.LLSDACSB1248
 13318              	.LLSDACSB1248:
 13319 0ed2 14       		.uleb128 .LEHB668-.LFB1248
 13320 0ed3 05       		.uleb128 .LEHE668-.LEHB668
 13321 0ed4 27       		.uleb128 .L921-.LFB1248
 13322 0ed5 00       		.uleb128 0
 13323 0ed6 3C       		.uleb128 .LEHB669-.LFB1248
 13324 0ed7 05       		.uleb128 .LEHE669-.LEHB669
 13325 0ed8 00       		.uleb128 0
 13326 0ed9 00       		.uleb128 0
 13327              	.LLSDACSE1248:
 13328              		.section	.text._ZN21TestQueue_testPutWrapD0Ev,"axG",@progbits,_ZN21TestQueue_testPutWrapD5Ev,comda
 13330              		.weak	_ZTV23TestQueue_testPutNoWrap
 13331              		.section	.data.rel.ro.local._ZTV23TestQueue_testPutNoWrap,"awG",@progbits,_ZTV23TestQueue_testPutN
 13332              		.align 8
 13335              	_ZTV23TestQueue_testPutNoWrap:
 13336 0000 00000000 		.quad	0
 13336      00000000 
 13337 0008 00000000 		.quad	_ZTI23TestQueue_testPutNoWrap
 13337      00000000 
 13338 0010 00000000 		.quad	_ZN23TestQueue_testPutNoWrapD1Ev
 13338      00000000 
 13339 0018 00000000 		.quad	_ZN23TestQueue_testPutNoWrapD0Ev
 13339      00000000 
 13340 0020 00000000 		.quad	_ZNK23TestQueue_testPutNoWrap7RunImplEv
 13340      00000000 
 13341              		.section	.text._ZN23TestQueue_testPutNoWrapD2Ev,"axG",@progbits,_ZN23TestQueue_testPutNoWrapD5Ev,c
 13342              		.align 2
 13343              		.weak	_ZN23TestQueue_testPutNoWrapD2Ev
 13345              	_ZN23TestQueue_testPutNoWrapD2Ev:
 13346              	.LFB1250:
  77:testCore.cpp  **** 	struct UnboundedQueue queue;
 13347              		.loc 3 77 0 is_stmt 1
 13348              		.cfi_startproc
 13349 0000 55       		pushq	%rbp
 13350              		.cfi_def_cfa_offset 16
 13351              		.cfi_offset 6, -16
 13352 0001 4889E5   		movq	%rsp, %rbp
 13353              		.cfi_def_cfa_register 6
 13354 0004 4883EC10 		subq	$16, %rsp
 13355 0008 48897DF8 		movq	%rdi, -8(%rbp)
 13356              	.LBB36:
  77:testCore.cpp  **** 	struct UnboundedQueue queue;
 13357              		.loc 3 77 0
 13358 000c 488D1500 		leaq	16+_ZTV23TestQueue_testPutNoWrap(%rip), %rdx
 13358      000000
 13359 0013 488B45F8 		movq	-8(%rbp), %rax
 13360 0017 488910   		movq	%rdx, (%rax)
 13361 001a 488B45F8 		movq	-8(%rbp), %rax
 13362 001e 4889C7   		movq	%rax, %rdi
 13363 0021 E8000000 		call	_ZN8UnitTest4TestD2Ev@PLT
 13363      00
 13364              	.LBE36:
 13365 0026 90       		nop
 13366 0027 C9       		leave
 13367              		.cfi_def_cfa 7, 8
 13368 0028 C3       		ret
 13369              		.cfi_endproc
 13370              	.LFE1250:
 13372              		.weak	_ZN23TestQueue_testPutNoWrapD1Ev
 13373              		.set	_ZN23TestQueue_testPutNoWrapD1Ev,_ZN23TestQueue_testPutNoWrapD2Ev
 13374              		.section	.text._ZN23TestQueue_testPutNoWrapD0Ev,"axG",@progbits,_ZN23TestQueue_testPutNoWrapD5Ev,c
 13375              		.align 2
 13376              		.weak	_ZN23TestQueue_testPutNoWrapD0Ev
 13378              	_ZN23TestQueue_testPutNoWrapD0Ev:
 13379              	.LFB1252:
  77:testCore.cpp  **** 	struct UnboundedQueue queue;
 13380              		.loc 3 77 0
 13381              		.cfi_startproc
 13382              		.cfi_personality 0x9b,DW.ref.__gxx_personality_v0
 13383              		.cfi_lsda 0x1b,.LLSDA1252
 13384 0000 55       		pushq	%rbp
 13385              		.cfi_def_cfa_offset 16
 13386              		.cfi_offset 6, -16
 13387 0001 4889E5   		movq	%rsp, %rbp
 13388              		.cfi_def_cfa_register 6
 13389 0004 53       		pushq	%rbx
 13390 0005 4883EC18 		subq	$24, %rsp
 13391              		.cfi_offset 3, -24
 13392 0009 48897DE8 		movq	%rdi, -24(%rbp)
  77:testCore.cpp  **** 	struct UnboundedQueue queue;
 13393              		.loc 3 77 0
 13394 000d 488B45E8 		movq	-24(%rbp), %rax
 13395 0011 4889C7   		movq	%rax, %rdi
 13396              	.LEHB670:
 13397 0014 E8000000 		call	_ZN23TestQueue_testPutNoWrapD1Ev
 13397      00
 13398              	.LEHE670:
  77:testCore.cpp  **** 	struct UnboundedQueue queue;
 13399              		.loc 3 77 0 is_stmt 0 discriminator 2
 13400 0019 488B45E8 		movq	-24(%rbp), %rax
 13401 001d 4889C7   		movq	%rax, %rdi
 13402 0020 E8000000 		call	_ZdlPv@PLT
 13402      00
 13403 0025 EB1A     		jmp	.L927
 13404              	.L926:
 13405 0027 4889C3   		movq	%rax, %rbx
  77:testCore.cpp  **** 	struct UnboundedQueue queue;
 13406              		.loc 3 77 0
 13407 002a 488B45E8 		movq	-24(%rbp), %rax
 13408 002e 4889C7   		movq	%rax, %rdi
 13409 0031 E8000000 		call	_ZdlPv@PLT
 13409      00
 13410 0036 4889D8   		movq	%rbx, %rax
 13411 0039 4889C7   		movq	%rax, %rdi
 13412              	.LEHB671:
 13413 003c E8000000 		call	_Unwind_Resume@PLT
 13413      00
 13414              	.LEHE671:
 13415              	.L927:
 13416 0041 4883C418 		addq	$24, %rsp
 13417 0045 5B       		popq	%rbx
 13418 0046 5D       		popq	%rbp
 13419              		.cfi_def_cfa 7, 8
 13420 0047 C3       		ret
 13421              		.cfi_endproc
 13422              	.LFE1252:
 13423              		.section	.gcc_except_table
 13424              	.LLSDA1252:
 13425 0eda FF       		.byte	0xff
 13426 0edb FF       		.byte	0xff
 13427 0edc 01       		.byte	0x1
 13428 0edd 08       		.uleb128 .LLSDACSE1252-.LLSDACSB1252
 13429              	.LLSDACSB1252:
 13430 0ede 14       		.uleb128 .LEHB670-.LFB1252
 13431 0edf 05       		.uleb128 .LEHE670-.LEHB670
 13432 0ee0 27       		.uleb128 .L926-.LFB1252
 13433 0ee1 00       		.uleb128 0
 13434 0ee2 3C       		.uleb128 .LEHB671-.LFB1252
 13435 0ee3 05       		.uleb128 .LEHE671-.LEHB671
 13436 0ee4 00       		.uleb128 0
 13437 0ee5 00       		.uleb128 0
 13438              	.LLSDACSE1252:
 13439              		.section	.text._ZN23TestQueue_testPutNoWrapD0Ev,"axG",@progbits,_ZN23TestQueue_testPutNoWrapD5Ev,c
 13441              		.weak	_ZTV18TestQueue_testInit
 13442              		.section	.data.rel.ro.local._ZTV18TestQueue_testInit,"awG",@progbits,_ZTV18TestQueue_testInit,comd
 13443              		.align 8
 13446              	_ZTV18TestQueue_testInit:
 13447 0000 00000000 		.quad	0
 13447      00000000 
 13448 0008 00000000 		.quad	_ZTI18TestQueue_testInit
 13448      00000000 
 13449 0010 00000000 		.quad	_ZN18TestQueue_testInitD1Ev
 13449      00000000 
 13450 0018 00000000 		.quad	_ZN18TestQueue_testInitD0Ev
 13450      00000000 
 13451 0020 00000000 		.quad	_ZNK18TestQueue_testInit7RunImplEv
 13451      00000000 
 13452              		.section	.text._ZN18TestQueue_testInitD2Ev,"axG",@progbits,_ZN18TestQueue_testInitD5Ev,comdat
 13453              		.align 2
 13454              		.weak	_ZN18TestQueue_testInitD2Ev
 13456              	_ZN18TestQueue_testInitD2Ev:
 13457              	.LFB1254:
  53:testCore.cpp  **** 	struct UnboundedQueue queue;
 13458              		.loc 3 53 0 is_stmt 1
 13459              		.cfi_startproc
 13460 0000 55       		pushq	%rbp
 13461              		.cfi_def_cfa_offset 16
 13462              		.cfi_offset 6, -16
 13463 0001 4889E5   		movq	%rsp, %rbp
 13464              		.cfi_def_cfa_register 6
 13465 0004 4883EC10 		subq	$16, %rsp
 13466 0008 48897DF8 		movq	%rdi, -8(%rbp)
 13467              	.LBB37:
  53:testCore.cpp  **** 	struct UnboundedQueue queue;
 13468              		.loc 3 53 0
 13469 000c 488D1500 		leaq	16+_ZTV18TestQueue_testInit(%rip), %rdx
 13469      000000
 13470 0013 488B45F8 		movq	-8(%rbp), %rax
 13471 0017 488910   		movq	%rdx, (%rax)
 13472 001a 488B45F8 		movq	-8(%rbp), %rax
 13473 001e 4889C7   		movq	%rax, %rdi
 13474 0021 E8000000 		call	_ZN8UnitTest4TestD2Ev@PLT
 13474      00
 13475              	.LBE37:
 13476 0026 90       		nop
 13477 0027 C9       		leave
 13478              		.cfi_def_cfa 7, 8
 13479 0028 C3       		ret
 13480              		.cfi_endproc
 13481              	.LFE1254:
 13483              		.weak	_ZN18TestQueue_testInitD1Ev
 13484              		.set	_ZN18TestQueue_testInitD1Ev,_ZN18TestQueue_testInitD2Ev
 13485              		.section	.text._ZN18TestQueue_testInitD0Ev,"axG",@progbits,_ZN18TestQueue_testInitD5Ev,comdat
 13486              		.align 2
 13487              		.weak	_ZN18TestQueue_testInitD0Ev
 13489              	_ZN18TestQueue_testInitD0Ev:
 13490              	.LFB1256:
  53:testCore.cpp  **** 	struct UnboundedQueue queue;
 13491              		.loc 3 53 0
 13492              		.cfi_startproc
 13493              		.cfi_personality 0x9b,DW.ref.__gxx_personality_v0
 13494              		.cfi_lsda 0x1b,.LLSDA1256
 13495 0000 55       		pushq	%rbp
 13496              		.cfi_def_cfa_offset 16
 13497              		.cfi_offset 6, -16
 13498 0001 4889E5   		movq	%rsp, %rbp
 13499              		.cfi_def_cfa_register 6
 13500 0004 53       		pushq	%rbx
 13501 0005 4883EC18 		subq	$24, %rsp
 13502              		.cfi_offset 3, -24
 13503 0009 48897DE8 		movq	%rdi, -24(%rbp)
  53:testCore.cpp  **** 	struct UnboundedQueue queue;
 13504              		.loc 3 53 0
 13505 000d 488B45E8 		movq	-24(%rbp), %rax
 13506 0011 4889C7   		movq	%rax, %rdi
 13507              	.LEHB672:
 13508 0014 E8000000 		call	_ZN18TestQueue_testInitD1Ev
 13508      00
 13509              	.LEHE672:
  53:testCore.cpp  **** 	struct UnboundedQueue queue;
 13510              		.loc 3 53 0 is_stmt 0 discriminator 2
 13511 0019 488B45E8 		movq	-24(%rbp), %rax
 13512 001d 4889C7   		movq	%rax, %rdi
 13513 0020 E8000000 		call	_ZdlPv@PLT
 13513      00
 13514 0025 EB1A     		jmp	.L932
 13515              	.L931:
 13516 0027 4889C3   		movq	%rax, %rbx
  53:testCore.cpp  **** 	struct UnboundedQueue queue;
 13517              		.loc 3 53 0
 13518 002a 488B45E8 		movq	-24(%rbp), %rax
 13519 002e 4889C7   		movq	%rax, %rdi
 13520 0031 E8000000 		call	_ZdlPv@PLT
 13520      00
 13521 0036 4889D8   		movq	%rbx, %rax
 13522 0039 4889C7   		movq	%rax, %rdi
 13523              	.LEHB673:
 13524 003c E8000000 		call	_Unwind_Resume@PLT
 13524      00
 13525              	.LEHE673:
 13526              	.L932:
 13527 0041 4883C418 		addq	$24, %rsp
 13528 0045 5B       		popq	%rbx
 13529 0046 5D       		popq	%rbp
 13530              		.cfi_def_cfa 7, 8
 13531 0047 C3       		ret
 13532              		.cfi_endproc
 13533              	.LFE1256:
 13534              		.section	.gcc_except_table
 13535              	.LLSDA1256:
 13536 0ee6 FF       		.byte	0xff
 13537 0ee7 FF       		.byte	0xff
 13538 0ee8 01       		.byte	0x1
 13539 0ee9 08       		.uleb128 .LLSDACSE1256-.LLSDACSB1256
 13540              	.LLSDACSB1256:
 13541 0eea 14       		.uleb128 .LEHB672-.LFB1256
 13542 0eeb 05       		.uleb128 .LEHE672-.LEHB672
 13543 0eec 27       		.uleb128 .L931-.LFB1256
 13544 0eed 00       		.uleb128 0
 13545 0eee 3C       		.uleb128 .LEHB673-.LFB1256
 13546 0eef 05       		.uleb128 .LEHE673-.LEHB673
 13547 0ef0 00       		.uleb128 0
 13548 0ef1 00       		.uleb128 0
 13549              	.LLSDACSE1256:
 13550              		.section	.text._ZN18TestQueue_testInitD0Ev,"axG",@progbits,_ZN18TestQueue_testInitD5Ev,comdat
 13552              		.weak	_ZTVN8UnitTest15MemoryOutStreamE
 13553              		.section	.data.rel.ro.local._ZTVN8UnitTest15MemoryOutStreamE,"awG",@progbits,_ZTVN8UnitTest15Memor
 13554              		.align 8
 13557              	_ZTVN8UnitTest15MemoryOutStreamE:
 13558 0000 90000000 		.quad	144
 13558      00000000 
 13559 0008 00000000 		.quad	0
 13559      00000000 
 13560 0010 00000000 		.quad	_ZTIN8UnitTest15MemoryOutStreamE
 13560      00000000 
 13561 0018 00000000 		.quad	_ZN8UnitTest15MemoryOutStreamD1Ev
 13561      00000000 
 13562 0020 00000000 		.quad	_ZN8UnitTest15MemoryOutStreamD0Ev
 13562      00000000 
 13563 0028 70FFFFFF 		.quad	-144
 13563      FFFFFFFF 
 13564 0030 70FFFFFF 		.quad	-144
 13564      FFFFFFFF 
 13565 0038 00000000 		.quad	_ZTIN8UnitTest15MemoryOutStreamE
 13565      00000000 
 13566 0040 00000000 		.quad	_ZTv0_n24_N8UnitTest15MemoryOutStreamD1Ev
 13566      00000000 
 13567 0048 00000000 		.quad	_ZTv0_n24_N8UnitTest15MemoryOutStreamD0Ev
 13567      00000000 
 13568              		.weak	_ZTTN8UnitTest15MemoryOutStreamE
 13569              		.section	.data.rel.ro.local._ZTTN8UnitTest15MemoryOutStreamE,"awG",@progbits,_ZTVN8UnitTest15Memor
 13570              		.align 8
 13573              	_ZTTN8UnitTest15MemoryOutStreamE:
 13574 0000 00000000 		.quad	_ZTVN8UnitTest15MemoryOutStreamE+24
 13574      00000000 
 13575 0008 00000000 		.quad	_ZTCN8UnitTest15MemoryOutStreamE0_NSt7__cxx1119basic_ostringstreamIcSt11char_traitsIcESaIcEE
 13575      00000000 
 13576 0010 00000000 		.quad	_ZTCN8UnitTest15MemoryOutStreamE0_So+24
 13576      00000000 
 13577 0018 00000000 		.quad	_ZTCN8UnitTest15MemoryOutStreamE0_So+64
 13577      00000000 
 13578 0020 00000000 		.quad	_ZTCN8UnitTest15MemoryOutStreamE0_NSt7__cxx1119basic_ostringstreamIcSt11char_traitsIcESaIcEE
 13578      00000000 
 13579 0028 00000000 		.quad	_ZTVN8UnitTest15MemoryOutStreamE+64
 13579      00000000 
 13580              		.hidden	_ZTCN8UnitTest15MemoryOutStreamE0_NSt7__cxx1119basic_ostringstreamIcSt11char_traitsIcESaIc
 13581              		.weak	_ZTCN8UnitTest15MemoryOutStreamE0_NSt7__cxx1119basic_ostringstreamIcSt11char_traitsIcESaIcEE
 13582              		.section	.data.rel.ro._ZTCN8UnitTest15MemoryOutStreamE0_NSt7__cxx1119basic_ostringstreamIcSt11char
 13583              		.align 8
 13586              	_ZTCN8UnitTest15MemoryOutStreamE0_NSt7__cxx1119basic_ostringstreamIcSt11char_traitsIcESaIcEEE:
 13587 0000 90000000 		.quad	144
 13587      00000000 
 13588 0008 00000000 		.quad	0
 13588      00000000 
 13589 0010 00000000 		.quad	_ZTINSt7__cxx1119basic_ostringstreamIcSt11char_traitsIcESaIcEEE
 13589      00000000 
 13590 0018 00000000 		.quad	0
 13590      00000000 
 13591 0020 00000000 		.quad	0
 13591      00000000 
 13592 0028 70FFFFFF 		.quad	-144
 13592      FFFFFFFF 
 13593 0030 70FFFFFF 		.quad	-144
 13593      FFFFFFFF 
 13594 0038 00000000 		.quad	_ZTINSt7__cxx1119basic_ostringstreamIcSt11char_traitsIcESaIcEEE
 13594      00000000 
 13595 0040 00000000 		.quad	0
 13595      00000000 
 13596 0048 00000000 		.quad	0
 13596      00000000 
 13597              		.hidden	_ZTCN8UnitTest15MemoryOutStreamE0_So
 13598              		.weak	_ZTCN8UnitTest15MemoryOutStreamE0_So
 13599              		.section	.data.rel.ro._ZTCN8UnitTest15MemoryOutStreamE0_So,"awG",@progbits,_ZTVN8UnitTest15MemoryO
 13600              		.align 8
 13603              	_ZTCN8UnitTest15MemoryOutStreamE0_So:
 13604 0000 90000000 		.quad	144
 13604      00000000 
 13605 0008 00000000 		.quad	0
 13605      00000000 
 13606 0010 00000000 		.quad	_ZTISo
 13606      00000000 
 13607 0018 00000000 		.quad	0
 13607      00000000 
 13608 0020 00000000 		.quad	0
 13608      00000000 
 13609 0028 70FFFFFF 		.quad	-144
 13609      FFFFFFFF 
 13610 0030 70FFFFFF 		.quad	-144
 13610      FFFFFFFF 
 13611 0038 00000000 		.quad	_ZTISo
 13611      00000000 
 13612 0040 00000000 		.quad	0
 13612      00000000 
 13613 0048 00000000 		.quad	0
 13613      00000000 
 13614              		.weak	_ZTI31TestQueue_testAllocFreeMatching
 13615              		.section	.data.rel.ro._ZTI31TestQueue_testAllocFreeMatching,"awG",@progbits,_ZTI31TestQueue_testAl
 13616              		.align 8
 13619              	_ZTI31TestQueue_testAllocFreeMatching:
 13620 0000 00000000 		.quad	_ZTVN10__cxxabiv120__si_class_type_infoE+16
 13620      00000000 
 13621 0008 00000000 		.quad	_ZTS31TestQueue_testAllocFreeMatching
 13621      00000000 
 13622 0010 00000000 		.quad	_ZTIN8UnitTest4TestE
 13622      00000000 
 13623              		.weak	_ZTS31TestQueue_testAllocFreeMatching
 13624              		.section	.rodata._ZTS31TestQueue_testAllocFreeMatching,"aG",@progbits,_ZTS31TestQueue_testAllocFre
 13625              		.align 32
 13628              	_ZTS31TestQueue_testAllocFreeMatching:
 13629 0000 33315465 		.string	"31TestQueue_testAllocFreeMatching"
 13629      73745175 
 13629      6575655F 
 13629      74657374 
 13629      416C6C6F 
 13630              		.weak	_ZTI24TestQueue_testReallocOOM
 13631              		.section	.data.rel.ro._ZTI24TestQueue_testReallocOOM,"awG",@progbits,_ZTI24TestQueue_testReallocOO
 13632              		.align 8
 13635              	_ZTI24TestQueue_testReallocOOM:
 13636 0000 00000000 		.quad	_ZTVN10__cxxabiv120__si_class_type_infoE+16
 13636      00000000 
 13637 0008 00000000 		.quad	_ZTS24TestQueue_testReallocOOM
 13637      00000000 
 13638 0010 00000000 		.quad	_ZTIN8UnitTest4TestE
 13638      00000000 
 13639              		.weak	_ZTS24TestQueue_testReallocOOM
 13640              		.section	.rodata._ZTS24TestQueue_testReallocOOM,"aG",@progbits,_ZTS24TestQueue_testReallocOOM,comd
 13641              		.align 16
 13644              	_ZTS24TestQueue_testReallocOOM:
 13645 0000 32345465 		.string	"24TestQueue_testReallocOOM"
 13645      73745175 
 13645      6575655F 
 13645      74657374 
 13645      5265616C 
 13646              		.weak	_ZTI22TestQueue_testAllocOOM
 13647              		.section	.data.rel.ro._ZTI22TestQueue_testAllocOOM,"awG",@progbits,_ZTI22TestQueue_testAllocOOM,co
 13648              		.align 8
 13651              	_ZTI22TestQueue_testAllocOOM:
 13652 0000 00000000 		.quad	_ZTVN10__cxxabiv120__si_class_type_infoE+16
 13652      00000000 
 13653 0008 00000000 		.quad	_ZTS22TestQueue_testAllocOOM
 13653      00000000 
 13654 0010 00000000 		.quad	_ZTIN8UnitTest4TestE
 13654      00000000 
 13655              		.weak	_ZTS22TestQueue_testAllocOOM
 13656              		.section	.rodata._ZTS22TestQueue_testAllocOOM,"aG",@progbits,_ZTS22TestQueue_testAllocOOM,comdat
 13657              		.align 16
 13660              	_ZTS22TestQueue_testAllocOOM:
 13661 0000 32325465 		.string	"22TestQueue_testAllocOOM"
 13661      73745175 
 13661      6575655F 
 13661      74657374 
 13661      416C6C6F 
 13662              		.weak	_ZTI21TestQueue_testRealloc
 13663              		.section	.data.rel.ro._ZTI21TestQueue_testRealloc,"awG",@progbits,_ZTI21TestQueue_testRealloc,comd
 13664              		.align 8
 13667              	_ZTI21TestQueue_testRealloc:
 13668 0000 00000000 		.quad	_ZTVN10__cxxabiv120__si_class_type_infoE+16
 13668      00000000 
 13669 0008 00000000 		.quad	_ZTS21TestQueue_testRealloc
 13669      00000000 
 13670 0010 00000000 		.quad	_ZTIN8UnitTest4TestE
 13670      00000000 
 13671              		.weak	_ZTS21TestQueue_testRealloc
 13672              		.section	.rodata._ZTS21TestQueue_testRealloc,"aG",@progbits,_ZTS21TestQueue_testRealloc,comdat
 13673              		.align 16
 13676              	_ZTS21TestQueue_testRealloc:
 13677 0000 32315465 		.string	"21TestQueue_testRealloc"
 13677      73745175 
 13677      6575655F 
 13677      74657374 
 13677      5265616C 
 13678              		.weak	_ZTI21TestQueue_testPutTake
 13679              		.section	.data.rel.ro._ZTI21TestQueue_testPutTake,"awG",@progbits,_ZTI21TestQueue_testPutTake,comd
 13680              		.align 8
 13683              	_ZTI21TestQueue_testPutTake:
 13684 0000 00000000 		.quad	_ZTVN10__cxxabiv120__si_class_type_infoE+16
 13684      00000000 
 13685 0008 00000000 		.quad	_ZTS21TestQueue_testPutTake
 13685      00000000 
 13686 0010 00000000 		.quad	_ZTIN8UnitTest4TestE
 13686      00000000 
 13687              		.weak	_ZTS21TestQueue_testPutTake
 13688              		.section	.rodata._ZTS21TestQueue_testPutTake,"aG",@progbits,_ZTS21TestQueue_testPutTake,comdat
 13689              		.align 16
 13692              	_ZTS21TestQueue_testPutTake:
 13693 0000 32315465 		.string	"21TestQueue_testPutTake"
 13693      73745175 
 13693      6575655F 
 13693      74657374 
 13693      50757454 
 13694              		.weak	_ZTI21TestQueue_testPutWrap
 13695              		.section	.data.rel.ro._ZTI21TestQueue_testPutWrap,"awG",@progbits,_ZTI21TestQueue_testPutWrap,comd
 13696              		.align 8
 13699              	_ZTI21TestQueue_testPutWrap:
 13700 0000 00000000 		.quad	_ZTVN10__cxxabiv120__si_class_type_infoE+16
 13700      00000000 
 13701 0008 00000000 		.quad	_ZTS21TestQueue_testPutWrap
 13701      00000000 
 13702 0010 00000000 		.quad	_ZTIN8UnitTest4TestE
 13702      00000000 
 13703              		.weak	_ZTS21TestQueue_testPutWrap
 13704              		.section	.rodata._ZTS21TestQueue_testPutWrap,"aG",@progbits,_ZTS21TestQueue_testPutWrap,comdat
 13705              		.align 16
 13708              	_ZTS21TestQueue_testPutWrap:
 13709 0000 32315465 		.string	"21TestQueue_testPutWrap"
 13709      73745175 
 13709      6575655F 
 13709      74657374 
 13709      50757457 
 13710              		.weak	_ZTI23TestQueue_testPutNoWrap
 13711              		.section	.data.rel.ro._ZTI23TestQueue_testPutNoWrap,"awG",@progbits,_ZTI23TestQueue_testPutNoWrap,
 13712              		.align 8
 13715              	_ZTI23TestQueue_testPutNoWrap:
 13716 0000 00000000 		.quad	_ZTVN10__cxxabiv120__si_class_type_infoE+16
 13716      00000000 
 13717 0008 00000000 		.quad	_ZTS23TestQueue_testPutNoWrap
 13717      00000000 
 13718 0010 00000000 		.quad	_ZTIN8UnitTest4TestE
 13718      00000000 
 13719              		.weak	_ZTS23TestQueue_testPutNoWrap
 13720              		.section	.rodata._ZTS23TestQueue_testPutNoWrap,"aG",@progbits,_ZTS23TestQueue_testPutNoWrap,comdat
 13721              		.align 16
 13724              	_ZTS23TestQueue_testPutNoWrap:
 13725 0000 32335465 		.string	"23TestQueue_testPutNoWrap"
 13725      73745175 
 13725      6575655F 
 13725      74657374 
 13725      5075744E 
 13726              		.weak	_ZTI18TestQueue_testInit
 13727              		.section	.data.rel.ro._ZTI18TestQueue_testInit,"awG",@progbits,_ZTI18TestQueue_testInit,comdat
 13728              		.align 8
 13731              	_ZTI18TestQueue_testInit:
 13732 0000 00000000 		.quad	_ZTVN10__cxxabiv120__si_class_type_infoE+16
 13732      00000000 
 13733 0008 00000000 		.quad	_ZTS18TestQueue_testInit
 13733      00000000 
 13734 0010 00000000 		.quad	_ZTIN8UnitTest4TestE
 13734      00000000 
 13735              		.weak	_ZTS18TestQueue_testInit
 13736              		.section	.rodata._ZTS18TestQueue_testInit,"aG",@progbits,_ZTS18TestQueue_testInit,comdat
 13737              		.align 16
 13740              	_ZTS18TestQueue_testInit:
 13741 0000 31385465 		.string	"18TestQueue_testInit"
 13741      73745175 
 13741      6575655F 
 13741      74657374 
 13741      496E6974 
 13742              		.weak	_ZTIN8UnitTest15MemoryOutStreamE
 13743              		.section	.data.rel.ro._ZTIN8UnitTest15MemoryOutStreamE,"awG",@progbits,_ZTIN8UnitTest15MemoryOutSt
 13744              		.align 8
 13747              	_ZTIN8UnitTest15MemoryOutStreamE:
 13748 0000 00000000 		.quad	_ZTVN10__cxxabiv120__si_class_type_infoE+16
 13748      00000000 
 13749 0008 00000000 		.quad	_ZTSN8UnitTest15MemoryOutStreamE
 13749      00000000 
 13750 0010 00000000 		.quad	_ZTINSt7__cxx1119basic_ostringstreamIcSt11char_traitsIcESaIcEEE
 13750      00000000 
 13751              		.weak	_ZTSN8UnitTest15MemoryOutStreamE
 13752              		.section	.rodata._ZTSN8UnitTest15MemoryOutStreamE,"aG",@progbits,_ZTSN8UnitTest15MemoryOutStreamE,
 13753              		.align 16
 13756              	_ZTSN8UnitTest15MemoryOutStreamE:
 13757 0000 4E38556E 		.string	"N8UnitTest15MemoryOutStreamE"
 13757      69745465 
 13757      73743135 
 13757      4D656D6F 
 13757      72794F75 
 13758              		.text
 13760              	_Z41__static_initialization_and_destruction_0ii:
 13761              	.LFB1257:
 13762              		.loc 3 386 0 is_stmt 1
 13763              		.cfi_startproc
 13764 5774 55       		pushq	%rbp
 13765              		.cfi_def_cfa_offset 16
 13766              		.cfi_offset 6, -16
 13767 5775 4889E5   		movq	%rsp, %rbp
 13768              		.cfi_def_cfa_register 6
 13769 5778 4883EC10 		subq	$16, %rsp
 13770 577c 897DFC   		movl	%edi, -4(%rbp)
 13771 577f 8975F8   		movl	%esi, -8(%rbp)
 13772              		.loc 3 386 0
 13773 5782 837DFC01 		cmpl	$1, -4(%rbp)
 13774 5786 0F853E02 		jne	.L935
 13774      0000
 13775              		.loc 3 386 0 is_stmt 0 discriminator 1
 13776 578c 817DF8FF 		cmpl	$65535, -8(%rbp)
 13776      FF0000
 13777 5793 0F853102 		jne	.L935
 13777      0000
 13778              		.file 5 "/usr/include/c++/7/iostream"
   1:/usr/include/c++/7/iostream **** // Standard iostream objects -*- C++ -*-
   2:/usr/include/c++/7/iostream **** 
   3:/usr/include/c++/7/iostream **** // Copyright (C) 1997-2017 Free Software Foundation, Inc.
   4:/usr/include/c++/7/iostream **** //
   5:/usr/include/c++/7/iostream **** // This file is part of the GNU ISO C++ Library.  This library is free
   6:/usr/include/c++/7/iostream **** // software; you can redistribute it and/or modify it under the
   7:/usr/include/c++/7/iostream **** // terms of the GNU General Public License as published by the
   8:/usr/include/c++/7/iostream **** // Free Software Foundation; either version 3, or (at your option)
   9:/usr/include/c++/7/iostream **** // any later version.
  10:/usr/include/c++/7/iostream **** 
  11:/usr/include/c++/7/iostream **** // This library is distributed in the hope that it will be useful,
  12:/usr/include/c++/7/iostream **** // but WITHOUT ANY WARRANTY; without even the implied warranty of
  13:/usr/include/c++/7/iostream **** // MERCHANTABILITY or FITNESS FOR A PARTICULAR PURPOSE.  See the
  14:/usr/include/c++/7/iostream **** // GNU General Public License for more details.
  15:/usr/include/c++/7/iostream **** 
  16:/usr/include/c++/7/iostream **** // Under Section 7 of GPL version 3, you are granted additional
  17:/usr/include/c++/7/iostream **** // permissions described in the GCC Runtime Library Exception, version
  18:/usr/include/c++/7/iostream **** // 3.1, as published by the Free Software Foundation.
  19:/usr/include/c++/7/iostream **** 
  20:/usr/include/c++/7/iostream **** // You should have received a copy of the GNU General Public License and
  21:/usr/include/c++/7/iostream **** // a copy of the GCC Runtime Library Exception along with this program;
  22:/usr/include/c++/7/iostream **** // see the files COPYING3 and COPYING.RUNTIME respectively.  If not, see
  23:/usr/include/c++/7/iostream **** // <http://www.gnu.org/licenses/>.
  24:/usr/include/c++/7/iostream **** 
  25:/usr/include/c++/7/iostream **** /** @file include/iostream
  26:/usr/include/c++/7/iostream ****  *  This is a Standard C++ Library header.
  27:/usr/include/c++/7/iostream ****  */
  28:/usr/include/c++/7/iostream **** 
  29:/usr/include/c++/7/iostream **** //
  30:/usr/include/c++/7/iostream **** // ISO C++ 14882: 27.3  Standard iostream objects
  31:/usr/include/c++/7/iostream **** //
  32:/usr/include/c++/7/iostream **** 
  33:/usr/include/c++/7/iostream **** #ifndef _GLIBCXX_IOSTREAM
  34:/usr/include/c++/7/iostream **** #define _GLIBCXX_IOSTREAM 1
  35:/usr/include/c++/7/iostream **** 
  36:/usr/include/c++/7/iostream **** #pragma GCC system_header
  37:/usr/include/c++/7/iostream **** 
  38:/usr/include/c++/7/iostream **** #include <bits/c++config.h>
  39:/usr/include/c++/7/iostream **** #include <ostream>
  40:/usr/include/c++/7/iostream **** #include <istream>
  41:/usr/include/c++/7/iostream **** 
  42:/usr/include/c++/7/iostream **** namespace std _GLIBCXX_VISIBILITY(default)
  43:/usr/include/c++/7/iostream **** {
  44:/usr/include/c++/7/iostream **** _GLIBCXX_BEGIN_NAMESPACE_VERSION
  45:/usr/include/c++/7/iostream **** 
  46:/usr/include/c++/7/iostream ****   /**
  47:/usr/include/c++/7/iostream ****    *  @name Standard Stream Objects
  48:/usr/include/c++/7/iostream ****    *
  49:/usr/include/c++/7/iostream ****    *  The &lt;iostream&gt; header declares the eight <em>standard stream
  50:/usr/include/c++/7/iostream ****    *  objects</em>.  For other declarations, see
  51:/usr/include/c++/7/iostream ****    *  http://gcc.gnu.org/onlinedocs/libstdc++/manual/io.html
  52:/usr/include/c++/7/iostream ****    *  and the @link iosfwd I/O forward declarations @endlink
  53:/usr/include/c++/7/iostream ****    *
  54:/usr/include/c++/7/iostream ****    *  They are required by default to cooperate with the global C
  55:/usr/include/c++/7/iostream ****    *  library's @c FILE streams, and to be available during program
  56:/usr/include/c++/7/iostream ****    *  startup and termination. For more information, see the section of the
  57:/usr/include/c++/7/iostream ****    *  manual linked to above.
  58:/usr/include/c++/7/iostream ****   */
  59:/usr/include/c++/7/iostream ****   //@{
  60:/usr/include/c++/7/iostream ****   extern istream cin;		/// Linked to standard input
  61:/usr/include/c++/7/iostream ****   extern ostream cout;		/// Linked to standard output
  62:/usr/include/c++/7/iostream ****   extern ostream cerr;		/// Linked to standard error (unbuffered)
  63:/usr/include/c++/7/iostream ****   extern ostream clog;		/// Linked to standard error (buffered)
  64:/usr/include/c++/7/iostream **** 
  65:/usr/include/c++/7/iostream **** #ifdef _GLIBCXX_USE_WCHAR_T
  66:/usr/include/c++/7/iostream ****   extern wistream wcin;		/// Linked to standard input
  67:/usr/include/c++/7/iostream ****   extern wostream wcout;	/// Linked to standard output
  68:/usr/include/c++/7/iostream ****   extern wostream wcerr;	/// Linked to standard error (unbuffered)
  69:/usr/include/c++/7/iostream ****   extern wostream wclog;	/// Linked to standard error (buffered)
  70:/usr/include/c++/7/iostream **** #endif
  71:/usr/include/c++/7/iostream ****   //@}
  72:/usr/include/c++/7/iostream **** 
  73:/usr/include/c++/7/iostream ****   // For construction of filebuffers for cout, cin, cerr, clog et. al.
  74:/usr/include/c++/7/iostream ****   static ios_base::Init __ioinit;
 13779              		.loc 5 74 0 is_stmt 1
 13780 5799 488D3D00 		leaq	_ZStL8__ioinit(%rip), %rdi
 13780      000000
 13781 57a0 E8000000 		call	_ZNSt8ios_base4InitC1Ev@PLT
 13781      00
 13782 57a5 488D1500 		leaq	__dso_handle(%rip), %rdx
 13782      000000
 13783 57ac 488D3500 		leaq	_ZStL8__ioinit(%rip), %rsi
 13783      000000
 13784 57b3 488B0500 		movq	_ZNSt8ios_base4InitD1Ev@GOTPCREL(%rip), %rax
 13784      000000
 13785 57ba 4889C7   		movq	%rax, %rdi
 13786 57bd E8000000 		call	__cxa_atexit@PLT
 13786      00
  53:testCore.cpp  **** 	struct UnboundedQueue queue;
 13787              		.loc 3 53 0
 13788 57c2 488D3D00 		leaq	testQueue_testInitInstance(%rip), %rdi
 13788      000000
 13789 57c9 E8000000 		call	_ZN18TestQueue_testInitC1Ev
 13789      00
 13790 57ce 488D1500 		leaq	__dso_handle(%rip), %rdx
 13790      000000
 13791 57d5 488D3500 		leaq	testQueue_testInitInstance(%rip), %rsi
 13791      000000
 13792 57dc 488D3D00 		leaq	_ZN18TestQueue_testInitD1Ev(%rip), %rdi
 13792      000000
 13793 57e3 E8000000 		call	__cxa_atexit@PLT
 13793      00
 13794 57e8 E8000000 		call	_ZN8UnitTest4Test11GetTestListEv@PLT
 13794      00
 13795 57ed 488D1500 		leaq	testQueue_testInitInstance(%rip), %rdx
 13795      000000
 13796 57f4 4889C6   		movq	%rax, %rsi
 13797 57f7 488D3D00 		leaq	adderQueue_testInit(%rip), %rdi
 13797      000000
 13798 57fe E8000000 		call	_ZN8UnitTest9ListAdderC1ERNS_8TestListEPNS_4TestE@PLT
 13798      00
  77:testCore.cpp  **** 	struct UnboundedQueue queue;
 13799              		.loc 3 77 0
 13800 5803 488D3D00 		leaq	testQueue_testPutNoWrapInstance(%rip), %rdi
 13800      000000
 13801 580a E8000000 		call	_ZN23TestQueue_testPutNoWrapC1Ev
 13801      00
 13802 580f 488D1500 		leaq	__dso_handle(%rip), %rdx
 13802      000000
 13803 5816 488D3500 		leaq	testQueue_testPutNoWrapInstance(%rip), %rsi
 13803      000000
 13804 581d 488D3D00 		leaq	_ZN23TestQueue_testPutNoWrapD1Ev(%rip), %rdi
 13804      000000
 13805 5824 E8000000 		call	__cxa_atexit@PLT
 13805      00
 13806 5829 E8000000 		call	_ZN8UnitTest4Test11GetTestListEv@PLT
 13806      00
 13807 582e 488D1500 		leaq	testQueue_testPutNoWrapInstance(%rip), %rdx
 13807      000000
 13808 5835 4889C6   		movq	%rax, %rsi
 13809 5838 488D3D00 		leaq	adderQueue_testPutNoWrap(%rip), %rdi
 13809      000000
 13810 583f E8000000 		call	_ZN8UnitTest9ListAdderC1ERNS_8TestListEPNS_4TestE@PLT
 13810      00
 119:testCore.cpp  **** 	struct UnboundedQueue queue;
 13811              		.loc 3 119 0
 13812 5844 488D3D00 		leaq	testQueue_testPutWrapInstance(%rip), %rdi
 13812      000000
 13813 584b E8000000 		call	_ZN21TestQueue_testPutWrapC1Ev
 13813      00
 13814 5850 488D1500 		leaq	__dso_handle(%rip), %rdx
 13814      000000
 13815 5857 488D3500 		leaq	testQueue_testPutWrapInstance(%rip), %rsi
 13815      000000
 13816 585e 488D3D00 		leaq	_ZN21TestQueue_testPutWrapD1Ev(%rip), %rdi
 13816      000000
 13817 5865 E8000000 		call	__cxa_atexit@PLT
 13817      00
 13818 586a E8000000 		call	_ZN8UnitTest4Test11GetTestListEv@PLT
 13818      00
 13819 586f 488D1500 		leaq	testQueue_testPutWrapInstance(%rip), %rdx
 13819      000000
 13820 5876 4889C6   		movq	%rax, %rsi
 13821 5879 488D3D00 		leaq	adderQueue_testPutWrap(%rip), %rdi
 13821      000000
 13822 5880 E8000000 		call	_ZN8UnitTest9ListAdderC1ERNS_8TestListEPNS_4TestE@PLT
 13822      00
 166:testCore.cpp  **** 	struct UnboundedQueue queue;
 13823              		.loc 3 166 0
 13824 5885 488D3D00 		leaq	testQueue_testPutTakeInstance(%rip), %rdi
 13824      000000
 13825 588c E8000000 		call	_ZN21TestQueue_testPutTakeC1Ev
 13825      00
 13826 5891 488D1500 		leaq	__dso_handle(%rip), %rdx
 13826      000000
 13827 5898 488D3500 		leaq	testQueue_testPutTakeInstance(%rip), %rsi
 13827      000000
 13828 589f 488D3D00 		leaq	_ZN21TestQueue_testPutTakeD1Ev(%rip), %rdi
 13828      000000
 13829 58a6 E8000000 		call	__cxa_atexit@PLT
 13829      00
 13830 58ab E8000000 		call	_ZN8UnitTest4Test11GetTestListEv@PLT
 13830      00
 13831 58b0 488D1500 		leaq	testQueue_testPutTakeInstance(%rip), %rdx
 13831      000000
 13832 58b7 4889C6   		movq	%rax, %rsi
 13833 58ba 488D3D00 		leaq	adderQueue_testPutTake(%rip), %rdi
 13833      000000
 13834 58c1 E8000000 		call	_ZN8UnitTest9ListAdderC1ERNS_8TestListEPNS_4TestE@PLT
 13834      00
 324:testCore.cpp  **** 	testRealloc(0);
 13835              		.loc 3 324 0
 13836 58c6 488D3D00 		leaq	testQueue_testReallocInstance(%rip), %rdi
 13836      000000
 13837 58cd E8000000 		call	_ZN21TestQueue_testReallocC1Ev
 13837      00
 13838 58d2 488D1500 		leaq	__dso_handle(%rip), %rdx
 13838      000000
 13839 58d9 488D3500 		leaq	testQueue_testReallocInstance(%rip), %rsi
 13839      000000
 13840 58e0 488D3D00 		leaq	_ZN21TestQueue_testReallocD1Ev(%rip), %rdi
 13840      000000
 13841 58e7 E8000000 		call	__cxa_atexit@PLT
 13841      00
 13842 58ec E8000000 		call	_ZN8UnitTest4Test11GetTestListEv@PLT
 13842      00
 13843 58f1 488D1500 		leaq	testQueue_testReallocInstance(%rip), %rdx
 13843      000000
 13844 58f8 4889C6   		movq	%rax, %rsi
 13845 58fb 488D3D00 		leaq	adderQueue_testRealloc(%rip), %rdi
 13845      000000
 13846 5902 E8000000 		call	_ZN8UnitTest9ListAdderC1ERNS_8TestListEPNS_4TestE@PLT
 13846      00
 331:testCore.cpp  **** 	struct UnboundedQueue queue;
 13847              		.loc 3 331 0
 13848 5907 488D3D00 		leaq	testQueue_testAllocOOMInstance(%rip), %rdi
 13848      000000
 13849 590e E8000000 		call	_ZN22TestQueue_testAllocOOMC1Ev
 13849      00
 13850 5913 488D1500 		leaq	__dso_handle(%rip), %rdx
 13850      000000
 13851 591a 488D3500 		leaq	testQueue_testAllocOOMInstance(%rip), %rsi
 13851      000000
 13852 5921 488D3D00 		leaq	_ZN22TestQueue_testAllocOOMD1Ev(%rip), %rdi
 13852      000000
 13853 5928 E8000000 		call	__cxa_atexit@PLT
 13853      00
 13854 592d E8000000 		call	_ZN8UnitTest4Test11GetTestListEv@PLT
 13854      00
 13855 5932 488D1500 		leaq	testQueue_testAllocOOMInstance(%rip), %rdx
 13855      000000
 13856 5939 4889C6   		movq	%rax, %rsi
 13857 593c 488D3D00 		leaq	adderQueue_testAllocOOM(%rip), %rdi
 13857      000000
 13858 5943 E8000000 		call	_ZN8UnitTest9ListAdderC1ERNS_8TestListEPNS_4TestE@PLT
 13858      00
 342:testCore.cpp  **** 	struct UnboundedQueue queue;
 13859              		.loc 3 342 0
 13860 5948 488D3D00 		leaq	testQueue_testReallocOOMInstance(%rip), %rdi
 13860      000000
 13861 594f E8000000 		call	_ZN24TestQueue_testReallocOOMC1Ev
 13861      00
 13862 5954 488D1500 		leaq	__dso_handle(%rip), %rdx
 13862      000000
 13863 595b 488D3500 		leaq	testQueue_testReallocOOMInstance(%rip), %rsi
 13863      000000
 13864 5962 488D3D00 		leaq	_ZN24TestQueue_testReallocOOMD1Ev(%rip), %rdi
 13864      000000
 13865 5969 E8000000 		call	__cxa_atexit@PLT
 13865      00
 13866 596e E8000000 		call	_ZN8UnitTest4Test11GetTestListEv@PLT
 13866      00
 13867 5973 488D1500 		leaq	testQueue_testReallocOOMInstance(%rip), %rdx
 13867      000000
 13868 597a 4889C6   		movq	%rax, %rsi
 13869 597d 488D3D00 		leaq	adderQueue_testReallocOOM(%rip), %rdi
 13869      000000
 13870 5984 E8000000 		call	_ZN8UnitTest9ListAdderC1ERNS_8TestListEPNS_4TestE@PLT
 13870      00
 384:testCore.cpp  **** 	CHECK_EQUAL(0, m_allocFree);
 13871              		.loc 3 384 0
 13872 5989 488D3D00 		leaq	testQueue_testAllocFreeMatchingInstance(%rip), %rdi
 13872      000000
 13873 5990 E8000000 		call	_ZN31TestQueue_testAllocFreeMatchingC1Ev
 13873      00
 13874 5995 488D1500 		leaq	__dso_handle(%rip), %rdx
 13874      000000
 13875 599c 488D3500 		leaq	testQueue_testAllocFreeMatchingInstance(%rip), %rsi
 13875      000000
 13876 59a3 488D3D00 		leaq	_ZN31TestQueue_testAllocFreeMatchingD1Ev(%rip), %rdi
 13876      000000
 13877 59aa E8000000 		call	__cxa_atexit@PLT
 13877      00
 13878 59af E8000000 		call	_ZN8UnitTest4Test11GetTestListEv@PLT
 13878      00
 13879 59b4 488D1500 		leaq	testQueue_testAllocFreeMatchingInstance(%rip), %rdx
 13879      000000
 13880 59bb 4889C6   		movq	%rax, %rsi
 13881 59be 488D3D00 		leaq	adderQueue_testAllocFreeMatching(%rip), %rdi
 13881      000000
 13882 59c5 E8000000 		call	_ZN8UnitTest9ListAdderC1ERNS_8TestListEPNS_4TestE@PLT
 13882      00
 13883              	.L935:
 13884              		.loc 3 386 0
 13885 59ca 90       		nop
 13886 59cb C9       		leave
 13887              		.cfi_def_cfa 7, 8
 13888 59cc C3       		ret
 13889              		.cfi_endproc
 13890              	.LFE1257:
 13893              	_GLOBAL__sub_I_createInt:
 13894              	.LFB1258:
 13895              		.loc 3 386 0
 13896              		.cfi_startproc
 13897 59cd 55       		pushq	%rbp
 13898              		.cfi_def_cfa_offset 16
 13899              		.cfi_offset 6, -16
 13900 59ce 4889E5   		movq	%rsp, %rbp
 13901              		.cfi_def_cfa_register 6
 13902              		.loc 3 386 0
 13903 59d1 BEFFFF00 		movl	$65535, %esi
 13903      00
 13904 59d6 BF010000 		movl	$1, %edi
 13904      00
 13905 59db E894FDFF 		call	_Z41__static_initialization_and_destruction_0ii
 13905      FF
 13906 59e0 5D       		popq	%rbp
 13907              		.cfi_def_cfa 7, 8
 13908 59e1 C3       		ret
 13909              		.cfi_endproc
 13910              	.LFE1258:
 13912              		.section	.init_array,"aw"
 13913              		.align 8
 13914 0000 00000000 		.quad	_GLOBAL__sub_I_createInt
 13914      00000000 
 13915              		.text
 13916              	.Letext0:
 13917              		.file 6 "/usr/include/c++/7/bits/basic_string.h"
 13918              		.file 7 "/usr/include/c++/7/bits/basic_string.tcc"
 13919              		.file 8 "/usr/include/c++/7/bits/stringfwd.h"
 13920              		.file 9 "/usr/include/c++/7/cwchar"
 13921              		.file 10 "/usr/include/c++/7/bits/char_traits.h"
 13922              		.file 11 "/usr/include/x86_64-linux-gnu/c++/7/bits/c++config.h"
 13923              		.file 12 "/usr/include/c++/7/clocale"
 13924              		.file 13 "/usr/include/c++/7/bits/allocator.h"
 13925              		.file 14 "/usr/include/c++/7/bits/ios_base.h"
 13926              		.file 15 "/usr/include/c++/7/cwctype"
 13927              		.file 16 "/usr/include/c++/7/iosfwd"
 13928              		.file 17 "/usr/include/c++/7/new"
 13929              		.file 18 "/usr/include/c++/7/cstdlib"
 13930              		.file 19 "/usr/include/c++/7/debug/debug.h"
 13931              		.file 20 "/usr/include/c++/7/bits/predefined_ops.h"
 13932              		.file 21 "/usr/include/c++/7/ext/new_allocator.h"
 13933              		.file 22 "/usr/include/c++/7/ext/numeric_traits.h"
 13934              		.file 23 "/usr/include/c++/7/ext/alloc_traits.h"
 13935              		.file 24 "/usr/lib/gcc/x86_64-linux-gnu/7/include/stddef.h"
 13936              		.file 25 "<built-in>"
 13937              		.file 26 "/usr/include/x86_64-linux-gnu/bits/types/wint_t.h"
 13938              		.file 27 "/usr/include/x86_64-linux-gnu/bits/types/__mbstate_t.h"
 13939              		.file 28 "/usr/include/x86_64-linux-gnu/bits/types/mbstate_t.h"
 13940              		.file 29 "/usr/include/x86_64-linux-gnu/bits/types/__FILE.h"
 13941              		.file 30 "/usr/include/libio.h"
 13942              		.file 31 "/usr/include/wchar.h"
 13943              		.file 32 "/usr/include/x86_64-linux-gnu/bits/types/struct_tm.h"
 13944              		.file 33 "/usr/include/locale.h"
 13945              		.file 34 "/usr/include/x86_64-linux-gnu/bits/types.h"
 13946              		.file 35 "/usr/include/time.h"
 13947              		.file 36 "/usr/include/x86_64-linux-gnu/c++/7/bits/atomic_word.h"
 13948              		.file 37 "/usr/include/x86_64-linux-gnu/bits/wctype-wchar.h"
 13949              		.file 38 "/usr/include/wctype.h"
 13950              		.file 39 "/usr/include/stdlib.h"
 13951              		.file 40 "/usr/include/errno.h"
 13952              		.file 41 "/home/gani/eval/20140524/makestuff/libs/libutpp/TestDetails.h"
 13953              		.file 42 "/home/gani/eval/20140524/makestuff/libs/libutpp/TestList.h"
 13954              		.file 43 "/home/gani/eval/20140524/makestuff/libs/libutpp/TestResults.h"
 13955              		.file 44 "/usr/include/signal.h"
 13956              		.file 45 "/usr/include/x86_64-linux-gnu/sys/time.h"
 13957              		.file 46 "/home/gani/eval/20140524/makestuff/common/makestuff.h"
 13958              		.file 47 "/usr/include/stdio.h"
 13959              		.file 48 "/usr/include/x86_64-linux-gnu/bits/sys_errlist.h"
 13960              		.file 49 "../libusbwrap.h"
 13961              		.file 50 "../unbounded_queue.h"
 27217              		.align 8
 27220              	DW.ref.__gxx_personality_v0:
 27221 0000 00000000 		.quad	__gxx_personality_v0
 27221      00000000 
 27222              		.hidden	__dso_handle
 27223              		.ident	"GCC: (Ubuntu 7.2.0-8ubuntu3.2) 7.2.0"
 27224              		.section	.note.GNU-stack,"",@progbits
DEFINED SYMBOLS
                            *ABS*:0000000000000000 testCore.cpp
                             .bss:00000000000001f9 _ZStL8__ioinit
     /tmp/ccQtMMrP.s:12     .text._ZN13UnitTestSuite12GetSuiteNameEv:0000000000000000 _ZN13UnitTestSuite12GetSuiteNameEv
     /tmp/ccQtMMrP.s:35     .text._ZN8UnitTest15MemoryOutStreamC1Ev:0000000000000000 _ZN8UnitTest15MemoryOutStreamC1Ev
     /tmp/ccQtMMrP.s:27220  .data.DW.ref.__gxx_personality_v0:0000000000000000 DW.ref.__gxx_personality_v0
     /tmp/ccQtMMrP.s:13573  .data.rel.ro.local._ZTTN8UnitTest15MemoryOutStreamE:0000000000000000 _ZTTN8UnitTest15MemoryOutStreamE
     /tmp/ccQtMMrP.s:13557  .data.rel.ro.local._ZTVN8UnitTest15MemoryOutStreamE:0000000000000000 _ZTVN8UnitTest15MemoryOutStreamE
     /tmp/ccQtMMrP.s:147    .data:0000000000000000 _ZL7m_count
     /tmp/ccQtMMrP.s:150    .bss:00000000000001fc _ZL11m_allocFree
     /tmp/ccQtMMrP.s:154    .text:0000000000000000 createInt
     /tmp/ccQtMMrP.s:203    .text:0000000000000059 destroyInt
     /tmp/ccQtMMrP.s:235    .text:000000000000008a _ZL5derefPKv
     /tmp/ccQtMMrP.s:264    .text._ZN18TestQueue_testInitC2Ev:0000000000000000 _ZN18TestQueue_testInitC2Ev
     /tmp/ccQtMMrP.s:13446  .data.rel.ro.local._ZTV18TestQueue_testInit:0000000000000000 _ZTV18TestQueue_testInit
     /tmp/ccQtMMrP.s:264    .text._ZN18TestQueue_testInitC2Ev:0000000000000000 _ZN18TestQueue_testInitC1Ev
     /tmp/ccQtMMrP.s:307    .bss:0000000000000000 testQueue_testInitInstance
     /tmp/ccQtMMrP.s:312    .bss:0000000000000038 adderQueue_testInit
     /tmp/ccQtMMrP.s:346    .text:000000000000009a _ZNK18TestQueue_testInit7RunImplEv
     /tmp/ccQtMMrP.s:12105  .text._ZN8UnitTest10CheckEqualI9USBStatusS1_EEvRNS_11TestResultsERKT_RKT0_RKNS_11TestDetailsE:0000000000000000 _ZN8UnitTest10CheckEqualI9USBStatusS1_EEvRNS_11TestResultsERKT_RKT0_RKNS_11TestDetailsE
     /tmp/ccQtMMrP.s:12246  .text._ZN8UnitTest10CheckEqualImmEEvRNS_11TestResultsERKT_RKT0_RKNS_11TestDetailsE:0000000000000000 _ZN8UnitTest10CheckEqualImmEEvRNS_11TestResultsERKT_RKT0_RKNS_11TestDetailsE
     /tmp/ccQtMMrP.s:12386  .text._ZN8UnitTest10CheckEqualImjEEvRNS_11TestResultsERKT_RKT0_RKNS_11TestDetailsE:0000000000000000 _ZN8UnitTest10CheckEqualImjEEvRNS_11TestResultsERKT_RKT0_RKNS_11TestDetailsE
     /tmp/ccQtMMrP.s:1200   .text._ZN23TestQueue_testPutNoWrapC2Ev:0000000000000000 _ZN23TestQueue_testPutNoWrapC2Ev
     /tmp/ccQtMMrP.s:13335  .data.rel.ro.local._ZTV23TestQueue_testPutNoWrap:0000000000000000 _ZTV23TestQueue_testPutNoWrap
     /tmp/ccQtMMrP.s:1200   .text._ZN23TestQueue_testPutNoWrapC2Ev:0000000000000000 _ZN23TestQueue_testPutNoWrapC1Ev
     /tmp/ccQtMMrP.s:1243   .bss:0000000000000040 testQueue_testPutNoWrapInstance
     /tmp/ccQtMMrP.s:1248   .bss:0000000000000078 adderQueue_testPutNoWrap
     /tmp/ccQtMMrP.s:1279   .text:0000000000000740 _ZNK23TestQueue_testPutNoWrap7RunImplEv
     /tmp/ccQtMMrP.s:2691   .text._ZN21TestQueue_testPutWrapC2Ev:0000000000000000 _ZN21TestQueue_testPutWrapC2Ev
     /tmp/ccQtMMrP.s:13224  .data.rel.ro.local._ZTV21TestQueue_testPutWrap:0000000000000000 _ZTV21TestQueue_testPutWrap
     /tmp/ccQtMMrP.s:2691   .text._ZN21TestQueue_testPutWrapC2Ev:0000000000000000 _ZN21TestQueue_testPutWrapC1Ev
     /tmp/ccQtMMrP.s:2734   .bss:0000000000000080 testQueue_testPutWrapInstance
     /tmp/ccQtMMrP.s:2739   .bss:00000000000000b8 adderQueue_testPutWrap
     /tmp/ccQtMMrP.s:2755   .text:0000000000001270 _ZNK21TestQueue_testPutWrap7RunImplEv
     /tmp/ccQtMMrP.s:4351   .text._ZN21TestQueue_testPutTakeC2Ev:0000000000000000 _ZN21TestQueue_testPutTakeC2Ev
     /tmp/ccQtMMrP.s:13113  .data.rel.ro.local._ZTV21TestQueue_testPutTake:0000000000000000 _ZTV21TestQueue_testPutTake
     /tmp/ccQtMMrP.s:4351   .text._ZN21TestQueue_testPutTakeC2Ev:0000000000000000 _ZN21TestQueue_testPutTakeC1Ev
     /tmp/ccQtMMrP.s:4394   .bss:00000000000000c0 testQueue_testPutTakeInstance
     /tmp/ccQtMMrP.s:4399   .bss:00000000000000f8 adderQueue_testPutTake
     /tmp/ccQtMMrP.s:4418   .text:0000000000001f18 _ZNK21TestQueue_testPutTake7RunImplEv
     /tmp/ccQtMMrP.s:6804   .text:000000000000317c _Z11testReallocm
     /tmp/ccQtMMrP.s:10274  .text._ZN21TestQueue_testReallocC2Ev:0000000000000000 _ZN21TestQueue_testReallocC2Ev
     /tmp/ccQtMMrP.s:13002  .data.rel.ro.local._ZTV21TestQueue_testRealloc:0000000000000000 _ZTV21TestQueue_testRealloc
     /tmp/ccQtMMrP.s:10274  .text._ZN21TestQueue_testReallocC2Ev:0000000000000000 _ZN21TestQueue_testReallocC1Ev
     /tmp/ccQtMMrP.s:10317  .bss:0000000000000100 testQueue_testReallocInstance
     /tmp/ccQtMMrP.s:10322  .bss:0000000000000138 adderQueue_testRealloc
     /tmp/ccQtMMrP.s:10328  .text:0000000000004d60 _ZNK21TestQueue_testRealloc7RunImplEv
     /tmp/ccQtMMrP.s:10366  .text._ZN22TestQueue_testAllocOOMC2Ev:0000000000000000 _ZN22TestQueue_testAllocOOMC2Ev
     /tmp/ccQtMMrP.s:12891  .data.rel.ro.local._ZTV22TestQueue_testAllocOOM:0000000000000000 _ZTV22TestQueue_testAllocOOM
     /tmp/ccQtMMrP.s:10366  .text._ZN22TestQueue_testAllocOOMC2Ev:0000000000000000 _ZN22TestQueue_testAllocOOMC1Ev
     /tmp/ccQtMMrP.s:10409  .bss:0000000000000140 testQueue_testAllocOOMInstance
     /tmp/ccQtMMrP.s:10414  .bss:0000000000000178 adderQueue_testAllocOOM
     /tmp/ccQtMMrP.s:10424  .text:0000000000004d98 _ZNK22TestQueue_testAllocOOM7RunImplEv
     /tmp/ccQtMMrP.s:10595  .text._ZN24TestQueue_testReallocOOMC2Ev:0000000000000000 _ZN24TestQueue_testReallocOOMC2Ev
     /tmp/ccQtMMrP.s:12780  .data.rel.ro.local._ZTV24TestQueue_testReallocOOM:0000000000000000 _ZTV24TestQueue_testReallocOOM
     /tmp/ccQtMMrP.s:10595  .text._ZN24TestQueue_testReallocOOMC2Ev:0000000000000000 _ZN24TestQueue_testReallocOOMC1Ev
     /tmp/ccQtMMrP.s:10638  .bss:0000000000000180 testQueue_testReallocOOMInstance
     /tmp/ccQtMMrP.s:10643  .bss:00000000000001b8 adderQueue_testReallocOOM
     /tmp/ccQtMMrP.s:10649  .text:0000000000004eb0 _ZNK24TestQueue_testReallocOOM7RunImplEv
     /tmp/ccQtMMrP.s:11698  .text._ZN31TestQueue_testAllocFreeMatchingC2Ev:0000000000000000 _ZN31TestQueue_testAllocFreeMatchingC2Ev
     /tmp/ccQtMMrP.s:12669  .data.rel.ro.local._ZTV31TestQueue_testAllocFreeMatching:0000000000000000 _ZTV31TestQueue_testAllocFreeMatching
     /tmp/ccQtMMrP.s:11698  .text._ZN31TestQueue_testAllocFreeMatchingC2Ev:0000000000000000 _ZN31TestQueue_testAllocFreeMatchingC1Ev
     /tmp/ccQtMMrP.s:11741  .bss:00000000000001c0 testQueue_testAllocFreeMatchingInstance
     /tmp/ccQtMMrP.s:11746  .bss:00000000000001f8 adderQueue_testAllocFreeMatching
     /tmp/ccQtMMrP.s:11756  .text:0000000000005698 _ZNK31TestQueue_testAllocFreeMatching7RunImplEv
     /tmp/ccQtMMrP.s:12527  .text._ZN8UnitTest10CheckEqualIiiEEvRNS_11TestResultsERKT_RKT0_RKNS_11TestDetailsE:0000000000000000 _ZN8UnitTest10CheckEqualIiiEEvRNS_11TestResultsERKT_RKT0_RKNS_11TestDetailsE
     /tmp/ccQtMMrP.s:11898  .text._ZN8UnitTest15MemoryOutStreamD1Ev:0000000000000000 _ZN8UnitTest15MemoryOutStreamD1Ev
     /tmp/ccQtMMrP.s:12007  .text._ZN8UnitTest15MemoryOutStreamD1Ev:00000000000000ac _ZTv0_n24_N8UnitTest15MemoryOutStreamD1Ev
     /tmp/ccQtMMrP.s:12021  .text._ZN8UnitTest15MemoryOutStreamD0Ev:0000000000000000 _ZN8UnitTest15MemoryOutStreamD0Ev
     /tmp/ccQtMMrP.s:12087  .text._ZN8UnitTest15MemoryOutStreamD0Ev:0000000000000048 _ZTv0_n24_N8UnitTest15MemoryOutStreamD0Ev
     /tmp/ccQtMMrP.s:13619  .data.rel.ro._ZTI31TestQueue_testAllocFreeMatching:0000000000000000 _ZTI31TestQueue_testAllocFreeMatching
     /tmp/ccQtMMrP.s:12679  .text._ZN31TestQueue_testAllocFreeMatchingD2Ev:0000000000000000 _ZN31TestQueue_testAllocFreeMatchingD1Ev
     /tmp/ccQtMMrP.s:12712  .text._ZN31TestQueue_testAllocFreeMatchingD0Ev:0000000000000000 _ZN31TestQueue_testAllocFreeMatchingD0Ev
     /tmp/ccQtMMrP.s:12679  .text._ZN31TestQueue_testAllocFreeMatchingD2Ev:0000000000000000 _ZN31TestQueue_testAllocFreeMatchingD2Ev
     /tmp/ccQtMMrP.s:13635  .data.rel.ro._ZTI24TestQueue_testReallocOOM:0000000000000000 _ZTI24TestQueue_testReallocOOM
     /tmp/ccQtMMrP.s:12790  .text._ZN24TestQueue_testReallocOOMD2Ev:0000000000000000 _ZN24TestQueue_testReallocOOMD1Ev
     /tmp/ccQtMMrP.s:12823  .text._ZN24TestQueue_testReallocOOMD0Ev:0000000000000000 _ZN24TestQueue_testReallocOOMD0Ev
     /tmp/ccQtMMrP.s:12790  .text._ZN24TestQueue_testReallocOOMD2Ev:0000000000000000 _ZN24TestQueue_testReallocOOMD2Ev
     /tmp/ccQtMMrP.s:13651  .data.rel.ro._ZTI22TestQueue_testAllocOOM:0000000000000000 _ZTI22TestQueue_testAllocOOM
     /tmp/ccQtMMrP.s:12901  .text._ZN22TestQueue_testAllocOOMD2Ev:0000000000000000 _ZN22TestQueue_testAllocOOMD1Ev
     /tmp/ccQtMMrP.s:12934  .text._ZN22TestQueue_testAllocOOMD0Ev:0000000000000000 _ZN22TestQueue_testAllocOOMD0Ev
     /tmp/ccQtMMrP.s:12901  .text._ZN22TestQueue_testAllocOOMD2Ev:0000000000000000 _ZN22TestQueue_testAllocOOMD2Ev
     /tmp/ccQtMMrP.s:13667  .data.rel.ro._ZTI21TestQueue_testRealloc:0000000000000000 _ZTI21TestQueue_testRealloc
     /tmp/ccQtMMrP.s:13012  .text._ZN21TestQueue_testReallocD2Ev:0000000000000000 _ZN21TestQueue_testReallocD1Ev
     /tmp/ccQtMMrP.s:13045  .text._ZN21TestQueue_testReallocD0Ev:0000000000000000 _ZN21TestQueue_testReallocD0Ev
     /tmp/ccQtMMrP.s:13012  .text._ZN21TestQueue_testReallocD2Ev:0000000000000000 _ZN21TestQueue_testReallocD2Ev
     /tmp/ccQtMMrP.s:13683  .data.rel.ro._ZTI21TestQueue_testPutTake:0000000000000000 _ZTI21TestQueue_testPutTake
     /tmp/ccQtMMrP.s:13123  .text._ZN21TestQueue_testPutTakeD2Ev:0000000000000000 _ZN21TestQueue_testPutTakeD1Ev
     /tmp/ccQtMMrP.s:13156  .text._ZN21TestQueue_testPutTakeD0Ev:0000000000000000 _ZN21TestQueue_testPutTakeD0Ev
     /tmp/ccQtMMrP.s:13123  .text._ZN21TestQueue_testPutTakeD2Ev:0000000000000000 _ZN21TestQueue_testPutTakeD2Ev
     /tmp/ccQtMMrP.s:13699  .data.rel.ro._ZTI21TestQueue_testPutWrap:0000000000000000 _ZTI21TestQueue_testPutWrap
     /tmp/ccQtMMrP.s:13234  .text._ZN21TestQueue_testPutWrapD2Ev:0000000000000000 _ZN21TestQueue_testPutWrapD1Ev
     /tmp/ccQtMMrP.s:13267  .text._ZN21TestQueue_testPutWrapD0Ev:0000000000000000 _ZN21TestQueue_testPutWrapD0Ev
     /tmp/ccQtMMrP.s:13234  .text._ZN21TestQueue_testPutWrapD2Ev:0000000000000000 _ZN21TestQueue_testPutWrapD2Ev
     /tmp/ccQtMMrP.s:13715  .data.rel.ro._ZTI23TestQueue_testPutNoWrap:0000000000000000 _ZTI23TestQueue_testPutNoWrap
     /tmp/ccQtMMrP.s:13345  .text._ZN23TestQueue_testPutNoWrapD2Ev:0000000000000000 _ZN23TestQueue_testPutNoWrapD1Ev
     /tmp/ccQtMMrP.s:13378  .text._ZN23TestQueue_testPutNoWrapD0Ev:0000000000000000 _ZN23TestQueue_testPutNoWrapD0Ev
     /tmp/ccQtMMrP.s:13345  .text._ZN23TestQueue_testPutNoWrapD2Ev:0000000000000000 _ZN23TestQueue_testPutNoWrapD2Ev
     /tmp/ccQtMMrP.s:13731  .data.rel.ro._ZTI18TestQueue_testInit:0000000000000000 _ZTI18TestQueue_testInit
     /tmp/ccQtMMrP.s:13456  .text._ZN18TestQueue_testInitD2Ev:0000000000000000 _ZN18TestQueue_testInitD1Ev
     /tmp/ccQtMMrP.s:13489  .text._ZN18TestQueue_testInitD0Ev:0000000000000000 _ZN18TestQueue_testInitD0Ev
     /tmp/ccQtMMrP.s:13456  .text._ZN18TestQueue_testInitD2Ev:0000000000000000 _ZN18TestQueue_testInitD2Ev
     /tmp/ccQtMMrP.s:13747  .data.rel.ro._ZTIN8UnitTest15MemoryOutStreamE:0000000000000000 _ZTIN8UnitTest15MemoryOutStreamE
     /tmp/ccQtMMrP.s:13586  .data.rel.ro._ZTCN8UnitTest15MemoryOutStreamE0_NSt7__cxx1119basic_ostringstreamIcSt11char_traitsIcESaIcEEE:0000000000000000 _ZTCN8UnitTest15MemoryOutStreamE0_NSt7__cxx1119basic_ostringstreamIcSt11char_traitsIcESaIcEEE
     /tmp/ccQtMMrP.s:13603  .data.rel.ro._ZTCN8UnitTest15MemoryOutStreamE0_So:0000000000000000 _ZTCN8UnitTest15MemoryOutStreamE0_So
     /tmp/ccQtMMrP.s:13628  .rodata._ZTS31TestQueue_testAllocFreeMatching:0000000000000000 _ZTS31TestQueue_testAllocFreeMatching
     /tmp/ccQtMMrP.s:13644  .rodata._ZTS24TestQueue_testReallocOOM:0000000000000000 _ZTS24TestQueue_testReallocOOM
     /tmp/ccQtMMrP.s:13660  .rodata._ZTS22TestQueue_testAllocOOM:0000000000000000 _ZTS22TestQueue_testAllocOOM
     /tmp/ccQtMMrP.s:13676  .rodata._ZTS21TestQueue_testRealloc:0000000000000000 _ZTS21TestQueue_testRealloc
     /tmp/ccQtMMrP.s:13692  .rodata._ZTS21TestQueue_testPutTake:0000000000000000 _ZTS21TestQueue_testPutTake
     /tmp/ccQtMMrP.s:13708  .rodata._ZTS21TestQueue_testPutWrap:0000000000000000 _ZTS21TestQueue_testPutWrap
     /tmp/ccQtMMrP.s:13724  .rodata._ZTS23TestQueue_testPutNoWrap:0000000000000000 _ZTS23TestQueue_testPutNoWrap
     /tmp/ccQtMMrP.s:13740  .rodata._ZTS18TestQueue_testInit:0000000000000000 _ZTS18TestQueue_testInit
     /tmp/ccQtMMrP.s:13756  .rodata._ZTSN8UnitTest15MemoryOutStreamE:0000000000000000 _ZTSN8UnitTest15MemoryOutStreamE
     /tmp/ccQtMMrP.s:13760  .text:0000000000005774 _Z41__static_initialization_and_destruction_0ii
     /tmp/ccQtMMrP.s:13893  .text:00000000000059cd _GLOBAL__sub_I_createInt
                           .group:0000000000000000 _ZN18TestQueue_testInitC5Ev
                           .group:0000000000000000 _ZN23TestQueue_testPutNoWrapC5Ev
                           .group:0000000000000000 _ZN21TestQueue_testPutWrapC5Ev
                           .group:0000000000000000 _ZN21TestQueue_testPutTakeC5Ev
                           .group:0000000000000000 _ZN21TestQueue_testReallocC5Ev
                           .group:0000000000000000 _ZN22TestQueue_testAllocOOMC5Ev
                           .group:0000000000000000 _ZN24TestQueue_testReallocOOMC5Ev
                           .group:0000000000000000 _ZN31TestQueue_testAllocFreeMatchingC5Ev
                           .group:0000000000000000 _ZN31TestQueue_testAllocFreeMatchingD5Ev
                           .group:0000000000000000 _ZN24TestQueue_testReallocOOMD5Ev
                           .group:0000000000000000 _ZN22TestQueue_testAllocOOMD5Ev
                           .group:0000000000000000 _ZN21TestQueue_testReallocD5Ev
                           .group:0000000000000000 _ZN21TestQueue_testPutTakeD5Ev
                           .group:0000000000000000 _ZN21TestQueue_testPutWrapD5Ev
                           .group:0000000000000000 _ZN23TestQueue_testPutNoWrapD5Ev
                           .group:0000000000000000 _ZN18TestQueue_testInitD5Ev

UNDEFINED SYMBOLS
_GLOBAL_OFFSET_TABLE_
_ZNSt9basic_iosIcSt11char_traitsIcEEC2Ev
_ZNSt7__cxx1119basic_ostringstreamIcSt11char_traitsIcESaIcEEC2ESt13_Ios_Openmode
_ZNSt7__cxx1112basic_stringIcSt11char_traitsIcESaIcEEC1Ev
_ZNSt7__cxx1119basic_ostringstreamIcSt11char_traitsIcESaIcEED2Ev
_ZNSt9basic_iosIcSt11char_traitsIcEED2Ev
_Unwind_Resume
__gxx_personality_v0
malloc
free
_ZN8UnitTest4TestC2EPKcS2_S2_i
queueInit
_ZN8UnitTest11CurrentTest7DetailsEv
_ZN8UnitTest11TestDetailsC1ERKS0_i
_ZN8UnitTest11CurrentTest7ResultsEv
queueDestroy
__cxa_begin_catch
_ZN8UnitTest11TestResults13OnTestFailureERKNS_11TestDetailsEPKc
__cxa_end_catch
__stack_chk_fail
queuePut
queueCommitPut
queueTake
queueCommitTake
_ZNSt7__cxx1112basic_stringIcSt11char_traitsIcESaIcEED1Ev
_ZdlPv
_ZStlsISt11char_traitsIcEERSt13basic_ostreamIcT_ES5_PKc
_ZNSolsEi
_ZNK8UnitTest15MemoryOutStream7GetTextEv
_ZNSolsEm
_ZNSolsEj
_ZN8UnitTest4TestD2Ev
_ZTINSt7__cxx1119basic_ostringstreamIcSt11char_traitsIcESaIcEEE
_ZTISo
_ZTVN10__cxxabiv120__si_class_type_infoE
_ZTIN8UnitTest4TestE
_ZNSt8ios_base4InitC1Ev
__dso_handle
_ZNSt8ios_base4InitD1Ev
__cxa_atexit
_ZN8UnitTest4Test11GetTestListEv
_ZN8UnitTest9ListAdderC1ERNS_8TestListEPNS_4TestE
