   1              		.file	"DeferredTestReporter.cpp"
   2              		.text
   3              		.align 2
   4              		.p2align 4,,15
   5              		.globl	_ZN8UnitTest20DeferredTestReporter16ReportTestFinishERKNS_11TestDetailsEf
   7              	_ZN8UnitTest20DeferredTestReporter16ReportTestFinishERKNS_11TestDetailsEf:
   8              	.LFB925:
   9              		.cfi_startproc
  10 0000 488B4710 		movq	16(%rdi), %rax
  11 0004 F30F1140 		movss	%xmm0, -8(%rax)
  11      F8
  12 0009 C3       		ret
  13              		.cfi_endproc
  14              	.LFE925:
  16              		.section	.text._ZN8UnitTest18DeferredTestResultD2Ev,"axG",@progbits,_ZN8UnitTest18DeferredTestResu
  17              		.align 2
  18              		.p2align 4,,15
  19              		.weak	_ZN8UnitTest18DeferredTestResultD2Ev
  21              	_ZN8UnitTest18DeferredTestResultD2Ev:
  22              	.LFB919:
  23              		.cfi_startproc
  24 0000 4154     		pushq	%r12
  25              		.cfi_def_cfa_offset 16
  26              		.cfi_offset 12, -16
  27 0002 55       		pushq	%rbp
  28              		.cfi_def_cfa_offset 24
  29              		.cfi_offset 6, -24
  30 0003 4889FD   		movq	%rdi, %rbp
  31 0006 53       		pushq	%rbx
  32              		.cfi_def_cfa_offset 32
  33              		.cfi_offset 3, -32
  34 0007 488B5768 		movq	104(%rdi), %rdx
  35 000b 488B4760 		movq	96(%rdi), %rax
  36 000f 4839C2   		cmpq	%rax, %rdx
  37 0012 7446     		je	.L4
  38 0014 488D5828 		leaq	40(%rax), %rbx
  39 0018 4829DA   		subq	%rbx, %rdx
  40 001b 48C1EA03 		shrq	$3, %rdx
  41 001f 4C8D64D0 		leaq	40(%rax,%rdx,8), %r12
  41      28
  42 0024 EB1B     		jmp	.L5
  43 0026 662E0F1F 		.p2align 4,,10
  43      84000000 
  43      0000
  44              		.p2align 3
  45              	.L17:
  46 0030 E8000000 		call	_ZdlPv@PLT
  46      00
  47 0035 4939DC   		cmpq	%rbx, %r12
  48 0038 4889D8   		movq	%rbx, %rax
  49 003b 7419     		je	.L7
  50              	.L8:
  51 003d 4883C328 		addq	$40, %rbx
  52              	.L5:
  53 0041 488B7808 		movq	8(%rax), %rdi
  54 0045 4883C018 		addq	$24, %rax
  55 0049 4839C7   		cmpq	%rax, %rdi
  56 004c 75E2     		jne	.L17
  57 004e 4C39E3   		cmpq	%r12, %rbx
  58 0051 4889D8   		movq	%rbx, %rax
  59 0054 75E7     		jne	.L8
  60              	.L7:
  61 0056 488B4560 		movq	96(%rbp), %rax
  62              	.L4:
  63 005a 4885C0   		testq	%rax, %rax
  64 005d 7408     		je	.L9
  65 005f 4889C7   		movq	%rax, %rdi
  66 0062 E8000000 		call	_ZdlPv@PLT
  66      00
  67              	.L9:
  68 0067 488B7D40 		movq	64(%rbp), %rdi
  69 006b 488D4550 		leaq	80(%rbp), %rax
  70 006f 4839C7   		cmpq	%rax, %rdi
  71 0072 7405     		je	.L10
  72 0074 E8000000 		call	_ZdlPv@PLT
  72      00
  73              	.L10:
  74 0079 488B7D20 		movq	32(%rbp), %rdi
  75 007d 488D4530 		leaq	48(%rbp), %rax
  76 0081 4839C7   		cmpq	%rax, %rdi
  77 0084 7405     		je	.L11
  78 0086 E8000000 		call	_ZdlPv@PLT
  78      00
  79              	.L11:
  80 008b 488B7D00 		movq	0(%rbp), %rdi
  81 008f 4883C510 		addq	$16, %rbp
  82 0093 4839EF   		cmpq	%rbp, %rdi
  83 0096 7410     		je	.L3
  84 0098 5B       		popq	%rbx
  85              		.cfi_remember_state
  86              		.cfi_def_cfa_offset 24
  87 0099 5D       		popq	%rbp
  88              		.cfi_def_cfa_offset 16
  89 009a 415C     		popq	%r12
  90              		.cfi_def_cfa_offset 8
  91 009c E9000000 		jmp	_ZdlPv@PLT
  91      00
  92              		.p2align 4,,10
  93 00a1 0F1F8000 		.p2align 3
  93      000000
  94              	.L3:
  95              		.cfi_restore_state
  96 00a8 5B       		popq	%rbx
  97              		.cfi_def_cfa_offset 24
  98 00a9 5D       		popq	%rbp
  99              		.cfi_def_cfa_offset 16
 100 00aa 415C     		popq	%r12
 101              		.cfi_def_cfa_offset 8
 102 00ac C3       		ret
 103              		.cfi_endproc
 104              	.LFE919:
 106              		.weak	_ZN8UnitTest18DeferredTestResultD1Ev
 107              		.set	_ZN8UnitTest18DeferredTestResultD1Ev,_ZN8UnitTest18DeferredTestResultD2Ev
 108              		.text
 109              		.align 2
 110 000a 660F1F44 		.p2align 4,,15
 110      0000
 111              		.globl	_ZN8UnitTest20DeferredTestReporter10GetResultsEv
 113              	_ZN8UnitTest20DeferredTestReporter10GetResultsEv:
 114              	.LFB926:
 115              		.cfi_startproc
 116 0010 488D4708 		leaq	8(%rdi), %rax
 117 0014 C3       		ret
 118              		.cfi_endproc
 119              	.LFE926:
 121              		.section	.rodata._ZNSt6vectorIN8UnitTest18DeferredTestResultESaIS1_EE17_M_realloc_insertEN9__gnu_c
 122              		.align 8
 123              	.LC0:
 124 0000 62617369 		.string	"basic_string::_M_construct null not valid"
 124      635F7374 
 124      72696E67 
 124      3A3A5F4D 
 124      5F636F6E 
 125              		.section	.text._ZNSt6vectorIN8UnitTest18DeferredTestResultESaIS1_EE17_M_realloc_insertEN9__gnu_cxx
 126              		.align 2
 127              		.p2align 4,,15
 128              		.weak	_ZNSt6vectorIN8UnitTest18DeferredTestResultESaIS1_EE17_M_realloc_insertEN9__gnu_cxx17__norma
 130              	_ZNSt6vectorIN8UnitTest18DeferredTestResultESaIS1_EE17_M_realloc_insertEN9__gnu_cxx17__normal_itera
 131              	.LFB965:
 132              		.cfi_startproc
 133              		.cfi_personality 0x9b,DW.ref.__gxx_personality_v0
 134              		.cfi_lsda 0x1b,.LLSDA965
 135 0000 4157     		pushq	%r15
 136              		.cfi_def_cfa_offset 16
 137              		.cfi_offset 15, -16
 138 0002 4156     		pushq	%r14
 139              		.cfi_def_cfa_offset 24
 140              		.cfi_offset 14, -24
 141 0004 4889F1   		movq	%rsi, %rcx
 142 0007 4155     		pushq	%r13
 143              		.cfi_def_cfa_offset 32
 144              		.cfi_offset 13, -32
 145 0009 4154     		pushq	%r12
 146              		.cfi_def_cfa_offset 40
 147              		.cfi_offset 12, -40
 148 000b 4989D5   		movq	%rdx, %r13
 149 000e 55       		pushq	%rbp
 150              		.cfi_def_cfa_offset 48
 151              		.cfi_offset 6, -48
 152 000f 53       		pushq	%rbx
 153              		.cfi_def_cfa_offset 56
 154              		.cfi_offset 3, -56
 155 0010 4881ECD8 		subq	$216, %rsp
 155      000000
 156              		.cfi_def_cfa_offset 272
 157 0017 488B17   		movq	(%rdi), %rdx
 158 001a 64488B04 		movq	%fs:40, %rax
 158      25280000 
 158      00
 159 0023 48898424 		movq	%rax, 200(%rsp)
 159      C8000000 
 160 002b 31C0     		xorl	%eax, %eax
 161 002d 488B4708 		movq	8(%rdi), %rax
 162 0031 48897C24 		movq	%rdi, 56(%rsp)
 162      38
 163 0036 4829D1   		subq	%rdx, %rcx
 164 0039 48897424 		movq	%rsi, 48(%rsp)
 164      30
 165 003e 48893424 		movq	%rsi, (%rsp)
 166 0042 4889CB   		movq	%rcx, %rbx
 167 0045 48894424 		movq	%rax, 8(%rsp)
 167      08
 168 004a 4829D0   		subq	%rdx, %rax
 169 004d 48C1F807 		sarq	$7, %rax
 170 0051 4885C0   		testq	%rax, %rax
 171 0054 0F84B60B 		je	.L174
 171      0000
 172 005a 488D3400 		leaq	(%rax,%rax), %rsi
 173 005e 4839F0   		cmpq	%rsi, %rax
 174 0061 48897424 		movq	%rsi, 88(%rsp)
 174      58
 175 0066 0F86D40C 		jbe	.L343
 175      0000
 176              	.L176:
 177 006c 48C74424 		movq	$-128, 88(%rsp)
 177      5880FFFF 
 177      FF
 178              	.L21:
 179 0075 488B7C24 		movq	88(%rsp), %rdi
 179      58
 180              	.LEHB0:
 181 007a E8000000 		call	_Znwm@PLT
 181      00
 182              	.LEHE0:
 183 007f 48894424 		movq	%rax, 80(%rsp)
 183      50
 184              	.L22:
 185 0084 48035C24 		addq	80(%rsp), %rbx
 185      50
 186 0089 48895C24 		movq	%rbx, 64(%rsp)
 186      40
 187 008e 0F846802 		je	.L23
 187      0000
 188 0094 488D4B10 		leaq	16(%rbx), %rcx
 189 0098 498B6D00 		movq	0(%r13), %rbp
 190 009c 48890B   		movq	%rcx, (%rbx)
 191 009f 498B5D08 		movq	8(%r13), %rbx
 192 00a3 4889E8   		movq	%rbp, %rax
 193 00a6 48894C24 		movq	%rcx, 24(%rsp)
 193      18
 194 00ab 4801D8   		addq	%rbx, %rax
 195 00ae 7409     		je	.L24
 196 00b0 4885ED   		testq	%rbp, %rbp
 197 00b3 0F848110 		je	.L344
 197      0000
 198              	.L24:
 199 00b9 4883FB0F 		cmpq	$15, %rbx
 200 00bd 48895C24 		movq	%rbx, 104(%rsp)
 200      68
 201 00c2 0F875C0B 		ja	.L345
 201      0000
 202 00c8 4883FB01 		cmpq	$1, %rbx
 203 00cc 0F85F80C 		jne	.L27
 203      0000
 204 00d2 0FB64500 		movzbl	0(%rbp), %eax
 205 00d6 488B4C24 		movq	64(%rsp), %rcx
 205      40
 206 00db 884110   		movb	%al, 16(%rcx)
 207 00de 488B4424 		movq	24(%rsp), %rax
 207      18
 208              	.L28:
 209 00e3 48895908 		movq	%rbx, 8(%rcx)
 210 00e7 C6041800 		movb	$0, (%rax,%rbx)
 211 00eb 488D7130 		leaq	48(%rcx), %rsi
 212 00ef 498B6D20 		movq	32(%r13), %rbp
 213 00f3 498B5D28 		movq	40(%r13), %rbx
 214 00f7 48897424 		movq	%rsi, 32(%rsp)
 214      20
 215 00fc 48897120 		movq	%rsi, 32(%rcx)
 216 0100 4889E8   		movq	%rbp, %rax
 217 0103 4801D8   		addq	%rbx, %rax
 218 0106 7409     		je	.L29
 219 0108 4885ED   		testq	%rbp, %rbp
 220 010b 0F848D0F 		je	.L346
 220      0000
 221              	.L29:
 222 0111 4883FB0F 		cmpq	$15, %rbx
 223 0115 48895C24 		movq	%rbx, 112(%rsp)
 223      70
 224 011a 0F87900B 		ja	.L347
 224      0000
 225 0120 4883FB01 		cmpq	$1, %rbx
 226 0124 0F85880C 		jne	.L32
 226      0000
 227 012a 0FB64500 		movzbl	0(%rbp), %eax
 228 012e 488B4C24 		movq	64(%rsp), %rcx
 228      40
 229 0133 4889CE   		movq	%rcx, %rsi
 230 0136 884130   		movb	%al, 48(%rcx)
 231 0139 488B4424 		movq	32(%rsp), %rax
 231      20
 232              	.L33:
 233 013e 48895E28 		movq	%rbx, 40(%rsi)
 234 0142 C6041800 		movb	$0, (%rax,%rbx)
 235 0146 488D4E50 		leaq	80(%rsi), %rcx
 236 014a 498B6D40 		movq	64(%r13), %rbp
 237 014e 498B5D48 		movq	72(%r13), %rbx
 238 0152 48894C24 		movq	%rcx, 40(%rsp)
 238      28
 239 0157 48894E40 		movq	%rcx, 64(%rsi)
 240 015b 4889E8   		movq	%rbp, %rax
 241 015e 4801D8   		addq	%rbx, %rax
 242 0161 7409     		je	.L34
 243 0163 4885ED   		testq	%rbp, %rbp
 244 0166 0F84930F 		je	.L348
 244      0000
 245              	.L34:
 246 016c 4883FB0F 		cmpq	$15, %rbx
 247 0170 48895C24 		movq	%rbx, 120(%rsp)
 247      78
 248 0175 0F877D0B 		ja	.L349
 248      0000
 249 017b 4883FB01 		cmpq	$1, %rbx
 250 017f 0F85150C 		jne	.L37
 250      0000
 251 0185 0FB64500 		movzbl	0(%rbp), %eax
 252 0189 488B7424 		movq	64(%rsp), %rsi
 252      40
 253 018e 884650   		movb	%al, 80(%rsi)
 254 0191 488B4424 		movq	40(%rsp), %rax
 254      28
 255              	.L38:
 256 0196 48895E48 		movq	%rbx, 72(%rsi)
 257 019a C6041800 		movb	$0, (%rax,%rbx)
 258 019e 48BACDCC 		movabsq	$-3689348814741910323, %rdx
 258      CCCCCCCC 
 258      CCCC
 259 01a8 4D8B7D68 		movq	104(%r13), %r15
 260 01ac 498B6D60 		movq	96(%r13), %rbp
 261 01b0 48C74660 		movq	$0, 96(%rsi)
 261      00000000 
 262 01b8 48C74668 		movq	$0, 104(%rsi)
 262      00000000 
 263 01c0 48C74670 		movq	$0, 112(%rsi)
 263      00000000 
 264 01c8 4C89FB   		movq	%r15, %rbx
 265 01cb 4829EB   		subq	%rbp, %rbx
 266 01ce 4889D8   		movq	%rbx, %rax
 267 01d1 48C1F803 		sarq	$3, %rax
 268 01d5 480FAFC2 		imulq	%rdx, %rax
 269 01d9 4885C0   		testq	%rax, %rax
 270 01dc 0F84080C 		je	.L350
 270      0000
 271 01e2 48BA6666 		movabsq	$461168601842738790, %rdx
 271      66666666 
 271      6606
 272 01ec 4839D0   		cmpq	%rdx, %rax
 273 01ef 0F87200E 		ja	.L351
 273      0000
 274 01f5 4889DF   		movq	%rbx, %rdi
 275              	.LEHB1:
 276 01f8 E8000000 		call	_Znwm@PLT
 276      00
 277              	.LEHE1:
 278 01fd 4D8B7D68 		movq	104(%r13), %r15
 279 0201 498B6D60 		movq	96(%r13), %rbp
 280 0205 488B4C24 		movq	64(%rsp), %rcx
 280      40
 281 020a 48894424 		movq	%rax, 8(%rsp)
 281      08
 282              	.L40:
 283 020f 4801C3   		addq	%rax, %rbx
 284 0212 4C39FD   		cmpq	%r15, %rbp
 285 0215 48894160 		movq	%rax, 96(%rcx)
 286 0219 48895970 		movq	%rbx, 112(%rcx)
 287 021d 48894168 		movq	%rax, 104(%rcx)
 288 0221 4889C3   		movq	%rax, %rbx
 289 0224 0F84B80B 		je	.L181
 289      0000
 290 022a 488D8424 		leaq	128(%rsp), %rax
 290      80000000 
 291 0232 48894424 		movq	%rax, 16(%rsp)
 291      10
 292 0237 EB2E     		jmp	.L49
 293 0239 0F1F8000 		.p2align 4,,10
 293      000000
 294              		.p2align 3
 295              	.L45:
 296 0240 4983FC01 		cmpq	$1, %r12
 297 0244 0F854E0A 		jne	.L47
 297      0000
 298 024a 410FB616 		movzbl	(%r14), %edx
 299 024e 885318   		movb	%dl, 24(%rbx)
 300              	.L48:
 301 0251 4C896310 		movq	%r12, 16(%rbx)
 302 0255 42C60420 		movb	$0, (%rax,%r12)
 302      00
 303              	.L43:
 304 025a 4883C528 		addq	$40, %rbp
 305 025e 4883C328 		addq	$40, %rbx
 306 0262 4939EF   		cmpq	%rbp, %r15
 307 0265 7479     		je	.L352
 308              	.L49:
 309 0267 4885DB   		testq	%rbx, %rbx
 310 026a 74EE     		je	.L43
 311 026c 8B4500   		movl	0(%rbp), %eax
 312 026f 8903     		movl	%eax, (%rbx)
 313 0271 488D4318 		leaq	24(%rbx), %rax
 314 0275 48894308 		movq	%rax, 8(%rbx)
 315 0279 4C8B7508 		movq	8(%rbp), %r14
 316 027d 4C8B6510 		movq	16(%rbp), %r12
 317 0281 4C89F6   		movq	%r14, %rsi
 318 0284 4C01E6   		addq	%r12, %rsi
 319 0287 7409     		je	.L44
 320 0289 4D85F6   		testq	%r14, %r14
 321 028c 0F84F40D 		je	.L353
 321      0000
 322              	.L44:
 323 0292 4983FC0F 		cmpq	$15, %r12
 324 0296 4C89A424 		movq	%r12, 128(%rsp)
 324      80000000 
 325 029e 76A0     		jbe	.L45
 326 02a0 488B7424 		movq	16(%rsp), %rsi
 326      10
 327 02a5 488D7B08 		leaq	8(%rbx), %rdi
 328 02a9 31D2     		xorl	%edx, %edx
 329              	.LEHB2:
 330 02ab E8000000 		call	_ZNSt7__cxx1112basic_stringIcSt11char_traitsIcESaIcEE9_M_createERmm@PLT
 330      00
 331              	.LEHE2:
 332 02b0 488B9424 		movq	128(%rsp), %rdx
 332      80000000 
 333 02b8 48894308 		movq	%rax, 8(%rbx)
 334 02bc 48895318 		movq	%rdx, 24(%rbx)
 335              	.L46:
 336 02c0 4C89E2   		movq	%r12, %rdx
 337 02c3 4C89F6   		movq	%r14, %rsi
 338 02c6 4889C7   		movq	%rax, %rdi
 339 02c9 E8000000 		call	memcpy@PLT
 339      00
 340 02ce 4C8BA424 		movq	128(%rsp), %r12
 340      80000000 
 341 02d6 488B4308 		movq	8(%rbx), %rax
 342 02da E972FFFF 		jmp	.L48
 342      FF
 343 02df 90       		.p2align 4,,10
 344              		.p2align 3
 345              	.L352:
 346 02e0 488B7424 		movq	64(%rsp), %rsi
 346      40
 347              	.L42:
 348 02e5 410FB645 		movzbl	124(%r13), %eax
 348      7C
 349 02ea F3410F10 		movss	120(%r13), %xmm0
 349      4578
 350 02f0 F30F1146 		movss	%xmm0, 120(%rsi)
 350      78
 351 02f5 48895E68 		movq	%rbx, 104(%rsi)
 352 02f9 88467C   		movb	%al, 124(%rsi)
 353              	.L23:
 354 02fc 488B4424 		movq	56(%rsp), %rax
 354      38
 355 0301 4C8B30   		movq	(%rax), %r14
 356 0304 4C3B7424 		cmpq	48(%rsp), %r14
 356      30
 357 0309 0F84610A 		je	.L63
 357      0000
 358 030f 488D8424 		leaq	160(%rsp), %rax
 358      A0000000 
 359 0317 488B5C24 		movq	80(%rsp), %rbx
 359      50
 360 031c 48894424 		movq	%rax, 72(%rsp)
 360      48
 361              		.p2align 4,,10
 362 0321 0F1F8000 		.p2align 3
 362      000000
 363              	.L104:
 364 0328 4885DB   		testq	%rbx, %rbx
 365 032b 0F844E02 		je	.L64
 365      0000
 366 0331 488D4310 		leaq	16(%rbx), %rax
 367 0335 488903   		movq	%rax, (%rbx)
 368 0338 4D8B26   		movq	(%r14), %r12
 369 033b 498B6E08 		movq	8(%r14), %rbp
 370 033f 48894424 		movq	%rax, 40(%rsp)
 370      28
 371 0344 4C89E0   		movq	%r12, %rax
 372 0347 4801E8   		addq	%rbp, %rax
 373 034a 7409     		je	.L65
 374 034c 4D85E4   		testq	%r12, %r12
 375 034f 0F843D0D 		je	.L354
 375      0000
 376              	.L65:
 377 0355 4883FD0F 		cmpq	$15, %rbp
 378 0359 4889AC24 		movq	%rbp, 136(%rsp)
 378      88000000 
 379 0361 0F874902 		ja	.L355
 379      0000
 380 0367 4883FD01 		cmpq	$1, %rbp
 381 036b 0F851F03 		jne	.L68
 381      0000
 382 0371 410FB604 		movzbl	(%r12), %eax
 382      24
 383 0376 884310   		movb	%al, 16(%rbx)
 384 0379 488B4424 		movq	40(%rsp), %rax
 384      28
 385              	.L69:
 386 037e 48896B08 		movq	%rbp, 8(%rbx)
 387 0382 C6042800 		movb	$0, (%rax,%rbp)
 388 0386 488D4330 		leaq	48(%rbx), %rax
 389 038a 48894320 		movq	%rax, 32(%rbx)
 390 038e 4D8B6620 		movq	32(%r14), %r12
 391 0392 498B6E28 		movq	40(%r14), %rbp
 392 0396 48894424 		movq	%rax, 32(%rsp)
 392      20
 393 039b 4C89E0   		movq	%r12, %rax
 394 039e 4801E8   		addq	%rbp, %rax
 395 03a1 7409     		je	.L70
 396 03a3 4D85E4   		testq	%r12, %r12
 397 03a6 0F840A0D 		je	.L356
 397      0000
 398              	.L70:
 399 03ac 4883FD0F 		cmpq	$15, %rbp
 400 03b0 4889AC24 		movq	%rbp, 144(%rsp)
 400      90000000 
 401 03b8 0F877A02 		ja	.L357
 401      0000
 402 03be 4883FD01 		cmpq	$1, %rbp
 403 03c2 0F85B802 		jne	.L73
 403      0000
 404 03c8 410FB604 		movzbl	(%r12), %eax
 404      24
 405 03cd 884330   		movb	%al, 48(%rbx)
 406 03d0 488B4424 		movq	32(%rsp), %rax
 406      20
 407              	.L74:
 408 03d5 48896B28 		movq	%rbp, 40(%rbx)
 409 03d9 C6042800 		movb	$0, (%rax,%rbp)
 410 03dd 488D4350 		leaq	80(%rbx), %rax
 411 03e1 48894340 		movq	%rax, 64(%rbx)
 412 03e5 4D8B6640 		movq	64(%r14), %r12
 413 03e9 498B6E48 		movq	72(%r14), %rbp
 414 03ed 48894424 		movq	%rax, 24(%rsp)
 414      18
 415 03f2 4C89E0   		movq	%r12, %rax
 416 03f5 4801E8   		addq	%rbp, %rax
 417 03f8 7409     		je	.L75
 418 03fa 4D85E4   		testq	%r12, %r12
 419 03fd 0F84A70C 		je	.L358
 419      0000
 420              	.L75:
 421 0403 4883FD0F 		cmpq	$15, %rbp
 422 0407 4889AC24 		movq	%rbp, 152(%rsp)
 422      98000000 
 423 040f 0F87DB01 		ja	.L359
 423      0000
 424 0415 4883FD01 		cmpq	$1, %rbp
 425 0419 0F858902 		jne	.L78
 425      0000
 426 041f 410FB604 		movzbl	(%r12), %eax
 426      24
 427 0424 884350   		movb	%al, 80(%rbx)
 428 0427 488B4424 		movq	24(%rsp), %rax
 428      18
 429              	.L79:
 430 042c 48896B48 		movq	%rbp, 72(%rbx)
 431 0430 C6042800 		movb	$0, (%rax,%rbp)
 432 0434 48B9CDCC 		movabsq	$-3689348814741910323, %rcx
 432      CCCCCCCC 
 432      CCCC
 433 043e 498B6E68 		movq	104(%r14), %rbp
 434 0442 492B6E60 		subq	96(%r14), %rbp
 435 0446 48C74360 		movq	$0, 96(%rbx)
 435      00000000 
 436 044e 48C74368 		movq	$0, 104(%rbx)
 436      00000000 
 437 0456 48C74370 		movq	$0, 112(%rbx)
 437      00000000 
 438 045e 4889E8   		movq	%rbp, %rax
 439 0461 48C1F803 		sarq	$3, %rax
 440 0465 480FAFC1 		imulq	%rcx, %rax
 441 0469 4885C0   		testq	%rax, %rax
 442 046c 0F840E08 		je	.L360
 442      0000
 443 0472 48B96666 		movabsq	$461168601842738790, %rcx
 443      66666666 
 443      6606
 444 047c 4839C8   		cmpq	%rcx, %rax
 445 047f 0F875B0A 		ja	.L361
 445      0000
 446 0485 4889EF   		movq	%rbp, %rdi
 447              	.LEHB3:
 448 0488 E8000000 		call	_Znwm@PLT
 448      00
 449              	.LEHE3:
 450 048d 48894424 		movq	%rax, 16(%rsp)
 450      10
 451              	.L81:
 452 0492 4801C5   		addq	%rax, %rbp
 453 0495 48894360 		movq	%rax, 96(%rbx)
 454 0499 48894368 		movq	%rax, 104(%rbx)
 455 049d 48896B70 		movq	%rbp, 112(%rbx)
 456 04a1 498B7668 		movq	104(%r14), %rsi
 457 04a5 4889C5   		movq	%rax, %rbp
 458 04a8 4D8B6660 		movq	96(%r14), %r12
 459 04ac 48897424 		movq	%rsi, 8(%rsp)
 459      08
 460 04b1 4C39E6   		cmpq	%r12, %rsi
 461 04b4 7533     		jne	.L90
 462 04b6 E9AD0000 		jmp	.L83
 462      00
 463 04bb 0F1F4400 		.p2align 4,,10
 463      00
 464              		.p2align 3
 465              	.L86:
 466 04c0 4983FD01 		cmpq	$1, %r13
 467 04c4 0F85D600 		jne	.L88
 467      0000
 468 04ca 410FB617 		movzbl	(%r15), %edx
 469 04ce 885518   		movb	%dl, 24(%rbp)
 470              	.L89:
 471 04d1 4C896D10 		movq	%r13, 16(%rbp)
 472 04d5 42C60428 		movb	$0, (%rax,%r13)
 472      00
 473              	.L84:
 474 04da 4883C528 		addq	$40, %rbp
 475 04de 4983C428 		addq	$40, %r12
 476 04e2 4C396424 		cmpq	%r12, 8(%rsp)
 476      08
 477 04e7 747F     		je	.L83
 478              	.L90:
 479 04e9 4885ED   		testq	%rbp, %rbp
 480 04ec 74EC     		je	.L84
 481 04ee 418B0424 		movl	(%r12), %eax
 482 04f2 894500   		movl	%eax, 0(%rbp)
 483 04f5 488D4518 		leaq	24(%rbp), %rax
 484 04f9 48894508 		movq	%rax, 8(%rbp)
 485 04fd 4D8B7C24 		movq	8(%r12), %r15
 485      08
 486 0502 4D8B6C24 		movq	16(%r12), %r13
 486      10
 487 0507 4C89F9   		movq	%r15, %rcx
 488 050a 4C01E9   		addq	%r13, %rcx
 489 050d 7409     		je	.L85
 490 050f 4D85FF   		testq	%r15, %r15
 491 0512 0F84E808 		je	.L362
 491      0000
 492              	.L85:
 493 0518 4983FD0F 		cmpq	$15, %r13
 494 051c 4C89AC24 		movq	%r13, 160(%rsp)
 494      A0000000 
 495 0524 769A     		jbe	.L86
 496 0526 488B7424 		movq	72(%rsp), %rsi
 496      48
 497 052b 488D7D08 		leaq	8(%rbp), %rdi
 498 052f 31D2     		xorl	%edx, %edx
 499              	.LEHB4:
 500 0531 E8000000 		call	_ZNSt7__cxx1112basic_stringIcSt11char_traitsIcESaIcEE9_M_createERmm@PLT
 500      00
 501              	.LEHE4:
 502 0536 488B9424 		movq	160(%rsp), %rdx
 502      A0000000 
 503 053e 48894508 		movq	%rax, 8(%rbp)
 504 0542 48895518 		movq	%rdx, 24(%rbp)
 505              	.L87:
 506 0546 4C89EA   		movq	%r13, %rdx
 507 0549 4C89FE   		movq	%r15, %rsi
 508 054c 4889C7   		movq	%rax, %rdi
 509 054f E8000000 		call	memcpy@PLT
 509      00
 510 0554 4C8BAC24 		movq	160(%rsp), %r13
 510      A0000000 
 511 055c 488B4508 		movq	8(%rbp), %rax
 512 0560 E96CFFFF 		jmp	.L89
 512      FF
 513              		.p2align 4,,10
 514 0565 0F1F00   		.p2align 3
 515              	.L83:
 516 0568 410FB646 		movzbl	124(%r14), %eax
 516      7C
 517 056d F3410F10 		movss	120(%r14), %xmm0
 517      4678
 518 0573 F30F1143 		movss	%xmm0, 120(%rbx)
 518      78
 519 0578 48896B68 		movq	%rbp, 104(%rbx)
 520 057c 88437C   		movb	%al, 124(%rbx)
 521              	.L64:
 522 057f 4983EE80 		subq	$-128, %r14
 523 0583 4C397424 		cmpq	%r14, 48(%rsp)
 523      30
 524 0588 488D8380 		leaq	128(%rbx), %rax
 524      000000
 525 058f 0F842B01 		je	.L363
 525      0000
 526 0595 4889C3   		movq	%rax, %rbx
 527 0598 E98BFDFF 		jmp	.L104
 527      FF
 528 059d 0F1F00   		.p2align 4,,10
 529              		.p2align 3
 530              	.L88:
 531 05a0 4D85ED   		testq	%r13, %r13
 532 05a3 0F8428FF 		je	.L89
 532      FFFF
 533 05a9 EB9B     		jmp	.L87
 534 05ab 0F1F4400 		.p2align 4,,10
 534      00
 535              		.p2align 3
 536              	.L355:
 537 05b0 488DB424 		leaq	136(%rsp), %rsi
 537      88000000 
 538 05b8 31D2     		xorl	%edx, %edx
 539 05ba 4889DF   		movq	%rbx, %rdi
 540              	.LEHB5:
 541 05bd E8000000 		call	_ZNSt7__cxx1112basic_stringIcSt11char_traitsIcESaIcEE9_M_createERmm@PLT
 541      00
 542              	.LEHE5:
 543 05c2 488B9424 		movq	136(%rsp), %rdx
 543      88000000 
 544 05ca 488903   		movq	%rax, (%rbx)
 545 05cd 48895310 		movq	%rdx, 16(%rbx)
 546              	.L67:
 547 05d1 4889EA   		movq	%rbp, %rdx
 548 05d4 4C89E6   		movq	%r12, %rsi
 549 05d7 4889C7   		movq	%rax, %rdi
 550 05da E8000000 		call	memcpy@PLT
 550      00
 551 05df 488BAC24 		movq	136(%rsp), %rbp
 551      88000000 
 552 05e7 488B03   		movq	(%rbx), %rax
 553 05ea E98FFDFF 		jmp	.L69
 553      FF
 554 05ef 90       		.p2align 4,,10
 555              		.p2align 3
 556              	.L359:
 557 05f0 488DB424 		leaq	152(%rsp), %rsi
 557      98000000 
 558 05f8 488D7B40 		leaq	64(%rbx), %rdi
 559 05fc 31D2     		xorl	%edx, %edx
 560              	.LEHB6:
 561 05fe E8000000 		call	_ZNSt7__cxx1112basic_stringIcSt11char_traitsIcESaIcEE9_M_createERmm@PLT
 561      00
 562              	.LEHE6:
 563 0603 488B9424 		movq	152(%rsp), %rdx
 563      98000000 
 564 060b 48894340 		movq	%rax, 64(%rbx)
 565 060f 48895350 		movq	%rdx, 80(%rbx)
 566              	.L77:
 567 0613 4889EA   		movq	%rbp, %rdx
 568 0616 4C89E6   		movq	%r12, %rsi
 569 0619 4889C7   		movq	%rax, %rdi
 570 061c E8000000 		call	memcpy@PLT
 570      00
 571 0621 488BAC24 		movq	152(%rsp), %rbp
 571      98000000 
 572 0629 488B4340 		movq	64(%rbx), %rax
 573 062d E9FAFDFF 		jmp	.L79
 573      FF
 574              		.p2align 4,,10
 575 0632 660F1F44 		.p2align 3
 575      0000
 576              	.L357:
 577 0638 488DB424 		leaq	144(%rsp), %rsi
 577      90000000 
 578 0640 488D7B20 		leaq	32(%rbx), %rdi
 579 0644 31D2     		xorl	%edx, %edx
 580              	.LEHB7:
 581 0646 E8000000 		call	_ZNSt7__cxx1112basic_stringIcSt11char_traitsIcESaIcEE9_M_createERmm@PLT
 581      00
 582              	.LEHE7:
 583 064b 488B9424 		movq	144(%rsp), %rdx
 583      90000000 
 584 0653 48894320 		movq	%rax, 32(%rbx)
 585 0657 48895330 		movq	%rdx, 48(%rbx)
 586              	.L72:
 587 065b 4889EA   		movq	%rbp, %rdx
 588 065e 4C89E6   		movq	%r12, %rsi
 589 0661 4889C7   		movq	%rax, %rdi
 590 0664 E8000000 		call	memcpy@PLT
 590      00
 591 0669 488BAC24 		movq	144(%rsp), %rbp
 591      90000000 
 592 0671 488B4320 		movq	32(%rbx), %rax
 593 0675 E95BFDFF 		jmp	.L74
 593      FF
 594 067a 660F1F44 		.p2align 4,,10
 594      0000
 595              		.p2align 3
 596              	.L73:
 597 0680 4885ED   		testq	%rbp, %rbp
 598 0683 488B4424 		movq	32(%rsp), %rax
 598      20
 599 0688 0F8447FD 		je	.L74
 599      FFFF
 600 068e EBCB     		jmp	.L72
 601              		.p2align 4,,10
 602              		.p2align 3
 603              	.L68:
 604 0690 4885ED   		testq	%rbp, %rbp
 605 0693 488B4424 		movq	40(%rsp), %rax
 605      28
 606 0698 0F84E0FC 		je	.L69
 606      FFFF
 607 069e E92EFFFF 		jmp	.L67
 607      FF
 608              		.p2align 4,,10
 609 06a3 0F1F4400 		.p2align 3
 609      00
 610              	.L78:
 611 06a8 4885ED   		testq	%rbp, %rbp
 612 06ab 488B4424 		movq	24(%rsp), %rax
 612      18
 613 06b0 0F8476FD 		je	.L79
 613      FFFF
 614 06b6 E958FFFF 		jmp	.L77
 614      FF
 615 06bb 0F1F4400 		.p2align 4,,10
 615      00
 616              		.p2align 3
 617              	.L363:
 618 06c0 488B4424 		movq	56(%rsp), %rax
 618      38
 619 06c5 4881C300 		addq	$256, %rbx
 619      010000
 620 06cc 488B4008 		movq	8(%rax), %rax
 621 06d0 483B4424 		cmpq	48(%rsp), %rax
 621      30
 622 06d5 48894424 		movq	%rax, 40(%rsp)
 622      28
 623 06da 0F84AE02 		je	.L105
 623      0000
 624              	.L342:
 625 06e0 488D8424 		leaq	192(%rsp), %rax
 625      C0000000 
 626 06e8 48895C24 		movq	%rbx, 72(%rsp)
 626      48
 627 06ed 48894424 		movq	%rax, 48(%rsp)
 627      30
 628              		.p2align 4,,10
 629 06f2 660F1F44 		.p2align 3
 629      0000
 630              	.L151:
 631 06f8 4885DB   		testq	%rbx, %rbx
 632 06fb 0F846802 		je	.L111
 632      0000
 633 0701 488D4310 		leaq	16(%rbx), %rax
 634 0705 48894424 		movq	%rax, 16(%rsp)
 634      10
 635 070a 488903   		movq	%rax, (%rbx)
 636 070d 488B0424 		movq	(%rsp), %rax
 637 0711 4C8B20   		movq	(%rax), %r12
 638 0714 488B6808 		movq	8(%rax), %rbp
 639 0718 4C89E0   		movq	%r12, %rax
 640 071b 4801E8   		addq	%rbp, %rax
 641 071e 7409     		je	.L112
 642 0720 4D85E4   		testq	%r12, %r12
 643 0723 0F84B509 		je	.L364
 643      0000
 644              	.L112:
 645 0729 4883FD0F 		cmpq	$15, %rbp
 646 072d 4889AC24 		movq	%rbp, 168(%rsp)
 646      A8000000 
 647 0735 0F87BD03 		ja	.L365
 647      0000
 648 073b 4883FD01 		cmpq	$1, %rbp
 649 073f 0F859B04 		jne	.L115
 649      0000
 650 0745 410FB604 		movzbl	(%r12), %eax
 650      24
 651 074a 884310   		movb	%al, 16(%rbx)
 652 074d 488B4424 		movq	16(%rsp), %rax
 652      10
 653              	.L116:
 654 0752 48896B08 		movq	%rbp, 8(%rbx)
 655 0756 C6042800 		movb	$0, (%rax,%rbp)
 656 075a 488D4330 		leaq	48(%rbx), %rax
 657 075e 48894424 		movq	%rax, 24(%rsp)
 657      18
 658 0763 48894320 		movq	%rax, 32(%rbx)
 659 0767 488B0424 		movq	(%rsp), %rax
 660 076b 4C8B6020 		movq	32(%rax), %r12
 661 076f 488B6828 		movq	40(%rax), %rbp
 662 0773 4C89E0   		movq	%r12, %rax
 663 0776 4801E8   		addq	%rbp, %rax
 664 0779 7409     		je	.L117
 665 077b 4D85E4   		testq	%r12, %r12
 666 077e 0F844E09 		je	.L366
 666      0000
 667              	.L117:
 668 0784 4883FD0F 		cmpq	$15, %rbp
 669 0788 4889AC24 		movq	%rbp, 176(%rsp)
 669      B0000000 
 670 0790 0F87F203 		ja	.L367
 670      0000
 671 0796 4883FD01 		cmpq	$1, %rbp
 672 079a 0F853004 		jne	.L120
 672      0000
 673 07a0 410FB604 		movzbl	(%r12), %eax
 673      24
 674 07a5 884330   		movb	%al, 48(%rbx)
 675 07a8 488B4424 		movq	24(%rsp), %rax
 675      18
 676              	.L121:
 677 07ad 48896B28 		movq	%rbp, 40(%rbx)
 678 07b1 C6042800 		movb	$0, (%rax,%rbp)
 679 07b5 488D4350 		leaq	80(%rbx), %rax
 680 07b9 48894424 		movq	%rax, 32(%rsp)
 680      20
 681 07be 48894340 		movq	%rax, 64(%rbx)
 682 07c2 488B0424 		movq	(%rsp), %rax
 683 07c6 4C8B6040 		movq	64(%rax), %r12
 684 07ca 488B6848 		movq	72(%rax), %rbp
 685 07ce 4C89E0   		movq	%r12, %rax
 686 07d1 4801E8   		addq	%rbp, %rax
 687 07d4 7409     		je	.L122
 688 07d6 4D85E4   		testq	%r12, %r12
 689 07d9 0F845B07 		je	.L368
 689      0000
 690              	.L122:
 691 07df 4883FD0F 		cmpq	$15, %rbp
 692 07e3 4889AC24 		movq	%rbp, 184(%rsp)
 692      B8000000 
 693 07eb 0F874F03 		ja	.L369
 693      0000
 694 07f1 4883FD01 		cmpq	$1, %rbp
 695 07f5 0F85FD03 		jne	.L125
 695      0000
 696 07fb 410FB604 		movzbl	(%r12), %eax
 696      24
 697 0800 884350   		movb	%al, 80(%rbx)
 698 0803 488B4424 		movq	32(%rsp), %rax
 698      20
 699              	.L126:
 700 0808 48896B48 		movq	%rbp, 72(%rbx)
 701 080c C6042800 		movb	$0, (%rax,%rbp)
 702 0810 48BECDCC 		movabsq	$-3689348814741910323, %rsi
 702      CCCCCCCC 
 702      CCCC
 703 081a 488B0424 		movq	(%rsp), %rax
 704 081e 48C74360 		movq	$0, 96(%rbx)
 704      00000000 
 705 0826 48C74368 		movq	$0, 104(%rbx)
 705      00000000 
 706 082e 48C74370 		movq	$0, 112(%rbx)
 706      00000000 
 707 0836 4C8B7868 		movq	104(%rax), %r15
 708 083a 4C8B6060 		movq	96(%rax), %r12
 709 083e 4C89FD   		movq	%r15, %rbp
 710 0841 4C29E5   		subq	%r12, %rbp
 711 0844 4889E8   		movq	%rbp, %rax
 712 0847 48C1F803 		sarq	$3, %rax
 713 084b 480FAFC6 		imulq	%rsi, %rax
 714 084f 4885C0   		testq	%rax, %rax
 715 0852 0F841804 		je	.L370
 715      0000
 716 0858 48BE6666 		movabsq	$461168601842738790, %rsi
 716      66666666 
 716      6606
 717 0862 4839F0   		cmpq	%rsi, %rax
 718 0865 0F871506 		ja	.L371
 718      0000
 719 086b 4889EF   		movq	%rbp, %rdi
 720              	.LEHB8:
 721 086e E8000000 		call	_Znwm@PLT
 721      00
 722              	.LEHE8:
 723 0873 48894424 		movq	%rax, 8(%rsp)
 723      08
 724 0878 488B0424 		movq	(%rsp), %rax
 725 087c 4C8B7868 		movq	104(%rax), %r15
 726 0880 4C8B6060 		movq	96(%rax), %r12
 727              	.L128:
 728 0884 488B4424 		movq	8(%rsp), %rax
 728      08
 729 0889 4801C5   		addq	%rax, %rbp
 730 088c 4D39FC   		cmpq	%r15, %r12
 731 088f 48894360 		movq	%rax, 96(%rbx)
 732 0893 48896B70 		movq	%rbp, 112(%rbx)
 733 0897 48894368 		movq	%rax, 104(%rbx)
 734 089b 4889C5   		movq	%rax, %rbp
 735 089e 7533     		jne	.L137
 736 08a0 E9AB0000 		jmp	.L130
 736      00
 737              		.p2align 4,,10
 738 08a5 0F1F00   		.p2align 3
 739              	.L133:
 740 08a8 4983FD01 		cmpq	$1, %r13
 741 08ac 0F851E02 		jne	.L135
 741      0000
 742 08b2 410FB616 		movzbl	(%r14), %edx
 743 08b6 885518   		movb	%dl, 24(%rbp)
 744              	.L136:
 745 08b9 4C896D10 		movq	%r13, 16(%rbp)
 746 08bd 42C60428 		movb	$0, (%rax,%r13)
 746      00
 747              	.L131:
 748 08c2 4983C428 		addq	$40, %r12
 749 08c6 4883C528 		addq	$40, %rbp
 750 08ca 4D39E7   		cmpq	%r12, %r15
 751 08cd 0F847D00 		je	.L130
 751      0000
 752              	.L137:
 753 08d3 4885ED   		testq	%rbp, %rbp
 754 08d6 74EA     		je	.L131
 755 08d8 418B0424 		movl	(%r12), %eax
 756 08dc 894500   		movl	%eax, 0(%rbp)
 757 08df 488D4518 		leaq	24(%rbp), %rax
 758 08e3 48894508 		movq	%rax, 8(%rbp)
 759 08e7 4D8B7424 		movq	8(%r12), %r14
 759      08
 760 08ec 4D8B6C24 		movq	16(%r12), %r13
 760      10
 761 08f1 4C89F1   		movq	%r14, %rcx
 762 08f4 4C01E9   		addq	%r13, %rcx
 763 08f7 7409     		je	.L132
 764 08f9 4D85F6   		testq	%r14, %r14
 765 08fc 0F843E05 		je	.L372
 765      0000
 766              	.L132:
 767 0902 4983FD0F 		cmpq	$15, %r13
 768 0906 4C89AC24 		movq	%r13, 192(%rsp)
 768      C0000000 
 769 090e 7698     		jbe	.L133
 770 0910 488B7424 		movq	48(%rsp), %rsi
 770      30
 771 0915 488D7D08 		leaq	8(%rbp), %rdi
 772 0919 31D2     		xorl	%edx, %edx
 773              	.LEHB9:
 774 091b E8000000 		call	_ZNSt7__cxx1112basic_stringIcSt11char_traitsIcESaIcEE9_M_createERmm@PLT
 774      00
 775              	.LEHE9:
 776 0920 488B9424 		movq	192(%rsp), %rdx
 776      C0000000 
 777 0928 48894508 		movq	%rax, 8(%rbp)
 778 092c 48895518 		movq	%rdx, 24(%rbp)
 779              	.L134:
 780 0930 4C89EA   		movq	%r13, %rdx
 781 0933 4C89F6   		movq	%r14, %rsi
 782 0936 4889C7   		movq	%rax, %rdi
 783 0939 E8000000 		call	memcpy@PLT
 783      00
 784 093e 4C8BAC24 		movq	192(%rsp), %r13
 784      C0000000 
 785 0946 488B4508 		movq	8(%rbp), %rax
 786 094a E96AFFFF 		jmp	.L136
 786      FF
 787 094f 90       		.p2align 4,,10
 788              		.p2align 3
 789              	.L130:
 790 0950 488B0424 		movq	(%rsp), %rax
 791 0954 48896B68 		movq	%rbp, 104(%rbx)
 792 0958 F30F1040 		movss	120(%rax), %xmm0
 792      78
 793 095d 0FB6407C 		movzbl	124(%rax), %eax
 794 0961 F30F1143 		movss	%xmm0, 120(%rbx)
 794      78
 795 0966 88437C   		movb	%al, 124(%rbx)
 796              	.L111:
 797 0969 48832C24 		subq	$-128, (%rsp)
 797      80
 798 096e 4883EB80 		subq	$-128, %rbx
 799 0972 488B0424 		movq	(%rsp), %rax
 800 0976 483B4424 		cmpq	40(%rsp), %rax
 800      28
 801 097b 0F8577FD 		jne	.L151
 801      FFFF
 802 0981 488B4424 		movq	56(%rsp), %rax
 802      38
 803 0986 488B4008 		movq	8(%rax), %rax
 804 098a 48890424 		movq	%rax, (%rsp)
 805              	.L105:
 806 098e 488B4424 		movq	56(%rsp), %rax
 806      38
 807 0993 4C8B38   		movq	(%rax), %r15
 808 0996 4C3B3C24 		cmpq	(%rsp), %r15
 809 099a 0F84D200 		je	.L152
 809      0000
 810 09a0 49BDCDCC 		movabsq	$922337203685477581, %r13
 810      CCCCCCCC 
 810      CC0C
 811 09aa 49BCFFFF 		movabsq	$2305843009213693951, %r12
 811      FFFFFFFF 
 811      FF1F
 812              		.p2align 4,,10
 813 09b4 0F1F4000 		.p2align 3
 814              	.L153:
 815 09b8 498B5768 		movq	104(%r15), %rdx
 816 09bc 498B4760 		movq	96(%r15), %rax
 817 09c0 4839C2   		cmpq	%rax, %rdx
 818 09c3 744D     		je	.L158
 819 09c5 4C8D7028 		leaq	40(%rax), %r14
 820 09c9 4C29F2   		subq	%r14, %rdx
 821 09cc 48C1EA03 		shrq	$3, %rdx
 822 09d0 490FAFD5 		imulq	%r13, %rdx
 823 09d4 4C21E2   		andq	%r12, %rdx
 824 09d7 488D5492 		leaq	5(%rdx,%rdx,4), %rdx
 824      05
 825 09dc 488D2CD0 		leaq	(%rax,%rdx,8), %rbp
 826 09e0 EB17     		jmp	.L159
 827              		.p2align 4,,10
 828 09e2 660F1F44 		.p2align 3
 828      0000
 829              	.L373:
 830 09e8 E8000000 		call	_ZdlPv@PLT
 830      00
 831 09ed 4C39F5   		cmpq	%r14, %rbp
 832 09f0 4C89F0   		movq	%r14, %rax
 833 09f3 7419     		je	.L161
 834              	.L162:
 835 09f5 4983C628 		addq	$40, %r14
 836              	.L159:
 837 09f9 488B7808 		movq	8(%rax), %rdi
 838 09fd 4883C018 		addq	$24, %rax
 839 0a01 4839C7   		cmpq	%rax, %rdi
 840 0a04 75E2     		jne	.L373
 841 0a06 4C39F5   		cmpq	%r14, %rbp
 842 0a09 4C89F0   		movq	%r14, %rax
 843 0a0c 75E7     		jne	.L162
 844              	.L161:
 845 0a0e 498B4760 		movq	96(%r15), %rax
 846              	.L158:
 847 0a12 4885C0   		testq	%rax, %rax
 848 0a15 7408     		je	.L163
 849 0a17 4889C7   		movq	%rax, %rdi
 850 0a1a E8000000 		call	_ZdlPv@PLT
 850      00
 851              	.L163:
 852 0a1f 498B7F40 		movq	64(%r15), %rdi
 853 0a23 498D4750 		leaq	80(%r15), %rax
 854 0a27 4839C7   		cmpq	%rax, %rdi
 855 0a2a 7405     		je	.L164
 856 0a2c E8000000 		call	_ZdlPv@PLT
 856      00
 857              	.L164:
 858 0a31 498B7F20 		movq	32(%r15), %rdi
 859 0a35 498D4730 		leaq	48(%r15), %rax
 860 0a39 4839C7   		cmpq	%rax, %rdi
 861 0a3c 7405     		je	.L165
 862 0a3e E8000000 		call	_ZdlPv@PLT
 862      00
 863              	.L165:
 864 0a43 498B3F   		movq	(%r15), %rdi
 865 0a46 498D4710 		leaq	16(%r15), %rax
 866 0a4a 4839C7   		cmpq	%rax, %rdi
 867 0a4d 0F848D00 		je	.L166
 867      0000
 868 0a53 E8000000 		call	_ZdlPv@PLT
 868      00
 869 0a58 4983EF80 		subq	$-128, %r15
 870 0a5c 4C3B3C24 		cmpq	(%rsp), %r15
 871 0a60 0F8552FF 		jne	.L153
 871      FFFF
 872              	.L167:
 873 0a66 488B4424 		movq	56(%rsp), %rax
 873      38
 874 0a6b 488B00   		movq	(%rax), %rax
 875 0a6e 48890424 		movq	%rax, (%rsp)
 876              	.L152:
 877 0a72 488B0424 		movq	(%rsp), %rax
 878 0a76 4885C0   		testq	%rax, %rax
 879 0a79 7408     		je	.L169
 880 0a7b 4889C7   		movq	%rax, %rdi
 881 0a7e E8000000 		call	_ZdlPv@PLT
 881      00
 882              	.L169:
 883 0a83 488B4C24 		movq	56(%rsp), %rcx
 883      38
 884 0a88 488B4424 		movq	80(%rsp), %rax
 884      50
 885 0a8d 488901   		movq	%rax, (%rcx)
 886 0a90 48034424 		addq	88(%rsp), %rax
 886      58
 887 0a95 48895908 		movq	%rbx, 8(%rcx)
 888 0a99 48894110 		movq	%rax, 16(%rcx)
 889 0a9d 488B8424 		movq	200(%rsp), %rax
 889      C8000000 
 890 0aa5 64483304 		xorq	%fs:40, %rax
 890      25280000 
 890      00
 891 0aae 0F855C05 		jne	.L374
 891      0000
 892 0ab4 4881C4D8 		addq	$216, %rsp
 892      000000
 893              		.cfi_remember_state
 894              		.cfi_def_cfa_offset 56
 895 0abb 5B       		popq	%rbx
 896              		.cfi_def_cfa_offset 48
 897 0abc 5D       		popq	%rbp
 898              		.cfi_def_cfa_offset 40
 899 0abd 415C     		popq	%r12
 900              		.cfi_def_cfa_offset 32
 901 0abf 415D     		popq	%r13
 902              		.cfi_def_cfa_offset 24
 903 0ac1 415E     		popq	%r14
 904              		.cfi_def_cfa_offset 16
 905 0ac3 415F     		popq	%r15
 906              		.cfi_def_cfa_offset 8
 907 0ac5 C3       		ret
 908 0ac6 662E0F1F 		.p2align 4,,10
 908      84000000 
 908      0000
 909              		.p2align 3
 910              	.L135:
 911              		.cfi_restore_state
 912 0ad0 4D85ED   		testq	%r13, %r13
 913 0ad3 0F84E0FD 		je	.L136
 913      FFFF
 914 0ad9 E952FEFF 		jmp	.L134
 914      FF
 915 0ade 6690     		.p2align 4,,10
 916              		.p2align 3
 917              	.L166:
 918 0ae0 4983EF80 		subq	$-128, %r15
 919 0ae4 4C3B3C24 		cmpq	(%rsp), %r15
 920 0ae8 0F85CAFE 		jne	.L153
 920      FFFF
 921 0aee E973FFFF 		jmp	.L167
 921      FF
 922              		.p2align 4,,10
 923 0af3 0F1F4400 		.p2align 3
 923      00
 924              	.L365:
 925 0af8 488DB424 		leaq	168(%rsp), %rsi
 925      A8000000 
 926 0b00 31D2     		xorl	%edx, %edx
 927 0b02 4889DF   		movq	%rbx, %rdi
 928              	.LEHB10:
 929 0b05 E8000000 		call	_ZNSt7__cxx1112basic_stringIcSt11char_traitsIcESaIcEE9_M_createERmm@PLT
 929      00
 930              	.LEHE10:
 931 0b0a 488B9424 		movq	168(%rsp), %rdx
 931      A8000000 
 932 0b12 488903   		movq	%rax, (%rbx)
 933 0b15 48895310 		movq	%rdx, 16(%rbx)
 934              	.L114:
 935 0b19 4889EA   		movq	%rbp, %rdx
 936 0b1c 4C89E6   		movq	%r12, %rsi
 937 0b1f 4889C7   		movq	%rax, %rdi
 938 0b22 E8000000 		call	memcpy@PLT
 938      00
 939 0b27 488BAC24 		movq	168(%rsp), %rbp
 939      A8000000 
 940 0b2f 488B03   		movq	(%rbx), %rax
 941 0b32 E91BFCFF 		jmp	.L116
 941      FF
 942 0b37 660F1F84 		.p2align 4,,10
 942      00000000 
 942      00
 943              		.p2align 3
 944              	.L369:
 945 0b40 488DB424 		leaq	184(%rsp), %rsi
 945      B8000000 
 946 0b48 488D7B40 		leaq	64(%rbx), %rdi
 947 0b4c 31D2     		xorl	%edx, %edx
 948              	.LEHB11:
 949 0b4e E8000000 		call	_ZNSt7__cxx1112basic_stringIcSt11char_traitsIcESaIcEE9_M_createERmm@PLT
 949      00
 950              	.LEHE11:
 951 0b53 488B9424 		movq	184(%rsp), %rdx
 951      B8000000 
 952 0b5b 48894340 		movq	%rax, 64(%rbx)
 953 0b5f 48895350 		movq	%rdx, 80(%rbx)
 954              	.L124:
 955 0b63 4889EA   		movq	%rbp, %rdx
 956 0b66 4C89E6   		movq	%r12, %rsi
 957 0b69 4889C7   		movq	%rax, %rdi
 958 0b6c E8000000 		call	memcpy@PLT
 958      00
 959 0b71 488BAC24 		movq	184(%rsp), %rbp
 959      B8000000 
 960 0b79 488B4340 		movq	64(%rbx), %rax
 961 0b7d E986FCFF 		jmp	.L126
 961      FF
 962              		.p2align 4,,10
 963 0b82 660F1F44 		.p2align 3
 963      0000
 964              	.L367:
 965 0b88 488DB424 		leaq	176(%rsp), %rsi
 965      B0000000 
 966 0b90 488D7B20 		leaq	32(%rbx), %rdi
 967 0b94 31D2     		xorl	%edx, %edx
 968              	.LEHB12:
 969 0b96 E8000000 		call	_ZNSt7__cxx1112basic_stringIcSt11char_traitsIcESaIcEE9_M_createERmm@PLT
 969      00
 970              	.LEHE12:
 971 0b9b 488B9424 		movq	176(%rsp), %rdx
 971      B0000000 
 972 0ba3 48894320 		movq	%rax, 32(%rbx)
 973 0ba7 48895330 		movq	%rdx, 48(%rbx)
 974              	.L119:
 975 0bab 4889EA   		movq	%rbp, %rdx
 976 0bae 4C89E6   		movq	%r12, %rsi
 977 0bb1 4889C7   		movq	%rax, %rdi
 978 0bb4 E8000000 		call	memcpy@PLT
 978      00
 979 0bb9 488BAC24 		movq	176(%rsp), %rbp
 979      B0000000 
 980 0bc1 488B4320 		movq	32(%rbx), %rax
 981 0bc5 E9E3FBFF 		jmp	.L121
 981      FF
 982 0bca 660F1F44 		.p2align 4,,10
 982      0000
 983              		.p2align 3
 984              	.L120:
 985 0bd0 4885ED   		testq	%rbp, %rbp
 986 0bd3 488B4424 		movq	24(%rsp), %rax
 986      18
 987 0bd8 0F84CFFB 		je	.L121
 987      FFFF
 988 0bde EBCB     		jmp	.L119
 989              		.p2align 4,,10
 990              		.p2align 3
 991              	.L115:
 992 0be0 4885ED   		testq	%rbp, %rbp
 993 0be3 488B4424 		movq	16(%rsp), %rax
 993      10
 994 0be8 0F8464FB 		je	.L116
 994      FFFF
 995 0bee E926FFFF 		jmp	.L114
 995      FF
 996              		.p2align 4,,10
 997 0bf3 0F1F4400 		.p2align 3
 997      00
 998              	.L125:
 999 0bf8 4885ED   		testq	%rbp, %rbp
 1000 0bfb 488B4424 		movq	32(%rsp), %rax
 1000      20
 1001 0c00 0F8402FC 		je	.L126
 1001      FFFF
 1002 0c06 E958FFFF 		jmp	.L124
 1002      FF
 1003 0c0b 0F1F4400 		.p2align 4,,10
 1003      00
 1004              		.p2align 3
 1005              	.L174:
 1006 0c10 48C74424 		movq	$1, 88(%rsp)
 1006      58010000 
 1006      00
 1007              	.L20:
 1008 0c19 48C16424 		salq	$7, 88(%rsp)
 1008      5807
 1009 0c1f E951F4FF 		jmp	.L21
 1009      FF
 1010              	.L345:
 1011 0c24 4C8B7C24 		movq	64(%rsp), %r15
 1011      40
 1012 0c29 488D7424 		leaq	104(%rsp), %rsi
 1012      68
 1013 0c2e 31D2     		xorl	%edx, %edx
 1014 0c30 4C89FF   		movq	%r15, %rdi
 1015              	.LEHB13:
 1016 0c33 E8000000 		call	_ZNSt7__cxx1112basic_stringIcSt11char_traitsIcESaIcEE9_M_createERmm@PLT
 1016      00
 1017              	.LEHE13:
 1018 0c38 488B5424 		movq	104(%rsp), %rdx
 1018      68
 1019 0c3d 498907   		movq	%rax, (%r15)
 1020 0c40 49895710 		movq	%rdx, 16(%r15)
 1021              	.L26:
 1022 0c44 4889DA   		movq	%rbx, %rdx
 1023 0c47 4889EE   		movq	%rbp, %rsi
 1024 0c4a 4889C7   		movq	%rax, %rdi
 1025 0c4d E8000000 		call	memcpy@PLT
 1025      00
 1026 0c52 488B4424 		movq	64(%rsp), %rax
 1026      40
 1027 0c57 488B5C24 		movq	104(%rsp), %rbx
 1027      68
 1028 0c5c 488B4C24 		movq	64(%rsp), %rcx
 1028      40
 1029 0c61 488B00   		movq	(%rax), %rax
 1030 0c64 E97AF4FF 		jmp	.L28
 1030      FF
 1031 0c69 0F1F8000 		.p2align 4,,10
 1031      000000
 1032              		.p2align 3
 1033              	.L370:
 1034 0c70 48C74424 		movq	$0, 8(%rsp)
 1034      08000000 
 1034      00
 1035 0c79 E906FCFF 		jmp	.L128
 1035      FF
 1036 0c7e 6690     		.p2align 4,,10
 1037              		.p2align 3
 1038              	.L360:
 1039 0c80 48C74424 		movq	$0, 16(%rsp)
 1039      10000000 
 1039      00
 1040 0c89 488B4424 		movq	16(%rsp), %rax
 1040      10
 1041 0c8e E9FFF7FF 		jmp	.L81
 1041      FF
 1042              		.p2align 4,,10
 1043 0c93 0F1F4400 		.p2align 3
 1043      00
 1044              	.L47:
 1045 0c98 4D85E4   		testq	%r12, %r12
 1046 0c9b 0F84B0F5 		je	.L48
 1046      FFFF
 1047 0ca1 E91AF6FF 		jmp	.L46
 1047      FF
 1048 0ca6 662E0F1F 		.p2align 4,,10
 1048      84000000 
 1048      0000
 1049              		.p2align 3
 1050              	.L347:
 1051 0cb0 4C8B7C24 		movq	64(%rsp), %r15
 1051      40
 1052 0cb5 488D7424 		leaq	112(%rsp), %rsi
 1052      70
 1053 0cba 31D2     		xorl	%edx, %edx
 1054 0cbc 498D7F20 		leaq	32(%r15), %rdi
 1055              	.LEHB14:
 1056 0cc0 E8000000 		call	_ZNSt7__cxx1112basic_stringIcSt11char_traitsIcESaIcEE9_M_createERmm@PLT
 1056      00
 1057              	.LEHE14:
 1058 0cc5 488B5424 		movq	112(%rsp), %rdx
 1058      70
 1059 0cca 49894720 		movq	%rax, 32(%r15)
 1060 0cce 49895730 		movq	%rdx, 48(%r15)
 1061              	.L31:
 1062 0cd2 4889DA   		movq	%rbx, %rdx
 1063 0cd5 4889EE   		movq	%rbp, %rsi
 1064 0cd8 4889C7   		movq	%rax, %rdi
 1065 0cdb E8000000 		call	memcpy@PLT
 1065      00
 1066 0ce0 488B4424 		movq	64(%rsp), %rax
 1066      40
 1067 0ce5 488B5C24 		movq	112(%rsp), %rbx
 1067      70
 1068 0cea 488B7424 		movq	64(%rsp), %rsi
 1068      40
 1069 0cef 488B4020 		movq	32(%rax), %rax
 1070 0cf3 E946F4FF 		jmp	.L33
 1070      FF
 1071              	.L349:
 1072 0cf8 4C8B7C24 		movq	64(%rsp), %r15
 1072      40
 1073 0cfd 488D7424 		leaq	120(%rsp), %rsi
 1073      78
 1074 0d02 31D2     		xorl	%edx, %edx
 1075 0d04 498D7F40 		leaq	64(%r15), %rdi
 1076              	.LEHB15:
 1077 0d08 E8000000 		call	_ZNSt7__cxx1112basic_stringIcSt11char_traitsIcESaIcEE9_M_createERmm@PLT
 1077      00
 1078              	.LEHE15:
 1079 0d0d 488B5424 		movq	120(%rsp), %rdx
 1079      78
 1080 0d12 49894740 		movq	%rax, 64(%r15)
 1081 0d16 49895750 		movq	%rdx, 80(%r15)
 1082              	.L36:
 1083 0d1a 4889DA   		movq	%rbx, %rdx
 1084 0d1d 4889EE   		movq	%rbp, %rsi
 1085 0d20 4889C7   		movq	%rax, %rdi
 1086 0d23 E8000000 		call	memcpy@PLT
 1086      00
 1087 0d28 488B4424 		movq	64(%rsp), %rax
 1087      40
 1088 0d2d 488B5C24 		movq	120(%rsp), %rbx
 1088      78
 1089 0d32 488B7424 		movq	64(%rsp), %rsi
 1089      40
 1090 0d37 488B4040 		movq	64(%rax), %rax
 1091 0d3b E956F4FF 		jmp	.L38
 1091      FF
 1092              	.L343:
 1093 0d40 48B8FFFF 		movabsq	$144115188075855871, %rax
 1093      FFFFFFFF 
 1093      FF01
 1094 0d4a 4839C6   		cmpq	%rax, %rsi
 1095 0d4d 0F8719F3 		ja	.L176
 1095      FFFF
 1096 0d53 4885F6   		testq	%rsi, %rsi
 1097 0d56 0F85BDFE 		jne	.L20
 1097      FFFF
 1098 0d5c 48C74424 		movq	$0, 80(%rsp)
 1098      50000000 
 1098      00
 1099 0d65 E91AF3FF 		jmp	.L22
 1099      FF
 1100 0d6a 660F1F44 		.p2align 4,,10
 1100      0000
 1101              		.p2align 3
 1102              	.L63:
 1103 0d70 488B4424 		movq	80(%rsp), %rax
 1103      50
 1104 0d75 488D9880 		leaq	128(%rax), %rbx
 1104      000000
 1105 0d7c 488B4424 		movq	56(%rsp), %rax
 1105      38
 1106 0d81 488B4008 		movq	8(%rax), %rax
 1107 0d85 48394424 		cmpq	%rax, 48(%rsp)
 1107      30
 1108 0d8a 48894424 		movq	%rax, 40(%rsp)
 1108      28
 1109 0d8f 0F854BF9 		jne	.L342
 1109      FFFF
 1110 0d95 E9D8FCFF 		jmp	.L152
 1110      FF
 1111              	.L37:
 1112 0d9a 4885DB   		testq	%rbx, %rbx
 1113 0d9d 488B4424 		movq	40(%rsp), %rax
 1113      28
 1114 0da2 0F8572FF 		jne	.L36
 1114      FFFF
 1115 0da8 488B7424 		movq	64(%rsp), %rsi
 1115      40
 1116 0dad E9E4F3FF 		jmp	.L38
 1116      FF
 1117              	.L32:
 1118 0db2 4885DB   		testq	%rbx, %rbx
 1119 0db5 488B4424 		movq	32(%rsp), %rax
 1119      20
 1120 0dba 0F8512FF 		jne	.L31
 1120      FFFF
 1121 0dc0 488B7424 		movq	64(%rsp), %rsi
 1121      40
 1122 0dc5 E974F3FF 		jmp	.L33
 1122      FF
 1123              	.L27:
 1124 0dca 4885DB   		testq	%rbx, %rbx
 1125 0dcd 488B4424 		movq	24(%rsp), %rax
 1125      18
 1126 0dd2 0F856CFE 		jne	.L26
 1126      FFFF
 1127 0dd8 488B4C24 		movq	64(%rsp), %rcx
 1127      40
 1128 0ddd E901F3FF 		jmp	.L28
 1128      FF
 1129              	.L181:
 1130 0de2 4889CE   		movq	%rcx, %rsi
 1131 0de5 E9FBF4FF 		jmp	.L42
 1131      FF
 1132              	.L350:
 1133 0dea 48C74424 		movq	$0, 8(%rsp)
 1133      08000000 
 1133      00
 1134 0df3 4889F1   		movq	%rsi, %rcx
 1135 0df6 488B4424 		movq	8(%rsp), %rax
 1135      08
 1136 0dfb E90FF4FF 		jmp	.L40
 1136      FF
 1137              	.L362:
 1138 0e00 488D3D00 		leaq	.LC0(%rip), %rdi
 1138      000000
 1139              	.LEHB16:
 1140 0e07 E8000000 		call	_ZSt19__throw_logic_errorPKc@PLT
 1140      00
 1141              	.LEHE16:
 1142              	.L203:
 1143 0e0c 4889C7   		movq	%rax, %rdi
 1144 0e0f E8000000 		call	__cxa_begin_catch@PLT
 1144      00
 1145 0e14 4C8B6424 		movq	16(%rsp), %r12
 1145      10
 1146              	.L94:
 1147 0e19 4939EC   		cmpq	%rbp, %r12
 1148 0e1c 0F84C501 		je	.L92
 1148      0000
 1149 0e22 498B7C24 		movq	8(%r12), %rdi
 1149      08
 1150 0e27 498D4424 		leaq	24(%r12), %rax
 1150      18
 1151 0e2c 4839C7   		cmpq	%rax, %rdi
 1152 0e2f 7405     		je	.L93
 1153 0e31 E8000000 		call	_ZdlPv@PLT
 1153      00
 1154              	.L93:
 1155 0e36 4983C428 		addq	$40, %r12
 1156 0e3a EBDD     		jmp	.L94
 1157 0e3c 0F1F4000 		.p2align 4,,10
 1158              		.p2align 3
 1159              	.L372:
 1160 0e40 488D3D00 		leaq	.LC0(%rip), %rdi
 1160      000000
 1161              	.LEHB17:
 1162 0e47 E8000000 		call	_ZSt19__throw_logic_errorPKc@PLT
 1162      00
 1163              	.LEHE17:
 1164              	.L210:
 1165 0e4c 4889C7   		movq	%rax, %rdi
 1166 0e4f E8000000 		call	__cxa_begin_catch@PLT
 1166      00
 1167 0e54 4C8B6424 		movq	8(%rsp), %r12
 1167      08
 1168              	.L141:
 1169 0e59 4939EC   		cmpq	%rbp, %r12
 1170 0e5c 0F84E900 		je	.L139
 1170      0000
 1171 0e62 498B7C24 		movq	8(%r12), %rdi
 1171      08
 1172 0e67 498D4424 		leaq	24(%r12), %rax
 1172      18
 1173 0e6c 4839C7   		cmpq	%rax, %rdi
 1174 0e6f 7405     		je	.L140
 1175 0e71 E8000000 		call	_ZdlPv@PLT
 1175      00
 1176              	.L140:
 1177 0e76 4983C428 		addq	$40, %r12
 1178 0e7a EBDD     		jmp	.L141
 1179 0e7c 0F1F4000 		.p2align 4,,10
 1180              		.p2align 3
 1181              	.L371:
 1182              	.LEHB18:
 1183 0e80 E8000000 		call	_ZSt17__throw_bad_allocv@PLT
 1183      00
 1184              	.LEHE18:
 1185              	.L208:
 1186 0e85 4889C5   		movq	%rax, %rbp
 1187              	.L144:
 1188 0e88 488B7B40 		movq	64(%rbx), %rdi
 1189 0e8c 483B7C24 		cmpq	32(%rsp), %rdi
 1189      20
 1190 0e91 7405     		je	.L146
 1191 0e93 E8000000 		call	_ZdlPv@PLT
 1191      00
 1192              	.L146:
 1193 0e98 488B7B20 		movq	32(%rbx), %rdi
 1194 0e9c 483B7C24 		cmpq	24(%rsp), %rdi
 1194      18
 1195 0ea1 7405     		je	.L148
 1196 0ea3 E8000000 		call	_ZdlPv@PLT
 1196      00
 1197              	.L148:
 1198 0ea8 488B3B   		movq	(%rbx), %rdi
 1199 0eab 48397C24 		cmpq	%rdi, 16(%rsp)
 1199      10
 1200 0eb0 7405     		je	.L149
 1201 0eb2 E8000000 		call	_ZdlPv@PLT
 1201      00
 1202              	.L149:
 1203 0eb7 4889E8   		movq	%rbp, %rax
 1204              	.L150:
 1205 0eba 4889C7   		movq	%rax, %rdi
 1206 0ebd E8000000 		call	__cxa_begin_catch@PLT
 1206      00
 1207 0ec2 488B6C24 		movq	72(%rsp), %rbp
 1207      48
 1208              	.L155:
 1209 0ec7 4839DD   		cmpq	%rbx, %rbp
 1210 0eca 0F848000 		je	.L154
 1210      0000
 1211 0ed0 4889EF   		movq	%rbp, %rdi
 1212 0ed3 4883ED80 		subq	$-128, %rbp
 1213 0ed7 E8000000 		call	_ZN8UnitTest18DeferredTestResultD1Ev@PLT
 1213      00
 1214 0edc EBE9     		jmp	.L155
 1215 0ede 6690     		.p2align 4,,10
 1216              		.p2align 3
 1217              	.L361:
 1218              	.LEHB19:
 1219 0ee0 E8000000 		call	_ZSt17__throw_bad_allocv@PLT
 1219      00
 1220              	.LEHE19:
 1221              	.L201:
 1222 0ee5 4889C5   		movq	%rax, %rbp
 1223              	.L97:
 1224 0ee8 488B7B40 		movq	64(%rbx), %rdi
 1225 0eec 483B7C24 		cmpq	24(%rsp), %rdi
 1225      18
 1226 0ef1 7405     		je	.L99
 1227 0ef3 E8000000 		call	_ZdlPv@PLT
 1227      00
 1228              	.L99:
 1229 0ef8 488B7B20 		movq	32(%rbx), %rdi
 1230 0efc 483B7C24 		cmpq	32(%rsp), %rdi
 1230      20
 1231 0f01 7405     		je	.L101
 1232 0f03 E8000000 		call	_ZdlPv@PLT
 1232      00
 1233              	.L101:
 1234 0f08 488B3B   		movq	(%rbx), %rdi
 1235 0f0b 483B7C24 		cmpq	40(%rsp), %rdi
 1235      28
 1236 0f10 7405     		je	.L102
 1237 0f12 E8000000 		call	_ZdlPv@PLT
 1237      00
 1238              	.L102:
 1239 0f17 4889E8   		movq	%rbp, %rax
 1240              	.L103:
 1241 0f1a 4889C7   		movq	%rax, %rdi
 1242 0f1d E8000000 		call	__cxa_begin_catch@PLT
 1242      00
 1243 0f22 488B6C24 		movq	80(%rsp), %rbp
 1243      50
 1244              	.L108:
 1245 0f27 4839DD   		cmpq	%rbx, %rbp
 1246 0f2a 741A     		je	.L107
 1247 0f2c 4889EF   		movq	%rbp, %rdi
 1248 0f2f 4883ED80 		subq	$-128, %rbp
 1249 0f33 E8000000 		call	_ZN8UnitTest18DeferredTestResultD1Ev@PLT
 1249      00
 1250 0f38 EBED     		jmp	.L108
 1251              	.L368:
 1252 0f3a 488D3D00 		leaq	.LC0(%rip), %rdi
 1252      000000
 1253              	.LEHB20:
 1254 0f41 E8000000 		call	_ZSt19__throw_logic_errorPKc@PLT
 1254      00
 1255              	.LEHE20:
 1256              	.L107:
 1257              	.LEHB21:
 1258 0f46 E8000000 		call	__cxa_rethrow@PLT
 1258      00
 1259              	.LEHE21:
 1260              	.L139:
 1261              	.LEHB22:
 1262 0f4b E8000000 		call	__cxa_rethrow@PLT
 1262      00
 1263              	.LEHE22:
 1264              	.L154:
 1265              	.LEHB23:
 1266 0f50 E8000000 		call	__cxa_rethrow@PLT
 1266      00
 1267              	.LEHE23:
 1268              	.L197:
 1269 0f55 4889C3   		movq	%rax, %rbx
 1270 0f58 E8000000 		call	__cxa_end_catch@PLT
 1270      00
 1271 0f5d 4889DF   		movq	%rbx, %rdi
 1272 0f60 E8000000 		call	__cxa_begin_catch@PLT
 1272      00
 1273              	.L110:
 1274 0f65 488B7C24 		movq	64(%rsp), %rdi
 1274      40
 1275 0f6a E8000000 		call	_ZN8UnitTest18DeferredTestResultD1Ev@PLT
 1275      00
 1276              	.L170:
 1277 0f6f 48837C24 		cmpq	$0, 80(%rsp)
 1277      5000
 1278 0f75 740A     		je	.L171
 1279              	.L340:
 1280 0f77 488B7C24 		movq	80(%rsp), %rdi
 1280      50
 1281 0f7c E8000000 		call	_ZdlPv@PLT
 1281      00
 1282              	.L171:
 1283              	.LEHB24:
 1284 0f81 E8000000 		call	__cxa_rethrow@PLT
 1284      00
 1285              	.LEHE24:
 1286              	.L209:
 1287 0f86 4889C5   		movq	%rax, %rbp
 1288 0f89 E8000000 		call	__cxa_end_catch@PLT
 1288      00
 1289 0f8e 488B7B60 		movq	96(%rbx), %rdi
 1290 0f92 4885FF   		testq	%rdi, %rdi
 1291 0f95 0F84EDFE 		je	.L144
 1291      FFFF
 1292 0f9b E8000000 		call	_ZdlPv@PLT
 1292      00
 1293 0fa0 E9E3FEFF 		jmp	.L144
 1293      FF
 1294              	.L204:
 1295 0fa5 4889C3   		movq	%rax, %rbx
 1296 0fa8 E8000000 		call	__cxa_end_catch@PLT
 1296      00
 1297 0fad 4889DF   		movq	%rbx, %rdi
 1298 0fb0 E8000000 		call	__cxa_begin_catch@PLT
 1298      00
 1299 0fb5 48837C24 		cmpq	$0, 72(%rsp)
 1299      4800
 1300 0fbb 74A8     		je	.L110
 1301 0fbd 488B5C24 		movq	80(%rsp), %rbx
 1301      50
 1302              	.L157:
 1303 0fc2 483B5C24 		cmpq	72(%rsp), %rbx
 1303      48
 1304 0fc7 74A6     		je	.L170
 1305 0fc9 4889DF   		movq	%rbx, %rdi
 1306 0fcc 4883EB80 		subq	$-128, %rbx
 1307 0fd0 E8000000 		call	_ZN8UnitTest18DeferredTestResultD1Ev@PLT
 1307      00
 1308 0fd5 EBEB     		jmp	.L157
 1309              	.L191:
 1310 0fd7 4889C3   		movq	%rax, %rbx
 1311 0fda E8000000 		call	__cxa_end_catch@PLT
 1311      00
 1312 0fdf 4889DF   		movq	%rbx, %rdi
 1313              	.LEHB25:
 1314 0fe2 E8000000 		call	_Unwind_Resume@PLT
 1314      00
 1315              	.LEHE25:
 1316              	.L92:
 1317              	.LEHB26:
 1318 0fe7 E8000000 		call	__cxa_rethrow@PLT
 1318      00
 1319              	.LEHE26:
 1320              	.L202:
 1321 0fec 4889C5   		movq	%rax, %rbp
 1322 0fef E8000000 		call	__cxa_end_catch@PLT
 1322      00
 1323 0ff4 488B7B60 		movq	96(%rbx), %rdi
 1324 0ff8 4885FF   		testq	%rdi, %rdi
 1325 0ffb 0F84E7FE 		je	.L97
 1325      FFFF
 1326 1001 E8000000 		call	_ZdlPv@PLT
 1326      00
 1327 1006 E9DDFEFF 		jmp	.L97
 1327      FF
 1328              	.L205:
 1329 100b E9AAFEFF 		jmp	.L150
 1329      FF
 1330              	.L374:
 1331 1010 E8000000 		call	__stack_chk_fail@PLT
 1331      00
 1332              	.L351:
 1333              	.LEHB27:
 1334 1015 E8000000 		call	_ZSt17__throw_bad_allocv@PLT
 1334      00
 1335              	.LEHE27:
 1336              	.L194:
 1337 101a 4889C3   		movq	%rax, %rbx
 1338              	.L56:
 1339 101d 488B4424 		movq	64(%rsp), %rax
 1339      40
 1340 1022 488B7840 		movq	64(%rax), %rdi
 1341 1026 48397C24 		cmpq	%rdi, 40(%rsp)
 1341      28
 1342 102b 7405     		je	.L58
 1343 102d E8000000 		call	_ZdlPv@PLT
 1343      00
 1344              	.L58:
 1345 1032 488B4424 		movq	64(%rsp), %rax
 1345      40
 1346 1037 488B7820 		movq	32(%rax), %rdi
 1347 103b 48397C24 		cmpq	%rdi, 32(%rsp)
 1347      20
 1348 1040 7405     		je	.L60
 1349 1042 E8000000 		call	_ZdlPv@PLT
 1349      00
 1350              	.L60:
 1351 1047 488B4424 		movq	64(%rsp), %rax
 1351      40
 1352 104c 488B38   		movq	(%rax), %rdi
 1353 104f 48397C24 		cmpq	%rdi, 24(%rsp)
 1353      18
 1354 1054 7405     		je	.L61
 1355 1056 E8000000 		call	_ZdlPv@PLT
 1355      00
 1356              	.L61:
 1357 105b 4889D8   		movq	%rbx, %rax
 1358              	.L62:
 1359 105e 4889C7   		movq	%rax, %rdi
 1360 1061 E8000000 		call	__cxa_begin_catch@PLT
 1360      00
 1361 1066 48837C24 		cmpq	$0, 80(%rsp)
 1361      5000
 1362 106c 0F8505FF 		jne	.L340
 1362      FFFF
 1363 1072 E9EEFEFF 		jmp	.L110
 1363      FF
 1364              	.L198:
 1365 1077 E99EFEFF 		jmp	.L103
 1365      FF
 1366              	.L192:
 1367 107c 4889C3   		movq	%rax, %rbx
 1368 107f EBC6     		jmp	.L60
 1369              	.L193:
 1370 1081 4889C3   		movq	%rax, %rbx
 1371 1084 EBAC     		jmp	.L58
 1372              	.L353:
 1373 1086 488D3D00 		leaq	.LC0(%rip), %rdi
 1373      000000
 1374              	.LEHB28:
 1375 108d E8000000 		call	_ZSt19__throw_logic_errorPKc@PLT
 1375      00
 1376              	.LEHE28:
 1377              	.L354:
 1378 1092 488D3D00 		leaq	.LC0(%rip), %rdi
 1378      000000
 1379              	.LEHB29:
 1380 1099 E8000000 		call	_ZSt19__throw_logic_errorPKc@PLT
 1380      00
 1381              	.LEHE29:
 1382              	.L346:
 1383 109e 488D3D00 		leaq	.LC0(%rip), %rdi
 1383      000000
 1384              	.LEHB30:
 1385 10a5 E8000000 		call	_ZSt19__throw_logic_errorPKc@PLT
 1385      00
 1386              	.LEHE30:
 1387              	.L358:
 1388 10aa 488D3D00 		leaq	.LC0(%rip), %rdi
 1388      000000
 1389              	.LEHB31:
 1390 10b1 E8000000 		call	_ZSt19__throw_logic_errorPKc@PLT
 1390      00
 1391              	.LEHE31:
 1392              	.L356:
 1393 10b6 488D3D00 		leaq	.LC0(%rip), %rdi
 1393      000000
 1394              	.LEHB32:
 1395 10bd E8000000 		call	_ZSt19__throw_logic_errorPKc@PLT
 1395      00
 1396              	.LEHE32:
 1397              	.L206:
 1398 10c2 4889C5   		movq	%rax, %rbp
 1399 10c5 E9DEFDFF 		jmp	.L148
 1399      FF
 1400              	.L207:
 1401 10ca 4889C5   		movq	%rax, %rbp
 1402 10cd E9C6FDFF 		jmp	.L146
 1402      FF
 1403              	.L366:
 1404 10d2 488D3D00 		leaq	.LC0(%rip), %rdi
 1404      000000
 1405              	.LEHB33:
 1406 10d9 E8000000 		call	_ZSt19__throw_logic_errorPKc@PLT
 1406      00
 1407              	.LEHE33:
 1408              	.L364:
 1409 10de 488D3D00 		leaq	.LC0(%rip), %rdi
 1409      000000
 1410              	.LEHB34:
 1411 10e5 E8000000 		call	_ZSt19__throw_logic_errorPKc@PLT
 1411      00
 1412              	.LEHE34:
 1413              	.L199:
 1414 10ea 4889C5   		movq	%rax, %rbp
 1415 10ed E916FEFF 		jmp	.L101
 1415      FF
 1416              	.L200:
 1417 10f2 4889C5   		movq	%rax, %rbp
 1418 10f5 E9FEFDFF 		jmp	.L99
 1418      FF
 1419              	.L211:
 1420 10fa E95FFFFF 		jmp	.L62
 1420      FF
 1421              	.L348:
 1422 10ff 488D3D00 		leaq	.LC0(%rip), %rdi
 1422      000000
 1423              	.LEHB35:
 1424 1106 E8000000 		call	_ZSt19__throw_logic_errorPKc@PLT
 1424      00
 1425              	.LEHE35:
 1426              	.L196:
 1427 110b 4889C7   		movq	%rax, %rdi
 1428 110e E8000000 		call	__cxa_begin_catch@PLT
 1428      00
 1429 1113 488B6C24 		movq	8(%rsp), %rbp
 1429      08
 1430              	.L53:
 1431 1118 4839DD   		cmpq	%rbx, %rbp
 1432 111b 7418     		je	.L51
 1433 111d 488B7D08 		movq	8(%rbp), %rdi
 1434 1121 488D4518 		leaq	24(%rbp), %rax
 1435 1125 4839C7   		cmpq	%rax, %rdi
 1436 1128 7405     		je	.L52
 1437 112a E8000000 		call	_ZdlPv@PLT
 1437      00
 1438              	.L52:
 1439 112f 4883C528 		addq	$40, %rbp
 1440 1133 EBE3     		jmp	.L53
 1441              	.L51:
 1442              	.LEHB36:
 1443 1135 E8000000 		call	__cxa_rethrow@PLT
 1443      00
 1444              	.LEHE36:
 1445              	.L344:
 1446 113a 488D3D00 		leaq	.LC0(%rip), %rdi
 1446      000000
 1447              	.LEHB37:
 1448 1141 E8000000 		call	_ZSt19__throw_logic_errorPKc@PLT
 1448      00
 1449              	.LEHE37:
 1450              	.L195:
 1451 1146 4889C3   		movq	%rax, %rbx
 1452 1149 E8000000 		call	__cxa_end_catch@PLT
 1452      00
 1453 114e 488B4424 		movq	64(%rsp), %rax
 1453      40
 1454 1153 488B7860 		movq	96(%rax), %rdi
 1455 1157 4885FF   		testq	%rdi, %rdi
 1456 115a 0F84BDFE 		je	.L56
 1456      FFFF
 1457 1160 E8000000 		call	_ZdlPv@PLT
 1457      00
 1458 1165 E9B3FEFF 		jmp	.L56
 1458      FF
 1459              		.cfi_endproc
 1460              	.LFE965:
 1461              		.globl	__gxx_personality_v0
 1462              		.section	.gcc_except_table._ZNSt6vectorIN8UnitTest18DeferredTestResultESaIS1_EE17_M_realloc_insert
 1463              		.align 4
 1464              	.LLSDA965:
 1465 0000 FF       		.byte	0xff
 1466 0001 9B       		.byte	0x9b
 1467 0002 EC01     		.uleb128 .LLSDATT965-.LLSDATTD965
 1468              	.LLSDATTD965:
 1469 0004 01       		.byte	0x1
 1470 0005 E101     		.uleb128 .LLSDACSE965-.LLSDACSB965
 1471              	.LLSDACSB965:
 1472 0007 7A       		.uleb128 .LEHB0-.LFB965
 1473 0008 05       		.uleb128 .LEHE0-.LEHB0
 1474 0009 00       		.uleb128 0
 1475 000a 00       		.uleb128 0
 1476 000b F803     		.uleb128 .LEHB1-.LFB965
 1477 000d 05       		.uleb128 .LEHE1-.LEHB1
 1478 000e 9A20     		.uleb128 .L194-.LFB965
 1479 0010 03       		.uleb128 0x3
 1480 0011 AB05     		.uleb128 .LEHB2-.LFB965
 1481 0013 05       		.uleb128 .LEHE2-.LEHB2
 1482 0014 8B22     		.uleb128 .L196-.LFB965
 1483 0016 01       		.uleb128 0x1
 1484 0017 8809     		.uleb128 .LEHB3-.LFB965
 1485 0019 05       		.uleb128 .LEHE3-.LEHB3
 1486 001a E51D     		.uleb128 .L201-.LFB965
 1487 001c 03       		.uleb128 0x3
 1488 001d B10A     		.uleb128 .LEHB4-.LFB965
 1489 001f 05       		.uleb128 .LEHE4-.LEHB4
 1490 0020 8C1C     		.uleb128 .L203-.LFB965
 1491 0022 01       		.uleb128 0x1
 1492 0023 BD0B     		.uleb128 .LEHB5-.LFB965
 1493 0025 05       		.uleb128 .LEHE5-.LEHB5
 1494 0026 F720     		.uleb128 .L198-.LFB965
 1495 0028 01       		.uleb128 0x1
 1496 0029 FE0B     		.uleb128 .LEHB6-.LFB965
 1497 002b 05       		.uleb128 .LEHE6-.LEHB6
 1498 002c F221     		.uleb128 .L200-.LFB965
 1499 002e 03       		.uleb128 0x3
 1500 002f C60C     		.uleb128 .LEHB7-.LFB965
 1501 0031 05       		.uleb128 .LEHE7-.LEHB7
 1502 0032 EA21     		.uleb128 .L199-.LFB965
 1503 0034 03       		.uleb128 0x3
 1504 0035 EE10     		.uleb128 .LEHB8-.LFB965
 1505 0037 05       		.uleb128 .LEHE8-.LEHB8
 1506 0038 851D     		.uleb128 .L208-.LFB965
 1507 003a 03       		.uleb128 0x3
 1508 003b 9B12     		.uleb128 .LEHB9-.LFB965
 1509 003d 05       		.uleb128 .LEHE9-.LEHB9
 1510 003e CC1C     		.uleb128 .L210-.LFB965
 1511 0040 01       		.uleb128 0x1
 1512 0041 8516     		.uleb128 .LEHB10-.LFB965
 1513 0043 05       		.uleb128 .LEHE10-.LEHB10
 1514 0044 8B20     		.uleb128 .L205-.LFB965
 1515 0046 01       		.uleb128 0x1
 1516 0047 CE16     		.uleb128 .LEHB11-.LFB965
 1517 0049 05       		.uleb128 .LEHE11-.LEHB11
 1518 004a CA21     		.uleb128 .L207-.LFB965
 1519 004c 03       		.uleb128 0x3
 1520 004d 9617     		.uleb128 .LEHB12-.LFB965
 1521 004f 05       		.uleb128 .LEHE12-.LEHB12
 1522 0050 C221     		.uleb128 .L206-.LFB965
 1523 0052 03       		.uleb128 0x3
 1524 0053 B318     		.uleb128 .LEHB13-.LFB965
 1525 0055 05       		.uleb128 .LEHE13-.LEHB13
 1526 0056 FA21     		.uleb128 .L211-.LFB965
 1527 0058 01       		.uleb128 0x1
 1528 0059 C019     		.uleb128 .LEHB14-.LFB965
 1529 005b 05       		.uleb128 .LEHE14-.LEHB14
 1530 005c FC20     		.uleb128 .L192-.LFB965
 1531 005e 03       		.uleb128 0x3
 1532 005f 881A     		.uleb128 .LEHB15-.LFB965
 1533 0061 05       		.uleb128 .LEHE15-.LEHB15
 1534 0062 8121     		.uleb128 .L193-.LFB965
 1535 0064 03       		.uleb128 0x3
 1536 0065 871C     		.uleb128 .LEHB16-.LFB965
 1537 0067 05       		.uleb128 .LEHE16-.LEHB16
 1538 0068 8C1C     		.uleb128 .L203-.LFB965
 1539 006a 01       		.uleb128 0x1
 1540 006b C71C     		.uleb128 .LEHB17-.LFB965
 1541 006d 05       		.uleb128 .LEHE17-.LEHB17
 1542 006e CC1C     		.uleb128 .L210-.LFB965
 1543 0070 01       		.uleb128 0x1
 1544 0071 801D     		.uleb128 .LEHB18-.LFB965
 1545 0073 05       		.uleb128 .LEHE18-.LEHB18
 1546 0074 851D     		.uleb128 .L208-.LFB965
 1547 0076 03       		.uleb128 0x3
 1548 0077 E01D     		.uleb128 .LEHB19-.LFB965
 1549 0079 05       		.uleb128 .LEHE19-.LEHB19
 1550 007a E51D     		.uleb128 .L201-.LFB965
 1551 007c 03       		.uleb128 0x3
 1552 007d C11E     		.uleb128 .LEHB20-.LFB965
 1553 007f 05       		.uleb128 .LEHE20-.LEHB20
 1554 0080 CA21     		.uleb128 .L207-.LFB965
 1555 0082 03       		.uleb128 0x3
 1556 0083 C61E     		.uleb128 .LEHB21-.LFB965
 1557 0085 05       		.uleb128 .LEHE21-.LEHB21
 1558 0086 D51E     		.uleb128 .L197-.LFB965
 1559 0088 03       		.uleb128 0x3
 1560 0089 CB1E     		.uleb128 .LEHB22-.LFB965
 1561 008b 05       		.uleb128 .LEHE22-.LEHB22
 1562 008c 861F     		.uleb128 .L209-.LFB965
 1563 008e 03       		.uleb128 0x3
 1564 008f D01E     		.uleb128 .LEHB23-.LFB965
 1565 0091 05       		.uleb128 .LEHE23-.LEHB23
 1566 0092 A51F     		.uleb128 .L204-.LFB965
 1567 0094 03       		.uleb128 0x3
 1568 0095 811F     		.uleb128 .LEHB24-.LFB965
 1569 0097 05       		.uleb128 .LEHE24-.LEHB24
 1570 0098 D71F     		.uleb128 .L191-.LFB965
 1571 009a 00       		.uleb128 0
 1572 009b E21F     		.uleb128 .LEHB25-.LFB965
 1573 009d 05       		.uleb128 .LEHE25-.LEHB25
 1574 009e 00       		.uleb128 0
 1575 009f 00       		.uleb128 0
 1576 00a0 E71F     		.uleb128 .LEHB26-.LFB965
 1577 00a2 05       		.uleb128 .LEHE26-.LEHB26
 1578 00a3 EC1F     		.uleb128 .L202-.LFB965
 1579 00a5 03       		.uleb128 0x3
 1580 00a6 9520     		.uleb128 .LEHB27-.LFB965
 1581 00a8 05       		.uleb128 .LEHE27-.LEHB27
 1582 00a9 9A20     		.uleb128 .L194-.LFB965
 1583 00ab 03       		.uleb128 0x3
 1584 00ac 8D21     		.uleb128 .LEHB28-.LFB965
 1585 00ae 05       		.uleb128 .LEHE28-.LEHB28
 1586 00af 8B22     		.uleb128 .L196-.LFB965
 1587 00b1 01       		.uleb128 0x1
 1588 00b2 9921     		.uleb128 .LEHB29-.LFB965
 1589 00b4 05       		.uleb128 .LEHE29-.LEHB29
 1590 00b5 F720     		.uleb128 .L198-.LFB965
 1591 00b7 01       		.uleb128 0x1
 1592 00b8 A521     		.uleb128 .LEHB30-.LFB965
 1593 00ba 05       		.uleb128 .LEHE30-.LEHB30
 1594 00bb FC20     		.uleb128 .L192-.LFB965
 1595 00bd 03       		.uleb128 0x3
 1596 00be B121     		.uleb128 .LEHB31-.LFB965
 1597 00c0 05       		.uleb128 .LEHE31-.LEHB31
 1598 00c1 F221     		.uleb128 .L200-.LFB965
 1599 00c3 03       		.uleb128 0x3
 1600 00c4 BD21     		.uleb128 .LEHB32-.LFB965
 1601 00c6 05       		.uleb128 .LEHE32-.LEHB32
 1602 00c7 EA21     		.uleb128 .L199-.LFB965
 1603 00c9 03       		.uleb128 0x3
 1604 00ca D921     		.uleb128 .LEHB33-.LFB965
 1605 00cc 05       		.uleb128 .LEHE33-.LEHB33
 1606 00cd C221     		.uleb128 .L206-.LFB965
 1607 00cf 03       		.uleb128 0x3
 1608 00d0 E521     		.uleb128 .LEHB34-.LFB965
 1609 00d2 05       		.uleb128 .LEHE34-.LEHB34
 1610 00d3 8B20     		.uleb128 .L205-.LFB965
 1611 00d5 01       		.uleb128 0x1
 1612 00d6 8622     		.uleb128 .LEHB35-.LFB965
 1613 00d8 05       		.uleb128 .LEHE35-.LEHB35
 1614 00d9 8121     		.uleb128 .L193-.LFB965
 1615 00db 03       		.uleb128 0x3
 1616 00dc B522     		.uleb128 .LEHB36-.LFB965
 1617 00de 05       		.uleb128 .LEHE36-.LEHB36
 1618 00df C622     		.uleb128 .L195-.LFB965
 1619 00e1 03       		.uleb128 0x3
 1620 00e2 C122     		.uleb128 .LEHB37-.LFB965
 1621 00e4 05       		.uleb128 .LEHE37-.LEHB37
 1622 00e5 FA21     		.uleb128 .L211-.LFB965
 1623 00e7 01       		.uleb128 0x1
 1624              	.LLSDACSE965:
 1625 00e8 01       		.byte	0x1
 1626 00e9 00       		.byte	0
 1627 00ea 00       		.byte	0
 1628 00eb 7D       		.byte	0x7d
 1629              		.align 4
 1630 00ec 00000000 		.long	0
 1631              	
 1632              	.LLSDATT965:
 1633              		.section	.text._ZNSt6vectorIN8UnitTest18DeferredTestResultESaIS1_EE17_M_realloc_insertEN9__gnu_cxx
 1635              		.text
 1636 0015 90       		.align 2
 1637 0016 662E0F1F 		.p2align 4,,15
 1637      84000000 
 1637      0000
 1638              		.globl	_ZN8UnitTest20DeferredTestReporter15ReportTestStartERKNS_11TestDetailsE
 1640              	_ZN8UnitTest20DeferredTestReporter15ReportTestStartERKNS_11TestDetailsE:
 1641              	.LFB917:
 1642              		.cfi_startproc
 1643              		.cfi_personality 0x9b,DW.ref.__gxx_personality_v0
 1644              		.cfi_lsda 0x1b,.LLSDA917
 1645 0020 4157     		pushq	%r15
 1646              		.cfi_def_cfa_offset 16
 1647              		.cfi_offset 15, -16
 1648 0022 4156     		pushq	%r14
 1649              		.cfi_def_cfa_offset 24
 1650              		.cfi_offset 14, -24
 1651 0024 4155     		pushq	%r13
 1652              		.cfi_def_cfa_offset 32
 1653              		.cfi_offset 13, -32
 1654 0026 4154     		pushq	%r12
 1655              		.cfi_def_cfa_offset 40
 1656              		.cfi_offset 12, -40
 1657 0028 55       		pushq	%rbp
 1658              		.cfi_def_cfa_offset 48
 1659              		.cfi_offset 6, -48
 1660 0029 53       		pushq	%rbx
 1661              		.cfi_def_cfa_offset 56
 1662              		.cfi_offset 3, -56
 1663 002a 4889FB   		movq	%rdi, %rbx
 1664 002d 4881ECF8 		subq	$248, %rsp
 1664      000000
 1665              		.cfi_def_cfa_offset 304
 1666 0034 488B5608 		movq	8(%rsi), %rdx
 1667 0038 488B36   		movq	(%rsi), %rsi
 1668 003b 4C8D7424 		leaq	96(%rsp), %r14
 1668      60
 1669 0040 48897C24 		movq	%rdi, 16(%rsp)
 1669      10
 1670 0045 64488B04 		movq	%fs:40, %rax
 1670      25280000 
 1670      00
 1671 004e 48898424 		movq	%rax, 232(%rsp)
 1671      E8000000 
 1672 0056 31C0     		xorl	%eax, %eax
 1673 0058 4C89F7   		movq	%r14, %rdi
 1674              	.LEHB38:
 1675 005b E8000000 		call	_ZN8UnitTest18DeferredTestResultC1EPKcS2_@PLT
 1675      00
 1676              	.LEHE38:
 1677 0060 488B6B10 		movq	16(%rbx), %rbp
 1678 0064 483B6B18 		cmpq	24(%rbx), %rbp
 1679 0068 0F84A203 		je	.L376
 1679      0000
 1680 006e 4885ED   		testq	%rbp, %rbp
 1681 0071 0F846902 		je	.L377
 1681      0000
 1682 0077 488D4510 		leaq	16(%rbp), %rax
 1683 007b 48894500 		movq	%rax, 0(%rbp)
 1684 007f 4C8B6424 		movq	96(%rsp), %r12
 1684      60
 1685 0084 488B5C24 		movq	104(%rsp), %rbx
 1685      68
 1686 0089 48894424 		movq	%rax, 56(%rsp)
 1686      38
 1687 008e 4C89E0   		movq	%r12, %rax
 1688 0091 4801D8   		addq	%rbx, %rax
 1689 0094 7409     		je	.L378
 1690 0096 4D85E4   		testq	%r12, %r12
 1691 0099 0F843205 		je	.L479
 1691      0000
 1692              	.L378:
 1693 009f 4883FB0F 		cmpq	$15, %rbx
 1694 00a3 48895C24 		movq	%rbx, 64(%rsp)
 1694      40
 1695 00a8 0F870A04 		ja	.L480
 1695      0000
 1696 00ae 4883FB01 		cmpq	$1, %rbx
 1697 00b2 488B4500 		movq	0(%rbp), %rax
 1698 00b6 0F856404 		jne	.L381
 1698      0000
 1699 00bc 410FB614 		movzbl	(%r12), %edx
 1699      24
 1700 00c1 8810     		movb	%dl, (%rax)
 1701 00c3 488B5C24 		movq	64(%rsp), %rbx
 1701      40
 1702 00c8 488B4500 		movq	0(%rbp), %rax
 1703              	.L382:
 1704 00cc 48895D08 		movq	%rbx, 8(%rbp)
 1705 00d0 C6041800 		movb	$0, (%rax,%rbx)
 1706 00d4 488D4530 		leaq	48(%rbp), %rax
 1707 00d8 48894520 		movq	%rax, 32(%rbp)
 1708 00dc 4C8BA424 		movq	128(%rsp), %r12
 1708      80000000 
 1709 00e4 488B9C24 		movq	136(%rsp), %rbx
 1709      88000000 
 1710 00ec 48894424 		movq	%rax, 40(%rsp)
 1710      28
 1711 00f1 4C89E0   		movq	%r12, %rax
 1712 00f4 4801D8   		addq	%rbx, %rax
 1713 00f7 7409     		je	.L383
 1714 00f9 4D85E4   		testq	%r12, %r12
 1715 00fc 0F84DB04 		je	.L481
 1715      0000
 1716              	.L383:
 1717 0102 4883FB0F 		cmpq	$15, %rbx
 1718 0106 48895C24 		movq	%rbx, 72(%rsp)
 1718      48
 1719 010b 0F876703 		ja	.L482
 1719      0000
 1720 0111 4883FB01 		cmpq	$1, %rbx
 1721 0115 0F85ED03 		jne	.L386
 1721      0000
 1722 011b 410FB604 		movzbl	(%r12), %eax
 1722      24
 1723 0120 884530   		movb	%al, 48(%rbp)
 1724 0123 488B4424 		movq	40(%rsp), %rax
 1724      28
 1725              	.L387:
 1726 0128 48895D28 		movq	%rbx, 40(%rbp)
 1727 012c C6041800 		movb	$0, (%rax,%rbx)
 1728 0130 488D4550 		leaq	80(%rbp), %rax
 1729 0134 48894540 		movq	%rax, 64(%rbp)
 1730 0138 4C8BA424 		movq	160(%rsp), %r12
 1730      A0000000 
 1731 0140 488B9C24 		movq	168(%rsp), %rbx
 1731      A8000000 
 1732 0148 48894424 		movq	%rax, 48(%rsp)
 1732      30
 1733 014d 4C89E0   		movq	%r12, %rax
 1734 0150 4801D8   		addq	%rbx, %rax
 1735 0153 7409     		je	.L388
 1736 0155 4D85E4   		testq	%r12, %r12
 1737 0158 0F842704 		je	.L483
 1737      0000
 1738              	.L388:
 1739 015e 4883FB0F 		cmpq	$15, %rbx
 1740 0162 48895C24 		movq	%rbx, 80(%rsp)
 1740      50
 1741 0167 0F87CB02 		ja	.L484
 1741      0000
 1742 016d 4883FB01 		cmpq	$1, %rbx
 1743 0171 0F857903 		jne	.L391
 1743      0000
 1744 0177 410FB604 		movzbl	(%r12), %eax
 1744      24
 1745 017c 884550   		movb	%al, 80(%rbp)
 1746 017f 488B4424 		movq	48(%rsp), %rax
 1746      30
 1747              	.L392:
 1748 0184 48895D48 		movq	%rbx, 72(%rbp)
 1749 0188 C6041800 		movb	$0, (%rax,%rbx)
 1750 018c 48BACDCC 		movabsq	$-3689348814741910323, %rdx
 1750      CCCCCCCC 
 1750      CCCC
 1751 0196 488B9C24 		movq	200(%rsp), %rbx
 1751      C8000000 
 1752 019e 482B9C24 		subq	192(%rsp), %rbx
 1752      C0000000 
 1753 01a6 48C74568 		movq	$0, 104(%rbp)
 1753      00000000 
 1754 01ae 48C74560 		movq	$0, 96(%rbp)
 1754      00000000 
 1755 01b6 48C74570 		movq	$0, 112(%rbp)
 1755      00000000 
 1756 01be 4889D8   		movq	%rbx, %rax
 1757 01c1 48C1F803 		sarq	$3, %rax
 1758 01c5 480FAFC2 		imulq	%rdx, %rax
 1759 01c9 4885C0   		testq	%rax, %rax
 1760 01cc 0F845E03 		je	.L485
 1760      0000
 1761 01d2 48BA6666 		movabsq	$461168601842738790, %rdx
 1761      66666666 
 1761      6606
 1762 01dc 4839D0   		cmpq	%rdx, %rax
 1763 01df 0F87E703 		ja	.L486
 1763      0000
 1764 01e5 4889DF   		movq	%rbx, %rdi
 1765              	.LEHB39:
 1766 01e8 E8000000 		call	_Znwm@PLT
 1766      00
 1767              	.LEHE39:
 1768 01ed 48894424 		movq	%rax, 24(%rsp)
 1768      18
 1769 01f2 4989C4   		movq	%rax, %r12
 1770              	.L394:
 1771 01f5 4C01E3   		addq	%r12, %rbx
 1772 01f8 4C896560 		movq	%r12, 96(%rbp)
 1773 01fc 4C896568 		movq	%r12, 104(%rbp)
 1774 0200 48895D70 		movq	%rbx, 112(%rbp)
 1775 0204 488B8424 		movq	200(%rsp), %rax
 1775      C8000000 
 1776 020c 488B9C24 		movq	192(%rsp), %rbx
 1776      C0000000 
 1777 0214 48894424 		movq	%rax, 8(%rsp)
 1777      08
 1778 0219 4839D8   		cmpq	%rbx, %rax
 1779 021c 0F84A601 		je	.L396
 1779      0000
 1780 0222 488D4424 		leaq	88(%rsp), %rax
 1780      58
 1781 0227 48894424 		movq	%rax, 32(%rsp)
 1781      20
 1782 022c EB32     		jmp	.L403
 1783 022e 6690     		.p2align 4,,10
 1784              		.p2align 3
 1785              	.L399:
 1786 0230 4983FD01 		cmpq	$1, %r13
 1787 0234 0F85BE01 		jne	.L401
 1787      0000
 1788 023a 410FB617 		movzbl	(%r15), %edx
 1789 023e 41885424 		movb	%dl, 24(%r12)
 1789      18
 1790              	.L402:
 1791 0243 4D896C24 		movq	%r13, 16(%r12)
 1791      10
 1792 0248 42C60428 		movb	$0, (%rax,%r13)
 1792      00
 1793              	.L397:
 1794 024d 4983C428 		addq	$40, %r12
 1795 0251 4883C328 		addq	$40, %rbx
 1796 0255 48395C24 		cmpq	%rbx, 8(%rsp)
 1796      08
 1797 025a 0F846001 		je	.L487
 1797      0000
 1798              	.L403:
 1799 0260 4D85E4   		testq	%r12, %r12
 1800 0263 74E8     		je	.L397
 1801 0265 8B03     		movl	(%rbx), %eax
 1802 0267 41890424 		movl	%eax, (%r12)
 1803 026b 498D4424 		leaq	24(%r12), %rax
 1803      18
 1804 0270 49894424 		movq	%rax, 8(%r12)
 1804      08
 1805 0275 4C8B7B08 		movq	8(%rbx), %r15
 1806 0279 4C8B6B10 		movq	16(%rbx), %r13
 1807 027d 4C89F9   		movq	%r15, %rcx
 1808 0280 4C01E9   		addq	%r13, %rcx
 1809 0283 7409     		je	.L398
 1810 0285 4D85FF   		testq	%r15, %r15
 1811 0288 0F840303 		je	.L488
 1811      0000
 1812              	.L398:
 1813 028e 4983FD0F 		cmpq	$15, %r13
 1814 0292 4C896C24 		movq	%r13, 88(%rsp)
 1814      58
 1815 0297 7697     		jbe	.L399
 1816 0299 488B7424 		movq	32(%rsp), %rsi
 1816      20
 1817 029e 498D7C24 		leaq	8(%r12), %rdi
 1817      08
 1818 02a3 31D2     		xorl	%edx, %edx
 1819              	.LEHB40:
 1820 02a5 E8000000 		call	_ZNSt7__cxx1112basic_stringIcSt11char_traitsIcESaIcEE9_M_createERmm@PLT
 1820      00
 1821              	.LEHE40:
 1822 02aa 488B5424 		movq	88(%rsp), %rdx
 1822      58
 1823 02af 49894424 		movq	%rax, 8(%r12)
 1823      08
 1824 02b4 49895424 		movq	%rdx, 24(%r12)
 1824      18
 1825              	.L400:
 1826 02b9 4C89EA   		movq	%r13, %rdx
 1827 02bc 4C89FE   		movq	%r15, %rsi
 1828 02bf 4889C7   		movq	%rax, %rdi
 1829 02c2 E8000000 		call	memcpy@PLT
 1829      00
 1830 02c7 4C8B6C24 		movq	88(%rsp), %r13
 1830      58
 1831 02cc 498B4424 		movq	8(%r12), %rax
 1831      08
 1832 02d1 E96DFFFF 		jmp	.L402
 1832      FF
 1833 02d6 662E0F1F 		.p2align 4,,10
 1833      84000000 
 1833      0000
 1834              		.p2align 3
 1835              	.L377:
 1836 02e0 488B9C24 		movq	192(%rsp), %rbx
 1836      C0000000 
 1837 02e8 488B4424 		movq	16(%rsp), %rax
 1837      10
 1838              	.L404:
 1839 02ed 4883ED80 		subq	$-128, %rbp
 1840 02f1 48896810 		movq	%rbp, 16(%rax)
 1841              	.L418:
 1842 02f5 488BBC24 		movq	200(%rsp), %rdi
 1842      C8000000 
 1843 02fd 4839FB   		cmpq	%rdi, %rbx
 1844 0300 7444     		je	.L419
 1845 0302 488D6B28 		leaq	40(%rbx), %rbp
 1846 0306 4829EF   		subq	%rbp, %rdi
 1847 0309 48C1EF03 		shrq	$3, %rdi
 1848 030d 4C8D64FB 		leaq	40(%rbx,%rdi,8), %r12
 1848      28
 1849 0312 EB15     		jmp	.L420
 1850              		.p2align 4,,10
 1851 0314 0F1F4000 		.p2align 3
 1852              	.L489:
 1853 0318 E8000000 		call	_ZdlPv@PLT
 1853      00
 1854 031d 4C39E5   		cmpq	%r12, %rbp
 1855 0320 4889EB   		movq	%rbp, %rbx
 1856 0323 7419     		je	.L422
 1857              	.L423:
 1858 0325 4883C528 		addq	$40, %rbp
 1859              	.L420:
 1860 0329 488B7B08 		movq	8(%rbx), %rdi
 1861 032d 4883C318 		addq	$24, %rbx
 1862 0331 4839DF   		cmpq	%rbx, %rdi
 1863 0334 75E2     		jne	.L489
 1864 0336 4939EC   		cmpq	%rbp, %r12
 1865 0339 4889EB   		movq	%rbp, %rbx
 1866 033c 75E7     		jne	.L423
 1867              	.L422:
 1868 033e 488BBC24 		movq	192(%rsp), %rdi
 1868      C0000000 
 1869              	.L419:
 1870 0346 4885FF   		testq	%rdi, %rdi
 1871 0349 7405     		je	.L424
 1872 034b E8000000 		call	_ZdlPv@PLT
 1872      00
 1873              	.L424:
 1874 0350 488BBC24 		movq	160(%rsp), %rdi
 1874      A0000000 
 1875 0358 498D4650 		leaq	80(%r14), %rax
 1876 035c 4839C7   		cmpq	%rax, %rdi
 1877 035f 7405     		je	.L425
 1878 0361 E8000000 		call	_ZdlPv@PLT
 1878      00
 1879              	.L425:
 1880 0366 488BBC24 		movq	128(%rsp), %rdi
 1880      80000000 
 1881 036e 498D4630 		leaq	48(%r14), %rax
 1882 0372 4839C7   		cmpq	%rax, %rdi
 1883 0375 7405     		je	.L426
 1884 0377 E8000000 		call	_ZdlPv@PLT
 1884      00
 1885              	.L426:
 1886 037c 488B7C24 		movq	96(%rsp), %rdi
 1886      60
 1887 0381 4983C610 		addq	$16, %r14
 1888 0385 4C39F7   		cmpq	%r14, %rdi
 1889 0388 7405     		je	.L375
 1890 038a E8000000 		call	_ZdlPv@PLT
 1890      00
 1891              	.L375:
 1892 038f 488B8424 		movq	232(%rsp), %rax
 1892      E8000000 
 1893 0397 64483304 		xorq	%fs:40, %rax
 1893      25280000 
 1893      00
 1894 03a0 0F859D01 		jne	.L490
 1894      0000
 1895 03a6 4881C4F8 		addq	$248, %rsp
 1895      000000
 1896              		.cfi_remember_state
 1897              		.cfi_def_cfa_offset 56
 1898 03ad 5B       		popq	%rbx
 1899              		.cfi_def_cfa_offset 48
 1900 03ae 5D       		popq	%rbp
 1901              		.cfi_def_cfa_offset 40
 1902 03af 415C     		popq	%r12
 1903              		.cfi_def_cfa_offset 32
 1904 03b1 415D     		popq	%r13
 1905              		.cfi_def_cfa_offset 24
 1906 03b3 415E     		popq	%r14
 1907              		.cfi_def_cfa_offset 16
 1908 03b5 415F     		popq	%r15
 1909              		.cfi_def_cfa_offset 8
 1910 03b7 C3       		ret
 1911 03b8 0F1F8400 		.p2align 4,,10
 1911      00000000 
 1912              		.p2align 3
 1913              	.L487:
 1914              		.cfi_restore_state
 1915 03c0 488B9C24 		movq	192(%rsp), %rbx
 1915      C0000000 
 1916              	.L396:
 1917 03c8 0FB68424 		movzbl	220(%rsp), %eax
 1917      DC000000 
 1918 03d0 F30F1084 		movss	216(%rsp), %xmm0
 1918      24D80000 
 1918      00
 1919 03d9 4C896568 		movq	%r12, 104(%rbp)
 1920 03dd F30F1145 		movss	%xmm0, 120(%rbp)
 1920      78
 1921 03e2 88457C   		movb	%al, 124(%rbp)
 1922 03e5 488B4424 		movq	16(%rsp), %rax
 1922      10
 1923 03ea 488B6810 		movq	16(%rax), %rbp
 1924 03ee E9FAFEFF 		jmp	.L404
 1924      FF
 1925              		.p2align 4,,10
 1926 03f3 0F1F4400 		.p2align 3
 1926      00
 1927              	.L401:
 1928 03f8 4D85ED   		testq	%r13, %r13
 1929 03fb 0F8442FE 		je	.L402
 1929      FFFF
 1930 0401 E9B3FEFF 		jmp	.L400
 1930      FF
 1931 0406 662E0F1F 		.p2align 4,,10
 1931      84000000 
 1931      0000
 1932              		.p2align 3
 1933              	.L376:
 1934 0410 488B7C24 		movq	16(%rsp), %rdi
 1934      10
 1935 0415 4C89F2   		movq	%r14, %rdx
 1936 0418 4889EE   		movq	%rbp, %rsi
 1937 041b 4883C708 		addq	$8, %rdi
 1938              	.LEHB41:
 1939 041f E8000000 		call	_ZNSt6vectorIN8UnitTest18DeferredTestResultESaIS1_EE17_M_realloc_insertEN9__gnu_cxx17__normal
 1939      00
 1940              	.LEHE41:
 1941 0424 488B9C24 		movq	192(%rsp), %rbx
 1941      C0000000 
 1942 042c E9C4FEFF 		jmp	.L418
 1942      FF
 1943              		.p2align 4,,10
 1944 0431 0F1F8000 		.p2align 3
 1944      000000
 1945              	.L484:
 1946 0438 488D7424 		leaq	80(%rsp), %rsi
 1946      50
 1947 043d 488D7D40 		leaq	64(%rbp), %rdi
 1948 0441 31D2     		xorl	%edx, %edx
 1949              	.LEHB42:
 1950 0443 E8000000 		call	_ZNSt7__cxx1112basic_stringIcSt11char_traitsIcESaIcEE9_M_createERmm@PLT
 1950      00
 1951              	.LEHE42:
 1952 0448 488B5424 		movq	80(%rsp), %rdx
 1952      50
 1953 044d 48894540 		movq	%rax, 64(%rbp)
 1954 0451 48895550 		movq	%rdx, 80(%rbp)
 1955              	.L390:
 1956 0455 4889DA   		movq	%rbx, %rdx
 1957 0458 4C89E6   		movq	%r12, %rsi
 1958 045b 4889C7   		movq	%rax, %rdi
 1959 045e E8000000 		call	memcpy@PLT
 1959      00
 1960 0463 488B5C24 		movq	80(%rsp), %rbx
 1960      50
 1961 0468 488B4540 		movq	64(%rbp), %rax
 1962 046c E913FDFF 		jmp	.L392
 1962      FF
 1963              		.p2align 4,,10
 1964 0471 0F1F8000 		.p2align 3
 1964      000000
 1965              	.L482:
 1966 0478 488D7424 		leaq	72(%rsp), %rsi
 1966      48
 1967 047d 488D7D20 		leaq	32(%rbp), %rdi
 1968 0481 31D2     		xorl	%edx, %edx
 1969              	.LEHB43:
 1970 0483 E8000000 		call	_ZNSt7__cxx1112basic_stringIcSt11char_traitsIcESaIcEE9_M_createERmm@PLT
 1970      00
 1971              	.LEHE43:
 1972 0488 488B5424 		movq	72(%rsp), %rdx
 1972      48
 1973 048d 48894520 		movq	%rax, 32(%rbp)
 1974 0491 48895530 		movq	%rdx, 48(%rbp)
 1975              	.L385:
 1976 0495 4889DA   		movq	%rbx, %rdx
 1977 0498 4C89E6   		movq	%r12, %rsi
 1978 049b 4889C7   		movq	%rax, %rdi
 1979 049e E8000000 		call	memcpy@PLT
 1979      00
 1980 04a3 488B5C24 		movq	72(%rsp), %rbx
 1980      48
 1981 04a8 488B4520 		movq	32(%rbp), %rax
 1982 04ac E977FCFF 		jmp	.L387
 1982      FF
 1983              		.p2align 4,,10
 1984 04b1 0F1F8000 		.p2align 3
 1984      000000
 1985              	.L480:
 1986 04b8 488D7424 		leaq	64(%rsp), %rsi
 1986      40
 1987 04bd 31D2     		xorl	%edx, %edx
 1988 04bf 4889EF   		movq	%rbp, %rdi
 1989              	.LEHB44:
 1990 04c2 E8000000 		call	_ZNSt7__cxx1112basic_stringIcSt11char_traitsIcESaIcEE9_M_createERmm@PLT
 1990      00
 1991              	.LEHE44:
 1992 04c7 488B5424 		movq	64(%rsp), %rdx
 1992      40
 1993 04cc 48894500 		movq	%rax, 0(%rbp)
 1994 04d0 48895510 		movq	%rdx, 16(%rbp)
 1995              	.L380:
 1996 04d4 4889DA   		movq	%rbx, %rdx
 1997 04d7 4C89E6   		movq	%r12, %rsi
 1998 04da 4889C7   		movq	%rax, %rdi
 1999 04dd E8000000 		call	memcpy@PLT
 1999      00
 2000 04e2 488B5C24 		movq	64(%rsp), %rbx
 2000      40
 2001 04e7 488B4500 		movq	0(%rbp), %rax
 2002 04eb E9DCFBFF 		jmp	.L382
 2002      FF
 2003              		.p2align 4,,10
 2004              		.p2align 3
 2005              	.L391:
 2006 04f0 4885DB   		testq	%rbx, %rbx
 2007 04f3 488B4424 		movq	48(%rsp), %rax
 2007      30
 2008 04f8 0F8486FC 		je	.L392
 2008      FFFF
 2009 04fe E952FFFF 		jmp	.L390
 2009      FF
 2010              		.p2align 4,,10
 2011 0503 0F1F4400 		.p2align 3
 2011      00
 2012              	.L386:
 2013 0508 4885DB   		testq	%rbx, %rbx
 2014 050b 488B4424 		movq	40(%rsp), %rax
 2014      28
 2015 0510 0F8412FC 		je	.L387
 2015      FFFF
 2016 0516 E97AFFFF 		jmp	.L385
 2016      FF
 2017 051b 0F1F4400 		.p2align 4,,10
 2017      00
 2018              		.p2align 3
 2019              	.L381:
 2020 0520 4885DB   		testq	%rbx, %rbx
 2021 0523 0F84A3FB 		je	.L382
 2021      FFFF
 2022 0529 EBA9     		jmp	.L380
 2023 052b 0F1F4400 		.p2align 4,,10
 2023      00
 2024              		.p2align 3
 2025              	.L485:
 2026 0530 48C74424 		movq	$0, 24(%rsp)
 2026      18000000 
 2026      00
 2027 0539 4C8B6424 		movq	24(%rsp), %r12
 2027      18
 2028 053e E9B2FCFF 		jmp	.L394
 2028      FF
 2029              	.L490:
 2030 0543 E8000000 		call	__stack_chk_fail@PLT
 2030      00
 2031              	.L434:
 2032 0548 4889C3   		movq	%rax, %rbx
 2033              	.L413:
 2034 054b 488B7D20 		movq	32(%rbp), %rdi
 2035 054f 48397C24 		cmpq	%rdi, 40(%rsp)
 2035      28
 2036 0554 7405     		je	.L415
 2037 0556 E8000000 		call	_ZdlPv@PLT
 2037      00
 2038              	.L415:
 2039 055b 488B7D00 		movq	0(%rbp), %rdi
 2040 055f 48397C24 		cmpq	%rdi, 56(%rsp)
 2040      38
 2041 0564 7405     		je	.L417
 2042 0566 E8000000 		call	_ZdlPv@PLT
 2042      00
 2043              	.L417:
 2044 056b 4C89F7   		movq	%r14, %rdi
 2045 056e E8000000 		call	_ZN8UnitTest18DeferredTestResultD1Ev@PLT
 2045      00
 2046 0573 4889DF   		movq	%rbx, %rdi
 2047              	.LEHB45:
 2048 0576 E8000000 		call	_Unwind_Resume@PLT
 2048      00
 2049              	.LEHE45:
 2050              	.L432:
 2051 057b 4889C3   		movq	%rax, %rbx
 2052 057e EBEB     		jmp	.L417
 2053              	.L433:
 2054 0580 4889C3   		movq	%rax, %rbx
 2055 0583 EBD6     		jmp	.L415
 2056              	.L483:
 2057 0585 488D3D00 		leaq	.LC0(%rip), %rdi
 2057      000000
 2058              	.LEHB46:
 2059 058c E8000000 		call	_ZSt19__throw_logic_errorPKc@PLT
 2059      00
 2060              	.LEHE46:
 2061              	.L488:
 2062 0591 488D3D00 		leaq	.LC0(%rip), %rdi
 2062      000000
 2063              	.LEHB47:
 2064 0598 E8000000 		call	_ZSt19__throw_logic_errorPKc@PLT
 2064      00
 2065              	.LEHE47:
 2066              	.L437:
 2067 059d 4889C7   		movq	%rax, %rdi
 2068 05a0 E8000000 		call	__cxa_begin_catch@PLT
 2068      00
 2069 05a5 488B5C24 		movq	24(%rsp), %rbx
 2069      18
 2070              	.L408:
 2071 05aa 4939DC   		cmpq	%rbx, %r12
 2072 05ad 7418     		je	.L406
 2073 05af 488B7B08 		movq	8(%rbx), %rdi
 2074 05b3 488D4318 		leaq	24(%rbx), %rax
 2075 05b7 4839C7   		cmpq	%rax, %rdi
 2076 05ba 7405     		je	.L407
 2077 05bc E8000000 		call	_ZdlPv@PLT
 2077      00
 2078              	.L407:
 2079 05c1 4883C328 		addq	$40, %rbx
 2080 05c5 EBE3     		jmp	.L408
 2081              	.L406:
 2082              	.LEHB48:
 2083 05c7 E8000000 		call	__cxa_rethrow@PLT
 2083      00
 2084              	.LEHE48:
 2085              	.L486:
 2086              	.LEHB49:
 2087 05cc E8000000 		call	_ZSt17__throw_bad_allocv@PLT
 2087      00
 2088              	.LEHE49:
 2089              	.L479:
 2090 05d1 488D3D00 		leaq	.LC0(%rip), %rdi
 2090      000000
 2091              	.LEHB50:
 2092 05d8 E8000000 		call	_ZSt19__throw_logic_errorPKc@PLT
 2092      00
 2093              	.LEHE50:
 2094              	.L481:
 2095 05dd 488D3D00 		leaq	.LC0(%rip), %rdi
 2095      000000
 2096              	.LEHB51:
 2097 05e4 E8000000 		call	_ZSt19__throw_logic_errorPKc@PLT
 2097      00
 2098              	.LEHE51:
 2099              	.L435:
 2100 05e9 4889C3   		movq	%rax, %rbx
 2101              	.L411:
 2102 05ec 488B7D40 		movq	64(%rbp), %rdi
 2103 05f0 48397C24 		cmpq	%rdi, 48(%rsp)
 2103      30
 2104 05f5 0F8450FF 		je	.L413
 2104      FFFF
 2105 05fb E8000000 		call	_ZdlPv@PLT
 2105      00
 2106 0600 E946FFFF 		jmp	.L413
 2106      FF
 2107              	.L436:
 2108 0605 4889C3   		movq	%rax, %rbx
 2109 0608 E8000000 		call	__cxa_end_catch@PLT
 2109      00
 2110 060d 488B7D60 		movq	96(%rbp), %rdi
 2111 0611 4885FF   		testq	%rdi, %rdi
 2112 0614 74D6     		je	.L411
 2113 0616 E8000000 		call	_ZdlPv@PLT
 2113      00
 2114 061b EBCF     		jmp	.L411
 2115              		.cfi_endproc
 2116              	.LFE917:
 2117              		.section	.gcc_except_table,"a",@progbits
 2118              		.align 4
 2119              	.LLSDA917:
 2120 0000 FF       		.byte	0xff
 2121 0001 9B       		.byte	0x9b
 2122 0002 59       		.uleb128 .LLSDATT917-.LLSDATTD917
 2123              	.LLSDATTD917:
 2124 0003 01       		.byte	0x1
 2125 0004 51       		.uleb128 .LLSDACSE917-.LLSDACSB917
 2126              	.LLSDACSB917:
 2127 0005 3B       		.uleb128 .LEHB38-.LFB917
 2128 0006 05       		.uleb128 .LEHE38-.LEHB38
 2129 0007 00       		.uleb128 0
 2130 0008 00       		.uleb128 0
 2131 0009 C803     		.uleb128 .LEHB39-.LFB917
 2132 000b 05       		.uleb128 .LEHE39-.LEHB39
 2133 000c C90B     		.uleb128 .L435-.LFB917
 2134 000e 00       		.uleb128 0
 2135 000f 8505     		.uleb128 .LEHB40-.LFB917
 2136 0011 05       		.uleb128 .LEHE40-.LEHB40
 2137 0012 FD0A     		.uleb128 .L437-.LFB917
 2138 0014 01       		.uleb128 0x1
 2139 0015 FF07     		.uleb128 .LEHB41-.LFB917
 2140 0017 05       		.uleb128 .LEHE41-.LEHB41
 2141 0018 DB0A     		.uleb128 .L432-.LFB917
 2142 001a 00       		.uleb128 0
 2143 001b A308     		.uleb128 .LEHB42-.LFB917
 2144 001d 05       		.uleb128 .LEHE42-.LEHB42
 2145 001e A80A     		.uleb128 .L434-.LFB917
 2146 0020 00       		.uleb128 0
 2147 0021 E308     		.uleb128 .LEHB43-.LFB917
 2148 0023 05       		.uleb128 .LEHE43-.LEHB43
 2149 0024 E00A     		.uleb128 .L433-.LFB917
 2150 0026 00       		.uleb128 0
 2151 0027 A209     		.uleb128 .LEHB44-.LFB917
 2152 0029 05       		.uleb128 .LEHE44-.LEHB44
 2153 002a DB0A     		.uleb128 .L432-.LFB917
 2154 002c 00       		.uleb128 0
 2155 002d D60A     		.uleb128 .LEHB45-.LFB917
 2156 002f 05       		.uleb128 .LEHE45-.LEHB45
 2157 0030 00       		.uleb128 0
 2158 0031 00       		.uleb128 0
 2159 0032 EC0A     		.uleb128 .LEHB46-.LFB917
 2160 0034 05       		.uleb128 .LEHE46-.LEHB46
 2161 0035 A80A     		.uleb128 .L434-.LFB917
 2162 0037 00       		.uleb128 0
 2163 0038 F80A     		.uleb128 .LEHB47-.LFB917
 2164 003a 05       		.uleb128 .LEHE47-.LEHB47
 2165 003b FD0A     		.uleb128 .L437-.LFB917
 2166 003d 01       		.uleb128 0x1
 2167 003e A70B     		.uleb128 .LEHB48-.LFB917
 2168 0040 05       		.uleb128 .LEHE48-.LEHB48
 2169 0041 E50B     		.uleb128 .L436-.LFB917
 2170 0043 00       		.uleb128 0
 2171 0044 AC0B     		.uleb128 .LEHB49-.LFB917
 2172 0046 05       		.uleb128 .LEHE49-.LEHB49
 2173 0047 C90B     		.uleb128 .L435-.LFB917
 2174 0049 00       		.uleb128 0
 2175 004a B80B     		.uleb128 .LEHB50-.LFB917
 2176 004c 05       		.uleb128 .LEHE50-.LEHB50
 2177 004d DB0A     		.uleb128 .L432-.LFB917
 2178 004f 00       		.uleb128 0
 2179 0050 C40B     		.uleb128 .LEHB51-.LFB917
 2180 0052 05       		.uleb128 .LEHE51-.LEHB51
 2181 0053 E00A     		.uleb128 .L433-.LFB917
 2182 0055 00       		.uleb128 0
 2183              	.LLSDACSE917:
 2184 0056 01       		.byte	0x1
 2185 0057 00       		.byte	0
 2186              		.align 4
 2187 0058 00000000 		.long	0
 2188              	
 2189              	.LLSDATT917:
 2190              		.text
 2192              		.section	.text._ZNSt6vectorISt4pairIiNSt7__cxx1112basic_stringIcSt11char_traitsIcESaIcEEEESaIS7_EE
 2193              		.align 2
 2194              		.p2align 4,,15
 2195              		.weak	_ZNSt6vectorISt4pairIiNSt7__cxx1112basic_stringIcSt11char_traitsIcESaIcEEEESaIS7_EE17_M_real
 2197              	_ZNSt6vectorISt4pairIiNSt7__cxx1112basic_stringIcSt11char_traitsIcESaIcEEEESaIS7_EE17_M_realloc_ins
 2198              	.LFB984:
 2199              		.cfi_startproc
 2200              		.cfi_personality 0x9b,DW.ref.__gxx_personality_v0
 2201              		.cfi_lsda 0x1b,.LLSDA984
 2202 0000 4157     		pushq	%r15
 2203              		.cfi_def_cfa_offset 16
 2204              		.cfi_offset 15, -16
 2205 0002 4156     		pushq	%r14
 2206              		.cfi_def_cfa_offset 24
 2207              		.cfi_offset 14, -24
 2208 0004 4989D6   		movq	%rdx, %r14
 2209 0007 4155     		pushq	%r13
 2210              		.cfi_def_cfa_offset 32
 2211              		.cfi_offset 13, -32
 2212 0009 4154     		pushq	%r12
 2213              		.cfi_def_cfa_offset 40
 2214              		.cfi_offset 12, -40
 2215 000b 48B9CDCC 		movabsq	$-3689348814741910323, %rcx
 2215      CCCCCCCC 
 2215      CCCC
 2216 0015 55       		pushq	%rbp
 2217              		.cfi_def_cfa_offset 48
 2218              		.cfi_offset 6, -48
 2219 0016 53       		pushq	%rbx
 2220              		.cfi_def_cfa_offset 56
 2221              		.cfi_offset 3, -56
 2222 0017 4889F5   		movq	%rsi, %rbp
 2223 001a 4989FF   		movq	%rdi, %r15
 2224 001d 4883EC58 		subq	$88, %rsp
 2225              		.cfi_def_cfa_offset 144
 2226 0021 488B17   		movq	(%rdi), %rdx
 2227 0024 64488B04 		movq	%fs:40, %rax
 2227      25280000 
 2227      00
 2228 002d 48894424 		movq	%rax, 72(%rsp)
 2228      48
 2229 0032 31C0     		xorl	%eax, %eax
 2230 0034 488B4708 		movq	8(%rdi), %rax
 2231 0038 48897424 		movq	%rsi, 8(%rsp)
 2231      08
 2232 003d 4829D6   		subq	%rdx, %rsi
 2233 0040 4889F3   		movq	%rsi, %rbx
 2234 0043 4829D0   		subq	%rdx, %rax
 2235 0046 48C1F803 		sarq	$3, %rax
 2236 004a 480FAFC1 		imulq	%rcx, %rax
 2237 004e 4885C0   		testq	%rax, %rax
 2238 0051 0F84D902 		je	.L544
 2238      0000
 2239 0057 488D0C00 		leaq	(%rax,%rax), %rcx
 2240 005b 4839C8   		cmpq	%rcx, %rax
 2241 005e 48894C24 		movq	%rcx, 16(%rsp)
 2241      10
 2242 0063 0F863703 		jbe	.L609
 2242      0000
 2243              	.L546:
 2244 0069 48C74424 		movq	$-16, 16(%rsp)
 2244      10F0FFFF 
 2244      FF
 2245 0072 488B7C24 		movq	16(%rsp), %rdi
 2245      10
 2246              	.L493:
 2247              	.LEHB52:
 2248 0077 E8000000 		call	_Znwm@PLT
 2248      00
 2249              	.LEHE52:
 2250 007c 48894424 		movq	%rax, 24(%rsp)
 2250      18
 2251              	.L494:
 2252 0081 48035C24 		addq	24(%rsp), %rbx
 2252      18
 2253 0086 48895C24 		movq	%rbx, 40(%rsp)
 2253      28
 2254 008b 745C     		je	.L495
 2255 008d 418B06   		movl	(%r14), %eax
 2256 0090 4C8D6B18 		leaq	24(%rbx), %r13
 2257 0094 4D8B6608 		movq	8(%r14), %r12
 2258 0098 4C896B08 		movq	%r13, 8(%rbx)
 2259 009c 8903     		movl	%eax, (%rbx)
 2260 009e 498B5E10 		movq	16(%r14), %rbx
 2261 00a2 4C89E2   		movq	%r12, %rdx
 2262 00a5 4C89E8   		movq	%r13, %rax
 2263 00a8 4801DA   		addq	%rbx, %rdx
 2264 00ab 7409     		je	.L496
 2265 00ad 4D85E4   		testq	%r12, %r12
 2266 00b0 0F844404 		je	.L610
 2266      0000
 2267              	.L496:
 2268 00b6 4883FB0F 		cmpq	$15, %rbx
 2269 00ba 48895C24 		movq	%rbx, 48(%rsp)
 2269      30
 2270 00bf 0F879302 		ja	.L611
 2270      0000
 2271 00c5 4883FB01 		cmpq	$1, %rbx
 2272 00c9 0F852103 		jne	.L499
 2272      0000
 2273 00cf 410FB614 		movzbl	(%r12), %edx
 2273      24
 2274 00d4 488B4C24 		movq	40(%rsp), %rcx
 2274      28
 2275 00d9 885118   		movb	%dl, 24(%rcx)
 2276              	.L500:
 2277 00dc 488B4C24 		movq	40(%rsp), %rcx
 2277      28
 2278 00e1 48895910 		movq	%rbx, 16(%rcx)
 2279 00e5 C6041800 		movb	$0, (%rax,%rbx)
 2280              	.L495:
 2281 00e9 4D8B2F   		movq	(%r15), %r13
 2282 00ec 4C3B6C24 		cmpq	8(%rsp), %r13
 2282      08
 2283 00f1 0F84D902 		je	.L501
 2283      0000
 2284 00f7 488D4424 		leaq	56(%rsp), %rax
 2284      38
 2285 00fc 488B5C24 		movq	24(%rsp), %rbx
 2285      18
 2286 0101 48894424 		movq	%rax, 32(%rsp)
 2286      20
 2287 0106 EB38     		jmp	.L508
 2288 0108 0F1F8400 		.p2align 4,,10
 2288      00000000 
 2289              		.p2align 3
 2290              	.L504:
 2291 0110 4983FC01 		cmpq	$1, %r12
 2292 0114 0F859600 		jne	.L506
 2292      0000
 2293 011a 410FB616 		movzbl	(%r14), %edx
 2294 011e 885318   		movb	%dl, 24(%rbx)
 2295              	.L507:
 2296 0121 4C896310 		movq	%r12, 16(%rbx)
 2297 0125 42C60420 		movb	$0, (%rax,%r12)
 2297      00
 2298              	.L502:
 2299 012a 4983C528 		addq	$40, %r13
 2300 012e 4C396C24 		cmpq	%r13, 8(%rsp)
 2300      08
 2301 0133 488D4328 		leaq	40(%rbx), %rax
 2302 0137 0F848300 		je	.L612
 2302      0000
 2303 013d 4889C3   		movq	%rax, %rbx
 2304              	.L508:
 2305 0140 4885DB   		testq	%rbx, %rbx
 2306 0143 74E5     		je	.L502
 2307 0145 418B4500 		movl	0(%r13), %eax
 2308 0149 8903     		movl	%eax, (%rbx)
 2309 014b 488D4318 		leaq	24(%rbx), %rax
 2310 014f 48894308 		movq	%rax, 8(%rbx)
 2311 0153 4D8B7508 		movq	8(%r13), %r14
 2312 0157 4D8B6510 		movq	16(%r13), %r12
 2313 015b 4C89F6   		movq	%r14, %rsi
 2314 015e 4C01E6   		addq	%r12, %rsi
 2315 0161 7409     		je	.L503
 2316 0163 4D85F6   		testq	%r14, %r14
 2317 0166 0F849202 		je	.L613
 2317      0000
 2318              	.L503:
 2319 016c 4983FC0F 		cmpq	$15, %r12
 2320 0170 4C896424 		movq	%r12, 56(%rsp)
 2320      38
 2321 0175 7699     		jbe	.L504
 2322 0177 488B7424 		movq	32(%rsp), %rsi
 2322      20
 2323 017c 488D7B08 		leaq	8(%rbx), %rdi
 2324 0180 31D2     		xorl	%edx, %edx
 2325              	.LEHB53:
 2326 0182 E8000000 		call	_ZNSt7__cxx1112basic_stringIcSt11char_traitsIcESaIcEE9_M_createERmm@PLT
 2326      00
 2327              	.LEHE53:
 2328 0187 488B5424 		movq	56(%rsp), %rdx
 2328      38
 2329 018c 48894308 		movq	%rax, 8(%rbx)
 2330 0190 48895318 		movq	%rdx, 24(%rbx)
 2331              	.L505:
 2332 0194 4C89E2   		movq	%r12, %rdx
 2333 0197 4C89F6   		movq	%r14, %rsi
 2334 019a 4889C7   		movq	%rax, %rdi
 2335 019d E8000000 		call	memcpy@PLT
 2335      00
 2336 01a2 4C8B6424 		movq	56(%rsp), %r12
 2336      38
 2337 01a7 488B4308 		movq	8(%rbx), %rax
 2338 01ab E971FFFF 		jmp	.L507
 2338      FF
 2339              		.p2align 4,,10
 2340              		.p2align 3
 2341              	.L506:
 2342 01b0 4D85E4   		testq	%r12, %r12
 2343 01b3 0F8468FF 		je	.L507
 2343      FFFF
 2344 01b9 EBD9     		jmp	.L505
 2345 01bb 0F1F4400 		.p2align 4,,10
 2345      00
 2346              		.p2align 3
 2347              	.L612:
 2348 01c0 4883C350 		addq	$80, %rbx
 2349 01c4 4D8B6F08 		movq	8(%r15), %r13
 2350 01c8 4C3B6C24 		cmpq	8(%rsp), %r13
 2350      08
 2351 01cd 0F84C900 		je	.L509
 2351      0000
 2352              	.L608:
 2353 01d3 488D4424 		leaq	64(%rsp), %rax
 2353      40
 2354 01d8 48895C24 		movq	%rbx, 32(%rsp)
 2354      20
 2355 01dd 48894424 		movq	%rax, 8(%rsp)
 2355      08
 2356 01e2 EB2F     		jmp	.L523
 2357              		.p2align 4,,10
 2358 01e4 0F1F4000 		.p2align 3
 2359              	.L519:
 2360 01e8 4983FC01 		cmpq	$1, %r12
 2361 01ec 0F859600 		jne	.L521
 2361      0000
 2362 01f2 410FB616 		movzbl	(%r14), %edx
 2363 01f6 885318   		movb	%dl, 24(%rbx)
 2364              	.L522:
 2365 01f9 4C896310 		movq	%r12, 16(%rbx)
 2366 01fd 42C60420 		movb	$0, (%rax,%r12)
 2366      00
 2367              	.L517:
 2368 0202 4883C528 		addq	$40, %rbp
 2369 0206 4883C328 		addq	$40, %rbx
 2370 020a 4C39ED   		cmpq	%r13, %rbp
 2371 020d 0F848500 		je	.L614
 2371      0000
 2372              	.L523:
 2373 0213 4885DB   		testq	%rbx, %rbx
 2374 0216 74EA     		je	.L517
 2375 0218 8B4500   		movl	0(%rbp), %eax
 2376 021b 4C8B7508 		movq	8(%rbp), %r14
 2377 021f 4C8B6510 		movq	16(%rbp), %r12
 2378 0223 8903     		movl	%eax, (%rbx)
 2379 0225 4C89F1   		movq	%r14, %rcx
 2380 0228 488D4318 		leaq	24(%rbx), %rax
 2381 022c 4C01E1   		addq	%r12, %rcx
 2382 022f 48894308 		movq	%rax, 8(%rbx)
 2383 0233 7409     		je	.L518
 2384 0235 4D85F6   		testq	%r14, %r14
 2385 0238 0F84FB01 		je	.L615
 2385      0000
 2386              	.L518:
 2387 023e 4983FC0F 		cmpq	$15, %r12
 2388 0242 4C896424 		movq	%r12, 64(%rsp)
 2388      40
 2389 0247 769F     		jbe	.L519
 2390 0249 488B7424 		movq	8(%rsp), %rsi
 2390      08
 2391 024e 488D7B08 		leaq	8(%rbx), %rdi
 2392 0252 31D2     		xorl	%edx, %edx
 2393              	.LEHB54:
 2394 0254 E8000000 		call	_ZNSt7__cxx1112basic_stringIcSt11char_traitsIcESaIcEE9_M_createERmm@PLT
 2394      00
 2395              	.LEHE54:
 2396 0259 488B5424 		movq	64(%rsp), %rdx
 2396      40
 2397 025e 48894308 		movq	%rax, 8(%rbx)
 2398 0262 48895318 		movq	%rdx, 24(%rbx)
 2399              	.L520:
 2400 0266 4C89E2   		movq	%r12, %rdx
 2401 0269 4C89F6   		movq	%r14, %rsi
 2402 026c 4889C7   		movq	%rax, %rdi
 2403 026f E8000000 		call	memcpy@PLT
 2403      00
 2404 0274 4C8B6424 		movq	64(%rsp), %r12
 2404      40
 2405 0279 488B4308 		movq	8(%rbx), %rax
 2406 027d E977FFFF 		jmp	.L522
 2406      FF
 2407              		.p2align 4,,10
 2408 0282 660F1F44 		.p2align 3
 2408      0000
 2409              	.L521:
 2410 0288 4D85E4   		testq	%r12, %r12
 2411 028b 0F8468FF 		je	.L522
 2411      FFFF
 2412 0291 EBD3     		jmp	.L520
 2413              		.p2align 4,,10
 2414 0293 0F1F4400 		.p2align 3
 2414      00
 2415              	.L614:
 2416 0298 498B6F08 		movq	8(%r15), %rbp
 2417              	.L509:
 2418 029c 498B07   		movq	(%r15), %rax
 2419 029f 4839E8   		cmpq	%rbp, %rax
 2420 02a2 7445     		je	.L524
 2421 02a4 4C8D6028 		leaq	40(%rax), %r12
 2422 02a8 4C29E5   		subq	%r12, %rbp
 2423 02ab 48C1ED03 		shrq	$3, %rbp
 2424 02af 488D6CE8 		leaq	40(%rax,%rbp,8), %rbp
 2424      28
 2425 02b4 EB1B     		jmp	.L532
 2426 02b6 662E0F1F 		.p2align 4,,10
 2426      84000000 
 2426      0000
 2427              		.p2align 3
 2428              	.L616:
 2429 02c0 E8000000 		call	_ZdlPv@PLT
 2429      00
 2430 02c5 4939EC   		cmpq	%rbp, %r12
 2431 02c8 4C89E0   		movq	%r12, %rax
 2432 02cb 7419     		je	.L534
 2433              	.L535:
 2434 02cd 4983C428 		addq	$40, %r12
 2435              	.L532:
 2436 02d1 488B7808 		movq	8(%rax), %rdi
 2437 02d5 4883C018 		addq	$24, %rax
 2438 02d9 4839C7   		cmpq	%rax, %rdi
 2439 02dc 75E2     		jne	.L616
 2440 02de 4939EC   		cmpq	%rbp, %r12
 2441 02e1 4C89E0   		movq	%r12, %rax
 2442 02e4 75E7     		jne	.L535
 2443              	.L534:
 2444 02e6 498B2F   		movq	(%r15), %rbp
 2445              	.L524:
 2446 02e9 4885ED   		testq	%rbp, %rbp
 2447 02ec 7408     		je	.L536
 2448 02ee 4889EF   		movq	%rbp, %rdi
 2449 02f1 E8000000 		call	_ZdlPv@PLT
 2449      00
 2450              	.L536:
 2451 02f6 488B4424 		movq	24(%rsp), %rax
 2451      18
 2452 02fb 49895F08 		movq	%rbx, 8(%r15)
 2453 02ff 498907   		movq	%rax, (%r15)
 2454 0302 48034424 		addq	16(%rsp), %rax
 2454      10
 2455 0307 49894710 		movq	%rax, 16(%r15)
 2456 030b 488B4424 		movq	72(%rsp), %rax
 2456      48
 2457 0310 64483304 		xorq	%fs:40, %rax
 2457      25280000 
 2457      00
 2458 0319 0F851501 		jne	.L617
 2458      0000
 2459 031f 4883C458 		addq	$88, %rsp
 2460              		.cfi_remember_state
 2461              		.cfi_def_cfa_offset 56
 2462 0323 5B       		popq	%rbx
 2463              		.cfi_def_cfa_offset 48
 2464 0324 5D       		popq	%rbp
 2465              		.cfi_def_cfa_offset 40
 2466 0325 415C     		popq	%r12
 2467              		.cfi_def_cfa_offset 32
 2468 0327 415D     		popq	%r13
 2469              		.cfi_def_cfa_offset 24
 2470 0329 415E     		popq	%r14
 2471              		.cfi_def_cfa_offset 16
 2472 032b 415F     		popq	%r15
 2473              		.cfi_def_cfa_offset 8
 2474 032d C3       		ret
 2475 032e 6690     		.p2align 4,,10
 2476              		.p2align 3
 2477              	.L544:
 2478              		.cfi_restore_state
 2479 0330 48C74424 		movq	$1, 16(%rsp)
 2479      10010000 
 2479      00
 2480              	.L492:
 2481 0339 488B4424 		movq	16(%rsp), %rax
 2481      10
 2482 033e 488D0480 		leaq	(%rax,%rax,4), %rax
 2483 0342 48C1E003 		salq	$3, %rax
 2484 0346 48894424 		movq	%rax, 16(%rsp)
 2484      10
 2485 034b 4889C7   		movq	%rax, %rdi
 2486 034e E924FDFF 		jmp	.L493
 2486      FF
 2487              		.p2align 4,,10
 2488 0353 0F1F4400 		.p2align 3
 2488      00
 2489              	.L611:
 2490 0358 4C8B7424 		movq	40(%rsp), %r14
 2490      28
 2491 035d 488D7424 		leaq	48(%rsp), %rsi
 2491      30
 2492 0362 31D2     		xorl	%edx, %edx
 2493 0364 498D7E08 		leaq	8(%r14), %rdi
 2494              	.LEHB55:
 2495 0368 E8000000 		call	_ZNSt7__cxx1112basic_stringIcSt11char_traitsIcESaIcEE9_M_createERmm@PLT
 2495      00
 2496              	.LEHE55:
 2497 036d 488B5424 		movq	48(%rsp), %rdx
 2497      30
 2498 0372 49894608 		movq	%rax, 8(%r14)
 2499 0376 49895618 		movq	%rdx, 24(%r14)
 2500              	.L498:
 2501 037a 4889DA   		movq	%rbx, %rdx
 2502 037d 4C89E6   		movq	%r12, %rsi
 2503 0380 4889C7   		movq	%rax, %rdi
 2504 0383 E8000000 		call	memcpy@PLT
 2504      00
 2505 0388 488B4424 		movq	40(%rsp), %rax
 2505      28
 2506 038d 488B5C24 		movq	48(%rsp), %rbx
 2506      30
 2507 0392 488B4008 		movq	8(%rax), %rax
 2508 0396 E941FDFF 		jmp	.L500
 2508      FF
 2509 039b 0F1F4400 		.p2align 4,,10
 2509      00
 2510              		.p2align 3
 2511              	.L609:
 2512 03a0 48B86666 		movabsq	$461168601842738790, %rax
 2512      66666666 
 2512      6606
 2513 03aa 4839C1   		cmpq	%rax, %rcx
 2514 03ad 0F87B6FC 		ja	.L546
 2514      FFFF
 2515 03b3 4885C9   		testq	%rcx, %rcx
 2516 03b6 7581     		jne	.L492
 2517 03b8 48C74424 		movq	$0, 24(%rsp)
 2517      18000000 
 2517      00
 2518 03c1 E9BBFCFF 		jmp	.L494
 2518      FF
 2519 03c6 662E0F1F 		.p2align 4,,10
 2519      84000000 
 2519      0000
 2520              		.p2align 3
 2521              	.L501:
 2522 03d0 4D8B6F08 		movq	8(%r15), %r13
 2523 03d4 4C396C24 		cmpq	%r13, 8(%rsp)
 2523      08
 2524 03d9 488B4424 		movq	24(%rsp), %rax
 2524      18
 2525 03de 488D5828 		leaq	40(%rax), %rbx
 2526 03e2 0F85EBFD 		jne	.L608
 2526      FFFF
 2527 03e8 E9FCFEFF 		jmp	.L524
 2527      FF
 2528 03ed 0F1F00   		.p2align 4,,10
 2529              		.p2align 3
 2530              	.L499:
 2531 03f0 4885DB   		testq	%rbx, %rbx
 2532 03f3 0F84E3FC 		je	.L500
 2532      FFFF
 2533 03f9 E97CFFFF 		jmp	.L498
 2533      FF
 2534              	.L613:
 2535 03fe 488D3D00 		leaq	.LC0(%rip), %rdi
 2535      000000
 2536              	.LEHB56:
 2537 0405 E8000000 		call	_ZSt19__throw_logic_errorPKc@PLT
 2537      00
 2538              	.LEHE56:
 2539              	.L551:
 2540 040a 4889C7   		movq	%rax, %rdi
 2541 040d E8000000 		call	__cxa_begin_catch@PLT
 2541      00
 2542 0412 488B6C24 		movq	24(%rsp), %rbp
 2542      18
 2543              	.L514:
 2544 0417 4839EB   		cmpq	%rbp, %rbx
 2545 041a 7458     		je	.L512
 2546 041c 488B7D08 		movq	8(%rbp), %rdi
 2547 0420 488D4518 		leaq	24(%rbp), %rax
 2548 0424 4839C7   		cmpq	%rax, %rdi
 2549 0427 7405     		je	.L513
 2550 0429 E8000000 		call	_ZdlPv@PLT
 2550      00
 2551              	.L513:
 2552 042e 4883C528 		addq	$40, %rbp
 2553 0432 EBE3     		jmp	.L514
 2554              	.L617:
 2555 0434 E8000000 		call	__stack_chk_fail@PLT
 2555      00
 2556              	.L615:
 2557 0439 488D3D00 		leaq	.LC0(%rip), %rdi
 2557      000000
 2558              	.LEHB57:
 2559 0440 E8000000 		call	_ZSt19__throw_logic_errorPKc@PLT
 2559      00
 2560              	.LEHE57:
 2561              	.L553:
 2562 0445 4889C7   		movq	%rax, %rdi
 2563 0448 E8000000 		call	__cxa_begin_catch@PLT
 2563      00
 2564 044d 488B6C24 		movq	32(%rsp), %rbp
 2564      20
 2565              	.L529:
 2566 0452 4839EB   		cmpq	%rbp, %rbx
 2567 0455 7418     		je	.L527
 2568 0457 488B7D08 		movq	8(%rbp), %rdi
 2569 045b 488D4518 		leaq	24(%rbp), %rax
 2570 045f 4839C7   		cmpq	%rax, %rdi
 2571 0462 7405     		je	.L528
 2572 0464 E8000000 		call	_ZdlPv@PLT
 2572      00
 2573              	.L528:
 2574 0469 4883C528 		addq	$40, %rbp
 2575 046d EBE3     		jmp	.L529
 2576              	.L527:
 2577              	.LEHB58:
 2578 046f E8000000 		call	__cxa_rethrow@PLT
 2578      00
 2579              	.LEHE58:
 2580              	.L512:
 2581              	.LEHB59:
 2582 0474 E8000000 		call	__cxa_rethrow@PLT
 2582      00
 2583              	.LEHE59:
 2584              	.L554:
 2585 0479 4889C7   		movq	%rax, %rdi
 2586 047c E8000000 		call	__cxa_begin_catch@PLT
 2586      00
 2587 0481 48837C24 		cmpq	$0, 24(%rsp)
 2587      1800
 2588 0487 7454     		je	.L516
 2589              	.L606:
 2590 0489 488B7C24 		movq	24(%rsp), %rdi
 2590      18
 2591 048e E8000000 		call	_ZdlPv@PLT
 2591      00
 2592              	.L540:
 2593              	.LEHB60:
 2594 0493 E8000000 		call	__cxa_rethrow@PLT
 2594      00
 2595              	.LEHE60:
 2596              	.L552:
 2597 0498 4889C3   		movq	%rax, %rbx
 2598 049b E8000000 		call	__cxa_end_catch@PLT
 2598      00
 2599 04a0 4889DF   		movq	%rbx, %rdi
 2600 04a3 E8000000 		call	__cxa_begin_catch@PLT
 2600      00
 2601 04a8 48837C24 		cmpq	$0, 32(%rsp)
 2601      2000
 2602 04ae 7424     		je	.L618
 2603 04b0 488B5C24 		movq	24(%rsp), %rbx
 2603      18
 2604              	.L531:
 2605 04b5 483B5C24 		cmpq	32(%rsp), %rbx
 2605      20
 2606 04ba 7434     		je	.L538
 2607 04bc 488B7B08 		movq	8(%rbx), %rdi
 2608 04c0 488D4318 		leaq	24(%rbx), %rax
 2609 04c4 4839C7   		cmpq	%rax, %rdi
 2610 04c7 7405     		je	.L539
 2611 04c9 E8000000 		call	_ZdlPv@PLT
 2611      00
 2612              	.L539:
 2613 04ce 4883C328 		addq	$40, %rbx
 2614 04d2 EBE1     		jmp	.L531
 2615              	.L618:
 2616 04d4 488B4424 		movq	40(%rsp), %rax
 2616      28
 2617 04d9 4C8D6818 		leaq	24(%rax), %r13
 2618              	.L516:
 2619 04dd 488B4424 		movq	40(%rsp), %rax
 2619      28
 2620 04e2 488B7808 		movq	8(%rax), %rdi
 2621 04e6 4C39EF   		cmpq	%r13, %rdi
 2622 04e9 7405     		je	.L538
 2623 04eb E8000000 		call	_ZdlPv@PLT
 2623      00
 2624              	.L538:
 2625 04f0 48837C24 		cmpq	$0, 24(%rsp)
 2625      1800
 2626 04f6 7591     		jne	.L606
 2627 04f8 EB99     		jmp	.L540
 2628              	.L610:
 2629 04fa 488D3D00 		leaq	.LC0(%rip), %rdi
 2629      000000
 2630              	.LEHB61:
 2631 0501 E8000000 		call	_ZSt19__throw_logic_errorPKc@PLT
 2631      00
 2632              	.LEHE61:
 2633              	.L549:
 2634 0506 4889C3   		movq	%rax, %rbx
 2635 0509 E8000000 		call	__cxa_end_catch@PLT
 2635      00
 2636 050e 4889DF   		movq	%rbx, %rdi
 2637              	.LEHB62:
 2638 0511 E8000000 		call	_Unwind_Resume@PLT
 2638      00
 2639              	.LEHE62:
 2640              	.L550:
 2641 0516 4889C3   		movq	%rax, %rbx
 2642 0519 E8000000 		call	__cxa_end_catch@PLT
 2642      00
 2643 051e 4889DF   		movq	%rbx, %rdi
 2644 0521 E8000000 		call	__cxa_begin_catch@PLT
 2644      00
 2645 0526 488B4424 		movq	40(%rsp), %rax
 2645      28
 2646 052b 4C8D6818 		leaq	24(%rax), %r13
 2647 052f EBAC     		jmp	.L516
 2648              		.cfi_endproc
 2649              	.LFE984:
 2650              		.section	.gcc_except_table
 2651              		.align 4
 2652              	.LLSDA984:
 2653 005c FF       		.byte	0xff
 2654 005d 9B       		.byte	0x9b
 2655 005e 49       		.uleb128 .LLSDATT984-.LLSDATTD984
 2656              	.LLSDATTD984:
 2657 005f 01       		.byte	0x1
 2658 0060 3F       		.uleb128 .LLSDACSE984-.LLSDACSB984
 2659              	.LLSDACSB984:
 2660 0061 77       		.uleb128 .LEHB52-.LFB984
 2661 0062 05       		.uleb128 .LEHE52-.LEHB52
 2662 0063 00       		.uleb128 0
 2663 0064 00       		.uleb128 0
 2664 0065 8203     		.uleb128 .LEHB53-.LFB984
 2665 0067 05       		.uleb128 .LEHE53-.LEHB53
 2666 0068 8A08     		.uleb128 .L551-.LFB984
 2667 006a 01       		.uleb128 0x1
 2668 006b D404     		.uleb128 .LEHB54-.LFB984
 2669 006d 05       		.uleb128 .LEHE54-.LEHB54
 2670 006e C508     		.uleb128 .L553-.LFB984
 2671 0070 01       		.uleb128 0x1
 2672 0071 E806     		.uleb128 .LEHB55-.LFB984
 2673 0073 05       		.uleb128 .LEHE55-.LEHB55
 2674 0074 F908     		.uleb128 .L554-.LFB984
 2675 0076 01       		.uleb128 0x1
 2676 0077 8508     		.uleb128 .LEHB56-.LFB984
 2677 0079 05       		.uleb128 .LEHE56-.LEHB56
 2678 007a 8A08     		.uleb128 .L551-.LFB984
 2679 007c 01       		.uleb128 0x1
 2680 007d C008     		.uleb128 .LEHB57-.LFB984
 2681 007f 05       		.uleb128 .LEHE57-.LEHB57
 2682 0080 C508     		.uleb128 .L553-.LFB984
 2683 0082 01       		.uleb128 0x1
 2684 0083 EF08     		.uleb128 .LEHB58-.LFB984
 2685 0085 05       		.uleb128 .LEHE58-.LEHB58
 2686 0086 9809     		.uleb128 .L552-.LFB984
 2687 0088 03       		.uleb128 0x3
 2688 0089 F408     		.uleb128 .LEHB59-.LFB984
 2689 008b 05       		.uleb128 .LEHE59-.LEHB59
 2690 008c 960A     		.uleb128 .L550-.LFB984
 2691 008e 03       		.uleb128 0x3
 2692 008f 9309     		.uleb128 .LEHB60-.LFB984
 2693 0091 05       		.uleb128 .LEHE60-.LEHB60
 2694 0092 860A     		.uleb128 .L549-.LFB984
 2695 0094 00       		.uleb128 0
 2696 0095 810A     		.uleb128 .LEHB61-.LFB984
 2697 0097 05       		.uleb128 .LEHE61-.LEHB61
 2698 0098 F908     		.uleb128 .L554-.LFB984
 2699 009a 01       		.uleb128 0x1
 2700 009b 910A     		.uleb128 .LEHB62-.LFB984
 2701 009d 05       		.uleb128 .LEHE62-.LEHB62
 2702 009e 00       		.uleb128 0
 2703 009f 00       		.uleb128 0
 2704              	.LLSDACSE984:
 2705 00a0 01       		.byte	0x1
 2706 00a1 00       		.byte	0
 2707 00a2 00       		.byte	0
 2708 00a3 7D       		.byte	0x7d
 2709              		.align 4
 2710 00a4 00000000 		.long	0
 2711              	
 2712              	.LLSDATT984:
 2713              		.section	.text._ZNSt6vectorISt4pairIiNSt7__cxx1112basic_stringIcSt11char_traitsIcESaIcEEEESaIS7_EE
 2715              		.text
 2716 061d 90       		.align 2
 2717 061e 6690     		.p2align 4,,15
 2718              		.globl	_ZN8UnitTest20DeferredTestReporter13ReportFailureERKNS_11TestDetailsEPKc
 2720              	_ZN8UnitTest20DeferredTestReporter13ReportFailureERKNS_11TestDetailsEPKc:
 2721              	.LFB921:
 2722              		.cfi_startproc
 2723              		.cfi_personality 0x9b,DW.ref.__gxx_personality_v0
 2724              		.cfi_lsda 0x1b,.LLSDA921
 2725 0620 4157     		pushq	%r15
 2726              		.cfi_def_cfa_offset 16
 2727              		.cfi_offset 15, -16
 2728 0622 4156     		pushq	%r14
 2729              		.cfi_def_cfa_offset 24
 2730              		.cfi_offset 14, -24
 2731 0624 4155     		pushq	%r13
 2732              		.cfi_def_cfa_offset 32
 2733              		.cfi_offset 13, -32
 2734 0626 4154     		pushq	%r12
 2735              		.cfi_def_cfa_offset 40
 2736              		.cfi_offset 12, -40
 2737 0628 55       		pushq	%rbp
 2738              		.cfi_def_cfa_offset 48
 2739              		.cfi_offset 6, -48
 2740 0629 53       		pushq	%rbx
 2741              		.cfi_def_cfa_offset 56
 2742              		.cfi_offset 3, -56
 2743 062a 4883EC78 		subq	$120, %rsp
 2744              		.cfi_def_cfa_offset 176
 2745 062e 488B6F10 		movq	16(%rdi), %rbp
 2746 0632 4C8D6C24 		leaq	32(%rsp), %r13
 2746      20
 2747 0637 64488B04 		movq	%fs:40, %rax
 2747      25280000 
 2747      00
 2748 0640 48894424 		movq	%rax, 104(%rsp)
 2748      68
 2749 0645 31C0     		xorl	%eax, %eax
 2750 0647 498D5D10 		leaq	16(%r13), %rbx
 2751 064b 4885D2   		testq	%rdx, %rdx
 2752 064e C645FC01 		movb	$1, -4(%rbp)
 2753 0652 48895C24 		movq	%rbx, 32(%rsp)
 2753      20
 2754 0657 0F84A302 		je	.L620
 2754      0000
 2755 065d 4889D7   		movq	%rdx, %rdi
 2756 0660 4989F7   		movq	%rsi, %r15
 2757 0663 4989D4   		movq	%rdx, %r12
 2758 0666 E8000000 		call	strlen@PLT
 2758      00
 2759 066b 4883F80F 		cmpq	$15, %rax
 2760 066f 4989C6   		movq	%rax, %r14
 2761 0672 48894424 		movq	%rax, 24(%rsp)
 2761      18
 2762 0677 0F876B01 		ja	.L671
 2762      0000
 2763 067d 4883F801 		cmpq	$1, %rax
 2764 0681 0F85E101 		jne	.L624
 2764      0000
 2765 0687 410FB614 		movzbl	(%r12), %edx
 2765      24
 2766 068c 88542430 		movb	%dl, 48(%rsp)
 2767              	.L625:
 2768 0690 48894424 		movq	%rax, 40(%rsp)
 2768      28
 2769 0695 C6040300 		movb	$0, (%rbx,%rax)
 2770 0699 4C8D6424 		leaq	64(%rsp), %r12
 2770      40
 2771 069e 418B4718 		movl	24(%r15), %eax
 2772 06a2 4C8B7424 		movq	32(%rsp), %r14
 2772      20
 2773 06a7 488B5C24 		movq	40(%rsp), %rbx
 2773      28
 2774 06ac 89442440 		movl	%eax, 64(%rsp)
 2775 06b0 498D4424 		leaq	24(%r12), %rax
 2775      18
 2776 06b5 48894424 		movq	%rax, 72(%rsp)
 2776      48
 2777 06ba 4C89F0   		movq	%r14, %rax
 2778 06bd 4801D8   		addq	%rbx, %rax
 2779 06c0 7409     		je	.L626
 2780 06c2 4D85F6   		testq	%r14, %r14
 2781 06c5 0F844102 		je	.L672
 2781      0000
 2782              	.L626:
 2783 06cb 4883FB0F 		cmpq	$15, %rbx
 2784 06cf 48895C24 		movq	%rbx, 16(%rsp)
 2784      10
 2785 06d4 0F874E01 		ja	.L673
 2785      0000
 2786 06da 4883FB01 		cmpq	$1, %rbx
 2787 06de 0F859C01 		jne	.L629
 2787      0000
 2788 06e4 410FB606 		movzbl	(%r14), %eax
 2789 06e8 88442458 		movb	%al, 88(%rsp)
 2790 06ec 498D4424 		leaq	24(%r12), %rax
 2790      18
 2791              	.L630:
 2792 06f1 48895C24 		movq	%rbx, 80(%rsp)
 2792      50
 2793 06f6 C6041800 		movb	$0, (%rax,%rbx)
 2794 06fa 488B5DE8 		movq	-24(%rbp), %rbx
 2795 06fe 483B5DF0 		cmpq	-16(%rbp), %rbx
 2796 0702 0F848801 		je	.L631
 2796      0000
 2797 0708 4885DB   		testq	%rbx, %rbx
 2798 070b 745F     		je	.L632
 2799 070d 8B442440 		movl	64(%rsp), %eax
 2800 0711 8903     		movl	%eax, (%rbx)
 2801 0713 488D4318 		leaq	24(%rbx), %rax
 2802 0717 48894308 		movq	%rax, 8(%rbx)
 2803 071b 488B4C24 		movq	72(%rsp), %rcx
 2803      48
 2804 0720 4C8B7424 		movq	80(%rsp), %r14
 2804      50
 2805 0725 4889CE   		movq	%rcx, %rsi
 2806 0728 48894C24 		movq	%rcx, 8(%rsp)
 2806      08
 2807 072d 4C01F6   		addq	%r14, %rsi
 2808 0730 7409     		je	.L633
 2809 0732 4885C9   		testq	%rcx, %rcx
 2810 0735 0F84FB01 		je	.L674
 2810      0000
 2811              	.L633:
 2812 073b 4983FE0F 		cmpq	$15, %r14
 2813 073f 4C897424 		movq	%r14, 24(%rsp)
 2813      18
 2814 0744 0F876601 		ja	.L675
 2814      0000
 2815 074a 4983FE01 		cmpq	$1, %r14
 2816 074e 0F859C01 		jne	.L636
 2816      0000
 2817 0754 488B4C24 		movq	8(%rsp), %rcx
 2817      08
 2818 0759 0FB611   		movzbl	(%rcx), %edx
 2819 075c 885318   		movb	%dl, 24(%rbx)
 2820              	.L637:
 2821 075f 4C897310 		movq	%r14, 16(%rbx)
 2822 0763 42C60430 		movb	$0, (%rax,%r14)
 2822      00
 2823 0768 488B5DE8 		movq	-24(%rbp), %rbx
 2824              	.L632:
 2825 076c 4883C328 		addq	$40, %rbx
 2826 0770 4C8D7580 		leaq	-128(%rbp), %r14
 2827 0774 48895DE8 		movq	%rbx, -24(%rbp)
 2828              	.L638:
 2829 0778 488B7C24 		movq	72(%rsp), %rdi
 2829      48
 2830 077d 4983C418 		addq	$24, %r12
 2831 0781 4C39E7   		cmpq	%r12, %rdi
 2832 0784 7405     		je	.L639
 2833 0786 E8000000 		call	_ZdlPv@PLT
 2833      00
 2834              	.L639:
 2835 078b 488B7C24 		movq	32(%rsp), %rdi
 2835      20
 2836 0790 4983C510 		addq	$16, %r13
 2837 0794 4C39EF   		cmpq	%r13, %rdi
 2838 0797 7405     		je	.L640
 2839 0799 E8000000 		call	_ZdlPv@PLT
 2839      00
 2840              	.L640:
 2841 079e 498B5F10 		movq	16(%r15), %rbx
 2842 07a2 4889DF   		movq	%rbx, %rdi
 2843 07a5 E8000000 		call	strlen@PLT
 2843      00
 2844 07aa 488B55C8 		movq	-56(%rbp), %rdx
 2845 07ae 498D7E40 		leaq	64(%r14), %rdi
 2846 07b2 31F6     		xorl	%esi, %esi
 2847 07b4 4989C0   		movq	%rax, %r8
 2848 07b7 4889D9   		movq	%rbx, %rcx
 2849              	.LEHB63:
 2850 07ba E8000000 		call	_ZNSt7__cxx1112basic_stringIcSt11char_traitsIcESaIcEE10_M_replaceEmmPKcm@PLT
 2850      00
 2851 07bf 488B4424 		movq	104(%rsp), %rax
 2851      68
 2852 07c4 64483304 		xorq	%fs:40, %rax
 2852      25280000 
 2852      00
 2853 07cd 0F852801 		jne	.L676
 2853      0000
 2854 07d3 4883C478 		addq	$120, %rsp
 2855              		.cfi_remember_state
 2856              		.cfi_def_cfa_offset 56
 2857 07d7 5B       		popq	%rbx
 2858              		.cfi_def_cfa_offset 48
 2859 07d8 5D       		popq	%rbp
 2860              		.cfi_def_cfa_offset 40
 2861 07d9 415C     		popq	%r12
 2862              		.cfi_def_cfa_offset 32
 2863 07db 415D     		popq	%r13
 2864              		.cfi_def_cfa_offset 24
 2865 07dd 415E     		popq	%r14
 2866              		.cfi_def_cfa_offset 16
 2867 07df 415F     		popq	%r15
 2868              		.cfi_def_cfa_offset 8
 2869 07e1 C3       		ret
 2870              		.p2align 4,,10
 2871 07e2 660F1F44 		.p2align 3
 2871      0000
 2872              	.L671:
 2873              		.cfi_restore_state
 2874 07e8 488D7424 		leaq	24(%rsp), %rsi
 2874      18
 2875 07ed 31D2     		xorl	%edx, %edx
 2876 07ef 4C89EF   		movq	%r13, %rdi
 2877 07f2 E8000000 		call	_ZNSt7__cxx1112basic_stringIcSt11char_traitsIcESaIcEE9_M_createERmm@PLT
 2877      00
 2878              	.LEHE63:
 2879 07f7 488B5424 		movq	24(%rsp), %rdx
 2879      18
 2880 07fc 48894424 		movq	%rax, 32(%rsp)
 2880      20
 2881 0801 48895424 		movq	%rdx, 48(%rsp)
 2881      30
 2882              	.L623:
 2883 0806 4C89F2   		movq	%r14, %rdx
 2884 0809 4C89E6   		movq	%r12, %rsi
 2885 080c 4889C7   		movq	%rax, %rdi
 2886 080f E8000000 		call	memcpy@PLT
 2886      00
 2887 0814 488B4424 		movq	24(%rsp), %rax
 2887      18
 2888 0819 488B5C24 		movq	32(%rsp), %rbx
 2888      20
 2889 081e E96DFEFF 		jmp	.L625
 2889      FF
 2890              		.p2align 4,,10
 2891 0823 0F1F4400 		.p2align 3
 2891      00
 2892              	.L673:
 2893 0828 488D7424 		leaq	16(%rsp), %rsi
 2893      10
 2894 082d 498D7C24 		leaq	8(%r12), %rdi
 2894      08
 2895 0832 31D2     		xorl	%edx, %edx
 2896              	.LEHB64:
 2897 0834 E8000000 		call	_ZNSt7__cxx1112basic_stringIcSt11char_traitsIcESaIcEE9_M_createERmm@PLT
 2897      00
 2898              	.LEHE64:
 2899 0839 488B5424 		movq	16(%rsp), %rdx
 2899      10
 2900 083e 48894424 		movq	%rax, 72(%rsp)
 2900      48
 2901 0843 48895424 		movq	%rdx, 88(%rsp)
 2901      58
 2902              	.L628:
 2903 0848 4889DA   		movq	%rbx, %rdx
 2904 084b 4C89F6   		movq	%r14, %rsi
 2905 084e 4889C7   		movq	%rax, %rdi
 2906 0851 E8000000 		call	memcpy@PLT
 2906      00
 2907 0856 488B5C24 		movq	16(%rsp), %rbx
 2907      10
 2908 085b 488B4424 		movq	72(%rsp), %rax
 2908      48
 2909 0860 E98CFEFF 		jmp	.L630
 2909      FF
 2910              		.p2align 4,,10
 2911 0865 0F1F00   		.p2align 3
 2912              	.L624:
 2913 0868 4885C0   		testq	%rax, %rax
 2914 086b 0F841FFE 		je	.L625
 2914      FFFF
 2915 0871 4889D8   		movq	%rbx, %rax
 2916 0874 EB90     		jmp	.L623
 2917 0876 662E0F1F 		.p2align 4,,10
 2917      84000000 
 2917      0000
 2918              		.p2align 3
 2919              	.L629:
 2920 0880 4885DB   		testq	%rbx, %rbx
 2921 0883 498D4424 		leaq	24(%r12), %rax
 2921      18
 2922 0888 0F8463FE 		je	.L630
 2922      FFFF
 2923 088e EBB8     		jmp	.L628
 2924              		.p2align 4,,10
 2925              		.p2align 3
 2926              	.L631:
 2927 0890 4C8D7580 		leaq	-128(%rbp), %r14
 2928 0894 4C89E2   		movq	%r12, %rdx
 2929 0897 4889DE   		movq	%rbx, %rsi
 2930 089a 498D7E60 		leaq	96(%r14), %rdi
 2931              	.LEHB65:
 2932 089e E8000000 		call	_ZNSt6vectorISt4pairIiNSt7__cxx1112basic_stringIcSt11char_traitsIcESaIcEEEESaIS7_EE17_M_reall
 2932      00
 2933 08a3 E9D0FEFF 		jmp	.L638
 2933      FF
 2934 08a8 0F1F8400 		.p2align 4,,10
 2934      00000000 
 2935              		.p2align 3
 2936              	.L675:
 2937 08b0 488D7424 		leaq	24(%rsp), %rsi
 2937      18
 2938 08b5 488D7B08 		leaq	8(%rbx), %rdi
 2939 08b9 31D2     		xorl	%edx, %edx
 2940 08bb E8000000 		call	_ZNSt7__cxx1112basic_stringIcSt11char_traitsIcESaIcEE9_M_createERmm@PLT
 2940      00
 2941              	.LEHE65:
 2942 08c0 488B5424 		movq	24(%rsp), %rdx
 2942      18
 2943 08c5 48894308 		movq	%rax, 8(%rbx)
 2944 08c9 48895318 		movq	%rdx, 24(%rbx)
 2945              	.L635:
 2946 08cd 488B7424 		movq	8(%rsp), %rsi
 2946      08
 2947 08d2 4C89F2   		movq	%r14, %rdx
 2948 08d5 4889C7   		movq	%rax, %rdi
 2949 08d8 E8000000 		call	memcpy@PLT
 2949      00
 2950 08dd 4C8B7424 		movq	24(%rsp), %r14
 2950      18
 2951 08e2 488B4308 		movq	8(%rbx), %rax
 2952 08e6 E974FEFF 		jmp	.L637
 2952      FF
 2953 08eb 0F1F4400 		.p2align 4,,10
 2953      00
 2954              		.p2align 3
 2955              	.L636:
 2956 08f0 4D85F6   		testq	%r14, %r14
 2957 08f3 0F8466FE 		je	.L637
 2957      FFFF
 2958 08f9 EBD2     		jmp	.L635
 2959              	.L676:
 2960 08fb E8000000 		call	__stack_chk_fail@PLT
 2960      00
 2961              	.L620:
 2962 0900 488D3D00 		leaq	.LC0(%rip), %rdi
 2962      000000
 2963              	.LEHB66:
 2964 0907 E8000000 		call	_ZSt19__throw_logic_errorPKc@PLT
 2964      00
 2965              	.LEHE66:
 2966              	.L672:
 2967 090c 488D3D00 		leaq	.LC0(%rip), %rdi
 2967      000000
 2968              	.LEHB67:
 2969 0913 E8000000 		call	_ZSt19__throw_logic_errorPKc@PLT
 2969      00
 2970              	.LEHE67:
 2971              	.L648:
 2972 0918 4889C3   		movq	%rax, %rbx
 2973              	.L643:
 2974 091b 488B7C24 		movq	32(%rsp), %rdi
 2974      20
 2975 0920 4983C510 		addq	$16, %r13
 2976 0924 4C39EF   		cmpq	%r13, %rdi
 2977 0927 7405     		je	.L644
 2978 0929 E8000000 		call	_ZdlPv@PLT
 2978      00
 2979              	.L644:
 2980 092e 4889DF   		movq	%rbx, %rdi
 2981              	.LEHB68:
 2982 0931 E8000000 		call	_Unwind_Resume@PLT
 2982      00
 2983              	.LEHE68:
 2984              	.L674:
 2985 0936 488D3D00 		leaq	.LC0(%rip), %rdi
 2985      000000
 2986              	.LEHB69:
 2987 093d E8000000 		call	_ZSt19__throw_logic_errorPKc@PLT
 2987      00
 2988              	.LEHE69:
 2989              	.L649:
 2990 0942 488B7C24 		movq	72(%rsp), %rdi
 2990      48
 2991 0947 4983C418 		addq	$24, %r12
 2992 094b 4889C3   		movq	%rax, %rbx
 2993 094e 4C39E7   		cmpq	%r12, %rdi
 2994 0951 74C8     		je	.L643
 2995 0953 E8000000 		call	_ZdlPv@PLT
 2995      00
 2996 0958 EBC1     		jmp	.L643
 2997              		.cfi_endproc
 2998              	.LFE921:
 2999              		.section	.gcc_except_table
 3000              	.LLSDA921:
 3001 00a8 FF       		.byte	0xff
 3002 00a9 FF       		.byte	0xff
 3003 00aa 01       		.byte	0x1
 3004 00ab 27       		.uleb128 .LLSDACSE921-.LLSDACSB921
 3005              	.LLSDACSB921:
 3006 00ac 9A03     		.uleb128 .LEHB63-.LFB921
 3007 00ae 3D       		.uleb128 .LEHE63-.LEHB63
 3008 00af 00       		.uleb128 0
 3009 00b0 00       		.uleb128 0
 3010 00b1 9404     		.uleb128 .LEHB64-.LFB921
 3011 00b3 05       		.uleb128 .LEHE64-.LEHB64
 3012 00b4 F805     		.uleb128 .L648-.LFB921
 3013 00b6 00       		.uleb128 0
 3014 00b7 FE04     		.uleb128 .LEHB65-.LFB921
 3015 00b9 22       		.uleb128 .LEHE65-.LEHB65
 3016 00ba A206     		.uleb128 .L649-.LFB921
 3017 00bc 00       		.uleb128 0
 3018 00bd E705     		.uleb128 .LEHB66-.LFB921
 3019 00bf 05       		.uleb128 .LEHE66-.LEHB66
 3020 00c0 00       		.uleb128 0
 3021 00c1 00       		.uleb128 0
 3022 00c2 F305     		.uleb128 .LEHB67-.LFB921
 3023 00c4 05       		.uleb128 .LEHE67-.LEHB67
 3024 00c5 F805     		.uleb128 .L648-.LFB921
 3025 00c7 00       		.uleb128 0
 3026 00c8 9106     		.uleb128 .LEHB68-.LFB921
 3027 00ca 05       		.uleb128 .LEHE68-.LEHB68
 3028 00cb 00       		.uleb128 0
 3029 00cc 00       		.uleb128 0
 3030 00cd 9D06     		.uleb128 .LEHB69-.LFB921
 3031 00cf 05       		.uleb128 .LEHE69-.LEHB69
 3032 00d0 A206     		.uleb128 .L649-.LFB921
 3033 00d2 00       		.uleb128 0
 3034              	.LLSDACSE921:
 3035              		.text
 3037              		.weak	_ZTSN8UnitTest20DeferredTestReporterE
 3038              		.section	.rodata._ZTSN8UnitTest20DeferredTestReporterE,"aG",@progbits,_ZTSN8UnitTest20DeferredTest
 3039              		.align 32
 3042              	_ZTSN8UnitTest20DeferredTestReporterE:
 3043 0000 4E38556E 		.string	"N8UnitTest20DeferredTestReporterE"
 3043      69745465 
 3043      73743230 
 3043      44656665 
 3043      72726564 
 3044              		.weak	_ZTIN8UnitTest20DeferredTestReporterE
 3045              		.section	.data.rel.ro._ZTIN8UnitTest20DeferredTestReporterE,"awG",@progbits,_ZTIN8UnitTest20Deferr
 3046              		.align 8
 3049              	_ZTIN8UnitTest20DeferredTestReporterE:
 3050 0000 00000000 		.quad	_ZTVN10__cxxabiv120__si_class_type_infoE+16
 3050      00000000 
 3051 0008 00000000 		.quad	_ZTSN8UnitTest20DeferredTestReporterE
 3051      00000000 
 3052 0010 00000000 		.quad	_ZTIN8UnitTest12TestReporterE
 3052      00000000 
 3053              		.weak	_ZTVN8UnitTest20DeferredTestReporterE
 3054              		.section	.data.rel.ro._ZTVN8UnitTest20DeferredTestReporterE,"awG",@progbits,_ZTVN8UnitTest20Deferr
 3055              		.align 8
 3058              	_ZTVN8UnitTest20DeferredTestReporterE:
 3059 0000 00000000 		.quad	0
 3059      00000000 
 3060 0008 00000000 		.quad	_ZTIN8UnitTest20DeferredTestReporterE
 3060      00000000 
 3061 0010 00000000 		.quad	0
 3061      00000000 
 3062 0018 00000000 		.quad	0
 3062      00000000 
 3063 0020 00000000 		.quad	_ZN8UnitTest20DeferredTestReporter15ReportTestStartERKNS_11TestDetailsE
 3063      00000000 
 3064 0028 00000000 		.quad	_ZN8UnitTest20DeferredTestReporter13ReportFailureERKNS_11TestDetailsEPKc
 3064      00000000 
 3065 0030 00000000 		.quad	_ZN8UnitTest20DeferredTestReporter16ReportTestFinishERKNS_11TestDetailsEf
 3065      00000000 
 3066 0038 00000000 		.quad	__cxa_pure_virtual
 3066      00000000 
 3067              		.hidden	DW.ref.__gxx_personality_v0
 3068              		.weak	DW.ref.__gxx_personality_v0
 3069              		.section	.data.DW.ref.__gxx_personality_v0,"awG",@progbits,DW.ref.__gxx_personality_v0,comdat
 3070              		.align 8
 3073              	DW.ref.__gxx_personality_v0:
 3074 0000 00000000 		.quad	__gxx_personality_v0
 3074      00000000 
 3075              		.ident	"GCC: (Ubuntu 7.2.0-8ubuntu3.2) 7.2.0"
 3076              		.section	.note.GNU-stack,"",@progbits