   1              		.file	"XmlTestReporter.cpp"
   2              		.section	.text._ZN8UnitTest15XmlTestReporterD0Ev,"axG",@progbits,_ZN8UnitTest15XmlTestReporterD5Ev
   3              		.align 2
   4              		.p2align 4,,15
   5              		.weak	_ZN8UnitTest15XmlTestReporterD0Ev
   7              	_ZN8UnitTest15XmlTestReporterD0Ev:
   8              	.LFB1609:
   9              		.cfi_startproc
  10              		.cfi_personality 0x9b,DW.ref.__gxx_personality_v0
  11              		.cfi_lsda 0x1b,.LLSDA1609
  12 0000 4157     		pushq	%r15
  13              		.cfi_def_cfa_offset 16
  14              		.cfi_offset 15, -16
  15 0002 4156     		pushq	%r14
  16              		.cfi_def_cfa_offset 24
  17              		.cfi_offset 14, -24
  18 0004 4155     		pushq	%r13
  19              		.cfi_def_cfa_offset 32
  20              		.cfi_offset 13, -32
  21 0006 4154     		pushq	%r12
  22              		.cfi_def_cfa_offset 40
  23              		.cfi_offset 12, -40
  24 0008 4989FC   		movq	%rdi, %r12
  25 000b 55       		pushq	%rbp
  26              		.cfi_def_cfa_offset 48
  27              		.cfi_offset 6, -48
  28 000c 53       		pushq	%rbx
  29              		.cfi_def_cfa_offset 56
  30              		.cfi_offset 3, -56
  31 000d 4883EC08 		subq	$8, %rsp
  32              		.cfi_def_cfa_offset 64
  33 0011 488B0500 		movq	_ZTVN8UnitTest20DeferredTestReporterE@GOTPCREL(%rip), %rax
  33      000000
  34 0018 488B6F10 		movq	16(%rdi), %rbp
  35 001c 4C8B6F08 		movq	8(%rdi), %r13
  36 0020 4883C010 		addq	$16, %rax
  37 0024 4C39ED   		cmpq	%r13, %rbp
  38 0027 488907   		movq	%rax, (%rdi)
  39 002a 0F84C700 		je	.L2
  39      0000
  40 0030 49BECDCC 		movabsq	$922337203685477581, %r14
  40      CCCCCCCC 
  40      CC0C
  41 003a 660F1F44 		.p2align 4,,10
  41      0000
  42              		.p2align 3
  43              	.L3:
  44 0040 498B4D68 		movq	104(%r13), %rcx
  45 0044 498B4560 		movq	96(%r13), %rax
  46 0048 4839C1   		cmpq	%rax, %rcx
  47 004b 7455     		je	.L4
  48 004d 4C8D7828 		leaq	40(%rax), %r15
  49 0051 48BAFFFF 		movabsq	$2305843009213693951, %rdx
  49      FFFFFFFF 
  49      FF1F
  50 005b 4C29F9   		subq	%r15, %rcx
  51 005e 48C1E903 		shrq	$3, %rcx
  52 0062 490FAFCE 		imulq	%r14, %rcx
  53 0066 4821D1   		andq	%rdx, %rcx
  54 0069 488D4C89 		leaq	5(%rcx,%rcx,4), %rcx
  54      05
  55 006e 488D1CC8 		leaq	(%rax,%rcx,8), %rbx
  56 0072 EB15     		jmp	.L5
  57              		.p2align 4,,10
  58 0074 0F1F4000 		.p2align 3
  59              	.L26:
  60 0078 E8000000 		call	_ZdlPv@PLT
  60      00
  61 007d 4C39FB   		cmpq	%r15, %rbx
  62 0080 4C89F8   		movq	%r15, %rax
  63 0083 7419     		je	.L7
  64              	.L8:
  65 0085 4983C728 		addq	$40, %r15
  66              	.L5:
  67 0089 488B7808 		movq	8(%rax), %rdi
  68 008d 4883C018 		addq	$24, %rax
  69 0091 4839C7   		cmpq	%rax, %rdi
  70 0094 75E2     		jne	.L26
  71 0096 4939DF   		cmpq	%rbx, %r15
  72 0099 4C89F8   		movq	%r15, %rax
  73 009c 75E7     		jne	.L8
  74              	.L7:
  75 009e 498B4560 		movq	96(%r13), %rax
  76              	.L4:
  77 00a2 4885C0   		testq	%rax, %rax
  78 00a5 7408     		je	.L9
  79 00a7 4889C7   		movq	%rax, %rdi
  80 00aa E8000000 		call	_ZdlPv@PLT
  80      00
  81              	.L9:
  82 00af 498B7D40 		movq	64(%r13), %rdi
  83 00b3 498D4550 		leaq	80(%r13), %rax
  84 00b7 4839C7   		cmpq	%rax, %rdi
  85 00ba 7405     		je	.L10
  86 00bc E8000000 		call	_ZdlPv@PLT
  86      00
  87              	.L10:
  88 00c1 498B7D20 		movq	32(%r13), %rdi
  89 00c5 498D4530 		leaq	48(%r13), %rax
  90 00c9 4839C7   		cmpq	%rax, %rdi
  91 00cc 7405     		je	.L11
  92 00ce E8000000 		call	_ZdlPv@PLT
  92      00
  93              	.L11:
  94 00d3 498B7D00 		movq	0(%r13), %rdi
  95 00d7 498D4510 		leaq	16(%r13), %rax
  96 00db 4839C7   		cmpq	%rax, %rdi
  97 00de 7448     		je	.L12
  98 00e0 4983ED80 		subq	$-128, %r13
  99 00e4 E8000000 		call	_ZdlPv@PLT
  99      00
 100 00e9 4C39ED   		cmpq	%r13, %rbp
 101 00ec 0F854EFF 		jne	.L3
 101      FFFF
 102              	.L13:
 103 00f2 4D8B6C24 		movq	8(%r12), %r13
 103      08
 104              	.L2:
 105 00f7 4D85ED   		testq	%r13, %r13
 106 00fa 7408     		je	.L15
 107 00fc 4C89EF   		movq	%r13, %rdi
 108 00ff E8000000 		call	_ZdlPv@PLT
 108      00
 109              	.L15:
 110 0104 4C89E7   		movq	%r12, %rdi
 111              	.LEHB0:
 112 0107 E8000000 		call	_ZN8UnitTest12TestReporterD2Ev@PLT
 112      00
 113              	.LEHE0:
 114 010c 4883C408 		addq	$8, %rsp
 115              		.cfi_remember_state
 116              		.cfi_def_cfa_offset 56
 117 0110 4C89E7   		movq	%r12, %rdi
 118 0113 5B       		popq	%rbx
 119              		.cfi_def_cfa_offset 48
 120 0114 5D       		popq	%rbp
 121              		.cfi_def_cfa_offset 40
 122 0115 415C     		popq	%r12
 123              		.cfi_def_cfa_offset 32
 124 0117 415D     		popq	%r13
 125              		.cfi_def_cfa_offset 24
 126 0119 415E     		popq	%r14
 127              		.cfi_def_cfa_offset 16
 128 011b 415F     		popq	%r15
 129              		.cfi_def_cfa_offset 8
 130 011d E9000000 		jmp	_ZdlPv@PLT
 130      00
 131              		.p2align 4,,10
 132 0122 660F1F44 		.p2align 3
 132      0000
 133              	.L12:
 134              		.cfi_restore_state
 135 0128 4983ED80 		subq	$-128, %r13
 136 012c 4C39ED   		cmpq	%r13, %rbp
 137 012f 0F850BFF 		jne	.L3
 137      FFFF
 138 0135 EBBB     		jmp	.L13
 139              	.L17:
 140 0137 4889C3   		movq	%rax, %rbx
 141 013a 4C89E7   		movq	%r12, %rdi
 142 013d E8000000 		call	_ZdlPv@PLT
 142      00
 143 0142 4889DF   		movq	%rbx, %rdi
 144              	.LEHB1:
 145 0145 E8000000 		call	_Unwind_Resume@PLT
 145      00
 146              	.LEHE1:
 147              		.cfi_endproc
 148              	.LFE1609:
 149              		.globl	__gxx_personality_v0
 150              		.section	.gcc_except_table._ZN8UnitTest15XmlTestReporterD0Ev,"aG",@progbits,_ZN8UnitTest15XmlTestR
 151              	.LLSDA1609:
 152 0000 FF       		.byte	0xff
 153 0001 FF       		.byte	0xff
 154 0002 01       		.byte	0x1
 155 0003 0B       		.uleb128 .LLSDACSE1609-.LLSDACSB1609
 156              	.LLSDACSB1609:
 157 0004 8702     		.uleb128 .LEHB0-.LFB1609
 158 0006 05       		.uleb128 .LEHE0-.LEHB0
 159 0007 B702     		.uleb128 .L17-.LFB1609
 160 0009 00       		.uleb128 0
 161 000a C502     		.uleb128 .LEHB1-.LFB1609
 162 000c 05       		.uleb128 .LEHE1-.LEHB1
 163 000d 00       		.uleb128 0
 164 000e 00       		.uleb128 0
 165              	.LLSDACSE1609:
 166              		.section	.text._ZN8UnitTest15XmlTestReporterD0Ev,"axG",@progbits,_ZN8UnitTest15XmlTestReporterD5Ev
 168              		.section	.text._ZN8UnitTest15XmlTestReporterD2Ev,"axG",@progbits,_ZN8UnitTest15XmlTestReporterD5Ev
 169              		.align 2
 170              		.p2align 4,,15
 171              		.weak	_ZN8UnitTest15XmlTestReporterD2Ev
 173              	_ZN8UnitTest15XmlTestReporterD2Ev:
 174              	.LFB1607:
 175              		.cfi_startproc
 176 0000 4157     		pushq	%r15
 177              		.cfi_def_cfa_offset 16
 178              		.cfi_offset 15, -16
 179 0002 4156     		pushq	%r14
 180              		.cfi_def_cfa_offset 24
 181              		.cfi_offset 14, -24
 182 0004 4155     		pushq	%r13
 183              		.cfi_def_cfa_offset 32
 184              		.cfi_offset 13, -32
 185 0006 4154     		pushq	%r12
 186              		.cfi_def_cfa_offset 40
 187              		.cfi_offset 12, -40
 188 0008 4989FC   		movq	%rdi, %r12
 189 000b 55       		pushq	%rbp
 190              		.cfi_def_cfa_offset 48
 191              		.cfi_offset 6, -48
 192 000c 53       		pushq	%rbx
 193              		.cfi_def_cfa_offset 56
 194              		.cfi_offset 3, -56
 195 000d 4883EC08 		subq	$8, %rsp
 196              		.cfi_def_cfa_offset 64
 197 0011 488B0500 		movq	_ZTVN8UnitTest20DeferredTestReporterE@GOTPCREL(%rip), %rax
 197      000000
 198 0018 488B6F10 		movq	16(%rdi), %rbp
 199 001c 4C8B6F08 		movq	8(%rdi), %r13
 200 0020 4883C010 		addq	$16, %rax
 201 0024 4C39ED   		cmpq	%r13, %rbp
 202 0027 488907   		movq	%rax, (%rdi)
 203 002a 0F84C700 		je	.L28
 203      0000
 204 0030 49BECDCC 		movabsq	$922337203685477581, %r14
 204      CCCCCCCC 
 204      CC0C
 205 003a 660F1F44 		.p2align 4,,10
 205      0000
 206              		.p2align 3
 207              	.L29:
 208 0040 498B4D68 		movq	104(%r13), %rcx
 209 0044 498B4560 		movq	96(%r13), %rax
 210 0048 4839C1   		cmpq	%rax, %rcx
 211 004b 7455     		je	.L30
 212 004d 4C8D7828 		leaq	40(%rax), %r15
 213 0051 48BAFFFF 		movabsq	$2305843009213693951, %rdx
 213      FFFFFFFF 
 213      FF1F
 214 005b 4C29F9   		subq	%r15, %rcx
 215 005e 48C1E903 		shrq	$3, %rcx
 216 0062 490FAFCE 		imulq	%r14, %rcx
 217 0066 4821D1   		andq	%rdx, %rcx
 218 0069 488D4C89 		leaq	5(%rcx,%rcx,4), %rcx
 218      05
 219 006e 488D1CC8 		leaq	(%rax,%rcx,8), %rbx
 220 0072 EB15     		jmp	.L31
 221              		.p2align 4,,10
 222 0074 0F1F4000 		.p2align 3
 223              	.L49:
 224 0078 E8000000 		call	_ZdlPv@PLT
 224      00
 225 007d 4C39FB   		cmpq	%r15, %rbx
 226 0080 4C89F8   		movq	%r15, %rax
 227 0083 7419     		je	.L33
 228              	.L34:
 229 0085 4983C728 		addq	$40, %r15
 230              	.L31:
 231 0089 488B7808 		movq	8(%rax), %rdi
 232 008d 4883C018 		addq	$24, %rax
 233 0091 4839C7   		cmpq	%rax, %rdi
 234 0094 75E2     		jne	.L49
 235 0096 4939DF   		cmpq	%rbx, %r15
 236 0099 4C89F8   		movq	%r15, %rax
 237 009c 75E7     		jne	.L34
 238              	.L33:
 239 009e 498B4560 		movq	96(%r13), %rax
 240              	.L30:
 241 00a2 4885C0   		testq	%rax, %rax
 242 00a5 7408     		je	.L35
 243 00a7 4889C7   		movq	%rax, %rdi
 244 00aa E8000000 		call	_ZdlPv@PLT
 244      00
 245              	.L35:
 246 00af 498B7D40 		movq	64(%r13), %rdi
 247 00b3 498D4550 		leaq	80(%r13), %rax
 248 00b7 4839C7   		cmpq	%rax, %rdi
 249 00ba 7405     		je	.L36
 250 00bc E8000000 		call	_ZdlPv@PLT
 250      00
 251              	.L36:
 252 00c1 498B7D20 		movq	32(%r13), %rdi
 253 00c5 498D4530 		leaq	48(%r13), %rax
 254 00c9 4839C7   		cmpq	%rax, %rdi
 255 00cc 7405     		je	.L37
 256 00ce E8000000 		call	_ZdlPv@PLT
 256      00
 257              	.L37:
 258 00d3 498B7D00 		movq	0(%r13), %rdi
 259 00d7 498D4510 		leaq	16(%r13), %rax
 260 00db 4839C7   		cmpq	%rax, %rdi
 261 00de 7440     		je	.L38
 262 00e0 4983ED80 		subq	$-128, %r13
 263 00e4 E8000000 		call	_ZdlPv@PLT
 263      00
 264 00e9 4C39ED   		cmpq	%r13, %rbp
 265 00ec 0F854EFF 		jne	.L29
 265      FFFF
 266              	.L39:
 267 00f2 4D8B6C24 		movq	8(%r12), %r13
 267      08
 268              	.L28:
 269 00f7 4D85ED   		testq	%r13, %r13
 270 00fa 7408     		je	.L41
 271 00fc 4C89EF   		movq	%r13, %rdi
 272 00ff E8000000 		call	_ZdlPv@PLT
 272      00
 273              	.L41:
 274 0104 4883C408 		addq	$8, %rsp
 275              		.cfi_remember_state
 276              		.cfi_def_cfa_offset 56
 277 0108 4C89E7   		movq	%r12, %rdi
 278 010b 5B       		popq	%rbx
 279              		.cfi_def_cfa_offset 48
 280 010c 5D       		popq	%rbp
 281              		.cfi_def_cfa_offset 40
 282 010d 415C     		popq	%r12
 283              		.cfi_def_cfa_offset 32
 284 010f 415D     		popq	%r13
 285              		.cfi_def_cfa_offset 24
 286 0111 415E     		popq	%r14
 287              		.cfi_def_cfa_offset 16
 288 0113 415F     		popq	%r15
 289              		.cfi_def_cfa_offset 8
 290 0115 E9000000 		jmp	_ZN8UnitTest12TestReporterD2Ev@PLT
 290      00
 291 011a 660F1F44 		.p2align 4,,10
 291      0000
 292              		.p2align 3
 293              	.L38:
 294              		.cfi_restore_state
 295 0120 4983ED80 		subq	$-128, %r13
 296 0124 4C39ED   		cmpq	%r13, %rbp
 297 0127 0F8513FF 		jne	.L29
 297      FFFF
 298 012d EBC3     		jmp	.L39
 299              		.cfi_endproc
 300              	.LFE1607:
 302              		.weak	_ZN8UnitTest15XmlTestReporterD1Ev
 303              		.set	_ZN8UnitTest15XmlTestReporterD1Ev,_ZN8UnitTest15XmlTestReporterD2Ev
 304              		.text
 305              		.align 2
 306              		.p2align 4,,15
 307              		.globl	_ZN8UnitTest15XmlTestReporterC2ERSo
 309              	_ZN8UnitTest15XmlTestReporterC2ERSo:
 310              	.LFB1381:
 311              		.cfi_startproc
 312 0000 488B0500 		movq	_ZTVN8UnitTest15XmlTestReporterE@GOTPCREL(%rip), %rax
 312      000000
 313 0007 48C74708 		movq	$0, 8(%rdi)
 313      00000000 
 314 000f 48C74710 		movq	$0, 16(%rdi)
 314      00000000 
 315 0017 48C74718 		movq	$0, 24(%rdi)
 315      00000000 
 316 001f 48897720 		movq	%rsi, 32(%rdi)
 317 0023 4883C010 		addq	$16, %rax
 318 0027 488907   		movq	%rax, (%rdi)
 319 002a C3       		ret
 320              		.cfi_endproc
 321              	.LFE1381:
 323              		.globl	_ZN8UnitTest15XmlTestReporterC1ERSo
 324              		.set	_ZN8UnitTest15XmlTestReporterC1ERSo,_ZN8UnitTest15XmlTestReporterC2ERSo
 325              		.section	.rodata.str1.1,"aMS",@progbits,1
 326              	.LC0:
 327 0000 3C3F786D 		.string	"<?xml version=\"1.0\""
 327      6C207665 
 327      7273696F 
 327      6E3D2231 
 327      2E302200 
 328              	.LC1:
 329 0014 20656E63 		.string	" encoding=\""
 329      6F64696E 
 329      673D2200 
 330              	.LC2:
 331 0020 2200     		.string	"\""
 332              	.LC3:
 333 0022 3F3E00   		.string	"?>"
 334              		.text
 335 002b 90       		.align 2
 336 002c 0F1F4000 		.p2align 4,,15
 337              		.globl	_ZN8UnitTest15XmlTestReporter13AddXmlElementERSoPKc
 339              	_ZN8UnitTest15XmlTestReporter13AddXmlElementERSoPKc:
 340              	.LFB1384:
 341              		.cfi_startproc
 342 0030 55       		pushq	%rbp
 343              		.cfi_def_cfa_offset 16
 344              		.cfi_offset 6, -16
 345 0031 53       		pushq	%rbx
 346              		.cfi_def_cfa_offset 24
 347              		.cfi_offset 3, -24
 348 0032 4889F3   		movq	%rsi, %rbx
 349 0035 488D3500 		leaq	.LC0(%rip), %rsi
 349      000000
 350 003c 4889D5   		movq	%rdx, %rbp
 351 003f 4889DF   		movq	%rbx, %rdi
 352 0042 4883EC08 		subq	$8, %rsp
 353              		.cfi_def_cfa_offset 32
 354 0046 BA130000 		movl	$19, %edx
 354      00
 355 004b E8000000 		call	_ZSt16__ostream_insertIcSt11char_traitsIcEERSt13basic_ostreamIT_T0_ES6_PKS3_l@PLT
 355      00
 356 0050 4885ED   		testq	%rbp, %rbp
 357 0053 743E     		je	.L52
 358 0055 488D3500 		leaq	.LC1(%rip), %rsi
 358      000000
 359 005c BA0B0000 		movl	$11, %edx
 359      00
 360 0061 4889DF   		movq	%rbx, %rdi
 361 0064 E8000000 		call	_ZSt16__ostream_insertIcSt11char_traitsIcEERSt13basic_ostreamIT_T0_ES6_PKS3_l@PLT
 361      00
 362 0069 4889EF   		movq	%rbp, %rdi
 363 006c E8000000 		call	strlen@PLT
 363      00
 364 0071 4889EE   		movq	%rbp, %rsi
 365 0074 4889C2   		movq	%rax, %rdx
 366 0077 4889DF   		movq	%rbx, %rdi
 367 007a E8000000 		call	_ZSt16__ostream_insertIcSt11char_traitsIcEERSt13basic_ostreamIT_T0_ES6_PKS3_l@PLT
 367      00
 368 007f 488D3500 		leaq	.LC2(%rip), %rsi
 368      000000
 369 0086 BA010000 		movl	$1, %edx
 369      00
 370 008b 4889DF   		movq	%rbx, %rdi
 371 008e E8000000 		call	_ZSt16__ostream_insertIcSt11char_traitsIcEERSt13basic_ostreamIT_T0_ES6_PKS3_l@PLT
 371      00
 372              	.L52:
 373 0093 4883C408 		addq	$8, %rsp
 374              		.cfi_def_cfa_offset 24
 375 0097 4889DF   		movq	%rbx, %rdi
 376 009a 488D3500 		leaq	.LC3(%rip), %rsi
 376      000000
 377 00a1 5B       		popq	%rbx
 378              		.cfi_def_cfa_offset 16
 379 00a2 5D       		popq	%rbp
 380              		.cfi_def_cfa_offset 8
 381 00a3 BA020000 		movl	$2, %edx
 381      00
 382 00a8 E9000000 		jmp	_ZSt16__ostream_insertIcSt11char_traitsIcEERSt13basic_ostreamIT_T0_ES6_PKS3_l@PLT
 382      00
 383              		.cfi_endproc
 384              	.LFE1384:
 386              		.section	.rodata.str1.1
 387              	.LC4:
 388 0025 3C756E69 		.string	"<unittest-results"
 388      74746573 
 388      742D7265 
 388      73756C74 
 388      7300
 389              	.LC5:
 390 0037 20746573 		.string	" tests=\""
 390      74733D22 
 390      00
 391              	.LC6:
 392 0040 20666169 		.string	" failedtests=\""
 392      6C656474 
 392      65737473 
 392      3D2200
 393              	.LC7:
 394 004f 20666169 		.string	" failures=\""
 394      6C757265 
 394      733D2200 
 395              	.LC8:
 396 005b 2074696D 		.string	" time=\""
 396      653D2200 
 397              	.LC9:
 398 0063 3E00     		.string	">"
 399              		.text
 400 00ad 90       		.align 2
 401 00ae 6690     		.p2align 4,,15
 402              		.globl	_ZN8UnitTest15XmlTestReporter12BeginResultsERSoiiif
 404              	_ZN8UnitTest15XmlTestReporter12BeginResultsERSoiiif:
 405              	.LFB1385:
 406              		.cfi_startproc
 407 00b0 4155     		pushq	%r13
 408              		.cfi_def_cfa_offset 16
 409              		.cfi_offset 13, -16
 410 00b2 4154     		pushq	%r12
 411              		.cfi_def_cfa_offset 24
 412              		.cfi_offset 12, -24
 413 00b4 4189D5   		movl	%edx, %r13d
 414 00b7 55       		pushq	%rbp
 415              		.cfi_def_cfa_offset 32
 416              		.cfi_offset 6, -32
 417 00b8 53       		pushq	%rbx
 418              		.cfi_def_cfa_offset 40
 419              		.cfi_offset 3, -40
 420 00b9 4889F3   		movq	%rsi, %rbx
 421 00bc 488D3500 		leaq	.LC4(%rip), %rsi
 421      000000
 422 00c3 4889DF   		movq	%rbx, %rdi
 423 00c6 BA110000 		movl	$17, %edx
 423      00
 424 00cb 4883EC18 		subq	$24, %rsp
 425              		.cfi_def_cfa_offset 64
 426 00cf 4189CC   		movl	%ecx, %r12d
 427 00d2 4489C5   		movl	%r8d, %ebp
 428 00d5 F30F1144 		movss	%xmm0, 12(%rsp)
 428      240C
 429 00db E8000000 		call	_ZSt16__ostream_insertIcSt11char_traitsIcEERSt13basic_ostreamIT_T0_ES6_PKS3_l@PLT
 429      00
 430 00e0 488D3500 		leaq	.LC5(%rip), %rsi
 430      000000
 431 00e7 BA080000 		movl	$8, %edx
 431      00
 432 00ec 4889DF   		movq	%rbx, %rdi
 433 00ef E8000000 		call	_ZSt16__ostream_insertIcSt11char_traitsIcEERSt13basic_ostreamIT_T0_ES6_PKS3_l@PLT
 433      00
 434 00f4 4489EE   		movl	%r13d, %esi
 435 00f7 4889DF   		movq	%rbx, %rdi
 436 00fa E8000000 		call	_ZNSolsEi@PLT
 436      00
 437 00ff 488D3500 		leaq	.LC2(%rip), %rsi
 437      000000
 438 0106 BA010000 		movl	$1, %edx
 438      00
 439 010b 4889C7   		movq	%rax, %rdi
 440 010e 4889C3   		movq	%rax, %rbx
 441 0111 E8000000 		call	_ZSt16__ostream_insertIcSt11char_traitsIcEERSt13basic_ostreamIT_T0_ES6_PKS3_l@PLT
 441      00
 442 0116 488D3500 		leaq	.LC6(%rip), %rsi
 442      000000
 443 011d BA0E0000 		movl	$14, %edx
 443      00
 444 0122 4889DF   		movq	%rbx, %rdi
 445 0125 E8000000 		call	_ZSt16__ostream_insertIcSt11char_traitsIcEERSt13basic_ostreamIT_T0_ES6_PKS3_l@PLT
 445      00
 446 012a 4489E6   		movl	%r12d, %esi
 447 012d 4889DF   		movq	%rbx, %rdi
 448 0130 E8000000 		call	_ZNSolsEi@PLT
 448      00
 449 0135 488D3500 		leaq	.LC2(%rip), %rsi
 449      000000
 450 013c BA010000 		movl	$1, %edx
 450      00
 451 0141 4889C7   		movq	%rax, %rdi
 452 0144 4889C3   		movq	%rax, %rbx
 453 0147 E8000000 		call	_ZSt16__ostream_insertIcSt11char_traitsIcEERSt13basic_ostreamIT_T0_ES6_PKS3_l@PLT
 453      00
 454 014c 488D3500 		leaq	.LC7(%rip), %rsi
 454      000000
 455 0153 BA0B0000 		movl	$11, %edx
 455      00
 456 0158 4889DF   		movq	%rbx, %rdi
 457 015b E8000000 		call	_ZSt16__ostream_insertIcSt11char_traitsIcEERSt13basic_ostreamIT_T0_ES6_PKS3_l@PLT
 457      00
 458 0160 89EE     		movl	%ebp, %esi
 459 0162 4889DF   		movq	%rbx, %rdi
 460 0165 E8000000 		call	_ZNSolsEi@PLT
 460      00
 461 016a 488D3500 		leaq	.LC2(%rip), %rsi
 461      000000
 462 0171 BA010000 		movl	$1, %edx
 462      00
 463 0176 4889C7   		movq	%rax, %rdi
 464 0179 4889C3   		movq	%rax, %rbx
 465 017c E8000000 		call	_ZSt16__ostream_insertIcSt11char_traitsIcEERSt13basic_ostreamIT_T0_ES6_PKS3_l@PLT
 465      00
 466 0181 488D3500 		leaq	.LC8(%rip), %rsi
 466      000000
 467 0188 BA070000 		movl	$7, %edx
 467      00
 468 018d 4889DF   		movq	%rbx, %rdi
 469 0190 E8000000 		call	_ZSt16__ostream_insertIcSt11char_traitsIcEERSt13basic_ostreamIT_T0_ES6_PKS3_l@PLT
 469      00
 470 0195 F30F1044 		movss	12(%rsp), %xmm0
 470      240C
 471 019b 4889DF   		movq	%rbx, %rdi
 472 019e F30F5AC0 		cvtss2sd	%xmm0, %xmm0
 473 01a2 E8000000 		call	_ZNSo9_M_insertIdEERSoT_@PLT
 473      00
 474 01a7 488D3500 		leaq	.LC2(%rip), %rsi
 474      000000
 475 01ae BA010000 		movl	$1, %edx
 475      00
 476 01b3 4889C7   		movq	%rax, %rdi
 477 01b6 4889C3   		movq	%rax, %rbx
 478 01b9 E8000000 		call	_ZSt16__ostream_insertIcSt11char_traitsIcEERSt13basic_ostreamIT_T0_ES6_PKS3_l@PLT
 478      00
 479 01be 4883C418 		addq	$24, %rsp
 480              		.cfi_def_cfa_offset 40
 481 01c2 4889DF   		movq	%rbx, %rdi
 482 01c5 488D3500 		leaq	.LC9(%rip), %rsi
 482      000000
 483 01cc 5B       		popq	%rbx
 484              		.cfi_def_cfa_offset 32
 485 01cd 5D       		popq	%rbp
 486              		.cfi_def_cfa_offset 24
 487 01ce 415C     		popq	%r12
 488              		.cfi_def_cfa_offset 16
 489 01d0 415D     		popq	%r13
 490              		.cfi_def_cfa_offset 8
 491 01d2 BA010000 		movl	$1, %edx
 491      00
 492 01d7 E9000000 		jmp	_ZSt16__ostream_insertIcSt11char_traitsIcEERSt13basic_ostreamIT_T0_ES6_PKS3_l@PLT
 492      00
 493              		.cfi_endproc
 494              	.LFE1385:
 496              		.section	.rodata.str1.1
 497              	.LC10:
 498 0065 3C2F756E 		.string	"</unittest-results>"
 498      69747465 
 498      73742D72 
 498      6573756C 
 498      74733E00 
 499              		.text
 500              		.align 2
 501 01dc 0F1F4000 		.p2align 4,,15
 502              		.globl	_ZN8UnitTest15XmlTestReporter10EndResultsERSo
 504              	_ZN8UnitTest15XmlTestReporter10EndResultsERSo:
 505              	.LFB1386:
 506              		.cfi_startproc
 507 01e0 4889F7   		movq	%rsi, %rdi
 508 01e3 488D3500 		leaq	.LC10(%rip), %rsi
 508      000000
 509 01ea BA130000 		movl	$19, %edx
 509      00
 510 01ef E9000000 		jmp	_ZSt16__ostream_insertIcSt11char_traitsIcEERSt13basic_ostreamIT_T0_ES6_PKS3_l@PLT
 510      00
 511              		.cfi_endproc
 512              	.LFE1386:
 514              		.section	.rodata.str1.1
 515              	.LC11:
 516 0079 3C746573 		.string	"<test"
 516      7400
 517              	.LC12:
 518 007f 20737569 		.string	" suite=\""
 518      74653D22 
 518      00
 519              	.LC13:
 520 0088 206E616D 		.string	" name=\""
 520      653D2200 
 521              		.text
 522              		.align 2
 523 01f4 6690662E 		.p2align 4,,15
 523      0F1F8400 
 523      00000000 
 524              		.globl	_ZN8UnitTest15XmlTestReporter9BeginTestERSoRKNS_18DeferredTestResultE
 526              	_ZN8UnitTest15XmlTestReporter9BeginTestERSoRKNS_18DeferredTestResultE:
 527              	.LFB1387:
 528              		.cfi_startproc
 529 0200 55       		pushq	%rbp
 530              		.cfi_def_cfa_offset 16
 531              		.cfi_offset 6, -16
 532 0201 53       		pushq	%rbx
 533              		.cfi_def_cfa_offset 24
 534              		.cfi_offset 3, -24
 535 0202 4889F5   		movq	%rsi, %rbp
 536 0205 488D3500 		leaq	.LC11(%rip), %rsi
 536      000000
 537 020c 4889D3   		movq	%rdx, %rbx
 538 020f 4889EF   		movq	%rbp, %rdi
 539 0212 4883EC08 		subq	$8, %rsp
 540              		.cfi_def_cfa_offset 32
 541 0216 BA050000 		movl	$5, %edx
 541      00
 542 021b E8000000 		call	_ZSt16__ostream_insertIcSt11char_traitsIcEERSt13basic_ostreamIT_T0_ES6_PKS3_l@PLT
 542      00
 543 0220 488D3500 		leaq	.LC12(%rip), %rsi
 543      000000
 544 0227 4889EF   		movq	%rbp, %rdi
 545 022a BA080000 		movl	$8, %edx
 545      00
 546 022f E8000000 		call	_ZSt16__ostream_insertIcSt11char_traitsIcEERSt13basic_ostreamIT_T0_ES6_PKS3_l@PLT
 546      00
 547 0234 488B5308 		movq	8(%rbx), %rdx
 548 0238 488B33   		movq	(%rbx), %rsi
 549 023b 4889EF   		movq	%rbp, %rdi
 550 023e E8000000 		call	_ZSt16__ostream_insertIcSt11char_traitsIcEERSt13basic_ostreamIT_T0_ES6_PKS3_l@PLT
 550      00
 551 0243 488D3500 		leaq	.LC2(%rip), %rsi
 551      000000
 552 024a BA010000 		movl	$1, %edx
 552      00
 553 024f 4889C7   		movq	%rax, %rdi
 554 0252 4889C5   		movq	%rax, %rbp
 555 0255 E8000000 		call	_ZSt16__ostream_insertIcSt11char_traitsIcEERSt13basic_ostreamIT_T0_ES6_PKS3_l@PLT
 555      00
 556 025a 488D3500 		leaq	.LC13(%rip), %rsi
 556      000000
 557 0261 4889EF   		movq	%rbp, %rdi
 558 0264 BA070000 		movl	$7, %edx
 558      00
 559 0269 E8000000 		call	_ZSt16__ostream_insertIcSt11char_traitsIcEERSt13basic_ostreamIT_T0_ES6_PKS3_l@PLT
 559      00
 560 026e 488B5328 		movq	40(%rbx), %rdx
 561 0272 488B7320 		movq	32(%rbx), %rsi
 562 0276 4889EF   		movq	%rbp, %rdi
 563 0279 E8000000 		call	_ZSt16__ostream_insertIcSt11char_traitsIcEERSt13basic_ostreamIT_T0_ES6_PKS3_l@PLT
 563      00
 564 027e 488D3500 		leaq	.LC2(%rip), %rsi
 564      000000
 565 0285 BA010000 		movl	$1, %edx
 565      00
 566 028a 4889C7   		movq	%rax, %rdi
 567 028d 4889C5   		movq	%rax, %rbp
 568 0290 E8000000 		call	_ZSt16__ostream_insertIcSt11char_traitsIcEERSt13basic_ostreamIT_T0_ES6_PKS3_l@PLT
 568      00
 569 0295 488D3500 		leaq	.LC8(%rip), %rsi
 569      000000
 570 029c BA070000 		movl	$7, %edx
 570      00
 571 02a1 4889EF   		movq	%rbp, %rdi
 572 02a4 E8000000 		call	_ZSt16__ostream_insertIcSt11char_traitsIcEERSt13basic_ostreamIT_T0_ES6_PKS3_l@PLT
 572      00
 573 02a9 660FEFC0 		pxor	%xmm0, %xmm0
 574 02ad 4889EF   		movq	%rbp, %rdi
 575 02b0 F30F5A43 		cvtss2sd	120(%rbx), %xmm0
 575      78
 576 02b5 E8000000 		call	_ZNSo9_M_insertIdEERSoT_@PLT
 576      00
 577 02ba 4883C408 		addq	$8, %rsp
 578              		.cfi_def_cfa_offset 24
 579 02be 488D3500 		leaq	.LC2(%rip), %rsi
 579      000000
 580 02c5 BA010000 		movl	$1, %edx
 580      00
 581 02ca 5B       		popq	%rbx
 582              		.cfi_def_cfa_offset 16
 583 02cb 5D       		popq	%rbp
 584              		.cfi_def_cfa_offset 8
 585 02cc 4889C7   		movq	%rax, %rdi
 586 02cf E9000000 		jmp	_ZSt16__ostream_insertIcSt11char_traitsIcEERSt13basic_ostreamIT_T0_ES6_PKS3_l@PLT
 586      00
 587              		.cfi_endproc
 588              	.LFE1387:
 590              		.section	.rodata.str1.1
 591              	.LC14:
 592 0090 3C2F7465 		.string	"</test>"
 592      73743E00 
 593              	.LC15:
 594 0098 2F3E00   		.string	"/>"
 595              		.text
 596              		.align 2
 597 02d4 6690662E 		.p2align 4,,15
 597      0F1F8400 
 597      00000000 
 598              		.globl	_ZN8UnitTest15XmlTestReporter7EndTestERSoRKNS_18DeferredTestResultE
 600              	_ZN8UnitTest15XmlTestReporter7EndTestERSoRKNS_18DeferredTestResultE:
 601              	.LFB1388:
 602              		.cfi_startproc
 603 02e0 807A7C00 		cmpb	$0, 124(%rdx)
 604 02e4 4889F7   		movq	%rsi, %rdi
 605 02e7 7517     		jne	.L64
 606 02e9 488D3500 		leaq	.LC15(%rip), %rsi
 606      000000
 607 02f0 BA020000 		movl	$2, %edx
 607      00
 608 02f5 E9000000 		jmp	_ZSt16__ostream_insertIcSt11char_traitsIcEERSt13basic_ostreamIT_T0_ES6_PKS3_l@PLT
 608      00
 609 02fa 660F1F44 		.p2align 4,,10
 609      0000
 610              		.p2align 3
 611              	.L64:
 612 0300 488D3500 		leaq	.LC14(%rip), %rsi
 612      000000
 613 0307 BA070000 		movl	$7, %edx
 613      00
 614 030c E9000000 		jmp	_ZSt16__ostream_insertIcSt11char_traitsIcEERSt13basic_ostreamIT_T0_ES6_PKS3_l@PLT
 614      00
 615              		.cfi_endproc
 616              	.LFE1388:
 618              		.section	.rodata.str1.8,"aMS",@progbits,1
 619              		.align 8
 620              	.LC16:
 621 0000 62617369 		.string	"basic_string::_M_construct null not valid"
 621      635F7374 
 621      72696E67 
 621      3A3A5F4D 
 621      5F636F6E 
 622              		.section	.rodata.str1.1
 623              	.LC17:
 624 009b 62617369 		.string	"basic_string::replace"
 624      635F7374 
 624      72696E67 
 624      3A3A7265 
 624      706C6163 
 625              		.section	.rodata.str1.8
 626 002a 00000000 		.align 8
 626      0000
 627              	.LC18:
 628 0030 25733A20 		.string	"%s: __pos (which is %zu) > this->size() (which is %zu)"
 628      5F5F706F 
 628      73202877 
 628      68696368 
 628      20697320 
 629              		.section	.rodata.str1.1
 630              	.LC19:
 631 00b1 2800     		.string	"("
 632              	.LC20:
 633 00b3 29203A20 		.string	") : "
 633      00
 634              	.LC21:
 635 00b8 3C666169 		.string	"<failure"
 635      6C757265 
 635      00
 636              	.LC22:
 637 00c1 206D6573 		.string	" message=\""
 637      73616765 
 637      3D2200
 638              		.text
 639 0311 90       		.align 2
 640 0312 0F1F4000 		.p2align 4,,15
 640      662E0F1F 
 640      84000000 
 640      0000
 641              		.globl	_ZN8UnitTest15XmlTestReporter10AddFailureERSoRKNS_18DeferredTestResultE
 643              	_ZN8UnitTest15XmlTestReporter10AddFailureERSoRKNS_18DeferredTestResultE:
 644              	.LFB1389:
 645              		.cfi_startproc
 646              		.cfi_personality 0x9b,DW.ref.__gxx_personality_v0
 647              		.cfi_lsda 0x1b,.LLSDA1389
 648 0320 4157     		pushq	%r15
 649              		.cfi_def_cfa_offset 16
 650              		.cfi_offset 15, -16
 651 0322 4156     		pushq	%r14
 652              		.cfi_def_cfa_offset 24
 653              		.cfi_offset 14, -24
 654 0324 4889F7   		movq	%rsi, %rdi
 655 0327 4155     		pushq	%r13
 656              		.cfi_def_cfa_offset 32
 657              		.cfi_offset 13, -32
 658 0329 4154     		pushq	%r12
 659              		.cfi_def_cfa_offset 40
 660              		.cfi_offset 12, -40
 661 032b 4989D6   		movq	%rdx, %r14
 662 032e 55       		pushq	%rbp
 663              		.cfi_def_cfa_offset 48
 664              		.cfi_offset 6, -48
 665 032f 53       		pushq	%rbx
 666              		.cfi_def_cfa_offset 56
 667              		.cfi_offset 3, -56
 668 0330 BA010000 		movl	$1, %edx
 668      00
 669 0335 4881EC38 		subq	$568, %rsp
 669      020000
 670              		.cfi_def_cfa_offset 624
 671 033c 48897424 		movq	%rsi, 16(%rsp)
 671      10
 672 0341 488D3500 		leaq	.LC9(%rip), %rsi
 672      000000
 673 0348 64488B04 		movq	%fs:40, %rax
 673      25280000 
 673      00
 674 0351 48898424 		movq	%rax, 552(%rsp)
 674      28020000 
 675 0359 31C0     		xorl	%eax, %eax
 676              	.LEHB2:
 677 035b E8000000 		call	_ZSt16__ostream_insertIcSt11char_traitsIcEERSt13basic_ostreamIT_T0_ES6_PKS3_l@PLT
 677      00
 678              	.LEHE2:
 679 0360 4D8B7E60 		movq	96(%r14), %r15
 680 0364 4D3B7E68 		cmpq	104(%r14), %r15
 681 0368 0F84B209 		je	.L65
 681      0000
 682 036e 488D5C24 		leaq	80(%rsp), %rbx
 682      50
 683 0373 4D8B6F08 		movq	8(%r15), %r13
 684 0377 4D8B6710 		movq	16(%r15), %r12
 685 037b 488D4310 		leaq	16(%rbx), %rax
 686 037f 48894424 		movq	%rax, 80(%rsp)
 686      50
 687 0384 4C89E8   		movq	%r13, %rax
 688 0387 4C01E0   		addq	%r12, %rax
 689 038a 7409     		je	.L165
 690 038c 4D85ED   		testq	%r13, %r13
 691 038f 0F84AD08 		je	.L67
 691      0000
 692              	.L165:
 693 0395 488D4424 		leaq	72(%rsp), %rax
 693      48
 694 039a 488DAC24 		leaq	176(%rsp), %rbp
 694      B0000000 
 695 03a2 48894424 		movq	%rax, 56(%rsp)
 695      38
 696 03a7 488D4424 		leaq	112(%rsp), %rax
 696      70
 697 03ac 48894424 		movq	%rax, 48(%rsp)
 697      30
 698 03b1 488D8424 		leaq	128(%rsp), %rax
 698      80000000 
 699 03b9 48894424 		movq	%rax, 24(%rsp)
 699      18
 700 03be 488D8424 		leaq	144(%rsp), %rax
 700      90000000 
 701 03c6 48894424 		movq	%rax, 8(%rsp)
 701      08
 702 03cb 0F1F4400 		.p2align 4,,10
 702      00
 703              		.p2align 3
 704              	.L199:
 705 03d0 4983FC0F 		cmpq	$15, %r12
 706 03d4 4C896424 		movq	%r12, 72(%rsp)
 706      48
 707 03d9 0F87E908 		ja	.L236
 707      0000
 708 03df 4983FC01 		cmpq	$1, %r12
 709 03e3 0F851F09 		jne	.L72
 709      0000
 710 03e9 410FB645 		movzbl	0(%r13), %eax
 710      00
 711 03ee 88442460 		movb	%al, 96(%rsp)
 712 03f2 488B4424 		movq	80(%rsp), %rax
 712      50
 713              	.L73:
 714 03f7 4C896424 		movq	%r12, 88(%rsp)
 714      58
 715 03fc 42C60420 		movb	$0, (%rax,%r12)
 715      00
 716 0401 488D4510 		leaq	16(%rbp), %rax
 717 0405 31D2     		xorl	%edx, %edx
 718 0407 BE260000 		movl	$38, %esi
 718      00
 719 040c 4889DF   		movq	%rbx, %rdi
 720 040f 48898424 		movq	%rax, 176(%rsp)
 720      B0000000 
 721 0417 C7451026 		movl	$1886216486, 16(%rbp)
 721      616D70
 722 041e C640043B 		movb	$59, 4(%rax)
 723 0422 48C78424 		movq	$5, 184(%rsp)
 723      B8000000 
 723      05000000 
 724 042e C68424C5 		movb	$0, 197(%rsp)
 724      00000000 
 725              	.LEHB3:
 726 0436 E8000000 		call	_ZNKSt7__cxx1112basic_stringIcSt11char_traitsIcESaIcEE4findEcm@PLT
 726      00
 727 043b 4883F8FF 		cmpq	$-1, %rax
 728 043f 4989C4   		movq	%rax, %r12
 729 0442 488B8C24 		movq	176(%rsp), %rcx
 729      B0000000 
 730 044a 0F847E00 		je	.L74
 730      0000
 731 0450 488B4424 		movq	88(%rsp), %rax
 731      58
 732 0455 BE010000 		movl	$1, %esi
 732      00
 733 045a 4C8B8424 		movq	184(%rsp), %r8
 733      B8000000 
 734 0462 4889C2   		movq	%rax, %rdx
 735 0465 4C29E2   		subq	%r12, %rdx
 736 0468 480F45D6 		cmovne	%rsi, %rdx
 737 046c 4939C4   		cmpq	%rax, %r12
 738 046f 0F875B0A 		ja	.L75
 738      0000
 739 0475 41BD0100 		movl	$1, %r13d
 739      0000
 740 047b EB23     		jmp	.L76
 741 047d 0F1F00   		.p2align 4,,10
 742              		.p2align 3
 743              	.L215:
 744 0480 488B4424 		movq	88(%rsp), %rax
 744      58
 745 0485 4C8B8424 		movq	184(%rsp), %r8
 745      B8000000 
 746 048d 4889C2   		movq	%rax, %rdx
 747 0490 4C29E2   		subq	%r12, %rdx
 748 0493 490F45D5 		cmovne	%r13, %rdx
 749 0497 4939C4   		cmpq	%rax, %r12
 750 049a 0F87300A 		ja	.L75
 750      0000
 751              	.L76:
 752 04a0 4C89E6   		movq	%r12, %rsi
 753 04a3 4889DF   		movq	%rbx, %rdi
 754 04a6 E8000000 		call	_ZNSt7__cxx1112basic_stringIcSt11char_traitsIcESaIcEE10_M_replaceEmmPKcm@PLT
 754      00
 755 04ab 498D5424 		leaq	1(%r12), %rdx
 755      01
 756 04b0 BE260000 		movl	$38, %esi
 756      00
 757 04b5 4889DF   		movq	%rbx, %rdi
 758 04b8 E8000000 		call	_ZNKSt7__cxx1112basic_stringIcSt11char_traitsIcESaIcEE4findEcm@PLT
 758      00
 759              	.LEHE3:
 760 04bd 4883F8FF 		cmpq	$-1, %rax
 761 04c1 4989C4   		movq	%rax, %r12
 762 04c4 488B8C24 		movq	176(%rsp), %rcx
 762      B0000000 
 763 04cc 75B2     		jne	.L215
 764              	.L74:
 765 04ce 488D4510 		leaq	16(%rbp), %rax
 766 04d2 4839C1   		cmpq	%rax, %rcx
 767 04d5 7408     		je	.L78
 768 04d7 4889CF   		movq	%rcx, %rdi
 769 04da E8000000 		call	_ZdlPv@PLT
 769      00
 770              	.L78:
 771 04df 488D4510 		leaq	16(%rbp), %rax
 772 04e3 31D2     		xorl	%edx, %edx
 773 04e5 BE3C0000 		movl	$60, %esi
 773      00
 774 04ea 4889DF   		movq	%rbx, %rdi
 775 04ed 48898424 		movq	%rax, 176(%rsp)
 775      B0000000 
 776 04f5 C7451026 		movl	$997485606, 16(%rbp)
 776      6C743B
 777 04fc 48C78424 		movq	$4, 184(%rsp)
 777      B8000000 
 777      04000000 
 778 0508 C68424C4 		movb	$0, 196(%rsp)
 778      00000000 
 779              	.LEHB4:
 780 0510 E8000000 		call	_ZNKSt7__cxx1112basic_stringIcSt11char_traitsIcESaIcEE4findEcm@PLT
 780      00
 781 0515 4883F8FF 		cmpq	$-1, %rax
 782 0519 4989C4   		movq	%rax, %r12
 783 051c 488B8C24 		movq	176(%rsp), %rcx
 783      B0000000 
 784 0524 0F848400 		je	.L79
 784      0000
 785 052a 488B4424 		movq	88(%rsp), %rax
 785      58
 786 052f BE010000 		movl	$1, %esi
 786      00
 787 0534 4C8B8424 		movq	184(%rsp), %r8
 787      B8000000 
 788 053c 4889C2   		movq	%rax, %rdx
 789 053f 4C29E2   		subq	%r12, %rdx
 790 0542 480F45D6 		cmovne	%rsi, %rdx
 791 0546 4939C4   		cmpq	%rax, %r12
 792 0549 0F876109 		ja	.L80
 792      0000
 793 054f 41BD0100 		movl	$1, %r13d
 793      0000
 794 0555 EB29     		jmp	.L81
 795 0557 660F1F84 		.p2align 4,,10
 795      00000000 
 795      00
 796              		.p2align 3
 797              	.L216:
 798 0560 488B4424 		movq	88(%rsp), %rax
 798      58
 799 0565 4C8B8424 		movq	184(%rsp), %r8
 799      B8000000 
 800 056d 4889C2   		movq	%rax, %rdx
 801 0570 4C29E2   		subq	%r12, %rdx
 802 0573 490F45D5 		cmovne	%r13, %rdx
 803 0577 4939C4   		cmpq	%rax, %r12
 804 057a 0F873009 		ja	.L80
 804      0000
 805              	.L81:
 806 0580 4C89E6   		movq	%r12, %rsi
 807 0583 4889DF   		movq	%rbx, %rdi
 808 0586 E8000000 		call	_ZNSt7__cxx1112basic_stringIcSt11char_traitsIcESaIcEE10_M_replaceEmmPKcm@PLT
 808      00
 809 058b 498D5424 		leaq	1(%r12), %rdx
 809      01
 810 0590 BE3C0000 		movl	$60, %esi
 810      00
 811 0595 4889DF   		movq	%rbx, %rdi
 812 0598 E8000000 		call	_ZNKSt7__cxx1112basic_stringIcSt11char_traitsIcESaIcEE4findEcm@PLT
 812      00
 813              	.LEHE4:
 814 059d 4883F8FF 		cmpq	$-1, %rax
 815 05a1 4989C4   		movq	%rax, %r12
 816 05a4 488B8C24 		movq	176(%rsp), %rcx
 816      B0000000 
 817 05ac 75B2     		jne	.L216
 818              	.L79:
 819 05ae 488D4510 		leaq	16(%rbp), %rax
 820 05b2 4839C1   		cmpq	%rax, %rcx
 821 05b5 7408     		je	.L83
 822 05b7 4889CF   		movq	%rcx, %rdi
 823 05ba E8000000 		call	_ZdlPv@PLT
 823      00
 824              	.L83:
 825 05bf 488D4510 		leaq	16(%rbp), %rax
 826 05c3 31D2     		xorl	%edx, %edx
 827 05c5 BE3E0000 		movl	$62, %esi
 827      00
 828 05ca 4889DF   		movq	%rbx, %rdi
 829 05cd 48898424 		movq	%rax, 176(%rsp)
 829      B0000000 
 830 05d5 C7451026 		movl	$997484326, 16(%rbp)
 830      67743B
 831 05dc 48C78424 		movq	$4, 184(%rsp)
 831      B8000000 
 831      04000000 
 832 05e8 C68424C4 		movb	$0, 196(%rsp)
 832      00000000 
 833              	.LEHB5:
 834 05f0 E8000000 		call	_ZNKSt7__cxx1112basic_stringIcSt11char_traitsIcESaIcEE4findEcm@PLT
 834      00
 835 05f5 4883F8FF 		cmpq	$-1, %rax
 836 05f9 4989C4   		movq	%rax, %r12
 837 05fc 488B8C24 		movq	176(%rsp), %rcx
 837      B0000000 
 838 0604 0F848400 		je	.L84
 838      0000
 839 060a 488B4424 		movq	88(%rsp), %rax
 839      58
 840 060f BE010000 		movl	$1, %esi
 840      00
 841 0614 4C8B8424 		movq	184(%rsp), %r8
 841      B8000000 
 842 061c 4889C2   		movq	%rax, %rdx
 843 061f 4C29E2   		subq	%r12, %rdx
 844 0622 480F45D6 		cmovne	%rsi, %rdx
 845 0626 4939C4   		cmpq	%rax, %r12
 846 0629 0F876108 		ja	.L85
 846      0000
 847 062f 41BD0100 		movl	$1, %r13d
 847      0000
 848 0635 EB29     		jmp	.L86
 849 0637 660F1F84 		.p2align 4,,10
 849      00000000 
 849      00
 850              		.p2align 3
 851              	.L217:
 852 0640 488B4424 		movq	88(%rsp), %rax
 852      58
 853 0645 4C8B8424 		movq	184(%rsp), %r8
 853      B8000000 
 854 064d 4889C2   		movq	%rax, %rdx
 855 0650 4C29E2   		subq	%r12, %rdx
 856 0653 490F45D5 		cmovne	%r13, %rdx
 857 0657 4939C4   		cmpq	%rax, %r12
 858 065a 0F873008 		ja	.L85
 858      0000
 859              	.L86:
 860 0660 4C89E6   		movq	%r12, %rsi
 861 0663 4889DF   		movq	%rbx, %rdi
 862 0666 E8000000 		call	_ZNSt7__cxx1112basic_stringIcSt11char_traitsIcESaIcEE10_M_replaceEmmPKcm@PLT
 862      00
 863 066b 498D5424 		leaq	1(%r12), %rdx
 863      01
 864 0670 BE3E0000 		movl	$62, %esi
 864      00
 865 0675 4889DF   		movq	%rbx, %rdi
 866 0678 E8000000 		call	_ZNKSt7__cxx1112basic_stringIcSt11char_traitsIcESaIcEE4findEcm@PLT
 866      00
 867              	.LEHE5:
 868 067d 4883F8FF 		cmpq	$-1, %rax
 869 0681 4989C4   		movq	%rax, %r12
 870 0684 488B8C24 		movq	176(%rsp), %rcx
 870      B0000000 
 871 068c 75B2     		jne	.L217
 872              	.L84:
 873 068e 488D4510 		leaq	16(%rbp), %rax
 874 0692 4839C1   		cmpq	%rax, %rcx
 875 0695 7408     		je	.L88
 876 0697 4889CF   		movq	%rcx, %rdi
 877 069a E8000000 		call	_ZdlPv@PLT
 877      00
 878              	.L88:
 879 069f 488D4510 		leaq	16(%rbp), %rax
 880 06a3 B9733B00 		movl	$15219, %ecx
 880      00
 881 06a8 31D2     		xorl	%edx, %edx
 882 06aa BE270000 		movl	$39, %esi
 882      00
 883 06af 4889DF   		movq	%rbx, %rdi
 884 06b2 48898424 		movq	%rax, 176(%rsp)
 884      B0000000 
 885 06ba C7451026 		movl	$1869635878, 16(%rbp)
 885      61706F
 886 06c1 66894804 		movw	%cx, 4(%rax)
 887 06c5 48C78424 		movq	$6, 184(%rsp)
 887      B8000000 
 887      06000000 
 888 06d1 C68424C6 		movb	$0, 198(%rsp)
 888      00000000 
 889              	.LEHB6:
 890 06d9 E8000000 		call	_ZNKSt7__cxx1112basic_stringIcSt11char_traitsIcESaIcEE4findEcm@PLT
 890      00
 891 06de 4883F8FF 		cmpq	$-1, %rax
 892 06e2 4989C4   		movq	%rax, %r12
 893 06e5 488B8C24 		movq	176(%rsp), %rcx
 893      B0000000 
 894 06ed 747F     		je	.L89
 895 06ef 488B4424 		movq	88(%rsp), %rax
 895      58
 896 06f4 BE010000 		movl	$1, %esi
 896      00
 897 06f9 4C8B8424 		movq	184(%rsp), %r8
 897      B8000000 
 898 0701 4889C2   		movq	%rax, %rdx
 899 0704 4C29E2   		subq	%r12, %rdx
 900 0707 480F45D6 		cmovne	%rsi, %rdx
 901 070b 4C39E0   		cmpq	%r12, %rax
 902 070e 0F825C07 		jb	.L90
 902      0000
 903 0714 41BD0100 		movl	$1, %r13d
 903      0000
 904 071a EB24     		jmp	.L91
 905 071c 0F1F4000 		.p2align 4,,10
 906              		.p2align 3
 907              	.L218:
 908 0720 488B4424 		movq	88(%rsp), %rax
 908      58
 909 0725 4C8B8424 		movq	184(%rsp), %r8
 909      B8000000 
 910 072d 4889C2   		movq	%rax, %rdx
 911 0730 4C29E2   		subq	%r12, %rdx
 912 0733 490F45D5 		cmovne	%r13, %rdx
 913 0737 4939C4   		cmpq	%rax, %r12
 914 073a 0F873007 		ja	.L90
 914      0000
 915              	.L91:
 916 0740 4C89E6   		movq	%r12, %rsi
 917 0743 4889DF   		movq	%rbx, %rdi
 918 0746 E8000000 		call	_ZNSt7__cxx1112basic_stringIcSt11char_traitsIcESaIcEE10_M_replaceEmmPKcm@PLT
 918      00
 919 074b 498D5424 		leaq	1(%r12), %rdx
 919      01
 920 0750 BE270000 		movl	$39, %esi
 920      00
 921 0755 4889DF   		movq	%rbx, %rdi
 922 0758 E8000000 		call	_ZNKSt7__cxx1112basic_stringIcSt11char_traitsIcESaIcEE4findEcm@PLT
 922      00
 923              	.LEHE6:
 924 075d 4883F8FF 		cmpq	$-1, %rax
 925 0761 4989C4   		movq	%rax, %r12
 926 0764 488B8C24 		movq	176(%rsp), %rcx
 926      B0000000 
 927 076c 75B2     		jne	.L218
 928              	.L89:
 929 076e 488D4510 		leaq	16(%rbp), %rax
 930 0772 4839C1   		cmpq	%rax, %rcx
 931 0775 7408     		je	.L93
 932 0777 4889CF   		movq	%rcx, %rdi
 933 077a E8000000 		call	_ZdlPv@PLT
 933      00
 934              	.L93:
 935 077f 488D4510 		leaq	16(%rbp), %rax
 936 0783 BA743B00 		movl	$15220, %edx
 936      00
 937 0788 BE220000 		movl	$34, %esi
 937      00
 938 078d 4889DF   		movq	%rbx, %rdi
 939 0790 48898424 		movq	%rax, 176(%rsp)
 939      B0000000 
 940 0798 C7451026 		movl	$1869967654, 16(%rbp)
 940      71756F
 941 079f 66895004 		movw	%dx, 4(%rax)
 942 07a3 31D2     		xorl	%edx, %edx
 943 07a5 48C78424 		movq	$6, 184(%rsp)
 943      B8000000 
 943      06000000 
 944 07b1 C68424C6 		movb	$0, 198(%rsp)
 944      00000000 
 945              	.LEHB7:
 946 07b9 E8000000 		call	_ZNKSt7__cxx1112basic_stringIcSt11char_traitsIcESaIcEE4findEcm@PLT
 946      00
 947 07be 4883F8FF 		cmpq	$-1, %rax
 948 07c2 4989C4   		movq	%rax, %r12
 949 07c5 488B8C24 		movq	176(%rsp), %rcx
 949      B0000000 
 950 07cd 747F     		je	.L94
 951 07cf 488B4424 		movq	88(%rsp), %rax
 951      58
 952 07d4 BE010000 		movl	$1, %esi
 952      00
 953 07d9 4C8B8424 		movq	184(%rsp), %r8
 953      B8000000 
 954 07e1 4889C2   		movq	%rax, %rdx
 955 07e4 4C29E2   		subq	%r12, %rdx
 956 07e7 480F45D6 		cmovne	%rsi, %rdx
 957 07eb 4939C4   		cmpq	%rax, %r12
 958 07ee 0F872C06 		ja	.L95
 958      0000
 959 07f4 41BD0100 		movl	$1, %r13d
 959      0000
 960 07fa EB24     		jmp	.L96
 961 07fc 0F1F4000 		.p2align 4,,10
 962              		.p2align 3
 963              	.L219:
 964 0800 488B4424 		movq	88(%rsp), %rax
 964      58
 965 0805 4C8B8424 		movq	184(%rsp), %r8
 965      B8000000 
 966 080d 4889C2   		movq	%rax, %rdx
 967 0810 4C29E2   		subq	%r12, %rdx
 968 0813 490F45D5 		cmovne	%r13, %rdx
 969 0817 4939C4   		cmpq	%rax, %r12
 970 081a 0F870006 		ja	.L95
 970      0000
 971              	.L96:
 972 0820 4C89E6   		movq	%r12, %rsi
 973 0823 4889DF   		movq	%rbx, %rdi
 974 0826 E8000000 		call	_ZNSt7__cxx1112basic_stringIcSt11char_traitsIcESaIcEE10_M_replaceEmmPKcm@PLT
 974      00
 975 082b 498D5424 		leaq	1(%r12), %rdx
 975      01
 976 0830 BE220000 		movl	$34, %esi
 976      00
 977 0835 4889DF   		movq	%rbx, %rdi
 978 0838 E8000000 		call	_ZNKSt7__cxx1112basic_stringIcSt11char_traitsIcESaIcEE4findEcm@PLT
 978      00
 979              	.LEHE7:
 980 083d 4883F8FF 		cmpq	$-1, %rax
 981 0841 4989C4   		movq	%rax, %r12
 982 0844 488B8C24 		movq	176(%rsp), %rcx
 982      B0000000 
 983 084c 75B2     		jne	.L219
 984              	.L94:
 985 084e 488D4510 		leaq	16(%rbp), %rax
 986 0852 4839C1   		cmpq	%rax, %rcx
 987 0855 7408     		je	.L98
 988 0857 4889CF   		movq	%rcx, %rdi
 989 085a E8000000 		call	_ZdlPv@PLT
 989      00
 990              	.L98:
 991 085f 418B07   		movl	(%r15), %eax
 992 0862 488D7D70 		leaq	112(%rbp), %rdi
 993 0866 89442420 		movl	%eax, 32(%rsp)
 994 086a E8000000 		call	_ZNSt8ios_baseC2Ev@PLT
 994      00
 995 086f 488B0500 		movq	_ZTVSt9basic_iosIcSt11char_traitsIcEE@GOTPCREL(%rip), %rax
 995      000000
 996 0876 C6842400 		movb	$0, 512(%rsp)
 996      02000000 
 997 087e 31F6     		xorl	%esi, %esi
 998 0880 48C78424 		movq	$0, 504(%rsp)
 998      F8010000 
 998      00000000 
 999 088c C6842401 		movb	$0, 513(%rsp)
 999      02000000 
 1000 0894 48C78424 		movq	$0, 520(%rsp)
 1000      08020000 
 1000      00000000 
 1001 08a0 48C78424 		movq	$0, 528(%rsp)
 1001      10020000 
 1001      00000000 
 1002 08ac 4883C010 		addq	$16, %rax
 1003 08b0 48C78424 		movq	$0, 536(%rsp)
 1003      18020000 
 1003      00000000 
 1004 08bc 48C78424 		movq	$0, 544(%rsp)
 1004      20020000 
 1004      00000000 
 1005 08c8 48898424 		movq	%rax, 288(%rsp)
 1005      20010000 
 1006 08d0 488B0500 		movq	_ZTTNSt7__cxx1119basic_ostringstreamIcSt11char_traitsIcESaIcEEE@GOTPCREL(%rip), %rax
 1006      000000
 1007 08d7 4C8B6008 		movq	8(%rax), %r12
 1008 08db 4C8B6810 		movq	16(%rax), %r13
 1009 08df 498B7C24 		movq	-24(%r12), %rdi
 1009      E8
 1010 08e4 4C89A424 		movq	%r12, 176(%rsp)
 1010      B0000000 
 1011 08ec 4801EF   		addq	%rbp, %rdi
 1012 08ef 4C892F   		movq	%r13, (%rdi)
 1013              	.LEHB8:
 1014 08f2 E8000000 		call	_ZNSt9basic_iosIcSt11char_traitsIcEE4initEPSt15basic_streambufIcS1_E@PLT
 1014      00
 1015              	.LEHE8:
 1016 08f7 488B0500 		movq	_ZTVNSt7__cxx1119basic_ostringstreamIcSt11char_traitsIcESaIcEEE@GOTPCREL(%rip), %rax
 1016      000000
 1017 08fe 660FEFC0 		pxor	%xmm0, %xmm0
 1018 0902 488D7D40 		leaq	64(%rbp), %rdi
 1019 0906 4883C018 		addq	$24, %rax
 1020 090a 48898424 		movq	%rax, 176(%rsp)
 1020      B0000000 
 1021 0912 488B0500 		movq	_ZTVNSt7__cxx1119basic_ostringstreamIcSt11char_traitsIcESaIcEEE@GOTPCREL(%rip), %rax
 1021      000000
 1022 0919 0F298424 		movaps	%xmm0, 192(%rsp)
 1022      C0000000 
 1023 0921 4883C040 		addq	$64, %rax
 1024 0925 0F298424 		movaps	%xmm0, 208(%rsp)
 1024      D0000000 
 1025 092d 48898424 		movq	%rax, 288(%rsp)
 1025      20010000 
 1026 0935 488B0500 		movq	_ZTVSt15basic_streambufIcSt11char_traitsIcEE@GOTPCREL(%rip), %rax
 1026      000000
 1027 093c 0F298424 		movaps	%xmm0, 224(%rsp)
 1027      E0000000 
 1028 0944 4883C010 		addq	$16, %rax
 1029 0948 48898424 		movq	%rax, 184(%rsp)
 1029      B8000000 
 1030 0950 E8000000 		call	_ZNSt6localeC1Ev@PLT
 1030      00
 1031 0955 488B0500 		movq	_ZTVNSt7__cxx1115basic_stringbufIcSt11char_traitsIcESaIcEEE@GOTPCREL(%rip), %rax
 1031      000000
 1032 095c 488D7508 		leaq	8(%rbp), %rsi
 1033 0960 488D7D70 		leaq	112(%rbp), %rdi
 1034 0964 C78424F8 		movl	$16, 248(%rsp)
 1034      00000010 
 1034      000000
 1035 096f 48C78424 		movq	$0, 264(%rsp)
 1035      08010000 
 1035      00000000 
 1036 097b C6842410 		movb	$0, 272(%rsp)
 1036      01000000 
 1037 0983 4883C010 		addq	$16, %rax
 1038 0987 48898424 		movq	%rax, 184(%rsp)
 1038      B8000000 
 1039 098f 488D4560 		leaq	96(%rbp), %rax
 1040 0993 48898424 		movq	%rax, 256(%rsp)
 1040      00010000 
 1041              	.LEHB9:
 1042 099b E8000000 		call	_ZNSt9basic_iosIcSt11char_traitsIcEE4initEPSt15basic_streambufIcS1_E@PLT
 1042      00
 1043              	.LEHE9:
 1044 09a0 498B5648 		movq	72(%r14), %rdx
 1045 09a4 498B7640 		movq	64(%r14), %rsi
 1046 09a8 4889EF   		movq	%rbp, %rdi
 1047              	.LEHB10:
 1048 09ab E8000000 		call	_ZSt16__ostream_insertIcSt11char_traitsIcEERSt13basic_ostreamIT_T0_ES6_PKS3_l@PLT
 1048      00
 1049 09b0 488D3500 		leaq	.LC19(%rip), %rsi
 1049      000000
 1050 09b7 BA010000 		movl	$1, %edx
 1050      00
 1051 09bc 4889C7   		movq	%rax, %rdi
 1052 09bf 48894424 		movq	%rax, 40(%rsp)
 1052      28
 1053 09c4 E8000000 		call	_ZSt16__ostream_insertIcSt11char_traitsIcEERSt13basic_ostreamIT_T0_ES6_PKS3_l@PLT
 1053      00
 1054 09c9 8B742420 		movl	32(%rsp), %esi
 1055 09cd 488B7C24 		movq	40(%rsp), %rdi
 1055      28
 1056 09d2 E8000000 		call	_ZNSolsEi@PLT
 1056      00
 1057 09d7 488D3500 		leaq	.LC20(%rip), %rsi
 1057      000000
 1058 09de BA040000 		movl	$4, %edx
 1058      00
 1059 09e3 4889C7   		movq	%rax, %rdi
 1060 09e6 48894424 		movq	%rax, 32(%rsp)
 1060      20
 1061 09eb E8000000 		call	_ZSt16__ostream_insertIcSt11char_traitsIcEERSt13basic_ostreamIT_T0_ES6_PKS3_l@PLT
 1061      00
 1062 09f0 488B5424 		movq	88(%rsp), %rdx
 1062      58
 1063 09f5 488B7424 		movq	80(%rsp), %rsi
 1063      50
 1064 09fa 488B7C24 		movq	32(%rsp), %rdi
 1064      20
 1065 09ff E8000000 		call	_ZSt16__ostream_insertIcSt11char_traitsIcEERSt13basic_ostreamIT_T0_ES6_PKS3_l@PLT
 1065      00
 1066              	.LEHE10:
 1067 0a04 488B4424 		movq	24(%rsp), %rax
 1067      18
 1068 0a09 48C74424 		movq	$0, 120(%rsp)
 1068      78000000 
 1068      00
 1069 0a12 C6842480 		movb	$0, 128(%rsp)
 1069      00000000 
 1070 0a1a 48894424 		movq	%rax, 112(%rsp)
 1070      70
 1071 0a1f 488B8424 		movq	224(%rsp), %rax
 1071      E0000000 
 1072 0a27 4885C0   		testq	%rax, %rax
 1073 0a2a 0F842003 		je	.L117
 1073      0000
 1074 0a30 4C8BA424 		movq	208(%rsp), %r12
 1074      D0000000 
 1075 0a38 4C8BAC24 		movq	216(%rsp), %r13
 1075      D8000000 
 1076 0a40 4C39E0   		cmpq	%r12, %rax
 1077 0a43 0F860702 		jbe	.L118
 1077      0000
 1078 0a49 488B7424 		movq	8(%rsp), %rsi
 1078      08
 1079 0a4e 4D85ED   		testq	%r13, %r13
 1080 0a51 488D5610 		leaq	16(%rsi), %rdx
 1081 0a55 48899424 		movq	%rdx, 144(%rsp)
 1081      90000000 
 1082 0a5d 0F84AF05 		je	.L237
 1082      0000
 1083 0a63 4C29E8   		subq	%r13, %rax
 1084 0a66 4883F80F 		cmpq	$15, %rax
 1085 0a6a 4989C4   		movq	%rax, %r12
 1086 0a6d 48894424 		movq	%rax, 64(%rsp)
 1086      40
 1087 0a72 0F873803 		ja	.L238
 1087      0000
 1088 0a78 4883F801 		cmpq	$1, %rax
 1089 0a7c 0F858E03 		jne	.L122
 1089      0000
 1090 0a82 410FB645 		movzbl	0(%r13), %eax
 1090      00
 1091 0a87 888424A0 		movb	%al, 160(%rsp)
 1091      000000
 1092              	.L123:
 1093 0a8e 4C8B6C24 		movq	8(%rsp), %r13
 1093      08
 1094 0a93 488B7C24 		movq	48(%rsp), %rdi
 1094      30
 1095 0a98 4C89A424 		movq	%r12, 152(%rsp)
 1095      98000000 
 1096 0aa0 42C60422 		movb	$0, (%rdx,%r12)
 1096      00
 1097 0aa5 4C89EE   		movq	%r13, %rsi
 1098              	.LEHB11:
 1099 0aa8 E8000000 		call	_ZNSt7__cxx1112basic_stringIcSt11char_traitsIcESaIcEE9_M_assignERKS4_@PLT
 1099      00
 1100              	.LEHE11:
 1101              	.L235:
 1102 0aad 488BBC24 		movq	144(%rsp), %rdi
 1102      90000000 
 1103 0ab5 4C89E8   		movq	%r13, %rax
 1104 0ab8 4883C010 		addq	$16, %rax
 1105 0abc 4839C7   		cmpq	%rax, %rdi
 1106 0abf 7405     		je	.L131
 1107 0ac1 E8000000 		call	_ZdlPv@PLT
 1107      00
 1108              	.L131:
 1109 0ac6 488B0500 		movq	_ZTTNSt7__cxx1119basic_ostringstreamIcSt11char_traitsIcESaIcEEE@GOTPCREL(%rip), %rax
 1109      000000
 1110 0acd 4C8B6008 		movq	8(%rax), %r12
 1111 0ad1 4C8B6810 		movq	16(%rax), %r13
 1112              	.L125:
 1113 0ad5 488B0500 		movq	_ZTVNSt7__cxx1119basic_ostringstreamIcSt11char_traitsIcESaIcEEE@GOTPCREL(%rip), %rax
 1113      000000
 1114 0adc 488B3500 		movq	_ZTVNSt7__cxx1119basic_ostringstreamIcSt11char_traitsIcESaIcEEE@GOTPCREL(%rip), %rsi
 1114      000000
 1115 0ae3 488BBC24 		movq	256(%rsp), %rdi
 1115      00010000 
 1116 0aeb 4883C040 		addq	$64, %rax
 1117 0aef 4883C618 		addq	$24, %rsi
 1118 0af3 48898424 		movq	%rax, 288(%rsp)
 1118      20010000 
 1119 0afb 488B0500 		movq	_ZTVNSt7__cxx1115basic_stringbufIcSt11char_traitsIcESaIcEEE@GOTPCREL(%rip), %rax
 1119      000000
 1120 0b02 48897424 		movq	%rsi, 32(%rsp)
 1120      20
 1121 0b07 F30F7E44 		movq	32(%rsp), %xmm0
 1121      2420
 1122 0b0d 4883C010 		addq	$16, %rax
 1123 0b11 48894424 		movq	%rax, 32(%rsp)
 1123      20
 1124 0b16 488D4560 		leaq	96(%rbp), %rax
 1125 0b1a 0F164424 		movhps	32(%rsp), %xmm0
 1125      20
 1126 0b1f 4839C7   		cmpq	%rax, %rdi
 1127 0b22 0F298424 		movaps	%xmm0, 176(%rsp)
 1127      B0000000 
 1128 0b2a 7405     		je	.L139
 1129 0b2c E8000000 		call	_ZdlPv@PLT
 1129      00
 1130              	.L139:
 1131 0b31 488D7D40 		leaq	64(%rbp), %rdi
 1132 0b35 488B0500 		movq	_ZTVSt15basic_streambufIcSt11char_traitsIcEE@GOTPCREL(%rip), %rax
 1132      000000
 1133 0b3c 4883C010 		addq	$16, %rax
 1134 0b40 48898424 		movq	%rax, 184(%rsp)
 1134      B8000000 
 1135 0b48 E8000000 		call	_ZNSt6localeD1Ev@PLT
 1135      00
 1136 0b4d 498B4424 		movq	-24(%r12), %rax
 1136      E8
 1137 0b52 4C89A424 		movq	%r12, 176(%rsp)
 1137      B0000000 
 1138 0b5a 488D7D70 		leaq	112(%rbp), %rdi
 1139 0b5e 4C89AC04 		movq	%r13, 176(%rsp,%rax)
 1139      B0000000 
 1140 0b66 488B0500 		movq	_ZTVSt9basic_iosIcSt11char_traitsIcEE@GOTPCREL(%rip), %rax
 1140      000000
 1141 0b6d 4883C010 		addq	$16, %rax
 1142 0b71 48898424 		movq	%rax, 288(%rsp)
 1142      20010000 
 1143              	.LEHB12:
 1144 0b79 E8000000 		call	_ZNSt8ios_baseD2Ev@PLT
 1144      00
 1145              	.LEHE12:
 1146 0b7e 488B7C24 		movq	16(%rsp), %rdi
 1146      10
 1147 0b83 488D3500 		leaq	.LC21(%rip), %rsi
 1147      000000
 1148 0b8a BA080000 		movl	$8, %edx
 1148      00
 1149              	.LEHB13:
 1150 0b8f E8000000 		call	_ZSt16__ostream_insertIcSt11char_traitsIcEERSt13basic_ostreamIT_T0_ES6_PKS3_l@PLT
 1150      00
 1151 0b94 4C8B6C24 		movq	16(%rsp), %r13
 1151      10
 1152 0b99 488D3500 		leaq	.LC22(%rip), %rsi
 1152      000000
 1153 0ba0 BA0A0000 		movl	$10, %edx
 1153      00
 1154 0ba5 4C89EF   		movq	%r13, %rdi
 1155 0ba8 E8000000 		call	_ZSt16__ostream_insertIcSt11char_traitsIcEERSt13basic_ostreamIT_T0_ES6_PKS3_l@PLT
 1155      00
 1156 0bad 488B5424 		movq	120(%rsp), %rdx
 1156      78
 1157 0bb2 488B7424 		movq	112(%rsp), %rsi
 1157      70
 1158 0bb7 4C89EF   		movq	%r13, %rdi
 1159 0bba E8000000 		call	_ZSt16__ostream_insertIcSt11char_traitsIcEERSt13basic_ostreamIT_T0_ES6_PKS3_l@PLT
 1159      00
 1160 0bbf 488D3500 		leaq	.LC2(%rip), %rsi
 1160      000000
 1161 0bc6 BA010000 		movl	$1, %edx
 1161      00
 1162 0bcb 4889C7   		movq	%rax, %rdi
 1163 0bce 4989C4   		movq	%rax, %r12
 1164 0bd1 E8000000 		call	_ZSt16__ostream_insertIcSt11char_traitsIcEERSt13basic_ostreamIT_T0_ES6_PKS3_l@PLT
 1164      00
 1165 0bd6 488D3500 		leaq	.LC15(%rip), %rsi
 1165      000000
 1166 0bdd BA020000 		movl	$2, %edx
 1166      00
 1167 0be2 4C89E7   		movq	%r12, %rdi
 1168 0be5 E8000000 		call	_ZSt16__ostream_insertIcSt11char_traitsIcEERSt13basic_ostreamIT_T0_ES6_PKS3_l@PLT
 1168      00
 1169              	.LEHE13:
 1170 0bea 488B7C24 		movq	112(%rsp), %rdi
 1170      70
 1171 0bef 483B7C24 		cmpq	24(%rsp), %rdi
 1171      18
 1172 0bf4 7405     		je	.L141
 1173 0bf6 E8000000 		call	_ZdlPv@PLT
 1173      00
 1174              	.L141:
 1175 0bfb 488B7C24 		movq	80(%rsp), %rdi
 1175      50
 1176 0c00 488D4310 		leaq	16(%rbx), %rax
 1177 0c04 4839C7   		cmpq	%rax, %rdi
 1178 0c07 7405     		je	.L142
 1179 0c09 E8000000 		call	_ZdlPv@PLT
 1179      00
 1180              	.L142:
 1181 0c0e 4983C728 		addq	$40, %r15
 1182 0c12 4D397E68 		cmpq	%r15, 104(%r14)
 1183 0c16 0F840401 		je	.L65
 1183      0000
 1184 0c1c 488D4310 		leaq	16(%rbx), %rax
 1185 0c20 48894424 		movq	%rax, 80(%rsp)
 1185      50
 1186 0c25 4D8B6F08 		movq	8(%r15), %r13
 1187 0c29 4D8B6710 		movq	16(%r15), %r12
 1188 0c2d 4C89E8   		movq	%r13, %rax
 1189 0c30 4C01E0   		addq	%r12, %rax
 1190 0c33 0F8497F7 		je	.L199
 1190      FFFF
 1191 0c39 4D85ED   		testq	%r13, %r13
 1192 0c3c 0F858EF7 		jne	.L199
 1192      FFFF
 1193              	.L67:
 1194 0c42 488D3D00 		leaq	.LC16(%rip), %rdi
 1194      000000
 1195              	.LEHB14:
 1196 0c49 E8000000 		call	_ZSt19__throw_logic_errorPKc@PLT
 1196      00
 1197              	.LEHE14:
 1198 0c4e 6690     		.p2align 4,,10
 1199              		.p2align 3
 1200              	.L118:
 1201 0c50 488B4424 		movq	8(%rsp), %rax
 1201      08
 1202 0c55 4883C010 		addq	$16, %rax
 1203 0c59 4D85E4   		testq	%r12, %r12
 1204 0c5c 48898424 		movq	%rax, 144(%rsp)
 1204      90000000 
 1205 0c64 7409     		je	.L126
 1206 0c66 4D85ED   		testq	%r13, %r13
 1207 0c69 0F848102 		je	.L239
 1207      0000
 1208              	.L126:
 1209 0c6f 4D29EC   		subq	%r13, %r12
 1210 0c72 4983FC0F 		cmpq	$15, %r12
 1211 0c76 4C896424 		movq	%r12, 72(%rsp)
 1211      48
 1212 0c7b 0F87E700 		ja	.L240
 1212      0000
 1213 0c81 4983FC01 		cmpq	$1, %r12
 1214 0c85 0F856D01 		jne	.L129
 1214      0000
 1215 0c8b 410FB645 		movzbl	0(%r13), %eax
 1215      00
 1216 0c90 888424A0 		movb	%al, 160(%rsp)
 1216      000000
 1217 0c97 488B4424 		movq	8(%rsp), %rax
 1217      08
 1218 0c9c 4883C010 		addq	$16, %rax
 1219              	.L130:
 1220 0ca0 4C8B6C24 		movq	8(%rsp), %r13
 1220      08
 1221 0ca5 488B7C24 		movq	48(%rsp), %rdi
 1221      30
 1222 0caa 4C89A424 		movq	%r12, 152(%rsp)
 1222      98000000 
 1223 0cb2 42C60420 		movb	$0, (%rax,%r12)
 1223      00
 1224 0cb7 4C89EE   		movq	%r13, %rsi
 1225              	.LEHB15:
 1226 0cba E8000000 		call	_ZNSt7__cxx1112basic_stringIcSt11char_traitsIcESaIcEE9_M_assignERKS4_@PLT
 1226      00
 1227              	.LEHE15:
 1228 0cbf E9E9FDFF 		jmp	.L235
 1228      FF
 1229              		.p2align 4,,10
 1230 0cc4 0F1F4000 		.p2align 3
 1231              	.L236:
 1232 0cc8 488B7424 		movq	56(%rsp), %rsi
 1232      38
 1233 0ccd 31D2     		xorl	%edx, %edx
 1234 0ccf 4889DF   		movq	%rbx, %rdi
 1235              	.LEHB16:
 1236 0cd2 E8000000 		call	_ZNSt7__cxx1112basic_stringIcSt11char_traitsIcESaIcEE9_M_createERmm@PLT
 1236      00
 1237              	.LEHE16:
 1238 0cd7 488B5424 		movq	72(%rsp), %rdx
 1238      48
 1239 0cdc 48894424 		movq	%rax, 80(%rsp)
 1239      50
 1240 0ce1 48895424 		movq	%rdx, 96(%rsp)
 1240      60
 1241              	.L71:
 1242 0ce6 4C89E2   		movq	%r12, %rdx
 1243 0ce9 4C89EE   		movq	%r13, %rsi
 1244 0cec 4889C7   		movq	%rax, %rdi
 1245 0cef E8000000 		call	memcpy@PLT
 1245      00
 1246 0cf4 4C8B6424 		movq	72(%rsp), %r12
 1246      48
 1247 0cf9 488B4424 		movq	80(%rsp), %rax
 1247      50
 1248 0cfe E9F4F6FF 		jmp	.L73
 1248      FF
 1249              		.p2align 4,,10
 1250 0d03 0F1F4400 		.p2align 3
 1250      00
 1251              	.L72:
 1252 0d08 4D85E4   		testq	%r12, %r12
 1253 0d0b 488D4310 		leaq	16(%rbx), %rax
 1254 0d0f 0F84E2F6 		je	.L73
 1254      FFFF
 1255 0d15 EBCF     		jmp	.L71
 1256 0d17 660F1F84 		.p2align 4,,10
 1256      00000000 
 1256      00
 1257              		.p2align 3
 1258              	.L65:
 1259 0d20 488B8424 		movq	552(%rsp), %rax
 1259      28020000 
 1260 0d28 64483304 		xorq	%fs:40, %rax
 1260      25280000 
 1260      00
 1261 0d31 0F85FB01 		jne	.L241
 1261      0000
 1262 0d37 4881C438 		addq	$568, %rsp
 1262      020000
 1263              		.cfi_remember_state
 1264              		.cfi_def_cfa_offset 56
 1265 0d3e 5B       		popq	%rbx
 1266              		.cfi_def_cfa_offset 48
 1267 0d3f 5D       		popq	%rbp
 1268              		.cfi_def_cfa_offset 40
 1269 0d40 415C     		popq	%r12
 1270              		.cfi_def_cfa_offset 32
 1271 0d42 415D     		popq	%r13
 1272              		.cfi_def_cfa_offset 24
 1273 0d44 415E     		popq	%r14
 1274              		.cfi_def_cfa_offset 16
 1275 0d46 415F     		popq	%r15
 1276              		.cfi_def_cfa_offset 8
 1277 0d48 C3       		ret
 1278 0d49 0F1F8000 		.p2align 4,,10
 1278      000000
 1279              		.p2align 3
 1280              	.L117:
 1281              		.cfi_restore_state
 1282 0d50 488B7C24 		movq	48(%rsp), %rdi
 1282      30
 1283 0d55 488D7550 		leaq	80(%rbp), %rsi
 1284              	.LEHB17:
 1285 0d59 E8000000 		call	_ZNSt7__cxx1112basic_stringIcSt11char_traitsIcESaIcEE9_M_assignERKS4_@PLT
 1285      00
 1286 0d5e E972FDFF 		jmp	.L125
 1286      FF
 1287              		.p2align 4,,10
 1288 0d63 0F1F4400 		.p2align 3
 1288      00
 1289              	.L240:
 1290 0d68 488B7424 		movq	56(%rsp), %rsi
 1290      38
 1291 0d6d 488B7C24 		movq	8(%rsp), %rdi
 1291      08
 1292 0d72 31D2     		xorl	%edx, %edx
 1293 0d74 E8000000 		call	_ZNSt7__cxx1112basic_stringIcSt11char_traitsIcESaIcEE9_M_createERmm@PLT
 1293      00
 1294 0d79 488B5424 		movq	72(%rsp), %rdx
 1294      48
 1295 0d7e 48898424 		movq	%rax, 144(%rsp)
 1295      90000000 
 1296 0d86 48899424 		movq	%rdx, 160(%rsp)
 1296      A0000000 
 1297              	.L128:
 1298 0d8e 4C89E2   		movq	%r12, %rdx
 1299 0d91 4C89EE   		movq	%r13, %rsi
 1300 0d94 4889C7   		movq	%rax, %rdi
 1301 0d97 E8000000 		call	memcpy@PLT
 1301      00
 1302 0d9c 4C8B6424 		movq	72(%rsp), %r12
 1302      48
 1303 0da1 488B8424 		movq	144(%rsp), %rax
 1303      90000000 
 1304 0da9 E9F2FEFF 		jmp	.L130
 1304      FF
 1305 0dae 6690     		.p2align 4,,10
 1306              		.p2align 3
 1307              	.L238:
 1308 0db0 4889F7   		movq	%rsi, %rdi
 1309 0db3 488D7424 		leaq	64(%rsp), %rsi
 1309      40
 1310 0db8 31D2     		xorl	%edx, %edx
 1311 0dba E8000000 		call	_ZNSt7__cxx1112basic_stringIcSt11char_traitsIcESaIcEE9_M_createERmm@PLT
 1311      00
 1312              	.LEHE17:
 1313 0dbf 488B5424 		movq	64(%rsp), %rdx
 1313      40
 1314 0dc4 48898424 		movq	%rax, 144(%rsp)
 1314      90000000 
 1315 0dcc 48899424 		movq	%rdx, 160(%rsp)
 1315      A0000000 
 1316              	.L121:
 1317 0dd4 4C89E2   		movq	%r12, %rdx
 1318 0dd7 4C89EE   		movq	%r13, %rsi
 1319 0dda 4889C7   		movq	%rax, %rdi
 1320 0ddd E8000000 		call	memcpy@PLT
 1320      00
 1321 0de2 4C8B6424 		movq	64(%rsp), %r12
 1321      40
 1322 0de7 488B9424 		movq	144(%rsp), %rdx
 1322      90000000 
 1323 0def E99AFCFF 		jmp	.L123
 1323      FF
 1324              		.p2align 4,,10
 1325 0df4 0F1F4000 		.p2align 3
 1326              	.L129:
 1327 0df8 488B4424 		movq	8(%rsp), %rax
 1327      08
 1328 0dfd 4883C010 		addq	$16, %rax
 1329 0e01 4D85E4   		testq	%r12, %r12
 1330 0e04 0F8496FE 		je	.L130
 1330      FFFF
 1331 0e0a EB82     		jmp	.L128
 1332 0e0c 0F1F4000 		.p2align 4,,10
 1333              		.p2align 3
 1334              	.L122:
 1335 0e10 4885C0   		testq	%rax, %rax
 1336 0e13 0F8475FC 		je	.L123
 1336      FFFF
 1337 0e19 4889D0   		movq	%rdx, %rax
 1338 0e1c EBB6     		jmp	.L121
 1339 0e1e 6690     		.p2align 4,,10
 1340              		.p2align 3
 1341              	.L95:
 1342 0e20 488D3500 		leaq	.LC17(%rip), %rsi
 1342      000000
 1343 0e27 488D3D00 		leaq	.LC18(%rip), %rdi
 1343      000000
 1344 0e2e 4889C1   		movq	%rax, %rcx
 1345 0e31 4C89E2   		movq	%r12, %rdx
 1346 0e34 31C0     		xorl	%eax, %eax
 1347              	.LEHB18:
 1348 0e36 E8000000 		call	_ZSt24__throw_out_of_range_fmtPKcz@PLT
 1348      00
 1349              	.LEHE18:
 1350              	.L155:
 1351              	.L227:
 1352 0e3b 488BBC24 		movq	176(%rsp), %rdi
 1352      B0000000 
 1353 0e43 4883C510 		addq	$16, %rbp
 1354 0e47 4989C4   		movq	%rax, %r12
 1355 0e4a 4839EF   		cmpq	%rbp, %rdi
 1356 0e4d 7405     		je	.L102
 1357 0e4f E8000000 		call	_ZdlPv@PLT
 1357      00
 1358              	.L102:
 1359 0e54 488B7C24 		movq	80(%rsp), %rdi
 1359      50
 1360 0e59 4883C310 		addq	$16, %rbx
 1361 0e5d 4839DF   		cmpq	%rbx, %rdi
 1362 0e60 7405     		je	.L111
 1363 0e62 E8000000 		call	_ZdlPv@PLT
 1363      00
 1364              	.L111:
 1365 0e67 4C89E7   		movq	%r12, %rdi
 1366              	.LEHB19:
 1367 0e6a E8000000 		call	_Unwind_Resume@PLT
 1367      00
 1368              	.LEHE19:
 1369 0e6f 90       		.p2align 4,,10
 1370              		.p2align 3
 1371              	.L90:
 1372 0e70 488D3500 		leaq	.LC17(%rip), %rsi
 1372      000000
 1373 0e77 488D3D00 		leaq	.LC18(%rip), %rdi
 1373      000000
 1374 0e7e 4889C1   		movq	%rax, %rcx
 1375 0e81 4C89E2   		movq	%r12, %rdx
 1376 0e84 31C0     		xorl	%eax, %eax
 1377              	.LEHB20:
 1378 0e86 E8000000 		call	_ZSt24__throw_out_of_range_fmtPKcz@PLT
 1378      00
 1379              	.LEHE20:
 1380              	.L156:
 1381 0e8b EBAE     		jmp	.L227
 1382 0e8d 0F1F00   		.p2align 4,,10
 1383              		.p2align 3
 1384              	.L85:
 1385 0e90 488D3500 		leaq	.LC17(%rip), %rsi
 1385      000000
 1386 0e97 488D3D00 		leaq	.LC18(%rip), %rdi
 1386      000000
 1387 0e9e 4889C1   		movq	%rax, %rcx
 1388 0ea1 4C89E2   		movq	%r12, %rdx
 1389 0ea4 31C0     		xorl	%eax, %eax
 1390              	.LEHB21:
 1391 0ea6 E8000000 		call	_ZSt24__throw_out_of_range_fmtPKcz@PLT
 1391      00
 1392              	.LEHE21:
 1393              	.L157:
 1394 0eab EB8E     		jmp	.L227
 1395 0ead 0F1F00   		.p2align 4,,10
 1396              		.p2align 3
 1397              	.L80:
 1398 0eb0 488D3500 		leaq	.LC17(%rip), %rsi
 1398      000000
 1399 0eb7 488D3D00 		leaq	.LC18(%rip), %rdi
 1399      000000
 1400 0ebe 4889C1   		movq	%rax, %rcx
 1401 0ec1 4C89E2   		movq	%r12, %rdx
 1402 0ec4 31C0     		xorl	%eax, %eax
 1403              	.LEHB22:
 1404 0ec6 E8000000 		call	_ZSt24__throw_out_of_range_fmtPKcz@PLT
 1404      00
 1405              	.LEHE22:
 1406              	.L158:
 1407 0ecb E96BFFFF 		jmp	.L227
 1407      FF
 1408              		.p2align 4,,10
 1409              		.p2align 3
 1410              	.L75:
 1411 0ed0 488D3500 		leaq	.LC17(%rip), %rsi
 1411      000000
 1412 0ed7 488D3D00 		leaq	.LC18(%rip), %rdi
 1412      000000
 1413 0ede 4889C1   		movq	%rax, %rcx
 1414 0ee1 4C89E2   		movq	%r12, %rdx
 1415 0ee4 31C0     		xorl	%eax, %eax
 1416              	.LEHB23:
 1417 0ee6 E8000000 		call	_ZSt24__throw_out_of_range_fmtPKcz@PLT
 1417      00
 1418              	.LEHE23:
 1419              	.L159:
 1420 0eeb E94BFFFF 		jmp	.L227
 1420      FF
 1421              	.L239:
 1422 0ef0 488D3D00 		leaq	.LC16(%rip), %rdi
 1422      000000
 1423              	.LEHB24:
 1424 0ef7 E8000000 		call	_ZSt19__throw_logic_errorPKc@PLT
 1424      00
 1425              	.LEHE24:
 1426              	.L153:
 1427 0efc 488B5424 		movq	48(%rsp), %rdx
 1427      30
 1428 0f01 488B7C24 		movq	112(%rsp), %rdi
 1428      70
 1429 0f06 4889C5   		movq	%rax, %rbp
 1430 0f09 4883C210 		addq	$16, %rdx
 1431 0f0d 4839D7   		cmpq	%rdx, %rdi
 1432 0f10 7405     		je	.L116
 1433 0f12 E8000000 		call	_ZdlPv@PLT
 1433      00
 1434              	.L116:
 1435 0f17 488B7C24 		movq	80(%rsp), %rdi
 1435      50
 1436 0f1c 4883C310 		addq	$16, %rbx
 1437 0f20 4839DF   		cmpq	%rbx, %rdi
 1438 0f23 7405     		je	.L147
 1439 0f25 E8000000 		call	_ZdlPv@PLT
 1439      00
 1440              	.L147:
 1441 0f2a 4889EF   		movq	%rbp, %rdi
 1442              	.LEHB25:
 1443 0f2d E8000000 		call	_Unwind_Resume@PLT
 1443      00
 1444              	.LEHE25:
 1445              	.L241:
 1446 0f32 E8000000 		call	__stack_chk_fail@PLT
 1446      00
 1447              	.L161:
 1448 0f37 4989C6   		movq	%rax, %r14
 1449 0f3a 488B0500 		movq	_ZTVNSt7__cxx1115basic_stringbufIcSt11char_traitsIcESaIcEEE@GOTPCREL(%rip), %rax
 1449      000000
 1450 0f41 488BBC24 		movq	256(%rsp), %rdi
 1450      00010000 
 1451 0f49 4883C010 		addq	$16, %rax
 1452 0f4d 48898424 		movq	%rax, 184(%rsp)
 1452      B8000000 
 1453 0f55 488D4560 		leaq	96(%rbp), %rax
 1454 0f59 4839C7   		cmpq	%rax, %rdi
 1455 0f5c 7405     		je	.L114
 1456 0f5e E8000000 		call	_ZdlPv@PLT
 1456      00
 1457              	.L114:
 1458 0f63 488B0500 		movq	_ZTVSt15basic_streambufIcSt11char_traitsIcEE@GOTPCREL(%rip), %rax
 1458      000000
 1459 0f6a 488D7D40 		leaq	64(%rbp), %rdi
 1460 0f6e 4883C010 		addq	$16, %rax
 1461 0f72 48898424 		movq	%rax, 184(%rsp)
 1461      B8000000 
 1462 0f7a E8000000 		call	_ZNSt6localeD1Ev@PLT
 1462      00
 1463 0f7f 498B4424 		movq	-24(%r12), %rax
 1463      E8
 1464 0f84 4C89A424 		movq	%r12, 176(%rsp)
 1464      B0000000 
 1465 0f8c 4C89AC04 		movq	%r13, 176(%rsp,%rax)
 1465      B0000000 
 1466              	.L115:
 1467 0f94 488B0500 		movq	_ZTVSt9basic_iosIcSt11char_traitsIcEE@GOTPCREL(%rip), %rax
 1467      000000
 1468 0f9b 488D7D70 		leaq	112(%rbp), %rdi
 1469 0f9f 4C89F5   		movq	%r14, %rbp
 1470 0fa2 4883C010 		addq	$16, %rax
 1471 0fa6 48898424 		movq	%rax, 288(%rsp)
 1471      20010000 
 1472 0fae E8000000 		call	_ZNSt8ios_baseD2Ev@PLT
 1472      00
 1473 0fb3 E95FFFFF 		jmp	.L116
 1473      FF
 1474              	.L160:
 1475 0fb8 4989C6   		movq	%rax, %r14
 1476 0fbb EBD7     		jmp	.L115
 1477              	.L163:
 1478              	.L233:
 1479 0fbd 4989C4   		movq	%rax, %r12
 1480 0fc0 488B4424 		movq	8(%rsp), %rax
 1480      08
 1481 0fc5 488BBC24 		movq	144(%rsp), %rdi
 1481      90000000 
 1482 0fcd 4883C010 		addq	$16, %rax
 1483 0fd1 4839C7   		cmpq	%rax, %rdi
 1484 0fd4 7405     		je	.L134
 1485 0fd6 E8000000 		call	_ZdlPv@PLT
 1485      00
 1486              	.L134:
 1487 0fdb 488B4424 		movq	48(%rsp), %rax
 1487      30
 1488 0fe0 488B7C24 		movq	112(%rsp), %rdi
 1488      70
 1489 0fe5 4883C010 		addq	$16, %rax
 1490 0fe9 4839C7   		cmpq	%rax, %rdi
 1491 0fec 7405     		je	.L138
 1492 0fee E8000000 		call	_ZdlPv@PLT
 1492      00
 1493              	.L138:
 1494 0ff3 4889EF   		movq	%rbp, %rdi
 1495 0ff6 4C89E5   		movq	%r12, %rbp
 1496 0ff9 E8000000 		call	_ZNSt7__cxx1119basic_ostringstreamIcSt11char_traitsIcESaIcEED1Ev@PLT
 1496      00
 1497 0ffe E914FFFF 		jmp	.L116
 1497      FF
 1498              	.L152:
 1499 1003 4889C5   		movq	%rax, %rbp
 1500 1006 E90CFFFF 		jmp	.L116
 1500      FF
 1501              	.L162:
 1502 100b 4989C4   		movq	%rax, %r12
 1503 100e EBCB     		jmp	.L134
 1504              	.L164:
 1505 1010 EBAB     		jmp	.L233
 1506              	.L237:
 1507 1012 488D3D00 		leaq	.LC16(%rip), %rdi
 1507      000000
 1508              	.LEHB26:
 1509 1019 E8000000 		call	_ZSt19__throw_logic_errorPKc@PLT
 1509      00
 1510              	.LEHE26:
 1511              	.L154:
 1512 101e 4989C4   		movq	%rax, %r12
 1513 1021 EBD0     		jmp	.L138
 1514              		.cfi_endproc
 1515              	.LFE1389:
 1516              		.section	.gcc_except_table,"a",@progbits
 1517              	.LLSDA1389:
 1518 0000 FF       		.byte	0xff
 1519 0001 FF       		.byte	0xff
 1520 0002 01       		.byte	0x1
 1521 0003 9501     		.uleb128 .LLSDACSE1389-.LLSDACSB1389
 1522              	.LLSDACSB1389:
 1523 0005 3B       		.uleb128 .LEHB2-.LFB1389
 1524 0006 05       		.uleb128 .LEHE2-.LEHB2
 1525 0007 00       		.uleb128 0
 1526 0008 00       		.uleb128 0
 1527 0009 9602     		.uleb128 .LEHB3-.LFB1389
 1528 000b 8701     		.uleb128 .LEHE3-.LEHB3
 1529 000d CB17     		.uleb128 .L159-.LFB1389
 1530 000f 00       		.uleb128 0
 1531 0010 F003     		.uleb128 .LEHB4-.LFB1389
 1532 0012 8D01     		.uleb128 .LEHE4-.LEHB4
 1533 0014 AB17     		.uleb128 .L158-.LFB1389
 1534 0016 00       		.uleb128 0
 1535 0017 D005     		.uleb128 .LEHB5-.LFB1389
 1536 0019 8D01     		.uleb128 .LEHE5-.LEHB5
 1537 001b 8B17     		.uleb128 .L157-.LFB1389
 1538 001d 00       		.uleb128 0
 1539 001e B907     		.uleb128 .LEHB6-.LFB1389
 1540 0020 8401     		.uleb128 .LEHE6-.LEHB6
 1541 0022 EB16     		.uleb128 .L156-.LFB1389
 1542 0024 00       		.uleb128 0
 1543 0025 9909     		.uleb128 .LEHB7-.LFB1389
 1544 0027 8401     		.uleb128 .LEHE7-.LEHB7
 1545 0029 9B16     		.uleb128 .L155-.LFB1389
 1546 002b 00       		.uleb128 0
 1547 002c D20B     		.uleb128 .LEHB8-.LFB1389
 1548 002e 05       		.uleb128 .LEHE8-.LEHB8
 1549 002f 9819     		.uleb128 .L160-.LFB1389
 1550 0031 00       		.uleb128 0
 1551 0032 FB0C     		.uleb128 .LEHB9-.LFB1389
 1552 0034 05       		.uleb128 .LEHE9-.LEHB9
 1553 0035 9718     		.uleb128 .L161-.LFB1389
 1554 0037 00       		.uleb128 0
 1555 0038 8B0D     		.uleb128 .LEHB10-.LFB1389
 1556 003a 59       		.uleb128 .LEHE10-.LEHB10
 1557 003b FE19     		.uleb128 .L154-.LFB1389
 1558 003d 00       		.uleb128 0
 1559 003e 880F     		.uleb128 .LEHB11-.LFB1389
 1560 0040 05       		.uleb128 .LEHE11-.LEHB11
 1561 0041 F019     		.uleb128 .L164-.LFB1389
 1562 0043 00       		.uleb128 0
 1563 0044 D910     		.uleb128 .LEHB12-.LFB1389
 1564 0046 05       		.uleb128 .LEHE12-.LEHB12
 1565 0047 E319     		.uleb128 .L152-.LFB1389
 1566 0049 00       		.uleb128 0
 1567 004a EF10     		.uleb128 .LEHB13-.LFB1389
 1568 004c 5B       		.uleb128 .LEHE13-.LEHB13
 1569 004d DC17     		.uleb128 .L153-.LFB1389
 1570 004f 00       		.uleb128 0
 1571 0050 A912     		.uleb128 .LEHB14-.LFB1389
 1572 0052 05       		.uleb128 .LEHE14-.LEHB14
 1573 0053 00       		.uleb128 0
 1574 0054 00       		.uleb128 0
 1575 0055 9A13     		.uleb128 .LEHB15-.LFB1389
 1576 0057 05       		.uleb128 .LEHE15-.LEHB15
 1577 0058 9D19     		.uleb128 .L163-.LFB1389
 1578 005a 00       		.uleb128 0
 1579 005b B213     		.uleb128 .LEHB16-.LFB1389
 1580 005d 05       		.uleb128 .LEHE16-.LEHB16
 1581 005e 00       		.uleb128 0
 1582 005f 00       		.uleb128 0
 1583 0060 B914     		.uleb128 .LEHB17-.LFB1389
 1584 0062 66       		.uleb128 .LEHE17-.LEHB17
 1585 0063 EB19     		.uleb128 .L162-.LFB1389
 1586 0065 00       		.uleb128 0
 1587 0066 9616     		.uleb128 .LEHB18-.LFB1389
 1588 0068 05       		.uleb128 .LEHE18-.LEHB18
 1589 0069 9B16     		.uleb128 .L155-.LFB1389
 1590 006b 00       		.uleb128 0
 1591 006c CA16     		.uleb128 .LEHB19-.LFB1389
 1592 006e 05       		.uleb128 .LEHE19-.LEHB19
 1593 006f 00       		.uleb128 0
 1594 0070 00       		.uleb128 0
 1595 0071 E616     		.uleb128 .LEHB20-.LFB1389
 1596 0073 05       		.uleb128 .LEHE20-.LEHB20
 1597 0074 EB16     		.uleb128 .L156-.LFB1389
 1598 0076 00       		.uleb128 0
 1599 0077 8617     		.uleb128 .LEHB21-.LFB1389
 1600 0079 05       		.uleb128 .LEHE21-.LEHB21
 1601 007a 8B17     		.uleb128 .L157-.LFB1389
 1602 007c 00       		.uleb128 0
 1603 007d A617     		.uleb128 .LEHB22-.LFB1389
 1604 007f 05       		.uleb128 .LEHE22-.LEHB22
 1605 0080 AB17     		.uleb128 .L158-.LFB1389
 1606 0082 00       		.uleb128 0
 1607 0083 C617     		.uleb128 .LEHB23-.LFB1389
 1608 0085 05       		.uleb128 .LEHE23-.LEHB23
 1609 0086 CB17     		.uleb128 .L159-.LFB1389
 1610 0088 00       		.uleb128 0
 1611 0089 D717     		.uleb128 .LEHB24-.LFB1389
 1612 008b 05       		.uleb128 .LEHE24-.LEHB24
 1613 008c EB19     		.uleb128 .L162-.LFB1389
 1614 008e 00       		.uleb128 0
 1615 008f 8D18     		.uleb128 .LEHB25-.LFB1389
 1616 0091 05       		.uleb128 .LEHE25-.LEHB25
 1617 0092 00       		.uleb128 0
 1618 0093 00       		.uleb128 0
 1619 0094 F919     		.uleb128 .LEHB26-.LFB1389
 1620 0096 05       		.uleb128 .LEHE26-.LEHB26
 1621 0097 EB19     		.uleb128 .L162-.LFB1389
 1622 0099 00       		.uleb128 0
 1623              	.LLSDACSE1389:
 1624              		.text
 1626 1023 90       		.align 2
 1627 1024 6690662E 		.p2align 4,,15
 1627      0F1F8400 
 1627      00000000 
 1628              		.globl	_ZN8UnitTest15XmlTestReporter13ReportSummaryEiiif
 1630              	_ZN8UnitTest15XmlTestReporter13ReportSummaryEiiif:
 1631              	.LFB1383:
 1632              		.cfi_startproc
 1633 1030 4155     		pushq	%r13
 1634              		.cfi_def_cfa_offset 16
 1635              		.cfi_offset 13, -16
 1636 1032 4154     		pushq	%r12
 1637              		.cfi_def_cfa_offset 24
 1638              		.cfi_offset 12, -24
 1639 1034 4189D4   		movl	%edx, %r12d
 1640 1037 55       		pushq	%rbp
 1641              		.cfi_def_cfa_offset 32
 1642              		.cfi_offset 6, -32
 1643 1038 53       		pushq	%rbx
 1644              		.cfi_def_cfa_offset 40
 1645              		.cfi_offset 3, -40
 1646 1039 89F3     		movl	%esi, %ebx
 1647 103b 4889FD   		movq	%rdi, %rbp
 1648 103e 31D2     		xorl	%edx, %edx
 1649 1040 4189CD   		movl	%ecx, %r13d
 1650 1043 4883EC18 		subq	$24, %rsp
 1651              		.cfi_def_cfa_offset 64
 1652 1047 488B7720 		movq	32(%rdi), %rsi
 1653 104b F30F1144 		movss	%xmm0, 12(%rsp)
 1653      240C
 1654 1051 E8000000 		call	_ZN8UnitTest15XmlTestReporter13AddXmlElementERSoPKc@PLT
 1654      00
 1655 1056 488B7520 		movq	32(%rbp), %rsi
 1656 105a 4489E1   		movl	%r12d, %ecx
 1657 105d 89DA     		movl	%ebx, %edx
 1658 105f F30F1044 		movss	12(%rsp), %xmm0
 1658      240C
 1659 1065 4589E8   		movl	%r13d, %r8d
 1660 1068 4889EF   		movq	%rbp, %rdi
 1661 106b E8000000 		call	_ZN8UnitTest15XmlTestReporter12BeginResultsERSoiiif@PLT
 1661      00
 1662 1070 4889EF   		movq	%rbp, %rdi
 1663 1073 E8000000 		call	_ZN8UnitTest20DeferredTestReporter10GetResultsEv@PLT
 1663      00
 1664 1078 488B18   		movq	(%rax), %rbx
 1665 107b 483B5808 		cmpq	8(%rax), %rbx
 1666 107f 4989C4   		movq	%rax, %r12
 1667 1082 7433     		je	.L244
 1668              		.p2align 4,,10
 1669 1084 0F1F4000 		.p2align 3
 1670              	.L243:
 1671 1088 488B7520 		movq	32(%rbp), %rsi
 1672 108c 4889DA   		movq	%rbx, %rdx
 1673 108f 4889EF   		movq	%rbp, %rdi
 1674 1092 E8000000 		call	_ZN8UnitTest15XmlTestReporter9BeginTestERSoRKNS_18DeferredTestResultE@PLT
 1674      00
 1675 1097 807B7C00 		cmpb	$0, 124(%rbx)
 1676 109b 488B7520 		movq	32(%rbp), %rsi
 1677 109f 4889DA   		movq	%rbx, %rdx
 1678 10a2 4889EF   		movq	%rbp, %rdi
 1679 10a5 7529     		jne	.L249
 1680 10a7 E8000000 		call	_ZN8UnitTest15XmlTestReporter7EndTestERSoRKNS_18DeferredTestResultE@PLT
 1680      00
 1681 10ac 4883EB80 		subq	$-128, %rbx
 1682 10b0 49395C24 		cmpq	%rbx, 8(%r12)
 1682      08
 1683 10b5 75D1     		jne	.L243
 1684              	.L244:
 1685 10b7 488B7520 		movq	32(%rbp), %rsi
 1686 10bb 4883C418 		addq	$24, %rsp
 1687              		.cfi_remember_state
 1688              		.cfi_def_cfa_offset 40
 1689 10bf 4889EF   		movq	%rbp, %rdi
 1690 10c2 5B       		popq	%rbx
 1691              		.cfi_def_cfa_offset 32
 1692 10c3 5D       		popq	%rbp
 1693              		.cfi_def_cfa_offset 24
 1694 10c4 415C     		popq	%r12
 1695              		.cfi_def_cfa_offset 16
 1696 10c6 415D     		popq	%r13
 1697              		.cfi_def_cfa_offset 8
 1698 10c8 E9000000 		jmp	_ZN8UnitTest15XmlTestReporter10EndResultsERSo@PLT
 1698      00
 1699 10cd 0F1F00   		.p2align 4,,10
 1700              		.p2align 3
 1701              	.L249:
 1702              		.cfi_restore_state
 1703 10d0 E8000000 		call	_ZN8UnitTest15XmlTestReporter10AddFailureERSoRKNS_18DeferredTestResultE@PLT
 1703      00
 1704 10d5 488B7520 		movq	32(%rbp), %rsi
 1705 10d9 4889DA   		movq	%rbx, %rdx
 1706 10dc 4889EF   		movq	%rbp, %rdi
 1707 10df 4883EB80 		subq	$-128, %rbx
 1708 10e3 E8000000 		call	_ZN8UnitTest15XmlTestReporter7EndTestERSoRKNS_18DeferredTestResultE@PLT
 1708      00
 1709 10e8 493B5C24 		cmpq	8(%r12), %rbx
 1709      08
 1710 10ed 7599     		jne	.L243
 1711 10ef EBC6     		jmp	.L244
 1712              		.cfi_endproc
 1713              	.LFE1383:
 1715              		.section	.text.startup,"ax",@progbits
 1716              		.p2align 4,,15
 1718              	_GLOBAL__sub_I_XmlTestReporter.cpp:
 1719              	.LFB1611:
 1720              		.cfi_startproc
 1721 0000 488D3D00 		leaq	_ZStL8__ioinit(%rip), %rdi
 1721      000000
 1722 0007 4883EC08 		subq	$8, %rsp
 1723              		.cfi_def_cfa_offset 16
 1724 000b E8000000 		call	_ZNSt8ios_base4InitC1Ev@PLT
 1724      00
 1725 0010 488B3D00 		movq	_ZNSt8ios_base4InitD1Ev@GOTPCREL(%rip), %rdi
 1725      000000
 1726 0017 488D1500 		leaq	__dso_handle(%rip), %rdx
 1726      000000
 1727 001e 488D3500 		leaq	_ZStL8__ioinit(%rip), %rsi
 1727      000000
 1728 0025 4883C408 		addq	$8, %rsp
 1729              		.cfi_def_cfa_offset 8
 1730 0029 E9000000 		jmp	__cxa_atexit@PLT
 1730      00
 1731              		.cfi_endproc
 1732              	.LFE1611:
 1734              		.section	.init_array,"aw"
 1735              		.align 8
 1736 0000 00000000 		.quad	_GLOBAL__sub_I_XmlTestReporter.cpp
 1736      00000000 
 1737              		.weak	_ZTSN8UnitTest15XmlTestReporterE
 1738              		.section	.rodata._ZTSN8UnitTest15XmlTestReporterE,"aG",@progbits,_ZTSN8UnitTest15XmlTestReporterE,
 1739              		.align 16
 1742              	_ZTSN8UnitTest15XmlTestReporterE:
 1743 0000 4E38556E 		.string	"N8UnitTest15XmlTestReporterE"
 1743      69745465 
 1743      73743135 
 1743      586D6C54 
 1743      65737452 
 1744              		.weak	_ZTIN8UnitTest15XmlTestReporterE
 1745              		.section	.data.rel.ro._ZTIN8UnitTest15XmlTestReporterE,"awG",@progbits,_ZTIN8UnitTest15XmlTestRepo
 1746              		.align 8
 1749              	_ZTIN8UnitTest15XmlTestReporterE:
 1750 0000 00000000 		.quad	_ZTVN10__cxxabiv120__si_class_type_infoE+16
 1750      00000000 
 1751 0008 00000000 		.quad	_ZTSN8UnitTest15XmlTestReporterE
 1751      00000000 
 1752 0010 00000000 		.quad	_ZTIN8UnitTest20DeferredTestReporterE
 1752      00000000 
 1753              		.weak	_ZTVN8UnitTest15XmlTestReporterE
 1754              		.section	.data.rel.ro._ZTVN8UnitTest15XmlTestReporterE,"awG",@progbits,_ZTVN8UnitTest15XmlTestRepo
 1755              		.align 8
 1758              	_ZTVN8UnitTest15XmlTestReporterE:
 1759 0000 00000000 		.quad	0
 1759      00000000 
 1760 0008 00000000 		.quad	_ZTIN8UnitTest15XmlTestReporterE
 1760      00000000 
 1761 0010 00000000 		.quad	_ZN8UnitTest15XmlTestReporterD1Ev
 1761      00000000 
 1762 0018 00000000 		.quad	_ZN8UnitTest15XmlTestReporterD0Ev
 1762      00000000 
 1763 0020 00000000 		.quad	_ZN8UnitTest20DeferredTestReporter15ReportTestStartERKNS_11TestDetailsE
 1763      00000000 
 1764 0028 00000000 		.quad	_ZN8UnitTest20DeferredTestReporter13ReportFailureERKNS_11TestDetailsEPKc
 1764      00000000 
 1765 0030 00000000 		.quad	_ZN8UnitTest20DeferredTestReporter16ReportTestFinishERKNS_11TestDetailsEf
 1765      00000000 
 1766 0038 00000000 		.quad	_ZN8UnitTest15XmlTestReporter13ReportSummaryEiiif
 1766      00000000 
 1767              		.local	_ZStL8__ioinit
 1768              		.comm	_ZStL8__ioinit,1,1
 1769              		.hidden	DW.ref.__gxx_personality_v0
 1770              		.weak	DW.ref.__gxx_personality_v0
 1771              		.section	.data.DW.ref.__gxx_personality_v0,"awG",@progbits,DW.ref.__gxx_personality_v0,comdat
 1772              		.align 8
 1775              	DW.ref.__gxx_personality_v0:
 1776 0000 00000000 		.quad	__gxx_personality_v0
 1776      00000000 
 1777              		.hidden	__dso_handle
 1778              		.ident	"GCC: (Ubuntu 7.2.0-8ubuntu3.2) 7.2.0"
 1779              		.section	.note.GNU-stack,"",@progbits